Archive member included because of file (symbol)

../LibA5T1000/gcc\libsyscall.a(app_call.o)
                              obj/GetCert.o (lib_app_call)
../LibA5T1000/gcc\libsyscall.a(app_sw.o)
                              obj/coremain.o (os_call_app)
../LibA5T1000/gcc\libsyscall.a(sys_call.o)
                              obj/GetCert.o (sys_func3)
../LibA5T1000/gcc\libbasecall.a(base_call.o)
                              obj/hardware.o (base_func0)
../LibA5T1000/gcc\libsptutil.a(bcd2bin.o)
                              obj/ftptran.o (bcd2bin)
../LibA5T1000/gcc\libsptutil.a(bcd2val.o)
                              ../LibA5T1000/gcc\libsptutil.a(bcd2bin.o) (bcd2val)
../LibA5T1000/gcc\libsptutil.a(bcdadd.o)
                              obj/sysutil.o (bcdadd)
../LibA5T1000/gcc\libsptutil.a(bcdinc.o)
                              obj/termdata.o (bcdinc)
../LibA5T1000/gcc\libsptutil.a(bcdsub.o)
                              obj/sysutil.o (bcdsub)
../LibA5T1000/gcc\libsptutil.a(bin2dec.o)
                              obj/emvtrans.o (bin2dec)
../LibA5T1000/gcc\libsptutil.a(chkdigit.o)
                              obj/apmtest.o (chk_digit)
../LibA5T1000/gcc\libsptutil.a(chkdok.o)
                              obj/termdata.o (chk_digit_ok)
../LibA5T1000/gcc\libsptutil.a(compress.o)
                              obj/ftptran.o (compress)
../LibA5T1000/gcc\libsptutil.a(crcccitt.o)
                              obj/stis.o (cal_crc)
../LibA5T1000/gcc\libsptutil.a(dbin2asc.o)
                              obj/ftptran.o (dbin2asc)
../LibA5T1000/gcc\libsptutil.a(dec2bin.o)
                              obj/ftptran.o (dec2bin)
../LibA5T1000/gcc\libsptutil.a(decbin8b.o)
                              obj/ftptran.o (decbin8b)
../LibA5T1000/gcc\libsptutil.a(fndb.o)
                              obj/comm.o (fndb)
../LibA5T1000/gcc\libsptutil.a(get_byte.o)
                              obj/inittran.o (get_byte)
../LibA5T1000/gcc\libsptutil.a(get_dist.o)
                              obj/inittran.o (get_distance)
../LibA5T1000/gcc\libsptutil.a(get_mem.o)
                              obj/inittran.o (get_mem)
../LibA5T1000/gcc\libsptutil.a(get_pptr.o)
                              obj/inittran.o (get_pptr)
../LibA5T1000/gcc\libsptutil.a(hex_val.o)
                              obj/GetCert.o (hex_value)
../LibA5T1000/gcc\libsptutil.a(inc_pptr.o)
                              obj/inittran.o (inc_pptr)
../LibA5T1000/gcc\libsptutil.a(lbin2asc.o)
                              obj/emvtrans.o (lbin2asc)
../LibA5T1000/gcc\libsptutil.a(lrc.o)
                              obj/inittran.o (lrc)
../LibA5T1000/gcc\libsptutil.a(pack_b.o)
                              obj/inittran.o (pack_byte)
../LibA5T1000/gcc\libsptutil.a(pack_mem.o)
                              obj/inittran.o (pack_mem)
../LibA5T1000/gcc\libsptutil.a(pack_nul.o)
                              obj/inittran.o (pack_null)
../LibA5T1000/gcc\libsptutil.a(peek_b.o)
                              obj/inittran.o (peek_byte)
../LibA5T1000/gcc\libsptutil.a(set_pptr.o)
                              ../LibA5T1000/gcc\libsptutil.a(get_mem.o) (buffer_overflow)
../LibA5T1000/gcc\libsptutil.a(skpb.o)
                              obj/emvtrans.o (skpb)
../LibA5T1000/gcc\libsptutil.a(split.o)
                              obj/comm.o (split)
../LibA5T1000/gcc\libsptutil.a(unix_tm.o)
                              obj/sysutil.o (RTC2UNIX)
../LibA5T1000/gcc\libsptutil.a(val2bcd.o)
                              ../LibA5T1000/gcc\libsptutil.a(bcdadd.o) (val2bcd)
../LibA5T1000/gcc\libsptutil.a(hexdigit.o)
                              ../LibA5T1000/gcc\libsptutil.a(split.o) (hex_digit)
../LibA5T1000/gcc\libsptutil.a(pack_nb.o)
                              ../LibA5T1000/gcc\libsptutil.a(pack_nul.o) (pack_nbyte)
C:\DevTools\gcc_v49_2014q4/arm-none-eabi/lib/thumb\libc.a(lib_a-atoi.o)
                              obj/param.o (atoi)
C:\DevTools\gcc_v49_2014q4/arm-none-eabi/lib/thumb\libc.a(lib_a-ctype_.o)
                              obj/kbdutil.o (__ctype_ptr__)
C:\DevTools\gcc_v49_2014q4/arm-none-eabi/lib/thumb\libc.a(lib_a-memcmp.o)
                              obj/GetCert.o (memcmp)
C:\DevTools\gcc_v49_2014q4/arm-none-eabi/lib/thumb\libc.a(lib_a-memcpy.o)
                              obj/GetCert.o (memcpy)
C:\DevTools\gcc_v49_2014q4/arm-none-eabi/lib/thumb\libc.a(lib_a-memmove.o)
                              obj/kbdutil.o (memmove)
C:\DevTools\gcc_v49_2014q4/arm-none-eabi/lib/thumb\libc.a(lib_a-memset.o)
                              obj/GetCert.o (memset)
C:\DevTools\gcc_v49_2014q4/arm-none-eabi/lib/thumb\libc.a(lib_a-strcat.o)
                              obj/GetCert.o (strcat)
C:\DevTools\gcc_v49_2014q4/arm-none-eabi/lib/thumb\libc.a(lib_a-strchr.o)
                              obj/mxml-search.o (strchr)
C:\DevTools\gcc_v49_2014q4/arm-none-eabi/lib/thumb\libc.a(lib_a-strcmp.o)
                              obj/ftptran.o (strcmp)
C:\DevTools\gcc_v49_2014q4/arm-none-eabi/lib/thumb\libc.a(lib_a-strcpy.o)
                              obj/GetCert.o (strcpy)
C:\DevTools\gcc_v49_2014q4/arm-none-eabi/lib/thumb\libc.a(lib_a-strlen.o)
                              obj/GetCert.o (strlen)
C:\DevTools\gcc_v49_2014q4/arm-none-eabi/lib/thumb\libc.a(lib_a-strncmp.o)
                              obj/mxml-file.o (strncmp)
C:\DevTools\gcc_v49_2014q4/arm-none-eabi/lib/thumb\libc.a(lib_a-strncpy.o)
                              obj/mxml-string.o (strncpy)
C:\DevTools\gcc_v49_2014q4/arm-none-eabi/lib/thumb\libc.a(lib_a-strtod.o)
                              obj/mxml-file.o (strtod)
C:\DevTools\gcc_v49_2014q4/arm-none-eabi/lib/thumb\libc.a(lib_a-strtol.o)
                              C:\DevTools\gcc_v49_2014q4/arm-none-eabi/lib/thumb\libc.a(lib_a-atoi.o) (_strtol_r)
C:\DevTools\gcc_v49_2014q4/arm-none-eabi/lib/thumb\libc.a(lib_a-gdtoa-gethex.o)
                              C:\DevTools\gcc_v49_2014q4/arm-none-eabi/lib/thumb\libc.a(lib_a-strtod.o) (__gethex)
C:\DevTools\gcc_v49_2014q4/arm-none-eabi/lib/thumb\libc.a(lib_a-gdtoa-hexnan.o)
                              C:\DevTools\gcc_v49_2014q4/arm-none-eabi/lib/thumb\libc.a(lib_a-strtod.o) (__hexnan)
C:\DevTools\gcc_v49_2014q4/arm-none-eabi/lib/thumb\libc.a(lib_a-impure.o)
                              C:\DevTools\gcc_v49_2014q4/arm-none-eabi/lib/thumb\libc.a(lib_a-strtod.o) (_impure_ptr)
C:\DevTools\gcc_v49_2014q4/arm-none-eabi/lib/thumb\libc.a(lib_a-locale.o)
                              C:\DevTools\gcc_v49_2014q4/arm-none-eabi/lib/thumb\libc.a(lib_a-strtod.o) (_localeconv_r)
C:\DevTools\gcc_v49_2014q4/arm-none-eabi/lib/thumb\libc.a(lib_a-mprec.o)
                              C:\DevTools\gcc_v49_2014q4/arm-none-eabi/lib/thumb\libc.a(lib_a-strtod.o) (_Balloc)
C:\DevTools\gcc_v49_2014q4/arm-none-eabi/lib/thumb\libc.a(lib_a-s_fpclassify.o)
                              C:\DevTools\gcc_v49_2014q4/arm-none-eabi/lib/thumb\libc.a(lib_a-strtod.o) (__fpclassifyd)
C:\DevTools\gcc_v49_2014q4/arm-none-eabi/lib/thumb\libc.a(lib_a-sf_nan.o)
                              C:\DevTools\gcc_v49_2014q4/arm-none-eabi/lib/thumb\libc.a(lib_a-strtod.o) (nanf)
C:\DevTools\gcc_v49_2014q4/arm-none-eabi/lib/thumb\libc.a(lib_a-callocr.o)
                              C:\DevTools\gcc_v49_2014q4/arm-none-eabi/lib/thumb\libc.a(lib_a-mprec.o) (_calloc_r)
C:\DevTools\gcc_v49_2014q4/arm-none-eabi/lib/thumb\libc.a(lib_a-mallocr.o)
                              C:\DevTools\gcc_v49_2014q4/arm-none-eabi/lib/thumb\libc.a(lib_a-callocr.o) (_malloc_r)
C:\DevTools\gcc_v49_2014q4/arm-none-eabi/lib/thumb\libc.a(lib_a-mlock.o)
                              C:\DevTools\gcc_v49_2014q4/arm-none-eabi/lib/thumb\libc.a(lib_a-mallocr.o) (__malloc_lock)
C:\DevTools\gcc_v49_2014q4/arm-none-eabi/lib/thumb\libc.a(lib_a-freer.o)
                              C:\DevTools\gcc_v49_2014q4/arm-none-eabi/lib/thumb\libc.a(lib_a-mallocr.o) (_free_r)
c:/devtools/gcc_v49_2014q4/bin/../lib/gcc/arm-none-eabi/4.9.3\libgcc.a(_udivsi3.o)
                              obj/batchsys.o (__aeabi_uidiv)
c:/devtools/gcc_v49_2014q4/bin/../lib/gcc/arm-none-eabi/4.9.3\libgcc.a(_divsi3.o)
                              obj/infodata.o (__aeabi_idiv)
c:/devtools/gcc_v49_2014q4/bin/../lib/gcc/arm-none-eabi/4.9.3\libgcc.a(_dvmd_tls.o)
                              c:/devtools/gcc_v49_2014q4/bin/../lib/gcc/arm-none-eabi/4.9.3\libgcc.a(_udivsi3.o) (__aeabi_idiv0)
c:/devtools/gcc_v49_2014q4/bin/../lib/gcc/arm-none-eabi/4.9.3\libgcc.a(_arm_addsubdf3.o)
                              C:\DevTools\gcc_v49_2014q4/arm-none-eabi/lib/thumb\libc.a(lib_a-strtod.o) (__aeabi_dsub)
c:/devtools/gcc_v49_2014q4/bin/../lib/gcc/arm-none-eabi/4.9.3\libgcc.a(_arm_muldivdf3.o)
                              obj/libc.o (__aeabi_dmul)
c:/devtools/gcc_v49_2014q4/bin/../lib/gcc/arm-none-eabi/4.9.3\libgcc.a(_arm_cmpdf2.o)
                              obj/libc.o (__aeabi_dcmpeq)
c:/devtools/gcc_v49_2014q4/bin/../lib/gcc/arm-none-eabi/4.9.3\libgcc.a(_arm_fixdfsi.o)
                              C:\DevTools\gcc_v49_2014q4/arm-none-eabi/lib/thumb\libc.a(lib_a-strtod.o) (__aeabi_d2iz)
c:/devtools/gcc_v49_2014q4/bin/../lib/gcc/arm-none-eabi/4.9.3\libgcc.a(_arm_fixunsdfsi.o)
                              C:\DevTools\gcc_v49_2014q4/arm-none-eabi/lib/thumb\libc.a(lib_a-strtod.o) (__aeabi_d2uiz)
c:/devtools/gcc_v49_2014q4/bin/../lib/gcc/arm-none-eabi/4.9.3\libgcc.a(_arm_truncdfsf2.o)
                              C:\DevTools\gcc_v49_2014q4/arm-none-eabi/lib/thumb\libc.a(lib_a-strtod.o) (__aeabi_d2f)
c:/devtools/gcc_v49_2014q4/bin/../lib/gcc/arm-none-eabi/4.9.3\libgcc.a(_aeabi_ldivmod.o)
                              obj/libc.o (__aeabi_ldivmod)
c:/devtools/gcc_v49_2014q4/bin/../lib/gcc/arm-none-eabi/4.9.3\libgcc.a(_aeabi_uldivmod.o)
                              ../LibA5T1000/gcc\libsptutil.a(dbin2asc.o) (__aeabi_uldivmod)
c:/devtools/gcc_v49_2014q4/bin/../lib/gcc/arm-none-eabi/4.9.3\libgcc.a(_fixdfdi.o)
                              obj/libc.o (__aeabi_d2lz)
c:/devtools/gcc_v49_2014q4/bin/../lib/gcc/arm-none-eabi/4.9.3\libgcc.a(_fixunsdfdi.o)
                              c:/devtools/gcc_v49_2014q4/bin/../lib/gcc/arm-none-eabi/4.9.3\libgcc.a(_fixdfdi.o) (__aeabi_d2ulz)
c:/devtools/gcc_v49_2014q4/bin/../lib/gcc/arm-none-eabi/4.9.3\libgcc.a(bpabi.o)
                              c:/devtools/gcc_v49_2014q4/bin/../lib/gcc/arm-none-eabi/4.9.3\libgcc.a(_aeabi_ldivmod.o) (__gnu_ldivmod_helper)
c:/devtools/gcc_v49_2014q4/bin/../lib/gcc/arm-none-eabi/4.9.3\libgcc.a(_divdi3.o)
                              c:/devtools/gcc_v49_2014q4/bin/../lib/gcc/arm-none-eabi/4.9.3\libgcc.a(bpabi.o) (__divdi3)
c:/devtools/gcc_v49_2014q4/bin/../lib/gcc/arm-none-eabi/4.9.3\libgcc.a(_udivdi3.o)
                              c:/devtools/gcc_v49_2014q4/bin/../lib/gcc/arm-none-eabi/4.9.3\libgcc.a(bpabi.o) (__udivdi3)
c:/devtools/gcc_v49_2014q4/bin/../lib/gcc/arm-none-eabi/4.9.3\libgcc.a(_clzdi2.o)
                              c:/devtools/gcc_v49_2014q4/bin/../lib/gcc/arm-none-eabi/4.9.3\libgcc.a(_divdi3.o) (__clzdi2)
c:/devtools/gcc_v49_2014q4/bin/../lib/gcc/arm-none-eabi/4.9.3\libgcc.a(_clzsi2.o)
                              c:/devtools/gcc_v49_2014q4/bin/../lib/gcc/arm-none-eabi/4.9.3\libgcc.a(_clzdi2.o) (__clzsi2)

Allocating common symbols
Common symbol       size              file

gCommParam          0x22c             obj/comm.o
gFileData           0x4               obj/coremain.o
init_pack_ptr       0x4               ../LibA5T1000/gcc\libsptutil.a(set_pptr.o)
pack_ptr            0x4               ../LibA5T1000/gcc\libsptutil.a(set_pptr.o)
gsTransData         0x78              obj/tranutil.o
gPPPMdmCfg          0x58              obj/ftptran.o
gTimerHdl           0x18              obj/hardware.o
gAuxHdl             0x8               obj/comm.o
gDevHandle          0x1c              obj/hardware.o
pack_ptr_end        0x4               ../LibA5T1000/gcc\libsptutil.a(set_pptr.o)

Discarded input sections

 .bss           0x00000000        0x0 obj/GetCert.o
 .bss           0x00000000        0x0 obj/PhList.o
 .bss           0x00000000        0x0 obj/Phone.o
 .bss           0x00000000        0x0 obj/apmconfig.o
 .bss           0x00000000        0x0 obj/auxcom.o
 .bss           0x00000000        0x0 obj/cakey.o
 .bss           0x00000000        0x0 obj/constant.o
 .bss           0x00000000        0x0 obj/coremain.o
 .bss           0x00000000        0x0 obj/hardware.o
 .bss           0x00000000        0x0 obj/hashops.o
 .bss           0x00000000        0x0 obj/infodata.o
 .bss           0x00000000        0x0 obj/kbdutil.o
 .bss           0x00000000        0x0 obj/keydlltest.o
 .bss           0x00000000        0x0 obj/main.o
 .bss           0x00000000        0x0 obj/mcp.o
 .bss           0x00000000        0x0 obj/menu.o
 .bss           0x00000000        0x0 obj/message.o
 .bss           0x00000000        0x0 obj/mxml-attr.o
 .bss           0x00000000        0x0 obj/mxml-entity.o
 .bss           0x00000000        0x0 obj/mxml-file.o
 .bss           0x00000000        0x0 obj/mxml-get.o
 .bss           0x00000000        0x0 obj/mxml-node.o
 .bss           0x00000000        0x0 obj/mxml-private.o
 .bss           0x00000000        0x0 obj/mxml-search.o
 .bss           0x00000000        0x0 obj/mxml-string.o
 .bss           0x00000000        0x0 obj/pkcs.o
 .bss           0x00000000        0x0 obj/remotedl.o
 .bss           0x00000000        0x0 obj/rmenu.o
 .bss           0x00000000        0x0 obj/toggle.o
 .bss           0x00000000        0x0 obj/tranutil.o
 .bss           0x00000000        0x0 obj/cstartup.o
 .bss           0x00000000        0x0 obj/expect_send.o
 .bss           0x00000000        0x0 ../LibA5T1000/gcc\libsyscall.a(app_call.o)
 .bss           0x00000000        0x0 ../LibA5T1000/gcc\libsyscall.a(app_sw.o)
 .bss           0x00000000        0x0 ../LibA5T1000/gcc\libsyscall.a(sys_call.o)
 .bss           0x00000000        0x0 ../LibA5T1000/gcc\libbasecall.a(base_call.o)
 .bss           0x00000000        0x0 ../LibA5T1000/gcc\libsptutil.a(bcd2bin.o)
 .bss           0x00000000        0x0 ../LibA5T1000/gcc\libsptutil.a(bcd2val.o)
 .bss           0x00000000        0x0 ../LibA5T1000/gcc\libsptutil.a(bcdadd.o)
 .bss           0x00000000        0x0 ../LibA5T1000/gcc\libsptutil.a(bcdinc.o)
 .bss           0x00000000        0x0 ../LibA5T1000/gcc\libsptutil.a(bcdsub.o)
 .bss           0x00000000        0x0 ../LibA5T1000/gcc\libsptutil.a(bin2dec.o)
 .bss           0x00000000        0x0 ../LibA5T1000/gcc\libsptutil.a(chkdigit.o)
 .bss           0x00000000        0x0 ../LibA5T1000/gcc\libsptutil.a(chkdok.o)
 .bss           0x00000000        0x0 ../LibA5T1000/gcc\libsptutil.a(compress.o)
 .bss           0x00000000        0x0 ../LibA5T1000/gcc\libsptutil.a(crcccitt.o)
 .bss           0x00000000        0x0 ../LibA5T1000/gcc\libsptutil.a(dbin2asc.o)
 .bss           0x00000000        0x0 ../LibA5T1000/gcc\libsptutil.a(dec2bin.o)
 .bss           0x00000000        0x0 ../LibA5T1000/gcc\libsptutil.a(decbin8b.o)
 .bss           0x00000000        0x0 ../LibA5T1000/gcc\libsptutil.a(fndb.o)
 .bss           0x00000000        0x0 ../LibA5T1000/gcc\libsptutil.a(get_byte.o)
 .bss           0x00000000        0x0 ../LibA5T1000/gcc\libsptutil.a(get_dist.o)
 .bss           0x00000000        0x0 ../LibA5T1000/gcc\libsptutil.a(get_mem.o)
 .bss           0x00000000        0x0 ../LibA5T1000/gcc\libsptutil.a(get_pptr.o)
 .bss           0x00000000        0x0 ../LibA5T1000/gcc\libsptutil.a(hex_val.o)
 .bss           0x00000000        0x0 ../LibA5T1000/gcc\libsptutil.a(inc_pptr.o)
 .bss           0x00000000        0x0 ../LibA5T1000/gcc\libsptutil.a(lbin2asc.o)
 .bss           0x00000000        0x0 ../LibA5T1000/gcc\libsptutil.a(lrc.o)
 .bss           0x00000000        0x0 ../LibA5T1000/gcc\libsptutil.a(pack_b.o)
 .bss           0x00000000        0x0 ../LibA5T1000/gcc\libsptutil.a(pack_mem.o)
 .bss           0x00000000        0x0 ../LibA5T1000/gcc\libsptutil.a(pack_nul.o)
 .bss           0x00000000        0x0 ../LibA5T1000/gcc\libsptutil.a(peek_b.o)
 .bss           0x00000000        0x0 ../LibA5T1000/gcc\libsptutil.a(set_pptr.o)
 .bss           0x00000000        0x0 ../LibA5T1000/gcc\libsptutil.a(skpb.o)
 .bss           0x00000000        0x0 ../LibA5T1000/gcc\libsptutil.a(split.o)
 .bss           0x00000000        0x0 ../LibA5T1000/gcc\libsptutil.a(unix_tm.o)
 .bss           0x00000000        0x0 ../LibA5T1000/gcc\libsptutil.a(val2bcd.o)
 .bss           0x00000000        0x0 ../LibA5T1000/gcc\libsptutil.a(hexdigit.o)
 .bss           0x00000000        0x0 ../LibA5T1000/gcc\libsptutil.a(pack_nb.o)
 .bss           0x00000000        0x0 C:\DevTools\gcc_v49_2014q4/arm-none-eabi/lib/thumb\libc.a(lib_a-atoi.o)
 .bss           0x00000000        0x0 C:\DevTools\gcc_v49_2014q4/arm-none-eabi/lib/thumb\libc.a(lib_a-ctype_.o)
 .bss           0x00000000        0x0 C:\DevTools\gcc_v49_2014q4/arm-none-eabi/lib/thumb\libc.a(lib_a-memcmp.o)
 .bss           0x00000000        0x0 C:\DevTools\gcc_v49_2014q4/arm-none-eabi/lib/thumb\libc.a(lib_a-memcpy.o)
 .bss           0x00000000        0x0 C:\DevTools\gcc_v49_2014q4/arm-none-eabi/lib/thumb\libc.a(lib_a-memmove.o)
 .bss           0x00000000        0x0 C:\DevTools\gcc_v49_2014q4/arm-none-eabi/lib/thumb\libc.a(lib_a-memset.o)
 .bss           0x00000000        0x0 C:\DevTools\gcc_v49_2014q4/arm-none-eabi/lib/thumb\libc.a(lib_a-strcat.o)
 .bss           0x00000000        0x0 C:\DevTools\gcc_v49_2014q4/arm-none-eabi/lib/thumb\libc.a(lib_a-strchr.o)
 .bss           0x00000000        0x0 C:\DevTools\gcc_v49_2014q4/arm-none-eabi/lib/thumb\libc.a(lib_a-strcmp.o)
 .bss           0x00000000        0x0 C:\DevTools\gcc_v49_2014q4/arm-none-eabi/lib/thumb\libc.a(lib_a-strcpy.o)
 .bss           0x00000000        0x0 C:\DevTools\gcc_v49_2014q4/arm-none-eabi/lib/thumb\libc.a(lib_a-strlen.o)
 .bss           0x00000000        0x0 C:\DevTools\gcc_v49_2014q4/arm-none-eabi/lib/thumb\libc.a(lib_a-strncmp.o)
 .bss           0x00000000        0x0 C:\DevTools\gcc_v49_2014q4/arm-none-eabi/lib/thumb\libc.a(lib_a-strncpy.o)
 .bss           0x00000000        0x0 C:\DevTools\gcc_v49_2014q4/arm-none-eabi/lib/thumb\libc.a(lib_a-strtod.o)
 .bss           0x00000000        0x0 C:\DevTools\gcc_v49_2014q4/arm-none-eabi/lib/thumb\libc.a(lib_a-strtol.o)
 .bss           0x00000000        0x0 C:\DevTools\gcc_v49_2014q4/arm-none-eabi/lib/thumb\libc.a(lib_a-gdtoa-gethex.o)
 .bss           0x00000000        0x0 C:\DevTools\gcc_v49_2014q4/arm-none-eabi/lib/thumb\libc.a(lib_a-gdtoa-hexnan.o)
 .bss           0x00000000        0x0 C:\DevTools\gcc_v49_2014q4/arm-none-eabi/lib/thumb\libc.a(lib_a-impure.o)
 .bss           0x00000000        0x0 C:\DevTools\gcc_v49_2014q4/arm-none-eabi/lib/thumb\libc.a(lib_a-locale.o)
 .bss._PathLocale
                0x00000000        0x4 C:\DevTools\gcc_v49_2014q4/arm-none-eabi/lib/thumb\libc.a(lib_a-locale.o)
 .bss.__nlocale_changed
                0x00000000        0x4 C:\DevTools\gcc_v49_2014q4/arm-none-eabi/lib/thumb\libc.a(lib_a-locale.o)
 .bss.__mlocale_changed
                0x00000000        0x4 C:\DevTools\gcc_v49_2014q4/arm-none-eabi/lib/thumb\libc.a(lib_a-locale.o)
 .bss           0x00000000        0x0 C:\DevTools\gcc_v49_2014q4/arm-none-eabi/lib/thumb\libc.a(lib_a-mprec.o)
 .bss           0x00000000        0x0 C:\DevTools\gcc_v49_2014q4/arm-none-eabi/lib/thumb\libc.a(lib_a-s_fpclassify.o)
 .bss           0x00000000        0x0 C:\DevTools\gcc_v49_2014q4/arm-none-eabi/lib/thumb\libc.a(lib_a-sf_nan.o)
 .bss           0x00000000        0x0 C:\DevTools\gcc_v49_2014q4/arm-none-eabi/lib/thumb\libc.a(lib_a-callocr.o)
 .bss           0x00000000        0x0 C:\DevTools\gcc_v49_2014q4/arm-none-eabi/lib/thumb\libc.a(lib_a-mallocr.o)
 .bss           0x00000000        0x0 C:\DevTools\gcc_v49_2014q4/arm-none-eabi/lib/thumb\libc.a(lib_a-mlock.o)
 .bss           0x00000000        0x0 C:\DevTools\gcc_v49_2014q4/arm-none-eabi/lib/thumb\libc.a(lib_a-freer.o)
 .bss           0x00000000        0x0 c:/devtools/gcc_v49_2014q4/bin/../lib/gcc/arm-none-eabi/4.9.3\libgcc.a(_udivsi3.o)
 .bss           0x00000000        0x0 c:/devtools/gcc_v49_2014q4/bin/../lib/gcc/arm-none-eabi/4.9.3\libgcc.a(_divsi3.o)
 .bss           0x00000000        0x0 c:/devtools/gcc_v49_2014q4/bin/../lib/gcc/arm-none-eabi/4.9.3\libgcc.a(_dvmd_tls.o)
 .bss           0x00000000        0x0 c:/devtools/gcc_v49_2014q4/bin/../lib/gcc/arm-none-eabi/4.9.3\libgcc.a(_arm_addsubdf3.o)
 .bss           0x00000000        0x0 c:/devtools/gcc_v49_2014q4/bin/../lib/gcc/arm-none-eabi/4.9.3\libgcc.a(_arm_muldivdf3.o)
 .bss           0x00000000        0x0 c:/devtools/gcc_v49_2014q4/bin/../lib/gcc/arm-none-eabi/4.9.3\libgcc.a(_arm_cmpdf2.o)
 .bss           0x00000000        0x0 c:/devtools/gcc_v49_2014q4/bin/../lib/gcc/arm-none-eabi/4.9.3\libgcc.a(_arm_fixdfsi.o)
 .bss           0x00000000        0x0 c:/devtools/gcc_v49_2014q4/bin/../lib/gcc/arm-none-eabi/4.9.3\libgcc.a(_arm_fixunsdfsi.o)
 .bss           0x00000000        0x0 c:/devtools/gcc_v49_2014q4/bin/../lib/gcc/arm-none-eabi/4.9.3\libgcc.a(_arm_truncdfsf2.o)
 .bss           0x00000000        0x0 c:/devtools/gcc_v49_2014q4/bin/../lib/gcc/arm-none-eabi/4.9.3\libgcc.a(_aeabi_ldivmod.o)
 .bss           0x00000000        0x0 c:/devtools/gcc_v49_2014q4/bin/../lib/gcc/arm-none-eabi/4.9.3\libgcc.a(_aeabi_uldivmod.o)
 .bss           0x00000000        0x0 c:/devtools/gcc_v49_2014q4/bin/../lib/gcc/arm-none-eabi/4.9.3\libgcc.a(_fixdfdi.o)
 .bss           0x00000000        0x0 c:/devtools/gcc_v49_2014q4/bin/../lib/gcc/arm-none-eabi/4.9.3\libgcc.a(_fixunsdfdi.o)
 .bss           0x00000000        0x0 c:/devtools/gcc_v49_2014q4/bin/../lib/gcc/arm-none-eabi/4.9.3\libgcc.a(bpabi.o)
 .bss           0x00000000        0x0 c:/devtools/gcc_v49_2014q4/bin/../lib/gcc/arm-none-eabi/4.9.3\libgcc.a(_divdi3.o)
 .ARM.extab     0x00000000        0x0 c:/devtools/gcc_v49_2014q4/bin/../lib/gcc/arm-none-eabi/4.9.3\libgcc.a(_divdi3.o)
 .bss           0x00000000        0x0 c:/devtools/gcc_v49_2014q4/bin/../lib/gcc/arm-none-eabi/4.9.3\libgcc.a(_udivdi3.o)
 .ARM.extab     0x00000000        0x0 c:/devtools/gcc_v49_2014q4/bin/../lib/gcc/arm-none-eabi/4.9.3\libgcc.a(_udivdi3.o)
 .bss           0x00000000        0x0 c:/devtools/gcc_v49_2014q4/bin/../lib/gcc/arm-none-eabi/4.9.3\libgcc.a(_clzdi2.o)
 .bss           0x00000000        0x0 c:/devtools/gcc_v49_2014q4/bin/../lib/gcc/arm-none-eabi/4.9.3\libgcc.a(_clzsi2.o)

Memory Configuration

Name             Origin             Length             Attributes
*default*        0x00000000         0xffffffff

Linker script and memory map

START GROUP
LOAD obj/GetCert.o
LOAD obj/PhList.o
LOAD obj/Phone.o
LOAD obj/apmconfig.o
LOAD obj/apmfunc.o
LOAD obj/apmtest.o
LOAD obj/auxcom.o
LOAD obj/batchsys.o
LOAD obj/cakey.o
LOAD obj/comm.o
LOAD obj/constant.o
LOAD obj/coremain.o
LOAD obj/ctlcfg.o
LOAD obj/emvtrans.o
LOAD obj/ftptran.o
LOAD obj/hardware.o
LOAD obj/hashops.o
LOAD obj/infodata.o
LOAD obj/inittran.o
LOAD obj/kbdutil.o
LOAD obj/keydlltest.o
LOAD obj/lptutil.o
LOAD obj/main.o
LOAD obj/mcp.o
LOAD obj/menu.o
LOAD obj/message.o
LOAD obj/mxml-attr.o
LOAD obj/mxml-entity.o
LOAD obj/mxml-file.o
LOAD obj/mxml-get.o
LOAD obj/mxml-node.o
LOAD obj/mxml-private.o
LOAD obj/mxml-search.o
LOAD obj/mxml-string.o
LOAD obj/param.o
LOAD obj/pkcs.o
LOAD obj/remotedl.o
LOAD obj/rmenu.o
LOAD obj/stis.o
LOAD obj/sysutil.o
LOAD obj/termdata.o
LOAD obj/toggle.o
LOAD obj/tranutil.o
LOAD obj/wifi.o
LOAD obj/x509.o
LOAD obj/cstartup.o
LOAD obj/expect_send.o
LOAD obj/libc.o
LOAD ../LibA5T1000/gcc\libsyscall.a
LOAD ../LibA5T1000/gcc\libbasecall.a
LOAD ../LibA5T1000/gcc\libsptutil.a
LOAD ../LibA5T1000/gcc\libspglib.a
LOAD ../LibA5T1000/gcc\libspqr.a
LOAD C:\DevTools\gcc_v49_2014q4/arm-none-eabi/lib/thumb\libc.a
LOAD C:\DevTools\gcc_v49_2014q4/arm-none-eabi/lib/thumb\libnosys.a
LOAD C:\DevTools\gcc_v49_2014q4/arm-none-eabi/lib/thumb\libm.a
LOAD c:/devtools/gcc_v49_2014q4/bin/../lib/gcc/arm-none-eabi/4.9.3\libgcc.a
END GROUP
                0x01000000                _start_of_flash = 0x1000000
                0x01800000                _start_of_data = 0x1800000
                0x01c00000                _end_of_sram = (_start_of_data + 0x400000)
                0x01000020                _start_of_header = (_start_of_flash + 0x20)
                0x01000050                _start_of_app = (_start_of_flash + 0x50)
                0x01000000                . = _start_of_flash

.startup        0x01000000       0x1a
 *(sect_startup)
 sect_startup   0x01000000       0x1a obj/cstartup.o
                0x01000000                cstartup
                0x01000020                . = _start_of_header

.header         0x01000020       0x30
 *(sect_apphdr)
 sect_apphdr    0x01000020       0x30 obj/cstartup.o
                0x01000020                KAppHeader
                0x01000150                . = (_start_of_app + 0x100)

.text           0x01000150    0x22dac
 *(.text* .glue_7* .gnu.linkonce.t.*)
 .glue_7        0x00000000        0x0 linker stubs
 .glue_7t       0x00000000        0x0 linker stubs
 .text          0x01000150        0x0 obj/GetCert.o
 .text.Str2hex  0x01000150       0x2c obj/GetCert.o
                0x01000150                Str2hex
 .text.GetKey   0x0100017c      0x1ac obj/GetCert.o
                0x0100017c                GetKey
 .text.GetClientCert
                0x01000328      0x15c obj/GetCert.o
                0x01000328                GetClientCert
 .text.GetClientPriKey
                0x01000484      0x150 obj/GetCert.o
                0x01000484                GetClientPriKey
 .text          0x010005d4        0x0 obj/PhList.o
 .text          0x010005d4        0x0 obj/Phone.o
 .text          0x010005d4        0x0 obj/apmconfig.o
 .text.LcdSetup
                0x010005d4      0x24c obj/apmconfig.o
                0x010005d4                LcdSetup
 .text.KbdBacklight
                0x01000820       0x9c obj/apmconfig.o
                0x01000820                KbdBacklight
 .text.DispTermIP
                0x010008bc       0xdc obj/apmconfig.o
                0x010008bc                DispTermIP
 .text.ConfigTermIP
                0x01000998       0xcc obj/apmconfig.o
                0x01000998                ConfigTermIP
 .text.ConfigTermIP2
                0x01000a64      0x164 obj/apmconfig.o
                0x01000a64                ConfigTermIP2
 .text.ToggleDHCP
                0x01000bc8       0x74 obj/apmconfig.o
                0x01000bc8                ToggleDHCP
 .text.SetCodecVol
                0x01000c3c      0x140 obj/apmconfig.o
                0x01000c3c                SetCodecVol
 .text          0x01000d7c        0x0 obj/apmfunc.o
 .text.MerchFunc
                0x01000d7c      0x5ec obj/apmfunc.o
                0x01000d7c                MerchFunc
 .text.InitApplList
                0x01001368       0x64 obj/apmfunc.o
                0x01001368                InitApplList
 .text.SelectAppl
                0x010013cc       0xd0 obj/apmfunc.o
                0x010013cc                SelectAppl
 .text          0x0100149c        0x0 obj/apmtest.o
 .text.SetTestCommParam
                0x0100149c       0x90 obj/apmtest.o
                0x0100149c                SetTestCommParam
 .text.GetMaxMalloc
                0x0100152c       0x28 obj/apmtest.o
                0x0100152c                GetMaxMalloc
 .text.CalCheckDigit
                0x01001554       0xb8 obj/apmtest.o
                0x01001554                CalCheckDigit
 .text          0x0100160c        0x0 obj/auxcom.o
 .text          0x0100160c        0x0 obj/batchsys.o
 .text.CreateDummyRev.part.0
                0x0100160c       0x50 obj/batchsys.o
 .text.SaveRevRec.part.2
                0x0100165c       0x70 obj/batchsys.o
 .text.PurgeBatchFile
                0x010016cc       0x50 obj/batchsys.o
 .text.BatSysClose
                0x0100171c       0x70 obj/batchsys.o
                0x0100171c                BatSysClose
 .text.BatchFull
                0x0100178c       0x70 obj/batchsys.o
                0x0100178c                BatchFull
 .text.UpdateBatRec
                0x010017fc       0xdc obj/batchsys.o
                0x010017fc                UpdateBatRec
 .text.BuildTraceList
                0x010018d8      0x114 obj/batchsys.o
                0x010018d8                BuildTraceList
 .text.BatSysInit
                0x010019ec       0xc0 obj/batchsys.o
                0x010019ec                BatSysInit
 .text.BatSysClear
                0x01001aac       0x6c obj/batchsys.o
                0x01001aac                BatSysClear
 .text.GetRecCount
                0x01001b18        0xc obj/batchsys.o
                0x01001b18                GetRecCount
 .text.GetBatchRec
                0x01001b24       0x8c obj/batchsys.o
                0x01001b24                GetBatchRec
 .text.TraceInBatch
                0x01001bb0       0x38 obj/batchsys.o
                0x01001bb0                TraceInBatch
 .text.TraceInReversal
                0x01001be8       0x50 obj/batchsys.o
                0x01001be8                TraceInReversal
 .text.RocInBatch
                0x01001c38       0x38 obj/batchsys.o
                0x01001c38                RocInBatch
 .text.SaveRevRec
                0x01001c70       0x18 obj/batchsys.o
                0x01001c70                SaveRevRec
 .text.SaveBatRec
                0x01001c88       0xe0 obj/batchsys.o
                0x01001c88                SaveBatRec
 .text.GetRevRec
                0x01001d68       0x70 obj/batchsys.o
                0x01001d68                GetRevRec
 .text.ClearRevRec
                0x01001dd8       0x74 obj/batchsys.o
                0x01001dd8                ClearRevRec
 .text          0x01001e4c        0x0 obj/cakey.o
 .text.InjectCAKey
                0x01001e4c      0x344 obj/cakey.o
                0x01001e4c                InjectCAKey
 .text          0x01002190        0x0 obj/comm.o
 .text.GetMdmLineStatusRsp
                0x01002190       0x5c obj/comm.o
 .text.ResetMdmLine
                0x010021ec       0x3c obj/comm.o
 .text.FlushAux
                0x01002228       0x40 obj/comm.o
 .text.InitGPRSDat
                0x01002268      0x15c obj/comm.o
 .text.FlushTcpip
                0x010023c4       0x40 obj/comm.o
 .text.FlushMdmLine
                0x01002404       0x3c obj/comm.o
 .text.WaitPPPReady
                0x01002440       0xcc obj/comm.o
 .text.ConnectAux.isra.0
                0x0100250c       0x84 obj/comm.o
 .text.ConnectMdmLine.part.1
                0x01002590      0x154 obj/comm.o
 .text.ConnectMdmLine
                0x010026e4       0x4c obj/comm.o
 .text.CommInit
                0x01002730       0x38 obj/comm.o
                0x01002730                CommInit
 .text.WaitNetworkReady
                0x01002768       0xbc obj/comm.o
                0x01002768                WaitNetworkReady
 .text.ConnectPPP
                0x01002824      0x2e8 obj/comm.o
                0x01002824                ConnectPPP
 .text.DisconnectPPP
                0x01002b0c       0x24 obj/comm.o
                0x01002b0c                DisconnectPPP
 .text.ResetTcpip
                0x01002b30       0x6c obj/comm.o
 .text.ConnectTcpip
                0x01002b9c      0x1c0 obj/comm.o
 .text.PackTelNo
                0x01002d5c       0x88 obj/comm.o
                0x01002d5c                PackTelNo
 .text.SetGPRS  0x01002de4      0x474 obj/comm.o
                0x01002de4                SetGPRS
 .text.PackInitComm
                0x01003258      0x1c0 obj/comm.o
                0x01003258                PackInitComm
 .text.PackComm
                0x01003418       0x48 obj/comm.o
                0x01003418                PackComm
 .text.PreConnect
                0x01003460       0x44 obj/comm.o
                0x01003460                PreConnect
 .text.ConnectOK
                0x010034a4       0xa8 obj/comm.o
                0x010034a4                ConnectOK
 .text.FlushComm
                0x0100354c       0x40 obj/comm.o
                0x0100354c                FlushComm
 .text.SendRcvd
                0x0100358c      0x46c obj/comm.o
                0x0100358c                SendRcvd
 .text.ResetComm
                0x010039f8       0x68 obj/comm.o
                0x010039f8                ResetComm
 .text.SetGPRSInfo
                0x01003a60       0x48 obj/comm.o
                0x01003a60                SetGPRSInfo
 .text          0x01003aa8        0x0 obj/constant.o
 .text          0x01003aa8        0x0 obj/coremain.o
 .text.XF_GetHwHdl
                0x01003aa8       0x14 obj/coremain.o
                0x01003aa8                XF_GetHwHdl
 .text.XF_ClrKeyin
                0x01003abc       0x14 obj/coremain.o
                0x01003abc                XF_ClrKeyin
 .text.XF_GetKeyin
                0x01003ad0       0x14 obj/coremain.o
                0x01003ad0                XF_GetKeyin
 .text.XF_WaitKey
                0x01003ae4       0x14 obj/coremain.o
                0x01003ae4                XF_WaitKey
 .text.XF_YesNo
                0x01003af8       0x14 obj/coremain.o
                0x01003af8                XF_YesNo
 .text.XF_GetKbd
                0x01003b0c       0x14 obj/coremain.o
                0x01003b0c                XF_GetKbd
 .text.XF_SetKbdTO
                0x01003b20       0x14 obj/coremain.o
                0x01003b20                XF_SetKbdTO
 .text.XF_GetKbdTO
                0x01003b34       0x14 obj/coremain.o
                0x01003b34                XF_GetKbdTO
 .text.XF_PackComm
                0x01003b48       0x14 obj/coremain.o
                0x01003b48                XF_PackComm
 .text.XF_PreConnect
                0x01003b5c       0x14 obj/coremain.o
                0x01003b5c                XF_PreConnect
 .text.XF_ConnectOK
                0x01003b70       0x14 obj/coremain.o
                0x01003b70                XF_ConnectOK
 .text.XF_SendRcvd
                0x01003b84       0x14 obj/coremain.o
                0x01003b84                XF_SendRcvd
 .text.XF_FlushComm
                0x01003b98       0x14 obj/coremain.o
                0x01003b98                XF_FlushComm
 .text.XF_ResetComm
                0x01003bac       0x14 obj/coremain.o
                0x01003bac                XF_ResetComm
 .text.XF_GetTermData
                0x01003bc0       0x14 obj/coremain.o
                0x01003bc0                XF_GetTermData
 .text.XF_GetTermCfg
                0x01003bd4       0x14 obj/coremain.o
                0x01003bd4                XF_GetTermCfg
 .text.XF_GetCardCount
                0x01003be8       0x14 obj/coremain.o
                0x01003be8                XF_GetCardCount
 .text.XF_GetCardTbl
                0x01003bfc       0x14 obj/coremain.o
                0x01003bfc                XF_GetCardTbl
 .text.XF_GetIssuerCount
                0x01003c10       0x14 obj/coremain.o
                0x01003c10                XF_GetIssuerCount
 .text.XF_GetIssuerTbl
                0x01003c24       0x14 obj/coremain.o
                0x01003c24                XF_GetIssuerTbl
 .text.XF_GetAcqCount
                0x01003c38       0x14 obj/coremain.o
                0x01003c38                XF_GetAcqCount
 .text.XF_GetAcqTbl
                0x01003c4c       0x14 obj/coremain.o
                0x01003c4c                XF_GetAcqTbl
 .text.XF_GetDescCount
                0x01003c60       0x14 obj/coremain.o
                0x01003c60                XF_GetDescCount
 .text.XF_GetDescTbl
                0x01003c74       0x14 obj/coremain.o
                0x01003c74                XF_GetDescTbl
 .text.XF_GetLogoCount
                0x01003c88       0x14 obj/coremain.o
                0x01003c88                XF_GetLogoCount
 .text.XF_GetLogoTbl
                0x01003c9c       0x14 obj/coremain.o
                0x01003c9c                XF_GetLogoTbl
 .text.XF_GetExParamCount
                0x01003cb0       0x14 obj/coremain.o
                0x01003cb0                XF_GetExParamCount
 .text.XF_GetExtraParam
                0x01003cc4       0x14 obj/coremain.o
                0x01003cc4                XF_GetExtraParam
 .text.XF_GetPending
                0x01003cd8       0x14 obj/coremain.o
                0x01003cd8                XF_GetPending
 .text.XF_SetPending
                0x01003cec       0x14 obj/coremain.o
                0x01003cec                XF_SetPending
 .text.XF_GetBatchNo
                0x01003d00       0x14 obj/coremain.o
                0x01003d00                XF_GetBatchNo
 .text.XF_SetBatchNo
                0x01003d14       0x14 obj/coremain.o
                0x01003d14                XF_SetBatchNo
 .text.XF_SelectAcquirer
                0x01003d28       0x14 obj/coremain.o
                0x01003d28                XF_SelectAcquirer
 .text.XF_SetROC
                0x01003d3c       0x14 obj/coremain.o
                0x01003d3c                XF_SetROC
 .text.XF_SetTrace
                0x01003d50       0x14 obj/coremain.o
                0x01003d50                XF_SetTrace
 .text.XF_StisClr
                0x01003d64       0x14 obj/coremain.o
                0x01003d64                XF_StisClr
 .text.XF_StisAddTbl
                0x01003d78       0x14 obj/coremain.o
                0x01003d78                XF_StisAddTbl
 .text.XF_TermDataClr
                0x01003d8c       0x14 obj/coremain.o
                0x01003d8c                XF_TermDataClr
 .text.XF_TermDataUpd
                0x01003da0       0x14 obj/coremain.o
                0x01003da0                XF_TermDataUpd
 .text.XF_BatSysClear
                0x01003db4       0x14 obj/coremain.o
                0x01003db4                XF_BatSysClear
 .text.XF_BatchFull
                0x01003dc8       0x14 obj/coremain.o
                0x01003dc8                XF_BatchFull
 .text.XF_GetRecCount
                0x01003ddc       0x14 obj/coremain.o
                0x01003ddc                XF_GetRecCount
 .text.XF_GetBatchRec
                0x01003df0       0x14 obj/coremain.o
                0x01003df0                XF_GetBatchRec
 .text.XF_GetRevRec
                0x01003e04       0x14 obj/coremain.o
                0x01003e04                XF_GetRevRec
 .text.XF_ClearRevRec
                0x01003e18       0x14 obj/coremain.o
                0x01003e18                XF_ClearRevRec
 .text.XF_SaveBatRec
                0x01003e2c       0x14 obj/coremain.o
                0x01003e2c                XF_SaveBatRec
 .text.XF_UpdateBatRec
                0x01003e40       0x14 obj/coremain.o
                0x01003e40                XF_UpdateBatRec
 .text.XF_TraceInBatch
                0x01003e54       0x14 obj/coremain.o
                0x01003e54                XF_TraceInBatch
 .text.XF_TraceInReversal
                0x01003e68       0x14 obj/coremain.o
                0x01003e68                XF_TraceInReversal
 .text.XF_GetAccessCode
                0x01003e7c       0x14 obj/coremain.o
                0x01003e7c                XF_GetAccessCode
 .text.XF_SelYesNo
                0x01003e90       0x14 obj/coremain.o
                0x01003e90                XF_SelYesNo
 .text.XF_SelApp
                0x01003ea4       0x14 obj/coremain.o
                0x01003ea4                XF_SelApp
 .text.XF_MerchFunc
                0x01003eb8       0x16 obj/coremain.o
                0x01003eb8                XF_MerchFunc
 .text.XF_PwrSleep
                0x01003ece       0x14 obj/coremain.o
                0x01003ece                XF_PwrSleep
 *fill*         0x01003ee2        0x2 
 .text.ECRRequest.part.0
                0x01003ee4      0x124 obj/coremain.o
 .text.LoadFile
                0x01004008       0x6c obj/coremain.o
                0x01004008                LoadFile
 .text.SaveFile
                0x01004074       0x8c obj/coremain.o
                0x01004074                SaveFile
 .text.VirginInit
                0x01004100       0x64 obj/coremain.o
                0x01004100                VirginInit
 .text.GlobalsInit
                0x01004164      0x25c obj/coremain.o
                0x01004164                GlobalsInit
 .text.GlobalsCleanUp
                0x010043c0        0x2 obj/coremain.o
                0x010043c0                GlobalsCleanUp
 .text.ECRRequest
                0x010043c2       0x24 obj/coremain.o
                0x010043c2                ECRRequest
 .text.ChangeApp
                0x010043e6       0x16 obj/coremain.o
                0x010043e6                ChangeApp
 .text.Coremain
                0x010043fc      0x244 obj/coremain.o
                0x010043fc                Coremain
 .text          0x01004640        0x0 obj/ctlcfg.o
 .text.KernelReady
                0x01004640       0x12 obj/ctlcfg.o
 *fill*         0x01004652        0x2 
 .text.CTLFatal
                0x01004654       0x24 obj/ctlcfg.o
 .text.ClrCTLKey
                0x01004678       0x48 obj/ctlcfg.o
                0x01004678                ClrCTLKey
 .text.ClrCTLParam
                0x010046c0       0x54 obj/ctlcfg.o
                0x010046c0                ClrCTLParam
 .text.SetCTLLoaded
                0x01004714       0x10 obj/ctlcfg.o
                0x01004714                SetCTLLoaded
 .text.CTLClrDnloadBuf
                0x01004724       0x68 obj/ctlcfg.o
                0x01004724                CTLClrDnloadBuf
 .text.CTLKillDnloadBuf
                0x0100478c       0x40 obj/ctlcfg.o
                0x0100478c                CTLKillDnloadBuf
 .text.CTLData2DnloadBuf
                0x010047cc       0x78 obj/ctlcfg.o
                0x010047cc                CTLData2DnloadBuf
 .text.CTLDataUpdate
                0x01004844      0x144 obj/ctlcfg.o
                0x01004844                CTLDataUpdate
 .text.GetCTLKeyInfo
                0x01004988       0x44 obj/ctlcfg.o
                0x01004988                GetCTLKeyInfo
 .text.PrintCTLParam
                0x010049cc      0x65c obj/ctlcfg.o
                0x010049cc                PrintCTLParam
 .text.CTLUtilStart
                0x01005028       0x44 obj/ctlcfg.o
                0x01005028                CTLUtilStart
 .text          0x0100506c        0x0 obj/emvtrans.o
 .text.KernelReady
                0x0100506c       0x12 obj/emvtrans.o
 *fill*         0x0100507e        0x2 
 .text.EMVFatal
                0x01005080       0x24 obj/emvtrans.o
 .text.TagSize  0x010050a4       0x10 obj/emvtrans.o
                0x010050a4                TagSize
 .text.TagGet   0x010050b4       0x12 obj/emvtrans.o
                0x010050b4                TagGet
 .text.TLSize   0x010050c6       0x10 obj/emvtrans.o
                0x010050c6                TLSize
 .text.TLGet    0x010050d6       0x22 obj/emvtrans.o
                0x010050d6                TLGet
 .text.LDLoad   0x010050f8       0x50 obj/emvtrans.o
                0x010050f8                LDLoad
 .text.ConvDecimal
                0x01005148       0x6c obj/emvtrans.o
                0x01005148                ConvDecimal
 .text.ClrEMVKey
                0x010051b4       0x48 obj/emvtrans.o
                0x010051b4                ClrEMVKey
 .text.ClrEMVParam
                0x010051fc       0x54 obj/emvtrans.o
                0x010051fc                ClrEMVParam
 .text.SetEMVLoaded
                0x01005250       0x10 obj/emvtrans.o
                0x01005250                SetEMVLoaded
 .text.EMVClrDnloadBuf
                0x01005260       0x68 obj/emvtrans.o
                0x01005260                EMVClrDnloadBuf
 .text.EMVKillDnloadBuf
                0x010052c8       0x40 obj/emvtrans.o
                0x010052c8                EMVKillDnloadBuf
 .text.EMVData2DnloadBuf
                0x01005308       0x78 obj/emvtrans.o
                0x01005308                EMVData2DnloadBuf
 .text.EMVDataUpdate
                0x01005380      0x144 obj/emvtrans.o
                0x01005380                EMVDataUpdate
 .text.GetEMVKeyInfo
                0x010054c4       0x44 obj/emvtrans.o
                0x010054c4                GetEMVKeyInfo
 .text.PrintEMVParam
                0x01005508      0x6f4 obj/emvtrans.o
                0x01005508                PrintEMVParam
 .text.EMVUtilStart
                0x01005bfc       0x40 obj/emvtrans.o
                0x01005bfc                EMVUtilStart
 .text.EMVInit  0x01005c3c       0x78 obj/emvtrans.o
                0x01005c3c                EMVInit
 .text          0x01005cb4        0x0 obj/ftptran.o
 .text.STISFTPAppDelAllow
                0x01005cb4       0x2e obj/ftptran.o
 .text.DisplayFTPProcess
                0x01005ce2       0x52 obj/ftptran.o
 .text.WriteFTPDLLog
                0x01005d34      0x174 obj/ftptran.o
 .text.STISFTPDisplayResult
                0x01005ea8       0x3e obj/ftptran.o
 .text.SetupFtpTls
                0x01005ee6       0x18 obj/ftptran.o
                0x01005ee6                SetupFtpTls
 *fill*         0x01005efe        0x2 
 .text.DebugTcpCfg
                0x01005f00      0x198 obj/ftptran.o
                0x01005f00                DebugTcpCfg
 .text.PackFTPInitComm
                0x01006098      0x2f8 obj/ftptran.o
                0x01006098                PackFTPInitComm
 .text.ResetFtp
                0x01006390       0x78 obj/ftptran.o
                0x01006390                ResetFtp
 .text.DisconnectFtpData
                0x01006408       0x28 obj/ftptran.o
                0x01006408                DisconnectFtpData
 .text.IsLineDropFtp
                0x01006430       0x2c obj/ftptran.o
                0x01006430                IsLineDropFtp
 .text.SendFtp  0x0100645c       0x24 obj/ftptran.o
                0x0100645c                SendFtp
 .text.RcvdFtp  0x01006480       0x24 obj/ftptran.o
                0x01006480                RcvdFtp
 .text.WaitCmdChnReady
                0x010064a4       0x38 obj/ftptran.o
                0x010064a4                WaitCmdChnReady
 .text.FlushAllFtp
                0x010064dc       0x58 obj/ftptran.o
                0x010064dc                FlushAllFtp
 .text.SendRcvdFtpCmd
                0x01006534       0x9c obj/ftptran.o
                0x01006534                SendRcvdFtpCmd
 .text.WaitConnectFtpDataChn
                0x010065d0       0x54 obj/ftptran.o
                0x010065d0                WaitConnectFtpDataChn
 .text.ReadFtpData
                0x01006624       0x78 obj/ftptran.o
                0x01006624                ReadFtpData
 .text.SendFtpData
                0x0100669c       0x84 obj/ftptran.o
                0x0100669c                SendFtpData
 .text.GetFtpTxDataBufSize
                0x01006720       0x20 obj/ftptran.o
                0x01006720                GetFtpTxDataBufSize
 .text.DownloadAuth
                0x01006740       0x54 obj/ftptran.o
                0x01006740                DownloadAuth
 .text.LoginFtp
                0x01006794      0x160 obj/ftptran.o
                0x01006794                LoginFtp
 .text.ConnectFtp
                0x010068f4      0x268 obj/ftptran.o
                0x010068f4                ConnectFtp
 .text.GetFileFtp
                0x01006b5c      0x56c obj/ftptran.o
                0x01006b5c                GetFileFtp
 .text.CalFileChksum
                0x010070c8       0xc2 obj/ftptran.o
                0x010070c8                CalFileChksum
 *fill*         0x0100718a        0x2 
 .text.PutFileFtp
                0x0100718c      0x42c obj/ftptran.o
                0x0100718c                PutFileFtp
 .text.MatchDMK
                0x010075b8        0x4 obj/ftptran.o
                0x010075b8                MatchDMK
 .text.GetTID   0x010075bc       0x9e obj/ftptran.o
                0x010075bc                GetTID
 .text.CheckXmlParam
                0x0100765a       0x98 obj/ftptran.o
                0x0100765a                CheckXmlParam
 *fill*         0x010076f2        0x2 
 .text.CheckEDCFile
                0x010076f4      0x3c4 obj/ftptran.o
                0x010076f4                CheckEDCFile
 .text.CheckEMVAppFile
                0x01007ab8      0x1b8 obj/ftptran.o
                0x01007ab8                CheckEMVAppFile
 .text.CheckEMVKeyFile
                0x01007c70      0x1d4 obj/ftptran.o
                0x01007c70                CheckEMVKeyFile
 .text.CheckTMSExt
                0x01007e44       0x28 obj/ftptran.o
                0x01007e44                CheckTMSExt
 .text.CheckDLLFileLine
                0x01007e6c      0x254 obj/ftptran.o
                0x01007e6c                CheckDLLFileLine
 .text.CheckDLLFile
                0x010080c0      0x15c obj/ftptran.o
                0x010080c0                CheckDLLFile
 .text.InitFTPLogInfo
                0x0100821c       0x84 obj/ftptran.o
                0x0100821c                InitFTPLogInfo
 .text.UpdateFTPLogInfoError
                0x010082a0       0x18 obj/ftptran.o
                0x010082a0                UpdateFTPLogInfoError
 .text.CreateFTPMirrorList
                0x010082b8      0x340 obj/ftptran.o
                0x010082b8                CreateFTPMirrorList
 .text.STISFTPDownloadTrans
                0x010085f8      0xab0 obj/ftptran.o
                0x010085f8                STISFTPDownloadTrans
 .text.STISFTPPolling
                0x010090a8      0x3dc obj/ftptran.o
                0x010090a8                STISFTPPolling
 .text          0x01009484        0x0 obj/hardware.o
 .text.InitEcrDll.part.1
                0x01009484       0x5c obj/hardware.o
 .text.InitAllHw
                0x010094e0       0xc4 obj/hardware.o
                0x010094e0                InitAllHw
 .text.CloseAllHw
                0x010095a4       0x4c obj/hardware.o
                0x010095a4                CloseAllHw
 .text.GetHwHandle
                0x010095f0      0x128 obj/hardware.o
                0x010095f0                GetHwHandle
 .text.StopEcrDll
                0x01009718       0x16 obj/hardware.o
                0x01009718                StopEcrDll
 .text.InitEcrDll
                0x0100972e       0x1a obj/hardware.o
                0x0100972e                InitEcrDll
 .text.PwrSleep
                0x01009748      0x108 obj/hardware.o
                0x01009748                PwrSleep
 .text          0x01009850        0x0 obj/hashops.o
 .text.hashops_finish_sha512
                0x01009850        0xc obj/hashops.o
 .text.hashops_finish_sha384
                0x0100985c        0xc obj/hashops.o
 .text.hashops_finish_sha256
                0x01009868        0xc obj/hashops.o
 .text.hashops_finish_sha224
                0x01009874        0xc obj/hashops.o
 .text.hashops_finish_sha1
                0x01009880        0xc obj/hashops.o
 .text.hashops_finish_md5
                0x0100988c        0xc obj/hashops.o
 .text.hashops_update_sha512
                0x01009898       0x16 obj/hashops.o
 .text.hashops_init_sha512
                0x010098ae        0xc obj/hashops.o
 .text.hashops_update_sha384
                0x010098ba       0x16 obj/hashops.o
 .text.hashops_init_sha384
                0x010098d0        0xc obj/hashops.o
 .text.hashops_update_sha256
                0x010098dc       0x16 obj/hashops.o
 .text.hashops_init_sha256
                0x010098f2        0xc obj/hashops.o
 .text.hashops_update_sha224
                0x010098fe       0x16 obj/hashops.o
 .text.hashops_init_sha224
                0x01009914        0xc obj/hashops.o
 .text.hashops_update_sha1
                0x01009920       0x16 obj/hashops.o
 .text.hashops_init_sha1
                0x01009936        0xc obj/hashops.o
 .text.hashops_update_md5
                0x01009942       0x16 obj/hashops.o
 .text.hashops_init_md5
                0x01009958        0x8 obj/hashops.o
 .text.hashops_get
                0x01009960       0x28 obj/hashops.o
                0x01009960                hashops_get
 .text          0x01009988        0x0 obj/infodata.o
 .text.PackInfoData
                0x01009988       0x54 obj/infodata.o
                0x01009988                PackInfoData
 .text.DispInfoData
                0x010099dc      0x138 obj/infodata.o
                0x010099dc                DispInfoData
 .text          0x01009b14        0x0 obj/inittran.o
 .text.PackHostMsg
                0x01009b14      0x198 obj/inittran.o
                0x01009b14                PackHostMsg
 .text.CheckHostRsp
                0x01009cac      0x7b4 obj/inittran.o
                0x01009cac                CheckHostRsp
 .text.InitTrans
                0x0100a460      0x20c obj/inittran.o
                0x0100a460                InitTrans
 .text          0x0100a66c        0x0 obj/kbdutil.o
 .text.ConvertAlphaNew
                0x0100a66c       0x84 obj/kbdutil.o
 .text.UpdateDisplay
                0x0100a6f0      0x3ec obj/kbdutil.o
 .text.InitTimer
                0x0100aadc       0x1c obj/kbdutil.o
 .text.ClearKeyin
                0x0100aaf8       0x26 obj/kbdutil.o
                0x0100aaf8                ClearKeyin
 *fill*         0x0100ab1e        0x2 
 .text.GetKeyin
                0x0100ab20       0x34 obj/kbdutil.o
                0x0100ab20                GetKeyin
 .text.SetKbdTimeout
                0x0100ab54       0x24 obj/kbdutil.o
                0x0100ab54                SetKbdTimeout
 .text.GetKbdTimeout
                0x0100ab78       0x1c obj/kbdutil.o
                0x0100ab78                GetKbdTimeout
 .text.WaitKey  0x0100ab94       0x2a obj/kbdutil.o
                0x0100ab94                WaitKey
 *fill*         0x0100abbe        0x2 
 .text.WaitKeyCheck
                0x0100abc0       0x80 obj/kbdutil.o
                0x0100abc0                WaitKeyCheck
 .text.YesNo    0x0100ac40       0x28 obj/kbdutil.o
                0x0100ac40                YesNo
 .text.GetKbd   0x0100ac68      0x4cc obj/kbdutil.o
                0x0100ac68                GetKbd
 .text          0x0100b134        0x0 obj/keydlltest.o
 .text.ShowKeyStatus
                0x0100b134       0x7c obj/keydlltest.o
 .text.KeyDllTest
                0x0100b1b0      0x540 obj/keydlltest.o
                0x0100b1b0                KeyDllTest
 .text          0x0100b6f0        0x0 obj/lptutil.o
 .text.ResetLpt
                0x0100b6f0       0x2c obj/lptutil.o
 .text.WaitPrnFinish
                0x0100b71c       0x4c obj/lptutil.o
                0x0100b71c                WaitPrnFinish
 .text.GetBatteryLevel
                0x0100b768       0x1e obj/lptutil.o
                0x0100b768                GetBatteryLevel
 .text.PrintLowBatt
                0x0100b786       0x10 obj/lptutil.o
                0x0100b786                PrintLowBatt
 *fill*         0x0100b796        0x2 
 .text.LptClose
                0x0100b798       0x2c obj/lptutil.o
                0x0100b798                LptClose
 .text.LptOpen  0x0100b7c4       0x64 obj/lptutil.o
                0x0100b7c4                LptOpen
 .text.LptPutN  0x0100b828       0xc0 obj/lptutil.o
                0x0100b828                LptPutN
 .text.LptPutS  0x0100b8e8       0x14 obj/lptutil.o
                0x0100b8e8                LptPutS
 .text.Adv2Bookmark
                0x0100b8fc       0x78 obj/lptutil.o
                0x0100b8fc                Adv2Bookmark
 .text.PrintLogo
                0x0100b974       0x88 obj/lptutil.o
                0x0100b974                PrintLogo
 .text.PrintBuf
                0x0100b9fc       0xcc obj/lptutil.o
                0x0100b9fc                PrintBuf
 .text.PrintRcptLF
                0x0100bac8       0x24 obj/lptutil.o
                0x0100bac8                PrintRcptLF
 .text.PrintRcptFF
                0x0100baec        0x6 obj/lptutil.o
                0x0100baec                PrintRcptFF
 .text          0x0100baf2        0x0 obj/main.o
 *fill*         0x0100baf2        0x2 
 .text.startup.main
                0x0100baf4       0x78 obj/main.o
                0x0100baf4                main
 .text          0x0100bb6c        0x0 obj/mcp.o
 .text          0x0100bb6c        0x0 obj/menu.o
 .text.MenuSelect
                0x0100bb6c      0x590 obj/menu.o
                0x0100bb6c                MenuSelect
 .text          0x0100c0fc        0x0 obj/message.o
 .text          0x0100c0fc        0x0 obj/mxml-attr.o
 .text.mxml_set_attr
                0x0100c0fc       0xa4 obj/mxml-attr.o
 .text.mxmlElementDeleteAttr
                0x0100c1a0       0x64 obj/mxml-attr.o
                0x0100c1a0                mxmlElementDeleteAttr
 .text.mxmlElementGetAttr
                0x0100c204       0x32 obj/mxml-attr.o
                0x0100c204                mxmlElementGetAttr
 .text.mxmlElementSetAttr
                0x0100c236       0x38 obj/mxml-attr.o
                0x0100c236                mxmlElementSetAttr
 *fill*         0x0100c26e        0x2 
 .text.mxmlElementSetAttrf
                0x0100c270       0x54 obj/mxml-attr.o
                0x0100c270                mxmlElementSetAttrf
 .text          0x0100c2c4        0x0 obj/mxml-entity.o
 .text.mxmlEntityAddCallback
                0x0100c2c4       0x2c obj/mxml-entity.o
                0x0100c2c4                mxmlEntityAddCallback
 .text.mxmlEntityGetName
                0x0100c2f0       0x14 obj/mxml-entity.o
                0x0100c2f0                mxmlEntityGetName
 .text.mxmlEntityGetValue
                0x0100c304       0x2a obj/mxml-entity.o
                0x0100c304                mxmlEntityGetValue
 .text.mxmlEntityRemoveCallback
                0x0100c32e       0x42 obj/mxml-entity.o
                0x0100c32e                mxmlEntityRemoveCallback
 .text._mxml_entity_cb
                0x0100c370       0x74 obj/mxml-entity.o
                0x0100c370                _mxml_entity_cb
 .text          0x0100c3e4        0x0 obj/mxml-file.o
 .text.mxml_string_getc
                0x0100c3e4      0x1f8 obj/mxml-file.o
 .text.mxml_add_char
                0x0100c5dc      0x100 obj/mxml-file.o
 .text.mxml_isspace
                0x0100c6dc       0x1a obj/mxml-file.o
 *fill*         0x0100c6f6        0x2 
 .text.mxml_get_entity.constprop.3
                0x0100c6f8       0xec obj/mxml-file.o
 .text.mxml_load_data.constprop.1
                0x0100c7e4      0xa88 obj/mxml-file.o
 .text.mxmlLoadString
                0x0100d26c       0x16 obj/mxml-file.o
                0x0100d26c                mxmlLoadString
 .text.mxmlSAXLoadString
                0x0100d282       0x16 obj/mxml-file.o
                0x0100d282                mxmlSAXLoadString
 .text.mxmlSetCustomHandlers
                0x0100d298       0x14 obj/mxml-file.o
                0x0100d298                mxmlSetCustomHandlers
 .text.mxmlSetErrorCallback
                0x0100d2ac        0xc obj/mxml-file.o
                0x0100d2ac                mxmlSetErrorCallback
 .text.mxmlSetWrapMargin
                0x0100d2b8        0xe obj/mxml-file.o
                0x0100d2b8                mxmlSetWrapMargin
 .text          0x0100d2c6        0x0 obj/mxml-get.o
 *fill*         0x0100d2c6        0x2 
 .text.mxmlGetCDATA
                0x0100d2c8       0x2c obj/mxml-get.o
                0x0100d2c8                mxmlGetCDATA
 .text.mxmlGetCustom
                0x0100d2f4       0x22 obj/mxml-get.o
                0x0100d2f4                mxmlGetCustom
 .text.mxmlGetElement
                0x0100d316       0x10 obj/mxml-get.o
                0x0100d316                mxmlGetElement
 .text.mxmlGetFirstChild
                0x0100d326       0x10 obj/mxml-get.o
                0x0100d326                mxmlGetFirstChild
 .text.mxmlGetInteger
                0x0100d336       0x22 obj/mxml-get.o
                0x0100d336                mxmlGetInteger
 .text.mxmlGetLastChild
                0x0100d358       0x10 obj/mxml-get.o
                0x0100d358                mxmlGetLastChild
 .text.mxmlGetNextSibling
                0x0100d368        0x6 obj/mxml-get.o
                0x0100d368                mxmlGetNextSibling
 .text.mxmlGetOpaque
                0x0100d36e       0x22 obj/mxml-get.o
                0x0100d36e                mxmlGetOpaque
 .text.mxmlGetParent
                0x0100d390        0x6 obj/mxml-get.o
                0x0100d390                mxmlGetParent
 .text.mxmlGetPrevSibling
                0x0100d396        0x6 obj/mxml-get.o
                0x0100d396                mxmlGetPrevSibling
 .text.mxmlGetReal
                0x0100d39c       0x28 obj/mxml-get.o
                0x0100d39c                mxmlGetReal
 .text.mxmlGetText
                0x0100d3c4       0x3a obj/mxml-get.o
                0x0100d3c4                mxmlGetText
 .text.mxmlGetType
                0x0100d3fe        0xc obj/mxml-get.o
                0x0100d3fe                mxmlGetType
 .text.mxmlGetUserData
                0x0100d40a        0x6 obj/mxml-get.o
                0x0100d40a                mxmlGetUserData
 .text          0x0100d410        0x0 obj/mxml-node.o
 .text.mxmlGetRefCount
                0x0100d410        0x6 obj/mxml-node.o
                0x0100d410                mxmlGetRefCount
 .text.mxmlRemove
                0x0100d416       0x26 obj/mxml-node.o
                0x0100d416                mxmlRemove
 .text.mxmlAdd  0x0100d43c       0x86 obj/mxml-node.o
                0x0100d43c                mxmlAdd
 .text.mxml_new
                0x0100d4c2       0x30 obj/mxml-node.o
 *fill*         0x0100d4f2        0x2 
 .text.mxmlNewCDATA
                0x0100d4f4       0x28 obj/mxml-node.o
                0x0100d4f4                mxmlNewCDATA
 .text.mxmlNewCustom
                0x0100d51c       0x14 obj/mxml-node.o
                0x0100d51c                mxmlNewCustom
 .text.mxmlNewElement
                0x0100d530       0x22 obj/mxml-node.o
                0x0100d530                mxmlNewElement
 .text.mxmlNewInteger
                0x0100d552       0x10 obj/mxml-node.o
                0x0100d552                mxmlNewInteger
 .text.mxmlNewOpaque
                0x0100d562       0x22 obj/mxml-node.o
                0x0100d562                mxmlNewOpaque
 .text.mxmlNewReal
                0x0100d584       0x14 obj/mxml-node.o
                0x0100d584                mxmlNewReal
 .text.mxmlNewText
                0x0100d598       0x26 obj/mxml-node.o
                0x0100d598                mxmlNewText
 .text.mxmlNewTextf
                0x0100d5be       0x34 obj/mxml-node.o
                0x0100d5be                mxmlNewTextf
 .text.mxmlDelete
                0x0100d5f2       0x8e obj/mxml-node.o
                0x0100d5f2                mxmlDelete
 .text.mxmlNewXML
                0x0100d680       0x34 obj/mxml-node.o
                0x0100d680                mxmlNewXML
 .text.mxmlRelease
                0x0100d6b4       0x1e obj/mxml-node.o
                0x0100d6b4                mxmlRelease
 .text.mxmlRetain
                0x0100d6d2       0x12 obj/mxml-node.o
                0x0100d6d2                mxmlRetain
 .text          0x0100d6e4        0x0 obj/mxml-private.o
 .text.mxml_error
                0x0100d6e4       0x60 obj/mxml-private.o
                0x0100d6e4                mxml_error
 .text.mxml_ignore_cb
                0x0100d744        0x6 obj/mxml-private.o
                0x0100d744                mxml_ignore_cb
 .text.mxml_integer_cb
                0x0100d74a        0x4 obj/mxml-private.o
                0x0100d74a                mxml_integer_cb
 .text.mxml_opaque_cb
                0x0100d74e        0x4 obj/mxml-private.o
                0x0100d74e                mxml_opaque_cb
 .text.mxml_real_cb
                0x0100d752        0x4 obj/mxml-private.o
                0x0100d752                mxml_real_cb
 *fill*         0x0100d756        0x2 
 .text._mxml_global
                0x0100d758        0x8 obj/mxml-private.o
                0x0100d758                _mxml_global
 .text          0x0100d760        0x0 obj/mxml-search.o
 .text.mxmlWalkNext
                0x0100d760       0x32 obj/mxml-search.o
                0x0100d760                mxmlWalkNext
 .text.mxmlFindElement
                0x0100d792       0x80 obj/mxml-search.o
                0x0100d792                mxmlFindElement
 *fill*         0x0100d812        0x2 
 .text.mxmlFindPath
                0x0100d814       0xb0 obj/mxml-search.o
                0x0100d814                mxmlFindPath
 .text.mxmlWalkPrev
                0x0100d8c4       0x2e obj/mxml-search.o
                0x0100d8c4                mxmlWalkPrev
 .text          0x0100d8f2        0x0 obj/mxml-string.o
 .text._mxml_strdup
                0x0100d8f2       0x22 obj/mxml-string.o
                0x0100d8f2                _mxml_strdup
 .text._mxml_vsnprintf
                0x0100d914      0x3ac obj/mxml-string.o
                0x0100d914                _mxml_vsnprintf
 .text._mxml_snprintf
                0x0100dcc0       0x1a obj/mxml-string.o
                0x0100dcc0                _mxml_snprintf
 .text._mxml_vstrdupf
                0x0100dcda       0x4c obj/mxml-string.o
                0x0100dcda                _mxml_vstrdupf
 .text._mxml_strdupf
                0x0100dd26       0x1a obj/mxml-string.o
                0x0100dd26                _mxml_strdupf
 .text          0x0100dd40        0x0 obj/param.o
 .text.CheckNodeName
                0x0100dd40       0x44 obj/param.o
                0x0100dd40                CheckNodeName
 .text.UpdateNodeParam
                0x0100dd84       0xd8 obj/param.o
                0x0100dd84                UpdateNodeParam
 .text.UpdateParamEmvApp
                0x0100de5c      0x110 obj/param.o
                0x0100de5c                UpdateParamEmvApp
 .text.UpdateParamCtlApp
                0x0100df6c      0x110 obj/param.o
                0x0100df6c                UpdateParamCtlApp
 .text.UpdateParamEmvKey
                0x0100e07c      0x10c obj/param.o
                0x0100e07c                UpdateParamEmvKey
 .text.ParseTermCfg
                0x0100e188       0xa0 obj/param.o
                0x0100e188                ParseTermCfg
 .text.ParseAcquirer
                0x0100e228       0xd0 obj/param.o
                0x0100e228                ParseAcquirer
 .text.ParseIssuer
                0x0100e2f8       0xa0 obj/param.o
                0x0100e2f8                ParseIssuer
 .text.ParseCard
                0x0100e398       0xa8 obj/param.o
                0x0100e398                ParseCard
 .text.ParseEmvApp
                0x0100e440       0x90 obj/param.o
                0x0100e440                ParseEmvApp
 .text.ParseCtlApp
                0x0100e4d0       0x90 obj/param.o
                0x0100e4d0                ParseCtlApp
 .text.ParseEmvKey
                0x0100e560       0xc8 obj/param.o
                0x0100e560                ParseEmvKey
 .text.SetAPNConfig
                0x0100e628      0x400 obj/param.o
                0x0100e628                SetAPNConfig
 .text.XmlStringToCfg
                0x0100ea28      0x294 obj/param.o
                0x0100ea28                XmlStringToCfg
 .text.STISLoadParam
                0x0100ecbc      0x124 obj/param.o
                0x0100ecbc                STISLoadParam
 .text          0x0100ede0        0x0 obj/pkcs.o
 .text.getASNLength
                0x0100ede0       0x5a obj/pkcs.o
                0x0100ede0                getASNLength
 .text.getSequence
                0x0100ee3a       0x38 obj/pkcs.o
                0x0100ee3a                getSequence
 .text.getVersionNum
                0x0100ee72       0x36 obj/pkcs.o
                0x0100ee72                getVersionNum
 .text.getBig   0x0100eea8       0x90 obj/pkcs.o
                0x0100eea8                getBig
 .text.getPubKey
                0x0100ef38       0x78 obj/pkcs.o
                0x0100ef38                getPubKey
 .text.x509ParseKey
                0x0100efb0      0x13a obj/pkcs.o
                0x0100efb0                x509ParseKey
 .text          0x0100f0ea        0x0 obj/remotedl.o
 *fill*         0x0100f0ea        0x2 
 .text.DeleteRemoteDLFile
                0x0100f0ec       0x24 obj/remotedl.o
                0x0100f0ec                DeleteRemoteDLFile
 .text.RemoteDownload
                0x0100f110      0x17c obj/remotedl.o
                0x0100f110                RemoteDownload
 .text.RemoteDlSetScheduler
                0x0100f28c      0x2dc obj/remotedl.o
                0x0100f28c                RemoteDlSetScheduler
 .text.RemoteDlSetConfig
                0x0100f568       0x9c obj/remotedl.o
                0x0100f568                RemoteDlSetConfig
 .text.RemoteDlFailHdl
                0x0100f604       0x9c obj/remotedl.o
                0x0100f604                RemoteDlFailHdl
 .text.RemoteDlResetData
                0x0100f6a0       0xa0 obj/remotedl.o
                0x0100f6a0                RemoteDlResetData
 .text.RemoteDlInit
                0x0100f740       0x64 obj/remotedl.o
                0x0100f740                RemoteDlInit
 .text.SetRemoteDownload
                0x0100f7a4       0x3c obj/remotedl.o
                0x0100f7a4                SetRemoteDownload
 .text.SetRDLForceUpload
                0x0100f7e0       0x2c obj/remotedl.o
                0x0100f7e0                SetRDLForceUpload
 .text.GetRDLForceUpload
                0x0100f80c       0x20 obj/remotedl.o
                0x0100f80c                GetRDLForceUpload
 .text.RemoteDlChkScheduler
                0x0100f82c      0x1d8 obj/remotedl.o
                0x0100f82c                RemoteDlChkScheduler
 .text.SetRemoteDLAllowAtSetupMode
                0x0100fa04        0x2 obj/remotedl.o
                0x0100fa04                SetRemoteDLAllowAtSetupMode
 .text.GetRemoteDLAllowAtSetupMode
                0x0100fa06        0x4 obj/remotedl.o
                0x0100fa06                GetRemoteDLAllowAtSetupMode
 .text          0x0100fa0a        0x0 obj/rmenu.o
 .text.RMenuSel
                0x0100fa0a      0x2d4 obj/rmenu.o
                0x0100fa0a                RMenuSel
 .text          0x0100fcde        0x0 obj/stis.o
 .text.CreateEmptyFile
                0x0100fcde       0x2e obj/stis.o
 .text.TelToAscStr.constprop.16
                0x0100fd0c       0x2a obj/stis.o
 *fill*         0x0100fd36        0x2 
 .text.UpdTermCfg
                0x0100fd38       0x38 obj/stis.o
                0x0100fd38                UpdTermCfg
 .text.UpdCardTbl
                0x0100fd70       0x3c obj/stis.o
                0x0100fd70                UpdCardTbl
 .text.UpdIssuerTbl
                0x0100fdac       0x3c obj/stis.o
                0x0100fdac                UpdIssuerTbl
 .text.UpdAcqTbl
                0x0100fde8       0x3c obj/stis.o
                0x0100fde8                UpdAcqTbl
 .text.UpdDescTbl
                0x0100fe24       0x3c obj/stis.o
                0x0100fe24                UpdDescTbl
 .text.UpdLogoTbl
                0x0100fe60       0x40 obj/stis.o
                0x0100fe60                UpdLogoTbl
 .text.UpdExtraParam
                0x0100fea0       0x3c obj/stis.o
                0x0100fea0                UpdExtraParam
 .text.GetCardCount
                0x0100fedc       0x2c obj/stis.o
                0x0100fedc                GetCardCount
 .text.GetIssuerCount
                0x0100ff08       0x2c obj/stis.o
                0x0100ff08                GetIssuerCount
 .text.GetAcqCount
                0x0100ff34       0x2c obj/stis.o
                0x0100ff34                GetAcqCount
 .text.GetDescCount
                0x0100ff60       0x2c obj/stis.o
                0x0100ff60                GetDescCount
 .text.GetLogoCount
                0x0100ff8c       0x30 obj/stis.o
                0x0100ff8c                GetLogoCount
 .text.GetExParamCount
                0x0100ffbc       0x2c obj/stis.o
                0x0100ffbc                GetExParamCount
 .text.CloseSTISFiles
                0x0100ffe8       0xa8 obj/stis.o
                0x0100ffe8                CloseSTISFiles
 .text.CreateSTISFiles
                0x01010090       0xd8 obj/stis.o
                0x01010090                CreateSTISFiles
 .text.CloseExParamFiles
                0x01010168       0x24 obj/stis.o
                0x01010168                CloseExParamFiles
 .text.CreateExParamFiles
                0x0101018c       0x14 obj/stis.o
                0x0101018c                CreateExParamFiles
 .text.STISInit
                0x010101a0       0xe4 obj/stis.o
                0x010101a0                STISInit
 .text.ExParamInit
                0x01010284       0x48 obj/stis.o
                0x01010284                ExParamInit
 .text.GetTermCfg
                0x010102cc       0x60 obj/stis.o
                0x010102cc                GetTermCfg
 .text.GetCardTbl
                0x0101032c       0x50 obj/stis.o
                0x0101032c                GetCardTbl
 .text.GetIssuerTbl
                0x0101037c       0x50 obj/stis.o
                0x0101037c                GetIssuerTbl
 .text.GetAcqTbl
                0x010103cc       0x50 obj/stis.o
                0x010103cc                GetAcqTbl
 .text.GetDescTbl
                0x0101041c       0x50 obj/stis.o
                0x0101041c                GetDescTbl
 .text.GetLogoTbl
                0x0101046c       0x54 obj/stis.o
                0x0101046c                GetLogoTbl
 .text.GetExtraParam
                0x010104c0       0x50 obj/stis.o
                0x010104c0                GetExtraParam
 .text.PrintSTISParam
                0x01010510      0xc1c obj/stis.o
                0x01010510                PrintSTISParam
 .text.GetPending
                0x0101112c       0x1a obj/stis.o
                0x0101112c                GetPending
 .text.SetPending
                0x01011146       0x3e obj/stis.o
                0x01011146                SetPending
 .text.GetBatchNo
                0x01011184       0x28 obj/stis.o
                0x01011184                GetBatchNo
 .text.SetBatchNo
                0x010111ac       0x2e obj/stis.o
                0x010111ac                SetBatchNo
 .text.CleanStisTable
                0x010111da       0x34 obj/stis.o
                0x010111da                CleanStisTable
 .text.StisAdd  0x0101120e       0x62 obj/stis.o
                0x0101120e                StisAdd
 .text.SelectAcquirer
                0x01011270      0x100 obj/stis.o
                0x01011270                SelectAcquirer
 .text.ExtraMsgLen
                0x01011370       0x1c obj/stis.o
                0x01011370                ExtraMsgLen
 .text          0x0101138c        0x0 obj/sysutil.o
 .text.LongBeep
                0x0101138c        0xc obj/sysutil.o
                0x0101138c                LongBeep
 .text.AcceptBeep
                0x01011398        0xc obj/sysutil.o
                0x01011398                AcceptBeep
 .text.Short2Beep
                0x010113a4        0xc obj/sysutil.o
                0x010113a4                Short2Beep
 .text.Short1Beep
                0x010113b0        0xc obj/sysutil.o
                0x010113b0                Short1Beep
 .text.Delay1Sec
                0x010113bc       0x44 obj/sysutil.o
                0x010113bc                Delay1Sec
 .text.ErrorDelay
                0x01011400        0x8 obj/sysutil.o
                0x01011400                ErrorDelay
 .text.Delay10ms
                0x01011408       0x28 obj/sysutil.o
                0x01011408                Delay10ms
 .text.ShowStatus
                0x01011430       0x48 obj/sysutil.o
                0x01011430                ShowStatus
 .text.DispPutStr
                0x01011478       0x36 obj/sysutil.o
                0x01011478                DispPutStr
 .text.ShowBWLogo
                0x010114ae       0x38 obj/sysutil.o
                0x010114ae                ShowBWLogo
 .text.ShowGraphicT800
                0x010114e6       0x80 obj/sysutil.o
                0x010114e6                ShowGraphicT800
 .text.Disp2x16Msg
                0x01011566       0xbc obj/sysutil.o
                0x01011566                Disp2x16Msg
 .text.SetRTC   0x01011622       0x26 obj/sysutil.o
                0x01011622                SetRTC
 .text.ReadRTC  0x01011648       0x1a obj/sysutil.o
                0x01011648                ReadRTC
 *fill*         0x01011662        0x2 
 .text.ConvDateTime
                0x01011664       0x84 obj/sysutil.o
                0x01011664                ConvDateTime
 .text.SetDTG   0x010116e8       0x5a obj/sysutil.o
                0x010116e8                SetDTG
 .text.FreeRunMark
                0x01011742        0x8 obj/sysutil.o
                0x01011742                FreeRunMark
 .text.FreeRunElapsed
                0x0101174a       0x14 obj/sysutil.o
                0x0101174a                FreeRunElapsed
 *fill*         0x0101175e        0x2 
 .text.ShowIp   0x01011760       0x88 obj/sysutil.o
                0x01011760                ShowIp
 .text.EditIp   0x010117e8      0x134 obj/sysutil.o
                0x010117e8                EditIp
 .text.EditPort
                0x0101191c       0x54 obj/sysutil.o
                0x0101191c                EditPort
 .text.CheckPointerAddr
                0x01011970       0x68 obj/sysutil.o
                0x01011970                CheckPointerAddr
 .text.MemFatalErr
                0x010119d8       0x6c obj/sysutil.o
                0x010119d8                MemFatalErr
 .text.FreeRunSec
                0x01011a44       0x16 obj/sysutil.o
                0x01011a44                FreeRunSec
 *fill*         0x01011a5a        0x2 
 .text.ShowTxRxLed
                0x01011a5c       0x44 obj/sysutil.o
                0x01011a5c                ShowTxRxLed
 .text.DebugPoint
                0x01011aa0       0x5c obj/sysutil.o
                0x01011aa0                DebugPoint
 .text.ReadSFile
                0x01011afc       0x32 obj/sysutil.o
                0x01011afc                ReadSFile
 *fill*         0x01011b2e        0x2 
 .text.WriteSFile
                0x01011b30       0x74 obj/sysutil.o
                0x01011b30                WriteSFile
 .text.WGet     0x01011ba4        0xc obj/sysutil.o
                0x01011ba4                WGet
 .text.DWGet    0x01011bb0       0x14 obj/sysutil.o
                0x01011bb0                DWGet
 .text.WaitLanNetRdy
                0x01011bc4       0xf4 obj/sysutil.o
                0x01011bc4                WaitLanNetRdy
 .text.WaitWifiNetRdy
                0x01011cb8       0xec obj/sysutil.o
                0x01011cb8                WaitWifiNetRdy
 .text.HotPlug  0x01011da4       0x94 obj/sysutil.o
                0x01011da4                HotPlug
 .text          0x01011e38        0x0 obj/termdata.o
 .text.CancelExit
                0x01011e38       0x80 obj/termdata.o
 .text.UpdTermData
                0x01011eb8       0x34 obj/termdata.o
                0x01011eb8                UpdTermData
 .text.UpdateTermID
                0x01011eec      0x100 obj/termdata.o
 .text.SetInitIP
                0x01011fec      0x130 obj/termdata.o
 .text.GetTermData
                0x0101211c       0x58 obj/termdata.o
                0x0101211c                GetTermData
 .text.CloseTermData
                0x01012174       0x24 obj/termdata.o
                0x01012174                CloseTermData
 .text.CreateTermData
                0x01012198       0xb0 obj/termdata.o
                0x01012198                CreateTermData
 .text.TermDataInit
                0x01012248       0x68 obj/termdata.o
                0x01012248                TermDataInit
 .text.GetSTISMode
                0x010122b0       0x20 obj/termdata.o
                0x010122b0                GetSTISMode
 .text.SetSTISMode
                0x010122d0       0x28 obj/termdata.o
                0x010122d0                SetSTISMode
 .text.SetDebugMode
                0x010122f8       0x34 obj/termdata.o
                0x010122f8                SetDebugMode
 .text.DebugModeON
                0x0101232c       0x2c obj/termdata.o
                0x0101232c                DebugModeON
 .text.TrainingModeON
                0x01012358       0x2c obj/termdata.o
                0x01012358                TrainingModeON
 .text.PrintRcptHeader
                0x01012384       0x86 obj/termdata.o
                0x01012384                PrintRcptHeader
 *fill*         0x0101240a        0x2 
 .text.PrintSTIS
                0x0101240c       0xac obj/termdata.o
                0x0101240c                PrintSTIS
 .text.CompressInputData
                0x010124b8       0x42 obj/termdata.o
                0x010124b8                CompressInputData
 .text.CompressInputFData
                0x010124fa       0x3c obj/termdata.o
                0x010124fa                CompressInputFData
 *fill*         0x01012536        0x2 
 .text.SetModeOnOff
                0x01012538       0xc4 obj/termdata.o
                0x01012538                SetModeOnOff
 .text.UpdateFData
                0x010125fc       0x54 obj/termdata.o
                0x010125fc                UpdateFData
 .text.UpdatePABX
                0x01012650       0x80 obj/termdata.o
                0x01012650                UpdatePABX
 .text.SetupSTIS
                0x010126d0      0x3d4 obj/termdata.o
                0x010126d0                SetupSTIS
 .text.GetPortDevName
                0x01012aa4       0x28 obj/termdata.o
                0x01012aa4                GetPortDevName
 .text.SetupTerm
                0x01012acc      0x798 obj/termdata.o
                0x01012acc                SetupTerm
 .text.GenDLL   0x01013264       0x4c obj/termdata.o
                0x01013264                GenDLL
 .text.GetAccessCode
                0x010132b0       0xe0 obj/termdata.o
                0x010132b0                GetAccessCode
 .text.SetROC   0x01013390       0x34 obj/termdata.o
                0x01013390                SetROC
 .text.SetTrace
                0x010133c4       0x34 obj/termdata.o
                0x010133c4                SetTrace
 .text.GetTrace
                0x010133f8       0x14 obj/termdata.o
                0x010133f8                GetTrace
 .text.IncTrace
                0x0101340c       0x30 obj/termdata.o
                0x0101340c                IncTrace
 .text.CleanTermData
                0x0101343c       0x2c obj/termdata.o
                0x0101343c                CleanTermData
 .text.TermDataUpd
                0x01013468       0x24 obj/termdata.o
                0x01013468                TermDataUpd
 .text.UpdateFTPServerKey
                0x0101348c       0xc0 obj/termdata.o
                0x0101348c                UpdateFTPServerKey
 .text.STISFTPSetup
                0x0101354c      0x6fc obj/termdata.o
                0x0101354c                STISFTPSetup
 .text.CompareEDCDateChksum
                0x01013c48       0x44 obj/termdata.o
                0x01013c48                CompareEDCDateChksum
 .text.SetEDCDateChksumSize
                0x01013c8c       0x48 obj/termdata.o
                0x01013c8c                SetEDCDateChksumSize
 .text.CompareEMVAPPDateChksum
                0x01013cd4       0x44 obj/termdata.o
                0x01013cd4                CompareEMVAPPDateChksum
 .text.SetEMVAPPDateChksumSize
                0x01013d18       0x44 obj/termdata.o
                0x01013d18                SetEMVAPPDateChksumSize
 .text.CompareEMVKEYDateChksum
                0x01013d5c       0x44 obj/termdata.o
                0x01013d5c                CompareEMVKEYDateChksum
 .text.SetEMVKEYDateChksumSize
                0x01013da0       0x44 obj/termdata.o
                0x01013da0                SetEMVKEYDateChksumSize
 .text.CompareXAPPDateChksum
                0x01013de4       0x44 obj/termdata.o
                0x01013de4                CompareXAPPDateChksum
 .text.SetXAPPDateChksumSize
                0x01013e28       0x44 obj/termdata.o
                0x01013e28                SetXAPPDateChksumSize
 .text.CompareLXAPPDateChksum
                0x01013e6c       0x44 obj/termdata.o
                0x01013e6c                CompareLXAPPDateChksum
 .text.SetLXAPPDateChksumSize
                0x01013eb0       0x44 obj/termdata.o
                0x01013eb0                SetLXAPPDateChksumSize
 .text.AppListUploadReq
                0x01013ef4       0x24 obj/termdata.o
                0x01013ef4                AppListUploadReq
 .text.SetAppListUploadReq
                0x01013f18       0x28 obj/termdata.o
                0x01013f18                SetAppListUploadReq
 .text.GetMirrorAppListChksum
                0x01013f40       0x24 obj/termdata.o
                0x01013f40                GetMirrorAppListChksum
 .text.GetActualAppListChksum
                0x01013f64       0x2e obj/termdata.o
                0x01013f64                GetActualAppListChksum
 *fill*         0x01013f92        0x2 
 .text.UpdateAppListChksum
                0x01013f94       0x4c obj/termdata.o
                0x01013f94                UpdateAppListChksum
 .text          0x01013fe0        0x0 obj/toggle.o
 .text.ToggleOption
                0x01013fe0      0x14e obj/toggle.o
                0x01013fe0                ToggleOption
 *fill*         0x0101412e        0x2 
 .text.ToggleYesNo
                0x01014130       0x20 obj/toggle.o
                0x01014130                ToggleYesNo
 .text          0x01014150        0x0 obj/tranutil.o
 .text.PackRspText.part.0
                0x01014150       0x7c obj/tranutil.o
 .text.ResetTrans
                0x010141cc       0x28 obj/tranutil.o
                0x010141cc                ResetTrans
 .text.ClearResponse
                0x010141f4       0x2c obj/tranutil.o
                0x010141f4                ClearResponse
 .text.SetRspCode
                0x01014220       0x34 obj/tranutil.o
                0x01014220                SetRspCode
 .text.DispHeader
                0x01014254       0xe8 obj/tranutil.o
                0x01014254                DispHeader
 .text.DispRspText
                0x0101433c       0xcc obj/tranutil.o
                0x0101433c                DispRspText
 .text.TransEnd
                0x01014408       0x44 obj/tranutil.o
                0x01014408                TransEnd
 .text.Return2Base
                0x0101444c        0x4 obj/tranutil.o
                0x0101444c                Return2Base
 .text          0x01014450        0x0 obj/wifi.o
 .text.WifiOn   0x01014450       0x8c obj/wifi.o
                0x01014450                WifiOn
 .text.WifiOff  0x010144dc       0xe0 obj/wifi.o
                0x010144dc                WifiOff
 .text.WifiConfig
                0x010145bc      0xb5c obj/wifi.o
                0x010145bc                WifiConfig
 .text.WifiStatus
                0x01015118       0xe8 obj/wifi.o
                0x01015118                WifiStatus
 .text.GetWifiStatus
                0x01015200       0x28 obj/wifi.o
                0x01015200                GetWifiStatus
 .text.GetWifiConnStatus
                0x01015228       0x28 obj/wifi.o
                0x01015228                GetWifiConnStatus
 .text          0x01015250        0x0 obj/x509.o
 .text.oid_to_hash_value
                0x01015250       0x1e obj/x509.o
 .text.x509_get_asn_length
                0x0101526e       0x5a obj/x509.o
 .text.x509_get_integer
                0x010152c8       0x8a obj/x509.o
 .text.x509_get_sequence
                0x01015352       0x38 obj/x509.o
 .text.x509_get_oid
                0x0101538a       0x38 obj/x509.o
 .text.unlikely.x509_get_implicit_bit_string
                0x010153c2       0x46 obj/x509.o
 .text.x509_get_algorithm_identifier
                0x01015408      0x234 obj/x509.o
 .text.unlikely.x509_get_big
                0x0101563c       0x5c obj/x509.o
 .text.unlikely.x509_get_dn_attrib
                0x01015698      0x14a obj/x509.o
 *fill*         0x010157e2        0x2 
 .text.x509_select_hashops
                0x010157e4       0x8c obj/x509.o
 .text.unlikely.x509_generalize_time
                0x01015870       0x42 obj/x509.o
 *fill*         0x010158b2        0x2 
 .text.x509_check_leading_zeros.constprop.6
                0x010158b4       0x38 obj/x509.o
 .text.x509_verify_cert_with_PSS
                0x010158ec      0x1b8 obj/x509.o
 .text.x509_verify_cert_by_key
                0x01015aa4       0xdc obj/x509.o
                0x01015aa4                x509_verify_cert_by_key
 .text.x509_parse_cert
                0x01015b80      0x71c obj/x509.o
                0x01015b80                x509_parse_cert
 .text.x509_verify_cert_by_cert
                0x0101629c       0x36 obj/x509.o
                0x0101629c                x509_verify_cert_by_cert
 .text          0x010162d2        0x0 obj/cstartup.o
 *fill*         0x010162d2        0x2 
 .text.SegmentInit
                0x010162d4       0x78 obj/cstartup.o
                0x010162d4                SegmentInit
 .text          0x0101634c        0x0 obj/expect_send.o
 .text.expect_send_release
                0x0101634c       0x58 obj/expect_send.o
                0x0101634c                expect_send_release
 .text.expect_send_alloc
                0x010163a4      0x10e obj/expect_send.o
                0x010163a4                expect_send_alloc
 .text          0x010164b2        0x0 obj/libc.o
 .text.printchar
                0x010164b2       0x14 obj/libc.o
 .text.prints   0x010164c6       0xaa obj/libc.o
 .text.printi   0x01016570       0xa0 obj/libc.o
 .text.print    0x01016610      0x2c0 obj/libc.o
 .text._read_r  0x010168d0       0x2a obj/libc.o
                0x010168d0                _read_r
 .text._write_r
                0x010168fa       0x22 obj/libc.o
                0x010168fa                _write_r
 .text._close_r
                0x0101691c        0x4 obj/libc.o
                0x0101691c                _close_r
 .text._lseek_r
                0x01016920        0x4 obj/libc.o
                0x01016920                _lseek_r
 .text._fstat_r
                0x01016924        0xa obj/libc.o
                0x01016924                _fstat_r
 .text.isatty   0x0101692e        0x4 obj/libc.o
                0x0101692e                isatty
 *fill*         0x01016932        0x2 
 .text._sbrk_r  0x01016934       0x2c obj/libc.o
                0x01016934                _sbrk_r
 .text.putchar  0x01016960        0xe obj/libc.o
                0x01016960                putchar
 .text.printf   0x0101696e       0x1c obj/libc.o
                0x0101696e                printf
 .text.sprintf  0x0101698a       0x1e obj/libc.o
                0x0101698a                sprintf
 .text          0x010169a8      0x5f4 ../LibA5T1000/gcc\libsyscall.a(app_call.o)
                0x010169a8                lib_app_call
 .text          0x01016f9c       0x10 ../LibA5T1000/gcc\libsyscall.a(app_sw.o)
                0x01016f9c                os_call_app
 .text          0x01016fac       0x20 ../LibA5T1000/gcc\libsyscall.a(sys_call.o)
                0x01016fac                sys_func3
                0x01016fb0                sys_func0
                0x01016fbc                sys_func1
                0x01016fc4                sys_func2
 .text          0x01016fcc       0x1c ../LibA5T1000/gcc\libbasecall.a(base_call.o)
                0x01016fcc                base_func3
                0x01016fd0                base_func0
                0x01016fda                base_func1
                0x01016fe2                base_func2
 .text          0x01016fe8       0x52 ../LibA5T1000/gcc\libsptutil.a(bcd2bin.o)
                0x01016fe8                bcd2bin
                0x01017004                lbcd2lbin
 .text          0x0101703a        0xe ../LibA5T1000/gcc\libsptutil.a(bcd2val.o)
                0x0101703a                bcd2val
 .text          0x01017048       0x40 ../LibA5T1000/gcc\libsptutil.a(bcdadd.o)
                0x01017048                bcdadd
 .text          0x01017088       0x32 ../LibA5T1000/gcc\libsptutil.a(bcdinc.o)
                0x01017088                bcdinc
 .text          0x010170ba       0x3e ../LibA5T1000/gcc\libsptutil.a(bcdsub.o)
                0x010170ba                bcdsub
 .text          0x010170f8       0x28 ../LibA5T1000/gcc\libsptutil.a(bin2dec.o)
                0x010170f8                bin2dec
 .text          0x01017120       0x3a ../LibA5T1000/gcc\libsptutil.a(chkdigit.o)
                0x01017120                chk_digit
 .text          0x0101715a       0x36 ../LibA5T1000/gcc\libsptutil.a(chkdok.o)
                0x0101715a                chk_digit_ok
 .text          0x01017190       0x32 ../LibA5T1000/gcc\libsptutil.a(compress.o)
                0x01017190                compress
 *fill*         0x010171c2        0x2 
 .text          0x010171c4       0x30 ../LibA5T1000/gcc\libsptutil.a(crcccitt.o)
                0x010171c4                cal_crcx
                0x010171ec                cal_crc
 .text          0x010171f4       0x42 ../LibA5T1000/gcc\libsptutil.a(dbin2asc.o)
                0x010171f4                dbin2asc
 .text          0x01017236       0x1c ../LibA5T1000/gcc\libsptutil.a(dec2bin.o)
                0x01017236                dec2bin
 .text          0x01017252       0x40 ../LibA5T1000/gcc\libsptutil.a(decbin8b.o)
                0x01017252                decbin8b
 .text          0x01017292       0x18 ../LibA5T1000/gcc\libsptutil.a(fndb.o)
                0x01017292                fndb
 *fill*         0x010172aa        0x2 
 .text          0x010172ac       0x64 ../LibA5T1000/gcc\libsptutil.a(get_byte.o)
                0x010172ac                get_byte
                0x010172bc                get_word
                0x010172cc                get_dword
                0x010172ec                get_dword_le
 .text          0x01017310       0x14 ../LibA5T1000/gcc\libsptutil.a(get_dist.o)
                0x01017310                get_distance
 .text          0x01017324       0x2c ../LibA5T1000/gcc\libsptutil.a(get_mem.o)
                0x01017324                get_mem
 .text          0x01017350        0xc ../LibA5T1000/gcc\libsptutil.a(get_pptr.o)
                0x01017350                get_pptr
 .text          0x0101735c       0x10 ../LibA5T1000/gcc\libsptutil.a(hex_val.o)
                0x0101735c                hex_value
 .text          0x0101736c       0x20 ../LibA5T1000/gcc\libsptutil.a(inc_pptr.o)
                0x0101736c                inc_pptr
 .text          0x0101738c       0x32 ../LibA5T1000/gcc\libsptutil.a(lbin2asc.o)
                0x0101738c                lbin2asc
 .text          0x010173be       0x14 ../LibA5T1000/gcc\libsptutil.a(lrc.o)
                0x010173be                lrc
 *fill*         0x010173d2        0x2 
 .text          0x010173d4       0xfc ../LibA5T1000/gcc\libsptutil.a(pack_b.o)
                0x010173d4                pack_byte
                0x010173f8                pack_word
                0x01017424                pack_dword
                0x01017464                pack_word_le
                0x01017490                pack_dword_le
 .text          0x010174d0       0x28 ../LibA5T1000/gcc\libsptutil.a(pack_mem.o)
                0x010174d0                pack_mem
 .text          0x010174f8        0x8 ../LibA5T1000/gcc\libsptutil.a(pack_nul.o)
                0x010174f8                pack_null
 .text          0x01017500        0xc ../LibA5T1000/gcc\libsptutil.a(peek_b.o)
                0x01017500                peek_byte
 .text          0x0101750c       0x38 ../LibA5T1000/gcc\libsptutil.a(set_pptr.o)
                0x0101750c                buffer_overflow
                0x01017528                set_pptr
 .text          0x01017544       0x18 ../LibA5T1000/gcc\libsptutil.a(skpb.o)
                0x01017544                skpb
 .text          0x0101755c       0x2c ../LibA5T1000/gcc\libsptutil.a(split.o)
                0x0101755c                split
 .text          0x01017588      0x1f4 ../LibA5T1000/gcc\libsptutil.a(unix_tm.o)
                0x010175a8                RTC2UNIX
                0x01017664                UNIX2RTC
 .text          0x0101777c       0x18 ../LibA5T1000/gcc\libsptutil.a(val2bcd.o)
                0x0101777c                val2bcd
 .text          0x01017794        0xe ../LibA5T1000/gcc\libsptutil.a(hexdigit.o)
                0x01017794                hex_digit
 *fill*         0x010177a2        0x2 
 .text          0x010177a4       0x28 ../LibA5T1000/gcc\libsptutil.a(pack_nb.o)
                0x010177a4                pack_nbyte
 .text          0x010177cc        0x0 C:\DevTools\gcc_v49_2014q4/arm-none-eabi/lib/thumb\libc.a(lib_a-atoi.o)
 .text.atoi     0x010177cc       0x10 C:\DevTools\gcc_v49_2014q4/arm-none-eabi/lib/thumb\libc.a(lib_a-atoi.o)
                0x010177cc                atoi
 .text._atoi_r  0x010177dc       0x10 C:\DevTools\gcc_v49_2014q4/arm-none-eabi/lib/thumb\libc.a(lib_a-atoi.o)
                0x010177dc                _atoi_r
 .text          0x010177ec        0x0 C:\DevTools\gcc_v49_2014q4/arm-none-eabi/lib/thumb\libc.a(lib_a-ctype_.o)
 .text          0x010177ec        0x0 C:\DevTools\gcc_v49_2014q4/arm-none-eabi/lib/thumb\libc.a(lib_a-memcmp.o)
 .text.memcmp   0x010177ec       0x54 C:\DevTools\gcc_v49_2014q4/arm-none-eabi/lib/thumb\libc.a(lib_a-memcmp.o)
                0x010177ec                memcmp
 .text          0x01017840        0x0 C:\DevTools\gcc_v49_2014q4/arm-none-eabi/lib/thumb\libc.a(lib_a-memcpy.o)
 .text.memcpy   0x01017840       0x80 C:\DevTools\gcc_v49_2014q4/arm-none-eabi/lib/thumb\libc.a(lib_a-memcpy.o)
                0x01017840                memcpy
 .text          0x010178c0        0x0 C:\DevTools\gcc_v49_2014q4/arm-none-eabi/lib/thumb\libc.a(lib_a-memmove.o)
 .text.memmove  0x010178c0       0x9c C:\DevTools\gcc_v49_2014q4/arm-none-eabi/lib/thumb\libc.a(lib_a-memmove.o)
                0x010178c0                memmove
 .text          0x0101795c        0x0 C:\DevTools\gcc_v49_2014q4/arm-none-eabi/lib/thumb\libc.a(lib_a-memset.o)
 .text.memset   0x0101795c       0x94 C:\DevTools\gcc_v49_2014q4/arm-none-eabi/lib/thumb\libc.a(lib_a-memset.o)
                0x0101795c                memset
 .text          0x010179f0        0x0 C:\DevTools\gcc_v49_2014q4/arm-none-eabi/lib/thumb\libc.a(lib_a-strcat.o)
 .text.strcat   0x010179f0       0x54 C:\DevTools\gcc_v49_2014q4/arm-none-eabi/lib/thumb\libc.a(lib_a-strcat.o)
                0x010179f0                strcat
 .text          0x01017a44        0x0 C:\DevTools\gcc_v49_2014q4/arm-none-eabi/lib/thumb\libc.a(lib_a-strchr.o)
 .text.strchr   0x01017a44       0xdc C:\DevTools\gcc_v49_2014q4/arm-none-eabi/lib/thumb\libc.a(lib_a-strchr.o)
                0x01017a44                strchr
 .text          0x01017b20      0x224 C:\DevTools\gcc_v49_2014q4/arm-none-eabi/lib/thumb\libc.a(lib_a-strcmp.o)
                0x01017b20                strcmp
 .text          0x01017d44        0x0 C:\DevTools\gcc_v49_2014q4/arm-none-eabi/lib/thumb\libc.a(lib_a-strcpy.o)
 .text.strcpy   0x01017d44       0x10 C:\DevTools\gcc_v49_2014q4/arm-none-eabi/lib/thumb\libc.a(lib_a-strcpy.o)
                0x01017d44                strcpy
 .text          0x01017d54        0x0 C:\DevTools\gcc_v49_2014q4/arm-none-eabi/lib/thumb\libc.a(lib_a-strlen.o)
 .text.strlen   0x01017d54       0x6c C:\DevTools\gcc_v49_2014q4/arm-none-eabi/lib/thumb\libc.a(lib_a-strlen.o)
                0x01017d54                strlen
 .text          0x01017dc0        0x0 C:\DevTools\gcc_v49_2014q4/arm-none-eabi/lib/thumb\libc.a(lib_a-strncmp.o)
 .text.strncmp  0x01017dc0       0x98 C:\DevTools\gcc_v49_2014q4/arm-none-eabi/lib/thumb\libc.a(lib_a-strncmp.o)
                0x01017dc0                strncmp
 .text          0x01017e58        0x0 C:\DevTools\gcc_v49_2014q4/arm-none-eabi/lib/thumb\libc.a(lib_a-strncpy.o)
 .text.strncpy  0x01017e58       0x7c C:\DevTools\gcc_v49_2014q4/arm-none-eabi/lib/thumb\libc.a(lib_a-strncpy.o)
                0x01017e58                strncpy
 .text          0x01017ed4        0x0 C:\DevTools\gcc_v49_2014q4/arm-none-eabi/lib/thumb\libc.a(lib_a-strtod.o)
 .text.unlikely.sulp
                0x01017ed4       0x30 C:\DevTools\gcc_v49_2014q4/arm-none-eabi/lib/thumb\libc.a(lib_a-strtod.o)
 .text._strtod_r
                0x01017f04      0xf10 C:\DevTools\gcc_v49_2014q4/arm-none-eabi/lib/thumb\libc.a(lib_a-strtod.o)
                0x01017f04                _strtod_r
 .text.strtod   0x01018e14       0x1c C:\DevTools\gcc_v49_2014q4/arm-none-eabi/lib/thumb\libc.a(lib_a-strtod.o)
                0x01018e14                strtod
 .text.strtof   0x01018e30       0x34 C:\DevTools\gcc_v49_2014q4/arm-none-eabi/lib/thumb\libc.a(lib_a-strtod.o)
                0x01018e30                strtof
 .text          0x01018e64        0x0 C:\DevTools\gcc_v49_2014q4/arm-none-eabi/lib/thumb\libc.a(lib_a-strtol.o)
 .text._strtol_r
                0x01018e64      0x178 C:\DevTools\gcc_v49_2014q4/arm-none-eabi/lib/thumb\libc.a(lib_a-strtol.o)
                0x01018e64                _strtol_r
 .text.strtol   0x01018fdc       0x20 C:\DevTools\gcc_v49_2014q4/arm-none-eabi/lib/thumb\libc.a(lib_a-strtol.o)
                0x01018fdc                strtol
 .text          0x01018ffc        0x0 C:\DevTools\gcc_v49_2014q4/arm-none-eabi/lib/thumb\libc.a(lib_a-gdtoa-gethex.o)
 .text.rshift   0x01018ffc       0xa8 C:\DevTools\gcc_v49_2014q4/arm-none-eabi/lib/thumb\libc.a(lib_a-gdtoa-gethex.o)
 .text.__gethex
                0x010190a4      0x52c C:\DevTools\gcc_v49_2014q4/arm-none-eabi/lib/thumb\libc.a(lib_a-gdtoa-gethex.o)
                0x010190a4                __gethex
 .text          0x010195d0        0x0 C:\DevTools\gcc_v49_2014q4/arm-none-eabi/lib/thumb\libc.a(lib_a-gdtoa-hexnan.o)
 .text.__hexnan
                0x010195d0      0x1b8 C:\DevTools\gcc_v49_2014q4/arm-none-eabi/lib/thumb\libc.a(lib_a-gdtoa-hexnan.o)
                0x010195d0                __hexnan
 .text          0x01019788        0x0 C:\DevTools\gcc_v49_2014q4/arm-none-eabi/lib/thumb\libc.a(lib_a-impure.o)
 .text          0x01019788        0x0 C:\DevTools\gcc_v49_2014q4/arm-none-eabi/lib/thumb\libc.a(lib_a-locale.o)
 .text._setlocale_r
                0x01019788       0x48 C:\DevTools\gcc_v49_2014q4/arm-none-eabi/lib/thumb\libc.a(lib_a-locale.o)
                0x01019788                _setlocale_r
 .text.__locale_charset
                0x010197d0        0x8 C:\DevTools\gcc_v49_2014q4/arm-none-eabi/lib/thumb\libc.a(lib_a-locale.o)
                0x010197d0                __locale_charset
 .text.__locale_mb_cur_max
                0x010197d8        0xc C:\DevTools\gcc_v49_2014q4/arm-none-eabi/lib/thumb\libc.a(lib_a-locale.o)
                0x010197d8                __locale_mb_cur_max
 .text.__locale_msgcharset
                0x010197e4        0x8 C:\DevTools\gcc_v49_2014q4/arm-none-eabi/lib/thumb\libc.a(lib_a-locale.o)
                0x010197e4                __locale_msgcharset
 .text.__locale_cjk_lang
                0x010197ec        0x4 C:\DevTools\gcc_v49_2014q4/arm-none-eabi/lib/thumb\libc.a(lib_a-locale.o)
                0x010197ec                __locale_cjk_lang
 .text._localeconv_r
                0x010197f0        0x8 C:\DevTools\gcc_v49_2014q4/arm-none-eabi/lib/thumb\libc.a(lib_a-locale.o)
                0x010197f0                _localeconv_r
 .text.setlocale
                0x010197f8       0x1c C:\DevTools\gcc_v49_2014q4/arm-none-eabi/lib/thumb\libc.a(lib_a-locale.o)
                0x010197f8                setlocale
 .text.localeconv
                0x01019814        0x8 C:\DevTools\gcc_v49_2014q4/arm-none-eabi/lib/thumb\libc.a(lib_a-locale.o)
                0x01019814                localeconv
 .text          0x0101981c        0x0 C:\DevTools\gcc_v49_2014q4/arm-none-eabi/lib/thumb\libc.a(lib_a-mprec.o)
 .text._Balloc  0x0101981c       0x54 C:\DevTools\gcc_v49_2014q4/arm-none-eabi/lib/thumb\libc.a(lib_a-mprec.o)
                0x0101981c                _Balloc
 .text._Bfree   0x01019870       0x14 C:\DevTools\gcc_v49_2014q4/arm-none-eabi/lib/thumb\libc.a(lib_a-mprec.o)
                0x01019870                _Bfree
 .text.__multadd
                0x01019884       0x98 C:\DevTools\gcc_v49_2014q4/arm-none-eabi/lib/thumb\libc.a(lib_a-mprec.o)
                0x01019884                __multadd
 .text.__s2b    0x0101991c       0x98 C:\DevTools\gcc_v49_2014q4/arm-none-eabi/lib/thumb\libc.a(lib_a-mprec.o)
                0x0101991c                __s2b
 .text.__hi0bits
                0x010199b4       0x3c C:\DevTools\gcc_v49_2014q4/arm-none-eabi/lib/thumb\libc.a(lib_a-mprec.o)
                0x010199b4                __hi0bits
 .text.__lo0bits
                0x010199f0       0x5c C:\DevTools\gcc_v49_2014q4/arm-none-eabi/lib/thumb\libc.a(lib_a-mprec.o)
                0x010199f0                __lo0bits
 .text.__i2b    0x01019a4c       0x18 C:\DevTools\gcc_v49_2014q4/arm-none-eabi/lib/thumb\libc.a(lib_a-mprec.o)
                0x01019a4c                __i2b
 .text.__multiply
                0x01019a64      0x170 C:\DevTools\gcc_v49_2014q4/arm-none-eabi/lib/thumb\libc.a(lib_a-mprec.o)
                0x01019a64                __multiply
 .text.__pow5mult
                0x01019bd4       0xc0 C:\DevTools\gcc_v49_2014q4/arm-none-eabi/lib/thumb\libc.a(lib_a-mprec.o)
                0x01019bd4                __pow5mult
 .text.__lshift
                0x01019c94       0xd0 C:\DevTools\gcc_v49_2014q4/arm-none-eabi/lib/thumb\libc.a(lib_a-mprec.o)
                0x01019c94                __lshift
 .text.__mcmp   0x01019d64       0x3c C:\DevTools\gcc_v49_2014q4/arm-none-eabi/lib/thumb\libc.a(lib_a-mprec.o)
                0x01019d64                __mcmp
 .text.__mdiff  0x01019da0       0xf0 C:\DevTools\gcc_v49_2014q4/arm-none-eabi/lib/thumb\libc.a(lib_a-mprec.o)
                0x01019da0                __mdiff
 .text.__ulp    0x01019e90       0x4c C:\DevTools\gcc_v49_2014q4/arm-none-eabi/lib/thumb\libc.a(lib_a-mprec.o)
                0x01019e90                __ulp
 .text.__b2d    0x01019edc       0xe0 C:\DevTools\gcc_v49_2014q4/arm-none-eabi/lib/thumb\libc.a(lib_a-mprec.o)
                0x01019edc                __b2d
 .text.__d2b    0x01019fbc       0xc0 C:\DevTools\gcc_v49_2014q4/arm-none-eabi/lib/thumb\libc.a(lib_a-mprec.o)
                0x01019fbc                __d2b
 .text.__ratio  0x0101a07c       0x74 C:\DevTools\gcc_v49_2014q4/arm-none-eabi/lib/thumb\libc.a(lib_a-mprec.o)
                0x0101a07c                __ratio
 .text._mprec_log10
                0x0101a0f0       0x38 C:\DevTools\gcc_v49_2014q4/arm-none-eabi/lib/thumb\libc.a(lib_a-mprec.o)
                0x0101a0f0                _mprec_log10
 .text.__copybits
                0x0101a128       0x44 C:\DevTools\gcc_v49_2014q4/arm-none-eabi/lib/thumb\libc.a(lib_a-mprec.o)
                0x0101a128                __copybits
 .text.__any_on
                0x0101a16c       0x64 C:\DevTools\gcc_v49_2014q4/arm-none-eabi/lib/thumb\libc.a(lib_a-mprec.o)
                0x0101a16c                __any_on
 .text          0x0101a1d0        0x0 C:\DevTools\gcc_v49_2014q4/arm-none-eabi/lib/thumb\libc.a(lib_a-s_fpclassify.o)
 .text.__fpclassifyd
                0x0101a1d0       0x5c C:\DevTools\gcc_v49_2014q4/arm-none-eabi/lib/thumb\libc.a(lib_a-s_fpclassify.o)
                0x0101a1d0                __fpclassifyd
 .text          0x0101a22c        0x0 C:\DevTools\gcc_v49_2014q4/arm-none-eabi/lib/thumb\libc.a(lib_a-sf_nan.o)
 .text.nanf     0x0101a22c        0x8 C:\DevTools\gcc_v49_2014q4/arm-none-eabi/lib/thumb\libc.a(lib_a-sf_nan.o)
                0x0101a22c                nanf
 .text          0x0101a234        0x0 C:\DevTools\gcc_v49_2014q4/arm-none-eabi/lib/thumb\libc.a(lib_a-callocr.o)
 .text._calloc_r
                0x0101a234       0x64 C:\DevTools\gcc_v49_2014q4/arm-none-eabi/lib/thumb\libc.a(lib_a-callocr.o)
                0x0101a234                _calloc_r
 .text          0x0101a298        0x0 C:\DevTools\gcc_v49_2014q4/arm-none-eabi/lib/thumb\libc.a(lib_a-mallocr.o)
 .text._malloc_r
                0x0101a298      0x54c C:\DevTools\gcc_v49_2014q4/arm-none-eabi/lib/thumb\libc.a(lib_a-mallocr.o)
                0x0101a298                _malloc_r
 .text          0x0101a7e4        0x0 C:\DevTools\gcc_v49_2014q4/arm-none-eabi/lib/thumb\libc.a(lib_a-mlock.o)
 .text.__malloc_lock
                0x0101a7e4        0x4 C:\DevTools\gcc_v49_2014q4/arm-none-eabi/lib/thumb\libc.a(lib_a-mlock.o)
                0x0101a7e4                __malloc_lock
 .text.__malloc_unlock
                0x0101a7e8        0x4 C:\DevTools\gcc_v49_2014q4/arm-none-eabi/lib/thumb\libc.a(lib_a-mlock.o)
                0x0101a7e8                __malloc_unlock
 .text          0x0101a7ec        0x0 C:\DevTools\gcc_v49_2014q4/arm-none-eabi/lib/thumb\libc.a(lib_a-freer.o)
 .text._malloc_trim_r
                0x0101a7ec       0xa4 C:\DevTools\gcc_v49_2014q4/arm-none-eabi/lib/thumb\libc.a(lib_a-freer.o)
                0x0101a7ec                _malloc_trim_r
 .text._free_r  0x0101a890      0x1b4 C:\DevTools\gcc_v49_2014q4/arm-none-eabi/lib/thumb\libc.a(lib_a-freer.o)
                0x0101a890                _free_r
 .text          0x0101aa44      0x114 c:/devtools/gcc_v49_2014q4/bin/../lib/gcc/arm-none-eabi/4.9.3\libgcc.a(_udivsi3.o)
                0x0101aa44                __aeabi_uidiv
                0x0101aa44                __udivsi3
                0x0101ab38                __aeabi_uidivmod
 .text          0x0101ab58      0x148 c:/devtools/gcc_v49_2014q4/bin/../lib/gcc/arm-none-eabi/4.9.3\libgcc.a(_divsi3.o)
                0x0101ab58                __divsi3
                0x0101ab58                __aeabi_idiv
                0x0101ac80                __aeabi_idivmod
 .text          0x0101aca0        0x4 c:/devtools/gcc_v49_2014q4/bin/../lib/gcc/arm-none-eabi/4.9.3\libgcc.a(_dvmd_tls.o)
                0x0101aca0                __aeabi_idiv0
                0x0101aca0                __aeabi_ldiv0
 .text          0x0101aca4      0x41c c:/devtools/gcc_v49_2014q4/bin/../lib/gcc/arm-none-eabi/4.9.3\libgcc.a(_arm_addsubdf3.o)
                0x0101aca4                __aeabi_drsub
                0x0101acac                __aeabi_dsub
                0x0101acac                __subdf3
                0x0101acb0                __aeabi_dadd
                0x0101acb0                __adddf3
                0x0101afc0                __floatunsidf
                0x0101afc0                __aeabi_ui2d
                0x0101afe4                __floatsidf
                0x0101afe4                __aeabi_i2d
                0x0101b00c                __aeabi_f2d
                0x0101b00c                __extendsfdf2
                0x0101b04c                __floatundidf
                0x0101b04c                __aeabi_ul2d
                0x0101b060                __floatdidf
                0x0101b060                __aeabi_l2d
 .text          0x0101b0c0      0x49c c:/devtools/gcc_v49_2014q4/bin/../lib/gcc/arm-none-eabi/4.9.3\libgcc.a(_arm_muldivdf3.o)
                0x0101b0c0                __aeabi_dmul
                0x0101b0c0                __muldf3
                0x0101b350                __divdf3
                0x0101b350                __aeabi_ddiv
 .text          0x0101b55c      0x144 c:/devtools/gcc_v49_2014q4/bin/../lib/gcc/arm-none-eabi/4.9.3\libgcc.a(_arm_cmpdf2.o)
                0x0101b55c                __gtdf2
                0x0101b55c                __gedf2
                0x0101b564                __ltdf2
                0x0101b564                __ledf2
                0x0101b56c                __nedf2
                0x0101b56c                __eqdf2
                0x0101b56c                __cmpdf2
                0x0101b5f4                __aeabi_cdrcmple
                0x0101b610                __aeabi_cdcmpeq
                0x0101b610                __aeabi_cdcmple
                0x0101b628                __aeabi_dcmpeq
                0x0101b640                __aeabi_dcmplt
                0x0101b658                __aeabi_dcmple
                0x0101b670                __aeabi_dcmpge
                0x0101b688                __aeabi_dcmpgt
 .text          0x0101b6a0       0x5c c:/devtools/gcc_v49_2014q4/bin/../lib/gcc/arm-none-eabi/4.9.3\libgcc.a(_arm_fixdfsi.o)
                0x0101b6a0                __aeabi_d2iz
                0x0101b6a0                __fixdfsi
 .text          0x0101b6fc       0x54 c:/devtools/gcc_v49_2014q4/bin/../lib/gcc/arm-none-eabi/4.9.3\libgcc.a(_arm_fixunsdfsi.o)
                0x0101b6fc                __aeabi_d2uiz
                0x0101b6fc                __fixunsdfsi
 .text          0x0101b750       0xa0 c:/devtools/gcc_v49_2014q4/bin/../lib/gcc/arm-none-eabi/4.9.3\libgcc.a(_arm_truncdfsf2.o)
                0x0101b750                __truncdfsf2
                0x0101b750                __aeabi_d2f
 .text          0x0101b7f0       0x44 c:/devtools/gcc_v49_2014q4/bin/../lib/gcc/arm-none-eabi/4.9.3\libgcc.a(_aeabi_ldivmod.o)
                0x0101b7f0                __aeabi_ldivmod
 .text          0x0101b834       0x3c c:/devtools/gcc_v49_2014q4/bin/../lib/gcc/arm-none-eabi/4.9.3\libgcc.a(_aeabi_uldivmod.o)
                0x0101b834                __aeabi_uldivmod
 .text          0x0101b870       0x4c c:/devtools/gcc_v49_2014q4/bin/../lib/gcc/arm-none-eabi/4.9.3\libgcc.a(_fixdfdi.o)
                0x0101b870                __fixdfdi
                0x0101b870                __aeabi_d2lz
 .text          0x0101b8bc       0x6c c:/devtools/gcc_v49_2014q4/bin/../lib/gcc/arm-none-eabi/4.9.3\libgcc.a(_fixunsdfdi.o)
                0x0101b8bc                __fixunsdfdi
                0x0101b8bc                __aeabi_d2ulz
 .text          0x0101b928       0x84 c:/devtools/gcc_v49_2014q4/bin/../lib/gcc/arm-none-eabi/4.9.3\libgcc.a(bpabi.o)
                0x0101b928                __gnu_ldivmod_helper
                0x0101b96c                __gnu_uldivmod_helper
 .text          0x0101b9ac      0x178 c:/devtools/gcc_v49_2014q4/bin/../lib/gcc/arm-none-eabi/4.9.3\libgcc.a(_divdi3.o)
                0x0101b9ac                __divdi3
 .text          0x0101bb24      0x120 c:/devtools/gcc_v49_2014q4/bin/../lib/gcc/arm-none-eabi/4.9.3\libgcc.a(_udivdi3.o)
                0x0101bb24                __udivdi3
 .text          0x0101bc44       0x28 c:/devtools/gcc_v49_2014q4/bin/../lib/gcc/arm-none-eabi/4.9.3\libgcc.a(_clzdi2.o)
                0x0101bc44                __clzdi2
 .text          0x0101bc6c       0x48 c:/devtools/gcc_v49_2014q4/bin/../lib/gcc/arm-none-eabi/4.9.3\libgcc.a(_clzsi2.o)
                0x0101bc6c                __clzsi2
 *fill*         0x0101bcb4        0x4 
 .text.__stub   0x0101bcb8        0x4 linker stubs
 *(.init)
 *(.fini)
 *crtbegin.o(.ctors)
 *crtbegin?.o(.ctors)
 *(EXCLUDE_FILE(*crtend.o *crtend?.o) .ctors)
 *(SORT(.ctors.*))
 *(.ctors)
 *crtbegin.o(.dtors)
 *crtbegin?.o(.dtors)
 *(EXCLUDE_FILE(*crtend.o *crtend?.o) .dtors)
 *(SORT(.dtors.*))
 *(.dtors)
 *(.rodata* .gnu.linkonce.r.*)
 .rodata        0x0101bcbc       0x23 obj/GetCert.o
                0x0101bcbc                CAKeyEcr
                0x0101bcc3                CAKeyHost
                0x0101bcca                CAKeyTMS
                0x0101bcd1                ClientCert
                0x0101bcd8                ClientPriKey
 .rodata.str1.1
                0x0101bcdf       0x1f obj/GetCert.o
 .rodata.str1.1
                0x0101bcfe       0xa4 obj/apmconfig.o
 *fill*         0x0101bda2        0x2 
 .rodata        0x0101bda4      0x3d4 obj/apmfunc.o
 .rodata.str1.1
                0x0101c178      0x13d obj/apmfunc.o
                                0x140 (size before relaxing)
 .rodata.str1.1
                0x0101c2b5        0xe obj/apmtest.o
                                 0x11 (size before relaxing)
 .rodata.str1.1
                0x0101c2c3        0x6 obj/batchsys.o
 *fill*         0x0101c2c9        0x3 
 .rodata        0x0101c2cc      0x20c obj/cakey.o
 .rodata.str1.1
                0x0101c4d8       0x68 obj/cakey.o
                                 0x7c (size before relaxing)
 .rodata        0x0101c540      0x118 obj/comm.o
                0x0101c5dc                KDefaultSReg
 .rodata.str1.1
                0x0101c658      0x158 obj/comm.o
 .rodata        0x0101c7b0      0x114 obj/constant.o
                0x0101c7b0                KTransBitmap
                0x0101c7bc                KRspText
 .rodata        0x0101c8c4      0x304 obj/coremain.o
                0x0101c8c4                KApmDataFile
                0x0101c8cc                KBWSpectraLogo
                0x0101cae4                KExportFunc
                0x0101cbc4                KSoftName
 .rodata.str1.1
                0x0101cbc8       0xaf obj/coremain.o
 .rodata        0x0101cc77        0x8 obj/ctlcfg.o
 .rodata.str1.1
                0x0101cc7f      0x122 obj/ctlcfg.o
                                0x13b (size before relaxing)
 .rodata        0x0101cda1       0x8a obj/emvtrans.o
                0x0101cda9                KPinMsg
                0x0101cde9                KCardholderIDName
 .rodata.str1.1
                0x0101ce2b       0x6f obj/emvtrans.o
                                0x16d (size before relaxing)
 *fill*         0x0101ce9a        0x2 
 .rodata        0x0101ce9c       0xb0 obj/ftptran.o
                0x0101ceb4                KPPPDefaultSReg
                0x0101cf0c                KAuthKey
 .rodata.str1.1
                0x0101cf4c      0x345 obj/ftptran.o
                                0x352 (size before relaxing)
 *fill*         0x0101d291        0x1 
 .rodata        0x0101d292        0xc obj/hardware.o
 .rodata.str1.1
                0x0101d29e       0x32 obj/hardware.o
                                 0x3c (size before relaxing)
 .rodata        0x0101d2d0       0xa8 obj/hashops.o
 .rodata.str1.1
                0x0101d378        0xa obj/infodata.o
 *fill*         0x0101d382        0x2 
 .rodata        0x0101d384       0xdc obj/inittran.o
                0x0101d384                KInitMenu
                0x0101d3a0                KInitItem
 .rodata.str1.1
                0x0101d460       0x4d obj/inittran.o
 .rodata        0x0101d4ad       0x96 obj/kbdutil.o
 .rodata.str1.1
                0x00000000        0x3 obj/kbdutil.o
 *fill*         0x0101d543        0x1 
 .rodata        0x0101d544       0xf8 obj/keydlltest.o
 .rodata.str1.1
                0x0101d63c      0x146 obj/keydlltest.o
                                0x14b (size before relaxing)
 .rodata        0x0101d782        0x7 obj/lptutil.o
 .rodata.str1.1
                0x0101d789       0x19 obj/lptutil.o
                                 0x1b (size before relaxing)
 *fill*         0x0101d7a2        0x2 
 .rodata        0x0101d7a4       0x18 obj/main.o
                0x0101d7a4                KAppHdr
 .rodata.str1.1
                0x0101d7bc       0x24 obj/main.o
 .rodata.str1.1
                0x0101d7e0       0x3d obj/menu.o
 .rodata        0x0101d81d      0xab8 obj/message.o
                0x0101d81d                KRemoteDLHeader
                0x0101d82e                KRemoteDLSch
                0x0101d83f                KItemNotEnabled
                0x0101d860                KTIDFileFailed
                0x0101d881                KDLLFileFailed
                0x0101d8a2                KServerKeyError
                0x0101d8c3                KDownloadFailed
                0x0101d8e4                KLogInFailed
                0x0101d905                KReturn2Base
                0x0101d925                KLoadExtraParam
                0x0101d936                KLoadEMVParam
                0x0101d945                KLoadEMVKey
                0x0101d952                KEDCInit
                0x0101d963                KDnloadSchedule
                0x0101d974                KDnloadBIN
                0x0101d985                KTryAgainTO
                0x0101d9a6                KTryAgainNC
                0x0101d9c7                KNoLine
                0x0101d9e8                KLineOccup
                0x0101da09                KTryAgainLC
                0x0101da2a                KLineBusy
                0x0101da4b                KHostOffline
                0x0101da6c                KNoDialTone
                0x0101da8d                KInvalidResp
                0x0101daae                KUpdateRequest
                0x0101dacf                KUnSupportCard
                0x0101daf0                KSysError
                0x0101db11                KCardBlocked
                0x0101db32                KCardReadErr
                0x0101db53                KInvalidPWD
                0x0101db74                KNoTransRec
                0x0101db95                KNotAllowed
                0x0101dbb6                KWrongMAC
                0x0101dbd7                KSwipeCard
                0x0101dbf8                KHostNotFound
                0x0101dc19                KInvalidTerm
                0x0101dc3a                KInvalidTrace
                0x0101dc5b                KInvalidSeq
                0x0101dc7c                KECRCommErr
                0x0101dc9d                KDataError
                0x0101dcbe                KBadProcCode
                0x0101dcdf                KTxnCanceled
                0x0101dd00                KLowBattery
                0x0101dd21                KTxnAccepted
                0x0101dd42                KTxnNotFound
                0x0101dd63                KBadAmount
                0x0101dd84                KComplted
                0x0101dda5                KEcrSslMode
                0x0101ddb3                KNonBtModel
                0x0101ddc1                KExtraMsgLen
                0x0101ddcd                KHostSslKeyIdx
                0x0101ddd9                KHostPort
                0x0101dddf                KHostIP
                0x0101dde5                KHostParamHdr
                0x0101ddf0                KNonWifiModel
                0x0101de00                KInitPPPPort
                0x0101de0f                KInitPPPIP
                0x0101de1c                KInitPPPIPHdr
                0x0101de2d                KPPPPwd
                0x0101de3a                KPPPUser
                0x0101de48                KFTPServerKey
                0x0101de57                KFTPPwd
                0x0101de64                KFTPUser
                0x0101de72                KCheckInSecNum
                0x0101de83                KCheckInPriNum
                0x0101de94                KDefaultApp
                0x0101dea2                KEcrPort
                0x0101dead                KPPadPort
                0x0101debd                KPrintStis
                0x0101dec8                KDebugMode
                0x0101ded3                KTrainingMode
                0x0101dee1                KCurrBatchNo
                0x0101def2                KDefaultAmt
                0x0101df03                KReturnBaseTO
                0x0101df24                KInitNII
                0x0101df2e                KInitConnTime
                0x0101df3f                KPABX
                0x0101df50                KCancelExit
                0x0101df5f                KInitEnterSave
                0x0101df6e                KInitSpeed
                0x0101df75                KInitPort
                0x0101df80                KInitIP
                0x0101df89                KInitIPHdr
                0x0101df97                KTimeDelay
                0x0101dfa8                KDialModeStr
                0x0101dfb4                KInitSecNum
                0x0101dfc5                KInitPriNum
                0x0101dfd6                KInitModeStr
                0x0101dfe0                KChkSumErr
                0x0101dff0                KTermId
                0x0101dffd                KSelAcquirer
                0x0101e00d                KNoPaper
                0x0101e02d                KHighTemp
                0x0101e04e                KManualCut
                0x0101e06f                KPrintingMsg
                0x0101e090                KPlsSwipe
                0x0101e09f                KTestMSR
                0x0101e0b0                KInsertICC
                0x0101e0bf                KTestICC
                0x0101e0cc                KSamTest
                0x0101e0d5                KCommWait
                0x0101e0e6                KCommRcvd
                0x0101e0f7                KCommSend
                0x0101e108                KConnected
                0x0101e119                KCommConnectWait
                0x0101e13a                KCommNoCancel
                0x0101e15b                KDialNum
                0x0101e167                KPassword
                0x0101e175                KUserName
                0x0101e17f                KApn
                0x0101e183                KProcessing
                0x0101e1a4                KSettleBatch
                0x0101e1c5                KADataReset
                0x0101e1e6                KResetEMVData
                0x0101e1f5                KDataReseted
                0x0101e202                KConfirm
                0x0101e213                KResetAppData
                0x0101e224                KGPRSHdr
                0x0101e22f                KUpdated
                0x0101e237                KDateTime
                0x0101e241                KReboot
                0x0101e262                KEnterSave
                0x0101e271                KKbdBacklight
                0x0101e27f                KDHCPHdr
                0x0101e28a                KIpHdr
                0x0101e293                KSystemInit
                0x0101e2b4                KVirginInit
 .rodata.str1.1
                0x0101e2d5       0x3c obj/mxml-attr.o
 *fill*         0x0101e311        0x3 
 .rodata        0x0101e314      0x87c obj/mxml-entity.o
 .rodata.str1.1
                0x0101eb90      0x57f obj/mxml-entity.o
                                0x5c4 (size before relaxing)
 *fill*         0x0101f10f        0x1 
 .rodata        0x0101f110       0x18 obj/mxml-file.o
 .rodata.str1.1
                0x0101f128      0x56c obj/mxml-file.o
                                0x575 (size before relaxing)
 .rodata.str1.1
                0x00000000        0x9 obj/mxml-get.o
 .rodata.str1.1
                0x0101f694       0x35 obj/mxml-node.o
 .rodata.str1.1
                0x0101f6c9        0xc obj/mxml-private.o
 .rodata.str1.1
                0x0101f6d5        0x3 obj/mxml-search.o
 .rodata.str1.1
                0x0101f6d8        0x6 obj/mxml-string.o
                                 0x10 (size before relaxing)
 *fill*         0x0101f6de        0x2 
 .rodata        0x0101f6e0      0x338 obj/param.o
                0x0101f6e0                TermCfgParam
                0x0101f7d8                AcqTableParam
                0x0101f8b0                IssuerTableParam
                0x0101f8f8                CardTableParam
                0x0101f930                EmvAppParam
                0x0101f980                CtlAppParam
                0x0101f9d0                EmvKeyParam
 .rodata.str1.1
                0x0101fa18      0x51e obj/param.o
                                0x53a (size before relaxing)
 .rodata.str1.1
                0x0101ff36       0x81 obj/remotedl.o
 *fill*         0x0101ffb7        0x1 
 .rodata        0x0101ffb8      0x188 obj/stis.o
 .rodata.str1.1
                0x01020140      0x159 obj/stis.o
                                0x174 (size before relaxing)
 .rodata        0x01020299       0x27 obj/sysutil.o
 .rodata.str1.1
                0x010202c0       0x8b obj/sysutil.o
                                 0x9b (size before relaxing)
 *fill*         0x0102034b        0x5 
 .rodata        0x01020350      0x188 obj/termdata.o
 .rodata.str1.1
                0x010204d8       0x32 obj/termdata.o
                                 0x5e (size before relaxing)
 .rodata.str1.1
                0x0102050a       0x6f obj/toggle.o
                                 0x79 (size before relaxing)
 *fill*         0x01020579        0x3 
 .rodata        0x0102057c     0x2130 obj/wifi.o
                0x010205a4                signal_1
                0x01020a5c                signal_2
                0x01020f14                signal_3
                0x010213cc                signal_4
                0x01021884                signal_5
                0x01021d3c                signal_0
                0x010221f4                lock
 .rodata.str1.1
                0x010226ac      0x14a obj/wifi.o
                                0x172 (size before relaxing)
 .rodata.str1.1
                0x010227f6       0x20 obj/cstartup.o
 .rodata.str1.1
                0x00000000        0x7 obj/libc.o
 .rodata        0x01022816      0x200 ../LibA5T1000/gcc\libsptutil.a(crcccitt.o)
 .rodata        0x01022a16       0x18 ../LibA5T1000/gcc\libsptutil.a(unix_tm.o)
 .rodata.str1.1
                0x01022a2e        0xb ../LibA5T1000/gcc\libsptutil.a(unix_tm.o)
 *fill*         0x01022a39        0x3 
 .rodata._ctype_
                0x01022a3c      0x104 C:\DevTools\gcc_v49_2014q4/arm-none-eabi/lib/thumb\libc.a(lib_a-ctype_.o)
                0x01022a3c                _ctype_
 .rodata._strtod_r
                0x01022b40       0xd4 C:\DevTools\gcc_v49_2014q4/arm-none-eabi/lib/thumb\libc.a(lib_a-strtod.o)
 .rodata.fpi.5234
                0x01022c14       0x14 C:\DevTools\gcc_v49_2014q4/arm-none-eabi/lib/thumb\libc.a(lib_a-strtod.o)
 .rodata.fpinan.5270
                0x01022c28       0x14 C:\DevTools\gcc_v49_2014q4/arm-none-eabi/lib/thumb\libc.a(lib_a-strtod.o)
 .rodata.str1.4
                0x01022c3c        0xf C:\DevTools\gcc_v49_2014q4/arm-none-eabi/lib/thumb\libc.a(lib_a-strtod.o)
                                 0x10 (size before relaxing)
 *fill*         0x01022c4b        0x5 
 .rodata.tinytens
                0x01022c50       0x28 C:\DevTools\gcc_v49_2014q4/arm-none-eabi/lib/thumb\libc.a(lib_a-strtod.o)
 .rodata.__hexdig
                0x01022c78      0x100 C:\DevTools\gcc_v49_2014q4/arm-none-eabi/lib/thumb\libc.a(lib_a-gdtoa-gethex.o)
                0x01022c78                __hexdig
 .rodata.str1.4
                0x01022d78        0x2 C:\DevTools\gcc_v49_2014q4/arm-none-eabi/lib/thumb\libc.a(lib_a-impure.o)
                                  0x4 (size before relaxing)
 *fill*         0x01022d7a        0x2 
 .rodata._global_impure_ptr
                0x01022d7c        0x4 C:\DevTools\gcc_v49_2014q4/arm-none-eabi/lib/thumb\libc.a(lib_a-impure.o)
                0x01022d7c                _global_impure_ptr
 .rodata.str1.4
                0x01022d80       0x10 C:\DevTools\gcc_v49_2014q4/arm-none-eabi/lib/thumb\libc.a(lib_a-locale.o)
                                 0x14 (size before relaxing)
 .rodata.__mprec_tens
                0x01022d90       0xc8 C:\DevTools\gcc_v49_2014q4/arm-none-eabi/lib/thumb\libc.a(lib_a-mprec.o)
                0x01022d90                __mprec_tens
 .rodata.__mprec_bigtens
                0x01022e58       0x28 C:\DevTools\gcc_v49_2014q4/arm-none-eabi/lib/thumb\libc.a(lib_a-mprec.o)
                0x01022e58                __mprec_bigtens
 .rodata.p05.5265
                0x01022e80        0xc C:\DevTools\gcc_v49_2014q4/arm-none-eabi/lib/thumb\libc.a(lib_a-mprec.o)
 *fill*         0x01022e8c        0x4 
 .rodata.__mprec_tinytens
                0x01022e90       0x28 C:\DevTools\gcc_v49_2014q4/arm-none-eabi/lib/thumb\libc.a(lib_a-mprec.o)
                0x01022e90                __mprec_tinytens
 *(.eh_frame*)
 .eh_frame      0x01022eb8       0x44 C:\DevTools\gcc_v49_2014q4/arm-none-eabi/lib/thumb\libc.a(lib_a-strcmp.o)

.vfp11_veneer   0x01022efc        0x0
 .vfp11_veneer  0x00000000        0x0 linker stubs

.v4_bx          0x01022efc        0x0
 .v4_bx         0x00000000        0x0 linker stubs

.iplt           0x01022efc        0x0
 .iplt          0x00000000        0x0 obj/GetCert.o

.ARM.extab
 *(.ARM.extab* .gnu.linkonce.armextab.*)
                0x01022efc                __exidx_start = .

.ARM.exidx      0x01022efc        0x8
 *(.ARM.exidx* .gnu.linkonce.armexidx.*)
 .ARM.exidx     0x01022efc        0x8 c:/devtools/gcc_v49_2014q4/bin/../lib/gcc/arm-none-eabi/4.9.3\libgcc.a(_divdi3.o)
 .ARM.exidx     0x01022f04        0x0 c:/devtools/gcc_v49_2014q4/bin/../lib/gcc/arm-none-eabi/4.9.3\libgcc.a(_udivdi3.o)
                                  0x8 (size before relaxing)
                0x01022f04                __exidx_end = .

.text_kek       0x01022f04        0x8
 *(sect_kek)
 sect_kek       0x01022f04        0x8 obj/cstartup.o
                0x01022f04                KKek
                0x01022f0c                _end_of_app = ALIGN (0x4)

.rel.dyn        0x01022f0c        0x0
 .rel.iplt      0x00000000        0x0 obj/GetCert.o
                0x01800000                . = _start_of_data

.data           0x01800000     0x6660 load address 0x01022f0c
 *(.data*)
 .data          0x01800000        0x0 obj/GetCert.o
 .data          0x01800000        0x0 obj/PhList.o
 .data          0x01800000        0x0 obj/Phone.o
 .data          0x01800000        0x0 obj/apmconfig.o
 .data          0x01800000        0x0 obj/apmfunc.o
 .data          0x01800000        0x8 obj/apmtest.o
 .data          0x01800008        0x0 obj/auxcom.o
 .data          0x01800008        0x4 obj/batchsys.o
 .data          0x0180000c        0x0 obj/cakey.o
 .data          0x0180000c      0x204 obj/comm.o
                0x0180020c                gTcpHandle
 .data          0x01800210        0xc obj/constant.o
                0x01800210                KTransHeader
 .data          0x0180021c     0x57d0 obj/coremain.o
                0x0180021c                KSpectraSym
 .data          0x018059ec        0x4 obj/ctlcfg.o
 .data          0x018059f0        0x4 obj/emvtrans.o
 .data          0x018059f4       0x2c obj/ftptran.o
 .data          0x01805a20        0x0 obj/hardware.o
 .data          0x01805a20        0x0 obj/hashops.o
 .data          0x01805a20        0x0 obj/infodata.o
 .data          0x01805a20        0x0 obj/inittran.o
 .data          0x01805a20       0xa0 obj/kbdutil.o
 .data          0x01805ac0        0x0 obj/keydlltest.o
 .data          0x01805ac0        0x4 obj/lptutil.o
 .data          0x01805ac4        0x0 obj/main.o
 .data          0x01805ac4        0x0 obj/mcp.o
 .data          0x01805ac4        0x0 obj/menu.o
 .data          0x01805ac4        0x0 obj/message.o
 .data          0x01805ac4        0x0 obj/mxml-attr.o
 .data          0x01805ac4        0x0 obj/mxml-entity.o
 .data          0x01805ac4        0x0 obj/mxml-file.o
 .data          0x01805ac4        0x0 obj/mxml-get.o
 .data          0x01805ac4        0x0 obj/mxml-node.o
 .data          0x01805ac4      0x1a4 obj/mxml-private.o
 .data          0x01805c68        0x0 obj/mxml-search.o
 .data          0x01805c68        0x0 obj/mxml-string.o
 .data          0x01805c68        0x0 obj/param.o
 .data          0x01805c68        0x0 obj/pkcs.o
 .data          0x01805c68        0x8 obj/remotedl.o
 .data          0x01805c70        0x0 obj/rmenu.o
 .data          0x01805c70       0x54 obj/stis.o
                0x01805c70                gTermCfgFd
                0x01805c74                gCrdTblFd
                0x01805c78                gIssTblFd
                0x01805c7c                gAcqTblFd
                0x01805c80                gDscTblFd
                0x01805c84                gLogoTblFd
                0x01805c88                gExParamFd
 .data          0x01805cc4        0x4 obj/sysutil.o
 .data          0x01805cc8       0x10 obj/termdata.o
 .data          0x01805cd8       0xa4 obj/toggle.o
                0x01805cd8                KYesNo
                0x01805ce4                KFTPInitMode
                0x01805cf8                KSimSel
                0x01805d04                KAuxUsbWifiPort
                0x01805d20                KAuxUsbPort
                0x01805d38                KAuxPort
                0x01805d48                KEnable
                0x01805d54                KDialMode
                0x01805d60                KInitMode
 .data          0x01805d7c        0x0 obj/tranutil.o
 .data          0x01805d7c       0x24 obj/wifi.o
 .data          0x01805da0        0x0 obj/x509.o
 .data          0x01805da0        0x0 obj/cstartup.o
 .data          0x01805da0        0x0 obj/expect_send.o
 .data          0x01805da0        0x0 obj/libc.o
 .data          0x01805da0        0x0 ../LibA5T1000/gcc\libsyscall.a(app_call.o)
 .data          0x01805da0        0x0 ../LibA5T1000/gcc\libsyscall.a(app_sw.o)
 .data          0x01805da0        0x0 ../LibA5T1000/gcc\libsyscall.a(sys_call.o)
 .data          0x01805da0        0x0 ../LibA5T1000/gcc\libbasecall.a(base_call.o)
 .data          0x01805da0        0x0 ../LibA5T1000/gcc\libsptutil.a(bcd2bin.o)
 .data          0x01805da0        0x0 ../LibA5T1000/gcc\libsptutil.a(bcd2val.o)
 .data          0x01805da0        0x0 ../LibA5T1000/gcc\libsptutil.a(bcdadd.o)
 .data          0x01805da0        0x0 ../LibA5T1000/gcc\libsptutil.a(bcdinc.o)
 .data          0x01805da0        0x0 ../LibA5T1000/gcc\libsptutil.a(bcdsub.o)
 .data          0x01805da0        0x0 ../LibA5T1000/gcc\libsptutil.a(bin2dec.o)
 .data          0x01805da0        0x0 ../LibA5T1000/gcc\libsptutil.a(chkdigit.o)
 .data          0x01805da0        0x0 ../LibA5T1000/gcc\libsptutil.a(chkdok.o)
 .data          0x01805da0        0x0 ../LibA5T1000/gcc\libsptutil.a(compress.o)
 .data          0x01805da0        0x0 ../LibA5T1000/gcc\libsptutil.a(crcccitt.o)
 .data          0x01805da0        0x0 ../LibA5T1000/gcc\libsptutil.a(dbin2asc.o)
 .data          0x01805da0        0x0 ../LibA5T1000/gcc\libsptutil.a(dec2bin.o)
 .data          0x01805da0        0x0 ../LibA5T1000/gcc\libsptutil.a(decbin8b.o)
 .data          0x01805da0        0x0 ../LibA5T1000/gcc\libsptutil.a(fndb.o)
 .data          0x01805da0        0x0 ../LibA5T1000/gcc\libsptutil.a(get_byte.o)
 .data          0x01805da0        0x0 ../LibA5T1000/gcc\libsptutil.a(get_dist.o)
 .data          0x01805da0        0x0 ../LibA5T1000/gcc\libsptutil.a(get_mem.o)
 .data          0x01805da0        0x0 ../LibA5T1000/gcc\libsptutil.a(get_pptr.o)
 .data          0x01805da0        0x0 ../LibA5T1000/gcc\libsptutil.a(hex_val.o)
 .data          0x01805da0        0x0 ../LibA5T1000/gcc\libsptutil.a(inc_pptr.o)
 .data          0x01805da0        0x0 ../LibA5T1000/gcc\libsptutil.a(lbin2asc.o)
 .data          0x01805da0        0x0 ../LibA5T1000/gcc\libsptutil.a(lrc.o)
 .data          0x01805da0        0x0 ../LibA5T1000/gcc\libsptutil.a(pack_b.o)
 .data          0x01805da0        0x0 ../LibA5T1000/gcc\libsptutil.a(pack_mem.o)
 .data          0x01805da0        0x0 ../LibA5T1000/gcc\libsptutil.a(pack_nul.o)
 .data          0x01805da0        0x0 ../LibA5T1000/gcc\libsptutil.a(peek_b.o)
 .data          0x01805da0        0x0 ../LibA5T1000/gcc\libsptutil.a(set_pptr.o)
 .data          0x01805da0        0x0 ../LibA5T1000/gcc\libsptutil.a(skpb.o)
 .data          0x01805da0        0x0 ../LibA5T1000/gcc\libsptutil.a(split.o)
 .data          0x01805da0        0x0 ../LibA5T1000/gcc\libsptutil.a(unix_tm.o)
 .data          0x01805da0        0x0 ../LibA5T1000/gcc\libsptutil.a(val2bcd.o)
 .data          0x01805da0        0x0 ../LibA5T1000/gcc\libsptutil.a(hexdigit.o)
 .data          0x01805da0        0x0 ../LibA5T1000/gcc\libsptutil.a(pack_nb.o)
 .data          0x01805da0        0x0 C:\DevTools\gcc_v49_2014q4/arm-none-eabi/lib/thumb\libc.a(lib_a-atoi.o)
 .data          0x01805da0        0x0 C:\DevTools\gcc_v49_2014q4/arm-none-eabi/lib/thumb\libc.a(lib_a-ctype_.o)
 .data.__ctype_ptr__
                0x01805da0        0x4 C:\DevTools\gcc_v49_2014q4/arm-none-eabi/lib/thumb\libc.a(lib_a-ctype_.o)
                0x01805da0                __ctype_ptr__
 .data          0x01805da4        0x0 C:\DevTools\gcc_v49_2014q4/arm-none-eabi/lib/thumb\libc.a(lib_a-memcmp.o)
 .data          0x01805da4        0x0 C:\DevTools\gcc_v49_2014q4/arm-none-eabi/lib/thumb\libc.a(lib_a-memcpy.o)
 .data          0x01805da4        0x0 C:\DevTools\gcc_v49_2014q4/arm-none-eabi/lib/thumb\libc.a(lib_a-memmove.o)
 .data          0x01805da4        0x0 C:\DevTools\gcc_v49_2014q4/arm-none-eabi/lib/thumb\libc.a(lib_a-memset.o)
 .data          0x01805da4        0x0 C:\DevTools\gcc_v49_2014q4/arm-none-eabi/lib/thumb\libc.a(lib_a-strcat.o)
 .data          0x01805da4        0x0 C:\DevTools\gcc_v49_2014q4/arm-none-eabi/lib/thumb\libc.a(lib_a-strchr.o)
 .data          0x01805da4        0x0 C:\DevTools\gcc_v49_2014q4/arm-none-eabi/lib/thumb\libc.a(lib_a-strcmp.o)
 .data          0x01805da4        0x0 C:\DevTools\gcc_v49_2014q4/arm-none-eabi/lib/thumb\libc.a(lib_a-strcpy.o)
 .data          0x01805da4        0x0 C:\DevTools\gcc_v49_2014q4/arm-none-eabi/lib/thumb\libc.a(lib_a-strlen.o)
 .data          0x01805da4        0x0 C:\DevTools\gcc_v49_2014q4/arm-none-eabi/lib/thumb\libc.a(lib_a-strncmp.o)
 .data          0x01805da4        0x0 C:\DevTools\gcc_v49_2014q4/arm-none-eabi/lib/thumb\libc.a(lib_a-strncpy.o)
 .data          0x01805da4        0x0 C:\DevTools\gcc_v49_2014q4/arm-none-eabi/lib/thumb\libc.a(lib_a-strtod.o)
 .data          0x01805da4        0x0 C:\DevTools\gcc_v49_2014q4/arm-none-eabi/lib/thumb\libc.a(lib_a-strtol.o)
 .data          0x01805da4        0x0 C:\DevTools\gcc_v49_2014q4/arm-none-eabi/lib/thumb\libc.a(lib_a-gdtoa-gethex.o)
 .data          0x01805da4        0x0 C:\DevTools\gcc_v49_2014q4/arm-none-eabi/lib/thumb\libc.a(lib_a-gdtoa-hexnan.o)
 .data          0x01805da4        0x0 C:\DevTools\gcc_v49_2014q4/arm-none-eabi/lib/thumb\libc.a(lib_a-impure.o)
 *fill*         0x01805da4        0x4 
 .data.impure_data
                0x01805da8      0x428 C:\DevTools\gcc_v49_2014q4/arm-none-eabi/lib/thumb\libc.a(lib_a-impure.o)
 .data._impure_ptr
                0x018061d0        0x4 C:\DevTools\gcc_v49_2014q4/arm-none-eabi/lib/thumb\libc.a(lib_a-impure.o)
                0x018061d0                _impure_ptr
 .data          0x018061d4        0x0 C:\DevTools\gcc_v49_2014q4/arm-none-eabi/lib/thumb\libc.a(lib_a-locale.o)
 .data.lc_message_charset
                0x018061d4       0x20 C:\DevTools\gcc_v49_2014q4/arm-none-eabi/lib/thumb\libc.a(lib_a-locale.o)
 .data.lconv    0x018061f4       0x38 C:\DevTools\gcc_v49_2014q4/arm-none-eabi/lib/thumb\libc.a(lib_a-locale.o)
 .data.lc_ctype_charset
                0x0180622c       0x20 C:\DevTools\gcc_v49_2014q4/arm-none-eabi/lib/thumb\libc.a(lib_a-locale.o)
 .data.__mb_cur_max
                0x0180624c        0x4 C:\DevTools\gcc_v49_2014q4/arm-none-eabi/lib/thumb\libc.a(lib_a-locale.o)
                0x0180624c                __mb_cur_max
 .data          0x01806250        0x0 C:\DevTools\gcc_v49_2014q4/arm-none-eabi/lib/thumb\libc.a(lib_a-mprec.o)
 .data          0x01806250        0x0 C:\DevTools\gcc_v49_2014q4/arm-none-eabi/lib/thumb\libc.a(lib_a-s_fpclassify.o)
 .data          0x01806250        0x0 C:\DevTools\gcc_v49_2014q4/arm-none-eabi/lib/thumb\libc.a(lib_a-sf_nan.o)
 .data          0x01806250        0x0 C:\DevTools\gcc_v49_2014q4/arm-none-eabi/lib/thumb\libc.a(lib_a-callocr.o)
 .data          0x01806250        0x0 C:\DevTools\gcc_v49_2014q4/arm-none-eabi/lib/thumb\libc.a(lib_a-mallocr.o)
 .data.__malloc_av_
                0x01806250      0x408 C:\DevTools\gcc_v49_2014q4/arm-none-eabi/lib/thumb\libc.a(lib_a-mallocr.o)
                0x01806250                __malloc_av_
 .data.__malloc_trim_threshold
                0x01806658        0x4 C:\DevTools\gcc_v49_2014q4/arm-none-eabi/lib/thumb\libc.a(lib_a-mallocr.o)
                0x01806658                __malloc_trim_threshold
 .data.__malloc_sbrk_base
                0x0180665c        0x4 C:\DevTools\gcc_v49_2014q4/arm-none-eabi/lib/thumb\libc.a(lib_a-mallocr.o)
                0x0180665c                __malloc_sbrk_base
 .data          0x01806660        0x0 C:\DevTools\gcc_v49_2014q4/arm-none-eabi/lib/thumb\libc.a(lib_a-mlock.o)
 .data          0x01806660        0x0 C:\DevTools\gcc_v49_2014q4/arm-none-eabi/lib/thumb\libc.a(lib_a-freer.o)
 .data          0x01806660        0x0 c:/devtools/gcc_v49_2014q4/bin/../lib/gcc/arm-none-eabi/4.9.3\libgcc.a(_udivsi3.o)
 .data          0x01806660        0x0 c:/devtools/gcc_v49_2014q4/bin/../lib/gcc/arm-none-eabi/4.9.3\libgcc.a(_divsi3.o)
 .data          0x01806660        0x0 c:/devtools/gcc_v49_2014q4/bin/../lib/gcc/arm-none-eabi/4.9.3\libgcc.a(_dvmd_tls.o)
 .data          0x01806660        0x0 c:/devtools/gcc_v49_2014q4/bin/../lib/gcc/arm-none-eabi/4.9.3\libgcc.a(_arm_addsubdf3.o)
 .data          0x01806660        0x0 c:/devtools/gcc_v49_2014q4/bin/../lib/gcc/arm-none-eabi/4.9.3\libgcc.a(_arm_muldivdf3.o)
 .data          0x01806660        0x0 c:/devtools/gcc_v49_2014q4/bin/../lib/gcc/arm-none-eabi/4.9.3\libgcc.a(_arm_cmpdf2.o)
 .data          0x01806660        0x0 c:/devtools/gcc_v49_2014q4/bin/../lib/gcc/arm-none-eabi/4.9.3\libgcc.a(_arm_fixdfsi.o)
 .data          0x01806660        0x0 c:/devtools/gcc_v49_2014q4/bin/../lib/gcc/arm-none-eabi/4.9.3\libgcc.a(_arm_fixunsdfsi.o)
 .data          0x01806660        0x0 c:/devtools/gcc_v49_2014q4/bin/../lib/gcc/arm-none-eabi/4.9.3\libgcc.a(_arm_truncdfsf2.o)
 .data          0x01806660        0x0 c:/devtools/gcc_v49_2014q4/bin/../lib/gcc/arm-none-eabi/4.9.3\libgcc.a(_aeabi_ldivmod.o)
 .data          0x01806660        0x0 c:/devtools/gcc_v49_2014q4/bin/../lib/gcc/arm-none-eabi/4.9.3\libgcc.a(_aeabi_uldivmod.o)
 .data          0x01806660        0x0 c:/devtools/gcc_v49_2014q4/bin/../lib/gcc/arm-none-eabi/4.9.3\libgcc.a(_fixdfdi.o)
 .data          0x01806660        0x0 c:/devtools/gcc_v49_2014q4/bin/../lib/gcc/arm-none-eabi/4.9.3\libgcc.a(_fixunsdfdi.o)
 .data          0x01806660        0x0 c:/devtools/gcc_v49_2014q4/bin/../lib/gcc/arm-none-eabi/4.9.3\libgcc.a(bpabi.o)
 .data          0x01806660        0x0 c:/devtools/gcc_v49_2014q4/bin/../lib/gcc/arm-none-eabi/4.9.3\libgcc.a(_divdi3.o)
 .data          0x01806660        0x0 c:/devtools/gcc_v49_2014q4/bin/../lib/gcc/arm-none-eabi/4.9.3\libgcc.a(_udivdi3.o)
 .data          0x01806660        0x0 c:/devtools/gcc_v49_2014q4/bin/../lib/gcc/arm-none-eabi/4.9.3\libgcc.a(_clzdi2.o)
 .data          0x01806660        0x0 c:/devtools/gcc_v49_2014q4/bin/../lib/gcc/arm-none-eabi/4.9.3\libgcc.a(_clzsi2.o)
                0x01806660                . = ALIGN (0x4)
                0x01806660                __preinit_array_start = .
 *(.preinit_array)
                0x01806660                __preinit_array_end = .
                0x01806660                . = ALIGN (0x4)
                0x01806660                __init_array_start = .
 *(SORT(.init_array.*))
 *(.init_array)
                0x01806660                __init_array_end = .
                0x01806660                . = ALIGN (0x4)
                0x01806660                __fini_array_start = .
 *(.fini_array)
 *(SORT(.fini_array.*))
                0x01806660                __fini_array_end = .
                0x01806660                _end_of_data = ALIGN (0x4)

.igot.plt       0x01806660        0x0 load address 0x0102956c
 .igot.plt      0x00000000        0x0 obj/GetCert.o
                0x01806660                . = _end_of_data
                0x01806660                _start_of_bss = .

.bss            0x01806660     0x49b4 load address 0x01029570
 *(.bss*)
 .bss           0x01806660        0x8 obj/apmfunc.o
 .bss           0x01806668        0x1 obj/apmtest.o
                0x01806668                gReplaceAllComm
 *fill*         0x01806669        0x3 
 .bss           0x0180666c       0x10 obj/batchsys.o
 .bss           0x0180667c      0x400 obj/comm.o
 .bss           0x01806a7c       0x14 obj/ctlcfg.o
 .bss           0x01806a90       0x14 obj/emvtrans.o
 *fill*         0x01806aa4        0x4 
 .bss           0x01806aa8     0x3fa0 obj/ftptran.o
 .bss           0x0180aa48       0x14 obj/inittran.o
 .bss           0x0180aa5c        0x1 obj/lptutil.o
 .bss           0x0180aa5d        0x1 obj/param.o
 *fill*         0x0180aa5e        0x2 
 .bss           0x0180aa60       0x1c obj/stis.o
                0x0180aa60                gTermCfgOffset
                0x0180aa64                gCrdTblOffset
                0x0180aa68                gIssTblOffset
                0x0180aa6c                gAcqTblOffset
                0x0180aa70                gDscTblOffset
                0x0180aa74                gLogoTblOffset
                0x0180aa78                gExParamOffset
 .bss           0x0180aa7c        0x8 obj/sysutil.o
 .bss           0x0180aa84        0x1 obj/termdata.o
 *fill*         0x0180aa85        0x3 
 .bss           0x0180aa88        0x8 obj/wifi.o
 .bss           0x0180aa90      0x204 obj/x509.o
 .bss           0x0180ac94        0x4 obj/libc.o
 .bss.__malloc_max_total_mem
                0x0180ac98        0x4 C:\DevTools\gcc_v49_2014q4/arm-none-eabi/lib/thumb\libc.a(lib_a-mallocr.o)
                0x0180ac98                __malloc_max_total_mem
 .bss.__malloc_max_sbrked_mem
                0x0180ac9c        0x4 C:\DevTools\gcc_v49_2014q4/arm-none-eabi/lib/thumb\libc.a(lib_a-mallocr.o)
                0x0180ac9c                __malloc_max_sbrked_mem
 .bss.__malloc_top_pad
                0x0180aca0        0x4 C:\DevTools\gcc_v49_2014q4/arm-none-eabi/lib/thumb\libc.a(lib_a-mallocr.o)
                0x0180aca0                __malloc_top_pad
 .bss.__malloc_current_mallinfo
                0x0180aca4       0x28 C:\DevTools\gcc_v49_2014q4/arm-none-eabi/lib/thumb\libc.a(lib_a-mallocr.o)
                0x0180aca4                __malloc_current_mallinfo
 *(COMMON)
 COMMON         0x0180accc      0x234 obj/comm.o
                0x0180accc                gCommParam
                0x0180aef8                gAuxHdl
 COMMON         0x0180af00        0x4 obj/coremain.o
                0x0180af00                gFileData
 COMMON         0x0180af04       0x58 obj/ftptran.o
                0x0180af04                gPPPMdmCfg
 COMMON         0x0180af5c       0x34 obj/hardware.o
                0x0180af5c                gTimerHdl
                0x0180af74                gDevHandle
 COMMON         0x0180af90       0x78 obj/tranutil.o
                0x0180af90                gsTransData
 COMMON         0x0180b008        0xc ../LibA5T1000/gcc\libsptutil.a(set_pptr.o)
                0x0180b008                init_pack_ptr
                0x0180b00c                pack_ptr
                0x0180b010                pack_ptr_end
                0x0180b014                _end = ALIGN (0x4)
                0x0180f014                _end_of_bss = (_end + 0x4000)
                0x0102956c                _end_of_flash = (_end_of_app + SIZEOF (.data))
OUTPUT(app elf32-littlearm)

.debug_info     0x00000000    0x6a291
 .debug_info    0x00000000     0x22c9 obj/GetCert.o
 .debug_info    0x000022c9     0x27fb obj/apmconfig.o
 .debug_info    0x00004ac4     0x28fe obj/apmfunc.o
 .debug_info    0x000073c2     0x215e obj/apmtest.o
 .debug_info    0x00009520       0x72 obj/auxcom.o
 .debug_info    0x00009592     0x2074 obj/batchsys.o
 .debug_info    0x0000b606     0x2373 obj/cakey.o
 .debug_info    0x0000d979     0x5b5a obj/comm.o
 .debug_info    0x000134d3      0x3d5 obj/constant.o
 .debug_info    0x000138a8     0x4cd3 obj/coremain.o
 .debug_info    0x0001857b     0x2a37 obj/ctlcfg.o
 .debug_info    0x0001afb2     0x2ef1 obj/emvtrans.o
 .debug_info    0x0001dea3     0xa4ef obj/ftptran.o
 .debug_info    0x00028392     0x2016 obj/hardware.o
 .debug_info    0x0002a3a8     0x1719 obj/hashops.o
 .debug_info    0x0002bac1     0x130e obj/infodata.o
 .debug_info    0x0002cdcf     0x36ca obj/inittran.o
 .debug_info    0x00030499     0x2032 obj/kbdutil.o
 .debug_info    0x000324cb     0x2083 obj/keydlltest.o
 .debug_info    0x0003454e     0x1a12 obj/lptutil.o
 .debug_info    0x00035f60     0x10dc obj/main.o
 .debug_info    0x0003703c       0x72 obj/mcp.o
 .debug_info    0x000370ae     0x1cb5 obj/menu.o
 .debug_info    0x00038d63      0xc8b obj/message.o
 .debug_info    0x000399ee     0x1415 obj/mxml-attr.o
 .debug_info    0x0003ae03      0x636 obj/mxml-entity.o
 .debug_info    0x0003b439     0x254f obj/mxml-file.o
 .debug_info    0x0003d988      0x557 obj/mxml-get.o
 .debug_info    0x0003dedf     0x1736 obj/mxml-node.o
 .debug_info    0x0003f615     0x12e2 obj/mxml-private.o
 .debug_info    0x000408f7      0x621 obj/mxml-search.o
 .debug_info    0x00040f18     0x145f obj/mxml-string.o
 .debug_info    0x00042377     0x48e1 obj/param.o
 .debug_info    0x00046c58      0x773 obj/pkcs.o
 .debug_info    0x000473cb     0x247c obj/remotedl.o
 .debug_info    0x00049847     0x143d obj/rmenu.o
 .debug_info    0x0004ac84     0x4aac obj/stis.o
 .debug_info    0x0004f730     0x35a4 obj/sysutil.o
 .debug_info    0x00052cd4     0x74aa obj/termdata.o
 .debug_info    0x0005a17e     0x1349 obj/toggle.o
 .debug_info    0x0005b4c7     0x1869 obj/tranutil.o
 .debug_info    0x0005cd30     0x3a8e obj/wifi.o
 .debug_info    0x000607be     0x324f obj/x509.o
 .debug_info    0x00063a0d     0x1009 obj/cstartup.o
 .debug_info    0x00064a16     0x1132 obj/expect_send.o
 .debug_info    0x00065b48     0x1fef obj/libc.o
 .debug_info    0x00067b37      0x101 ../LibA5T1000/gcc\libsyscall.a(app_call.o)
 .debug_info    0x00067c38       0xf8 ../LibA5T1000/gcc\libsyscall.a(app_sw.o)
 .debug_info    0x00067d30      0x2c6 ../LibA5T1000/gcc\libsyscall.a(sys_call.o)
 .debug_info    0x00067ff6      0x2c6 ../LibA5T1000/gcc\libbasecall.a(base_call.o)
 .debug_info    0x000682bc      0x134 ../LibA5T1000/gcc\libsptutil.a(bcd2bin.o)
 .debug_info    0x000683f0       0x79 ../LibA5T1000/gcc\libsptutil.a(bcd2val.o)
 .debug_info    0x00068469      0x109 ../LibA5T1000/gcc\libsptutil.a(bcdadd.o)
 .debug_info    0x00068572       0xed ../LibA5T1000/gcc\libsptutil.a(bcdinc.o)
 .debug_info    0x0006865f      0x109 ../LibA5T1000/gcc\libsptutil.a(bcdsub.o)
 .debug_info    0x00068768       0xa4 ../LibA5T1000/gcc\libsptutil.a(bin2dec.o)
 .debug_info    0x0006880c       0xc6 ../LibA5T1000/gcc\libsptutil.a(chkdigit.o)
 .debug_info    0x000688d2       0xdc ../LibA5T1000/gcc\libsptutil.a(chkdok.o)
 .debug_info    0x000689ae       0xcb ../LibA5T1000/gcc\libsptutil.a(compress.o)
 .debug_info    0x00068a79      0x14b ../LibA5T1000/gcc\libsptutil.a(crcccitt.o)
 .debug_info    0x00068bc4      0x125 ../LibA5T1000/gcc\libsptutil.a(dbin2asc.o)
 .debug_info    0x00068ce9       0xb5 ../LibA5T1000/gcc\libsptutil.a(dec2bin.o)
 .debug_info    0x00068d9e       0xe9 ../LibA5T1000/gcc\libsptutil.a(decbin8b.o)
 .debug_info    0x00068e87       0xb5 ../LibA5T1000/gcc\libsptutil.a(fndb.o)
 .debug_info    0x00068f3c      0x15a ../LibA5T1000/gcc\libsptutil.a(get_byte.o)
 .debug_info    0x00069096       0x90 ../LibA5T1000/gcc\libsptutil.a(get_dist.o)
 .debug_info    0x00069126      0x13e ../LibA5T1000/gcc\libsptutil.a(get_mem.o)
 .debug_info    0x00069264       0x7a ../LibA5T1000/gcc\libsptutil.a(get_pptr.o)
 .debug_info    0x000692de       0x84 ../LibA5T1000/gcc\libsptutil.a(hex_val.o)
 .debug_info    0x00069362       0xba ../LibA5T1000/gcc\libsptutil.a(inc_pptr.o)
 .debug_info    0x0006941c      0x11a ../LibA5T1000/gcc\libsptutil.a(lbin2asc.o)
 .debug_info    0x00069536       0xa8 ../LibA5T1000/gcc\libsptutil.a(lrc.o)
 .debug_info    0x000695de      0x199 ../LibA5T1000/gcc\libsptutil.a(pack_b.o)
 .debug_info    0x00069777      0x13a ../LibA5T1000/gcc\libsptutil.a(pack_mem.o)
 .debug_info    0x000698b1       0xa1 ../LibA5T1000/gcc\libsptutil.a(pack_nul.o)
 .debug_info    0x00069952       0x85 ../LibA5T1000/gcc\libsptutil.a(peek_b.o)
 .debug_info    0x000699d7       0xf7 ../LibA5T1000/gcc\libsptutil.a(set_pptr.o)
 .debug_info    0x00069ace       0xb5 ../LibA5T1000/gcc\libsptutil.a(skpb.o)
 .debug_info    0x00069b83       0xcb ../LibA5T1000/gcc\libsptutil.a(split.o)
 .debug_info    0x00069c4e      0x415 ../LibA5T1000/gcc\libsptutil.a(unix_tm.o)
 .debug_info    0x0006a063       0x79 ../LibA5T1000/gcc\libsptutil.a(val2bcd.o)
 .debug_info    0x0006a0dc       0x79 ../LibA5T1000/gcc\libsptutil.a(hexdigit.o)
 .debug_info    0x0006a155      0x13c ../LibA5T1000/gcc\libsptutil.a(pack_nb.o)

.debug_abbrev   0x00000000     0x87fd
 .debug_abbrev  0x00000000      0x2d5 obj/GetCert.o
 .debug_abbrev  0x000002d5      0x278 obj/apmconfig.o
 .debug_abbrev  0x0000054d      0x2c8 obj/apmfunc.o
 .debug_abbrev  0x00000815      0x23c obj/apmtest.o
 .debug_abbrev  0x00000a51       0x26 obj/auxcom.o
 .debug_abbrev  0x00000a77      0x39a obj/batchsys.o
 .debug_abbrev  0x00000e11      0x229 obj/cakey.o
 .debug_abbrev  0x0000103a      0x4d5 obj/comm.o
 .debug_abbrev  0x0000150f       0xb0 obj/constant.o
 .debug_abbrev  0x000015bf      0x3c6 obj/coremain.o
 .debug_abbrev  0x00001985      0x35b obj/ctlcfg.o
 .debug_abbrev  0x00001ce0      0x3c4 obj/emvtrans.o
 .debug_abbrev  0x000020a4      0x3aa obj/ftptran.o
 .debug_abbrev  0x0000244e      0x270 obj/hardware.o
 .debug_abbrev  0x000026be      0x1da obj/hashops.o
 .debug_abbrev  0x00002898      0x185 obj/infodata.o
 .debug_abbrev  0x00002a1d      0x2d1 obj/inittran.o
 .debug_abbrev  0x00002cee      0x337 obj/kbdutil.o
 .debug_abbrev  0x00003025      0x1d7 obj/keydlltest.o
 .debug_abbrev  0x000031fc      0x2dc obj/lptutil.o
 .debug_abbrev  0x000034d8      0x17d obj/main.o
 .debug_abbrev  0x00003655       0x26 obj/mcp.o
 .debug_abbrev  0x0000367b      0x1c6 obj/menu.o
 .debug_abbrev  0x00003841       0x73 obj/message.o
 .debug_abbrev  0x000038b4      0x1f1 obj/mxml-attr.o
 .debug_abbrev  0x00003aa5      0x22f obj/mxml-entity.o
 .debug_abbrev  0x00003cd4      0x39f obj/mxml-file.o
 .debug_abbrev  0x00004073      0x144 obj/mxml-get.o
 .debug_abbrev  0x000041b7      0x287 obj/mxml-node.o
 .debug_abbrev  0x0000443e      0x219 obj/mxml-private.o
 .debug_abbrev  0x00004657      0x1d4 obj/mxml-search.o
 .debug_abbrev  0x0000482b      0x212 obj/mxml-string.o
 .debug_abbrev  0x00004a3d      0x3e7 obj/param.o
 .debug_abbrev  0x00004e24      0x177 obj/pkcs.o
 .debug_abbrev  0x00004f9b      0x302 obj/remotedl.o
 .debug_abbrev  0x0000529d      0x19c obj/rmenu.o
 .debug_abbrev  0x00005439      0x3ad obj/stis.o
 .debug_abbrev  0x000057e6      0x29c obj/sysutil.o
 .debug_abbrev  0x00005a82      0x3cc obj/termdata.o
 .debug_abbrev  0x00005e4e      0x1bb obj/toggle.o
 .debug_abbrev  0x00006009      0x252 obj/tranutil.o
 .debug_abbrev  0x0000625b      0x2e3 obj/wifi.o
 .debug_abbrev  0x0000653e      0x45e obj/x509.o
 .debug_abbrev  0x0000699c      0x1a3 obj/cstartup.o
 .debug_abbrev  0x00006b3f      0x1c7 obj/expect_send.o
 .debug_abbrev  0x00006d06      0x446 obj/libc.o
 .debug_abbrev  0x0000714c       0x64 ../LibA5T1000/gcc\libsyscall.a(app_call.o)
 .debug_abbrev  0x000071b0       0x8b ../LibA5T1000/gcc\libsyscall.a(app_sw.o)
 .debug_abbrev  0x0000723b       0xfd ../LibA5T1000/gcc\libsyscall.a(sys_call.o)
 .debug_abbrev  0x00007338       0xfd ../LibA5T1000/gcc\libbasecall.a(base_call.o)
 .debug_abbrev  0x00007435       0xf0 ../LibA5T1000/gcc\libsptutil.a(bcd2bin.o)
 .debug_abbrev  0x00007525       0x55 ../LibA5T1000/gcc\libsptutil.a(bcd2val.o)
 .debug_abbrev  0x0000757a       0xb8 ../LibA5T1000/gcc\libsptutil.a(bcdadd.o)
 .debug_abbrev  0x00007632       0xa7 ../LibA5T1000/gcc\libsptutil.a(bcdinc.o)
 .debug_abbrev  0x000076d9       0xb8 ../LibA5T1000/gcc\libsptutil.a(bcdsub.o)
 .debug_abbrev  0x00007791       0x6b ../LibA5T1000/gcc\libsptutil.a(bin2dec.o)
 .debug_abbrev  0x000077fc       0x7c ../LibA5T1000/gcc\libsptutil.a(chkdigit.o)
 .debug_abbrev  0x00007878       0x7c ../LibA5T1000/gcc\libsptutil.a(chkdok.o)
 .debug_abbrev  0x000078f4       0x83 ../LibA5T1000/gcc\libsptutil.a(compress.o)
 .debug_abbrev  0x00007977       0xcf ../LibA5T1000/gcc\libsptutil.a(crcccitt.o)
 .debug_abbrev  0x00007a46       0xbf ../LibA5T1000/gcc\libsptutil.a(dbin2asc.o)
 .debug_abbrev  0x00007b05       0x7c ../LibA5T1000/gcc\libsptutil.a(dec2bin.o)
 .debug_abbrev  0x00007b81       0x96 ../LibA5T1000/gcc\libsptutil.a(decbin8b.o)
 .debug_abbrev  0x00007c17       0x8b ../LibA5T1000/gcc\libsptutil.a(fndb.o)
 .debug_abbrev  0x00007ca2       0x96 ../LibA5T1000/gcc\libsptutil.a(get_byte.o)
 .debug_abbrev  0x00007d38       0x60 ../LibA5T1000/gcc\libsptutil.a(get_dist.o)
 .debug_abbrev  0x00007d98       0xea ../LibA5T1000/gcc\libsptutil.a(get_mem.o)
 .debug_abbrev  0x00007e82       0x60 ../LibA5T1000/gcc\libsptutil.a(get_pptr.o)
 .debug_abbrev  0x00007ee2       0x55 ../LibA5T1000/gcc\libsptutil.a(hex_val.o)
 .debug_abbrev  0x00007f37       0xa2 ../LibA5T1000/gcc\libsptutil.a(inc_pptr.o)
 .debug_abbrev  0x00007fd9       0xbf ../LibA5T1000/gcc\libsptutil.a(lbin2asc.o)
 .debug_abbrev  0x00008098       0x7c ../LibA5T1000/gcc\libsptutil.a(lrc.o)
 .debug_abbrev  0x00008114       0xa2 ../LibA5T1000/gcc\libsptutil.a(pack_b.o)
 .debug_abbrev  0x000081b6       0xe8 ../LibA5T1000/gcc\libsptutil.a(pack_mem.o)
 .debug_abbrev  0x0000829e       0x87 ../LibA5T1000/gcc\libsptutil.a(pack_nul.o)
 .debug_abbrev  0x00008325       0x60 ../LibA5T1000/gcc\libsptutil.a(peek_b.o)
 .debug_abbrev  0x00008385       0x80 ../LibA5T1000/gcc\libsptutil.a(set_pptr.o)
 .debug_abbrev  0x00008405       0x8b ../LibA5T1000/gcc\libsptutil.a(skpb.o)
 .debug_abbrev  0x00008490       0x83 ../LibA5T1000/gcc\libsptutil.a(split.o)
 .debug_abbrev  0x00008513      0x15d ../LibA5T1000/gcc\libsptutil.a(unix_tm.o)
 .debug_abbrev  0x00008670       0x55 ../LibA5T1000/gcc\libsptutil.a(val2bcd.o)
 .debug_abbrev  0x000086c5       0x55 ../LibA5T1000/gcc\libsptutil.a(hexdigit.o)
 .debug_abbrev  0x0000871a       0xe3 ../LibA5T1000/gcc\libsptutil.a(pack_nb.o)

.debug_loc      0x00000000    0x189bd
 .debug_loc     0x00000000      0x67b obj/GetCert.o
 .debug_loc     0x0000067b      0x60e obj/apmconfig.o
 .debug_loc     0x00000c89      0x42f obj/apmfunc.o
 .debug_loc     0x000010b8       0xe8 obj/apmtest.o
 .debug_loc     0x000011a0      0x824 obj/batchsys.o
 .debug_loc     0x000019c4      0x285 obj/cakey.o
 .debug_loc     0x00001c49     0x1246 obj/comm.o
 .debug_loc     0x00002e8f      0xc68 obj/coremain.o
 .debug_loc     0x00003af7      0x4c1 obj/ctlcfg.o
 .debug_loc     0x00003fb8      0x7be obj/emvtrans.o
 .debug_loc     0x00004776     0x2284 obj/ftptran.o
 .debug_loc     0x000069fa      0x3e5 obj/hardware.o
 .debug_loc     0x00006ddf      0x6cc obj/hashops.o
 .debug_loc     0x000074ab      0x24c obj/infodata.o
 .debug_loc     0x000076f7      0x6e7 obj/inittran.o
 .debug_loc     0x00007dde      0x769 obj/kbdutil.o
 .debug_loc     0x00008547      0x39e obj/keydlltest.o
 .debug_loc     0x000088e5      0x4ae obj/lptutil.o
 .debug_loc     0x00008d93       0xb9 obj/main.o
 .debug_loc     0x00008e4c      0x6de obj/menu.o
 .debug_loc     0x0000952a      0x3cb obj/mxml-attr.o
 .debug_loc     0x000098f5      0x23d obj/mxml-entity.o
 .debug_loc     0x00009b32     0x10fe obj/mxml-file.o
 .debug_loc     0x0000ac30      0x2fa obj/mxml-get.o
 .debug_loc     0x0000af2a      0x626 obj/mxml-node.o
 .debug_loc     0x0000b550       0x84 obj/mxml-private.o
 .debug_loc     0x0000b5d4      0x391 obj/mxml-search.o
 .debug_loc     0x0000b965      0x5b0 obj/mxml-string.o
 .debug_loc     0x0000bf15     0x15d0 obj/param.o
 .debug_loc     0x0000d4e5      0x540 obj/pkcs.o
 .debug_loc     0x0000da25      0x30c obj/remotedl.o
 .debug_loc     0x0000dd31      0x354 obj/rmenu.o
 .debug_loc     0x0000e085     0x1484 obj/stis.o
 .debug_loc     0x0000f509      0xdc9 obj/sysutil.o
 .debug_loc     0x000102d2     0x189b obj/termdata.o
 .debug_loc     0x00011b6d      0x1f7 obj/toggle.o
 .debug_loc     0x00011d64      0x1e9 obj/tranutil.o
 .debug_loc     0x00011f4d      0xa55 obj/wifi.o
 .debug_loc     0x000129a2     0x1ee1 obj/x509.o
 .debug_loc     0x00014883       0xa5 obj/cstartup.o
 .debug_loc     0x00014928      0x30e obj/expect_send.o
 .debug_loc     0x00014c36      0xd82 obj/libc.o
 .debug_loc     0x000159b8     0x1907 ../LibA5T1000/gcc\libsyscall.a(app_call.o)
 .debug_loc     0x000172bf       0x84 ../LibA5T1000/gcc\libsyscall.a(app_sw.o)
 .debug_loc     0x00017343       0x84 ../LibA5T1000/gcc\libsyscall.a(sys_call.o)
 .debug_loc     0x000173c7       0x84 ../LibA5T1000/gcc\libbasecall.a(base_call.o)
 .debug_loc     0x0001744b      0x166 ../LibA5T1000/gcc\libsptutil.a(bcd2bin.o)
 .debug_loc     0x000175b1       0x21 ../LibA5T1000/gcc\libsptutil.a(bcd2val.o)
 .debug_loc     0x000175d2       0xd8 ../LibA5T1000/gcc\libsptutil.a(bcdadd.o)
 .debug_loc     0x000176aa       0xb7 ../LibA5T1000/gcc\libsptutil.a(bcdinc.o)
 .debug_loc     0x00017761       0xd8 ../LibA5T1000/gcc\libsptutil.a(bcdsub.o)
 .debug_loc     0x00017839       0x8b ../LibA5T1000/gcc\libsptutil.a(bin2dec.o)
 .debug_loc     0x000178c4      0x100 ../LibA5T1000/gcc\libsptutil.a(chkdigit.o)
 .debug_loc     0x000179c4       0xdc ../LibA5T1000/gcc\libsptutil.a(chkdok.o)
 .debug_loc     0x00017aa0       0xca ../LibA5T1000/gcc\libsptutil.a(compress.o)
 .debug_loc     0x00017b6a       0xed ../LibA5T1000/gcc\libsptutil.a(crcccitt.o)
 .debug_loc     0x00017c57       0xa0 ../LibA5T1000/gcc\libsptutil.a(dbin2asc.o)
 .debug_loc     0x00017cf7       0xb4 ../LibA5T1000/gcc\libsptutil.a(dec2bin.o)
 .debug_loc     0x00017dab       0xfe ../LibA5T1000/gcc\libsptutil.a(decbin8b.o)
 .debug_loc     0x00017ea9       0x87 ../LibA5T1000/gcc\libsptutil.a(fndb.o)
 .debug_loc     0x00017f30       0xe6 ../LibA5T1000/gcc\libsptutil.a(get_byte.o)
 .debug_loc     0x00018016       0x58 ../LibA5T1000/gcc\libsptutil.a(get_mem.o)
 .debug_loc     0x0001806e       0x21 ../LibA5T1000/gcc\libsptutil.a(hex_val.o)
 .debug_loc     0x0001808f       0x2c ../LibA5T1000/gcc\libsptutil.a(inc_pptr.o)
 .debug_loc     0x000180bb       0x8c ../LibA5T1000/gcc\libsptutil.a(lbin2asc.o)
 .debug_loc     0x00018147       0x99 ../LibA5T1000/gcc\libsptutil.a(lrc.o)
 .debug_loc     0x000181e0       0xdc ../LibA5T1000/gcc\libsptutil.a(pack_b.o)
 .debug_loc     0x000182bc       0x58 ../LibA5T1000/gcc\libsptutil.a(pack_mem.o)
 .debug_loc     0x00018314       0x2c ../LibA5T1000/gcc\libsptutil.a(pack_nul.o)
 .debug_loc     0x00018340       0x42 ../LibA5T1000/gcc\libsptutil.a(set_pptr.o)
 .debug_loc     0x00018382       0x87 ../LibA5T1000/gcc\libsptutil.a(skpb.o)
 .debug_loc     0x00018409       0xca ../LibA5T1000/gcc\libsptutil.a(split.o)
 .debug_loc     0x000184d3      0x446 ../LibA5T1000/gcc\libsptutil.a(unix_tm.o)
 .debug_loc     0x00018919       0x1e ../LibA5T1000/gcc\libsptutil.a(val2bcd.o)
 .debug_loc     0x00018937       0x2e ../LibA5T1000/gcc\libsptutil.a(hexdigit.o)
 .debug_loc     0x00018965       0x58 ../LibA5T1000/gcc\libsptutil.a(pack_nb.o)

.debug_aranges  0x00000000     0x1940
 .debug_aranges
                0x00000000       0x38 obj/GetCert.o
 .debug_aranges
                0x00000038       0x50 obj/apmconfig.o
 .debug_aranges
                0x00000088       0x30 obj/apmfunc.o
 .debug_aranges
                0x000000b8       0x30 obj/apmtest.o
 .debug_aranges
                0x000000e8       0x18 obj/auxcom.o
 .debug_aranges
                0x00000100       0xa8 obj/batchsys.o
 .debug_aranges
                0x000001a8       0x20 obj/cakey.o
 .debug_aranges
                0x000001c8       0xe8 obj/comm.o
 .debug_aranges
                0x000002b0       0x18 obj/constant.o
 .debug_aranges
                0x000002c8      0x210 obj/coremain.o
 .debug_aranges
                0x000004d8       0x78 obj/ctlcfg.o
 .debug_aranges
                0x00000550       0xb0 obj/emvtrans.o
 .debug_aranges
                0x00000600      0x150 obj/ftptran.o
 .debug_aranges
                0x00000750       0x50 obj/hardware.o
 .debug_aranges
                0x000007a0       0xb0 obj/hashops.o
 .debug_aranges
                0x00000850       0x28 obj/infodata.o
 .debug_aranges
                0x00000878       0x30 obj/inittran.o
 .debug_aranges
                0x000008a8       0x70 obj/kbdutil.o
 .debug_aranges
                0x00000918       0x28 obj/keydlltest.o
 .debug_aranges
                0x00000940       0x80 obj/lptutil.o
 .debug_aranges
                0x000009c0       0x20 obj/main.o
 .debug_aranges
                0x000009e0       0x18 obj/mcp.o
 .debug_aranges
                0x000009f8       0x20 obj/menu.o
 .debug_aranges
                0x00000a18       0x18 obj/message.o
 .debug_aranges
                0x00000a30       0x40 obj/mxml-attr.o
 .debug_aranges
                0x00000a70       0x40 obj/mxml-entity.o
 .debug_aranges
                0x00000ab0       0x68 obj/mxml-file.o
 .debug_aranges
                0x00000b18       0x88 obj/mxml-get.o
 .debug_aranges
                0x00000ba0       0x98 obj/mxml-node.o
 .debug_aranges
                0x00000c38       0x48 obj/mxml-private.o
 .debug_aranges
                0x00000c80       0x38 obj/mxml-search.o
 .debug_aranges
                0x00000cb8       0x40 obj/mxml-string.o
 .debug_aranges
                0x00000cf8       0x90 obj/param.o
 .debug_aranges
                0x00000d88       0x48 obj/pkcs.o
 .debug_aranges
                0x00000dd0       0x80 obj/remotedl.o
 .debug_aranges
                0x00000e50       0x20 obj/rmenu.o
 .debug_aranges
                0x00000e70      0x140 obj/stis.o
 .debug_aranges
                0x00000fb0      0x120 obj/sysutil.o
 .debug_aranges
                0x000010d0      0x198 obj/termdata.o
 .debug_aranges
                0x00001268       0x28 obj/toggle.o
 .debug_aranges
                0x00001290       0x58 obj/tranutil.o
 .debug_aranges
                0x000012e8       0x48 obj/wifi.o
 .debug_aranges
                0x00001330       0x98 obj/x509.o
 .debug_aranges
                0x000013c8       0x28 obj/cstartup.o
 .debug_aranges
                0x000013f0       0x28 obj/expect_send.o
 .debug_aranges
                0x00001418       0x88 obj/libc.o
 .debug_aranges
                0x000014a0       0x20 ../LibA5T1000/gcc\libsyscall.a(app_call.o)
 .debug_aranges
                0x000014c0       0x20 ../LibA5T1000/gcc\libsyscall.a(app_sw.o)
 .debug_aranges
                0x000014e0       0x20 ../LibA5T1000/gcc\libsyscall.a(sys_call.o)
 .debug_aranges
                0x00001500       0x20 ../LibA5T1000/gcc\libbasecall.a(base_call.o)
 .debug_aranges
                0x00001520       0x20 ../LibA5T1000/gcc\libsptutil.a(bcd2bin.o)
 .debug_aranges
                0x00001540       0x20 ../LibA5T1000/gcc\libsptutil.a(bcd2val.o)
 .debug_aranges
                0x00001560       0x20 ../LibA5T1000/gcc\libsptutil.a(bcdadd.o)
 .debug_aranges
                0x00001580       0x20 ../LibA5T1000/gcc\libsptutil.a(bcdinc.o)
 .debug_aranges
                0x000015a0       0x20 ../LibA5T1000/gcc\libsptutil.a(bcdsub.o)
 .debug_aranges
                0x000015c0       0x20 ../LibA5T1000/gcc\libsptutil.a(bin2dec.o)
 .debug_aranges
                0x000015e0       0x20 ../LibA5T1000/gcc\libsptutil.a(chkdigit.o)
 .debug_aranges
                0x00001600       0x20 ../LibA5T1000/gcc\libsptutil.a(chkdok.o)
 .debug_aranges
                0x00001620       0x20 ../LibA5T1000/gcc\libsptutil.a(compress.o)
 .debug_aranges
                0x00001640       0x20 ../LibA5T1000/gcc\libsptutil.a(crcccitt.o)
 .debug_aranges
                0x00001660       0x20 ../LibA5T1000/gcc\libsptutil.a(dbin2asc.o)
 .debug_aranges
                0x00001680       0x20 ../LibA5T1000/gcc\libsptutil.a(dec2bin.o)
 .debug_aranges
                0x000016a0       0x20 ../LibA5T1000/gcc\libsptutil.a(decbin8b.o)
 .debug_aranges
                0x000016c0       0x20 ../LibA5T1000/gcc\libsptutil.a(fndb.o)
 .debug_aranges
                0x000016e0       0x20 ../LibA5T1000/gcc\libsptutil.a(get_byte.o)
 .debug_aranges
                0x00001700       0x20 ../LibA5T1000/gcc\libsptutil.a(get_dist.o)
 .debug_aranges
                0x00001720       0x20 ../LibA5T1000/gcc\libsptutil.a(get_mem.o)
 .debug_aranges
                0x00001740       0x20 ../LibA5T1000/gcc\libsptutil.a(get_pptr.o)
 .debug_aranges
                0x00001760       0x20 ../LibA5T1000/gcc\libsptutil.a(hex_val.o)
 .debug_aranges
                0x00001780       0x20 ../LibA5T1000/gcc\libsptutil.a(inc_pptr.o)
 .debug_aranges
                0x000017a0       0x20 ../LibA5T1000/gcc\libsptutil.a(lbin2asc.o)
 .debug_aranges
                0x000017c0       0x20 ../LibA5T1000/gcc\libsptutil.a(lrc.o)
 .debug_aranges
                0x000017e0       0x20 ../LibA5T1000/gcc\libsptutil.a(pack_b.o)
 .debug_aranges
                0x00001800       0x20 ../LibA5T1000/gcc\libsptutil.a(pack_mem.o)
 .debug_aranges
                0x00001820       0x20 ../LibA5T1000/gcc\libsptutil.a(pack_nul.o)
 .debug_aranges
                0x00001840       0x20 ../LibA5T1000/gcc\libsptutil.a(peek_b.o)
 .debug_aranges
                0x00001860       0x20 ../LibA5T1000/gcc\libsptutil.a(set_pptr.o)
 .debug_aranges
                0x00001880       0x20 ../LibA5T1000/gcc\libsptutil.a(skpb.o)
 .debug_aranges
                0x000018a0       0x20 ../LibA5T1000/gcc\libsptutil.a(split.o)
 .debug_aranges
                0x000018c0       0x20 ../LibA5T1000/gcc\libsptutil.a(unix_tm.o)
 .debug_aranges
                0x000018e0       0x20 ../LibA5T1000/gcc\libsptutil.a(val2bcd.o)
 .debug_aranges
                0x00001900       0x20 ../LibA5T1000/gcc\libsptutil.a(hexdigit.o)
 .debug_aranges
                0x00001920       0x20 ../LibA5T1000/gcc\libsptutil.a(pack_nb.o)

.debug_ranges   0x00000000     0x19a0
 .debug_ranges  0x00000000       0x28 obj/GetCert.o
 .debug_ranges  0x00000028       0x88 obj/apmconfig.o
 .debug_ranges  0x000000b0       0x38 obj/apmfunc.o
 .debug_ranges  0x000000e8       0x20 obj/apmtest.o
 .debug_ranges  0x00000108       0xd0 obj/batchsys.o
 .debug_ranges  0x000001d8       0x10 obj/cakey.o
 .debug_ranges  0x000001e8      0x138 obj/comm.o
 .debug_ranges  0x00000320      0x200 obj/coremain.o
 .debug_ranges  0x00000520       0xb0 obj/ctlcfg.o
 .debug_ranges  0x000005d0       0xe8 obj/emvtrans.o
 .debug_ranges  0x000006b8      0x140 obj/ftptran.o
 .debug_ranges  0x000007f8       0x40 obj/hardware.o
 .debug_ranges  0x00000838       0xa0 obj/hashops.o
 .debug_ranges  0x000008d8       0x18 obj/infodata.o
 .debug_ranges  0x000008f0       0x20 obj/inittran.o
 .debug_ranges  0x00000910       0xf8 obj/kbdutil.o
 .debug_ranges  0x00000a08       0x30 obj/keydlltest.o
 .debug_ranges  0x00000a38       0x70 obj/lptutil.o
 .debug_ranges  0x00000aa8       0x10 obj/main.o
 .debug_ranges  0x00000ab8       0x60 obj/menu.o
 .debug_ranges  0x00000b18       0x30 obj/mxml-attr.o
 .debug_ranges  0x00000b48       0x30 obj/mxml-entity.o
 .debug_ranges  0x00000b78       0x70 obj/mxml-file.o
 .debug_ranges  0x00000be8       0x78 obj/mxml-get.o
 .debug_ranges  0x00000c60       0xa0 obj/mxml-node.o
 .debug_ranges  0x00000d00       0x38 obj/mxml-private.o
 .debug_ranges  0x00000d38       0x28 obj/mxml-search.o
 .debug_ranges  0x00000d60       0x30 obj/mxml-string.o
 .debug_ranges  0x00000d90       0x80 obj/param.o
 .debug_ranges  0x00000e10       0x38 obj/pkcs.o
 .debug_ranges  0x00000e48       0x70 obj/remotedl.o
 .debug_ranges  0x00000eb8       0x48 obj/rmenu.o
 .debug_ranges  0x00000f00      0x1b0 obj/stis.o
 .debug_ranges  0x000010b0      0x140 obj/sysutil.o
 .debug_ranges  0x000011f0      0x290 obj/termdata.o
 .debug_ranges  0x00001480       0x48 obj/toggle.o
 .debug_ranges  0x000014c8       0xb0 obj/tranutil.o
 .debug_ranges  0x00001578      0x158 obj/wifi.o
 .debug_ranges  0x000016d0      0x208 obj/x509.o
 .debug_ranges  0x000018d8       0x18 obj/cstartup.o
 .debug_ranges  0x000018f0       0x18 obj/expect_send.o
 .debug_ranges  0x00001908       0x78 obj/libc.o
 .debug_ranges  0x00001980       0x10 ../LibA5T1000/gcc\libsyscall.a(sys_call.o)
 .debug_ranges  0x00001990       0x10 ../LibA5T1000/gcc\libbasecall.a(base_call.o)

.debug_line     0x00000000     0xab93
 .debug_line    0x00000000      0x272 obj/GetCert.o
 .debug_line    0x00000272        0x0 obj/PhList.o
 .debug_line    0x00000272        0x0 obj/Phone.o
 .debug_line    0x00000272      0x30c obj/apmconfig.o
 .debug_line    0x0000057e      0x33e obj/apmfunc.o
 .debug_line    0x000008bc      0x1b7 obj/apmtest.o
 .debug_line    0x00000a73       0x1d obj/auxcom.o
 .debug_line    0x00000a90      0x3ee obj/batchsys.o
 .debug_line    0x00000e7e      0x169 obj/cakey.o
 .debug_line    0x00000fe7      0x775 obj/comm.o
 .debug_line    0x0000175c       0x70 obj/constant.o
 .debug_line    0x000017cc      0x6fd obj/coremain.o
 .debug_line    0x00001ec9      0x3c0 obj/ctlcfg.o
 .debug_line    0x00002289      0x490 obj/emvtrans.o
 .debug_line    0x00002719      0xeaa obj/ftptran.o
 .debug_line    0x000035c3      0x23c obj/hardware.o
 .debug_line    0x000037ff      0x1cd obj/hashops.o
 .debug_line    0x000039cc      0x170 obj/infodata.o
 .debug_line    0x00003b3c      0x427 obj/inittran.o
 .debug_line    0x00003f63      0x46c obj/kbdutil.o
 .debug_line    0x000043cf      0x263 obj/keydlltest.o
 .debug_line    0x00004632      0x297 obj/lptutil.o
 .debug_line    0x000048c9       0x87 obj/main.o
 .debug_line    0x00004950       0x1d obj/mcp.o
 .debug_line    0x0000496d      0x270 obj/menu.o
 .debug_line    0x00004bdd       0x54 obj/message.o
 .debug_line    0x00004c31      0x213 obj/mxml-attr.o
 .debug_line    0x00004e44      0x176 obj/mxml-entity.o
 .debug_line    0x00004fba      0x4af obj/mxml-file.o
 .debug_line    0x00005469      0x262 obj/mxml-get.o
 .debug_line    0x000056cb      0x2c9 obj/mxml-node.o
 .debug_line    0x00005994      0x19f obj/mxml-private.o
 .debug_line    0x00005b33      0x19b obj/mxml-search.o
 .debug_line    0x00005cce      0x256 obj/mxml-string.o
 .debug_line    0x00005f24      0x55e obj/param.o
 .debug_line    0x00006482      0x1af obj/pkcs.o
 .debug_line    0x00006631      0x3f0 obj/remotedl.o
 .debug_line    0x00006a21      0x1ac obj/rmenu.o
 .debug_line    0x00006bcd      0x7fd obj/stis.o
 .debug_line    0x000073ca      0x5c6 obj/sysutil.o
 .debug_line    0x00007990      0x959 obj/termdata.o
 .debug_line    0x000082e9      0x167 obj/toggle.o
 .debug_line    0x00008450      0x244 obj/tranutil.o
 .debug_line    0x00008694      0x381 obj/wifi.o
 .debug_line    0x00008a15      0x6ad obj/x509.o
 .debug_line    0x000090c2       0xad obj/cstartup.o
 .debug_line    0x0000916f      0x169 obj/expect_send.o
 .debug_line    0x000092d8      0x3ab obj/libc.o
 .debug_line    0x00009683      0x267 ../LibA5T1000/gcc\libsyscall.a(app_call.o)
 .debug_line    0x000098ea       0x60 ../LibA5T1000/gcc\libsyscall.a(app_sw.o)
 .debug_line    0x0000994a       0x7e ../LibA5T1000/gcc\libsyscall.a(sys_call.o)
 .debug_line    0x000099c8       0x7f ../LibA5T1000/gcc\libbasecall.a(base_call.o)
 .debug_line    0x00009a47       0x95 ../LibA5T1000/gcc\libsptutil.a(bcd2bin.o)
 .debug_line    0x00009adc       0x61 ../LibA5T1000/gcc\libsptutil.a(bcd2val.o)
 .debug_line    0x00009b3d       0x77 ../LibA5T1000/gcc\libsptutil.a(bcdadd.o)
 .debug_line    0x00009bb4       0x7e ../LibA5T1000/gcc\libsptutil.a(bcdinc.o)
 .debug_line    0x00009c32       0x77 ../LibA5T1000/gcc\libsptutil.a(bcdsub.o)
 .debug_line    0x00009ca9       0x64 ../LibA5T1000/gcc\libsptutil.a(bin2dec.o)
 .debug_line    0x00009d0d       0x6b ../LibA5T1000/gcc\libsptutil.a(chkdigit.o)
 .debug_line    0x00009d78       0x69 ../LibA5T1000/gcc\libsptutil.a(chkdok.o)
 .debug_line    0x00009de1       0x74 ../LibA5T1000/gcc\libsptutil.a(compress.o)
 .debug_line    0x00009e55       0x7a ../LibA5T1000/gcc\libsptutil.a(crcccitt.o)
 .debug_line    0x00009ecf      0x10f ../LibA5T1000/gcc\libsptutil.a(dbin2asc.o)
 .debug_line    0x00009fde       0x6b ../LibA5T1000/gcc\libsptutil.a(dec2bin.o)
 .debug_line    0x0000a049       0x94 ../LibA5T1000/gcc\libsptutil.a(decbin8b.o)
 .debug_line    0x0000a0dd       0x60 ../LibA5T1000/gcc\libsptutil.a(fndb.o)
 .debug_line    0x0000a13d       0x71 ../LibA5T1000/gcc\libsptutil.a(get_byte.o)
 .debug_line    0x0000a1ae       0x60 ../LibA5T1000/gcc\libsptutil.a(get_dist.o)
 .debug_line    0x0000a20e       0x79 ../LibA5T1000/gcc\libsptutil.a(get_mem.o)
 .debug_line    0x0000a287       0x5f ../LibA5T1000/gcc\libsptutil.a(get_pptr.o)
 .debug_line    0x0000a2e6       0x5f ../LibA5T1000/gcc\libsptutil.a(hex_val.o)
 .debug_line    0x0000a345       0x77 ../LibA5T1000/gcc\libsptutil.a(inc_pptr.o)
 .debug_line    0x0000a3bc      0x10e ../LibA5T1000/gcc\libsptutil.a(lbin2asc.o)
 .debug_line    0x0000a4ca       0x5e ../LibA5T1000/gcc\libsptutil.a(lrc.o)
 .debug_line    0x0000a528       0xa1 ../LibA5T1000/gcc\libsptutil.a(pack_b.o)
 .debug_line    0x0000a5c9       0x75 ../LibA5T1000/gcc\libsptutil.a(pack_mem.o)
 .debug_line    0x0000a63e       0x71 ../LibA5T1000/gcc\libsptutil.a(pack_nul.o)
 .debug_line    0x0000a6af       0x5e ../LibA5T1000/gcc\libsptutil.a(peek_b.o)
 .debug_line    0x0000a70d       0x64 ../LibA5T1000/gcc\libsptutil.a(set_pptr.o)
 .debug_line    0x0000a771       0x68 ../LibA5T1000/gcc\libsptutil.a(skpb.o)
 .debug_line    0x0000a7d9       0x71 ../LibA5T1000/gcc\libsptutil.a(split.o)
 .debug_line    0x0000a84a      0x18c ../LibA5T1000/gcc\libsptutil.a(unix_tm.o)
 .debug_line    0x0000a9d6       0x61 ../LibA5T1000/gcc\libsptutil.a(val2bcd.o)
 .debug_line    0x0000aa37       0x60 ../LibA5T1000/gcc\libsptutil.a(hexdigit.o)
 .debug_line    0x0000aa97       0xfc ../LibA5T1000/gcc\libsptutil.a(pack_nb.o)

.debug_str      0x00000000     0xae5d
 .debug_str     0x00000000     0x2d28 obj/GetCert.o
                               0x2e0d (size before relaxing)
 .debug_str     0x00002d28        0xd obj/PhList.o
                                0x101 (size before relaxing)
 .debug_str     0x00002d35        0xc obj/Phone.o
                                0x100 (size before relaxing)
 .debug_str     0x00002d41      0x79c obj/apmconfig.o
                               0x2e6f (size before relaxing)
 .debug_str     0x000034dd      0xc0a obj/apmfunc.o
                               0x3acb (size before relaxing)
 .debug_str     0x000040e7      0x361 obj/apmtest.o
                               0x2b5f (size before relaxing)
 .debug_str     0x00004448        0xd obj/auxcom.o
                                0x193 (size before relaxing)
 .debug_str     0x00004455      0x1a4 obj/batchsys.o
                               0x299e (size before relaxing)
 .debug_str     0x000045f9      0x707 obj/cakey.o
                               0x3746 (size before relaxing)
 .debug_str     0x00004d00      0xe77 obj/comm.o
                               0x4917 (size before relaxing)
 .debug_str     0x00005b77      0x220 obj/constant.o
                                0x446 (size before relaxing)
 .debug_str     0x00005d97      0x8da obj/coremain.o
                               0x41db (size before relaxing)
 .debug_str     0x00006671      0x31e obj/ctlcfg.o
                               0x31f9 (size before relaxing)
 .debug_str     0x0000698f      0x24b obj/emvtrans.o
                               0x32a4 (size before relaxing)
 .debug_str     0x00006bda      0xd40 obj/ftptran.o
                               0x54f6 (size before relaxing)
 .debug_str     0x0000791a       0x96 obj/hardware.o
                               0x36d4 (size before relaxing)
 .debug_str     0x000079b0      0x3a4 obj/hashops.o
                               0x28b9 (size before relaxing)
 .debug_str     0x00007d54       0x80 obj/infodata.o
                               0x27a0 (size before relaxing)
 .debug_str     0x00007dd4      0x160 obj/inittran.o
                               0x385f (size before relaxing)
 .debug_str     0x00007f34      0x13e obj/kbdutil.o
                               0x2a24 (size before relaxing)
 .debug_str     0x00008072       0x4c obj/keydlltest.o
                               0x29d7 (size before relaxing)
 .debug_str     0x000080be       0xfd obj/lptutil.o
                               0x28da (size before relaxing)
 .debug_str     0x000081bb       0x4c obj/main.o
                               0x25f5 (size before relaxing)
 .debug_str     0x00008207        0xa obj/mcp.o
                                0x190 (size before relaxing)
 .debug_str     0x00008211       0x8f obj/menu.o
                               0x2adf (size before relaxing)
 .debug_str     0x000082a0      0x2ab obj/message.o
                                0x803 (size before relaxing)
 .debug_str     0x0000854b      0x23b obj/mxml-attr.o
                               0x26e2 (size before relaxing)
 .debug_str     0x00008786      0x12f obj/mxml-entity.o
                                0x4b6 (size before relaxing)
 .debug_str     0x000088b5      0x296 obj/mxml-file.o
                               0x29bd (size before relaxing)
 .debug_str     0x00008b4b       0xe1 obj/mxml-get.o
                                0x43e (size before relaxing)
 .debug_str     0x00008c2c       0x8f obj/mxml-node.o
                               0x274e (size before relaxing)
 .debug_str     0x00008cbb       0x5e obj/mxml-private.o
                               0x2745 (size before relaxing)
 .debug_str     0x00008d19       0x65 obj/mxml-search.o
                                0x3f4 (size before relaxing)
 .debug_str     0x00008d7e       0x3a obj/mxml-string.o
                               0x255a (size before relaxing)
 .debug_str     0x00008db8      0x2bb obj/param.o
                               0x33d1 (size before relaxing)
 .debug_str     0x00009073       0x89 obj/pkcs.o
                                0x2d7 (size before relaxing)
 .debug_str     0x000090fc      0x168 obj/remotedl.o
                               0x2b31 (size before relaxing)
 .debug_str     0x00009264       0x5d obj/rmenu.o
                               0x2763 (size before relaxing)
 .debug_str     0x000092c1      0x2f3 obj/stis.o
                               0x3200 (size before relaxing)
 .debug_str     0x000095b4      0x1e9 obj/sysutil.o
                               0x3ac3 (size before relaxing)
 .debug_str     0x0000979d      0x297 obj/termdata.o
                               0x3a4e (size before relaxing)
 .debug_str     0x00009a34       0x2c obj/toggle.o
                               0x27f5 (size before relaxing)
 .debug_str     0x00009a60       0x4e obj/tranutil.o
                               0x2928 (size before relaxing)
 .debug_str     0x00009aae      0x27d obj/wifi.o
                               0x3a42 (size before relaxing)
 .debug_str     0x00009d2b      0x56a obj/x509.o
                               0x2e40 (size before relaxing)
 .debug_str     0x0000a295       0xc3 obj/cstartup.o
                               0x2604 (size before relaxing)
 .debug_str     0x0000a358       0x20 obj/expect_send.o
                               0x24f6 (size before relaxing)
 .debug_str     0x0000a378      0x504 obj/libc.o
                               0x2aaf (size before relaxing)
 .debug_str     0x0000a87c      0x124 ../LibA5T1000/gcc\libsyscall.a(app_call.o)
                                0x1b1 (size before relaxing)
 .debug_str     0x0000a9a0       0x13 ../LibA5T1000/gcc\libsyscall.a(app_sw.o)
                                0x17e (size before relaxing)
 .debug_str     0x0000a9b3       0x36 ../LibA5T1000/gcc\libsyscall.a(sys_call.o)
                                0x1bb (size before relaxing)
 .debug_str     0x0000a9e9       0xff ../LibA5T1000/gcc\libbasecall.a(base_call.o)
                                0x1c1 (size before relaxing)
 .debug_str     0x0000aae8       0x55 ../LibA5T1000/gcc\libsptutil.a(bcd2bin.o)
                                0x176 (size before relaxing)
 .debug_str     0x0000ab3d       0x11 ../LibA5T1000/gcc\libsptutil.a(bcd2val.o)
                                0x147 (size before relaxing)
 .debug_str     0x0000ab4e       0x18 ../LibA5T1000/gcc\libsptutil.a(bcdadd.o)
                                0x15f (size before relaxing)
 .debug_str     0x0000ab66       0x10 ../LibA5T1000/gcc\libsptutil.a(bcdinc.o)
                                0x15a (size before relaxing)
 .debug_str     0x0000ab76       0x10 ../LibA5T1000/gcc\libsptutil.a(bcdsub.o)
                                0x15f (size before relaxing)
 .debug_str     0x0000ab86       0x11 ../LibA5T1000/gcc\libsptutil.a(bin2dec.o)
                                0x151 (size before relaxing)
 .debug_str     0x0000ab97       0x12 ../LibA5T1000/gcc\libsptutil.a(chkdigit.o)
                                0x15c (size before relaxing)
 .debug_str     0x0000aba9       0x10 ../LibA5T1000/gcc\libsptutil.a(chkdok.o)
                                0x16a (size before relaxing)
 .debug_str     0x0000abb9       0x12 ../LibA5T1000/gcc\libsptutil.a(compress.o)
                                0x169 (size before relaxing)
 .debug_str     0x0000abcb       0x22 ../LibA5T1000/gcc\libsptutil.a(crcccitt.o)
                                0x16e (size before relaxing)
 .debug_str     0x0000abed       0x12 ../LibA5T1000/gcc\libsptutil.a(dbin2asc.o)
                                0x1ac (size before relaxing)
 .debug_str     0x0000abff       0x11 ../LibA5T1000/gcc\libsptutil.a(dec2bin.o)
                                0x153 (size before relaxing)
 .debug_str     0x0000ac10       0x12 ../LibA5T1000/gcc\libsptutil.a(decbin8b.o)
                                0x15c (size before relaxing)
 .debug_str     0x0000ac22       0x15 ../LibA5T1000/gcc\libsptutil.a(fndb.o)
                                0x15a (size before relaxing)
 .debug_str     0x0000ac37       0x29 ../LibA5T1000/gcc\libsptutil.a(get_byte.o)
                                0x177 (size before relaxing)
 .debug_str     0x0000ac60       0x20 ../LibA5T1000/gcc\libsptutil.a(get_dist.o)
                                0x169 (size before relaxing)
 .debug_str     0x0000ac80       0x21 ../LibA5T1000/gcc\libsptutil.a(get_mem.o)
                                0x1b5 (size before relaxing)
 .debug_str     0x0000aca1       0x12 ../LibA5T1000/gcc\libsptutil.a(get_pptr.o)
                                0x151 (size before relaxing)
 .debug_str     0x0000acb3       0x11 ../LibA5T1000/gcc\libsptutil.a(hex_val.o)
                                0x154 (size before relaxing)
 .debug_str     0x0000acc4       0x1c ../LibA5T1000/gcc\libsptutil.a(inc_pptr.o)
                                0x171 (size before relaxing)
 .debug_str     0x0000ace0       0x12 ../LibA5T1000/gcc\libsptutil.a(lbin2asc.o)
                                0x1a5 (size before relaxing)
 .debug_str     0x0000acf2       0x13 ../LibA5T1000/gcc\libsptutil.a(lrc.o)
                                0x146 (size before relaxing)
 .debug_str     0x0000ad05       0x36 ../LibA5T1000/gcc\libsptutil.a(pack_b.o)
                                0x19c (size before relaxing)
 .debug_str     0x0000ad3b       0x12 ../LibA5T1000/gcc\libsptutil.a(pack_mem.o)
                                0x1b9 (size before relaxing)
 .debug_str     0x0000ad4d       0x1d ../LibA5T1000/gcc\libsptutil.a(pack_nul.o)
                                0x155 (size before relaxing)
 .debug_str     0x0000ad6a       0x10 ../LibA5T1000/gcc\libsptutil.a(peek_b.o)
                                0x156 (size before relaxing)
 .debug_str     0x0000ad7a       0x1f ../LibA5T1000/gcc\libsptutil.a(set_pptr.o)
                                0x182 (size before relaxing)
 .debug_str     0x0000ad99        0xe ../LibA5T1000/gcc\libsptutil.a(skpb.o)
                                0x15a (size before relaxing)
 .debug_str     0x0000ada7       0x19 ../LibA5T1000/gcc\libsptutil.a(split.o)
                                0x163 (size before relaxing)
 .debug_str     0x0000adc0       0x69 ../LibA5T1000/gcc\libsptutil.a(unix_tm.o)
                                0x221 (size before relaxing)
 .debug_str     0x0000ae29       0x11 ../LibA5T1000/gcc\libsptutil.a(val2bcd.o)
                                0x147 (size before relaxing)
 .debug_str     0x0000ae3a       0x12 ../LibA5T1000/gcc\libsptutil.a(hexdigit.o)
                                0x150 (size before relaxing)
 .debug_str     0x0000ae4c       0x11 ../LibA5T1000/gcc\libsptutil.a(pack_nb.o)
                                0x1c0 (size before relaxing)

.comment        0x00000000       0x70
 .comment       0x00000000       0x70 obj/GetCert.o
                                 0x71 (size before relaxing)
 .comment       0x00000000       0x71 obj/PhList.o
 .comment       0x00000000       0x71 obj/Phone.o
 .comment       0x00000000       0x71 obj/apmconfig.o
 .comment       0x00000000       0x71 obj/apmfunc.o
 .comment       0x00000000       0x71 obj/apmtest.o
 .comment       0x00000000       0x71 obj/auxcom.o
 .comment       0x00000000       0x71 obj/batchsys.o
 .comment       0x00000000       0x71 obj/cakey.o
 .comment       0x00000000       0x71 obj/comm.o
 .comment       0x00000000       0x71 obj/constant.o
 .comment       0x00000000       0x71 obj/coremain.o
 .comment       0x00000000       0x71 obj/ctlcfg.o
 .comment       0x00000000       0x71 obj/emvtrans.o
 .comment       0x00000000       0x71 obj/ftptran.o
 .comment       0x00000000       0x71 obj/hardware.o
 .comment       0x00000000       0x71 obj/hashops.o
 .comment       0x00000000       0x71 obj/infodata.o
 .comment       0x00000000       0x71 obj/inittran.o
 .comment       0x00000000       0x71 obj/kbdutil.o
 .comment       0x00000000       0x71 obj/keydlltest.o
 .comment       0x00000000       0x71 obj/lptutil.o
 .comment       0x00000000       0x71 obj/main.o
 .comment       0x00000000       0x71 obj/mcp.o
 .comment       0x00000000       0x71 obj/menu.o
 .comment       0x00000000       0x71 obj/message.o
 .comment       0x00000000       0x71 obj/mxml-attr.o
 .comment       0x00000000       0x71 obj/mxml-entity.o
 .comment       0x00000000       0x71 obj/mxml-file.o
 .comment       0x00000000       0x71 obj/mxml-get.o
 .comment       0x00000000       0x71 obj/mxml-node.o
 .comment       0x00000000       0x71 obj/mxml-private.o
 .comment       0x00000000       0x71 obj/mxml-search.o
 .comment       0x00000000       0x71 obj/mxml-string.o
 .comment       0x00000000       0x71 obj/param.o
 .comment       0x00000000       0x71 obj/pkcs.o
 .comment       0x00000000       0x71 obj/remotedl.o
 .comment       0x00000000       0x71 obj/rmenu.o
 .comment       0x00000000       0x71 obj/stis.o
 .comment       0x00000000       0x71 obj/sysutil.o
 .comment       0x00000000       0x71 obj/termdata.o
 .comment       0x00000000       0x71 obj/toggle.o
 .comment       0x00000000       0x71 obj/tranutil.o
 .comment       0x00000000       0x71 obj/wifi.o
 .comment       0x00000000       0x71 obj/x509.o
 .comment       0x00000000       0x71 obj/cstartup.o
 .comment       0x00000000       0x71 obj/expect_send.o
 .comment       0x00000000       0x71 obj/libc.o
 .comment       0x00000000       0x71 ../LibA5T1000/gcc\libsyscall.a(app_call.o)
 .comment       0x00000000       0x71 ../LibA5T1000/gcc\libsyscall.a(app_sw.o)
 .comment       0x00000000       0x71 ../LibA5T1000/gcc\libsyscall.a(sys_call.o)
 .comment       0x00000000       0x71 ../LibA5T1000/gcc\libbasecall.a(base_call.o)
 .comment       0x00000000       0x71 ../LibA5T1000/gcc\libsptutil.a(bcd2bin.o)
 .comment       0x00000000       0x71 ../LibA5T1000/gcc\libsptutil.a(bcd2val.o)
 .comment       0x00000000       0x71 ../LibA5T1000/gcc\libsptutil.a(bcdadd.o)
 .comment       0x00000000       0x71 ../LibA5T1000/gcc\libsptutil.a(bcdinc.o)
 .comment       0x00000000       0x71 ../LibA5T1000/gcc\libsptutil.a(bcdsub.o)
 .comment       0x00000000       0x71 ../LibA5T1000/gcc\libsptutil.a(bin2dec.o)
 .comment       0x00000000       0x71 ../LibA5T1000/gcc\libsptutil.a(chkdigit.o)
 .comment       0x00000000       0x71 ../LibA5T1000/gcc\libsptutil.a(chkdok.o)
 .comment       0x00000000       0x71 ../LibA5T1000/gcc\libsptutil.a(compress.o)
 .comment       0x00000000       0x71 ../LibA5T1000/gcc\libsptutil.a(crcccitt.o)
 .comment       0x00000000       0x71 ../LibA5T1000/gcc\libsptutil.a(dbin2asc.o)
 .comment       0x00000000       0x71 ../LibA5T1000/gcc\libsptutil.a(dec2bin.o)
 .comment       0x00000000       0x71 ../LibA5T1000/gcc\libsptutil.a(decbin8b.o)
 .comment       0x00000000       0x71 ../LibA5T1000/gcc\libsptutil.a(fndb.o)
 .comment       0x00000000       0x71 ../LibA5T1000/gcc\libsptutil.a(get_byte.o)
 .comment       0x00000000       0x71 ../LibA5T1000/gcc\libsptutil.a(get_dist.o)
 .comment       0x00000000       0x71 ../LibA5T1000/gcc\libsptutil.a(get_mem.o)
 .comment       0x00000000       0x71 ../LibA5T1000/gcc\libsptutil.a(get_pptr.o)
 .comment       0x00000000       0x71 ../LibA5T1000/gcc\libsptutil.a(hex_val.o)
 .comment       0x00000000       0x71 ../LibA5T1000/gcc\libsptutil.a(inc_pptr.o)
 .comment       0x00000000       0x71 ../LibA5T1000/gcc\libsptutil.a(lbin2asc.o)
 .comment       0x00000000       0x71 ../LibA5T1000/gcc\libsptutil.a(lrc.o)
 .comment       0x00000000       0x71 ../LibA5T1000/gcc\libsptutil.a(pack_b.o)
 .comment       0x00000000       0x71 ../LibA5T1000/gcc\libsptutil.a(pack_mem.o)
 .comment       0x00000000       0x71 ../LibA5T1000/gcc\libsptutil.a(pack_nul.o)
 .comment       0x00000000       0x71 ../LibA5T1000/gcc\libsptutil.a(peek_b.o)
 .comment       0x00000000       0x71 ../LibA5T1000/gcc\libsptutil.a(set_pptr.o)
 .comment       0x00000000       0x71 ../LibA5T1000/gcc\libsptutil.a(skpb.o)
 .comment       0x00000000       0x71 ../LibA5T1000/gcc\libsptutil.a(split.o)
 .comment       0x00000000       0x71 ../LibA5T1000/gcc\libsptutil.a(unix_tm.o)
 .comment       0x00000000       0x71 ../LibA5T1000/gcc\libsptutil.a(val2bcd.o)
 .comment       0x00000000       0x71 ../LibA5T1000/gcc\libsptutil.a(hexdigit.o)
 .comment       0x00000000       0x71 ../LibA5T1000/gcc\libsptutil.a(pack_nb.o)

.ARM.attributes
                0x00000000       0x35
 .ARM.attributes
                0x00000000       0x37 obj/GetCert.o
 .ARM.attributes
                0x00000037       0x37 obj/PhList.o
 .ARM.attributes
                0x0000006e       0x37 obj/Phone.o
 .ARM.attributes
                0x000000a5       0x37 obj/apmconfig.o
 .ARM.attributes
                0x000000dc       0x37 obj/apmfunc.o
 .ARM.attributes
                0x00000113       0x37 obj/apmtest.o
 .ARM.attributes
                0x0000014a       0x37 obj/auxcom.o
 .ARM.attributes
                0x00000181       0x37 obj/batchsys.o
 .ARM.attributes
                0x000001b8       0x37 obj/cakey.o
 .ARM.attributes
                0x000001ef       0x37 obj/comm.o
 .ARM.attributes
                0x00000226       0x37 obj/constant.o
 .ARM.attributes
                0x0000025d       0x37 obj/coremain.o
 .ARM.attributes
                0x00000294       0x37 obj/ctlcfg.o
 .ARM.attributes
                0x000002cb       0x37 obj/emvtrans.o
 .ARM.attributes
                0x00000302       0x37 obj/ftptran.o
 .ARM.attributes
                0x00000339       0x37 obj/hardware.o
 .ARM.attributes
                0x00000370       0x37 obj/hashops.o
 .ARM.attributes
                0x000003a7       0x37 obj/infodata.o
 .ARM.attributes
                0x000003de       0x37 obj/inittran.o
 .ARM.attributes
                0x00000415       0x37 obj/kbdutil.o
 .ARM.attributes
                0x0000044c       0x37 obj/keydlltest.o
 .ARM.attributes
                0x00000483       0x37 obj/lptutil.o
 .ARM.attributes
                0x000004ba       0x37 obj/main.o
 .ARM.attributes
                0x000004f1       0x37 obj/mcp.o
 .ARM.attributes
                0x00000528       0x37 obj/menu.o
 .ARM.attributes
                0x0000055f       0x37 obj/message.o
 .ARM.attributes
                0x00000596       0x37 obj/mxml-attr.o
 .ARM.attributes
                0x000005cd       0x37 obj/mxml-entity.o
 .ARM.attributes
                0x00000604       0x37 obj/mxml-file.o
 .ARM.attributes
                0x0000063b       0x37 obj/mxml-get.o
 .ARM.attributes
                0x00000672       0x37 obj/mxml-node.o
 .ARM.attributes
                0x000006a9       0x37 obj/mxml-private.o
 .ARM.attributes
                0x000006e0       0x37 obj/mxml-search.o
 .ARM.attributes
                0x00000717       0x37 obj/mxml-string.o
 .ARM.attributes
                0x0000074e       0x37 obj/param.o
 .ARM.attributes
                0x00000785       0x37 obj/pkcs.o
 .ARM.attributes
                0x000007bc       0x37 obj/remotedl.o
 .ARM.attributes
                0x000007f3       0x37 obj/rmenu.o
 .ARM.attributes
                0x0000082a       0x37 obj/stis.o
 .ARM.attributes
                0x00000861       0x37 obj/sysutil.o
 .ARM.attributes
                0x00000898       0x37 obj/termdata.o
 .ARM.attributes
                0x000008cf       0x37 obj/toggle.o
 .ARM.attributes
                0x00000906       0x37 obj/tranutil.o
 .ARM.attributes
                0x0000093d       0x37 obj/wifi.o
 .ARM.attributes
                0x00000974       0x37 obj/x509.o
 .ARM.attributes
                0x000009ab       0x37 obj/cstartup.o
 .ARM.attributes
                0x000009e2       0x37 obj/expect_send.o
 .ARM.attributes
                0x00000a19       0x37 obj/libc.o
 .ARM.attributes
                0x00000a50       0x37 ../LibA5T1000/gcc\libsyscall.a(app_call.o)
 .ARM.attributes
                0x00000a87       0x37 ../LibA5T1000/gcc\libsyscall.a(app_sw.o)
 .ARM.attributes
                0x00000abe       0x37 ../LibA5T1000/gcc\libsyscall.a(sys_call.o)
 .ARM.attributes
                0x00000af5       0x37 ../LibA5T1000/gcc\libbasecall.a(base_call.o)
 .ARM.attributes
                0x00000b2c       0x37 ../LibA5T1000/gcc\libsptutil.a(bcd2bin.o)
 .ARM.attributes
                0x00000b63       0x37 ../LibA5T1000/gcc\libsptutil.a(bcd2val.o)
 .ARM.attributes
                0x00000b9a       0x37 ../LibA5T1000/gcc\libsptutil.a(bcdadd.o)
 .ARM.attributes
                0x00000bd1       0x37 ../LibA5T1000/gcc\libsptutil.a(bcdinc.o)
 .ARM.attributes
                0x00000c08       0x37 ../LibA5T1000/gcc\libsptutil.a(bcdsub.o)
 .ARM.attributes
                0x00000c3f       0x37 ../LibA5T1000/gcc\libsptutil.a(bin2dec.o)
 .ARM.attributes
                0x00000c76       0x37 ../LibA5T1000/gcc\libsptutil.a(chkdigit.o)
 .ARM.attributes
                0x00000cad       0x37 ../LibA5T1000/gcc\libsptutil.a(chkdok.o)
 .ARM.attributes
                0x00000ce4       0x37 ../LibA5T1000/gcc\libsptutil.a(compress.o)
 .ARM.attributes
                0x00000d1b       0x37 ../LibA5T1000/gcc\libsptutil.a(crcccitt.o)
 .ARM.attributes
                0x00000d52       0x37 ../LibA5T1000/gcc\libsptutil.a(dbin2asc.o)
 .ARM.attributes
                0x00000d89       0x37 ../LibA5T1000/gcc\libsptutil.a(dec2bin.o)
 .ARM.attributes
                0x00000dc0       0x37 ../LibA5T1000/gcc\libsptutil.a(decbin8b.o)
 .ARM.attributes
                0x00000df7       0x37 ../LibA5T1000/gcc\libsptutil.a(fndb.o)
 .ARM.attributes
                0x00000e2e       0x37 ../LibA5T1000/gcc\libsptutil.a(get_byte.o)
 .ARM.attributes
                0x00000e65       0x37 ../LibA5T1000/gcc\libsptutil.a(get_dist.o)
 .ARM.attributes
                0x00000e9c       0x37 ../LibA5T1000/gcc\libsptutil.a(get_mem.o)
 .ARM.attributes
                0x00000ed3       0x37 ../LibA5T1000/gcc\libsptutil.a(get_pptr.o)
 .ARM.attributes
                0x00000f0a       0x37 ../LibA5T1000/gcc\libsptutil.a(hex_val.o)
 .ARM.attributes
                0x00000f41       0x37 ../LibA5T1000/gcc\libsptutil.a(inc_pptr.o)
 .ARM.attributes
                0x00000f78       0x37 ../LibA5T1000/gcc\libsptutil.a(lbin2asc.o)
 .ARM.attributes
                0x00000faf       0x37 ../LibA5T1000/gcc\libsptutil.a(lrc.o)
 .ARM.attributes
                0x00000fe6       0x37 ../LibA5T1000/gcc\libsptutil.a(pack_b.o)
 .ARM.attributes
                0x0000101d       0x37 ../LibA5T1000/gcc\libsptutil.a(pack_mem.o)
 .ARM.attributes
                0x00001054       0x37 ../LibA5T1000/gcc\libsptutil.a(pack_nul.o)
 .ARM.attributes
                0x0000108b       0x37 ../LibA5T1000/gcc\libsptutil.a(peek_b.o)
 .ARM.attributes
                0x000010c2       0x37 ../LibA5T1000/gcc\libsptutil.a(set_pptr.o)
 .ARM.attributes
                0x000010f9       0x37 ../LibA5T1000/gcc\libsptutil.a(skpb.o)
 .ARM.attributes
                0x00001130       0x37 ../LibA5T1000/gcc\libsptutil.a(split.o)
 .ARM.attributes
                0x00001167       0x37 ../LibA5T1000/gcc\libsptutil.a(unix_tm.o)
 .ARM.attributes
                0x0000119e       0x37 ../LibA5T1000/gcc\libsptutil.a(val2bcd.o)
 .ARM.attributes
                0x000011d5       0x37 ../LibA5T1000/gcc\libsptutil.a(hexdigit.o)
 .ARM.attributes
                0x0000120c       0x37 ../LibA5T1000/gcc\libsptutil.a(pack_nb.o)
 .ARM.attributes
                0x00001243       0x30 C:\DevTools\gcc_v49_2014q4/arm-none-eabi/lib/thumb\libc.a(lib_a-atoi.o)
 .ARM.attributes
                0x00001273       0x30 C:\DevTools\gcc_v49_2014q4/arm-none-eabi/lib/thumb\libc.a(lib_a-ctype_.o)
 .ARM.attributes
                0x000012a3       0x30 C:\DevTools\gcc_v49_2014q4/arm-none-eabi/lib/thumb\libc.a(lib_a-memcmp.o)
 .ARM.attributes
                0x000012d3       0x30 C:\DevTools\gcc_v49_2014q4/arm-none-eabi/lib/thumb\libc.a(lib_a-memcpy.o)
 .ARM.attributes
                0x00001303       0x30 C:\DevTools\gcc_v49_2014q4/arm-none-eabi/lib/thumb\libc.a(lib_a-memmove.o)
 .ARM.attributes
                0x00001333       0x30 C:\DevTools\gcc_v49_2014q4/arm-none-eabi/lib/thumb\libc.a(lib_a-memset.o)
 .ARM.attributes
                0x00001363       0x30 C:\DevTools\gcc_v49_2014q4/arm-none-eabi/lib/thumb\libc.a(lib_a-strcat.o)
 .ARM.attributes
                0x00001393       0x30 C:\DevTools\gcc_v49_2014q4/arm-none-eabi/lib/thumb\libc.a(lib_a-strchr.o)
 .ARM.attributes
                0x000013c3       0x16 C:\DevTools\gcc_v49_2014q4/arm-none-eabi/lib/thumb\libc.a(lib_a-strcmp.o)
 .ARM.attributes
                0x000013d9       0x30 C:\DevTools\gcc_v49_2014q4/arm-none-eabi/lib/thumb\libc.a(lib_a-strcpy.o)
 .ARM.attributes
                0x00001409       0x30 C:\DevTools\gcc_v49_2014q4/arm-none-eabi/lib/thumb\libc.a(lib_a-strlen.o)
 .ARM.attributes
                0x00001439       0x30 C:\DevTools\gcc_v49_2014q4/arm-none-eabi/lib/thumb\libc.a(lib_a-strncmp.o)
 .ARM.attributes
                0x00001469       0x30 C:\DevTools\gcc_v49_2014q4/arm-none-eabi/lib/thumb\libc.a(lib_a-strncpy.o)
 .ARM.attributes
                0x00001499       0x30 C:\DevTools\gcc_v49_2014q4/arm-none-eabi/lib/thumb\libc.a(lib_a-strtod.o)
 .ARM.attributes
                0x000014c9       0x30 C:\DevTools\gcc_v49_2014q4/arm-none-eabi/lib/thumb\libc.a(lib_a-strtol.o)
 .ARM.attributes
                0x000014f9       0x30 C:\DevTools\gcc_v49_2014q4/arm-none-eabi/lib/thumb\libc.a(lib_a-gdtoa-gethex.o)
 .ARM.attributes
                0x00001529       0x30 C:\DevTools\gcc_v49_2014q4/arm-none-eabi/lib/thumb\libc.a(lib_a-gdtoa-hexnan.o)
 .ARM.attributes
                0x00001559       0x30 C:\DevTools\gcc_v49_2014q4/arm-none-eabi/lib/thumb\libc.a(lib_a-impure.o)
 .ARM.attributes
                0x00001589       0x30 C:\DevTools\gcc_v49_2014q4/arm-none-eabi/lib/thumb\libc.a(lib_a-locale.o)
 .ARM.attributes
                0x000015b9       0x30 C:\DevTools\gcc_v49_2014q4/arm-none-eabi/lib/thumb\libc.a(lib_a-mprec.o)
 .ARM.attributes
                0x000015e9       0x30 C:\DevTools\gcc_v49_2014q4/arm-none-eabi/lib/thumb\libc.a(lib_a-s_fpclassify.o)
 .ARM.attributes
                0x00001619       0x30 C:\DevTools\gcc_v49_2014q4/arm-none-eabi/lib/thumb\libc.a(lib_a-sf_nan.o)
 .ARM.attributes
                0x00001649       0x30 C:\DevTools\gcc_v49_2014q4/arm-none-eabi/lib/thumb\libc.a(lib_a-callocr.o)
 .ARM.attributes
                0x00001679       0x30 C:\DevTools\gcc_v49_2014q4/arm-none-eabi/lib/thumb\libc.a(lib_a-mallocr.o)
 .ARM.attributes
                0x000016a9       0x30 C:\DevTools\gcc_v49_2014q4/arm-none-eabi/lib/thumb\libc.a(lib_a-mlock.o)
 .ARM.attributes
                0x000016d9       0x30 C:\DevTools\gcc_v49_2014q4/arm-none-eabi/lib/thumb\libc.a(lib_a-freer.o)
 .ARM.attributes
                0x00001709       0x18 c:/devtools/gcc_v49_2014q4/bin/../lib/gcc/arm-none-eabi/4.9.3\libgcc.a(_udivsi3.o)
 .ARM.attributes
                0x00001721       0x18 c:/devtools/gcc_v49_2014q4/bin/../lib/gcc/arm-none-eabi/4.9.3\libgcc.a(_divsi3.o)
 .ARM.attributes
                0x00001739       0x18 c:/devtools/gcc_v49_2014q4/bin/../lib/gcc/arm-none-eabi/4.9.3\libgcc.a(_dvmd_tls.o)
 .ARM.attributes
                0x00001751       0x18 c:/devtools/gcc_v49_2014q4/bin/../lib/gcc/arm-none-eabi/4.9.3\libgcc.a(_arm_addsubdf3.o)
 .ARM.attributes
                0x00001769       0x18 c:/devtools/gcc_v49_2014q4/bin/../lib/gcc/arm-none-eabi/4.9.3\libgcc.a(_arm_muldivdf3.o)
 .ARM.attributes
                0x00001781       0x18 c:/devtools/gcc_v49_2014q4/bin/../lib/gcc/arm-none-eabi/4.9.3\libgcc.a(_arm_cmpdf2.o)
 .ARM.attributes
                0x00001799       0x18 c:/devtools/gcc_v49_2014q4/bin/../lib/gcc/arm-none-eabi/4.9.3\libgcc.a(_arm_fixdfsi.o)
 .ARM.attributes
                0x000017b1       0x18 c:/devtools/gcc_v49_2014q4/bin/../lib/gcc/arm-none-eabi/4.9.3\libgcc.a(_arm_fixunsdfsi.o)
 .ARM.attributes
                0x000017c9       0x18 c:/devtools/gcc_v49_2014q4/bin/../lib/gcc/arm-none-eabi/4.9.3\libgcc.a(_arm_truncdfsf2.o)
 .ARM.attributes
                0x000017e1       0x18 c:/devtools/gcc_v49_2014q4/bin/../lib/gcc/arm-none-eabi/4.9.3\libgcc.a(_aeabi_ldivmod.o)
 .ARM.attributes
                0x000017f9       0x18 c:/devtools/gcc_v49_2014q4/bin/../lib/gcc/arm-none-eabi/4.9.3\libgcc.a(_aeabi_uldivmod.o)
 .ARM.attributes
                0x00001811       0x30 c:/devtools/gcc_v49_2014q4/bin/../lib/gcc/arm-none-eabi/4.9.3\libgcc.a(_fixdfdi.o)
 .ARM.attributes
                0x00001841       0x30 c:/devtools/gcc_v49_2014q4/bin/../lib/gcc/arm-none-eabi/4.9.3\libgcc.a(_fixunsdfdi.o)
 .ARM.attributes
                0x00001871       0x30 c:/devtools/gcc_v49_2014q4/bin/../lib/gcc/arm-none-eabi/4.9.3\libgcc.a(bpabi.o)
 .ARM.attributes
                0x000018a1       0x30 c:/devtools/gcc_v49_2014q4/bin/../lib/gcc/arm-none-eabi/4.9.3\libgcc.a(_divdi3.o)
 .ARM.attributes
                0x000018d1       0x30 c:/devtools/gcc_v49_2014q4/bin/../lib/gcc/arm-none-eabi/4.9.3\libgcc.a(_udivdi3.o)
 .ARM.attributes
                0x00001901       0x18 c:/devtools/gcc_v49_2014q4/bin/../lib/gcc/arm-none-eabi/4.9.3\libgcc.a(_clzdi2.o)
 .ARM.attributes
                0x00001919       0x18 c:/devtools/gcc_v49_2014q4/bin/../lib/gcc/arm-none-eabi/4.9.3\libgcc.a(_clzsi2.o)

.debug_frame    0x00000000     0x5be4
 .debug_frame   0x00000000       0xc8 obj/GetCert.o
 .debug_frame   0x000000c8      0x12c obj/apmconfig.o
 .debug_frame   0x000001f4       0xa0 obj/apmfunc.o
 .debug_frame   0x00000294       0x80 obj/apmtest.o
 .debug_frame   0x00000314      0x2e0 obj/batchsys.o
 .debug_frame   0x000005f4       0x44 obj/cakey.o
 .debug_frame   0x00000638      0x440 obj/comm.o
 .debug_frame   0x00000a78      0x814 obj/coremain.o
 .debug_frame   0x0000128c      0x1cc obj/ctlcfg.o
 .debug_frame   0x00001458      0x27c obj/emvtrans.o
 .debug_frame   0x000016d4      0x5e0 obj/ftptran.o
 .debug_frame   0x00001cb4       0xf4 obj/hardware.o
 .debug_frame   0x00001da8      0x1dc obj/hashops.o
 .debug_frame   0x00001f84       0x70 obj/infodata.o
 .debug_frame   0x00001ff4       0xac obj/inittran.o
 .debug_frame   0x000020a0      0x19c obj/kbdutil.o
 .debug_frame   0x0000223c       0x68 obj/keydlltest.o
 .debug_frame   0x000022a4      0x1b0 obj/lptutil.o
 .debug_frame   0x00002454       0x38 obj/main.o
 .debug_frame   0x0000248c       0x48 obj/menu.o
 .debug_frame   0x000024d4      0x104 obj/mxml-attr.o
 .debug_frame   0x000025d8       0xc0 obj/mxml-entity.o
 .debug_frame   0x00002698      0x16c obj/mxml-file.o
 .debug_frame   0x00002804      0x100 obj/mxml-get.o
 .debug_frame   0x00002904      0x210 obj/mxml-node.o
 .debug_frame   0x00002b14       0x9c obj/mxml-private.o
 .debug_frame   0x00002bb0       0x8c obj/mxml-search.o
 .debug_frame   0x00002c3c      0x100 obj/mxml-string.o
 .debug_frame   0x00002d3c      0x288 obj/param.o
 .debug_frame   0x00002fc4      0x108 obj/pkcs.o
 .debug_frame   0x000030cc      0x1c8 obj/remotedl.o
 .debug_frame   0x00003294       0x48 obj/rmenu.o
 .debug_frame   0x000032dc      0x4cc obj/stis.o
 .debug_frame   0x000037a8      0x480 obj/sysutil.o
 .debug_frame   0x00003c28      0x6bc obj/termdata.o
 .debug_frame   0x000042e4       0x5c obj/toggle.o
 .debug_frame   0x00004340      0x11c obj/tranutil.o
 .debug_frame   0x0000445c      0x100 obj/wifi.o
 .debug_frame   0x0000455c      0x268 obj/x509.o
 .debug_frame   0x000047c4       0x58 obj/cstartup.o
 .debug_frame   0x0000481c       0x68 obj/expect_send.o
 .debug_frame   0x00004884      0x1d4 obj/libc.o
 .debug_frame   0x00004a58       0x2c ../LibA5T1000/gcc\libsyscall.a(app_call.o)
 .debug_frame   0x00004a84       0x20 ../LibA5T1000/gcc\libsyscall.a(app_sw.o)
 .debug_frame   0x00004aa4       0x50 ../LibA5T1000/gcc\libsyscall.a(sys_call.o)
 .debug_frame   0x00004af4       0x50 ../LibA5T1000/gcc\libbasecall.a(base_call.o)
 .debug_frame   0x00004b44       0x58 ../LibA5T1000/gcc\libsptutil.a(bcd2bin.o)
 .debug_frame   0x00004b9c       0x20 ../LibA5T1000/gcc\libsptutil.a(bcd2val.o)
 .debug_frame   0x00004bbc       0x38 ../LibA5T1000/gcc\libsptutil.a(bcdadd.o)
 .debug_frame   0x00004bf4       0x30 ../LibA5T1000/gcc\libsptutil.a(bcdinc.o)
 .debug_frame   0x00004c24       0x38 ../LibA5T1000/gcc\libsptutil.a(bcdsub.o)
 .debug_frame   0x00004c5c       0x30 ../LibA5T1000/gcc\libsptutil.a(bin2dec.o)
 .debug_frame   0x00004c8c       0x2c ../LibA5T1000/gcc\libsptutil.a(chkdigit.o)
 .debug_frame   0x00004cb8       0x2c ../LibA5T1000/gcc\libsptutil.a(chkdok.o)
 .debug_frame   0x00004ce4       0x30 ../LibA5T1000/gcc\libsptutil.a(compress.o)
 .debug_frame   0x00004d14       0x3c ../LibA5T1000/gcc\libsptutil.a(crcccitt.o)
 .debug_frame   0x00004d50       0x38 ../LibA5T1000/gcc\libsptutil.a(dbin2asc.o)
 .debug_frame   0x00004d88       0x2c ../LibA5T1000/gcc\libsptutil.a(dec2bin.o)
 .debug_frame   0x00004db4       0x34 ../LibA5T1000/gcc\libsptutil.a(decbin8b.o)
 .debug_frame   0x00004de8       0x2c ../LibA5T1000/gcc\libsptutil.a(fndb.o)
 .debug_frame   0x00004e14       0x78 ../LibA5T1000/gcc\libsptutil.a(get_byte.o)
 .debug_frame   0x00004e8c       0x20 ../LibA5T1000/gcc\libsptutil.a(get_dist.o)
 .debug_frame   0x00004eac       0x30 ../LibA5T1000/gcc\libsptutil.a(get_mem.o)
 .debug_frame   0x00004edc       0x20 ../LibA5T1000/gcc\libsptutil.a(get_pptr.o)
 .debug_frame   0x00004efc       0x20 ../LibA5T1000/gcc\libsptutil.a(hex_val.o)
 .debug_frame   0x00004f1c       0x2c ../LibA5T1000/gcc\libsptutil.a(inc_pptr.o)
 .debug_frame   0x00004f48       0x30 ../LibA5T1000/gcc\libsptutil.a(lbin2asc.o)
 .debug_frame   0x00004f78       0x20 ../LibA5T1000/gcc\libsptutil.a(lrc.o)
 .debug_frame   0x00004f98       0x9c ../LibA5T1000/gcc\libsptutil.a(pack_b.o)
 .debug_frame   0x00005034       0x30 ../LibA5T1000/gcc\libsptutil.a(pack_mem.o)
 .debug_frame   0x00005064       0x20 ../LibA5T1000/gcc\libsptutil.a(pack_nul.o)
 .debug_frame   0x00005084       0x20 ../LibA5T1000/gcc\libsptutil.a(peek_b.o)
 .debug_frame   0x000050a4       0x30 ../LibA5T1000/gcc\libsptutil.a(set_pptr.o)
 .debug_frame   0x000050d4       0x2c ../LibA5T1000/gcc\libsptutil.a(skpb.o)
 .debug_frame   0x00005100       0x30 ../LibA5T1000/gcc\libsptutil.a(split.o)
 .debug_frame   0x00005130       0xa4 ../LibA5T1000/gcc\libsptutil.a(unix_tm.o)
 .debug_frame   0x000051d4       0x30 ../LibA5T1000/gcc\libsptutil.a(val2bcd.o)
 .debug_frame   0x00005204       0x20 ../LibA5T1000/gcc\libsptutil.a(hexdigit.o)
 .debug_frame   0x00005224       0x30 ../LibA5T1000/gcc\libsptutil.a(pack_nb.o)
 .debug_frame   0x00005254       0x40 C:\DevTools\gcc_v49_2014q4/arm-none-eabi/lib/thumb\libc.a(lib_a-atoi.o)
 .debug_frame   0x00005294       0x2c C:\DevTools\gcc_v49_2014q4/arm-none-eabi/lib/thumb\libc.a(lib_a-memcmp.o)
 .debug_frame   0x000052c0       0x2c C:\DevTools\gcc_v49_2014q4/arm-none-eabi/lib/thumb\libc.a(lib_a-memcpy.o)
 .debug_frame   0x000052ec       0x2c C:\DevTools\gcc_v49_2014q4/arm-none-eabi/lib/thumb\libc.a(lib_a-memmove.o)
 .debug_frame   0x00005318       0x2c C:\DevTools\gcc_v49_2014q4/arm-none-eabi/lib/thumb\libc.a(lib_a-memset.o)
 .debug_frame   0x00005344       0x2c C:\DevTools\gcc_v49_2014q4/arm-none-eabi/lib/thumb\libc.a(lib_a-strcat.o)
 .debug_frame   0x00005370       0x2c C:\DevTools\gcc_v49_2014q4/arm-none-eabi/lib/thumb\libc.a(lib_a-strchr.o)
 .debug_frame   0x0000539c       0x20 C:\DevTools\gcc_v49_2014q4/arm-none-eabi/lib/thumb\libc.a(lib_a-strcpy.o)
 .debug_frame   0x000053bc       0x28 C:\DevTools\gcc_v49_2014q4/arm-none-eabi/lib/thumb\libc.a(lib_a-strlen.o)
 .debug_frame   0x000053e4       0x2c C:\DevTools\gcc_v49_2014q4/arm-none-eabi/lib/thumb\libc.a(lib_a-strncmp.o)
 .debug_frame   0x00005410       0x2c C:\DevTools\gcc_v49_2014q4/arm-none-eabi/lib/thumb\libc.a(lib_a-strncpy.o)
 .debug_frame   0x0000543c       0x8c C:\DevTools\gcc_v49_2014q4/arm-none-eabi/lib/thumb\libc.a(lib_a-strtod.o)
 .debug_frame   0x000054c8       0x58 C:\DevTools\gcc_v49_2014q4/arm-none-eabi/lib/thumb\libc.a(lib_a-strtol.o)
 .debug_frame   0x00005520       0x60 C:\DevTools\gcc_v49_2014q4/arm-none-eabi/lib/thumb\libc.a(lib_a-gdtoa-gethex.o)
 .debug_frame   0x00005580       0x3c C:\DevTools\gcc_v49_2014q4/arm-none-eabi/lib/thumb\libc.a(lib_a-gdtoa-hexnan.o)
 .debug_frame   0x000055bc       0xa4 C:\DevTools\gcc_v49_2014q4/arm-none-eabi/lib/thumb\libc.a(lib_a-locale.o)
 .debug_frame   0x00005660      0x25c C:\DevTools\gcc_v49_2014q4/arm-none-eabi/lib/thumb\libc.a(lib_a-mprec.o)
 .debug_frame   0x000058bc       0x28 C:\DevTools\gcc_v49_2014q4/arm-none-eabi/lib/thumb\libc.a(lib_a-s_fpclassify.o)
 .debug_frame   0x000058e4       0x20 C:\DevTools\gcc_v49_2014q4/arm-none-eabi/lib/thumb\libc.a(lib_a-sf_nan.o)
 .debug_frame   0x00005904       0x28 C:\DevTools\gcc_v49_2014q4/arm-none-eabi/lib/thumb\libc.a(lib_a-callocr.o)
 .debug_frame   0x0000592c       0x3c C:\DevTools\gcc_v49_2014q4/arm-none-eabi/lib/thumb\libc.a(lib_a-mallocr.o)
 .debug_frame   0x00005968       0x30 C:\DevTools\gcc_v49_2014q4/arm-none-eabi/lib/thumb\libc.a(lib_a-mlock.o)
 .debug_frame   0x00005998       0x54 C:\DevTools\gcc_v49_2014q4/arm-none-eabi/lib/thumb\libc.a(lib_a-freer.o)
 .debug_frame   0x000059ec       0x20 c:/devtools/gcc_v49_2014q4/bin/../lib/gcc/arm-none-eabi/4.9.3\libgcc.a(_udivsi3.o)
 .debug_frame   0x00005a0c       0x20 c:/devtools/gcc_v49_2014q4/bin/../lib/gcc/arm-none-eabi/4.9.3\libgcc.a(_divsi3.o)
 .debug_frame   0x00005a2c       0x28 c:/devtools/gcc_v49_2014q4/bin/../lib/gcc/arm-none-eabi/4.9.3\libgcc.a(_aeabi_ldivmod.o)
 .debug_frame   0x00005a54       0x28 c:/devtools/gcc_v49_2014q4/bin/../lib/gcc/arm-none-eabi/4.9.3\libgcc.a(_aeabi_uldivmod.o)
 .debug_frame   0x00005a7c       0x44 c:/devtools/gcc_v49_2014q4/bin/../lib/gcc/arm-none-eabi/4.9.3\libgcc.a(_fixdfdi.o)
 .debug_frame   0x00005ac0       0x34 c:/devtools/gcc_v49_2014q4/bin/../lib/gcc/arm-none-eabi/4.9.3\libgcc.a(_fixunsdfdi.o)
 .debug_frame   0x00005af4       0x68 c:/devtools/gcc_v49_2014q4/bin/../lib/gcc/arm-none-eabi/4.9.3\libgcc.a(bpabi.o)
 .debug_frame   0x00005b5c       0x48 c:/devtools/gcc_v49_2014q4/bin/../lib/gcc/arm-none-eabi/4.9.3\libgcc.a(_divdi3.o)
 .debug_frame   0x00005ba4       0x40 c:/devtools/gcc_v49_2014q4/bin/../lib/gcc/arm-none-eabi/4.9.3\libgcc.a(_udivdi3.o)

Cross Reference Table

Symbol                                            File
AcceptBeep                                        obj/sysutil.o
                                                  obj/tranutil.o
                                                  obj/termdata.o
                                                  obj/ftptran.o
                                                  obj/coremain.o
                                                  obj/apmtest.o
                                                  obj/apmfunc.o
AcqTableParam                                     obj/param.o
Adv2Bookmark                                      obj/lptutil.o
AppListUploadReq                                  obj/termdata.o
                                                  obj/remotedl.o
BatSysClear                                       obj/batchsys.o
                                                  obj/coremain.o
BatSysClose                                       obj/batchsys.o
BatSysInit                                        obj/batchsys.o
                                                  obj/inittran.o
                                                  obj/ftptran.o
                                                  obj/coremain.o
BatchFull                                         obj/batchsys.o
                                                  obj/coremain.o
BuildTraceList                                    obj/batchsys.o
CAKeyEcr                                          obj/GetCert.o
CAKeyHost                                         obj/GetCert.o
CAKeyTMS                                          obj/GetCert.o
CTLClrDnloadBuf                                   obj/ctlcfg.o
                                                  obj/param.o
                                                  obj/ftptran.o
CTLData2DnloadBuf                                 obj/ctlcfg.o
                                                  obj/param.o
CTLDataUpdate                                     obj/ctlcfg.o
                                                  obj/param.o
                                                  obj/ftptran.o
CTLKillDnloadBuf                                  obj/ctlcfg.o
                                                  obj/param.o
                                                  obj/ftptran.o
CTLUtilStart                                      obj/ctlcfg.o
                                                  obj/coremain.o
CalCheckDigit                                     obj/apmtest.o
                                                  obj/apmfunc.o
CalFileChksum                                     obj/ftptran.o
CardTableParam                                    obj/param.o
ChangeApp                                         obj/coremain.o
CheckDLLFile                                      obj/ftptran.o
CheckDLLFileLine                                  obj/ftptran.o
CheckEDCFile                                      obj/ftptran.o
CheckEMVAppFile                                   obj/ftptran.o
CheckEMVKeyFile                                   obj/ftptran.o
CheckHostRsp                                      obj/inittran.o
CheckNodeName                                     obj/param.o
CheckPointerAddr                                  obj/sysutil.o
                                                  obj/termdata.o
                                                  obj/stis.o
                                                  obj/kbdutil.o
                                                  obj/ftptran.o
                                                  obj/comm.o
                                                  obj/batchsys.o
CheckTMSExt                                       obj/ftptran.o
CheckXmlParam                                     obj/ftptran.o
CleanStisTable                                    obj/stis.o
                                                  obj/coremain.o
CleanTermData                                     obj/termdata.o
                                                  obj/coremain.o
ClearKeyin                                        obj/kbdutil.o
                                                  obj/tranutil.o
                                                  obj/termdata.o
                                                  obj/coremain.o
ClearResponse                                     obj/tranutil.o
                                                  obj/inittran.o
ClearRevRec                                       obj/batchsys.o
                                                  obj/coremain.o
ClientCert                                        obj/GetCert.o
ClientPriKey                                      obj/GetCert.o
CloseAllHw                                        obj/hardware.o
CloseExParamFiles                                 obj/stis.o
                                                  obj/inittran.o
                                                  obj/apmfunc.o
CloseSTISFiles                                    obj/stis.o
                                                  obj/param.o
                                                  obj/inittran.o
                                                  obj/ftptran.o
                                                  obj/apmfunc.o
CloseTermData                                     obj/termdata.o
                                                  obj/apmfunc.o
ClrCTLKey                                         obj/ctlcfg.o
                                                  obj/apmfunc.o
ClrCTLParam                                       obj/ctlcfg.o
                                                  obj/apmfunc.o
ClrEMVKey                                         obj/emvtrans.o
                                                  obj/apmfunc.o
ClrEMVParam                                       obj/emvtrans.o
                                                  obj/apmfunc.o
CommInit                                          obj/comm.o
                                                  obj/coremain.o
CompareEDCDateChksum                              obj/termdata.o
                                                  obj/ftptran.o
CompareEMVAPPDateChksum                           obj/termdata.o
                                                  obj/ftptran.o
CompareEMVKEYDateChksum                           obj/termdata.o
                                                  obj/ftptran.o
CompareLXAPPDateChksum                            obj/termdata.o
CompareXAPPDateChksum                             obj/termdata.o
CompressInputData                                 obj/termdata.o
CompressInputFData                                obj/termdata.o
ConfigTermIP                                      obj/apmconfig.o
                                                  obj/apmfunc.o
ConfigTermIP2                                     obj/apmconfig.o
                                                  obj/wifi.o
ConnectFtp                                        obj/ftptran.o
ConnectOK                                         obj/comm.o
                                                  obj/inittran.o
                                                  obj/coremain.o
ConnectPPP                                        obj/comm.o
                                                  obj/hardware.o
                                                  obj/ftptran.o
ConvDateTime                                      obj/sysutil.o
ConvDecimal                                       obj/emvtrans.o
                                                  obj/ctlcfg.o
Coremain                                          obj/coremain.o
                                                  obj/main.o
CreateExParamFiles                                obj/stis.o
                                                  obj/inittran.o
                                                  obj/apmfunc.o
CreateFTPMirrorList                               obj/ftptran.o
CreateSTISFiles                                   obj/stis.o
                                                  obj/param.o
                                                  obj/inittran.o
                                                  obj/ftptran.o
                                                  obj/apmfunc.o
CreateTermData                                    obj/termdata.o
                                                  obj/apmfunc.o
CtlAppParam                                       obj/param.o
DWGet                                             obj/sysutil.o
                                                  obj/inittran.o
                                                  obj/ftptran.o
                                                  obj/emvtrans.o
DebugModeON                                       obj/termdata.o
                                                  obj/inittran.o
DebugPoint                                        obj/sysutil.o
DebugTcpCfg                                       obj/ftptran.o
Delay10ms                                         obj/sysutil.o
                                                  obj/wifi.o
                                                  obj/lptutil.o
                                                  obj/ftptran.o
                                                  obj/comm.o
Delay1Sec                                         obj/sysutil.o
                                                  obj/tranutil.o
                                                  obj/lptutil.o
                                                  obj/inittran.o
                                                  obj/hardware.o
                                                  obj/ftptran.o
                                                  obj/comm.o
                                                  obj/batchsys.o
                                                  obj/apmfunc.o
DeleteRemoteDLFile                                obj/remotedl.o
DisconnectFtpData                                 obj/ftptran.o
DisconnectPPP                                     obj/comm.o
                                                  obj/hardware.o
                                                  obj/ftptran.o
Disp2x16Msg                                       obj/sysutil.o
                                                  obj/termdata.o
                                                  obj/lptutil.o
                                                  obj/inittran.o
                                                  obj/ftptran.o
                                                  obj/coremain.o
                                                  obj/comm.o
                                                  obj/apmfunc.o
DispHeader                                        obj/tranutil.o
                                                  obj/inittran.o
                                                  obj/ftptran.o
DispInfoData                                      obj/infodata.o
                                                  obj/stis.o
                                                  obj/emvtrans.o
                                                  obj/ctlcfg.o
DispPutStr                                        obj/sysutil.o
                                                  obj/termdata.o
                                                  obj/rmenu.o
                                                  obj/emvtrans.o
                                                  obj/ctlcfg.o
DispRspText                                       obj/tranutil.o
DispTermIP                                        obj/apmconfig.o
                                                  obj/wifi.o
DownloadAuth                                      obj/ftptran.o
ECRRequest                                        obj/coremain.o
EMVClrDnloadBuf                                   obj/emvtrans.o
                                                  obj/param.o
                                                  obj/inittran.o
                                                  obj/ftptran.o
EMVData2DnloadBuf                                 obj/emvtrans.o
                                                  obj/param.o
                                                  obj/inittran.o
                                                  obj/ftptran.o
EMVDataUpdate                                     obj/emvtrans.o
                                                  obj/param.o
                                                  obj/inittran.o
                                                  obj/ftptran.o
EMVInit                                           obj/emvtrans.o
                                                  obj/param.o
                                                  obj/inittran.o
                                                  obj/ftptran.o
                                                  obj/coremain.o
EMVKillDnloadBuf                                  obj/emvtrans.o
                                                  obj/param.o
                                                  obj/inittran.o
                                                  obj/ftptran.o
EMVUtilStart                                      obj/emvtrans.o
                                                  obj/coremain.o
EditIp                                            obj/sysutil.o
                                                  obj/termdata.o
                                                  obj/apmconfig.o
EditPort                                          obj/sysutil.o
                                                  obj/termdata.o
EmvAppParam                                       obj/param.o
EmvKeyParam                                       obj/param.o
ErrorDelay                                        obj/sysutil.o
                                                  obj/termdata.o
                                                  obj/lptutil.o
                                                  obj/comm.o
ExParamInit                                       obj/stis.o
                                                  obj/coremain.o
ExtraMsgLen                                       obj/stis.o
FlushAllFtp                                       obj/ftptran.o
FlushComm                                         obj/comm.o
                                                  obj/coremain.o
FreeRunElapsed                                    obj/sysutil.o
                                                  obj/ftptran.o
FreeRunMark                                       obj/sysutil.o
                                                  obj/ftptran.o
FreeRunSec                                        obj/sysutil.o
GenDLL                                            obj/termdata.o
                                                  obj/ftptran.o
                                                  obj/coremain.o
GetAccessCode                                     obj/termdata.o
                                                  obj/coremain.o
                                                  obj/apmfunc.o
GetAcqCount                                       obj/stis.o
                                                  obj/param.o
                                                  obj/inittran.o
                                                  obj/ftptran.o
                                                  obj/coremain.o
                                                  obj/cakey.o
GetAcqTbl                                         obj/stis.o
                                                  obj/termdata.o
                                                  obj/inittran.o
                                                  obj/ftptran.o
                                                  obj/coremain.o
                                                  obj/cakey.o
GetActualAppListChksum                            obj/termdata.o
GetBatchNo                                        obj/stis.o
                                                  obj/inittran.o
                                                  obj/ftptran.o
                                                  obj/coremain.o
GetBatchRec                                       obj/batchsys.o
                                                  obj/coremain.o
GetBatteryLevel                                   obj/lptutil.o
GetCTLKeyInfo                                     obj/ctlcfg.o
GetCardCount                                      obj/stis.o
                                                  obj/param.o
                                                  obj/inittran.o
                                                  obj/coremain.o
GetCardTbl                                        obj/stis.o
                                                  obj/coremain.o
GetClientCert                                     obj/GetCert.o
                                                  obj/cakey.o
GetClientPriKey                                   obj/GetCert.o
                                                  obj/cakey.o
GetDescCount                                      obj/stis.o
                                                  obj/coremain.o
GetDescTbl                                        obj/stis.o
                                                  obj/coremain.o
GetEMVKeyInfo                                     obj/emvtrans.o
GetExParamCount                                   obj/stis.o
                                                  obj/coremain.o
GetExtraParam                                     obj/stis.o
                                                  obj/coremain.o
GetFileFtp                                        obj/ftptran.o
GetFtpTxDataBufSize                               obj/ftptran.o
GetHwHandle                                       obj/hardware.o
                                                  obj/coremain.o
GetIssuerCount                                    obj/stis.o
                                                  obj/param.o
                                                  obj/coremain.o
GetIssuerTbl                                      obj/stis.o
                                                  obj/coremain.o
GetKbd                                            obj/kbdutil.o
                                                  obj/wifi.o
                                                  obj/termdata.o
                                                  obj/sysutil.o
                                                  obj/remotedl.o
                                                  obj/coremain.o
                                                  obj/comm.o
                                                  obj/apmtest.o
GetKbdTimeout                                     obj/kbdutil.o
                                                  obj/coremain.o
GetKey                                            obj/GetCert.o
                                                  obj/cakey.o
GetKeyin                                          obj/kbdutil.o
                                                  obj/coremain.o
GetLogoCount                                      obj/stis.o
                                                  obj/coremain.o
GetLogoTbl                                        obj/stis.o
                                                  obj/coremain.o
GetMaxMalloc                                      obj/apmtest.o
                                                  obj/apmfunc.o
GetMirrorAppListChksum                            obj/termdata.o
GetPending                                        obj/stis.o
                                                  obj/coremain.o
GetPortDevName                                    obj/termdata.o
                                                  obj/coremain.o
GetRDLForceUpload                                 obj/remotedl.o
GetRecCount                                       obj/batchsys.o
                                                  obj/remotedl.o
                                                  obj/coremain.o
                                                  obj/apmfunc.o
GetRemoteDLAllowAtSetupMode                       obj/remotedl.o
GetRevRec                                         obj/batchsys.o
                                                  obj/coremain.o
GetSTISMode                                       obj/termdata.o
                                                  obj/remotedl.o
                                                  obj/inittran.o
                                                  obj/ftptran.o
                                                  obj/coremain.o
GetTID                                            obj/ftptran.o
GetTermCfg                                        obj/stis.o
                                                  obj/termdata.o
                                                  obj/param.o
                                                  obj/inittran.o
                                                  obj/coremain.o
GetTermData                                       obj/termdata.o
                                                  obj/inittran.o
                                                  obj/hardware.o
                                                  obj/ftptran.o
                                                  obj/coremain.o
                                                  obj/comm.o
GetTrace                                          obj/termdata.o
                                                  obj/inittran.o
GetWifiConnStatus                                 obj/wifi.o
GetWifiStatus                                     obj/wifi.o
                                                  obj/sysutil.o
GlobalsCleanUp                                    obj/coremain.o
                                                  obj/main.o
GlobalsInit                                       obj/coremain.o
                                                  obj/main.o
HotPlug                                           obj/sysutil.o
                                                  obj/hardware.o
                                                  obj/coremain.o
IncTrace                                          obj/termdata.o
                                                  obj/inittran.o
InitAllHw                                         obj/hardware.o
                                                  obj/coremain.o
InitApplList                                      obj/apmfunc.o
                                                  obj/coremain.o
InitEcrDll                                        obj/hardware.o
                                                  obj/coremain.o
InitFTPLogInfo                                    obj/ftptran.o
InitTrans                                         obj/inittran.o
                                                  obj/apmfunc.o
InjectCAKey                                       obj/cakey.o
                                                  obj/coremain.o
IsLineDropFtp                                     obj/ftptran.o
IssuerTableParam                                  obj/param.o
KADataReset                                       obj/message.o
                                                  obj/apmfunc.o
KApmDataFile                                      obj/coremain.o
KApn                                              obj/message.o
                                                  obj/comm.o
KAppHdr                                           obj/main.o
                                                  obj/cstartup.o
KAppHeader                                        obj/cstartup.o
KAuthKey                                          obj/ftptran.o
KAuxPort                                          obj/toggle.o
                                                  obj/termdata.o
KAuxUsbPort                                       obj/toggle.o
                                                  obj/termdata.o
KAuxUsbWifiPort                                   obj/toggle.o
                                                  obj/termdata.o
KBWSpectraLogo                                    obj/coremain.o
KBadAmount                                        obj/message.o
                                                  obj/constant.o
KBadProcCode                                      obj/message.o
                                                  obj/constant.o
KCancelExit                                       obj/message.o
                                                  obj/termdata.o
KCardBlocked                                      obj/message.o
                                                  obj/constant.o
KCardReadErr                                      obj/message.o
                                                  obj/constant.o
KCardholderIDName                                 obj/emvtrans.o
KCheckInPriNum                                    obj/message.o
                                                  obj/termdata.o
KCheckInSecNum                                    obj/message.o
                                                  obj/termdata.o
KChkSumErr                                        obj/message.o
                                                  obj/termdata.o
KCommConnectWait                                  obj/message.o
                                                  obj/ftptran.o
                                                  obj/comm.o
KCommNoCancel                                     obj/message.o
                                                  obj/ftptran.o
                                                  obj/comm.o
KCommRcvd                                         obj/message.o
                                                  obj/comm.o
KCommSend                                         obj/message.o
                                                  obj/comm.o
KCommWait                                         obj/message.o
                                                  obj/comm.o
KComplted                                         obj/message.o
                                                  obj/ftptran.o
                                                  obj/constant.o
KConfirm                                          obj/message.o
                                                  obj/apmfunc.o
KConnected                                        obj/message.o
                                                  obj/comm.o
KCurrBatchNo                                      obj/message.o
                                                  obj/termdata.o
KDHCPHdr                                          obj/message.o
                                                  obj/apmconfig.o
KDLLFileFailed                                    obj/message.o
                                                  obj/ftptran.o
KDataError                                        obj/message.o
                                                  obj/constant.o
KDataReseted                                      obj/message.o
                                                  obj/apmfunc.o
KDateTime                                         obj/message.o
KDebugMode                                        obj/message.o
                                                  obj/termdata.o
KDefaultAmt                                       obj/message.o
                                                  obj/termdata.o
KDefaultApp                                       obj/message.o
                                                  obj/termdata.o
KDefaultSReg                                      obj/comm.o
                                                  obj/ftptran.o
KDialMode                                         obj/toggle.o
                                                  obj/termdata.o
KDialModeStr                                      obj/message.o
                                                  obj/termdata.o
KDialNum                                          obj/message.o
                                                  obj/comm.o
KDnloadBIN                                        obj/message.o
                                                  obj/constant.o
KDnloadSchedule                                   obj/message.o
                                                  obj/constant.o
KDownloadFailed                                   obj/message.o
                                                  obj/ftptran.o
KECRCommErr                                       obj/message.o
                                                  obj/constant.o
KEDCInit                                          obj/message.o
                                                  obj/constant.o
KEcrPort                                          obj/message.o
                                                  obj/termdata.o
KEcrSslMode                                       obj/message.o
KEnable                                           obj/toggle.o
                                                  obj/wifi.o
                                                  obj/termdata.o
                                                  obj/apmconfig.o
KEnterSave                                        obj/message.o
                                                  obj/apmconfig.o
KExportFunc                                       obj/coremain.o
                                                  obj/main.o
KExtraMsgLen                                      obj/message.o
                                                  obj/termdata.o
KFTPInitMode                                      obj/toggle.o
                                                  obj/termdata.o
KFTPPwd                                           obj/message.o
KFTPServerKey                                     obj/message.o
                                                  obj/termdata.o
KFTPUser                                          obj/message.o
KGPRSHdr                                          obj/message.o
KHighTemp                                         obj/message.o
                                                  obj/lptutil.o
KHostIP                                           obj/message.o
                                                  obj/termdata.o
KHostNotFound                                     obj/message.o
                                                  obj/constant.o
KHostOffline                                      obj/message.o
                                                  obj/constant.o
KHostParamHdr                                     obj/message.o
                                                  obj/termdata.o
KHostPort                                         obj/message.o
                                                  obj/termdata.o
KHostSslKeyIdx                                    obj/message.o
                                                  obj/termdata.o
KInitConnTime                                     obj/message.o
                                                  obj/termdata.o
KInitEnterSave                                    obj/message.o
                                                  obj/termdata.o
KInitIP                                           obj/message.o
                                                  obj/termdata.o
KInitIPHdr                                        obj/message.o
KInitItem                                         obj/inittran.o
KInitMenu                                         obj/inittran.o
                                                  obj/ftptran.o
KInitMode                                         obj/toggle.o
                                                  obj/termdata.o
KInitModeStr                                      obj/message.o
                                                  obj/termdata.o
KInitNII                                          obj/message.o
                                                  obj/termdata.o
KInitPPPIP                                        obj/message.o
                                                  obj/termdata.o
KInitPPPIPHdr                                     obj/message.o
KInitPPPPort                                      obj/message.o
                                                  obj/termdata.o
KInitPort                                         obj/message.o
                                                  obj/termdata.o
KInitPriNum                                       obj/message.o
                                                  obj/termdata.o
KInitSecNum                                       obj/message.o
                                                  obj/termdata.o
KInitSpeed                                        obj/message.o
KInsertICC                                        obj/message.o
KInvalidPWD                                       obj/message.o
                                                  obj/constant.o
KInvalidResp                                      obj/message.o
                                                  obj/constant.o
KInvalidSeq                                       obj/message.o
                                                  obj/constant.o
KInvalidTerm                                      obj/message.o
                                                  obj/constant.o
KInvalidTrace                                     obj/message.o
                                                  obj/constant.o
KIpHdr                                            obj/message.o
                                                  obj/apmconfig.o
KItemNotEnabled                                   obj/message.o
                                                  obj/ftptran.o
KKbdBacklight                                     obj/message.o
                                                  obj/apmconfig.o
KKek                                              obj/cstartup.o
KLineBusy                                         obj/message.o
                                                  obj/constant.o
KLineOccup                                        obj/message.o
                                                  obj/constant.o
KLoadEMVKey                                       obj/message.o
                                                  obj/tranutil.o
KLoadEMVParam                                     obj/message.o
                                                  obj/tranutil.o
KLoadExtraParam                                   obj/message.o
                                                  obj/tranutil.o
KLogInFailed                                      obj/message.o
                                                  obj/ftptran.o
KLowBattery                                       obj/message.o
                                                  obj/lptutil.o
                                                  obj/constant.o
KManualCut                                        obj/message.o
                                                  obj/lptutil.o
KNoDialTone                                       obj/message.o
                                                  obj/constant.o
KNoLine                                           obj/message.o
                                                  obj/constant.o
KNoPaper                                          obj/message.o
                                                  obj/lptutil.o
KNoTransRec                                       obj/message.o
                                                  obj/constant.o
KNonBtModel                                       obj/message.o
KNonWifiModel                                     obj/message.o
                                                  obj/termdata.o
KNotAllowed                                       obj/message.o
                                                  obj/constant.o
KPABX                                             obj/message.o
                                                  obj/termdata.o
KPPPDefaultSReg                                   obj/ftptran.o
KPPPPwd                                           obj/message.o
                                                  obj/termdata.o
KPPPUser                                          obj/message.o
                                                  obj/termdata.o
KPPadPort                                         obj/message.o
                                                  obj/termdata.o
KPassword                                         obj/message.o
                                                  obj/comm.o
KPinMsg                                           obj/emvtrans.o
KPlsSwipe                                         obj/message.o
KPrintStis                                        obj/message.o
                                                  obj/termdata.o
KPrintingMsg                                      obj/message.o
                                                  obj/termdata.o
                                                  obj/lptutil.o
KProcessing                                       obj/message.o
                                                  obj/inittran.o
KReboot                                           obj/message.o
                                                  obj/termdata.o
                                                  obj/ftptran.o
                                                  obj/apmfunc.o
KRemoteDLHeader                                   obj/message.o
                                                  obj/remotedl.o
KRemoteDLSch                                      obj/message.o
                                                  obj/remotedl.o
KResetAppData                                     obj/message.o
                                                  obj/apmfunc.o
KResetEMVData                                     obj/message.o
                                                  obj/apmfunc.o
KReturn2Base                                      obj/message.o
KReturnBaseTO                                     obj/message.o
                                                  obj/termdata.o
KRspText                                          obj/constant.o
                                                  obj/tranutil.o
KSamTest                                          obj/message.o
KSelAcquirer                                      obj/message.o
                                                  obj/stis.o
KServerKeyError                                   obj/message.o
KSettleBatch                                      obj/message.o
                                                  obj/apmfunc.o
KSimSel                                           obj/toggle.o
                                                  obj/param.o
                                                  obj/comm.o
KSoftName                                         obj/coremain.o
                                                  obj/main.o
                                                  obj/inittran.o
KSpectraSym                                       obj/coremain.o
KSwipeCard                                        obj/message.o
                                                  obj/constant.o
KSysError                                         obj/message.o
                                                  obj/constant.o
KSystemInit                                       obj/message.o
                                                  obj/coremain.o
KTIDFileFailed                                    obj/message.o
                                                  obj/ftptran.o
KTermId                                           obj/message.o
                                                  obj/termdata.o
KTestICC                                          obj/message.o
KTestMSR                                          obj/message.o
KTimeDelay                                        obj/message.o
                                                  obj/termdata.o
KTrainingMode                                     obj/message.o
                                                  obj/termdata.o
KTransBitmap                                      obj/constant.o
                                                  obj/inittran.o
KTransHeader                                      obj/constant.o
                                                  obj/tranutil.o
KTryAgainLC                                       obj/message.o
                                                  obj/constant.o
KTryAgainNC                                       obj/message.o
                                                  obj/ftptran.o
                                                  obj/constant.o
KTryAgainTO                                       obj/message.o
                                                  obj/constant.o
KTxnAccepted                                      obj/message.o
                                                  obj/constant.o
KTxnCanceled                                      obj/message.o
                                                  obj/ftptran.o
                                                  obj/constant.o
KTxnNotFound                                      obj/message.o
                                                  obj/constant.o
KUnSupportCard                                    obj/message.o
                                                  obj/constant.o
KUpdateRequest                                    obj/message.o
                                                  obj/constant.o
KUpdated                                          obj/message.o
KUserName                                         obj/message.o
                                                  obj/comm.o
KVirginInit                                       obj/message.o
                                                  obj/coremain.o
KWrongMAC                                         obj/message.o
                                                  obj/constant.o
KYesNo                                            obj/toggle.o
KbdBacklight                                      obj/apmconfig.o
                                                  obj/apmfunc.o
KeyDllTest                                        obj/keydlltest.o
                                                  obj/apmfunc.o
LDLoad                                            obj/emvtrans.o
                                                  obj/ctlcfg.o
LcdSetup                                          obj/apmconfig.o
                                                  obj/apmfunc.o
LoadFile                                          obj/coremain.o
LoginFtp                                          obj/ftptran.o
LongBeep                                          obj/sysutil.o
                                                  obj/tranutil.o
                                                  obj/toggle.o
                                                  obj/termdata.o
                                                  obj/menu.o
                                                  obj/lptutil.o
                                                  obj/kbdutil.o
                                                  obj/ftptran.o
                                                  obj/coremain.o
                                                  obj/comm.o
                                                  obj/apmfunc.o
                                                  obj/GetCert.o
LptClose                                          obj/lptutil.o
                                                  obj/termdata.o
LptOpen                                           obj/lptutil.o
                                                  obj/termdata.o
LptPutN                                           obj/lptutil.o
LptPutS                                           obj/lptutil.o
                                                  obj/stis.o
                                                  obj/emvtrans.o
                                                  obj/ctlcfg.o
MatchDMK                                          obj/ftptran.o
MemFatalErr                                       obj/sysutil.o
                                                  obj/lptutil.o
                                                  obj/inittran.o
                                                  obj/ftptran.o
                                                  obj/emvtrans.o
                                                  obj/ctlcfg.o
                                                  obj/coremain.o
                                                  obj/apmfunc.o
MenuSelect                                        obj/menu.o
                                                  obj/stis.o
                                                  obj/inittran.o
                                                  obj/ftptran.o
                                                  obj/apmfunc.o
MerchFunc                                         obj/apmfunc.o
                                                  obj/coremain.o
PackComm                                          obj/comm.o
                                                  obj/coremain.o
PackFTPInitComm                                   obj/ftptran.o
PackHostMsg                                       obj/inittran.o
PackInfoData                                      obj/infodata.o
                                                  obj/stis.o
                                                  obj/emvtrans.o
                                                  obj/ctlcfg.o
PackInitComm                                      obj/comm.o
                                                  obj/inittran.o
PackTelNo                                         obj/comm.o
                                                  obj/ftptran.o
ParseAcquirer                                     obj/param.o
ParseCard                                         obj/param.o
ParseCtlApp                                       obj/param.o
ParseEmvApp                                       obj/param.o
ParseEmvKey                                       obj/param.o
ParseIssuer                                       obj/param.o
ParseTermCfg                                      obj/param.o
PreConnect                                        obj/comm.o
                                                  obj/coremain.o
PrintBuf                                          obj/lptutil.o
                                                  obj/termdata.o
                                                  obj/stis.o
                                                  obj/emvtrans.o
                                                  obj/ctlcfg.o
PrintCTLParam                                     obj/ctlcfg.o
                                                  obj/termdata.o
PrintEMVParam                                     obj/emvtrans.o
                                                  obj/termdata.o
PrintLogo                                         obj/lptutil.o
PrintLowBatt                                      obj/lptutil.o
PrintRcptFF                                       obj/lptutil.o
                                                  obj/termdata.o
PrintRcptHeader                                   obj/termdata.o
PrintRcptLF                                       obj/lptutil.o
                                                  obj/stis.o
                                                  obj/emvtrans.o
                                                  obj/ctlcfg.o
PrintSTIS                                         obj/termdata.o
                                                  obj/apmfunc.o
PrintSTISParam                                    obj/stis.o
                                                  obj/termdata.o
PutFileFtp                                        obj/ftptran.o
PwrSleep                                          obj/hardware.o
                                                  obj/coremain.o
RMenuSel                                          obj/rmenu.o
RTC2UNIX                                          ../LibA5T1000/gcc\libsptutil.a(unix_tm.o)
                                                  obj/sysutil.o
RcvdFtp                                           obj/ftptran.o
ReadFtpData                                       obj/ftptran.o
ReadRTC                                           obj/sysutil.o
                                                  obj/remotedl.o
                                                  obj/inittran.o
                                                  obj/ftptran.o
ReadSFile                                         obj/sysutil.o
                                                  obj/termdata.o
                                                  obj/stis.o
                                                  obj/remotedl.o
RemoteDlChkScheduler                              obj/remotedl.o
RemoteDlFailHdl                                   obj/remotedl.o
RemoteDlInit                                      obj/remotedl.o
                                                  obj/coremain.o
RemoteDlResetData                                 obj/remotedl.o
RemoteDlSetConfig                                 obj/remotedl.o
RemoteDlSetScheduler                              obj/remotedl.o
RemoteDownload                                    obj/remotedl.o
ResetComm                                         obj/comm.o
                                                  obj/inittran.o
                                                  obj/hardware.o
                                                  obj/coremain.o
ResetFtp                                          obj/ftptran.o
ResetTrans                                        obj/tranutil.o
Return2Base                                       obj/tranutil.o
                                                  obj/comm.o
                                                  obj/apmfunc.o
RocInBatch                                        obj/batchsys.o
STISFTPDownloadTrans                              obj/ftptran.o
                                                  obj/remotedl.o
                                                  obj/apmfunc.o
STISFTPPolling                                    obj/ftptran.o
                                                  obj/remotedl.o
STISFTPSetup                                      obj/termdata.o
                                                  obj/apmfunc.o
STISInit                                          obj/stis.o
                                                  obj/inittran.o
                                                  obj/coremain.o
STISLoadParam                                     obj/param.o
                                                  obj/apmfunc.o
SaveBatRec                                        obj/batchsys.o
                                                  obj/coremain.o
SaveFile                                          obj/coremain.o
SaveRevRec                                        obj/batchsys.o
SegmentInit                                       obj/cstartup.o
SelectAcquirer                                    obj/stis.o
                                                  obj/termdata.o
                                                  obj/coremain.o
SelectAppl                                        obj/apmfunc.o
                                                  obj/coremain.o
SendFtp                                           obj/ftptran.o
SendFtpData                                       obj/ftptran.o
SendRcvd                                          obj/comm.o
                                                  obj/inittran.o
                                                  obj/coremain.o
SendRcvdFtpCmd                                    obj/ftptran.o
SetAPNConfig                                      obj/param.o
SetAppListUploadReq                               obj/termdata.o
                                                  obj/ftptran.o
SetBatchNo                                        obj/stis.o
                                                  obj/coremain.o
SetCTLLoaded                                      obj/ctlcfg.o
                                                  obj/param.o
SetCodecVol                                       obj/apmconfig.o
                                                  obj/apmfunc.o
SetDTG                                            obj/sysutil.o
                                                  obj/inittran.o
SetDebugMode                                      obj/termdata.o
                                                  obj/ftptran.o
SetEDCDateChksumSize                              obj/termdata.o
                                                  obj/ftptran.o
SetEMVAPPDateChksumSize                           obj/termdata.o
                                                  obj/ftptran.o
SetEMVKEYDateChksumSize                           obj/termdata.o
                                                  obj/ftptran.o
SetEMVLoaded                                      obj/emvtrans.o
                                                  obj/param.o
                                                  obj/inittran.o
                                                  obj/ftptran.o
SetGPRS                                           obj/comm.o
                                                  obj/termdata.o
                                                  obj/apmfunc.o
SetGPRSInfo                                       obj/comm.o
                                                  obj/param.o
SetKbdTimeout                                     obj/kbdutil.o
                                                  obj/tranutil.o
                                                  obj/coremain.o
SetLXAPPDateChksumSize                            obj/termdata.o
SetModeOnOff                                      obj/termdata.o
                                                  obj/apmfunc.o
SetPending                                        obj/stis.o
                                                  obj/coremain.o
SetRDLForceUpload                                 obj/remotedl.o
SetROC                                            obj/termdata.o
                                                  obj/coremain.o
SetRTC                                            obj/sysutil.o
                                                  obj/inittran.o
SetRemoteDLAllowAtSetupMode                       obj/remotedl.o
SetRemoteDownload                                 obj/remotedl.o
                                                  obj/ftptran.o
SetRspCode                                        obj/tranutil.o
                                                  obj/inittran.o
SetSTISMode                                       obj/termdata.o
                                                  obj/param.o
                                                  obj/inittran.o
                                                  obj/ftptran.o
SetTestCommParam                                  obj/apmtest.o
                                                  obj/comm.o
SetTrace                                          obj/termdata.o
                                                  obj/coremain.o
SetXAPPDateChksumSize                             obj/termdata.o
SetupFtpTls                                       obj/ftptran.o
SetupSTIS                                         obj/termdata.o
                                                  obj/apmfunc.o
SetupTerm                                         obj/termdata.o
                                                  obj/apmfunc.o
Short1Beep                                        obj/sysutil.o
Short2Beep                                        obj/sysutil.o
ShowBWLogo                                        obj/sysutil.o
                                                  obj/coremain.o
ShowGraphicT800                                   obj/sysutil.o
                                                  obj/rmenu.o
                                                  obj/coremain.o
ShowIp                                            obj/sysutil.o
                                                  obj/apmconfig.o
ShowStatus                                        obj/sysutil.o
ShowTxRxLed                                       obj/sysutil.o
                                                  obj/coremain.o
StisAdd                                           obj/stis.o
                                                  obj/coremain.o
StopEcrDll                                        obj/hardware.o
Str2hex                                           obj/GetCert.o
TLGet                                             obj/emvtrans.o
TLSize                                            obj/emvtrans.o
TagGet                                            obj/emvtrans.o
TagSize                                           obj/emvtrans.o
TermCfgParam                                      obj/param.o
TermDataInit                                      obj/termdata.o
                                                  obj/coremain.o
TermDataUpd                                       obj/termdata.o
                                                  obj/coremain.o
ToggleDHCP                                        obj/apmconfig.o
                                                  obj/apmfunc.o
ToggleOption                                      obj/toggle.o
                                                  obj/wifi.o
                                                  obj/termdata.o
                                                  obj/param.o
                                                  obj/comm.o
                                                  obj/apmconfig.o
ToggleYesNo                                       obj/toggle.o
                                                  obj/keydlltest.o
                                                  obj/coremain.o
                                                  obj/apmfunc.o
TraceInBatch                                      obj/batchsys.o
                                                  obj/coremain.o
TraceInReversal                                   obj/batchsys.o
                                                  obj/coremain.o
TrainingModeON                                    obj/termdata.o
                                                  obj/remotedl.o
                                                  obj/inittran.o
                                                  obj/comm.o
TransEnd                                          obj/tranutil.o
                                                  obj/inittran.o
UNIX2RTC                                          ../LibA5T1000/gcc\libsptutil.a(unix_tm.o)
UpdAcqTbl                                         obj/stis.o
                                                  obj/termdata.o
                                                  obj/param.o
                                                  obj/inittran.o
                                                  obj/ftptran.o
UpdCardTbl                                        obj/stis.o
                                                  obj/param.o
                                                  obj/inittran.o
                                                  obj/ftptran.o
UpdDescTbl                                        obj/stis.o
                                                  obj/inittran.o
                                                  obj/ftptran.o
UpdExtraParam                                     obj/stis.o
                                                  obj/inittran.o
UpdIssuerTbl                                      obj/stis.o
                                                  obj/param.o
                                                  obj/inittran.o
                                                  obj/ftptran.o
UpdLogoTbl                                        obj/stis.o
                                                  obj/inittran.o
                                                  obj/ftptran.o
UpdTermCfg                                        obj/stis.o
                                                  obj/param.o
                                                  obj/inittran.o
                                                  obj/ftptran.o
UpdTermData                                       obj/termdata.o
                                                  obj/ftptran.o
UpdateAppListChksum                               obj/termdata.o
                                                  obj/ftptran.o
UpdateBatRec                                      obj/batchsys.o
                                                  obj/coremain.o
UpdateFData                                       obj/termdata.o
UpdateFTPLogInfoError                             obj/ftptran.o
UpdateFTPServerKey                                obj/termdata.o
UpdateNodeParam                                   obj/param.o
UpdatePABX                                        obj/termdata.o
                                                  obj/apmfunc.o
UpdateParamCtlApp                                 obj/param.o
UpdateParamEmvApp                                 obj/param.o
UpdateParamEmvKey                                 obj/param.o
VirginInit                                        obj/coremain.o
                                                  obj/main.o
WGet                                              obj/sysutil.o
                                                  obj/inittran.o
                                                  obj/ftptran.o
                                                  obj/emvtrans.o
                                                  obj/comm.o
WaitCmdChnReady                                   obj/ftptran.o
WaitConnectFtpDataChn                             obj/ftptran.o
WaitKey                                           obj/kbdutil.o
                                                  obj/wifi.o
                                                  obj/toggle.o
                                                  obj/termdata.o
                                                  obj/sysutil.o
                                                  obj/remotedl.o
                                                  obj/param.o
                                                  obj/keydlltest.o
                                                  obj/infodata.o
                                                  obj/ftptran.o
                                                  obj/emvtrans.o
                                                  obj/ctlcfg.o
                                                  obj/coremain.o
                                                  obj/cakey.o
                                                  obj/apmtest.o
                                                  obj/apmfunc.o
                                                  obj/apmconfig.o
                                                  obj/GetCert.o
WaitKeyCheck                                      obj/kbdutil.o
                                                  obj/termdata.o
                                                  obj/coremain.o
WaitLanNetRdy                                     obj/sysutil.o
                                                  obj/ftptran.o
                                                  obj/comm.o
WaitNetworkReady                                  obj/comm.o
WaitPrnFinish                                     obj/lptutil.o
WaitWifiNetRdy                                    obj/sysutil.o
                                                  obj/ftptran.o
                                                  obj/comm.o
WifiConfig                                        obj/wifi.o
WifiOff                                           obj/wifi.o
                                                  obj/hardware.o
WifiOn                                            obj/wifi.o
                                                  obj/hardware.o
WifiStatus                                        obj/wifi.o
                                                  obj/apmfunc.o
WriteSFile                                        obj/sysutil.o
                                                  obj/termdata.o
                                                  obj/stis.o
                                                  obj/remotedl.o
XF_BatSysClear                                    obj/coremain.o
XF_BatchFull                                      obj/coremain.o
XF_ClearRevRec                                    obj/coremain.o
XF_ClrKeyin                                       obj/coremain.o
XF_ConnectOK                                      obj/coremain.o
XF_FlushComm                                      obj/coremain.o
XF_GetAccessCode                                  obj/coremain.o
XF_GetAcqCount                                    obj/coremain.o
XF_GetAcqTbl                                      obj/coremain.o
XF_GetBatchNo                                     obj/coremain.o
XF_GetBatchRec                                    obj/coremain.o
XF_GetCardCount                                   obj/coremain.o
XF_GetCardTbl                                     obj/coremain.o
XF_GetDescCount                                   obj/coremain.o
XF_GetDescTbl                                     obj/coremain.o
XF_GetExParamCount                                obj/coremain.o
XF_GetExtraParam                                  obj/coremain.o
XF_GetHwHdl                                       obj/coremain.o
XF_GetIssuerCount                                 obj/coremain.o
XF_GetIssuerTbl                                   obj/coremain.o
XF_GetKbd                                         obj/coremain.o
XF_GetKbdTO                                       obj/coremain.o
XF_GetKeyin                                       obj/coremain.o
XF_GetLogoCount                                   obj/coremain.o
XF_GetLogoTbl                                     obj/coremain.o
XF_GetPending                                     obj/coremain.o
XF_GetRecCount                                    obj/coremain.o
XF_GetRevRec                                      obj/coremain.o
XF_GetTermCfg                                     obj/coremain.o
XF_GetTermData                                    obj/coremain.o
XF_MerchFunc                                      obj/coremain.o
XF_PackComm                                       obj/coremain.o
XF_PreConnect                                     obj/coremain.o
XF_PwrSleep                                       obj/coremain.o
XF_ResetComm                                      obj/coremain.o
XF_SaveBatRec                                     obj/coremain.o
XF_SelApp                                         obj/coremain.o
XF_SelYesNo                                       obj/coremain.o
XF_SelectAcquirer                                 obj/coremain.o
XF_SendRcvd                                       obj/coremain.o
XF_SetBatchNo                                     obj/coremain.o
XF_SetKbdTO                                       obj/coremain.o
XF_SetPending                                     obj/coremain.o
XF_SetROC                                         obj/coremain.o
XF_SetTrace                                       obj/coremain.o
XF_StisAddTbl                                     obj/coremain.o
XF_StisClr                                        obj/coremain.o
XF_TermDataClr                                    obj/coremain.o
XF_TermDataUpd                                    obj/coremain.o
XF_TraceInBatch                                   obj/coremain.o
XF_TraceInReversal                                obj/coremain.o
XF_UpdateBatRec                                   obj/coremain.o
XF_WaitKey                                        obj/coremain.o
XF_YesNo                                          obj/coremain.o
XmlStringToCfg                                    obj/param.o
                                                  obj/ftptran.o
YesNo                                             obj/kbdutil.o
                                                  obj/coremain.o
                                                  obj/apmconfig.o
_Balloc                                           C:\DevTools\gcc_v49_2014q4/arm-none-eabi/lib/thumb\libc.a(lib_a-mprec.o)
                                                  C:\DevTools\gcc_v49_2014q4/arm-none-eabi/lib/thumb\libc.a(lib_a-gdtoa-gethex.o)
                                                  C:\DevTools\gcc_v49_2014q4/arm-none-eabi/lib/thumb\libc.a(lib_a-strtod.o)
_Bfree                                            C:\DevTools\gcc_v49_2014q4/arm-none-eabi/lib/thumb\libc.a(lib_a-mprec.o)
                                                  C:\DevTools\gcc_v49_2014q4/arm-none-eabi/lib/thumb\libc.a(lib_a-gdtoa-gethex.o)
                                                  C:\DevTools\gcc_v49_2014q4/arm-none-eabi/lib/thumb\libc.a(lib_a-strtod.o)
_PathLocale                                       C:\DevTools\gcc_v49_2014q4/arm-none-eabi/lib/thumb\libc.a(lib_a-locale.o)
__adddf3                                          c:/devtools/gcc_v49_2014q4/bin/../lib/gcc/arm-none-eabi/4.9.3\libgcc.a(_arm_addsubdf3.o)
__aeabi_cdcmpeq                                   c:/devtools/gcc_v49_2014q4/bin/../lib/gcc/arm-none-eabi/4.9.3\libgcc.a(_arm_cmpdf2.o)
__aeabi_cdcmple                                   c:/devtools/gcc_v49_2014q4/bin/../lib/gcc/arm-none-eabi/4.9.3\libgcc.a(_arm_cmpdf2.o)
__aeabi_cdrcmple                                  c:/devtools/gcc_v49_2014q4/bin/../lib/gcc/arm-none-eabi/4.9.3\libgcc.a(_arm_cmpdf2.o)
__aeabi_d2f                                       c:/devtools/gcc_v49_2014q4/bin/../lib/gcc/arm-none-eabi/4.9.3\libgcc.a(_arm_truncdfsf2.o)
                                                  C:\DevTools\gcc_v49_2014q4/arm-none-eabi/lib/thumb\libc.a(lib_a-strtod.o)
__aeabi_d2iz                                      c:/devtools/gcc_v49_2014q4/bin/../lib/gcc/arm-none-eabi/4.9.3\libgcc.a(_arm_fixdfsi.o)
                                                  C:\DevTools\gcc_v49_2014q4/arm-none-eabi/lib/thumb\libc.a(lib_a-strtod.o)
__aeabi_d2lz                                      c:/devtools/gcc_v49_2014q4/bin/../lib/gcc/arm-none-eabi/4.9.3\libgcc.a(_fixdfdi.o)
                                                  obj/libc.o
__aeabi_d2uiz                                     c:/devtools/gcc_v49_2014q4/bin/../lib/gcc/arm-none-eabi/4.9.3\libgcc.a(_arm_fixunsdfsi.o)
                                                  c:/devtools/gcc_v49_2014q4/bin/../lib/gcc/arm-none-eabi/4.9.3\libgcc.a(_fixunsdfdi.o)
                                                  C:\DevTools\gcc_v49_2014q4/arm-none-eabi/lib/thumb\libc.a(lib_a-strtod.o)
__aeabi_d2ulz                                     c:/devtools/gcc_v49_2014q4/bin/../lib/gcc/arm-none-eabi/4.9.3\libgcc.a(_fixunsdfdi.o)
                                                  c:/devtools/gcc_v49_2014q4/bin/../lib/gcc/arm-none-eabi/4.9.3\libgcc.a(_fixdfdi.o)
__aeabi_dadd                                      c:/devtools/gcc_v49_2014q4/bin/../lib/gcc/arm-none-eabi/4.9.3\libgcc.a(_arm_addsubdf3.o)
                                                  C:\DevTools\gcc_v49_2014q4/arm-none-eabi/lib/thumb\libc.a(lib_a-strtod.o)
                                                  obj/libc.o
__aeabi_dcmpeq                                    c:/devtools/gcc_v49_2014q4/bin/../lib/gcc/arm-none-eabi/4.9.3\libgcc.a(_arm_cmpdf2.o)
                                                  C:\DevTools\gcc_v49_2014q4/arm-none-eabi/lib/thumb\libc.a(lib_a-strtod.o)
                                                  obj/libc.o
__aeabi_dcmpge                                    c:/devtools/gcc_v49_2014q4/bin/../lib/gcc/arm-none-eabi/4.9.3\libgcc.a(_arm_cmpdf2.o)
__aeabi_dcmpgt                                    c:/devtools/gcc_v49_2014q4/bin/../lib/gcc/arm-none-eabi/4.9.3\libgcc.a(_arm_cmpdf2.o)
                                                  C:\DevTools\gcc_v49_2014q4/arm-none-eabi/lib/thumb\libc.a(lib_a-strtod.o)
__aeabi_dcmple                                    c:/devtools/gcc_v49_2014q4/bin/../lib/gcc/arm-none-eabi/4.9.3\libgcc.a(_arm_cmpdf2.o)
                                                  C:\DevTools\gcc_v49_2014q4/arm-none-eabi/lib/thumb\libc.a(lib_a-strtod.o)
__aeabi_dcmplt                                    c:/devtools/gcc_v49_2014q4/bin/../lib/gcc/arm-none-eabi/4.9.3\libgcc.a(_arm_cmpdf2.o)
                                                  c:/devtools/gcc_v49_2014q4/bin/../lib/gcc/arm-none-eabi/4.9.3\libgcc.a(_fixdfdi.o)
                                                  C:\DevTools\gcc_v49_2014q4/arm-none-eabi/lib/thumb\libc.a(lib_a-strtod.o)
__aeabi_ddiv                                      c:/devtools/gcc_v49_2014q4/bin/../lib/gcc/arm-none-eabi/4.9.3\libgcc.a(_arm_muldivdf3.o)
                                                  C:\DevTools\gcc_v49_2014q4/arm-none-eabi/lib/thumb\libc.a(lib_a-mprec.o)
                                                  C:\DevTools\gcc_v49_2014q4/arm-none-eabi/lib/thumb\libc.a(lib_a-strtod.o)
                                                  obj/libc.o
__aeabi_dmul                                      c:/devtools/gcc_v49_2014q4/bin/../lib/gcc/arm-none-eabi/4.9.3\libgcc.a(_arm_muldivdf3.o)
                                                  c:/devtools/gcc_v49_2014q4/bin/../lib/gcc/arm-none-eabi/4.9.3\libgcc.a(_fixunsdfdi.o)
                                                  C:\DevTools\gcc_v49_2014q4/arm-none-eabi/lib/thumb\libc.a(lib_a-mprec.o)
                                                  C:\DevTools\gcc_v49_2014q4/arm-none-eabi/lib/thumb\libc.a(lib_a-strtod.o)
                                                  obj/libc.o
__aeabi_drsub                                     c:/devtools/gcc_v49_2014q4/bin/../lib/gcc/arm-none-eabi/4.9.3\libgcc.a(_arm_addsubdf3.o)
__aeabi_dsub                                      c:/devtools/gcc_v49_2014q4/bin/../lib/gcc/arm-none-eabi/4.9.3\libgcc.a(_arm_addsubdf3.o)
                                                  c:/devtools/gcc_v49_2014q4/bin/../lib/gcc/arm-none-eabi/4.9.3\libgcc.a(_fixunsdfdi.o)
                                                  C:\DevTools\gcc_v49_2014q4/arm-none-eabi/lib/thumb\libc.a(lib_a-strtod.o)
__aeabi_f2d                                       c:/devtools/gcc_v49_2014q4/bin/../lib/gcc/arm-none-eabi/4.9.3\libgcc.a(_arm_addsubdf3.o)
__aeabi_i2d                                       c:/devtools/gcc_v49_2014q4/bin/../lib/gcc/arm-none-eabi/4.9.3\libgcc.a(_arm_addsubdf3.o)
                                                  C:\DevTools\gcc_v49_2014q4/arm-none-eabi/lib/thumb\libc.a(lib_a-strtod.o)
__aeabi_idiv                                      c:/devtools/gcc_v49_2014q4/bin/../lib/gcc/arm-none-eabi/4.9.3\libgcc.a(_divsi3.o)
                                                  C:\DevTools\gcc_v49_2014q4/arm-none-eabi/lib/thumb\libc.a(lib_a-mprec.o)
                                                  obj/x509.o
                                                  obj/wifi.o
                                                  obj/menu.o
                                                  obj/infodata.o
__aeabi_idiv0                                     c:/devtools/gcc_v49_2014q4/bin/../lib/gcc/arm-none-eabi/4.9.3\libgcc.a(_dvmd_tls.o)
                                                  c:/devtools/gcc_v49_2014q4/bin/../lib/gcc/arm-none-eabi/4.9.3\libgcc.a(_divsi3.o)
                                                  c:/devtools/gcc_v49_2014q4/bin/../lib/gcc/arm-none-eabi/4.9.3\libgcc.a(_udivsi3.o)
__aeabi_idivmod                                   c:/devtools/gcc_v49_2014q4/bin/../lib/gcc/arm-none-eabi/4.9.3\libgcc.a(_divsi3.o)
                                                  obj/x509.o
                                                  obj/toggle.o
                                                  obj/menu.o
                                                  obj/keydlltest.o
                                                  obj/kbdutil.o
                                                  obj/infodata.o
__aeabi_l2d                                       c:/devtools/gcc_v49_2014q4/bin/../lib/gcc/arm-none-eabi/4.9.3\libgcc.a(_arm_addsubdf3.o)
                                                  obj/libc.o
__aeabi_ldiv0                                     c:/devtools/gcc_v49_2014q4/bin/../lib/gcc/arm-none-eabi/4.9.3\libgcc.a(_dvmd_tls.o)
                                                  c:/devtools/gcc_v49_2014q4/bin/../lib/gcc/arm-none-eabi/4.9.3\libgcc.a(_aeabi_uldivmod.o)
                                                  c:/devtools/gcc_v49_2014q4/bin/../lib/gcc/arm-none-eabi/4.9.3\libgcc.a(_aeabi_ldivmod.o)
__aeabi_ldivmod                                   c:/devtools/gcc_v49_2014q4/bin/../lib/gcc/arm-none-eabi/4.9.3\libgcc.a(_aeabi_ldivmod.o)
                                                  obj/libc.o
__aeabi_ui2d                                      c:/devtools/gcc_v49_2014q4/bin/../lib/gcc/arm-none-eabi/4.9.3\libgcc.a(_arm_addsubdf3.o)
                                                  c:/devtools/gcc_v49_2014q4/bin/../lib/gcc/arm-none-eabi/4.9.3\libgcc.a(_fixunsdfdi.o)
                                                  C:\DevTools\gcc_v49_2014q4/arm-none-eabi/lib/thumb\libc.a(lib_a-strtod.o)
__aeabi_uidiv                                     c:/devtools/gcc_v49_2014q4/bin/../lib/gcc/arm-none-eabi/4.9.3\libgcc.a(_udivsi3.o)
                                                  C:\DevTools\gcc_v49_2014q4/arm-none-eabi/lib/thumb\libc.a(lib_a-strtol.o)
                                                  ../LibA5T1000/gcc\libsptutil.a(val2bcd.o)
                                                  ../LibA5T1000/gcc\libsptutil.a(unix_tm.o)
                                                  ../LibA5T1000/gcc\libsptutil.a(lbin2asc.o)
                                                  ../LibA5T1000/gcc\libsptutil.a(bin2dec.o)
                                                  obj/libc.o
                                                  obj/stis.o
                                                  obj/remotedl.o
                                                  obj/emvtrans.o
                                                  obj/ctlcfg.o
                                                  obj/comm.o
                                                  obj/batchsys.o
__aeabi_uidivmod                                  c:/devtools/gcc_v49_2014q4/bin/../lib/gcc/arm-none-eabi/4.9.3\libgcc.a(_udivsi3.o)
                                                  C:\DevTools\gcc_v49_2014q4/arm-none-eabi/lib/thumb\libc.a(lib_a-strtol.o)
                                                  ../LibA5T1000/gcc\libsptutil.a(val2bcd.o)
                                                  ../LibA5T1000/gcc\libsptutil.a(unix_tm.o)
                                                  ../LibA5T1000/gcc\libsptutil.a(lbin2asc.o)
                                                  ../LibA5T1000/gcc\libsptutil.a(bin2dec.o)
                                                  obj/libc.o
                                                  obj/remotedl.o
                                                  obj/emvtrans.o
                                                  obj/ctlcfg.o
                                                  obj/comm.o
__aeabi_ul2d                                      c:/devtools/gcc_v49_2014q4/bin/../lib/gcc/arm-none-eabi/4.9.3\libgcc.a(_arm_addsubdf3.o)
__aeabi_uldivmod                                  c:/devtools/gcc_v49_2014q4/bin/../lib/gcc/arm-none-eabi/4.9.3\libgcc.a(_aeabi_uldivmod.o)
                                                  ../LibA5T1000/gcc\libsptutil.a(dbin2asc.o)
__any_on                                          C:\DevTools\gcc_v49_2014q4/arm-none-eabi/lib/thumb\libc.a(lib_a-mprec.o)
                                                  C:\DevTools\gcc_v49_2014q4/arm-none-eabi/lib/thumb\libc.a(lib_a-gdtoa-gethex.o)
__b2d                                             C:\DevTools\gcc_v49_2014q4/arm-none-eabi/lib/thumb\libc.a(lib_a-mprec.o)
__clzdi2                                          c:/devtools/gcc_v49_2014q4/bin/../lib/gcc/arm-none-eabi/4.9.3\libgcc.a(_clzdi2.o)
                                                  c:/devtools/gcc_v49_2014q4/bin/../lib/gcc/arm-none-eabi/4.9.3\libgcc.a(_udivdi3.o)
                                                  c:/devtools/gcc_v49_2014q4/bin/../lib/gcc/arm-none-eabi/4.9.3\libgcc.a(_divdi3.o)
__clzsi2                                          c:/devtools/gcc_v49_2014q4/bin/../lib/gcc/arm-none-eabi/4.9.3\libgcc.a(_clzsi2.o)
                                                  c:/devtools/gcc_v49_2014q4/bin/../lib/gcc/arm-none-eabi/4.9.3\libgcc.a(_clzdi2.o)
__cmpdf2                                          c:/devtools/gcc_v49_2014q4/bin/../lib/gcc/arm-none-eabi/4.9.3\libgcc.a(_arm_cmpdf2.o)
__copybits                                        C:\DevTools\gcc_v49_2014q4/arm-none-eabi/lib/thumb\libc.a(lib_a-mprec.o)
                                                  C:\DevTools\gcc_v49_2014q4/arm-none-eabi/lib/thumb\libc.a(lib_a-strtod.o)
__ctype_ptr__                                     C:\DevTools\gcc_v49_2014q4/arm-none-eabi/lib/thumb\libc.a(lib_a-ctype_.o)
                                                  C:\DevTools\gcc_v49_2014q4/arm-none-eabi/lib/thumb\libc.a(lib_a-strtol.o)
                                                  obj/mxml-string.o
                                                  obj/mxml-file.o
                                                  obj/kbdutil.o
__d2b                                             C:\DevTools\gcc_v49_2014q4/arm-none-eabi/lib/thumb\libc.a(lib_a-mprec.o)
                                                  C:\DevTools\gcc_v49_2014q4/arm-none-eabi/lib/thumb\libc.a(lib_a-strtod.o)
__divdf3                                          c:/devtools/gcc_v49_2014q4/bin/../lib/gcc/arm-none-eabi/4.9.3\libgcc.a(_arm_muldivdf3.o)
__divdi3                                          c:/devtools/gcc_v49_2014q4/bin/../lib/gcc/arm-none-eabi/4.9.3\libgcc.a(_divdi3.o)
                                                  c:/devtools/gcc_v49_2014q4/bin/../lib/gcc/arm-none-eabi/4.9.3\libgcc.a(bpabi.o)
__divsi3                                          c:/devtools/gcc_v49_2014q4/bin/../lib/gcc/arm-none-eabi/4.9.3\libgcc.a(_divsi3.o)
__eqdf2                                           c:/devtools/gcc_v49_2014q4/bin/../lib/gcc/arm-none-eabi/4.9.3\libgcc.a(_arm_cmpdf2.o)
__extendsfdf2                                     c:/devtools/gcc_v49_2014q4/bin/../lib/gcc/arm-none-eabi/4.9.3\libgcc.a(_arm_addsubdf3.o)
__fixdfdi                                         c:/devtools/gcc_v49_2014q4/bin/../lib/gcc/arm-none-eabi/4.9.3\libgcc.a(_fixdfdi.o)
__fixdfsi                                         c:/devtools/gcc_v49_2014q4/bin/../lib/gcc/arm-none-eabi/4.9.3\libgcc.a(_arm_fixdfsi.o)
__fixunsdfdi                                      c:/devtools/gcc_v49_2014q4/bin/../lib/gcc/arm-none-eabi/4.9.3\libgcc.a(_fixunsdfdi.o)
__fixunsdfsi                                      c:/devtools/gcc_v49_2014q4/bin/../lib/gcc/arm-none-eabi/4.9.3\libgcc.a(_arm_fixunsdfsi.o)
__floatdidf                                       c:/devtools/gcc_v49_2014q4/bin/../lib/gcc/arm-none-eabi/4.9.3\libgcc.a(_arm_addsubdf3.o)
__floatsidf                                       c:/devtools/gcc_v49_2014q4/bin/../lib/gcc/arm-none-eabi/4.9.3\libgcc.a(_arm_addsubdf3.o)
__floatundidf                                     c:/devtools/gcc_v49_2014q4/bin/../lib/gcc/arm-none-eabi/4.9.3\libgcc.a(_arm_addsubdf3.o)
__floatunsidf                                     c:/devtools/gcc_v49_2014q4/bin/../lib/gcc/arm-none-eabi/4.9.3\libgcc.a(_arm_addsubdf3.o)
__fpclassifyd                                     C:\DevTools\gcc_v49_2014q4/arm-none-eabi/lib/thumb\libc.a(lib_a-s_fpclassify.o)
                                                  C:\DevTools\gcc_v49_2014q4/arm-none-eabi/lib/thumb\libc.a(lib_a-strtod.o)
__gedf2                                           c:/devtools/gcc_v49_2014q4/bin/../lib/gcc/arm-none-eabi/4.9.3\libgcc.a(_arm_cmpdf2.o)
__gethex                                          C:\DevTools\gcc_v49_2014q4/arm-none-eabi/lib/thumb\libc.a(lib_a-gdtoa-gethex.o)
                                                  C:\DevTools\gcc_v49_2014q4/arm-none-eabi/lib/thumb\libc.a(lib_a-strtod.o)
__gnu_ldivmod_helper                              c:/devtools/gcc_v49_2014q4/bin/../lib/gcc/arm-none-eabi/4.9.3\libgcc.a(bpabi.o)
                                                  c:/devtools/gcc_v49_2014q4/bin/../lib/gcc/arm-none-eabi/4.9.3\libgcc.a(_aeabi_ldivmod.o)
__gnu_uldivmod_helper                             c:/devtools/gcc_v49_2014q4/bin/../lib/gcc/arm-none-eabi/4.9.3\libgcc.a(bpabi.o)
                                                  c:/devtools/gcc_v49_2014q4/bin/../lib/gcc/arm-none-eabi/4.9.3\libgcc.a(_aeabi_uldivmod.o)
__gtdf2                                           c:/devtools/gcc_v49_2014q4/bin/../lib/gcc/arm-none-eabi/4.9.3\libgcc.a(_arm_cmpdf2.o)
__hexdig                                          C:\DevTools\gcc_v49_2014q4/arm-none-eabi/lib/thumb\libc.a(lib_a-gdtoa-gethex.o)
                                                  C:\DevTools\gcc_v49_2014q4/arm-none-eabi/lib/thumb\libc.a(lib_a-gdtoa-hexnan.o)
__hexnan                                          C:\DevTools\gcc_v49_2014q4/arm-none-eabi/lib/thumb\libc.a(lib_a-gdtoa-hexnan.o)
                                                  C:\DevTools\gcc_v49_2014q4/arm-none-eabi/lib/thumb\libc.a(lib_a-strtod.o)
__hi0bits                                         C:\DevTools\gcc_v49_2014q4/arm-none-eabi/lib/thumb\libc.a(lib_a-mprec.o)
                                                  C:\DevTools\gcc_v49_2014q4/arm-none-eabi/lib/thumb\libc.a(lib_a-gdtoa-gethex.o)
__i2b                                             C:\DevTools\gcc_v49_2014q4/arm-none-eabi/lib/thumb\libc.a(lib_a-mprec.o)
                                                  C:\DevTools\gcc_v49_2014q4/arm-none-eabi/lib/thumb\libc.a(lib_a-strtod.o)
__ledf2                                           c:/devtools/gcc_v49_2014q4/bin/../lib/gcc/arm-none-eabi/4.9.3\libgcc.a(_arm_cmpdf2.o)
__lo0bits                                         C:\DevTools\gcc_v49_2014q4/arm-none-eabi/lib/thumb\libc.a(lib_a-mprec.o)
__locale_charset                                  C:\DevTools\gcc_v49_2014q4/arm-none-eabi/lib/thumb\libc.a(lib_a-locale.o)
__locale_cjk_lang                                 C:\DevTools\gcc_v49_2014q4/arm-none-eabi/lib/thumb\libc.a(lib_a-locale.o)
__locale_mb_cur_max                               C:\DevTools\gcc_v49_2014q4/arm-none-eabi/lib/thumb\libc.a(lib_a-locale.o)
__locale_msgcharset                               C:\DevTools\gcc_v49_2014q4/arm-none-eabi/lib/thumb\libc.a(lib_a-locale.o)
__lshift                                          C:\DevTools\gcc_v49_2014q4/arm-none-eabi/lib/thumb\libc.a(lib_a-mprec.o)
                                                  C:\DevTools\gcc_v49_2014q4/arm-none-eabi/lib/thumb\libc.a(lib_a-gdtoa-gethex.o)
                                                  C:\DevTools\gcc_v49_2014q4/arm-none-eabi/lib/thumb\libc.a(lib_a-strtod.o)
__ltdf2                                           c:/devtools/gcc_v49_2014q4/bin/../lib/gcc/arm-none-eabi/4.9.3\libgcc.a(_arm_cmpdf2.o)
__malloc_av_                                      C:\DevTools\gcc_v49_2014q4/arm-none-eabi/lib/thumb\libc.a(lib_a-mallocr.o)
                                                  C:\DevTools\gcc_v49_2014q4/arm-none-eabi/lib/thumb\libc.a(lib_a-freer.o)
__malloc_current_mallinfo                         C:\DevTools\gcc_v49_2014q4/arm-none-eabi/lib/thumb\libc.a(lib_a-mallocr.o)
                                                  C:\DevTools\gcc_v49_2014q4/arm-none-eabi/lib/thumb\libc.a(lib_a-freer.o)
__malloc_lock                                     C:\DevTools\gcc_v49_2014q4/arm-none-eabi/lib/thumb\libc.a(lib_a-mlock.o)
                                                  C:\DevTools\gcc_v49_2014q4/arm-none-eabi/lib/thumb\libc.a(lib_a-freer.o)
                                                  C:\DevTools\gcc_v49_2014q4/arm-none-eabi/lib/thumb\libc.a(lib_a-mallocr.o)
__malloc_max_sbrked_mem                           C:\DevTools\gcc_v49_2014q4/arm-none-eabi/lib/thumb\libc.a(lib_a-mallocr.o)
__malloc_max_total_mem                            C:\DevTools\gcc_v49_2014q4/arm-none-eabi/lib/thumb\libc.a(lib_a-mallocr.o)
__malloc_sbrk_base                                C:\DevTools\gcc_v49_2014q4/arm-none-eabi/lib/thumb\libc.a(lib_a-mallocr.o)
                                                  C:\DevTools\gcc_v49_2014q4/arm-none-eabi/lib/thumb\libc.a(lib_a-freer.o)
__malloc_top_pad                                  C:\DevTools\gcc_v49_2014q4/arm-none-eabi/lib/thumb\libc.a(lib_a-mallocr.o)
                                                  C:\DevTools\gcc_v49_2014q4/arm-none-eabi/lib/thumb\libc.a(lib_a-freer.o)
__malloc_trim_threshold                           C:\DevTools\gcc_v49_2014q4/arm-none-eabi/lib/thumb\libc.a(lib_a-mallocr.o)
                                                  C:\DevTools\gcc_v49_2014q4/arm-none-eabi/lib/thumb\libc.a(lib_a-freer.o)
__malloc_unlock                                   C:\DevTools\gcc_v49_2014q4/arm-none-eabi/lib/thumb\libc.a(lib_a-mlock.o)
                                                  C:\DevTools\gcc_v49_2014q4/arm-none-eabi/lib/thumb\libc.a(lib_a-freer.o)
                                                  C:\DevTools\gcc_v49_2014q4/arm-none-eabi/lib/thumb\libc.a(lib_a-mallocr.o)
__mb_cur_max                                      C:\DevTools\gcc_v49_2014q4/arm-none-eabi/lib/thumb\libc.a(lib_a-locale.o)
__mcmp                                            C:\DevTools\gcc_v49_2014q4/arm-none-eabi/lib/thumb\libc.a(lib_a-mprec.o)
                                                  C:\DevTools\gcc_v49_2014q4/arm-none-eabi/lib/thumb\libc.a(lib_a-strtod.o)
__mdiff                                           C:\DevTools\gcc_v49_2014q4/arm-none-eabi/lib/thumb\libc.a(lib_a-mprec.o)
                                                  C:\DevTools\gcc_v49_2014q4/arm-none-eabi/lib/thumb\libc.a(lib_a-strtod.o)
__mlocale_changed                                 C:\DevTools\gcc_v49_2014q4/arm-none-eabi/lib/thumb\libc.a(lib_a-locale.o)
__mprec_bigtens                                   C:\DevTools\gcc_v49_2014q4/arm-none-eabi/lib/thumb\libc.a(lib_a-mprec.o)
                                                  C:\DevTools\gcc_v49_2014q4/arm-none-eabi/lib/thumb\libc.a(lib_a-strtod.o)
__mprec_tens                                      C:\DevTools\gcc_v49_2014q4/arm-none-eabi/lib/thumb\libc.a(lib_a-mprec.o)
                                                  C:\DevTools\gcc_v49_2014q4/arm-none-eabi/lib/thumb\libc.a(lib_a-strtod.o)
__mprec_tinytens                                  C:\DevTools\gcc_v49_2014q4/arm-none-eabi/lib/thumb\libc.a(lib_a-mprec.o)
__muldf3                                          c:/devtools/gcc_v49_2014q4/bin/../lib/gcc/arm-none-eabi/4.9.3\libgcc.a(_arm_muldivdf3.o)
__multadd                                         C:\DevTools\gcc_v49_2014q4/arm-none-eabi/lib/thumb\libc.a(lib_a-mprec.o)
__multiply                                        C:\DevTools\gcc_v49_2014q4/arm-none-eabi/lib/thumb\libc.a(lib_a-mprec.o)
                                                  C:\DevTools\gcc_v49_2014q4/arm-none-eabi/lib/thumb\libc.a(lib_a-strtod.o)
__nedf2                                           c:/devtools/gcc_v49_2014q4/bin/../lib/gcc/arm-none-eabi/4.9.3\libgcc.a(_arm_cmpdf2.o)
__nlocale_changed                                 C:\DevTools\gcc_v49_2014q4/arm-none-eabi/lib/thumb\libc.a(lib_a-locale.o)
__pow5mult                                        C:\DevTools\gcc_v49_2014q4/arm-none-eabi/lib/thumb\libc.a(lib_a-mprec.o)
                                                  C:\DevTools\gcc_v49_2014q4/arm-none-eabi/lib/thumb\libc.a(lib_a-strtod.o)
__ratio                                           C:\DevTools\gcc_v49_2014q4/arm-none-eabi/lib/thumb\libc.a(lib_a-mprec.o)
                                                  C:\DevTools\gcc_v49_2014q4/arm-none-eabi/lib/thumb\libc.a(lib_a-strtod.o)
__s2b                                             C:\DevTools\gcc_v49_2014q4/arm-none-eabi/lib/thumb\libc.a(lib_a-mprec.o)
                                                  C:\DevTools\gcc_v49_2014q4/arm-none-eabi/lib/thumb\libc.a(lib_a-strtod.o)
__subdf3                                          c:/devtools/gcc_v49_2014q4/bin/../lib/gcc/arm-none-eabi/4.9.3\libgcc.a(_arm_addsubdf3.o)
__truncdfsf2                                      c:/devtools/gcc_v49_2014q4/bin/../lib/gcc/arm-none-eabi/4.9.3\libgcc.a(_arm_truncdfsf2.o)
__udivdi3                                         c:/devtools/gcc_v49_2014q4/bin/../lib/gcc/arm-none-eabi/4.9.3\libgcc.a(_udivdi3.o)
                                                  c:/devtools/gcc_v49_2014q4/bin/../lib/gcc/arm-none-eabi/4.9.3\libgcc.a(bpabi.o)
__udivsi3                                         c:/devtools/gcc_v49_2014q4/bin/../lib/gcc/arm-none-eabi/4.9.3\libgcc.a(_udivsi3.o)
__ulp                                             C:\DevTools\gcc_v49_2014q4/arm-none-eabi/lib/thumb\libc.a(lib_a-mprec.o)
                                                  C:\DevTools\gcc_v49_2014q4/arm-none-eabi/lib/thumb\libc.a(lib_a-strtod.o)
_atoi_r                                           C:\DevTools\gcc_v49_2014q4/arm-none-eabi/lib/thumb\libc.a(lib_a-atoi.o)
_calloc_r                                         C:\DevTools\gcc_v49_2014q4/arm-none-eabi/lib/thumb\libc.a(lib_a-callocr.o)
                                                  C:\DevTools\gcc_v49_2014q4/arm-none-eabi/lib/thumb\libc.a(lib_a-mprec.o)
_close_r                                          obj/libc.o
_ctype_                                           C:\DevTools\gcc_v49_2014q4/arm-none-eabi/lib/thumb\libc.a(lib_a-ctype_.o)
_end                                              obj/libc.o
_end_of_app                                       obj/cstartup.o
_end_of_bss                                       obj/libc.o
                                                  obj/cstartup.o
_end_of_data                                      obj/cstartup.o
_end_of_flash                                     obj/cstartup.o
_end_of_sram                                      obj/cstartup.o
_free_r                                           C:\DevTools\gcc_v49_2014q4/arm-none-eabi/lib/thumb\libc.a(lib_a-freer.o)
                                                  C:\DevTools\gcc_v49_2014q4/arm-none-eabi/lib/thumb\libc.a(lib_a-mallocr.o)
_fstat_r                                          obj/libc.o
_global_impure_ptr                                C:\DevTools\gcc_v49_2014q4/arm-none-eabi/lib/thumb\libc.a(lib_a-impure.o)
_impure_ptr                                       C:\DevTools\gcc_v49_2014q4/arm-none-eabi/lib/thumb\libc.a(lib_a-impure.o)
                                                  C:\DevTools\gcc_v49_2014q4/arm-none-eabi/lib/thumb\libc.a(lib_a-locale.o)
                                                  C:\DevTools\gcc_v49_2014q4/arm-none-eabi/lib/thumb\libc.a(lib_a-strtol.o)
                                                  C:\DevTools\gcc_v49_2014q4/arm-none-eabi/lib/thumb\libc.a(lib_a-strtod.o)
_localeconv_r                                     C:\DevTools\gcc_v49_2014q4/arm-none-eabi/lib/thumb\libc.a(lib_a-locale.o)
                                                  C:\DevTools\gcc_v49_2014q4/arm-none-eabi/lib/thumb\libc.a(lib_a-gdtoa-gethex.o)
                                                  C:\DevTools\gcc_v49_2014q4/arm-none-eabi/lib/thumb\libc.a(lib_a-strtod.o)
_lseek_r                                          obj/libc.o
_malloc_r                                         C:\DevTools\gcc_v49_2014q4/arm-none-eabi/lib/thumb\libc.a(lib_a-mallocr.o)
                                                  C:\DevTools\gcc_v49_2014q4/arm-none-eabi/lib/thumb\libc.a(lib_a-callocr.o)
_malloc_trim_r                                    C:\DevTools\gcc_v49_2014q4/arm-none-eabi/lib/thumb\libc.a(lib_a-freer.o)
_mprec_log10                                      C:\DevTools\gcc_v49_2014q4/arm-none-eabi/lib/thumb\libc.a(lib_a-mprec.o)
_mxml_entity_cb                                   obj/mxml-entity.o
                                                  obj/mxml-private.o
_mxml_global                                      obj/mxml-private.o
                                                  obj/mxml-file.o
                                                  obj/mxml-entity.o
_mxml_snprintf                                    obj/mxml-string.o
                                                  obj/mxml-node.o
_mxml_strdup                                      obj/mxml-string.o
                                                  obj/mxml-node.o
                                                  obj/mxml-attr.o
_mxml_strdupf                                     obj/mxml-string.o
                                                  obj/mxml-node.o
_mxml_vsnprintf                                   obj/mxml-string.o
                                                  obj/mxml-private.o
_mxml_vstrdupf                                    obj/mxml-string.o
                                                  obj/mxml-node.o
                                                  obj/mxml-attr.o
_read_r                                           obj/libc.o
_sbrk_r                                           obj/libc.o
                                                  C:\DevTools\gcc_v49_2014q4/arm-none-eabi/lib/thumb\libc.a(lib_a-freer.o)
                                                  C:\DevTools\gcc_v49_2014q4/arm-none-eabi/lib/thumb\libc.a(lib_a-mallocr.o)
_setlocale_r                                      C:\DevTools\gcc_v49_2014q4/arm-none-eabi/lib/thumb\libc.a(lib_a-locale.o)
_start_of_app                                     obj/cstartup.o
_start_of_bss                                     obj/cstartup.o
_start_of_data                                    obj/cstartup.o
_strtod_r                                         C:\DevTools\gcc_v49_2014q4/arm-none-eabi/lib/thumb\libc.a(lib_a-strtod.o)
_strtol_r                                         C:\DevTools\gcc_v49_2014q4/arm-none-eabi/lib/thumb\libc.a(lib_a-strtol.o)
                                                  C:\DevTools\gcc_v49_2014q4/arm-none-eabi/lib/thumb\libc.a(lib_a-atoi.o)
_write_r                                          obj/libc.o
atoi                                              C:\DevTools\gcc_v49_2014q4/arm-none-eabi/lib/thumb\libc.a(lib_a-atoi.o)
                                                  obj/sysutil.o
                                                  obj/param.o
base_func0                                        ../LibA5T1000/gcc\libbasecall.a(base_call.o)
                                                  obj/sysutil.o
                                                  obj/hardware.o
base_func1                                        ../LibA5T1000/gcc\libbasecall.a(base_call.o)
                                                  obj/sysutil.o
                                                  obj/ftptran.o
                                                  obj/comm.o
                                                  obj/cakey.o
base_func2                                        ../LibA5T1000/gcc\libbasecall.a(base_call.o)
                                                  obj/wifi.o
                                                  obj/sysutil.o
                                                  obj/ftptran.o
                                                  obj/comm.o
                                                  obj/apmfunc.o
base_func3                                        ../LibA5T1000/gcc\libbasecall.a(base_call.o)
bcd2bin                                           ../LibA5T1000/gcc\libsptutil.a(bcd2bin.o)
                                                  obj/termdata.o
                                                  obj/sysutil.o
                                                  obj/inittran.o
                                                  obj/ftptran.o
bcd2val                                           ../LibA5T1000/gcc\libsptutil.a(bcd2val.o)
                                                  ../LibA5T1000/gcc\libsptutil.a(bcdsub.o)
                                                  ../LibA5T1000/gcc\libsptutil.a(bcdinc.o)
                                                  ../LibA5T1000/gcc\libsptutil.a(bcdadd.o)
                                                  ../LibA5T1000/gcc\libsptutil.a(bcd2bin.o)
bcdadd                                            ../LibA5T1000/gcc\libsptutil.a(bcdadd.o)
                                                  obj/sysutil.o
bcdinc                                            ../LibA5T1000/gcc\libsptutil.a(bcdinc.o)
                                                  obj/termdata.o
bcdsub                                            ../LibA5T1000/gcc\libsptutil.a(bcdsub.o)
                                                  obj/sysutil.o
bin2dec                                           ../LibA5T1000/gcc\libsptutil.a(bin2dec.o)
                                                  obj/termdata.o
                                                  obj/ftptran.o
                                                  obj/emvtrans.o
buffer_overflow                                   ../LibA5T1000/gcc\libsptutil.a(set_pptr.o)
                                                  ../LibA5T1000/gcc\libsptutil.a(pack_nb.o)
                                                  ../LibA5T1000/gcc\libsptutil.a(pack_mem.o)
                                                  ../LibA5T1000/gcc\libsptutil.a(pack_b.o)
                                                  ../LibA5T1000/gcc\libsptutil.a(inc_pptr.o)
                                                  ../LibA5T1000/gcc\libsptutil.a(get_mem.o)
cal_crc                                           ../LibA5T1000/gcc\libsptutil.a(crcccitt.o)
                                                  obj/termdata.o
                                                  obj/stis.o
cal_crcx                                          ../LibA5T1000/gcc\libsptutil.a(crcccitt.o)
chk_digit                                         ../LibA5T1000/gcc\libsptutil.a(chkdigit.o)
                                                  obj/ftptran.o
                                                  obj/apmtest.o
chk_digit_ok                                      ../LibA5T1000/gcc\libsptutil.a(chkdok.o)
                                                  obj/termdata.o
compress                                          ../LibA5T1000/gcc\libsptutil.a(compress.o)
                                                  obj/termdata.o
                                                  obj/sysutil.o
                                                  obj/param.o
                                                  obj/ftptran.o
cstartup                                          obj/cstartup.o
dbin2asc                                          ../LibA5T1000/gcc\libsptutil.a(dbin2asc.o)
                                                  obj/termdata.o
                                                  obj/ftptran.o
dec2bin                                           ../LibA5T1000/gcc\libsptutil.a(dec2bin.o)
                                                  ../LibA5T1000/gcc\libsptutil.a(unix_tm.o)
                                                  obj/termdata.o
                                                  obj/ftptran.o
decbin8b                                          ../LibA5T1000/gcc\libsptutil.a(decbin8b.o)
                                                  obj/termdata.o
                                                  obj/param.o
                                                  obj/ftptran.o
expect_send_alloc                                 obj/expect_send.o
                                                  obj/comm.o
expect_send_release                               obj/expect_send.o
                                                  obj/comm.o
fndb                                              ../LibA5T1000/gcc\libsptutil.a(fndb.o)
                                                  obj/termdata.o
                                                  obj/comm.o
gAcqTblFd                                         obj/stis.o
gAcqTblOffset                                     obj/stis.o
gAuxHdl                                           obj/comm.o
gCommParam                                        obj/comm.o
                                                  obj/inittran.o
                                                  obj/ftptran.o
gCrdTblFd                                         obj/stis.o
gCrdTblOffset                                     obj/stis.o
gDevHandle                                        obj/hardware.o
                                                  obj/wifi.o
                                                  obj/kbdutil.o
                                                  obj/ftptran.o
                                                  obj/comm.o
                                                  obj/apmconfig.o
gDscTblFd                                         obj/stis.o
gDscTblOffset                                     obj/stis.o
gExParamFd                                        obj/stis.o
gExParamOffset                                    obj/stis.o
gFileData                                         obj/coremain.o
gIssTblFd                                         obj/stis.o
gIssTblOffset                                     obj/stis.o
gLogoTblFd                                        obj/stis.o
gLogoTblOffset                                    obj/stis.o
gPPPMdmCfg                                        obj/ftptran.o
gReplaceAllComm                                   obj/apmtest.o
                                                  obj/comm.o
gTcpHandle                                        obj/comm.o
gTermCfgFd                                        obj/stis.o
gTermCfgOffset                                    obj/stis.o
gTimerHdl                                         obj/hardware.o
                                                  obj/wifi.o
                                                  obj/sysutil.o
                                                  obj/remotedl.o
                                                  obj/ftptran.o
                                                  obj/coremain.o
                                                  obj/comm.o
getASNLength                                      obj/pkcs.o
getBig                                            obj/pkcs.o
getPubKey                                         obj/pkcs.o
getSequence                                       obj/pkcs.o
getVersionNum                                     obj/pkcs.o
get_byte                                          ../LibA5T1000/gcc\libsptutil.a(get_byte.o)
                                                  obj/inittran.o
get_distance                                      ../LibA5T1000/gcc\libsptutil.a(get_dist.o)
                                                  obj/inittran.o
get_dword                                         ../LibA5T1000/gcc\libsptutil.a(get_byte.o)
get_dword_le                                      ../LibA5T1000/gcc\libsptutil.a(get_byte.o)
get_mem                                           ../LibA5T1000/gcc\libsptutil.a(get_mem.o)
                                                  obj/inittran.o
get_pptr                                          ../LibA5T1000/gcc\libsptutil.a(get_pptr.o)
                                                  obj/inittran.o
get_word                                          ../LibA5T1000/gcc\libsptutil.a(get_byte.o)
                                                  obj/inittran.o
gsTransData                                       obj/tranutil.o
                                                  obj/inittran.o
                                                  obj/ftptran.o
hashops_get                                       obj/hashops.o
                                                  obj/x509.o
hex_digit                                         ../LibA5T1000/gcc\libsptutil.a(hexdigit.o)
                                                  ../LibA5T1000/gcc\libsptutil.a(split.o)
hex_value                                         ../LibA5T1000/gcc\libsptutil.a(hex_val.o)
                                                  ../LibA5T1000/gcc\libsptutil.a(compress.o)
                                                  obj/param.o
                                                  obj/GetCert.o
inc_pptr                                          ../LibA5T1000/gcc\libsptutil.a(inc_pptr.o)
                                                  obj/inittran.o
init_pack_ptr                                     ../LibA5T1000/gcc\libsptutil.a(set_pptr.o)
                                                  ../LibA5T1000/gcc\libsptutil.a(get_dist.o)
isatty                                            obj/libc.o
lbcd2lbin                                         ../LibA5T1000/gcc\libsptutil.a(bcd2bin.o)
lbin2asc                                          ../LibA5T1000/gcc\libsptutil.a(lbin2asc.o)
                                                  obj/emvtrans.o
lib_app_call                                      ../LibA5T1000/gcc\libsyscall.a(app_call.o)
                                                  obj/wifi.o
                                                  obj/tranutil.o
                                                  obj/toggle.o
                                                  obj/termdata.o
                                                  obj/sysutil.o
                                                  obj/stis.o
                                                  obj/rmenu.o
                                                  obj/remotedl.o
                                                  obj/param.o
                                                  obj/menu.o
                                                  obj/lptutil.o
                                                  obj/keydlltest.o
                                                  obj/kbdutil.o
                                                  obj/inittran.o
                                                  obj/infodata.o
                                                  obj/hardware.o
                                                  obj/ftptran.o
                                                  obj/emvtrans.o
                                                  obj/ctlcfg.o
                                                  obj/coremain.o
                                                  obj/comm.o
                                                  obj/cakey.o
                                                  obj/batchsys.o
                                                  obj/apmtest.o
                                                  obj/apmfunc.o
                                                  obj/apmconfig.o
                                                  obj/GetCert.o
localeconv                                        C:\DevTools\gcc_v49_2014q4/arm-none-eabi/lib/thumb\libc.a(lib_a-locale.o)
lock                                              obj/wifi.o
lrc                                               ../LibA5T1000/gcc\libsptutil.a(lrc.o)
                                                  obj/inittran.o
main                                              obj/main.o
                                                  obj/cstartup.o
memcmp                                            C:\DevTools\gcc_v49_2014q4/arm-none-eabi/lib/thumb\libc.a(lib_a-memcmp.o)
                                                  ../LibA5T1000/gcc\libsptutil.a(unix_tm.o)
                                                  obj/x509.o
                                                  obj/termdata.o
                                                  obj/param.o
                                                  obj/keydlltest.o
                                                  obj/inittran.o
                                                  obj/ftptran.o
                                                  obj/comm.o
                                                  obj/batchsys.o
                                                  obj/GetCert.o
memcpy                                            C:\DevTools\gcc_v49_2014q4/arm-none-eabi/lib/thumb\libc.a(lib_a-memcpy.o)
                                                  C:\DevTools\gcc_v49_2014q4/arm-none-eabi/lib/thumb\libc.a(lib_a-mprec.o)
                                                  C:\DevTools\gcc_v49_2014q4/arm-none-eabi/lib/thumb\libc.a(lib_a-gdtoa-gethex.o)
                                                  C:\DevTools\gcc_v49_2014q4/arm-none-eabi/lib/thumb\libc.a(lib_a-strtod.o)
                                                  ../LibA5T1000/gcc\libsptutil.a(unix_tm.o)
                                                  ../LibA5T1000/gcc\libsptutil.a(pack_mem.o)
                                                  ../LibA5T1000/gcc\libsptutil.a(get_mem.o)
                                                  obj/expect_send.o
                                                  obj/x509.o
                                                  obj/wifi.o
                                                  obj/tranutil.o
                                                  obj/toggle.o
                                                  obj/termdata.o
                                                  obj/sysutil.o
                                                  obj/stis.o
                                                  obj/rmenu.o
                                                  obj/remotedl.o
                                                  obj/pkcs.o
                                                  obj/param.o
                                                  obj/mxml-string.o
                                                  obj/mxml-search.o
                                                  obj/mxml-file.o
                                                  obj/mxml-attr.o
                                                  obj/menu.o
                                                  obj/lptutil.o
                                                  obj/keydlltest.o
                                                  obj/kbdutil.o
                                                  obj/inittran.o
                                                  obj/infodata.o
                                                  obj/ftptran.o
                                                  obj/emvtrans.o
                                                  obj/ctlcfg.o
                                                  obj/coremain.o
                                                  obj/comm.o
                                                  obj/cakey.o
                                                  obj/batchsys.o
                                                  obj/apmtest.o
                                                  obj/apmfunc.o
                                                  obj/apmconfig.o
                                                  obj/GetCert.o
memmove                                           C:\DevTools\gcc_v49_2014q4/arm-none-eabi/lib/thumb\libc.a(lib_a-memmove.o)
                                                  obj/termdata.o
                                                  obj/sysutil.o
                                                  obj/mxml-entity.o
                                                  obj/mxml-attr.o
                                                  obj/kbdutil.o
memset                                            C:\DevTools\gcc_v49_2014q4/arm-none-eabi/lib/thumb\libc.a(lib_a-memset.o)
                                                  C:\DevTools\gcc_v49_2014q4/arm-none-eabi/lib/thumb\libc.a(lib_a-callocr.o)
                                                  ../LibA5T1000/gcc\libsptutil.a(pack_nb.o)
                                                  ../LibA5T1000/gcc\libsptutil.a(lbin2asc.o)
                                                  ../LibA5T1000/gcc\libsptutil.a(dbin2asc.o)
                                                  obj/expect_send.o
                                                  obj/x509.o
                                                  obj/wifi.o
                                                  obj/tranutil.o
                                                  obj/termdata.o
                                                  obj/sysutil.o
                                                  obj/stis.o
                                                  obj/rmenu.o
                                                  obj/remotedl.o
                                                  obj/pkcs.o
                                                  obj/param.o
                                                  obj/mxml-string.o
                                                  obj/mxml-node.o
                                                  obj/menu.o
                                                  obj/kbdutil.o
                                                  obj/inittran.o
                                                  obj/infodata.o
                                                  obj/ftptran.o
                                                  obj/emvtrans.o
                                                  obj/ctlcfg.o
                                                  obj/comm.o
                                                  obj/cakey.o
                                                  obj/batchsys.o
                                                  obj/apmtest.o
                                                  obj/apmfunc.o
                                                  obj/GetCert.o
mxmlAdd                                           obj/mxml-node.o
mxmlDelete                                        obj/mxml-node.o
                                                  obj/param.o
                                                  obj/mxml-file.o
mxmlElementDeleteAttr                             obj/mxml-attr.o
mxmlElementGetAttr                                obj/mxml-attr.o
                                                  obj/mxml-search.o
                                                  obj/mxml-file.o
mxmlElementSetAttr                                obj/mxml-attr.o
                                                  obj/mxml-file.o
mxmlElementSetAttrf                               obj/mxml-attr.o
mxmlEntityAddCallback                             obj/mxml-entity.o
mxmlEntityGetName                                 obj/mxml-entity.o
mxmlEntityGetValue                                obj/mxml-entity.o
                                                  obj/mxml-file.o
mxmlEntityRemoveCallback                          obj/mxml-entity.o
mxmlFindElement                                   obj/mxml-search.o
                                                  obj/param.o
mxmlFindPath                                      obj/mxml-search.o
mxmlGetCDATA                                      obj/mxml-get.o
mxmlGetCustom                                     obj/mxml-get.o
mxmlGetElement                                    obj/mxml-get.o
mxmlGetFirstChild                                 obj/mxml-get.o
mxmlGetInteger                                    obj/mxml-get.o
mxmlGetLastChild                                  obj/mxml-get.o
mxmlGetNextSibling                                obj/mxml-get.o
mxmlGetOpaque                                     obj/mxml-get.o
mxmlGetParent                                     obj/mxml-get.o
mxmlGetPrevSibling                                obj/mxml-get.o
mxmlGetReal                                       obj/mxml-get.o
mxmlGetRefCount                                   obj/mxml-node.o
mxmlGetText                                       obj/mxml-get.o
                                                  obj/param.o
mxmlGetType                                       obj/mxml-get.o
mxmlGetUserData                                   obj/mxml-get.o
mxmlLoadString                                    obj/mxml-file.o
                                                  obj/param.o
mxmlNewCDATA                                      obj/mxml-node.o
mxmlNewCustom                                     obj/mxml-node.o
                                                  obj/mxml-file.o
mxmlNewElement                                    obj/mxml-node.o
                                                  obj/mxml-file.o
mxmlNewInteger                                    obj/mxml-node.o
                                                  obj/mxml-file.o
mxmlNewOpaque                                     obj/mxml-node.o
                                                  obj/mxml-file.o
mxmlNewReal                                       obj/mxml-node.o
                                                  obj/mxml-file.o
mxmlNewText                                       obj/mxml-node.o
                                                  obj/mxml-file.o
mxmlNewTextf                                      obj/mxml-node.o
mxmlNewXML                                        obj/mxml-node.o
mxmlRelease                                       obj/mxml-node.o
                                                  obj/mxml-file.o
mxmlRemove                                        obj/mxml-node.o
mxmlRetain                                        obj/mxml-node.o
mxmlSAXLoadString                                 obj/mxml-file.o
mxmlSetCustomHandlers                             obj/mxml-file.o
mxmlSetErrorCallback                              obj/mxml-file.o
mxmlSetWrapMargin                                 obj/mxml-file.o
mxmlWalkNext                                      obj/mxml-search.o
                                                  obj/param.o
mxmlWalkPrev                                      obj/mxml-search.o
mxml_error                                        obj/mxml-private.o
                                                  obj/mxml-file.o
                                                  obj/mxml-entity.o
                                                  obj/mxml-attr.o
mxml_ignore_cb                                    obj/mxml-private.o
mxml_integer_cb                                   obj/mxml-private.o
mxml_opaque_cb                                    obj/mxml-private.o
mxml_real_cb                                      obj/mxml-private.o
nanf                                              C:\DevTools\gcc_v49_2014q4/arm-none-eabi/lib/thumb\libc.a(lib_a-sf_nan.o)
                                                  C:\DevTools\gcc_v49_2014q4/arm-none-eabi/lib/thumb\libc.a(lib_a-strtod.o)
os_call_app                                       ../LibA5T1000/gcc\libsyscall.a(app_sw.o)
                                                  obj/coremain.o
pack_byte                                         ../LibA5T1000/gcc\libsptutil.a(pack_b.o)
                                                  obj/inittran.o
pack_dword                                        ../LibA5T1000/gcc\libsptutil.a(pack_b.o)
pack_dword_le                                     ../LibA5T1000/gcc\libsptutil.a(pack_b.o)
pack_mem                                          ../LibA5T1000/gcc\libsptutil.a(pack_mem.o)
                                                  obj/inittran.o
pack_nbyte                                        ../LibA5T1000/gcc\libsptutil.a(pack_nb.o)
                                                  ../LibA5T1000/gcc\libsptutil.a(pack_nul.o)
pack_null                                         ../LibA5T1000/gcc\libsptutil.a(pack_nul.o)
                                                  obj/inittran.o
pack_ptr                                          ../LibA5T1000/gcc\libsptutil.a(set_pptr.o)
                                                  ../LibA5T1000/gcc\libsptutil.a(pack_nb.o)
                                                  ../LibA5T1000/gcc\libsptutil.a(peek_b.o)
                                                  ../LibA5T1000/gcc\libsptutil.a(pack_mem.o)
                                                  ../LibA5T1000/gcc\libsptutil.a(pack_b.o)
                                                  ../LibA5T1000/gcc\libsptutil.a(inc_pptr.o)
                                                  ../LibA5T1000/gcc\libsptutil.a(get_pptr.o)
                                                  ../LibA5T1000/gcc\libsptutil.a(get_mem.o)
                                                  ../LibA5T1000/gcc\libsptutil.a(get_dist.o)
                                                  ../LibA5T1000/gcc\libsptutil.a(get_byte.o)
pack_ptr_end                                      ../LibA5T1000/gcc\libsptutil.a(set_pptr.o)
pack_word                                         ../LibA5T1000/gcc\libsptutil.a(pack_b.o)
                                                  obj/inittran.o
pack_word_le                                      ../LibA5T1000/gcc\libsptutil.a(pack_b.o)
peek_byte                                         ../LibA5T1000/gcc\libsptutil.a(peek_b.o)
                                                  obj/inittran.o
printf                                            obj/libc.o
                                                  obj/keydlltest.o
putchar                                           obj/libc.o
                                                  obj/keydlltest.o
set_pptr                                          ../LibA5T1000/gcc\libsptutil.a(set_pptr.o)
                                                  obj/inittran.o
setlocale                                         C:\DevTools\gcc_v49_2014q4/arm-none-eabi/lib/thumb\libc.a(lib_a-locale.o)
signal_0                                          obj/wifi.o
signal_1                                          obj/wifi.o
signal_2                                          obj/wifi.o
signal_3                                          obj/wifi.o
signal_4                                          obj/wifi.o
signal_5                                          obj/wifi.o
skpb                                              ../LibA5T1000/gcc\libsptutil.a(skpb.o)
                                                  obj/termdata.o
                                                  obj/kbdutil.o
                                                  obj/inittran.o
                                                  obj/ftptran.o
                                                  obj/emvtrans.o
split                                             ../LibA5T1000/gcc\libsptutil.a(split.o)
                                                  obj/termdata.o
                                                  obj/sysutil.o
                                                  obj/stis.o
                                                  obj/ftptran.o
                                                  obj/emvtrans.o
                                                  obj/ctlcfg.o
                                                  obj/comm.o
sprintf                                           obj/libc.o
                                                  obj/termdata.o
                                                  obj/sysutil.o
                                                  obj/stis.o
                                                  obj/param.o
                                                  obj/mxml-string.o
                                                  obj/mxml-private.o
                                                  obj/menu.o
                                                  obj/lptutil.o
                                                  obj/keydlltest.o
                                                  obj/infodata.o
                                                  obj/ftptran.o
                                                  obj/emvtrans.o
                                                  obj/ctlcfg.o
                                                  obj/comm.o
                                                  obj/batchsys.o
                                                  obj/apmtest.o
                                                  obj/apmfunc.o
                                                  obj/apmconfig.o
                                                  obj/GetCert.o
strcat                                            C:\DevTools\gcc_v49_2014q4/arm-none-eabi/lib/thumb\libc.a(lib_a-strcat.o)
                                                  obj/param.o
                                                  obj/ftptran.o
                                                  obj/GetCert.o
strchr                                            C:\DevTools\gcc_v49_2014q4/arm-none-eabi/lib/thumb\libc.a(lib_a-strchr.o)
                                                  obj/mxml-string.o
                                                  obj/mxml-search.o
strcmp                                            C:\DevTools\gcc_v49_2014q4/arm-none-eabi/lib/thumb\libc.a(lib_a-strcmp.o)
                                                  C:\DevTools\gcc_v49_2014q4/arm-none-eabi/lib/thumb\libc.a(lib_a-locale.o)
                                                  obj/wifi.o
                                                  obj/param.o
                                                  obj/mxml-search.o
                                                  obj/mxml-file.o
                                                  obj/mxml-entity.o
                                                  obj/mxml-attr.o
                                                  obj/ftptran.o
strcpy                                            C:\DevTools\gcc_v49_2014q4/arm-none-eabi/lib/thumb\libc.a(lib_a-strcpy.o)
                                                  C:\DevTools\gcc_v49_2014q4/arm-none-eabi/lib/thumb\libc.a(lib_a-strcat.o)
                                                  obj/expect_send.o
                                                  obj/wifi.o
                                                  obj/termdata.o
                                                  obj/stis.o
                                                  obj/remotedl.o
                                                  obj/param.o
                                                  obj/mxml-string.o
                                                  obj/lptutil.o
                                                  obj/keydlltest.o
                                                  obj/infodata.o
                                                  obj/hardware.o
                                                  obj/ftptran.o
                                                  obj/emvtrans.o
                                                  obj/ctlcfg.o
                                                  obj/coremain.o
                                                  obj/comm.o
                                                  obj/apmfunc.o
                                                  obj/GetCert.o
strlen                                            C:\DevTools\gcc_v49_2014q4/arm-none-eabi/lib/thumb\libc.a(lib_a-strlen.o)
                                                  C:\DevTools\gcc_v49_2014q4/arm-none-eabi/lib/thumb\libc.a(lib_a-gdtoa-gethex.o)
                                                  C:\DevTools\gcc_v49_2014q4/arm-none-eabi/lib/thumb\libc.a(lib_a-strtod.o)
                                                  obj/expect_send.o
                                                  obj/wifi.o
                                                  obj/tranutil.o
                                                  obj/toggle.o
                                                  obj/termdata.o
                                                  obj/sysutil.o
                                                  obj/stis.o
                                                  obj/rmenu.o
                                                  obj/remotedl.o
                                                  obj/param.o
                                                  obj/mxml-string.o
                                                  obj/mxml-search.o
                                                  obj/menu.o
                                                  obj/lptutil.o
                                                  obj/keydlltest.o
                                                  obj/kbdutil.o
                                                  obj/infodata.o
                                                  obj/ftptran.o
                                                  obj/emvtrans.o
                                                  obj/ctlcfg.o
                                                  obj/comm.o
                                                  obj/apmtest.o
                                                  obj/apmfunc.o
                                                  obj/apmconfig.o
                                                  obj/GetCert.o
strncmp                                           C:\DevTools\gcc_v49_2014q4/arm-none-eabi/lib/thumb\libc.a(lib_a-strncmp.o)
                                                  C:\DevTools\gcc_v49_2014q4/arm-none-eabi/lib/thumb\libc.a(lib_a-gdtoa-gethex.o)
                                                  C:\DevTools\gcc_v49_2014q4/arm-none-eabi/lib/thumb\libc.a(lib_a-strtod.o)
                                                  obj/mxml-search.o
                                                  obj/mxml-get.o
                                                  obj/mxml-file.o
strncpy                                           C:\DevTools\gcc_v49_2014q4/arm-none-eabi/lib/thumb\libc.a(lib_a-strncpy.o)
                                                  obj/mxml-string.o
strtod                                            C:\DevTools\gcc_v49_2014q4/arm-none-eabi/lib/thumb\libc.a(lib_a-strtod.o)
                                                  obj/mxml-file.o
strtof                                            C:\DevTools\gcc_v49_2014q4/arm-none-eabi/lib/thumb\libc.a(lib_a-strtod.o)
strtol                                            C:\DevTools\gcc_v49_2014q4/arm-none-eabi/lib/thumb\libc.a(lib_a-strtol.o)
                                                  C:\DevTools\gcc_v49_2014q4/arm-none-eabi/lib/thumb\libc.a(lib_a-atoi.o)
                                                  obj/mxml-file.o
sys_func0                                         ../LibA5T1000/gcc\libsyscall.a(sys_call.o)
                                                  obj/libc.o
                                                  obj/cstartup.o
                                                  obj/wifi.o
                                                  obj/termdata.o
                                                  obj/sysutil.o
                                                  obj/remotedl.o
                                                  obj/param.o
                                                  obj/mxml-private.o
                                                  obj/menu.o
                                                  obj/main.o
                                                  obj/lptutil.o
                                                  obj/kbdutil.o
                                                  obj/hardware.o
                                                  obj/ftptran.o
                                                  obj/emvtrans.o
                                                  obj/ctlcfg.o
                                                  obj/coremain.o
                                                  obj/comm.o
                                                  obj/batchsys.o
                                                  obj/apmfunc.o
                                                  obj/apmconfig.o
sys_func1                                         ../LibA5T1000/gcc\libsyscall.a(sys_call.o)
                                                  obj/libc.o
                                                  obj/expect_send.o
                                                  obj/cstartup.o
                                                  obj/x509.o
                                                  obj/wifi.o
                                                  obj/tranutil.o
                                                  obj/toggle.o
                                                  obj/termdata.o
                                                  obj/sysutil.o
                                                  obj/stis.o
                                                  obj/rmenu.o
                                                  obj/remotedl.o
                                                  obj/param.o
                                                  obj/mxml-string.o
                                                  obj/mxml-private.o
                                                  obj/mxml-node.o
                                                  obj/mxml-file.o
                                                  obj/mxml-attr.o
                                                  obj/menu.o
                                                  obj/main.o
                                                  obj/lptutil.o
                                                  obj/keydlltest.o
                                                  obj/kbdutil.o
                                                  obj/inittran.o
                                                  obj/infodata.o
                                                  obj/hashops.o
                                                  obj/hardware.o
                                                  obj/ftptran.o
                                                  obj/emvtrans.o
                                                  obj/ctlcfg.o
                                                  obj/coremain.o
                                                  obj/comm.o
                                                  obj/cakey.o
                                                  obj/batchsys.o
                                                  obj/apmtest.o
                                                  obj/apmfunc.o
                                                  obj/apmconfig.o
                                                  obj/GetCert.o
sys_func2                                         ../LibA5T1000/gcc\libsyscall.a(sys_call.o)
                                                  obj/x509.o
                                                  obj/wifi.o
                                                  obj/sysutil.o
                                                  obj/remotedl.o
                                                  obj/param.o
                                                  obj/main.o
                                                  obj/kbdutil.o
                                                  obj/infodata.o
                                                  obj/hashops.o
                                                  obj/hardware.o
                                                  obj/ftptran.o
                                                  obj/emvtrans.o
                                                  obj/ctlcfg.o
                                                  obj/coremain.o
                                                  obj/comm.o
                                                  obj/apmfunc.o
                                                  obj/apmconfig.o
                                                  obj/GetCert.o
sys_func3                                         ../LibA5T1000/gcc\libsyscall.a(sys_call.o)
                                                  ../LibA5T1000/gcc\libsyscall.a(app_sw.o)
                                                  obj/x509.o
                                                  obj/sysutil.o
                                                  obj/param.o
                                                  obj/hashops.o
                                                  obj/ftptran.o
                                                  obj/GetCert.o
val2bcd                                           ../LibA5T1000/gcc\libsptutil.a(val2bcd.o)
                                                  ../LibA5T1000/gcc\libsptutil.a(bcdsub.o)
                                                  ../LibA5T1000/gcc\libsptutil.a(bcdinc.o)
                                                  ../LibA5T1000/gcc\libsptutil.a(bcdadd.o)
x509ParseKey                                      obj/pkcs.o
                                                  obj/GetCert.o
x509_parse_cert                                   obj/x509.o
                                                  obj/GetCert.o
x509_verify_cert_by_cert                          obj/x509.o
x509_verify_cert_by_key                           obj/x509.o
