ARM GAS  C:\Users\AHMED~1.ELE\AppData\Local\Temp\cc42eyAw.s 			page 1


   1              		.syntax unified
   2              		.cpu cortex-a5
   3              		.fpu softvfp
   4              		.eabi_attribute 20, 1
   5              		.eabi_attribute 21, 1
   6              		.eabi_attribute 23, 3
   7              		.eabi_attribute 24, 1
   8              		.eabi_attribute 25, 1
   9              		.eabi_attribute 26, 1
  10              		.eabi_attribute 30, 4
  11              		.eabi_attribute 34, 0
  12              		.eabi_attribute 18, 4
  13              		.thumb
  14              		.file	"apmfunc.c"
  15              		.text
  16              	.Ltext0:
  17              		.cfi_sections	.debug_frame
  18              		.section	.text.MerchFunc,"ax",%progbits
  19              		.align	1
  20              		.global	MerchFunc
  21              		.thumb
  22              		.thumb_func
  23              		.type	MerchFunc, %function
  24              	MerchFunc:
  25              	.LFB2:
  26              		.file 1 "src/apmfunc.c"
   1:src/apmfunc.c **** //-----------------------------------------------------------------------------
   2:src/apmfunc.c **** //  File          : apmfunc.c
   3:src/apmfunc.c **** //  Module        :
   4:src/apmfunc.c **** //  Description   : APM Functions.
   5:src/apmfunc.c **** //  Author        : Lewis
   6:src/apmfunc.c **** //  Notes         : N/A
   7:src/apmfunc.c **** //
   8:src/apmfunc.c **** // ============================================================================
   9:src/apmfunc.c **** // | Naming conventions                                                       |
  10:src/apmfunc.c **** // | ~~~~~~~~~~~~~~~~~~                                                       |
  11:src/apmfunc.c **** // |         Struct/Array : Leading s                                         |
  12:src/apmfunc.c **** // |             Constant : Leading K                                         |
  13:src/apmfunc.c **** // |      Global Variable : Leading g  (variable use outside one C file)      |
  14:src/apmfunc.c **** // |                                                                          |
  15:src/apmfunc.c **** // |   BYTE( 8 Bits) size : Leading b                                         |
  16:src/apmfunc.c **** // |   CHAR( 8 Bits) size : Leading c                                         |
  17:src/apmfunc.c **** // |   WORD(16 Bits) size : Leading w                                         |
  18:src/apmfunc.c **** // |  DWORD(32 Bits) size : Leading d                                         |
  19:src/apmfunc.c **** // |    int(32 Bits) size : Leading i                                         |
  20:src/apmfunc.c **** // | DDWORD(64 Bits) size : Leading dd                                        |
  21:src/apmfunc.c **** // |              Pointer : Leading p                                         |
  22:src/apmfunc.c **** // |                                                                          |
  23:src/apmfunc.c **** // |    Function argument : Leading a                                         |
  24:src/apmfunc.c **** // |       Local Variable : All lower case                                    |
  25:src/apmfunc.c **** // |                                                                          |
  26:src/apmfunc.c **** // | Examples:                                                                |
  27:src/apmfunc.c **** // |                Array : Leading s, (sb = arrary of byte, etc)             |
  28:src/apmfunc.c **** // |              Pointer : Leading p, (pb = pointer of byte, etc)            |
  29:src/apmfunc.c **** // ============================================================================
  30:src/apmfunc.c **** //
  31:src/apmfunc.c **** //  Date          Who         Action
ARM GAS  C:\Users\AHMED~1.ELE\AppData\Local\Temp\cc42eyAw.s 			page 2


  32:src/apmfunc.c **** //  ------------  ----------- -------------------------------------------------
  33:src/apmfunc.c **** //  01 Apr  2009  Lewis       Initial Version.
  34:src/apmfunc.c **** //-----------------------------------------------------------------------------
  35:src/apmfunc.c **** #include <string.h>
  36:src/apmfunc.c **** #include "hwdef.h"
  37:src/apmfunc.c **** #include "midware.h"
  38:src/apmfunc.c **** #include "hardware.h"
  39:src/apmfunc.c **** #include "kbdutil.h"
  40:src/apmfunc.c **** #include "sysutil.h"
  41:src/apmfunc.c **** #include "toggle.h"
  42:src/apmfunc.c **** #include "menu.h"
  43:src/apmfunc.c **** #include "message.h"
  44:src/apmfunc.c **** #include "termdata.h"
  45:src/apmfunc.c **** #include "apmtest.h"
  46:src/apmfunc.c **** #include "apmconfig.h"
  47:src/apmfunc.c **** #include "stis.h"
  48:src/apmfunc.c **** #include "keydlltest.h"
  49:src/apmfunc.c **** #include "tranutil.h"
  50:src/apmfunc.c **** #include "inittran.h"
  51:src/apmfunc.c **** #include "emvtrans.h"
  52:src/apmfunc.c **** #include "batchsys.h"
  53:src/apmfunc.c **** #include "coremain.h"
  54:src/apmfunc.c **** #include "apmfunc.h"
  55:src/apmfunc.c **** #include "wifi.h"
  56:src/apmfunc.c **** #include "comm.h"
  57:src/apmfunc.c **** #include "ftptran.h"
  58:src/apmfunc.c **** #include "param.h"
  59:src/apmfunc.c **** #include "ctlcfg.h"
  60:src/apmfunc.c **** 
  61:src/apmfunc.c **** //-----------------------------------------------------------------------------
  62:src/apmfunc.c **** //      Defines
  63:src/apmfunc.c **** //-----------------------------------------------------------------------------
  64:src/apmfunc.c **** 
  65:src/apmfunc.c **** //-----------------------------------------------------------------------------
  66:src/apmfunc.c **** //      Globals
  67:src/apmfunc.c **** //-----------------------------------------------------------------------------
  68:src/apmfunc.c **** //  Application control related
  69:src/apmfunc.c **** #define MAX_APPL_SUPPORT    128
  70:src/apmfunc.c **** struct APPL_LIST {
  71:src/apmfunc.c ****   BOOLEAN    bActive;
  72:src/apmfunc.c ****   struct MW_APPL_INFO sAppInfo;
  73:src/apmfunc.c **** };
  74:src/apmfunc.c **** static struct APPL_LIST *gAppList;
  75:src/apmfunc.c **** static DWORD  gApplCount;
  76:src/apmfunc.c **** 
  77:src/apmfunc.c **** //-----------------------------------------------------------------------------
  78:src/apmfunc.c **** //      Constants
  79:src/apmfunc.c **** //-----------------------------------------------------------------------------
  80:src/apmfunc.c **** // Default APM Function Menu
  81:src/apmfunc.c **** static const struct MENU_ITEM KApmFuncItem [] =
  82:src/apmfunc.c **** {
  83:src/apmfunc.c ****   {  0, "STIS Init"},
  84:src/apmfunc.c ****   {  2, "STIS Setup"},
  85:src/apmfunc.c ****   #if (LAN_SUPPORT)             // Condition Compile for LAN Support
  86:src/apmfunc.c ****   {  3, "Set Term. IP"},
  87:src/apmfunc.c ****   #endif
  88:src/apmfunc.c ****   {  7, "TMS FTP Setup"},       //29-09-16 JC ++
ARM GAS  C:\Users\AHMED~1.ELE\AppData\Local\Temp\cc42eyAw.s 			page 3


  89:src/apmfunc.c ****   {  8, "TMS FTP Dnload"},      //29-09-16 JC ++
  90:src/apmfunc.c ****   {  9, "TMS Load Param"},      //29-09-16 JC ++
  91:src/apmfunc.c ****   #if (GPRS_SUPPORT)            // Condition Compile for GPRS Support
  92:src/apmfunc.c ****   { 10, "GPRS/WIFI Setup"},
  93:src/apmfunc.c ****   #endif
  94:src/apmfunc.c ****   { 11, "Show STIS"},
  95:src/apmfunc.c ****   #if (LPT_SUPPORT|TMLPT_SUPPORT)  // Condition Compile for Printer Support
  96:src/apmfunc.c ****   { 12, "Print STIS"},
  97:src/apmfunc.c ****   #endif
  98:src/apmfunc.c ****   { 61, "Training Mode"},
  99:src/apmfunc.c ****   { 63, "Debug Mode"},
 100:src/apmfunc.c ****   { 64, "Reboot"},
 101:src/apmfunc.c ****   { 80, "Cal Check Digit"},
 102:src/apmfunc.c ****   { 81, "LCD Setup"},
 103:src/apmfunc.c ****   #if (CDC_SUPPORT)           // Condition Compile for Codec Support
 104:src/apmfunc.c ****   { 82, "Codec Vol"},
 105:src/apmfunc.c ****   #endif
 106:src/apmfunc.c ****   #if (T300|T810|A5T1000|T1000|T800)
 107:src/apmfunc.c ****   { 83, "KBD BackL"},
 108:src/apmfunc.c ****   #endif
 109:src/apmfunc.c ****   { 84, "KeyDLL Test"},
 110:src/apmfunc.c ****   { 89, "Malloc Test"},
 111:src/apmfunc.c ****   #ifdef EXT_PPAD_PORT        // Condition compile for External PINPad Support
 112:src/apmfunc.c ****   { 93, "Setup ExtPPad"},
 113:src/apmfunc.c ****   #endif
 114:src/apmfunc.c ****   { 94, "Update PABX"},
 115:src/apmfunc.c ****   { 98, "Term. Setup"},
 116:src/apmfunc.c ****   { 99, "Clean Up"},
 117:src/apmfunc.c ****   {-1, NULL},
 118:src/apmfunc.c **** };
 119:src/apmfunc.c **** 
 120:src/apmfunc.c **** static const struct MENU_DAT KApmFuncMenu  = {
 121:src/apmfunc.c ****   "APM Functions",
 122:src/apmfunc.c ****   KApmFuncItem,
 123:src/apmfunc.c **** };
 124:src/apmfunc.c **** // Clean Up Menu
 125:src/apmfunc.c **** static const struct MENU_ITEM KCleanUpFuncItem [] =
 126:src/apmfunc.c **** {
 127:src/apmfunc.c ****   {  1, "STIS Param"},
 128:src/apmfunc.c ****   {  2, "EMV Param"},
 129:src/apmfunc.c ****   {-1, NULL},
 130:src/apmfunc.c **** };
 131:src/apmfunc.c **** 
 132:src/apmfunc.c **** static const struct MENU_DAT KCleanUpMenu  = {
 133:src/apmfunc.c ****   "    Clean Up     ",
 134:src/apmfunc.c ****   KCleanUpFuncItem,
 135:src/apmfunc.c **** };
 136:src/apmfunc.c **** 
 137:src/apmfunc.c **** #if (LAN_SUPPORT)
 138:src/apmfunc.c **** // TermIP Menu
 139:src/apmfunc.c **** static const struct MENU_ITEM KTermIPFuncItem [] =
 140:src/apmfunc.c **** {
 141:src/apmfunc.c ****   {  1, "TermIP"},
 142:src/apmfunc.c ****   {  2, "DHCP"},
 143:src/apmfunc.c ****   {-1, NULL},
 144:src/apmfunc.c **** };
 145:src/apmfunc.c **** 
ARM GAS  C:\Users\AHMED~1.ELE\AppData\Local\Temp\cc42eyAw.s 			page 4


 146:src/apmfunc.c **** static const struct MENU_DAT KTermIPMenu  = {
 147:src/apmfunc.c ****   "  TERM IP SETUP  ",
 148:src/apmfunc.c ****   KTermIPFuncItem,
 149:src/apmfunc.c **** };
 150:src/apmfunc.c **** 
 151:src/apmfunc.c **** //*****************************************************************************
 152:src/apmfunc.c **** //  Function        : TermIPFunc
 153:src/apmfunc.c **** //  Description     : Config Terminal IP Address.
 154:src/apmfunc.c **** //  Input           : N/A
 155:src/apmfunc.c **** //  Return          : N/A
 156:src/apmfunc.c **** //  Note            : N/A
 157:src/apmfunc.c **** //  Globals Changed : N/A
 158:src/apmfunc.c **** //*****************************************************************************
 159:src/apmfunc.c **** static void TermIPFunc(void)
 160:src/apmfunc.c **** {
 161:src/apmfunc.c ****   int  func_sel;
 162:src/apmfunc.c ****   struct MW_NIF_INFO netinfo;
 163:src/apmfunc.c ****   BYTE    dhcp;
 164:src/apmfunc.c ****   BYTE    ip[12];
 165:src/apmfunc.c ****   BOOLEAN reboot_required=FALSE;
 166:src/apmfunc.c **** 
 167:src/apmfunc.c **** 
 168:src/apmfunc.c ****   func_sel = MenuSelect(&KTermIPMenu, 0);
 169:src/apmfunc.c ****   if (func_sel == -1)
 170:src/apmfunc.c ****     return;
 171:src/apmfunc.c **** 
 172:src/apmfunc.c ****   #if (DOCK_SUPPORT)
 173:src/apmfunc.c ****   bs_config_read(K_CF_BS_DHCPEnable, &dhcp);
 174:src/apmfunc.c ****   if (dhcp) {
 175:src/apmfunc.c ****     NetInfoMW(MW_NIF_ETHERNET, &netinfo);
 176:src/apmfunc.c ****     memcpy(ip, (BYTE *)&netinfo.d_ip, 12);
 177:src/apmfunc.c ****   }
 178:src/apmfunc.c ****   else {
 179:src/apmfunc.c ****     bs_config_read(K_CF_BS_IP,      &ip[0]);
 180:src/apmfunc.c ****     bs_config_read(K_CF_BS_Netmask, &ip[4]);
 181:src/apmfunc.c ****     bs_config_read(K_CF_BS_Gateway, &ip[8]);
 182:src/apmfunc.c ****   }
 183:src/apmfunc.c ****   #else
 184:src/apmfunc.c ****   GetSysCfgMW(MW_SYSCFG_DHCP_ENABLE, &dhcp);
 185:src/apmfunc.c ****   dhcp = (dhcp != 0)? 1: 0;
 186:src/apmfunc.c ****   if (dhcp) {
 187:src/apmfunc.c ****     NetInfoMW(MW_NIF_ETHERNET, &netinfo);
 188:src/apmfunc.c ****     memcpy(ip, (BYTE *)&netinfo.d_ip, 12);
 189:src/apmfunc.c ****   }
 190:src/apmfunc.c ****   else {
 191:src/apmfunc.c ****     GetSysCfgMW(MW_SYSCFG_IP,      &ip[0]);
 192:src/apmfunc.c ****     GetSysCfgMW(MW_SYSCFG_NETMASK, &ip[4]);
 193:src/apmfunc.c ****     GetSysCfgMW(MW_SYSCFG_GATEWAY, &ip[8]);
 194:src/apmfunc.c ****   }
 195:src/apmfunc.c ****   #endif
 196:src/apmfunc.c **** 
 197:src/apmfunc.c ****   switch (func_sel) {
 198:src/apmfunc.c ****     case 1:
 199:src/apmfunc.c ****       if (ConfigTermIP(ip))
 200:src/apmfunc.c ****         reboot_required=TRUE;
 201:src/apmfunc.c ****       break;
 202:src/apmfunc.c ****     case 2:
ARM GAS  C:\Users\AHMED~1.ELE\AppData\Local\Temp\cc42eyAw.s 			page 5


 203:src/apmfunc.c ****       if (ToggleDHCP(&dhcp, ip))
 204:src/apmfunc.c ****         reboot_required=TRUE;
 205:src/apmfunc.c ****       break;
 206:src/apmfunc.c ****   }
 207:src/apmfunc.c ****   if (reboot_required) {
 208:src/apmfunc.c ****     #if (DOCK_SUPPORT)
 209:src/apmfunc.c ****     bs_config_write(K_CF_BS_DHCPEnable, &dhcp, 1);
 210:src/apmfunc.c ****     bs_config_write(K_CF_BS_IP,      &ip[0], 4);
 211:src/apmfunc.c ****     bs_config_write(K_CF_BS_Netmask, &ip[4], 4);
 212:src/apmfunc.c ****     bs_config_write(K_CF_BS_Gateway, &ip[8], 4);
 213:src/apmfunc.c ****     bs_config_update();
 214:src/apmfunc.c ****     DispLineMW("Reboot BASE", MW_LINE5, MW_CLRDISP|MW_CENTER|MW_REVERSE|MW_BIGFONT);
 215:src/apmfunc.c ****     DispLineMW("PLEASE WAIT", MW_LINE7, MW_CENTER|MW_REVERSE|MW_BIGFONT);
 216:src/apmfunc.c ****     bs_reboot();
 217:src/apmfunc.c ****     // wait base ready.
 218:src/apmfunc.c ****     while (bs_loopback(ip, sizeof(ip), ip) == 0) {
 219:src/apmfunc.c ****       Delay1Sec(1, TRUE);
 220:src/apmfunc.c ****     } 
 221:src/apmfunc.c ****     #else
 222:src/apmfunc.c ****     PutSysCfgMW(MW_SYSCFG_DHCP_ENABLE, &dhcp);
 223:src/apmfunc.c ****     PutSysCfgMW(MW_SYSCFG_IP, &ip[0]);
 224:src/apmfunc.c ****     PutSysCfgMW(MW_SYSCFG_NETMASK, &ip[4]);
 225:src/apmfunc.c ****     PutSysCfgMW(MW_SYSCFG_GATEWAY, &ip[8]);
 226:src/apmfunc.c ****     UpdSysCfgMW();
 227:src/apmfunc.c ****     Disp2x16Msg(KReboot, MW_LINE3, MW_CLRDISP|MW_BIGFONT);
 228:src/apmfunc.c ****     if (WaitKey(KBD_TIMEOUT) == MWKEY_ENTER) {
 229:src/apmfunc.c ****       ResetMW();
 230:src/apmfunc.c ****     }
 231:src/apmfunc.c ****     #endif
 232:src/apmfunc.c ****   }
 233:src/apmfunc.c **** }
 234:src/apmfunc.c **** #endif //(LAN_SUPPORT)
 235:src/apmfunc.c **** //*****************************************************************************
 236:src/apmfunc.c **** //  Function        : CleanUp
 237:src/apmfunc.c **** //  Description     : Clean up init data.
 238:src/apmfunc.c **** //  Input           : N/A
 239:src/apmfunc.c **** //  Return          : N/A
 240:src/apmfunc.c **** //  Note            : N/A
 241:src/apmfunc.c **** //  Globals Changed : N/A
 242:src/apmfunc.c **** //*****************************************************************************
 243:src/apmfunc.c **** static void CleanUp(void)
 244:src/apmfunc.c **** {
 245:src/apmfunc.c ****   int func_sel;
 246:src/apmfunc.c **** 
 247:src/apmfunc.c ****   func_sel = MenuSelect(&KCleanUpMenu, 0);
 248:src/apmfunc.c ****   if (func_sel == -1)
 249:src/apmfunc.c ****     return;
 250:src/apmfunc.c **** 
 251:src/apmfunc.c ****   switch (func_sel) {
 252:src/apmfunc.c ****     case 1:
 253:src/apmfunc.c ****       DispLineMW(KResetAppData, MW_LINE1, MW_CLRDISP|MW_CENTER|MW_REVERSE|MW_BIGFONT);
 254:src/apmfunc.c ****       DispLineMW(KConfirm, MW_LINE5, MW_BIGFONT);
 255:src/apmfunc.c ****       if (ToggleYesNo() == 2) {   // Enter Pressed
 256:src/apmfunc.c ****         DispClrBelowMW(MW_LINE3);
 257:src/apmfunc.c ****         Disp2x16Msg(KADataReset, MW_LINE3, MW_BIGFONT);
 258:src/apmfunc.c ****         fCommitAllMW();
 259:src/apmfunc.c ****         CloseTermData();
ARM GAS  C:\Users\AHMED~1.ELE\AppData\Local\Temp\cc42eyAw.s 			page 6


 260:src/apmfunc.c ****         CloseSTISFiles();
 261:src/apmfunc.c ****         CloseExParamFiles();
 262:src/apmfunc.c **** 
 263:src/apmfunc.c ****         CreateTermData();
 264:src/apmfunc.c ****         CreateSTISFiles();
 265:src/apmfunc.c ****         CreateExParamFiles();
 266:src/apmfunc.c ****         fCommitAllMW();
 267:src/apmfunc.c **** 
 268:src/apmfunc.c ****         DispClrBelowMW(MW_LINE3);
 269:src/apmfunc.c ****         DispLineMW(KDataReseted, MW_LINE5, MW_CENTER|MW_BIGFONT);
 270:src/apmfunc.c ****         AcceptBeep();
 271:src/apmfunc.c ****         Delay1Sec(2, 0);
 272:src/apmfunc.c ****       }
 273:src/apmfunc.c ****       break;
 274:src/apmfunc.c ****     case 2:               // 01-08-07++ BF (3)
 275:src/apmfunc.c ****       DispLineMW(KResetEMVData, MW_LINE1, MW_CLRDISP|MW_CENTER|MW_REVERSE|MW_BIGFONT);
 276:src/apmfunc.c ****       DispLineMW(KConfirm, MW_LINE5, MW_BIGFONT);
 277:src/apmfunc.c ****       if (ToggleYesNo() == 2) { // Enter Pressed
 278:src/apmfunc.c ****         ClrEMVParam();    // Reset EMV param
 279:src/apmfunc.c ****         ClrEMVKey();   // Reset EMV key
 280:src/apmfunc.c ****         ClrCTLParam();    // Reset EMV Contactless param
 281:src/apmfunc.c ****         ClrCTLKey();   // Reset EMV Contactless key
 282:src/apmfunc.c ****         DispClrBelowMW(MW_LINE3);
 283:src/apmfunc.c ****         DispLineMW(KDataReseted, MW_LINE5, MW_CENTER|MW_BIGFONT);
 284:src/apmfunc.c ****         AcceptBeep();
 285:src/apmfunc.c ****         Delay1Sec(2, 0);
 286:src/apmfunc.c ****       }
 287:src/apmfunc.c ****       break;
 288:src/apmfunc.c ****     default:
 289:src/apmfunc.c ****       break;
 290:src/apmfunc.c ****   }
 291:src/apmfunc.c ****   fCommitAllMW();
 292:src/apmfunc.c **** }
 293:src/apmfunc.c **** //*****************************************************************************
 294:src/apmfunc.c **** //  Function        : MerchFunc
 295:src/apmfunc.c **** //  Description     : Process APM fuction.
 296:src/apmfunc.c **** //  Input           : aFuncId;        // Function Index. -1 => Prompt Select
 297:src/apmfunc.c **** //                    aGetAccess;     // TRUE prompt access code if necessary
 298:src/apmfunc.c **** //  Return          : 0;
 299:src/apmfunc.c **** //  Note            : N/A
 300:src/apmfunc.c **** //  Globals Changed : N/A
 301:src/apmfunc.c **** //*****************************************************************************
 302:src/apmfunc.c **** DWORD MerchFunc(int aFuncId, BOOLEAN aGetAccess)
 303:src/apmfunc.c **** {
  27              		.loc 1 303 0
  28              		.cfi_startproc
  29              		@ args = 0, pretend = 0, frame = 96
  30              		@ frame_needed = 0, uses_anonymous_args = 0
  31              	.LVL0:
  32 0000 2DE9F041 		push	{r4, r5, r6, r7, r8, lr}
  33              		.cfi_def_cfa_offset 24
  34              		.cfi_offset 4, -24
  35              		.cfi_offset 5, -20
  36              		.cfi_offset 6, -16
  37              		.cfi_offset 7, -12
  38              		.cfi_offset 8, -8
  39              		.cfi_offset 14, -4
ARM GAS  C:\Users\AHMED~1.ELE\AppData\Local\Temp\cc42eyAw.s 			page 7


 304:src/apmfunc.c ****   int func_sel;
 305:src/apmfunc.c ****   char filename[32], tmp[MW_MAX_LINESIZE+1];
 306:src/apmfunc.c **** 
 307:src/apmfunc.c ****   while (1) {
 308:src/apmfunc.c ****     if (aFuncId == -1) {
  40              		.loc 1 308 0
  41 0004 441C     		adds	r4, r0, #1
 303:src/apmfunc.c ****   int func_sel;
  42              		.loc 1 303 0
  43 0006 9AB0     		sub	sp, sp, #104
  44              		.cfi_def_cfa_offset 128
 303:src/apmfunc.c ****   int func_sel;
  45              		.loc 1 303 0
  46 0008 0646     		mov	r6, r0
  47 000a 0F46     		mov	r7, r1
  48              		.loc 1 308 0
  49 000c 07D1     		bne	.L71
  50              	.LVL1:
  51              	.L106:
 309:src/apmfunc.c ****       func_sel = MenuSelect(&KApmFuncMenu, 0);
  52              		.loc 1 309 0
  53 000e C748     		ldr	r0, .L118
  54 0010 0021     		movs	r1, #0
  55 0012 FFF7FEFF 		bl	MenuSelect
  56              	.LVL2:
  57 0016 0446     		mov	r4, r0
  58              	.LVL3:
 310:src/apmfunc.c ****       if (func_sel == -1)
  59              		.loc 1 310 0
  60 0018 0130     		adds	r0, r0, #1
  61              	.LVL4:
  62 001a 01D1     		bne	.L2
  63 001c D5E2     		b	.L94
  64              	.LVL5:
  65              	.L71:
  66 001e 0446     		mov	r4, r0
  67              	.LVL6:
  68              	.L2:
 311:src/apmfunc.c ****         break;
 312:src/apmfunc.c ****     }
 313:src/apmfunc.c ****     else
 314:src/apmfunc.c ****       func_sel = aFuncId;
 315:src/apmfunc.c ****    
 316:src/apmfunc.c ****     if (aGetAccess) {
  69              		.loc 1 316 0
  70 0020 FFB1     		cbz	r7, .L4
 317:src/apmfunc.c ****       // Prompt Access code if call from other appl.
 318:src/apmfunc.c ****       switch (func_sel) {
  71              		.loc 1 318 0
  72 0022 532C     		cmp	r4, #83
  73 0024 07DC     		bgt	.L6
  74 0026 502C     		cmp	r4, #80
  75 0028 1BDA     		bge	.L4
  76 002a 0B2C     		cmp	r4, #11
  77 002c 10DB     		blt	.L5
  78 002e 0C2C     		cmp	r4, #12
  79 0030 17DD     		ble	.L4
ARM GAS  C:\Users\AHMED~1.ELE\AppData\Local\Temp\cc42eyAw.s 			page 8


  80 0032 402C     		cmp	r4, #64
  81 0034 09E0     		b	.L116
  82              	.L6:
  83 0036 592C     		cmp	r4, #89
  84 0038 06DC     		bgt	.L7
  85 003a 582C     		cmp	r4, #88
  86 003c 11DA     		bge	.L4
  87 003e A4F15503 		sub	r3, r4, #85
  88 0042 012B     		cmp	r3, #1
  89 0044 0DD9     		bls	.L4
  90 0046 03E0     		b	.L5
  91              	.L7:
  92 0048 5E2C     		cmp	r4, #94
  93              	.L116:
  94 004a 01D1     		bne	.L5
  95 004c 3F2C     		cmp	r4, #63
  96 004e 0BE0     		b	.L105
  97              	.L5:
 319:src/apmfunc.c ****         // No need for following functions
 320:src/apmfunc.c ****         case 11:  case 12:  case 64:  case 80:  case 81: case 82: case 83:
 321:src/apmfunc.c ****         case 85:  case 86:  case 88:  case 89:  case 94:
 322:src/apmfunc.c ****           break;
 323:src/apmfunc.c ****         default:
 324:src/apmfunc.c ****           DispCtrlMW(MW_CLR_DISP);
  98              		.loc 1 324 0
  99 0050 0C21     		movs	r1, #12
 100 0052 1620     		movs	r0, #22
 101 0054 FFF7FEFF 		bl	sys_func1
 102              	.LVL7:
 325:src/apmfunc.c ****           if (!GetAccessCode())
 103              		.loc 1 325 0
 104 0058 FFF7FEFF 		bl	GetAccessCode
 105              	.LVL8:
 106 005c 0028     		cmp	r0, #0
 107 005e 00F0B482 		beq	.L94
 108              	.L4:
 326:src/apmfunc.c ****             return 0;
 327:src/apmfunc.c ****       }
 328:src/apmfunc.c ****     }
 329:src/apmfunc.c **** 
 330:src/apmfunc.c ****     switch (func_sel) {
 109              		.loc 1 330 0
 110 0062 3F2C     		cmp	r4, #63
 111 0064 00F0DF80 		beq	.L11
 112              	.L105:
 113 0068 23DC     		bgt	.L12
 114 006a 082C     		cmp	r4, #8
 115 006c 00F0B380 		beq	.L13
 116 0070 0DDC     		bgt	.L14
 117 0072 022C     		cmp	r4, #2
 118 0074 65D0     		beq	.L15
 119 0076 02DC     		bgt	.L16
 120 0078 002C     		cmp	r4, #0
 121 007a 52D0     		beq	.L17
 122 007c 78E2     		b	.L10
 123              	.L16:
 124 007e 032C     		cmp	r4, #3
ARM GAS  C:\Users\AHMED~1.ELE\AppData\Local\Temp\cc42eyAw.s 			page 9


 125 0080 62D0     		beq	.L18
 126 0082 072C     		cmp	r4, #7
 127 0084 40F07482 		bne	.L10
 331:src/apmfunc.c ****       case  0:
 332:src/apmfunc.c ****         if (GetRecCount()>0) {
 333:src/apmfunc.c ****           Disp2x16Msg(KSettleBatch, MW_LINE3, MW_CLRDISP|MW_BIGFONT);
 334:src/apmfunc.c ****           LongBeep();
 335:src/apmfunc.c ****           WaitKey(KBD_TIMEOUT);
 336:src/apmfunc.c ****           break;
 337:src/apmfunc.c ****         }
 338:src/apmfunc.c ****         InitTrans();
 339:src/apmfunc.c ****         break;
 340:src/apmfunc.c ****       case  2:
 341:src/apmfunc.c ****         SetupSTIS();
 342:src/apmfunc.c ****         fCommitAllMW();
 343:src/apmfunc.c ****         break;
 344:src/apmfunc.c ****       #if (LAN_SUPPORT)
 345:src/apmfunc.c ****       case  3:
 346:src/apmfunc.c ****         TermIPFunc();
 347:src/apmfunc.c ****         break;
 348:src/apmfunc.c ****       #endif //(LAN_SUPPORT)
 349:src/apmfunc.c ****       case  7:
 350:src/apmfunc.c ****         STISFTPSetup();                                               //29-09-16 JC ++
 128              		.loc 1 350 0
 129 0088 FFF7FEFF 		bl	STISFTPSetup
 130              	.LVL9:
 351:src/apmfunc.c ****         break;
 131              		.loc 1 351 0
 132 008c 72E2     		b	.L41
 133              	.L14:
 330:src/apmfunc.c ****       case  0:
 134              		.loc 1 330 0
 135 008e 0B2C     		cmp	r4, #11
 136 0090 00F0B780 		beq	.L20
 137 0094 06DC     		bgt	.L21
 138 0096 092C     		cmp	r4, #9
 139 0098 00F0A380 		beq	.L22
 140 009c 0A2C     		cmp	r4, #10
 141 009e 00F0A380 		beq	.L23
 142 00a2 65E2     		b	.L10
 143              	.L21:
 144 00a4 0C2C     		cmp	r4, #12
 145 00a6 00F0AF80 		beq	.L24
 146 00aa 3D2C     		cmp	r4, #61
 147 00ac 00F0B680 		beq	.L25
 148 00b0 5EE2     		b	.L10
 149              	.L12:
 150 00b2 542C     		cmp	r4, #84
 151 00b4 00F0DB80 		beq	.L26
 152 00b8 15DC     		bgt	.L27
 153 00ba 512C     		cmp	r4, #81
 154 00bc 00F0D180 		beq	.L28
 155 00c0 08DC     		bgt	.L29
 156 00c2 402C     		cmp	r4, #64
 157 00c4 00F0B380 		beq	.L30
 158 00c8 502C     		cmp	r4, #80
 159 00ca 40F05182 		bne	.L10
ARM GAS  C:\Users\AHMED~1.ELE\AppData\Local\Temp\cc42eyAw.s 			page 10


 352:src/apmfunc.c ****       case  8:
 353:src/apmfunc.c ****         STISFTPDownloadTrans(FALSE, MODE_ALL_PARAM_APP, FALSE);       //29-09-16 JC ++
 354:src/apmfunc.c ****         break;
 355:src/apmfunc.c ****       case  9:
 356:src/apmfunc.c ****         STISLoadParam();                                              //29-09-16 JC ++
 357:src/apmfunc.c ****         break;
 358:src/apmfunc.c ****       case  10:
 359:src/apmfunc.c ****         if (os_hd_config_extend() & K_XHdWifi)
 360:src/apmfunc.c ****           WifiStatus();
 361:src/apmfunc.c ****         else
 362:src/apmfunc.c ****           SetGPRS();
 363:src/apmfunc.c ****         break;
 364:src/apmfunc.c ****       case 11:
 365:src/apmfunc.c ****         PrintSTIS(TRUE, TRUE);
 366:src/apmfunc.c ****         break;
 367:src/apmfunc.c ****       case 12:
 368:src/apmfunc.c ****         if (Return2Base()) {
 369:src/apmfunc.c ****           PrintSTIS(TRUE, FALSE);
 370:src/apmfunc.c ****         }
 371:src/apmfunc.c ****         break;
 372:src/apmfunc.c ****       case 61:
 373:src/apmfunc.c ****         if (GetRecCount()>0) {
 374:src/apmfunc.c ****           Disp2x16Msg(KSettleBatch, MW_LINE3, MW_CLRDISP|MW_BIGFONT);
 375:src/apmfunc.c ****           LongBeep();
 376:src/apmfunc.c ****           WaitKey(KBD_TIMEOUT);
 377:src/apmfunc.c ****           break;
 378:src/apmfunc.c ****         }
 379:src/apmfunc.c ****         SetModeOnOff(TOGGLE_TRAINING);
 380:src/apmfunc.c ****         break;
 381:src/apmfunc.c ****       case 63:
 382:src/apmfunc.c ****         SetModeOnOff(TOGGLE_DEBUG);
 383:src/apmfunc.c ****         break;
 384:src/apmfunc.c ****       case 64:
 385:src/apmfunc.c ****         Disp2x16Msg(KReboot, MW_LINE3, MW_CLRDISP|MW_BIGFONT);
 386:src/apmfunc.c ****         if (WaitKey(KBD_TIMEOUT) == MWKEY_ENTER) {
 387:src/apmfunc.c ****           fCommitAllMW();
 388:src/apmfunc.c ****           ResetMW();
 389:src/apmfunc.c ****         }
 390:src/apmfunc.c ****         break;
 391:src/apmfunc.c ****       case 80:
 392:src/apmfunc.c ****         CalCheckDigit();
 160              		.loc 1 392 0
 161 00ce FFF7FEFF 		bl	CalCheckDigit
 162              	.LVL10:
 393:src/apmfunc.c ****         break;
 163              		.loc 1 393 0
 164 00d2 4FE2     		b	.L41
 165              	.L29:
 330:src/apmfunc.c ****       case  0:
 166              		.loc 1 330 0
 167 00d4 522C     		cmp	r4, #82
 168 00d6 00F0C780 		beq	.L32
 169 00da 532C     		cmp	r4, #83
 170 00dc 40F04882 		bne	.L10
 394:src/apmfunc.c ****       case 81:
 395:src/apmfunc.c ****         LcdSetup();
 396:src/apmfunc.c ****         break;
ARM GAS  C:\Users\AHMED~1.ELE\AppData\Local\Temp\cc42eyAw.s 			page 11


 397:src/apmfunc.c ****       #if (CDC_SUPPORT)           // Condition Compile for Codec Support
 398:src/apmfunc.c ****       case 82:
 399:src/apmfunc.c ****         SetCodecVol();
 400:src/apmfunc.c ****         break;
 401:src/apmfunc.c ****       #endif
 402:src/apmfunc.c ****       #if (T300|T810|A5T1000|T1000|T800)
 403:src/apmfunc.c ****       case 83:
 404:src/apmfunc.c ****         KbdBacklight();
 171              		.loc 1 404 0
 172 00e0 FFF7FEFF 		bl	KbdBacklight
 173              	.LVL11:
 405:src/apmfunc.c ****         break;
 174              		.loc 1 405 0
 175 00e4 46E2     		b	.L41
 176              	.L27:
 330:src/apmfunc.c ****       case  0:
 177              		.loc 1 330 0
 178 00e6 5E2C     		cmp	r4, #94
 179 00e8 00F00881 		beq	.L34
 180 00ec 12DC     		bgt	.L35
 181 00ee 592C     		cmp	r4, #89
 182 00f0 00F0C080 		beq	.L36
 183 00f4 5D2C     		cmp	r4, #93
 184 00f6 40F03B82 		bne	.L10
 406:src/apmfunc.c ****       #endif
 407:src/apmfunc.c ****       case 84:
 408:src/apmfunc.c ****         KeyDllTest();
 409:src/apmfunc.c ****         break;
 410:src/apmfunc.c ****       case 89:
 411:src/apmfunc.c ****         DispLineMW("Mem Avail :", MW_LINE3, MW_CLRDISP|MW_BIGFONT);
 412:src/apmfunc.c ****         sprintf(tmp, "%d", GetMaxMalloc());
 413:src/apmfunc.c ****         DispLineMW(tmp, MW_LINE5, MW_BIGFONT);
 414:src/apmfunc.c ****         WaitKey(KBD_TIMEOUT);
 415:src/apmfunc.c ****         break;
 416:src/apmfunc.c ****         break;
 417:src/apmfunc.c ****       case 93:
 418:src/apmfunc.c ****         // Key Inject for external pinpad channel
 419:src/apmfunc.c ****         strcpy(filename, DEV_AUX2);
 185              		.loc 1 419 0
 186 00fa 12A8     		add	r0, sp, #72
 187 00fc 8C49     		ldr	r1, .L118+4
 188 00fe FFF7FEFF 		bl	strcpy
 189              	.LVL12:
 420:src/apmfunc.c ****         SChnlSetupMW(filename, TRUE);
 190              		.loc 1 420 0
 191 0102 0023     		movs	r3, #0
 192 0104 1D21     		movs	r1, #29
 193 0106 0093     		str	r3, [sp]
 194 0108 12AA     		add	r2, sp, #72
 195 010a 0123     		movs	r3, #1
 196 010c 0F20     		movs	r0, #15
 197 010e FFF7FEFF 		bl	lib_app_call
 198              	.LVL13:
 199 0112 EEE0     		b	.L114
 200              	.L35:
 330:src/apmfunc.c ****       case  0:
 201              		.loc 1 330 0
ARM GAS  C:\Users\AHMED~1.ELE\AppData\Local\Temp\cc42eyAw.s 			page 12


 202 0114 622C     		cmp	r4, #98
 203 0116 00F0F880 		beq	.L38
 204 011a 632C     		cmp	r4, #99
 205 011c 00F0F880 		beq	.L39
 206 0120 26E2     		b	.L10
 207              	.L17:
 332:src/apmfunc.c ****           Disp2x16Msg(KSettleBatch, MW_LINE3, MW_CLRDISP|MW_BIGFONT);
 208              		.loc 1 332 0
 209 0122 FFF7FEFF 		bl	GetRecCount
 210              	.LVL14:
 211 0126 48B1     		cbz	r0, .L40
 212              	.L52:
 333:src/apmfunc.c ****           LongBeep();
 213              		.loc 1 333 0
 214 0128 8248     		ldr	r0, .L118+8
 215 012a 4FF44071 		mov	r1, #768
 216 012e 4FF48452 		mov	r2, #4224
 217 0132 FFF7FEFF 		bl	Disp2x16Msg
 218              	.LVL15:
 334:src/apmfunc.c ****           WaitKey(KBD_TIMEOUT);
 219              		.loc 1 334 0
 220 0136 FFF7FEFF 		bl	LongBeep
 221              	.LVL16:
 222 013a DAE0     		b	.L114
 223              	.L40:
 338:src/apmfunc.c ****         break;
 224              		.loc 1 338 0
 225 013c FFF7FEFF 		bl	InitTrans
 226              	.LVL17:
 339:src/apmfunc.c ****       case  2:
 227              		.loc 1 339 0
 228 0140 18E2     		b	.L41
 229              	.L15:
 341:src/apmfunc.c ****         fCommitAllMW();
 230              		.loc 1 341 0
 231 0142 FFF7FEFF 		bl	SetupSTIS
 232              	.LVL18:
 233 0146 0BE2     		b	.L56
 234              	.L18:
 235              	.LVL19:
 236              	.LBB14:
 237              	.LBB15:
 168:src/apmfunc.c ****   if (func_sel == -1)
 238              		.loc 1 168 0
 239 0148 7B48     		ldr	r0, .L118+12
 240 014a 0021     		movs	r1, #0
 241 014c FFF7FEFF 		bl	MenuSelect
 242              	.LVL20:
 169:src/apmfunc.c ****     return;
 243              		.loc 1 169 0
 244 0150 B0F1FF3F 		cmp	r0, #-1
 168:src/apmfunc.c ****   if (func_sel == -1)
 245              		.loc 1 168 0
 246 0154 8046     		mov	r8, r0
 247              	.LVL21:
 169:src/apmfunc.c ****     return;
 248              		.loc 1 169 0
ARM GAS  C:\Users\AHMED~1.ELE\AppData\Local\Temp\cc42eyAw.s 			page 13


 249 0156 00F00D82 		beq	.L41
 184:src/apmfunc.c ****   dhcp = (dhcp != 0)? 1: 0;
 250              		.loc 1 184 0
 251 015a B920     		movs	r0, #185
 252              	.LVL22:
 253 015c 1221     		movs	r1, #18
 254 015e 0DF10B02 		add	r2, sp, #11
 255 0162 FFF7FEFF 		bl	sys_func2
 256              	.LVL23:
 185:src/apmfunc.c ****   if (dhcp) {
 257              		.loc 1 185 0
 258 0166 9DF80B30 		ldrb	r3, [sp, #11]	@ zero_extendqisi2
 259 016a 03AC     		add	r4, sp, #12
 260              	.LVL24:
 261 016c 0033     		adds	r3, r3, #0
 262 016e 18BF     		it	ne
 263 0170 0123     		movne	r3, #1
 264 0172 8DF80B30 		strb	r3, [sp, #11]
 186:src/apmfunc.c ****     NetInfoMW(MW_NIF_ETHERNET, &netinfo);
 265              		.loc 1 186 0
 266 0176 53B1     		cbz	r3, .L43
 187:src/apmfunc.c ****     memcpy(ip, (BYTE *)&netinfo.d_ip, 12);
 267              		.loc 1 187 0
 268 0178 06AD     		add	r5, sp, #24
 269 017a 0021     		movs	r1, #0
 270 017c 2A46     		mov	r2, r5
 271 017e 1320     		movs	r0, #19
 272 0180 FFF7FEFF 		bl	base_func2
 273              	.LVL25:
 188:src/apmfunc.c ****   }
 274              		.loc 1 188 0
 275 0184 95E80700 		ldmia	r5, {r0, r1, r2}
 276 0188 84E80700 		stmia	r4, {r0, r1, r2}
 277 018c 0FE0     		b	.L44
 278              	.L43:
 191:src/apmfunc.c ****     GetSysCfgMW(MW_SYSCFG_NETMASK, &ip[4]);
 279              		.loc 1 191 0
 280 018e 0721     		movs	r1, #7
 281 0190 2246     		mov	r2, r4
 282 0192 B920     		movs	r0, #185
 283 0194 FFF7FEFF 		bl	sys_func2
 284              	.LVL26:
 192:src/apmfunc.c ****     GetSysCfgMW(MW_SYSCFG_GATEWAY, &ip[8]);
 285              		.loc 1 192 0
 286 0198 0C21     		movs	r1, #12
 287 019a 221D     		adds	r2, r4, #4
 288 019c B920     		movs	r0, #185
 289 019e FFF7FEFF 		bl	sys_func2
 290              	.LVL27:
 193:src/apmfunc.c ****   }
 291              		.loc 1 193 0
 292 01a2 B920     		movs	r0, #185
 293 01a4 0D21     		movs	r1, #13
 294 01a6 04F10802 		add	r2, r4, #8
 295 01aa FFF7FEFF 		bl	sys_func2
 296              	.LVL28:
 297              	.L44:
ARM GAS  C:\Users\AHMED~1.ELE\AppData\Local\Temp\cc42eyAw.s 			page 14


 197:src/apmfunc.c ****     case 1:
 298              		.loc 1 197 0
 299 01ae B8F1010F 		cmp	r8, #1
 300 01b2 09D0     		beq	.L46
 301 01b4 B8F1020F 		cmp	r8, #2
 302 01b8 40F0DC81 		bne	.L41
 203:src/apmfunc.c ****         reboot_required=TRUE;
 303              		.loc 1 203 0
 304 01bc 0DF10B00 		add	r0, sp, #11
 305 01c0 2146     		mov	r1, r4
 306 01c2 FFF7FEFF 		bl	ToggleDHCP
 307              	.LVL29:
 308 01c6 02E0     		b	.L110
 309              	.L46:
 199:src/apmfunc.c ****         reboot_required=TRUE;
 310              		.loc 1 199 0
 311 01c8 2046     		mov	r0, r4
 312 01ca FFF7FEFF 		bl	ConfigTermIP
 313              	.LVL30:
 314              	.L110:
 203:src/apmfunc.c ****         reboot_required=TRUE;
 315              		.loc 1 203 0
 316 01ce 0028     		cmp	r0, #0
 317 01d0 40F0D481 		bne	.L48
 318 01d4 CEE1     		b	.L41
 319              	.LVL31:
 320              	.L13:
 321              	.LBE15:
 322              	.LBE14:
 353:src/apmfunc.c ****         break;
 323              		.loc 1 353 0
 324 01d6 0020     		movs	r0, #0
 325 01d8 FF21     		movs	r1, #255
 326 01da 0246     		mov	r2, r0
 327 01dc FFF7FEFF 		bl	STISFTPDownloadTrans
 328              	.LVL32:
 354:src/apmfunc.c ****       case  9:
 329              		.loc 1 354 0
 330 01e0 C8E1     		b	.L41
 331              	.L22:
 356:src/apmfunc.c ****         break;
 332              		.loc 1 356 0
 333 01e2 FFF7FEFF 		bl	STISLoadParam
 334              	.LVL33:
 357:src/apmfunc.c ****       case  10:
 335              		.loc 1 357 0
 336 01e6 C5E1     		b	.L41
 337              	.L23:
 359:src/apmfunc.c ****           WifiStatus();
 338              		.loc 1 359 0
 339 01e8 0121     		movs	r1, #1
 340 01ea 4FF4D070 		mov	r0, #416
 341 01ee FFF7FEFF 		bl	sys_func1
 342              	.LVL34:
 343 01f2 0107     		lsls	r1, r0, #28
 344 01f4 02D5     		bpl	.L50
 360:src/apmfunc.c ****         else
ARM GAS  C:\Users\AHMED~1.ELE\AppData\Local\Temp\cc42eyAw.s 			page 15


 345              		.loc 1 360 0
 346 01f6 FFF7FEFF 		bl	WifiStatus
 347              	.LVL35:
 348 01fa BBE1     		b	.L41
 349              	.L50:
 362:src/apmfunc.c ****         break;
 350              		.loc 1 362 0
 351 01fc FFF7FEFF 		bl	SetGPRS
 352              	.LVL36:
 353 0200 B8E1     		b	.L41
 354              	.L20:
 365:src/apmfunc.c ****         break;
 355              		.loc 1 365 0
 356 0202 0120     		movs	r0, #1
 357 0204 0146     		mov	r1, r0
 358 0206 06E0     		b	.L112
 359              	.L24:
 368:src/apmfunc.c ****           PrintSTIS(TRUE, FALSE);
 360              		.loc 1 368 0
 361 0208 FFF7FEFF 		bl	Return2Base
 362              	.LVL37:
 363 020c 0028     		cmp	r0, #0
 364 020e 00F0B181 		beq	.L41
 369:src/apmfunc.c ****         }
 365              		.loc 1 369 0
 366 0212 0120     		movs	r0, #1
 367 0214 0021     		movs	r1, #0
 368              	.L112:
 369 0216 FFF7FEFF 		bl	PrintSTIS
 370              	.LVL38:
 371 021a ABE1     		b	.L41
 372              	.L25:
 373:src/apmfunc.c ****           Disp2x16Msg(KSettleBatch, MW_LINE3, MW_CLRDISP|MW_BIGFONT);
 373              		.loc 1 373 0
 374 021c FFF7FEFF 		bl	GetRecCount
 375              	.LVL39:
 376 0220 0028     		cmp	r0, #0
 377 0222 81D1     		bne	.L52
 378 0224 00E0     		b	.L113
 379              	.L11:
 382:src/apmfunc.c ****         break;
 380              		.loc 1 382 0
 381 0226 0120     		movs	r0, #1
 382              	.L113:
 383 0228 FFF7FEFF 		bl	SetModeOnOff
 384              	.LVL40:
 383:src/apmfunc.c ****       case 64:
 385              		.loc 1 383 0
 386 022c A2E1     		b	.L41
 387              	.L30:
 385:src/apmfunc.c ****         if (WaitKey(KBD_TIMEOUT) == MWKEY_ENTER) {
 388              		.loc 1 385 0
 389 022e 4348     		ldr	r0, .L118+16
 390 0230 4FF44071 		mov	r1, #768
 391 0234 4FF48452 		mov	r2, #4224
 392 0238 FFF7FEFF 		bl	Disp2x16Msg
 393              	.LVL41:
ARM GAS  C:\Users\AHMED~1.ELE\AppData\Local\Temp\cc42eyAw.s 			page 16


 386:src/apmfunc.c ****           fCommitAllMW();
 394              		.loc 1 386 0
 395 023c 42F22830 		movw	r0, #9000
 396 0240 FFF7FEFF 		bl	WaitKey
 397              	.LVL42:
 398 0244 1028     		cmp	r0, #16
 399 0246 40F09581 		bne	.L41
 387:src/apmfunc.c ****           ResetMW();
 400              		.loc 1 387 0
 401 024a 0022     		movs	r2, #0
 402 024c 0F20     		movs	r0, #15
 403 024e 0092     		str	r2, [sp]
 404 0250 1321     		movs	r1, #19
 405 0252 1346     		mov	r3, r2
 406 0254 FFF7FEFF 		bl	lib_app_call
 407              	.LVL43:
 408              	.L111:
 388:src/apmfunc.c ****         }
 409              		.loc 1 388 0
 410 0258 4FF4CF70 		mov	r0, #414
 411 025c FFF7FEFF 		bl	sys_func0
 412              	.LVL44:
 413 0260 88E1     		b	.L41
 414              	.LVL45:
 415              	.L28:
 395:src/apmfunc.c ****         break;
 416              		.loc 1 395 0
 417 0262 FFF7FEFF 		bl	LcdSetup
 418              	.LVL46:
 396:src/apmfunc.c ****       #if (CDC_SUPPORT)           // Condition Compile for Codec Support
 419              		.loc 1 396 0
 420 0266 85E1     		b	.L41
 421              	.L32:
 399:src/apmfunc.c ****         break;
 422              		.loc 1 399 0
 423 0268 FFF7FEFF 		bl	SetCodecVol
 424              	.LVL47:
 400:src/apmfunc.c ****       #endif
 425              		.loc 1 400 0
 426 026c 82E1     		b	.L41
 427              	.L26:
 408:src/apmfunc.c ****         break;
 428              		.loc 1 408 0
 429 026e FFF7FEFF 		bl	KeyDllTest
 430              	.LVL48:
 409:src/apmfunc.c ****       case 89:
 431              		.loc 1 409 0
 432 0272 7FE1     		b	.L41
 433              	.L36:
 434              	.LVL49:
 435              	.LBB17:
 411:src/apmfunc.c ****         sprintf(tmp, "%d", GetMaxMalloc());
 436              		.loc 1 411 0
 437 0274 9220     		movs	r0, #146
 438 0276 0C21     		movs	r1, #12
 439 0278 FFF7FEFF 		bl	sys_func1
 440              	.LVL50:
ARM GAS  C:\Users\AHMED~1.ELE\AppData\Local\Temp\cc42eyAw.s 			page 17


 441 027c 0446     		mov	r4, r0
 442              	.LVL51:
 443 027e 98B1     		cbz	r0, .L54
 411:src/apmfunc.c ****         sprintf(tmp, "%d", GetMaxMalloc());
 444              		.loc 1 411 0 is_stmt 0 discriminator 1
 445 0280 2F49     		ldr	r1, .L118+20
 446 0282 0B22     		movs	r2, #11
 447 0284 FFF7FEFF 		bl	memcpy
 448              	.LVL52:
 449 0288 0023     		movs	r3, #0
 450 028a 2521     		movs	r1, #37
 451 028c E372     		strb	r3, [r4, #11]
 452 028e 4FF48453 		mov	r3, #4224
 453 0292 0F20     		movs	r0, #15
 454 0294 0093     		str	r3, [sp]
 455 0296 2246     		mov	r2, r4
 456 0298 4FF44073 		mov	r3, #768
 457 029c FFF7FEFF 		bl	lib_app_call
 458              	.LVL53:
 459 02a0 9420     		movs	r0, #148
 460 02a2 2146     		mov	r1, r4
 461 02a4 FFF7FEFF 		bl	sys_func1
 462              	.LVL54:
 463              	.L54:
 464              	.LBE17:
 412:src/apmfunc.c ****         DispLineMW(tmp, MW_LINE5, MW_BIGFONT);
 465              		.loc 1 412 0 is_stmt 1
 466 02a8 FFF7FEFF 		bl	GetMaxMalloc
 467              	.LVL55:
 468 02ac 2549     		ldr	r1, .L118+24
 469 02ae 0246     		mov	r2, r0
 470 02b0 0BA8     		add	r0, sp, #44
 471 02b2 FFF7FEFF 		bl	sprintf
 472              	.LVL56:
 473              	.LBB18:
 413:src/apmfunc.c ****         WaitKey(KBD_TIMEOUT);
 474              		.loc 1 413 0
 475 02b6 0BA8     		add	r0, sp, #44
 476 02b8 FFF7FEFF 		bl	strlen
 477              	.LVL57:
 478 02bc 0546     		mov	r5, r0
 479              	.LVL58:
 480 02be 691C     		adds	r1, r5, #1
 481 02c0 9220     		movs	r0, #146
 482              	.LVL59:
 483 02c2 FFF7FEFF 		bl	sys_func1
 484              	.LVL60:
 485 02c6 0446     		mov	r4, r0
 486              	.LVL61:
 487 02c8 98B1     		cbz	r0, .L114
 413:src/apmfunc.c ****         WaitKey(KBD_TIMEOUT);
 488              		.loc 1 413 0 is_stmt 0 discriminator 1
 489 02ca 0BA9     		add	r1, sp, #44
 490 02cc 2A46     		mov	r2, r5
 491 02ce FFF7FEFF 		bl	memcpy
 492              	.LVL62:
 493 02d2 0023     		movs	r3, #0
ARM GAS  C:\Users\AHMED~1.ELE\AppData\Local\Temp\cc42eyAw.s 			page 18


 494 02d4 2521     		movs	r1, #37
 495 02d6 6355     		strb	r3, [r4, r5]
 496 02d8 4FF48053 		mov	r3, #4096
 497 02dc 0F20     		movs	r0, #15
 498 02de 0093     		str	r3, [sp]
 499 02e0 2246     		mov	r2, r4
 500 02e2 4FF4A063 		mov	r3, #1280
 501 02e6 FFF7FEFF 		bl	lib_app_call
 502              	.LVL63:
 503 02ea 9420     		movs	r0, #148
 504 02ec 2146     		mov	r1, r4
 505 02ee FFF7FEFF 		bl	sys_func1
 506              	.LVL64:
 507              	.L114:
 508              	.LBE18:
 421:src/apmfunc.c ****         WaitKey(KBD_TIMEOUT);
 509              		.loc 1 421 0 is_stmt 1
 510 02f2 42F22830 		movw	r0, #9000
 511 02f6 FFF7FEFF 		bl	WaitKey
 512              	.LVL65:
 422:src/apmfunc.c ****         break;
 513              		.loc 1 422 0
 514 02fa 3BE1     		b	.L41
 515              	.LVL66:
 516              	.L34:
 423:src/apmfunc.c ****       case 94:
 424:src/apmfunc.c ****         DispCtrlMW(MW_CLR_DISP);
 517              		.loc 1 424 0
 518 02fc 0C21     		movs	r1, #12
 519 02fe 1620     		movs	r0, #22
 520 0300 FFF7FEFF 		bl	sys_func1
 521              	.LVL67:
 425:src/apmfunc.c ****         UpdatePABX();
 522              		.loc 1 425 0
 523 0304 FFF7FEFF 		bl	UpdatePABX
 524              	.LVL68:
 426:src/apmfunc.c ****         break;
 525              		.loc 1 426 0
 526 0308 34E1     		b	.L41
 527              	.L38:
 427:src/apmfunc.c ****       case 98:
 428:src/apmfunc.c ****         SetupTerm();
 528              		.loc 1 428 0
 529 030a FFF7FEFF 		bl	SetupTerm
 530              	.LVL69:
 531 030e 27E1     		b	.L56
 532              	.L39:
 533              	.LBB19:
 534              	.LBB20:
 247:src/apmfunc.c ****   if (func_sel == -1)
 535              		.loc 1 247 0
 536 0310 0D48     		ldr	r0, .L118+28
 537 0312 0021     		movs	r1, #0
 538 0314 FFF7FEFF 		bl	MenuSelect
 539              	.LVL70:
 248:src/apmfunc.c ****     return;
 540              		.loc 1 248 0
ARM GAS  C:\Users\AHMED~1.ELE\AppData\Local\Temp\cc42eyAw.s 			page 19


 541 0318 421C     		adds	r2, r0, #1
 542 031a 00F02B81 		beq	.L41
 251:src/apmfunc.c ****     case 1:
 543              		.loc 1 251 0
 544 031e 0128     		cmp	r0, #1
 545 0320 14D0     		beq	.L57
 546 0322 0228     		cmp	r0, #2
 547 0324 00F0AB80 		beq	.L58
 548 0328 1AE1     		b	.L56
 549              	.L119:
 550 032a 00BF     		.align	2
 551              	.L118:
 552 032c 00000000 		.word	.LANCHOR0
 553 0330 0F000000 		.word	.LC2
 554 0334 00000000 		.word	KSettleBatch
 555 0338 1C000000 		.word	.LANCHOR0+28
 556 033c 00000000 		.word	KReboot
 557 0340 00000000 		.word	.LC0
 558 0344 0C000000 		.word	.LC1
 559 0348 38000000 		.word	.LANCHOR0+56
 560              	.L57:
 561              	.LBB21:
 253:src/apmfunc.c ****       DispLineMW(KConfirm, MW_LINE5, MW_BIGFONT);
 562              		.loc 1 253 0
 563 034c A148     		ldr	r0, .L120
 564              	.LVL71:
 565 034e FFF7FEFF 		bl	strlen
 566              	.LVL72:
 567 0352 0546     		mov	r5, r0
 568              	.LVL73:
 569 0354 691C     		adds	r1, r5, #1
 570 0356 9220     		movs	r0, #146
 571              	.LVL74:
 572 0358 FFF7FEFF 		bl	sys_func1
 573              	.LVL75:
 574 035c 0446     		mov	r4, r0
 575              	.LVL76:
 576 035e 98B1     		cbz	r0, .L59
 577 0360 9C49     		ldr	r1, .L120
 578 0362 2A46     		mov	r2, r5
 579 0364 FFF7FEFF 		bl	memcpy
 580              	.LVL77:
 581 0368 0023     		movs	r3, #0
 582 036a 2521     		movs	r1, #37
 583 036c 6355     		strb	r3, [r4, r5]
 584 036e 41F29203 		movw	r3, #4242
 585 0372 0F20     		movs	r0, #15
 586 0374 0093     		str	r3, [sp]
 587 0376 2246     		mov	r2, r4
 588 0378 4FF48073 		mov	r3, #256
 589 037c FFF7FEFF 		bl	lib_app_call
 590              	.LVL78:
 591 0380 9420     		movs	r0, #148
 592 0382 2146     		mov	r1, r4
 593 0384 FFF7FEFF 		bl	sys_func1
 594              	.LVL79:
 595              	.L59:
ARM GAS  C:\Users\AHMED~1.ELE\AppData\Local\Temp\cc42eyAw.s 			page 20


 596              	.LBE21:
 597              	.LBB22:
 254:src/apmfunc.c ****       if (ToggleYesNo() == 2) {   // Enter Pressed
 598              		.loc 1 254 0
 599 0388 9348     		ldr	r0, .L120+4
 600 038a FFF7FEFF 		bl	strlen
 601              	.LVL80:
 602 038e 0546     		mov	r5, r0
 603              	.LVL81:
 604 0390 691C     		adds	r1, r5, #1
 605 0392 9220     		movs	r0, #146
 606              	.LVL82:
 607 0394 FFF7FEFF 		bl	sys_func1
 608              	.LVL83:
 609 0398 0446     		mov	r4, r0
 610              	.LVL84:
 611 039a 98B1     		cbz	r0, .L60
 612 039c 8E49     		ldr	r1, .L120+4
 613 039e 2A46     		mov	r2, r5
 614 03a0 FFF7FEFF 		bl	memcpy
 615              	.LVL85:
 616 03a4 0023     		movs	r3, #0
 617 03a6 2521     		movs	r1, #37
 618 03a8 6355     		strb	r3, [r4, r5]
 619 03aa 4FF48053 		mov	r3, #4096
 620 03ae 0F20     		movs	r0, #15
 621 03b0 0093     		str	r3, [sp]
 622 03b2 2246     		mov	r2, r4
 623 03b4 4FF4A063 		mov	r3, #1280
 624 03b8 FFF7FEFF 		bl	lib_app_call
 625              	.LVL86:
 626 03bc 9420     		movs	r0, #148
 627 03be 2146     		mov	r1, r4
 628 03c0 FFF7FEFF 		bl	sys_func1
 629              	.LVL87:
 630              	.L60:
 631              	.LBE22:
 255:src/apmfunc.c ****         DispClrBelowMW(MW_LINE3);
 632              		.loc 1 255 0
 633 03c4 FFF7FEFF 		bl	ToggleYesNo
 634              	.LVL88:
 635 03c8 0228     		cmp	r0, #2
 636 03ca 40F0C980 		bne	.L56
 256:src/apmfunc.c ****         Disp2x16Msg(KADataReset, MW_LINE3, MW_BIGFONT);
 637              		.loc 1 256 0
 638 03ce 0024     		movs	r4, #0
 639              	.LVL89:
 640 03d0 2346     		mov	r3, r4
 641 03d2 2321     		movs	r1, #35
 642 03d4 4FF44072 		mov	r2, #768
 643 03d8 0094     		str	r4, [sp]
 644 03da 0F20     		movs	r0, #15
 645 03dc FFF7FEFF 		bl	lib_app_call
 646              	.LVL90:
 257:src/apmfunc.c ****         fCommitAllMW();
 647              		.loc 1 257 0
 648 03e0 7E48     		ldr	r0, .L120+8
ARM GAS  C:\Users\AHMED~1.ELE\AppData\Local\Temp\cc42eyAw.s 			page 21


 649 03e2 4FF44071 		mov	r1, #768
 650 03e6 4FF48052 		mov	r2, #4096
 651 03ea FFF7FEFF 		bl	Disp2x16Msg
 652              	.LVL91:
 258:src/apmfunc.c ****         CloseTermData();
 653              		.loc 1 258 0
 654 03ee 1321     		movs	r1, #19
 655 03f0 2246     		mov	r2, r4
 656 03f2 2346     		mov	r3, r4
 657 03f4 0094     		str	r4, [sp]
 658 03f6 0F20     		movs	r0, #15
 659 03f8 FFF7FEFF 		bl	lib_app_call
 660              	.LVL92:
 259:src/apmfunc.c ****         CloseSTISFiles();
 661              		.loc 1 259 0
 662 03fc FFF7FEFF 		bl	CloseTermData
 663              	.LVL93:
 260:src/apmfunc.c ****         CloseExParamFiles();
 664              		.loc 1 260 0
 665 0400 FFF7FEFF 		bl	CloseSTISFiles
 666              	.LVL94:
 261:src/apmfunc.c **** 
 667              		.loc 1 261 0
 668 0404 FFF7FEFF 		bl	CloseExParamFiles
 669              	.LVL95:
 263:src/apmfunc.c ****         CreateSTISFiles();
 670              		.loc 1 263 0
 671 0408 FFF7FEFF 		bl	CreateTermData
 672              	.LVL96:
 264:src/apmfunc.c ****         CreateExParamFiles();
 673              		.loc 1 264 0
 674 040c FFF7FEFF 		bl	CreateSTISFiles
 675              	.LVL97:
 265:src/apmfunc.c ****         fCommitAllMW();
 676              		.loc 1 265 0
 677 0410 FFF7FEFF 		bl	CreateExParamFiles
 678              	.LVL98:
 266:src/apmfunc.c **** 
 679              		.loc 1 266 0
 680 0414 1321     		movs	r1, #19
 681 0416 2246     		mov	r2, r4
 682 0418 2346     		mov	r3, r4
 683 041a 0094     		str	r4, [sp]
 684 041c 0F20     		movs	r0, #15
 685 041e FFF7FEFF 		bl	lib_app_call
 686              	.LVL99:
 268:src/apmfunc.c ****         DispLineMW(KDataReseted, MW_LINE5, MW_CENTER|MW_BIGFONT);
 687              		.loc 1 268 0
 688 0422 2321     		movs	r1, #35
 689 0424 4FF44072 		mov	r2, #768
 690 0428 2346     		mov	r3, r4
 691 042a 0094     		str	r4, [sp]
 692 042c 0F20     		movs	r0, #15
 693 042e FFF7FEFF 		bl	lib_app_call
 694              	.LVL100:
 695              	.LBB23:
 269:src/apmfunc.c ****         AcceptBeep();
ARM GAS  C:\Users\AHMED~1.ELE\AppData\Local\Temp\cc42eyAw.s 			page 22


 696              		.loc 1 269 0
 697 0432 6B48     		ldr	r0, .L120+12
 698 0434 FFF7FEFF 		bl	strlen
 699              	.LVL101:
 700 0438 8046     		mov	r8, r0
 701              	.LVL102:
 702 043a 08F10101 		add	r1, r8, #1
 703 043e 9220     		movs	r0, #146
 704              	.LVL103:
 705 0440 FFF7FEFF 		bl	sys_func1
 706              	.LVL104:
 707 0444 0546     		mov	r5, r0
 708              	.LVL105:
 709 0446 98B1     		cbz	r0, .L63
 710 0448 6549     		ldr	r1, .L120+12
 711 044a 4246     		mov	r2, r8
 712 044c FFF7FEFF 		bl	memcpy
 713              	.LVL106:
 714 0450 41F20203 		movw	r3, #4098
 715 0454 05F80840 		strb	r4, [r5, r8]
 716 0458 2521     		movs	r1, #37
 717 045a 0093     		str	r3, [sp]
 718 045c 0F20     		movs	r0, #15
 719 045e 2A46     		mov	r2, r5
 720 0460 4FF4A063 		mov	r3, #1280
 721 0464 FFF7FEFF 		bl	lib_app_call
 722              	.LVL107:
 723 0468 9420     		movs	r0, #148
 724 046a 2946     		mov	r1, r5
 725              	.LVL108:
 726              	.L108:
 727 046c FFF7FEFF 		bl	sys_func1
 728              	.LVL109:
 729              	.L63:
 730              	.LBE23:
 270:src/apmfunc.c ****         Delay1Sec(2, 0);
 731              		.loc 1 270 0
 732 0470 FFF7FEFF 		bl	AcceptBeep
 733              	.LVL110:
 271:src/apmfunc.c ****       }
 734              		.loc 1 271 0
 735 0474 0220     		movs	r0, #2
 736 0476 0021     		movs	r1, #0
 737 0478 FFF7FEFF 		bl	Delay1Sec
 738              	.LVL111:
 739 047c 70E0     		b	.L56
 740              	.LVL112:
 741              	.L58:
 742              	.LBB24:
 275:src/apmfunc.c ****       DispLineMW(KConfirm, MW_LINE5, MW_BIGFONT);
 743              		.loc 1 275 0
 744 047e 5948     		ldr	r0, .L120+16
 745              	.LVL113:
 746 0480 FFF7FEFF 		bl	strlen
 747              	.LVL114:
 748 0484 0546     		mov	r5, r0
 749              	.LVL115:
ARM GAS  C:\Users\AHMED~1.ELE\AppData\Local\Temp\cc42eyAw.s 			page 23


 750 0486 691C     		adds	r1, r5, #1
 751 0488 9220     		movs	r0, #146
 752              	.LVL116:
 753 048a FFF7FEFF 		bl	sys_func1
 754              	.LVL117:
 755 048e 0446     		mov	r4, r0
 756              	.LVL118:
 757 0490 98B1     		cbz	r0, .L64
 758 0492 5449     		ldr	r1, .L120+16
 759 0494 2A46     		mov	r2, r5
 760 0496 FFF7FEFF 		bl	memcpy
 761              	.LVL119:
 762 049a 0023     		movs	r3, #0
 763 049c 2521     		movs	r1, #37
 764 049e 6355     		strb	r3, [r4, r5]
 765 04a0 41F29203 		movw	r3, #4242
 766 04a4 0F20     		movs	r0, #15
 767 04a6 0093     		str	r3, [sp]
 768 04a8 2246     		mov	r2, r4
 769 04aa 4FF48073 		mov	r3, #256
 770 04ae FFF7FEFF 		bl	lib_app_call
 771              	.LVL120:
 772 04b2 9420     		movs	r0, #148
 773 04b4 2146     		mov	r1, r4
 774 04b6 FFF7FEFF 		bl	sys_func1
 775              	.LVL121:
 776              	.L64:
 777              	.LBE24:
 778              	.LBB25:
 276:src/apmfunc.c ****       if (ToggleYesNo() == 2) { // Enter Pressed
 779              		.loc 1 276 0
 780 04ba 4748     		ldr	r0, .L120+4
 781 04bc FFF7FEFF 		bl	strlen
 782              	.LVL122:
 783 04c0 0546     		mov	r5, r0
 784              	.LVL123:
 785 04c2 691C     		adds	r1, r5, #1
 786 04c4 9220     		movs	r0, #146
 787              	.LVL124:
 788 04c6 FFF7FEFF 		bl	sys_func1
 789              	.LVL125:
 790 04ca 0446     		mov	r4, r0
 791              	.LVL126:
 792 04cc 98B1     		cbz	r0, .L65
 793 04ce 4249     		ldr	r1, .L120+4
 794 04d0 2A46     		mov	r2, r5
 795 04d2 FFF7FEFF 		bl	memcpy
 796              	.LVL127:
 797 04d6 0023     		movs	r3, #0
 798 04d8 2521     		movs	r1, #37
 799 04da 6355     		strb	r3, [r4, r5]
 800 04dc 4FF48053 		mov	r3, #4096
 801 04e0 0F20     		movs	r0, #15
 802 04e2 0093     		str	r3, [sp]
 803 04e4 2246     		mov	r2, r4
 804 04e6 4FF4A063 		mov	r3, #1280
 805 04ea FFF7FEFF 		bl	lib_app_call
ARM GAS  C:\Users\AHMED~1.ELE\AppData\Local\Temp\cc42eyAw.s 			page 24


 806              	.LVL128:
 807 04ee 9420     		movs	r0, #148
 808 04f0 2146     		mov	r1, r4
 809 04f2 FFF7FEFF 		bl	sys_func1
 810              	.LVL129:
 811              	.L65:
 812              	.LBE25:
 277:src/apmfunc.c ****         ClrEMVParam();    // Reset EMV param
 813              		.loc 1 277 0
 814 04f6 FFF7FEFF 		bl	ToggleYesNo
 815              	.LVL130:
 816 04fa 0228     		cmp	r0, #2
 817 04fc 30D1     		bne	.L56
 282:src/apmfunc.c ****         DispLineMW(KDataReseted, MW_LINE5, MW_CENTER|MW_BIGFONT);
 818              		.loc 1 282 0
 819 04fe 4FF00008 		mov	r8, #0
 278:src/apmfunc.c ****         ClrEMVKey();   // Reset EMV key
 820              		.loc 1 278 0
 821 0502 FFF7FEFF 		bl	ClrEMVParam
 822              	.LVL131:
 279:src/apmfunc.c ****         ClrCTLParam();    // Reset EMV Contactless param
 823              		.loc 1 279 0
 824 0506 FFF7FEFF 		bl	ClrEMVKey
 825              	.LVL132:
 280:src/apmfunc.c ****         ClrCTLKey();   // Reset EMV Contactless key
 826              		.loc 1 280 0
 827 050a FFF7FEFF 		bl	ClrCTLParam
 828              	.LVL133:
 281:src/apmfunc.c ****         DispClrBelowMW(MW_LINE3);
 829              		.loc 1 281 0
 830 050e FFF7FEFF 		bl	ClrCTLKey
 831              	.LVL134:
 282:src/apmfunc.c ****         DispLineMW(KDataReseted, MW_LINE5, MW_CENTER|MW_BIGFONT);
 832              		.loc 1 282 0
 833 0512 2321     		movs	r1, #35
 834 0514 4FF44072 		mov	r2, #768
 835 0518 4346     		mov	r3, r8
 836 051a CDF80080 		str	r8, [sp]
 837 051e 0F20     		movs	r0, #15
 838 0520 FFF7FEFF 		bl	lib_app_call
 839              	.LVL135:
 840              	.LBB26:
 283:src/apmfunc.c ****         AcceptBeep();
 841              		.loc 1 283 0
 842 0524 2E48     		ldr	r0, .L120+12
 843 0526 FFF7FEFF 		bl	strlen
 844              	.LVL136:
 845 052a 0546     		mov	r5, r0
 846              	.LVL137:
 847 052c 691C     		adds	r1, r5, #1
 848 052e 9220     		movs	r0, #146
 849              	.LVL138:
 850 0530 FFF7FEFF 		bl	sys_func1
 851              	.LVL139:
 852 0534 0446     		mov	r4, r0
 853              	.LVL140:
 854 0536 0028     		cmp	r0, #0
ARM GAS  C:\Users\AHMED~1.ELE\AppData\Local\Temp\cc42eyAw.s 			page 25


 855 0538 9AD0     		beq	.L63
 856 053a 2949     		ldr	r1, .L120+12
 857 053c 2A46     		mov	r2, r5
 858 053e FFF7FEFF 		bl	memcpy
 859              	.LVL141:
 860 0542 41F20203 		movw	r3, #4098
 861 0546 04F80580 		strb	r8, [r4, r5]
 862 054a 2521     		movs	r1, #37
 863 054c 0093     		str	r3, [sp]
 864 054e 0F20     		movs	r0, #15
 865 0550 2246     		mov	r2, r4
 866 0552 4FF4A063 		mov	r3, #1280
 867 0556 FFF7FEFF 		bl	lib_app_call
 868              	.LVL142:
 869 055a 9420     		movs	r0, #148
 870 055c 2146     		mov	r1, r4
 871 055e 85E7     		b	.L108
 872              	.LVL143:
 873              	.L56:
 874              	.LBE26:
 291:src/apmfunc.c **** }
 875              		.loc 1 291 0
 876 0560 0022     		movs	r2, #0
 877 0562 1321     		movs	r1, #19
 878 0564 0092     		str	r2, [sp]
 879 0566 1346     		mov	r3, r2
 880 0568 0F20     		movs	r0, #15
 881 056a FFF7FEFF 		bl	lib_app_call
 882              	.LVL144:
 883 056e 01E0     		b	.L41
 884              	.LVL145:
 885              	.L10:
 886              	.LBE20:
 887              	.LBE19:
 429:src/apmfunc.c ****         fCommitAllMW();
 430:src/apmfunc.c ****         break;
 431:src/apmfunc.c ****       case 99:
 432:src/apmfunc.c ****         CleanUp();
 433:src/apmfunc.c ****         break;
 434:src/apmfunc.c ****       default:
 435:src/apmfunc.c ****         LongBeep();
 888              		.loc 1 435 0
 889 0570 FFF7FEFF 		bl	LongBeep
 890              	.LVL146:
 891              	.L41:
 436:src/apmfunc.c ****         break;
 437:src/apmfunc.c ****     }
 438:src/apmfunc.c ****     if (aFuncId != -1)   // Not menu selection.
 892              		.loc 1 438 0
 893 0574 731C     		adds	r3, r6, #1
 894 0576 3FF44AAD 		beq	.L106
 895 057a 26E0     		b	.L94
 896              	.LVL147:
 897              	.L48:
 898              	.LBB27:
 899              	.LBB16:
 222:src/apmfunc.c ****     PutSysCfgMW(MW_SYSCFG_IP, &ip[0]);
ARM GAS  C:\Users\AHMED~1.ELE\AppData\Local\Temp\cc42eyAw.s 			page 26


 900              		.loc 1 222 0
 901 057c 1221     		movs	r1, #18
 902 057e 0DF10B02 		add	r2, sp, #11
 903 0582 BA20     		movs	r0, #186
 904 0584 FFF7FEFF 		bl	sys_func2
 905              	.LVL148:
 223:src/apmfunc.c ****     PutSysCfgMW(MW_SYSCFG_NETMASK, &ip[4]);
 906              		.loc 1 223 0
 907 0588 0721     		movs	r1, #7
 908 058a 2246     		mov	r2, r4
 909 058c BA20     		movs	r0, #186
 910 058e FFF7FEFF 		bl	sys_func2
 911              	.LVL149:
 224:src/apmfunc.c ****     PutSysCfgMW(MW_SYSCFG_GATEWAY, &ip[8]);
 912              		.loc 1 224 0
 913 0592 0C21     		movs	r1, #12
 914 0594 221D     		adds	r2, r4, #4
 915 0596 BA20     		movs	r0, #186
 916 0598 FFF7FEFF 		bl	sys_func2
 917              	.LVL150:
 225:src/apmfunc.c ****     UpdSysCfgMW();
 918              		.loc 1 225 0
 919 059c 0D21     		movs	r1, #13
 920 059e 04F10802 		add	r2, r4, #8
 921 05a2 BA20     		movs	r0, #186
 922 05a4 FFF7FEFF 		bl	sys_func2
 923              	.LVL151:
 226:src/apmfunc.c ****     Disp2x16Msg(KReboot, MW_LINE3, MW_CLRDISP|MW_BIGFONT);
 924              		.loc 1 226 0
 925 05a8 BB20     		movs	r0, #187
 926 05aa FFF7FEFF 		bl	sys_func0
 927              	.LVL152:
 227:src/apmfunc.c ****     if (WaitKey(KBD_TIMEOUT) == MWKEY_ENTER) {
 928              		.loc 1 227 0
 929 05ae 0E48     		ldr	r0, .L120+20
 930 05b0 4FF44071 		mov	r1, #768
 931 05b4 4FF48452 		mov	r2, #4224
 932 05b8 FFF7FEFF 		bl	Disp2x16Msg
 933              	.LVL153:
 228:src/apmfunc.c ****       ResetMW();
 934              		.loc 1 228 0
 935 05bc 42F22830 		movw	r0, #9000
 936 05c0 FFF7FEFF 		bl	WaitKey
 937              	.LVL154:
 938 05c4 1028     		cmp	r0, #16
 939 05c6 D5D1     		bne	.L41
 940 05c8 46E6     		b	.L111
 941              	.LVL155:
 942              	.L94:
 943              	.LBE16:
 944              	.LBE27:
 439:src/apmfunc.c ****       break;
 440:src/apmfunc.c ****   }
 441:src/apmfunc.c ****   return 0;
 442:src/apmfunc.c **** }
 945              		.loc 1 442 0
 946 05ca 0020     		movs	r0, #0
ARM GAS  C:\Users\AHMED~1.ELE\AppData\Local\Temp\cc42eyAw.s 			page 27


 947 05cc 1AB0     		add	sp, sp, #104
 948              		.cfi_def_cfa_offset 24
 949              		@ sp needed
 950 05ce BDE8F081 		pop	{r4, r5, r6, r7, r8, pc}
 951              	.LVL156:
 952              	.L121:
 953 05d2 00BF     		.align	2
 954              	.L120:
 955 05d4 00000000 		.word	KResetAppData
 956 05d8 00000000 		.word	KConfirm
 957 05dc 00000000 		.word	KADataReset
 958 05e0 00000000 		.word	KDataReseted
 959 05e4 00000000 		.word	KResetEMVData
 960 05e8 00000000 		.word	KReboot
 961              		.cfi_endproc
 962              	.LFE2:
 963              		.size	MerchFunc, .-MerchFunc
 964              		.section	.text.InitApplList,"ax",%progbits
 965              		.align	1
 966              		.global	InitApplList
 967              		.thumb
 968              		.thumb_func
 969              		.type	InitApplList, %function
 970              	InitApplList:
 971              	.LFB3:
 443:src/apmfunc.c **** //*****************************************************************************
 444:src/apmfunc.c **** //  Function        : InitApplList
 445:src/apmfunc.c **** //  Description     : Init Application list for application selection.
 446:src/apmfunc.c **** //  Input           : N/A
 447:src/apmfunc.c **** //  Return          : N/A
 448:src/apmfunc.c **** //  Note            : N/A
 449:src/apmfunc.c **** //  Globals Changed : N/A
 450:src/apmfunc.c **** //*****************************************************************************
 451:src/apmfunc.c **** void InitApplList(void)
 452:src/apmfunc.c **** {
 972              		.loc 1 452 0
 973              		.cfi_startproc
 974              		@ args = 0, pretend = 0, frame = 0
 975              		@ frame_needed = 0, uses_anonymous_args = 0
 976 0000 F7B5     		push	{r0, r1, r2, r4, r5, r6, r7, lr}
 977              		.cfi_def_cfa_offset 32
 978              		.cfi_offset 4, -20
 979              		.cfi_offset 5, -16
 980              		.cfi_offset 6, -12
 981              		.cfi_offset 7, -8
 982              		.cfi_offset 14, -4
 453:src/apmfunc.c ****   int i;
 454:src/apmfunc.c **** 
 455:src/apmfunc.c **** #if ENABLE_DEFAULT_APP
 456:src/apmfunc.c ****   BOOLEAN defaultAppFound = false;
 457:src/apmfunc.c ****   memset(&gFileData, 0, sizeof(gFileData));
 458:src/apmfunc.c ****   LoadFile();
 459:src/apmfunc.c **** #if FORCE_DEFAULT_APP
 460:src/apmfunc.c **** #warning forcing default app is on!
 461:src/apmfunc.c ****   gFileData.bDefaultAppID = FORCE_DEFAULT_APP;
 462:src/apmfunc.c **** #endif
 463:src/apmfunc.c **** #endif
ARM GAS  C:\Users\AHMED~1.ELE\AppData\Local\Temp\cc42eyAw.s 			page 28


 464:src/apmfunc.c **** 
 465:src/apmfunc.c ****   gApplCount = 0;
 983              		.loc 1 465 0
 984 0002 174D     		ldr	r5, .L129
 985 0004 0024     		movs	r4, #0
 466:src/apmfunc.c ****   gAppList = (struct APPL_LIST *) MallocMW(sizeof(struct APPL_LIST) * MAX_APPL_SUPPORT);
 986              		.loc 1 466 0
 987 0006 4FF49051 		mov	r1, #4608
 988 000a 9220     		movs	r0, #146
 465:src/apmfunc.c ****   gAppList = (struct APPL_LIST *) MallocMW(sizeof(struct APPL_LIST) * MAX_APPL_SUPPORT);
 989              		.loc 1 465 0
 990 000c 2C60     		str	r4, [r5]
 991              		.loc 1 466 0
 992 000e FFF7FEFF 		bl	sys_func1
 993              	.LVL157:
 994 0012 2E46     		mov	r6, r5
 995 0014 6860     		str	r0, [r5, #4]
 467:src/apmfunc.c ****   MemFatalErr(gAppList);
 996              		.loc 1 467 0
 997 0016 FFF7FEFF 		bl	MemFatalErr
 998              	.LVL158:
 999              	.L124:
 468:src/apmfunc.c ****   for (i = 0; i < MAX_APPL_SUPPORT; i++)
 469:src/apmfunc.c ****   {
 470:src/apmfunc.c ****     gAppList[i].bActive = FALSE;
 1000              		.loc 1 470 0
 1001 001a 2425     		movs	r5, #36
 1002 001c 7168     		ldr	r1, [r6, #4]
 1003 001e 0022     		movs	r2, #0
 1004 0020 05FB04F3 		mul	r3, r5, r4
 471:src/apmfunc.c ****     if (AppInfoGetMW(i + MY_APPL_ID, &gAppList[gApplCount].sAppInfo))
 1005              		.loc 1 471 0
 1006 0024 0F20     		movs	r0, #15
 470:src/apmfunc.c ****     if (AppInfoGetMW(i + MY_APPL_ID, &gAppList[gApplCount].sAppInfo))
 1007              		.loc 1 470 0
 1008 0026 CA54     		strb	r2, [r1, r3]
 1009              		.loc 1 471 0
 1010 0028 3368     		ldr	r3, [r6]
 1011 002a 0092     		str	r2, [sp]
 1012 002c 05FB0313 		mla	r3, r5, r3, r1
 1013 0030 04F11002 		add	r2, r4, #16
 1014 0034 3421     		movs	r1, #52
 1015 0036 0433     		adds	r3, r3, #4
 470:src/apmfunc.c ****     if (AppInfoGetMW(i + MY_APPL_ID, &gAppList[gApplCount].sAppInfo))
 1016              		.loc 1 470 0
 1017 0038 094F     		ldr	r7, .L129
 1018              		.loc 1 471 0
 1019 003a FFF7FEFF 		bl	lib_app_call
 1020              	.LVL159:
 1021 003e 50B1     		cbz	r0, .L123
 472:src/apmfunc.c ****     {
 473:src/apmfunc.c ****       if ((gAppList[gApplCount].sAppInfo.b_type & 0x01) == 0)
 1022              		.loc 1 473 0
 1023 0040 3B68     		ldr	r3, [r7]
 1024 0042 7A68     		ldr	r2, [r7, #4]
 1025 0044 5D43     		muls	r5, r3, r5
 1026 0046 5119     		adds	r1, r2, r5
ARM GAS  C:\Users\AHMED~1.ELE\AppData\Local\Temp\cc42eyAw.s 			page 29


 1027 0048 C97F     		ldrb	r1, [r1, #31]	@ zero_extendqisi2
 1028 004a C907     		lsls	r1, r1, #31
 474:src/apmfunc.c ****       {
 475:src/apmfunc.c **** #if ENABLE_DEFAULT_APP
 476:src/apmfunc.c ****         if (gFileData.bDefaultAppID == gAppList[gApplCount].sAppInfo.b_appid)
 477:src/apmfunc.c ****           defaultAppFound = 1;
 478:src/apmfunc.c **** #endif
 479:src/apmfunc.c ****         gAppList[gApplCount++].bActive = TRUE;
 1029              		.loc 1 479 0
 1030 004c 5FBF     		itttt	pl
 1031 004e 0133     		addpl	r3, r3, #1
 1032 0050 3B60     		strpl	r3, [r7]
 1033 0052 0123     		movpl	r3, #1
 1034 0054 5355     		strbpl	r3, [r2, r5]
 1035              	.L123:
 468:src/apmfunc.c ****   {
 1036              		.loc 1 468 0 discriminator 2
 1037 0056 0134     		adds	r4, r4, #1
 1038              	.LVL160:
 1039 0058 802C     		cmp	r4, #128
 1040 005a DED1     		bne	.L124
 480:src/apmfunc.c ****       }
 481:src/apmfunc.c ****     }
 482:src/apmfunc.c ****   }
 483:src/apmfunc.c **** 
 484:src/apmfunc.c **** #if ENABLE_DEFAULT_APP
 485:src/apmfunc.c ****   if (!defaultAppFound)
 486:src/apmfunc.c ****   {
 487:src/apmfunc.c ****     gFileData.bDefaultAppID = 0;
 488:src/apmfunc.c ****     SaveFile();
 489:src/apmfunc.c ****   }
 490:src/apmfunc.c **** #endif
 491:src/apmfunc.c **** }
 1041              		.loc 1 491 0
 1042 005c 03B0     		add	sp, sp, #12
 1043              		.cfi_def_cfa_offset 20
 1044              		@ sp needed
 1045 005e F0BD     		pop	{r4, r5, r6, r7, pc}
 1046              	.LVL161:
 1047              	.L130:
 1048              		.align	2
 1049              	.L129:
 1050 0060 00000000 		.word	.LANCHOR1
 1051              		.cfi_endproc
 1052              	.LFE3:
 1053              		.size	InitApplList, .-InitApplList
 1054              		.section	.text.SelectAppl,"ax",%progbits
 1055              		.align	1
 1056              		.global	SelectAppl
 1057              		.thumb
 1058              		.thumb_func
 1059              		.type	SelectAppl, %function
 1060              	SelectAppl:
 1061              	.LFB4:
 492:src/apmfunc.c **** //*****************************************************************************
 493:src/apmfunc.c **** //  Function        : SelectApp
 494:src/apmfunc.c **** //  Description     : Select Application.
ARM GAS  C:\Users\AHMED~1.ELE\AppData\Local\Temp\cc42eyAw.s 			page 30


 495:src/apmfunc.c **** //  Input           : aIgnoreID;
 496:src/apmfunc.c **** //  Return          : appl. Id
 497:src/apmfunc.c **** //  Note            : N/A
 498:src/apmfunc.c **** //  Globals Changed : N/A
 499:src/apmfunc.c **** //*****************************************************************************
 500:src/apmfunc.c **** DWORD SelectAppl(DWORD aIgnoreID)
 501:src/apmfunc.c **** {
 1062              		.loc 1 501 0
 1063              		.cfi_startproc
 1064              		@ args = 0, pretend = 0, frame = 40
 1065              		@ frame_needed = 0, uses_anonymous_args = 0
 1066              	.LVL162:
 502:src/apmfunc.c ****   int i, select, len;
 503:src/apmfunc.c ****   struct MENU_ITEM *SelAppItem;
 504:src/apmfunc.c ****   struct MENU_DAT  SelAppMenu;
 505:src/apmfunc.c **** 
 506:src/apmfunc.c ****   if (gApplCount == 0)
 1067              		.loc 1 506 0
 1068 0000 314B     		ldr	r3, .L143
 501:src/apmfunc.c ****   int i, select, len;
 1069              		.loc 1 501 0
 1070 0002 2DE9F04F 		push	{r4, r5, r6, r7, r8, r9, r10, fp, lr}
 1071              		.cfi_def_cfa_offset 36
 1072              		.cfi_offset 4, -36
 1073              		.cfi_offset 5, -32
 1074              		.cfi_offset 6, -28
 1075              		.cfi_offset 7, -24
 1076              		.cfi_offset 8, -20
 1077              		.cfi_offset 9, -16
 1078              		.cfi_offset 10, -12
 1079              		.cfi_offset 11, -8
 1080              		.cfi_offset 14, -4
 1081 0006 8046     		mov	r8, r0
 1082              		.loc 1 506 0
 1083 0008 1968     		ldr	r1, [r3]
 501:src/apmfunc.c ****   int i, select, len;
 1084              		.loc 1 501 0
 1085 000a 8BB0     		sub	sp, sp, #44
 1086              		.cfi_def_cfa_offset 80
 1087 000c 1F46     		mov	r7, r3
 1088              		.loc 1 506 0
 1089 000e 11B9     		cbnz	r1, .L132
 1090              	.LVL163:
 1091              	.L135:
 507:src/apmfunc.c ****     return -1;
 1092              		.loc 1 507 0
 1093 0010 4FF0FF30 		mov	r0, #-1
 1094 0014 54E0     		b	.L133
 1095              	.LVL164:
 1096              	.L132:
 508:src/apmfunc.c **** 
 509:src/apmfunc.c ****   // Check Application Count
 510:src/apmfunc.c ****   if (gApplCount <= 1)
 1097              		.loc 1 510 0
 1098 0016 0129     		cmp	r1, #1
 1099 0018 03D8     		bhi	.L134
 511:src/apmfunc.c ****     return gAppList[0].sAppInfo.b_appid;
ARM GAS  C:\Users\AHMED~1.ELE\AppData\Local\Temp\cc42eyAw.s 			page 31


 1100              		.loc 1 511 0
 1101 001a 5B68     		ldr	r3, [r3, #4]
 1102 001c 93F82000 		ldrb	r0, [r3, #32]	@ zero_extendqisi2
 1103              	.LVL165:
 1104 0020 4EE0     		b	.L133
 1105              	.LVL166:
 1106              	.L134:
 512:src/apmfunc.c **** 
 513:src/apmfunc.c ****   SelAppItem = (struct MENU_ITEM *) MallocMW(sizeof(struct MENU_ITEM) * (gApplCount+1)); // + rec e
 1107              		.loc 1 513 0
 1108 0022 0131     		adds	r1, r1, #1
 1109 0024 9220     		movs	r0, #146
 1110              	.LVL167:
 1111 0026 4901     		lsls	r1, r1, #5
 1112 0028 FFF7FEFF 		bl	sys_func1
 1113              	.LVL168:
 514:src/apmfunc.c ****   if (SelAppItem == NULL)
 1114              		.loc 1 514 0
 1115 002c 0546     		mov	r5, r0
 1116 002e 0028     		cmp	r0, #0
 1117 0030 EED0     		beq	.L135
 1118 0032 0024     		movs	r4, #0
 1119 0034 A146     		mov	r9, r4
 1120              	.LVL169:
 1121              	.L136:
 515:src/apmfunc.c ****     return -1;
 516:src/apmfunc.c **** 
 517:src/apmfunc.c ****   select = 0;
 518:src/apmfunc.c ****   for (i = 0; i < gApplCount; i++) {
 1122              		.loc 1 518 0 discriminator 1
 1123 0036 3B68     		ldr	r3, [r7]
 1124 0038 9945     		cmp	r9, r3
 1125 003a 2BD2     		bcs	.L142
 519:src/apmfunc.c ****     if (gAppList[i].sAppInfo.b_appid == aIgnoreID)
 1126              		.loc 1 519 0
 1127 003c 224B     		ldr	r3, .L143
 1128 003e 2426     		movs	r6, #36
 1129 0040 5B68     		ldr	r3, [r3, #4]
 1130 0042 06FB0936 		mla	r6, r6, r9, r3
 1131 0046 96F82020 		ldrb	r2, [r6, #32]	@ zero_extendqisi2
 1132 004a 4245     		cmp	r2, r8
 1133 004c 1FD0     		beq	.L137
 520:src/apmfunc.c ****       continue;
 521:src/apmfunc.c ****     SelAppItem[select].iID = gAppList[i].sAppInfo.b_appid;
 1134              		.loc 1 521 0
 1135 004e 6301     		lsls	r3, r4, #5
 1136 0050 05EB030A 		add	r10, r5, r3
 522:src/apmfunc.c ****     SelAppItem[select].pcDesc = NULL;
 1137              		.loc 1 522 0
 1138 0054 4FF0000B 		mov	fp, #0
 521:src/apmfunc.c ****     SelAppItem[select].pcDesc = NULL;
 1139              		.loc 1 521 0
 1140 0058 EA50     		str	r2, [r5, r3]
 523:src/apmfunc.c ****     memset(SelAppItem[select].scDescDat, ' ', sizeof(SelAppItem[i].scDescDat));
 1141              		.loc 1 523 0
 1142 005a 0AF10803 		add	r3, r10, #8
 1143 005e 1846     		mov	r0, r3
ARM GAS  C:\Users\AHMED~1.ELE\AppData\Local\Temp\cc42eyAw.s 			page 32


 1144 0060 2021     		movs	r1, #32
 1145 0062 1822     		movs	r2, #24
 524:src/apmfunc.c ****     len = strlen(&gAppList[i].sAppInfo.sb_app_name[2]);
 1146              		.loc 1 524 0
 1147 0064 1236     		adds	r6, r6, #18
 522:src/apmfunc.c ****     memset(SelAppItem[select].scDescDat, ' ', sizeof(SelAppItem[i].scDescDat));
 1148              		.loc 1 522 0
 1149 0066 CAF804B0 		str	fp, [r10, #4]
 523:src/apmfunc.c ****     memset(SelAppItem[select].scDescDat, ' ', sizeof(SelAppItem[i].scDescDat));
 1150              		.loc 1 523 0
 1151 006a 0193     		str	r3, [sp, #4]
 1152 006c FFF7FEFF 		bl	memset
 1153              	.LVL170:
 1154              		.loc 1 524 0
 1155 0070 3046     		mov	r0, r6
 1156 0072 FFF7FEFF 		bl	strlen
 1157              	.LVL171:
 525:src/apmfunc.c ****     if (len > 10)
 526:src/apmfunc.c ****       len = 10;
 527:src/apmfunc.c ****     memcpy(SelAppItem[select].scDescDat, &gAppList[i].sAppInfo.sb_app_name[2], len);
 1158              		.loc 1 527 0
 1159 0076 019B     		ldr	r3, [sp, #4]
 528:src/apmfunc.c ****     SelAppItem[select].scDescDat[MW_MAX_LINESIZE-1]=0;
 529:src/apmfunc.c ****     select++;
 1160              		.loc 1 529 0
 1161 0078 0134     		adds	r4, r4, #1
 1162              	.LVL172:
 527:src/apmfunc.c ****     SelAppItem[select].scDescDat[MW_MAX_LINESIZE-1]=0;
 1163              		.loc 1 527 0
 1164 007a 3146     		mov	r1, r6
 1165 007c 0A28     		cmp	r0, #10
 1166 007e 0246     		mov	r2, r0
 1167 0080 A8BF     		it	ge
 1168 0082 0A22     		movge	r2, #10
 1169 0084 1846     		mov	r0, r3
 1170              	.LVL173:
 1171 0086 FFF7FEFF 		bl	memcpy
 1172              	.LVL174:
 528:src/apmfunc.c ****     SelAppItem[select].scDescDat[MW_MAX_LINESIZE-1]=0;
 1173              		.loc 1 528 0
 1174 008a 8AF821B0 		strb	fp, [r10, #33]
 1175              	.L137:
 518:src/apmfunc.c ****     if (gAppList[i].sAppInfo.b_appid == aIgnoreID)
 1176              		.loc 1 518 0 discriminator 2
 1177 008e 09F10109 		add	r9, r9, #1
 1178              	.LVL175:
 1179 0092 D0E7     		b	.L136
 1180              	.L142:
 530:src/apmfunc.c ****   }
 531:src/apmfunc.c ****   SelAppItem[select].iID = -1;
 1181              		.loc 1 531 0
 1182 0094 4FF0FF32 		mov	r2, #-1
 1183 0098 6401     		lsls	r4, r4, #5
 1184              	.LVL176:
 1185 009a 2B19     		adds	r3, r5, r4
 1186 009c 2A51     		str	r2, [r5, r4]
 532:src/apmfunc.c ****   SelAppItem[select].pcDesc = NULL;
ARM GAS  C:\Users\AHMED~1.ELE\AppData\Local\Temp\cc42eyAw.s 			page 33


 1187              		.loc 1 532 0
 1188 009e 0024     		movs	r4, #0
 533:src/apmfunc.c **** 
 534:src/apmfunc.c ****   strcpy(SelAppMenu.scHeader, "Select Appl");
 1189              		.loc 1 534 0
 1190 00a0 0A49     		ldr	r1, .L143+4
 532:src/apmfunc.c ****   SelAppItem[select].pcDesc = NULL;
 1191              		.loc 1 532 0
 1192 00a2 5C60     		str	r4, [r3, #4]
 1193              		.loc 1 534 0
 1194 00a4 03A8     		add	r0, sp, #12
 1195 00a6 FFF7FEFF 		bl	strcpy
 1196              	.LVL177:
 535:src/apmfunc.c ****   SelAppMenu.psMenuItem = SelAppItem;
 536:src/apmfunc.c ****   select  = MenuSelect(&SelAppMenu, 0);
 1197              		.loc 1 536 0
 1198 00aa 2146     		mov	r1, r4
 1199 00ac 03A8     		add	r0, sp, #12
 535:src/apmfunc.c ****   SelAppMenu.psMenuItem = SelAppItem;
 1200              		.loc 1 535 0
 1201 00ae 0995     		str	r5, [sp, #36]
 1202              		.loc 1 536 0
 1203 00b0 FFF7FEFF 		bl	MenuSelect
 1204              	.LVL178:
 537:src/apmfunc.c ****   FreeMW(SelAppItem);
 1205              		.loc 1 537 0
 1206 00b4 2946     		mov	r1, r5
 536:src/apmfunc.c ****   FreeMW(SelAppItem);
 1207              		.loc 1 536 0
 1208 00b6 0446     		mov	r4, r0
 1209              	.LVL179:
 1210              		.loc 1 537 0
 1211 00b8 9420     		movs	r0, #148
 1212              	.LVL180:
 1213 00ba FFF7FEFF 		bl	sys_func1
 1214              	.LVL181:
 538:src/apmfunc.c ****   return select;
 1215              		.loc 1 538 0
 1216 00be 2046     		mov	r0, r4
 1217              	.LVL182:
 1218              	.L133:
 539:src/apmfunc.c **** }
 1219              		.loc 1 539 0
 1220 00c0 0BB0     		add	sp, sp, #44
 1221              		.cfi_def_cfa_offset 36
 1222              		@ sp needed
 1223 00c2 BDE8F08F 		pop	{r4, r5, r6, r7, r8, r9, r10, fp, pc}
 1224              	.LVL183:
 1225              	.L144:
 1226 00c6 00BF     		.align	2
 1227              	.L143:
 1228 00c8 00000000 		.word	.LANCHOR1
 1229 00cc 19000000 		.word	.LC3
 1230              		.cfi_endproc
 1231              	.LFE4:
 1232              		.size	SelectAppl, .-SelectAppl
 1233              		.section	.rodata
ARM GAS  C:\Users\AHMED~1.ELE\AppData\Local\Temp\cc42eyAw.s 			page 34


 1234              		.align	2
 1235              		.set	.LANCHOR0,. + 0
 1236              		.type	KApmFuncMenu, %object
 1237              		.size	KApmFuncMenu, 28
 1238              	KApmFuncMenu:
 1239 0000 41504D20 		.ascii	"APM Functions\000"
 1239      46756E63 
 1239      74696F6E 
 1239      7300
 1240 000e 00000000 		.space	9
 1240      00000000 
 1240      00
 1241 0017 00       		.space	1
 1242 0018 14010000 		.word	KApmFuncItem
 1243              		.type	KTermIPMenu, %object
 1244              		.size	KTermIPMenu, 28
 1245              	KTermIPMenu:
 1246 001c 20205445 		.ascii	"  TERM IP SETUP  \000"
 1246      524D2049 
 1246      50205345 
 1246      54555020 
 1246      2000
 1247 002e 00000000 		.space	5
 1247      00
 1248 0033 00       		.space	1
 1249 0034 54000000 		.word	KTermIPFuncItem
 1250              		.type	KCleanUpMenu, %object
 1251              		.size	KCleanUpMenu, 28
 1252              	KCleanUpMenu:
 1253 0038 20202020 		.ascii	"    Clean Up     \000"
 1253      436C6561 
 1253      6E205570 
 1253      20202020 
 1253      2000
 1254 004a 00000000 		.space	5
 1254      00
 1255 004f 00       		.space	1
 1256 0050 B4000000 		.word	KCleanUpFuncItem
 1257              		.type	KTermIPFuncItem, %object
 1258              		.size	KTermIPFuncItem, 96
 1259              	KTermIPFuncItem:
 1260 0054 01000000 		.word	1
 1261 0058 25000000 		.word	.LC4
 1262 005c 00000000 		.space	24
 1262      00000000 
 1262      00000000 
 1262      00000000 
 1262      00000000 
 1263 0074 02000000 		.word	2
 1264 0078 2C000000 		.word	.LC5
 1265 007c 00000000 		.space	24
 1265      00000000 
 1265      00000000 
 1265      00000000 
 1265      00000000 
 1266 0094 FFFFFFFF 		.word	-1
 1267 0098 00000000 		.word	0
ARM GAS  C:\Users\AHMED~1.ELE\AppData\Local\Temp\cc42eyAw.s 			page 35


 1268 009c 00000000 		.space	24
 1268      00000000 
 1268      00000000 
 1268      00000000 
 1268      00000000 
 1269              		.type	KCleanUpFuncItem, %object
 1270              		.size	KCleanUpFuncItem, 96
 1271              	KCleanUpFuncItem:
 1272 00b4 01000000 		.word	1
 1273 00b8 31000000 		.word	.LC6
 1274 00bc 00000000 		.space	24
 1274      00000000 
 1274      00000000 
 1274      00000000 
 1274      00000000 
 1275 00d4 02000000 		.word	2
 1276 00d8 3C000000 		.word	.LC7
 1277 00dc 00000000 		.space	24
 1277      00000000 
 1277      00000000 
 1277      00000000 
 1277      00000000 
 1278 00f4 FFFFFFFF 		.word	-1
 1279 00f8 00000000 		.word	0
 1280 00fc 00000000 		.space	24
 1280      00000000 
 1280      00000000 
 1280      00000000 
 1280      00000000 
 1281              		.type	KApmFuncItem, %object
 1282              		.size	KApmFuncItem, 704
 1283              	KApmFuncItem:
 1284 0114 00000000 		.word	0
 1285 0118 46000000 		.word	.LC8
 1286 011c 00000000 		.space	24
 1286      00000000 
 1286      00000000 
 1286      00000000 
 1286      00000000 
 1287 0134 02000000 		.word	2
 1288 0138 50000000 		.word	.LC9
 1289 013c 00000000 		.space	24
 1289      00000000 
 1289      00000000 
 1289      00000000 
 1289      00000000 
 1290 0154 03000000 		.word	3
 1291 0158 5B000000 		.word	.LC10
 1292 015c 00000000 		.space	24
 1292      00000000 
 1292      00000000 
 1292      00000000 
 1292      00000000 
 1293 0174 07000000 		.word	7
 1294 0178 68000000 		.word	.LC11
 1295 017c 00000000 		.space	24
 1295      00000000 
ARM GAS  C:\Users\AHMED~1.ELE\AppData\Local\Temp\cc42eyAw.s 			page 36


 1295      00000000 
 1295      00000000 
 1295      00000000 
 1296 0194 08000000 		.word	8
 1297 0198 76000000 		.word	.LC12
 1298 019c 00000000 		.space	24
 1298      00000000 
 1298      00000000 
 1298      00000000 
 1298      00000000 
 1299 01b4 09000000 		.word	9
 1300 01b8 85000000 		.word	.LC13
 1301 01bc 00000000 		.space	24
 1301      00000000 
 1301      00000000 
 1301      00000000 
 1301      00000000 
 1302 01d4 0A000000 		.word	10
 1303 01d8 94000000 		.word	.LC14
 1304 01dc 00000000 		.space	24
 1304      00000000 
 1304      00000000 
 1304      00000000 
 1304      00000000 
 1305 01f4 0B000000 		.word	11
 1306 01f8 A4000000 		.word	.LC15
 1307 01fc 00000000 		.space	24
 1307      00000000 
 1307      00000000 
 1307      00000000 
 1307      00000000 
 1308 0214 0C000000 		.word	12
 1309 0218 AE000000 		.word	.LC16
 1310 021c 00000000 		.space	24
 1310      00000000 
 1310      00000000 
 1310      00000000 
 1310      00000000 
 1311 0234 3D000000 		.word	61
 1312 0238 B9000000 		.word	.LC17
 1313 023c 00000000 		.space	24
 1313      00000000 
 1313      00000000 
 1313      00000000 
 1313      00000000 
 1314 0254 3F000000 		.word	63
 1315 0258 C7000000 		.word	.LC18
 1316 025c 00000000 		.space	24
 1316      00000000 
 1316      00000000 
 1316      00000000 
 1316      00000000 
 1317 0274 40000000 		.word	64
 1318 0278 D2000000 		.word	.LC19
 1319 027c 00000000 		.space	24
 1319      00000000 
 1319      00000000 
ARM GAS  C:\Users\AHMED~1.ELE\AppData\Local\Temp\cc42eyAw.s 			page 37


 1319      00000000 
 1319      00000000 
 1320 0294 50000000 		.word	80
 1321 0298 D9000000 		.word	.LC20
 1322 029c 00000000 		.space	24
 1322      00000000 
 1322      00000000 
 1322      00000000 
 1322      00000000 
 1323 02b4 51000000 		.word	81
 1324 02b8 E9000000 		.word	.LC21
 1325 02bc 00000000 		.space	24
 1325      00000000 
 1325      00000000 
 1325      00000000 
 1325      00000000 
 1326 02d4 52000000 		.word	82
 1327 02d8 F3000000 		.word	.LC22
 1328 02dc 00000000 		.space	24
 1328      00000000 
 1328      00000000 
 1328      00000000 
 1328      00000000 
 1329 02f4 53000000 		.word	83
 1330 02f8 FD000000 		.word	.LC23
 1331 02fc 00000000 		.space	24
 1331      00000000 
 1331      00000000 
 1331      00000000 
 1331      00000000 
 1332 0314 54000000 		.word	84
 1333 0318 07010000 		.word	.LC24
 1334 031c 00000000 		.space	24
 1334      00000000 
 1334      00000000 
 1334      00000000 
 1334      00000000 
 1335 0334 59000000 		.word	89
 1336 0338 13010000 		.word	.LC25
 1337 033c 00000000 		.space	24
 1337      00000000 
 1337      00000000 
 1337      00000000 
 1337      00000000 
 1338 0354 5E000000 		.word	94
 1339 0358 1F010000 		.word	.LC26
 1340 035c 00000000 		.space	24
 1340      00000000 
 1340      00000000 
 1340      00000000 
 1340      00000000 
 1341 0374 62000000 		.word	98
 1342 0378 2B010000 		.word	.LC27
 1343 037c 00000000 		.space	24
 1343      00000000 
 1343      00000000 
 1343      00000000 
ARM GAS  C:\Users\AHMED~1.ELE\AppData\Local\Temp\cc42eyAw.s 			page 38


 1343      00000000 
 1344 0394 63000000 		.word	99
 1345 0398 37010000 		.word	.LC28
 1346 039c 00000000 		.space	24
 1346      00000000 
 1346      00000000 
 1346      00000000 
 1346      00000000 
 1347 03b4 FFFFFFFF 		.word	-1
 1348 03b8 00000000 		.word	0
 1349 03bc 00000000 		.space	24
 1349      00000000 
 1349      00000000 
 1349      00000000 
 1349      00000000 
 1350              		.section	.rodata.str1.1,"aMS",%progbits,1
 1351              	.LC0:
 1352 0000 4D656D20 		.ascii	"Mem Avail :\000"
 1352      41766169 
 1352      6C203A00 
 1353              	.LC1:
 1354 000c 256400   		.ascii	"%d\000"
 1355              	.LC2:
 1356 000f 2F646576 		.ascii	"/dev/aux2\000"
 1356      2F617578 
 1356      3200
 1357              	.LC3:
 1358 0019 53656C65 		.ascii	"Select Appl\000"
 1358      63742041 
 1358      70706C00 
 1359              	.LC4:
 1360 0025 5465726D 		.ascii	"TermIP\000"
 1360      495000
 1361              	.LC5:
 1362 002c 44484350 		.ascii	"DHCP\000"
 1362      00
 1363              	.LC6:
 1364 0031 53544953 		.ascii	"STIS Param\000"
 1364      20506172 
 1364      616D00
 1365              	.LC7:
 1366 003c 454D5620 		.ascii	"EMV Param\000"
 1366      50617261 
 1366      6D00
 1367              	.LC8:
 1368 0046 53544953 		.ascii	"STIS Init\000"
 1368      20496E69 
 1368      7400
 1369              	.LC9:
 1370 0050 53544953 		.ascii	"STIS Setup\000"
 1370      20536574 
 1370      757000
 1371              	.LC10:
 1372 005b 53657420 		.ascii	"Set Term. IP\000"
 1372      5465726D 
 1372      2E204950 
 1372      00
ARM GAS  C:\Users\AHMED~1.ELE\AppData\Local\Temp\cc42eyAw.s 			page 39


 1373              	.LC11:
 1374 0068 544D5320 		.ascii	"TMS FTP Setup\000"
 1374      46545020 
 1374      53657475 
 1374      7000
 1375              	.LC12:
 1376 0076 544D5320 		.ascii	"TMS FTP Dnload\000"
 1376      46545020 
 1376      446E6C6F 
 1376      616400
 1377              	.LC13:
 1378 0085 544D5320 		.ascii	"TMS Load Param\000"
 1378      4C6F6164 
 1378      20506172 
 1378      616D00
 1379              	.LC14:
 1380 0094 47505253 		.ascii	"GPRS/WIFI Setup\000"
 1380      2F574946 
 1380      49205365 
 1380      74757000 
 1381              	.LC15:
 1382 00a4 53686F77 		.ascii	"Show STIS\000"
 1382      20535449 
 1382      5300
 1383              	.LC16:
 1384 00ae 5072696E 		.ascii	"Print STIS\000"
 1384      74205354 
 1384      495300
 1385              	.LC17:
 1386 00b9 54726169 		.ascii	"Training Mode\000"
 1386      6E696E67 
 1386      204D6F64 
 1386      6500
 1387              	.LC18:
 1388 00c7 44656275 		.ascii	"Debug Mode\000"
 1388      67204D6F 
 1388      646500
 1389              	.LC19:
 1390 00d2 5265626F 		.ascii	"Reboot\000"
 1390      6F7400
 1391              	.LC20:
 1392 00d9 43616C20 		.ascii	"Cal Check Digit\000"
 1392      43686563 
 1392      6B204469 
 1392      67697400 
 1393              	.LC21:
 1394 00e9 4C434420 		.ascii	"LCD Setup\000"
 1394      53657475 
 1394      7000
 1395              	.LC22:
 1396 00f3 436F6465 		.ascii	"Codec Vol\000"
 1396      6320566F 
 1396      6C00
 1397              	.LC23:
 1398 00fd 4B424420 		.ascii	"KBD BackL\000"
 1398      4261636B 
 1398      4C00
ARM GAS  C:\Users\AHMED~1.ELE\AppData\Local\Temp\cc42eyAw.s 			page 40


 1399              	.LC24:
 1400 0107 4B657944 		.ascii	"KeyDLL Test\000"
 1400      4C4C2054 
 1400      65737400 
 1401              	.LC25:
 1402 0113 4D616C6C 		.ascii	"Malloc Test\000"
 1402      6F632054 
 1402      65737400 
 1403              	.LC26:
 1404 011f 55706461 		.ascii	"Update PABX\000"
 1404      74652050 
 1404      41425800 
 1405              	.LC27:
 1406 012b 5465726D 		.ascii	"Term. Setup\000"
 1406      2E205365 
 1406      74757000 
 1407              	.LC28:
 1408 0137 436C6561 		.ascii	"Clean Up\000"
 1408      6E205570 
 1408      00
 1409              		.bss
 1410              		.align	2
 1411              		.set	.LANCHOR1,. + 0
 1412              		.type	gApplCount, %object
 1413              		.size	gApplCount, 4
 1414              	gApplCount:
 1415 0000 00000000 		.space	4
 1416              		.type	gAppList, %object
 1417              		.size	gAppList, 4
 1418              	gAppList:
 1419 0004 00000000 		.space	4
 1420              		.text
 1421              	.Letext0:
 1422              		.file 2 "c:\\devtools\\gcc_v49_2014q4\\lib\\gcc\\arm-none-eabi\\4.9.3\\include\\stddef.h"
 1423              		.file 3 "../LibA5T1000/common.h"
 1424              		.file 4 "../LibA5T1000/system.h"
 1425              		.file 5 "../LibA5T1000/basecall.h"
 1426              		.file 6 "../LibA5T1000/midware.h"
 1427              		.file 7 "../LibA5T1000/apm.h"
 1428              		.file 8 "src/hardware.h"
 1429              		.file 9 "src/menu.h"
 1430              		.file 10 "src/message.h"
 1431              		.file 11 "src/apmconfig.h"
 1432              		.file 12 "src/kbdutil.h"
 1433              		.file 13 "c:\\devtools\\gcc_v49_2014q4\\arm-none-eabi\\include\\string.h"
 1434              		.file 14 "src/termdata.h"
 1435              		.file 15 "src/stis.h"
 1436              		.file 16 "src/sysutil.h"
 1437              		.file 17 "src/emvtrans.h"
 1438              		.file 18 "src/ctlcfg.h"
 1439              		.file 19 "src/toggle.h"
 1440              		.file 20 "src/apmtest.h"
 1441              		.file 21 "src/batchsys.h"
 1442              		.file 22 "src/inittran.h"
 1443              		.file 23 "src/ftptran.h"
 1444              		.file 24 "src/param.h"
 1445              		.file 25 "src/wifi.h"
ARM GAS  C:\Users\AHMED~1.ELE\AppData\Local\Temp\cc42eyAw.s 			page 41


 1446              		.file 26 "src/comm.h"
 1447              		.file 27 "src/tranutil.h"
 1448              		.file 28 "src/keydlltest.h"
 1449              		.file 29 "c:\\devtools\\gcc_v49_2014q4\\arm-none-eabi\\include\\stdio.h"