ARM GAS  C:\Users\AHMED~1.ELE\AppData\Local\Temp\ccGAQTe0.s 			page 1


   1              		.syntax unified
   2              		.cpu cortex-a5
   3              		.fpu softvfp
   4              		.eabi_attribute 20, 1
   5              		.eabi_attribute 21, 1
   6              		.eabi_attribute 23, 3
   7              		.eabi_attribute 24, 1
   8              		.eabi_attribute 25, 1
   9              		.eabi_attribute 26, 1
  10              		.eabi_attribute 30, 4
  11              		.eabi_attribute 34, 0
  12              		.eabi_attribute 18, 4
  13              		.thumb
  14              		.file	"apmtest.c"
  15              		.text
  16              	.Ltext0:
  17              		.cfi_sections	.debug_frame
  18              		.section	.text.SetTestCommParam,"ax",%progbits
  19              		.align	1
  20              		.global	SetTestCommParam
  21              		.thumb
  22              		.thumb_func
  23              		.type	SetTestCommParam, %function
  24              	SetTestCommParam:
  25              	.LFB0:
  26              		.file 1 "src/apmtest.c"
   1:src/apmtest.c **** //-----------------------------------------------------------------------------
   2:src/apmtest.c **** //  File          : apmtest.c
   3:src/apmtest.c **** //  Module        :
   4:src/apmtest.c **** //  Description   : APM Test Functions.
   5:src/apmtest.c **** //  Author        : Lewis
   6:src/apmtest.c **** //  Notes         : N/A
   7:src/apmtest.c **** //
   8:src/apmtest.c **** // ============================================================================
   9:src/apmtest.c **** // | Naming conventions                                                       |
  10:src/apmtest.c **** // | ~~~~~~~~~~~~~~~~~~                                                       |
  11:src/apmtest.c **** // |         Struct/Array : Leading s                                         |
  12:src/apmtest.c **** // |             Constant : Leading K                                         |
  13:src/apmtest.c **** // |      Global Variable : Leading g  (variable use outside one C file)      |
  14:src/apmtest.c **** // |                                                                          |
  15:src/apmtest.c **** // |   BYTE( 8 Bits) size : Leading b                                         |
  16:src/apmtest.c **** // |   CHAR( 8 Bits) size : Leading c                                         |
  17:src/apmtest.c **** // |   WORD(16 Bits) size : Leading w                                         |
  18:src/apmtest.c **** // |  DWORD(32 Bits) size : Leading d                                         |
  19:src/apmtest.c **** // |    int(32 Bits) size : Leading i                                         |
  20:src/apmtest.c **** // | DDWORD(64 Bits) size : Leading dd                                        |
  21:src/apmtest.c **** // |              Pointer : Leading p                                         |
  22:src/apmtest.c **** // |                                                                          |
  23:src/apmtest.c **** // |    Function argument : Leading a                                         |
  24:src/apmtest.c **** // |       Local Variable : All lower case                                    |
  25:src/apmtest.c **** // |                                                                          |
  26:src/apmtest.c **** // | Examples:                                                                |
  27:src/apmtest.c **** // |                Array : Leading s, (sb = arrary of byte, etc)             |
  28:src/apmtest.c **** // |              Pointer : Leading p, (pb = pointer of byte, etc)            |
  29:src/apmtest.c **** // ============================================================================
  30:src/apmtest.c **** //
  31:src/apmtest.c **** //  Date          Who         Action
ARM GAS  C:\Users\AHMED~1.ELE\AppData\Local\Temp\ccGAQTe0.s 			page 2


  32:src/apmtest.c **** //  ------------  ----------- -------------------------------------------------
  33:src/apmtest.c **** //  01 Apr  2009  Lewis       Initial Version.
  34:src/apmtest.c **** //-----------------------------------------------------------------------------
  35:src/apmtest.c **** #include <string.h>
  36:src/apmtest.c **** #include "midware.h"
  37:src/apmtest.c **** #include "logo.h"
  38:src/apmtest.c **** #include "hardware.h"
  39:src/apmtest.c **** #if (T800)
  40:src/apmtest.c ****   #include "testicon.h"
  41:src/apmtest.c **** #endif
  42:src/apmtest.c **** #include "util.h"
  43:src/apmtest.c **** #include "sysutil.h"
  44:src/apmtest.c **** #include "kbdutil.h"
  45:src/apmtest.c **** #include "rmenu.h"
  46:src/apmtest.c **** #include "message.h"
  47:src/apmtest.c **** #include "toggle.h"
  48:src/apmtest.c **** #include "apmconfig.h"
  49:src/apmtest.c **** #include "lptutil.h"
  50:src/apmtest.c **** #include "comm.h"
  51:src/apmtest.c **** #include "apmfunc.h"
  52:src/apmtest.c **** 
  53:src/apmtest.c **** //-----------------------------------------------------------------------------
  54:src/apmtest.c **** //      Defines
  55:src/apmtest.c **** //-----------------------------------------------------------------------------
  56:src/apmtest.c **** enum {
  57:src/apmtest.c ****   TST_DISP,
  58:src/apmtest.c ****   TST_SAM,
  59:src/apmtest.c ****   TST_ICC,
  60:src/apmtest.c ****   TST_MSR,
  61:src/apmtest.c ****   TST_LPT,
  62:src/apmtest.c ****   TST_PPP,
  63:src/apmtest.c ****   MAX_TEST_ITEM,
  64:src/apmtest.c **** };
  65:src/apmtest.c **** 
  66:src/apmtest.c **** enum {
  67:src/apmtest.c ****   PPP_SETUP,
  68:src/apmtest.c ****   PPP_STATUS,
  69:src/apmtest.c ****   PPP_CONNECT,
  70:src/apmtest.c ****   PPP_DISCONNECT,
  71:src/apmtest.c ****   MAX_PPP_ITEM,
  72:src/apmtest.c **** };
  73:src/apmtest.c **** 
  74:src/apmtest.c **** struct HOST_DAT {
  75:src/apmtest.c ****   BYTE sbIP[4];
  76:src/apmtest.c ****   BYTE sbPort[2];
  77:src/apmtest.c **** };
  78:src/apmtest.c **** 
  79:src/apmtest.c **** //-----------------------------------------------------------------------------
  80:src/apmtest.c **** // Globals
  81:src/apmtest.c **** //-----------------------------------------------------------------------------
  82:src/apmtest.c **** static struct HOST_DAT gHostDat = {
  83:src/apmtest.c ****   {210,  3,  29, 89},
  84:src/apmtest.c ****   {0x2E, 0xE0},    // 12000
  85:src/apmtest.c **** };
  86:src/apmtest.c **** BYTE gReplaceAllComm = FALSE;
  87:src/apmtest.c **** 
  88:src/apmtest.c **** //-----------------------------------------------------------------------------
ARM GAS  C:\Users\AHMED~1.ELE\AppData\Local\Temp\ccGAQTe0.s 			page 3


  89:src/apmtest.c **** //      Constants
  90:src/apmtest.c **** //-----------------------------------------------------------------------------
  91:src/apmtest.c **** //static struct RMENUDAT KTestMenu[MAX_TEST_ITEM+1] =
  92:src/apmtest.c **** //{
  93:src/apmtest.c **** //  { TST_DISP,     "LCD "      }, // extra space for current mark
  94:src/apmtest.c **** //  { TST_SAM,      "SAM "      },
  95:src/apmtest.c **** //  { TST_ICC,      "ICC "      },
  96:src/apmtest.c **** //  { TST_MSR,      "MSR "      },
  97:src/apmtest.c **** //  { TST_LPT,      "LPT "      },
  98:src/apmtest.c **** //  { TST_PPP,      "PPP "      },
  99:src/apmtest.c **** //  { -1,           ""          },
 100:src/apmtest.c **** //};
 101:src/apmtest.c **** //static struct RMENUDAT KGPRSMenu[MAX_PPP_ITEM+1] =
 102:src/apmtest.c **** //{
 103:src/apmtest.c **** //  { PPP_SETUP,      "SETUP "      }, // extra space for current mark
 104:src/apmtest.c **** //  { PPP_STATUS,     "STATUS "     },
 105:src/apmtest.c **** //  { PPP_CONNECT,    "CONNECT "    },
 106:src/apmtest.c **** //  { PPP_DISCONNECT, "DIS-CONN " },
 107:src/apmtest.c **** //  { -1,              ""          },
 108:src/apmtest.c **** //};
 109:src/apmtest.c **** //
 110:src/apmtest.c **** //static const BYTE *KPPPStatusMsg[7] = {
 111:src/apmtest.c **** //  "  Disconnected  ",
 112:src/apmtest.c **** //  "    Calling     ",
 113:src/apmtest.c **** //  " Authenticating ",
 114:src/apmtest.c **** //  "   Negotiating  ",
 115:src/apmtest.c **** //  "    Exiting     ",
 116:src/apmtest.c **** //  "   Connected    ",
 117:src/apmtest.c **** //  "  PPP Not Ready ",
 118:src/apmtest.c **** //};
 119:src/apmtest.c **** //
 120:src/apmtest.c **** //static const BYTE KSelectCmd[20] = {0,0xa4,4,0,14,'1','P','A','Y','.','S','Y','S','.','D','D','F'
 121:src/apmtest.c **** 
 122:src/apmtest.c **** 
 123:src/apmtest.c **** //*****************************************************************************
 124:src/apmtest.c **** //  Function        : SetCommParam
 125:src/apmtest.c **** //  Description     : Setup the communication parameters.
 126:src/apmtest.c **** //  Input           : aParam;       // pointer to data.
 127:src/apmtest.c **** //  Return          : N/A
 128:src/apmtest.c **** //  Note            : N/A
 129:src/apmtest.c **** //  Globals Changed : N/A
 130:src/apmtest.c **** //*****************************************************************************
 131:src/apmtest.c **** void SetTestCommParam(struct COMMPARAM *aParam)
 132:src/apmtest.c **** {
  27              		.loc 1 132 0
  28              		.cfi_startproc
  29              		@ args = 0, pretend = 0, frame = 0
  30              		@ frame_needed = 0, uses_anonymous_args = 0
  31              	.LVL0:
 133:src/apmtest.c ****   // Config Host comm parameter.
 134:src/apmtest.c ****   aParam->wLen = sizeof(struct COMMPARAM);
 135:src/apmtest.c ****   aParam->bCommMode      = APM_COMM_TCPIP;
 136:src/apmtest.c ****   aParam->bHostConnTime = 30;     // 30sec connection timeout
  32              		.loc 1 136 0
  33 0000 1E22     		movs	r2, #30
 132:src/apmtest.c ****   // Config Host comm parameter.
  34              		.loc 1 132 0
ARM GAS  C:\Users\AHMED~1.ELE\AppData\Local\Temp\ccGAQTe0.s 			page 4


  35 0002 F8B5     		push	{r3, r4, r5, r6, r7, lr}
  36              		.cfi_def_cfa_offset 24
  37              		.cfi_offset 3, -24
  38              		.cfi_offset 4, -20
  39              		.cfi_offset 5, -16
  40              		.cfi_offset 6, -12
  41              		.cfi_offset 7, -8
  42              		.cfi_offset 14, -4
 134:src/apmtest.c ****   aParam->bCommMode      = APM_COMM_TCPIP;
  43              		.loc 1 134 0
  44 0004 4FF40B73 		mov	r3, #556
  45              		.loc 1 136 0
  46 0008 C270     		strb	r2, [r0, #3]
 137:src/apmtest.c ****   aParam->bTimeoutVal    = 15;     // 15sec response timeout
  47              		.loc 1 137 0
  48 000a 0F22     		movs	r2, #15
 134:src/apmtest.c ****   aParam->bCommMode      = APM_COMM_TCPIP;
  49              		.loc 1 134 0
  50 000c 0380     		strh	r3, [r0]	@ movhi
  51              		.loc 1 137 0
  52 000e 0271     		strb	r2, [r0, #4]
 138:src/apmtest.c **** 
 139:src/apmtest.c ****   // Config PPP parameter
 140:src/apmtest.c ****   aParam->sPPP.bKeepAlive  = TRUE; // Never disconnect
 141:src/apmtest.c ****   aParam->sPPP.dDevice      = MW_PPP_DEVICE_GPRS;
  53              		.loc 1 141 0
  54 0010 0522     		movs	r2, #5
 135:src/apmtest.c ****   aParam->bHostConnTime = 30;     // 30sec connection timeout
  55              		.loc 1 135 0
  56 0012 0223     		movs	r3, #2
 140:src/apmtest.c ****   aParam->sPPP.dDevice      = MW_PPP_DEVICE_GPRS;
  57              		.loc 1 140 0
  58 0014 0126     		movs	r6, #1
  59              		.loc 1 141 0
  60 0016 C0F88C20 		str	r2, [r0, #140]
 142:src/apmtest.c ****   aParam->sPPP.dSpeed       = 230400;
  61              		.loc 1 142 0
  62 001a 4FF46132 		mov	r2, #230400
 143:src/apmtest.c ****   aParam->sPPP.dMode        = MW_PPP_MODE_NORMAL;
 144:src/apmtest.c ****   memset(aParam->sPPP.scUserID, 0, sizeof(aParam->sPPP.scUserID));
  63              		.loc 1 144 0
  64 001e 8025     		movs	r5, #128
 132:src/apmtest.c ****   // Config Host comm parameter.
  65              		.loc 1 132 0
  66 0020 0446     		mov	r4, r0
 135:src/apmtest.c ****   aParam->bHostConnTime = 30;     // 30sec connection timeout
  67              		.loc 1 135 0
  68 0022 8370     		strb	r3, [r0, #2]
 143:src/apmtest.c ****   aParam->sPPP.dMode        = MW_PPP_MODE_NORMAL;
  69              		.loc 1 143 0
  70 0024 C0F89430 		str	r3, [r0, #148]
 142:src/apmtest.c ****   aParam->sPPP.dMode        = MW_PPP_MODE_NORMAL;
  71              		.loc 1 142 0
  72 0028 C0F89020 		str	r2, [r0, #144]
 140:src/apmtest.c ****   aParam->sPPP.dDevice      = MW_PPP_DEVICE_GPRS;
  73              		.loc 1 140 0
  74 002c 80F88860 		strb	r6, [r0, #136]
ARM GAS  C:\Users\AHMED~1.ELE\AppData\Local\Temp\ccGAQTe0.s 			page 5


  75              		.loc 1 144 0
  76 0030 2A46     		mov	r2, r5
  77 0032 0021     		movs	r1, #0
  78 0034 00F58C70 		add	r0, r0, #280
  79              	.LVL1:
  80 0038 FFF7FEFF 		bl	memset
  81              	.LVL2:
 145:src/apmtest.c ****   memset(aParam->sPPP.scPwd,    0, sizeof(aParam->sPPP.scPwd));
  82              		.loc 1 145 0
  83 003c 2A46     		mov	r2, r5
  84 003e 0021     		movs	r1, #0
  85 0040 04F5CC70 		add	r0, r4, #408
  86 0044 FFF7FEFF 		bl	memset
  87              	.LVL3:
 146:src/apmtest.c ****   aParam->sPPP.psLogin      = NULL;
  88              		.loc 1 146 0
  89 0048 0025     		movs	r5, #0
 147:src/apmtest.c ****   aParam->sPPP.dLoginPair   = 0;
 148:src/apmtest.c ****   aParam->sPPP.psDialUp     = NULL;
 149:src/apmtest.c ****   aParam->sPPP.dDialupPair  = 0;
 150:src/apmtest.c ****   aParam->sPPP.psDialParam  = NULL;
 151:src/apmtest.c **** 
 152:src/apmtest.c ****   // Config TCP/IP parameter
 153:src/apmtest.c ****   aParam->sTcp.bLen         = sizeof(struct TCPSREG);
  90              		.loc 1 153 0
  91 004a 1823     		movs	r3, #24
 154:src/apmtest.c ****   aParam->sTcp.bAdd2ByteLen = TRUE;
 155:src/apmtest.c ****   memcpy(&aParam->sTcp.sTcpCfg.d_ip, gHostDat.sbIP, 4);
  92              		.loc 1 155 0
  93 004c 0F4F     		ldr	r7, .L2
 153:src/apmtest.c ****   aParam->sTcp.bAdd2ByteLen = TRUE;
  94              		.loc 1 153 0
  95 004e 84F86430 		strb	r3, [r4, #100]
  96              		.loc 1 155 0
  97 0052 0422     		movs	r2, #4
 146:src/apmtest.c ****   aParam->sPPP.dLoginPair   = 0;
  98              		.loc 1 146 0
  99 0054 C4F81852 		str	r5, [r4, #536]
 147:src/apmtest.c ****   aParam->sPPP.psDialUp     = NULL;
 100              		.loc 1 147 0
 101 0058 C4F81C52 		str	r5, [r4, #540]
 148:src/apmtest.c ****   aParam->sPPP.dDialupPair  = 0;
 102              		.loc 1 148 0
 103 005c C4F82052 		str	r5, [r4, #544]
 149:src/apmtest.c ****   aParam->sPPP.psDialParam  = NULL;
 104              		.loc 1 149 0
 105 0060 C4F82452 		str	r5, [r4, #548]
 150:src/apmtest.c **** 
 106              		.loc 1 150 0
 107 0064 C4F82852 		str	r5, [r4, #552]
 154:src/apmtest.c ****   memcpy(&aParam->sTcp.sTcpCfg.d_ip, gHostDat.sbIP, 4);
 108              		.loc 1 154 0
 109 0068 84F86560 		strb	r6, [r4, #101]
 110              		.loc 1 155 0
 111 006c 04F17000 		add	r0, r4, #112
 112 0070 3946     		mov	r1, r7
 113 0072 FFF7FEFF 		bl	memcpy
ARM GAS  C:\Users\AHMED~1.ELE\AppData\Local\Temp\ccGAQTe0.s 			page 6


 114              	.LVL4:
 156:src/apmtest.c ****   aParam->sTcp.sTcpCfg.w_port = gHostDat.sbPort[0]*256+gHostDat.sbPort[1];
 115              		.loc 1 156 0
 116 0076 3A79     		ldrb	r2, [r7, #4]	@ zero_extendqisi2
 117 0078 7B79     		ldrb	r3, [r7, #5]	@ zero_extendqisi2
 157:src/apmtest.c ****   aParam->sTcp.sTcpCfg.b_sslidx = 0;
 118              		.loc 1 157 0
 119 007a 84F87650 		strb	r5, [r4, #118]
 156:src/apmtest.c ****   aParam->sTcp.sTcpCfg.w_port = gHostDat.sbPort[0]*256+gHostDat.sbPort[1];
 120              		.loc 1 156 0
 121 007e 03EB0223 		add	r3, r3, r2, lsl #8
 158:src/apmtest.c ****   aParam->sTcp.sTcpCfg.b_option = MW_TCP_PPP_MODE;
 122              		.loc 1 158 0
 123 0082 84F87760 		strb	r6, [r4, #119]
 156:src/apmtest.c ****   aParam->sTcp.sTcpCfg.w_port = gHostDat.sbPort[0]*256+gHostDat.sbPort[1];
 124              		.loc 1 156 0
 125 0086 A4F87430 		strh	r3, [r4, #116]	@ movhi
 126              		.loc 1 158 0
 127 008a F8BD     		pop	{r3, r4, r5, r6, r7, pc}
 128              	.LVL5:
 129              	.L3:
 130              		.align	2
 131              	.L2:
 132 008c 00000000 		.word	.LANCHOR0
 133              		.cfi_endproc
 134              	.LFE0:
 135              		.size	SetTestCommParam, .-SetTestCommParam
 136              		.section	.text.GetMaxMalloc,"ax",%progbits
 137              		.align	1
 138              		.global	GetMaxMalloc
 139              		.thumb
 140              		.thumb_func
 141              		.type	GetMaxMalloc, %function
 142              	GetMaxMalloc:
 143              	.LFB1:
 159:src/apmtest.c **** }
 160:src/apmtest.c **** 
 161:src/apmtest.c **** //*****************************************************************************
 162:src/apmtest.c **** //  Function        : GetMaxMalloc
 163:src/apmtest.c **** //  Description     : Check Max available Memory for allocate.
 164:src/apmtest.c **** //  Input           : N/A
 165:src/apmtest.c **** //  Return          : mem in unit of Kbyte.
 166:src/apmtest.c **** //  Note            : N/A
 167:src/apmtest.c **** //  Globals Changed : N/A
 168:src/apmtest.c **** //*****************************************************************************
 169:src/apmtest.c **** DWORD GetMaxMalloc(void)
 170:src/apmtest.c **** {
 144              		.loc 1 170 0
 145              		.cfi_startproc
 146              		@ args = 0, pretend = 0, frame = 0
 147              		@ frame_needed = 0, uses_anonymous_args = 0
 148              	.LVL6:
 149 0000 10B5     		push	{r4, lr}
 150              		.cfi_def_cfa_offset 8
 151              		.cfi_offset 4, -8
 152              		.cfi_offset 14, -4
 171:src/apmtest.c ****   DWORD max_mem = 12 * 1024 * 1024;   // max 12 Mbytes
ARM GAS  C:\Users\AHMED~1.ELE\AppData\Local\Temp\ccGAQTe0.s 			page 7


 153              		.loc 1 171 0
 154 0002 4FF44004 		mov	r4, #12582912
 155              	.LVL7:
 156              	.L6:
 172:src/apmtest.c ****   BYTE  *pMem;
 173:src/apmtest.c **** 
 174:src/apmtest.c ****   pMem = NULL;
 175:src/apmtest.c ****   while ((pMem == NULL)&&(max_mem >= 1024)) {
 176:src/apmtest.c ****     pMem = MallocMW(max_mem);
 157              		.loc 1 176 0
 158 0006 2146     		mov	r1, r4
 159 0008 9220     		movs	r0, #146
 160 000a FFF7FEFF 		bl	sys_func1
 161              	.LVL8:
 177:src/apmtest.c ****     if (pMem != NULL)
 162              		.loc 1 177 0
 163 000e 0146     		mov	r1, r0
 164 0010 28B9     		cbnz	r0, .L5
 178:src/apmtest.c ****       break;
 179:src/apmtest.c ****     max_mem -= 256;
 165              		.loc 1 179 0
 166 0012 A4F58074 		sub	r4, r4, #256
 167              	.LVL9:
 175:src/apmtest.c ****     pMem = MallocMW(max_mem);
 168              		.loc 1 175 0
 169 0016 B4F5407F 		cmp	r4, #768
 170 001a F4D1     		bne	.L6
 171 001c 10BD     		pop	{r4, pc}
 172              	.LVL10:
 173              	.L5:
 180:src/apmtest.c ****   }
 181:src/apmtest.c ****   if (pMem != NULL) {
 182:src/apmtest.c ****     FreeMW(pMem);
 174              		.loc 1 182 0
 175 001e 9420     		movs	r0, #148
 176              	.LVL11:
 177 0020 FFF7FEFF 		bl	sys_func1
 178              	.LVL12:
 183:src/apmtest.c ****     return max_mem;
 179              		.loc 1 183 0
 180 0024 2046     		mov	r0, r4
 184:src/apmtest.c ****   }
 185:src/apmtest.c ****   return 0;
 186:src/apmtest.c **** }
 181              		.loc 1 186 0
 182 0026 10BD     		pop	{r4, pc}
 183              		.cfi_endproc
 184              	.LFE1:
 185              		.size	GetMaxMalloc, .-GetMaxMalloc
 186              		.section	.text.CalCheckDigit,"ax",%progbits
 187              		.align	1
 188              		.global	CalCheckDigit
 189              		.thumb
 190              		.thumb_func
 191              		.type	CalCheckDigit, %function
 192              	CalCheckDigit:
 193              	.LFB2:
ARM GAS  C:\Users\AHMED~1.ELE\AppData\Local\Temp\ccGAQTe0.s 			page 8


 187:src/apmtest.c **** //*****************************************************************************
 188:src/apmtest.c **** //  Function        : CalCheckDigit
 189:src/apmtest.c **** //  Description     : Prompt user to enter number & calculate its check digit.
 190:src/apmtest.c **** //  Input           : N/A
 191:src/apmtest.c **** //  Return          : N/A
 192:src/apmtest.c **** //  Note            : N/A
 193:src/apmtest.c **** //  Globals Changed : N/A
 194:src/apmtest.c **** //*****************************************************************************
 195:src/apmtest.c **** void CalCheckDigit(void)
 196:src/apmtest.c **** {
 194              		.loc 1 196 0
 195              		.cfi_startproc
 196              		@ args = 0, pretend = 0, frame = 32
 197              		@ frame_needed = 0, uses_anonymous_args = 0
 198 0000 F0B5     		push	{r4, r5, r6, r7, lr}
 199              		.cfi_def_cfa_offset 20
 200              		.cfi_offset 4, -20
 201              		.cfi_offset 5, -16
 202              		.cfi_offset 6, -12
 203              		.cfi_offset 7, -8
 204              		.cfi_offset 14, -4
 205 0002 8BB0     		sub	sp, sp, #44
 206              		.cfi_def_cfa_offset 64
 207              	.L15:
 208              	.LVL13:
 209              	.LBB2:
 197:src/apmtest.c ****   BYTE tmp[27];
 198:src/apmtest.c **** 
 199:src/apmtest.c ****   while (TRUE) {
 200:src/apmtest.c ****     DispLineMW("Enter Number:", MW_LINE1, MW_CLRDISP|MW_BIGFONT);
 210              		.loc 1 200 0
 211 0004 9220     		movs	r0, #146
 212 0006 0E21     		movs	r1, #14
 213 0008 FFF7FEFF 		bl	sys_func1
 214              	.LVL14:
 215 000c 0446     		mov	r4, r0
 216 000e 98B1     		cbz	r0, .L12
 217              		.loc 1 200 0 is_stmt 0 discriminator 1
 218 0010 2749     		ldr	r1, .L27
 219 0012 0D22     		movs	r2, #13
 220 0014 FFF7FEFF 		bl	memcpy
 221              	.LVL15:
 222 0018 0023     		movs	r3, #0
 223 001a 2521     		movs	r1, #37
 224 001c 6373     		strb	r3, [r4, #13]
 225 001e 4FF48453 		mov	r3, #4224
 226 0022 0F20     		movs	r0, #15
 227 0024 0093     		str	r3, [sp]
 228 0026 2246     		mov	r2, r4
 229 0028 4FF48073 		mov	r3, #256
 230 002c FFF7FEFF 		bl	lib_app_call
 231              	.LVL16:
 232 0030 9420     		movs	r0, #148
 233 0032 2146     		mov	r1, r4
 234 0034 FFF7FEFF 		bl	sys_func1
 235              	.LVL17:
 236              	.L12:
ARM GAS  C:\Users\AHMED~1.ELE\AppData\Local\Temp\ccGAQTe0.s 			page 9


 237              	.LBE2:
 201:src/apmtest.c ****     tmp[0]= 0;
 238              		.loc 1 201 0 is_stmt 1
 239 0038 0AAC     		add	r4, sp, #40
 240              	.LVL18:
 241 003a 0027     		movs	r7, #0
 202:src/apmtest.c ****     if (!GetKbd(NUMERIC_INPUT+MW_BIGFONT+MW_LINE5+RIGHT_JUST, IMAX(15), tmp))
 242              		.loc 1 202 0
 243 003c 41F2FF50 		movw	r0, #5631
 201:src/apmtest.c ****     tmp[0]= 0;
 244              		.loc 1 201 0
 245 0040 04F81C7D 		strb	r7, [r4, #-28]!
 246              		.loc 1 202 0
 247 0044 0F21     		movs	r1, #15
 248 0046 2246     		mov	r2, r4
 249 0048 FFF7FEFF 		bl	GetKbd
 250              	.LVL19:
 251 004c 70B3     		cbz	r0, .L11
 203:src/apmtest.c ****       return;
 204:src/apmtest.c ****     sprintf(tmp, "%c", chk_digit(&tmp[1], tmp[0]));
 252              		.loc 1 204 0
 253 004e 9DF80C10 		ldrb	r1, [sp, #12]	@ zero_extendqisi2
 254 0052 601C     		adds	r0, r4, #1
 255 0054 FFF7FEFF 		bl	chk_digit
 256              	.LVL20:
 257 0058 1649     		ldr	r1, .L27+4
 258 005a 0246     		mov	r2, r0
 259 005c 2046     		mov	r0, r4
 260 005e FFF7FEFF 		bl	sprintf
 261              	.LVL21:
 262              	.LBB3:
 205:src/apmtest.c ****     DispLineMW(tmp, MW_LINE7, MW_RIGHT|MW_BIGFONT);
 263              		.loc 1 205 0
 264 0062 2046     		mov	r0, r4
 265 0064 FFF7FEFF 		bl	strlen
 266              	.LVL22:
 267 0068 0646     		mov	r6, r0
 268              	.LVL23:
 269 006a 711C     		adds	r1, r6, #1
 270 006c 9220     		movs	r0, #146
 271              	.LVL24:
 272 006e FFF7FEFF 		bl	sys_func1
 273              	.LVL25:
 274 0072 0546     		mov	r5, r0
 275 0074 90B1     		cbz	r0, .L14
 276              		.loc 1 205 0 is_stmt 0 discriminator 1
 277 0076 2146     		mov	r1, r4
 278 0078 3246     		mov	r2, r6
 279 007a FFF7FEFF 		bl	memcpy
 280              	.LVL26:
 281 007e 41F20103 		movw	r3, #4097
 282 0082 AF55     		strb	r7, [r5, r6]
 283 0084 2521     		movs	r1, #37
 284 0086 0093     		str	r3, [sp]
 285 0088 0F20     		movs	r0, #15
 286 008a 2A46     		mov	r2, r5
 287 008c 4FF4E063 		mov	r3, #1792
ARM GAS  C:\Users\AHMED~1.ELE\AppData\Local\Temp\ccGAQTe0.s 			page 10


 288 0090 FFF7FEFF 		bl	lib_app_call
 289              	.LVL27:
 290 0094 9420     		movs	r0, #148
 291 0096 2946     		mov	r1, r5
 292 0098 FFF7FEFF 		bl	sys_func1
 293              	.LVL28:
 294              	.L14:
 295              	.LBE3:
 206:src/apmtest.c ****     AcceptBeep();
 296              		.loc 1 206 0 is_stmt 1
 297 009c FFF7FEFF 		bl	AcceptBeep
 298              	.LVL29:
 207:src/apmtest.c ****     if (WaitKey(KBD_TIMEOUT)==MWKEY_CANCL)
 299              		.loc 1 207 0
 300 00a0 42F22830 		movw	r0, #9000
 301 00a4 FFF7FEFF 		bl	WaitKey
 302              	.LVL30:
 303 00a8 1128     		cmp	r0, #17
 304 00aa ABD1     		bne	.L15
 305              	.LVL31:
 306              	.L11:
 208:src/apmtest.c ****       break;
 209:src/apmtest.c ****   }
 210:src/apmtest.c **** }
 307              		.loc 1 210 0
 308 00ac 0BB0     		add	sp, sp, #44
 309              		.cfi_def_cfa_offset 20
 310              		@ sp needed
 311 00ae F0BD     		pop	{r4, r5, r6, r7, pc}
 312              	.L28:
 313              		.align	2
 314              	.L27:
 315 00b0 00000000 		.word	.LC0
 316 00b4 0E000000 		.word	.LC1
 317              		.cfi_endproc
 318              	.LFE2:
 319              		.size	CalCheckDigit, .-CalCheckDigit
 320              		.global	gReplaceAllComm
 321              		.section	.rodata.str1.1,"aMS",%progbits,1
 322              	.LC0:
 323 0000 456E7465 		.ascii	"Enter Number:\000"
 323      72204E75 
 323      6D626572 
 323      3A00
 324              	.LC1:
 325 000e 256300   		.ascii	"%c\000"
 326              		.data
 327              		.align	2
 328              		.set	.LANCHOR0,. + 0
 329              		.type	gHostDat, %object
 330              		.size	gHostDat, 8
 331              	gHostDat:
 332 0000 D2       		.byte	-46
 333 0001 03       		.byte	3
 334 0002 1D       		.byte	29
 335 0003 59       		.byte	89
 336 0004 2E       		.byte	46
ARM GAS  C:\Users\AHMED~1.ELE\AppData\Local\Temp\ccGAQTe0.s 			page 11


 337 0005 E0       		.byte	-32
 338 0006 0000     		.space	2
 339              		.bss
 340              		.type	gReplaceAllComm, %object
 341              		.size	gReplaceAllComm, 1
 342              	gReplaceAllComm:
 343 0000 00       		.space	1
 344              		.text
 345              	.Letext0:
 346              		.file 2 "c:\\devtools\\gcc_v49_2014q4\\lib\\gcc\\arm-none-eabi\\4.9.3\\include\\stddef.h"
 347              		.file 3 "../LibA5T1000/common.h"
 348              		.file 4 "../LibA5T1000/midware.h"
 349              		.file 5 "../LibA5T1000/apm.h"
 350              		.file 6 "src/hardware.h"
 351              		.file 7 "src/logo.h"
 352              		.file 8 "../LibA5T1000/system.h"
 353              		.file 9 "c:\\devtools\\gcc_v49_2014q4\\arm-none-eabi\\include\\string.h"
 354              		.file 10 "src/kbdutil.h"
 355              		.file 11 "../LibA5T1000/util.h"
 356              		.file 12 "c:\\devtools\\gcc_v49_2014q4\\arm-none-eabi\\include\\stdio.h"
 357              		.file 13 "src/sysutil.h"