ARM GAS  C:\Users\AHMED~1.ELE\AppData\Local\Temp\cc7hBlxb.s 			page 1


   1              		.syntax unified
   2              		.cpu cortex-a5
   3              		.fpu softvfp
   4              		.eabi_attribute 20, 1
   5              		.eabi_attribute 21, 1
   6              		.eabi_attribute 23, 3
   7              		.eabi_attribute 24, 1
   8              		.eabi_attribute 25, 1
   9              		.eabi_attribute 26, 1
  10              		.eabi_attribute 30, 4
  11              		.eabi_attribute 34, 0
  12              		.eabi_attribute 18, 4
  13              		.thumb
  14              		.file	"cakey.c"
  15              		.text
  16              	.Ltext0:
  17              		.cfi_sections	.debug_frame
  18              		.section	.text.InjectCAKey,"ax",%progbits
  19              		.align	1
  20              		.global	InjectCAKey
  21              		.thumb
  22              		.thumb_func
  23              		.type	InjectCAKey, %function
  24              	InjectCAKey:
  25              	.LFB0:
  26              		.file 1 "src/cakey.c"
   1:src/cakey.c   **** //-----------------------------------------------------------------------------
   2:src/cakey.c   **** //  File          : cakey.c
   3:src/cakey.c   **** //  Module        :
   4:src/cakey.c   **** //  Description   : Inject CA key routine.
   5:src/cakey.c   **** //  Author        : Lewis
   6:src/cakey.c   **** //  Notes         : N/A
   7:src/cakey.c   **** //
   8:src/cakey.c   **** //  Naming conventions
   9:src/cakey.c   **** //  ~~~~~~~~~~~~~~~~~~
  10:src/cakey.c   **** //             Constant : Leading K
  11:src/cakey.c   **** //      Global Variable : Leading g
  12:src/cakey.c   **** //    Function argument : Leading a
  13:src/cakey.c   **** //       Local Variable : All lower case
  14:src/cakey.c   **** //
  15:src/cakey.c   **** //  Date          Who         Action
  16:src/cakey.c   **** //  ------------  ----------- -------------------------------------------------
  17:src/cakey.c   **** //  15 May  2008  Lewis       Initial Version.
  18:src/cakey.c   **** //-----------------------------------------------------------------------------
  19:src/cakey.c   **** #include <stdio.h>
  20:src/cakey.c   **** #include <string.h>
  21:src/cakey.c   **** #include "basecall.h"
  22:src/cakey.c   **** #include "midware.h"
  23:src/cakey.c   **** #include "apm.h"
  24:src/cakey.c   **** #include "hwdef.h"
  25:src/cakey.c   **** #include "stis.h"
  26:src/cakey.c   **** #include "cakey.h"
  27:src/cakey.c   **** #include "GetCert.h"
  28:src/cakey.c   **** #include "sysutil.h"
  29:src/cakey.c   **** #include "kbdutil.h"
  30:src/cakey.c   **** #include "key2dll.h"
  31:src/cakey.c   **** #include "ftptran.h"
ARM GAS  C:\Users\AHMED~1.ELE\AppData\Local\Temp\cc7hBlxb.s 			page 2


  32:src/cakey.c   **** #include "termdata.h"
  33:src/cakey.c   **** #include "toggle.h"
  34:src/cakey.c   **** 
  35:src/cakey.c   **** //-----------------------------------------------------------------------------
  36:src/cakey.c   **** // Constant
  37:src/cakey.c   **** //-----------------------------------------------------------------------------
  38:src/cakey.c   **** static const struct MW_KEY KVsftpdKey[1] = {
  39:src/cakey.c   ****   /* 4 vsftpd.cer  */
  40:src/cakey.c   ****   {
  41:src/cakey.c   ****     .d_exponent = 0x00010001,      /* Exponent   */
  42:src/cakey.c   ****     .d_keysize = 256,              /* Key Length */
  43:src/cakey.c   ****     .s_key = {                     /* Key        */
  44:src/cakey.c   ****       0x68C7D7B3, 0x6E5DF734, 0x79A7595F, 0xBD0012CD, 
  45:src/cakey.c   ****       0x6E4CD71B, 0x9182CD4A, 0x0AF122E7, 0xE17238DF, 
  46:src/cakey.c   ****       0x2BCDACC7, 0x40A378ED, 0xB18DD170, 0x633F05AF, 
  47:src/cakey.c   ****       0x97BF8A4B, 0x19244423, 0x3846E159, 0x942F4297, 
  48:src/cakey.c   ****       0x3BF4F098, 0xC6865CB7, 0xA77093CD, 0x9E582D5F, 
  49:src/cakey.c   ****       0xE9E6A250, 0x3DB4483B, 0x059C326F, 0x0F938920, 
  50:src/cakey.c   ****       0xA9E39214, 0x73A713FA, 0x62043484, 0x808A1D0C, 
  51:src/cakey.c   ****       0xEB6832C4, 0x3702D65D, 0xF7C2C1F8, 0x53CED530, 
  52:src/cakey.c   ****       0xE31BE901, 0x4D955A98, 0xAFDDC47F, 0xDAE7C93C, 
  53:src/cakey.c   ****       0x9AE15363, 0xB380154E, 0x5AC25E88, 0x5AFF77B1, 
  54:src/cakey.c   ****       0xE33CD558, 0x839CF674, 0xCF154435, 0x089B929A, 
  55:src/cakey.c   ****       0x1970F013, 0xE54D8497, 0xB0EB8974, 0x6E2FF2FC, 
  56:src/cakey.c   ****       0x2F459869, 0x2C0E2870, 0xBEF278AB, 0xD2603C24, 
  57:src/cakey.c   ****       0x5D8D7BF2, 0xA09AB0E9, 0xC560EA63, 0xF7498EEC, 
  58:src/cakey.c   ****       0x4F111F7A, 0x4F6CEE58, 0x1F48C420, 0xD2DAAA2A, 
  59:src/cakey.c   ****       0x94D76200, 0x82EBFCC3, 0x4AC15234, 0x0524A43E
  60:src/cakey.c   ****     },
  61:src/cakey.c   ****     .d_key_idx = SSL_CA_IDX_TMS                 /* Key Index  */
  62:src/cakey.c   ****   }
  63:src/cakey.c   **** 
  64:src/cakey.c   **** };
  65:src/cakey.c   **** 
  66:src/cakey.c   **** 
  67:src/cakey.c   **** //*****************************************************************************
  68:src/cakey.c   **** //  Function        : InjectCAKey
  69:src/cakey.c   **** //  Description     : Inject Spectra key to base.
  70:src/cakey.c   **** //  Input           : N/A
  71:src/cakey.c   **** //  Return          : TRUE/FALSE
  72:src/cakey.c   **** //  Note            : //08-11-16 JC ++
  73:src/cakey.c   **** //  Globals Changed : N/A
  74:src/cakey.c   **** //*****************************************************************************
  75:src/cakey.c   **** BOOLEAN InjectCAKey(void)
  76:src/cakey.c   **** {
  27              		.loc 1 76 0
  28              		.cfi_startproc
  29              		@ args = 0, pretend = 0, frame = 1112
  30              		@ frame_needed = 0, uses_anonymous_args = 0
  31              	.LVL0:
  32 0000 2DE9F043 		push	{r4, r5, r6, r7, r8, r9, lr}
  33              		.cfi_def_cfa_offset 28
  34              		.cfi_offset 4, -28
  35              		.cfi_offset 5, -24
  36              		.cfi_offset 6, -20
  37              		.cfi_offset 7, -16
  38              		.cfi_offset 8, -12
ARM GAS  C:\Users\AHMED~1.ELE\AppData\Local\Temp\cc7hBlxb.s 			page 3


  39              		.cfi_offset 9, -8
  40              		.cfi_offset 14, -4
  77:src/cakey.c   **** #if (MCP_SUPPORT)
  78:src/cakey.c   ****   struct TERM_DATA term_data;
  79:src/cakey.c   **** #endif
  80:src/cakey.c   ****   struct ACQUIRER_TBL acq_tbl;
  81:src/cakey.c   ****   struct MW_KEY *cakey;
  82:src/cakey.c   ****   T_CLIENT_CERT *ClnCert;
  83:src/cakey.c   ****   T_RSA_PRIVATE_KEY *ClnPriKey;
  84:src/cakey.c   ****   T_KEY_BLOCK key_block;
  85:src/cakey.c   ****   BOOLEAN ret=TRUE;
  86:src/cakey.c   ****   DWORD i;
  87:src/cakey.c   ****   BYTE ecr_ssl=0;
  88:src/cakey.c   ****   
  89:src/cakey.c   ****   cakey = (struct MW_KEY *) MallocMW(sizeof(struct MW_KEY));
  41              		.loc 1 89 0
  42 0004 4FF40371 		mov	r1, #524
  76:src/cakey.c   **** #if (MCP_SUPPORT)
  43              		.loc 1 76 0
  44 0008 ADF2644D 		subw	sp, sp, #1124
  45              		.cfi_def_cfa_offset 1152
  46              		.loc 1 89 0
  47 000c 9220     		movs	r0, #146
  48 000e FFF7FEFF 		bl	sys_func1
  49              	.LVL1:
  90:src/cakey.c   ****   ClnCert = (T_CLIENT_CERT *) MallocMW(sizeof(T_CLIENT_CERT));
  50              		.loc 1 90 0
  51 0012 41F60801 		movw	r1, #6152
  89:src/cakey.c   ****   ClnCert = (T_CLIENT_CERT *) MallocMW(sizeof(T_CLIENT_CERT));
  52              		.loc 1 89 0
  53 0016 0446     		mov	r4, r0
  54              	.LVL2:
  55              		.loc 1 90 0
  56 0018 9220     		movs	r0, #146
  57              	.LVL3:
  58 001a FFF7FEFF 		bl	sys_func1
  59              	.LVL4:
  91:src/cakey.c   ****   ClnPriKey = (T_RSA_PRIVATE_KEY *) MallocMW(sizeof(T_RSA_PRIVATE_KEY));
  60              		.loc 1 91 0
  61 001e 4FF46271 		mov	r1, #904
  90:src/cakey.c   ****   ClnCert = (T_CLIENT_CERT *) MallocMW(sizeof(T_CLIENT_CERT));
  62              		.loc 1 90 0
  63 0022 8046     		mov	r8, r0
  64              	.LVL5:
  65              		.loc 1 91 0
  66 0024 9220     		movs	r0, #146
  67              	.LVL6:
  68 0026 FFF7FEFF 		bl	sys_func1
  69              	.LVL7:
  92:src/cakey.c   ****   
  93:src/cakey.c   **** #if (MCP_SUPPORT)
  94:src/cakey.c   ****   // ECR SSL mode
  95:src/cakey.c   ****   if (os_hd_config() & K_HdBt) {
  96:src/cakey.c   ****     if (GetTermData(&term_data)) {
  97:src/cakey.c   ****       if ((term_data.b_ecr_port&0x3F) == TOG_BT)
  98:src/cakey.c   ****         ecr_ssl = term_data.b_ecr_ssl;      // only enable SSL over MCP channel 1
  99:src/cakey.c   ****     }
ARM GAS  C:\Users\AHMED~1.ELE\AppData\Local\Temp\cc7hBlxb.s 			page 4


 100:src/cakey.c   ****   }
 101:src/cakey.c   **** #endif
 102:src/cakey.c   ****     
 103:src/cakey.c   ****   /****** LOAD CA KEY ******/
 104:src/cakey.c   ****   // CA key for TMS
 105:src/cakey.c   ****   memset(cakey, 0, sizeof(struct MW_KEY));
  70              		.loc 1 105 0
  71 002a 0021     		movs	r1, #0
  72 002c 4FF40372 		mov	r2, #524
  91:src/cakey.c   ****   ClnPriKey = (T_RSA_PRIVATE_KEY *) MallocMW(sizeof(T_RSA_PRIVATE_KEY));
  73              		.loc 1 91 0
  74 0030 0746     		mov	r7, r0
  75              	.LVL8:
  76              		.loc 1 105 0
  77 0032 2046     		mov	r0, r4
  78              	.LVL9:
  79 0034 FFF7FEFF 		bl	memset
  80              	.LVL10:
 106:src/cakey.c   ****   if(!GetKey(cakey, CA_TMS)) {
  81              		.loc 1 106 0
  82 0038 2046     		mov	r0, r4
  83 003a 0221     		movs	r1, #2
  84 003c FFF7FEFF 		bl	GetKey
  85              	.LVL11:
  86 0040 60BB     		cbnz	r0, .L2
 107:src/cakey.c   ****     memcpy(cakey, KVsftpdKey, sizeof(struct MW_KEY));
  87              		.loc 1 107 0
  88 0042 B949     		ldr	r1, .L58
  89 0044 4FF40372 		mov	r2, #524
  90 0048 2046     		mov	r0, r4
  91 004a FFF7FEFF 		bl	memcpy
  92              	.LVL12:
 108:src/cakey.c   ****     if (InjectCAKeyMW(cakey) == 0) {
  93              		.loc 1 108 0
  94 004e 0F20     		movs	r0, #15
  95 0050 2146     		mov	r1, r4
  96 0052 FFF7FEFF 		bl	base_func1
  97              	.LVL13:
  98 0056 0646     		mov	r6, r0
  99 0058 08B1     		cbz	r0, .L3
 100              	.L7:
  85:src/cakey.c   ****   DWORD i;
 101              		.loc 1 85 0
 102 005a 0126     		movs	r6, #1
 103 005c 31E0     		b	.L4
 104              	.L3:
 105              	.LVL14:
 106              	.LBB2:
 109:src/cakey.c   ****       DispLineMW("Key Injection Fail!", MW_LINE5, MW_CLRDISP|MW_CENTER|MW_SPFONT);
 107              		.loc 1 109 0
 108 005e 9220     		movs	r0, #146
 109 0060 1421     		movs	r1, #20
 110 0062 FFF7FEFF 		bl	sys_func1
 111              	.LVL15:
 112 0066 0546     		mov	r5, r0
 113 0068 90B1     		cbz	r0, .L6
 114              		.loc 1 109 0 is_stmt 0 discriminator 1
ARM GAS  C:\Users\AHMED~1.ELE\AppData\Local\Temp\cc7hBlxb.s 			page 5


 115 006a B049     		ldr	r1, .L58+4
 116              	.LVL16:
 117              	.L55:
 118 006c 1322     		movs	r2, #19
 119 006e FFF7FEFF 		bl	memcpy
 120              	.LVL17:
 121 0072 42F28203 		movw	r3, #8322
 122 0076 EE74     		strb	r6, [r5, #19]
 123 0078 2521     		movs	r1, #37
 124 007a 0093     		str	r3, [sp]
 125 007c 0F20     		movs	r0, #15
 126 007e 2A46     		mov	r2, r5
 127 0080 4FF4A063 		mov	r3, #1280
 128 0084 FFF7FEFF 		bl	lib_app_call
 129              	.LVL18:
 130 0088 9420     		movs	r0, #148
 131 008a 2946     		mov	r1, r5
 132 008c FFF7FEFF 		bl	sys_func1
 133              	.LVL19:
 134              	.L6:
 135              	.LBE2:
 110:src/cakey.c   ****       WaitKey(KBD_TIMEOUT);
 136              		.loc 1 110 0 is_stmt 1
 137 0090 42F22830 		movw	r0, #9000
 138 0094 FFF7FEFF 		bl	WaitKey
 139              	.LVL20:
 111:src/cakey.c   ****       ret = FALSE;
 140              		.loc 1 111 0
 141 0098 0026     		movs	r6, #0
 142 009a 12E0     		b	.L4
 143              	.LVL21:
 144              	.L2:
 112:src/cakey.c   ****     }
 113:src/cakey.c   ****   }
 114:src/cakey.c   ****   else {
 115:src/cakey.c   ****     cakey->d_key_idx = SSL_CA_IDX_TMS;
 145              		.loc 1 115 0
 146 009c FC23     		movs	r3, #252
 116:src/cakey.c   ****     if (InjectCAKeyMW(cakey) == 0) {
 147              		.loc 1 116 0
 148 009e 0F20     		movs	r0, #15
 115:src/cakey.c   ****     if (InjectCAKeyMW(cakey) == 0) {
 149              		.loc 1 115 0
 150 00a0 C4F80832 		str	r3, [r4, #520]
 151              		.loc 1 116 0
 152 00a4 2146     		mov	r1, r4
 153 00a6 FFF7FEFF 		bl	base_func1
 154              	.LVL22:
 155 00aa 0646     		mov	r6, r0
 156 00ac 0028     		cmp	r0, #0
 157 00ae D4D1     		bne	.L7
 158              	.LVL23:
 159              	.LBB3:
 117:src/cakey.c   ****       DispLineMW("Key Param Inj Fail!", MW_LINE5, MW_CLRDISP|MW_CENTER|MW_SPFONT);
 160              		.loc 1 117 0
 161 00b0 9220     		movs	r0, #146
 162 00b2 1421     		movs	r1, #20
ARM GAS  C:\Users\AHMED~1.ELE\AppData\Local\Temp\cc7hBlxb.s 			page 6


 163 00b4 FFF7FEFF 		bl	sys_func1
 164              	.LVL24:
 165 00b8 0546     		mov	r5, r0
 166 00ba 0028     		cmp	r0, #0
 167 00bc E8D0     		beq	.L6
 168              		.loc 1 117 0 is_stmt 0 discriminator 1
 169 00be 9C49     		ldr	r1, .L58+8
 170 00c0 D4E7     		b	.L55
 171              	.LVL25:
 172              	.L4:
 173              	.LBE3:
 118:src/cakey.c   ****       WaitKey(KBD_TIMEOUT);
 119:src/cakey.c   ****       ret = FALSE;
 120:src/cakey.c   ****     }
 121:src/cakey.c   ****   }
 122:src/cakey.c   ****   // CA key for ECR
 123:src/cakey.c   ****   memset(cakey, 0, sizeof(struct MW_KEY));
 174              		.loc 1 123 0 is_stmt 1
 175 00c2 0021     		movs	r1, #0
 176 00c4 2046     		mov	r0, r4
 177 00c6 4FF40372 		mov	r2, #524
 178 00ca FFF7FEFF 		bl	memset
 179              	.LVL26:
 124:src/cakey.c   ****   if(GetKey(cakey, CA_ECR)) {
 180              		.loc 1 124 0
 181 00ce 2046     		mov	r0, r4
 182 00d0 0021     		movs	r1, #0
 183 00d2 FFF7FEFF 		bl	GetKey
 184              	.LVL27:
 185 00d6 38B3     		cbz	r0, .L9
 125:src/cakey.c   ****     cakey->d_key_idx = SSL_CA_IDX_ECR;
 186              		.loc 1 125 0
 187 00d8 FD23     		movs	r3, #253
 126:src/cakey.c   ****     if (InjectCAKeyMW(cakey) == 0) {
 188              		.loc 1 126 0
 189 00da 0F20     		movs	r0, #15
 125:src/cakey.c   ****     cakey->d_key_idx = SSL_CA_IDX_ECR;
 190              		.loc 1 125 0
 191 00dc C4F80832 		str	r3, [r4, #520]
 192              		.loc 1 126 0
 193 00e0 2146     		mov	r1, r4
 194 00e2 FFF7FEFF 		bl	base_func1
 195              	.LVL28:
 196 00e6 8146     		mov	r9, r0
 197 00e8 F0B9     		cbnz	r0, .L9
 198              	.LVL29:
 199              	.LBB4:
 127:src/cakey.c   ****       DispLineMW("Key Param Inj Fail!", MW_LINE5, MW_CLRDISP|MW_CENTER|MW_SPFONT);
 200              		.loc 1 127 0
 201 00ea 9220     		movs	r0, #146
 202 00ec 1421     		movs	r1, #20
 203 00ee FFF7FEFF 		bl	sys_func1
 204              	.LVL30:
 205 00f2 0546     		mov	r5, r0
 206 00f4 98B1     		cbz	r0, .L10
 207              		.loc 1 127 0 is_stmt 0 discriminator 1
 208 00f6 8E49     		ldr	r1, .L58+8
ARM GAS  C:\Users\AHMED~1.ELE\AppData\Local\Temp\cc7hBlxb.s 			page 7


 209 00f8 1322     		movs	r2, #19
 210 00fa FFF7FEFF 		bl	memcpy
 211              	.LVL31:
 212 00fe 42F28203 		movw	r3, #8322
 213 0102 85F81390 		strb	r9, [r5, #19]
 214 0106 2521     		movs	r1, #37
 215 0108 0093     		str	r3, [sp]
 216 010a 0F20     		movs	r0, #15
 217 010c 2A46     		mov	r2, r5
 218 010e 4FF4A063 		mov	r3, #1280
 219 0112 FFF7FEFF 		bl	lib_app_call
 220              	.LVL32:
 221 0116 9420     		movs	r0, #148
 222 0118 2946     		mov	r1, r5
 223 011a FFF7FEFF 		bl	sys_func1
 224              	.LVL33:
 225              	.L10:
 226              	.LBE4:
 128:src/cakey.c   ****       WaitKey(KBD_TIMEOUT);
 227              		.loc 1 128 0 is_stmt 1
 228 011e 42F22830 		movw	r0, #9000
 229 0122 FFF7FEFF 		bl	WaitKey
 230              	.LVL34:
 129:src/cakey.c   ****       ret = FALSE;
 231              		.loc 1 129 0
 232 0126 0026     		movs	r6, #0
 233              	.LVL35:
 234              	.L9:
 130:src/cakey.c   ****     }
 131:src/cakey.c   ****   }
 132:src/cakey.c   ****   else if (ecr_ssl) {
 133:src/cakey.c   ****     DispLineMW("PARAM0 not found!", MW_LINE5, MW_CLRDISP|MW_CENTER|MW_SPFONT);
 134:src/cakey.c   ****     WaitKey(KBD_TIMEOUT);
 135:src/cakey.c   ****   }
 136:src/cakey.c   ****   // CA key for Host
 137:src/cakey.c   ****   memset(cakey, 0, sizeof(struct MW_KEY));
 235              		.loc 1 137 0
 236 0128 0021     		movs	r1, #0
 237 012a 2046     		mov	r0, r4
 238 012c 4FF40372 		mov	r2, #524
 239 0130 FFF7FEFF 		bl	memset
 240              	.LVL36:
 138:src/cakey.c   ****   if(GetKey(cakey, CA_HOST)) {
 241              		.loc 1 138 0
 242 0134 2046     		mov	r0, r4
 243 0136 0121     		movs	r1, #1
 244 0138 FFF7FEFF 		bl	GetKey
 245              	.LVL37:
 246 013c 48B3     		cbz	r0, .L24
 139:src/cakey.c   ****     cakey->d_key_idx = SSL_CA_IDX_HOST;
 247              		.loc 1 139 0
 248 013e FF23     		movs	r3, #255
 140:src/cakey.c   ****     if (InjectCAKeyMW(cakey) == 0) {
 249              		.loc 1 140 0
 250 0140 0F20     		movs	r0, #15
 139:src/cakey.c   ****     cakey->d_key_idx = SSL_CA_IDX_HOST;
 251              		.loc 1 139 0
ARM GAS  C:\Users\AHMED~1.ELE\AppData\Local\Temp\cc7hBlxb.s 			page 8


 252 0142 C4F80832 		str	r3, [r4, #520]
 253              		.loc 1 140 0
 254 0146 2146     		mov	r1, r4
 255 0148 FFF7FEFF 		bl	base_func1
 256              	.LVL38:
 257 014c 8146     		mov	r9, r0
 258 014e 0028     		cmp	r0, #0
 259 0150 50D1     		bne	.L12
 260              	.LVL39:
 261              	.LBB5:
 141:src/cakey.c   ****       DispLineMW("Key Param Inj Fail!", MW_LINE5, MW_CLRDISP|MW_CENTER|MW_SPFONT);
 262              		.loc 1 141 0
 263 0152 9220     		movs	r0, #146
 264 0154 1421     		movs	r1, #20
 265 0156 FFF7FEFF 		bl	sys_func1
 266              	.LVL40:
 267 015a 0546     		mov	r5, r0
 268 015c 98B1     		cbz	r0, .L13
 269              		.loc 1 141 0 is_stmt 0 discriminator 1
 270 015e 7449     		ldr	r1, .L58+8
 271 0160 1322     		movs	r2, #19
 272 0162 FFF7FEFF 		bl	memcpy
 273              	.LVL41:
 274 0166 42F28203 		movw	r3, #8322
 275 016a 85F81390 		strb	r9, [r5, #19]
 276 016e 2521     		movs	r1, #37
 277 0170 0093     		str	r3, [sp]
 278 0172 0F20     		movs	r0, #15
 279 0174 2A46     		mov	r2, r5
 280 0176 4FF4A063 		mov	r3, #1280
 281 017a FFF7FEFF 		bl	lib_app_call
 282              	.LVL42:
 283 017e 9420     		movs	r0, #148
 284 0180 2946     		mov	r1, r5
 285 0182 FFF7FEFF 		bl	sys_func1
 286              	.LVL43:
 287              	.L13:
 288              	.LBE5:
 142:src/cakey.c   ****       WaitKey(KBD_TIMEOUT);
 289              		.loc 1 142 0 is_stmt 1
 290 0186 42F22830 		movw	r0, #9000
 291 018a FFF7FEFF 		bl	WaitKey
 292              	.LVL44:
 143:src/cakey.c   ****       ret = FALSE;
 293              		.loc 1 143 0
 294 018e 0026     		movs	r6, #0
 295 0190 30E0     		b	.L12
 296              	.LVL45:
 297              	.L24:
 298 0192 0546     		mov	r5, r0
 299              	.L11:
 300              	.LVL46:
 144:src/cakey.c   ****     }
 145:src/cakey.c   ****   }
 146:src/cakey.c   ****   else {
 147:src/cakey.c   ****     for (i=0; i < GetAcqCount(); i++) {
 301              		.loc 1 147 0 discriminator 1
ARM GAS  C:\Users\AHMED~1.ELE\AppData\Local\Temp\cc7hBlxb.s 			page 9


 302 0194 FFF7FEFF 		bl	GetAcqCount
 303              	.LVL47:
 304 0198 8542     		cmp	r5, r0
 305 019a 2BD2     		bcs	.L12
 148:src/cakey.c   ****       if (GetAcqTbl(i, &acq_tbl)) {
 306              		.loc 1 148 0
 307 019c 2846     		mov	r0, r5
 308 019e 03A9     		add	r1, sp, #12
 309 01a0 FFF7FEFF 		bl	GetAcqTbl
 310              	.LVL48:
 311 01a4 20B3     		cbz	r0, .L14
 149:src/cakey.c   ****         if ((acq_tbl.b_ssl_key_idx&0x7F) == 0x01) {
 312              		.loc 1 149 0
 313 01a6 9DF8AD30 		ldrb	r3, [sp, #173]	@ zero_extendqisi2
 314 01aa 03F07F03 		and	r3, r3, #127
 315 01ae 012B     		cmp	r3, #1
 316 01b0 1ED1     		bne	.L14
 317              	.LVL49:
 318              	.LBB6:
 150:src/cakey.c   ****           // at least one of the acquirer needs CA Key Idx 01
 151:src/cakey.c   ****           DispLineMW("PARAM1 not found!", MW_LINE5, MW_CLRDISP|MW_CENTER|MW_SPFONT);
 319              		.loc 1 151 0
 320 01b2 9220     		movs	r0, #146
 321 01b4 1221     		movs	r1, #18
 322 01b6 FFF7FEFF 		bl	sys_func1
 323              	.LVL50:
 324 01ba 0546     		mov	r5, r0
 325              	.LVL51:
 326 01bc 98B1     		cbz	r0, .L15
 327              		.loc 1 151 0 is_stmt 0 discriminator 1
 328 01be 5D49     		ldr	r1, .L58+12
 329 01c0 1122     		movs	r2, #17
 330 01c2 FFF7FEFF 		bl	memcpy
 331              	.LVL52:
 332 01c6 0023     		movs	r3, #0
 333 01c8 2521     		movs	r1, #37
 334 01ca 6B74     		strb	r3, [r5, #17]
 335 01cc 42F28203 		movw	r3, #8322
 336 01d0 0F20     		movs	r0, #15
 337 01d2 0093     		str	r3, [sp]
 338 01d4 2A46     		mov	r2, r5
 339 01d6 4FF4A063 		mov	r3, #1280
 340 01da FFF7FEFF 		bl	lib_app_call
 341              	.LVL53:
 342 01de 9420     		movs	r0, #148
 343 01e0 2946     		mov	r1, r5
 344 01e2 FFF7FEFF 		bl	sys_func1
 345              	.LVL54:
 346              	.L15:
 347              	.LBE6:
 152:src/cakey.c   ****           WaitKey(KBD_TIMEOUT);
 348              		.loc 1 152 0 is_stmt 1
 349 01e6 42F22830 		movw	r0, #9000
 350 01ea FFF7FEFF 		bl	WaitKey
 351              	.LVL55:
 153:src/cakey.c   ****           break;
 352              		.loc 1 153 0
ARM GAS  C:\Users\AHMED~1.ELE\AppData\Local\Temp\cc7hBlxb.s 			page 10


 353 01ee 01E0     		b	.L12
 354              	.LVL56:
 355              	.L14:
 147:src/cakey.c   ****       if (GetAcqTbl(i, &acq_tbl)) {
 356              		.loc 1 147 0 discriminator 2
 357 01f0 0135     		adds	r5, r5, #1
 358              	.LVL57:
 359 01f2 CFE7     		b	.L11
 360              	.LVL58:
 361              	.L12:
 154:src/cakey.c   ****         }
 155:src/cakey.c   ****       }
 156:src/cakey.c   ****     }
 157:src/cakey.c   ****   }
 158:src/cakey.c   ****     
 159:src/cakey.c   ****   /****** LOAD CLIENT CERT ******/
 160:src/cakey.c   ****   if(GetClientCert(ClnCert)) {
 362              		.loc 1 160 0
 363 01f4 4046     		mov	r0, r8
 364 01f6 FFF7FEFF 		bl	GetClientCert
 365              	.LVL59:
 366 01fa 38B3     		cbz	r0, .L17
 161:src/cakey.c   ****     ClnCert->d_cert_idx = SSL_CLN_CERT_IDX;           // set cert index
 367              		.loc 1 161 0
 368 01fc FF23     		movs	r3, #255
 162:src/cakey.c   ****     if (bs_clientcert_inject(ClnCert) == 0) {
 369              		.loc 1 162 0
 370 01fe 4E20     		movs	r0, #78
 161:src/cakey.c   ****     ClnCert->d_cert_idx = SSL_CLN_CERT_IDX;           // set cert index
 371              		.loc 1 161 0
 372 0200 C8F80030 		str	r3, [r8]
 373              		.loc 1 162 0
 374 0204 4146     		mov	r1, r8
 375 0206 FFF7FEFF 		bl	base_func1
 376              	.LVL60:
 377 020a 8146     		mov	r9, r0
 378 020c F0B9     		cbnz	r0, .L17
 379              	.LVL61:
 380              	.LBB7:
 163:src/cakey.c   ****       DispLineMW("Cln Cert Injection Fail!", MW_LINE5, MW_CLRDISP|MW_CENTER|MW_SPFONT);
 381              		.loc 1 163 0
 382 020e 9220     		movs	r0, #146
 383 0210 1921     		movs	r1, #25
 384 0212 FFF7FEFF 		bl	sys_func1
 385              	.LVL62:
 386 0216 0546     		mov	r5, r0
 387 0218 98B1     		cbz	r0, .L18
 388              		.loc 1 163 0 is_stmt 0 discriminator 1
 389 021a 4749     		ldr	r1, .L58+16
 390 021c 1822     		movs	r2, #24
 391 021e FFF7FEFF 		bl	memcpy
 392              	.LVL63:
 393 0222 42F28203 		movw	r3, #8322
 394 0226 85F81890 		strb	r9, [r5, #24]
 395 022a 2521     		movs	r1, #37
 396 022c 0093     		str	r3, [sp]
 397 022e 0F20     		movs	r0, #15
ARM GAS  C:\Users\AHMED~1.ELE\AppData\Local\Temp\cc7hBlxb.s 			page 11


 398 0230 2A46     		mov	r2, r5
 399 0232 4FF4A063 		mov	r3, #1280
 400 0236 FFF7FEFF 		bl	lib_app_call
 401              	.LVL64:
 402 023a 9420     		movs	r0, #148
 403 023c 2946     		mov	r1, r5
 404 023e FFF7FEFF 		bl	sys_func1
 405              	.LVL65:
 406              	.L18:
 407              	.LBE7:
 164:src/cakey.c   ****       WaitKey(KBD_TIMEOUT);
 408              		.loc 1 164 0 is_stmt 1
 409 0242 42F22830 		movw	r0, #9000
 410 0246 FFF7FEFF 		bl	WaitKey
 411              	.LVL66:
 165:src/cakey.c   ****       ret = FALSE;
 412              		.loc 1 165 0
 413 024a 0026     		movs	r6, #0
 414              	.LVL67:
 415              	.L17:
 166:src/cakey.c   ****     }
 167:src/cakey.c   ****   }
 168:src/cakey.c   ****   else if (ecr_ssl >= 2) {
 169:src/cakey.c   ****     DispLineMW("PARAM2 not found!", MW_LINE5, MW_CLRDISP|MW_CENTER|MW_SPFONT);
 170:src/cakey.c   ****     WaitKey(KBD_TIMEOUT);
 171:src/cakey.c   ****   }
 172:src/cakey.c   ****   
 173:src/cakey.c   ****   /****** LOAD CLIENT PRIVATE KEY ******/
 174:src/cakey.c   ****   if(GetClientPriKey(ClnPriKey)) {
 416              		.loc 1 174 0
 417 024c 3846     		mov	r0, r7
 418 024e FFF7FEFF 		bl	GetClientPriKey
 419              	.LVL68:
 420 0252 0028     		cmp	r0, #0
 421 0254 56D0     		beq	.L19
 175:src/cakey.c   ****     ClnPriKey->d_key_idx = SSL_CLN_PRV_KEY_IDX;       // set key index
 422              		.loc 1 175 0
 423 0256 FF23     		movs	r3, #255
 176:src/cakey.c   ****     key_block.w_kb_len    = K_KBRsaPrivLen;
 424              		.loc 1 176 0
 425 0258 4FF46A72 		mov	r2, #936
 175:src/cakey.c   ****     ClnPriKey->d_key_idx = SSL_CLN_PRV_KEY_IDX;       // set key index
 426              		.loc 1 175 0
 427 025c 3B60     		str	r3, [r7]
 177:src/cakey.c   ****     key_block.w_key_idx   = ClnPriKey->d_key_idx;
 428              		.loc 1 177 0
 429 025e ADF8C230 		strh	r3, [sp, #194]	@ movhi
 178:src/cakey.c   ****     key_block.w_key_version = 1;
 430              		.loc 1 178 0
 431 0262 0123     		movs	r3, #1
 179:src/cakey.c   ****     key_block.b_algorithm = K_KBAlgorithmRsaPrivate;
 180:src/cakey.c   ****     key_block.b_usage     = K_KBSslSignature;
 181:src/cakey.c   ****     memcpy(&(key_block.s_rsa_pri_kb.s_privkey), ClnPriKey, sizeof(T_RSA_PRIVATE_KEY));
 182:src/cakey.c   ****     
 183:src/cakey.c   ****     // convert private key from plaintext into encrypted form
 184:src/cakey.c   ****     if (KDLL_KeySave(&key_block) != RESP_OK) {
 432              		.loc 1 184 0
ARM GAS  C:\Users\AHMED~1.ELE\AppData\Local\Temp\cc7hBlxb.s 			page 12


 433 0264 4FF00009 		mov	r9, #0
 178:src/cakey.c   ****     key_block.w_key_version = 1;
 434              		.loc 1 178 0
 435 0268 ADF8C430 		strh	r3, [sp, #196]	@ movhi
 179:src/cakey.c   ****     key_block.b_algorithm = K_KBAlgorithmRsaPrivate;
 436              		.loc 1 179 0
 437 026c 0423     		movs	r3, #4
 176:src/cakey.c   ****     key_block.w_key_idx   = ClnPriKey->d_key_idx;
 438              		.loc 1 176 0
 439 026e ADF8C020 		strh	r2, [sp, #192]	@ movhi
 179:src/cakey.c   ****     key_block.b_algorithm = K_KBAlgorithmRsaPrivate;
 440              		.loc 1 179 0
 441 0272 8DF8C630 		strb	r3, [sp, #198]
 180:src/cakey.c   ****     memcpy(&(key_block.s_rsa_pri_kb.s_privkey), ClnPriKey, sizeof(T_RSA_PRIVATE_KEY));
 442              		.loc 1 180 0
 443 0276 0723     		movs	r3, #7
 181:src/cakey.c   ****     
 444              		.loc 1 181 0
 445 0278 3946     		mov	r1, r7
 446 027a 4FF46272 		mov	r2, #904
 447 027e 35A8     		add	r0, sp, #212
 180:src/cakey.c   ****     memcpy(&(key_block.s_rsa_pri_kb.s_privkey), ClnPriKey, sizeof(T_RSA_PRIVATE_KEY));
 448              		.loc 1 180 0
 449 0280 8DF8C730 		strb	r3, [sp, #199]
 181:src/cakey.c   ****     
 450              		.loc 1 181 0
 451 0284 FFF7FEFF 		bl	memcpy
 452              	.LVL69:
 453              		.loc 1 184 0
 454 0288 CDF80090 		str	r9, [sp]
 455 028c 7F20     		movs	r0, #127
 456 028e 1621     		movs	r1, #22
 457 0290 2EAA     		add	r2, sp, #184
 458 0292 4B46     		mov	r3, r9
 459 0294 FFF7FEFF 		bl	lib_app_call
 460              	.LVL70:
 461 0298 80B2     		uxth	r0, r0
 462 029a F8B1     		cbz	r0, .L20
 463              	.LVL71:
 464              	.LBB8:
 185:src/cakey.c   ****       DispLineMW("PriKey Save Fail!", MW_LINE5, MW_CLRDISP|MW_CENTER|MW_SPFONT);
 465              		.loc 1 185 0
 466 029c 9220     		movs	r0, #146
 467 029e 1221     		movs	r1, #18
 468 02a0 FFF7FEFF 		bl	sys_func1
 469              	.LVL72:
 470 02a4 0546     		mov	r5, r0
 471 02a6 98B1     		cbz	r0, .L22
 472              		.loc 1 185 0 is_stmt 0 discriminator 1
 473 02a8 2449     		ldr	r1, .L58+20
 474 02aa 1122     		movs	r2, #17
 475 02ac FFF7FEFF 		bl	memcpy
 476              	.LVL73:
 477 02b0 85F81190 		strb	r9, [r5, #17]
 478              	.LVL74:
 479              	.L56:
 480 02b4 42F28203 		movw	r3, #8322
ARM GAS  C:\Users\AHMED~1.ELE\AppData\Local\Temp\cc7hBlxb.s 			page 13


 481 02b8 2521     		movs	r1, #37
 482 02ba 0093     		str	r3, [sp]
 483 02bc 0F20     		movs	r0, #15
 484 02be 2A46     		mov	r2, r5
 485 02c0 4FF4A063 		mov	r3, #1280
 486 02c4 FFF7FEFF 		bl	lib_app_call
 487              	.LVL75:
 488 02c8 9420     		movs	r0, #148
 489 02ca 2946     		mov	r1, r5
 490 02cc FFF7FEFF 		bl	sys_func1
 491              	.LVL76:
 492              	.L22:
 493              	.LBE8:
 186:src/cakey.c   ****       WaitKey(KBD_TIMEOUT);
 494              		.loc 1 186 0 is_stmt 1
 495 02d0 42F22830 		movw	r0, #9000
 496 02d4 FFF7FEFF 		bl	WaitKey
 497              	.LVL77:
 187:src/cakey.c   ****       ret = FALSE;
 498              		.loc 1 187 0
 499 02d8 0026     		movs	r6, #0
 500 02da 13E0     		b	.L19
 501              	.LVL78:
 502              	.L20:
 188:src/cakey.c   ****     }
 189:src/cakey.c   ****     else {
 190:src/cakey.c   ****       if (bs_privatekey_inject(&key_block) == 0) {
 503              		.loc 1 190 0
 504 02dc 4F20     		movs	r0, #79
 505 02de 2EA9     		add	r1, sp, #184
 506 02e0 FFF7FEFF 		bl	base_func1
 507              	.LVL79:
 508 02e4 8146     		mov	r9, r0
 509 02e6 68B9     		cbnz	r0, .L19
 510              	.LVL80:
 511              	.LBB9:
 191:src/cakey.c   ****         DispLineMW("PriKey Injection Fail!", MW_LINE5, MW_CLRDISP|MW_CENTER|MW_SPFONT);
 512              		.loc 1 191 0
 513 02e8 9220     		movs	r0, #146
 514 02ea 1721     		movs	r1, #23
 515 02ec FFF7FEFF 		bl	sys_func1
 516              	.LVL81:
 517 02f0 0546     		mov	r5, r0
 518 02f2 0028     		cmp	r0, #0
 519 02f4 ECD0     		beq	.L22
 520              		.loc 1 191 0 is_stmt 0 discriminator 1
 521 02f6 1249     		ldr	r1, .L58+24
 522 02f8 1622     		movs	r2, #22
 523 02fa FFF7FEFF 		bl	memcpy
 524              	.LVL82:
 525 02fe 85F81690 		strb	r9, [r5, #22]
 526 0302 D7E7     		b	.L56
 527              	.LVL83:
 528              	.L19:
 529              	.LBE9:
 192:src/cakey.c   ****         WaitKey(KBD_TIMEOUT);
 193:src/cakey.c   ****         ret = FALSE;
ARM GAS  C:\Users\AHMED~1.ELE\AppData\Local\Temp\cc7hBlxb.s 			page 14


 194:src/cakey.c   ****       }
 195:src/cakey.c   ****     }
 196:src/cakey.c   ****   }
 197:src/cakey.c   ****   else if (ecr_ssl >= 2) {
 198:src/cakey.c   ****     DispLineMW("PARAM3 not found!", MW_LINE5, MW_CLRDISP|MW_CENTER|MW_SPFONT);
 199:src/cakey.c   ****     WaitKey(KBD_TIMEOUT);
 200:src/cakey.c   ****   }
 201:src/cakey.c   ****   
 202:src/cakey.c   ****   FreeMW(cakey);
 530              		.loc 1 202 0 is_stmt 1
 531 0304 2146     		mov	r1, r4
 532 0306 9420     		movs	r0, #148
 533 0308 FFF7FEFF 		bl	sys_func1
 534              	.LVL84:
 203:src/cakey.c   ****   FreeMW(ClnCert);
 535              		.loc 1 203 0
 536 030c 4146     		mov	r1, r8
 537 030e 9420     		movs	r0, #148
 538 0310 FFF7FEFF 		bl	sys_func1
 539              	.LVL85:
 204:src/cakey.c   ****   FreeMW(ClnPriKey);
 540              		.loc 1 204 0
 541 0314 3946     		mov	r1, r7
 542 0316 9420     		movs	r0, #148
 543 0318 FFF7FEFF 		bl	sys_func1
 544              	.LVL86:
 205:src/cakey.c   ****   return ret;
 206:src/cakey.c   **** }
 545              		.loc 1 206 0
 546 031c 3046     		mov	r0, r6
 547 031e 0DF2644D 		addw	sp, sp, #1124
 548              		.cfi_def_cfa_offset 28
 549              		@ sp needed
 550 0322 BDE8F083 		pop	{r4, r5, r6, r7, r8, r9, pc}
 551              	.LVL87:
 552              	.L59:
 553 0326 00BF     		.align	2
 554              	.L58:
 555 0328 00000000 		.word	.LANCHOR0
 556 032c 00000000 		.word	.LC0
 557 0330 14000000 		.word	.LC1
 558 0334 28000000 		.word	.LC2
 559 0338 3A000000 		.word	.LC3
 560 033c 53000000 		.word	.LC4
 561 0340 65000000 		.word	.LC5
 562              		.cfi_endproc
 563              	.LFE0:
 564              		.size	InjectCAKey, .-InjectCAKey
 565              		.section	.rodata
 566              		.align	2
 567              		.set	.LANCHOR0,. + 0
 568              		.type	KVsftpdKey, %object
 569              		.size	KVsftpdKey, 524
 570              	KVsftpdKey:
 571 0000 01000100 		.word	65537
 572 0004 00010000 		.word	256
 573 0008 B3D7C768 		.word	1757927347
ARM GAS  C:\Users\AHMED~1.ELE\AppData\Local\Temp\cc7hBlxb.s 			page 15


 574 000c 34F75D6E 		.word	1851651892
 575 0010 5F59A779 		.word	2041010527
 576 0014 CD1200BD 		.word	-1124068659
 577 0018 1BD74C6E 		.word	1850529563
 578 001c 4ACD8291 		.word	-1853698742
 579 0020 E722F10A 		.word	183575271
 580 0024 DF3872E1 		.word	-512608033
 581 0028 C7ACCD2B 		.word	734899399
 582 002c ED78A340 		.word	1084455149
 583 0030 70D18DB1 		.word	-1316105872
 584 0034 AF053F63 		.word	1665074607
 585 0038 4B8ABF97 		.word	-1749054901
 586 003c 23442419 		.word	421807139
 587 0040 59E14638 		.word	944169305
 588 0044 97422F94 		.word	-1808842089
 589 0048 98F0F43B 		.word	1005908120
 590 004c B75C86C6 		.word	-964272969
 591 0050 CD9370A7 		.word	-1485794355
 592 0054 5F2D589E 		.word	-1638388385
 593 0058 50A2E6E9 		.word	-370761136
 594 005c 3B48B43D 		.word	1035225147
 595 0060 6F329C05 		.word	94122607
 596 0064 2089930F 		.word	261327136
 597 0068 1492E3A9 		.word	-1444703724
 598 006c FA13A773 		.word	1940329466
 599 0070 84340462 		.word	1644442756
 600 0074 0C1D8A80 		.word	-2138432244
 601 0078 C43268EB 		.word	-345492796
 602 007c 5DD60237 		.word	922932829
 603 0080 F8C1C2F7 		.word	-138231304
 604 0084 30D5CE53 		.word	1406063920
 605 0088 01E91BE3 		.word	-484710143
 606 008c 985A954D 		.word	1301633688
 607 0090 7FC4DDAF 		.word	-1344420737
 608 0094 3CC9E7DA 		.word	-622343876
 609 0098 6353E19A 		.word	-1696509085
 610 009c 4E1580B3 		.word	-1283451570
 611 00a0 885EC25A 		.word	1522687624
 612 00a4 B177FF5A 		.word	1526691761
 613 00a8 58D53CE3 		.word	-482552488
 614 00ac 74F69C83 		.word	-2086865292
 615 00b0 354415CF 		.word	-820689867
 616 00b4 9A929B08 		.word	144413338
 617 00b8 13F07019 		.word	426831891
 618 00bc 97844DE5 		.word	-447904617
 619 00c0 7489EBB0 		.word	-1326741132
 620 00c4 FCF22F6E 		.word	1848636156
 621 00c8 6998452F 		.word	793090153
 622 00cc 70280E2C 		.word	739125360
 623 00d0 AB78F2BE 		.word	-1091405653
 624 00d4 243C60D2 		.word	-765445084
 625 00d8 F27B8D5D 		.word	1569553394
 626 00dc E9B09AA0 		.word	-1600474903
 627 00e0 63EA60C5 		.word	-983504285
 628 00e4 EC8E49F7 		.word	-146174228
 629 00e8 7A1F114F 		.word	1326522234
 630 00ec 58EE6C4F 		.word	1332538968
ARM GAS  C:\Users\AHMED~1.ELE\AppData\Local\Temp\cc7hBlxb.s 			page 16


 631 00f0 20C4481F 		.word	524862496
 632 00f4 2AAADAD2 		.word	-757421526
 633 00f8 0062D794 		.word	-1797824000
 634 00fc C3FCEB82 		.word	-2098463549
 635 0100 3452C14A 		.word	1254183476
 636 0104 3EA42405 		.word	86287422
 637 0108 00000000 		.space	256
 637      00000000 
 637      00000000 
 637      00000000 
 637      00000000 
 638 0208 FC000000 		.word	252
 639              		.section	.rodata.str1.1,"aMS",%progbits,1
 640              	.LC0:
 641 0000 4B657920 		.ascii	"Key Injection Fail!\000"
 641      496E6A65 
 641      6374696F 
 641      6E204661 
 641      696C2100 
 642              	.LC1:
 643 0014 4B657920 		.ascii	"Key Param Inj Fail!\000"
 643      50617261 
 643      6D20496E 
 643      6A204661 
 643      696C2100 
 644              	.LC2:
 645 0028 50415241 		.ascii	"PARAM1 not found!\000"
 645      4D31206E 
 645      6F742066 
 645      6F756E64 
 645      2100
 646              	.LC3:
 647 003a 436C6E20 		.ascii	"Cln Cert Injection Fail!\000"
 647      43657274 
 647      20496E6A 
 647      65637469 
 647      6F6E2046 
 648              	.LC4:
 649 0053 5072694B 		.ascii	"PriKey Save Fail!\000"
 649      65792053 
 649      61766520 
 649      4661696C 
 649      2100
 650              	.LC5:
 651 0065 5072694B 		.ascii	"PriKey Injection Fail!\000"
 651      65792049 
 651      6E6A6563 
 651      74696F6E 
 651      20466169 
 652              		.text
 653              	.Letext0:
 654              		.file 2 "../LibA5T1000/common.h"
 655              		.file 3 "../LibA5T1000/basecall.h"
 656              		.file 4 "../LibA5T1000/system.h"
 657              		.file 5 "../LibA5T1000/midware.h"
 658              		.file 6 "../LibA5T1000/apm.h"
 659              		.file 7 "src/GetCert.h"
ARM GAS  C:\Users\AHMED~1.ELE\AppData\Local\Temp\cc7hBlxb.s 			page 17


 660              		.file 8 "../LibA5T1000/key2dll.h"
 661              		.file 9 "src/kbdutil.h"
 662              		.file 10 "src/stis.h"