ARM GAS  C:\Users\AHMED~1.ELE\AppData\Local\Temp\ccosOURr.s 			page 1


   1              		.syntax unified
   2              		.cpu cortex-a5
   3              		.fpu softvfp
   4              		.eabi_attribute 20, 1
   5              		.eabi_attribute 21, 1
   6              		.eabi_attribute 23, 3
   7              		.eabi_attribute 24, 1
   8              		.eabi_attribute 25, 1
   9              		.eabi_attribute 26, 1
  10              		.eabi_attribute 30, 4
  11              		.eabi_attribute 34, 0
  12              		.eabi_attribute 18, 4
  13              		.thumb
  14              		.file	"comm.c"
  15              		.text
  16              	.Ltext0:
  17              		.cfi_sections	.debug_frame
  18              		.section	.text.GetMdmLineStatusRsp,"ax",%progbits
  19              		.align	1
  20              		.thumb
  21              		.thumb_func
  22              		.type	GetMdmLineStatusRsp, %function
  23              	GetMdmLineStatusRsp:
  24              	.LFB18:
  25              		.file 1 "src/comm.c"
   1:src/comm.c    **** //-----------------------------------------------------------------------------
   2:src/comm.c    **** //  File          : comm.c
   3:src/comm.c    **** //  Module        :
   4:src/comm.c    **** //  Description   : APM Communication Functions.
   5:src/comm.c    **** //  Author        : Lewis
   6:src/comm.c    **** //  Notes         : N/A
   7:src/comm.c    **** //
   8:src/comm.c    **** // ============================================================================
   9:src/comm.c    **** // | Naming conventions                                                       |
  10:src/comm.c    **** // | ~~~~~~~~~~~~~~~~~~                                                       |
  11:src/comm.c    **** // |         Struct/Array : Leading s                                         |
  12:src/comm.c    **** // |             Constant : Leading K                                         |
  13:src/comm.c    **** // |      Global Variable : Leading g  (variable use outside one C file)      |
  14:src/comm.c    **** // |                                                                          |
  15:src/comm.c    **** // |   BYTE( 8 Bits) size : Leading b                                         |
  16:src/comm.c    **** // |   CHAR( 8 Bits) size : Leading c                                         |
  17:src/comm.c    **** // |   WORD(16 Bits) size : Leading w                                         |
  18:src/comm.c    **** // |  DWORD(32 Bits) size : Leading d                                         |
  19:src/comm.c    **** // |    int(32 Bits) size : Leading i                                         |
  20:src/comm.c    **** // | DDWORD(64 Bits) size : Leading dd                                        |
  21:src/comm.c    **** // |              Pointer : Leading p                                         |
  22:src/comm.c    **** // |                                                                          |
  23:src/comm.c    **** // |    Function argument : Leading a                                         |
  24:src/comm.c    **** // |       Local Variable : All lower case                                    |
  25:src/comm.c    **** // |                                                                          |
  26:src/comm.c    **** // | Examples:                                                                |
  27:src/comm.c    **** // |                Array : Leading s, (sb = arrary of byte, etc)             |
  28:src/comm.c    **** // |              Pointer : Leading p, (pb = pointer of byte, etc)            |
  29:src/comm.c    **** // ============================================================================
  30:src/comm.c    **** //
  31:src/comm.c    **** //  Date          Who         Action
  32:src/comm.c    **** //  ------------  ----------- -------------------------------------------------
ARM GAS  C:\Users\AHMED~1.ELE\AppData\Local\Temp\ccosOURr.s 			page 2


  33:src/comm.c    **** //  01 Apr  2009  Lewis       Initial Version.
  34:src/comm.c    **** //-----------------------------------------------------------------------------
  35:src/comm.c    **** #include <string.h>
  36:src/comm.c    **** #include "hwdef.h"
  37:src/comm.c    **** #include "midware.h"
  38:src/comm.c    **** #include "apm.h"
  39:src/comm.c    **** #include "util.h"
  40:src/comm.c    **** #include "hardware.h"
  41:src/comm.c    **** #include "sysutil.h"
  42:src/comm.c    **** #include "kbdutil.h"
  43:src/comm.c    **** #include "message.h"
  44:src/comm.c    **** #include "termdata.h"
  45:src/comm.c    **** #include "tranutil.h"
  46:src/comm.c    **** #include "expect_send.h"
  47:src/comm.c    **** #include "wifi.h"
  48:src/comm.c    **** #include "mcp.h"
  49:src/comm.c    **** #include "comm.h"
  50:src/comm.c    **** #include "toggle.h"
  51:src/comm.c    **** 
  52:src/comm.c    **** // For DEMO 
  53:src/comm.c    **** extern BYTE gReplaceAllComm;
  54:src/comm.c    **** extern void SetTestCommParam(struct COMMPARAM *aParam);
  55:src/comm.c    **** 
  56:src/comm.c    **** //-----------------------------------------------------------------------------
  57:src/comm.c    **** //      Defines
  58:src/comm.c    **** //-----------------------------------------------------------------------------
  59:src/comm.c    **** struct GPRSPPP {
  60:src/comm.c    ****   char scUserName[256];
  61:src/comm.c    ****   char scPassword[256];
  62:src/comm.c    ****   char scAPN[256];
  63:src/comm.c    ****   char scDialNum[256];
  64:src/comm.c    **** };
  65:src/comm.c    **** 
  66:src/comm.c    **** #define TYPE_VISA1       0x00
  67:src/comm.c    **** #define TYPE_SDLC        0x01
  68:src/comm.c    **** #define TYPE_ASYN        0x02
  69:src/comm.c    **** #define TYPE_VOICE       0x03
  70:src/comm.c    **** 
  71:src/comm.c    **** #define MODE_BELL        0x00
  72:src/comm.c    **** #define MODE_CCITT       0x01
  73:src/comm.c    **** 
  74:src/comm.c    **** #define BPS_300          0x00
  75:src/comm.c    **** #define BPS_1200         0x01
  76:src/comm.c    **** #define BPS_2400         0x02
  77:src/comm.c    **** #define BPS_9600         0x03
  78:src/comm.c    **** #define BPS_AUTO         0x04
  79:src/comm.c    **** #define BPS_AUTO_V42     0x05
  80:src/comm.c    **** 
  81:src/comm.c    **** static const struct {
  82:src/comm.c    ****   BYTE b_protocol;
  83:src/comm.c    ****   BYTE b_mode;
  84:src/comm.c    ****   BYTE b_speed;
  85:src/comm.c    **** } KCommParam[8] = {
  86:src/comm.c    ****   {TYPE_SDLC, MODE_BELL,  BPS_1200},
  87:src/comm.c    ****   {TYPE_ASYN, MODE_BELL,  BPS_1200},
  88:src/comm.c    ****   {TYPE_SDLC, MODE_CCITT, BPS_1200},
  89:src/comm.c    ****   {TYPE_ASYN, MODE_CCITT, BPS_1200},
ARM GAS  C:\Users\AHMED~1.ELE\AppData\Local\Temp\ccosOURr.s 			page 3


  90:src/comm.c    ****   {TYPE_ASYN, MODE_BELL,  BPS_300},
  91:src/comm.c    ****   {TYPE_ASYN, MODE_CCITT, BPS_300},
  92:src/comm.c    ****   {TYPE_SDLC, MODE_CCITT, BPS_2400},
  93:src/comm.c    ****   {TYPE_ASYN, MODE_CCITT, BPS_2400}
  94:src/comm.c    **** };
  95:src/comm.c    **** 
  96:src/comm.c    **** //-----------------------------------------------------------------------------
  97:src/comm.c    **** //      Globals
  98:src/comm.c    **** //-----------------------------------------------------------------------------
  99:src/comm.c    **** static struct GPRSPPP   gGPRSDat;
 100:src/comm.c    **** int    gTcpHandle=-1;
 101:src/comm.c    **** int    gAuxHdl[MAX_APM_AUX];
 102:src/comm.c    **** struct COMMPARAM gCommParam;
 103:src/comm.c    **** 
 104:src/comm.c    **** //-----------------------------------------------------------------------------
 105:src/comm.c    **** //      Constants
 106:src/comm.c    **** //-----------------------------------------------------------------------------
 107:src/comm.c    **** struct OPTR_APN_MAP {
 108:src/comm.c    ****   const char *pcOptrName;
 109:src/comm.c    ****   const char *pcAPN;
 110:src/comm.c    **** };
 111:src/comm.c    **** 
 112:src/comm.c    **** static const char * const CommandResult[] = {
 113:src/comm.c    ****   "OK", "ERROR",
 114:src/comm.c    ****   NULL
 115:src/comm.c    **** };
 116:src/comm.c    **** 
 117:src/comm.c    **** static const signed char JumpArray[] = {
 118:src/comm.c    ****   '\\', 'j', 1, -1
 119:src/comm.c    **** };
 120:src/comm.c    **** 
 121:src/comm.c    **** static const char * const SearchingResult[] = {
 122:src/comm.c    ****   "+CGREG: 0,1", "+CGREG: 1,1", "+CGREG: 2,1",
 123:src/comm.c    ****   "+CGREG: 0,5", "+CGREG: 1,5", "+CGREG: 2,5",
 124:src/comm.c    ****   "+CGREG: 0,2", "+CGREG: 1,2", "+CGREG: 2,2",
 125:src/comm.c    ****   "+CGREG: 0,0", "+CGREG: 1,0", "+CGREG: 2,0",
 126:src/comm.c    ****   "+CGREG: 0,3", "+CGREG: 1,3", "+CGREG: 2,3",
 127:src/comm.c    ****   NULL
 128:src/comm.c    **** };
 129:src/comm.c    **** 
 130:src/comm.c    **** static const signed char JumpArray2[] = {
 131:src/comm.c    ****   '\\', 'j', 1, 1, 1, 1, 1, 1, -1, -1, -1,
 132:src/comm.c    ****   -3, -3, -3, -3, -3, -3
 133:src/comm.c    **** };
 134:src/comm.c    **** 
 135:src/comm.c    **** static const signed char JumpArray3[] = {
 136:src/comm.c    ****   '\\', 'j', 1, -8
 137:src/comm.c    **** };
 138:src/comm.c    **** 
 139:src/comm.c    **** static const char * const ExpModemConnected[] = {
 140:src/comm.c    ****   "CONNECT", "ERROR", NULL
 141:src/comm.c    **** };
 142:src/comm.c    **** 
 143:src/comm.c    **** static char gPDPContext[256] = {"AT+CGDCONT=1,\"IP\",\"sgprs\""};
 144:src/comm.c    **** static char gDialNum[256]    = {"ATD*99***1#"};
 145:src/comm.c    **** 
 146:src/comm.c    **** static const T_EXPECT_SEND KWaveDialScript[] = {
ARM GAS  C:\Users\AHMED~1.ELE\AppData\Local\Temp\ccosOURr.s 			page 4


 147:src/comm.c    ****   {NULL, 0, 0, (signed char*)"AT+CGACT=0,1", NULL, 10, 10, 0},   // deactivate PDP Context before d
 148:src/comm.c    ****   {NULL, 0, 0, (signed char*)gPDPContext, NULL, 10, 10, 0},     // define context
 149:src/comm.c    ****   {(char **)CommandResult, 2, 5, (signed char*)JumpArray, NULL, 10, 0, 0},
 150:src/comm.c    **** //  {NULL, 0, 0, "\\pAT+CGATT=1", NULL, 20, 3, 0},    // attach gprs
 151:src/comm.c    **** //  {(char **)CommandResult, 2, 5, (signed char*)JumpArray, NULL, 10, 0, 0},
 152:src/comm.c    **** //  {NULL, 0, 0, "AT+CGREG?", NULL, 10, 1, 0},
 153:src/comm.c    **** //  {(char **)SearchingResult, 11, 11, (signed char*)JumpArray2, "ERROR", 30, 0, 0},
 154:src/comm.c    ****   {NULL, 0, 0, (signed char*)gDialNum, "NO CARRIER", 20, 1, 0},
 155:src/comm.c    ****   {(char **)ExpModemConnected, 5, 7, (signed char*)JumpArray3, "NO CARRIER", 30, 1, 1}
 156:src/comm.c    **** };
 157:src/comm.c    **** #define WAVESCP_SIZE    (sizeof(KWaveDialScript)/sizeof(KWaveDialScript[0]))
 158:src/comm.c    **** 
 159:src/comm.c    **** const struct MDMSREG KDefaultSReg =  {
 160:src/comm.c    ****   sizeof(struct MW_MDM_PORT),                 // len
 161:src/comm.c    ****   {
 162:src/comm.c    ****     0x01,                                     // Protocol = SDLC
 163:src/comm.c    ****     0x01,                                     // Modem Type = CCITT
 164:src/comm.c    ****     0x01,                                     // Speed = 1200
 165:src/comm.c    ****     12,                                       // Inactivity Timeout in unit of 2.5 sec, total 30sec
 166:src/comm.c    ****     15,                                       // Redial Pause time in 100 msec, total 1.5secs */
 167:src/comm.c    ****     0x00,                                     // Primary Tel Len
 168:src/comm.c    ****     {'F'},                                    // Primary Phone #
 169:src/comm.c    ****     0x03,                                     // Primary Dial Attempts
 170:src/comm.c    ****     20,                                       // Primary Connection Time
 171:src/comm.c    ****     0x00,                                     // Secondary Tel Len
 172:src/comm.c    ****     {'F'},                                    // Secondary Phone #
 173:src/comm.c    ****     0x03,                                     // Secondary Dial Attempts
 174:src/comm.c    ****     20,                                       // Secondary Connection Time
 175:src/comm.c    ****     3,                                        // CD on qualify time
 176:src/comm.c    ****     4,                                        // CD off qualify time
 177:src/comm.c    ****     10,                                       // Async Message qualify time in 10msec, total 100ms
 178:src/comm.c    ****     15,                                       // Wait Online time in sec, total 15 secs */
 179:src/comm.c    ****     10,                                       // (DTMF) tone duration in 10msec, total 100ms */
 180:src/comm.c    ****     5,                                        // hold line time in minutes */
 181:src/comm.c    ****     MW_SHORT_DIALTONE,                        // busy tone + check line + blink dialing + short dia
 182:src/comm.c    ****   }
 183:src/comm.c    **** };
 184:src/comm.c    **** 
 185:src/comm.c    **** static const BYTE *KPPPStatusMsg[7] = {
 186:src/comm.c    ****   "  Disconnected  ",
 187:src/comm.c    ****   "    Calling     ",
 188:src/comm.c    ****   " Authenticating ",
 189:src/comm.c    ****   "   Negotiating  ",
 190:src/comm.c    ****   "    Exiting     ",
 191:src/comm.c    ****   "   Connected    ",
 192:src/comm.c    ****   "  PPP Not Ready ",
 193:src/comm.c    **** };
 194:src/comm.c    **** 
 195:src/comm.c    **** static const BYTE KGPRSFile[] = {"GPRSFile"};
 196:src/comm.c    **** 
 197:src/comm.c    **** //*****************************************************************************
 198:src/comm.c    **** //  Function        : InitGPRSDat
 199:src/comm.c    **** //  Description     : Initialize GPRS data.
 200:src/comm.c    **** //  Input           : N/A
 201:src/comm.c    **** //  Return          : N/A
 202:src/comm.c    **** //  Note            : N/A
 203:src/comm.c    **** //  Globals Changed : N/A
ARM GAS  C:\Users\AHMED~1.ELE\AppData\Local\Temp\ccosOURr.s 			page 5


 204:src/comm.c    **** //*****************************************************************************
 205:src/comm.c    **** static void InitGPRSDat(void)
 206:src/comm.c    **** {
 207:src/comm.c    ****   BYTE filename[32];
 208:src/comm.c    ****   struct GPRSPPP gprs_dat;
 209:src/comm.c    ****   DWORD len;
 210:src/comm.c    ****   int  fd;
 211:src/comm.c    **** 
 212:src/comm.c    ****   strcpy(filename, KGPRSFile);
 213:src/comm.c    ****   fd = fOpenMW(filename);
 214:src/comm.c    ****   if (fd < 0) {
 215:src/comm.c    ****     fd = fCreateMW(filename, 0);
 216:src/comm.c    ****     memset(&gprs_dat, 0, sizeof(struct GPRSPPP));
 217:src/comm.c    ****     //strcpy(gprs_dat.scAPN, "CMNET");
 218:src/comm.c    ****     strcpy(gprs_dat.scAPN, "CSW0036");
 219:src/comm.c    ****     strcpy(gprs_dat.scDialNum, "*99***1#");
 220:src/comm.c    ****     len = fWriteMW(fd, &gprs_dat, sizeof(struct GPRSPPP));
 221:src/comm.c    ****     if (len != sizeof(struct GPRSPPP)) {
 222:src/comm.c    ****       DispLineMW("File WR Err!", MW_LINE1, MW_CLRDISP|MW_BIGFONT);
 223:src/comm.c    ****       ErrorDelay();
 224:src/comm.c    ****     }
 225:src/comm.c    ****     fCommitAllMW();
 226:src/comm.c    ****   }
 227:src/comm.c    ****   else {
 228:src/comm.c    ****     len = fReadMW(fd, &gprs_dat, sizeof(struct GPRSPPP));
 229:src/comm.c    ****     if (len != sizeof(struct GPRSPPP)) {
 230:src/comm.c    ****       DispLineMW("File RD Err!", MW_LINE1, MW_CLRDISP|MW_BIGFONT);
 231:src/comm.c    ****       ErrorDelay();
 232:src/comm.c    ****     }
 233:src/comm.c    ****   }
 234:src/comm.c    ****   memcpy(&gGPRSDat, &gprs_dat, sizeof(struct GPRSPPP));
 235:src/comm.c    ****   sprintf(gPDPContext, "AT+CGDCONT=1,\"IP\",\"%s\"", gGPRSDat.scAPN);
 236:src/comm.c    ****   sprintf(gDialNum, "ATD%s", gGPRSDat.scDialNum);
 237:src/comm.c    ****   fCloseMW(fd);
 238:src/comm.c    **** }
 239:src/comm.c    **** //*****************************************************************************
 240:src/comm.c    **** //  Function        : CommInit
 241:src/comm.c    **** //  Description     : Initialize communication data.
 242:src/comm.c    **** //  Input           : N/A
 243:src/comm.c    **** //  Return          : N/A
 244:src/comm.c    **** //  Note            : N/A
 245:src/comm.c    **** //  Globals Changed : N/A
 246:src/comm.c    **** //*****************************************************************************
 247:src/comm.c    **** void CommInit(void)
 248:src/comm.c    **** {
 249:src/comm.c    ****   int i;
 250:src/comm.c    ****   memset(&gGPRSDat,   0, sizeof(gGPRSDat));
 251:src/comm.c    ****   memset(&gCommParam, 0, sizeof(gCommParam));
 252:src/comm.c    ****   for (i= 0; i < MAX_APM_AUX; i++)
 253:src/comm.c    ****     gAuxHdl[i] = -1;
 254:src/comm.c    ****  
 255:src/comm.c    ****   InitGPRSDat();
 256:src/comm.c    **** }
 257:src/comm.c    **** //*****************************************************************************
 258:src/comm.c    **** //  Function        : WaitNetworkReady
 259:src/comm.c    **** //  Description     : Wait network ready before connecting PPP
 260:src/comm.c    **** //  Input           : N/A
ARM GAS  C:\Users\AHMED~1.ELE\AppData\Local\Temp\ccosOURr.s 			page 6


 261:src/comm.c    **** //  Return          : N/A
 262:src/comm.c    **** //  Note            : N/A
 263:src/comm.c    **** //  Globals Changed : N/A
 264:src/comm.c    **** //*****************************************************************************
 265:src/comm.c    **** BOOLEAN WaitNetworkReady(void)
 266:src/comm.c    **** {
 267:src/comm.c    ****   #define NET_READY_TIMEOUT 30    // 30 sec to wait for network ready
 268:src/comm.c    ****   DWORD free_run, status;
 269:src/comm.c    ****   
 270:src/comm.c    ****   free_run = FreeRunMW();
 271:src/comm.c    ****   while (((FreeRunMW() - free_run) < NET_READY_TIMEOUT*200)) {
 272:src/comm.c    ****     status = os_gprs_status(-1);
 273:src/comm.c    ****     if (status & K_GPRS_STATUS_TXRDY1) {
 274:src/comm.c    ****       while (((FreeRunMW() - free_run) < NET_READY_TIMEOUT*200)) {
 275:src/comm.c    ****         DispLineMW("  Wait Net Rdy  ", MW_LINE3, MW_CENTER|MW_SPFONT);
 276:src/comm.c    ****         status = os_gprs_status(-1);
 277:src/comm.c    ****         if (status & K_GPRS_STATUS_NETWORK_READY) {
 278:src/comm.c    ****           DispClrLineMW(MW_LINE3);
 279:src/comm.c    ****           Delay10ms(10);
 280:src/comm.c    ****           return TRUE;
 281:src/comm.c    ****         }
 282:src/comm.c    ****       }
 283:src/comm.c    ****     }
 284:src/comm.c    ****   }
 285:src/comm.c    ****   DispClrLineMW(MW_LINE3);
 286:src/comm.c    ****   return FALSE;
 287:src/comm.c    **** }
 288:src/comm.c    **** //*****************************************************************************
 289:src/comm.c    **** //  Function        : WaitPPPReady
 290:src/comm.c    **** //  Description     : Wait PPP connection ready.
 291:src/comm.c    **** //  Input           : aTimeout;     // timeout value seconds.
 292:src/comm.c    **** //  Return          : '0'*256+'0';  // Connected
 293:src/comm.c    **** //                    others;       // Fail
 294:src/comm.c    **** //  Note            : N/A
 295:src/comm.c    **** //  Globals Changed : N/A
 296:src/comm.c    **** //*****************************************************************************
 297:src/comm.c    **** static DWORD WaitPPPReady(DWORD aTimeout)
 298:src/comm.c    **** {
 299:src/comm.c    ****   DWORD ret, ppp_phase;
 300:src/comm.c    ****   //BYTE  tmpbuf[MW_MAX_LINESIZE+1];
 301:src/comm.c    **** 
 302:src/comm.c    ****   ppp_phase = IOCtlMW(gDevHandle[APM_SDEV_PPP], IO_PPP_GET_PHASE, NULL);
 303:src/comm.c    ****   if (ppp_phase==MW_PPP_PHASE_READY)
 304:src/comm.c    ****     return COMM_OK;
 305:src/comm.c    **** 
 306:src/comm.c    ****   ret = COMM_TIMEOUT;
 307:src/comm.c    ****   if ((ppp_phase != MW_PPP_PHASE_IDLE) &&
 308:src/comm.c    ****       (ppp_phase != MW_PPP_PHASE_DEAD) &&
 309:src/comm.c    ****       (ppp_phase != MW_PPP_PHASE_TERMINATE) ) {
 310:src/comm.c    ****     aTimeout *= TIMER_1SEC;
 311:src/comm.c    ****     TimerSetMW(gTimerHdl[TIMER_COMM], aTimeout);
 312:src/comm.c    ****     do {
 313:src/comm.c    ****       ppp_phase = IOCtlMW(gDevHandle[APM_SDEV_PPP], IO_PPP_GET_PHASE, NULL);
 314:src/comm.c    ****       DispLineMW(KPPPStatusMsg[ppp_phase], MW_LINE3, MW_CENTER|MW_SPFONT);
 315:src/comm.c    ****       if (ppp_phase==MW_PPP_PHASE_READY) {
 316:src/comm.c    ****         ret = COMM_OK;
 317:src/comm.c    ****         break;
ARM GAS  C:\Users\AHMED~1.ELE\AppData\Local\Temp\ccosOURr.s 			page 7


 318:src/comm.c    ****       }
 319:src/comm.c    ****       SleepMW();
 320:src/comm.c    ****     } while (TimerGetMW(gTimerHdl[TIMER_COMM]) > 0);
 321:src/comm.c    ****   }
 322:src/comm.c    ****   return ret;
 323:src/comm.c    **** }
 324:src/comm.c    **** //*****************************************************************************
 325:src/comm.c    **** //  Function        : ConnectPPP
 326:src/comm.c    **** //  Description     : Make the PPP connection.
 327:src/comm.c    **** //  Input           : aWaitReady;   // Wait PPP ready
 328:src/comm.c    **** //  Return          : '0'*256+'0';  // Connected
 329:src/comm.c    **** //                    others;       // Fail
 330:src/comm.c    **** //  Note            : N/A
 331:src/comm.c    **** //  Globals Changed : N/A
 332:src/comm.c    **** //*****************************************************************************
 333:src/comm.c    **** DWORD ConnectPPP(BOOLEAN aWaitReady)
 334:src/comm.c    **** {
 335:src/comm.c    ****   struct MW_PPP_DATA ppp_data;
 336:src/comm.c    ****   char   username[256], password[256];
 337:src/comm.c    ****   BYTE   redial[] = { 3, 3, 0, 10, 30 };
 338:src/comm.c    ****   int  fd, len;
 339:src/comm.c    ****   struct GPRSPPP gprs_dat;
 340:src/comm.c    ****   char tmp[32];
 341:src/comm.c    **** 
 342:src/comm.c    ****   #if (GPRS_SUPPORT)
 343:src/comm.c    ****   // GPRS PPP & NO Sim Card inserted
 344:src/comm.c    ****   if ((gCommParam.sPPP.dDevice == MW_PPP_DEVICE_GPRS) && (StatMW(gDevHandle[APM_SDEV_PPP], MW_GSTS_
 345:src/comm.c    ****     return COMM_NO_DIALTONE;
 346:src/comm.c    ****   #endif
 347:src/comm.c    **** 
 348:src/comm.c    ****   if (WaitPPPReady(gCommParam.bTimeoutVal)==COMM_OK)
 349:src/comm.c    ****     return COMM_OK;
 350:src/comm.c    **** 
 351:src/comm.c    ****   ppp_data.device     = gCommParam.sPPP.dDevice;
 352:src/comm.c    ****   ppp_data.dev_speed  = gCommParam.sPPP.dSpeed;
 353:src/comm.c    ****   ppp_data.id         = 0;
 354:src/comm.c    ****   IOCtlMW(gDevHandle[APM_SDEV_PPP], IO_PPP_SET_DEVICE, &ppp_data);
 355:src/comm.c    **** 
 356:src/comm.c    ****   ppp_data.mode = gCommParam.sPPP.dMode;
 357:src/comm.c    ****   IOCtlMW(gDevHandle[APM_SDEV_PPP], IO_PPP_SET_MODE, &ppp_data);
 358:src/comm.c    ****         
 359:src/comm.c    ****   strcpy(username, gCommParam.sPPP.scUserID);
 360:src/comm.c    ****   strcpy(password,  gCommParam.sPPP.scPwd);
 361:src/comm.c    ****   ppp_data.username = username;
 362:src/comm.c    ****   ppp_data.userpwd  = password;
 363:src/comm.c    ****   IOCtlMW(gDevHandle[APM_SDEV_PPP], IO_PPP_SET_LOGINID, &ppp_data);
 364:src/comm.c    **** 
 365:src/comm.c    ****   if (gCommParam.sPPP.scAPN[0] != 0) {
 366:src/comm.c    ****     sprintf(gPDPContext, "AT+CGDCONT=1,\"IP\",\"%s\"", gCommParam.sPPP.scAPN);
 367:src/comm.c    ****     // Save GPRSFile
 368:src/comm.c    ****     strcpy(tmp, KGPRSFile);
 369:src/comm.c    ****     fd = fOpenMW(tmp);
 370:src/comm.c    ****     if (fd < 0) 
 371:src/comm.c    ****       fd = fCreateMW(tmp, 0);
 372:src/comm.c    ****     if (fd >= 0) {
 373:src/comm.c    ****       strcpy(gGPRSDat.scAPN, gCommParam.sPPP.scAPN);
 374:src/comm.c    ****       strcpy(gGPRSDat.scUserName, gCommParam.sPPP.scUserID);
ARM GAS  C:\Users\AHMED~1.ELE\AppData\Local\Temp\ccosOURr.s 			page 8


 375:src/comm.c    ****       strcpy(gGPRSDat.scPassword, gCommParam.sPPP.scPwd);
 376:src/comm.c    ****       memcpy(&gprs_dat, &gGPRSDat, sizeof(struct GPRSPPP)); 
 377:src/comm.c    ****       len = fWriteMW(fd, &gprs_dat, sizeof(struct GPRSPPP));
 378:src/comm.c    ****       if (len != sizeof(struct GPRSPPP)) {
 379:src/comm.c    ****         DispLineMW("File WR Err!", MW_LINE1, MW_CLRDISP|MW_BIGFONT);
 380:src/comm.c    ****         ErrorDelay();
 381:src/comm.c    ****       } 
 382:src/comm.c    ****       fCommitAllMW();
 383:src/comm.c    ****     }
 384:src/comm.c    ****     fCloseMW(fd);
 385:src/comm.c    ****   }
 386:src/comm.c    **** 
 387:src/comm.c    ****   ppp_data.login_pair    = gCommParam.sPPP.dLoginPair;
 388:src/comm.c    ****   if (gCommParam.sPPP.psLogin == NULL) {
 389:src/comm.c    ****     ppp_data.login_scripts = NULL;
 390:src/comm.c    ****     IOCtlMW(gDevHandle[APM_SDEV_PPP], IO_PPP_SET_LOGIN_SCRIPT, &ppp_data);
 391:src/comm.c    ****   }
 392:src/comm.c    ****   else {
 393:src/comm.c    ****     ppp_data.login_scripts = (struct MW_EXPECT_SEND *) expect_send_alloc((T_EXPECT_SEND *)gCommPara
 394:src/comm.c    ****     IOCtlMW(gDevHandle[APM_SDEV_PPP], IO_PPP_SET_LOGIN_SCRIPT, &ppp_data);
 395:src/comm.c    ****     expect_send_release((T_EXPECT_SEND **)ppp_data.login_scripts, ppp_data.login_pair);
 396:src/comm.c    ****   }
 397:src/comm.c    **** 
 398:src/comm.c    ****   if (gCommParam.sPPP.psDialUp == NULL) {
 399:src/comm.c    ****     ppp_data.dial_pair = WAVESCP_SIZE;
 400:src/comm.c    ****     ppp_data.dial_scripts = (struct MW_EXPECT_SEND *) expect_send_alloc((T_EXPECT_SEND *)KWaveDialS
 401:src/comm.c    ****   }
 402:src/comm.c    ****   else {
 403:src/comm.c    ****     ppp_data.dial_pair = gCommParam.sPPP.dDialupPair;
 404:src/comm.c    ****     ppp_data.dial_scripts = (struct MW_EXPECT_SEND *) expect_send_alloc((T_EXPECT_SEND *)gCommParam
 405:src/comm.c    ****   }
 406:src/comm.c    ****   IOCtlMW(gDevHandle[APM_SDEV_PPP], IO_PPP_SET_DIAL_SCRIPT, &ppp_data);
 407:src/comm.c    ****   expect_send_release((T_EXPECT_SEND **)ppp_data.dial_scripts, ppp_data.dial_pair);
 408:src/comm.c    **** 
 409:src/comm.c    ****   if (gCommParam.sPPP.psDialParam != NULL) {
 410:src/comm.c    ****     memcpy(&ppp_data.line_config, gCommParam.sPPP.psDialParam, sizeof(struct MW_MDM_PORT));
 411:src/comm.c    ****     IOCtlMW(gDevHandle[APM_SDEV_PPP], IO_PPP_SET_DIAL_PARAM, &ppp_data);
 412:src/comm.c    ****   }
 413:src/comm.c    **** 
 414:src/comm.c    ****   ppp_data.reconnect_waittime = 7;
 415:src/comm.c    ****   ppp_data.reconnect_retry   = 0;
 416:src/comm.c    ****   IOCtlMW(gDevHandle[APM_SDEV_PPP], IO_PPP_SET_RECONNECT, &ppp_data);
 417:src/comm.c    **** 
 418:src/comm.c    ****   ppp_data.redial_param = redial;
 419:src/comm.c    ****   IOCtlMW(gDevHandle[APM_SDEV_PPP], IO_PPP_SET_REDIAL, &ppp_data);
 420:src/comm.c    **** 
 421:src/comm.c    ****   if (gCommParam.sPPP.bKeepAlive) {
 422:src/comm.c    ****     ppp_data.idle_timeout = 0;
 423:src/comm.c    ****     ppp_data.min_timeout = 0;
 424:src/comm.c    ****   }
 425:src/comm.c    ****   else {
 426:src/comm.c    ****     ppp_data.idle_timeout = 180;
 427:src/comm.c    ****     ppp_data.min_timeout = 0;
 428:src/comm.c    ****   }
 429:src/comm.c    ****   IOCtlMW(gDevHandle[APM_SDEV_PPP], IO_PPP_SET_TIMEOUT, &ppp_data);
 430:src/comm.c    **** 
 431:src/comm.c    ****   if ((gCommParam.sPPP.dDevice == MW_PPP_DEVICE_GPRS) && (WaitNetworkReady() == FALSE)) {
ARM GAS  C:\Users\AHMED~1.ELE\AppData\Local\Temp\ccosOURr.s 			page 9


 432:src/comm.c    ****     return COMM_NO_DIALTONE;
 433:src/comm.c    ****   }
 434:src/comm.c    ****   if (!IOCtlMW(gDevHandle[APM_SDEV_PPP], IO_PPP_CONNECT, NULL)) {
 435:src/comm.c    ****     return COMM_NO_DIALTONE;
 436:src/comm.c    ****   }
 437:src/comm.c    ****   if (aWaitReady)
 438:src/comm.c    ****     return WaitPPPReady(gCommParam.bTimeoutVal);
 439:src/comm.c    ****   return COMM_OK;
 440:src/comm.c    **** }
 441:src/comm.c    **** //*****************************************************************************
 442:src/comm.c    **** //  Function        : DisconnectPPP
 443:src/comm.c    **** //  Description     : Disconnect the PPP connection.
 444:src/comm.c    **** //  Input           : N/A
 445:src/comm.c    **** //  Return          : N/A
 446:src/comm.c    **** //  Note            : N/A
 447:src/comm.c    **** //  Globals Changed : N/A
 448:src/comm.c    **** //*****************************************************************************
 449:src/comm.c    **** DWORD DisconnectPPP(void)
 450:src/comm.c    **** {
 451:src/comm.c    ****   IOCtlMW(gDevHandle[APM_SDEV_PPP], IO_PPP_DISCONNECT, NULL);
 452:src/comm.c    ****   return COMM_OK;
 453:src/comm.c    **** }
 454:src/comm.c    **** //*****************************************************************************
 455:src/comm.c    **** //  Function        : ConnectAux
 456:src/comm.c    **** //  Description     : Send Connection command to Aux Port
 457:src/comm.c    **** //  Input           : aWaitReady;   // Wait for line ready.
 458:src/comm.c    **** //  Return          : '0'*256+'0';  // Connected
 459:src/comm.c    **** //                    others;       // Fail
 460:src/comm.c    **** //  Note            : N/A
 461:src/comm.c    **** //  Globals Changed : N/A
 462:src/comm.c    **** //*****************************************************************************
 463:src/comm.c    **** static WORD ConnectAux(BOOLEAN aWaitReady)
 464:src/comm.c    **** {
 465:src/comm.c    ****   struct AUXSREG aux_param;
 466:src/comm.c    ****   BYTE filename[32];
 467:src/comm.c    ****   BOOLEAN ret;
 468:src/comm.c    **** 
 469:src/comm.c    ****   ret = FALSE;
 470:src/comm.c    ****   if (gAuxHdl[gCommParam.sAux.bPort] < 0) {
 471:src/comm.c    ****     switch (gCommParam.sAux.bPort) {
 472:src/comm.c    ****       case APM_AUX2:
 473:src/comm.c    ****         //strcpy(filename, DEV_AUX2);
 474:src/comm.c    ****         strcpy(filename, DEV_AUX0);     //T1000 COM2 is AUX0  //13-08-14 JC ++
 475:src/comm.c    ****         break;
 476:src/comm.c    ****       case APM_AUX1:
 477:src/comm.c    ****       default:
 478:src/comm.c    ****         strcpy(filename, DEV_AUX1);
 479:src/comm.c    ****         break;
 480:src/comm.c    ****     }
 481:src/comm.c    ****     gAuxHdl[gCommParam.sAux.bPort] = OpenMW(filename, MW_RDWR);
 482:src/comm.c    ****     if (gAuxHdl[gCommParam.sAux.bPort] >= 0) {
 483:src/comm.c    ****       // prepare for parameter passing between Appl.
 484:src/comm.c    ****       memcpy(&aux_param, &gCommParam.sAux, sizeof(aux_param));
 485:src/comm.c    ****       if (IOCtlMW(gAuxHdl[gCommParam.sAux.bPort], IO_AUX_CFG, &aux_param.sAuxCfg) >= 0)
 486:src/comm.c    ****         ret = TRUE;
 487:src/comm.c    ****     }
 488:src/comm.c    ****   }
ARM GAS  C:\Users\AHMED~1.ELE\AppData\Local\Temp\ccosOURr.s 			page 10


 489:src/comm.c    ****   if (ret == TRUE)
 490:src/comm.c    ****     return COMM_OK;
 491:src/comm.c    **** 
 492:src/comm.c    ****   return COMM_NOT_CONNECT;
 493:src/comm.c    **** }
 494:src/comm.c    **** //*****************************************************************************
 495:src/comm.c    **** //  Function        : ResetAux
 496:src/comm.c    **** //  Description     : Reset Aux Port.
 497:src/comm.c    **** //  Input           : N/A
 498:src/comm.c    **** //  Return          : TRUE/FALSE;     // TRUE=>line reseted.
 499:src/comm.c    **** //  Note            : N/A
 500:src/comm.c    **** //  Globals Changed : N/A
 501:src/comm.c    **** //*****************************************************************************
 502:src/comm.c    **** static BOOLEAN ResetAux(void)
 503:src/comm.c    **** {
 504:src/comm.c    ****   CloseMW(gAuxHdl[gCommParam.sAux.bPort]);
 505:src/comm.c    ****   gAuxHdl[gCommParam.sAux.bPort] = -1;
 506:src/comm.c    ****   return TRUE;
 507:src/comm.c    **** }
 508:src/comm.c    **** //*****************************************************************************
 509:src/comm.c    **** //  Function        : SendAux
 510:src/comm.c    **** //  Description     : Send Data to Aux Port
 511:src/comm.c    **** //  Input           : aMsg;         // pointer to COMMBUF data;
 512:src/comm.c    **** //  Return          : TRUE/FALSE;   // TRUE=>sended
 513:src/comm.c    **** //  Note            : N/A
 514:src/comm.c    **** //  Globals Changed : N/A
 515:src/comm.c    **** //*****************************************************************************
 516:src/comm.c    **** static BOOLEAN SendAux(struct COMMBUF *aMsg)
 517:src/comm.c    **** {
 518:src/comm.c    ****   BOOLEAN ret;
 519:src/comm.c    **** 
 520:src/comm.c    ****   ret = FALSE;
 521:src/comm.c    ****   if (gCommParam.sAux.bPort < MAX_APM_AUX) {
 522:src/comm.c    ****     WriteMW(gAuxHdl[gCommParam.sAux.bPort], aMsg->sbContent, aMsg->wLen);
 523:src/comm.c    ****     ret = TRUE;
 524:src/comm.c    ****   }
 525:src/comm.c    ****   return ret;
 526:src/comm.c    **** }
 527:src/comm.c    **** //*****************************************************************************
 528:src/comm.c    **** //  Function        : RcvdAux
 529:src/comm.c    **** //  Description     : Receive Data from Aux Port
 530:src/comm.c    **** //  Input           : aDat;         // pointer to receive buffer
 531:src/comm.c    **** //                    aMaxLen;      // max receive len;
 532:src/comm.c    **** //  Return          : actual len received.
 533:src/comm.c    **** //  Note            : N/A
 534:src/comm.c    **** //  Globals Changed : N/A
 535:src/comm.c    **** //*****************************************************************************
 536:src/comm.c    **** static WORD RcvdAux(BYTE *aDat, WORD aMaxLen)
 537:src/comm.c    **** {
 538:src/comm.c    ****   WORD len, cur;
 539:src/comm.c    **** 
 540:src/comm.c    ****   len = cur = 0;
 541:src/comm.c    ****   if (gCommParam.sAux.bPort < MAX_APM_AUX) {
 542:src/comm.c    ****     do {
 543:src/comm.c    ****       cur = ReadMW(gAuxHdl[gCommParam.sAux.bPort], aDat+len, aMaxLen-len);
 544:src/comm.c    ****       if (cur) {
 545:src/comm.c    ****         len += cur;
ARM GAS  C:\Users\AHMED~1.ELE\AppData\Local\Temp\ccosOURr.s 			page 11


 546:src/comm.c    ****         Delay10ms(5);
 547:src/comm.c    ****       }
 548:src/comm.c    ****     } while (cur>0);
 549:src/comm.c    ****   }
 550:src/comm.c    ****   return len;
 551:src/comm.c    **** }
 552:src/comm.c    **** //*****************************************************************************
 553:src/comm.c    **** //  Function        : FlushAux
 554:src/comm.c    **** //  Description     : Flush incomming AUX data.
 555:src/comm.c    **** //  Input           : N/A
 556:src/comm.c    **** //  Return          : N/A
 557:src/comm.c    **** //  Note            : N/A
 558:src/comm.c    **** //  Globals Changed : N/A
 559:src/comm.c    **** //*****************************************************************************
 560:src/comm.c    **** static void FlushAux(void)
 561:src/comm.c    **** {
 562:src/comm.c    ****   WORD len;
 563:src/comm.c    ****   BYTE tmp[1600];
 564:src/comm.c    **** 
 565:src/comm.c    ****   if (gCommParam.sAux.bPort < MAX_APM_AUX) {
 566:src/comm.c    ****     len = 0;
 567:src/comm.c    ****     do {
 568:src/comm.c    ****       len = ReadMW(gAuxHdl[gCommParam.sAux.bPort], tmp, sizeof(tmp));
 569:src/comm.c    ****     } while (len > 0);
 570:src/comm.c    ****   }
 571:src/comm.c    **** }
 572:src/comm.c    **** //*****************************************************************************
 573:src/comm.c    **** //  Function        : IsLineDropAux
 574:src/comm.c    **** //  Description     : Check for AUX line drop.
 575:src/comm.c    **** //  Input           : N/A
 576:src/comm.c    **** //  Return          : TRUE/FALSE;
 577:src/comm.c    **** //  Note            : !TODO
 578:src/comm.c    **** //  Globals Changed : N/A
 579:src/comm.c    **** //*****************************************************************************
 580:src/comm.c    **** static BOOLEAN IsLineDropAux(void)
 581:src/comm.c    **** {
 582:src/comm.c    ****   return FALSE;
 583:src/comm.c    **** }
 584:src/comm.c    **** //*****************************************************************************
 585:src/comm.c    **** //  Function        : ResetTcpip
 586:src/comm.c    **** //  Description     : Reset TCPIP Port.
 587:src/comm.c    **** //  Input           : N/A
 588:src/comm.c    **** //  Return          : TRUE/FALSE;     // TRUE=>line reseted.
 589:src/comm.c    **** //  Note            : N/A
 590:src/comm.c    **** //  Globals Changed : N/A
 591:src/comm.c    **** //*****************************************************************************
 592:src/comm.c    **** static BOOLEAN ResetTcpip(void)
 593:src/comm.c    **** {
 594:src/comm.c    ****   DWORD status;
 595:src/comm.c    **** 
 596:src/comm.c    ****   if (gTcpHandle >= 0) {
 597:src/comm.c    ****     IOCtlMW(gTcpHandle, IO_TCP_DISCONNECT, NULL);
 598:src/comm.c    ****     do{
 599:src/comm.c    ****       status = StatMW(gTcpHandle, MW_TCP_STATUS, NULL);
 600:src/comm.c    ****       status &= 0xFF;
 601:src/comm.c    ****     } while ((status != MW_TCP_STAT_IDLE) && (status != MW_TCP_STAT_CLOSED));
 602:src/comm.c    ****     CloseMW(gTcpHandle);
ARM GAS  C:\Users\AHMED~1.ELE\AppData\Local\Temp\ccosOURr.s 			page 12


 603:src/comm.c    ****     gTcpHandle = -1;
 604:src/comm.c    ****   }
 605:src/comm.c    ****   if (((gCommParam.sPPP.dDevice&0x0F) != 0) && !gCommParam.sPPP.bKeepAlive) {
 606:src/comm.c    ****     DisconnectPPP();
 607:src/comm.c    ****   }
 608:src/comm.c    ****   return TRUE;
 609:src/comm.c    **** }
 610:src/comm.c    **** //*****************************************************************************
 611:src/comm.c    **** //  Function        : ConnectTcpip
 612:src/comm.c    **** //  Description     : Send Connection command to TCPIP Port
 613:src/comm.c    **** //  Input           : aWaitReady;   // Wait for line ready.
 614:src/comm.c    **** //                    aNoCancel;    // TRUE => No Cancel Allow
 615:src/comm.c    **** //  Return          : '0'*256+'0';  // Connected
 616:src/comm.c    **** //                    others;       // Fail
 617:src/comm.c    **** //  Note            : N/A
 618:src/comm.c    **** //  Globals Changed : N/A
 619:src/comm.c    **** //*****************************************************************************
 620:src/comm.c    **** static WORD ConnectTcpip(BOOLEAN aWaitReady, BOOLEAN aNoCancel)
 621:src/comm.c    **** {
 622:src/comm.c    ****   BOOLEAN ret=TRUE;
 623:src/comm.c    ****   DWORD host_timeout;
 624:src/comm.c    ****   BYTE filename[32];
 625:src/comm.c    ****   struct COMMPARAM  comm_param;
 626:src/comm.c    ****   DWORD status;
 627:src/comm.c    ****   struct MW_NIF_INFO netinfo;
 628:src/comm.c    ****   BYTE nif;
 629:src/comm.c    **** 
 630:src/comm.c    ****   DispClrBelowMW(MW_LINE3);
 631:src/comm.c    ****   Disp2x16Msg(KCommConnectWait, MW_LINE5, MW_CENTER|MW_BIGFONT);
 632:src/comm.c    **** 
 633:src/comm.c    ****   if ((gCommParam.sPPP.dDevice & 0x0F) != 0) {
 634:src/comm.c    ****     if (ConnectPPP(TRUE) != COMM_OK)
 635:src/comm.c    ****       return COMM_NO_LINE;
 636:src/comm.c    ****   }
 637:src/comm.c    ****   
 638:src/comm.c    ****   //07-12-16 JC ++
 639:src/comm.c    ****   nif = getTCP_NIF(&gCommParam.sTcp.sTcpCfg);
 640:src/comm.c    ****   // check LAN cable inserted
 641:src/comm.c    ****   //if (((gCommParam.sTcp.sTcpCfg.b_option & MW_TCP_PPP_MODE) == 0) && !LanCableInsertedMW()) {
 642:src/comm.c    ****   if (nif == MW_NIF_ETHERNET) {
 643:src/comm.c    ****     if (!LanCableInsertedMW()) {
 644:src/comm.c    ****       // reset handle whenever LAN cable disconnected
 645:src/comm.c    ****       if (gTcpHandle >= 0) {
 646:src/comm.c    ****         CloseMW(gTcpHandle);
 647:src/comm.c    ****         gTcpHandle = -1;
 648:src/comm.c    ****       }
 649:src/comm.c    ****     }
 650:src/comm.c    ****     if (aWaitReady == FALSE)
 651:src/comm.c    ****       ret = FALSE;
 652:src/comm.c    ****     else {
 653:src/comm.c    ****       // wait until LAN cable is plugged & DHCP ready
 654:src/comm.c    ****       host_timeout = gCommParam.bHostConnTime;
 655:src/comm.c    ****       host_timeout *= TIMER_1SEC;
 656:src/comm.c    ****       if (WaitLanNetRdy(host_timeout, aNoCancel) == FALSE)
 657:src/comm.c    ****         ret = FALSE;
 658:src/comm.c    ****     }
 659:src/comm.c    ****   }
ARM GAS  C:\Users\AHMED~1.ELE\AppData\Local\Temp\ccosOURr.s 			page 13


 660:src/comm.c    ****   else if (nif == MW_NIF_WIFI) {
 661:src/comm.c    ****     if (NetInfoMW(MW_NIF_WIFI, &netinfo) && (netinfo.d_ip == 0)) {
 662:src/comm.c    ****       // reset handle whenever Wifi disconnected
 663:src/comm.c    ****       if (gTcpHandle >= 0) {
 664:src/comm.c    ****         CloseMW(gTcpHandle);
 665:src/comm.c    ****         gTcpHandle = -1;
 666:src/comm.c    ****       }
 667:src/comm.c    ****     }
 668:src/comm.c    ****     if (aWaitReady == FALSE)
 669:src/comm.c    ****       ret = FALSE;
 670:src/comm.c    ****     else {
 671:src/comm.c    ****       // wait until DHCP ready
 672:src/comm.c    ****       host_timeout = gCommParam.bHostConnTime;
 673:src/comm.c    ****       host_timeout *= TIMER_1SEC;
 674:src/comm.c    ****       if (WaitWifiNetRdy(host_timeout, aNoCancel) == FALSE)
 675:src/comm.c    ****         ret = FALSE;
 676:src/comm.c    ****     }
 677:src/comm.c    ****   }
 678:src/comm.c    **** #if (MCP_SUPPORT)
 679:src/comm.c    ****   else if (nif == K_NIF_MCP) {
 680:src/comm.c    ****     if (GetMCPStatus() != K_MCP_PHASE_CONNECTED) {
 681:src/comm.c    ****       // reset handle whenever MCP is disconnected
 682:src/comm.c    ****       if (gTcpHandle >= 0) {
 683:src/comm.c    ****         CloseMW(gTcpHandle);
 684:src/comm.c    ****         gTcpHandle = -1;
 685:src/comm.c    ****       }
 686:src/comm.c    ****       ret = FALSE;
 687:src/comm.c    ****     }
 688:src/comm.c    ****     //21-04-17 JC ++
 689:src/comm.c    ****     if (aWaitReady == FALSE)
 690:src/comm.c    ****       ret = FALSE;
 691:src/comm.c    ****     else {
 692:src/comm.c    ****       // wait until MCP ready
 693:src/comm.c    ****       host_timeout = gCommParam.bHostConnTime;
 694:src/comm.c    ****       host_timeout *= TIMER_1SEC;
 695:src/comm.c    ****       if (WaitMcpNetRdy(host_timeout, aNoCancel) == FALSE)
 696:src/comm.c    ****         ret = FALSE;
 697:src/comm.c    ****     }
 698:src/comm.c    ****     //21-04-17 JC ++
 699:src/comm.c    ****   }
 700:src/comm.c    **** #endif
 701:src/comm.c    ****   //07-12-16 JC --
 702:src/comm.c    ****   
 703:src/comm.c    ****   // new make connection
 704:src/comm.c    ****   if (ret) {
 705:src/comm.c    ****     if (gTcpHandle < 0) {
 706:src/comm.c    ****       // open
 707:src/comm.c    ****       strcpy(filename, DEV_TCP1);
 708:src/comm.c    ****       gTcpHandle = OpenMW(filename, MW_RDWR);
 709:src/comm.c    ****       ret = (gTcpHandle >= 0)? TRUE : FALSE;
 710:src/comm.c    ****       // connect
 711:src/comm.c    ****       if (ret) {
 712:src/comm.c    ****         memcpy(&comm_param, &gCommParam, sizeof(struct COMMPARAM));
 713:src/comm.c    ****         if (IOCtlMW(gTcpHandle, IO_TCP_CONNECT2, &comm_param.sTcp.sTcpCfg) < 0) {
 714:src/comm.c    ****           ret = FALSE;
 715:src/comm.c    ****         }
 716:src/comm.c    ****       }
ARM GAS  C:\Users\AHMED~1.ELE\AppData\Local\Temp\ccosOURr.s 			page 14


 717:src/comm.c    ****     }
 718:src/comm.c    ****   }
 719:src/comm.c    **** 
 720:src/comm.c    ****   // wait for connection ready
 721:src/comm.c    ****   if (ret && aWaitReady) {
 722:src/comm.c    ****     host_timeout = gCommParam.bHostConnTime;
 723:src/comm.c    ****     host_timeout *= TIMER_1SEC;
 724:src/comm.c    ****     TimerSetMW(gTimerHdl[TIMER_COMM], host_timeout);
 725:src/comm.c    ****     ret = FALSE;
 726:src/comm.c    ****     do {
 727:src/comm.c    ****       SleepMW();
 728:src/comm.c    ****       //15-03-13 JC ++
 729:src/comm.c    ****       status = StatMW(gTcpHandle, MW_TCP_STATUS, NULL);
 730:src/comm.c    ****       if (gCommParam.sTcp.sTcpCfg.b_option & MW_TCP_SSL_MODE) {
 731:src/comm.c    ****         // SSL mode
 732:src/comm.c    ****         if (status & MW_TCP_STAT_SSL_CONNECTED) {
 733:src/comm.c    ****           ret = TRUE;
 734:src/comm.c    ****           break;
 735:src/comm.c    ****         }
 736:src/comm.c    ****       }
 737:src/comm.c    ****       else {
 738:src/comm.c    ****         // normal mode
 739:src/comm.c    ****         if ((status & 0xFF) == MW_TCP_STAT_CONNECTED) {
 740:src/comm.c    ****           ret = TRUE;
 741:src/comm.c    ****           break;
 742:src/comm.c    ****         }
 743:src/comm.c    ****       }
 744:src/comm.c    ****       //15-03-13 JC --
 745:src/comm.c    ****       if (GetCharMW()==MWKEY_CANCL) {
 746:src/comm.c    ****         if (!aNoCancel)
 747:src/comm.c    ****           break;
 748:src/comm.c    ****         LongBeep();
 749:src/comm.c    ****       }
 750:src/comm.c    ****     } while (TimerGetMW(gTimerHdl[TIMER_COMM]) > 0);
 751:src/comm.c    ****   }
 752:src/comm.c    **** 
 753:src/comm.c    ****   // return
 754:src/comm.c    ****   if (ret) {
 755:src/comm.c    ****     return COMM_OK;
 756:src/comm.c    ****   }
 757:src/comm.c    ****   else {
 758:src/comm.c    ****     ResetTcpip();
 759:src/comm.c    ****     return COMM_NOT_CONNECT;
 760:src/comm.c    ****   }
 761:src/comm.c    **** }
 762:src/comm.c    **** //*****************************************************************************
 763:src/comm.c    **** //  Function        : SendTcpip
 764:src/comm.c    **** //  Description     : Send Data to TCPIP Port
 765:src/comm.c    **** //  Input           : aMsg;         // pointer to COMMBUF data;
 766:src/comm.c    **** //  Return          : TRUE/FALSE;   // TRUE=>sended
 767:src/comm.c    **** //  Note            : N/A
 768:src/comm.c    **** //  Globals Changed : N/A
 769:src/comm.c    **** //*****************************************************************************
 770:src/comm.c    **** static BOOLEAN SendTcpip(struct COMMBUF *aMsg)
 771:src/comm.c    **** {
 772:src/comm.c    ****   BOOLEAN ret=TRUE;
 773:src/comm.c    **** 
ARM GAS  C:\Users\AHMED~1.ELE\AppData\Local\Temp\ccosOURr.s 			page 15


 774:src/comm.c    ****   if (WriteMW(gTcpHandle, aMsg->sbContent, aMsg->wLen) != aMsg->wLen) {
 775:src/comm.c    ****     ret = FALSE;
 776:src/comm.c    ****   }
 777:src/comm.c    ****   return ret;
 778:src/comm.c    **** }
 779:src/comm.c    **** //*****************************************************************************
 780:src/comm.c    **** //  Function        : RcvdTcpip
 781:src/comm.c    **** //  Description     : Receive Data from TCPIPPort
 782:src/comm.c    **** //  Input           : aDat;         // pointer to receive buffer
 783:src/comm.c    **** //                    aMaxLen;      // max receive len;
 784:src/comm.c    **** //  Return          : actual len received.
 785:src/comm.c    **** //  Note            : N/A
 786:src/comm.c    **** //  Globals Changed : N/A
 787:src/comm.c    **** //*****************************************************************************
 788:src/comm.c    **** static WORD RcvdTcpip(BYTE *aDat, WORD aMaxLen)
 789:src/comm.c    **** {
 790:src/comm.c    ****   WORD len, cur;
 791:src/comm.c    **** 
 792:src/comm.c    ****   len = cur = 0;
 793:src/comm.c    ****   do {
 794:src/comm.c    ****     cur = ReadMW(gTcpHandle, aDat+len, aMaxLen-len);
 795:src/comm.c    ****     if (cur) {
 796:src/comm.c    ****       len += cur;
 797:src/comm.c    ****       Delay10ms(5);
 798:src/comm.c    ****     }
 799:src/comm.c    ****   } while (cur>0);
 800:src/comm.c    **** 
 801:src/comm.c    ****   return len;
 802:src/comm.c    **** }
 803:src/comm.c    **** //*****************************************************************************
 804:src/comm.c    **** //  Function        : FlushTcpip
 805:src/comm.c    **** //  Description     : Flush incomming TCPIP data.
 806:src/comm.c    **** //  Input           : N/A
 807:src/comm.c    **** //  Return          : N/A
 808:src/comm.c    **** //  Note            : N/A
 809:src/comm.c    **** //  Globals Changed : N/A
 810:src/comm.c    **** //*****************************************************************************
 811:src/comm.c    **** static void FlushTcpip(void)
 812:src/comm.c    **** {
 813:src/comm.c    ****   BYTE tmp[1600];
 814:src/comm.c    **** 
 815:src/comm.c    ****   if (gTcpHandle < 0)
 816:src/comm.c    ****     return;
 817:src/comm.c    **** 
 818:src/comm.c    ****   while (ReadMW(gTcpHandle, tmp, sizeof(tmp)) > 0) {
 819:src/comm.c    ****     SleepMW();
 820:src/comm.c    ****   }
 821:src/comm.c    **** }
 822:src/comm.c    **** //*****************************************************************************
 823:src/comm.c    **** //  Function        : IsLineDropTcpip
 824:src/comm.c    **** //  Description     : Check for TCPIP line drop.
 825:src/comm.c    **** //  Input           : N/A
 826:src/comm.c    **** //  Return          : TRUE/FALSE;
 827:src/comm.c    **** //  Note            : N/A
 828:src/comm.c    **** //  Globals Changed : N/A
 829:src/comm.c    **** //*****************************************************************************
 830:src/comm.c    **** static BOOLEAN IsLineDropTcpip(void)
ARM GAS  C:\Users\AHMED~1.ELE\AppData\Local\Temp\ccosOURr.s 			page 16


 831:src/comm.c    **** {
 832:src/comm.c    ****   BOOLEAN ret=TRUE;
 833:src/comm.c    ****   int status;
 834:src/comm.c    **** 
 835:src/comm.c    ****   if (gCommParam.bCommMode==APM_COMM_GPRS) {
 836:src/comm.c    ****     if (IOCtlMW(gDevHandle[APM_SDEV_PPP], IO_PPP_GET_PHASE, NULL)!=MW_PPP_PHASE_READY)
 837:src/comm.c    ****       return FALSE;
 838:src/comm.c    ****   }
 839:src/comm.c    **** 
 840:src/comm.c    ****   status = StatMW(gTcpHandle, MW_TCP_STATUS, NULL);
 841:src/comm.c    ****   //15-03-13 JC ++
 842:src/comm.c    ****   if (gCommParam.sTcp.sTcpCfg.b_option & MW_TCP_SSL_MODE) {
 843:src/comm.c    ****     // SSL mode
 844:src/comm.c    ****     if (status & MW_TCP_STAT_SSL_CONNECTED)
 845:src/comm.c    ****       ret = FALSE;
 846:src/comm.c    ****   }
 847:src/comm.c    ****   else {
 848:src/comm.c    ****     // normal mode
 849:src/comm.c    ****     if ((status & 0xFF) == MW_TCP_STAT_CONNECTED)
 850:src/comm.c    ****       ret = FALSE;
 851:src/comm.c    ****   }
 852:src/comm.c    ****   //15-03-13 JC --
 853:src/comm.c    ****   return ret;
 854:src/comm.c    **** }
 855:src/comm.c    **** //*****************************************************************************
 856:src/comm.c    **** //  Function        : GetMdmLineStatusRsp
 857:src/comm.c    **** //  Description     : Convert Line Status to response code.
 858:src/comm.c    **** //  Input           : aStatus;        // mdm line status.
 859:src/comm.c    **** //  Return          : response code.
 860:src/comm.c    **** //  Note            : N/A
 861:src/comm.c    **** //  Globals Changed : N/A
 862:src/comm.c    **** //*****************************************************************************
 863:src/comm.c    **** static WORD GetMdmLineStatusRsp(DWORD aStatus)
 864:src/comm.c    **** {
  26              		.loc 1 864 0
  27              		.cfi_startproc
  28              		@ args = 0, pretend = 0, frame = 0
  29              		@ frame_needed = 0, uses_anonymous_args = 0
  30              		@ link register save eliminated.
  31              	.LVL0:
 865:src/comm.c    ****   DWORD dial_status;
 866:src/comm.c    ****   WORD  ret_val;
 867:src/comm.c    **** 
 868:src/comm.c    ****   ret_val = COMM_NOT_CONNECT;  // Default
 869:src/comm.c    ****   dial_status = (aStatus & 0xFF);
  32              		.loc 1 869 0
  33 0000 C2B2     		uxtb	r2, r0
  34              	.LVL1:
 870:src/comm.c    ****   if ((dial_status >= 0x80) || (aStatus & 0xFF00)){
  35              		.loc 1 870 0
  36 0002 7F2A     		cmp	r2, #127
  37 0004 00F47F43 		and	r3, r0, #65280
  38 0008 00D8     		bhi	.L2
  39              		.loc 1 870 0 is_stmt 0 discriminator 1
  40 000a 13B3     		cbz	r3, .L10
  41              	.L2:
  42 000c 803A     		subs	r2, r2, #128
ARM GAS  C:\Users\AHMED~1.ELE\AppData\Local\Temp\ccosOURr.s 			page 17


  43              	.LVL2:
  44 000e 042A     		cmp	r2, #4
 864:src/comm.c    ****   DWORD dial_status;
  45              		.loc 1 864 0 is_stmt 1
  46 0010 8EBF     		itee	hi
  47 0012 44F64360 		movwhi	r0, #20035
  48              	.LVL3:
  49 0016 1049     		ldrls	r1, .L13
  50 0018 31F81200 		ldrhls	r0, [r1, r2, lsl #1]
  51              	.LVL4:
 871:src/comm.c    ****     ret_val = COMM_NOT_CONNECT;  // Default
 872:src/comm.c    ****     switch (dial_status) {
 873:src/comm.c    ****       case MW_LINE_CD_LOST :
 874:src/comm.c    ****         ret_val = COMM_LINEDROP;
 875:src/comm.c    ****         break;
 876:src/comm.c    ****       case MW_LINE_HOST_OFFLINE:
 877:src/comm.c    ****         ret_val = COMM_HOST_OFF;
 878:src/comm.c    ****         break;
 879:src/comm.c    ****       case MW_LINE_INACT_TIMEOUT:
 880:src/comm.c    ****       case MW_LINE_CONN_TIMEOUT:
 881:src/comm.c    ****         ret_val = COMM_TIMEOUT;
 882:src/comm.c    ****         break;
 883:src/comm.c    ****     }
 884:src/comm.c    ****     switch (aStatus & 0xFF00) {
  52              		.loc 1 884 0
  53 001c B3F5007F 		cmp	r3, #512
  54 0020 11D0     		beq	.L5
  55 0022 06D8     		bhi	.L6
 885:src/comm.c    ****       case MW_LINE_OCCUPIED     :
 886:src/comm.c    ****         ret_val = COMM_LINEOCCP;
  56              		.loc 1 886 0
  57 0024 44F64F42 		movw	r2, #19535
  58              	.LVL5:
  59 0028 B3F5807F 		cmp	r3, #256
  60 002c 08BF     		it	eq
  61 002e 1046     		moveq	r0, r2
  62              	.LVL6:
  63 0030 7047     		bx	lr
  64              	.LVL7:
  65              	.L6:
 884:src/comm.c    ****       case MW_LINE_OCCUPIED     :
  66              		.loc 1 884 0
  67 0032 B3F5806F 		cmp	r3, #1024
  68 0036 09D0     		beq	.L8
 887:src/comm.c    ****         break;
 888:src/comm.c    ****       case MW_LINE_NO_LINE      :
 889:src/comm.c    ****         ret_val = COMM_NO_LINE;
 890:src/comm.c    ****         break;
 891:src/comm.c    ****       case MW_LINE_NO_DAILTONE  :
 892:src/comm.c    ****         ret_val = COMM_NO_DIALTONE;
 893:src/comm.c    ****         break;
 894:src/comm.c    ****       case MW_LINE_BUSY         :
 895:src/comm.c    ****         ret_val = COMM_LINEBUSY;
  69              		.loc 1 895 0
  70 0038 44F64242 		movw	r2, #19522
  71 003c B3F5805F 		cmp	r3, #4096
  72 0040 08BF     		it	eq
ARM GAS  C:\Users\AHMED~1.ELE\AppData\Local\Temp\ccosOURr.s 			page 18


  73 0042 1046     		moveq	r0, r2
  74              	.LVL8:
  75 0044 7047     		bx	lr
  76              	.LVL9:
  77              	.L5:
 889:src/comm.c    ****         break;
  78              		.loc 1 889 0
  79 0046 44F64E40 		movw	r0, #19534
 890:src/comm.c    ****       case MW_LINE_NO_DAILTONE  :
  80              		.loc 1 890 0
  81 004a 7047     		bx	lr
  82              	.LVL10:
  83              	.L8:
 892:src/comm.c    ****         break;
  84              		.loc 1 892 0
  85 004c 44F24E40 		movw	r0, #17486
 893:src/comm.c    ****       case MW_LINE_BUSY         :
  86              		.loc 1 893 0
  87 0050 7047     		bx	lr
  88              	.LVL11:
  89              	.L10:
 868:src/comm.c    ****   dial_status = (aStatus & 0xFF);
  90              		.loc 1 868 0
  91 0052 44F64360 		movw	r0, #20035
  92              	.LVL12:
 896:src/comm.c    ****         break;
 897:src/comm.c    ****     }
 898:src/comm.c    ****   }
 899:src/comm.c    ****   return ret_val;
 900:src/comm.c    **** }
  93              		.loc 1 900 0
  94 0056 7047     		bx	lr
  95              	.L14:
  96              		.align	2
  97              	.L13:
  98 0058 00000000 		.word	.LANCHOR0
  99              		.cfi_endproc
 100              	.LFE18:
 101              		.size	GetMdmLineStatusRsp, .-GetMdmLineStatusRsp
 102              		.section	.text.ResetMdmLine,"ax",%progbits
 103              		.align	1
 104              		.thumb
 105              		.thumb_func
 106              		.type	ResetMdmLine, %function
 107              	ResetMdmLine:
 108              	.LFB19:
 901:src/comm.c    **** //*****************************************************************************
 902:src/comm.c    **** //  Function        : ResetMdmLine
 903:src/comm.c    **** //  Description     : Reset Modem Line.
 904:src/comm.c    **** //  Input           : N/A
 905:src/comm.c    **** //  Return          : TRUE/FALSE;     // TRUE=>line reseted.
 906:src/comm.c    **** //  Note            : N/A
 907:src/comm.c    **** //  Globals Changed : N/A
 908:src/comm.c    **** //*****************************************************************************
 909:src/comm.c    **** static BOOLEAN ResetMdmLine(void)
 910:src/comm.c    **** {
 109              		.loc 1 910 0
ARM GAS  C:\Users\AHMED~1.ELE\AppData\Local\Temp\ccosOURr.s 			page 19


 110              		.cfi_startproc
 111              		@ args = 0, pretend = 0, frame = 8
 112              		@ frame_needed = 0, uses_anonymous_args = 0
 113 0000 30B5     		push	{r4, r5, lr}
 114              		.cfi_def_cfa_offset 12
 115              		.cfi_offset 4, -12
 116              		.cfi_offset 5, -8
 117              		.cfi_offset 14, -4
 911:src/comm.c    ****   DWORD hold_line;
 912:src/comm.c    **** 
 913:src/comm.c    ****   hold_line = FALSE;
 914:src/comm.c    ****   if (gDevHandle[APM_SDEV_MDM] >= 0) {
 118              		.loc 1 914 0
 119 0002 0D4C     		ldr	r4, .L17
 913:src/comm.c    ****   if (gDevHandle[APM_SDEV_MDM] >= 0) {
 120              		.loc 1 913 0
 121 0004 0025     		movs	r5, #0
 122              		.loc 1 914 0
 123 0006 6269     		ldr	r2, [r4, #20]
 910:src/comm.c    ****   DWORD hold_line;
 124              		.loc 1 910 0
 125 0008 85B0     		sub	sp, sp, #20
 126              		.cfi_def_cfa_offset 32
 127              		.loc 1 914 0
 128 000a AA42     		cmp	r2, r5
 913:src/comm.c    ****   if (gDevHandle[APM_SDEV_MDM] >= 0) {
 129              		.loc 1 913 0
 130 000c 0395     		str	r5, [sp, #12]
 131              		.loc 1 914 0
 132 000e 10DB     		blt	.L16
 915:src/comm.c    ****     IOCtlMW(gDevHandle[APM_SDEV_MDM], IO_MDM_DISCONNECT, &hold_line);
 133              		.loc 1 915 0
 134 0010 03AB     		add	r3, sp, #12
 135 0012 0721     		movs	r1, #7
 136 0014 0093     		str	r3, [sp]
 137 0016 0F20     		movs	r0, #15
 138 0018 0223     		movs	r3, #2
 139 001a FFF7FEFF 		bl	lib_app_call
 140              	.LVL13:
 916:src/comm.c    ****     CloseMW(gDevHandle[APM_SDEV_MDM]);            //25-07-17 JC ++
 141              		.loc 1 916 0
 142 001e 2B46     		mov	r3, r5
 143 0020 0095     		str	r5, [sp]
 144 0022 0F20     		movs	r0, #15
 145 0024 0321     		movs	r1, #3
 146 0026 6269     		ldr	r2, [r4, #20]
 147 0028 FFF7FEFF 		bl	lib_app_call
 148              	.LVL14:
 917:src/comm.c    ****     gDevHandle[APM_SDEV_MDM] = -1;
 149              		.loc 1 917 0
 150 002c 4FF0FF33 		mov	r3, #-1
 151 0030 6361     		str	r3, [r4, #20]
 152              	.L16:
 918:src/comm.c    ****   }
 919:src/comm.c    ****   return TRUE;
 920:src/comm.c    **** }
 153              		.loc 1 920 0
ARM GAS  C:\Users\AHMED~1.ELE\AppData\Local\Temp\ccosOURr.s 			page 20


 154 0032 0120     		movs	r0, #1
 155 0034 05B0     		add	sp, sp, #20
 156              		.cfi_def_cfa_offset 12
 157              		@ sp needed
 158 0036 30BD     		pop	{r4, r5, pc}
 159              	.L18:
 160              		.align	2
 161              	.L17:
 162 0038 00000000 		.word	gDevHandle
 163              		.cfi_endproc
 164              	.LFE19:
 165              		.size	ResetMdmLine, .-ResetMdmLine
 166              		.section	.text.FlushAux,"ax",%progbits
 167              		.align	1
 168              		.thumb
 169              		.thumb_func
 170              		.type	FlushAux, %function
 171              	FlushAux:
 172              	.LFB10:
 561:src/comm.c    ****   WORD len;
 173              		.loc 1 561 0
 174              		.cfi_startproc
 175              		@ args = 0, pretend = 0, frame = 1600
 176              		@ frame_needed = 0, uses_anonymous_args = 0
 565:src/comm.c    ****     len = 0;
 177              		.loc 1 565 0
 178 0000 0D4B     		ldr	r3, .L24
 561:src/comm.c    ****   WORD len;
 179              		.loc 1 561 0
 180 0002 10B5     		push	{r4, lr}
 181              		.cfi_def_cfa_offset 8
 182              		.cfi_offset 4, -8
 183              		.cfi_offset 14, -4
 184 0004 ADF5C96D 		sub	sp, sp, #1608
 185              		.cfi_def_cfa_offset 1616
 565:src/comm.c    ****     len = 0;
 186              		.loc 1 565 0
 187 0008 93F87D20 		ldrb	r2, [r3, #125]	@ zero_extendqisi2
 188 000c 1C46     		mov	r4, r3
 189 000e 012A     		cmp	r2, #1
 190 0010 0FD8     		bhi	.L19
 191              	.L22:
 568:src/comm.c    ****     } while (len > 0);
 192              		.loc 1 568 0 discriminator 1
 193 0012 4FF4C863 		mov	r3, #1600
 194 0016 94F87D20 		ldrb	r2, [r4, #125]	@ zero_extendqisi2
 195 001a 0093     		str	r3, [sp]
 196 001c 074B     		ldr	r3, .L24+4
 197 001e 0F20     		movs	r0, #15
 198 0020 53F82220 		ldr	r2, [r3, r2, lsl #2]
 199 0024 0421     		movs	r1, #4
 200 0026 02AB     		add	r3, sp, #8
 201 0028 FFF7FEFF 		bl	lib_app_call
 202              	.LVL15:
 569:src/comm.c    ****   }
 203              		.loc 1 569 0 discriminator 1
 204 002c 80B2     		uxth	r0, r0
ARM GAS  C:\Users\AHMED~1.ELE\AppData\Local\Temp\ccosOURr.s 			page 21


 205 002e 0028     		cmp	r0, #0
 206 0030 EFD1     		bne	.L22
 207              	.LVL16:
 208              	.L19:
 571:src/comm.c    **** //*****************************************************************************
 209              		.loc 1 571 0
 210 0032 0DF5C96D 		add	sp, sp, #1608
 211              		.cfi_def_cfa_offset 8
 212              		@ sp needed
 213 0036 10BD     		pop	{r4, pc}
 214              	.L25:
 215              		.align	2
 216              	.L24:
 217 0038 00000000 		.word	gCommParam
 218 003c 00000000 		.word	gAuxHdl
 219              		.cfi_endproc
 220              	.LFE10:
 221              		.size	FlushAux, .-FlushAux
 222              		.section	.text.InitGPRSDat,"ax",%progbits
 223              		.align	1
 224              		.thumb
 225              		.thumb_func
 226              		.type	InitGPRSDat, %function
 227              	InitGPRSDat:
 228              	.LFB0:
 206:src/comm.c    ****   BYTE filename[32];
 229              		.loc 1 206 0
 230              		.cfi_startproc
 231              		@ args = 0, pretend = 0, frame = 1056
 232              		@ frame_needed = 0, uses_anonymous_args = 0
 233 0000 70B5     		push	{r4, r5, r6, lr}
 234              		.cfi_def_cfa_offset 16
 235              		.cfi_offset 4, -16
 236              		.cfi_offset 5, -12
 237              		.cfi_offset 6, -8
 238              		.cfi_offset 14, -4
 213:src/comm.c    ****   if (fd < 0) {
 239              		.loc 1 213 0
 240 0002 0024     		movs	r4, #0
 206:src/comm.c    ****   BYTE filename[32];
 241              		.loc 1 206 0
 242 0004 ADF5856D 		sub	sp, sp, #1064
 243              		.cfi_def_cfa_offset 1080
 212:src/comm.c    ****   fd = fOpenMW(filename);
 244              		.loc 1 212 0
 245 0008 4849     		ldr	r1, .L44
 246 000a 02A8     		add	r0, sp, #8
 247 000c FFF7FEFF 		bl	strcpy
 248              	.LVL17:
 213:src/comm.c    ****   if (fd < 0) {
 249              		.loc 1 213 0
 250 0010 0094     		str	r4, [sp]
 251 0012 0F20     		movs	r0, #15
 252 0014 0D21     		movs	r1, #13
 253 0016 02AA     		add	r2, sp, #8
 254 0018 2346     		mov	r3, r4
 255 001a FFF7FEFF 		bl	lib_app_call
ARM GAS  C:\Users\AHMED~1.ELE\AppData\Local\Temp\ccosOURr.s 			page 22


 256              	.LVL18:
 214:src/comm.c    ****     fd = fCreateMW(filename, 0);
 257              		.loc 1 214 0
 258 001e 051E     		subs	r5, r0, #0
 259 0020 42DA     		bge	.L27
 215:src/comm.c    ****     memset(&gprs_dat, 0, sizeof(struct GPRSPPP));
 260              		.loc 1 215 0
 261 0022 2346     		mov	r3, r4
 262 0024 0B21     		movs	r1, #11
 263 0026 02AA     		add	r2, sp, #8
 264 0028 0094     		str	r4, [sp]
 265 002a 0F20     		movs	r0, #15
 266              	.LVL19:
 267 002c FFF7FEFF 		bl	lib_app_call
 268              	.LVL20:
 216:src/comm.c    ****     //strcpy(gprs_dat.scAPN, "CMNET");
 269              		.loc 1 216 0
 270 0030 4FF48066 		mov	r6, #1024
 271 0034 3246     		mov	r2, r6
 272 0036 2146     		mov	r1, r4
 215:src/comm.c    ****     memset(&gprs_dat, 0, sizeof(struct GPRSPPP));
 273              		.loc 1 215 0
 274 0038 0546     		mov	r5, r0
 275              	.LVL21:
 216:src/comm.c    ****     //strcpy(gprs_dat.scAPN, "CMNET");
 276              		.loc 1 216 0
 277 003a 0AA8     		add	r0, sp, #40
 278              	.LVL22:
 279 003c FFF7FEFF 		bl	memset
 280              	.LVL23:
 218:src/comm.c    ****     strcpy(gprs_dat.scDialNum, "*99***1#");
 281              		.loc 1 218 0
 282 0040 3B49     		ldr	r1, .L44+4
 283 0042 8AA8     		add	r0, sp, #552
 284 0044 FFF7FEFF 		bl	strcpy
 285              	.LVL24:
 219:src/comm.c    ****     len = fWriteMW(fd, &gprs_dat, sizeof(struct GPRSPPP));
 286              		.loc 1 219 0
 287 0048 3A49     		ldr	r1, .L44+8
 288 004a CAA8     		add	r0, sp, #808
 289 004c FFF7FEFF 		bl	strcpy
 290              	.LVL25:
 220:src/comm.c    ****     if (len != sizeof(struct GPRSPPP)) {
 291              		.loc 1 220 0
 292 0050 0096     		str	r6, [sp]
 293 0052 0F20     		movs	r0, #15
 294 0054 1221     		movs	r1, #18
 295 0056 2A46     		mov	r2, r5
 296 0058 0AAB     		add	r3, sp, #40
 297 005a FFF7FEFF 		bl	lib_app_call
 298              	.LVL26:
 221:src/comm.c    ****       DispLineMW("File WR Err!", MW_LINE1, MW_CLRDISP|MW_BIGFONT);
 299              		.loc 1 221 0
 300 005e B042     		cmp	r0, r6
 301 0060 1AD0     		beq	.L28
 302              	.LVL27:
 303              	.LBB11:
ARM GAS  C:\Users\AHMED~1.ELE\AppData\Local\Temp\ccosOURr.s 			page 23


 222:src/comm.c    ****       ErrorDelay();
 304              		.loc 1 222 0
 305 0062 9220     		movs	r0, #146
 306              	.LVL28:
 307 0064 0D21     		movs	r1, #13
 308 0066 FFF7FEFF 		bl	sys_func1
 309              	.LVL29:
 310 006a 0646     		mov	r6, r0
 311 006c 90B1     		cbz	r0, .L29
 222:src/comm.c    ****       ErrorDelay();
 312              		.loc 1 222 0 is_stmt 0 discriminator 1
 313 006e 3249     		ldr	r1, .L44+12
 314 0070 0C22     		movs	r2, #12
 315 0072 FFF7FEFF 		bl	memcpy
 316              	.LVL30:
 317 0076 4FF48453 		mov	r3, #4224
 318 007a 3473     		strb	r4, [r6, #12]
 319 007c 2521     		movs	r1, #37
 320 007e 0093     		str	r3, [sp]
 321 0080 0F20     		movs	r0, #15
 322 0082 3246     		mov	r2, r6
 323 0084 4FF48073 		mov	r3, #256
 324 0088 FFF7FEFF 		bl	lib_app_call
 325              	.LVL31:
 326 008c 9420     		movs	r0, #148
 327 008e 3146     		mov	r1, r6
 328 0090 FFF7FEFF 		bl	sys_func1
 329              	.LVL32:
 330              	.L29:
 331              	.LBE11:
 223:src/comm.c    ****     }
 332              		.loc 1 223 0 is_stmt 1
 333 0094 FFF7FEFF 		bl	ErrorDelay
 334              	.LVL33:
 335              	.L28:
 225:src/comm.c    ****   }
 336              		.loc 1 225 0
 337 0098 0022     		movs	r2, #0
 338 009a 1321     		movs	r1, #19
 339 009c 0092     		str	r2, [sp]
 340 009e 1346     		mov	r3, r2
 341 00a0 0F20     		movs	r0, #15
 342 00a2 FFF7FEFF 		bl	lib_app_call
 343              	.LVL34:
 344 00a6 26E0     		b	.L30
 345              	.LVL35:
 346              	.L27:
 228:src/comm.c    ****     if (len != sizeof(struct GPRSPPP)) {
 347              		.loc 1 228 0
 348 00a8 4FF48063 		mov	r3, #1024
 349 00ac 0F20     		movs	r0, #15
 350              	.LVL36:
 351 00ae 0093     		str	r3, [sp]
 352 00b0 1121     		movs	r1, #17
 353 00b2 2A46     		mov	r2, r5
 354 00b4 0AAB     		add	r3, sp, #40
 355 00b6 FFF7FEFF 		bl	lib_app_call
ARM GAS  C:\Users\AHMED~1.ELE\AppData\Local\Temp\ccosOURr.s 			page 24


 356              	.LVL37:
 229:src/comm.c    ****       DispLineMW("File RD Err!", MW_LINE1, MW_CLRDISP|MW_BIGFONT);
 357              		.loc 1 229 0
 358 00ba B0F5806F 		cmp	r0, #1024
 359 00be 1AD0     		beq	.L30
 360              	.LVL38:
 361              	.LBB12:
 230:src/comm.c    ****       ErrorDelay();
 362              		.loc 1 230 0
 363 00c0 9220     		movs	r0, #146
 364              	.LVL39:
 365 00c2 0D21     		movs	r1, #13
 366 00c4 FFF7FEFF 		bl	sys_func1
 367              	.LVL40:
 368 00c8 0646     		mov	r6, r0
 369 00ca 90B1     		cbz	r0, .L31
 230:src/comm.c    ****       ErrorDelay();
 370              		.loc 1 230 0 is_stmt 0 discriminator 1
 371 00cc 1B49     		ldr	r1, .L44+16
 372 00ce 0C22     		movs	r2, #12
 373 00d0 FFF7FEFF 		bl	memcpy
 374              	.LVL41:
 375 00d4 4FF48453 		mov	r3, #4224
 376 00d8 3473     		strb	r4, [r6, #12]
 377 00da 2521     		movs	r1, #37
 378 00dc 0093     		str	r3, [sp]
 379 00de 0F20     		movs	r0, #15
 380 00e0 3246     		mov	r2, r6
 381 00e2 4FF48073 		mov	r3, #256
 382 00e6 FFF7FEFF 		bl	lib_app_call
 383              	.LVL42:
 384 00ea 9420     		movs	r0, #148
 385 00ec 3146     		mov	r1, r6
 386 00ee FFF7FEFF 		bl	sys_func1
 387              	.LVL43:
 388              	.L31:
 389              	.LBE12:
 231:src/comm.c    ****     }
 390              		.loc 1 231 0 is_stmt 1
 391 00f2 FFF7FEFF 		bl	ErrorDelay
 392              	.LVL44:
 393              	.L30:
 234:src/comm.c    ****   sprintf(gPDPContext, "AT+CGDCONT=1,\"IP\",\"%s\"", gGPRSDat.scAPN);
 394              		.loc 1 234 0
 395 00f6 0AA9     		add	r1, sp, #40
 396 00f8 4FF48062 		mov	r2, #1024
 397 00fc 1048     		ldr	r0, .L44+20
 398 00fe FFF7FEFF 		bl	memcpy
 399              	.LVL45:
 235:src/comm.c    ****   sprintf(gDialNum, "ATD%s", gGPRSDat.scDialNum);
 400              		.loc 1 235 0
 401 0102 1049     		ldr	r1, .L44+24
 402 0104 104A     		ldr	r2, .L44+28
 403 0106 1148     		ldr	r0, .L44+32
 404 0108 FFF7FEFF 		bl	sprintf
 405              	.LVL46:
 236:src/comm.c    ****   fCloseMW(fd);
ARM GAS  C:\Users\AHMED~1.ELE\AppData\Local\Temp\ccosOURr.s 			page 25


 406              		.loc 1 236 0
 407 010c 1049     		ldr	r1, .L44+36
 408 010e 114A     		ldr	r2, .L44+40
 409 0110 1148     		ldr	r0, .L44+44
 410 0112 FFF7FEFF 		bl	sprintf
 411              	.LVL47:
 237:src/comm.c    **** }
 412              		.loc 1 237 0
 413 0116 0023     		movs	r3, #0
 414 0118 0E21     		movs	r1, #14
 415 011a 0093     		str	r3, [sp]
 416 011c 2A46     		mov	r2, r5
 417 011e 0F20     		movs	r0, #15
 418 0120 FFF7FEFF 		bl	lib_app_call
 419              	.LVL48:
 238:src/comm.c    **** //*****************************************************************************
 420              		.loc 1 238 0
 421 0124 0DF5856D 		add	sp, sp, #1064
 422              		.cfi_def_cfa_offset 16
 423              		@ sp needed
 424 0128 70BD     		pop	{r4, r5, r6, pc}
 425              	.LVL49:
 426              	.L45:
 427 012a 00BF     		.align	2
 428              	.L44:
 429 012c 0A000000 		.word	.LANCHOR0+10
 430 0130 00000000 		.word	.LC1
 431 0134 08000000 		.word	.LC2
 432 0138 11000000 		.word	.LC3
 433 013c 1E000000 		.word	.LC4
 434 0140 00000000 		.word	.LANCHOR1
 435 0144 2B000000 		.word	.LC5
 436 0148 00020000 		.word	.LANCHOR1+512
 437 014c 00000000 		.word	.LANCHOR2
 438 0150 42000000 		.word	.LC6
 439 0154 00030000 		.word	.LANCHOR1+768
 440 0158 00010000 		.word	.LANCHOR2+256
 441              		.cfi_endproc
 442              	.LFE0:
 443              		.size	InitGPRSDat, .-InitGPRSDat
 444              		.section	.text.FlushTcpip,"ax",%progbits
 445              		.align	1
 446              		.thumb
 447              		.thumb_func
 448              		.type	FlushTcpip, %function
 449              	FlushTcpip:
 450              	.LFB16:
 812:src/comm.c    ****   BYTE tmp[1600];
 451              		.loc 1 812 0
 452              		.cfi_startproc
 453              		@ args = 0, pretend = 0, frame = 1600
 454              		@ frame_needed = 0, uses_anonymous_args = 0
 815:src/comm.c    ****     return;
 455              		.loc 1 815 0
 456 0000 0E4B     		ldr	r3, .L51
 812:src/comm.c    ****   BYTE tmp[1600];
 457              		.loc 1 812 0
ARM GAS  C:\Users\AHMED~1.ELE\AppData\Local\Temp\ccosOURr.s 			page 26


 458 0002 10B5     		push	{r4, lr}
 459              		.cfi_def_cfa_offset 8
 460              		.cfi_offset 4, -8
 461              		.cfi_offset 14, -4
 462 0004 ADF5C96D 		sub	sp, sp, #1608
 463              		.cfi_def_cfa_offset 1616
 815:src/comm.c    ****     return;
 464              		.loc 1 815 0
 465 0008 D3F80022 		ldr	r2, [r3, #512]
 466 000c 1C46     		mov	r4, r3
 467 000e 002A     		cmp	r2, #0
 468 0010 10DB     		blt	.L46
 469              	.L48:
 818:src/comm.c    ****     SleepMW();
 470              		.loc 1 818 0
 471 0012 4FF4C863 		mov	r3, #1600
 472 0016 0F20     		movs	r0, #15
 473 0018 0093     		str	r3, [sp]
 474 001a 0421     		movs	r1, #4
 475 001c D4F80022 		ldr	r2, [r4, #512]
 476 0020 02AB     		add	r3, sp, #8
 477 0022 FFF7FEFF 		bl	lib_app_call
 478              	.LVL50:
 479 0026 0028     		cmp	r0, #0
 480 0028 04DD     		ble	.L46
 819:src/comm.c    ****   }
 481              		.loc 1 819 0
 482 002a 4FF4CE70 		mov	r0, #412
 483 002e FFF7FEFF 		bl	sys_func0
 484              	.LVL51:
 485 0032 EEE7     		b	.L48
 486              	.L46:
 821:src/comm.c    **** //*****************************************************************************
 487              		.loc 1 821 0
 488 0034 0DF5C96D 		add	sp, sp, #1608
 489              		.cfi_def_cfa_offset 8
 490              		@ sp needed
 491 0038 10BD     		pop	{r4, pc}
 492              	.L52:
 493 003a 00BF     		.align	2
 494              	.L51:
 495 003c 00000000 		.word	.LANCHOR2
 496              		.cfi_endproc
 497              	.LFE16:
 498              		.size	FlushTcpip, .-FlushTcpip
 499              		.section	.text.FlushMdmLine,"ax",%progbits
 500              		.align	1
 501              		.thumb
 502              		.thumb_func
 503              		.type	FlushMdmLine, %function
 504              	FlushMdmLine:
 505              	.LFB23:
 921:src/comm.c    **** //*****************************************************************************
 922:src/comm.c    **** //  Function        : ConnectMdmLine
 923:src/comm.c    **** //  Description     : Send Connection command to Modem Port
 924:src/comm.c    **** //  Input           : aWaitReady;   // Wait for line ready.
 925:src/comm.c    **** //                    aNoCancel;    // TRUE => User cancel Not allow
ARM GAS  C:\Users\AHMED~1.ELE\AppData\Local\Temp\ccosOURr.s 			page 27


 926:src/comm.c    **** //  Return          : '0'*256+'0';  // Connected
 927:src/comm.c    **** //                    others;       // Fail
 928:src/comm.c    **** //  Note            : N/A
 929:src/comm.c    **** //  Globals Changed : N/A
 930:src/comm.c    **** //*****************************************************************************
 931:src/comm.c    **** static WORD ConnectMdmLine(BOOLEAN aWaitReady, BOOLEAN aNoCancel)
 932:src/comm.c    **** {
 933:src/comm.c    ****   DWORD host_timeout, status, dial_status;
 934:src/comm.c    ****   WORD  ret_val;
 935:src/comm.c    ****   BYTE filename[32];
 936:src/comm.c    ****   struct COMMPARAM  comm_param;
 937:src/comm.c    ****   BYTE tmp[MW_MAX_LINESIZE+1];
 938:src/comm.c    **** 
 939:src/comm.c    ****   if (gDevHandle[APM_SDEV_MDM] < 0) {
 940:src/comm.c    ****     // open
 941:src/comm.c    ****     strcpy(filename, DEV_MDM1);
 942:src/comm.c    ****     gDevHandle[APM_SDEV_MDM] = OpenMW(filename, MW_RDWR);
 943:src/comm.c    ****   }
 944:src/comm.c    **** 
 945:src/comm.c    ****   if (gDevHandle[APM_SDEV_MDM] < 0) {
 946:src/comm.c    ****     return COMM_NOT_CONNECT;
 947:src/comm.c    ****   }
 948:src/comm.c    **** 
 949:src/comm.c    ****   #if (R700)
 950:src/comm.c    ****   IOCtlMW(gDevHandle[APM_SDEV_MDM], IO_MDM_SET_OPR_MODE, 22);    // Set Data Mode
 951:src/comm.c    ****   #endif
 952:src/comm.c    **** 
 953:src/comm.c    ****   //if (!aWaitReady)
 954:src/comm.c    ****   //  return COMM_OK;
 955:src/comm.c    **** 
 956:src/comm.c    ****   host_timeout = (gCommParam.sMdm.sMdmCfg.b_pconn_limit * gCommParam.sMdm.sMdmCfg.b_pconn_tval) +
 957:src/comm.c    ****                  (gCommParam.sMdm.sMdmCfg.b_sconn_limit * gCommParam.sMdm.sMdmCfg.b_sconn_tval) +
 958:src/comm.c    ****                  (gCommParam.sMdm.sMdmCfg.b_redial_pause_tval/10 * (gCommParam.sMdm.sMdmCfg.b_pconn
 959:src/comm.c    ****   host_timeout *= TIMER_1SEC;
 960:src/comm.c    **** 
 961:src/comm.c    ****   TimerSetMW(gTimerHdl[TIMER_COMM], host_timeout);
 962:src/comm.c    **** 
 963:src/comm.c    ****   ret_val = COMM_NOT_CONNECT;
 964:src/comm.c    ****   while (TimerGetMW(gTimerHdl[TIMER_COMM]) > 0) {
 965:src/comm.c    ****     SleepMW();
 966:src/comm.c    **** 
 967:src/comm.c    ****     // Check User Cancel
 968:src/comm.c    ****     if (!aNoCancel) {
 969:src/comm.c    ****       if (GetCharMW() == MWKEY_CANCL)
 970:src/comm.c    ****         break;
 971:src/comm.c    ****     }
 972:src/comm.c    **** 
 973:src/comm.c    ****     // Show Status DWORD
 974:src/comm.c    ****     status = StatMW(gDevHandle[APM_SDEV_MDM], 0, NULL);
 975:src/comm.c    ****     if (aWaitReady) {           //15-03-13 JC ++
 976:src/comm.c    ****       sprintf(tmp, "Status: %08X", status);
 977:src/comm.c    ****       DispLineMW(tmp, MW_LINE8, MW_REVERSE|MW_CENTER|MW_SPFONT);
 978:src/comm.c    ****     }
 979:src/comm.c    **** 
 980:src/comm.c    ****     if (status & (MW_LINE_WAIT_DISC | MW_LINE_WAIT_DIAL))
 981:src/comm.c    ****       continue;
 982:src/comm.c    **** 
ARM GAS  C:\Users\AHMED~1.ELE\AppData\Local\Temp\ccosOURr.s 			page 28


 983:src/comm.c    ****     dial_status = (status & 0xFF);
 984:src/comm.c    ****     //26-11-14 JC ++
 985:src/comm.c    ****     if (((dial_status >= 0x80) || (status & 0xFF00)) && (status & MW_LINE_DIALING_P2)) {
 986:src/comm.c    ****       ret_val = GetMdmLineStatusRsp(status);
 987:src/comm.c    ****       LongBeep();
 988:src/comm.c    ****       break;
 989:src/comm.c    ****     }
 990:src/comm.c    ****     //26-11-14 JC --
 991:src/comm.c    **** 
 992:src/comm.c    ****     // Idle
 993:src/comm.c    ****     if (dial_status == MW_LINE_IDLE) {
 994:src/comm.c    ****       memcpy(&comm_param, &gCommParam, sizeof(comm_param));
 995:src/comm.c    ****       IOCtlMW(gDevHandle[APM_SDEV_MDM], IO_MDM_CONNECT, &comm_param.sMdm.sMdmCfg);
 996:src/comm.c    ****       if (!aWaitReady)          //15-03-13 JC ++
 997:src/comm.c    ****         return COMM_OK;
 998:src/comm.c    ****     }
 999:src/comm.c    ****     // Connected
1000:src/comm.c    ****     if (dial_status == MW_LINE_CONNECTED) {
1001:src/comm.c    ****       ret_val = COMM_OK;
1002:src/comm.c    ****       break;
1003:src/comm.c    ****     }
1004:src/comm.c    ****   }
1005:src/comm.c    **** 
1006:src/comm.c    ****   if (ret_val != COMM_OK) {
1007:src/comm.c    ****     ResetMdmLine();
1008:src/comm.c    ****   }
1009:src/comm.c    **** 
1010:src/comm.c    ****   return ret_val;
1011:src/comm.c    **** }
1012:src/comm.c    **** //*****************************************************************************
1013:src/comm.c    **** //  Function        : SendMdmLine
1014:src/comm.c    **** //  Description     : Send Data to Modem Line Port
1015:src/comm.c    **** //  Input           : aMsg;         // pointer to COMMBUF data;
1016:src/comm.c    **** //  Return          : TRUE/FALSE;   // TRUE=>sended
1017:src/comm.c    **** //  Note            : N/A
1018:src/comm.c    **** //  Globals Changed : N/A
1019:src/comm.c    **** //*****************************************************************************
1020:src/comm.c    **** static BOOLEAN SendMdmLine(struct COMMBUF *aMsg)
1021:src/comm.c    **** {
1022:src/comm.c    ****   BOOLEAN ret=TRUE;
1023:src/comm.c    **** 
1024:src/comm.c    ****   if (WriteMW(gDevHandle[APM_SDEV_MDM], aMsg->sbContent, aMsg->wLen) != aMsg->wLen) {
1025:src/comm.c    ****     ret = FALSE;
1026:src/comm.c    ****   }
1027:src/comm.c    ****   return ret;
1028:src/comm.c    **** }
1029:src/comm.c    **** //*****************************************************************************
1030:src/comm.c    **** //  Function        : RcvdMdmLine
1031:src/comm.c    **** //  Description     : Receive Data from Modem Line.
1032:src/comm.c    **** //  Input           : aDat;         // pointer to receive buffer
1033:src/comm.c    **** //                    aMaxLen;      // max receive len;
1034:src/comm.c    **** //  Return          : actual len received.
1035:src/comm.c    **** //  Note            : N/A
1036:src/comm.c    **** //  Globals Changed : N/A
1037:src/comm.c    **** //*****************************************************************************
1038:src/comm.c    **** static WORD RcvdMdmLine(BYTE *aDat, WORD aMaxLen)
1039:src/comm.c    **** {
ARM GAS  C:\Users\AHMED~1.ELE\AppData\Local\Temp\ccosOURr.s 			page 29


1040:src/comm.c    ****   WORD len, cur;
1041:src/comm.c    **** 
1042:src/comm.c    ****   len = cur = 0;
1043:src/comm.c    ****   do {
1044:src/comm.c    ****     cur = ReadMW(gDevHandle[APM_SDEV_MDM], aDat+len, aMaxLen-len);
1045:src/comm.c    ****     if (cur) {
1046:src/comm.c    ****       len += cur;
1047:src/comm.c    ****       if (len >= aMaxLen)
1048:src/comm.c    ****         break;
1049:src/comm.c    ****       Delay10ms(5);
1050:src/comm.c    ****     }
1051:src/comm.c    ****   } while (cur>0);
1052:src/comm.c    **** 
1053:src/comm.c    ****   return len;
1054:src/comm.c    **** }
1055:src/comm.c    **** //*****************************************************************************
1056:src/comm.c    **** //  Function        : FlushMdmLine
1057:src/comm.c    **** //  Description     : Flush incomming Modem Line.
1058:src/comm.c    **** //  Input           : N/A
1059:src/comm.c    **** //  Return          : N/A
1060:src/comm.c    **** //  Note            : N/A
1061:src/comm.c    **** //  Globals Changed : N/A
1062:src/comm.c    **** //*****************************************************************************
1063:src/comm.c    **** static void FlushMdmLine(void)
1064:src/comm.c    **** {
 506              		.loc 1 1064 0
 507              		.cfi_startproc
 508              		@ args = 0, pretend = 0, frame = 1600
 509              		@ frame_needed = 0, uses_anonymous_args = 0
1065:src/comm.c    ****   BYTE tmp[1600];
1066:src/comm.c    **** 
1067:src/comm.c    ****   if (gDevHandle[APM_SDEV_MDM] < 0)
 510              		.loc 1 1067 0
 511 0000 0D4B     		ldr	r3, .L58
1064:src/comm.c    ****   BYTE tmp[1600];
 512              		.loc 1 1064 0
 513 0002 10B5     		push	{r4, lr}
 514              		.cfi_def_cfa_offset 8
 515              		.cfi_offset 4, -8
 516              		.cfi_offset 14, -4
 517 0004 ADF5C96D 		sub	sp, sp, #1608
 518              		.cfi_def_cfa_offset 1616
 519              		.loc 1 1067 0
 520 0008 5A69     		ldr	r2, [r3, #20]
 521 000a 1C46     		mov	r4, r3
 522 000c 002A     		cmp	r2, #0
 523 000e 0FDB     		blt	.L53
 524              	.L55:
1068:src/comm.c    ****     return;
1069:src/comm.c    **** 
1070:src/comm.c    ****   while (ReadMW(gDevHandle[APM_SDEV_MDM], tmp, sizeof(tmp)) > 0) {
 525              		.loc 1 1070 0
 526 0010 4FF4C863 		mov	r3, #1600
 527 0014 0F20     		movs	r0, #15
 528 0016 0093     		str	r3, [sp]
 529 0018 0421     		movs	r1, #4
 530 001a 6269     		ldr	r2, [r4, #20]
ARM GAS  C:\Users\AHMED~1.ELE\AppData\Local\Temp\ccosOURr.s 			page 30


 531 001c 02AB     		add	r3, sp, #8
 532 001e FFF7FEFF 		bl	lib_app_call
 533              	.LVL52:
 534 0022 0028     		cmp	r0, #0
 535 0024 04DD     		ble	.L53
1071:src/comm.c    ****     SleepMW();
 536              		.loc 1 1071 0
 537 0026 4FF4CE70 		mov	r0, #412
 538 002a FFF7FEFF 		bl	sys_func0
 539              	.LVL53:
 540 002e EFE7     		b	.L55
 541              	.L53:
1072:src/comm.c    ****   }
1073:src/comm.c    **** }
 542              		.loc 1 1073 0
 543 0030 0DF5C96D 		add	sp, sp, #1608
 544              		.cfi_def_cfa_offset 8
 545              		@ sp needed
 546 0034 10BD     		pop	{r4, pc}
 547              	.L59:
 548 0036 00BF     		.align	2
 549              	.L58:
 550 0038 00000000 		.word	gDevHandle
 551              		.cfi_endproc
 552              	.LFE23:
 553              		.size	FlushMdmLine, .-FlushMdmLine
 554              		.section	.text.WaitPPPReady,"ax",%progbits
 555              		.align	1
 556              		.thumb
 557              		.thumb_func
 558              		.type	WaitPPPReady, %function
 559              	WaitPPPReady:
 560              	.LFB3:
 298:src/comm.c    ****   DWORD ret, ppp_phase;
 561              		.loc 1 298 0
 562              		.cfi_startproc
 563              		@ args = 0, pretend = 0, frame = 0
 564              		@ frame_needed = 0, uses_anonymous_args = 0
 565              	.LVL54:
 566 0000 2DE9F347 		push	{r0, r1, r4, r5, r6, r7, r8, r9, r10, lr}
 567              		.cfi_def_cfa_offset 40
 568              		.cfi_offset 4, -32
 569              		.cfi_offset 5, -28
 570              		.cfi_offset 6, -24
 571              		.cfi_offset 7, -20
 572              		.cfi_offset 8, -16
 573              		.cfi_offset 9, -12
 574              		.cfi_offset 10, -8
 575              		.cfi_offset 14, -4
 302:src/comm.c    ****   if (ppp_phase==MW_PPP_PHASE_READY)
 576              		.loc 1 302 0
 577 0004 0023     		movs	r3, #0
 578 0006 2E4D     		ldr	r5, .L78
 579 0008 0093     		str	r3, [sp]
 298:src/comm.c    ****   DWORD ret, ppp_phase;
 580              		.loc 1 298 0
 581 000a 0646     		mov	r6, r0
ARM GAS  C:\Users\AHMED~1.ELE\AppData\Local\Temp\ccosOURr.s 			page 31


 302:src/comm.c    ****   if (ppp_phase==MW_PPP_PHASE_READY)
 582              		.loc 1 302 0
 583 000c 0721     		movs	r1, #7
 584 000e 0F20     		movs	r0, #15
 585              	.LVL55:
 586 0010 EA68     		ldr	r2, [r5, #12]
 587 0012 0523     		movs	r3, #5
 588 0014 FFF7FEFF 		bl	lib_app_call
 589              	.LVL56:
 303:src/comm.c    ****     return COMM_OK;
 590              		.loc 1 303 0
 591 0018 0528     		cmp	r0, #5
 592 001a 02D1     		bne	.L61
 593              	.LVL57:
 594              	.L66:
 304:src/comm.c    **** 
 595              		.loc 1 304 0
 596 001c 43F23000 		movw	r0, #12336
 597 0020 4AE0     		b	.L62
 598              	.LVL58:
 599              	.L61:
 307:src/comm.c    ****       (ppp_phase != MW_PPP_PHASE_DEAD) &&
 600              		.loc 1 307 0
 601 0022 431E     		subs	r3, r0, #1
 602 0024 0333     		adds	r3, r3, #3
 603 0026 02D9     		bls	.L63
 604              	.LVL59:
 605              	.L64:
 306:src/comm.c    ****   if ((ppp_phase != MW_PPP_PHASE_IDLE) &&
 606              		.loc 1 306 0
 607 0028 45F24F40 		movw	r0, #21583
 608 002c 44E0     		b	.L62
 609              	.LVL60:
 610              	.L63:
 308:src/comm.c    ****       (ppp_phase != MW_PPP_PHASE_TERMINATE) ) {
 611              		.loc 1 308 0
 612 002e 0428     		cmp	r0, #4
 613 0030 FAD0     		beq	.L64
 614              	.LVL61:
 311:src/comm.c    ****     do {
 615              		.loc 1 311 0
 616 0032 244C     		ldr	r4, .L78+4
 617 0034 6422     		movs	r2, #100
 618 0036 0C20     		movs	r0, #12
 619              	.LVL62:
 620 0038 A168     		ldr	r1, [r4, #8]
 621 003a 7243     		muls	r2, r6, r2
 622              	.LVL63:
 623 003c FFF7FEFF 		bl	sys_func2
 624              	.LVL64:
 625              	.L67:
 313:src/comm.c    ****       DispLineMW(KPPPStatusMsg[ppp_phase], MW_LINE3, MW_CENTER|MW_SPFONT);
 626              		.loc 1 313 0
 627 0040 4FF00009 		mov	r9, #0
 628 0044 0721     		movs	r1, #7
 629 0046 EA68     		ldr	r2, [r5, #12]
 630 0048 0523     		movs	r3, #5
ARM GAS  C:\Users\AHMED~1.ELE\AppData\Local\Temp\ccosOURr.s 			page 32


 631 004a CDF80090 		str	r9, [sp]
 632 004e 0F20     		movs	r0, #15
 633 0050 FFF7FEFF 		bl	lib_app_call
 634              	.LVL65:
 635              	.LBB13:
 314:src/comm.c    ****       if (ppp_phase==MW_PPP_PHASE_READY) {
 636              		.loc 1 314 0
 637 0054 1C4B     		ldr	r3, .L78+8
 638 0056 03EB8003 		add	r3, r3, r0, lsl #2
 639              	.LBE13:
 313:src/comm.c    ****       DispLineMW(KPPPStatusMsg[ppp_phase], MW_LINE3, MW_CENTER|MW_SPFONT);
 640              		.loc 1 313 0
 641 005a 8046     		mov	r8, r0
 642              	.LVL66:
 643              	.LBB14:
 314:src/comm.c    ****       if (ppp_phase==MW_PPP_PHASE_READY) {
 644              		.loc 1 314 0
 645 005c D3F814A0 		ldr	r10, [r3, #20]
 646 0060 5046     		mov	r0, r10
 647              	.LVL67:
 648 0062 FFF7FEFF 		bl	strlen
 649              	.LVL68:
 650 0066 0746     		mov	r7, r0
 651              	.LVL69:
 652 0068 791C     		adds	r1, r7, #1
 653 006a 9220     		movs	r0, #146
 654              	.LVL70:
 655 006c FFF7FEFF 		bl	sys_func1
 656              	.LVL71:
 657 0070 0646     		mov	r6, r0
 658 0072 98B1     		cbz	r0, .L65
 314:src/comm.c    ****       if (ppp_phase==MW_PPP_PHASE_READY) {
 659              		.loc 1 314 0 is_stmt 0 discriminator 1
 660 0074 5146     		mov	r1, r10
 661 0076 3A46     		mov	r2, r7
 662 0078 FFF7FEFF 		bl	memcpy
 663              	.LVL72:
 664 007c 42F20203 		movw	r3, #8194
 665 0080 06F80790 		strb	r9, [r6, r7]
 666 0084 2521     		movs	r1, #37
 667 0086 0093     		str	r3, [sp]
 668 0088 0F20     		movs	r0, #15
 669 008a 3246     		mov	r2, r6
 670 008c 4FF44073 		mov	r3, #768
 671 0090 FFF7FEFF 		bl	lib_app_call
 672              	.LVL73:
 673 0094 9420     		movs	r0, #148
 674 0096 3146     		mov	r1, r6
 675 0098 FFF7FEFF 		bl	sys_func1
 676              	.LVL74:
 677              	.L65:
 678              	.LBE14:
 315:src/comm.c    ****         ret = COMM_OK;
 679              		.loc 1 315 0 is_stmt 1
 680 009c B8F1050F 		cmp	r8, #5
 681 00a0 BCD0     		beq	.L66
 319:src/comm.c    ****     } while (TimerGetMW(gTimerHdl[TIMER_COMM]) > 0);
ARM GAS  C:\Users\AHMED~1.ELE\AppData\Local\Temp\ccosOURr.s 			page 33


 682              		.loc 1 319 0
 683 00a2 4FF4CE70 		mov	r0, #412
 684 00a6 FFF7FEFF 		bl	sys_func0
 685              	.LVL75:
 320:src/comm.c    ****   }
 686              		.loc 1 320 0
 687 00aa 0D20     		movs	r0, #13
 688 00ac A168     		ldr	r1, [r4, #8]
 689 00ae FFF7FEFF 		bl	sys_func1
 690              	.LVL76:
 691 00b2 0028     		cmp	r0, #0
 692 00b4 C4D1     		bne	.L67
 693 00b6 B7E7     		b	.L64
 694              	.LVL77:
 695              	.L62:
 323:src/comm.c    **** //*****************************************************************************
 696              		.loc 1 323 0
 697 00b8 02B0     		add	sp, sp, #8
 698              		.cfi_def_cfa_offset 32
 699              		@ sp needed
 700 00ba BDE8F087 		pop	{r4, r5, r6, r7, r8, r9, r10, pc}
 701              	.L79:
 702 00be 00BF     		.align	2
 703              	.L78:
 704 00c0 00000000 		.word	gDevHandle
 705 00c4 00000000 		.word	gTimerHdl
 706 00c8 00000000 		.word	.LANCHOR0
 707              		.cfi_endproc
 708              	.LFE3:
 709              		.size	WaitPPPReady, .-WaitPPPReady
 710              		.section	.text.ConnectAux.isra.0,"ax",%progbits
 711              		.align	1
 712              		.thumb
 713              		.thumb_func
 714              		.type	ConnectAux.isra.0, %function
 715              	ConnectAux.isra.0:
 716              	.LFB36:
 463:src/comm.c    **** {
 717              		.loc 1 463 0
 718              		.cfi_startproc
 719              		@ args = 0, pretend = 0, frame = 48
 720              		@ frame_needed = 0, uses_anonymous_args = 0
 721              	.LVL78:
 470:src/comm.c    ****     switch (gCommParam.sAux.bPort) {
 722              		.loc 1 470 0
 723 0000 1B4B     		ldr	r3, .L89
 463:src/comm.c    **** {
 724              		.loc 1 463 0
 725 0002 70B5     		push	{r4, r5, r6, lr}
 726              		.cfi_def_cfa_offset 16
 727              		.cfi_offset 4, -16
 728              		.cfi_offset 5, -12
 729              		.cfi_offset 6, -8
 730              		.cfi_offset 14, -4
 470:src/comm.c    ****     switch (gCommParam.sAux.bPort) {
 731              		.loc 1 470 0
 732 0004 1B4C     		ldr	r4, .L89+4
ARM GAS  C:\Users\AHMED~1.ELE\AppData\Local\Temp\ccosOURr.s 			page 34


 733 0006 93F87D60 		ldrb	r6, [r3, #125]	@ zero_extendqisi2
 463:src/comm.c    **** {
 734              		.loc 1 463 0
 735 000a 8EB0     		sub	sp, sp, #56
 736              		.cfi_def_cfa_offset 72
 470:src/comm.c    ****     switch (gCommParam.sAux.bPort) {
 737              		.loc 1 470 0
 738 000c 54F82620 		ldr	r2, [r4, r6, lsl #2]
 739 0010 1D46     		mov	r5, r3
 740 0012 002A     		cmp	r2, #0
 741 0014 28DA     		bge	.L81
 471:src/comm.c    ****       case APM_AUX2:
 742              		.loc 1 471 0
 743 0016 012E     		cmp	r6, #1
 474:src/comm.c    ****         break;
 744              		.loc 1 474 0
 745 0018 06A8     		add	r0, sp, #24
 746 001a 0CBF     		ite	eq
 747 001c 1649     		ldreq	r1, .L89+8
 478:src/comm.c    ****         break;
 748              		.loc 1 478 0
 749 001e 1749     		ldrne	r1, .L89+12
 750 0020 FFF7FEFF 		bl	strcpy
 751              	.LVL79:
 481:src/comm.c    ****     if (gAuxHdl[gCommParam.sAux.bPort] >= 0) {
 752              		.loc 1 481 0
 753 0024 0023     		movs	r3, #0
 754 0026 0F20     		movs	r0, #15
 755 0028 0093     		str	r3, [sp]
 756 002a 0221     		movs	r1, #2
 757 002c 0623     		movs	r3, #6
 758 002e 06AA     		add	r2, sp, #24
 759 0030 FFF7FEFF 		bl	lib_app_call
 760              	.LVL80:
 482:src/comm.c    ****       // prepare for parameter passing between Appl.
 761              		.loc 1 482 0
 762 0034 95F87D30 		ldrb	r3, [r5, #125]	@ zero_extendqisi2
 481:src/comm.c    ****     if (gAuxHdl[gCommParam.sAux.bPort] >= 0) {
 763              		.loc 1 481 0
 764 0038 44F82600 		str	r0, [r4, r6, lsl #2]
 482:src/comm.c    ****       // prepare for parameter passing between Appl.
 765              		.loc 1 482 0
 766 003c 54F82340 		ldr	r4, [r4, r3, lsl #2]
 767 0040 002C     		cmp	r4, #0
 768 0042 11DB     		blt	.L81
 484:src/comm.c    ****       if (IOCtlMW(gAuxHdl[gCommParam.sAux.bPort], IO_AUX_CFG, &aux_param.sAuxCfg) >= 0)
 769              		.loc 1 484 0
 770 0044 0E4A     		ldr	r2, .L89+16
 771 0046 03AB     		add	r3, sp, #12
 772 0048 07CA     		ldmia	r2, {r0, r1, r2}
 773 004a 83E80700 		stmia	r3, {r0, r1, r2}
 485:src/comm.c    ****         ret = TRUE;
 774              		.loc 1 485 0
 775 004e 0433     		adds	r3, r3, #4
 776 0050 0F20     		movs	r0, #15
 777 0052 0093     		str	r3, [sp]
 778 0054 0721     		movs	r1, #7
ARM GAS  C:\Users\AHMED~1.ELE\AppData\Local\Temp\ccosOURr.s 			page 35


 779 0056 2246     		mov	r2, r4
 780 0058 0123     		movs	r3, #1
 781 005a FFF7FEFF 		bl	lib_app_call
 782              	.LVL81:
 783 005e 0028     		cmp	r0, #0
 784 0060 02DB     		blt	.L81
 490:src/comm.c    **** 
 785              		.loc 1 490 0
 786 0062 43F23000 		movw	r0, #12336
 787 0066 01E0     		b	.L87
 788              	.L81:
 492:src/comm.c    **** }
 789              		.loc 1 492 0
 790 0068 44F64360 		movw	r0, #20035
 791              	.L87:
 493:src/comm.c    **** //*****************************************************************************
 792              		.loc 1 493 0
 793 006c 0EB0     		add	sp, sp, #56
 794              		.cfi_def_cfa_offset 16
 795              		@ sp needed
 796 006e 70BD     		pop	{r4, r5, r6, pc}
 797              	.L90:
 798              		.align	2
 799              	.L89:
 800 0070 00000000 		.word	gCommParam
 801 0074 00000000 		.word	gAuxHdl
 802 0078 48000000 		.word	.LC7
 803 007c 52000000 		.word	.LC8
 804 0080 7C000000 		.word	gCommParam+124
 805              		.cfi_endproc
 806              	.LFE36:
 807              		.size	ConnectAux.isra.0, .-ConnectAux.isra.0
 808              		.global	__aeabi_uidiv
 809              		.section	.text.ConnectMdmLine.part.1,"ax",%progbits
 810              		.align	1
 811              		.thumb
 812              		.thumb_func
 813              		.type	ConnectMdmLine.part.1, %function
 814              	ConnectMdmLine.part.1:
 815              	.LFB37:
 931:src/comm.c    **** {
 816              		.loc 1 931 0
 817              		.cfi_startproc
 818              		@ args = 0, pretend = 0, frame = 584
 819              		@ frame_needed = 0, uses_anonymous_args = 0
 820              	.LVL82:
 956:src/comm.c    ****                  (gCommParam.sMdm.sMdmCfg.b_sconn_limit * gCommParam.sMdm.sMdmCfg.b_sconn_tval) +
 821              		.loc 1 956 0
 822 0000 504B     		ldr	r3, .L129
 931:src/comm.c    **** {
 823              		.loc 1 931 0
 824 0002 2DE9F04F 		push	{r4, r5, r6, r7, r8, r9, r10, fp, lr}
 825              		.cfi_def_cfa_offset 36
 826              		.cfi_offset 4, -36
 827              		.cfi_offset 5, -32
 828              		.cfi_offset 6, -28
 829              		.cfi_offset 7, -24
ARM GAS  C:\Users\AHMED~1.ELE\AppData\Local\Temp\ccosOURr.s 			page 36


 830              		.cfi_offset 8, -20
 831              		.cfi_offset 9, -16
 832              		.cfi_offset 10, -12
 833              		.cfi_offset 11, -8
 834              		.cfi_offset 14, -4
 835 0006 0E46     		mov	r6, r1
 957:src/comm.c    ****                  (gCommParam.sMdm.sMdmCfg.b_redial_pause_tval/10 * (gCommParam.sMdm.sMdmCfg.b_pconn
 836              		.loc 1 957 0
 837 0008 93F85A40 		ldrb	r4, [r3, #90]	@ zero_extendqisi2
 838 000c 93F85950 		ldrb	r5, [r3, #89]	@ zero_extendqisi2
 956:src/comm.c    ****                  (gCommParam.sMdm.sMdmCfg.b_sconn_limit * gCommParam.sMdm.sMdmCfg.b_sconn_tval) +
 839              		.loc 1 956 0
 840 0010 93F83410 		ldrb	r1, [r3, #52]	@ zero_extendqisi2
 841              	.LVL83:
 842 0014 93F83580 		ldrb	r8, [r3, #53]	@ zero_extendqisi2
 957:src/comm.c    ****                  (gCommParam.sMdm.sMdmCfg.b_redial_pause_tval/10 * (gCommParam.sMdm.sMdmCfg.b_pconn
 843              		.loc 1 957 0
 844 0018 15FB04F5 		smulbb	r5, r5, r4
 931:src/comm.c    **** {
 845              		.loc 1 931 0
 846 001c ADF5157D 		sub	sp, sp, #596
 847              		.cfi_def_cfa_offset 632
 956:src/comm.c    ****                  (gCommParam.sMdm.sMdmCfg.b_sconn_limit * gCommParam.sMdm.sMdmCfg.b_sconn_tval) +
 848              		.loc 1 956 0
 849 0020 01FB0855 		mla	r5, r1, r8, r5
 931:src/comm.c    **** {
 850              		.loc 1 931 0
 851 0024 0746     		mov	r7, r0
 958:src/comm.c    ****   host_timeout *= TIMER_1SEC;
 852              		.loc 1 958 0
 853 0026 0A21     		movs	r1, #10
 854 0028 187C     		ldrb	r0, [r3, #16]	@ zero_extendqisi2
 855              	.LVL84:
 856 002a FFF7FEFF 		bl	__aeabi_uidiv
 857              	.LVL85:
 858 002e 4444     		add	r4, r4, r8
 961:src/comm.c    **** 
 859              		.loc 1 961 0
 860 0030 6422     		movs	r2, #100
 958:src/comm.c    ****   host_timeout *= TIMER_1SEC;
 861              		.loc 1 958 0
 862 0032 C0B2     		uxtb	r0, r0
 957:src/comm.c    ****                  (gCommParam.sMdm.sMdmCfg.b_redial_pause_tval/10 * (gCommParam.sMdm.sMdmCfg.b_pconn
 863              		.loc 1 957 0
 864 0034 04FB0054 		mla	r4, r4, r0, r5
 865              	.LVL86:
 961:src/comm.c    **** 
 866              		.loc 1 961 0
 867 0038 434D     		ldr	r5, .L129+4
 868 003a 0C20     		movs	r0, #12
 869 003c A968     		ldr	r1, [r5, #8]
 870 003e 6243     		muls	r2, r4, r2
 871              	.LVL87:
 872 0040 FFF7FEFF 		bl	sys_func2
 873              	.LVL88:
 874              	.L99:
 964:src/comm.c    ****     SleepMW();
ARM GAS  C:\Users\AHMED~1.ELE\AppData\Local\Temp\ccosOURr.s 			page 37


 875              		.loc 1 964 0
 876 0044 0D20     		movs	r0, #13
 877 0046 A968     		ldr	r1, [r5, #8]
 878 0048 FFF7FEFF 		bl	sys_func1
 879              	.LVL89:
 880 004c 0028     		cmp	r0, #0
 881 004e 70D0     		beq	.L96
 965:src/comm.c    **** 
 882              		.loc 1 965 0
 883 0050 4FF4CE70 		mov	r0, #412
 884 0054 FFF7FEFF 		bl	sys_func0
 885              	.LVL90:
 968:src/comm.c    ****       if (GetCharMW() == MWKEY_CANCL)
 886              		.loc 1 968 0
 887 0058 7EB1     		cbz	r6, .L93
 888              	.L97:
 974:src/comm.c    ****     if (aWaitReady) {           //15-03-13 JC ++
 889              		.loc 1 974 0
 890 005a 4FF0000B 		mov	fp, #0
 891 005e DFF8F0A0 		ldr	r10, .L129+12
 892 0062 CDF800B0 		str	fp, [sp]
 893 0066 0F20     		movs	r0, #15
 894 0068 0821     		movs	r1, #8
 895 006a DAF81420 		ldr	r2, [r10, #20]
 896 006e 5B46     		mov	r3, fp
 897 0070 FFF7FEFF 		bl	lib_app_call
 898              	.LVL91:
 899 0074 0446     		mov	r4, r0
 900              	.LVL92:
 975:src/comm.c    ****       sprintf(tmp, "Status: %08X", status);
 901              		.loc 1 975 0
 902 0076 77B3     		cbz	r7, .L98
 903 0078 09E0     		b	.L128
 904              	.LVL93:
 905              	.L93:
 969:src/comm.c    ****         break;
 906              		.loc 1 969 0
 907 007a 0096     		str	r6, [sp]
 908 007c 0F20     		movs	r0, #15
 909 007e 1621     		movs	r1, #22
 910 0080 3246     		mov	r2, r6
 911 0082 3346     		mov	r3, r6
 912 0084 FFF7FEFF 		bl	lib_app_call
 913              	.LVL94:
 914 0088 1128     		cmp	r0, #17
 915 008a E6D1     		bne	.L97
 916 008c 51E0     		b	.L96
 917              	.LVL95:
 918              	.L128:
 976:src/comm.c    ****       DispLineMW(tmp, MW_LINE8, MW_REVERSE|MW_CENTER|MW_SPFONT);
 919              		.loc 1 976 0
 920 008e 2F49     		ldr	r1, .L129+8
 921 0090 2246     		mov	r2, r4
 922 0092 02A8     		add	r0, sp, #8
 923              	.LVL96:
 924 0094 FFF7FEFF 		bl	sprintf
 925              	.LVL97:
ARM GAS  C:\Users\AHMED~1.ELE\AppData\Local\Temp\ccosOURr.s 			page 38


 926              	.LBB15:
 977:src/comm.c    ****     }
 927              		.loc 1 977 0
 928 0098 02A8     		add	r0, sp, #8
 929 009a FFF7FEFF 		bl	strlen
 930              	.LVL98:
 931 009e 8146     		mov	r9, r0
 932              	.LVL99:
 933 00a0 09F10101 		add	r1, r9, #1
 934 00a4 9220     		movs	r0, #146
 935              	.LVL100:
 936 00a6 FFF7FEFF 		bl	sys_func1
 937              	.LVL101:
 938 00aa 8046     		mov	r8, r0
 939 00ac 98B1     		cbz	r0, .L98
 940 00ae 02A9     		add	r1, sp, #8
 941 00b0 4A46     		mov	r2, r9
 942 00b2 FFF7FEFF 		bl	memcpy
 943              	.LVL102:
 944 00b6 42F21203 		movw	r3, #8210
 945 00ba 08F809B0 		strb	fp, [r8, r9]
 946 00be 2521     		movs	r1, #37
 947 00c0 0093     		str	r3, [sp]
 948 00c2 0F20     		movs	r0, #15
 949 00c4 4246     		mov	r2, r8
 950 00c6 4FF40063 		mov	r3, #2048
 951 00ca FFF7FEFF 		bl	lib_app_call
 952              	.LVL103:
 953 00ce 9420     		movs	r0, #148
 954 00d0 4146     		mov	r1, r8
 955 00d2 FFF7FEFF 		bl	sys_func1
 956              	.LVL104:
 957              	.L98:
 958              	.LBE15:
 980:src/comm.c    ****       continue;
 959              		.loc 1 980 0
 960 00d6 14F4C02F 		tst	r4, #393216
 961 00da B3D1     		bne	.L99
 983:src/comm.c    ****     //26-11-14 JC ++
 962              		.loc 1 983 0
 963 00dc E3B2     		uxtb	r3, r4
 964              	.LVL105:
 985:src/comm.c    ****       ret_val = GetMdmLineStatusRsp(status);
 965              		.loc 1 985 0
 966 00de 7F2B     		cmp	r3, #127
 967 00e0 02D8     		bhi	.L100
 968 00e2 14F47F4F 		tst	r4, #65280
 969 00e6 0ED0     		beq	.L101
 970              	.L100:
 971 00e8 A207     		lsls	r2, r4, #30
 972 00ea 0CD5     		bpl	.L101
 986:src/comm.c    ****       LongBeep();
 973              		.loc 1 986 0
 974 00ec 2046     		mov	r0, r4
 975 00ee FFF7FEFF 		bl	GetMdmLineStatusRsp
 976              	.LVL106:
 977 00f2 0446     		mov	r4, r0
ARM GAS  C:\Users\AHMED~1.ELE\AppData\Local\Temp\ccosOURr.s 			page 39


 978              	.LVL107:
 987:src/comm.c    ****       break;
 979              		.loc 1 987 0
 980 00f4 FFF7FEFF 		bl	LongBeep
 981              	.LVL108:
1006:src/comm.c    ****     ResetMdmLine();
 982              		.loc 1 1006 0
 983 00f8 43F23003 		movw	r3, #12336
 984 00fc 9C42     		cmp	r4, r3
 985 00fe 1AD1     		bne	.L102
 986              	.LVL109:
 987              	.L105:
 980:src/comm.c    ****       continue;
 988              		.loc 1 980 0
 989 0100 43F23000 		movw	r0, #12336
 990 0104 1AE0     		b	.L127
 991              	.LVL110:
 992              	.L101:
 993:src/comm.c    ****       memcpy(&comm_param, &gCommParam, sizeof(comm_param));
 993              		.loc 1 993 0
 994 0106 8BB9     		cbnz	r3, .L104
 994:src/comm.c    ****       IOCtlMW(gDevHandle[APM_SDEV_MDM], IO_MDM_CONNECT, &comm_param.sMdm.sMdmCfg);
 995              		.loc 1 994 0
 996 0108 0E49     		ldr	r1, .L129
 997 010a 4FF40B72 		mov	r2, #556
 998 010e 09A8     		add	r0, sp, #36
 999 0110 FFF7FEFF 		bl	memcpy
 1000              	.LVL111:
 995:src/comm.c    ****       if (!aWaitReady)          //15-03-13 JC ++
 1001              		.loc 1 995 0
 1002 0114 0CAB     		add	r3, sp, #48
 1003 0116 0F20     		movs	r0, #15
 1004 0118 0093     		str	r3, [sp]
 1005 011a 0721     		movs	r1, #7
 1006 011c DAF81420 		ldr	r2, [r10, #20]
 1007 0120 0123     		movs	r3, #1
 1008 0122 FFF7FEFF 		bl	lib_app_call
 1009              	.LVL112:
 996:src/comm.c    ****         return COMM_OK;
 1010              		.loc 1 996 0
 1011 0126 002F     		cmp	r7, #0
 1012 0128 8CD1     		bne	.L99
 1013 012a E9E7     		b	.L105
 1014              	.LVL113:
 1015              	.L104:
1000:src/comm.c    ****       ret_val = COMM_OK;
 1016              		.loc 1 1000 0
 1017 012c 052B     		cmp	r3, #5
 1018 012e 89D1     		bne	.L99
 1019 0130 E6E7     		b	.L105
 1020              	.LVL114:
 1021              	.L96:
 980:src/comm.c    ****       continue;
 1022              		.loc 1 980 0
 1023 0132 44F64364 		movw	r4, #20035
 1024              	.LVL115:
 1025              	.L102:
ARM GAS  C:\Users\AHMED~1.ELE\AppData\Local\Temp\ccosOURr.s 			page 40


1007:src/comm.c    ****   }
 1026              		.loc 1 1007 0
 1027 0136 FFF7FEFF 		bl	ResetMdmLine
 1028              	.LVL116:
 1029 013a 2046     		mov	r0, r4
 1030              	.LVL117:
 1031              	.L127:
1011:src/comm.c    **** //*****************************************************************************
 1032              		.loc 1 1011 0
 1033 013c 0DF5157D 		add	sp, sp, #596
 1034              		.cfi_def_cfa_offset 36
 1035              		@ sp needed
 1036 0140 BDE8F08F 		pop	{r4, r5, r6, r7, r8, r9, r10, fp, pc}
 1037              	.L130:
 1038              		.align	2
 1039              	.L129:
 1040 0144 00000000 		.word	gCommParam
 1041 0148 00000000 		.word	gTimerHdl
 1042 014c 5C000000 		.word	.LC9
 1043 0150 00000000 		.word	gDevHandle
 1044              		.cfi_endproc
 1045              	.LFE37:
 1046              		.size	ConnectMdmLine.part.1, .-ConnectMdmLine.part.1
 1047              		.section	.text.ConnectMdmLine,"ax",%progbits
 1048              		.align	1
 1049              		.thumb
 1050              		.thumb_func
 1051              		.type	ConnectMdmLine, %function
 1052              	ConnectMdmLine:
 1053              	.LFB20:
 932:src/comm.c    ****   DWORD host_timeout, status, dial_status;
 1054              		.loc 1 932 0
 1055              		.cfi_startproc
 1056              		@ args = 0, pretend = 0, frame = 32
 1057              		@ frame_needed = 0, uses_anonymous_args = 0
 1058              	.LVL118:
 1059 0000 70B5     		push	{r4, r5, r6, lr}
 1060              		.cfi_def_cfa_offset 16
 1061              		.cfi_offset 4, -16
 1062              		.cfi_offset 5, -12
 1063              		.cfi_offset 6, -8
 1064              		.cfi_offset 14, -4
 939:src/comm.c    ****     // open
 1065              		.loc 1 939 0
 1066 0002 104C     		ldr	r4, .L135
 932:src/comm.c    ****   DWORD host_timeout, status, dial_status;
 1067              		.loc 1 932 0
 1068 0004 8AB0     		sub	sp, sp, #40
 1069              		.cfi_def_cfa_offset 56
 939:src/comm.c    ****     // open
 1070              		.loc 1 939 0
 1071 0006 6369     		ldr	r3, [r4, #20]
 932:src/comm.c    ****   DWORD host_timeout, status, dial_status;
 1072              		.loc 1 932 0
 1073 0008 0646     		mov	r6, r0
 939:src/comm.c    ****     // open
 1074              		.loc 1 939 0
ARM GAS  C:\Users\AHMED~1.ELE\AppData\Local\Temp\ccosOURr.s 			page 41


 1075 000a 002B     		cmp	r3, #0
 932:src/comm.c    ****   DWORD host_timeout, status, dial_status;
 1076              		.loc 1 932 0
 1077 000c 0D46     		mov	r5, r1
 939:src/comm.c    ****     // open
 1078              		.loc 1 939 0
 1079 000e 0CDA     		bge	.L132
 941:src/comm.c    ****     gDevHandle[APM_SDEV_MDM] = OpenMW(filename, MW_RDWR);
 1080              		.loc 1 941 0
 1081 0010 0D49     		ldr	r1, .L135+4
 1082              	.LVL119:
 1083 0012 02A8     		add	r0, sp, #8
 1084              	.LVL120:
 1085 0014 FFF7FEFF 		bl	strcpy
 1086              	.LVL121:
 942:src/comm.c    ****   }
 1087              		.loc 1 942 0
 1088 0018 0023     		movs	r3, #0
 1089 001a 0F20     		movs	r0, #15
 1090 001c 0093     		str	r3, [sp]
 1091 001e 0221     		movs	r1, #2
 1092 0020 02AA     		add	r2, sp, #8
 1093 0022 0623     		movs	r3, #6
 1094 0024 FFF7FEFF 		bl	lib_app_call
 1095              	.LVL122:
 1096 0028 6061     		str	r0, [r4, #20]
 1097              	.L132:
 945:src/comm.c    ****     return COMM_NOT_CONNECT;
 1098              		.loc 1 945 0
 1099 002a 6369     		ldr	r3, [r4, #20]
 1100 002c 002B     		cmp	r3, #0
 1101 002e 04DB     		blt	.L134
 1102 0030 3046     		mov	r0, r6
 1103 0032 2946     		mov	r1, r5
 1104 0034 FFF7FEFF 		bl	ConnectMdmLine.part.1
 1105              	.LVL123:
 1106 0038 01E0     		b	.L133
 1107              	.L134:
 946:src/comm.c    ****   }
 1108              		.loc 1 946 0
 1109 003a 44F64360 		movw	r0, #20035
 1110              	.L133:
1011:src/comm.c    **** //*****************************************************************************
 1111              		.loc 1 1011 0
 1112 003e 0AB0     		add	sp, sp, #40
 1113              		.cfi_def_cfa_offset 16
 1114              		@ sp needed
 1115 0040 70BD     		pop	{r4, r5, r6, pc}
 1116              	.L136:
 1117 0042 00BF     		.align	2
 1118              	.L135:
 1119 0044 00000000 		.word	gDevHandle
 1120 0048 69000000 		.word	.LC10
 1121              		.cfi_endproc
 1122              	.LFE20:
 1123              		.size	ConnectMdmLine, .-ConnectMdmLine
 1124              		.section	.text.CommInit,"ax",%progbits
ARM GAS  C:\Users\AHMED~1.ELE\AppData\Local\Temp\ccosOURr.s 			page 42


 1125              		.align	1
 1126              		.global	CommInit
 1127              		.thumb
 1128              		.thumb_func
 1129              		.type	CommInit, %function
 1130              	CommInit:
 1131              	.LFB1:
 248:src/comm.c    ****   int i;
 1132              		.loc 1 248 0
 1133              		.cfi_startproc
 1134              		@ args = 0, pretend = 0, frame = 0
 1135              		@ frame_needed = 0, uses_anonymous_args = 0
 1136 0000 08B5     		push	{r3, lr}
 1137              		.cfi_def_cfa_offset 8
 1138              		.cfi_offset 3, -8
 1139              		.cfi_offset 14, -4
 250:src/comm.c    ****   memset(&gCommParam, 0, sizeof(gCommParam));
 1140              		.loc 1 250 0
 1141 0002 0021     		movs	r1, #0
 1142 0004 4FF48062 		mov	r2, #1024
 1143 0008 0848     		ldr	r0, .L138
 1144 000a FFF7FEFF 		bl	memset
 1145              	.LVL124:
 251:src/comm.c    ****   for (i= 0; i < MAX_APM_AUX; i++)
 1146              		.loc 1 251 0
 1147 000e 4FF40B72 		mov	r2, #556
 1148 0012 0748     		ldr	r0, .L138+4
 1149 0014 0021     		movs	r1, #0
 1150 0016 FFF7FEFF 		bl	memset
 1151              	.LVL125:
 253:src/comm.c    ****  
 1152              		.loc 1 253 0
 1153 001a 064B     		ldr	r3, .L138+8
 1154 001c 4FF0FF32 		mov	r2, #-1
 1155 0020 1A60     		str	r2, [r3]
 1156              	.LVL126:
 1157 0022 5A60     		str	r2, [r3, #4]
 1158              	.LVL127:
 256:src/comm.c    **** //*****************************************************************************
 1159              		.loc 1 256 0
 1160 0024 BDE80840 		pop	{r3, lr}
 1161              		.cfi_restore 14
 1162              		.cfi_restore 3
 1163              		.cfi_def_cfa_offset 0
 255:src/comm.c    **** }
 1164              		.loc 1 255 0
 1165 0028 FFF7FEBF 		b	InitGPRSDat
 1166              	.LVL128:
 1167              	.L139:
 1168              		.align	2
 1169              	.L138:
 1170 002c 00000000 		.word	.LANCHOR1
 1171 0030 00000000 		.word	gCommParam
 1172 0034 00000000 		.word	gAuxHdl
 1173              		.cfi_endproc
 1174              	.LFE1:
 1175              		.size	CommInit, .-CommInit
ARM GAS  C:\Users\AHMED~1.ELE\AppData\Local\Temp\ccosOURr.s 			page 43


 1176              		.section	.text.WaitNetworkReady,"ax",%progbits
 1177              		.align	1
 1178              		.global	WaitNetworkReady
 1179              		.thumb
 1180              		.thumb_func
 1181              		.type	WaitNetworkReady, %function
 1182              	WaitNetworkReady:
 1183              	.LFB2:
 266:src/comm.c    ****   #define NET_READY_TIMEOUT 30    // 30 sec to wait for network ready
 1184              		.loc 1 266 0
 1185              		.cfi_startproc
 1186              		@ args = 0, pretend = 0, frame = 0
 1187              		@ frame_needed = 0, uses_anonymous_args = 0
 1188 0000 37B5     		push	{r0, r1, r2, r4, r5, lr}
 1189              		.cfi_def_cfa_offset 24
 1190              		.cfi_offset 4, -12
 1191              		.cfi_offset 5, -8
 1192              		.cfi_offset 14, -4
 270:src/comm.c    ****   while (((FreeRunMW() - free_run) < NET_READY_TIMEOUT*200)) {
 1193              		.loc 1 270 0
 1194 0002 40F29F10 		movw	r0, #415
 1195 0006 FFF7FEFF 		bl	sys_func0
 1196              	.LVL129:
 1197 000a 0546     		mov	r5, r0
 1198              	.LVL130:
 1199              	.L143:
 271:src/comm.c    ****     status = os_gprs_status(-1);
 1200              		.loc 1 271 0
 1201 000c 40F29F10 		movw	r0, #415
 1202 0010 FFF7FEFF 		bl	sys_func0
 1203              	.LVL131:
 1204 0014 41F26F73 		movw	r3, #5999
 1205 0018 401B     		subs	r0, r0, r5
 1206 001a 9842     		cmp	r0, r3
 1207 001c 3FD8     		bhi	.L154
 272:src/comm.c    ****     if (status & K_GPRS_STATUS_TXRDY1) {
 1208              		.loc 1 272 0
 1209 001e 4FF48A70 		mov	r0, #276
 1210 0022 4FF0FF31 		mov	r1, #-1
 1211 0026 FFF7FEFF 		bl	sys_func1
 1212              	.LVL132:
 273:src/comm.c    ****       while (((FreeRunMW() - free_run) < NET_READY_TIMEOUT*200)) {
 1213              		.loc 1 273 0
 1214 002a C201     		lsls	r2, r0, #7
 1215 002c EED5     		bpl	.L143
 1216              	.L151:
 274:src/comm.c    ****         DispLineMW("  Wait Net Rdy  ", MW_LINE3, MW_CENTER|MW_SPFONT);
 1217              		.loc 1 274 0
 1218 002e 40F29F10 		movw	r0, #415
 1219              	.LVL133:
 1220 0032 FFF7FEFF 		bl	sys_func0
 1221              	.LVL134:
 1222 0036 41F26F73 		movw	r3, #5999
 1223 003a 401B     		subs	r0, r0, r5
 1224 003c 9842     		cmp	r0, r3
 1225 003e E5D8     		bhi	.L143
 1226              	.LVL135:
ARM GAS  C:\Users\AHMED~1.ELE\AppData\Local\Temp\ccosOURr.s 			page 44


 1227              	.LBB16:
 275:src/comm.c    ****         status = os_gprs_status(-1);
 1228              		.loc 1 275 0
 1229 0040 9220     		movs	r0, #146
 1230 0042 1121     		movs	r1, #17
 1231 0044 FFF7FEFF 		bl	sys_func1
 1232              	.LVL136:
 1233 0048 0446     		mov	r4, r0
 1234 004a 98B1     		cbz	r0, .L144
 275:src/comm.c    ****         status = os_gprs_status(-1);
 1235              		.loc 1 275 0 is_stmt 0 discriminator 1
 1236 004c 1A49     		ldr	r1, .L155
 1237 004e 1022     		movs	r2, #16
 1238 0050 FFF7FEFF 		bl	memcpy
 1239              	.LVL137:
 1240 0054 0023     		movs	r3, #0
 1241 0056 2521     		movs	r1, #37
 1242 0058 2374     		strb	r3, [r4, #16]
 1243 005a 42F20203 		movw	r3, #8194
 1244 005e 0F20     		movs	r0, #15
 1245 0060 0093     		str	r3, [sp]
 1246 0062 2246     		mov	r2, r4
 1247 0064 4FF44073 		mov	r3, #768
 1248 0068 FFF7FEFF 		bl	lib_app_call
 1249              	.LVL138:
 1250 006c 9420     		movs	r0, #148
 1251 006e 2146     		mov	r1, r4
 1252 0070 FFF7FEFF 		bl	sys_func1
 1253              	.LVL139:
 1254              	.L144:
 1255              	.LBE16:
 276:src/comm.c    ****         if (status & K_GPRS_STATUS_NETWORK_READY) {
 1256              		.loc 1 276 0 is_stmt 1
 1257 0074 4FF48A70 		mov	r0, #276
 1258 0078 4FF0FF31 		mov	r1, #-1
 1259 007c FFF7FEFF 		bl	sys_func1
 1260              	.LVL140:
 277:src/comm.c    ****           DispClrLineMW(MW_LINE3);
 1261              		.loc 1 277 0
 1262 0080 4305     		lsls	r3, r0, #21
 1263 0082 D4D5     		bpl	.L151
 278:src/comm.c    ****           Delay10ms(10);
 1264              		.loc 1 278 0
 1265 0084 0023     		movs	r3, #0
 1266 0086 2221     		movs	r1, #34
 1267 0088 0093     		str	r3, [sp]
 1268 008a 4FF44072 		mov	r2, #768
 1269 008e 0F20     		movs	r0, #15
 1270              	.LVL141:
 1271 0090 FFF7FEFF 		bl	lib_app_call
 1272              	.LVL142:
 279:src/comm.c    ****           return TRUE;
 1273              		.loc 1 279 0
 1274 0094 0A20     		movs	r0, #10
 1275 0096 FFF7FEFF 		bl	Delay10ms
 1276              	.LVL143:
 280:src/comm.c    ****         }
ARM GAS  C:\Users\AHMED~1.ELE\AppData\Local\Temp\ccosOURr.s 			page 45


 1277              		.loc 1 280 0
 1278 009a 0120     		movs	r0, #1
 1279 009c 09E0     		b	.L145
 1280              	.LVL144:
 1281              	.L154:
 285:src/comm.c    ****   return FALSE;
 1282              		.loc 1 285 0
 1283 009e 0024     		movs	r4, #0
 1284 00a0 0F20     		movs	r0, #15
 1285 00a2 0094     		str	r4, [sp]
 1286 00a4 2221     		movs	r1, #34
 1287 00a6 4FF44072 		mov	r2, #768
 1288 00aa 2346     		mov	r3, r4
 1289 00ac FFF7FEFF 		bl	lib_app_call
 1290              	.LVL145:
 286:src/comm.c    **** }
 1291              		.loc 1 286 0
 1292 00b0 2046     		mov	r0, r4
 1293              	.L145:
 287:src/comm.c    **** //*****************************************************************************
 1294              		.loc 1 287 0
 1295 00b2 03B0     		add	sp, sp, #12
 1296              		.cfi_def_cfa_offset 12
 1297              		@ sp needed
 1298 00b4 30BD     		pop	{r4, r5, pc}
 1299              	.LVL146:
 1300              	.L156:
 1301 00b6 00BF     		.align	2
 1302              	.L155:
 1303 00b8 73000000 		.word	.LC11
 1304              		.cfi_endproc
 1305              	.LFE2:
 1306              		.size	WaitNetworkReady, .-WaitNetworkReady
 1307              		.section	.text.ConnectPPP,"ax",%progbits
 1308              		.align	1
 1309              		.global	ConnectPPP
 1310              		.thumb
 1311              		.thumb_func
 1312              		.type	ConnectPPP, %function
 1313              	ConnectPPP:
 1314              	.LFB4:
 334:src/comm.c    ****   struct MW_PPP_DATA ppp_data;
 1315              		.loc 1 334 0
 1316              		.cfi_startproc
 1317              		@ args = 0, pretend = 0, frame = 1752
 1318              		@ frame_needed = 0, uses_anonymous_args = 0
 1319              	.LVL147:
 1320 0000 2DE9F04F 		push	{r4, r5, r6, r7, r8, r9, r10, fp, lr}
 1321              		.cfi_def_cfa_offset 36
 1322              		.cfi_offset 4, -36
 1323              		.cfi_offset 5, -32
 1324              		.cfi_offset 6, -28
 1325              		.cfi_offset 7, -24
 1326              		.cfi_offset 8, -20
 1327              		.cfi_offset 9, -16
 1328              		.cfi_offset 10, -12
 1329              		.cfi_offset 11, -8
ARM GAS  C:\Users\AHMED~1.ELE\AppData\Local\Temp\ccosOURr.s 			page 46


 1330              		.cfi_offset 14, -4
 1331 0004 ADF2E46D 		subw	sp, sp, #1764
 1332              		.cfi_def_cfa_offset 1800
 337:src/comm.c    ****   int  fd, len;
 1333              		.loc 1 337 0
 1334 0008 0DF10809 		add	r9, sp, #8
 1335 000c 0522     		movs	r2, #5
 334:src/comm.c    ****   struct MW_PPP_DATA ppp_data;
 1336              		.loc 1 334 0
 1337 000e 8246     		mov	r10, r0
 337:src/comm.c    ****   int  fd, len;
 1338              		.loc 1 337 0
 1339 0010 A749     		ldr	r1, .L205
 1340 0012 4846     		mov	r0, r9
 1341              	.LVL148:
 1342 0014 FFF7FEFF 		bl	memcpy
 1343              	.LVL149:
 344:src/comm.c    ****     return COMM_NO_DIALTONE;
 1344              		.loc 1 344 0
 1345 0018 A64B     		ldr	r3, .L205+4
 1346 001a D3F88C20 		ldr	r2, [r3, #140]
 1347 001e 9846     		mov	r8, r3
 1348 0020 052A     		cmp	r2, #5
 1349 0022 09D0     		beq	.L158
 1350              	.L161:
 348:src/comm.c    ****     return COMM_OK;
 1351              		.loc 1 348 0
 1352 0024 98F80400 		ldrb	r0, [r8, #4]	@ zero_extendqisi2
 1353 0028 FFF7FEFF 		bl	WaitPPPReady
 1354              	.LVL150:
 1355 002c 43F23003 		movw	r3, #12336
 1356 0030 A04E     		ldr	r6, .L205+4
 1357 0032 9842     		cmp	r0, r3
 1358 0034 0FD0     		beq	.L159
 1359 0036 11E0     		b	.L203
 1360              	.L158:
 344:src/comm.c    ****     return COMM_NO_DIALTONE;
 1361              		.loc 1 344 0 discriminator 1
 1362 0038 0023     		movs	r3, #0
 1363 003a 0F20     		movs	r0, #15
 1364 003c 0093     		str	r3, [sp]
 1365 003e 9E4B     		ldr	r3, .L205+8
 1366 0040 0821     		movs	r1, #8
 1367 0042 DA68     		ldr	r2, [r3, #12]
 1368 0044 4FF40073 		mov	r3, #512
 1369 0048 FFF7FEFF 		bl	lib_app_call
 1370              	.LVL151:
 1371 004c 0028     		cmp	r0, #0
 1372 004e E9D1     		bne	.L161
 1373              	.L176:
 345:src/comm.c    ****   #endif
 1374              		.loc 1 345 0
 1375 0050 44F24E40 		movw	r0, #17486
 1376 0054 28E1     		b	.L162
 1377              	.L159:
 349:src/comm.c    **** 
 1378              		.loc 1 349 0
ARM GAS  C:\Users\AHMED~1.ELE\AppData\Local\Temp\ccosOURr.s 			page 47


 1379 0056 43F23000 		movw	r0, #12336
 1380 005a 25E1     		b	.L162
 1381              	.L203:
 351:src/comm.c    ****   ppp_data.dev_speed  = gCommParam.sPPP.dSpeed;
 1382              		.loc 1 351 0
 1383 005c 0CAC     		add	r4, sp, #48
 1384 005e D6F88C30 		ldr	r3, [r6, #140]
 354:src/comm.c    **** 
 1385              		.loc 1 354 0
 1386 0062 954D     		ldr	r5, .L205+8
 351:src/comm.c    ****   ppp_data.dev_speed  = gCommParam.sPPP.dSpeed;
 1387              		.loc 1 351 0
 1388 0064 2360     		str	r3, [r4]
 353:src/comm.c    ****   IOCtlMW(gDevHandle[APM_SDEV_PPP], IO_PPP_SET_DEVICE, &ppp_data);
 1389              		.loc 1 353 0
 1390 0066 0027     		movs	r7, #0
 352:src/comm.c    ****   ppp_data.id         = 0;
 1391              		.loc 1 352 0
 1392 0068 D6F89030 		ldr	r3, [r6, #144]
 353:src/comm.c    ****   IOCtlMW(gDevHandle[APM_SDEV_PPP], IO_PPP_SET_DEVICE, &ppp_data);
 1393              		.loc 1 353 0
 1394 006c A760     		str	r7, [r4, #8]
 352:src/comm.c    ****   ppp_data.id         = 0;
 1395              		.loc 1 352 0
 1396 006e 6360     		str	r3, [r4, #4]
 354:src/comm.c    **** 
 1397              		.loc 1 354 0
 1398 0070 0721     		movs	r1, #7
 1399 0072 EA68     		ldr	r2, [r5, #12]
 1400 0074 3B46     		mov	r3, r7
 1401 0076 0094     		str	r4, [sp]
 1402 0078 0F20     		movs	r0, #15
 1403 007a FFF7FEFF 		bl	lib_app_call
 1404              	.LVL152:
 356:src/comm.c    ****   IOCtlMW(gDevHandle[APM_SDEV_PPP], IO_PPP_SET_MODE, &ppp_data);
 1405              		.loc 1 356 0
 1406 007e D6F89430 		ldr	r3, [r6, #148]
 357:src/comm.c    ****         
 1407              		.loc 1 357 0
 1408 0082 EA68     		ldr	r2, [r5, #12]
 356:src/comm.c    ****   IOCtlMW(gDevHandle[APM_SDEV_PPP], IO_PPP_SET_MODE, &ppp_data);
 1409              		.loc 1 356 0
 1410 0084 2361     		str	r3, [r4, #16]
 357:src/comm.c    ****         
 1411              		.loc 1 357 0
 1412 0086 0721     		movs	r1, #7
 1413 0088 0223     		movs	r3, #2
 359:src/comm.c    ****   strcpy(password,  gCommParam.sPPP.scPwd);
 1414              		.loc 1 359 0
 1415 008a 0DF1E00B 		add	fp, sp, #224
 357:src/comm.c    ****         
 1416              		.loc 1 357 0
 1417 008e 0094     		str	r4, [sp]
 1418 0090 0F20     		movs	r0, #15
 1419 0092 FFF7FEFF 		bl	lib_app_call
 1420              	.LVL153:
 359:src/comm.c    ****   strcpy(password,  gCommParam.sPPP.scPwd);
ARM GAS  C:\Users\AHMED~1.ELE\AppData\Local\Temp\ccosOURr.s 			page 48


 1421              		.loc 1 359 0
 1422 0096 06F58C71 		add	r1, r6, #280
 1423 009a 5846     		mov	r0, fp
 1424 009c FFF7FEFF 		bl	strcpy
 1425              	.LVL154:
 360:src/comm.c    ****   ppp_data.username = username;
 1426              		.loc 1 360 0
 1427 00a0 78AB     		add	r3, sp, #480
 1428 00a2 1846     		mov	r0, r3
 1429 00a4 06F5CC71 		add	r1, r6, #408
 1430 00a8 FFF7FEFF 		bl	strcpy
 1431              	.LVL155:
 361:src/comm.c    ****   ppp_data.userpwd  = password;
 1432              		.loc 1 361 0
 1433 00ac C4F818B0 		str	fp, [r4, #24]
 363:src/comm.c    **** 
 1434              		.loc 1 363 0
 1435 00b0 0623     		movs	r3, #6
 1436 00b2 0721     		movs	r1, #7
 362:src/comm.c    ****   IOCtlMW(gDevHandle[APM_SDEV_PPP], IO_PPP_SET_LOGINID, &ppp_data);
 1437              		.loc 1 362 0
 1438 00b4 E061     		str	r0, [r4, #28]
 363:src/comm.c    **** 
 1439              		.loc 1 363 0
 1440 00b6 EA68     		ldr	r2, [r5, #12]
 1441 00b8 0094     		str	r4, [sp]
 1442 00ba 0F20     		movs	r0, #15
 1443 00bc FFF7FEFF 		bl	lib_app_call
 1444              	.LVL156:
 365:src/comm.c    ****     sprintf(gPDPContext, "AT+CGDCONT=1,\"IP\",\"%s\"", gCommParam.sPPP.scAPN);
 1445              		.loc 1 365 0
 1446 00c0 96F99830 		ldrsb	r3, [r6, #152]
 1447 00c4 002B     		cmp	r3, #0
 1448 00c6 61D0     		beq	.L163
 366:src/comm.c    ****     // Save GPRSFile
 1449              		.loc 1 366 0
 1450 00c8 06F19802 		add	r2, r6, #152
 1451 00cc 7B49     		ldr	r1, .L205+12
 1452 00ce 7C48     		ldr	r0, .L205+16
 1453 00d0 FFF7FEFF 		bl	sprintf
 1454              	.LVL157:
 368:src/comm.c    ****     fd = fOpenMW(tmp);
 1455              		.loc 1 368 0
 1456 00d4 7B49     		ldr	r1, .L205+20
 1457 00d6 04A8     		add	r0, sp, #16
 1458 00d8 FFF7FEFF 		bl	strcpy
 1459              	.LVL158:
 369:src/comm.c    ****     if (fd < 0) 
 1460              		.loc 1 369 0
 1461 00dc 0097     		str	r7, [sp]
 1462 00de 0F20     		movs	r0, #15
 1463 00e0 0D21     		movs	r1, #13
 1464 00e2 04AA     		add	r2, sp, #16
 1465 00e4 3B46     		mov	r3, r7
 1466 00e6 FFF7FEFF 		bl	lib_app_call
 1467              	.LVL159:
 370:src/comm.c    ****       fd = fCreateMW(tmp, 0);
ARM GAS  C:\Users\AHMED~1.ELE\AppData\Local\Temp\ccosOURr.s 			page 49


 1468              		.loc 1 370 0
 1469 00ea 061E     		subs	r6, r0, #0
 1470 00ec 08DA     		bge	.L164
 371:src/comm.c    ****     if (fd >= 0) {
 1471              		.loc 1 371 0
 1472 00ee 0097     		str	r7, [sp]
 1473 00f0 0F20     		movs	r0, #15
 1474              	.LVL160:
 1475 00f2 0B21     		movs	r1, #11
 1476 00f4 04AA     		add	r2, sp, #16
 1477 00f6 3B46     		mov	r3, r7
 1478 00f8 FFF7FEFF 		bl	lib_app_call
 1479              	.LVL161:
 372:src/comm.c    ****       strcpy(gGPRSDat.scAPN, gCommParam.sPPP.scAPN);
 1480              		.loc 1 372 0
 1481 00fc 061E     		subs	r6, r0, #0
 1482 00fe 3EDB     		blt	.L165
 1483              	.L164:
 373:src/comm.c    ****       strcpy(gGPRSDat.scUserName, gCommParam.sPPP.scUserID);
 1484              		.loc 1 373 0
 1485 0100 7149     		ldr	r1, .L205+24
 1486 0102 7248     		ldr	r0, .L205+28
 1487              	.LVL162:
 1488 0104 FFF7FEFF 		bl	strcpy
 1489              	.LVL163:
 374:src/comm.c    ****       strcpy(gGPRSDat.scPassword, gCommParam.sPPP.scPwd);
 1490              		.loc 1 374 0
 1491 0108 7149     		ldr	r1, .L205+32
 1492 010a 7248     		ldr	r0, .L205+36
 1493 010c FFF7FEFF 		bl	strcpy
 1494              	.LVL164:
 376:src/comm.c    ****       len = fWriteMW(fd, &gprs_dat, sizeof(struct GPRSPPP));
 1495              		.loc 1 376 0
 1496 0110 4FF48067 		mov	r7, #1024
 375:src/comm.c    ****       memcpy(&gprs_dat, &gGPRSDat, sizeof(struct GPRSPPP)); 
 1497              		.loc 1 375 0
 1498 0114 7049     		ldr	r1, .L205+40
 1499 0116 7148     		ldr	r0, .L205+44
 1500 0118 FFF7FEFF 		bl	strcpy
 1501              	.LVL165:
 376:src/comm.c    ****       len = fWriteMW(fd, &gprs_dat, sizeof(struct GPRSPPP));
 1502              		.loc 1 376 0
 1503 011c 6D49     		ldr	r1, .L205+36
 1504 011e 3A46     		mov	r2, r7
 1505 0120 B8A8     		add	r0, sp, #736
 1506 0122 FFF7FEFF 		bl	memcpy
 1507              	.LVL166:
 377:src/comm.c    ****       if (len != sizeof(struct GPRSPPP)) {
 1508              		.loc 1 377 0
 1509 0126 0097     		str	r7, [sp]
 1510 0128 0F20     		movs	r0, #15
 1511 012a 1221     		movs	r1, #18
 1512 012c 3246     		mov	r2, r6
 1513 012e B8AB     		add	r3, sp, #736
 1514 0130 FFF7FEFF 		bl	lib_app_call
 1515              	.LVL167:
 378:src/comm.c    ****         DispLineMW("File WR Err!", MW_LINE1, MW_CLRDISP|MW_BIGFONT);
ARM GAS  C:\Users\AHMED~1.ELE\AppData\Local\Temp\ccosOURr.s 			page 50


 1516              		.loc 1 378 0
 1517 0134 B842     		cmp	r0, r7
 1518 0136 1BD0     		beq	.L166
 1519              	.LVL168:
 1520              	.LBB17:
 379:src/comm.c    ****         ErrorDelay();
 1521              		.loc 1 379 0
 1522 0138 9220     		movs	r0, #146
 1523              	.LVL169:
 1524 013a 0D21     		movs	r1, #13
 1525 013c FFF7FEFF 		bl	sys_func1
 1526              	.LVL170:
 1527 0140 0746     		mov	r7, r0
 1528 0142 98B1     		cbz	r0, .L167
 379:src/comm.c    ****         ErrorDelay();
 1529              		.loc 1 379 0 is_stmt 0 discriminator 1
 1530 0144 6649     		ldr	r1, .L205+48
 1531 0146 0C22     		movs	r2, #12
 1532 0148 FFF7FEFF 		bl	memcpy
 1533              	.LVL171:
 1534 014c 0023     		movs	r3, #0
 1535 014e 2521     		movs	r1, #37
 1536 0150 3B73     		strb	r3, [r7, #12]
 1537 0152 4FF48453 		mov	r3, #4224
 1538 0156 0F20     		movs	r0, #15
 1539 0158 0093     		str	r3, [sp]
 1540 015a 3A46     		mov	r2, r7
 1541 015c 4FF48073 		mov	r3, #256
 1542 0160 FFF7FEFF 		bl	lib_app_call
 1543              	.LVL172:
 1544 0164 9420     		movs	r0, #148
 1545 0166 3946     		mov	r1, r7
 1546 0168 FFF7FEFF 		bl	sys_func1
 1547              	.LVL173:
 1548              	.L167:
 1549              	.LBE17:
 380:src/comm.c    ****       } 
 1550              		.loc 1 380 0 is_stmt 1
 1551 016c FFF7FEFF 		bl	ErrorDelay
 1552              	.LVL174:
 1553              	.L166:
 382:src/comm.c    ****     }
 1554              		.loc 1 382 0
 1555 0170 0022     		movs	r2, #0
 1556 0172 0F20     		movs	r0, #15
 1557 0174 0092     		str	r2, [sp]
 1558 0176 1321     		movs	r1, #19
 1559 0178 1346     		mov	r3, r2
 1560 017a FFF7FEFF 		bl	lib_app_call
 1561              	.LVL175:
 1562              	.L165:
 384:src/comm.c    ****   }
 1563              		.loc 1 384 0
 1564 017e 0023     		movs	r3, #0
 1565 0180 0F20     		movs	r0, #15
 1566 0182 0093     		str	r3, [sp]
 1567 0184 0E21     		movs	r1, #14
ARM GAS  C:\Users\AHMED~1.ELE\AppData\Local\Temp\ccosOURr.s 			page 51


 1568 0186 3246     		mov	r2, r6
 1569 0188 FFF7FEFF 		bl	lib_app_call
 1570              	.LVL176:
 1571              	.L163:
 387:src/comm.c    ****   if (gCommParam.sPPP.psLogin == NULL) {
 1572              		.loc 1 387 0
 1573 018c D8F81C12 		ldr	r1, [r8, #540]
 388:src/comm.c    ****     ppp_data.login_scripts = NULL;
 1574              		.loc 1 388 0
 1575 0190 D8F81802 		ldr	r0, [r8, #536]
 387:src/comm.c    ****   if (gCommParam.sPPP.psLogin == NULL) {
 1576              		.loc 1 387 0
 1577 0194 2163     		str	r1, [r4, #48]
 388:src/comm.c    ****     ppp_data.login_scripts = NULL;
 1578              		.loc 1 388 0
 1579 0196 40B9     		cbnz	r0, .L168
 389:src/comm.c    ****     IOCtlMW(gDevHandle[APM_SDEV_PPP], IO_PPP_SET_LOGIN_SCRIPT, &ppp_data);
 1580              		.loc 1 389 0
 1581 0198 E062     		str	r0, [r4, #44]
 390:src/comm.c    ****   }
 1582              		.loc 1 390 0
 1583 019a 0721     		movs	r1, #7
 1584 019c 0094     		str	r4, [sp]
 1585 019e EA68     		ldr	r2, [r5, #12]
 1586 01a0 0923     		movs	r3, #9
 1587 01a2 0F20     		movs	r0, #15
 1588 01a4 FFF7FEFF 		bl	lib_app_call
 1589              	.LVL177:
 1590 01a8 0DE0     		b	.L169
 1591              	.L168:
 393:src/comm.c    ****     IOCtlMW(gDevHandle[APM_SDEV_PPP], IO_PPP_SET_LOGIN_SCRIPT, &ppp_data);
 1592              		.loc 1 393 0
 1593 01aa FFF7FEFF 		bl	expect_send_alloc
 1594              	.LVL178:
 394:src/comm.c    ****     expect_send_release((T_EXPECT_SEND **)ppp_data.login_scripts, ppp_data.login_pair);
 1595              		.loc 1 394 0
 1596 01ae 0721     		movs	r1, #7
 1597 01b0 EA68     		ldr	r2, [r5, #12]
 1598 01b2 0923     		movs	r3, #9
 393:src/comm.c    ****     IOCtlMW(gDevHandle[APM_SDEV_PPP], IO_PPP_SET_LOGIN_SCRIPT, &ppp_data);
 1599              		.loc 1 393 0
 1600 01b4 E062     		str	r0, [r4, #44]
 394:src/comm.c    ****     expect_send_release((T_EXPECT_SEND **)ppp_data.login_scripts, ppp_data.login_pair);
 1601              		.loc 1 394 0
 1602 01b6 0094     		str	r4, [sp]
 1603 01b8 0F20     		movs	r0, #15
 1604 01ba FFF7FEFF 		bl	lib_app_call
 1605              	.LVL179:
 395:src/comm.c    ****   }
 1606              		.loc 1 395 0
 1607 01be E06A     		ldr	r0, [r4, #44]
 1608 01c0 216B     		ldr	r1, [r4, #48]
 1609 01c2 FFF7FEFF 		bl	expect_send_release
 1610              	.LVL180:
 1611              	.L169:
 398:src/comm.c    ****     ppp_data.dial_pair = WAVESCP_SIZE;
 1612              		.loc 1 398 0
ARM GAS  C:\Users\AHMED~1.ELE\AppData\Local\Temp\ccosOURr.s 			page 52


 1613 01c6 D8F82002 		ldr	r0, [r8, #544]
 1614 01ca 18B9     		cbnz	r0, .L170
 399:src/comm.c    ****     ppp_data.dial_scripts = (struct MW_EXPECT_SEND *) expect_send_alloc((T_EXPECT_SEND *)KWaveDialS
 1615              		.loc 1 399 0
 1616 01cc 0521     		movs	r1, #5
 400:src/comm.c    ****   }
 1617              		.loc 1 400 0
 1618 01ce 4548     		ldr	r0, .L205+52
 399:src/comm.c    ****     ppp_data.dial_scripts = (struct MW_EXPECT_SEND *) expect_send_alloc((T_EXPECT_SEND *)KWaveDialS
 1619              		.loc 1 399 0
 1620 01d0 6162     		str	r1, [r4, #36]
 1621 01d2 03E0     		b	.L202
 1622              	.L170:
 403:src/comm.c    ****     ppp_data.dial_scripts = (struct MW_EXPECT_SEND *) expect_send_alloc((T_EXPECT_SEND *)gCommParam
 1623              		.loc 1 403 0
 1624 01d4 374B     		ldr	r3, .L205+4
 1625 01d6 D3F82412 		ldr	r1, [r3, #548]
 1626 01da 6162     		str	r1, [r4, #36]
 1627              	.L202:
 404:src/comm.c    ****   }
 1628              		.loc 1 404 0
 1629 01dc FFF7FEFF 		bl	expect_send_alloc
 1630              	.LVL181:
 406:src/comm.c    ****   expect_send_release((T_EXPECT_SEND **)ppp_data.dial_scripts, ppp_data.dial_pair);
 1631              		.loc 1 406 0
 1632 01e0 0721     		movs	r1, #7
 1633 01e2 0B46     		mov	r3, r1
 1634 01e4 EA68     		ldr	r2, [r5, #12]
 404:src/comm.c    ****   }
 1635              		.loc 1 404 0
 1636 01e6 2062     		str	r0, [r4, #32]
 406:src/comm.c    ****   expect_send_release((T_EXPECT_SEND **)ppp_data.dial_scripts, ppp_data.dial_pair);
 1637              		.loc 1 406 0
 1638 01e8 0094     		str	r4, [sp]
 1639 01ea 0F20     		movs	r0, #15
 1640 01ec FFF7FEFF 		bl	lib_app_call
 1641              	.LVL182:
 407:src/comm.c    **** 
 1642              		.loc 1 407 0
 1643 01f0 616A     		ldr	r1, [r4, #36]
 1644 01f2 206A     		ldr	r0, [r4, #32]
 1645 01f4 FFF7FEFF 		bl	expect_send_release
 1646              	.LVL183:
 409:src/comm.c    ****     memcpy(&ppp_data.line_config, gCommParam.sPPP.psDialParam, sizeof(struct MW_MDM_PORT));
 1647              		.loc 1 409 0
 1648 01f8 D8F82812 		ldr	r1, [r8, #552]
 1649 01fc 61B1     		cbz	r1, .L172
 410:src/comm.c    ****     IOCtlMW(gDevHandle[APM_SDEV_PPP], IO_PPP_SET_DIAL_PARAM, &ppp_data);
 1650              		.loc 1 410 0
 1651 01fe 5822     		movs	r2, #88
 1652 0200 04F13C00 		add	r0, r4, #60
 1653 0204 FFF7FEFF 		bl	memcpy
 1654              	.LVL184:
 411:src/comm.c    ****   }
 1655              		.loc 1 411 0
 1656 0208 2B4B     		ldr	r3, .L205+8
 1657 020a 0094     		str	r4, [sp]
ARM GAS  C:\Users\AHMED~1.ELE\AppData\Local\Temp\ccosOURr.s 			page 53


 1658 020c 0F20     		movs	r0, #15
 1659 020e DA68     		ldr	r2, [r3, #12]
 1660 0210 0721     		movs	r1, #7
 1661 0212 0B23     		movs	r3, #11
 1662 0214 FFF7FEFF 		bl	lib_app_call
 1663              	.LVL185:
 1664              	.L172:
 414:src/comm.c    ****   ppp_data.reconnect_retry   = 0;
 1665              		.loc 1 414 0
 1666 0218 0727     		movs	r7, #7
 415:src/comm.c    ****   IOCtlMW(gDevHandle[APM_SDEV_PPP], IO_PPP_SET_RECONNECT, &ppp_data);
 1667              		.loc 1 415 0
 1668 021a 0026     		movs	r6, #0
 414:src/comm.c    ****   ppp_data.reconnect_retry   = 0;
 1669              		.loc 1 414 0
 1670 021c C4F89870 		str	r7, [r4, #152]
 415:src/comm.c    ****   IOCtlMW(gDevHandle[APM_SDEV_PPP], IO_PPP_SET_RECONNECT, &ppp_data);
 1671              		.loc 1 415 0
 1672 0220 C4F89C60 		str	r6, [r4, #156]
 416:src/comm.c    **** 
 1673              		.loc 1 416 0
 1674 0224 3946     		mov	r1, r7
 1675 0226 EA68     		ldr	r2, [r5, #12]
 1676 0228 0D23     		movs	r3, #13
 1677 022a 0094     		str	r4, [sp]
 1678 022c 0F20     		movs	r0, #15
 1679 022e FFF7FEFF 		bl	lib_app_call
 1680              	.LVL186:
 418:src/comm.c    ****   IOCtlMW(gDevHandle[APM_SDEV_PPP], IO_PPP_SET_REDIAL, &ppp_data);
 1681              		.loc 1 418 0
 1682 0232 C4F89490 		str	r9, [r4, #148]
 419:src/comm.c    **** 
 1683              		.loc 1 419 0
 1684 0236 0C23     		movs	r3, #12
 1685 0238 0094     		str	r4, [sp]
 1686 023a 0F20     		movs	r0, #15
 1687 023c 3946     		mov	r1, r7
 1688 023e EA68     		ldr	r2, [r5, #12]
 1689 0240 FFF7FEFF 		bl	lib_app_call
 1690              	.LVL187:
 421:src/comm.c    ****     ppp_data.idle_timeout = 0;
 1691              		.loc 1 421 0
 1692 0244 98F88830 		ldrb	r3, [r8, #136]	@ zero_extendqisi2
 1693 0248 23B1     		cbz	r3, .L173
 422:src/comm.c    ****     ppp_data.min_timeout = 0;
 1694              		.loc 1 422 0
 1695 024a C4F8A460 		str	r6, [r4, #164]
 423:src/comm.c    ****   }
 1696              		.loc 1 423 0
 1697 024e C4F8A860 		str	r6, [r4, #168]
 1698 0252 04E0     		b	.L174
 1699              	.L173:
 426:src/comm.c    ****     ppp_data.min_timeout = 0;
 1700              		.loc 1 426 0
 1701 0254 B422     		movs	r2, #180
 427:src/comm.c    ****   }
 1702              		.loc 1 427 0
ARM GAS  C:\Users\AHMED~1.ELE\AppData\Local\Temp\ccosOURr.s 			page 54


 1703 0256 C4F8A830 		str	r3, [r4, #168]
 426:src/comm.c    ****     ppp_data.min_timeout = 0;
 1704              		.loc 1 426 0
 1705 025a C4F8A420 		str	r2, [r4, #164]
 1706              	.L174:
 429:src/comm.c    **** 
 1707              		.loc 1 429 0
 1708 025e 0F20     		movs	r0, #15
 1709 0260 0346     		mov	r3, r0
 1710 0262 0094     		str	r4, [sp]
 1711 0264 0721     		movs	r1, #7
 1712 0266 EA68     		ldr	r2, [r5, #12]
 1713 0268 FFF7FEFF 		bl	lib_app_call
 1714              	.LVL188:
 431:src/comm.c    ****     return COMM_NO_DIALTONE;
 1715              		.loc 1 431 0
 1716 026c D8F88C30 		ldr	r3, [r8, #140]
 1717 0270 052B     		cmp	r3, #5
 1718 0272 0BD0     		beq	.L175
 1719              	.L178:
 434:src/comm.c    ****     return COMM_NO_DIALTONE;
 1720              		.loc 1 434 0
 1721 0274 0023     		movs	r3, #0
 1722 0276 0F20     		movs	r0, #15
 1723 0278 0093     		str	r3, [sp]
 1724 027a 0721     		movs	r1, #7
 1725 027c EA68     		ldr	r2, [r5, #12]
 1726 027e 1223     		movs	r3, #18
 1727 0280 FFF7FEFF 		bl	lib_app_call
 1728              	.LVL189:
 1729 0284 0028     		cmp	r0, #0
 1730 0286 3FF4E3AE 		beq	.L176
 1731 028a 05E0     		b	.L204
 1732              	.L175:
 431:src/comm.c    ****     return COMM_NO_DIALTONE;
 1733              		.loc 1 431 0 discriminator 1
 1734 028c FFF7FEFF 		bl	WaitNetworkReady
 1735              	.LVL190:
 1736 0290 0028     		cmp	r0, #0
 1737 0292 3FF4DDAE 		beq	.L176
 1738 0296 EDE7     		b	.L178
 1739              	.L204:
 437:src/comm.c    ****     return WaitPPPReady(gCommParam.bTimeoutVal);
 1740              		.loc 1 437 0
 1741 0298 BAF1000F 		cmp	r10, #0
 1742 029c 3FF4DBAE 		beq	.L159
 438:src/comm.c    ****   return COMM_OK;
 1743              		.loc 1 438 0
 1744 02a0 98F80400 		ldrb	r0, [r8, #4]	@ zero_extendqisi2
 1745 02a4 FFF7FEFF 		bl	WaitPPPReady
 1746              	.LVL191:
 1747              	.L162:
 440:src/comm.c    **** //*****************************************************************************
 1748              		.loc 1 440 0
 1749 02a8 0DF2E46D 		addw	sp, sp, #1764
 1750              		.cfi_def_cfa_offset 36
 1751              		@ sp needed
ARM GAS  C:\Users\AHMED~1.ELE\AppData\Local\Temp\ccosOURr.s 			page 55


 1752 02ac BDE8F08F 		pop	{r4, r5, r6, r7, r8, r9, r10, fp, pc}
 1753              	.L206:
 1754              		.align	2
 1755              	.L205:
 1756 02b0 30000000 		.word	.LANCHOR0+48
 1757 02b4 00000000 		.word	gCommParam
 1758 02b8 00000000 		.word	gDevHandle
 1759 02bc 2B000000 		.word	.LC5
 1760 02c0 00000000 		.word	.LANCHOR2
 1761 02c4 0A000000 		.word	.LANCHOR0+10
 1762 02c8 98000000 		.word	gCommParam+152
 1763 02cc 00020000 		.word	.LANCHOR1+512
 1764 02d0 18010000 		.word	gCommParam+280
 1765 02d4 00000000 		.word	.LANCHOR1
 1766 02d8 98010000 		.word	gCommParam+408
 1767 02dc 00010000 		.word	.LANCHOR1+256
 1768 02e0 11000000 		.word	.LC3
 1769 02e4 38000000 		.word	.LANCHOR0+56
 1770              		.cfi_endproc
 1771              	.LFE4:
 1772              		.size	ConnectPPP, .-ConnectPPP
 1773              		.section	.text.DisconnectPPP,"ax",%progbits
 1774              		.align	1
 1775              		.global	DisconnectPPP
 1776              		.thumb
 1777              		.thumb_func
 1778              		.type	DisconnectPPP, %function
 1779              	DisconnectPPP:
 1780              	.LFB5:
 450:src/comm.c    ****   IOCtlMW(gDevHandle[APM_SDEV_PPP], IO_PPP_DISCONNECT, NULL);
 1781              		.loc 1 450 0
 1782              		.cfi_startproc
 1783              		@ args = 0, pretend = 0, frame = 0
 1784              		@ frame_needed = 0, uses_anonymous_args = 0
 451:src/comm.c    ****   return COMM_OK;
 1785              		.loc 1 451 0
 1786 0000 0023     		movs	r3, #0
 450:src/comm.c    ****   IOCtlMW(gDevHandle[APM_SDEV_PPP], IO_PPP_DISCONNECT, NULL);
 1787              		.loc 1 450 0
 1788 0002 07B5     		push	{r0, r1, r2, lr}
 1789              		.cfi_def_cfa_offset 16
 1790              		.cfi_offset 14, -4
 451:src/comm.c    ****   return COMM_OK;
 1791              		.loc 1 451 0
 1792 0004 0721     		movs	r1, #7
 1793 0006 0093     		str	r3, [sp]
 1794 0008 054B     		ldr	r3, .L208
 1795 000a 0F20     		movs	r0, #15
 1796 000c DA68     		ldr	r2, [r3, #12]
 1797 000e 1323     		movs	r3, #19
 1798 0010 FFF7FEFF 		bl	lib_app_call
 1799              	.LVL192:
 453:src/comm.c    **** //*****************************************************************************
 1800              		.loc 1 453 0
 1801 0014 43F23000 		movw	r0, #12336
 1802 0018 03B0     		add	sp, sp, #12
 1803              		.cfi_def_cfa_offset 4
ARM GAS  C:\Users\AHMED~1.ELE\AppData\Local\Temp\ccosOURr.s 			page 56


 1804              		@ sp needed
 1805 001a 5DF804FB 		ldr	pc, [sp], #4
 1806              	.L209:
 1807 001e 00BF     		.align	2
 1808              	.L208:
 1809 0020 00000000 		.word	gDevHandle
 1810              		.cfi_endproc
 1811              	.LFE5:
 1812              		.size	DisconnectPPP, .-DisconnectPPP
 1813              		.section	.text.ResetTcpip,"ax",%progbits
 1814              		.align	1
 1815              		.thumb
 1816              		.thumb_func
 1817              		.type	ResetTcpip, %function
 1818              	ResetTcpip:
 1819              	.LFB12:
 593:src/comm.c    ****   DWORD status;
 1820              		.loc 1 593 0
 1821              		.cfi_startproc
 1822              		@ args = 0, pretend = 0, frame = 0
 1823              		@ frame_needed = 0, uses_anonymous_args = 0
 596:src/comm.c    ****     IOCtlMW(gTcpHandle, IO_TCP_DISCONNECT, NULL);
 1824              		.loc 1 596 0
 1825 0000 184B     		ldr	r3, .L218
 593:src/comm.c    ****   DWORD status;
 1826              		.loc 1 593 0
 1827 0002 37B5     		push	{r0, r1, r2, r4, r5, lr}
 1828              		.cfi_def_cfa_offset 24
 1829              		.cfi_offset 4, -12
 1830              		.cfi_offset 5, -8
 1831              		.cfi_offset 14, -4
 596:src/comm.c    ****     IOCtlMW(gTcpHandle, IO_TCP_DISCONNECT, NULL);
 1832              		.loc 1 596 0
 1833 0004 D3F80022 		ldr	r2, [r3, #512]
 1834 0008 1C46     		mov	r4, r3
 1835 000a 002A     		cmp	r2, #0
 1836 000c 1DDB     		blt	.L211
 597:src/comm.c    ****     do{
 1837              		.loc 1 597 0
 1838 000e 0023     		movs	r3, #0
 1839 0010 0F20     		movs	r0, #15
 1840 0012 0093     		str	r3, [sp]
 1841 0014 0721     		movs	r1, #7
 1842 0016 0223     		movs	r3, #2
 1843 0018 FFF7FEFF 		bl	lib_app_call
 1844              	.LVL193:
 1845              	.L212:
 599:src/comm.c    ****       status &= 0xFF;
 1846              		.loc 1 599 0 discriminator 2
 1847 001c 0023     		movs	r3, #0
 1848 001e 0F20     		movs	r0, #15
 1849 0020 0093     		str	r3, [sp]
 1850 0022 0821     		movs	r1, #8
 1851 0024 D4F80022 		ldr	r2, [r4, #512]
 1852 0028 FFF7FEFF 		bl	lib_app_call
 1853              	.LVL194:
 1854 002c 0D4D     		ldr	r5, .L218
ARM GAS  C:\Users\AHMED~1.ELE\AppData\Local\Temp\ccosOURr.s 			page 57


 601:src/comm.c    ****     CloseMW(gTcpHandle);
 1855              		.loc 1 601 0 discriminator 2
 1856 002e 10F0FB03 		ands	r3, r0, #251
 1857 0032 F3D1     		bne	.L212
 602:src/comm.c    ****     gTcpHandle = -1;
 1858              		.loc 1 602 0
 1859 0034 0093     		str	r3, [sp]
 1860 0036 0F20     		movs	r0, #15
 1861              	.LVL195:
 1862 0038 0321     		movs	r1, #3
 1863 003a D5F80022 		ldr	r2, [r5, #512]
 1864 003e FFF7FEFF 		bl	lib_app_call
 1865              	.LVL196:
 603:src/comm.c    ****   }
 1866              		.loc 1 603 0
 1867 0042 4FF0FF33 		mov	r3, #-1
 1868 0046 C5F80032 		str	r3, [r5, #512]
 1869              	.L211:
 605:src/comm.c    ****     DisconnectPPP();
 1870              		.loc 1 605 0
 1871 004a 074B     		ldr	r3, .L218+4
 1872 004c D3F88C20 		ldr	r2, [r3, #140]
 1873 0050 1207     		lsls	r2, r2, #28
 1874 0052 04D0     		beq	.L213
 1875              	.LBB20:
 1876              	.LBB21:
 1877 0054 93F88830 		ldrb	r3, [r3, #136]	@ zero_extendqisi2
 1878 0058 0BB9     		cbnz	r3, .L213
 606:src/comm.c    ****   }
 1879              		.loc 1 606 0
 1880 005a FFF7FEFF 		bl	DisconnectPPP
 1881              	.LVL197:
 1882              	.L213:
 1883              	.LBE21:
 1884              	.LBE20:
 609:src/comm.c    **** //*****************************************************************************
 1885              		.loc 1 609 0
 1886 005e 0120     		movs	r0, #1
 1887 0060 03B0     		add	sp, sp, #12
 1888              		.cfi_def_cfa_offset 12
 1889              		@ sp needed
 1890 0062 30BD     		pop	{r4, r5, pc}
 1891              	.L219:
 1892              		.align	2
 1893              	.L218:
 1894 0064 00000000 		.word	.LANCHOR2
 1895 0068 00000000 		.word	gCommParam
 1896              		.cfi_endproc
 1897              	.LFE12:
 1898              		.size	ResetTcpip, .-ResetTcpip
 1899              		.section	.text.ConnectTcpip,"ax",%progbits
 1900              		.align	1
 1901              		.thumb
 1902              		.thumb_func
 1903              		.type	ConnectTcpip, %function
 1904              	ConnectTcpip:
 1905              	.LFB13:
ARM GAS  C:\Users\AHMED~1.ELE\AppData\Local\Temp\ccosOURr.s 			page 58


 621:src/comm.c    ****   BOOLEAN ret=TRUE;
 1906              		.loc 1 621 0
 1907              		.cfi_startproc
 1908              		@ args = 0, pretend = 0, frame = 608
 1909              		@ frame_needed = 0, uses_anonymous_args = 0
 1910              	.LVL198:
 1911 0000 2DE9F041 		push	{r4, r5, r6, r7, r8, lr}
 1912              		.cfi_def_cfa_offset 24
 1913              		.cfi_offset 4, -24
 1914              		.cfi_offset 5, -20
 1915              		.cfi_offset 6, -16
 1916              		.cfi_offset 7, -12
 1917              		.cfi_offset 8, -8
 1918              		.cfi_offset 14, -4
 630:src/comm.c    ****   Disp2x16Msg(KCommConnectWait, MW_LINE5, MW_CENTER|MW_BIGFONT);
 1919              		.loc 1 630 0
 1920 0004 0023     		movs	r3, #0
 621:src/comm.c    ****   BOOLEAN ret=TRUE;
 1921              		.loc 1 621 0
 1922 0006 ADF51A7D 		sub	sp, sp, #616
 1923              		.cfi_def_cfa_offset 640
 630:src/comm.c    ****   Disp2x16Msg(KCommConnectWait, MW_LINE5, MW_CENTER|MW_BIGFONT);
 1924              		.loc 1 630 0
 1925 000a 4FF44072 		mov	r2, #768
 1926 000e 0093     		str	r3, [sp]
 621:src/comm.c    ****   BOOLEAN ret=TRUE;
 1927              		.loc 1 621 0
 1928 0010 0646     		mov	r6, r0
 1929 0012 0F46     		mov	r7, r1
 630:src/comm.c    ****   Disp2x16Msg(KCommConnectWait, MW_LINE5, MW_CENTER|MW_BIGFONT);
 1930              		.loc 1 630 0
 1931 0014 0F20     		movs	r0, #15
 1932              	.LVL199:
 1933 0016 2321     		movs	r1, #35
 1934              	.LVL200:
 633:src/comm.c    ****     if (ConnectPPP(TRUE) != COMM_OK)
 1935              		.loc 1 633 0
 1936 0018 644D     		ldr	r5, .L270
 630:src/comm.c    ****   Disp2x16Msg(KCommConnectWait, MW_LINE5, MW_CENTER|MW_BIGFONT);
 1937              		.loc 1 630 0
 1938 001a FFF7FEFF 		bl	lib_app_call
 1939              	.LVL201:
 631:src/comm.c    **** 
 1940              		.loc 1 631 0
 1941 001e 4FF4A061 		mov	r1, #1280
 1942 0022 6348     		ldr	r0, .L270+4
 1943 0024 41F20202 		movw	r2, #4098
 1944 0028 FFF7FEFF 		bl	Disp2x16Msg
 1945              	.LVL202:
 633:src/comm.c    ****     if (ConnectPPP(TRUE) != COMM_OK)
 1946              		.loc 1 633 0
 1947 002c D5F88C30 		ldr	r3, [r5, #140]
 1948 0030 1907     		lsls	r1, r3, #28
 1949 0032 09D1     		bne	.L221
 1950              	.L225:
 639:src/comm.c    ****   // check LAN cable inserted
 1951              		.loc 1 639 0
ARM GAS  C:\Users\AHMED~1.ELE\AppData\Local\Temp\ccosOURr.s 			page 59


 1952 0034 95F87730 		ldrb	r3, [r5, #119]	@ zero_extendqisi2
 1953 0038 03F06001 		and	r1, r3, #96
 1954 003c 03F00103 		and	r3, r3, #1
 1955              	.LVL203:
 642:src/comm.c    ****     if (!LanCableInsertedMW()) {
 1956              		.loc 1 642 0
 1957 0040 53EA1111 		orrs	r1, r3, r1, lsr #4
 1958              	.LVL204:
 1959 0044 28D1     		bne	.L265
 1960 0046 09E0     		b	.L269
 1961              	.LVL205:
 1962              	.L221:
 634:src/comm.c    ****       return COMM_NO_LINE;
 1963              		.loc 1 634 0
 1964 0048 0120     		movs	r0, #1
 1965 004a FFF7FEFF 		bl	ConnectPPP
 1966              	.LVL206:
 1967 004e 43F23003 		movw	r3, #12336
 1968 0052 9842     		cmp	r0, r3
 1969 0054 EED0     		beq	.L225
 635:src/comm.c    ****   }
 1970              		.loc 1 635 0
 1971 0056 44F64E40 		movw	r0, #19534
 1972 005a A3E0     		b	.L266
 1973              	.LVL207:
 1974              	.L269:
 643:src/comm.c    ****       // reset handle whenever LAN cable disconnected
 1975              		.loc 1 643 0
 1976 005c 4220     		movs	r0, #66
 1977 005e FFF7FEFF 		bl	base_func1
 1978              	.LVL208:
 1979 0062 10F00103 		ands	r3, r0, #1
 1980 0066 0DD1     		bne	.L226
 645:src/comm.c    ****         CloseMW(gTcpHandle);
 1981              		.loc 1 645 0
 1982 0068 524C     		ldr	r4, .L270+8
 1983 006a D4F80022 		ldr	r2, [r4, #512]
 1984 006e 002A     		cmp	r2, #0
 1985 0070 08DB     		blt	.L226
 646:src/comm.c    ****         gTcpHandle = -1;
 1986              		.loc 1 646 0
 1987 0072 0093     		str	r3, [sp]
 1988 0074 0F20     		movs	r0, #15
 1989 0076 0321     		movs	r1, #3
 1990 0078 FFF7FEFF 		bl	lib_app_call
 1991              	.LVL209:
 647:src/comm.c    ****       }
 1992              		.loc 1 647 0
 1993 007c 4FF0FF33 		mov	r3, #-1
 1994 0080 C4F80032 		str	r3, [r4, #512]
 1995              	.L226:
 650:src/comm.c    ****       ret = FALSE;
 1996              		.loc 1 650 0
 1997 0084 002E     		cmp	r6, #0
 1998 0086 00F08680 		beq	.L240
 654:src/comm.c    ****       host_timeout *= TIMER_1SEC;
 1999              		.loc 1 654 0
ARM GAS  C:\Users\AHMED~1.ELE\AppData\Local\Temp\ccosOURr.s 			page 60


 2000 008a E878     		ldrb	r0, [r5, #3]	@ zero_extendqisi2
 2001              	.LVL210:
 656:src/comm.c    ****         ret = FALSE;
 2002              		.loc 1 656 0
 2003 008c 6423     		movs	r3, #100
 2004 008e 3946     		mov	r1, r7
 2005 0090 5843     		muls	r0, r3, r0
 2006              	.LVL211:
 2007 0092 FFF7FEFF 		bl	WaitLanNetRdy
 2008              	.LVL212:
 2009 0096 21E0     		b	.L268
 2010              	.LVL213:
 2011              	.L265:
 660:src/comm.c    ****     if (NetInfoMW(MW_NIF_WIFI, &netinfo) && (netinfo.d_ip == 0)) {
 2012              		.loc 1 660 0
 2013 0098 4CB2     		sxtb	r4, r1
 2014 009a 032C     		cmp	r4, #3
 2015 009c 20D1     		bne	.L228
 661:src/comm.c    ****       // reset handle whenever Wifi disconnected
 2016              		.loc 1 661 0
 2017 009e 1320     		movs	r0, #19
 2018 00a0 2146     		mov	r1, r4
 2019 00a2 02AA     		add	r2, sp, #8
 2020 00a4 FFF7FEFF 		bl	base_func2
 2021              	.LVL214:
 2022 00a8 80B1     		cbz	r0, .L229
 661:src/comm.c    ****       // reset handle whenever Wifi disconnected
 2023              		.loc 1 661 0 is_stmt 0 discriminator 1
 2024 00aa 029B     		ldr	r3, [sp, #8]
 2025 00ac 73B9     		cbnz	r3, .L229
 663:src/comm.c    ****         CloseMW(gTcpHandle);
 2026              		.loc 1 663 0 is_stmt 1
 2027 00ae DFF80481 		ldr	r8, .L270+8
 2028 00b2 D8F80022 		ldr	r2, [r8, #512]
 2029 00b6 002A     		cmp	r2, #0
 2030 00b8 08DB     		blt	.L229
 664:src/comm.c    ****         gTcpHandle = -1;
 2031              		.loc 1 664 0
 2032 00ba 0093     		str	r3, [sp]
 2033 00bc 0F20     		movs	r0, #15
 2034 00be 2146     		mov	r1, r4
 2035 00c0 FFF7FEFF 		bl	lib_app_call
 2036              	.LVL215:
 665:src/comm.c    ****       }
 2037              		.loc 1 665 0
 2038 00c4 4FF0FF33 		mov	r3, #-1
 2039 00c8 C8F80032 		str	r3, [r8, #512]
 2040              	.L229:
 668:src/comm.c    ****       ret = FALSE;
 2041              		.loc 1 668 0
 2042 00cc 002E     		cmp	r6, #0
 2043 00ce 62D0     		beq	.L240
 672:src/comm.c    ****       host_timeout *= TIMER_1SEC;
 2044              		.loc 1 672 0
 2045 00d0 E878     		ldrb	r0, [r5, #3]	@ zero_extendqisi2
 2046              	.LVL216:
 674:src/comm.c    ****         ret = FALSE;
ARM GAS  C:\Users\AHMED~1.ELE\AppData\Local\Temp\ccosOURr.s 			page 61


 2047              		.loc 1 674 0
 2048 00d2 6423     		movs	r3, #100
 2049 00d4 3946     		mov	r1, r7
 2050 00d6 5843     		muls	r0, r3, r0
 2051              	.LVL217:
 2052 00d8 FFF7FEFF 		bl	WaitWifiNetRdy
 2053              	.LVL218:
 2054              	.L268:
 2055 00dc 0028     		cmp	r0, #0
 2056 00de 5AD0     		beq	.L240
 2057              	.L228:
 705:src/comm.c    ****       // open
 2058              		.loc 1 705 0
 2059 00e0 344C     		ldr	r4, .L270+8
 2060 00e2 D4F80032 		ldr	r3, [r4, #512]
 2061 00e6 002B     		cmp	r3, #0
 2062 00e8 20DA     		bge	.L231
 707:src/comm.c    ****       gTcpHandle = OpenMW(filename, MW_RDWR);
 2063              		.loc 1 707 0
 2064 00ea 3349     		ldr	r1, .L270+12
 2065 00ec 07A8     		add	r0, sp, #28
 2066 00ee FFF7FEFF 		bl	strcpy
 2067              	.LVL219:
 708:src/comm.c    ****       ret = (gTcpHandle >= 0)? TRUE : FALSE;
 2068              		.loc 1 708 0
 2069 00f2 0023     		movs	r3, #0
 2070 00f4 0F20     		movs	r0, #15
 2071 00f6 0093     		str	r3, [sp]
 2072 00f8 0221     		movs	r1, #2
 2073 00fa 07AA     		add	r2, sp, #28
 2074 00fc 0623     		movs	r3, #6
 2075 00fe FFF7FEFF 		bl	lib_app_call
 2076              	.LVL220:
 711:src/comm.c    ****         memcpy(&comm_param, &gCommParam, sizeof(struct COMMPARAM));
 2077              		.loc 1 711 0
 2078 0102 0028     		cmp	r0, #0
 708:src/comm.c    ****       ret = (gTcpHandle >= 0)? TRUE : FALSE;
 2079              		.loc 1 708 0
 2080 0104 8046     		mov	r8, r0
 2081 0106 C4F80002 		str	r0, [r4, #512]
 711:src/comm.c    ****         memcpy(&comm_param, &gCommParam, sizeof(struct COMMPARAM));
 2082              		.loc 1 711 0
 2083 010a 44DB     		blt	.L240
 712:src/comm.c    ****         if (IOCtlMW(gTcpHandle, IO_TCP_CONNECT2, &comm_param.sTcp.sTcpCfg) < 0) {
 2084              		.loc 1 712 0
 2085 010c 2749     		ldr	r1, .L270
 2086 010e 4FF40B72 		mov	r2, #556
 2087 0112 0FA8     		add	r0, sp, #60
 2088 0114 FFF7FEFF 		bl	memcpy
 2089              	.LVL221:
 713:src/comm.c    ****           ret = FALSE;
 2090              		.loc 1 713 0
 2091 0118 29AB     		add	r3, sp, #164
 2092 011a 0F20     		movs	r0, #15
 2093 011c 0093     		str	r3, [sp]
 2094 011e 0721     		movs	r1, #7
 2095 0120 4246     		mov	r2, r8
ARM GAS  C:\Users\AHMED~1.ELE\AppData\Local\Temp\ccosOURr.s 			page 62


 2096 0122 0323     		movs	r3, #3
 2097 0124 FFF7FEFF 		bl	lib_app_call
 2098              	.LVL222:
 2099 0128 0028     		cmp	r0, #0
 2100 012a 34DB     		blt	.L240
 2101              	.LVL223:
 2102              	.L231:
 721:src/comm.c    ****     host_timeout = gCommParam.bHostConnTime;
 2103              		.loc 1 721 0
 2104 012c 002E     		cmp	r6, #0
 2105 012e 37D0     		beq	.L233
 722:src/comm.c    ****     host_timeout *= TIMER_1SEC;
 2106              		.loc 1 722 0
 2107 0130 EA78     		ldrb	r2, [r5, #3]	@ zero_extendqisi2
 2108              	.LVL224:
 724:src/comm.c    ****     ret = FALSE;
 2109              		.loc 1 724 0
 2110 0132 224E     		ldr	r6, .L270+16
 2111 0134 6423     		movs	r3, #100
 2112 0136 0C20     		movs	r0, #12
 2113 0138 B168     		ldr	r1, [r6, #8]
 2114 013a 5A43     		muls	r2, r3, r2
 2115              	.LVL225:
 2116 013c FFF7FEFF 		bl	sys_func2
 2117              	.LVL226:
 2118 0140 B046     		mov	r8, r6
 2119              	.L237:
 729:src/comm.c    ****       if (gCommParam.sTcp.sTcpCfg.b_option & MW_TCP_SSL_MODE) {
 2120              		.loc 1 729 0
 2121 0142 0026     		movs	r6, #0
 727:src/comm.c    ****       //15-03-13 JC ++
 2122              		.loc 1 727 0
 2123 0144 4FF4CE70 		mov	r0, #412
 2124 0148 FFF7FEFF 		bl	sys_func0
 2125              	.LVL227:
 729:src/comm.c    ****       if (gCommParam.sTcp.sTcpCfg.b_option & MW_TCP_SSL_MODE) {
 2126              		.loc 1 729 0
 2127 014c 0096     		str	r6, [sp]
 2128 014e 3346     		mov	r3, r6
 2129 0150 D4F80022 		ldr	r2, [r4, #512]
 2130 0154 0F20     		movs	r0, #15
 2131 0156 0821     		movs	r1, #8
 2132 0158 FFF7FEFF 		bl	lib_app_call
 2133              	.LVL228:
 730:src/comm.c    ****         // SSL mode
 2134              		.loc 1 730 0
 2135 015c 95F87730 		ldrb	r3, [r5, #119]	@ zero_extendqisi2
 2136 0160 5A07     		lsls	r2, r3, #29
 2137 0162 02D5     		bpl	.L232
 732:src/comm.c    ****           ret = TRUE;
 2138              		.loc 1 732 0
 2139 0164 0304     		lsls	r3, r0, #16
 2140 0166 03D5     		bpl	.L234
 2141 0168 1AE0     		b	.L233
 2142              	.L232:
 739:src/comm.c    ****           ret = TRUE;
 2143              		.loc 1 739 0
ARM GAS  C:\Users\AHMED~1.ELE\AppData\Local\Temp\ccosOURr.s 			page 63


 2144 016a C0B2     		uxtb	r0, r0
 2145              	.LVL229:
 2146 016c 0228     		cmp	r0, #2
 2147 016e 17D0     		beq	.L233
 2148              	.L234:
 745:src/comm.c    ****         if (!aNoCancel)
 2149              		.loc 1 745 0
 2150 0170 0022     		movs	r2, #0
 2151 0172 0096     		str	r6, [sp]
 2152 0174 0F20     		movs	r0, #15
 2153 0176 1621     		movs	r1, #22
 2154 0178 1346     		mov	r3, r2
 2155 017a FFF7FEFF 		bl	lib_app_call
 2156              	.LVL230:
 2157 017e 1128     		cmp	r0, #17
 2158 0180 02D1     		bne	.L235
 746:src/comm.c    ****           break;
 2159              		.loc 1 746 0
 2160 0182 47B1     		cbz	r7, .L240
 748:src/comm.c    ****       }
 2161              		.loc 1 748 0
 2162 0184 FFF7FEFF 		bl	LongBeep
 2163              	.LVL231:
 2164              	.L235:
 750:src/comm.c    ****   }
 2165              		.loc 1 750 0
 2166 0188 0D20     		movs	r0, #13
 2167 018a D8F80810 		ldr	r1, [r8, #8]
 2168 018e FFF7FEFF 		bl	sys_func1
 2169              	.LVL232:
 2170 0192 0028     		cmp	r0, #0
 2171 0194 D5D1     		bne	.L237
 2172              	.LVL233:
 2173              	.L240:
 758:src/comm.c    ****     return COMM_NOT_CONNECT;
 2174              		.loc 1 758 0
 2175 0196 FFF7FEFF 		bl	ResetTcpip
 2176              	.LVL234:
 759:src/comm.c    ****   }
 2177              		.loc 1 759 0
 2178 019a 44F64360 		movw	r0, #20035
 2179 019e 01E0     		b	.L266
 2180              	.LVL235:
 2181              	.L233:
 755:src/comm.c    ****   }
 2182              		.loc 1 755 0
 2183 01a0 43F23000 		movw	r0, #12336
 2184              	.LVL236:
 2185              	.L266:
 761:src/comm.c    **** //*****************************************************************************
 2186              		.loc 1 761 0
 2187 01a4 0DF51A7D 		add	sp, sp, #616
 2188              		.cfi_def_cfa_offset 24
 2189              		@ sp needed
 2190 01a8 BDE8F081 		pop	{r4, r5, r6, r7, r8, pc}
 2191              	.L271:
 2192              		.align	2
ARM GAS  C:\Users\AHMED~1.ELE\AppData\Local\Temp\ccosOURr.s 			page 64


 2193              	.L270:
 2194 01ac 00000000 		.word	gCommParam
 2195 01b0 00000000 		.word	KCommConnectWait
 2196 01b4 00000000 		.word	.LANCHOR2
 2197 01b8 84000000 		.word	.LC12
 2198 01bc 00000000 		.word	gTimerHdl
 2199              		.cfi_endproc
 2200              	.LFE13:
 2201              		.size	ConnectTcpip, .-ConnectTcpip
 2202              		.section	.text.PackTelNo,"ax",%progbits
 2203              		.align	1
 2204              		.global	PackTelNo
 2205              		.thumb
 2206              		.thumb_func
 2207              		.type	PackTelNo, %function
 2208              	PackTelNo:
 2209              	.LFB26:
1074:src/comm.c    **** //*****************************************************************************
1075:src/comm.c    **** //  Function        : IsMdmLineDrop
1076:src/comm.c    **** //  Description     : Check for Modem line drop.
1077:src/comm.c    **** //  Input           : aStatus;        // current modem status;
1078:src/comm.c    **** //  Return          : TRUE/FALSE;
1079:src/comm.c    **** //  Note            : N/A
1080:src/comm.c    **** //  Globals Changed : N/A
1081:src/comm.c    **** //*****************************************************************************
1082:src/comm.c    **** static BOOLEAN IsMdmLineDrop(DWORD *aStatus)
1083:src/comm.c    **** {
1084:src/comm.c    ****   BOOLEAN ret=FALSE;
1085:src/comm.c    **** 
1086:src/comm.c    ****   *aStatus = (WORD) StatMW(gDevHandle[APM_SDEV_MDM], 0, NULL);
1087:src/comm.c    ****   if (*aStatus != MW_LINE_CONNECTED) {
1088:src/comm.c    ****     ret = TRUE;
1089:src/comm.c    ****   }
1090:src/comm.c    ****   return ret;
1091:src/comm.c    **** }
1092:src/comm.c    **** //******************************************************************************
1093:src/comm.c    **** //  Function        : ConvB2Comma
1094:src/comm.c    **** //  Description     : Convert the special character in buffer.
1095:src/comm.c    **** //  Input           : aPtr;    // pointer to buffer need to be convert.
1096:src/comm.c    **** //  Return          : N/A
1097:src/comm.c    **** //  Note            : 'B' => ','
1098:src/comm.c    **** //                    'D' => '*'
1099:src/comm.c    **** //                    'E' => '#'
1100:src/comm.c    **** //  Globals Changed : N/A
1101:src/comm.c    **** //******************************************************************************
1102:src/comm.c    **** static void ConvB2Comma(BYTE *aPtr)
1103:src/comm.c    **** {
1104:src/comm.c    ****   while (*aPtr) {
1105:src/comm.c    ****     if (*aPtr == 'B') *aPtr = ',';
1106:src/comm.c    ****     else if (*aPtr == 'D') *aPtr = '*';
1107:src/comm.c    ****     else if (*aPtr == 'E') *aPtr = '#';
1108:src/comm.c    ****     aPtr++;
1109:src/comm.c    ****   }
1110:src/comm.c    **** }
1111:src/comm.c    **** //******************************************************************************
1112:src/comm.c    **** //  Function        : PackTelNo
1113:src/comm.c    **** //  Description     : Pack telephone number together AT cmd & pabx.
ARM GAS  C:\Users\AHMED~1.ELE\AppData\Local\Temp\ccosOURr.s 			page 65


1114:src/comm.c    **** //  Input           : aTermData
1115:src/comm.c    **** //                    aTelBuf;       // pointer to result buffer.
1116:src/comm.c    **** //                    aTel;          // pointer to tel num with 'F' packed.
1117:src/comm.c    **** //  Return          : length of packed buffer.
1118:src/comm.c    **** //  Note            : N/A
1119:src/comm.c    **** //  Globals Changed : N/A
1120:src/comm.c    **** //******************************************************************************
1121:src/comm.c    **** BYTE PackTelNo(struct TERM_DATA aTermData, BYTE *aTelBuf, BYTE *aTel)
1122:src/comm.c    **** {
 2210              		.loc 1 1122 0
 2211              		.cfi_startproc
 2212              		@ args = 376, pretend = 16, frame = 0
 2213              		@ frame_needed = 0, uses_anonymous_args = 0
 2214              	.LVL237:
 2215 0000 84B0     		sub	sp, sp, #16
 2216              		.cfi_def_cfa_offset 16
 2217 0002 38B5     		push	{r3, r4, r5, lr}
 2218              		.cfi_def_cfa_offset 32
 2219              		.cfi_offset 3, -32
 2220              		.cfi_offset 4, -28
 2221              		.cfi_offset 5, -24
 2222              		.cfi_offset 14, -20
 2223              		.loc 1 1122 0
 2224 0004 04AC     		add	r4, sp, #16
 2225 0006 84E80F00 		stmia	r4, {r0, r1, r2, r3}
 2226 000a 609C     		ldr	r4, [sp, #384]
1123:src/comm.c    ****   BYTE count;
1124:src/comm.c    **** 
1125:src/comm.c    ****   memset(aTelBuf,0,34);
 2227              		.loc 1 1125 0
 2228 000c 0021     		movs	r1, #0
 2229 000e 2046     		mov	r0, r4
 2230 0010 2222     		movs	r2, #34
 2231 0012 FFF7FEFF 		bl	memset
 2232              	.LVL238:
1126:src/comm.c    ****   count = 0;
1127:src/comm.c    ****   aTelBuf[count++] = aTermData.b_dial_mode == 0 ? 'T' : 'P';
 2233              		.loc 1 1127 0
 2234 0016 9DF83930 		ldrb	r3, [sp, #57]	@ zero_extendqisi2
 2235 001a 2046     		mov	r0, r4
 2236 001c 002B     		cmp	r3, #0
 2237 001e 0CBF     		ite	eq
 2238 0020 5423     		moveq	r3, #84
 2239 0022 5023     		movne	r3, #80
1128:src/comm.c    ****   split(&aTelBuf[count], aTermData.sb_pabx, 4);
 2240              		.loc 1 1128 0
 2241 0024 0DF13A01 		add	r1, sp, #58
1127:src/comm.c    ****   split(&aTelBuf[count], aTermData.sb_pabx, 4);
 2242              		.loc 1 1127 0
 2243 0028 00F8013B 		strb	r3, [r0], #1
 2244              		.loc 1 1128 0
 2245 002c 0422     		movs	r2, #4
 2246 002e FFF7FEFF 		bl	split
 2247              	.LVL239:
1129:src/comm.c    ****   count = (BYTE)fndb(aTelBuf,'F', 9);
 2248              		.loc 1 1129 0
 2249 0032 2046     		mov	r0, r4
ARM GAS  C:\Users\AHMED~1.ELE\AppData\Local\Temp\ccosOURr.s 			page 66


 2250 0034 4621     		movs	r1, #70
 2251 0036 0922     		movs	r2, #9
 2252 0038 FFF7FEFF 		bl	fndb
 2253              	.LVL240:
1130:src/comm.c    ****   split(&aTelBuf[count],aTel,12);
 2254              		.loc 1 1130 0
 2255 003c 6199     		ldr	r1, [sp, #388]
 2256 003e 0C22     		movs	r2, #12
1129:src/comm.c    ****   count = (BYTE)fndb(aTelBuf,'F', 9);
 2257              		.loc 1 1129 0
 2258 0040 0546     		mov	r5, r0
 2259              	.LVL241:
 2260              		.loc 1 1130 0
 2261 0042 54FA80F0 		uxtab	r0, r4, r0
 2262              	.LVL242:
 2263 0046 FFF7FEFF 		bl	split
 2264              	.LVL243:
1131:src/comm.c    ****   count = (BYTE) fndb(aTelBuf, 'F', (BYTE)(count+24));
 2265              		.loc 1 1131 0
 2266 004a 05F11802 		add	r2, r5, #24
 2267 004e 2046     		mov	r0, r4
 2268 0050 4621     		movs	r1, #70
 2269 0052 D2B2     		uxtb	r2, r2
 2270 0054 FFF7FEFF 		bl	fndb
 2271              	.LVL244:
1132:src/comm.c    ****   aTelBuf[count] = 0;
 2272              		.loc 1 1132 0
 2273 0058 0023     		movs	r3, #0
1131:src/comm.c    ****   count = (BYTE) fndb(aTelBuf, 'F', (BYTE)(count+24));
 2274              		.loc 1 1131 0
 2275 005a C0B2     		uxtb	r0, r0
 2276              	.LVL245:
 2277              		.loc 1 1132 0
 2278 005c 2354     		strb	r3, [r4, r0]
 2279              	.LVL246:
 2280 005e 013C     		subs	r4, r4, #1
 2281              	.LVL247:
 2282              	.L274:
 2283              	.LBB24:
 2284              	.LBB25:
1104:src/comm.c    ****     if (*aPtr == 'B') *aPtr = ',';
 2285              		.loc 1 1104 0
 2286 0060 14F8013F 		ldrb	r3, [r4, #1]!	@ zero_extendqisi2
 2287              	.LVL248:
 2288 0064 63B1     		cbz	r3, .L281
1105:src/comm.c    ****     else if (*aPtr == 'D') *aPtr = '*';
 2289              		.loc 1 1105 0
 2290 0066 422B     		cmp	r3, #66
 2291 0068 01D1     		bne	.L275
 2292 006a 2C23     		movs	r3, #44
 2293 006c 06E0     		b	.L280
 2294              	.L275:
1106:src/comm.c    ****     else if (*aPtr == 'E') *aPtr = '#';
 2295              		.loc 1 1106 0
 2296 006e 442B     		cmp	r3, #68
 2297 0070 01D1     		bne	.L277
 2298 0072 2A23     		movs	r3, #42
ARM GAS  C:\Users\AHMED~1.ELE\AppData\Local\Temp\ccosOURr.s 			page 67


 2299 0074 02E0     		b	.L280
 2300              	.L277:
1107:src/comm.c    ****     aPtr++;
 2301              		.loc 1 1107 0
 2302 0076 452B     		cmp	r3, #69
 2303 0078 F2D1     		bne	.L274
 2304 007a 2323     		movs	r3, #35
 2305              	.L280:
 2306 007c 2370     		strb	r3, [r4]
 2307              	.LVL249:
 2308 007e EFE7     		b	.L274
 2309              	.LVL250:
 2310              	.L281:
 2311              	.LBE25:
 2312              	.LBE24:
1133:src/comm.c    ****   ConvB2Comma(aTelBuf);
1134:src/comm.c    **** 
1135:src/comm.c    ****   return(count);
1136:src/comm.c    **** }
 2313              		.loc 1 1136 0
 2314 0080 BDE83840 		pop	{r3, r4, r5, lr}
 2315              		.cfi_restore 14
 2316              		.cfi_restore 5
 2317              		.cfi_restore 4
 2318              		.cfi_restore 3
 2319              		.cfi_def_cfa_offset 16
 2320              	.LVL251:
 2321 0084 04B0     		add	sp, sp, #16
 2322              		.cfi_def_cfa_offset 0
 2323 0086 7047     		bx	lr
 2324              		.cfi_endproc
 2325              	.LFE26:
 2326              		.size	PackTelNo, .-PackTelNo
 2327              		.section	.text.SetGPRS,"ax",%progbits
 2328              		.align	1
 2329              		.global	SetGPRS
 2330              		.thumb
 2331              		.thumb_func
 2332              		.type	SetGPRS, %function
 2333              	SetGPRS:
 2334              	.LFB27:
1137:src/comm.c    **** //*****************************************************************************
1138:src/comm.c    **** //  Function        : SetGPRS
1139:src/comm.c    **** //  Description     : Setup GPRS communication related parameters
1140:src/comm.c    **** //  Input           : N/A
1141:src/comm.c    **** //  Return          : N/A
1142:src/comm.c    **** //  Note            : N/A
1143:src/comm.c    **** //  Globals Changed : N/A
1144:src/comm.c    **** //*****************************************************************************
1145:src/comm.c    **** BOOLEAN SetGPRS(void)
1146:src/comm.c    **** {
 2335              		.loc 1 1146 0
 2336              		.cfi_startproc
 2337              		@ args = 0, pretend = 0, frame = 1288
 2338              		@ frame_needed = 0, uses_anonymous_args = 0
 2339              	.LVL252:
 2340 0000 F0B5     		push	{r4, r5, r6, r7, lr}
ARM GAS  C:\Users\AHMED~1.ELE\AppData\Local\Temp\ccosOURr.s 			page 68


 2341              		.cfi_def_cfa_offset 20
 2342              		.cfi_offset 4, -20
 2343              		.cfi_offset 5, -16
 2344              		.cfi_offset 6, -12
 2345              		.cfi_offset 7, -8
 2346              		.cfi_offset 14, -4
 2347              	.LBB26:
1147:src/comm.c    ****   int  fd, len;
1148:src/comm.c    ****   struct GPRSPPP gprs_dat;
1149:src/comm.c    ****   char tmp[256];
1150:src/comm.c    ****   DWORD status;
1151:src/comm.c    ****   int iOpt;
1152:src/comm.c    ****   BYTE bSimNum;
1153:src/comm.c    **** 
1154:src/comm.c    ****   DispLineMW("GPRS Setup", MW_LINE1, MW_CLRDISP|MW_REVERSE|MW_CENTER|MW_BIGFONT);
 2348              		.loc 1 1154 0
 2349 0002 9220     		movs	r0, #146
 2350              	.LBE26:
1146:src/comm.c    ****   int  fd, len;
 2351              		.loc 1 1146 0
 2352 0004 ADF2145D 		subw	sp, sp, #1300
 2353              		.cfi_def_cfa_offset 1320
 2354              	.LBB27:
 2355              		.loc 1 1154 0
 2356 0008 0B21     		movs	r1, #11
 2357 000a FFF7FEFF 		bl	sys_func1
 2358              	.LVL253:
 2359 000e 0446     		mov	r4, r0
 2360 0010 98B1     		cbz	r0, .L283
 2361              		.loc 1 1154 0 is_stmt 0 discriminator 1
 2362 0012 4649     		ldr	r1, .L338
 2363 0014 0A22     		movs	r2, #10
 2364 0016 FFF7FEFF 		bl	memcpy
 2365              	.LVL254:
 2366 001a 0023     		movs	r3, #0
 2367 001c 2521     		movs	r1, #37
 2368 001e A372     		strb	r3, [r4, #10]
 2369 0020 41F29203 		movw	r3, #4242
 2370 0024 0F20     		movs	r0, #15
 2371 0026 0093     		str	r3, [sp]
 2372 0028 2246     		mov	r2, r4
 2373 002a 4FF48073 		mov	r3, #256
 2374 002e FFF7FEFF 		bl	lib_app_call
 2375              	.LVL255:
 2376 0032 9420     		movs	r0, #148
 2377 0034 2146     		mov	r1, r4
 2378 0036 FFF7FEFF 		bl	sys_func1
 2379              	.LVL256:
 2380              	.L283:
 2381              	.LBE27:
1155:src/comm.c    **** 
1156:src/comm.c    ****   // select sim slot
1157:src/comm.c    ****   #if (T700|A5T1000|T300|T810)
1158:src/comm.c    ****   {      
1159:src/comm.c    ****     GetSysCfgMW(MW_SYSCFG_SIMSEL, &bSimNum);
 2382              		.loc 1 1159 0 is_stmt 1
 2383 003a 0DF10F05 		add	r5, sp, #15
ARM GAS  C:\Users\AHMED~1.ELE\AppData\Local\Temp\ccosOURr.s 			page 69


 2384 003e 2121     		movs	r1, #33
 2385 0040 2A46     		mov	r2, r5
 2386 0042 B920     		movs	r0, #185
 2387 0044 FFF7FEFF 		bl	sys_func2
 2388              	.LVL257:
1160:src/comm.c    ****     iOpt = bSimNum;
1161:src/comm.c    ****     iOpt = ToggleOption("SIM Num", KSimSel, iOpt);
 2389              		.loc 1 1161 0
 2390 0048 3948     		ldr	r0, .L338+4
 2391 004a 3A49     		ldr	r1, .L338+8
 2392 004c 2A78     		ldrb	r2, [r5]	@ zero_extendqisi2
 2393              	.LVL258:
 2394 004e FFF7FEFF 		bl	ToggleOption
 2395              	.LVL259:
1162:src/comm.c    ****     if (iOpt >= 0) {
 2396              		.loc 1 1162 0
 2397 0052 071E     		subs	r7, r0, #0
 2398 0054 01DA     		bge	.L284
 2399              	.LVL260:
 2400              	.L294:
1163:src/comm.c    ****       if (bSimNum != iOpt) {
1164:src/comm.c    ****         DispClrBelowMW(MW_LINE3);
1165:src/comm.c    ****         DispLineMW("Pls Wait..", MW_LINE3, MW_CENTER|MW_BIGFONT);
1166:src/comm.c    ****         if (IOCtlMW(gDevHandle[APM_SDEV_PPP], IO_PPP_GET_PHASE, NULL) == MW_PPP_PHASE_READY) {
1167:src/comm.c    ****           IOCtlMW(gDevHandle[APM_SDEV_PPP], IO_PPP_DISCONNECT, NULL);
1168:src/comm.c    ****           while (1) {
1169:src/comm.c    ****             status = IOCtlMW(gDevHandle[APM_SDEV_PPP], IO_PPP_GET_PHASE, NULL);
1170:src/comm.c    ****             if ((status == MW_PPP_PHASE_IDLE) || (status == MW_PPP_PHASE_DEAD))// || (status == MW_
1171:src/comm.c    ****               break;
1172:src/comm.c    ****             if (GetCharMW() != MWKEY_CANCL)
1173:src/comm.c    ****               break;
1174:src/comm.c    ****           }
1175:src/comm.c    ****         }
1176:src/comm.c    ****         DispLineMW("Pls Wait...", MW_LINE3, MW_CENTER|MW_BIGFONT);
1177:src/comm.c    ****         bSimNum = iOpt;
1178:src/comm.c    ****         IOCtlMW(gDevHandle[APM_SDEV_GPRS], IO_GPRS_SIM_SEL, &bSimNum);      
1179:src/comm.c    ****       }
1180:src/comm.c    ****       DispClrBelowMW(MW_LINE3);
1181:src/comm.c    ****     }
1182:src/comm.c    ****     else
1183:src/comm.c    ****       return FALSE;
 2401              		.loc 1 1183 0
 2402 0056 0020     		movs	r0, #0
 2403 0058 EBE1     		b	.L285
 2404              	.LVL261:
 2405              	.L284:
1163:src/comm.c    ****       if (bSimNum != iOpt) {
 2406              		.loc 1 1163 0
 2407 005a 2B78     		ldrb	r3, [r5]	@ zero_extendqisi2
 2408 005c BB42     		cmp	r3, r7
 2409 005e 79D0     		beq	.L286
1164:src/comm.c    ****         DispLineMW("Pls Wait..", MW_LINE3, MW_CENTER|MW_BIGFONT);
 2410              		.loc 1 1164 0
 2411 0060 0026     		movs	r6, #0
 2412 0062 2321     		movs	r1, #35
 2413 0064 4FF44072 		mov	r2, #768
 2414 0068 3346     		mov	r3, r6
ARM GAS  C:\Users\AHMED~1.ELE\AppData\Local\Temp\ccosOURr.s 			page 70


 2415 006a 0096     		str	r6, [sp]
 2416 006c 0F20     		movs	r0, #15
 2417              	.LVL262:
 2418 006e FFF7FEFF 		bl	lib_app_call
 2419              	.LVL263:
 2420              	.LBB28:
1165:src/comm.c    ****         if (IOCtlMW(gDevHandle[APM_SDEV_PPP], IO_PPP_GET_PHASE, NULL) == MW_PPP_PHASE_READY) {
 2421              		.loc 1 1165 0
 2422 0072 9220     		movs	r0, #146
 2423 0074 0B21     		movs	r1, #11
 2424 0076 FFF7FEFF 		bl	sys_func1
 2425              	.LVL264:
 2426 007a 0446     		mov	r4, r0
 2427              	.LVL265:
 2428 007c 90B1     		cbz	r0, .L287
1165:src/comm.c    ****         if (IOCtlMW(gDevHandle[APM_SDEV_PPP], IO_PPP_GET_PHASE, NULL) == MW_PPP_PHASE_READY) {
 2429              		.loc 1 1165 0 is_stmt 0 discriminator 1
 2430 007e 2E49     		ldr	r1, .L338+12
 2431 0080 0A22     		movs	r2, #10
 2432 0082 FFF7FEFF 		bl	memcpy
 2433              	.LVL266:
 2434 0086 41F20203 		movw	r3, #4098
 2435 008a A672     		strb	r6, [r4, #10]
 2436 008c 2521     		movs	r1, #37
 2437 008e 0093     		str	r3, [sp]
 2438 0090 0F20     		movs	r0, #15
 2439 0092 2246     		mov	r2, r4
 2440 0094 4FF44073 		mov	r3, #768
 2441 0098 FFF7FEFF 		bl	lib_app_call
 2442              	.LVL267:
 2443 009c 9420     		movs	r0, #148
 2444 009e 2146     		mov	r1, r4
 2445 00a0 FFF7FEFF 		bl	sys_func1
 2446              	.LVL268:
 2447              	.L287:
 2448              	.LBE28:
1166:src/comm.c    ****           IOCtlMW(gDevHandle[APM_SDEV_PPP], IO_PPP_DISCONNECT, NULL);
 2449              		.loc 1 1166 0 is_stmt 1
 2450 00a4 254C     		ldr	r4, .L338+16
 2451              	.LVL269:
 2452 00a6 0026     		movs	r6, #0
 2453 00a8 0F20     		movs	r0, #15
 2454 00aa 0096     		str	r6, [sp]
 2455 00ac 0721     		movs	r1, #7
 2456 00ae E268     		ldr	r2, [r4, #12]
 2457 00b0 0523     		movs	r3, #5
 2458 00b2 FFF7FEFF 		bl	lib_app_call
 2459              	.LVL270:
 2460 00b6 0528     		cmp	r0, #5
 2461 00b8 1BD0     		beq	.L288
 2462              	.L291:
 2463              	.LVL271:
 2464              	.LBB29:
1176:src/comm.c    ****         bSimNum = iOpt;
 2465              		.loc 1 1176 0
 2466 00ba 9220     		movs	r0, #146
 2467 00bc 0C21     		movs	r1, #12
ARM GAS  C:\Users\AHMED~1.ELE\AppData\Local\Temp\ccosOURr.s 			page 71


 2468 00be FFF7FEFF 		bl	sys_func1
 2469              	.LVL272:
 2470 00c2 0646     		mov	r6, r0
 2471 00c4 0028     		cmp	r0, #0
 2472 00c6 3DD0     		beq	.L290
1176:src/comm.c    ****         bSimNum = iOpt;
 2473              		.loc 1 1176 0 is_stmt 0 discriminator 1
 2474 00c8 1D49     		ldr	r1, .L338+20
 2475 00ca 0B22     		movs	r2, #11
 2476 00cc FFF7FEFF 		bl	memcpy
 2477              	.LVL273:
 2478 00d0 0023     		movs	r3, #0
 2479 00d2 2521     		movs	r1, #37
 2480 00d4 F372     		strb	r3, [r6, #11]
 2481 00d6 41F20203 		movw	r3, #4098
 2482 00da 3246     		mov	r2, r6
 2483 00dc 0093     		str	r3, [sp]
 2484 00de 0F20     		movs	r0, #15
 2485 00e0 4FF44073 		mov	r3, #768
 2486 00e4 FFF7FEFF 		bl	lib_app_call
 2487              	.LVL274:
 2488 00e8 3146     		mov	r1, r6
 2489 00ea 9420     		movs	r0, #148
 2490 00ec FFF7FEFF 		bl	sys_func1
 2491              	.LVL275:
 2492 00f0 28E0     		b	.L290
 2493              	.LVL276:
 2494              	.L288:
 2495              	.LBE29:
1167:src/comm.c    ****           while (1) {
 2496              		.loc 1 1167 0 is_stmt 1
 2497 00f2 0096     		str	r6, [sp]
 2498 00f4 0F20     		movs	r0, #15
 2499 00f6 0721     		movs	r1, #7
 2500 00f8 E268     		ldr	r2, [r4, #12]
 2501 00fa 1323     		movs	r3, #19
 2502 00fc FFF7FEFF 		bl	lib_app_call
 2503              	.LVL277:
 2504              	.L292:
1169:src/comm.c    ****             if ((status == MW_PPP_PHASE_IDLE) || (status == MW_PPP_PHASE_DEAD))// || (status == MW_
 2505              		.loc 1 1169 0
 2506 0100 0026     		movs	r6, #0
 2507 0102 0F20     		movs	r0, #15
 2508 0104 0096     		str	r6, [sp]
 2509 0106 0721     		movs	r1, #7
 2510 0108 E268     		ldr	r2, [r4, #12]
 2511 010a 0523     		movs	r3, #5
 2512 010c FFF7FEFF 		bl	lib_app_call
 2513              	.LVL278:
1170:src/comm.c    ****               break;
 2514              		.loc 1 1170 0
 2515 0110 0138     		subs	r0, r0, #1
 2516              	.LVL279:
 2517 0112 0330     		adds	r0, r0, #3
 2518              	.LVL280:
 2519 0114 D1D8     		bhi	.L291
1172:src/comm.c    ****               break;
ARM GAS  C:\Users\AHMED~1.ELE\AppData\Local\Temp\ccosOURr.s 			page 72


 2520              		.loc 1 1172 0
 2521 0116 0096     		str	r6, [sp]
 2522 0118 0F20     		movs	r0, #15
 2523              	.LVL281:
 2524 011a 1621     		movs	r1, #22
 2525 011c 3246     		mov	r2, r6
 2526 011e 3346     		mov	r3, r6
 2527 0120 FFF7FEFF 		bl	lib_app_call
 2528              	.LVL282:
 2529 0124 1128     		cmp	r0, #17
 2530 0126 EBD0     		beq	.L292
 2531 0128 C7E7     		b	.L291
 2532              	.L339:
 2533 012a 00BF     		.align	2
 2534              	.L338:
 2535 012c 8E000000 		.word	.LC13
 2536 0130 99000000 		.word	.LC14
 2537 0134 00000000 		.word	KSimSel
 2538 0138 A1000000 		.word	.LC15
 2539 013c 00000000 		.word	gDevHandle
 2540 0140 AC000000 		.word	.LC16
 2541              	.LVL283:
 2542              	.L290:
1177:src/comm.c    ****         IOCtlMW(gDevHandle[APM_SDEV_GPRS], IO_GPRS_SIM_SEL, &bSimNum);      
 2543              		.loc 1 1177 0
 2544 0144 2F70     		strb	r7, [r5]
1178:src/comm.c    ****       }
 2545              		.loc 1 1178 0
 2546 0146 0F20     		movs	r0, #15
 2547 0148 0095     		str	r5, [sp]
 2548 014a 0721     		movs	r1, #7
 2549 014c A268     		ldr	r2, [r4, #8]
 2550 014e 0823     		movs	r3, #8
 2551 0150 FFF7FEFF 		bl	lib_app_call
 2552              	.LVL284:
 2553              	.L286:
1180:src/comm.c    ****     }
 2554              		.loc 1 1180 0
 2555 0154 0026     		movs	r6, #0
 2556 0156 2321     		movs	r1, #35
 2557 0158 4FF44072 		mov	r2, #768
 2558 015c 3346     		mov	r3, r6
 2559 015e 0096     		str	r6, [sp]
 2560 0160 0F20     		movs	r0, #15
 2561 0162 FFF7FEFF 		bl	lib_app_call
 2562              	.LVL285:
 2563              	.LBB30:
1184:src/comm.c    ****   }
1185:src/comm.c    ****   #elif (T1000)
1186:src/comm.c    ****   {      
1187:src/comm.c    ****     os_config_read(K_CF_SimSelect, &bSimNum);
1188:src/comm.c    ****     iOpt = bSimNum;
1189:src/comm.c    ****     iOpt = ToggleOption("SIM Num", KSimSel, iOpt);
1190:src/comm.c    ****     if (iOpt >= 0) {
1191:src/comm.c    ****       if (bSimNum != iOpt) {
1192:src/comm.c    ****         DispClrBelowMW(MW_LINE3);
1193:src/comm.c    ****         DispLineMW("Pls Wait", MW_LINE3, MW_CENTER|MW_BIGFONT);
ARM GAS  C:\Users\AHMED~1.ELE\AppData\Local\Temp\ccosOURr.s 			page 73


1194:src/comm.c    ****         if (IOCtlMW(gDevHandle[APM_SDEV_PPP], IO_PPP_GET_PHASE, NULL) == MW_PPP_PHASE_READY) {
1195:src/comm.c    ****           IOCtlMW(gDevHandle[APM_SDEV_PPP], IO_PPP_DISCONNECT, NULL);
1196:src/comm.c    ****           while (1) {
1197:src/comm.c    ****             status = IOCtlMW(gDevHandle[APM_SDEV_PPP], IO_PPP_GET_PHASE, NULL);
1198:src/comm.c    ****             if ((status == MW_PPP_PHASE_IDLE) || (status == MW_PPP_PHASE_DEAD))// || (status == MW_
1199:src/comm.c    ****               break;
1200:src/comm.c    ****             if (GetCharMW() != MWKEY_CANCL)
1201:src/comm.c    ****               break;
1202:src/comm.c    ****           }
1203:src/comm.c    ****         }
1204:src/comm.c    ****         DispLineMW("Pls Wait...", MW_LINE3, MW_CENTER|MW_BIGFONT);
1205:src/comm.c    ****         bSimNum = iOpt;
1206:src/comm.c    ****         os_config_write(K_CF_SimSelect, &bSimNum);
1207:src/comm.c    ****         os_config_update();
1208:src/comm.c    ****         os_gprs_reset(K_GPRS_MODE_NORMAL);
1209:src/comm.c    ****       }
1210:src/comm.c    ****       DispClrBelowMW(MW_LINE3);
1211:src/comm.c    ****     }      
1212:src/comm.c    ****     else
1213:src/comm.c    ****       return FALSE;
1214:src/comm.c    ****   }
1215:src/comm.c    ****   #endif
1216:src/comm.c    ****   
1217:src/comm.c    ****   // APN
1218:src/comm.c    ****   DispLineMW(KApn, MW_LINE5, MW_BIGFONT);
 2564              		.loc 1 1218 0
 2565 0166 B448     		ldr	r0, .L340
 2566 0168 FFF7FEFF 		bl	strlen
 2567              	.LVL286:
 2568 016c 0546     		mov	r5, r0
 2569              	.LVL287:
 2570 016e 691C     		adds	r1, r5, #1
 2571 0170 9220     		movs	r0, #146
 2572              	.LVL288:
 2573 0172 FFF7FEFF 		bl	sys_func1
 2574              	.LVL289:
 2575 0176 0446     		mov	r4, r0
 2576 0178 90B1     		cbz	r0, .L293
 2577              		.loc 1 1218 0 is_stmt 0 discriminator 1
 2578 017a AF49     		ldr	r1, .L340
 2579 017c 2A46     		mov	r2, r5
 2580 017e FFF7FEFF 		bl	memcpy
 2581              	.LVL290:
 2582 0182 4FF48053 		mov	r3, #4096
 2583 0186 6655     		strb	r6, [r4, r5]
 2584 0188 2521     		movs	r1, #37
 2585 018a 0093     		str	r3, [sp]
 2586 018c 0F20     		movs	r0, #15
 2587 018e 2246     		mov	r2, r4
 2588 0190 4FF4A063 		mov	r3, #1280
 2589 0194 FFF7FEFF 		bl	lib_app_call
 2590              	.LVL291:
 2591 0198 9420     		movs	r0, #148
 2592 019a 2146     		mov	r1, r4
 2593 019c FFF7FEFF 		bl	sys_func1
 2594              	.LVL292:
 2595              	.L293:
ARM GAS  C:\Users\AHMED~1.ELE\AppData\Local\Temp\ccosOURr.s 			page 74


 2596              	.LBE30:
1219:src/comm.c    ****   strcpy(&tmp[1], gGPRSDat.scAPN);
 2597              		.loc 1 1219 0 is_stmt 1
 2598 01a0 0DF11104 		add	r4, sp, #17
 2599              	.LVL293:
 2600 01a4 A549     		ldr	r1, .L340+4
 2601 01a6 2046     		mov	r0, r4
 2602 01a8 FFF7FEFF 		bl	strcpy
 2603              	.LVL294:
1220:src/comm.c    ****   tmp[0] = strlen(gGPRSDat.scAPN);
 2604              		.loc 1 1220 0
 2605 01ac A348     		ldr	r0, .L340+4
 2606 01ae FFF7FEFF 		bl	strlen
 2607              	.LVL295:
1221:src/comm.c    ****   if (!GetKbd(ALPHA_INPUT_NEW+ECHO+MW_LINE7+MW_BIGFONT+RIGHT_JUST, IMAX(32), tmp))
 2608              		.loc 1 1221 0
 2609 01b2 2021     		movs	r1, #32
 2610 01b4 04AA     		add	r2, sp, #16
1220:src/comm.c    ****   tmp[0] = strlen(gGPRSDat.scAPN);
 2611              		.loc 1 1220 0
 2612 01b6 8DF81000 		strb	r0, [sp, #16]
 2613              		.loc 1 1221 0
 2614 01ba A148     		ldr	r0, .L340+8
 2615 01bc FFF7FEFF 		bl	GetKbd
 2616              	.LVL296:
 2617 01c0 0028     		cmp	r0, #0
 2618 01c2 3FF448AF 		beq	.L294
1222:src/comm.c    ****     return FALSE;
1223:src/comm.c    ****   memset(gGPRSDat.scAPN, 0x00, sizeof(gGPRSDat.scAPN));
 2619              		.loc 1 1223 0
 2620 01c6 0021     		movs	r1, #0
 2621 01c8 4FF48072 		mov	r2, #256
 2622 01cc 9B48     		ldr	r0, .L340+4
 2623 01ce FFF7FEFF 		bl	memset
 2624              	.LVL297:
1224:src/comm.c    ****   memcpy(gGPRSDat.scAPN, &tmp[1], tmp[0]);
1225:src/comm.c    ****   sprintf(gPDPContext, "AT+CGDCONT=1,\"IP\",\"%s\"", gGPRSDat.scAPN);
1226:src/comm.c    **** 
1227:src/comm.c    ****   // Login Name
1228:src/comm.c    ****   DispClrBelowMW(MW_LINE3);
 2625              		.loc 1 1228 0
 2626 01d2 0026     		movs	r6, #0
1224:src/comm.c    ****   memcpy(gGPRSDat.scAPN, &tmp[1], tmp[0]);
 2627              		.loc 1 1224 0
 2628 01d4 2146     		mov	r1, r4
 2629 01d6 9DF91020 		ldrsb	r2, [sp, #16]
 2630 01da 9848     		ldr	r0, .L340+4
 2631 01dc FFF7FEFF 		bl	memcpy
 2632              	.LVL298:
1225:src/comm.c    **** 
 2633              		.loc 1 1225 0
 2634 01e0 9849     		ldr	r1, .L340+12
 2635 01e2 964A     		ldr	r2, .L340+4
 2636 01e4 9848     		ldr	r0, .L340+16
 2637 01e6 FFF7FEFF 		bl	sprintf
 2638              	.LVL299:
 2639              		.loc 1 1228 0
ARM GAS  C:\Users\AHMED~1.ELE\AppData\Local\Temp\ccosOURr.s 			page 75


 2640 01ea 2321     		movs	r1, #35
 2641 01ec 4FF44072 		mov	r2, #768
 2642 01f0 3346     		mov	r3, r6
 2643 01f2 0096     		str	r6, [sp]
 2644 01f4 0F20     		movs	r0, #15
 2645 01f6 FFF7FEFF 		bl	lib_app_call
 2646              	.LVL300:
 2647              	.LBB31:
1229:src/comm.c    ****   DispLineMW(KUserName, MW_LINE5, MW_BIGFONT);
 2648              		.loc 1 1229 0
 2649 01fa 9448     		ldr	r0, .L340+20
 2650 01fc FFF7FEFF 		bl	strlen
 2651              	.LVL301:
 2652 0200 0546     		mov	r5, r0
 2653              	.LVL302:
 2654 0202 691C     		adds	r1, r5, #1
 2655 0204 9220     		movs	r0, #146
 2656              	.LVL303:
 2657 0206 FFF7FEFF 		bl	sys_func1
 2658              	.LVL304:
 2659 020a 0446     		mov	r4, r0
 2660 020c 90B1     		cbz	r0, .L295
 2661              		.loc 1 1229 0 is_stmt 0 discriminator 1
 2662 020e 8F49     		ldr	r1, .L340+20
 2663 0210 2A46     		mov	r2, r5
 2664 0212 FFF7FEFF 		bl	memcpy
 2665              	.LVL305:
 2666 0216 4FF48053 		mov	r3, #4096
 2667 021a 6655     		strb	r6, [r4, r5]
 2668 021c 2521     		movs	r1, #37
 2669 021e 0093     		str	r3, [sp]
 2670 0220 0F20     		movs	r0, #15
 2671 0222 2246     		mov	r2, r4
 2672 0224 4FF4A063 		mov	r3, #1280
 2673 0228 FFF7FEFF 		bl	lib_app_call
 2674              	.LVL306:
 2675 022c 9420     		movs	r0, #148
 2676 022e 2146     		mov	r1, r4
 2677 0230 FFF7FEFF 		bl	sys_func1
 2678              	.LVL307:
 2679              	.L295:
 2680              	.LBE31:
1230:src/comm.c    ****   tmp[0]=strlen(gGPRSDat.scUserName);
 2681              		.loc 1 1230 0 is_stmt 1
 2682 0234 8648     		ldr	r0, .L340+24
 2683 0236 FFF7FEFF 		bl	strlen
 2684              	.LVL308:
 2685 023a 04AC     		add	r4, sp, #16
 2686              	.LVL309:
1231:src/comm.c    ****   strcpy(&tmp[1], gGPRSDat.scUserName);
 2687              		.loc 1 1231 0
 2688 023c 8449     		ldr	r1, .L340+24
1230:src/comm.c    ****   tmp[0]=strlen(gGPRSDat.scUserName);
 2689              		.loc 1 1230 0
 2690 023e 04F8010B 		strb	r0, [r4], #1
 2691              		.loc 1 1231 0
 2692 0242 2046     		mov	r0, r4
ARM GAS  C:\Users\AHMED~1.ELE\AppData\Local\Temp\ccosOURr.s 			page 76


 2693 0244 FFF7FEFF 		bl	strcpy
 2694              	.LVL310:
1232:src/comm.c    ****   if (!GetKbd(ALPHA_INPUT_NEW+ECHO+MW_LINE7+MW_BIGFONT+RIGHT_JUST, IMAX(32), tmp))
 2695              		.loc 1 1232 0
 2696 0248 7D48     		ldr	r0, .L340+8
 2697 024a 2021     		movs	r1, #32
 2698 024c 04AA     		add	r2, sp, #16
 2699 024e FFF7FEFF 		bl	GetKbd
 2700              	.LVL311:
 2701 0252 0028     		cmp	r0, #0
 2702 0254 3FF4FFAE 		beq	.L294
1233:src/comm.c    ****     return FALSE;
1234:src/comm.c    ****   memset(gGPRSDat.scUserName, 0x00, sizeof(gGPRSDat.scUserName));
 2703              		.loc 1 1234 0
 2704 0258 0021     		movs	r1, #0
 2705 025a 4FF48072 		mov	r2, #256
1235:src/comm.c    ****   memcpy(gGPRSDat.scUserName, &tmp[1], tmp[0]);
1236:src/comm.c    **** 
1237:src/comm.c    ****   // Login Password
1238:src/comm.c    ****   DispClrBelowMW(MW_LINE3);
 2706              		.loc 1 1238 0
 2707 025e 0026     		movs	r6, #0
1234:src/comm.c    ****   memcpy(gGPRSDat.scUserName, &tmp[1], tmp[0]);
 2708              		.loc 1 1234 0
 2709 0260 7B48     		ldr	r0, .L340+24
 2710 0262 FFF7FEFF 		bl	memset
 2711              	.LVL312:
1235:src/comm.c    ****   memcpy(gGPRSDat.scUserName, &tmp[1], tmp[0]);
 2712              		.loc 1 1235 0
 2713 0266 2146     		mov	r1, r4
 2714 0268 9DF91020 		ldrsb	r2, [sp, #16]
 2715 026c 7848     		ldr	r0, .L340+24
 2716 026e FFF7FEFF 		bl	memcpy
 2717              	.LVL313:
 2718              		.loc 1 1238 0
 2719 0272 2321     		movs	r1, #35
 2720 0274 4FF44072 		mov	r2, #768
 2721 0278 3346     		mov	r3, r6
 2722 027a 0096     		str	r6, [sp]
 2723 027c 0F20     		movs	r0, #15
 2724 027e FFF7FEFF 		bl	lib_app_call
 2725              	.LVL314:
 2726              	.LBB32:
1239:src/comm.c    ****   DispLineMW(KPassword, MW_LINE5, MW_BIGFONT);
 2727              		.loc 1 1239 0
 2728 0282 7448     		ldr	r0, .L340+28
 2729 0284 FFF7FEFF 		bl	strlen
 2730              	.LVL315:
 2731 0288 0546     		mov	r5, r0
 2732              	.LVL316:
 2733 028a 691C     		adds	r1, r5, #1
 2734 028c 9220     		movs	r0, #146
 2735              	.LVL317:
 2736 028e FFF7FEFF 		bl	sys_func1
 2737              	.LVL318:
 2738 0292 0446     		mov	r4, r0
 2739 0294 90B1     		cbz	r0, .L296
ARM GAS  C:\Users\AHMED~1.ELE\AppData\Local\Temp\ccosOURr.s 			page 77


 2740              		.loc 1 1239 0 is_stmt 0 discriminator 1
 2741 0296 6F49     		ldr	r1, .L340+28
 2742 0298 2A46     		mov	r2, r5
 2743 029a FFF7FEFF 		bl	memcpy
 2744              	.LVL319:
 2745 029e 4FF48053 		mov	r3, #4096
 2746 02a2 6655     		strb	r6, [r4, r5]
 2747 02a4 2521     		movs	r1, #37
 2748 02a6 0093     		str	r3, [sp]
 2749 02a8 0F20     		movs	r0, #15
 2750 02aa 2246     		mov	r2, r4
 2751 02ac 4FF4A063 		mov	r3, #1280
 2752 02b0 FFF7FEFF 		bl	lib_app_call
 2753              	.LVL320:
 2754 02b4 9420     		movs	r0, #148
 2755 02b6 2146     		mov	r1, r4
 2756 02b8 FFF7FEFF 		bl	sys_func1
 2757              	.LVL321:
 2758              	.L296:
 2759              	.LBE32:
1240:src/comm.c    ****   strcpy(&tmp[1], gGPRSDat.scPassword);
 2760              		.loc 1 1240 0 is_stmt 1
 2761 02bc 0DF11104 		add	r4, sp, #17
 2762              	.LVL322:
 2763 02c0 6549     		ldr	r1, .L340+32
 2764 02c2 2046     		mov	r0, r4
 2765 02c4 FFF7FEFF 		bl	strcpy
 2766              	.LVL323:
1241:src/comm.c    ****   tmp[0] = strlen(gGPRSDat.scPassword);
 2767              		.loc 1 1241 0
 2768 02c8 6348     		ldr	r0, .L340+32
 2769 02ca FFF7FEFF 		bl	strlen
 2770              	.LVL324:
1242:src/comm.c    ****   if (!GetKbd(ALPHA_INPUT_NEW+ECHO+MW_LINE7+MW_BIGFONT+RIGHT_JUST, IMAX(32), tmp))
 2771              		.loc 1 1242 0
 2772 02ce 2021     		movs	r1, #32
 2773 02d0 04AA     		add	r2, sp, #16
1241:src/comm.c    ****   tmp[0] = strlen(gGPRSDat.scPassword);
 2774              		.loc 1 1241 0
 2775 02d2 8DF81000 		strb	r0, [sp, #16]
 2776              		.loc 1 1242 0
 2777 02d6 5A48     		ldr	r0, .L340+8
 2778 02d8 FFF7FEFF 		bl	GetKbd
 2779              	.LVL325:
 2780 02dc 0028     		cmp	r0, #0
 2781 02de 3FF4BAAE 		beq	.L294
1243:src/comm.c    ****     return FALSE;
1244:src/comm.c    ****   memset(gGPRSDat.scPassword, 0x00, sizeof(gGPRSDat.scPassword));
 2782              		.loc 1 1244 0
 2783 02e2 0021     		movs	r1, #0
 2784 02e4 4FF48072 		mov	r2, #256
1245:src/comm.c    ****   memcpy(gGPRSDat.scPassword, &tmp[1], tmp[0]);
1246:src/comm.c    **** 
1247:src/comm.c    ****   // Dial Number
1248:src/comm.c    ****   DispClrBelowMW(MW_LINE3);
 2785              		.loc 1 1248 0
 2786 02e8 0026     		movs	r6, #0
ARM GAS  C:\Users\AHMED~1.ELE\AppData\Local\Temp\ccosOURr.s 			page 78


1244:src/comm.c    ****   memcpy(gGPRSDat.scPassword, &tmp[1], tmp[0]);
 2787              		.loc 1 1244 0
 2788 02ea 5B48     		ldr	r0, .L340+32
 2789 02ec FFF7FEFF 		bl	memset
 2790              	.LVL326:
1245:src/comm.c    ****   memcpy(gGPRSDat.scPassword, &tmp[1], tmp[0]);
 2791              		.loc 1 1245 0
 2792 02f0 2146     		mov	r1, r4
 2793 02f2 9DF91020 		ldrsb	r2, [sp, #16]
 2794 02f6 5848     		ldr	r0, .L340+32
 2795 02f8 FFF7FEFF 		bl	memcpy
 2796              	.LVL327:
 2797              		.loc 1 1248 0
 2798 02fc 2321     		movs	r1, #35
 2799 02fe 4FF44072 		mov	r2, #768
 2800 0302 3346     		mov	r3, r6
 2801 0304 0096     		str	r6, [sp]
 2802 0306 0F20     		movs	r0, #15
 2803 0308 FFF7FEFF 		bl	lib_app_call
 2804              	.LVL328:
 2805              	.LBB33:
1249:src/comm.c    ****   DispLineMW(KDialNum, MW_LINE5, MW_BIGFONT);
 2806              		.loc 1 1249 0
 2807 030c 5348     		ldr	r0, .L340+36
 2808 030e FFF7FEFF 		bl	strlen
 2809              	.LVL329:
 2810 0312 0546     		mov	r5, r0
 2811              	.LVL330:
 2812 0314 691C     		adds	r1, r5, #1
 2813 0316 9220     		movs	r0, #146
 2814              	.LVL331:
 2815 0318 FFF7FEFF 		bl	sys_func1
 2816              	.LVL332:
 2817 031c 0446     		mov	r4, r0
 2818 031e 90B1     		cbz	r0, .L297
 2819              		.loc 1 1249 0 is_stmt 0 discriminator 1
 2820 0320 4E49     		ldr	r1, .L340+36
 2821 0322 2A46     		mov	r2, r5
 2822 0324 FFF7FEFF 		bl	memcpy
 2823              	.LVL333:
 2824 0328 4FF48053 		mov	r3, #4096
 2825 032c 6655     		strb	r6, [r4, r5]
 2826 032e 2521     		movs	r1, #37
 2827 0330 0093     		str	r3, [sp]
 2828 0332 0F20     		movs	r0, #15
 2829 0334 2246     		mov	r2, r4
 2830 0336 4FF4A063 		mov	r3, #1280
 2831 033a FFF7FEFF 		bl	lib_app_call
 2832              	.LVL334:
 2833 033e 9420     		movs	r0, #148
 2834 0340 2146     		mov	r1, r4
 2835 0342 FFF7FEFF 		bl	sys_func1
 2836              	.LVL335:
 2837              	.L297:
 2838              	.LBE33:
1250:src/comm.c    ****   strcpy(&tmp[1], gGPRSDat.scDialNum);
 2839              		.loc 1 1250 0 is_stmt 1
ARM GAS  C:\Users\AHMED~1.ELE\AppData\Local\Temp\ccosOURr.s 			page 79


 2840 0346 0DF11104 		add	r4, sp, #17
 2841              	.LVL336:
 2842 034a 4549     		ldr	r1, .L340+40
 2843 034c 2046     		mov	r0, r4
 2844 034e FFF7FEFF 		bl	strcpy
 2845              	.LVL337:
1251:src/comm.c    ****   tmp[0] = strlen(gGPRSDat.scDialNum);
 2846              		.loc 1 1251 0
 2847 0352 4348     		ldr	r0, .L340+40
 2848 0354 FFF7FEFF 		bl	strlen
 2849              	.LVL338:
1252:src/comm.c    ****   if (!GetKbd(ALPHA_INPUT_NEW+ECHO+MW_LINE7+MW_BIGFONT+RIGHT_JUST, IMAX(32), tmp))
 2850              		.loc 1 1252 0
 2851 0358 2021     		movs	r1, #32
 2852 035a 04AA     		add	r2, sp, #16
1251:src/comm.c    ****   tmp[0] = strlen(gGPRSDat.scDialNum);
 2853              		.loc 1 1251 0
 2854 035c 8DF81000 		strb	r0, [sp, #16]
 2855              		.loc 1 1252 0
 2856 0360 3748     		ldr	r0, .L340+8
 2857 0362 FFF7FEFF 		bl	GetKbd
 2858              	.LVL339:
 2859 0366 0028     		cmp	r0, #0
 2860 0368 3FF475AE 		beq	.L294
1253:src/comm.c    ****     return FALSE;
1254:src/comm.c    ****   memset(gGPRSDat.scDialNum, 0x00, sizeof(gGPRSDat.scDialNum));
 2861              		.loc 1 1254 0
 2862 036c 0021     		movs	r1, #0
 2863 036e 4FF48072 		mov	r2, #256
 2864 0372 3B48     		ldr	r0, .L340+40
 2865 0374 FFF7FEFF 		bl	memset
 2866              	.LVL340:
1255:src/comm.c    ****   memcpy(gGPRSDat.scDialNum, &tmp[1], tmp[0]);
 2867              		.loc 1 1255 0
 2868 0378 2146     		mov	r1, r4
 2869 037a 9DF91020 		ldrsb	r2, [sp, #16]
 2870 037e 3848     		ldr	r0, .L340+40
 2871 0380 FFF7FEFF 		bl	memcpy
 2872              	.LVL341:
1256:src/comm.c    ****   sprintf(gDialNum, "ATD%s", gGPRSDat.scDialNum);
1257:src/comm.c    **** 
1258:src/comm.c    ****   // Save GPRSFile
1259:src/comm.c    ****   strcpy(tmp, KGPRSFile);
1260:src/comm.c    ****   fd = fOpenMW(tmp);
 2873              		.loc 1 1260 0
 2874 0384 0024     		movs	r4, #0
1256:src/comm.c    ****   sprintf(gDialNum, "ATD%s", gGPRSDat.scDialNum);
 2875              		.loc 1 1256 0
 2876 0386 364A     		ldr	r2, .L340+40
 2877 0388 3649     		ldr	r1, .L340+44
 2878 038a 3748     		ldr	r0, .L340+48
 2879 038c FFF7FEFF 		bl	sprintf
 2880              	.LVL342:
1259:src/comm.c    ****   fd = fOpenMW(tmp);
 2881              		.loc 1 1259 0
 2882 0390 3649     		ldr	r1, .L340+52
 2883 0392 04A8     		add	r0, sp, #16
ARM GAS  C:\Users\AHMED~1.ELE\AppData\Local\Temp\ccosOURr.s 			page 80


 2884 0394 FFF7FEFF 		bl	strcpy
 2885              	.LVL343:
 2886              		.loc 1 1260 0
 2887 0398 0094     		str	r4, [sp]
 2888 039a 0F20     		movs	r0, #15
 2889 039c 0D21     		movs	r1, #13
 2890 039e 04AA     		add	r2, sp, #16
 2891 03a0 2346     		mov	r3, r4
 2892 03a2 FFF7FEFF 		bl	lib_app_call
 2893              	.LVL344:
1261:src/comm.c    ****   if (fd < 0) 
 2894              		.loc 1 1261 0
 2895 03a6 051E     		subs	r5, r0, #0
 2896              	.LVL345:
 2897 03a8 08DA     		bge	.L298
1262:src/comm.c    ****     fd = fCreateMW(tmp, 0);
 2898              		.loc 1 1262 0
 2899 03aa 0094     		str	r4, [sp]
 2900 03ac 0F20     		movs	r0, #15
 2901              	.LVL346:
 2902 03ae 0B21     		movs	r1, #11
 2903 03b0 04AA     		add	r2, sp, #16
 2904 03b2 2346     		mov	r3, r4
 2905 03b4 FFF7FEFF 		bl	lib_app_call
 2906              	.LVL347:
1263:src/comm.c    ****   if (fd >= 0) {
 2907              		.loc 1 1263 0
 2908 03b8 051E     		subs	r5, r0, #0
 2909 03ba 32DB     		blt	.L299
 2910              	.L298:
1264:src/comm.c    ****     memcpy(&gprs_dat, &gGPRSDat, sizeof(struct GPRSPPP)); 
 2911              		.loc 1 1264 0
 2912 03bc 4FF48064 		mov	r4, #1024
 2913 03c0 2349     		ldr	r1, .L340+24
 2914 03c2 2246     		mov	r2, r4
 2915 03c4 44A8     		add	r0, sp, #272
 2916              	.LVL348:
 2917 03c6 FFF7FEFF 		bl	memcpy
 2918              	.LVL349:
1265:src/comm.c    ****     len = fWriteMW(fd, &gprs_dat, sizeof(struct GPRSPPP));
 2919              		.loc 1 1265 0
 2920 03ca 0094     		str	r4, [sp]
 2921 03cc 0F20     		movs	r0, #15
 2922 03ce 1221     		movs	r1, #18
 2923 03d0 2A46     		mov	r2, r5
 2924 03d2 44AB     		add	r3, sp, #272
 2925 03d4 FFF7FEFF 		bl	lib_app_call
 2926              	.LVL350:
1266:src/comm.c    ****     if (len != sizeof(struct GPRSPPP)) {
 2927              		.loc 1 1266 0
 2928 03d8 A042     		cmp	r0, r4
 2929 03da 1BD0     		beq	.L300
 2930              	.LVL351:
 2931              	.LBB34:
1267:src/comm.c    ****       DispLineMW("File WR Err!", MW_LINE1, MW_CLRDISP|MW_BIGFONT);
 2932              		.loc 1 1267 0
 2933 03dc 9220     		movs	r0, #146
ARM GAS  C:\Users\AHMED~1.ELE\AppData\Local\Temp\ccosOURr.s 			page 81


 2934              	.LVL352:
 2935 03de 0D21     		movs	r1, #13
 2936 03e0 FFF7FEFF 		bl	sys_func1
 2937              	.LVL353:
 2938 03e4 0446     		mov	r4, r0
 2939 03e6 98B1     		cbz	r0, .L301
 2940              		.loc 1 1267 0 is_stmt 0 discriminator 1
 2941 03e8 2149     		ldr	r1, .L340+56
 2942 03ea 0C22     		movs	r2, #12
 2943 03ec FFF7FEFF 		bl	memcpy
 2944              	.LVL354:
 2945 03f0 0023     		movs	r3, #0
 2946 03f2 2521     		movs	r1, #37
 2947 03f4 2373     		strb	r3, [r4, #12]
 2948 03f6 4FF48453 		mov	r3, #4224
 2949 03fa 0F20     		movs	r0, #15
 2950 03fc 0093     		str	r3, [sp]
 2951 03fe 2246     		mov	r2, r4
 2952 0400 4FF48073 		mov	r3, #256
 2953 0404 FFF7FEFF 		bl	lib_app_call
 2954              	.LVL355:
 2955 0408 9420     		movs	r0, #148
 2956 040a 2146     		mov	r1, r4
 2957 040c FFF7FEFF 		bl	sys_func1
 2958              	.LVL356:
 2959              	.L301:
 2960              	.LBE34:
1268:src/comm.c    ****       ErrorDelay();
 2961              		.loc 1 1268 0 is_stmt 1
 2962 0410 FFF7FEFF 		bl	ErrorDelay
 2963              	.LVL357:
 2964              	.L300:
1269:src/comm.c    ****     } 
1270:src/comm.c    ****     fCommitAllMW();
 2965              		.loc 1 1270 0
 2966 0414 0022     		movs	r2, #0
 2967 0416 0F20     		movs	r0, #15
 2968 0418 0092     		str	r2, [sp]
 2969 041a 1321     		movs	r1, #19
 2970 041c 1346     		mov	r3, r2
 2971 041e FFF7FEFF 		bl	lib_app_call
 2972              	.LVL358:
 2973              	.L299:
1271:src/comm.c    ****   }
1272:src/comm.c    ****   fCloseMW(fd);
 2974              		.loc 1 1272 0
 2975 0422 0023     		movs	r3, #0
 2976 0424 0F20     		movs	r0, #15
 2977 0426 0093     		str	r3, [sp]
 2978 0428 0E21     		movs	r1, #14
 2979 042a 2A46     		mov	r2, r5
 2980 042c FFF7FEFF 		bl	lib_app_call
 2981              	.LVL359:
1273:src/comm.c    ****   return TRUE;
 2982              		.loc 1 1273 0
 2983 0430 0120     		movs	r0, #1
 2984              	.LVL360:
ARM GAS  C:\Users\AHMED~1.ELE\AppData\Local\Temp\ccosOURr.s 			page 82


 2985              	.L285:
1274:src/comm.c    **** }
 2986              		.loc 1 1274 0
 2987 0432 0DF2145D 		addw	sp, sp, #1300
 2988              		.cfi_def_cfa_offset 20
 2989              		@ sp needed
 2990 0436 F0BD     		pop	{r4, r5, r6, r7, pc}
 2991              	.LVL361:
 2992              	.L341:
 2993              		.align	2
 2994              	.L340:
 2995 0438 00000000 		.word	KApn
 2996 043c 00020000 		.word	.LANCHOR1+512
 2997 0440 FF172600 		.word	2496511
 2998 0444 2B000000 		.word	.LC5
 2999 0448 00000000 		.word	.LANCHOR2
 3000 044c 00000000 		.word	KUserName
 3001 0450 00000000 		.word	.LANCHOR1
 3002 0454 00000000 		.word	KPassword
 3003 0458 00010000 		.word	.LANCHOR1+256
 3004 045c 00000000 		.word	KDialNum
 3005 0460 00030000 		.word	.LANCHOR1+768
 3006 0464 42000000 		.word	.LC6
 3007 0468 00010000 		.word	.LANCHOR2+256
 3008 046c 0A000000 		.word	.LANCHOR0+10
 3009 0470 11000000 		.word	.LC3
 3010              		.cfi_endproc
 3011              	.LFE27:
 3012              		.size	SetGPRS, .-SetGPRS
 3013              		.section	.text.PackInitComm,"ax",%progbits
 3014              		.align	1
 3015              		.global	PackInitComm
 3016              		.thumb
 3017              		.thumb_func
 3018              		.type	PackInitComm, %function
 3019              	PackInitComm:
 3020              	.LFB28:
1275:src/comm.c    **** //******************************************************************************
1276:src/comm.c    **** //  Function        : PackInitComm
1277:src/comm.c    **** //  Description     : Pack communication param.
1278:src/comm.c    **** //  Input           : N/A
1279:src/comm.c    **** //  Return          : N/A
1280:src/comm.c    **** //  Note            : N/A
1281:src/comm.c    **** //  Globals Changed : comm;
1282:src/comm.c    **** //******************************************************************************
1283:src/comm.c    **** void PackInitComm(void)
1284:src/comm.c    **** {
 3021              		.loc 1 1284 0
 3022              		.cfi_startproc
 3023              		@ args = 0, pretend = 0, frame = 368
 3024              		@ frame_needed = 0, uses_anonymous_args = 0
 3025 0000 70B5     		push	{r4, r5, r6, lr}
 3026              		.cfi_def_cfa_offset 16
 3027              		.cfi_offset 4, -16
 3028              		.cfi_offset 5, -12
 3029              		.cfi_offset 6, -8
 3030              		.cfi_offset 14, -4
ARM GAS  C:\Users\AHMED~1.ELE\AppData\Local\Temp\ccosOURr.s 			page 83


 3031 0002 ADF5367D 		sub	sp, sp, #728
 3032              		.cfi_def_cfa_offset 744
1285:src/comm.c    ****   struct TERM_DATA term_data;
1286:src/comm.c    **** 
1287:src/comm.c    ****   if (!GetTermData(&term_data))
 3033              		.loc 1 1287 0
 3034 0006 5AAD     		add	r5, sp, #360
 3035 0008 2846     		mov	r0, r5
 3036 000a FFF7FEFF 		bl	GetTermData
 3037              	.LVL362:
 3038 000e 0028     		cmp	r0, #0
 3039 0010 00F0C980 		beq	.L342
1288:src/comm.c    ****     return;
1289:src/comm.c    **** 
1290:src/comm.c    ****   // common
1291:src/comm.c    ****   memset(&gCommParam, 0, sizeof(gCommParam));
 3040              		.loc 1 1291 0
 3041 0014 654C     		ldr	r4, .L360
 3042 0016 4FF40B76 		mov	r6, #556
 3043 001a 3246     		mov	r2, r6
 3044 001c 0021     		movs	r1, #0
 3045 001e 2046     		mov	r0, r4
 3046 0020 FFF7FEFF 		bl	memset
 3047              	.LVL363:
1292:src/comm.c    ****   gCommParam.wLen          = sizeof(struct COMMPARAM);
1293:src/comm.c    ****   gCommParam.bCommMode     = term_data.b_init_mode;
1294:src/comm.c    ****   gCommParam.bHostConnTime = 60;
 3048              		.loc 1 1294 0
 3049 0024 3C23     		movs	r3, #60
1292:src/comm.c    ****   gCommParam.wLen          = sizeof(struct COMMPARAM);
 3050              		.loc 1 1292 0
 3051 0026 2680     		strh	r6, [r4]	@ movhi
 3052              		.loc 1 1294 0
 3053 0028 E370     		strb	r3, [r4, #3]
1295:src/comm.c    ****   gCommParam.bTimeoutVal   = 30;
 3054              		.loc 1 1295 0
 3055 002a 1E23     		movs	r3, #30
1293:src/comm.c    ****   gCommParam.bHostConnTime = 60;
 3056              		.loc 1 1293 0
 3057 002c EE7A     		ldrb	r6, [r5, #11]	@ zero_extendqisi2
 3058              		.loc 1 1295 0
 3059 002e 2371     		strb	r3, [r4, #4]
1296:src/comm.c    ****   gCommParam.bAsyncDelay = term_data.b_async_delay;
 3060              		.loc 1 1296 0
 3061 0030 95F82830 		ldrb	r3, [r5, #40]	@ zero_extendqisi2
1297:src/comm.c    **** 
1298:src/comm.c    ****   // Modem setting
1299:src/comm.c    ****   memcpy((BYTE *)&gCommParam.sMdm, (BYTE *)&KDefaultSReg, sizeof(struct MDMSREG));
 3062              		.loc 1 1299 0
 3063 0034 5E49     		ldr	r1, .L360+4
 3064 0036 5C22     		movs	r2, #92
 3065 0038 04F10800 		add	r0, r4, #8
1296:src/comm.c    ****   gCommParam.bAsyncDelay = term_data.b_async_delay;
 3066              		.loc 1 1296 0
 3067 003c 6371     		strb	r3, [r4, #5]
1293:src/comm.c    ****   gCommParam.bHostConnTime = 60;
 3068              		.loc 1 1293 0
ARM GAS  C:\Users\AHMED~1.ELE\AppData\Local\Temp\ccosOURr.s 			page 84


 3069 003e A670     		strb	r6, [r4, #2]
 3070              		.loc 1 1299 0
 3071 0040 FFF7FEFF 		bl	memcpy
 3072              	.LVL364:
1300:src/comm.c    ****   if (gCommParam.bCommMode == APM_COMM_ASYNC) {
 3073              		.loc 1 1300 0
 3074 0044 012E     		cmp	r6, #1
1301:src/comm.c    ****     gCommParam.sMdm.sMdmCfg.b_protocol = TYPE_ASYN;
 3075              		.loc 1 1301 0
 3076 0046 09BF     		itett	eq
 3077 0048 0223     		moveq	r3, #2
1302:src/comm.c    ****     gCommParam.sMdm.sMdmCfg.b_ccitt    = MODE_CCITT;
1303:src/comm.c    ****     gCommParam.sMdm.sMdmCfg.b_speed    = BPS_AUTO_V42;    //04-12-13 JC ++
1304:src/comm.c    ****   }
1305:src/comm.c    ****   else {
1306:src/comm.c    ****     gCommParam.sMdm.sMdmCfg.b_protocol = TYPE_SDLC;
 3078              		.loc 1 1306 0
 3079 004a 0123     		movne	r3, #1
1301:src/comm.c    ****     gCommParam.sMdm.sMdmCfg.b_protocol = TYPE_ASYN;
 3080              		.loc 1 1301 0
 3081 004c 2373     		strbeq	r3, [r4, #12]
1303:src/comm.c    ****   }
 3082              		.loc 1 1303 0
 3083 004e 0523     		moveq	r3, #5
 3084              		.loc 1 1306 0
 3085 0050 1CBF     		itt	ne
 3086 0052 2373     		strbne	r3, [r4, #12]
1307:src/comm.c    ****     gCommParam.sMdm.sMdmCfg.b_ccitt    = MODE_CCITT;
 3087              		.loc 1 1307 0
 3088 0054 6373     		strbne	r3, [r4, #13]
1308:src/comm.c    ****     gCommParam.sMdm.sMdmCfg.b_speed    = BPS_1200;
 3089              		.loc 1 1308 0
 3090 0056 A373     		strb	r3, [r4, #14]
1309:src/comm.c    ****   }
1310:src/comm.c    ****   gCommParam.sMdm.sMdmCfg.b_ptel_len     = PackTelNo(term_data, gCommParam.sMdm.sMdmCfg.s_ptel, ter
 3091              		.loc 1 1310 0
 3092 0058 564B     		ldr	r3, .L360+8
 3093 005a 5EA9     		add	r1, sp, #376
 3094 005c 5893     		str	r3, [sp, #352]
 3095 005e 5DAB     		add	r3, sp, #372
 3096 0060 4FF4B072 		mov	r2, #352
 3097 0064 6846     		mov	r0, sp
1302:src/comm.c    ****     gCommParam.sMdm.sMdmCfg.b_speed    = BPS_AUTO_V42;    //04-12-13 JC ++
 3098              		.loc 1 1302 0
 3099 0066 08BF     		it	eq
 3100 0068 6673     		strbeq	r6, [r4, #13]
 3101              		.loc 1 1310 0
 3102 006a 5993     		str	r3, [sp, #356]
 3103 006c FFF7FEFF 		bl	memcpy
 3104              	.LVL365:
 3105 0070 95E80F00 		ldmia	r5, {r0, r1, r2, r3}
 3106 0074 4D4E     		ldr	r6, .L360
 3107 0076 FFF7FEFF 		bl	PackTelNo
 3108              	.LVL366:
1311:src/comm.c    ****   gCommParam.sMdm.sMdmCfg.b_pconn_tval   = term_data.b_pri_conn_time;
 3109              		.loc 1 1311 0
 3110 007a 2B7E     		ldrb	r3, [r5, #24]	@ zero_extendqisi2
ARM GAS  C:\Users\AHMED~1.ELE\AppData\Local\Temp\ccosOURr.s 			page 85


1312:src/comm.c    ****   gCommParam.sMdm.sMdmCfg.b_pconn_limit  = term_data.b_pri_redial;
1313:src/comm.c    ****   gCommParam.sMdm.sMdmCfg.b_stel_len     = PackTelNo(term_data, gCommParam.sMdm.sMdmCfg.s_stel, ter
 3111              		.loc 1 1313 0
 3112 007c 5EA9     		add	r1, sp, #376
1311:src/comm.c    ****   gCommParam.sMdm.sMdmCfg.b_pconn_tval   = term_data.b_pri_conn_time;
 3113              		.loc 1 1311 0
 3114 007e 84F83530 		strb	r3, [r4, #53]
1312:src/comm.c    ****   gCommParam.sMdm.sMdmCfg.b_pconn_limit  = term_data.b_pri_redial;
 3115              		.loc 1 1312 0
 3116 0082 6B7E     		ldrb	r3, [r5, #25]	@ zero_extendqisi2
1310:src/comm.c    ****   gCommParam.sMdm.sMdmCfg.b_pconn_tval   = term_data.b_pri_conn_time;
 3117              		.loc 1 1310 0
 3118 0084 6074     		strb	r0, [r4, #17]
1312:src/comm.c    ****   gCommParam.sMdm.sMdmCfg.b_pconn_limit  = term_data.b_pri_redial;
 3119              		.loc 1 1312 0
 3120 0086 84F83430 		strb	r3, [r4, #52]
 3121              		.loc 1 1313 0
 3122 008a 06F13703 		add	r3, r6, #55
 3123 008e 4FF4B072 		mov	r2, #352
 3124 0092 5893     		str	r3, [sp, #352]
 3125 0094 0DF5C173 		add	r3, sp, #386
 3126 0098 6846     		mov	r0, sp
 3127 009a 5993     		str	r3, [sp, #356]
 3128 009c FFF7FEFF 		bl	memcpy
 3129              	.LVL367:
 3130 00a0 95E80F00 		ldmia	r5, {r0, r1, r2, r3}
 3131 00a4 FFF7FEFF 		bl	PackTelNo
 3132              	.LVL368:
1314:src/comm.c    ****   gCommParam.sMdm.sMdmCfg.b_sconn_tval   = term_data.b_sec_conn_time;
 3133              		.loc 1 1314 0
 3134 00a8 95F82630 		ldrb	r3, [r5, #38]	@ zero_extendqisi2
 3135 00ac 84F85A30 		strb	r3, [r4, #90]
1315:src/comm.c    ****   gCommParam.sMdm.sMdmCfg.b_sconn_limit  = term_data.b_sec_redial;
 3136              		.loc 1 1315 0
 3137 00b0 95F82730 		ldrb	r3, [r5, #39]	@ zero_extendqisi2
1313:src/comm.c    ****   gCommParam.sMdm.sMdmCfg.b_sconn_tval   = term_data.b_sec_conn_time;
 3138              		.loc 1 1313 0
 3139 00b4 84F83600 		strb	r0, [r4, #54]
 3140              		.loc 1 1315 0
 3141 00b8 84F85930 		strb	r3, [r4, #89]
1316:src/comm.c    **** 
1317:src/comm.c    ****   // TCP setting
1318:src/comm.c    ****   gCommParam.sTcp.bLen                = sizeof(gCommParam.sTcp);
 3142              		.loc 1 1318 0
 3143 00bc 1823     		movs	r3, #24
1319:src/comm.c    ****   memcpy(&gCommParam.sTcp.sTcpCfg.d_ip, term_data.sb_ip, 4);
1320:src/comm.c    ****   gCommParam.sTcp.sTcpCfg.w_port     = WGet(term_data.sb_port);
 3144              		.loc 1 1320 0
 3145 00be 68A8     		add	r0, sp, #416
1318:src/comm.c    ****   memcpy(&gCommParam.sTcp.sTcpCfg.d_ip, term_data.sb_ip, 4);
 3146              		.loc 1 1318 0
 3147 00c0 84F86430 		strb	r3, [r4, #100]
1319:src/comm.c    ****   memcpy(&gCommParam.sTcp.sTcpCfg.d_ip, term_data.sb_ip, 4);
 3148              		.loc 1 1319 0
 3149 00c4 6B6B     		ldr	r3, [r5, #52]
 3150 00c6 2367     		str	r3, [r4, #112]
 3151              		.loc 1 1320 0
ARM GAS  C:\Users\AHMED~1.ELE\AppData\Local\Temp\ccosOURr.s 			page 86


 3152 00c8 FFF7FEFF 		bl	WGet
 3153              	.LVL369:
1321:src/comm.c    ****   if (gCommParam.bCommMode == APM_COMM_GPRS) 
 3154              		.loc 1 1321 0
 3155 00cc A378     		ldrb	r3, [r4, #2]	@ zero_extendqisi2
 3156 00ce 032B     		cmp	r3, #3
1320:src/comm.c    ****   if (gCommParam.bCommMode == APM_COMM_GPRS) 
 3157              		.loc 1 1320 0
 3158 00d0 A4F87400 		strh	r0, [r4, #116]	@ movhi
 3159              		.loc 1 1321 0
 3160 00d4 01D1     		bne	.L346
1322:src/comm.c    ****     gCommParam.sTcp.sTcpCfg.b_option   = MW_TCP_PPP_MODE;
 3161              		.loc 1 1322 0
 3162 00d6 0122     		movs	r2, #1
 3163 00d8 08E0     		b	.L359
 3164              	.L346:
1323:src/comm.c    **** #if (MCP_SUPPORT)
1324:src/comm.c    ****   else if (gCommParam.bCommMode == APM_COMM_BT) {
1325:src/comm.c    ****     setTCP_NIF(&gCommParam.sTcp.sTcpCfg, K_NIF_MCP);
1326:src/comm.c    ****   }
1327:src/comm.c    **** #endif
1328:src/comm.c    ****   else if (gCommParam.bCommMode == APM_COMM_WIFI) {
 3165              		.loc 1 1328 0
 3166 00da 052B     		cmp	r3, #5
1329:src/comm.c    ****     setTCP_NIF(&gCommParam.sTcp.sTcpCfg, K_NIF_WIFI);
1330:src/comm.c    ****   }
1331:src/comm.c    ****   else
1332:src/comm.c    ****     gCommParam.sTcp.sTcpCfg.b_option   = 0;
 3167              		.loc 1 1332 0
 3168 00dc 11BF     		iteee	ne
 3169 00de 0022     		movne	r2, #0
1329:src/comm.c    ****     setTCP_NIF(&gCommParam.sTcp.sTcpCfg, K_NIF_WIFI);
 3170              		.loc 1 1329 0
 3171 00e0 96F87720 		ldrbeq	r2, [r6, #119]	@ zero_extendqisi2
 3172 00e4 22F06102 		biceq	r2, r2, #97
 3173 00e8 42F02102 		orreq	r2, r2, #33
 3174              	.L359:
1333:src/comm.c    ****   gCommParam.sTcp.sTcpCfg.b_sslidx   = 0;
1334:src/comm.c    ****   if ((gCommParam.bCommMode==APM_COMM_BT) || (gCommParam.bCommMode==APM_COMM_WIFI) || 
 3175              		.loc 1 1334 0
 3176 00ec 591F     		subs	r1, r3, #5
1332:src/comm.c    ****   gCommParam.sTcp.sTcpCfg.b_sslidx   = 0;
 3177              		.loc 1 1332 0
 3178 00ee 86F87720 		strb	r2, [r6, #119]
 3179              		.loc 1 1334 0
 3180 00f2 0129     		cmp	r1, #1
1333:src/comm.c    ****   gCommParam.sTcp.sTcpCfg.b_sslidx   = 0;
 3181              		.loc 1 1333 0
 3182 00f4 4FF00002 		mov	r2, #0
 3183 00f8 84F87620 		strb	r2, [r4, #118]
 3184              		.loc 1 1334 0
 3185 00fc 02D9     		bls	.L349
 3186              		.loc 1 1334 0 is_stmt 0 discriminator 1
 3187 00fe 991E     		subs	r1, r3, #2
 3188 0100 0129     		cmp	r1, #1
 3189 0102 03D8     		bhi	.L350
 3190              	.L349:
ARM GAS  C:\Users\AHMED~1.ELE\AppData\Local\Temp\ccosOURr.s 			page 87


1335:src/comm.c    ****       (gCommParam.bCommMode==APM_COMM_TCPIP) || (gCommParam.bCommMode==APM_COMM_GPRS))
1336:src/comm.c    ****     gCommParam.sTcp.bAdd2ByteLen = 1;
 3191              		.loc 1 1336 0 is_stmt 1
 3192 0104 0122     		movs	r2, #1
 3193 0106 84F86520 		strb	r2, [r4, #101]
 3194 010a 02E0     		b	.L351
 3195              	.L350:
1337:src/comm.c    ****   else
1338:src/comm.c    ****     gCommParam.sTcp.bAdd2ByteLen = 0;
 3196              		.loc 1 1338 0
 3197 010c 2749     		ldr	r1, .L360
 3198 010e 81F86520 		strb	r2, [r1, #101]
 3199              	.L351:
1339:src/comm.c    **** 
1340:src/comm.c    ****   // Aux setting
1341:src/comm.c    ****   gCommParam.sAux.bLen               = sizeof(gCommParam.sAux);
1342:src/comm.c    ****   gCommParam.sAux.bPort              = APM_AUX1;//term_data.sb_port[0] + 1;
1343:src/comm.c    ****   gCommParam.sAux.sAuxCfg.b_len      = sizeof(struct MW_AUX_CFG);
 3200              		.loc 1 1343 0
 3201 0112 0820     		movs	r0, #8
1344:src/comm.c    ****   gCommParam.sAux.sAuxCfg.b_mode     = MW_AUX_ENAC;//MW_AUX_NO_PARITY;
1345:src/comm.c    ****   gCommParam.sAux.sAuxCfg.b_speed    = MW_AUX_115200; //term_data.sb_port[1];
1346:src/comm.c    ****   gCommParam.sAux.sAuxCfg.b_rx_gap   = 50;   // 50 ms
1347:src/comm.c    ****   gCommParam.sAux.sAuxCfg.b_rsp_gap  = 150;
1348:src/comm.c    ****   gCommParam.sAux.sAuxCfg.b_tx_gap   = 50;
1349:src/comm.c    ****   gCommParam.sAux.sAuxCfg.b_retry    = 0;
1350:src/comm.c    **** 
1351:src/comm.c    ****   // Config PPP parameter
1352:src/comm.c    ****   gCommParam.sPPP.bKeepAlive  = TRUE; // Never disconnect
1353:src/comm.c    ****   if (gCommParam.bCommMode == APM_COMM_GPRS) 
 3202              		.loc 1 1353 0
 3203 0114 032B     		cmp	r3, #3
1343:src/comm.c    ****   gCommParam.sAux.sAuxCfg.b_mode     = MW_AUX_ENAC;//MW_AUX_NO_PARITY;
 3204              		.loc 1 1343 0
 3205 0116 84F88000 		strb	r0, [r4, #128]
1344:src/comm.c    ****   gCommParam.sAux.sAuxCfg.b_mode     = MW_AUX_ENAC;//MW_AUX_NO_PARITY;
 3206              		.loc 1 1344 0
 3207 011a 4FF00200 		mov	r0, #2
1354:src/comm.c    ****     gCommParam.sPPP.dDevice      = MW_PPP_DEVICE_GPRS;
 3208              		.loc 1 1354 0
 3209 011e 08BF     		it	eq
 3210 0120 0523     		moveq	r3, #5
1344:src/comm.c    ****   gCommParam.sAux.sAuxCfg.b_mode     = MW_AUX_ENAC;//MW_AUX_NO_PARITY;
 3211              		.loc 1 1344 0
 3212 0122 84F88100 		strb	r0, [r4, #129]
1345:src/comm.c    ****   gCommParam.sAux.sAuxCfg.b_rx_gap   = 50;   // 50 ms
 3213              		.loc 1 1345 0
 3214 0126 4FF00700 		mov	r0, #7
1341:src/comm.c    ****   gCommParam.sAux.bPort              = APM_AUX1;//term_data.sb_port[0] + 1;
 3215              		.loc 1 1341 0
 3216 012a 2049     		ldr	r1, .L360
 3217 012c 4FF00C02 		mov	r2, #12
1345:src/comm.c    ****   gCommParam.sAux.sAuxCfg.b_rx_gap   = 50;   // 50 ms
 3218              		.loc 1 1345 0
 3219 0130 84F88200 		strb	r0, [r4, #130]
1346:src/comm.c    ****   gCommParam.sAux.sAuxCfg.b_rsp_gap  = 150;
 3220              		.loc 1 1346 0
ARM GAS  C:\Users\AHMED~1.ELE\AppData\Local\Temp\ccosOURr.s 			page 88


 3221 0134 4FF03200 		mov	r0, #50
 3222              		.loc 1 1354 0
 3223 0138 08BF     		it	eq
 3224 013a C1F88C30 		streq	r3, [r1, #140]
1355:src/comm.c    ****   else
1356:src/comm.c    ****     gCommParam.sPPP.dDevice      = MW_PPP_DEVICE_NONE;
1357:src/comm.c    ****   gCommParam.sPPP.dSpeed       = 230400;
 3225              		.loc 1 1357 0
 3226 013e 4FF46133 		mov	r3, #230400
1341:src/comm.c    ****   gCommParam.sAux.bPort              = APM_AUX1;//term_data.sb_port[0] + 1;
 3227              		.loc 1 1341 0
 3228 0142 84F87C20 		strb	r2, [r4, #124]
1346:src/comm.c    ****   gCommParam.sAux.sAuxCfg.b_rsp_gap  = 150;
 3229              		.loc 1 1346 0
 3230 0146 84F88300 		strb	r0, [r4, #131]
1342:src/comm.c    ****   gCommParam.sAux.sAuxCfg.b_len      = sizeof(struct MW_AUX_CFG);
 3231              		.loc 1 1342 0
 3232 014a 4FF00002 		mov	r2, #0
1348:src/comm.c    ****   gCommParam.sAux.sAuxCfg.b_retry    = 0;
 3233              		.loc 1 1348 0
 3234 014e 84F88500 		strb	r0, [r4, #133]
1352:src/comm.c    ****   if (gCommParam.bCommMode == APM_COMM_GPRS) 
 3235              		.loc 1 1352 0
 3236 0152 4FF00100 		mov	r0, #1
 3237              		.loc 1 1357 0
 3238 0156 C4F89030 		str	r3, [r4, #144]
1347:src/comm.c    ****   gCommParam.sAux.sAuxCfg.b_tx_gap   = 50;
 3239              		.loc 1 1347 0
 3240 015a 4FF09605 		mov	r5, #150
1358:src/comm.c    ****   gCommParam.sPPP.dMode        = MW_PPP_MODE_NORMAL;
 3241              		.loc 1 1358 0
 3242 015e 4FF00203 		mov	r3, #2
1356:src/comm.c    ****   gCommParam.sPPP.dSpeed       = 230400;
 3243              		.loc 1 1356 0
 3244 0162 18BF     		it	ne
 3245 0164 C1F88C20 		strne	r2, [r1, #140]
1342:src/comm.c    ****   gCommParam.sAux.sAuxCfg.b_len      = sizeof(struct MW_AUX_CFG);
 3246              		.loc 1 1342 0
 3247 0168 84F87D20 		strb	r2, [r4, #125]
1349:src/comm.c    **** 
 3248              		.loc 1 1349 0
 3249 016c 84F88620 		strb	r2, [r4, #134]
1352:src/comm.c    ****   if (gCommParam.bCommMode == APM_COMM_GPRS) 
 3250              		.loc 1 1352 0
 3251 0170 84F88800 		strb	r0, [r4, #136]
1359:src/comm.c    ****   memset(gCommParam.sPPP.scUserID, 0, sizeof(gCommParam.sPPP.scUserID));
 3252              		.loc 1 1359 0
 3253 0174 0021     		movs	r1, #0
 3254 0176 8022     		movs	r2, #128
 3255 0178 0F48     		ldr	r0, .L360+12
1358:src/comm.c    ****   memset(gCommParam.sPPP.scUserID, 0, sizeof(gCommParam.sPPP.scUserID));
 3256              		.loc 1 1358 0
 3257 017a C4F89430 		str	r3, [r4, #148]
1347:src/comm.c    ****   gCommParam.sAux.sAuxCfg.b_tx_gap   = 50;
 3258              		.loc 1 1347 0
 3259 017e 84F88450 		strb	r5, [r4, #132]
 3260              		.loc 1 1359 0
ARM GAS  C:\Users\AHMED~1.ELE\AppData\Local\Temp\ccosOURr.s 			page 89


 3261 0182 FFF7FEFF 		bl	memset
 3262              	.LVL370:
1360:src/comm.c    ****   memset(gCommParam.sPPP.scPwd,    0, sizeof(gCommParam.sPPP.scPwd));
 3263              		.loc 1 1360 0
 3264 0186 0D48     		ldr	r0, .L360+16
 3265 0188 0021     		movs	r1, #0
 3266 018a 8022     		movs	r2, #128
 3267 018c FFF7FEFF 		bl	memset
 3268              	.LVL371:
1361:src/comm.c    ****   gCommParam.sPPP.psLogin      = NULL;
 3269              		.loc 1 1361 0
 3270 0190 0023     		movs	r3, #0
 3271 0192 C4F81832 		str	r3, [r4, #536]
1362:src/comm.c    ****   gCommParam.sPPP.dLoginPair   = 0;
 3272              		.loc 1 1362 0
 3273 0196 C4F81C32 		str	r3, [r4, #540]
1363:src/comm.c    ****   gCommParam.sPPP.psDialUp     = NULL;
 3274              		.loc 1 1363 0
 3275 019a C4F82032 		str	r3, [r4, #544]
1364:src/comm.c    ****   gCommParam.sPPP.dDialupPair  = 0;
 3276              		.loc 1 1364 0
 3277 019e C4F82432 		str	r3, [r4, #548]
1365:src/comm.c    ****   gCommParam.sPPP.psDialParam  = NULL;
 3278              		.loc 1 1365 0
 3279 01a2 C4F82832 		str	r3, [r4, #552]
 3280              	.L342:
1366:src/comm.c    **** }
 3281              		.loc 1 1366 0
 3282 01a6 0DF5367D 		add	sp, sp, #728
 3283              		.cfi_def_cfa_offset 16
 3284              		@ sp needed
 3285 01aa 70BD     		pop	{r4, r5, r6, pc}
 3286              	.L361:
 3287              		.align	2
 3288              	.L360:
 3289 01ac 00000000 		.word	gCommParam
 3290 01b0 9C000000 		.word	.LANCHOR0+156
 3291 01b4 12000000 		.word	gCommParam+18
 3292 01b8 18010000 		.word	gCommParam+280
 3293 01bc 98010000 		.word	gCommParam+408
 3294              		.cfi_endproc
 3295              	.LFE28:
 3296              		.size	PackInitComm, .-PackInitComm
 3297              		.section	.text.PackComm,"ax",%progbits
 3298              		.align	1
 3299              		.global	PackComm
 3300              		.thumb
 3301              		.thumb_func
 3302              		.type	PackComm, %function
 3303              	PackComm:
 3304              	.LFB29:
1367:src/comm.c    **** //*****************************************************************************
1368:src/comm.c    **** //  Function        : PackComm
1369:src/comm.c    **** //  Description     : Pack the comm parameter.
1370:src/comm.c    **** //  Input           : aDat;       // pointer to comm parameters.
1371:src/comm.c    **** //  Return          : N/A
1372:src/comm.c    **** //  Note            : N/A
ARM GAS  C:\Users\AHMED~1.ELE\AppData\Local\Temp\ccosOURr.s 			page 90


1373:src/comm.c    **** //  Globals Changed : N/A
1374:src/comm.c    **** //*****************************************************************************
1375:src/comm.c    **** void  PackComm(struct COMMPARAM *aDat)
1376:src/comm.c    **** {
 3305              		.loc 1 1376 0
 3306              		.cfi_startproc
 3307              		@ args = 0, pretend = 0, frame = 0
 3308              		@ frame_needed = 0, uses_anonymous_args = 0
 3309              	.LVL372:
 3310 0000 10B5     		push	{r4, lr}
 3311              		.cfi_def_cfa_offset 8
 3312              		.cfi_offset 4, -8
 3313              		.cfi_offset 14, -4
1377:src/comm.c    ****   memset(&gCommParam, 0, sizeof(gCommParam));
 3314              		.loc 1 1377 0
 3315 0002 0021     		movs	r1, #0
1376:src/comm.c    ****   memset(&gCommParam, 0, sizeof(gCommParam));
 3316              		.loc 1 1376 0
 3317 0004 0446     		mov	r4, r0
 3318              		.loc 1 1377 0
 3319 0006 4FF40B72 		mov	r2, #556
 3320 000a 0D48     		ldr	r0, .L368
 3321              	.LVL373:
 3322 000c FFF7FEFF 		bl	memset
 3323              	.LVL374:
1378:src/comm.c    **** 
1379:src/comm.c    ****   // Use Test Setup ?
1380:src/comm.c    ****   if ((memcmp(&gCommParam, aDat, sizeof(gCommParam))==0)||gReplaceAllComm) {
 3324              		.loc 1 1380 0
 3325 0010 0B48     		ldr	r0, .L368
 3326 0012 2146     		mov	r1, r4
 3327 0014 4FF40B72 		mov	r2, #556
 3328 0018 FFF7FEFF 		bl	memcmp
 3329              	.LVL375:
 3330 001c 10B1     		cbz	r0, .L363
 3331              		.loc 1 1380 0 is_stmt 0 discriminator 1
 3332 001e 094B     		ldr	r3, .L368+4
 3333 0020 1B78     		ldrb	r3, [r3]	@ zero_extendqisi2
 3334 0022 23B1     		cbz	r3, .L364
 3335              	.L363:
1381:src/comm.c    ****     // For Demo ONLY
1382:src/comm.c    ****     SetTestCommParam(&gCommParam);
 3336              		.loc 1 1382 0 is_stmt 1
 3337 0024 0648     		ldr	r0, .L368
1383:src/comm.c    ****     return;
1384:src/comm.c    ****   }
1385:src/comm.c    ****   
1386:src/comm.c    ****   memcpy(&gCommParam, aDat, sizeof(gCommParam));
1387:src/comm.c    **** }
 3338              		.loc 1 1387 0
 3339 0026 BDE81040 		pop	{r4, lr}
 3340              		.cfi_remember_state
 3341              		.cfi_restore 14
 3342              		.cfi_restore 4
 3343              		.cfi_def_cfa_offset 0
 3344              	.LVL376:
1382:src/comm.c    ****     return;
ARM GAS  C:\Users\AHMED~1.ELE\AppData\Local\Temp\ccosOURr.s 			page 91


 3345              		.loc 1 1382 0
 3346 002a FFF7FEBF 		b	SetTestCommParam
 3347              	.LVL377:
 3348              	.L364:
 3349              		.cfi_restore_state
1386:src/comm.c    **** }
 3350              		.loc 1 1386 0
 3351 002e 2146     		mov	r1, r4
 3352              		.loc 1 1387 0
 3353 0030 BDE81040 		pop	{r4, lr}
 3354              		.cfi_restore 14
 3355              		.cfi_restore 4
 3356              		.cfi_def_cfa_offset 0
 3357              	.LVL378:
1386:src/comm.c    **** }
 3358              		.loc 1 1386 0
 3359 0034 0248     		ldr	r0, .L368
 3360 0036 4FF40B72 		mov	r2, #556
 3361 003a FFF7FEBF 		b	memcpy
 3362              	.LVL379:
 3363              	.L369:
 3364 003e 00BF     		.align	2
 3365              	.L368:
 3366 0040 00000000 		.word	gCommParam
 3367 0044 00000000 		.word	gReplaceAllComm
 3368              		.cfi_endproc
 3369              	.LFE29:
 3370              		.size	PackComm, .-PackComm
 3371              		.section	.text.PreConnect,"ax",%progbits
 3372              		.align	1
 3373              		.global	PreConnect
 3374              		.thumb
 3375              		.thumb_func
 3376              		.type	PreConnect, %function
 3377              	PreConnect:
 3378              	.LFB30:
1388:src/comm.c    **** //*****************************************************************************
1389:src/comm.c    **** //  Function        : PreConnect
1390:src/comm.c    **** //  Description     : PreConnect
1391:src/comm.c    **** //  Input           : Make a Pre-Connection.
1392:src/comm.c    **** //  Return          : N/A
1393:src/comm.c    **** //  Note            : N/A
1394:src/comm.c    **** //  Globals Changed : N/A
1395:src/comm.c    **** //*****************************************************************************
1396:src/comm.c    **** void  PreConnect(void)
1397:src/comm.c    **** {
 3379              		.loc 1 1397 0
 3380              		.cfi_startproc
 3381              		@ args = 0, pretend = 0, frame = 0
 3382              		@ frame_needed = 0, uses_anonymous_args = 0
 3383 0000 08B5     		push	{r3, lr}
 3384              		.cfi_def_cfa_offset 8
 3385              		.cfi_offset 3, -8
 3386              		.cfi_offset 14, -4
1398:src/comm.c    ****   if (TrainingModeON())
 3387              		.loc 1 1398 0
 3388 0002 FFF7FEFF 		bl	TrainingModeON
ARM GAS  C:\Users\AHMED~1.ELE\AppData\Local\Temp\ccosOURr.s 			page 92


 3389              	.LVL380:
 3390 0006 0146     		mov	r1, r0
 3391 0008 C8B9     		cbnz	r0, .L370
1399:src/comm.c    ****     return;
1400:src/comm.c    **** 
1401:src/comm.c    ****   switch (gCommParam.bCommMode) {
 3392              		.loc 1 1401 0
 3393 000a 0D4B     		ldr	r3, .L377
 3394 000c 9A78     		ldrb	r2, [r3, #2]	@ zero_extendqisi2
 3395 000e 062A     		cmp	r2, #6
 3396 0010 15D8     		bhi	.L370
 3397 0012 0123     		movs	r3, #1
 3398 0014 9340     		lsls	r3, r3, r2
 3399 0016 13F06402 		ands	r2, r3, #100
 3400 001a 07D1     		bne	.L372
 3401 001c 9907     		lsls	r1, r3, #30
 3402 001e 09D1     		bne	.L373
 3403 0020 DB06     		lsls	r3, r3, #27
 3404 0022 0CD5     		bpl	.L370
1402:src/comm.c    ****     case APM_COMM_AUX :
1403:src/comm.c    ****       ConnectAux(FALSE);
1404:src/comm.c    ****       break;
1405:src/comm.c    ****     case APM_COMM_BT:
1406:src/comm.c    ****     case APM_COMM_WIFI:
1407:src/comm.c    ****     case APM_COMM_TCPIP:
1408:src/comm.c    ****       ConnectTcpip(FALSE, FALSE);
1409:src/comm.c    ****       break;
1410:src/comm.c    ****     case APM_COMM_SYNC:
1411:src/comm.c    ****     case APM_COMM_ASYNC:
1412:src/comm.c    ****       ConnectMdmLine(FALSE, FALSE);
1413:src/comm.c    ****       break;
1414:src/comm.c    ****     default :
1415:src/comm.c    ****       break;
1416:src/comm.c    ****   }
1417:src/comm.c    **** }
 3405              		.loc 1 1417 0
 3406 0024 BDE80840 		pop	{r3, lr}
 3407              		.cfi_remember_state
 3408              		.cfi_restore 14
 3409              		.cfi_restore 3
 3410              		.cfi_def_cfa_offset 0
1403:src/comm.c    ****       break;
 3411              		.loc 1 1403 0
 3412 0028 FFF7FEBF 		b	ConnectAux.isra.0
 3413              	.LVL381:
 3414              	.L372:
 3415              		.cfi_restore_state
 3416              		.loc 1 1417 0
 3417 002c BDE80840 		pop	{r3, lr}
 3418              		.cfi_remember_state
 3419              		.cfi_restore 14
 3420              		.cfi_restore 3
 3421              		.cfi_def_cfa_offset 0
1408:src/comm.c    ****       break;
 3422              		.loc 1 1408 0
 3423 0030 FFF7FEBF 		b	ConnectTcpip
 3424              	.LVL382:
ARM GAS  C:\Users\AHMED~1.ELE\AppData\Local\Temp\ccosOURr.s 			page 93


 3425              	.L373:
 3426              		.cfi_restore_state
1412:src/comm.c    ****       break;
 3427              		.loc 1 1412 0
 3428 0034 1146     		mov	r1, r2
 3429              		.loc 1 1417 0
 3430 0036 BDE80840 		pop	{r3, lr}
 3431              		.cfi_remember_state
 3432              		.cfi_restore 14
 3433              		.cfi_restore 3
 3434              		.cfi_def_cfa_offset 0
1412:src/comm.c    ****       break;
 3435              		.loc 1 1412 0
 3436 003a FFF7FEBF 		b	ConnectMdmLine
 3437              	.LVL383:
 3438              	.L370:
 3439              		.cfi_restore_state
 3440 003e 08BD     		pop	{r3, pc}
 3441              	.L378:
 3442              		.align	2
 3443              	.L377:
 3444 0040 00000000 		.word	gCommParam
 3445              		.cfi_endproc
 3446              	.LFE30:
 3447              		.size	PreConnect, .-PreConnect
 3448              		.section	.text.ConnectOK,"ax",%progbits
 3449              		.align	1
 3450              		.global	ConnectOK
 3451              		.thumb
 3452              		.thumb_func
 3453              		.type	ConnectOK, %function
 3454              	ConnectOK:
 3455              	.LFB31:
1418:src/comm.c    **** //*****************************************************************************
1419:src/comm.c    **** //  Function        : ConnectOK
1420:src/comm.c    **** //  Description     : Make connection and return status.
1421:src/comm.c    **** //  Input           : aNoCancel;    // User Cancel allow or not (TRUE/FALSE)
1422:src/comm.c    **** //  Return          : N/A
1423:src/comm.c    **** //  Note            : N/A
1424:src/comm.c    **** //  Globals Changed : N/A
1425:src/comm.c    **** //*****************************************************************************
1426:src/comm.c    **** DWORD ConnectOK(DWORD aNoCancel)
1427:src/comm.c    **** {
 3456              		.loc 1 1427 0
 3457              		.cfi_startproc
 3458              		@ args = 0, pretend = 0, frame = 0
 3459              		@ frame_needed = 0, uses_anonymous_args = 0
 3460              	.LVL384:
 3461 0000 73B5     		push	{r0, r1, r4, r5, r6, lr}
 3462              		.cfi_def_cfa_offset 24
 3463              		.cfi_offset 4, -16
 3464              		.cfi_offset 5, -12
 3465              		.cfi_offset 6, -8
 3466              		.cfi_offset 14, -4
 3467              		.loc 1 1427 0
 3468 0002 0446     		mov	r4, r0
1428:src/comm.c    ****   DWORD ret;
ARM GAS  C:\Users\AHMED~1.ELE\AppData\Local\Temp\ccosOURr.s 			page 94


1429:src/comm.c    **** 
1430:src/comm.c    ****   if (TrainingModeON()) {
 3469              		.loc 1 1430 0
 3470 0004 FFF7FEFF 		bl	TrainingModeON
 3471              	.LVL385:
 3472 0008 30B3     		cbz	r0, .L380
1431:src/comm.c    ****     DispClrBelowMW(MW_LINE3);
 3473              		.loc 1 1431 0
 3474 000a 0026     		movs	r6, #0
 3475 000c 2321     		movs	r1, #35
 3476 000e 4FF44072 		mov	r2, #768
 3477 0012 3346     		mov	r3, r6
 3478 0014 0096     		str	r6, [sp]
 3479 0016 0F20     		movs	r0, #15
 3480 0018 FFF7FEFF 		bl	lib_app_call
 3481              	.LVL386:
 3482              	.LBB35:
1432:src/comm.c    ****     DispLineMW(KConnected, MW_LINE5, MW_CENTER|MW_BIGFONT);
 3483              		.loc 1 1432 0
 3484 001c 2048     		ldr	r0, .L388
 3485 001e FFF7FEFF 		bl	strlen
 3486              	.LVL387:
 3487 0022 0546     		mov	r5, r0
 3488              	.LVL388:
 3489 0024 691C     		adds	r1, r5, #1
 3490 0026 9220     		movs	r0, #146
 3491              	.LVL389:
 3492 0028 FFF7FEFF 		bl	sys_func1
 3493              	.LVL390:
 3494 002c 0446     		mov	r4, r0
 3495              	.LVL391:
 3496 002e 78B3     		cbz	r0, .L384
 3497              		.loc 1 1432 0 is_stmt 0 discriminator 1
 3498 0030 2A46     		mov	r2, r5
 3499 0032 1B49     		ldr	r1, .L388
 3500 0034 FFF7FEFF 		bl	memcpy
 3501              	.LVL392:
 3502 0038 41F20203 		movw	r3, #4098
 3503 003c 6655     		strb	r6, [r4, r5]
 3504 003e 2521     		movs	r1, #37
 3505 0040 0093     		str	r3, [sp]
 3506 0042 2246     		mov	r2, r4
 3507 0044 4FF4A063 		mov	r3, #1280
 3508 0048 0F20     		movs	r0, #15
 3509 004a FFF7FEFF 		bl	lib_app_call
 3510              	.LVL393:
 3511 004e 2146     		mov	r1, r4
 3512 0050 9420     		movs	r0, #148
 3513 0052 FFF7FEFF 		bl	sys_func1
 3514              	.LVL394:
 3515 0056 1BE0     		b	.L384
 3516              	.LVL395:
 3517              	.L380:
 3518              	.LBE35:
1433:src/comm.c    ****     return COMM_OK;
1434:src/comm.c    ****   }
1435:src/comm.c    **** 
ARM GAS  C:\Users\AHMED~1.ELE\AppData\Local\Temp\ccosOURr.s 			page 95


1436:src/comm.c    ****   if (!Return2Base()) {
 3519              		.loc 1 1436 0 is_stmt 1
 3520 0058 FFF7FEFF 		bl	Return2Base
 3521              	.LVL396:
 3522 005c D8B1     		cbz	r0, .L387
 3523              	.LVL397:
1437:src/comm.c    ****     return COMM_NO_LINE;
1438:src/comm.c    ****   }
1439:src/comm.c    **** 
1440:src/comm.c    ****   ret = COMM_NO_LINE;
1441:src/comm.c    ****   switch (gCommParam.bCommMode) {
 3524              		.loc 1 1441 0
 3525 005e 114B     		ldr	r3, .L388+4
 3526 0060 9B78     		ldrb	r3, [r3, #2]	@ zero_extendqisi2
 3527 0062 062B     		cmp	r3, #6
 3528 0064 17D8     		bhi	.L387
 3529 0066 0120     		movs	r0, #1
 3530 0068 00FA03F3 		lsl	r3, r0, r3
 3531 006c 13F06C0F 		tst	r3, #108
 3532 0070 06D1     		bne	.L382
 3533 0072 9A07     		lsls	r2, r3, #30
 3534 0074 08D1     		bne	.L383
 3535 0076 DB06     		lsls	r3, r3, #27
 3536 0078 0DD5     		bpl	.L387
1442:src/comm.c    ****     case APM_COMM_AUX:
1443:src/comm.c    ****       ret = ConnectAux(TRUE);
 3537              		.loc 1 1443 0
 3538 007a FFF7FEFF 		bl	ConnectAux.isra.0
 3539              	.LVL398:
1444:src/comm.c    ****       break;
 3540              		.loc 1 1444 0
 3541 007e 0CE0     		b	.L381
 3542              	.LVL399:
 3543              	.L382:
1445:src/comm.c    ****     case APM_COMM_BT:
1446:src/comm.c    ****     case APM_COMM_WIFI:
1447:src/comm.c    ****     case APM_COMM_GPRS:
1448:src/comm.c    ****     case APM_COMM_TCPIP:
1449:src/comm.c    ****       ret = ConnectTcpip(TRUE, aNoCancel);
 3544              		.loc 1 1449 0
 3545 0080 E1B2     		uxtb	r1, r4
 3546 0082 FFF7FEFF 		bl	ConnectTcpip
 3547              	.LVL400:
1450:src/comm.c    ****       break;
 3548              		.loc 1 1450 0
 3549 0086 08E0     		b	.L381
 3550              	.LVL401:
 3551              	.L383:
1451:src/comm.c    ****     case APM_COMM_SYNC:
1452:src/comm.c    ****     case APM_COMM_ASYNC:
1453:src/comm.c    ****       ret = ConnectMdmLine(TRUE, aNoCancel);
 3552              		.loc 1 1453 0
 3553 0088 E1B2     		uxtb	r1, r4
 3554 008a FFF7FEFF 		bl	ConnectMdmLine
 3555              	.LVL402:
1454:src/comm.c    ****       break;
 3556              		.loc 1 1454 0
ARM GAS  C:\Users\AHMED~1.ELE\AppData\Local\Temp\ccosOURr.s 			page 96


 3557 008e 04E0     		b	.L381
 3558              	.LVL403:
 3559              	.L384:
1433:src/comm.c    ****   }
 3560              		.loc 1 1433 0
 3561 0090 43F23000 		movw	r0, #12336
 3562 0094 01E0     		b	.L381
 3563              	.LVL404:
 3564              	.L387:
1437:src/comm.c    ****   }
 3565              		.loc 1 1437 0
 3566 0096 44F64E40 		movw	r0, #19534
 3567              	.LVL405:
 3568              	.L381:
1455:src/comm.c    ****     default:
1456:src/comm.c    ****       break;
1457:src/comm.c    ****   }
1458:src/comm.c    ****   return ret;
1459:src/comm.c    **** }
 3569              		.loc 1 1459 0
 3570 009a 02B0     		add	sp, sp, #8
 3571              		.cfi_def_cfa_offset 16
 3572              		@ sp needed
 3573 009c 70BD     		pop	{r4, r5, r6, pc}
 3574              	.L389:
 3575 009e 00BF     		.align	2
 3576              	.L388:
 3577 00a0 00000000 		.word	KConnected
 3578 00a4 00000000 		.word	gCommParam
 3579              		.cfi_endproc
 3580              	.LFE31:
 3581              		.size	ConnectOK, .-ConnectOK
 3582              		.section	.text.FlushComm,"ax",%progbits
 3583              		.align	1
 3584              		.global	FlushComm
 3585              		.thumb
 3586              		.thumb_func
 3587              		.type	FlushComm, %function
 3588              	FlushComm:
 3589              	.LFB32:
1460:src/comm.c    **** //*****************************************************************************
1461:src/comm.c    **** //  Function        : FlushComm
1462:src/comm.c    **** //  Description     : Flush Communication buffer.
1463:src/comm.c    **** //  Input           : N/A
1464:src/comm.c    **** //  Return          : N/A
1465:src/comm.c    **** //  Note            : N/A
1466:src/comm.c    **** //  Globals Changed : N/A
1467:src/comm.c    **** //*****************************************************************************
1468:src/comm.c    **** void  FlushComm(void)
1469:src/comm.c    **** {
 3590              		.loc 1 1469 0
 3591              		.cfi_startproc
 3592              		@ args = 0, pretend = 0, frame = 0
 3593              		@ frame_needed = 0, uses_anonymous_args = 0
 3594 0000 08B5     		push	{r3, lr}
 3595              		.cfi_def_cfa_offset 8
 3596              		.cfi_offset 3, -8
ARM GAS  C:\Users\AHMED~1.ELE\AppData\Local\Temp\ccosOURr.s 			page 97


 3597              		.cfi_offset 14, -4
1470:src/comm.c    ****   if (TrainingModeON())
 3598              		.loc 1 1470 0
 3599 0002 FFF7FEFF 		bl	TrainingModeON
 3600              	.LVL406:
 3601 0006 C0B9     		cbnz	r0, .L390
1471:src/comm.c    ****     return;
1472:src/comm.c    **** 
1473:src/comm.c    ****   switch (gCommParam.bCommMode) {
 3602              		.loc 1 1473 0
 3603 0008 0C4B     		ldr	r3, .L397
 3604 000a 9A78     		ldrb	r2, [r3, #2]	@ zero_extendqisi2
 3605 000c 062A     		cmp	r2, #6
 3606 000e 14D8     		bhi	.L390
 3607 0010 0123     		movs	r3, #1
 3608 0012 9340     		lsls	r3, r3, r2
 3609 0014 13F06C0F 		tst	r3, #108
 3610 0018 07D1     		bne	.L392
 3611 001a 9A07     		lsls	r2, r3, #30
 3612 001c 09D1     		bne	.L393
 3613 001e DB06     		lsls	r3, r3, #27
 3614 0020 0BD5     		bpl	.L390
1474:src/comm.c    ****     case APM_COMM_AUX:
1475:src/comm.c    ****       FlushAux();
1476:src/comm.c    ****       break;
1477:src/comm.c    ****     case APM_COMM_BT:
1478:src/comm.c    ****     case APM_COMM_WIFI:
1479:src/comm.c    ****     case APM_COMM_GPRS :
1480:src/comm.c    ****     case APM_COMM_TCPIP:
1481:src/comm.c    ****       FlushTcpip();
1482:src/comm.c    ****       break;
1483:src/comm.c    ****     case APM_COMM_SYNC:
1484:src/comm.c    ****     case APM_COMM_ASYNC:
1485:src/comm.c    ****       FlushMdmLine();
1486:src/comm.c    ****       break;
1487:src/comm.c    ****   }
1488:src/comm.c    **** }
 3615              		.loc 1 1488 0
 3616 0022 BDE80840 		pop	{r3, lr}
 3617              		.cfi_remember_state
 3618              		.cfi_restore 14
 3619              		.cfi_restore 3
 3620              		.cfi_def_cfa_offset 0
1475:src/comm.c    ****       break;
 3621              		.loc 1 1475 0
 3622 0026 FFF7FEBF 		b	FlushAux
 3623              	.LVL407:
 3624              	.L392:
 3625              		.cfi_restore_state
 3626              		.loc 1 1488 0
 3627 002a BDE80840 		pop	{r3, lr}
 3628              		.cfi_remember_state
 3629              		.cfi_restore 14
 3630              		.cfi_restore 3
 3631              		.cfi_def_cfa_offset 0
1481:src/comm.c    ****       break;
 3632              		.loc 1 1481 0
ARM GAS  C:\Users\AHMED~1.ELE\AppData\Local\Temp\ccosOURr.s 			page 98


 3633 002e FFF7FEBF 		b	FlushTcpip
 3634              	.LVL408:
 3635              	.L393:
 3636              		.cfi_restore_state
 3637              		.loc 1 1488 0
 3638 0032 BDE80840 		pop	{r3, lr}
 3639              		.cfi_remember_state
 3640              		.cfi_restore 14
 3641              		.cfi_restore 3
 3642              		.cfi_def_cfa_offset 0
1485:src/comm.c    ****       break;
 3643              		.loc 1 1485 0
 3644 0036 FFF7FEBF 		b	FlushMdmLine
 3645              	.LVL409:
 3646              	.L390:
 3647              		.cfi_restore_state
 3648 003a 08BD     		pop	{r3, pc}
 3649              	.L398:
 3650              		.align	2
 3651              	.L397:
 3652 003c 00000000 		.word	gCommParam
 3653              		.cfi_endproc
 3654              	.LFE32:
 3655              		.size	FlushComm, .-FlushComm
 3656              		.global	__aeabi_uidivmod
 3657              		.section	.text.SendRcvd,"ax",%progbits
 3658              		.align	1
 3659              		.global	SendRcvd
 3660              		.thumb
 3661              		.thumb_func
 3662              		.type	SendRcvd, %function
 3663              	SendRcvd:
 3664              	.LFB33:
1489:src/comm.c    **** //*****************************************************************************
1490:src/comm.c    **** //  Function        : SendRcvd
1491:src/comm.c    **** //  Description     : Send and wait response from host.
1492:src/comm.c    **** //  Input           : aSend;            // pointer to send buffer
1493:src/comm.c    **** //                    aRcvd;            // pointer to receive buffer.
1494:src/comm.c    **** //  Return          : status;
1495:src/comm.c    **** //  Note            : N/A
1496:src/comm.c    **** //  Globals Changed : N/A
1497:src/comm.c    **** //*****************************************************************************
1498:src/comm.c    **** DWORD SendRcvd(struct COMMBUF *aSend, struct COMMBUF *aRcvd)
1499:src/comm.c    **** {
 3665              		.loc 1 1499 0
 3666              		.cfi_startproc
 3667              		@ args = 0, pretend = 0, frame = 0
 3668              		@ frame_needed = 0, uses_anonymous_args = 0
 3669              	.LVL410:
 3670 0000 2DE9F74F 		push	{r0, r1, r2, r4, r5, r6, r7, r8, r9, r10, fp, lr}
 3671              		.cfi_def_cfa_offset 48
 3672              		.cfi_offset 4, -36
 3673              		.cfi_offset 5, -32
 3674              		.cfi_offset 6, -28
 3675              		.cfi_offset 7, -24
 3676              		.cfi_offset 8, -20
 3677              		.cfi_offset 9, -16
ARM GAS  C:\Users\AHMED~1.ELE\AppData\Local\Temp\ccosOURr.s 			page 99


 3678              		.cfi_offset 10, -12
 3679              		.cfi_offset 11, -8
 3680              		.cfi_offset 14, -4
1500:src/comm.c    ****   WORD ret;
1501:src/comm.c    ****   BYTE  refresh_rate = 5;
1502:src/comm.c    ****   DWORD toggle = 0;
1503:src/comm.c    ****   DWORD host_timeout, status;
1504:src/comm.c    **** 
1505:src/comm.c    ****   DispClrBelowMW(MW_LINE3);
 3681              		.loc 1 1505 0
 3682 0004 4FF00008 		mov	r8, #0
 3683 0008 4FF44072 		mov	r2, #768
 3684 000c 4346     		mov	r3, r8
1499:src/comm.c    ****   WORD ret;
 3685              		.loc 1 1499 0
 3686 000e 0446     		mov	r4, r0
 3687 0010 0D46     		mov	r5, r1
 3688              		.loc 1 1505 0
 3689 0012 CDF80080 		str	r8, [sp]
 3690 0016 2321     		movs	r1, #35
 3691              	.LVL411:
 3692 0018 0F20     		movs	r0, #15
 3693              	.LVL412:
 3694 001a FFF7FEFF 		bl	lib_app_call
 3695              	.LVL413:
 3696              	.LBB58:
1506:src/comm.c    ****   DispLineMW(KConnected, MW_LINE5, MW_CENTER|MW_BIGFONT);
 3697              		.loc 1 1506 0
 3698 001e B348     		ldr	r0, .L480
 3699 0020 FFF7FEFF 		bl	strlen
 3700              	.LVL414:
 3701 0024 0746     		mov	r7, r0
 3702              	.LVL415:
 3703 0026 791C     		adds	r1, r7, #1
 3704 0028 9220     		movs	r0, #146
 3705              	.LVL416:
 3706 002a FFF7FEFF 		bl	sys_func1
 3707              	.LVL417:
 3708 002e 0646     		mov	r6, r0
 3709 0030 98B1     		cbz	r0, .L400
 3710              		.loc 1 1506 0 is_stmt 0 discriminator 1
 3711 0032 AE49     		ldr	r1, .L480
 3712 0034 3A46     		mov	r2, r7
 3713 0036 FFF7FEFF 		bl	memcpy
 3714              	.LVL418:
 3715 003a 41F20203 		movw	r3, #4098
 3716 003e 06F80780 		strb	r8, [r6, r7]
 3717 0042 2521     		movs	r1, #37
 3718 0044 0093     		str	r3, [sp]
 3719 0046 0F20     		movs	r0, #15
 3720 0048 3246     		mov	r2, r6
 3721 004a 4FF4A063 		mov	r3, #1280
 3722 004e FFF7FEFF 		bl	lib_app_call
 3723              	.LVL419:
 3724 0052 9420     		movs	r0, #148
 3725 0054 3146     		mov	r1, r6
 3726 0056 FFF7FEFF 		bl	sys_func1
ARM GAS  C:\Users\AHMED~1.ELE\AppData\Local\Temp\ccosOURr.s 			page 100


 3727              	.LVL420:
 3728              	.L400:
 3729              	.LBE58:
1507:src/comm.c    ****   if (TrainingModeON()) {
 3730              		.loc 1 1507 0 is_stmt 1
 3731 005a FFF7FEFF 		bl	TrainingModeON
 3732              	.LVL421:
 3733 005e 10B3     		cbz	r0, .L401
 3734              	.LBB59:
1508:src/comm.c    ****     DispLineMW(KCommWait, MW_LINE7, MW_CENTER|MW_BIGFONT);
 3735              		.loc 1 1508 0
