ARM GAS  C:\Users\AHMED~1.ELE\AppData\Local\Temp\ccWMHy5f.s 			page 1


   1              		.syntax unified
   2              		.cpu cortex-a5
   3              		.fpu softvfp
   4              		.eabi_attribute 20, 1
   5              		.eabi_attribute 21, 1
   6              		.eabi_attribute 23, 3
   7              		.eabi_attribute 24, 1
   8              		.eabi_attribute 25, 1
   9              		.eabi_attribute 26, 1
  10              		.eabi_attribute 30, 4
  11              		.eabi_attribute 34, 0
  12              		.eabi_attribute 18, 4
  13              		.thumb
  14              		.file	"ctlcfg.c"
  15              		.text
  16              	.Ltext0:
  17              		.cfi_sections	.debug_frame
  18              		.section	.text.KernelReady,"ax",%progbits
  19              		.align	1
  20              		.thumb
  21              		.thumb_func
  22              		.type	KernelReady, %function
  23              	KernelReady:
  24              	.LFB0:
  25              		.file 1 "src/ctlcfg.c"
   1:src/ctlcfg.c  **** //-----------------------------------------------------------------------------
   2:src/ctlcfg.c  **** //  File          : CTLCfg.c
   3:src/ctlcfg.c  **** //  Module        :
   4:src/ctlcfg.c  **** //  Description   : CTL Configuration Process.
   5:src/ctlcfg.c  **** //  Author        : Lewis
   6:src/ctlcfg.c  **** //  Notes         :
   7:src/ctlcfg.c  **** //
   8:src/ctlcfg.c  **** // ============================================================================
   9:src/ctlcfg.c  **** // | Naming conventions                                                       |
  10:src/ctlcfg.c  **** // | ~~~~~~~~~~~~~~~~~~                                                       |
  11:src/ctlcfg.c  **** // |        Struct define : Leading T                                         |
  12:src/ctlcfg.c  **** // |         Struct/Array : Leading s                                         |
  13:src/ctlcfg.c  **** // |             Constant : Leading K                                         |
  14:src/ctlcfg.c  **** // |      Global Variable : Leading g  (variable use outside one C file)      |
  15:src/ctlcfg.c  **** // |                                                                          |
  16:src/ctlcfg.c  **** // |   BYTE( 8 Bits) size : Leading b                                         |
  17:src/ctlcfg.c  **** // |   CHAR( 8 Bits) size : Leading c                                         |
  18:src/ctlcfg.c  **** // |   WORD(16 Bits) size : Leading w                                         |
  19:src/ctlcfg.c  **** // |  DWORD(32 Bits) size : Leading d                                         |
  20:src/ctlcfg.c  **** // |    int(32 Bits) size : Leading i                                         |
  21:src/ctlcfg.c  **** // | DDWORD(64 Bits) size : Leading dd                                        |
  22:src/ctlcfg.c  **** // |              Pointer : Leading p                                         |
  23:src/ctlcfg.c  **** // |                                                                          |
  24:src/ctlcfg.c  **** // |    Function argument : Leading a                                         |
  25:src/ctlcfg.c  **** // |       Local Variable : All lower case                                    |
  26:src/ctlcfg.c  **** // |                                                                          |
  27:src/ctlcfg.c  **** // | Examples:                                                                |
  28:src/ctlcfg.c  **** // |                Array : Leading s, (sb = arrary of byte, etc)             |
  29:src/ctlcfg.c  **** // |              Pointer : Leading p, (pb = pointer of byte, etc)            |
  30:src/ctlcfg.c  **** // ============================================================================
  31:src/ctlcfg.c  **** //
  32:src/ctlcfg.c  **** //  Date          Who         Action
ARM GAS  C:\Users\AHMED~1.ELE\AppData\Local\Temp\ccWMHy5f.s 			page 2


  33:src/ctlcfg.c  **** //  ------------  ----------- -------------------------------------------------
  34:src/ctlcfg.c  **** //  29 Sept 2008  Lewis       Initial Version.
  35:src/ctlcfg.c  **** //-----------------------------------------------------------------------------
  36:src/ctlcfg.c  **** #include <string.h>
  37:src/ctlcfg.c  **** #include "midware.h"
  38:src/ctlcfg.c  **** #include "util.h"
  39:src/ctlcfg.c  **** #include "hardware.h"
  40:src/ctlcfg.c  **** #include "emv2dll.h"
  41:src/ctlcfg.c  **** #include "emvcl2dll.h"
  42:src/ctlcfg.c  **** #include "sysutil.h"
  43:src/ctlcfg.c  **** #include "kbdutil.h"
  44:src/ctlcfg.c  **** #include "infodata.h"
  45:src/ctlcfg.c  **** #include "lptutil.h"
  46:src/ctlcfg.c  **** #include "emvtrans.h"
  47:src/ctlcfg.c  **** #include "ctlcfg.h"
  48:src/ctlcfg.c  **** 
  49:src/ctlcfg.c  **** //-----------------------------------------------------------------------------
  50:src/ctlcfg.c  **** //      Common Defines
  51:src/ctlcfg.c  **** //-----------------------------------------------------------------------------
  52:src/ctlcfg.c  **** 
  53:src/ctlcfg.c  **** //-----------------------------------------------------------------------------
  54:src/ctlcfg.c  **** //    Constant Message
  55:src/ctlcfg.c  **** //-----------------------------------------------------------------------------
  56:src/ctlcfg.c  **** 
  57:src/ctlcfg.c  **** //-----------------------------------------------------------------------------
  58:src/ctlcfg.c  **** //    Global Variables
  59:src/ctlcfg.c  **** //-----------------------------------------------------------------------------
  60:src/ctlcfg.c  **** static BYTE   *sbIOBuf;
  61:src/ctlcfg.c  **** static CL_IO  *sCTLIn;
  62:src/ctlcfg.c  **** static CL_IO  *sCTLOut;
  63:src/ctlcfg.c  **** static BYTE   bCtlLoaded;
  64:src/ctlcfg.c  **** static BYTE   bMaxNumBlk, bDnloadBlk;
  65:src/ctlcfg.c  **** static WORD   wChunkSize;
  66:src/ctlcfg.c  **** static int    iDnloadFile = -1;
  67:src/ctlcfg.c  **** 
  68:src/ctlcfg.c  **** static const BYTE KCTLTemp[] = {"ctl_tmp"};
  69:src/ctlcfg.c  **** 
  70:src/ctlcfg.c  **** 
  71:src/ctlcfg.c  **** //*****************************************************************************
  72:src/ctlcfg.c  **** //  Function        : KernelReady
  73:src/ctlcfg.c  **** //  Description     : Check Whether CTL Kernel exist
  74:src/ctlcfg.c  **** //  Input           : N/A
  75:src/ctlcfg.c  **** //  Return          : N/A
  76:src/ctlcfg.c  **** //  Note            : N/A
  77:src/ctlcfg.c  **** //  Globals Changed : N/A
  78:src/ctlcfg.c  **** //*****************************************************************************
  79:src/ctlcfg.c  **** static BOOLEAN KernelReady(void)
  80:src/ctlcfg.c  **** {
  26              		.loc 1 80 0
  27              		.cfi_startproc
  28              		@ args = 0, pretend = 0, frame = 0
  29              		@ frame_needed = 0, uses_anonymous_args = 0
  30 0000 08B5     		push	{r3, lr}
  31              		.cfi_def_cfa_offset 8
  32              		.cfi_offset 3, -8
  33              		.cfi_offset 14, -4
  81:src/ctlcfg.c  ****   if (!IsAppIdExistMW(EMVCLDLL_ID))
ARM GAS  C:\Users\AHMED~1.ELE\AppData\Local\Temp\ccWMHy5f.s 			page 3


  34              		.loc 1 81 0
  35 0002 6421     		movs	r1, #100
  36 0004 8D20     		movs	r0, #141
  37 0006 FFF7FEFF 		bl	sys_func1
  38              	.LVL0:
  82:src/ctlcfg.c  ****     return FALSE;
  83:src/ctlcfg.c  **** 
  84:src/ctlcfg.c  ****   return TRUE;
  85:src/ctlcfg.c  **** }
  39              		.loc 1 85 0
  40 000a 0030     		adds	r0, r0, #0
  41 000c 18BF     		it	ne
  42 000e 0120     		movne	r0, #1
  43 0010 08BD     		pop	{r3, pc}
  44              		.cfi_endproc
  45              	.LFE0:
  46              		.size	KernelReady, .-KernelReady
  47              		.section	.text.CTLFatal,"ax",%progbits
  48              		.align	1
  49              		.thumb
  50              		.thumb_func
  51              		.type	CTLFatal, %function
  52              	CTLFatal:
  53              	.LFB1:
  86:src/ctlcfg.c  **** //*****************************************************************************
  87:src/ctlcfg.c  **** //  Function        : CTLFatal
  88:src/ctlcfg.c  **** //  Description     : CTL Fatal Error.
  89:src/ctlcfg.c  **** //  Input           : N/A
  90:src/ctlcfg.c  **** //  Return          : N/A
  91:src/ctlcfg.c  **** //  Note            : N/A
  92:src/ctlcfg.c  **** //  Globals Changed : N/A
  93:src/ctlcfg.c  **** //*****************************************************************************
  94:src/ctlcfg.c  **** static void CTLFatal(void)
  95:src/ctlcfg.c  **** {
  54              		.loc 1 95 0
  55              		.cfi_startproc
  56              		@ args = 0, pretend = 0, frame = 0
  57              		@ frame_needed = 0, uses_anonymous_args = 0
  58 0000 08B5     		push	{r3, lr}
  59              		.cfi_def_cfa_offset 8
  60              		.cfi_offset 3, -8
  61              		.cfi_offset 14, -4
  96:src/ctlcfg.c  ****   DispPutStr("\f\nCTL2 FATAL ERR\nPLS CALL SERVICE");
  62              		.loc 1 96 0
  63 0002 0748     		ldr	r0, .L6
  64 0004 FFF7FEFF 		bl	DispPutStr
  65              	.LVL1:
  66              	.L3:
  97:src/ctlcfg.c  ****   while (WaitKey(KBD_TIMEOUT) != MWKEY_CANCL);
  67              		.loc 1 97 0 discriminator 1
  68 0008 42F22830 		movw	r0, #9000
  69 000c FFF7FEFF 		bl	WaitKey
  70              	.LVL2:
  71 0010 1128     		cmp	r0, #17
  72 0012 F9D1     		bne	.L3
  98:src/ctlcfg.c  ****   ResetMW();
  73              		.loc 1 98 0
ARM GAS  C:\Users\AHMED~1.ELE\AppData\Local\Temp\ccWMHy5f.s 			page 4


  74 0014 4FF4CF70 		mov	r0, #414
  99:src/ctlcfg.c  **** }
  75              		.loc 1 99 0
  76 0018 BDE80840 		pop	{r3, lr}
  77              		.cfi_restore 14
  78              		.cfi_restore 3
  79              		.cfi_def_cfa_offset 0
  98:src/ctlcfg.c  ****   ResetMW();
  80              		.loc 1 98 0
  81 001c FFF7FEBF 		b	sys_func0
  82              	.LVL3:
  83              	.L7:
  84              		.align	2
  85              	.L6:
  86 0020 00000000 		.word	.LC0
  87              		.cfi_endproc
  88              	.LFE1:
  89              		.size	CTLFatal, .-CTLFatal
  90              		.section	.text.ClrCTLKey,"ax",%progbits
  91              		.align	1
  92              		.global	ClrCTLKey
  93              		.thumb
  94              		.thumb_func
  95              		.type	ClrCTLKey, %function
  96              	ClrCTLKey:
  97              	.LFB2:
 100:src/ctlcfg.c  **** //*****************************************************************************
 101:src/ctlcfg.c  **** //  Function        : ClrCTLKey
 102:src/ctlcfg.c  **** //  Description     : Clear All CTL Keys.
 103:src/ctlcfg.c  **** //  Input           : N/A
 104:src/ctlcfg.c  **** //  Return          : N/A
 105:src/ctlcfg.c  **** //  Note            : N/A
 106:src/ctlcfg.c  **** //  Globals Changed : N/A
 107:src/ctlcfg.c  **** //*****************************************************************************
 108:src/ctlcfg.c  **** void ClrCTLKey(void)
 109:src/ctlcfg.c  **** {
  98              		.loc 1 109 0
  99              		.cfi_startproc
 100              		@ args = 0, pretend = 0, frame = 0
 101              		@ frame_needed = 0, uses_anonymous_args = 0
 102 0000 73B5     		push	{r0, r1, r4, r5, r6, lr}
 103              		.cfi_def_cfa_offset 24
 104              		.cfi_offset 4, -16
 105              		.cfi_offset 5, -12
 106              		.cfi_offset 6, -8
 107              		.cfi_offset 14, -4
 110:src/ctlcfg.c  ****   if (!KernelReady())
 108              		.loc 1 110 0
 109 0002 FFF7FEFF 		bl	KernelReady
 110              	.LVL4:
 111 0006 D0B1     		cbz	r0, .L8
 112              	.LBB4:
 113              	.LBB5:
 111:src/ctlcfg.c  ****     return;
 112:src/ctlcfg.c  **** 
 113:src/ctlcfg.c  ****   sCTLIn->pbMsg = sCTLOut->pbMsg = sbIOBuf;
 114              		.loc 1 113 0
ARM GAS  C:\Users\AHMED~1.ELE\AppData\Local\Temp\ccWMHy5f.s 			page 5


 115 0008 0E4B     		ldr	r3, .L12
 114:src/ctlcfg.c  ****   memset(sCTLIn->pbMsg, 0, 6);
 116              		.loc 1 114 0
 117 000a 0626     		movs	r6, #6
 113:src/ctlcfg.c  ****   memset(sCTLIn->pbMsg, 0, 6);
 118              		.loc 1 113 0
 119 000c 93E83000 		ldmia	r3, {r4, r5}
 120 0010 9868     		ldr	r0, [r3, #8]
 121              		.loc 1 114 0
 122 0012 0021     		movs	r1, #0
 113:src/ctlcfg.c  ****   memset(sCTLIn->pbMsg, 0, 6);
 123              		.loc 1 113 0
 124 0014 6860     		str	r0, [r5, #4]
 125              		.loc 1 114 0
 126 0016 3246     		mov	r2, r6
 113:src/ctlcfg.c  ****   memset(sCTLIn->pbMsg, 0, 6);
 127              		.loc 1 113 0
 128 0018 6060     		str	r0, [r4, #4]
 129              		.loc 1 114 0
 130 001a FFF7FEFF 		bl	memset
 131              	.LVL5:
 115:src/ctlcfg.c  ****   sCTLIn->wLen = 6;
 132              		.loc 1 115 0
 133 001e 2680     		strh	r6, [r4]	@ movhi
 116:src/ctlcfg.c  ****   if (emvclSetup(CLCMD_KEY_LOADING,sCTLIn,sCTLOut) == FALSE)     // clear all key
 134              		.loc 1 116 0
 135 0020 6420     		movs	r0, #100
 136 0022 0095     		str	r5, [sp]
 137 0024 0021     		movs	r1, #0
 138 0026 0222     		movs	r2, #2
 139 0028 2346     		mov	r3, r4
 140 002a FFF7FEFF 		bl	lib_app_call
 141              	.LVL6:
 142 002e 10F0FF0F 		tst	r0, #255
 143 0032 04D1     		bne	.L8
 144              	.LBE5:
 145              	.LBE4:
 117:src/ctlcfg.c  ****     CTLFatal();
 118:src/ctlcfg.c  **** }
 146              		.loc 1 118 0
 147 0034 02B0     		add	sp, sp, #8
 148              		.cfi_remember_state
 149              		.cfi_def_cfa_offset 16
 150              		@ sp needed
 151 0036 BDE87040 		pop	{r4, r5, r6, lr}
 152              		.cfi_restore 14
 153              		.cfi_restore 6
 154              		.cfi_restore 5
 155              		.cfi_restore 4
 156              		.cfi_def_cfa_offset 0
 157              	.LBB7:
 158              	.LBB6:
 117:src/ctlcfg.c  ****     CTLFatal();
 159              		.loc 1 117 0
 160 003a FFF7FEBF 		b	CTLFatal
 161              	.LVL7:
 162              	.L8:
ARM GAS  C:\Users\AHMED~1.ELE\AppData\Local\Temp\ccWMHy5f.s 			page 6


 163              		.cfi_restore_state
 164              	.LBE6:
 165              	.LBE7:
 166              		.loc 1 118 0
 167 003e 02B0     		add	sp, sp, #8
 168              		.cfi_def_cfa_offset 16
 169              		@ sp needed
 170 0040 70BD     		pop	{r4, r5, r6, pc}
 171              	.L13:
 172 0042 00BF     		.align	2
 173              	.L12:
 174 0044 00000000 		.word	.LANCHOR0
 175              		.cfi_endproc
 176              	.LFE2:
 177              		.size	ClrCTLKey, .-ClrCTLKey
 178              		.section	.text.ClrCTLParam,"ax",%progbits
 179              		.align	1
 180              		.global	ClrCTLParam
 181              		.thumb
 182              		.thumb_func
 183              		.type	ClrCTLParam, %function
 184              	ClrCTLParam:
 185              	.LFB3:
 119:src/ctlcfg.c  **** //*****************************************************************************
 120:src/ctlcfg.c  **** //  Function        : ClrCTLParam
 121:src/ctlcfg.c  **** //  Description     : Clear all CTL dll's parameters.
 122:src/ctlcfg.c  **** //  Input           : N/A
 123:src/ctlcfg.c  **** //  Return          : N/A
 124:src/ctlcfg.c  **** //  Note            : N/A
 125:src/ctlcfg.c  **** //  Globals Changed : N/A
 126:src/ctlcfg.c  **** //*****************************************************************************
 127:src/ctlcfg.c  **** void ClrCTLParam(void)
 128:src/ctlcfg.c  **** {
 186              		.loc 1 128 0
 187              		.cfi_startproc
 188              		@ args = 0, pretend = 0, frame = 0
 189              		@ frame_needed = 0, uses_anonymous_args = 0
 190 0000 13B5     		push	{r0, r1, r4, lr}
 191              		.cfi_def_cfa_offset 16
 192              		.cfi_offset 4, -8
 193              		.cfi_offset 14, -4
 129:src/ctlcfg.c  ****   if (!KernelReady())
 194              		.loc 1 129 0
 195 0002 FFF7FEFF 		bl	KernelReady
 196              	.LVL8:
 197 0006 00B3     		cbz	r0, .L14
 198              	.LBB10:
 199              	.LBB11:
 130:src/ctlcfg.c  ****     return;
 131:src/ctlcfg.c  **** 
 132:src/ctlcfg.c  ****   sCTLIn->pbMsg = sCTLOut->pbMsg = sbIOBuf;
 200              		.loc 1 132 0
 201 0008 114C     		ldr	r4, .L20
 133:src/ctlcfg.c  **** 
 134:src/ctlcfg.c  ****   GetSysCfgMW(K_CF_SerialNo, sCTLIn->pbMsg);
 202              		.loc 1 134 0
 203 000a B920     		movs	r0, #185
ARM GAS  C:\Users\AHMED~1.ELE\AppData\Local\Temp\ccWMHy5f.s 			page 7


 132:src/ctlcfg.c  **** 
 204              		.loc 1 132 0
 205 000c A268     		ldr	r2, [r4, #8]
 206 000e 2368     		ldr	r3, [r4]
 207 0010 6168     		ldr	r1, [r4, #4]
 208 0012 4A60     		str	r2, [r1, #4]
 209 0014 5A60     		str	r2, [r3, #4]
 210              		.loc 1 134 0
 211 0016 0221     		movs	r1, #2
 212 0018 FFF7FEFF 		bl	sys_func2
 213              	.LVL9:
 135:src/ctlcfg.c  ****   sCTLIn->wLen = 8;
 214              		.loc 1 135 0
 215 001c 2368     		ldr	r3, [r4]
 216 001e 0822     		movs	r2, #8
 136:src/ctlcfg.c  **** 
 137:src/ctlcfg.c  ****   if (emvclSetup(CLCMD_IFDSN_RW,sCTLIn,sCTLOut) == FALSE)     // set IFDSN
 217              		.loc 1 137 0
 218 0020 6420     		movs	r0, #100
 135:src/ctlcfg.c  ****   sCTLIn->wLen = 8;
 219              		.loc 1 135 0
 220 0022 1A80     		strh	r2, [r3]	@ movhi
 221              		.loc 1 137 0
 222 0024 6268     		ldr	r2, [r4, #4]
 223 0026 0021     		movs	r1, #0
 224 0028 0092     		str	r2, [sp]
 225 002a 0122     		movs	r2, #1
 226 002c FFF7FEFF 		bl	lib_app_call
 227              	.LVL10:
 228 0030 10F0FF0F 		tst	r0, #255
 229 0034 01D1     		bne	.L16
 138:src/ctlcfg.c  ****     CTLFatal();
 230              		.loc 1 138 0
 231 0036 FFF7FEFF 		bl	CTLFatal
 232              	.LVL11:
 233              	.L16:
 139:src/ctlcfg.c  **** 
 140:src/ctlcfg.c  ****   emvclSetup(CLCMD_CLR_AID,sCTLIn,sCTLOut);              // clear AID parameters
 234              		.loc 1 140 0
 235 003a 6368     		ldr	r3, [r4, #4]
 236 003c 6420     		movs	r0, #100
 237 003e 0093     		str	r3, [sp]
 238 0040 0021     		movs	r1, #0
 239 0042 0322     		movs	r2, #3
 240 0044 2368     		ldr	r3, [r4]
 241 0046 FFF7FEFF 		bl	lib_app_call
 242              	.LVL12:
 243              	.L14:
 244              	.LBE11:
 245              	.LBE10:
 141:src/ctlcfg.c  **** }
 246              		.loc 1 141 0
 247 004a 02B0     		add	sp, sp, #8
 248              		.cfi_def_cfa_offset 8
 249              		@ sp needed
 250 004c 10BD     		pop	{r4, pc}
 251              	.L21:
ARM GAS  C:\Users\AHMED~1.ELE\AppData\Local\Temp\ccWMHy5f.s 			page 8


 252 004e 00BF     		.align	2
 253              	.L20:
 254 0050 00000000 		.word	.LANCHOR0
 255              		.cfi_endproc
 256              	.LFE3:
 257              		.size	ClrCTLParam, .-ClrCTLParam
 258              		.section	.text.SetCTLLoaded,"ax",%progbits
 259              		.align	1
 260              		.global	SetCTLLoaded
 261              		.thumb
 262              		.thumb_func
 263              		.type	SetCTLLoaded, %function
 264              	SetCTLLoaded:
 265              	.LFB4:
 142:src/ctlcfg.c  **** //*****************************************************************************
 143:src/ctlcfg.c  **** //  Function        : SetCTLLoaded
 144:src/ctlcfg.c  **** //  Description     : set CTL loaded flag
 145:src/ctlcfg.c  **** //  Input           : aFlag
 146:src/ctlcfg.c  **** //  Return          : N/A
 147:src/ctlcfg.c  **** //  Note            : N/A
 148:src/ctlcfg.c  **** //  Globals Changed : N/A
 149:src/ctlcfg.c  **** //*****************************************************************************
 150:src/ctlcfg.c  **** void SetCTLLoaded(BYTE aFlag)
 151:src/ctlcfg.c  **** {
 266              		.loc 1 151 0
 267              		.cfi_startproc
 268              		@ args = 0, pretend = 0, frame = 0
 269              		@ frame_needed = 0, uses_anonymous_args = 0
 270              		@ link register save eliminated.
 271              	.LVL13:
 152:src/ctlcfg.c  ****   bCtlLoaded |= aFlag;
 272              		.loc 1 152 0
 273 0000 024A     		ldr	r2, .L23
 274 0002 137B     		ldrb	r3, [r2, #12]	@ zero_extendqisi2
 275 0004 1843     		orrs	r0, r0, r3
 276              	.LVL14:
 277 0006 1073     		strb	r0, [r2, #12]
 278 0008 7047     		bx	lr
 279              	.L24:
 280 000a 00BF     		.align	2
 281              	.L23:
 282 000c 00000000 		.word	.LANCHOR0
 283              		.cfi_endproc
 284              	.LFE4:
 285              		.size	SetCTLLoaded, .-SetCTLLoaded
 286              		.section	.text.CTLClrDnloadBuf,"ax",%progbits
 287              		.align	1
 288              		.global	CTLClrDnloadBuf
 289              		.thumb
 290              		.thumb_func
 291              		.type	CTLClrDnloadBuf, %function
 292              	CTLClrDnloadBuf:
 293              	.LFB5:
 153:src/ctlcfg.c  **** }
 154:src/ctlcfg.c  **** //*****************************************************************************
 155:src/ctlcfg.c  **** //  Function        : CTLClrDnloadBuf
 156:src/ctlcfg.c  **** //  Description     : Prepare download buffer for CTL data download.
ARM GAS  C:\Users\AHMED~1.ELE\AppData\Local\Temp\ccWMHy5f.s 			page 9


 157:src/ctlcfg.c  **** //  Input           : N/A
 158:src/ctlcfg.c  **** //  Return          : N/A
 159:src/ctlcfg.c  **** //  Note            : N/A
 160:src/ctlcfg.c  **** //  Globals Changed : N/A
 161:src/ctlcfg.c  **** //*****************************************************************************
 162:src/ctlcfg.c  **** void CTLClrDnloadBuf (void)
 163:src/ctlcfg.c  **** {
 294              		.loc 1 163 0
 295              		.cfi_startproc
 296              		@ args = 0, pretend = 0, frame = 32
 297              		@ frame_needed = 0, uses_anonymous_args = 0
 164:src/ctlcfg.c  ****   BYTE filename[32];
 165:src/ctlcfg.c  ****   if (sizeof(CL_CFGP) < sizeof(CL_KEY_ROOM))
 166:src/ctlcfg.c  ****     wChunkSize = sizeof(CL_KEY_ROOM)+3;  // 3B for type and len
 167:src/ctlcfg.c  ****   else
 168:src/ctlcfg.c  ****     wChunkSize = sizeof(CL_CFGP)+3;   // 3B for type and len
 298              		.loc 1 168 0
 299 0000 164A     		ldr	r2, .L27
 163:src/ctlcfg.c  ****   BYTE filename[32];
 300              		.loc 1 163 0
 301 0002 30B5     		push	{r4, r5, lr}
 302              		.cfi_def_cfa_offset 12
 303              		.cfi_offset 4, -12
 304              		.cfi_offset 5, -8
 305              		.cfi_offset 14, -4
 306              		.loc 1 168 0
 307 0004 40F21A23 		movw	r3, #538
 169:src/ctlcfg.c  ****   //bMaxNumBlk = sizeof(sbIOBuf)/wChunkSize;
 170:src/ctlcfg.c  ****   bMaxNumBlk = 1500/wChunkSize;                       //29-09-16 JC ++
 171:src/ctlcfg.c  ****   bDnloadBlk = bCtlLoaded = 0;
 172:src/ctlcfg.c  **** 
 173:src/ctlcfg.c  ****   if (iDnloadFile >= 0) {
 308              		.loc 1 173 0
 309 0008 154C     		ldr	r4, .L27+4
 168:src/ctlcfg.c  ****   //bMaxNumBlk = sizeof(sbIOBuf)/wChunkSize;
 310              		.loc 1 168 0
 311 000a D381     		strh	r3, [r2, #14]	@ movhi
 170:src/ctlcfg.c  ****   bDnloadBlk = bCtlLoaded = 0;
 312              		.loc 1 170 0
 313 000c 0223     		movs	r3, #2
 163:src/ctlcfg.c  ****   BYTE filename[32];
 314              		.loc 1 163 0
 315 000e 8BB0     		sub	sp, sp, #44
 316              		.cfi_def_cfa_offset 56
 170:src/ctlcfg.c  ****   bDnloadBlk = bCtlLoaded = 0;
 317              		.loc 1 170 0
 318 0010 1374     		strb	r3, [r2, #16]
 171:src/ctlcfg.c  **** 
 319              		.loc 1 171 0
 320 0012 0023     		movs	r3, #0
 321 0014 1373     		strb	r3, [r2, #12]
 322 0016 5374     		strb	r3, [r2, #17]
 323              		.loc 1 173 0
 324 0018 2268     		ldr	r2, [r4]
 325 001a 9A42     		cmp	r2, r3
 326 001c 07DB     		blt	.L26
 174:src/ctlcfg.c  ****     fCloseMW(iDnloadFile);
ARM GAS  C:\Users\AHMED~1.ELE\AppData\Local\Temp\ccWMHy5f.s 			page 10


 327              		.loc 1 174 0
 328 001e 0093     		str	r3, [sp]
 329 0020 0F20     		movs	r0, #15
 330 0022 0E21     		movs	r1, #14
 331 0024 FFF7FEFF 		bl	lib_app_call
 332              	.LVL15:
 175:src/ctlcfg.c  ****     iDnloadFile = -1;
 333              		.loc 1 175 0
 334 0028 4FF0FF33 		mov	r3, #-1
 335 002c 2360     		str	r3, [r4]
 336              	.L26:
 176:src/ctlcfg.c  ****   }
 177:src/ctlcfg.c  **** 
 178:src/ctlcfg.c  ****   strcpy(filename, KCTLTemp);
 179:src/ctlcfg.c  ****   fDeleteMW(filename);
 337              		.loc 1 179 0
 338 002e 0025     		movs	r5, #0
 178:src/ctlcfg.c  ****   fDeleteMW(filename);
 339              		.loc 1 178 0
 340 0030 02A8     		add	r0, sp, #8
 341 0032 0C49     		ldr	r1, .L27+8
 342 0034 FFF7FEFF 		bl	strcpy
 343              	.LVL16:
 344              		.loc 1 179 0
 345 0038 02AA     		add	r2, sp, #8
 346 003a 2B46     		mov	r3, r5
 347 003c 0095     		str	r5, [sp]
 348 003e 0C21     		movs	r1, #12
 349 0040 0F20     		movs	r0, #15
 350 0042 FFF7FEFF 		bl	lib_app_call
 351              	.LVL17:
 180:src/ctlcfg.c  ****   iDnloadFile = fCreateMW(filename, 0);
 352              		.loc 1 180 0
 353 0046 0095     		str	r5, [sp]
 354 0048 0B21     		movs	r1, #11
 355 004a 02AA     		add	r2, sp, #8
 356 004c 2B46     		mov	r3, r5
 357 004e 0F20     		movs	r0, #15
 358 0050 FFF7FEFF 		bl	lib_app_call
 359              	.LVL18:
 360 0054 2060     		str	r0, [r4]
 181:src/ctlcfg.c  **** }
 361              		.loc 1 181 0
 362 0056 0BB0     		add	sp, sp, #44
 363              		.cfi_def_cfa_offset 12
 364              		@ sp needed
 365 0058 30BD     		pop	{r4, r5, pc}
 366              	.L28:
 367 005a 00BF     		.align	2
 368              	.L27:
 369 005c 00000000 		.word	.LANCHOR0
 370 0060 00000000 		.word	.LANCHOR1
 371 0064 00000000 		.word	.LANCHOR2
 372              		.cfi_endproc
 373              	.LFE5:
 374              		.size	CTLClrDnloadBuf, .-CTLClrDnloadBuf
 375              		.section	.text.CTLKillDnloadBuf,"ax",%progbits
ARM GAS  C:\Users\AHMED~1.ELE\AppData\Local\Temp\ccWMHy5f.s 			page 11


 376              		.align	1
 377              		.global	CTLKillDnloadBuf
 378              		.thumb
 379              		.thumb_func
 380              		.type	CTLKillDnloadBuf, %function
 381              	CTLKillDnloadBuf:
 382              	.LFB6:
 182:src/ctlcfg.c  **** //*****************************************************************************
 183:src/ctlcfg.c  **** //  Function        : CTLKillDnloadBuf
 184:src/ctlcfg.c  **** //  Description     : Kill CTL data download buffer.
 185:src/ctlcfg.c  **** //  Input           : N/A
 186:src/ctlcfg.c  **** //  Return          : N/A
 187:src/ctlcfg.c  **** //  Note            : N/A
 188:src/ctlcfg.c  **** //  Globals Changed : N/A
 189:src/ctlcfg.c  **** //*****************************************************************************
 190:src/ctlcfg.c  **** void CTLKillDnloadBuf (void)
 191:src/ctlcfg.c  **** {
 383              		.loc 1 191 0
 384              		.cfi_startproc
 385              		@ args = 0, pretend = 0, frame = 32
 386              		@ frame_needed = 0, uses_anonymous_args = 0
 387 0000 10B5     		push	{r4, lr}
 388              		.cfi_def_cfa_offset 8
 389              		.cfi_offset 4, -8
 390              		.cfi_offset 14, -4
 192:src/ctlcfg.c  ****   BYTE filename[32];
 193:src/ctlcfg.c  ****   strcpy(filename, KCTLTemp);
 194:src/ctlcfg.c  ****   if (iDnloadFile >= 0) {
 391              		.loc 1 194 0
 392 0002 0D4C     		ldr	r4, .L31
 191:src/ctlcfg.c  ****   BYTE filename[32];
 393              		.loc 1 191 0
 394 0004 8AB0     		sub	sp, sp, #40
 395              		.cfi_def_cfa_offset 48
 193:src/ctlcfg.c  ****   if (iDnloadFile >= 0) {
 396              		.loc 1 193 0
 397 0006 02A8     		add	r0, sp, #8
 398 0008 0C49     		ldr	r1, .L31+4
 399 000a FFF7FEFF 		bl	strcpy
 400              	.LVL19:
 401              		.loc 1 194 0
 402 000e 2268     		ldr	r2, [r4]
 403 0010 002A     		cmp	r2, #0
 404 0012 08DB     		blt	.L30
 195:src/ctlcfg.c  ****     fCloseMW(iDnloadFile);
 405              		.loc 1 195 0
 406 0014 0023     		movs	r3, #0
 407 0016 0F20     		movs	r0, #15
 408 0018 0093     		str	r3, [sp]
 409 001a 0E21     		movs	r1, #14
 410 001c FFF7FEFF 		bl	lib_app_call
 411              	.LVL20:
 196:src/ctlcfg.c  ****     iDnloadFile = -1;
 412              		.loc 1 196 0
 413 0020 4FF0FF33 		mov	r3, #-1
 414 0024 2360     		str	r3, [r4]
 415              	.L30:
ARM GAS  C:\Users\AHMED~1.ELE\AppData\Local\Temp\ccWMHy5f.s 			page 12


 197:src/ctlcfg.c  ****   }
 198:src/ctlcfg.c  ****   fDeleteMW(filename);
 416              		.loc 1 198 0
 417 0026 0023     		movs	r3, #0
 418 0028 0C21     		movs	r1, #12
 419 002a 0093     		str	r3, [sp]
 420 002c 02AA     		add	r2, sp, #8
 421 002e 0F20     		movs	r0, #15
 422 0030 FFF7FEFF 		bl	lib_app_call
 423              	.LVL21:
 199:src/ctlcfg.c  **** }
 424              		.loc 1 199 0
 425 0034 0AB0     		add	sp, sp, #40
 426              		.cfi_def_cfa_offset 8
 427              		@ sp needed
 428 0036 10BD     		pop	{r4, pc}
 429              	.L32:
 430              		.align	2
 431              	.L31:
 432 0038 00000000 		.word	.LANCHOR1
 433 003c 00000000 		.word	.LANCHOR2
 434              		.cfi_endproc
 435              	.LFE6:
 436              		.size	CTLKillDnloadBuf, .-CTLKillDnloadBuf
 437              		.section	.text.CTLData2DnloadBuf,"ax",%progbits
 438              		.align	1
 439              		.global	CTLData2DnloadBuf
 440              		.thumb
 441              		.thumb_func
 442              		.type	CTLData2DnloadBuf, %function
 443              	CTLData2DnloadBuf:
 444              	.LFB7:
 200:src/ctlcfg.c  **** //*****************************************************************************
 201:src/ctlcfg.c  **** //  Function        : CTLData2DnloadBuf
 202:src/ctlcfg.c  **** //  Description     : Store CTL param/key to download buffer in file system.
 203:src/ctlcfg.c  **** //  Input           : aType;        // CTL param or key
 204:src/ctlcfg.c  **** //                    aData;        // pointer to CTL param or key
 205:src/ctlcfg.c  **** //                    aLen;         // length of CTL param or key
 206:src/ctlcfg.c  **** //  Return          : N/A
 207:src/ctlcfg.c  **** //  Note            : N/A
 208:src/ctlcfg.c  **** //  Globals Changed : N/A
 209:src/ctlcfg.c  **** //*****************************************************************************
 210:src/ctlcfg.c  **** void CTLData2DnloadBuf (BYTE aType, BYTE *aData, WORD aLen)
 211:src/ctlcfg.c  **** {
 445              		.loc 1 211 0
 446              		.cfi_startproc
 447              		@ args = 0, pretend = 0, frame = 8
 448              		@ frame_needed = 0, uses_anonymous_args = 0
 449              	.LVL22:
 450 0000 2DE9F043 		push	{r4, r5, r6, r7, r8, r9, lr}
 451              		.cfi_def_cfa_offset 28
 452              		.cfi_offset 4, -28
 453              		.cfi_offset 5, -24
 454              		.cfi_offset 6, -20
 455              		.cfi_offset 7, -16
 456              		.cfi_offset 8, -12
 457              		.cfi_offset 9, -8
ARM GAS  C:\Users\AHMED~1.ELE\AppData\Local\Temp\ccWMHy5f.s 			page 13


 458              		.cfi_offset 14, -4
 212:src/ctlcfg.c  ****   WORD offset;
 213:src/ctlcfg.c  **** 
 214:src/ctlcfg.c  ****   offset = wChunkSize*bDnloadBlk;
 459              		.loc 1 214 0
 460 0004 1A4E     		ldr	r6, .L36
 211:src/ctlcfg.c  ****   WORD offset;
 461              		.loc 1 211 0
 462 0006 85B0     		sub	sp, sp, #20
 463              		.cfi_def_cfa_offset 48
 464              		.loc 1 214 0
 465 0008 747C     		ldrb	r4, [r6, #17]	@ zero_extendqisi2
 466 000a B6F80E80 		ldrh	r8, [r6, #14]
 467              	.LVL23:
 215:src/ctlcfg.c  ****   sbIOBuf[offset] = aType;
 468              		.loc 1 215 0
 469 000e B768     		ldr	r7, [r6, #8]
 214:src/ctlcfg.c  ****   sbIOBuf[offset] = aType;
 470              		.loc 1 214 0
 471 0010 14FB08F5 		smulbb	r5, r4, r8
 211:src/ctlcfg.c  ****   WORD offset;
 472              		.loc 1 211 0
 473 0014 8946     		mov	r9, r1
 474              		.loc 1 215 0
 475 0016 ADB2     		uxth	r5, r5
 211:src/ctlcfg.c  ****   WORD offset;
 476              		.loc 1 211 0
 477 0018 04A9     		add	r1, sp, #16
 478              	.LVL24:
 479              		.loc 1 215 0
 480 001a 7855     		strb	r0, [r7, r5]
 216:src/ctlcfg.c  ****   memcpy(&sbIOBuf[offset+1], &aLen, 2);
 481              		.loc 1 216 0
 482 001c 681C     		adds	r0, r5, #1
 483              	.LVL25:
 211:src/ctlcfg.c  ****   WORD offset;
 484              		.loc 1 211 0
 485 001e 21F8022D 		strh	r2, [r1, #-2]!	@ movhi
 486              		.loc 1 216 0
 487 0022 3844     		add	r0, r0, r7
 488 0024 0222     		movs	r2, #2
 489              	.LVL26:
 490 0026 FFF7FEFF 		bl	memcpy
 491              	.LVL27:
 217:src/ctlcfg.c  ****   memcpy(&sbIOBuf[offset+3], aData, aLen);
 492              		.loc 1 217 0
 493 002a E81C     		adds	r0, r5, #3
 494 002c BDF80E20 		ldrh	r2, [sp, #14]
 495 0030 3844     		add	r0, r0, r7
 496 0032 4946     		mov	r1, r9
 497 0034 FFF7FEFF 		bl	memcpy
 498              	.LVL28:
 218:src/ctlcfg.c  **** 
 219:src/ctlcfg.c  ****   if (++bDnloadBlk >= bMaxNumBlk) {
 499              		.loc 1 219 0
 500 0038 621C     		adds	r2, r4, #1
 501 003a 337C     		ldrb	r3, [r6, #16]	@ zero_extendqisi2
ARM GAS  C:\Users\AHMED~1.ELE\AppData\Local\Temp\ccWMHy5f.s 			page 14


 502 003c D2B2     		uxtb	r2, r2
 503 003e 9342     		cmp	r3, r2
 504 0040 7274     		strb	r2, [r6, #17]
 505 0042 12D8     		bhi	.L33
 220:src/ctlcfg.c  ****     if (fWriteMW(iDnloadFile, sbIOBuf, wChunkSize*bDnloadBlk) != (wChunkSize*bDnloadBlk))
 506              		.loc 1 220 0
 507 0044 08FB02F2 		mul	r2, r8, r2
 508 0048 0A4B     		ldr	r3, .L36+4
 509 004a 0092     		str	r2, [sp]
 510 004c 0F20     		movs	r0, #15
 511 004e 1A68     		ldr	r2, [r3]
 512 0050 1221     		movs	r1, #18
 513 0052 3B46     		mov	r3, r7
 514 0054 FFF7FEFF 		bl	lib_app_call
 515              	.LVL29:
 516 0058 737C     		ldrb	r3, [r6, #17]	@ zero_extendqisi2
 517 005a F289     		ldrh	r2, [r6, #14]
 518 005c 5343     		muls	r3, r2, r3
 519 005e 9842     		cmp	r0, r3
 221:src/ctlcfg.c  ****       bCtlLoaded = 0xFF;  // indicate fail
 520              		.loc 1 221 0
 521 0060 1CBF     		itt	ne
 522 0062 FF23     		movne	r3, #255
 523 0064 3373     		strbne	r3, [r6, #12]
 222:src/ctlcfg.c  ****     bDnloadBlk = 0;
 524              		.loc 1 222 0
 525 0066 0023     		movs	r3, #0
 526 0068 7374     		strb	r3, [r6, #17]
 527              	.L33:
 223:src/ctlcfg.c  ****   }
 224:src/ctlcfg.c  **** }
 528              		.loc 1 224 0
 529 006a 05B0     		add	sp, sp, #20
 530              		.cfi_def_cfa_offset 28
 531              		@ sp needed
 532 006c BDE8F083 		pop	{r4, r5, r6, r7, r8, r9, pc}
 533              	.LVL30:
 534              	.L37:
 535              		.align	2
 536              	.L36:
 537 0070 00000000 		.word	.LANCHOR0
 538 0074 00000000 		.word	.LANCHOR1
 539              		.cfi_endproc
 540              	.LFE7:
 541              		.size	CTLData2DnloadBuf, .-CTLData2DnloadBuf
 542              		.section	.text.CTLDataUpdate,"ax",%progbits
 543              		.align	1
 544              		.global	CTLDataUpdate
 545              		.thumb
 546              		.thumb_func
 547              		.type	CTLDataUpdate, %function
 548              	CTLDataUpdate:
 549              	.LFB8:
 225:src/ctlcfg.c  **** //*****************************************************************************
 226:src/ctlcfg.c  **** //  Function        : CTLDataUpdate
 227:src/ctlcfg.c  **** //  Description     : Clear/Store param/key to EMVCLDLL.
 228:src/ctlcfg.c  **** //  Input           : N/A
ARM GAS  C:\Users\AHMED~1.ELE\AppData\Local\Temp\ccWMHy5f.s 			page 15


 229:src/ctlcfg.c  **** //  Return          : N/A
 230:src/ctlcfg.c  **** //  Note            : N/A
 231:src/ctlcfg.c  **** //  Globals Changed : N/A
 232:src/ctlcfg.c  **** //*****************************************************************************
 233:src/ctlcfg.c  **** void CTLDataUpdate (void)
 234:src/ctlcfg.c  **** {
 550              		.loc 1 234 0
 551              		.cfi_startproc
 552              		@ args = 0, pretend = 0, frame = 8
 553              		@ frame_needed = 0, uses_anonymous_args = 0
 554 0000 2DE9F043 		push	{r4, r5, r6, r7, r8, r9, lr}
 555              		.cfi_def_cfa_offset 28
 556              		.cfi_offset 4, -28
 557              		.cfi_offset 5, -24
 558              		.cfi_offset 6, -20
 559              		.cfi_offset 7, -16
 560              		.cfi_offset 8, -12
 561              		.cfi_offset 9, -8
 562              		.cfi_offset 14, -4
 563 0004 85B0     		sub	sp, sp, #20
 564              		.cfi_def_cfa_offset 48
 235:src/ctlcfg.c  ****   int size, len;
 236:src/ctlcfg.c  ****   BYTE type;
 237:src/ctlcfg.c  **** 
 238:src/ctlcfg.c  ****   if (!KernelReady() || (bCtlLoaded == 0xFF) || (bCtlLoaded == 0x00))
 565              		.loc 1 238 0
 566 0006 FFF7FEFF 		bl	KernelReady
 567              	.LVL31:
 568 000a 0028     		cmp	r0, #0
 569 000c 00F09380 		beq	.L38
 570              		.loc 1 238 0 is_stmt 0 discriminator 1
 571 0010 4A4C     		ldr	r4, .L67
 572 0012 237B     		ldrb	r3, [r4, #12]	@ zero_extendqisi2
 573 0014 013B     		subs	r3, r3, #1
 574 0016 DBB2     		uxtb	r3, r3
 575 0018 FD2B     		cmp	r3, #253
 576 001a 00F28C80 		bhi	.L38
 239:src/ctlcfg.c  ****     return;
 240:src/ctlcfg.c  **** 
 241:src/ctlcfg.c  ****   if ((bDnloadBlk != 0) && (bDnloadBlk < bMaxNumBlk)) { // store remaining data chunk
 577              		.loc 1 241 0 is_stmt 1
 578 001e 627C     		ldrb	r2, [r4, #17]	@ zero_extendqisi2
 579 0020 474D     		ldr	r5, .L67+4
 580 0022 32B9     		cbnz	r2, .L40
 581              	.L43:
 242:src/ctlcfg.c  ****     if (fWriteMW(iDnloadFile, sbIOBuf, wChunkSize*bDnloadBlk) != (wChunkSize*bDnloadBlk))
 243:src/ctlcfg.c  ****       return;
 244:src/ctlcfg.c  ****   }
 245:src/ctlcfg.c  **** 
 246:src/ctlcfg.c  ****   if (bCtlLoaded & 0x80)
 582              		.loc 1 246 0
 583 0024 94F90C30 		ldrsb	r3, [r4, #12]
 584 0028 002B     		cmp	r3, #0
 585 002a 14DA     		bge	.L42
 247:src/ctlcfg.c  ****     ClrCTLParam();
 586              		.loc 1 247 0
 587 002c FFF7FEFF 		bl	ClrCTLParam
ARM GAS  C:\Users\AHMED~1.ELE\AppData\Local\Temp\ccWMHy5f.s 			page 16


 588              	.LVL32:
 589 0030 11E0     		b	.L42
 590              	.L40:
 241:src/ctlcfg.c  ****     if (fWriteMW(iDnloadFile, sbIOBuf, wChunkSize*bDnloadBlk) != (wChunkSize*bDnloadBlk))
 591              		.loc 1 241 0 discriminator 1
 592 0032 237C     		ldrb	r3, [r4, #16]	@ zero_extendqisi2
 593 0034 9342     		cmp	r3, r2
 594 0036 F5D9     		bls	.L43
 242:src/ctlcfg.c  ****     if (fWriteMW(iDnloadFile, sbIOBuf, wChunkSize*bDnloadBlk) != (wChunkSize*bDnloadBlk))
 595              		.loc 1 242 0
 596 0038 E389     		ldrh	r3, [r4, #14]
 597 003a 0F20     		movs	r0, #15
 598 003c 5343     		muls	r3, r2, r3
 599 003e 1221     		movs	r1, #18
 600 0040 0093     		str	r3, [sp]
 601 0042 A368     		ldr	r3, [r4, #8]
 602 0044 2A68     		ldr	r2, [r5]
 603 0046 FFF7FEFF 		bl	lib_app_call
 604              	.LVL33:
 605 004a E289     		ldrh	r2, [r4, #14]
 606 004c 637C     		ldrb	r3, [r4, #17]	@ zero_extendqisi2
 607 004e 5343     		muls	r3, r2, r3
 608 0050 9842     		cmp	r0, r3
 609 0052 70D1     		bne	.L38
 610 0054 E6E7     		b	.L43
 611              	.L42:
 248:src/ctlcfg.c  ****   if (bCtlLoaded & 0x40)
 612              		.loc 1 248 0
 613 0056 237B     		ldrb	r3, [r4, #12]	@ zero_extendqisi2
 614 0058 5A06     		lsls	r2, r3, #25
 615 005a 01D5     		bpl	.L44
 249:src/ctlcfg.c  ****     ClrCTLKey();
 616              		.loc 1 249 0
 617 005c FFF7FEFF 		bl	ClrCTLKey
 618              	.LVL34:
 619              	.L44:
 250:src/ctlcfg.c  **** 
 251:src/ctlcfg.c  ****   //fFlushMW(iDnloadFile);
 252:src/ctlcfg.c  ****   size = fLengthMW(iDnloadFile);
 620              		.loc 1 252 0
 621 0060 0026     		movs	r6, #0
 622 0062 0F20     		movs	r0, #15
 623 0064 0096     		str	r6, [sp]
 624 0066 3346     		mov	r3, r6
 625 0068 0146     		mov	r1, r0
 626 006a 2A68     		ldr	r2, [r5]
 627 006c FFF7FEFF 		bl	lib_app_call
 628              	.LVL35:
 253:src/ctlcfg.c  ****   fSeekMW(iDnloadFile, 0);
 629              		.loc 1 253 0
 630 0070 0096     		str	r6, [sp]
 631 0072 3346     		mov	r3, r6
 632 0074 1021     		movs	r1, #16
 252:src/ctlcfg.c  ****   fSeekMW(iDnloadFile, 0);
 633              		.loc 1 252 0
 634 0076 0746     		mov	r7, r0
 635              	.LVL36:
ARM GAS  C:\Users\AHMED~1.ELE\AppData\Local\Temp\ccWMHy5f.s 			page 17


 636              		.loc 1 253 0
 637 0078 2A68     		ldr	r2, [r5]
 638 007a 0F20     		movs	r0, #15
 639              	.LVL37:
 640 007c FFF7FEFF 		bl	lib_app_call
 641              	.LVL38:
 254:src/ctlcfg.c  ****   len = wChunkSize-1;
 642              		.loc 1 254 0
 643 0080 E689     		ldrh	r6, [r4, #14]
 644 0082 06F1FF39 		add	r9, r6, #-1
 645              	.LVL39:
 646              	.L45:
 255:src/ctlcfg.c  ****   while (size > 0) {
 647              		.loc 1 255 0
 648 0086 002F     		cmp	r7, #0
 649 0088 33DD     		ble	.L47
 256:src/ctlcfg.c  ****     fReadMW(iDnloadFile, &type, 1);
 650              		.loc 1 256 0
 651 008a 0123     		movs	r3, #1
 652 008c 0F20     		movs	r0, #15
 653 008e 0093     		str	r3, [sp]
 654 0090 1121     		movs	r1, #17
 655 0092 2A68     		ldr	r2, [r5]
 656 0094 0DEB0003 		add	r3, sp, r0
 657 0098 FFF7FEFF 		bl	lib_app_call
 658              	.LVL40:
 257:src/ctlcfg.c  ****     fReadMW(iDnloadFile, &sCTLIn->wLen, 2);
 659              		.loc 1 257 0
 660 009c 0223     		movs	r3, #2
 661 009e 1121     		movs	r1, #17
 662 00a0 0093     		str	r3, [sp]
 663 00a2 0F20     		movs	r0, #15
 664 00a4 2A68     		ldr	r2, [r5]
 665 00a6 2368     		ldr	r3, [r4]
 666 00a8 FFF7FEFF 		bl	lib_app_call
 667              	.LVL41:
 258:src/ctlcfg.c  ****     if (fReadMW(iDnloadFile, sCTLIn->pbMsg, len-2) == (len-2)) {
 668              		.loc 1 258 0
 669 00ac 2368     		ldr	r3, [r4]
 670 00ae A9F10202 		sub	r2, r9, #2
 671 00b2 0F20     		movs	r0, #15
 672 00b4 0092     		str	r2, [sp]
 673 00b6 1121     		movs	r1, #17
 674 00b8 5B68     		ldr	r3, [r3, #4]
 675 00ba 2A68     		ldr	r2, [r5]
 676 00bc FFF7FEFF 		bl	lib_app_call
 677              	.LVL42:
 678 00c0 F31E     		subs	r3, r6, #3
 257:src/ctlcfg.c  ****     fReadMW(iDnloadFile, &sCTLIn->wLen, 2);
 679              		.loc 1 257 0
 680 00c2 DFF87880 		ldr	r8, .L67
 681              		.loc 1 258 0
 682 00c6 9842     		cmp	r0, r3
 683 00c8 0FD1     		bne	.L46
 259:src/ctlcfg.c  ****       if (emvclSetup(type, sCTLIn, sCTLOut)) {
 684              		.loc 1 259 0
 685 00ca D8F80430 		ldr	r3, [r8, #4]
ARM GAS  C:\Users\AHMED~1.ELE\AppData\Local\Temp\ccWMHy5f.s 			page 18


 686 00ce 9DF80F20 		ldrb	r2, [sp, #15]	@ zero_extendqisi2
 687 00d2 0093     		str	r3, [sp]
 688 00d4 6420     		movs	r0, #100
 689 00d6 0021     		movs	r1, #0
 690 00d8 D8F80030 		ldr	r3, [r8]
 691 00dc FFF7FEFF 		bl	lib_app_call
 692              	.LVL43:
 693 00e0 10F0FF0F 		tst	r0, #255
 694 00e4 01D0     		beq	.L46
 695 00e6 BF1B     		subs	r7, r7, r6
 696              	.LVL44:
 260:src/ctlcfg.c  ****         size -= (len+1);
 261:src/ctlcfg.c  ****         continue;
 697              		.loc 1 261 0
 698 00e8 CDE7     		b	.L45
 699              	.L46:
 262:src/ctlcfg.c  ****       }
 263:src/ctlcfg.c  ****     }
 264:src/ctlcfg.c  ****     bCtlLoaded |= 0x0F;   // indicate fail
 700              		.loc 1 264 0
 701 00ea 237B     		ldrb	r3, [r4, #12]	@ zero_extendqisi2
 702 00ec 43F00F03 		orr	r3, r3, #15
 703 00f0 2373     		strb	r3, [r4, #12]
 704              	.L47:
 265:src/ctlcfg.c  ****     break;
 266:src/ctlcfg.c  ****   }
 267:src/ctlcfg.c  ****   if ((bCtlLoaded & 0x0F) == 0x01) {
 705              		.loc 1 267 0
 706 00f2 237B     		ldrb	r3, [r4, #12]	@ zero_extendqisi2
 707 00f4 114D     		ldr	r5, .L67
 708 00f6 03F00F03 		and	r3, r3, #15
 709 00fa 012B     		cmp	r3, #1
 710 00fc 0ED1     		bne	.L50
 268:src/ctlcfg.c  ****     if (emvclSetup(CLCMD_CLOSE_LOAD, sCTLIn, sCTLOut) == FALSE) // close AID loading
 711              		.loc 1 268 0
 712 00fe 6B68     		ldr	r3, [r5, #4]
 713 0100 6420     		movs	r0, #100
 714 0102 0093     		str	r3, [sp]
 715 0104 0021     		movs	r1, #0
 716 0106 2B68     		ldr	r3, [r5]
 717 0108 0522     		movs	r2, #5
 718 010a FFF7FEFF 		bl	lib_app_call
 719              	.LVL45:
 720 010e 10F0FF0F 		tst	r0, #255
 269:src/ctlcfg.c  ****       bCtlLoaded |= 0x0F; // indicate fail
 721              		.loc 1 269 0
 722 0112 02BF     		ittt	eq
 723 0114 2B7B     		ldrbeq	r3, [r5, #12]	@ zero_extendqisi2
 724 0116 43F00F03 		orreq	r3, r3, #15
 725 011a 2B73     		strbeq	r3, [r5, #12]
 726              	.L50:
 270:src/ctlcfg.c  ****   }
 271:src/ctlcfg.c  ****   if ((bCtlLoaded & 0x0F) == 0x0F) {
 727              		.loc 1 271 0
 728 011c 237B     		ldrb	r3, [r4, #12]	@ zero_extendqisi2
 729 011e 03F00F02 		and	r2, r3, #15
 730 0122 0F2A     		cmp	r2, #15
ARM GAS  C:\Users\AHMED~1.ELE\AppData\Local\Temp\ccWMHy5f.s 			page 19


 731 0124 07D1     		bne	.L38
 272:src/ctlcfg.c  ****     //if (bCtlLoaded & 0x80)
 273:src/ctlcfg.c  ****     //  ClrAllParam();
 274:src/ctlcfg.c  ****     if (bCtlLoaded & 0x40)
 732              		.loc 1 274 0
 733 0126 5B06     		lsls	r3, r3, #25
 734 0128 01D5     		bpl	.L53
 275:src/ctlcfg.c  ****       ClrCTLKey();
 735              		.loc 1 275 0
 736 012a FFF7FEFF 		bl	ClrCTLKey
 737              	.LVL46:
 738              	.L53:
 276:src/ctlcfg.c  ****     CTLKillDnloadBuf();
 739              		.loc 1 276 0
 740 012e FFF7FEFF 		bl	CTLKillDnloadBuf
 741              	.LVL47:
 277:src/ctlcfg.c  ****     CTLFatal();
 742              		.loc 1 277 0
 743 0132 FFF7FEFF 		bl	CTLFatal
 744              	.LVL48:
 745              	.L38:
 278:src/ctlcfg.c  ****   }
 279:src/ctlcfg.c  **** }
 746              		.loc 1 279 0
 747 0136 05B0     		add	sp, sp, #20
 748              		.cfi_def_cfa_offset 28
 749              		@ sp needed
 750 0138 BDE8F083 		pop	{r4, r5, r6, r7, r8, r9, pc}
 751              	.L68:
 752              		.align	2
 753              	.L67:
 754 013c 00000000 		.word	.LANCHOR0
 755 0140 00000000 		.word	.LANCHOR1
 756              		.cfi_endproc
 757              	.LFE8:
 758              		.size	CTLDataUpdate, .-CTLDataUpdate
 759              		.section	.text.GetCTLKeyInfo,"ax",%progbits
 760              		.align	1
 761              		.global	GetCTLKeyInfo
 762              		.thumb
 763              		.thumb_func
 764              		.type	GetCTLKeyInfo, %function
 765              	GetCTLKeyInfo:
 766              	.LFB10:
 280:src/ctlcfg.c  **** //*****************************************************************************
 281:src/ctlcfg.c  **** //  Function        : GetCTLAppCfg
 282:src/ctlcfg.c  **** //  Description     : Retrieve Configuration from CTL KERNEL.
 283:src/ctlcfg.c  **** //  Input           : aCfg;     // pointer to buffer
 284:src/ctlcfg.c  **** //                    aIdx;     // config index.
 285:src/ctlcfg.c  **** //  Return          : N/A
 286:src/ctlcfg.c  **** //  Note            : N/A
 287:src/ctlcfg.c  **** //  Globals Changed : N/A
 288:src/ctlcfg.c  **** //*****************************************************************************
 289:src/ctlcfg.c  **** static BOOLEAN GetCTLAppCfg(CL_CFGP *aCfg, DWORD aIdx)
 290:src/ctlcfg.c  **** {
 291:src/ctlcfg.c  ****   sCTLIn->pbMsg = sCTLOut->pbMsg = sbIOBuf;
 292:src/ctlcfg.c  ****   sCTLIn->pbMsg[0] = (BYTE) aIdx;
ARM GAS  C:\Users\AHMED~1.ELE\AppData\Local\Temp\ccWMHy5f.s 			page 20


 293:src/ctlcfg.c  ****   sCTLIn->wLen = 1;
 294:src/ctlcfg.c  ****   if (emvclSetup(CLCMD_READ_AIDIDX,sCTLIn,sCTLOut) == FALSE)     // load APP parameters
 295:src/ctlcfg.c  ****     return FALSE;
 296:src/ctlcfg.c  ****   memcpy(aCfg, sCTLOut->pbMsg, sizeof(CL_CFGP));
 297:src/ctlcfg.c  ****   return TRUE;
 298:src/ctlcfg.c  **** }
 299:src/ctlcfg.c  **** //*****************************************************************************
 300:src/ctlcfg.c  **** //  Function        : GetCTLKeyInfo
 301:src/ctlcfg.c  **** //  Description     : Retrieve Key info. from CTL KERNEL.
 302:src/ctlcfg.c  **** //  Input           : aKeyInfo;     // pointer to buffer
 303:src/ctlcfg.c  **** //                    aIdx;         // config index.
 304:src/ctlcfg.c  **** //  Return          : N/A
 305:src/ctlcfg.c  **** //  Note            : N/A
 306:src/ctlcfg.c  **** //  Globals Changed : N/A
 307:src/ctlcfg.c  **** //*****************************************************************************
 308:src/ctlcfg.c  **** BOOLEAN GetCTLKeyInfo(CL_KEY_INFO *aKeyInfo, DWORD aIdx)
 309:src/ctlcfg.c  **** {
 767              		.loc 1 309 0
 768              		.cfi_startproc
 769              		@ args = 0, pretend = 0, frame = 0
 770              		@ frame_needed = 0, uses_anonymous_args = 0
 771              	.LVL49:
 772 0000 73B5     		push	{r0, r1, r4, r5, r6, lr}
 773              		.cfi_def_cfa_offset 24
 774              		.cfi_offset 4, -16
 775              		.cfi_offset 5, -12
 776              		.cfi_offset 6, -8
 777              		.cfi_offset 14, -4
 310:src/ctlcfg.c  ****   sCTLIn->pbMsg = sCTLOut->pbMsg = sbIOBuf;
 778              		.loc 1 310 0
 779 0002 0F4C     		ldr	r4, .L75
 311:src/ctlcfg.c  ****   sCTLIn->pbMsg[0] = (BYTE) aIdx|0x80;
 780              		.loc 1 311 0
 781 0004 61F07F01 		orn	r1, r1, #127
 782              	.LVL50:
 310:src/ctlcfg.c  ****   sCTLIn->pbMsg = sCTLOut->pbMsg = sbIOBuf;
 783              		.loc 1 310 0
 784 0008 A268     		ldr	r2, [r4, #8]
 785 000a 2368     		ldr	r3, [r4]
 309:src/ctlcfg.c  ****   sCTLIn->pbMsg = sCTLOut->pbMsg = sbIOBuf;
 786              		.loc 1 309 0
 787 000c 0646     		mov	r6, r0
 312:src/ctlcfg.c  ****   sCTLIn->wLen = 1;
 788              		.loc 1 312 0
 789 000e 0125     		movs	r5, #1
 310:src/ctlcfg.c  ****   sCTLIn->pbMsg[0] = (BYTE) aIdx|0x80;
 790              		.loc 1 310 0
 791 0010 6068     		ldr	r0, [r4, #4]
 792              	.LVL51:
 793 0012 4260     		str	r2, [r0, #4]
 794 0014 5A60     		str	r2, [r3, #4]
 311:src/ctlcfg.c  ****   sCTLIn->wLen = 1;
 795              		.loc 1 311 0
 796 0016 1170     		strb	r1, [r2]
 797              		.loc 1 312 0
 798 0018 1D80     		strh	r5, [r3]	@ movhi
 313:src/ctlcfg.c  **** 
ARM GAS  C:\Users\AHMED~1.ELE\AppData\Local\Temp\ccWMHy5f.s 			page 21


 314:src/ctlcfg.c  ****   if ((emvclSetup(CLCMD_READ_KEY,sCTLIn,sCTLOut) == FALSE) || (sCTLOut->wLen == 0))     // Read Key
 799              		.loc 1 314 0
 800 001a 0021     		movs	r1, #0
 801 001c 0090     		str	r0, [sp]
 802 001e 0A22     		movs	r2, #10
 803 0020 6420     		movs	r0, #100
 804 0022 FFF7FEFF 		bl	lib_app_call
 805              	.LVL52:
 806 0026 C0B2     		uxtb	r0, r0
 807 0028 40B1     		cbz	r0, .L70
 808              	.LVL53:
 809              	.LBB14:
 810              	.LBB15:
 811 002a 6368     		ldr	r3, [r4, #4]
 812 002c 1888     		ldrh	r0, [r3]
 813 002e 28B1     		cbz	r0, .L70
 315:src/ctlcfg.c  ****     return FALSE;
 316:src/ctlcfg.c  **** 
 317:src/ctlcfg.c  ****   memcpy(aKeyInfo, sCTLOut->pbMsg, sizeof(CL_KEY_INFO));
 814              		.loc 1 317 0
 815 0030 3046     		mov	r0, r6
 816 0032 5968     		ldr	r1, [r3, #4]
 817 0034 0C22     		movs	r2, #12
 818 0036 FFF7FEFF 		bl	memcpy
 819              	.LVL54:
 318:src/ctlcfg.c  ****   return TRUE;
 820              		.loc 1 318 0
 821 003a 2846     		mov	r0, r5
 822              	.LVL55:
 823              	.L70:
 824              	.LBE15:
 825              	.LBE14:
 319:src/ctlcfg.c  **** }
 826              		.loc 1 319 0
 827 003c 02B0     		add	sp, sp, #8
 828              		.cfi_def_cfa_offset 16
 829              		@ sp needed
 830 003e 70BD     		pop	{r4, r5, r6, pc}
 831              	.LVL56:
 832              	.L76:
 833              		.align	2
 834              	.L75:
 835 0040 00000000 		.word	.LANCHOR0
 836              		.cfi_endproc
 837              	.LFE10:
 838              		.size	GetCTLKeyInfo, .-GetCTLKeyInfo
 839              		.global	__aeabi_uidiv
 840              		.global	__aeabi_uidivmod
 841              		.section	.text.PrintCTLParam,"ax",%progbits
 842              		.align	1
 843              		.global	PrintCTLParam
 844              		.thumb
 845              		.thumb_func
 846              		.type	PrintCTLParam, %function
 847              	PrintCTLParam:
 848              	.LFB13:
 320:src/ctlcfg.c  **** //*****************************************************************************
ARM GAS  C:\Users\AHMED~1.ELE\AppData\Local\Temp\ccWMHy5f.s 			page 22


 321:src/ctlcfg.c  **** //  Function        : PrintCTLParam
 322:src/ctlcfg.c  **** //  Description     : print or display CTL parameter report.
 323:src/ctlcfg.c  **** //  Input           : aCtlCfg
 324:src/ctlcfg.c  **** //                    aDetail
 325:src/ctlcfg.c  **** //                    aToDisplay
 326:src/ctlcfg.c  **** //  Return          : TRUE / FALSE
 327:src/ctlcfg.c  **** //  Note            : N/A
 328:src/ctlcfg.c  **** //  Globals Changed : N/A
 329:src/ctlcfg.c  **** //*****************************************************************************
 330:src/ctlcfg.c  **** static BOOLEAN PrintCTLAppCfg(CL_CFGP aCtlCfg, BOOLEAN aDetail, BOOLEAN aToDisplay)
 331:src/ctlcfg.c  **** {
 332:src/ctlcfg.c  ****   BOOLEAN ret_ok = TRUE;
 333:src/ctlcfg.c  ****   char *p_mem, buf[64], data[64];
 334:src/ctlcfg.c  ****   WORD len, pack_width;
 335:src/ctlcfg.c  ****   struct INFO_DATA info_data;
 336:src/ctlcfg.c  **** 
 337:src/ctlcfg.c  ****   // allocate large memory
 338:src/ctlcfg.c  ****   if ((p_mem = MallocMW(1024)) == NULL) {
 339:src/ctlcfg.c  ****     return FALSE;
 340:src/ctlcfg.c  ****   }
 341:src/ctlcfg.c  **** 
 342:src/ctlcfg.c  ****   // init
 343:src/ctlcfg.c  ****   len = 0;
 344:src/ctlcfg.c  ****   pack_width = (aToDisplay)? MW_MAX_LINESIZE : PRINT_WIDTH;
 345:src/ctlcfg.c  **** 
 346:src/ctlcfg.c  ****   // AID
 347:src/ctlcfg.c  ****   if (LDLoad(buf, aCtlCfg.abTLV, 0x9F06)) {
 348:src/ctlcfg.c  ****     memset(data, 0x00, sizeof(data));
 349:src/ctlcfg.c  ****     split(data, buf+1, buf[0]);
 350:src/ctlcfg.c  ****     strcpy(p_mem+len, "AID: ");
 351:src/ctlcfg.c  ****     len += PackInfoData(p_mem+len, data, pack_width);
 352:src/ctlcfg.c  ****   }
 353:src/ctlcfg.c  **** 
 354:src/ctlcfg.c  ****   // type & ver
 355:src/ctlcfg.c  ****   SprintfMW(p_mem+len, "Type: %02X ", aCtlCfg.bEType);
 356:src/ctlcfg.c  ****   memset(data, 0x00, sizeof(data));
 357:src/ctlcfg.c  ****   if (LDLoad(buf, aCtlCfg.abTLV, 0x9F09)) {
 358:src/ctlcfg.c  ****     strcpy(data, "Ver: ");
 359:src/ctlcfg.c  ****     split(data+strlen(data), buf+1, buf[0]);
 360:src/ctlcfg.c  ****   }
 361:src/ctlcfg.c  ****   len += PackInfoData(p_mem+len, data, pack_width);
 362:src/ctlcfg.c  **** 
 363:src/ctlcfg.c  ****   // floor limit
 364:src/ctlcfg.c  ****   if (LDLoad(buf, aCtlCfg.abTLV, 0x9F1B)) {
 365:src/ctlcfg.c  ****     memset(data, 0x00, sizeof(data));
 366:src/ctlcfg.c  ****     ConvDecimal(buf, 7);
 367:src/ctlcfg.c  ****     memcpy(data, buf+1, buf[0]);
 368:src/ctlcfg.c  ****     strcpy(p_mem+len, "FLR LMT: ");
 369:src/ctlcfg.c  ****     len += PackInfoData(p_mem+len, data, pack_width);
 370:src/ctlcfg.c  ****   }
 371:src/ctlcfg.c  **** 
 372:src/ctlcfg.c  ****   // oversea floor limit
 373:src/ctlcfg.c  ****   if (LDLoad(buf, aCtlCfg.abTLV, 0xDF7F)) {
 374:src/ctlcfg.c  ****     memset(data, 0x00, sizeof(data));
 375:src/ctlcfg.c  ****     ConvDecimal(buf, 7);
 376:src/ctlcfg.c  ****     memcpy(data, buf+1, buf[0]);
 377:src/ctlcfg.c  ****     strcpy(p_mem+len, "FLR LMT(O): ");
ARM GAS  C:\Users\AHMED~1.ELE\AppData\Local\Temp\ccWMHy5f.s 			page 23


 378:src/ctlcfg.c  ****     len += PackInfoData(p_mem+len, data, pack_width);
 379:src/ctlcfg.c  ****   }
 380:src/ctlcfg.c  **** 
 381:src/ctlcfg.c  ****   // basic random
 382:src/ctlcfg.c  ****   strcpy(p_mem+len, "Basic Random: ");
 383:src/ctlcfg.c  ****   SprintfMW(data, "%0d.%02d", aCtlCfg.dRSBThresh/100, aCtlCfg.dRSBThresh%100);
 384:src/ctlcfg.c  ****   len += PackInfoData(p_mem+len, data, pack_width);
 385:src/ctlcfg.c  **** 
 386:src/ctlcfg.c  ****   // target & max target
 387:src/ctlcfg.c  ****   strcpy(p_mem+len, "Target %: ");
 388:src/ctlcfg.c  ****   SprintfMW(data, "%02d-%02d", aCtlCfg.bRSTarget, aCtlCfg.bRSBMax);
 389:src/ctlcfg.c  ****   len += PackInfoData(p_mem+len, data, pack_width);
 390:src/ctlcfg.c  **** 
 391:src/ctlcfg.c  ****   // country
 392:src/ctlcfg.c  ****   if (LDLoad(buf, aCtlCfg.abTLV, 0x9F1A)) {
 393:src/ctlcfg.c  ****     memset(data, 0x00, sizeof(data));
 394:src/ctlcfg.c  ****     split(data, buf+1, buf[0]);
 395:src/ctlcfg.c  ****     strcpy(p_mem+len, "Country: ");
 396:src/ctlcfg.c  ****     len += PackInfoData(p_mem+len, data+1, pack_width);
 397:src/ctlcfg.c  ****   }
 398:src/ctlcfg.c  **** 
 399:src/ctlcfg.c  ****   //currency
 400:src/ctlcfg.c  ****   if (LDLoad(buf, aCtlCfg.abTLV, 0x5F2A)) {
 401:src/ctlcfg.c  ****     memset(data, 0x00, sizeof(data));
 402:src/ctlcfg.c  ****     split(data, buf+1, buf[0]);
 403:src/ctlcfg.c  ****     strcpy(p_mem+len, "Currency: ");
 404:src/ctlcfg.c  ****     len += PackInfoData(p_mem+len, data+1, pack_width);
 405:src/ctlcfg.c  ****   }
 406:src/ctlcfg.c  **** 
 407:src/ctlcfg.c  ****   // blank line
 408:src/ctlcfg.c  ****   len += PackInfoData(p_mem+len, "", pack_width);
 409:src/ctlcfg.c  **** 
 410:src/ctlcfg.c  ****   // allow partial AID
 411:src/ctlcfg.c  ****   strcpy(p_mem+len, "Allow Partial AID: ");
 412:src/ctlcfg.c  ****   data[0] = (!(aCtlCfg.bBitField&BIT_PARTIAL_NA))? 'Y':'N';
 413:src/ctlcfg.c  ****   data[1] = 0x00;
 414:src/ctlcfg.c  ****   len += PackInfoData(p_mem+len, data, pack_width);
 415:src/ctlcfg.c  **** 
 416:src/ctlcfg.c  ****   // referral enable
 417:src/ctlcfg.c  ****   strcpy(p_mem+len, "Referral Enable: ");
 418:src/ctlcfg.c  ****   data[0] = (!(aCtlCfg.bBitField&BIT_REFERRAL_NA))? 'Y':'N';
 419:src/ctlcfg.c  ****   data[1] = 0x00;
 420:src/ctlcfg.c  ****   len += PackInfoData(p_mem+len, data, pack_width);
 421:src/ctlcfg.c  **** 
 422:src/ctlcfg.c  ****   // TAC denial
 423:src/ctlcfg.c  ****   strcpy(p_mem+len, "TAC Denial: ");
 424:src/ctlcfg.c  ****   split(data, aCtlCfg.abTACDenial, 5);
 425:src/ctlcfg.c  ****   data[5*2] = 0x00;
 426:src/ctlcfg.c  ****   len += PackInfoData(p_mem+len, data, pack_width);
 427:src/ctlcfg.c  **** 
 428:src/ctlcfg.c  ****   // TAC Online
 429:src/ctlcfg.c  ****   strcpy(p_mem+len, "TAC Online: ");
 430:src/ctlcfg.c  ****   split(data, aCtlCfg.abTACOnline, 5);
 431:src/ctlcfg.c  ****   data[5*2] = 0x00;
 432:src/ctlcfg.c  ****   len += PackInfoData(p_mem+len, data, pack_width);
 433:src/ctlcfg.c  **** 
 434:src/ctlcfg.c  ****   // TAC Default
ARM GAS  C:\Users\AHMED~1.ELE\AppData\Local\Temp\ccWMHy5f.s 			page 24


 435:src/ctlcfg.c  ****   strcpy(p_mem+len, "TAC Denial: ");
 436:src/ctlcfg.c  ****   split(data, aCtlCfg.abTACDefault, 5);
 437:src/ctlcfg.c  ****   data[5*2] = 0x00;
 438:src/ctlcfg.c  ****   len += PackInfoData(p_mem+len, data, pack_width);
 439:src/ctlcfg.c  **** 
 440:src/ctlcfg.c  ****   // Term Cap
 441:src/ctlcfg.c  ****   if (LDLoad(buf, aCtlCfg.abTLV, 0x9F33)) {
 442:src/ctlcfg.c  ****     memset(data, 0x00, sizeof(data));
 443:src/ctlcfg.c  ****     split(data, buf+1, buf[0]);
 444:src/ctlcfg.c  ****     strcpy(p_mem+len, "Term Cap: ");
 445:src/ctlcfg.c  ****     len += PackInfoData(p_mem+len, data, pack_width);
 446:src/ctlcfg.c  ****   }
 447:src/ctlcfg.c  **** 
 448:src/ctlcfg.c  ****   // Add Cap
 449:src/ctlcfg.c  ****   if (LDLoad(buf, aCtlCfg.abTLV, 0x9F40)) {
 450:src/ctlcfg.c  ****     memset(data, 0x00, sizeof(data));
 451:src/ctlcfg.c  ****     split(data, buf+1, buf[0]);
 452:src/ctlcfg.c  ****     strcpy(p_mem+len, "Add Cap: ");
 453:src/ctlcfg.c  ****     len += PackInfoData(p_mem+len, data, pack_width);
 454:src/ctlcfg.c  ****   }
 455:src/ctlcfg.c  **** 
 456:src/ctlcfg.c  ****   // setup data info
 457:src/ctlcfg.c  ****   SprintfMW(data, " CTL APP CFG");
 458:src/ctlcfg.c  ****   info_data.b_line_width  = (unsigned char)pack_width;
 459:src/ctlcfg.c  ****   info_data.w_info_len    = len;
 460:src/ctlcfg.c  ****   info_data.pb_header     = data;
 461:src/ctlcfg.c  ****   info_data.pb_info       = p_mem;
 462:src/ctlcfg.c  **** 
 463:src/ctlcfg.c  ****   if (aToDisplay) {
 464:src/ctlcfg.c  ****     if (DispInfoData(info_data) == MWKEY_CANCL) {
 465:src/ctlcfg.c  ****       ret_ok = FALSE;
 466:src/ctlcfg.c  ****     }
 467:src/ctlcfg.c  ****   }
 468:src/ctlcfg.c  ****   else  {
 469:src/ctlcfg.c  ****     PrintRcptLF(2);
 470:src/ctlcfg.c  ****     LptPutS(&data[1]);
 471:src/ctlcfg.c  ****     PrintRcptLF(1);
 472:src/ctlcfg.c  ****     ret_ok = PrintBuf(info_data.pb_info, info_data.w_info_len, TRUE);
 473:src/ctlcfg.c  ****   }
 474:src/ctlcfg.c  **** 
 475:src/ctlcfg.c  ****   FreeMW(p_mem);
 476:src/ctlcfg.c  ****   return ret_ok;
 477:src/ctlcfg.c  **** }
 478:src/ctlcfg.c  **** //*****************************************************************************
 479:src/ctlcfg.c  **** //  Function        : PrintCTLKeyInfo
 480:src/ctlcfg.c  **** //  Description     : print or display CTL key info.
 481:src/ctlcfg.c  **** //  Input           : aDetail
 482:src/ctlcfg.c  **** //                    aToDisplay
 483:src/ctlcfg.c  **** //  Return          : TRUE / FALSE
 484:src/ctlcfg.c  **** //  Note            : N/A
 485:src/ctlcfg.c  **** //  Globals Changed : N/A
 486:src/ctlcfg.c  **** //*****************************************************************************
 487:src/ctlcfg.c  **** static BOOLEAN PrintCTLKeyInfo(BOOLEAN aDetail, BOOLEAN aToDisplay)
 488:src/ctlcfg.c  **** {
 489:src/ctlcfg.c  ****   BOOLEAN ret_ok = TRUE;
 490:src/ctlcfg.c  ****   char *p_mem, data[64];
 491:src/ctlcfg.c  ****   WORD i, len, pack_width;
ARM GAS  C:\Users\AHMED~1.ELE\AppData\Local\Temp\ccWMHy5f.s 			page 25


 492:src/ctlcfg.c  ****   struct INFO_DATA info_data;
 493:src/ctlcfg.c  ****   CL_KEY_INFO key_info;
 494:src/ctlcfg.c  **** 
 495:src/ctlcfg.c  ****   // allocate large memory
 496:src/ctlcfg.c  ****   if ((p_mem = MallocMW(1024)) == NULL) {
 497:src/ctlcfg.c  ****     return FALSE;
 498:src/ctlcfg.c  ****   }
 499:src/ctlcfg.c  **** 
 500:src/ctlcfg.c  ****   // init
 501:src/ctlcfg.c  ****   len = 0;
 502:src/ctlcfg.c  ****   pack_width = (aToDisplay)? MW_MAX_LINESIZE : PRINT_WIDTH;
 503:src/ctlcfg.c  **** 
 504:src/ctlcfg.c  ****   if (!aToDisplay) {
 505:src/ctlcfg.c  ****     PrintRcptLF(2);
 506:src/ctlcfg.c  ****     strcpy(data, "CTL KEY INFO");
 507:src/ctlcfg.c  ****     LptPutS(data);
 508:src/ctlcfg.c  ****     PrintRcptLF(1);
 509:src/ctlcfg.c  ****   }
 510:src/ctlcfg.c  **** 
 511:src/ctlcfg.c  ****   // get key info one by one
 512:src/ctlcfg.c  ****   for (i=0; i<MAX_CL_KEY; i++) {
 513:src/ctlcfg.c  ****     // get key info
 514:src/ctlcfg.c  ****     if (!GetCTLKeyInfo(&key_info, i)) {
 515:src/ctlcfg.c  ****       break;
 516:src/ctlcfg.c  ****     }
 517:src/ctlcfg.c  **** 
 518:src/ctlcfg.c  ****     // set description
 519:src/ctlcfg.c  ****     if ((i==0) || ((len==0)&&(aToDisplay))) {
 520:src/ctlcfg.c  ****       strcpy(p_mem+len, "Public Key-ID");
 521:src/ctlcfg.c  ****       len += PackInfoData(p_mem+len, "Eff   Exp  ", pack_width);
 522:src/ctlcfg.c  ****     }
 523:src/ctlcfg.c  **** 
 524:src/ctlcfg.c  ****     // set key info
 525:src/ctlcfg.c  ****     split(p_mem+len, key_info.abRID, 5);
 526:src/ctlcfg.c  ****     p_mem[len+10] = '-';
 527:src/ctlcfg.c  ****     SprintfMW(p_mem+len+11, "%02X", key_info.bKeyIdx);
 528:src/ctlcfg.c  ****     SprintfMW(data, "%02X/%02X ", key_info.wEffectMMYY/256, key_info.wEffectMMYY%256);
 529:src/ctlcfg.c  ****     SprintfMW(data+strlen(data), "%02X/%02X ", key_info.wExpiryMMYY/256, key_info.wExpiryMMYY%256);
 530:src/ctlcfg.c  ****     len += PackInfoData(p_mem+len, data, pack_width);
 531:src/ctlcfg.c  **** 
 532:src/ctlcfg.c  ****     // print first to prevent overfall
 533:src/ctlcfg.c  **** 
 534:src/ctlcfg.c  **** 
 535:src/ctlcfg.c  ****     if (len > 960) {
 536:src/ctlcfg.c  ****       SprintfMW(data, " CTL KEY INFO");
 537:src/ctlcfg.c  ****       info_data.b_line_width  = (unsigned char)pack_width;
 538:src/ctlcfg.c  ****       info_data.w_info_len    = len;
 539:src/ctlcfg.c  ****       info_data.pb_header     = data;
 540:src/ctlcfg.c  ****       info_data.pb_info       = p_mem;
 541:src/ctlcfg.c  ****       len = 0;
 542:src/ctlcfg.c  ****       if (aToDisplay) {
 543:src/ctlcfg.c  ****         if (DispInfoData(info_data) == MWKEY_CANCL) {
 544:src/ctlcfg.c  ****           ret_ok = FALSE;
 545:src/ctlcfg.c  ****           break;
 546:src/ctlcfg.c  ****         }
 547:src/ctlcfg.c  ****       }
 548:src/ctlcfg.c  ****       else  {
ARM GAS  C:\Users\AHMED~1.ELE\AppData\Local\Temp\ccWMHy5f.s 			page 26


 549:src/ctlcfg.c  ****         ret_ok = PrintBuf(info_data.pb_info, info_data.w_info_len, TRUE);
 550:src/ctlcfg.c  ****       }
 551:src/ctlcfg.c  ****     }
 552:src/ctlcfg.c  ****   }
 553:src/ctlcfg.c  **** 
 554:src/ctlcfg.c  ****   // setup data info
 555:src/ctlcfg.c  ****   SprintfMW(data, " CTL KEY INFO");
 556:src/ctlcfg.c  ****   info_data.b_line_width  = (unsigned char)pack_width;
 557:src/ctlcfg.c  ****   info_data.w_info_len    = len;
 558:src/ctlcfg.c  ****   info_data.pb_header     = data;
 559:src/ctlcfg.c  ****   info_data.pb_info       = p_mem;
 560:src/ctlcfg.c  **** 
 561:src/ctlcfg.c  ****   if (len && ret_ok) {
 562:src/ctlcfg.c  ****     if (aToDisplay) {
 563:src/ctlcfg.c  ****       if (DispInfoData(info_data) == MWKEY_CANCL) {
 564:src/ctlcfg.c  ****         ret_ok = FALSE;
 565:src/ctlcfg.c  ****       }
 566:src/ctlcfg.c  ****     }
 567:src/ctlcfg.c  ****     else  {
 568:src/ctlcfg.c  ****       ret_ok = PrintBuf(info_data.pb_info, info_data.w_info_len, TRUE);
 569:src/ctlcfg.c  ****     }
 570:src/ctlcfg.c  ****   }
 571:src/ctlcfg.c  **** 
 572:src/ctlcfg.c  ****   FreeMW(p_mem);
 573:src/ctlcfg.c  ****   return ret_ok;
 574:src/ctlcfg.c  **** }
 575:src/ctlcfg.c  **** //*****************************************************************************
 576:src/ctlcfg.c  **** //  Function        : PrintCTLParam
 577:src/ctlcfg.c  **** //  Description     : print or display CTL parameter report.
 578:src/ctlcfg.c  **** //  Input           : aDetail
 579:src/ctlcfg.c  **** //                    aToDisplay
 580:src/ctlcfg.c  **** //  Return          : TRUE / FALSE
 581:src/ctlcfg.c  **** //  Note            : N/A
 582:src/ctlcfg.c  **** //  Globals Changed : N/A
 583:src/ctlcfg.c  **** //*****************************************************************************
 584:src/ctlcfg.c  **** BOOLEAN PrintCTLParam(BOOLEAN aDetail, BOOLEAN aToDisplay)
 585:src/ctlcfg.c  **** {
 849              		.loc 1 585 0
 850              		.cfi_startproc
 851              		@ args = 0, pretend = 0, frame = 1224
 852              		@ frame_needed = 0, uses_anonymous_args = 0
 853              	.LVL57:
 854 0000 2DE9F04F 		push	{r4, r5, r6, r7, r8, r9, r10, fp, lr}
 855              		.cfi_def_cfa_offset 36
 856              		.cfi_offset 4, -36
 857              		.cfi_offset 5, -32
 858              		.cfi_offset 6, -28
 859              		.cfi_offset 7, -24
 860              		.cfi_offset 8, -20
 861              		.cfi_offset 9, -16
 862              		.cfi_offset 10, -12
 863              		.cfi_offset 11, -8
 864              		.cfi_offset 14, -4
 865 0004 0029     		cmp	r1, #0
 866 0006 14BF     		ite	ne
 867 0008 1A26     		movne	r6, #26
 868 000a 2026     		moveq	r6, #32
ARM GAS  C:\Users\AHMED~1.ELE\AppData\Local\Temp\ccWMHy5f.s 			page 27


 869 000c ADF2D44D 		subw	sp, sp, #1236
 870              		.cfi_def_cfa_offset 1272
 871 0010 0F46     		mov	r7, r1
 872              	.LBB22:
 873              	.LBB23:
 458:src/ctlcfg.c  ****   info_data.w_info_len    = len;
 874              		.loc 1 458 0
 875 0012 5FFA86F9 		uxtb	r9, r6
 876              	.LBE23:
 877              	.LBE22:
 586:src/ctlcfg.c  ****   BOOLEAN ret_ok = TRUE;
 587:src/ctlcfg.c  ****   int i;
 588:src/ctlcfg.c  ****   CL_CFGP ctl_cfg;
 589:src/ctlcfg.c  **** 
 590:src/ctlcfg.c  ****   // CTL app cfg
 591:src/ctlcfg.c  ****   for (i=0; i<MAX_CL_CFG && ret_ok; i++) {
 878              		.loc 1 591 0
 879 0016 4FF00008 		mov	r8, #0
 586:src/ctlcfg.c  ****   BOOLEAN ret_ok = TRUE;
 880              		.loc 1 586 0
 881 001a 4FF0010A 		mov	r10, #1
 882              	.LVL58:
 883              	.L96:
 884              	.LBB25:
 885              	.LBB26:
 291:src/ctlcfg.c  ****   sCTLIn->pbMsg[0] = (BYTE) aIdx;
 886              		.loc 1 291 0
 887 001e 2D4C     		ldr	r4, .L159
 294:src/ctlcfg.c  ****     return FALSE;
 888              		.loc 1 294 0
 889 0020 6420     		movs	r0, #100
 291:src/ctlcfg.c  ****   sCTLIn->pbMsg[0] = (BYTE) aIdx;
 890              		.loc 1 291 0
 891 0022 A268     		ldr	r2, [r4, #8]
 892 0024 2368     		ldr	r3, [r4]
 893 0026 6168     		ldr	r1, [r4, #4]
 894 0028 4A60     		str	r2, [r1, #4]
 895 002a 5A60     		str	r2, [r3, #4]
 292:src/ctlcfg.c  ****   sCTLIn->wLen = 1;
 896              		.loc 1 292 0
 897 002c 82F80080 		strb	r8, [r2]
 293:src/ctlcfg.c  ****   if (emvclSetup(CLCMD_READ_AIDIDX,sCTLIn,sCTLOut) == FALSE)     // load APP parameters
 898              		.loc 1 293 0
 899 0030 0122     		movs	r2, #1
 900 0032 1A80     		strh	r2, [r3]	@ movhi
 294:src/ctlcfg.c  ****     return FALSE;
 901              		.loc 1 294 0
 902 0034 0091     		str	r1, [sp]
 903 0036 0922     		movs	r2, #9
 904 0038 0021     		movs	r1, #0
 905 003a FFF7FEFF 		bl	lib_app_call
 906              	.LVL59:
 907 003e 10F0FF0F 		tst	r0, #255
 908 0042 09D1     		bne	.L78
 909              	.LVL60:
 910              	.L98:
 911              	.LBE26:
ARM GAS  C:\Users\AHMED~1.ELE\AppData\Local\Temp\ccWMHy5f.s 			page 28


 912              	.LBE25:
 913              	.LBB28:
 914              	.LBB29:
 496:src/ctlcfg.c  ****     return FALSE;
 915              		.loc 1 496 0
 916 0044 9220     		movs	r0, #146
 917 0046 4FF48061 		mov	r1, #1024
 918 004a FFF7FEFF 		bl	sys_func1
 919              	.LVL61:
 920 004e 0646     		mov	r6, r0
 921 0050 0028     		cmp	r0, #0
 922 0052 40F04582 		bne	.L156
 923 0056 DAE2     		b	.L158
 924              	.LVL62:
 925              	.L78:
 926              	.LBE29:
 927              	.LBE28:
 928              	.LBB31:
 929              	.LBB27:
 296:src/ctlcfg.c  ****   return TRUE;
 930              		.loc 1 296 0
 931 0058 6368     		ldr	r3, [r4, #4]
 932 005a 28A8     		add	r0, sp, #160
 933              	.LVL63:
 934 005c 5C68     		ldr	r4, [r3, #4]
 935 005e 40F21722 		movw	r2, #535
 936 0062 2146     		mov	r1, r4
 937 0064 FFF7FEFF 		bl	memcpy
 938              	.LVL64:
 939 0068 2378     		ldrb	r3, [r4]	@ zero_extendqisi2
 940              	.LVL65:
 941              	.LBE27:
 942              	.LBE31:
 592:src/ctlcfg.c  ****     if (!GetCTLAppCfg(&ctl_cfg, i)) {
 593:src/ctlcfg.c  ****       break;
 594:src/ctlcfg.c  ****     }
 595:src/ctlcfg.c  ****     if (ctl_cfg.bEType == 0) {
 943              		.loc 1 595 0
 944 006a 002B     		cmp	r3, #0
 945 006c 00F02982 		beq	.L81
 946 0070 28A9     		add	r1, sp, #160
 947              	.LVL66:
 948 0072 40F21722 		movw	r2, #535
 949 0076 AEA8     		add	r0, sp, #696
 950 0078 8DF8A030 		strb	r3, [sp, #160]
 951 007c FFF7FEFF 		bl	memcpy
 952              	.LVL67:
 953              	.LBB32:
 954              	.LBB24:
 338:src/ctlcfg.c  ****     return FALSE;
 955              		.loc 1 338 0
 956 0080 9220     		movs	r0, #146
 957 0082 4FF48061 		mov	r1, #1024
 958 0086 FFF7FEFF 		bl	sys_func1
 959              	.LVL68:
 960 008a 0546     		mov	r5, r0
 961 008c 0028     		cmp	r0, #0
ARM GAS  C:\Users\AHMED~1.ELE\AppData\Local\Temp\ccWMHy5f.s 			page 29


 962 008e 00F01782 		beq	.L110
 963              	.LVL69:
 347:src/ctlcfg.c  ****     memset(data, 0x00, sizeof(data));
 964              		.loc 1 347 0
 965 0092 AEAB     		add	r3, sp, #696
 966 0094 08A8     		add	r0, sp, #32
 967              	.LVL70:
 968 0096 03F11701 		add	r1, r3, #23
 969 009a 49F60672 		movw	r2, #40710
 970 009e FFF7FEFF 		bl	LDLoad
 971              	.LVL71:
 972 00a2 D8B1     		cbz	r0, .L111
 348:src/ctlcfg.c  ****     split(data, buf+1, buf[0]);
 973              		.loc 1 348 0
 974 00a4 0021     		movs	r1, #0
 975 00a6 4022     		movs	r2, #64
 976 00a8 18A8     		add	r0, sp, #96
 977 00aa FFF7FEFF 		bl	memset
 978              	.LVL72:
 349:src/ctlcfg.c  ****     strcpy(p_mem+len, "AID: ");
 979              		.loc 1 349 0
 980 00ae 9DF92020 		ldrsb	r2, [sp, #32]
 981 00b2 18A8     		add	r0, sp, #96
 982 00b4 0DF12101 		add	r1, sp, #33
 983 00b8 FFF7FEFF 		bl	split
 984              	.LVL73:
 350:src/ctlcfg.c  ****     len += PackInfoData(p_mem+len, data, pack_width);
 985              		.loc 1 350 0
 986 00bc 0649     		ldr	r1, .L159+4
 987 00be 2846     		mov	r0, r5
 988 00c0 FFF7FEFF 		bl	strcpy
 989              	.LVL74:
 351:src/ctlcfg.c  ****   }
 990              		.loc 1 351 0
 991 00c4 2846     		mov	r0, r5
 992 00c6 18A9     		add	r1, sp, #96
 993 00c8 3246     		mov	r2, r6
 994 00ca FFF7FEFF 		bl	PackInfoData
 995              	.LVL75:
 996 00ce 84B2     		uxth	r4, r0
 997              	.LVL76:
 998 00d0 05E0     		b	.L83
 999              	.L160:
 1000 00d2 00BF     		.align	2
 1001              	.L159:
 1002 00d4 00000000 		.word	.LANCHOR0
 1003 00d8 22000000 		.word	.LC1
 1004              	.LVL77:
 1005              	.L111:
 343:src/ctlcfg.c  ****   pack_width = (aToDisplay)? MW_MAX_LINESIZE : PRINT_WIDTH;
 1006              		.loc 1 343 0
 1007 00dc 0446     		mov	r4, r0
 1008              	.LVL78:
 1009              	.L83:
 355:src/ctlcfg.c  ****   memset(data, 0x00, sizeof(data));
 1010              		.loc 1 355 0
 1011 00de 0DF52E7A 		add	r10, sp, #696
ARM GAS  C:\Users\AHMED~1.ELE\AppData\Local\Temp\ccWMHy5f.s 			page 30


 1012              	.LVL79:
 1013 00e2 05EB040B 		add	fp, r5, r4
 1014 00e6 1AF8172B 		ldrb	r2, [r10], #23	@ zero_extendqisi2
 1015 00ea BE49     		ldr	r1, .L161
 1016 00ec 5846     		mov	r0, fp
 1017 00ee FFF7FEFF 		bl	sprintf
 1018              	.LVL80:
 356:src/ctlcfg.c  ****   if (LDLoad(buf, aCtlCfg.abTLV, 0x9F09)) {
 1019              		.loc 1 356 0
 1020 00f2 0021     		movs	r1, #0
 1021 00f4 4022     		movs	r2, #64
 1022 00f6 18A8     		add	r0, sp, #96
 1023 00f8 FFF7FEFF 		bl	memset
 1024              	.LVL81:
 357:src/ctlcfg.c  ****     strcpy(data, "Ver: ");
 1025              		.loc 1 357 0
 1026 00fc 08A8     		add	r0, sp, #32
 1027 00fe 5146     		mov	r1, r10
 1028 0100 49F60972 		movw	r2, #40713
 1029 0104 FFF7FEFF 		bl	LDLoad
 1030              	.LVL82:
 1031 0108 70B1     		cbz	r0, .L84
 358:src/ctlcfg.c  ****     split(data+strlen(data), buf+1, buf[0]);
 1032              		.loc 1 358 0
 1033 010a B749     		ldr	r1, .L161+4
 1034 010c 18A8     		add	r0, sp, #96
 1035 010e FFF7FEFF 		bl	strcpy
 1036              	.LVL83:
 359:src/ctlcfg.c  ****   }
 1037              		.loc 1 359 0
 1038 0112 18A8     		add	r0, sp, #96
 1039 0114 FFF7FEFF 		bl	strlen
 1040              	.LVL84:
 1041 0118 18AB     		add	r3, sp, #96
 1042 011a 0DF12101 		add	r1, sp, #33
 1043 011e 9DF92020 		ldrsb	r2, [sp, #32]
 1044 0122 1844     		add	r0, r0, r3
 1045 0124 FFF7FEFF 		bl	split
 1046              	.LVL85:
 1047              	.L84:
 361:src/ctlcfg.c  **** 
 1048              		.loc 1 361 0
 1049 0128 18A9     		add	r1, sp, #96
 1050 012a 3246     		mov	r2, r6
 1051 012c 5846     		mov	r0, fp
 1052 012e FFF7FEFF 		bl	PackInfoData
 1053              	.LVL86:
 364:src/ctlcfg.c  ****     memset(data, 0x00, sizeof(data));
 1054              		.loc 1 364 0
 1055 0132 AEAB     		add	r3, sp, #696
 1056 0134 03F11701 		add	r1, r3, #23
 1057 0138 49F61B72 		movw	r2, #40731
 361:src/ctlcfg.c  **** 
 1058              		.loc 1 361 0
 1059 013c 2044     		add	r0, r0, r4
 1060 013e 84B2     		uxth	r4, r0
 1061              	.LVL87:
ARM GAS  C:\Users\AHMED~1.ELE\AppData\Local\Temp\ccWMHy5f.s 			page 31


 364:src/ctlcfg.c  ****     memset(data, 0x00, sizeof(data));
 1062              		.loc 1 364 0
 1063 0140 08A8     		add	r0, sp, #32
 1064 0142 FFF7FEFF 		bl	LDLoad
 1065              	.LVL88:
 1066 0146 C8B1     		cbz	r0, .L85
 365:src/ctlcfg.c  ****     ConvDecimal(buf, 7);
 1067              		.loc 1 365 0
 1068 0148 4022     		movs	r2, #64
 1069 014a 0021     		movs	r1, #0
 1070 014c 18A8     		add	r0, sp, #96
 1071 014e FFF7FEFF 		bl	memset
 1072              	.LVL89:
 366:src/ctlcfg.c  ****     memcpy(data, buf+1, buf[0]);
 1073              		.loc 1 366 0
 1074 0152 08A8     		add	r0, sp, #32
 1075 0154 0721     		movs	r1, #7
 1076 0156 FFF7FEFF 		bl	ConvDecimal
 1077              	.LVL90:
 367:src/ctlcfg.c  ****     strcpy(p_mem+len, "FLR LMT: ");
 1078              		.loc 1 367 0
 1079 015a 08A9     		add	r1, sp, #32
 1080 015c 18A8     		add	r0, sp, #96
 1081 015e 11F9012B 		ldrsb	r2, [r1], #1
 1082 0162 FFF7FEFF 		bl	memcpy
 1083              	.LVL91:
 368:src/ctlcfg.c  ****     len += PackInfoData(p_mem+len, data, pack_width);
 1084              		.loc 1 368 0
 1085 0166 2B19     		adds	r3, r5, r4
 1086 0168 1846     		mov	r0, r3
 1087 016a A049     		ldr	r1, .L161+8
 1088 016c FFF7FEFF 		bl	strcpy
 1089              	.LVL92:
 369:src/ctlcfg.c  ****   }
 1090              		.loc 1 369 0
 1091 0170 18A9     		add	r1, sp, #96
 1092 0172 3246     		mov	r2, r6
 1093 0174 FFF7FEFF 		bl	PackInfoData
 1094              	.LVL93:
 1095 0178 2044     		add	r0, r0, r4
 1096 017a 84B2     		uxth	r4, r0
 1097              	.LVL94:
 1098              	.L85:
 373:src/ctlcfg.c  ****     memset(data, 0x00, sizeof(data));
 1099              		.loc 1 373 0
 1100 017c AEAB     		add	r3, sp, #696
 1101 017e 08A8     		add	r0, sp, #32
 1102 0180 03F11701 		add	r1, r3, #23
 1103 0184 4DF67F72 		movw	r2, #57215
 1104 0188 FFF7FEFF 		bl	LDLoad
 1105              	.LVL95:
 1106 018c C8B1     		cbz	r0, .L86
 374:src/ctlcfg.c  ****     ConvDecimal(buf, 7);
 1107              		.loc 1 374 0
 1108 018e 4022     		movs	r2, #64
 1109 0190 0021     		movs	r1, #0
 1110 0192 18A8     		add	r0, sp, #96
ARM GAS  C:\Users\AHMED~1.ELE\AppData\Local\Temp\ccWMHy5f.s 			page 32


 1111 0194 FFF7FEFF 		bl	memset
 1112              	.LVL96:
 375:src/ctlcfg.c  ****     memcpy(data, buf+1, buf[0]);
 1113              		.loc 1 375 0
 1114 0198 08A8     		add	r0, sp, #32
 1115 019a 0721     		movs	r1, #7
 1116 019c FFF7FEFF 		bl	ConvDecimal
 1117              	.LVL97:
 376:src/ctlcfg.c  ****     strcpy(p_mem+len, "FLR LMT(O): ");
 1118              		.loc 1 376 0
 1119 01a0 08A9     		add	r1, sp, #32
 1120 01a2 18A8     		add	r0, sp, #96
 1121 01a4 11F9012B 		ldrsb	r2, [r1], #1
 1122 01a8 FFF7FEFF 		bl	memcpy
 1123              	.LVL98:
 377:src/ctlcfg.c  ****     len += PackInfoData(p_mem+len, data, pack_width);
 1124              		.loc 1 377 0
 1125 01ac 2B19     		adds	r3, r5, r4
 1126 01ae 1846     		mov	r0, r3
 1127 01b0 8F49     		ldr	r1, .L161+12
 1128 01b2 FFF7FEFF 		bl	strcpy
 1129              	.LVL99:
 378:src/ctlcfg.c  ****   }
 1130              		.loc 1 378 0
 1131 01b6 18A9     		add	r1, sp, #96
 1132 01b8 3246     		mov	r2, r6
 1133 01ba FFF7FEFF 		bl	PackInfoData
 1134              	.LVL100:
 1135 01be 2044     		add	r0, r0, r4
 1136 01c0 84B2     		uxth	r4, r0
 1137              	.LVL101:
 1138              	.L86:
 382:src/ctlcfg.c  ****   SprintfMW(data, "%0d.%02d", aCtlCfg.dRSBThresh/100, aCtlCfg.dRSBThresh%100);
 1139              		.loc 1 382 0
 1140 01c2 05EB040B 		add	fp, r5, r4
 1141 01c6 8B49     		ldr	r1, .L161+16
 1142 01c8 5846     		mov	r0, fp
 1143 01ca FFF7FEFF 		bl	strcpy
 1144              	.LVL102:
 383:src/ctlcfg.c  ****   len += PackInfoData(p_mem+len, data, pack_width);
 1145              		.loc 1 383 0
 1146 01ce BDF8BA32 		ldrh	r3, [sp, #698]
 1147 01d2 BDF8BCA2 		ldrh	r10, [sp, #700]
 1148 01d6 6421     		movs	r1, #100
 1149 01d8 43EA0A4A 		orr	r10, r3, r10, lsl #16
 1150 01dc 5046     		mov	r0, r10
 1151 01de FFF7FEFF 		bl	__aeabi_uidiv
 1152              	.LVL103:
 1153 01e2 6421     		movs	r1, #100
 1154 01e4 0390     		str	r0, [sp, #12]
 1155 01e6 5046     		mov	r0, r10
 1156 01e8 FFF7FEFF 		bl	__aeabi_uidivmod
 1157              	.LVL104:
 1158 01ec 039A     		ldr	r2, [sp, #12]
 1159 01ee 18A8     		add	r0, sp, #96
 1160 01f0 0B46     		mov	r3, r1
 1161 01f2 8149     		ldr	r1, .L161+20
ARM GAS  C:\Users\AHMED~1.ELE\AppData\Local\Temp\ccWMHy5f.s 			page 33


 1162 01f4 FFF7FEFF 		bl	sprintf
 1163              	.LVL105:
 384:src/ctlcfg.c  **** 
 1164              		.loc 1 384 0
 1165 01f8 3246     		mov	r2, r6
 1166 01fa 18A9     		add	r1, sp, #96
 1167 01fc 5846     		mov	r0, fp
 1168 01fe FFF7FEFF 		bl	PackInfoData
 1169              	.LVL106:
 387:src/ctlcfg.c  ****   SprintfMW(data, "%02d-%02d", aCtlCfg.bRSTarget, aCtlCfg.bRSBMax);
 1170              		.loc 1 387 0
 1171 0202 7E49     		ldr	r1, .L161+24
 384:src/ctlcfg.c  **** 
 1172              		.loc 1 384 0
 1173 0204 2044     		add	r0, r0, r4
 1174 0206 84B2     		uxth	r4, r0
 1175              	.LVL107:
 387:src/ctlcfg.c  ****   SprintfMW(data, "%02d-%02d", aCtlCfg.bRSTarget, aCtlCfg.bRSBMax);
 1176              		.loc 1 387 0
 1177 0208 05EB040A 		add	r10, r5, r4
 1178 020c 5046     		mov	r0, r10
 1179 020e FFF7FEFF 		bl	strcpy
 1180              	.LVL108:
 388:src/ctlcfg.c  ****   len += PackInfoData(p_mem+len, data, pack_width);
 1181              		.loc 1 388 0
 1182 0212 9DF8BF32 		ldrb	r3, [sp, #703]	@ zero_extendqisi2
 1183 0216 7A49     		ldr	r1, .L161+28
 1184 0218 9DF8BE22 		ldrb	r2, [sp, #702]	@ zero_extendqisi2
 1185 021c 18A8     		add	r0, sp, #96
 1186 021e FFF7FEFF 		bl	sprintf
 1187              	.LVL109:
 389:src/ctlcfg.c  **** 
 1188              		.loc 1 389 0
 1189 0222 18A9     		add	r1, sp, #96
 1190 0224 3246     		mov	r2, r6
 1191 0226 5046     		mov	r0, r10
 1192 0228 FFF7FEFF 		bl	PackInfoData
 1193              	.LVL110:
 392:src/ctlcfg.c  ****     memset(data, 0x00, sizeof(data));
 1194              		.loc 1 392 0
 1195 022c AEAB     		add	r3, sp, #696
 1196 022e 03F11701 		add	r1, r3, #23
 1197 0232 49F61A72 		movw	r2, #40730
 389:src/ctlcfg.c  **** 
 1198              		.loc 1 389 0
 1199 0236 2044     		add	r0, r0, r4
 1200 0238 84B2     		uxth	r4, r0
 1201              	.LVL111:
 392:src/ctlcfg.c  ****     memset(data, 0x00, sizeof(data));
 1202              		.loc 1 392 0
 1203 023a 08A8     		add	r0, sp, #32
 1204 023c FFF7FEFF 		bl	LDLoad
 1205              	.LVL112:
 1206 0240 B8B1     		cbz	r0, .L87
 393:src/ctlcfg.c  ****     split(data, buf+1, buf[0]);
 1207              		.loc 1 393 0
 1208 0242 0021     		movs	r1, #0
ARM GAS  C:\Users\AHMED~1.ELE\AppData\Local\Temp\ccWMHy5f.s 			page 34


 1209 0244 4022     		movs	r2, #64
 1210 0246 18A8     		add	r0, sp, #96
 1211 0248 FFF7FEFF 		bl	memset
 1212              	.LVL113:
 394:src/ctlcfg.c  ****     strcpy(p_mem+len, "Country: ");
 1213              		.loc 1 394 0
 1214 024c 9DF92020 		ldrsb	r2, [sp, #32]
 1215 0250 18A8     		add	r0, sp, #96
 1216 0252 0DF12101 		add	r1, sp, #33
 1217 0256 FFF7FEFF 		bl	split
 1218              	.LVL114:
 395:src/ctlcfg.c  ****     len += PackInfoData(p_mem+len, data+1, pack_width);
 1219              		.loc 1 395 0
 1220 025a 2B19     		adds	r3, r5, r4
 1221 025c 1846     		mov	r0, r3
 1222 025e 6949     		ldr	r1, .L161+32
 1223 0260 FFF7FEFF 		bl	strcpy
 1224              	.LVL115:
 396:src/ctlcfg.c  ****   }
 1225              		.loc 1 396 0
 1226 0264 0DF16101 		add	r1, sp, #97
 1227 0268 3246     		mov	r2, r6
 1228 026a FFF7FEFF 		bl	PackInfoData
 1229              	.LVL116:
 1230 026e 2044     		add	r0, r0, r4
 1231 0270 84B2     		uxth	r4, r0
 1232              	.LVL117:
 1233              	.L87:
 400:src/ctlcfg.c  ****     memset(data, 0x00, sizeof(data));
 1234              		.loc 1 400 0
 1235 0272 AEAB     		add	r3, sp, #696
 1236 0274 08A8     		add	r0, sp, #32
 1237 0276 03F11701 		add	r1, r3, #23
 1238 027a 45F62A72 		movw	r2, #24362
 1239 027e FFF7FEFF 		bl	LDLoad
 1240              	.LVL118:
 1241 0282 B8B1     		cbz	r0, .L88
 401:src/ctlcfg.c  ****     split(data, buf+1, buf[0]);
 1242              		.loc 1 401 0
 1243 0284 0021     		movs	r1, #0
 1244 0286 4022     		movs	r2, #64
 1245 0288 18A8     		add	r0, sp, #96
 1246 028a FFF7FEFF 		bl	memset
 1247              	.LVL119:
 402:src/ctlcfg.c  ****     strcpy(p_mem+len, "Currency: ");
 1248              		.loc 1 402 0
 1249 028e 9DF92020 		ldrsb	r2, [sp, #32]
 1250 0292 18A8     		add	r0, sp, #96
 1251 0294 0DF12101 		add	r1, sp, #33
 1252 0298 FFF7FEFF 		bl	split
 1253              	.LVL120:
 403:src/ctlcfg.c  ****     len += PackInfoData(p_mem+len, data+1, pack_width);
 1254              		.loc 1 403 0
 1255 029c 2B19     		adds	r3, r5, r4
 1256 029e 1846     		mov	r0, r3
 1257 02a0 5949     		ldr	r1, .L161+36
 1258 02a2 FFF7FEFF 		bl	strcpy
ARM GAS  C:\Users\AHMED~1.ELE\AppData\Local\Temp\ccWMHy5f.s 			page 35


 1259              	.LVL121:
 404:src/ctlcfg.c  ****   }
 1260              		.loc 1 404 0
 1261 02a6 0DF16101 		add	r1, sp, #97
 1262 02aa 3246     		mov	r2, r6
 1263 02ac FFF7FEFF 		bl	PackInfoData
 1264              	.LVL122:
 1265 02b0 2044     		add	r0, r0, r4
 1266 02b2 84B2     		uxth	r4, r0
 1267              	.LVL123:
 1268              	.L88:
 408:src/ctlcfg.c  **** 
 1269              		.loc 1 408 0
 1270 02b4 3246     		mov	r2, r6
 1271 02b6 2819     		adds	r0, r5, r4
 1272 02b8 5449     		ldr	r1, .L161+40
 1273 02ba FFF7FEFF 		bl	PackInfoData
 1274              	.LVL124:
 411:src/ctlcfg.c  ****   data[0] = (!(aCtlCfg.bBitField&BIT_PARTIAL_NA))? 'Y':'N';
 1275              		.loc 1 411 0
 1276 02be 5449     		ldr	r1, .L161+44
 413:src/ctlcfg.c  ****   len += PackInfoData(p_mem+len, data, pack_width);
 1277              		.loc 1 413 0
 1278 02c0 4FF0000A 		mov	r10, #0
 408:src/ctlcfg.c  **** 
 1279              		.loc 1 408 0
 1280 02c4 2044     		add	r0, r0, r4
 1281 02c6 84B2     		uxth	r4, r0
 1282              	.LVL125:
 411:src/ctlcfg.c  ****   data[0] = (!(aCtlCfg.bBitField&BIT_PARTIAL_NA))? 'Y':'N';
 1283              		.loc 1 411 0
 1284 02c8 2B19     		adds	r3, r5, r4
 1285 02ca 1846     		mov	r0, r3
 1286 02cc FFF7FEFF 		bl	strcpy
 1287              	.LVL126:
 412:src/ctlcfg.c  ****   data[1] = 0x00;
 1288              		.loc 1 412 0
 1289 02d0 9DF8B922 		ldrb	r2, [sp, #697]	@ zero_extendqisi2
 414:src/ctlcfg.c  **** 
 1290              		.loc 1 414 0
 1291 02d4 18A9     		add	r1, sp, #96
 412:src/ctlcfg.c  ****   data[1] = 0x00;
 1292              		.loc 1 412 0
 1293 02d6 12F0010F 		tst	r2, #1
 1294 02da 0CBF     		ite	eq
 1295 02dc 5922     		moveq	r2, #89
 1296 02de 4E22     		movne	r2, #78
 413:src/ctlcfg.c  ****   len += PackInfoData(p_mem+len, data, pack_width);
 1297              		.loc 1 413 0
 1298 02e0 8DF861A0 		strb	r10, [sp, #97]
 412:src/ctlcfg.c  ****   data[1] = 0x00;
 1299              		.loc 1 412 0
 1300 02e4 8DF86020 		strb	r2, [sp, #96]
 414:src/ctlcfg.c  **** 
 1301              		.loc 1 414 0
 1302 02e8 3246     		mov	r2, r6
 1303 02ea FFF7FEFF 		bl	PackInfoData
ARM GAS  C:\Users\AHMED~1.ELE\AppData\Local\Temp\ccWMHy5f.s 			page 36


 1304              	.LVL127:
 417:src/ctlcfg.c  ****   data[0] = (!(aCtlCfg.bBitField&BIT_REFERRAL_NA))? 'Y':'N';
 1305              		.loc 1 417 0
 1306 02ee 4949     		ldr	r1, .L161+48
 414:src/ctlcfg.c  **** 
 1307              		.loc 1 414 0
 1308 02f0 2044     		add	r0, r0, r4
 1309 02f2 84B2     		uxth	r4, r0
 1310              	.LVL128:
 417:src/ctlcfg.c  ****   data[0] = (!(aCtlCfg.bBitField&BIT_REFERRAL_NA))? 'Y':'N';
 1311              		.loc 1 417 0
 1312 02f4 2B19     		adds	r3, r5, r4
 1313 02f6 1846     		mov	r0, r3
 1314 02f8 FFF7FEFF 		bl	strcpy
 1315              	.LVL129:
 418:src/ctlcfg.c  ****   data[1] = 0x00;
 1316              		.loc 1 418 0
 1317 02fc 9DF8B922 		ldrb	r2, [sp, #697]	@ zero_extendqisi2
 420:src/ctlcfg.c  **** 
 1318              		.loc 1 420 0
 1319 0300 18A9     		add	r1, sp, #96
 418:src/ctlcfg.c  ****   data[1] = 0x00;
 1320              		.loc 1 418 0
 1321 0302 12F0020F 		tst	r2, #2
 1322 0306 0CBF     		ite	eq
 1323 0308 5922     		moveq	r2, #89
 1324 030a 4E22     		movne	r2, #78
 419:src/ctlcfg.c  ****   len += PackInfoData(p_mem+len, data, pack_width);
 1325              		.loc 1 419 0
 1326 030c 8DF861A0 		strb	r10, [sp, #97]
 418:src/ctlcfg.c  ****   data[1] = 0x00;
 1327              		.loc 1 418 0
 1328 0310 8DF86020 		strb	r2, [sp, #96]
 420:src/ctlcfg.c  **** 
 1329              		.loc 1 420 0
 1330 0314 3246     		mov	r2, r6
 1331 0316 FFF7FEFF 		bl	PackInfoData
 1332              	.LVL130:
 423:src/ctlcfg.c  ****   split(data, aCtlCfg.abTACDenial, 5);
 1333              		.loc 1 423 0
 1334 031a 3F49     		ldr	r1, .L161+52
 420:src/ctlcfg.c  **** 
 1335              		.loc 1 420 0
 1336 031c 2044     		add	r0, r0, r4
 1337 031e 84B2     		uxth	r4, r0
 1338              	.LVL131:
 423:src/ctlcfg.c  ****   split(data, aCtlCfg.abTACDenial, 5);
 1339              		.loc 1 423 0
 1340 0320 05EB040B 		add	fp, r5, r4
 1341 0324 5846     		mov	r0, fp
 1342 0326 FFF7FEFF 		bl	strcpy
 1343              	.LVL132:
 424:src/ctlcfg.c  ****   data[5*2] = 0x00;
 1344              		.loc 1 424 0
 1345 032a 18A8     		add	r0, sp, #96
 1346 032c B0A9     		add	r1, sp, #704
 1347 032e 0522     		movs	r2, #5
ARM GAS  C:\Users\AHMED~1.ELE\AppData\Local\Temp\ccWMHy5f.s 			page 37


 1348 0330 FFF7FEFF 		bl	split
 1349              	.LVL133:
 426:src/ctlcfg.c  **** 
 1350              		.loc 1 426 0
 1351 0334 3246     		mov	r2, r6
 1352 0336 5846     		mov	r0, fp
 1353 0338 18A9     		add	r1, sp, #96
 425:src/ctlcfg.c  ****   len += PackInfoData(p_mem+len, data, pack_width);
 1354              		.loc 1 425 0
 1355 033a 8DF86AA0 		strb	r10, [sp, #106]
 426:src/ctlcfg.c  **** 
 1356              		.loc 1 426 0
 1357 033e FFF7FEFF 		bl	PackInfoData
 1358              	.LVL134:
 429:src/ctlcfg.c  ****   split(data, aCtlCfg.abTACOnline, 5);
 1359              		.loc 1 429 0
 1360 0342 3649     		ldr	r1, .L161+56
 426:src/ctlcfg.c  **** 
 1361              		.loc 1 426 0
 1362 0344 2044     		add	r0, r0, r4
 1363 0346 84B2     		uxth	r4, r0
 1364              	.LVL135:
 429:src/ctlcfg.c  ****   split(data, aCtlCfg.abTACOnline, 5);
 1365              		.loc 1 429 0
 1366 0348 05EB040B 		add	fp, r5, r4
 1367 034c 5846     		mov	r0, fp
 1368 034e FFF7FEFF 		bl	strcpy
 1369              	.LVL136:
 430:src/ctlcfg.c  ****   data[5*2] = 0x00;
 1370              		.loc 1 430 0
 1371 0352 AEAB     		add	r3, sp, #696
 1372 0354 03F10D01 		add	r1, r3, #13
 1373 0358 18A8     		add	r0, sp, #96
 1374 035a 0522     		movs	r2, #5
 1375 035c FFF7FEFF 		bl	split
 1376              	.LVL137:
 432:src/ctlcfg.c  **** 
 1377              		.loc 1 432 0
 1378 0360 3246     		mov	r2, r6
 1379 0362 5846     		mov	r0, fp
 1380 0364 18A9     		add	r1, sp, #96
 431:src/ctlcfg.c  ****   len += PackInfoData(p_mem+len, data, pack_width);
 1381              		.loc 1 431 0
 1382 0366 8DF86AA0 		strb	r10, [sp, #106]
 432:src/ctlcfg.c  **** 
 1383              		.loc 1 432 0
 1384 036a FFF7FEFF 		bl	PackInfoData
 1385              	.LVL138:
 435:src/ctlcfg.c  ****   split(data, aCtlCfg.abTACDefault, 5);
 1386              		.loc 1 435 0
 1387 036e 2A49     		ldr	r1, .L161+52
 432:src/ctlcfg.c  **** 
 1388              		.loc 1 432 0
 1389 0370 2044     		add	r0, r0, r4
 1390 0372 84B2     		uxth	r4, r0
 1391              	.LVL139:
 435:src/ctlcfg.c  ****   split(data, aCtlCfg.abTACDefault, 5);
ARM GAS  C:\Users\AHMED~1.ELE\AppData\Local\Temp\ccWMHy5f.s 			page 38


 1392              		.loc 1 435 0
 1393 0374 05EB040B 		add	fp, r5, r4
 1394 0378 5846     		mov	r0, fp
 1395 037a FFF7FEFF 		bl	strcpy
 1396              	.LVL140:
 436:src/ctlcfg.c  ****   data[5*2] = 0x00;
 1397              		.loc 1 436 0
 1398 037e AEAB     		add	r3, sp, #696
 1399 0380 03F11201 		add	r1, r3, #18
 1400 0384 18A8     		add	r0, sp, #96
 1401 0386 0522     		movs	r2, #5
 1402 0388 FFF7FEFF 		bl	split
 1403              	.LVL141:
 438:src/ctlcfg.c  **** 
 1404              		.loc 1 438 0
 1405 038c 18A9     		add	r1, sp, #96
 1406 038e 3246     		mov	r2, r6
 1407 0390 5846     		mov	r0, fp
 437:src/ctlcfg.c  ****   len += PackInfoData(p_mem+len, data, pack_width);
 1408              		.loc 1 437 0
 1409 0392 8DF86AA0 		strb	r10, [sp, #106]
 438:src/ctlcfg.c  **** 
 1410              		.loc 1 438 0
 1411 0396 FFF7FEFF 		bl	PackInfoData
 1412              	.LVL142:
 441:src/ctlcfg.c  ****     memset(data, 0x00, sizeof(data));
 1413              		.loc 1 441 0
 1414 039a AEAB     		add	r3, sp, #696
 1415 039c 03F11701 		add	r1, r3, #23
 438:src/ctlcfg.c  **** 
 1416              		.loc 1 438 0
 1417 03a0 2044     		add	r0, r0, r4
 441:src/ctlcfg.c  ****     memset(data, 0x00, sizeof(data));
 1418              		.loc 1 441 0
 1419 03a2 49F63372 		movw	r2, #40755
 438:src/ctlcfg.c  **** 
 1420              		.loc 1 438 0
 1421 03a6 84B2     		uxth	r4, r0
 1422              	.LVL143:
 441:src/ctlcfg.c  ****     memset(data, 0x00, sizeof(data));
 1423              		.loc 1 441 0
 1424 03a8 08A8     		add	r0, sp, #32
 1425 03aa FFF7FEFF 		bl	LDLoad
 1426              	.LVL144:
 1427 03ae 0028     		cmp	r0, #0
 1428 03b0 38D0     		beq	.L91
 442:src/ctlcfg.c  ****     split(data, buf+1, buf[0]);
 1429              		.loc 1 442 0
 1430 03b2 5146     		mov	r1, r10
 1431 03b4 4022     		movs	r2, #64
 1432 03b6 18A8     		add	r0, sp, #96
 1433 03b8 FFF7FEFF 		bl	memset
 1434              	.LVL145:
 443:src/ctlcfg.c  ****     strcpy(p_mem+len, "Term Cap: ");
 1435              		.loc 1 443 0
 1436 03bc 9DF92020 		ldrsb	r2, [sp, #32]
 1437 03c0 18A8     		add	r0, sp, #96
ARM GAS  C:\Users\AHMED~1.ELE\AppData\Local\Temp\ccWMHy5f.s 			page 39


 1438 03c2 0DF12101 		add	r1, sp, #33
 1439 03c6 FFF7FEFF 		bl	split
 1440              	.LVL146:
 444:src/ctlcfg.c  ****     len += PackInfoData(p_mem+len, data, pack_width);
 1441              		.loc 1 444 0
 1442 03ca 2B19     		adds	r3, r5, r4
 1443 03cc 1846     		mov	r0, r3
 1444 03ce 1449     		ldr	r1, .L161+60
 1445 03d0 FFF7FEFF 		bl	strcpy
 1446              	.LVL147:
 445:src/ctlcfg.c  ****   }
 1447              		.loc 1 445 0
 1448 03d4 18A9     		add	r1, sp, #96
 1449 03d6 3246     		mov	r2, r6
 1450 03d8 FFF7FEFF 		bl	PackInfoData
 1451              	.LVL148:
 1452 03dc 2044     		add	r0, r0, r4
 1453 03de 84B2     		uxth	r4, r0
 1454 03e0 20E0     		b	.L162
 1455              	.L163:
 1456 03e2 00BF     		.align	2
 1457              	.L161:
 1458 03e4 28000000 		.word	.LC2
 1459 03e8 34000000 		.word	.LC3
 1460 03ec 3A000000 		.word	.LC4
 1461 03f0 44000000 		.word	.LC5
 1462 03f4 51000000 		.word	.LC6
 1463 03f8 60000000 		.word	.LC7
 1464 03fc 69000000 		.word	.LC8
 1465 0400 74000000 		.word	.LC9
 1466 0404 7E000000 		.word	.LC10
 1467 0408 88000000 		.word	.LC11
 1468 040c 93000000 		.word	.LC12
 1469 0410 94000000 		.word	.LC13
 1470 0414 A8000000 		.word	.LC14
 1471 0418 BA000000 		.word	.LC15
 1472 041c C7000000 		.word	.LC16
 1473 0420 D4000000 		.word	.LC17
 1474              	.L162:
 1475              	.LVL149:
 1476              	.L91:
 449:src/ctlcfg.c  ****     memset(data, 0x00, sizeof(data));
 1477              		.loc 1 449 0
 1478 0424 AEAB     		add	r3, sp, #696
 1479 0426 08A8     		add	r0, sp, #32
 1480 0428 03F11701 		add	r1, r3, #23
 1481 042c 49F64072 		movw	r2, #40768
 1482 0430 FFF7FEFF 		bl	LDLoad
 1483              	.LVL150:
 1484 0434 0DF1600A 		add	r10, sp, #96
 1485 0438 B0B1     		cbz	r0, .L92
 450:src/ctlcfg.c  ****     split(data, buf+1, buf[0]);
 1486              		.loc 1 450 0
 1487 043a 0021     		movs	r1, #0
 1488 043c 4022     		movs	r2, #64
 1489 043e 5046     		mov	r0, r10
 1490 0440 FFF7FEFF 		bl	memset
ARM GAS  C:\Users\AHMED~1.ELE\AppData\Local\Temp\ccWMHy5f.s 			page 40


 1491              	.LVL151:
 451:src/ctlcfg.c  ****     strcpy(p_mem+len, "Add Cap: ");
 1492              		.loc 1 451 0
 1493 0444 9DF92020 		ldrsb	r2, [sp, #32]
 1494 0448 5046     		mov	r0, r10
 1495 044a 0DF12101 		add	r1, sp, #33
 1496 044e FFF7FEFF 		bl	split
 1497              	.LVL152:
 452:src/ctlcfg.c  ****     len += PackInfoData(p_mem+len, data, pack_width);
 1498              		.loc 1 452 0
 1499 0452 2B19     		adds	r3, r5, r4
 1500 0454 1846     		mov	r0, r3
 1501 0456 7949     		ldr	r1, .L164
 1502 0458 FFF7FEFF 		bl	strcpy
 1503              	.LVL153:
 453:src/ctlcfg.c  ****   }
 1504              		.loc 1 453 0
 1505 045c 5146     		mov	r1, r10
 1506 045e 3246     		mov	r2, r6
 1507 0460 FFF7FEFF 		bl	PackInfoData
 1508              	.LVL154:
 1509 0464 2044     		add	r0, r0, r4
 1510 0466 84B2     		uxth	r4, r0
 1511              	.LVL155:
 1512              	.L92:
 457:src/ctlcfg.c  ****   info_data.b_line_width  = (unsigned char)pack_width;
 1513              		.loc 1 457 0
 1514 0468 5046     		mov	r0, r10
 1515 046a 7549     		ldr	r1, .L164+4
 1516 046c FFF7FEFF 		bl	strcpy
 1517              	.LVL156:
 458:src/ctlcfg.c  ****   info_data.w_info_len    = len;
 1518              		.loc 1 458 0
 1519 0470 05AB     		add	r3, sp, #20
 1520 0472 8DF81490 		strb	r9, [sp, #20]
 1521              	.LVL157:
 460:src/ctlcfg.c  ****   info_data.pb_info       = p_mem;
 1522              		.loc 1 460 0
 1523 0476 CDF818A0 		str	r10, [sp, #24]
 1524              	.LVL158:
 463:src/ctlcfg.c  ****     if (DispInfoData(info_data) == MWKEY_CANCL) {
 1525              		.loc 1 463 0
 1526 047a 67B1     		cbz	r7, .L93
 464:src/ctlcfg.c  ****       ret_ok = FALSE;
 1527              		.loc 1 464 0
 1528 047c ADF81640 		strh	r4, [sp, #22]	@ movhi
 1529 0480 0795     		str	r5, [sp, #28]
 1530 0482 93E80700 		ldmia	r3, {r0, r1, r2}
 1531 0486 FFF7FEFF 		bl	DispInfoData
 1532              	.LVL159:
 332:src/ctlcfg.c  ****   char *p_mem, buf[64], data[64];
 1533              		.loc 1 332 0
 1534 048a B0F1110A 		subs	r10, r0, #17
 1535 048e 18BF     		it	ne
 1536 0490 4FF0010A 		movne	r10, #1
 1537 0494 0FE0     		b	.L94
 1538              	.L93:
ARM GAS  C:\Users\AHMED~1.ELE\AppData\Local\Temp\ccWMHy5f.s 			page 41


 469:src/ctlcfg.c  ****     LptPutS(&data[1]);
 1539              		.loc 1 469 0
 1540 0496 0220     		movs	r0, #2
 1541 0498 FFF7FEFF 		bl	PrintRcptLF
 1542              	.LVL160:
 470:src/ctlcfg.c  ****     PrintRcptLF(1);
 1543              		.loc 1 470 0
 1544 049c 0AF10100 		add	r0, r10, #1
 1545 04a0 FFF7FEFF 		bl	LptPutS
 1546              	.LVL161:
 471:src/ctlcfg.c  ****     ret_ok = PrintBuf(info_data.pb_info, info_data.w_info_len, TRUE);
 1547              		.loc 1 471 0
 1548 04a4 0120     		movs	r0, #1
 1549 04a6 FFF7FEFF 		bl	PrintRcptLF
 1550              	.LVL162:
 472:src/ctlcfg.c  ****   }
 1551              		.loc 1 472 0
 1552 04aa 2846     		mov	r0, r5
 1553 04ac 2146     		mov	r1, r4
 1554 04ae 0122     		movs	r2, #1
 1555 04b0 FFF7FEFF 		bl	PrintBuf
 1556              	.LVL163:
 1557 04b4 8246     		mov	r10, r0
 1558              	.LVL164:
 1559              	.L94:
 475:src/ctlcfg.c  ****   return ret_ok;
 1560              		.loc 1 475 0
 1561 04b6 2946     		mov	r1, r5
 1562 04b8 9420     		movs	r0, #148
 1563 04ba FFF7FEFF 		bl	sys_func1
 1564              	.LVL165:
 1565 04be 00E0     		b	.L81
 1566              	.LVL166:
 1567              	.L110:
 339:src/ctlcfg.c  ****   }
 1568              		.loc 1 339 0
 1569 04c0 8246     		mov	r10, r0
 1570              	.LVL167:
 1571              	.L81:
 1572              	.LBE24:
 1573              	.LBE32:
 591:src/ctlcfg.c  ****     if (!GetCTLAppCfg(&ctl_cfg, i)) {
 1574              		.loc 1 591 0 discriminator 2
 1575 04c2 08F10108 		add	r8, r8, #1
 1576              	.LVL168:
 1577 04c6 B8F1100F 		cmp	r8, #16
 1578 04ca 04D0     		beq	.L95
 591:src/ctlcfg.c  ****     if (!GetCTLAppCfg(&ctl_cfg, i)) {
 1579              		.loc 1 591 0 is_stmt 0 discriminator 3
 1580 04cc BAF1000F 		cmp	r10, #0
 1581 04d0 7FF4A5AD 		bne	.L96
 1582 04d4 ADE0     		b	.L157
 1583              	.L95:
 596:src/ctlcfg.c  ****       continue;
 597:src/ctlcfg.c  ****     }
 598:src/ctlcfg.c  ****     ret_ok = PrintCTLAppCfg(ctl_cfg, aDetail, aToDisplay);
 599:src/ctlcfg.c  ****   }
ARM GAS  C:\Users\AHMED~1.ELE\AppData\Local\Temp\ccWMHy5f.s 			page 42


 600:src/ctlcfg.c  **** 
 601:src/ctlcfg.c  ****   //CTL key info
 602:src/ctlcfg.c  ****   if (ret_ok) {
 1584              		.loc 1 602 0 is_stmt 1
 1585 04d6 BAF1000F 		cmp	r10, #0
 1586 04da 00F0AA80 		beq	.L157
 1587 04de B1E5     		b	.L98
 1588              	.LVL169:
 1589              	.L156:
 1590 04e0 18AD     		add	r5, sp, #96
 1591              	.LBB33:
 1592              	.LBB30:
 502:src/ctlcfg.c  **** 
 1593              		.loc 1 502 0
 1594 04e2 002F     		cmp	r7, #0
 1595 04e4 00F09580 		beq	.L99
 1596 04e8 4FF01A08 		mov	r8, #26
 1597              	.LVL170:
 1598              	.L108:
 1599 04ec 4FF00009 		mov	r9, #0
 1600 04f0 4FF0010A 		mov	r10, #1
 1601              	.LVL171:
 1602 04f4 4C46     		mov	r4, r9
 1603              	.LVL172:
 1604              	.L105:
 514:src/ctlcfg.c  ****       break;
 1605              		.loc 1 514 0
 1606 04f6 08A8     		add	r0, sp, #32
 1607 04f8 4946     		mov	r1, r9
 1608 04fa FFF7FEFF 		bl	GetCTLKeyInfo
 1609              	.LVL173:
 1610 04fe 0028     		cmp	r0, #0
 1611 0500 61D0     		beq	.L100
 519:src/ctlcfg.c  ****       strcpy(p_mem+len, "Public Key-ID");
 1612              		.loc 1 519 0
 1613 0502 B9F1000F 		cmp	r9, #0
 1614 0506 01D0     		beq	.L101
 1615 0508 5CB9     		cbnz	r4, .L102
 1616 050a 57B1     		cbz	r7, .L102
 1617              	.L101:
 520:src/ctlcfg.c  ****       len += PackInfoData(p_mem+len, "Eff   Exp  ", pack_width);
 1618              		.loc 1 520 0
 1619 050c 3319     		adds	r3, r6, r4
 1620 050e 1846     		mov	r0, r3
 1621 0510 4C49     		ldr	r1, .L164+8
 1622 0512 FFF7FEFF 		bl	strcpy
 1623              	.LVL174:
 521:src/ctlcfg.c  ****     }
 1624              		.loc 1 521 0
 1625 0516 4C49     		ldr	r1, .L164+12
 1626 0518 4246     		mov	r2, r8
 1627 051a FFF7FEFF 		bl	PackInfoData
 1628              	.LVL175:
 1629 051e 2044     		add	r0, r0, r4
 1630 0520 84B2     		uxth	r4, r0
 1631              	.LVL176:
 1632              	.L102:
ARM GAS  C:\Users\AHMED~1.ELE\AppData\Local\Temp\ccWMHy5f.s 			page 43


 525:src/ctlcfg.c  ****     p_mem[len+10] = '-';
 1633              		.loc 1 525 0
 1634 0522 06EB040B 		add	fp, r6, r4
 1635 0526 5846     		mov	r0, fp
 1636 0528 0DF12101 		add	r1, sp, #33
 1637 052c 0522     		movs	r2, #5
 1638 052e FFF7FEFF 		bl	split
 1639              	.LVL177:
 526:src/ctlcfg.c  ****     SprintfMW(p_mem+len+11, "%02X", key_info.bKeyIdx);
 1640              		.loc 1 526 0
 1641 0532 2D23     		movs	r3, #45
 527:src/ctlcfg.c  ****     SprintfMW(data, "%02X/%02X ", key_info.wEffectMMYY/256, key_info.wEffectMMYY%256);
 1642              		.loc 1 527 0
 1643 0534 04F10B00 		add	r0, r4, #11
 526:src/ctlcfg.c  ****     SprintfMW(p_mem+len+11, "%02X", key_info.bKeyIdx);
 1644              		.loc 1 526 0
 1645 0538 8BF80A30 		strb	r3, [fp, #10]
 527:src/ctlcfg.c  ****     SprintfMW(data, "%02X/%02X ", key_info.wEffectMMYY/256, key_info.wEffectMMYY%256);
 1646              		.loc 1 527 0
 1647 053c 4349     		ldr	r1, .L164+16
 1648 053e 9DF82020 		ldrb	r2, [sp, #32]	@ zero_extendqisi2
 1649 0542 3044     		add	r0, r0, r6
 1650 0544 FFF7FEFF 		bl	sprintf
 1651              	.LVL178:
 528:src/ctlcfg.c  ****     SprintfMW(data+strlen(data), "%02X/%02X ", key_info.wExpiryMMYY/256, key_info.wExpiryMMYY%256);
 1652              		.loc 1 528 0
 1653 0548 BDF82830 		ldrh	r3, [sp, #40]
 1654 054c 4049     		ldr	r1, .L164+20
 1655 054e 1A0A     		lsrs	r2, r3, #8
 1656 0550 2846     		mov	r0, r5
 1657 0552 DBB2     		uxtb	r3, r3
 1658 0554 FFF7FEFF 		bl	sprintf
 1659              	.LVL179:
 529:src/ctlcfg.c  ****     len += PackInfoData(p_mem+len, data, pack_width);
 1660              		.loc 1 529 0
 1661 0558 2846     		mov	r0, r5
 1662 055a FFF7FEFF 		bl	strlen
 1663              	.LVL180:
 1664 055e BDF82630 		ldrh	r3, [sp, #38]
 1665 0562 3B49     		ldr	r1, .L164+20
 1666 0564 1A0A     		lsrs	r2, r3, #8
 1667 0566 2844     		add	r0, r0, r5
 1668 0568 DBB2     		uxtb	r3, r3
 1669 056a FFF7FEFF 		bl	sprintf
 1670              	.LVL181:
 530:src/ctlcfg.c  **** 
 1671              		.loc 1 530 0
 1672 056e 5846     		mov	r0, fp
 1673 0570 2946     		mov	r1, r5
 1674 0572 4246     		mov	r2, r8
 1675 0574 FFF7FEFF 		bl	PackInfoData
 1676              	.LVL182:
 1677 0578 2044     		add	r0, r0, r4
 1678 057a 84B2     		uxth	r4, r0
 1679              	.LVL183:
 535:src/ctlcfg.c  ****       SprintfMW(data, " CTL KEY INFO");
 1680              		.loc 1 535 0
ARM GAS  C:\Users\AHMED~1.ELE\AppData\Local\Temp\ccWMHy5f.s 			page 44


 1681 057c B4F5707F 		cmp	r4, #960
 1682 0580 1AD9     		bls	.L103
 536:src/ctlcfg.c  ****       info_data.b_line_width  = (unsigned char)pack_width;
 1683              		.loc 1 536 0
 1684 0582 2846     		mov	r0, r5
 1685 0584 3349     		ldr	r1, .L164+24
 1686 0586 FFF7FEFF 		bl	strcpy
 1687              	.LVL184:
 537:src/ctlcfg.c  ****       info_data.w_info_len    = len;
 1688              		.loc 1 537 0
 1689 058a 05AB     		add	r3, sp, #20
 1690 058c 8DF81480 		strb	r8, [sp, #20]
 1691              	.LVL185:
 539:src/ctlcfg.c  ****       info_data.pb_info       = p_mem;
 1692              		.loc 1 539 0
 1693 0590 0695     		str	r5, [sp, #24]
 1694              	.LVL186:
 542:src/ctlcfg.c  ****         if (DispInfoData(info_data) == MWKEY_CANCL) {
 1695              		.loc 1 542 0
 1696 0592 57B1     		cbz	r7, .L104
 543:src/ctlcfg.c  ****           ret_ok = FALSE;
 1697              		.loc 1 543 0
 1698 0594 ADF81640 		strh	r4, [sp, #22]	@ movhi
 1699 0598 0796     		str	r6, [sp, #28]
 1700 059a 93E80700 		ldmia	r3, {r0, r1, r2}
 1701 059e FFF7FEFF 		bl	DispInfoData
 1702              	.LVL187:
 541:src/ctlcfg.c  ****       if (aToDisplay) {
 1703              		.loc 1 541 0
 1704 05a2 0024     		movs	r4, #0
 1705              	.LVL188:
 543:src/ctlcfg.c  ****           ret_ok = FALSE;
 1706              		.loc 1 543 0
 1707 05a4 1128     		cmp	r0, #17
 1708 05a6 07D1     		bne	.L103
 1709 05a8 0CE0     		b	.L114
 1710              	.LVL189:
 1711              	.L104:
 549:src/ctlcfg.c  ****       }
 1712              		.loc 1 549 0
 1713 05aa 2146     		mov	r1, r4
 1714 05ac 3046     		mov	r0, r6
 1715 05ae 0122     		movs	r2, #1
 1716 05b0 FFF7FEFF 		bl	PrintBuf
 1717              	.LVL190:
 541:src/ctlcfg.c  ****       if (aToDisplay) {
 1718              		.loc 1 541 0
 1719 05b4 3C46     		mov	r4, r7
 1720              	.LVL191:
 549:src/ctlcfg.c  ****       }
 1721              		.loc 1 549 0
 1722 05b6 8246     		mov	r10, r0
 1723              	.LVL192:
 1724              	.L103:
 1725 05b8 09F10109 		add	r9, r9, #1
 1726              	.LVL193:
 512:src/ctlcfg.c  ****     // get key info
ARM GAS  C:\Users\AHMED~1.ELE\AppData\Local\Temp\ccWMHy5f.s 			page 45


 1727              		.loc 1 512 0
 1728 05bc B9F1200F 		cmp	r9, #32
 1729 05c0 99D1     		bne	.L105
 1730 05c2 00E0     		b	.L100
 1731              	.LVL194:
 1732              	.L114:
 544:src/ctlcfg.c  ****           break;
 1733              		.loc 1 544 0
 1734 05c4 A246     		mov	r10, r4
 1735              	.LVL195:
 1736              	.L100:
 555:src/ctlcfg.c  ****   info_data.b_line_width  = (unsigned char)pack_width;
 1737              		.loc 1 555 0
 1738 05c6 2846     		mov	r0, r5
 1739 05c8 2249     		ldr	r1, .L164+24
 1740 05ca FFF7FEFF 		bl	strcpy
 1741              	.LVL196:
 556:src/ctlcfg.c  ****   info_data.w_info_len    = len;
 1742              		.loc 1 556 0
 1743 05ce 05AB     		add	r3, sp, #20
 1744 05d0 8DF81480 		strb	r8, [sp, #20]
 1745              	.LVL197:
 558:src/ctlcfg.c  ****   info_data.pb_info       = p_mem;
 1746              		.loc 1 558 0
 1747 05d4 0695     		str	r5, [sp, #24]
 1748              	.LVL198:
 561:src/ctlcfg.c  ****     if (aToDisplay) {
 1749              		.loc 1 561 0
 1750 05d6 ACB1     		cbz	r4, .L106
 1751 05d8 BAF1000F 		cmp	r10, #0
 1752 05dc 12D0     		beq	.L106
 562:src/ctlcfg.c  ****       if (DispInfoData(info_data) == MWKEY_CANCL) {
 1753              		.loc 1 562 0
 1754 05de 5FB1     		cbz	r7, .L107
 563:src/ctlcfg.c  ****         ret_ok = FALSE;
 1755              		.loc 1 563 0
 1756 05e0 ADF81640 		strh	r4, [sp, #22]	@ movhi
 1757 05e4 0796     		str	r6, [sp, #28]
 1758 05e6 93E80700 		ldmia	r3, {r0, r1, r2}
 1759 05ea FFF7FEFF 		bl	DispInfoData
 1760              	.LVL199:
 564:src/ctlcfg.c  ****       }
 1761              		.loc 1 564 0
 1762 05ee 1128     		cmp	r0, #17
 1763 05f0 08BF     		it	eq
 1764 05f2 4FF0000A 		moveq	r10, #0
 1765              	.LVL200:
 1766 05f6 05E0     		b	.L106
 1767              	.LVL201:
 1768              	.L107:
 568:src/ctlcfg.c  ****     }
 1769              		.loc 1 568 0
 1770 05f8 3046     		mov	r0, r6
 1771 05fa 2146     		mov	r1, r4
 1772 05fc 0122     		movs	r2, #1
 1773 05fe FFF7FEFF 		bl	PrintBuf
 1774              	.LVL202:
ARM GAS  C:\Users\AHMED~1.ELE\AppData\Local\Temp\ccWMHy5f.s 			page 46


 1775 0602 8246     		mov	r10, r0
 1776              	.LVL203:
 1777              	.L106:
 572:src/ctlcfg.c  ****   return ret_ok;
 1778              		.loc 1 572 0
 1779 0604 3146     		mov	r1, r6
 1780 0606 9420     		movs	r0, #148
 1781 0608 FFF7FEFF 		bl	sys_func1
 1782              	.LVL204:
 1783 060c 11E0     		b	.L157
 1784              	.LVL205:
 1785              	.L158:
 497:src/ctlcfg.c  ****   }
 1786              		.loc 1 497 0
 1787 060e 8246     		mov	r10, r0
 1788              	.LVL206:
 1789 0610 0FE0     		b	.L157
 1790              	.LVL207:
 1791              	.L99:
 505:src/ctlcfg.c  ****     strcpy(data, "CTL KEY INFO");
 1792              		.loc 1 505 0
 1793 0612 0220     		movs	r0, #2
 1794              	.LVL208:
 1795 0614 FFF7FEFF 		bl	PrintRcptLF
 1796              	.LVL209:
 506:src/ctlcfg.c  ****     LptPutS(data);
 1797              		.loc 1 506 0
 1798 0618 0F49     		ldr	r1, .L164+28
 1799 061a 2846     		mov	r0, r5
 1800 061c FFF7FEFF 		bl	strcpy
 1801              	.LVL210:
 507:src/ctlcfg.c  ****     PrintRcptLF(1);
 1802              		.loc 1 507 0
 1803 0620 2846     		mov	r0, r5
 1804 0622 FFF7FEFF 		bl	LptPutS
 1805              	.LVL211:
 508:src/ctlcfg.c  ****   }
 1806              		.loc 1 508 0
 1807 0626 0120     		movs	r0, #1
 1808 0628 FFF7FEFF 		bl	PrintRcptLF
 1809              	.LVL212:
 502:src/ctlcfg.c  **** 
 1810              		.loc 1 502 0
 1811 062c 4FF02008 		mov	r8, #32
 1812              	.LVL213:
 1813 0630 5CE7     		b	.L108
 1814              	.LVL214:
 1815              	.L157:
 1816              	.LBE30:
 1817              	.LBE33:
 603:src/ctlcfg.c  ****     ret_ok = PrintCTLKeyInfo(aDetail, aToDisplay);
 604:src/ctlcfg.c  ****   }
 605:src/ctlcfg.c  **** 
 606:src/ctlcfg.c  ****   return ret_ok;
 607:src/ctlcfg.c  **** }
 1818              		.loc 1 607 0
 1819 0632 5046     		mov	r0, r10
ARM GAS  C:\Users\AHMED~1.ELE\AppData\Local\Temp\ccWMHy5f.s 			page 47


 1820 0634 0DF2D44D 		addw	sp, sp, #1236
 1821              		.cfi_def_cfa_offset 36
 1822              		@ sp needed
 1823 0638 BDE8F08F 		pop	{r4, r5, r6, r7, r8, r9, r10, fp, pc}
 1824              	.LVL215:
 1825              	.L165:
 1826              		.align	2
 1827              	.L164:
 1828 063c DF000000 		.word	.LC18
 1829 0640 E9000000 		.word	.LC19
 1830 0644 F6000000 		.word	.LC20
 1831 0648 04010000 		.word	.LC21
 1832 064c 10010000 		.word	.LC22
 1833 0650 15010000 		.word	.LC23
 1834 0654 20010000 		.word	.LC24
 1835 0658 2E010000 		.word	.LC25
 1836              		.cfi_endproc
 1837              	.LFE13:
 1838              		.size	PrintCTLParam, .-PrintCTLParam
 1839              		.section	.text.CTLUtilStart,"ax",%progbits
 1840              		.align	1
 1841              		.global	CTLUtilStart
 1842              		.thumb
 1843              		.thumb_func
 1844              		.type	CTLUtilStart, %function
 1845              	CTLUtilStart:
 1846              	.LFB14:
 608:src/ctlcfg.c  **** //*****************************************************************************
 609:src/ctlcfg.c  **** //  Function        : CTLUtilStart
 610:src/ctlcfg.c  **** //  Description     : Initialize all Globals variable for parameters passing.
 611:src/ctlcfg.c  **** //  Input           : N/A
 612:src/ctlcfg.c  **** //  Return          : N/A
 613:src/ctlcfg.c  **** //  Note            : N/A
 614:src/ctlcfg.c  **** //  Globals Changed : N/A
 615:src/ctlcfg.c  **** //*****************************************************************************
 616:src/ctlcfg.c  **** BOOLEAN CTLUtilStart(void)
 617:src/ctlcfg.c  **** {
 1847              		.loc 1 617 0
 1848              		.cfi_startproc
 1849              		@ args = 0, pretend = 0, frame = 0
 1850              		@ frame_needed = 0, uses_anonymous_args = 0
 1851 0000 38B5     		push	{r3, r4, r5, lr}
 1852              		.cfi_def_cfa_offset 16
 1853              		.cfi_offset 3, -16
 1854              		.cfi_offset 4, -12
 1855              		.cfi_offset 5, -8
 1856              		.cfi_offset 14, -4
 618:src/ctlcfg.c  ****   sbIOBuf  = (BYTE *)  MallocMW(1500);
 1857              		.loc 1 618 0
 1858 0002 40F2DC51 		movw	r1, #1500
 1859 0006 9220     		movs	r0, #146
 1860 0008 FFF7FEFF 		bl	sys_func1
 1861              	.LVL216:
 1862 000c 0C4C     		ldr	r4, .L167
 619:src/ctlcfg.c  ****   sCTLIn  = (CL_IO *) MallocMW(sizeof(CL_CFGP));
 1863              		.loc 1 619 0
 1864 000e 40F21725 		movw	r5, #535
ARM GAS  C:\Users\AHMED~1.ELE\AppData\Local\Temp\ccWMHy5f.s 			page 48


 1865 0012 2946     		mov	r1, r5
 618:src/ctlcfg.c  ****   sbIOBuf  = (BYTE *)  MallocMW(1500);
 1866              		.loc 1 618 0
 1867 0014 A060     		str	r0, [r4, #8]
 1868              		.loc 1 619 0
 1869 0016 9220     		movs	r0, #146
 1870 0018 FFF7FEFF 		bl	sys_func1
 1871              	.LVL217:
 620:src/ctlcfg.c  ****   sCTLOut = (CL_IO *) MallocMW(sizeof(CL_CFGP));
 1872              		.loc 1 620 0
 1873 001c 2946     		mov	r1, r5
 619:src/ctlcfg.c  ****   sCTLIn  = (CL_IO *) MallocMW(sizeof(CL_CFGP));
 1874              		.loc 1 619 0
 1875 001e 2060     		str	r0, [r4]
 1876              		.loc 1 620 0
 1877 0020 9220     		movs	r0, #146
 1878 0022 FFF7FEFF 		bl	sys_func1
 1879              	.LVL218:
 1880 0026 6060     		str	r0, [r4, #4]
 621:src/ctlcfg.c  **** 
 622:src/ctlcfg.c  ****   MemFatalErr(sbIOBuf);  // Check Memory Pointer
 1881              		.loc 1 622 0
 1882 0028 A068     		ldr	r0, [r4, #8]
 1883 002a FFF7FEFF 		bl	MemFatalErr
 1884              	.LVL219:
 623:src/ctlcfg.c  ****   MemFatalErr(sCTLIn);  // Check Memory Pointer
 1885              		.loc 1 623 0
 1886 002e 2068     		ldr	r0, [r4]
 1887 0030 FFF7FEFF 		bl	MemFatalErr
 1888              	.LVL220:
 624:src/ctlcfg.c  ****   MemFatalErr(sCTLOut);  // Check Memory Pointer
 1889              		.loc 1 624 0
 1890 0034 6068     		ldr	r0, [r4, #4]
 1891 0036 FFF7FEFF 		bl	MemFatalErr
 1892              	.LVL221:
 625:src/ctlcfg.c  ****   return TRUE;
 626:src/ctlcfg.c  **** }
 1893              		.loc 1 626 0
 1894 003a 0120     		movs	r0, #1
 1895 003c 38BD     		pop	{r3, r4, r5, pc}
 1896              	.L168:
 1897 003e 00BF     		.align	2
 1898              	.L167:
 1899 0040 00000000 		.word	.LANCHOR0
 1900              		.cfi_endproc
 1901              	.LFE14:
 1902              		.size	CTLUtilStart, .-CTLUtilStart
 1903              		.section	.rodata
 1904              		.set	.LANCHOR2,. + 0
 1905              		.type	KCTLTemp, %object
 1906              		.size	KCTLTemp, 8
 1907              	KCTLTemp:
 1908 0000 63746C5F 		.ascii	"ctl_tmp\000"
 1908      746D7000 
 1909              		.section	.rodata.str1.1,"aMS",%progbits,1
 1910              	.LC0:
 1911 0000 0C0A4354 		.ascii	"\014\012CTL2 FATAL ERR\012PLS CALL SERVICE\000"
ARM GAS  C:\Users\AHMED~1.ELE\AppData\Local\Temp\ccWMHy5f.s 			page 49


 1911      4C322046 
 1911      4154414C 
 1911      20455252 
 1911      0A504C53 
 1912              	.LC1:
 1913 0022 4149443A 		.ascii	"AID: \000"
 1913      2000
 1914              	.LC2:
 1915 0028 54797065 		.ascii	"Type: %02X \000"
 1915      3A202530 
 1915      32582000 
 1916              	.LC3:
 1917 0034 5665723A 		.ascii	"Ver: \000"
 1917      2000
 1918              	.LC4:
 1919 003a 464C5220 		.ascii	"FLR LMT: \000"
 1919      4C4D543A 
 1919      2000
 1920              	.LC5:
 1921 0044 464C5220 		.ascii	"FLR LMT(O): \000"
 1921      4C4D5428 
 1921      4F293A20 
 1921      00
 1922              	.LC6:
 1923 0051 42617369 		.ascii	"Basic Random: \000"
 1923      63205261 
 1923      6E646F6D 
 1923      3A2000
 1924              	.LC7:
 1925 0060 2530642E 		.ascii	"%0d.%02d\000"
 1925      25303264 
 1925      00
 1926              	.LC8:
 1927 0069 54617267 		.ascii	"Target %: \000"
 1927      65742025 
 1927      3A2000
 1928              	.LC9:
 1929 0074 25303264 		.ascii	"%02d-%02d\000"
 1929      2D253032 
 1929      6400
 1930              	.LC10:
 1931 007e 436F756E 		.ascii	"Country: \000"
 1931      7472793A 
 1931      2000
 1932              	.LC11:
 1933 0088 43757272 		.ascii	"Currency: \000"
 1933      656E6379 
 1933      3A2000
 1934              	.LC12:
 1935 0093 00       		.ascii	"\000"
 1936              	.LC13:
 1937 0094 416C6C6F 		.ascii	"Allow Partial AID: \000"
 1937      77205061 
 1937      72746961 
 1937      6C204149 
 1937      443A2000 
 1938              	.LC14:
ARM GAS  C:\Users\AHMED~1.ELE\AppData\Local\Temp\ccWMHy5f.s 			page 50


 1939 00a8 52656665 		.ascii	"Referral Enable: \000"
 1939      7272616C 
 1939      20456E61 
 1939      626C653A 
 1939      2000
 1940              	.LC15:
 1941 00ba 54414320 		.ascii	"TAC Denial: \000"
 1941      44656E69 
 1941      616C3A20 
 1941      00
 1942              	.LC16:
 1943 00c7 54414320 		.ascii	"TAC Online: \000"
 1943      4F6E6C69 
 1943      6E653A20 
 1943      00
 1944              	.LC17:
 1945 00d4 5465726D 		.ascii	"Term Cap: \000"
 1945      20436170 
 1945      3A2000
 1946              	.LC18:
 1947 00df 41646420 		.ascii	"Add Cap: \000"
 1947      4361703A 
 1947      2000
 1948              	.LC19:
 1949 00e9 2043544C 		.ascii	" CTL APP CFG\000"
 1949      20415050 
 1949      20434647 
 1949      00
 1950              	.LC20:
 1951 00f6 5075626C 		.ascii	"Public Key-ID\000"
 1951      6963204B 
 1951      65792D49 
 1951      4400
 1952              	.LC21:
 1953 0104 45666620 		.ascii	"Eff   Exp  \000"
 1953      20204578 
 1953      70202000 
 1954              	.LC22:
 1955 0110 25303258 		.ascii	"%02X\000"
 1955      00
 1956              	.LC23:
 1957 0115 25303258 		.ascii	"%02X/%02X \000"
 1957      2F253032 
 1957      582000
 1958              	.LC24:
 1959 0120 2043544C 		.ascii	" CTL KEY INFO\000"
 1959      204B4559 
 1959      20494E46 
 1959      4F00
 1960              	.LC25:
 1961 012e 43544C20 		.ascii	"CTL KEY INFO\000"
 1961      4B455920 
 1961      494E464F 
 1961      00
 1962              		.data
 1963              		.align	2
 1964              		.set	.LANCHOR1,. + 0
ARM GAS  C:\Users\AHMED~1.ELE\AppData\Local\Temp\ccWMHy5f.s 			page 51


 1965              		.type	iDnloadFile, %object
 1966              		.size	iDnloadFile, 4
 1967              	iDnloadFile:
 1968 0000 FFFFFFFF 		.word	-1
 1969              		.bss
 1970              		.align	2
 1971              		.set	.LANCHOR0,. + 0
 1972              		.type	sCTLIn, %object
 1973              		.size	sCTLIn, 4
 1974              	sCTLIn:
 1975 0000 00000000 		.space	4
 1976              		.type	sCTLOut, %object
 1977              		.size	sCTLOut, 4
 1978              	sCTLOut:
 1979 0004 00000000 		.space	4
 1980              		.type	sbIOBuf, %object
 1981              		.size	sbIOBuf, 4
 1982              	sbIOBuf:
 1983 0008 00000000 		.space	4
 1984              		.type	bCtlLoaded, %object
 1985              		.size	bCtlLoaded, 1
 1986              	bCtlLoaded:
 1987 000c 00       		.space	1
 1988 000d 00       		.space	1
 1989              		.type	wChunkSize, %object
 1990              		.size	wChunkSize, 2
 1991              	wChunkSize:
 1992 000e 0000     		.space	2
 1993              		.type	bMaxNumBlk, %object
 1994              		.size	bMaxNumBlk, 1
 1995              	bMaxNumBlk:
 1996 0010 00       		.space	1
 1997              		.type	bDnloadBlk, %object
 1998              		.size	bDnloadBlk, 1
 1999              	bDnloadBlk:
 2000 0011 00       		.space	1
 2001 0012 0000     		.text
 2002              	.Letext0:
 2003              		.file 2 "c:\\devtools\\gcc_v49_2014q4\\lib\\gcc\\arm-none-eabi\\4.9.3\\include\\stddef.h"
 2004              		.file 3 "../LibA5T1000/common.h"
 2005              		.file 4 "../LibA5T1000/system.h"
 2006              		.file 5 "../LibA5T1000/midware.h"
 2007              		.file 6 "../LibA5T1000/apm.h"
 2008              		.file 7 "src/hardware.h"
 2009              		.file 8 "../LibA5T1000/emvcl2dll.h"
 2010              		.file 9 "src/infodata.h"
 2011              		.file 10 "src/kbdutil.h"
 2012              		.file 11 "c:\\devtools\\gcc_v49_2014q4\\arm-none-eabi\\include\\string.h"
 2013              		.file 12 "src/emvtrans.h"
 2014              		.file 13 "src/sysutil.h"
 2015              		.file 14 "../LibA5T1000/util.h"
 2016              		.file 15 "c:\\devtools\\gcc_v49_2014q4\\arm-none-eabi\\include\\stdio.h"
 2017              		.file 16 "src/lptutil.h"
 2018              		.file 17 "<built-in>"
 2019              		.section	.debug_info,"",%progbits
 2020              	.Ldebug_info0:
 2021 0000 332A0000 		.4byte	0x2a33
ARM GAS  C:\Users\AHMED~1.ELE\AppData\Local\Temp\ccWMHy5f.s 			page 52


 2022 0004 0400     		.2byte	0x4
 2023 0006 00000000 		.4byte	.Ldebug_abbrev0
 2024 000a 04       		.byte	0x4
 2025 000b 01       		.uleb128 0x1
 2026 000c D6150000 		.4byte	.LASF755
 2027 0010 01       		.byte	0x1
 2028 0011 D0240000 		.4byte	.LASF756
 2029 0015 D30C0000 		.4byte	.LASF757
 2030 0019 48000000 		.4byte	.Ldebug_ranges0+0x48
 2031 001d 00000000 		.4byte	0
 2032 0021 00000000 		.4byte	.Ldebug_line0
 2033 0025 02       		.uleb128 0x2
 2034 0026 04       		.byte	0x4
 2035 0027 05       		.byte	0x5
 2036 0028 696E7400 		.ascii	"int\000"
 2037 002c 03       		.uleb128 0x3
 2038 002d 9C000000 		.4byte	.LASF11
 2039 0031 02       		.byte	0x2
 2040 0032 D4       		.byte	0xd4
 2041 0033 37000000 		.4byte	0x37
 2042 0037 04       		.uleb128 0x4
 2043 0038 04       		.byte	0x4
 2044 0039 07       		.byte	0x7
 2045 003a F11C0000 		.4byte	.LASF0
 2046 003e 04       		.uleb128 0x4
 2047 003f 01       		.byte	0x1
 2048 0040 06       		.byte	0x6
 2049 0041 CB2B0000 		.4byte	.LASF1
 2050 0045 04       		.uleb128 0x4
 2051 0046 01       		.byte	0x1
 2052 0047 08       		.byte	0x8
 2053 0048 EE1F0000 		.4byte	.LASF2
 2054 004c 04       		.uleb128 0x4
 2055 004d 02       		.byte	0x2
 2056 004e 05       		.byte	0x5
 2057 004f 0A290000 		.4byte	.LASF3
 2058 0053 04       		.uleb128 0x4
 2059 0054 02       		.byte	0x2
 2060 0055 07       		.byte	0x7
 2061 0056 E52E0000 		.4byte	.LASF4
 2062 005a 04       		.uleb128 0x4
 2063 005b 04       		.byte	0x4
 2064 005c 05       		.byte	0x5
 2065 005d 01080000 		.4byte	.LASF5
 2066 0061 04       		.uleb128 0x4
 2067 0062 04       		.byte	0x4
 2068 0063 07       		.byte	0x7
 2069 0064 07150000 		.4byte	.LASF6
 2070 0068 04       		.uleb128 0x4
 2071 0069 08       		.byte	0x8
 2072 006a 05       		.byte	0x5
 2073 006b 98190000 		.4byte	.LASF7
 2074 006f 04       		.uleb128 0x4
 2075 0070 08       		.byte	0x8
 2076 0071 07       		.byte	0x7
 2077 0072 6A2D0000 		.4byte	.LASF8
 2078 0076 04       		.uleb128 0x4
ARM GAS  C:\Users\AHMED~1.ELE\AppData\Local\Temp\ccWMHy5f.s 			page 53


 2079 0077 04       		.byte	0x4
 2080 0078 07       		.byte	0x7
 2081 0079 B3000000 		.4byte	.LASF9
 2082 007d 05       		.uleb128 0x5
 2083 007e 04       		.byte	0x4
 2084 007f 06       		.uleb128 0x6
 2085 0080 04       		.byte	0x4
 2086 0081 85000000 		.4byte	0x85
 2087 0085 04       		.uleb128 0x4
 2088 0086 01       		.byte	0x1
 2089 0087 06       		.byte	0x6
 2090 0088 3E000000 		.4byte	.LASF10
 2091 008c 06       		.uleb128 0x6
 2092 008d 04       		.byte	0x4
 2093 008e 92000000 		.4byte	0x92
 2094 0092 07       		.uleb128 0x7
 2095 0093 85000000 		.4byte	0x85
 2096 0097 03       		.uleb128 0x3
 2097 0098 800F0000 		.4byte	.LASF12
 2098 009c 03       		.byte	0x3
 2099 009d 0D       		.byte	0xd
 2100 009e 45000000 		.4byte	0x45
 2101 00a2 03       		.uleb128 0x3
 2102 00a3 99060000 		.4byte	.LASF13
 2103 00a7 03       		.byte	0x3
 2104 00a8 0E       		.byte	0xe
 2105 00a9 45000000 		.4byte	0x45
 2106 00ad 03       		.uleb128 0x3
 2107 00ae C21F0000 		.4byte	.LASF14
 2108 00b2 03       		.byte	0x3
 2109 00b3 0F       		.byte	0xf
 2110 00b4 53000000 		.4byte	0x53
 2111 00b8 03       		.uleb128 0x3
 2112 00b9 062E0000 		.4byte	.LASF15
 2113 00bd 03       		.byte	0x3
 2114 00be 10       		.byte	0x10
 2115 00bf 37000000 		.4byte	0x37
 2116 00c3 06       		.uleb128 0x6
 2117 00c4 04       		.byte	0x4
 2118 00c5 C9000000 		.4byte	0xc9
 2119 00c9 07       		.uleb128 0x7
 2120 00ca A2000000 		.4byte	0xa2
 2121 00ce 06       		.uleb128 0x6
 2122 00cf 04       		.byte	0x4
 2123 00d0 A2000000 		.4byte	0xa2
 2124 00d4 08       		.uleb128 0x8
 2125 00d5 A2000000 		.4byte	0xa2
 2126 00d9 E4000000 		.4byte	0xe4
 2127 00dd 09       		.uleb128 0x9
 2128 00de 76000000 		.4byte	0x76
 2129 00e2 1F       		.byte	0x1f
 2130 00e3 00       		.byte	0
 2131 00e4 08       		.uleb128 0x8
 2132 00e5 A2000000 		.4byte	0xa2
 2133 00e9 F4000000 		.4byte	0xf4
 2134 00ed 09       		.uleb128 0x9
 2135 00ee 76000000 		.4byte	0x76
ARM GAS  C:\Users\AHMED~1.ELE\AppData\Local\Temp\ccWMHy5f.s 			page 54


 2136 00f2 07       		.byte	0x7
 2137 00f3 00       		.byte	0
 2138 00f4 0A       		.uleb128 0xa
 2139 00f5 72130000 		.4byte	.LASF758
 2140 00f9 02       		.byte	0x2
 2141 00fa 04       		.byte	0x4
 2142 00fb 9A04     		.2byte	0x49a
 2143 00fd B10D0000 		.4byte	0xdb1
 2144 0101 0B       		.uleb128 0xb
 2145 0102 CF300000 		.4byte	.LASF16
 2146 0106 00       		.sleb128 0
 2147 0107 0B       		.uleb128 0xb
 2148 0108 5D150000 		.4byte	.LASF17
 2149 010c 01       		.sleb128 1
 2150 010d 0B       		.uleb128 0xb
 2151 010e 1A190000 		.4byte	.LASF18
 2152 0112 02       		.sleb128 2
 2153 0113 0B       		.uleb128 0xb
 2154 0114 9D0B0000 		.4byte	.LASF19
 2155 0118 03       		.sleb128 3
 2156 0119 0B       		.uleb128 0xb
 2157 011a 4D300000 		.4byte	.LASF20
 2158 011e 04       		.sleb128 4
 2159 011f 0B       		.uleb128 0xb
 2160 0120 EB200000 		.4byte	.LASF21
 2161 0124 05       		.sleb128 5
 2162 0125 0B       		.uleb128 0xb
 2163 0126 C80E0000 		.4byte	.LASF22
 2164 012a 06       		.sleb128 6
 2165 012b 0B       		.uleb128 0xb
 2166 012c 15230000 		.4byte	.LASF23
 2167 0130 07       		.sleb128 7
 2168 0131 0B       		.uleb128 0xb
 2169 0132 0A170000 		.4byte	.LASF24
 2170 0136 08       		.sleb128 8
 2171 0137 0B       		.uleb128 0xb
 2172 0138 EE2C0000 		.4byte	.LASF25
 2173 013c 09       		.sleb128 9
 2174 013d 0B       		.uleb128 0xb
 2175 013e 88060000 		.4byte	.LASF26
 2176 0142 0A       		.sleb128 10
 2177 0143 0B       		.uleb128 0xb
 2178 0144 3A260000 		.4byte	.LASF27
 2179 0148 0B       		.sleb128 11
 2180 0149 0B       		.uleb128 0xb
 2181 014a EA020000 		.4byte	.LASF28
 2182 014e 0C       		.sleb128 12
 2183 014f 0B       		.uleb128 0xb
 2184 0150 07210000 		.4byte	.LASF29
 2185 0154 0D       		.sleb128 13
 2186 0155 0B       		.uleb128 0xb
 2187 0156 480D0000 		.4byte	.LASF30
 2188 015a 0E       		.sleb128 14
 2189 015b 0B       		.uleb128 0xb
 2190 015c 2C310000 		.4byte	.LASF31
 2191 0160 0F       		.sleb128 15
 2192 0161 0B       		.uleb128 0xb
ARM GAS  C:\Users\AHMED~1.ELE\AppData\Local\Temp\ccWMHy5f.s 			page 55


 2193 0162 B7180000 		.4byte	.LASF32
 2194 0166 10       		.sleb128 16
 2195 0167 0B       		.uleb128 0xb
 2196 0168 B8260000 		.4byte	.LASF33
 2197 016c 11       		.sleb128 17
 2198 016d 0B       		.uleb128 0xb
 2199 016e 00110000 		.4byte	.LASF34
 2200 0172 12       		.sleb128 18
 2201 0173 0B       		.uleb128 0xb
 2202 0174 EF260000 		.4byte	.LASF35
 2203 0178 13       		.sleb128 19
 2204 0179 0B       		.uleb128 0xb
 2205 017a C4090000 		.4byte	.LASF36
 2206 017e 14       		.sleb128 20
 2207 017f 0B       		.uleb128 0xb
 2208 0180 A6190000 		.4byte	.LASF37
 2209 0184 15       		.sleb128 21
 2210 0185 0B       		.uleb128 0xb
 2211 0186 D4090000 		.4byte	.LASF38
 2212 018a 16       		.sleb128 22
 2213 018b 0B       		.uleb128 0xb
 2214 018c 840A0000 		.4byte	.LASF39
 2215 0190 17       		.sleb128 23
 2216 0191 0B       		.uleb128 0xb
 2217 0192 2C0A0000 		.4byte	.LASF40
 2218 0196 18       		.sleb128 24
 2219 0197 0B       		.uleb128 0xb
 2220 0198 37200000 		.4byte	.LASF41
 2221 019c 19       		.sleb128 25
 2222 019d 0B       		.uleb128 0xb
 2223 019e F8090000 		.4byte	.LASF42
 2224 01a2 1A       		.sleb128 26
 2225 01a3 0B       		.uleb128 0xb
 2226 01a4 570A0000 		.4byte	.LASF43
 2227 01a8 1B       		.sleb128 27
 2228 01a9 0B       		.uleb128 0xb
 2229 01aa 2A150000 		.4byte	.LASF44
 2230 01ae 1C       		.sleb128 28
 2231 01af 0B       		.uleb128 0xb
 2232 01b0 A81C0000 		.4byte	.LASF45
 2233 01b4 1D       		.sleb128 29
 2234 01b5 0B       		.uleb128 0xb
 2235 01b6 5F310000 		.4byte	.LASF46
 2236 01ba 1E       		.sleb128 30
 2237 01bb 0B       		.uleb128 0xb
 2238 01bc 14090000 		.4byte	.LASF47
 2239 01c0 1F       		.sleb128 31
 2240 01c1 0B       		.uleb128 0xb
 2241 01c2 19150000 		.4byte	.LASF48
 2242 01c6 20       		.sleb128 32
 2243 01c7 0B       		.uleb128 0xb
 2244 01c8 E3030000 		.4byte	.LASF49
 2245 01cc 21       		.sleb128 33
 2246 01cd 0B       		.uleb128 0xb
 2247 01ce AC1F0000 		.4byte	.LASF50
 2248 01d2 22       		.sleb128 34
 2249 01d3 0B       		.uleb128 0xb
ARM GAS  C:\Users\AHMED~1.ELE\AppData\Local\Temp\ccWMHy5f.s 			page 56


 2250 01d4 C91A0000 		.4byte	.LASF51
 2251 01d8 23       		.sleb128 35
 2252 01d9 0B       		.uleb128 0xb
 2253 01da D50B0000 		.4byte	.LASF52
 2254 01de 24       		.sleb128 36
 2255 01df 0B       		.uleb128 0xb
 2256 01e0 F5110000 		.4byte	.LASF53
 2257 01e4 25       		.sleb128 37
 2258 01e5 0B       		.uleb128 0xb
 2259 01e6 9B2B0000 		.4byte	.LASF54
 2260 01ea 26       		.sleb128 38
 2261 01eb 0B       		.uleb128 0xb
 2262 01ec 361B0000 		.4byte	.LASF55
 2263 01f0 27       		.sleb128 39
 2264 01f1 0B       		.uleb128 0xb
 2265 01f2 2F080000 		.4byte	.LASF56
 2266 01f6 28       		.sleb128 40
 2267 01f7 0B       		.uleb128 0xb
 2268 01f8 E1220000 		.4byte	.LASF57
 2269 01fc 29       		.sleb128 41
 2270 01fd 0B       		.uleb128 0xb
 2271 01fe 941B0000 		.4byte	.LASF58
 2272 0202 2A       		.sleb128 42
 2273 0203 0B       		.uleb128 0xb
 2274 0204 121C0000 		.4byte	.LASF59
 2275 0208 2B       		.sleb128 43
 2276 0209 0B       		.uleb128 0xb
 2277 020a E20F0000 		.4byte	.LASF60
 2278 020e 2C       		.sleb128 44
 2279 020f 0B       		.uleb128 0xb
 2280 0210 B50C0000 		.4byte	.LASF61
 2281 0214 2D       		.sleb128 45
 2282 0215 0B       		.uleb128 0xb
 2283 0216 0C2C0000 		.4byte	.LASF62
 2284 021a 2E       		.sleb128 46
 2285 021b 0B       		.uleb128 0xb
 2286 021c 562F0000 		.4byte	.LASF63
 2287 0220 2F       		.sleb128 47
 2288 0221 0B       		.uleb128 0xb
 2289 0222 80290000 		.4byte	.LASF64
 2290 0226 30       		.sleb128 48
 2291 0227 0B       		.uleb128 0xb
 2292 0228 EC040000 		.4byte	.LASF65
 2293 022c 31       		.sleb128 49
 2294 022d 0B       		.uleb128 0xb
 2295 022e 39250000 		.4byte	.LASF66
 2296 0232 32       		.sleb128 50
 2297 0233 0B       		.uleb128 0xb
 2298 0234 C82D0000 		.4byte	.LASF67
 2299 0238 33       		.sleb128 51
 2300 0239 0B       		.uleb128 0xb
 2301 023a A5170000 		.4byte	.LASF68
 2302 023e 34       		.sleb128 52
 2303 023f 0B       		.uleb128 0xb
 2304 0240 2F0D0000 		.4byte	.LASF69
 2305 0244 35       		.sleb128 53
 2306 0245 0B       		.uleb128 0xb
ARM GAS  C:\Users\AHMED~1.ELE\AppData\Local\Temp\ccWMHy5f.s 			page 57


 2307 0246 B3050000 		.4byte	.LASF70
 2308 024a 36       		.sleb128 54
 2309 024b 0B       		.uleb128 0xb
 2310 024c E0190000 		.4byte	.LASF71
 2311 0250 37       		.sleb128 55
 2312 0251 0B       		.uleb128 0xb
 2313 0252 86310000 		.4byte	.LASF72
 2314 0256 38       		.sleb128 56
 2315 0257 0B       		.uleb128 0xb
 2316 0258 632E0000 		.4byte	.LASF73
 2317 025c 39       		.sleb128 57
 2318 025d 0B       		.uleb128 0xb
 2319 025e A0240000 		.4byte	.LASF74
 2320 0262 3A       		.sleb128 58
 2321 0263 0B       		.uleb128 0xb
 2322 0264 BE040000 		.4byte	.LASF75
 2323 0268 3B       		.sleb128 59
 2324 0269 0B       		.uleb128 0xb
 2325 026a ED2F0000 		.4byte	.LASF76
 2326 026e 3C       		.sleb128 60
 2327 026f 0B       		.uleb128 0xb
 2328 0270 57070000 		.4byte	.LASF77
 2329 0274 3D       		.sleb128 61
 2330 0275 0B       		.uleb128 0xb
 2331 0276 362C0000 		.4byte	.LASF78
 2332 027a 3E       		.sleb128 62
 2333 027b 0B       		.uleb128 0xb
 2334 027c 9B280000 		.4byte	.LASF79
 2335 0280 3F       		.sleb128 63
 2336 0281 0B       		.uleb128 0xb
 2337 0282 E7280000 		.4byte	.LASF80
 2338 0286 C000     		.sleb128 64
 2339 0288 0B       		.uleb128 0xb
 2340 0289 CA010000 		.4byte	.LASF81
 2341 028d C100     		.sleb128 65
 2342 028f 0B       		.uleb128 0xb
 2343 0290 A4300000 		.4byte	.LASF82
 2344 0294 C200     		.sleb128 66
 2345 0296 0B       		.uleb128 0xb
 2346 0297 871B0000 		.4byte	.LASF83
 2347 029b C300     		.sleb128 67
 2348 029d 0B       		.uleb128 0xb
 2349 029e BA220000 		.4byte	.LASF84
 2350 02a2 C400     		.sleb128 68
 2351 02a4 0B       		.uleb128 0xb
 2352 02a5 880F0000 		.4byte	.LASF85
 2353 02a9 C500     		.sleb128 69
 2354 02ab 0B       		.uleb128 0xb
 2355 02ac 29140000 		.4byte	.LASF86
 2356 02b0 C600     		.sleb128 70
 2357 02b2 0B       		.uleb128 0xb
 2358 02b3 81240000 		.4byte	.LASF87
 2359 02b7 C700     		.sleb128 71
 2360 02b9 0B       		.uleb128 0xb
 2361 02ba A2110000 		.4byte	.LASF88
 2362 02be C800     		.sleb128 72
 2363 02c0 0B       		.uleb128 0xb
ARM GAS  C:\Users\AHMED~1.ELE\AppData\Local\Temp\ccWMHy5f.s 			page 58


 2364 02c1 2A1E0000 		.4byte	.LASF89
 2365 02c5 C900     		.sleb128 73
 2366 02c7 0B       		.uleb128 0xb
 2367 02c8 BC2E0000 		.4byte	.LASF90
 2368 02cc CA00     		.sleb128 74
 2369 02ce 0B       		.uleb128 0xb
 2370 02cf 892F0000 		.4byte	.LASF91
 2371 02d3 CB00     		.sleb128 75
 2372 02d5 0B       		.uleb128 0xb
 2373 02d6 D3060000 		.4byte	.LASF92
 2374 02da CC00     		.sleb128 76
 2375 02dc 0B       		.uleb128 0xb
 2376 02dd 031E0000 		.4byte	.LASF93
 2377 02e1 CD00     		.sleb128 77
 2378 02e3 0B       		.uleb128 0xb
 2379 02e4 3B050000 		.4byte	.LASF94
 2380 02e8 CE00     		.sleb128 78
 2381 02ea 0B       		.uleb128 0xb
 2382 02eb 62060000 		.4byte	.LASF95
 2383 02ef CF00     		.sleb128 79
 2384 02f1 0B       		.uleb128 0xb
 2385 02f2 441D0000 		.4byte	.LASF96
 2386 02f6 D000     		.sleb128 80
 2387 02f8 0B       		.uleb128 0xb
 2388 02f9 6E270000 		.4byte	.LASF97
 2389 02fd D100     		.sleb128 81
 2390 02ff 0B       		.uleb128 0xb
 2391 0300 B71B0000 		.4byte	.LASF98
 2392 0304 D200     		.sleb128 82
 2393 0306 0B       		.uleb128 0xb
 2394 0307 69110000 		.4byte	.LASF99
 2395 030b D300     		.sleb128 83
 2396 030d 0B       		.uleb128 0xb
 2397 030e 12280000 		.4byte	.LASF100
 2398 0312 D400     		.sleb128 84
 2399 0314 0B       		.uleb128 0xb
 2400 0315 95220000 		.4byte	.LASF101
 2401 0319 D500     		.sleb128 85
 2402 031b 0B       		.uleb128 0xb
 2403 031c F1050000 		.4byte	.LASF102
 2404 0320 D600     		.sleb128 86
 2405 0322 0B       		.uleb128 0xb
 2406 0323 6E2F0000 		.4byte	.LASF103
 2407 0327 D700     		.sleb128 87
 2408 0329 0B       		.uleb128 0xb
 2409 032a 71260000 		.4byte	.LASF104
 2410 032e D800     		.sleb128 88
 2411 0330 0B       		.uleb128 0xb
 2412 0331 14290000 		.4byte	.LASF105
 2413 0335 D900     		.sleb128 89
 2414 0337 0B       		.uleb128 0xb
 2415 0338 8F240000 		.4byte	.LASF106
 2416 033c DA00     		.sleb128 90
 2417 033e 0B       		.uleb128 0xb
 2418 033f 32220000 		.4byte	.LASF107
 2419 0343 DB00     		.sleb128 91
 2420 0345 0B       		.uleb128 0xb
ARM GAS  C:\Users\AHMED~1.ELE\AppData\Local\Temp\ccWMHy5f.s 			page 59


 2421 0346 C4080000 		.4byte	.LASF108
 2422 034a DC00     		.sleb128 92
 2423 034c 0B       		.uleb128 0xb
 2424 034d A6040000 		.4byte	.LASF109
 2425 0351 DD00     		.sleb128 93
 2426 0353 0B       		.uleb128 0xb
 2427 0354 3F060000 		.4byte	.LASF110
 2428 0358 DE00     		.sleb128 94
 2429 035a 0B       		.uleb128 0xb
 2430 035b 60080000 		.4byte	.LASF111
 2431 035f DF00     		.sleb128 95
 2432 0361 0B       		.uleb128 0xb
 2433 0362 761A0000 		.4byte	.LASF112
 2434 0366 E000     		.sleb128 96
 2435 0368 0B       		.uleb128 0xb
 2436 0369 732A0000 		.4byte	.LASF113
 2437 036d E100     		.sleb128 97
 2438 036f 0B       		.uleb128 0xb
 2439 0370 112A0000 		.4byte	.LASF114
 2440 0374 E200     		.sleb128 98
 2441 0376 0B       		.uleb128 0xb
 2442 0377 670E0000 		.4byte	.LASF115
 2443 037b E300     		.sleb128 99
 2444 037d 0B       		.uleb128 0xb
 2445 037e 892B0000 		.4byte	.LASF116
 2446 0382 E400     		.sleb128 100
 2447 0384 0B       		.uleb128 0xb
 2448 0385 561F0000 		.4byte	.LASF117
 2449 0389 E500     		.sleb128 101
 2450 038b 0B       		.uleb128 0xb
 2451 038c 06020000 		.4byte	.LASF118
 2452 0390 E600     		.sleb128 102
 2453 0392 0B       		.uleb128 0xb
 2454 0393 B8060000 		.4byte	.LASF119
 2455 0397 E700     		.sleb128 103
 2456 0399 0B       		.uleb128 0xb
 2457 039a DB180000 		.4byte	.LASF120
 2458 039e E800     		.sleb128 104
 2459 03a0 0B       		.uleb128 0xb
 2460 03a1 7A060000 		.4byte	.LASF121
 2461 03a5 E900     		.sleb128 105
 2462 03a7 0B       		.uleb128 0xb
 2463 03a8 0B140000 		.4byte	.LASF122
 2464 03ac EA00     		.sleb128 106
 2465 03ae 0B       		.uleb128 0xb
 2466 03af 632A0000 		.4byte	.LASF123
 2467 03b3 EB00     		.sleb128 107
 2468 03b5 0B       		.uleb128 0xb
 2469 03b6 AB280000 		.4byte	.LASF124
 2470 03ba EC00     		.sleb128 108
 2471 03bc 0B       		.uleb128 0xb
 2472 03bd 521C0000 		.4byte	.LASF125
 2473 03c1 ED00     		.sleb128 109
 2474 03c3 0B       		.uleb128 0xb
 2475 03c4 B60B0000 		.4byte	.LASF126
 2476 03c8 EE00     		.sleb128 110
 2477 03ca 0B       		.uleb128 0xb
ARM GAS  C:\Users\AHMED~1.ELE\AppData\Local\Temp\ccWMHy5f.s 			page 60


 2478 03cb F11D0000 		.4byte	.LASF127
 2479 03cf EF00     		.sleb128 111
 2480 03d1 0B       		.uleb128 0xb
 2481 03d2 73180000 		.4byte	.LASF128
 2482 03d6 F000     		.sleb128 112
 2483 03d8 0B       		.uleb128 0xb
 2484 03d9 67040000 		.4byte	.LASF129
 2485 03dd F100     		.sleb128 113
 2486 03df 0B       		.uleb128 0xb
 2487 03e0 E31E0000 		.4byte	.LASF130
 2488 03e4 F200     		.sleb128 114
 2489 03e6 0B       		.uleb128 0xb
 2490 03e7 6A240000 		.4byte	.LASF131
 2491 03eb F300     		.sleb128 115
 2492 03ed 0B       		.uleb128 0xb
 2493 03ee 080A0000 		.4byte	.LASF132
 2494 03f2 F400     		.sleb128 116
 2495 03f4 0B       		.uleb128 0xb
 2496 03f5 512B0000 		.4byte	.LASF133
 2497 03f9 F500     		.sleb128 117
 2498 03fb 0B       		.uleb128 0xb
 2499 03fc 1E2C0000 		.4byte	.LASF134
 2500 0400 F600     		.sleb128 118
 2501 0402 0B       		.uleb128 0xb
 2502 0403 C50C0000 		.4byte	.LASF135
 2503 0407 F700     		.sleb128 119
 2504 0409 0B       		.uleb128 0xb
 2505 040a 310C0000 		.4byte	.LASF136
 2506 040e F800     		.sleb128 120
 2507 0410 0B       		.uleb128 0xb
 2508 0411 1D0E0000 		.4byte	.LASF137
 2509 0415 F900     		.sleb128 121
 2510 0417 0B       		.uleb128 0xb
 2511 0418 F82E0000 		.4byte	.LASF138
 2512 041c FA00     		.sleb128 122
 2513 041e 0B       		.uleb128 0xb
 2514 041f CD100000 		.4byte	.LASF139
 2515 0423 FB00     		.sleb128 123
 2516 0425 0B       		.uleb128 0xb
 2517 0426 B6170000 		.4byte	.LASF140
 2518 042a FC00     		.sleb128 124
 2519 042c 0B       		.uleb128 0xb
 2520 042d C3280000 		.4byte	.LASF141
 2521 0431 FD00     		.sleb128 125
 2522 0433 0B       		.uleb128 0xb
 2523 0434 580B0000 		.4byte	.LASF142
 2524 0438 FE00     		.sleb128 126
 2525 043a 0B       		.uleb128 0xb
 2526 043b 2A090000 		.4byte	.LASF143
 2527 043f FF00     		.sleb128 127
 2528 0441 0B       		.uleb128 0xb
 2529 0442 98270000 		.4byte	.LASF144
 2530 0446 8001     		.sleb128 128
 2531 0448 0B       		.uleb128 0xb
 2532 0449 16080000 		.4byte	.LASF145
 2533 044d 8101     		.sleb128 129
 2534 044f 0B       		.uleb128 0xb
ARM GAS  C:\Users\AHMED~1.ELE\AppData\Local\Temp\ccWMHy5f.s 			page 61


 2535 0450 29030000 		.4byte	.LASF146
 2536 0454 8201     		.sleb128 130
 2537 0456 0B       		.uleb128 0xb
 2538 0457 EC210000 		.4byte	.LASF147
 2539 045b 8301     		.sleb128 131
 2540 045d 0B       		.uleb128 0xb
 2541 045e 4C260000 		.4byte	.LASF148
 2542 0462 8401     		.sleb128 132
 2543 0464 0B       		.uleb128 0xb
 2544 0465 F1100000 		.4byte	.LASF149
 2545 0469 8501     		.sleb128 133
 2546 046b 0B       		.uleb128 0xb
 2547 046c AF2F0000 		.4byte	.LASF150
 2548 0470 8601     		.sleb128 134
 2549 0472 0B       		.uleb128 0xb
 2550 0473 1E0D0000 		.4byte	.LASF151
 2551 0477 8701     		.sleb128 135
 2552 0479 0B       		.uleb128 0xb
 2553 047a 3D170000 		.4byte	.LASF152
 2554 047e 8801     		.sleb128 136
 2555 0480 0B       		.uleb128 0xb
 2556 0481 31110000 		.4byte	.LASF153
 2557 0485 8901     		.sleb128 137
 2558 0487 0B       		.uleb128 0xb
 2559 0488 FE0A0000 		.4byte	.LASF154
 2560 048c 8A01     		.sleb128 138
 2561 048e 0B       		.uleb128 0xb
 2562 048f 39270000 		.4byte	.LASF155
 2563 0493 8B01     		.sleb128 139
 2564 0495 0B       		.uleb128 0xb
 2565 0496 5F2D0000 		.4byte	.LASF156
 2566 049a 8C01     		.sleb128 140
 2567 049c 0B       		.uleb128 0xb
 2568 049d 101B0000 		.4byte	.LASF157
 2569 04a1 8D01     		.sleb128 141
 2570 04a3 0B       		.uleb128 0xb
 2571 04a4 7F220000 		.4byte	.LASF158
 2572 04a8 8E01     		.sleb128 142
 2573 04aa 0B       		.uleb128 0xb
 2574 04ab 30100000 		.4byte	.LASF159
 2575 04af 8F01     		.sleb128 143
 2576 04b1 0B       		.uleb128 0xb
 2577 04b2 13100000 		.4byte	.LASF160
 2578 04b6 9001     		.sleb128 144
 2579 04b8 0B       		.uleb128 0xb
 2580 04b9 982C0000 		.4byte	.LASF161
 2581 04bd 9101     		.sleb128 145
 2582 04bf 0B       		.uleb128 0xb
 2583 04c0 52210000 		.4byte	.LASF162
 2584 04c4 9201     		.sleb128 146
 2585 04c6 0B       		.uleb128 0xb
 2586 04c7 BC2A0000 		.4byte	.LASF163
 2587 04cb 9301     		.sleb128 147
 2588 04cd 0B       		.uleb128 0xb
 2589 04ce 56190000 		.4byte	.LASF164
 2590 04d2 9401     		.sleb128 148
 2591 04d4 0B       		.uleb128 0xb
ARM GAS  C:\Users\AHMED~1.ELE\AppData\Local\Temp\ccWMHy5f.s 			page 62


 2592 04d5 DA000000 		.4byte	.LASF165
 2593 04d9 9501     		.sleb128 149
 2594 04db 0B       		.uleb128 0xb
 2595 04dc 210B0000 		.4byte	.LASF166
 2596 04e0 9601     		.sleb128 150
 2597 04e2 0B       		.uleb128 0xb
 2598 04e3 1D120000 		.4byte	.LASF167
 2599 04e7 9701     		.sleb128 151
 2600 04e9 0B       		.uleb128 0xb
 2601 04ea 45190000 		.4byte	.LASF168
 2602 04ee 9801     		.sleb128 152
 2603 04f0 0B       		.uleb128 0xb
 2604 04f1 DB010000 		.4byte	.LASF169
 2605 04f5 9901     		.sleb128 153
 2606 04f7 0B       		.uleb128 0xb
 2607 04f8 231C0000 		.4byte	.LASF170
 2608 04fc 9A01     		.sleb128 154
 2609 04fe 0B       		.uleb128 0xb
 2610 04ff DA210000 		.4byte	.LASF171
 2611 0503 9B01     		.sleb128 155
 2612 0505 0B       		.uleb128 0xb
 2613 0506 3C310000 		.4byte	.LASF172
 2614 050a 9C01     		.sleb128 156
 2615 050c 0B       		.uleb128 0xb
 2616 050d A3000000 		.4byte	.LASF173
 2617 0511 9D01     		.sleb128 157
 2618 0513 0B       		.uleb128 0xb
 2619 0514 DB120000 		.4byte	.LASF174
 2620 0518 9E01     		.sleb128 158
 2621 051a 0B       		.uleb128 0xb
 2622 051b 430C0000 		.4byte	.LASF175
 2623 051f 9F01     		.sleb128 159
 2624 0521 0B       		.uleb128 0xb
 2625 0522 310B0000 		.4byte	.LASF176
 2626 0526 A001     		.sleb128 160
 2627 0528 0B       		.uleb128 0xb
 2628 0529 E8230000 		.4byte	.LASF177
 2629 052d A101     		.sleb128 161
 2630 052f 0B       		.uleb128 0xb
 2631 0530 1F210000 		.4byte	.LASF178
 2632 0534 A201     		.sleb128 162
 2633 0536 0B       		.uleb128 0xb
 2634 0537 53050000 		.4byte	.LASF179
 2635 053b A301     		.sleb128 163
 2636 053d 0B       		.uleb128 0xb
 2637 053e BD230000 		.4byte	.LASF180
 2638 0542 A401     		.sleb128 164
 2639 0544 0B       		.uleb128 0xb
 2640 0545 4E090000 		.4byte	.LASF181
 2641 0549 A501     		.sleb128 165
 2642 054b 0B       		.uleb128 0xb
 2643 054c C0020000 		.4byte	.LASF182
 2644 0550 A601     		.sleb128 166
 2645 0552 0B       		.uleb128 0xb
 2646 0553 381E0000 		.4byte	.LASF183
 2647 0557 A701     		.sleb128 167
 2648 0559 0B       		.uleb128 0xb
ARM GAS  C:\Users\AHMED~1.ELE\AppData\Local\Temp\ccWMHy5f.s 			page 63


 2649 055a 941C0000 		.4byte	.LASF184
 2650 055e A801     		.sleb128 168
 2651 0560 0B       		.uleb128 0xb
 2652 0561 2B060000 		.4byte	.LASF185
 2653 0565 A901     		.sleb128 169
 2654 0567 0B       		.uleb128 0xb
 2655 0568 D12E0000 		.4byte	.LASF186
 2656 056c AA01     		.sleb128 170
 2657 056e 0B       		.uleb128 0xb
 2658 056f C9200000 		.4byte	.LASF187
 2659 0573 AB01     		.sleb128 171
 2660 0575 0B       		.uleb128 0xb
 2661 0576 842C0000 		.4byte	.LASF188
 2662 057a AC01     		.sleb128 172
 2663 057c 0B       		.uleb128 0xb
 2664 057d 4D040000 		.4byte	.LASF189
 2665 0581 AD01     		.sleb128 173
 2666 0583 0B       		.uleb128 0xb
 2667 0584 82180000 		.4byte	.LASF190
 2668 0588 AE01     		.sleb128 174
 2669 058a 0B       		.uleb128 0xb
 2670 058b E5270000 		.4byte	.LASF191
 2671 058f AF01     		.sleb128 175
 2672 0591 0B       		.uleb128 0xb
 2673 0592 DA0D0000 		.4byte	.LASF192
 2674 0596 B001     		.sleb128 176
 2675 0598 0B       		.uleb128 0xb
 2676 0599 85000000 		.4byte	.LASF193
 2677 059d B101     		.sleb128 177
 2678 059f 0B       		.uleb128 0xb
 2679 05a0 A4180000 		.4byte	.LASF194
 2680 05a4 B201     		.sleb128 178
 2681 05a6 0B       		.uleb128 0xb
 2682 05a7 4E2D0000 		.4byte	.LASF195
 2683 05ab B301     		.sleb128 179
 2684 05ad 0B       		.uleb128 0xb
 2685 05ae F2060000 		.4byte	.LASF196
 2686 05b2 B401     		.sleb128 180
 2687 05b4 0B       		.uleb128 0xb
 2688 05b5 6C140000 		.4byte	.LASF197
 2689 05b9 B501     		.sleb128 181
 2690 05bb 0B       		.uleb128 0xb
 2691 05bc 7C070000 		.4byte	.LASF198
 2692 05c0 B601     		.sleb128 182
 2693 05c2 0B       		.uleb128 0xb
 2694 05c3 AC230000 		.4byte	.LASF199
 2695 05c7 B701     		.sleb128 183
 2696 05c9 0B       		.uleb128 0xb
 2697 05ca 730C0000 		.4byte	.LASF200
 2698 05ce B801     		.sleb128 184
 2699 05d0 0B       		.uleb128 0xb
 2700 05d1 940A0000 		.4byte	.LASF201
 2701 05d5 B901     		.sleb128 185
 2702 05d7 0B       		.uleb128 0xb
 2703 05d8 CA310000 		.4byte	.LASF202
 2704 05dc BA01     		.sleb128 186
 2705 05de 0B       		.uleb128 0xb
ARM GAS  C:\Users\AHMED~1.ELE\AppData\Local\Temp\ccWMHy5f.s 			page 64


 2706 05df AC270000 		.4byte	.LASF203
 2707 05e3 BB01     		.sleb128 187
 2708 05e5 0B       		.uleb128 0xb
 2709 05e6 C3050000 		.4byte	.LASF204
 2710 05ea BC01     		.sleb128 188
 2711 05ec 0B       		.uleb128 0xb
 2712 05ed 19140000 		.4byte	.LASF205
 2713 05f1 BD01     		.sleb128 189
 2714 05f3 0B       		.uleb128 0xb
 2715 05f4 6B050000 		.4byte	.LASF206
 2716 05f8 BE01     		.sleb128 190
 2717 05fa 0B       		.uleb128 0xb
 2718 05fb 26290000 		.4byte	.LASF207
 2719 05ff BF01     		.sleb128 191
 2720 0601 0B       		.uleb128 0xb
 2721 0602 5A100000 		.4byte	.LASF208
 2722 0606 C001     		.sleb128 192
 2723 0608 0B       		.uleb128 0xb
 2724 0609 2C2A0000 		.4byte	.LASF209
 2725 060d C101     		.sleb128 193
 2726 060f 0B       		.uleb128 0xb
 2727 0610 97180000 		.4byte	.LASF210
 2728 0614 C201     		.sleb128 194
 2729 0616 0B       		.uleb128 0xb
 2730 0617 831C0000 		.4byte	.LASF211
 2731 061b C301     		.sleb128 195
 2732 061d 0B       		.uleb128 0xb
 2733 061e 0B270000 		.4byte	.LASF212
 2734 0622 C401     		.sleb128 196
 2735 0624 0B       		.uleb128 0xb
 2736 0625 41230000 		.4byte	.LASF213
 2737 0629 C501     		.sleb128 197
 2738 062b 0B       		.uleb128 0xb
 2739 062c B52D0000 		.4byte	.LASF214
 2740 0630 C601     		.sleb128 198
 2741 0632 0B       		.uleb128 0xb
 2742 0633 DE2F0000 		.4byte	.LASF215
 2743 0637 C701     		.sleb128 199
 2744 0639 0B       		.uleb128 0xb
 2745 063a 681F0000 		.4byte	.LASF216
 2746 063e C801     		.sleb128 200
 2747 0640 0B       		.uleb128 0xb
 2748 0641 4D270000 		.4byte	.LASF217
 2749 0645 C901     		.sleb128 201
 2750 0647 0B       		.uleb128 0xb
 2751 0648 93200000 		.4byte	.LASF218
 2752 064c CA01     		.sleb128 202
 2753 064e 0B       		.uleb128 0xb
 2754 064f 802E0000 		.4byte	.LASF219
 2755 0653 CB01     		.sleb128 203
 2756 0655 0B       		.uleb128 0xb
 2757 0656 570E0000 		.4byte	.LASF220
 2758 065a CC01     		.sleb128 204
 2759 065c 0B       		.uleb128 0xb
 2760 065d 63250000 		.4byte	.LASF221
 2761 0661 CD01     		.sleb128 205
 2762 0663 0B       		.uleb128 0xb
ARM GAS  C:\Users\AHMED~1.ELE\AppData\Local\Temp\ccWMHy5f.s 			page 65


 2763 0664 D4030000 		.4byte	.LASF222
 2764 0668 CE01     		.sleb128 206
 2765 066a 0B       		.uleb128 0xb
 2766 066b F20F0000 		.4byte	.LASF223
 2767 066f CF01     		.sleb128 207
 2768 0671 0B       		.uleb128 0xb
 2769 0672 361F0000 		.4byte	.LASF224
 2770 0676 D001     		.sleb128 208
 2771 0678 0B       		.uleb128 0xb
 2772 0679 97130000 		.4byte	.LASF225
 2773 067d D101     		.sleb128 209
 2774 067f 0B       		.uleb128 0xb
 2775 0680 860D0000 		.4byte	.LASF226
 2776 0684 D201     		.sleb128 210
 2777 0686 0B       		.uleb128 0xb
 2778 0687 872D0000 		.4byte	.LASF227
 2779 068b D301     		.sleb128 211
 2780 068d 0B       		.uleb128 0xb
 2781 068e DF260000 		.4byte	.LASF228
 2782 0692 D401     		.sleb128 212
 2783 0694 0B       		.uleb128 0xb
 2784 0695 0D0E0000 		.4byte	.LASF229
 2785 0699 D501     		.sleb128 213
 2786 069b 0B       		.uleb128 0xb
 2787 069c 9E150000 		.4byte	.LASF230
 2788 06a0 D601     		.sleb128 214
 2789 06a2 0B       		.uleb128 0xb
 2790 06a3 4D120000 		.4byte	.LASF231
 2791 06a7 D701     		.sleb128 215
 2792 06a9 0B       		.uleb128 0xb
 2793 06aa 02100000 		.4byte	.LASF232
 2794 06ae D801     		.sleb128 216
 2795 06b0 0B       		.uleb128 0xb
 2796 06b1 0C2E0000 		.4byte	.LASF233
 2797 06b5 D901     		.sleb128 217
 2798 06b7 0B       		.uleb128 0xb
 2799 06b8 68150000 		.4byte	.LASF234
 2800 06bc DA01     		.sleb128 218
 2801 06be 0B       		.uleb128 0xb
 2802 06bf 12050000 		.4byte	.LASF235
 2803 06c3 DB01     		.sleb128 219
 2804 06c5 0B       		.uleb128 0xb
 2805 06c6 B2070000 		.4byte	.LASF236
 2806 06ca DC01     		.sleb128 220
 2807 06cc 0B       		.uleb128 0xb
 2808 06cd C02C0000 		.4byte	.LASF237
 2809 06d1 DD01     		.sleb128 221
 2810 06d3 0B       		.uleb128 0xb
 2811 06d4 A6140000 		.4byte	.LASF238
 2812 06d8 DE01     		.sleb128 222
 2813 06da 0B       		.uleb128 0xb
 2814 06db 2F120000 		.4byte	.LASF239
 2815 06df DF01     		.sleb128 223
 2816 06e1 0B       		.uleb128 0xb
 2817 06e2 E2130000 		.4byte	.LASF240
 2818 06e6 E001     		.sleb128 224
 2819 06e8 0B       		.uleb128 0xb
ARM GAS  C:\Users\AHMED~1.ELE\AppData\Local\Temp\ccWMHy5f.s 			page 66


 2820 06e9 3E120000 		.4byte	.LASF241
 2821 06ed E101     		.sleb128 225
 2822 06ef 0B       		.uleb128 0xb
 2823 06f0 FA160000 		.4byte	.LASF242
 2824 06f4 E201     		.sleb128 226
 2825 06f6 0B       		.uleb128 0xb
 2826 06f7 B81A0000 		.4byte	.LASF243
 2827 06fb E301     		.sleb128 227
 2828 06fd 0B       		.uleb128 0xb
 2829 06fe BA120000 		.4byte	.LASF244
 2830 0702 E401     		.sleb128 228
 2831 0704 0B       		.uleb128 0xb
 2832 0705 86100000 		.4byte	.LASF245
 2833 0709 E501     		.sleb128 229
 2834 070b 0B       		.uleb128 0xb
 2835 070c A51B0000 		.4byte	.LASF246
 2836 0710 E601     		.sleb128 230
 2837 0712 0B       		.uleb128 0xb
 2838 0713 E3140000 		.4byte	.LASF247
 2839 0717 E701     		.sleb128 231
 2840 0719 0B       		.uleb128 0xb
 2841 071a BE0A0000 		.4byte	.LASF248
 2842 071e E801     		.sleb128 232
 2843 0720 0B       		.uleb128 0xb
 2844 0721 23300000 		.4byte	.LASF249
 2845 0725 E901     		.sleb128 233
 2846 0727 0B       		.uleb128 0xb
 2847 0728 DB290000 		.4byte	.LASF250
 2848 072c EA01     		.sleb128 234
 2849 072e 0B       		.uleb128 0xb
 2850 072f F91E0000 		.4byte	.LASF251
 2851 0733 EB01     		.sleb128 235
 2852 0735 0B       		.uleb128 0xb
 2853 0736 A92A0000 		.4byte	.LASF252
 2854 073a EC01     		.sleb128 236
 2855 073c 0B       		.uleb128 0xb
 2856 073d 8A270000 		.4byte	.LASF253
 2857 0741 ED01     		.sleb128 237
 2858 0743 0B       		.uleb128 0xb
 2859 0744 E5060000 		.4byte	.LASF254
 2860 0748 EE01     		.sleb128 238
 2861 074a 0B       		.uleb128 0xb
 2862 074b 042B0000 		.4byte	.LASF255
 2863 074f EF01     		.sleb128 239
 2864 0751 0B       		.uleb128 0xb
 2865 0752 542E0000 		.4byte	.LASF256
 2866 0756 F001     		.sleb128 240
 2867 0758 0B       		.uleb128 0xb
 2868 0759 5F1E0000 		.4byte	.LASF257
 2869 075d F101     		.sleb128 241
 2870 075f 0B       		.uleb128 0xb
 2871 0760 861F0000 		.4byte	.LASF258
 2872 0764 F201     		.sleb128 242
 2873 0766 0B       		.uleb128 0xb
 2874 0767 951A0000 		.4byte	.LASF259
 2875 076b F301     		.sleb128 243
 2876 076d 0B       		.uleb128 0xb
ARM GAS  C:\Users\AHMED~1.ELE\AppData\Local\Temp\ccWMHy5f.s 			page 67


 2877 076e FF080000 		.4byte	.LASF260
 2878 0772 F401     		.sleb128 244
 2879 0774 0B       		.uleb128 0xb
 2880 0775 BD240000 		.4byte	.LASF261
 2881 0779 F501     		.sleb128 245
 2882 077b 0B       		.uleb128 0xb
 2883 077c 19250000 		.4byte	.LASF262
 2884 0780 F601     		.sleb128 246
 2885 0782 0B       		.uleb128 0xb
 2886 0783 FA0B0000 		.4byte	.LASF263
 2887 0787 F701     		.sleb128 247
 2888 0789 0B       		.uleb128 0xb
 2889 078a 801E0000 		.4byte	.LASF264
 2890 078e F801     		.sleb128 248
 2891 0790 0B       		.uleb128 0xb
 2892 0791 93140000 		.4byte	.LASF265
 2893 0795 F901     		.sleb128 249
 2894 0797 0B       		.uleb128 0xb
 2895 0798 D9200000 		.4byte	.LASF266
 2896 079c FA01     		.sleb128 250
 2897 079e 0B       		.uleb128 0xb
 2898 079f B9160000 		.4byte	.LASF267
 2899 07a3 FB01     		.sleb128 251
 2900 07a5 0B       		.uleb128 0xb
 2901 07a6 F8300000 		.4byte	.LASF268
 2902 07aa FC01     		.sleb128 252
 2903 07ac 0B       		.uleb128 0xb
 2904 07ad BE100000 		.4byte	.LASF269
 2905 07b1 FD01     		.sleb128 253
 2906 07b3 0B       		.uleb128 0xb
 2907 07b4 AD2E0000 		.4byte	.LASF270
 2908 07b8 FE01     		.sleb128 254
 2909 07ba 0B       		.uleb128 0xb
 2910 07bb B1130000 		.4byte	.LASF271
 2911 07bf FF01     		.sleb128 255
 2912 07c1 0B       		.uleb128 0xb
 2913 07c2 F52D0000 		.4byte	.LASF272
 2914 07c6 8002     		.sleb128 256
 2915 07c8 0B       		.uleb128 0xb
 2916 07c9 C8160000 		.4byte	.LASF273
 2917 07cd 8102     		.sleb128 257
 2918 07cf 0B       		.uleb128 0xb
 2919 07d0 46220000 		.4byte	.LASF274
 2920 07d4 8202     		.sleb128 258
 2921 07d6 0B       		.uleb128 0xb
 2922 07d7 60260000 		.4byte	.LASF275
 2923 07db 8302     		.sleb128 259
 2924 07dd 0B       		.uleb128 0xb
 2925 07de 8C0E0000 		.4byte	.LASF276
 2926 07e2 8402     		.sleb128 260
 2927 07e4 0B       		.uleb128 0xb
 2928 07e5 D1130000 		.4byte	.LASF277
 2929 07e9 8502     		.sleb128 261
 2930 07eb 0B       		.uleb128 0xb
 2931 07ec AE030000 		.4byte	.LASF278
 2932 07f0 8602     		.sleb128 262
 2933 07f2 0B       		.uleb128 0xb
ARM GAS  C:\Users\AHMED~1.ELE\AppData\Local\Temp\ccWMHy5f.s 			page 68


 2934 07f3 62180000 		.4byte	.LASF279
 2935 07f7 8702     		.sleb128 263
 2936 07f9 0B       		.uleb128 0xb
 2937 07fa 27070000 		.4byte	.LASF280
 2938 07fe 8802     		.sleb128 264
 2939 0800 0B       		.uleb128 0xb
 2940 0801 C6110000 		.4byte	.LASF281
 2941 0805 8902     		.sleb128 265
 2942 0807 0B       		.uleb128 0xb
 2943 0808 AA290000 		.4byte	.LASF282
 2944 080c 8A02     		.sleb128 266
 2945 080e 0B       		.uleb128 0xb
 2946 080f 67100000 		.4byte	.LASF283
 2947 0813 8B02     		.sleb128 267
 2948 0815 0B       		.uleb128 0xb
 2949 0816 B90D0000 		.4byte	.LASF284
 2950 081a 8C02     		.sleb128 268
 2951 081c 0B       		.uleb128 0xb
 2952 081d 0B260000 		.4byte	.LASF285
 2953 0821 8D02     		.sleb128 269
 2954 0823 0B       		.uleb128 0xb
 2955 0824 300E0000 		.4byte	.LASF286
 2956 0828 8E02     		.sleb128 270
 2957 082a 0B       		.uleb128 0xb
 2958 082b C8070000 		.4byte	.LASF287
 2959 082f 8F02     		.sleb128 271
 2960 0831 0B       		.uleb128 0xb
 2961 0832 EB080000 		.4byte	.LASF288
 2962 0836 9002     		.sleb128 272
 2963 0838 0B       		.uleb128 0xb
 2964 0839 8C020000 		.4byte	.LASF289
 2965 083d 9102     		.sleb128 273
 2966 083f 0B       		.uleb128 0xb
 2967 0840 E6300000 		.4byte	.LASF290
 2968 0844 9202     		.sleb128 274
 2969 0846 0B       		.uleb128 0xb
 2970 0847 C9290000 		.4byte	.LASF291
 2971 084b 9302     		.sleb128 275
 2972 084d 0B       		.uleb128 0xb
 2973 084e 7E300000 		.4byte	.LASF292
 2974 0852 9402     		.sleb128 276
 2975 0854 0B       		.uleb128 0xb
 2976 0855 44140000 		.4byte	.LASF293
 2977 0859 9502     		.sleb128 277
 2978 085b 0B       		.uleb128 0xb
 2979 085c 3B030000 		.4byte	.LASF294
 2980 0860 9602     		.sleb128 278
 2981 0862 0B       		.uleb128 0xb
 2982 0863 A81A0000 		.4byte	.LASF295
 2983 0867 9702     		.sleb128 279
 2984 0869 0B       		.uleb128 0xb
 2985 086a 1B040000 		.4byte	.LASF296
 2986 086e 9802     		.sleb128 280
 2987 0870 0B       		.uleb128 0xb
 2988 0871 3C1A0000 		.4byte	.LASF297
 2989 0875 9902     		.sleb128 281
 2990 0877 0B       		.uleb128 0xb
ARM GAS  C:\Users\AHMED~1.ELE\AppData\Local\Temp\ccWMHy5f.s 			page 69


 2991 0878 C61D0000 		.4byte	.LASF298
 2992 087c 9A02     		.sleb128 282
 2993 087e 0B       		.uleb128 0xb
 2994 087f 53020000 		.4byte	.LASF299
 2995 0883 9B02     		.sleb128 283
 2996 0885 0B       		.uleb128 0xb
 2997 0886 4B080000 		.4byte	.LASF300
 2998 088a 9C02     		.sleb128 284
 2999 088c 0B       		.uleb128 0xb
 3000 088d 4C180000 		.4byte	.LASF301
 3001 0891 9D02     		.sleb128 285
 3002 0893 0B       		.uleb128 0xb
 3003 0894 4A150000 		.4byte	.LASF302
 3004 0898 9E02     		.sleb128 286
 3005 089a 0B       		.uleb128 0xb
 3006 089b 11010000 		.4byte	.LASF303
 3007 089f 9F02     		.sleb128 287
 3008 08a1 0B       		.uleb128 0xb
 3009 08a2 C8260000 		.4byte	.LASF304
 3010 08a6 A002     		.sleb128 288
 3011 08a8 0B       		.uleb128 0xb
 3012 08a9 F9030000 		.4byte	.LASF305
 3013 08ad A102     		.sleb128 289
 3014 08af 0B       		.uleb128 0xb
 3015 08b0 091F0000 		.4byte	.LASF306
 3016 08b4 A202     		.sleb128 290
 3017 08b6 0B       		.uleb128 0xb
 3018 08b7 F9280000 		.4byte	.LASF307
 3019 08bb A302     		.sleb128 291
 3020 08bd 0B       		.uleb128 0xb
 3021 08be 58230000 		.4byte	.LASF308
 3022 08c2 A402     		.sleb128 292
 3023 08c4 0B       		.uleb128 0xb
 3024 08c5 82120000 		.4byte	.LASF309
 3025 08c9 A502     		.sleb128 293
 3026 08cb 0B       		.uleb128 0xb
 3027 08cc BB2B0000 		.4byte	.LASF310
 3028 08d0 A602     		.sleb128 294
 3029 08d2 0B       		.uleb128 0xb
 3030 08d3 44240000 		.4byte	.LASF311
 3031 08d7 A702     		.sleb128 295
 3032 08d9 0B       		.uleb128 0xb
 3033 08da 01220000 		.4byte	.LASF312
 3034 08de A802     		.sleb128 296
 3035 08e0 0B       		.uleb128 0xb
 3036 08e1 491B0000 		.4byte	.LASF313
 3037 08e5 A902     		.sleb128 297
 3038 08e7 0B       		.uleb128 0xb
 3039 08e8 AF010000 		.4byte	.LASF314
 3040 08ec AA02     		.sleb128 298
 3041 08ee 0B       		.uleb128 0xb
 3042 08ef 43000000 		.4byte	.LASF315
 3043 08f3 AB02     		.sleb128 299
 3044 08f5 0B       		.uleb128 0xb
 3045 08f6 9B1F0000 		.4byte	.LASF316
 3046 08fa AC02     		.sleb128 300
 3047 08fc 0B       		.uleb128 0xb
ARM GAS  C:\Users\AHMED~1.ELE\AppData\Local\Temp\ccWMHy5f.s 			page 70


 3048 08fd B1110000 		.4byte	.LASF317
 3049 0901 AD02     		.sleb128 301
 3050 0903 0B       		.uleb128 0xb
 3051 0904 730A0000 		.4byte	.LASF318
 3052 0908 AE02     		.sleb128 302
 3053 090a 0B       		.uleb128 0xb
 3054 090b 3B090000 		.4byte	.LASF319
 3055 090f AF02     		.sleb128 303
 3056 0911 0B       		.uleb128 0xb
 3057 0912 6F290000 		.4byte	.LASF320
 3058 0916 B002     		.sleb128 304
 3059 0918 0B       		.uleb128 0xb
 3060 0919 7F010000 		.4byte	.LASF321
 3061 091d B102     		.sleb128 305
 3062 091f 0B       		.uleb128 0xb
 3063 0920 1B2E0000 		.4byte	.LASF322
 3064 0924 B202     		.sleb128 306
 3065 0926 0B       		.uleb128 0xb
 3066 0927 20130000 		.4byte	.LASF323
 3067 092b B302     		.sleb128 307
 3068 092d 0B       		.uleb128 0xb
 3069 092e 4F1D0000 		.4byte	.LASF324
 3070 0932 B402     		.sleb128 308
 3071 0934 0B       		.uleb128 0xb
 3072 0935 5D200000 		.4byte	.LASF325
 3073 0939 B502     		.sleb128 309
 3074 093b 0B       		.uleb128 0xb
 3075 093c E4090000 		.4byte	.LASF326
 3076 0940 B602     		.sleb128 310
 3077 0942 0B       		.uleb128 0xb
 3078 0943 13000000 		.4byte	.LASF327
 3079 0947 B702     		.sleb128 311
 3080 0949 0B       		.uleb128 0xb
 3081 094a 570D0000 		.4byte	.LASF328
 3082 094e B802     		.sleb128 312
 3083 0950 0B       		.uleb128 0xb
 3084 0951 58290000 		.4byte	.LASF329
 3085 0955 B902     		.sleb128 313
 3086 0957 0B       		.uleb128 0xb
 3087 0958 FC1F0000 		.4byte	.LASF330
 3088 095c BA02     		.sleb128 314
 3089 095e 0B       		.uleb128 0xb
 3090 095f 56220000 		.4byte	.LASF331
 3091 0963 BB02     		.sleb128 315
 3092 0965 0B       		.uleb128 0xb
 3093 0966 4C010000 		.4byte	.LASF332
 3094 096a BC02     		.sleb128 316
 3095 096c 0B       		.uleb128 0xb
 3096 096d A8310000 		.4byte	.LASF333
 3097 0971 BD02     		.sleb128 317
 3098 0973 0B       		.uleb128 0xb
 3099 0974 DD310000 		.4byte	.LASF334
 3100 0978 BE02     		.sleb128 318
 3101 097a 0B       		.uleb128 0xb
 3102 097b 26230000 		.4byte	.LASF335
 3103 097f BF02     		.sleb128 319
 3104 0981 0B       		.uleb128 0xb
ARM GAS  C:\Users\AHMED~1.ELE\AppData\Local\Temp\ccWMHy5f.s 			page 71


 3105 0982 32130000 		.4byte	.LASF336
 3106 0986 C002     		.sleb128 320
 3107 0988 0B       		.uleb128 0xb
 3108 0989 932F0000 		.4byte	.LASF337
 3109 098d C102     		.sleb128 321
 3110 098f 0B       		.uleb128 0xb
 3111 0990 FC040000 		.4byte	.LASF338
 3112 0994 C202     		.sleb128 322
 3113 0996 0B       		.uleb128 0xb
 3114 0997 5F010000 		.4byte	.LASF339
 3115 099b C302     		.sleb128 323
 3116 099d 0B       		.uleb128 0xb
 3117 099e 28000000 		.4byte	.LASF340
 3118 09a2 C402     		.sleb128 324
 3119 09a4 0B       		.uleb128 0xb
 3120 09a5 06240000 		.4byte	.LASF341
 3121 09a9 C502     		.sleb128 325
 3122 09ab 0B       		.uleb128 0xb
 3123 09ac 38070000 		.4byte	.LASF342
 3124 09b0 C602     		.sleb128 326
 3125 09b2 0B       		.uleb128 0xb
 3126 09b3 B80F0000 		.4byte	.LASF343
 3127 09b7 C702     		.sleb128 327
 3128 09b9 0B       		.uleb128 0xb
 3129 09ba 96080000 		.4byte	.LASF344
 3130 09be C802     		.sleb128 328
 3131 09c0 0B       		.uleb128 0xb
 3132 09c1 2C280000 		.4byte	.LASF345
 3133 09c5 C902     		.sleb128 329
 3134 09c7 0B       		.uleb128 0xb
 3135 09c8 26270000 		.4byte	.LASF346
 3136 09cc CA02     		.sleb128 330
 3137 09ce 0B       		.uleb128 0xb
 3138 09cf 91290000 		.4byte	.LASF347
 3139 09d3 CB02     		.sleb128 331
 3140 09d5 0B       		.uleb128 0xb
 3141 09d6 22050000 		.4byte	.LASF348
 3142 09da CC02     		.sleb128 332
 3143 09dc 0B       		.uleb128 0xb
 3144 09dd 241B0000 		.4byte	.LASF349
 3145 09e1 CD02     		.sleb128 333
 3146 09e3 0B       		.uleb128 0xb
 3147 09e4 171E0000 		.4byte	.LASF350
 3148 09e8 CE02     		.sleb128 334
 3149 09ea 0B       		.uleb128 0xb
 3150 09eb BF2F0000 		.4byte	.LASF351
 3151 09ef CF02     		.sleb128 335
 3152 09f1 0B       		.uleb128 0xb
 3153 09f2 6A1C0000 		.4byte	.LASF352
 3154 09f6 D002     		.sleb128 336
 3155 09f8 0B       		.uleb128 0xb
 3156 09f9 030D0000 		.4byte	.LASF353
 3157 09fd D102     		.sleb128 337
 3158 09ff 0B       		.uleb128 0xb
 3159 0a00 59110000 		.4byte	.LASF354
 3160 0a04 D202     		.sleb128 338
 3161 0a06 0B       		.uleb128 0xb
ARM GAS  C:\Users\AHMED~1.ELE\AppData\Local\Temp\ccWMHy5f.s 			page 72


 3162 0a07 E6170000 		.4byte	.LASF355
 3163 0a0b D302     		.sleb128 339
 3164 0a0d 0B       		.uleb128 0xb
 3165 0a0e 7B030000 		.4byte	.LASF356
 3166 0a12 D402     		.sleb128 340
 3167 0a14 0B       		.uleb128 0xb
 3168 0a15 C71F0000 		.4byte	.LASF357
 3169 0a19 D502     		.sleb128 341
 3170 0a1b 0B       		.uleb128 0xb
 3171 0a1c 2D2F0000 		.4byte	.LASF358
 3172 0a20 D602     		.sleb128 342
 3173 0a22 0B       		.uleb128 0xb
 3174 0a23 16220000 		.4byte	.LASF359
 3175 0a27 D702     		.sleb128 343
 3176 0a29 0B       		.uleb128 0xb
 3177 0a2a CD190000 		.4byte	.LASF360
 3178 0a2e D802     		.sleb128 344
 3179 0a30 0B       		.uleb128 0xb
 3180 0a31 A7220000 		.4byte	.LASF361
 3181 0a35 D902     		.sleb128 345
 3182 0a37 0B       		.uleb128 0xb
 3183 0a38 380F0000 		.4byte	.LASF362
 3184 0a3c DA02     		.sleb128 346
 3185 0a3e 0B       		.uleb128 0xb
 3186 0a3f B6200000 		.4byte	.LASF363
 3187 0a43 DB02     		.sleb128 347
 3188 0a45 0B       		.uleb128 0xb
 3189 0a46 92170000 		.4byte	.LASF364
 3190 0a4a DC02     		.sleb128 348
 3191 0a4c 0B       		.uleb128 0xb
 3192 0a4d 5F210000 		.4byte	.LASF365
 3193 0a51 DD02     		.sleb128 349
 3194 0a53 0B       		.uleb128 0xb
 3195 0a54 041A0000 		.4byte	.LASF366
 3196 0a58 DE02     		.sleb128 350
 3197 0a5a 0B       		.uleb128 0xb
 3198 0a5b 76280000 		.4byte	.LASF367
 3199 0a5f DF02     		.sleb128 351
 3200 0a61 0B       		.uleb128 0xb
 3201 0a62 66020000 		.4byte	.LASF368
 3202 0a66 E002     		.sleb128 352
 3203 0a68 0B       		.uleb128 0xb
 3204 0a69 77100000 		.4byte	.LASF369
 3205 0a6d E102     		.sleb128 353
 3206 0a6f 0B       		.uleb128 0xb
 3207 0a70 D7280000 		.4byte	.LASF370
 3208 0a74 E202     		.sleb128 354
 3209 0a76 0B       		.uleb128 0xb
 3210 0a77 F6140000 		.4byte	.LASF371
 3211 0a7b E302     		.sleb128 355
 3212 0a7d 0B       		.uleb128 0xb
 3213 0a7e 84140000 		.4byte	.LASF372
 3214 0a82 E402     		.sleb128 356
 3215 0a84 0B       		.uleb128 0xb
 3216 0a85 430E0000 		.4byte	.LASF373
 3217 0a89 E502     		.sleb128 357
 3218 0a8b 0B       		.uleb128 0xb
ARM GAS  C:\Users\AHMED~1.ELE\AppData\Local\Temp\ccWMHy5f.s 			page 73


 3219 0a8c 0B250000 		.4byte	.LASF374
 3220 0a90 E602     		.sleb128 358
 3221 0a92 0B       		.uleb128 0xb
 3222 0a93 97310000 		.4byte	.LASF375
 3223 0a97 E702     		.sleb128 359
 3224 0a99 0B       		.uleb128 0xb
 3225 0a9a E62A0000 		.4byte	.LASF376
 3226 0a9e E802     		.sleb128 360
 3227 0aa0 0B       		.uleb128 0xb
 3228 0aa1 D21B0000 		.4byte	.LASF377
 3229 0aa5 E902     		.sleb128 361
 3230 0aa7 0B       		.uleb128 0xb
 3231 0aa8 FF270000 		.4byte	.LASF378
 3232 0aac EA02     		.sleb128 362
 3233 0aae 0B       		.uleb128 0xb
 3234 0aaf 600F0000 		.4byte	.LASF379
 3235 0ab3 EB02     		.sleb128 363
 3236 0ab5 0B       		.uleb128 0xb
 3237 0ab6 700F0000 		.4byte	.LASF380
 3238 0aba EC02     		.sleb128 364
 3239 0abc 0B       		.uleb128 0xb
 3240 0abd 202D0000 		.4byte	.LASF381
 3241 0ac1 ED02     		.sleb128 365
 3242 0ac3 0B       		.uleb128 0xb
 3243 0ac4 CF2C0000 		.4byte	.LASF382
 3244 0ac8 EE02     		.sleb128 366
 3245 0aca 0B       		.uleb128 0xb
 3246 0acb 02060000 		.4byte	.LASF383
 3247 0acf EF02     		.sleb128 367
 3248 0ad1 0B       		.uleb128 0xb
 3249 0ad2 780D0000 		.4byte	.LASF384
 3250 0ad6 F002     		.sleb128 368
 3251 0ad8 0B       		.uleb128 0xb
 3252 0ad9 15070000 		.4byte	.LASF385
 3253 0add F102     		.sleb128 369
 3254 0adf 0B       		.uleb128 0xb
 3255 0ae0 1B260000 		.4byte	.LASF386
 3256 0ae4 F202     		.sleb128 370
 3257 0ae6 0B       		.uleb128 0xb
 3258 0ae7 9E0F0000 		.4byte	.LASF387
 3259 0aeb F302     		.sleb128 371
 3260 0aed 0B       		.uleb128 0xb
 3261 0aee D51E0000 		.4byte	.LASF388
 3262 0af2 F402     		.sleb128 372
 3263 0af4 0B       		.uleb128 0xb
 3264 0af5 AF0E0000 		.4byte	.LASF389
 3265 0af9 F502     		.sleb128 373
 3266 0afb 0B       		.uleb128 0xb
 3267 0afc 762C0000 		.4byte	.LASF390
 3268 0b00 F602     		.sleb128 374
 3269 0b02 0B       		.uleb128 0xb
 3270 0b03 DF070000 		.4byte	.LASF391
 3271 0b07 F702     		.sleb128 375
 3272 0b09 0B       		.uleb128 0xb
 3273 0b0a FE2F0000 		.4byte	.LASF392
 3274 0b0e F802     		.sleb128 376
 3275 0b10 0B       		.uleb128 0xb
ARM GAS  C:\Users\AHMED~1.ELE\AppData\Local\Temp\ccWMHy5f.s 			page 74


 3276 0b11 B7140000 		.4byte	.LASF393
 3277 0b15 F902     		.sleb128 377
 3278 0b17 0B       		.uleb128 0xb
 3279 0b18 621A0000 		.4byte	.LASF394
 3280 0b1c FA02     		.sleb128 378
 3281 0b1e 0B       		.uleb128 0xb
 3282 0b1f A8120000 		.4byte	.LASF395
 3283 0b23 FB02     		.sleb128 379
 3284 0b25 0B       		.uleb128 0xb
 3285 0b26 02230000 		.4byte	.LASF396
 3286 0b2a FC02     		.sleb128 380
 3287 0b2c 0B       		.uleb128 0xb
 3288 0b2d 831D0000 		.4byte	.LASF397
 3289 0b31 FD02     		.sleb128 381
 3290 0b33 0B       		.uleb128 0xb
 3291 0b34 83260000 		.4byte	.LASF398
 3292 0b38 FE02     		.sleb128 382
 3293 0b3a 0B       		.uleb128 0xb
 3294 0b3b 8E050000 		.4byte	.LASF399
 3295 0b3f FF02     		.sleb128 383
 3296 0b41 0B       		.uleb128 0xb
 3297 0b42 C4210000 		.4byte	.LASF400
 3298 0b46 8003     		.sleb128 384
 3299 0b48 0B       		.uleb128 0xb
 3300 0b49 0E110000 		.4byte	.LASF401
 3301 0b4d 8103     		.sleb128 385
 3302 0b4f 0B       		.uleb128 0xb
 3303 0b50 D72B0000 		.4byte	.LASF402
 3304 0b54 8203     		.sleb128 386
 3305 0b56 0B       		.uleb128 0xb
 3306 0b57 85150000 		.4byte	.LASF403
 3307 0b5b 8303     		.sleb128 387
 3308 0b5d 0B       		.uleb128 0xb
 3309 0b5e 83090000 		.4byte	.LASF404
 3310 0b62 8403     		.sleb128 388
 3311 0b64 0B       		.uleb128 0xb
 3312 0b65 2C190000 		.4byte	.LASF405
 3313 0b69 8503     		.sleb128 389
 3314 0b6b 0B       		.uleb128 0xb
 3315 0b6c 9E060000 		.4byte	.LASF406
 3316 0b70 8603     		.sleb128 390
 3317 0b72 0B       		.uleb128 0xb
 3318 0b73 E00A0000 		.4byte	.LASF407
 3319 0b77 8703     		.sleb128 391
 3320 0b79 0B       		.uleb128 0xb
 3321 0b7a 10200000 		.4byte	.LASF408
 3322 0b7e 8803     		.sleb128 392
 3323 0b80 0B       		.uleb128 0xb
 3324 0b81 540C0000 		.4byte	.LASF409
 3325 0b85 8903     		.sleb128 393
 3326 0b87 0B       		.uleb128 0xb
 3327 0b88 BF300000 		.4byte	.LASF410
 3328 0b8c 8A03     		.sleb128 394
 3329 0b8e 0B       		.uleb128 0xb
 3330 0b8f CF230000 		.4byte	.LASF411
 3331 0b93 8B03     		.sleb128 395
 3332 0b95 0B       		.uleb128 0xb
ARM GAS  C:\Users\AHMED~1.ELE\AppData\Local\Temp\ccWMHy5f.s 			page 75


 3333 0b96 C0270000 		.4byte	.LASF412
 3334 0b9a 8C03     		.sleb128 396
 3335 0b9c 0B       		.uleb128 0xb
 3336 0b9d 172B0000 		.4byte	.LASF413
 3337 0ba1 8D03     		.sleb128 397
 3338 0ba3 0B       		.uleb128 0xb
 3339 0ba4 BC000000 		.4byte	.LASF414
 3340 0ba8 8E03     		.sleb128 398
 3341 0baa 0B       		.uleb128 0xb
 3342 0bab 9A1E0000 		.4byte	.LASF415
 3343 0baf 8F03     		.sleb128 399
 3344 0bb1 0B       		.uleb128 0xb
 3345 0bb2 95110000 		.4byte	.LASF416
 3346 0bb6 9003     		.sleb128 400
 3347 0bb8 0B       		.uleb128 0xb
 3348 0bb9 552A0000 		.4byte	.LASF417
 3349 0bbd 9103     		.sleb128 401
 3350 0bbf 0B       		.uleb128 0xb
 3351 0bc0 99100000 		.4byte	.LASF418
 3352 0bc4 9203     		.sleb128 402
 3353 0bc6 0B       		.uleb128 0xb
 3354 0bc7 D91D0000 		.4byte	.LASF419
 3355 0bcb 9303     		.sleb128 403
 3356 0bcd 0B       		.uleb128 0xb
 3357 0bce A1210000 		.4byte	.LASF420
 3358 0bd2 9403     		.sleb128 404
 3359 0bd4 0B       		.uleb128 0xb
 3360 0bd5 10060000 		.4byte	.LASF421
 3361 0bd9 9503     		.sleb128 405
 3362 0bdb 0B       		.uleb128 0xb
 3363 0bdc 76250000 		.4byte	.LASF422
 3364 0be0 9603     		.sleb128 406
 3365 0be2 0B       		.uleb128 0xb
 3366 0be3 7C050000 		.4byte	.LASF423
 3367 0be7 9703     		.sleb128 407
 3368 0be9 0B       		.uleb128 0xb
 3369 0bea 3A150000 		.4byte	.LASF424
 3370 0bee 9803     		.sleb128 408
 3371 0bf0 0B       		.uleb128 0xb
 3372 0bf1 451F0000 		.4byte	.LASF425
 3373 0bf5 9903     		.sleb128 409
 3374 0bf7 0B       		.uleb128 0xb
 3375 0bf8 382D0000 		.4byte	.LASF426
 3376 0bfc 9A03     		.sleb128 410
 3377 0bfe 0B       		.uleb128 0xb
 3378 0bff 55000000 		.4byte	.LASF427
 3379 0c03 9B03     		.sleb128 411
 3380 0c05 0B       		.uleb128 0xb
 3381 0c06 E1160000 		.4byte	.LASF428
 3382 0c0a 9C03     		.sleb128 412
 3383 0c0c 0B       		.uleb128 0xb
 3384 0c0d 0B120000 		.4byte	.LASF429
 3385 0c11 9D03     		.sleb128 413
 3386 0c13 0B       		.uleb128 0xb
 3387 0c14 7A1F0000 		.4byte	.LASF430
 3388 0c18 9E03     		.sleb128 414
 3389 0c1a 0B       		.uleb128 0xb
ARM GAS  C:\Users\AHMED~1.ELE\AppData\Local\Temp\ccWMHy5f.s 			page 76


 3390 0c1b BA290000 		.4byte	.LASF431
 3391 0c1f 9F03     		.sleb128 415
 3392 0c21 0B       		.uleb128 0xb
 3393 0c22 CA0D0000 		.4byte	.LASF432
 3394 0c26 A003     		.sleb128 416
 3395 0c28 0B       		.uleb128 0xb
 3396 0c29 CC120000 		.4byte	.LASF433
 3397 0c2d A103     		.sleb128 417
 3398 0c2f 0B       		.uleb128 0xb
 3399 0c30 670A0000 		.4byte	.LASF434
 3400 0c34 A203     		.sleb128 418
 3401 0c36 0B       		.uleb128 0xb
 3402 0c37 7D0B0000 		.4byte	.LASF435
 3403 0c3b A303     		.sleb128 419
 3404 0c3d 0B       		.uleb128 0xb
 3405 0c3e D7020000 		.4byte	.LASF436
 3406 0c42 A403     		.sleb128 420
 3407 0c44 0B       		.uleb128 0xb
 3408 0c45 671D0000 		.4byte	.LASF437
 3409 0c49 A503     		.sleb128 421
 3410 0c4b 0B       		.uleb128 0xb
 3411 0c4c D92D0000 		.4byte	.LASF438
 3412 0c50 A603     		.sleb128 422
 3413 0c52 0B       		.uleb128 0xb
 3414 0c53 94040000 		.4byte	.LASF439
 3415 0c57 A703     		.sleb128 423
 3416 0c59 0B       		.uleb128 0xb
 3417 0c5a C6180000 		.4byte	.LASF440
 3418 0c5e A803     		.sleb128 424
 3419 0c60 0B       		.uleb128 0xb
 3420 0c61 80020000 		.4byte	.LASF441
 3421 0c65 A903     		.sleb128 425
 3422 0c67 0B       		.uleb128 0xb
 3423 0c68 03070000 		.4byte	.LASF442
 3424 0c6c AA03     		.sleb128 426
 3425 0c6e 0B       		.uleb128 0xb
 3426 0c6f 14310000 		.4byte	.LASF443
 3427 0c73 AB03     		.sleb128 427
 3428 0c75 0B       		.uleb128 0xb
 3429 0c76 88210000 		.4byte	.LASF444
 3430 0c7a AC03     		.sleb128 428
 3431 0c7c 0B       		.uleb128 0xb
 3432 0c7d 41110000 		.4byte	.LASF445
 3433 0c81 AD03     		.sleb128 429
 3434 0c83 0B       		.uleb128 0xb
 3435 0c84 2C1D0000 		.4byte	.LASF446
 3436 0c88 AE03     		.sleb128 430
 3437 0c8a 0B       		.uleb128 0xb
 3438 0c8b 37300000 		.4byte	.LASF447
 3439 0c8f AF03     		.sleb128 431
 3440 0c91 0B       		.uleb128 0xb
 3441 0c92 A50D0000 		.4byte	.LASF448
 3442 0c96 B003     		.sleb128 432
 3443 0c98 0B       		.uleb128 0xb
 3444 0c99 8C070000 		.4byte	.LASF449
 3445 0c9d B103     		.sleb128 433
 3446 0c9f 0B       		.uleb128 0xb
ARM GAS  C:\Users\AHMED~1.ELE\AppData\Local\Temp\ccWMHy5f.s 			page 77


 3447 0ca0 351C0000 		.4byte	.LASF450
 3448 0ca4 B203     		.sleb128 434
 3449 0ca6 0B       		.uleb128 0xb
 3450 0ca7 6E120000 		.4byte	.LASF451
 3451 0cab B303     		.sleb128 435
 3452 0cad 0B       		.uleb128 0xb
 3453 0cae CB1C0000 		.4byte	.LASF452
 3454 0cb2 B403     		.sleb128 436
 3455 0cb4 0B       		.uleb128 0xb
 3456 0cb5 68070000 		.4byte	.LASF453
 3457 0cb9 B503     		.sleb128 437
 3458 0cbb 0B       		.uleb128 0xb
 3459 0cbc 710E0000 		.4byte	.LASF454
 3460 0cc0 B603     		.sleb128 438
 3461 0cc2 0B       		.uleb128 0xb
 3462 0cc3 7A170000 		.4byte	.LASF455
 3463 0cc7 B703     		.sleb128 439
 3464 0cc9 0B       		.uleb128 0xb
 3465 0cca 1E0F0000 		.4byte	.LASF456
 3466 0cce B803     		.sleb128 440
 3467 0cd0 0B       		.uleb128 0xb
 3468 0cd1 90010000 		.4byte	.LASF457
 3469 0cd5 B903     		.sleb128 441
 3470 0cd7 0B       		.uleb128 0xb
 3471 0cd8 C2250000 		.4byte	.LASF458
 3472 0cdc BA03     		.sleb128 442
 3473 0cde 0B       		.uleb128 0xb
 3474 0cdf 5C280000 		.4byte	.LASF459
 3475 0ce3 BB03     		.sleb128 443
 3476 0ce5 0B       		.uleb128 0xb
 3477 0ce6 80080000 		.4byte	.LASF460
 3478 0cea BC03     		.sleb128 444
 3479 0cec 0B       		.uleb128 0xb
 3480 0ced D91F0000 		.4byte	.LASF461
 3481 0cf1 BD03     		.sleb128 445
 3482 0cf3 0B       		.uleb128 0xb
 3483 0cf4 A5160000 		.4byte	.LASF462
 3484 0cf8 BE03     		.sleb128 446
 3485 0cfa 0B       		.uleb128 0xb
 3486 0cfb 11030000 		.4byte	.LASF463
 3487 0cff BF03     		.sleb128 447
 3488 0d01 0B       		.uleb128 0xb
 3489 0d02 F50E0000 		.4byte	.LASF464
 3490 0d06 C003     		.sleb128 448
 3491 0d08 0B       		.uleb128 0xb
 3492 0d09 1E240000 		.4byte	.LASF465
 3493 0d0d C103     		.sleb128 449
 3494 0d0f 0B       		.uleb128 0xb
 3495 0d10 CA2A0000 		.4byte	.LASF466
 3496 0d14 C203     		.sleb128 450
 3497 0d16 0B       		.uleb128 0xb
 3498 0d17 2A2B0000 		.4byte	.LASF467
 3499 0d1b C303     		.sleb128 451
 3500 0d1d 0B       		.uleb128 0xb
 3501 0d1e 79040000 		.4byte	.LASF468
 3502 0d22 C403     		.sleb128 452
 3503 0d24 0B       		.uleb128 0xb
ARM GAS  C:\Users\AHMED~1.ELE\AppData\Local\Temp\ccWMHy5f.s 			page 78


 3504 0d25 870C0000 		.4byte	.LASF469
 3505 0d29 C503     		.sleb128 453
 3506 0d2b 0B       		.uleb128 0xb
 3507 0d2c CF040000 		.4byte	.LASF470
 3508 0d30 C603     		.sleb128 454
 3509 0d32 0B       		.uleb128 0xb
 3510 0d33 CA140000 		.4byte	.LASF471
 3511 0d37 C703     		.sleb128 455
 3512 0d39 0B       		.uleb128 0xb
 3513 0d3a 402F0000 		.4byte	.LASF472
 3514 0d3e C803     		.sleb128 456
 3515 0d40 0B       		.uleb128 0xb
 3516 0d41 3C0A0000 		.4byte	.LASF473
 3517 0d45 C903     		.sleb128 457
 3518 0d47 0B       		.uleb128 0xb
 3519 0d48 A21D0000 		.4byte	.LASF474
 3520 0d4c CA03     		.sleb128 458
 3521 0d4e 0B       		.uleb128 0xb
 3522 0d4f C4220000 		.4byte	.LASF475
 3523 0d53 CB03     		.sleb128 459
 3524 0d55 0B       		.uleb128 0xb
 3525 0d56 19170000 		.4byte	.LASF476
 3526 0d5a CC03     		.sleb128 460
 3527 0d5c 0B       		.uleb128 0xb
 3528 0d5d 92030000 		.4byte	.LASF477
 3529 0d61 CD03     		.sleb128 461
 3530 0d63 0B       		.uleb128 0xb
 3531 0d64 F7290000 		.4byte	.LASF478
 3532 0d68 CE03     		.sleb128 462
 3533 0d6a 0B       		.uleb128 0xb
 3534 0d6b EC010000 		.4byte	.LASF479
 3535 0d6f CF03     		.sleb128 463
 3536 0d71 0B       		.uleb128 0xb
 3537 0d72 59130000 		.4byte	.LASF480
 3538 0d76 D003     		.sleb128 464
 3539 0d78 0B       		.uleb128 0xb
 3540 0d79 56140000 		.4byte	.LASF481
 3541 0d7d D103     		.sleb128 465
 3542 0d7f 0B       		.uleb128 0xb
 3543 0d80 462C0000 		.4byte	.LASF482
 3544 0d84 D203     		.sleb128 466
 3545 0d86 0B       		.uleb128 0xb
 3546 0d87 DD250000 		.4byte	.LASF483
 3547 0d8b D303     		.sleb128 467
 3548 0d8d 0B       		.uleb128 0xb
 3549 0d8e AC020000 		.4byte	.LASF484
 3550 0d92 D403     		.sleb128 468
 3551 0d94 0B       		.uleb128 0xb
 3552 0d95 D9080000 		.4byte	.LASF485
 3553 0d99 D503     		.sleb128 469
 3554 0d9b 0B       		.uleb128 0xb
 3555 0d9c DD240000 		.4byte	.LASF486
 3556 0da0 D603     		.sleb128 470
 3557 0da2 0B       		.uleb128 0xb
 3558 0da3 25020000 		.4byte	.LASF487
 3559 0da7 D703     		.sleb128 471
 3560 0da9 0B       		.uleb128 0xb
ARM GAS  C:\Users\AHMED~1.ELE\AppData\Local\Temp\ccWMHy5f.s 			page 79


 3561 0daa 31210000 		.4byte	.LASF488
 3562 0dae D803     		.sleb128 472
 3563 0db0 00       		.byte	0
 3564 0db1 0C       		.uleb128 0xc
 3565 0db2 01       		.byte	0x1
 3566 0db3 04       		.byte	0x4
 3567 0db4 910B     		.2byte	0xb91
 3568 0db6 3E100000 		.4byte	0x103e
 3569 0dba 0B       		.uleb128 0xb
 3570 0dbb 66030000 		.4byte	.LASF489
 3571 0dbf 00       		.sleb128 0
 3572 0dc0 0B       		.uleb128 0xb
 3573 0dc1 BD150000 		.4byte	.LASF490
 3574 0dc5 01       		.sleb128 1
 3575 0dc6 0B       		.uleb128 0xb
 3576 0dc7 A72C0000 		.4byte	.LASF491
 3577 0dcb 02       		.sleb128 2
 3578 0dcc 0B       		.uleb128 0xb
 3579 0dcd 3F0D0000 		.4byte	.LASF492
 3580 0dd1 03       		.sleb128 3
 3581 0dd2 0B       		.uleb128 0xb
 3582 0dd3 EE180000 		.4byte	.LASF493
 3583 0dd7 04       		.sleb128 4
 3584 0dd8 0B       		.uleb128 0xb
 3585 0dd9 7D270000 		.4byte	.LASF494
 3586 0ddd 05       		.sleb128 5
 3587 0dde 0B       		.uleb128 0xb
 3588 0ddf FD260000 		.4byte	.LASF495
 3589 0de3 06       		.sleb128 6
 3590 0de4 0B       		.uleb128 0xb
 3591 0de5 061D0000 		.4byte	.LASF496
 3592 0de9 07       		.sleb128 7
 3593 0dea 0B       		.uleb128 0xb
 3594 0deb 972D0000 		.4byte	.LASF497
 3595 0def 08       		.sleb128 8
 3596 0df0 0B       		.uleb128 0xb
 3597 0df1 89200000 		.4byte	.LASF498
 3598 0df5 09       		.sleb128 9
 3599 0df6 0B       		.uleb128 0xb
 3600 0df7 A52D0000 		.4byte	.LASF499
 3601 0dfb 0A       		.sleb128 10
 3602 0dfc 0B       		.uleb128 0xb
 3603 0dfd 2A180000 		.4byte	.LASF500
 3604 0e01 0B       		.sleb128 11
 3605 0e02 0B       		.uleb128 0xb
 3606 0e03 9C2A0000 		.4byte	.LASF501
 3607 0e07 0C       		.sleb128 12
 3608 0e08 0B       		.uleb128 0xb
 3609 0e09 B10A0000 		.4byte	.LASF502
 3610 0e0d 0D       		.sleb128 13
 3611 0e0e 0B       		.uleb128 0xb
 3612 0e0f 170B0000 		.4byte	.LASF503
 3613 0e13 0E       		.sleb128 14
 3614 0e14 0B       		.uleb128 0xb
 3615 0e15 3A140000 		.4byte	.LASF504
 3616 0e19 0F       		.sleb128 15
 3617 0e1a 0B       		.uleb128 0xb
ARM GAS  C:\Users\AHMED~1.ELE\AppData\Local\Temp\ccWMHy5f.s 			page 80


 3618 0e1b 18020000 		.4byte	.LASF505
 3619 0e1f 10       		.sleb128 16
 3620 0e20 0B       		.uleb128 0xb
 3621 0e21 0A130000 		.4byte	.LASF506
 3622 0e25 11       		.sleb128 17
 3623 0e26 0B       		.uleb128 0xb
 3624 0e27 AD150000 		.4byte	.LASF507
 3625 0e2b 12       		.sleb128 18
 3626 0e2c 0B       		.uleb128 0xb
 3627 0e2d 60270000 		.4byte	.LASF508
 3628 0e31 13       		.sleb128 19
 3629 0e32 0B       		.uleb128 0xb
 3630 0e33 61190000 		.4byte	.LASF509
 3631 0e37 14       		.sleb128 20
 3632 0e38 0B       		.uleb128 0xb
 3633 0e39 FE250000 		.4byte	.LASF510
 3634 0e3d 15       		.sleb128 21
 3635 0e3e 0B       		.uleb128 0xb
 3636 0e3f 0C2F0000 		.4byte	.LASF511
 3637 0e43 16       		.sleb128 22
 3638 0e44 0B       		.uleb128 0xb
 3639 0e45 A8250000 		.4byte	.LASF512
 3640 0e49 17       		.sleb128 23
 3641 0e4a 0B       		.uleb128 0xb
 3642 0e4b F5170000 		.4byte	.LASF513
 3643 0e4f 18       		.sleb128 24
 3644 0e50 0B       		.uleb128 0xb
 3645 0e51 E1100000 		.4byte	.LASF514
 3646 0e55 19       		.sleb128 25
 3647 0e56 0B       		.uleb128 0xb
 3648 0e57 62050000 		.4byte	.LASF515
 3649 0e5b 1A       		.sleb128 26
 3650 0e5c 0B       		.uleb128 0xb
 3651 0e5d C5030000 		.4byte	.LASF516
 3652 0e61 1B       		.sleb128 27
 3653 0e62 0B       		.uleb128 0xb
 3654 0e63 6D300000 		.4byte	.LASF517
 3655 0e67 1C       		.sleb128 28
 3656 0e68 0B       		.uleb128 0xb
 3657 0e69 5C1B0000 		.4byte	.LASF518
 3658 0e6d 1D       		.sleb128 29
 3659 0e6e 0B       		.uleb128 0xb
 3660 0e6f E60E0000 		.4byte	.LASF519
 3661 0e73 1E       		.sleb128 30
 3662 0e74 0B       		.uleb128 0xb
 3663 0e75 FD180000 		.4byte	.LASF520
 3664 0e79 1F       		.sleb128 31
 3665 0e7a 0B       		.uleb128 0xb
 3666 0e7b 79200000 		.4byte	.LASF521
 3667 0e7f 20       		.sleb128 32
 3668 0e80 0B       		.uleb128 0xb
 3669 0e81 FA020000 		.4byte	.LASF522
 3670 0e85 21       		.sleb128 33
 3671 0e86 0B       		.uleb128 0xb
 3672 0e87 DF1C0000 		.4byte	.LASF523
 3673 0e8b 22       		.sleb128 34
 3674 0e8c 0B       		.uleb128 0xb
ARM GAS  C:\Users\AHMED~1.ELE\AppData\Local\Temp\ccWMHy5f.s 			page 81


 3675 0e8d 870B0000 		.4byte	.LASF524
 3676 0e91 23       		.sleb128 35
 3677 0e92 0B       		.uleb128 0xb
 3678 0e93 90300000 		.4byte	.LASF525
 3679 0e97 24       		.sleb128 36
 3680 0e98 0B       		.uleb128 0xb
 3681 0e99 A3050000 		.4byte	.LASF526
 3682 0e9d 25       		.sleb128 37
 3683 0e9e 0B       		.uleb128 0xb
 3684 0e9f EF2B0000 		.4byte	.LASF527
 3685 0ea3 26       		.sleb128 38
 3686 0ea4 0B       		.uleb128 0xb
 3687 0ea5 66000000 		.4byte	.LASF528
 3688 0ea9 27       		.sleb128 39
 3689 0eaa 0B       		.uleb128 0xb
 3690 0eab D80E0000 		.4byte	.LASF529
 3691 0eaf 28       		.sleb128 40
 3692 0eb0 0B       		.uleb128 0xb
 3693 0eb1 7E2F0000 		.4byte	.LASF530
 3694 0eb5 29       		.sleb128 41
 3695 0eb6 0B       		.uleb128 0xb
 3696 0eb7 0D2D0000 		.4byte	.LASF531
 3697 0ebb 2A       		.sleb128 42
 3698 0ebc 0B       		.uleb128 0xb
 3699 0ebd AC100000 		.4byte	.LASF532
 3700 0ec1 2B       		.sleb128 43
 3701 0ec2 0B       		.uleb128 0xb
 3702 0ec3 93250000 		.4byte	.LASF533
 3703 0ec7 2C       		.sleb128 44
 3704 0ec8 0B       		.uleb128 0xb
 3705 0ec9 E5110000 		.4byte	.LASF534
 3706 0ecd 2D       		.sleb128 45
 3707 0ece 0B       		.uleb128 0xb
 3708 0ecf B71E0000 		.4byte	.LASF535
 3709 0ed3 2E       		.sleb128 46
 3710 0ed4 0B       		.uleb128 0xb
 3711 0ed5 A7200000 		.4byte	.LASF536
 3712 0ed9 2F       		.sleb128 47
 3713 0eda 0B       		.uleb128 0xb
 3714 0edb 701E0000 		.4byte	.LASF537
 3715 0edf 30       		.sleb128 48
 3716 0ee0 0B       		.uleb128 0xb
 3717 0ee1 2D170000 		.4byte	.LASF538
 3718 0ee5 31       		.sleb128 49
 3719 0ee6 0B       		.uleb128 0xb
 3720 0ee7 3A2A0000 		.4byte	.LASF539
 3721 0eeb 32       		.sleb128 50
 3722 0eec 0B       		.uleb128 0xb
 3723 0eed C11E0000 		.4byte	.LASF540
 3724 0ef1 33       		.sleb128 51
 3725 0ef2 0B       		.uleb128 0xb
 3726 0ef3 672B0000 		.4byte	.LASF541
 3727 0ef7 34       		.sleb128 52
 3728 0ef8 0B       		.uleb128 0xb
 3729 0ef9 8F2E0000 		.4byte	.LASF542
 3730 0efd 35       		.sleb128 53
 3731 0efe 0B       		.uleb128 0xb
ARM GAS  C:\Users\AHMED~1.ELE\AppData\Local\Temp\ccWMHy5f.s 			page 82


 3732 0eff F2220000 		.4byte	.LASF543
 3733 0f03 36       		.sleb128 54
 3734 0f04 0B       		.uleb128 0xb
 3735 0f05 F7120000 		.4byte	.LASF544
 3736 0f09 37       		.sleb128 55
 3737 0f0a 0B       		.uleb128 0xb
 3738 0f0b 33010000 		.4byte	.LASF545
 3739 0f0f 38       		.sleb128 56
 3740 0f10 0B       		.uleb128 0xb
 3741 0f11 6E200000 		.4byte	.LASF546
 3742 0f15 39       		.sleb128 57
 3743 0f16 0B       		.uleb128 0xb
 3744 0f17 5C120000 		.4byte	.LASF547
 3745 0f1b 3A       		.sleb128 58
 3746 0f1c 0B       		.uleb128 0xb
 3747 0f1d 6C220000 		.4byte	.LASF548
 3748 0f21 3B       		.sleb128 59
 3749 0f22 0B       		.uleb128 0xb
 3750 0f23 7D230000 		.4byte	.LASF549
 3751 0f27 3C       		.sleb128 60
 3752 0f28 0B       		.uleb128 0xb
 3753 0f29 25010000 		.4byte	.LASF550
 3754 0f2d 3D       		.sleb128 61
 3755 0f2e 0B       		.uleb128 0xb
 3756 0f2f A4130000 		.4byte	.LASF551
 3757 0f33 3E       		.sleb128 62
 3758 0f34 0B       		.uleb128 0xb
 3759 0f35 47130000 		.4byte	.LASF552
 3760 0f39 3F       		.sleb128 63
 3761 0f3a 0B       		.uleb128 0xb
 3762 0f3b 751D0000 		.4byte	.LASF553
 3763 0f3f C000     		.sleb128 64
 3764 0f41 0B       		.uleb128 0xb
 3765 0f42 14180000 		.4byte	.LASF554
 3766 0f46 C100     		.sleb128 65
 3767 0f48 0B       		.uleb128 0xb
 3768 0f49 752B0000 		.4byte	.LASF555
 3769 0f4d C200     		.sleb128 66
 3770 0f4f 0B       		.uleb128 0xb
 3771 0f50 00000000 		.4byte	.LASF556
 3772 0f54 C300     		.sleb128 67
 3773 0f56 0B       		.uleb128 0xb
 3774 0f57 C8170000 		.4byte	.LASF557
 3775 0f5b C400     		.sleb128 68
 3776 0f5d 0B       		.uleb128 0xb
 3777 0f5e D2050000 		.4byte	.LASF558
 3778 0f62 C500     		.sleb128 69
 3779 0f64 0B       		.uleb128 0xb
 3780 0f65 D3270000 		.4byte	.LASF559
 3781 0f69 C600     		.sleb128 70
 3782 0f6b 0B       		.uleb128 0xb
 3783 0f6c 472A0000 		.4byte	.LASF560
 3784 0f70 C700     		.sleb128 71
 3785 0f72 0B       		.uleb128 0xb
 3786 0f73 04180000 		.4byte	.LASF561
 3787 0f77 C800     		.sleb128 72
 3788 0f79 0B       		.uleb128 0xb
ARM GAS  C:\Users\AHMED~1.ELE\AppData\Local\Temp\ccWMHy5f.s 			page 83


 3789 0f7a 45280000 		.4byte	.LASF562
 3790 0f7e C900     		.sleb128 73
 3791 0f80 0B       		.uleb128 0xb
 3792 0f81 4A0F0000 		.4byte	.LASF563
 3793 0f85 CA00     		.sleb128 74
 3794 0f87 0B       		.uleb128 0xb
 3795 0f88 61090000 		.4byte	.LASF564
 3796 0f8c CB00     		.sleb128 75
 3797 0f8e 0B       		.uleb128 0xb
 3798 0f8f 97260000 		.4byte	.LASF565
 3799 0f93 CC00     		.sleb128 76
 3800 0f95 0B       		.uleb128 0xb
 3801 0f96 4E1E0000 		.4byte	.LASF566
 3802 0f9a CD00     		.sleb128 77
 3803 0f9c 0B       		.uleb128 0xb
 3804 0f9d F2070000 		.4byte	.LASF567
 3805 0fa1 CE00     		.sleb128 78
 3806 0fa3 0B       		.uleb128 0xb
 3807 0fa4 F7240000 		.4byte	.LASF568
 3808 0fa8 CF00     		.sleb128 79
 3809 0faa 0B       		.uleb128 0xb
 3810 0fab FD1B0000 		.4byte	.LASF569
 3811 0faf D000     		.sleb128 80
 3812 0fb1 0B       		.uleb128 0xb
 3813 0fb2 342E0000 		.4byte	.LASF570
 3814 0fb6 D100     		.sleb128 81
 3815 0fb8 0B       		.uleb128 0xb
 3816 0fb9 90230000 		.4byte	.LASF571
 3817 0fbd D200     		.sleb128 82
 3818 0fbf 0B       		.uleb128 0xb
 3819 0fc0 3F020000 		.4byte	.LASF572
 3820 0fc4 D300     		.sleb128 83
 3821 0fc6 0B       		.uleb128 0xb
 3822 0fc7 38180000 		.4byte	.LASF573
 3823 0fcb D400     		.sleb128 84
 3824 0fcd 0B       		.uleb128 0xb
 3825 0fce F2190000 		.4byte	.LASF574
 3826 0fd2 D500     		.sleb128 85
 3827 0fd4 0B       		.uleb128 0xb
 3828 0fd5 55170000 		.4byte	.LASF575
 3829 0fd9 D600     		.sleb128 86
 3830 0fdb 0B       		.uleb128 0xb
 3831 0fdc F2000000 		.4byte	.LASF576
 3832 0fe0 D700     		.sleb128 87
 3833 0fe2 0B       		.uleb128 0xb
 3834 0fe3 EF0D0000 		.4byte	.LASF577
 3835 0fe7 D800     		.sleb128 88
 3836 0fe9 0B       		.uleb128 0xb
 3837 0fea FE0D0000 		.4byte	.LASF578
 3838 0fee D900     		.sleb128 89
 3839 0ff0 0B       		.uleb128 0xb
 3840 0ff1 170C0000 		.4byte	.LASF579
 3841 0ff5 DA00     		.sleb128 90
 3842 0ff7 0B       		.uleb128 0xb
 3843 0ff8 D8110000 		.4byte	.LASF580
 3844 0ffc DB00     		.sleb128 91
 3845 0ffe 0B       		.uleb128 0xb
ARM GAS  C:\Users\AHMED~1.ELE\AppData\Local\Temp\ccWMHy5f.s 			page 84


 3846 0fff B7190000 		.4byte	.LASF581
 3847 1003 DC00     		.sleb128 92
 3848 1005 0B       		.uleb128 0xb
 3849 1006 2C250000 		.4byte	.LASF582
 3850 100a DD00     		.sleb128 93
 3851 100c 0B       		.uleb128 0xb
 3852 100d 73210000 		.4byte	.LASF583
 3853 1011 DE00     		.sleb128 94
 3854 1013 0B       		.uleb128 0xb
 3855 1014 191F0000 		.4byte	.LASF584
 3856 1018 DF00     		.sleb128 95
 3857 101a 0B       		.uleb128 0xb
 3858 101b AF210000 		.4byte	.LASF585
 3859 101f E000     		.sleb128 96
 3860 1021 0B       		.uleb128 0xb
 3861 1022 4D1A0000 		.4byte	.LASF586
 3862 1026 E100     		.sleb128 97
 3863 1028 0B       		.uleb128 0xb
 3864 1029 AE080000 		.4byte	.LASF587
 3865 102d E200     		.sleb128 98
 3866 102f 0B       		.uleb128 0xb
 3867 1030 862A0000 		.4byte	.LASF588
 3868 1034 E300     		.sleb128 99
 3869 1036 0B       		.uleb128 0xb
 3870 1037 2D1F0000 		.4byte	.LASF589
 3871 103b E400     		.sleb128 100
 3872 103d 00       		.byte	0
 3873 103e 06       		.uleb128 0x6
 3874 103f 04       		.byte	0x4
 3875 1040 44100000 		.4byte	0x1044
 3876 1044 0D       		.uleb128 0xd
 3877 1045 08       		.uleb128 0x8
 3878 1046 85000000 		.4byte	0x85
 3879 104a 55100000 		.4byte	0x1055
 3880 104e 09       		.uleb128 0x9
 3881 104f 76000000 		.4byte	0x76
 3882 1053 3F       		.byte	0x3f
 3883 1054 00       		.byte	0
 3884 1055 0C       		.uleb128 0xc
 3885 1056 02       		.byte	0x2
 3886 1057 04       		.byte	0x4
 3887 1058 DD18     		.2byte	0x18dd
 3888 105a 7E100000 		.4byte	0x107e
 3889 105e 0B       		.uleb128 0xb
 3890 105f 7A110000 		.4byte	.LASF590
 3891 1063 00       		.sleb128 0
 3892 1064 0B       		.uleb128 0xb
 3893 1065 39290000 		.4byte	.LASF591
 3894 1069 01       		.sleb128 1
 3895 106a 0B       		.uleb128 0xb
 3896 106b DF1A0000 		.4byte	.LASF592
 3897 106f 02       		.sleb128 2
 3898 1070 0B       		.uleb128 0xb
 3899 1071 2B040000 		.4byte	.LASF593
 3900 1075 03       		.sleb128 3
 3901 1076 0B       		.uleb128 0xb
 3902 1077 AB090000 		.4byte	.LASF594
ARM GAS  C:\Users\AHMED~1.ELE\AppData\Local\Temp\ccWMHy5f.s 			page 85


 3903 107b 8002     		.sleb128 256
 3904 107d 00       		.byte	0
 3905 107e 0C       		.uleb128 0xc
 3906 107f 01       		.byte	0x1
 3907 1080 05       		.byte	0x5
 3908 1081 DC07     		.2byte	0x7dc
 3909 1083 CC110000 		.4byte	0x11cc
 3910 1087 0B       		.uleb128 0xb
 3911 1088 CC150000 		.4byte	.LASF595
 3912 108c 00       		.sleb128 0
 3913 108d 0B       		.uleb128 0xb
 3914 108e AD260000 		.4byte	.LASF596
 3915 1092 01       		.sleb128 1
 3916 1093 0B       		.uleb128 0xb
 3917 1094 C1070000 		.4byte	.LASF597
 3918 1098 02       		.sleb128 2
 3919 1099 0B       		.uleb128 0xb
 3920 109a 5A060000 		.4byte	.LASF598
 3921 109e 03       		.sleb128 3
 3922 109f 0B       		.uleb128 0xb
 3923 10a0 25310000 		.4byte	.LASF599
 3924 10a4 04       		.sleb128 4
 3925 10a5 0B       		.uleb128 0xb
 3926 10a6 6A0B0000 		.4byte	.LASF600
 3927 10aa 05       		.sleb128 5
 3928 10ab 0B       		.uleb128 0xb
 3929 10ac E31B0000 		.4byte	.LASF601
 3930 10b0 06       		.sleb128 6
 3931 10b1 0B       		.uleb128 0xb
 3932 10b2 A0120000 		.4byte	.LASF602
 3933 10b6 07       		.sleb128 7
 3934 10b7 0B       		.uleb128 0xb
 3935 10b8 960B0000 		.4byte	.LASF603
 3936 10bc 08       		.sleb128 8
 3937 10bd 0B       		.uleb128 0xb
 3938 10be A5070000 		.4byte	.LASF604
 3939 10c2 09       		.sleb128 9
 3940 10c3 0B       		.uleb128 0xb
 3941 10c4 95120000 		.4byte	.LASF605
 3942 10c8 0A       		.sleb128 10
 3943 10c9 0B       		.uleb128 0xb
 3944 10ca 220A0000 		.4byte	.LASF606
 3945 10ce 0B       		.sleb128 11
 3946 10cf 0B       		.uleb128 0xb
 3947 10d0 321A0000 		.4byte	.LASF607
 3948 10d4 0C       		.sleb128 12
 3949 10d5 0B       		.uleb128 0xb
 3950 10d6 77010000 		.4byte	.LASF608
 3951 10da 0D       		.sleb128 13
 3952 10db 0B       		.uleb128 0xb
 3953 10dc 9C070000 		.4byte	.LASF609
 3954 10e0 0E       		.sleb128 14
 3955 10e1 0B       		.uleb128 0xb
 3956 10e2 4B170000 		.4byte	.LASF610
 3957 10e6 0F       		.sleb128 15
 3958 10e7 0B       		.uleb128 0xb
 3959 10e8 4C2E0000 		.4byte	.LASF611
ARM GAS  C:\Users\AHMED~1.ELE\AppData\Local\Temp\ccWMHy5f.s 			page 86


 3960 10ec 10       		.sleb128 16
 3961 10ed 0B       		.uleb128 0xb
 3962 10ee FD2B0000 		.4byte	.LASF612
 3963 10f2 11       		.sleb128 17
 3964 10f3 0B       		.uleb128 0xb
 3965 10f4 0E0C0000 		.4byte	.LASF613
 3966 10f8 12       		.sleb128 18
 3967 10f9 0B       		.uleb128 0xb
 3968 10fa B0240000 		.4byte	.LASF614
 3969 10fe 13       		.sleb128 19
 3970 10ff 0B       		.uleb128 0xb
 3971 1100 64300000 		.4byte	.LASF615
 3972 1104 14       		.sleb128 20
 3973 1105 0B       		.uleb128 0xb
 3974 1106 260C0000 		.4byte	.LASF616
 3975 110a 15       		.sleb128 21
 3976 110b 0B       		.uleb128 0xb
 3977 110c 10190000 		.4byte	.LASF617
 3978 1110 16       		.sleb128 22
 3979 1111 0B       		.uleb128 0xb
 3980 1112 45100000 		.4byte	.LASF618
 3981 1116 17       		.sleb128 23
 3982 1117 0B       		.uleb128 0xb
 3983 1118 C4190000 		.4byte	.LASF619
 3984 111c 18       		.sleb128 24
 3985 111d 0B       		.uleb128 0xb
 3986 111e 7F150000 		.4byte	.LASF620
 3987 1122 19       		.sleb128 25
 3988 1123 0B       		.uleb128 0xb
 3989 1124 2B220000 		.4byte	.LASF621
 3990 1128 1A       		.sleb128 26
 3991 1129 0B       		.uleb128 0xb
 3992 112a 720B0000 		.4byte	.LASF622
 3993 112e 1B       		.sleb128 27
 3994 112f 0B       		.uleb128 0xb
 3995 1130 0D040000 		.4byte	.LASF623
 3996 1134 1C       		.sleb128 28
 3997 1135 0B       		.uleb128 0xb
 3998 1136 E82D0000 		.4byte	.LASF624
 3999 113a 1D       		.sleb128 29
 4000 113b 0B       		.uleb128 0xb
 4001 113c 650C0000 		.4byte	.LASF625
 4002 1140 1E       		.sleb128 30
 4003 1141 0B       		.uleb128 0xb
 4004 1142 17130000 		.4byte	.LASF626
 4005 1146 1F       		.sleb128 31
 4006 1147 0B       		.uleb128 0xb
 4007 1148 1A270000 		.4byte	.LASF627
 4008 114c 20       		.sleb128 32
 4009 114d 0B       		.uleb128 0xb
 4010 114e 08310000 		.4byte	.LASF628
 4011 1152 21       		.sleb128 33
 4012 1153 0B       		.uleb128 0xb
 4013 1154 80190000 		.4byte	.LASF629
 4014 1158 22       		.sleb128 34
 4015 1159 0B       		.uleb128 0xb
 4016 115a 950D0000 		.4byte	.LASF630
ARM GAS  C:\Users\AHMED~1.ELE\AppData\Local\Temp\ccWMHy5f.s 			page 87


 4017 115e 23       		.sleb128 35
 4018 115f 0B       		.uleb128 0xb
 4019 1160 742E0000 		.4byte	.LASF631
 4020 1164 24       		.sleb128 36
 4021 1165 0B       		.uleb128 0xb
 4022 1166 0B0B0000 		.4byte	.LASF632
 4023 116a 25       		.sleb128 37
 4024 116b 0B       		.uleb128 0xb
 4025 116c A3010000 		.4byte	.LASF633
 4026 1170 26       		.sleb128 38
 4027 1171 0B       		.uleb128 0xb
 4028 1172 452B0000 		.4byte	.LASF634
 4029 1176 27       		.sleb128 39
 4030 1177 0B       		.uleb128 0xb
 4031 1178 961D0000 		.4byte	.LASF635
 4032 117c 28       		.sleb128 40
 4033 117d 0B       		.uleb128 0xb
 4034 117e 43210000 		.4byte	.LASF636
 4035 1182 29       		.sleb128 41
 4036 1183 0B       		.uleb128 0xb
 4037 1184 8F1E0000 		.4byte	.LASF637
 4038 1188 2A       		.sleb128 42
 4039 1189 0B       		.uleb128 0xb
 4040 118a F80C0000 		.4byte	.LASF638
 4041 118e 2B       		.sleb128 43
 4042 118f 0B       		.uleb128 0xb
 4043 1190 58250000 		.4byte	.LASF639
 4044 1194 2C       		.sleb128 44
 4045 1195 0B       		.uleb128 0xb
 4046 1196 A1090000 		.4byte	.LASF640
 4047 119a 2D       		.sleb128 45
 4048 119b 0B       		.uleb128 0xb
 4049 119c C0010000 		.4byte	.LASF641
 4050 11a0 2E       		.sleb128 46
 4051 11a1 0B       		.uleb128 0xb
 4052 11a2 ED160000 		.4byte	.LASF642
 4053 11a6 2F       		.sleb128 47
 4054 11a7 0B       		.uleb128 0xb
 4055 11a8 BA1C0000 		.4byte	.LASF643
 4056 11ac 30       		.sleb128 48
 4057 11ad 0B       		.uleb128 0xb
 4058 11ae 83130000 		.4byte	.LASF644
 4059 11b2 31       		.sleb128 49
 4060 11b3 0B       		.uleb128 0xb
 4061 11b4 B6250000 		.4byte	.LASF645
 4062 11b8 32       		.sleb128 50
 4063 11b9 0B       		.uleb128 0xb
 4064 11ba 4E030000 		.4byte	.LASF646
 4065 11be 33       		.sleb128 51
 4066 11bf 0B       		.uleb128 0xb
 4067 11c0 FF2C0000 		.4byte	.LASF647
 4068 11c4 34       		.sleb128 52
 4069 11c5 0B       		.uleb128 0xb
 4070 11c6 F8230000 		.4byte	.LASF648
 4071 11ca 35       		.sleb128 53
 4072 11cb 00       		.byte	0
 4073 11cc 0E       		.uleb128 0xe
ARM GAS  C:\Users\AHMED~1.ELE\AppData\Local\Temp\ccWMHy5f.s 			page 88


 4074 11cd 01       		.byte	0x1
 4075 11ce 06       		.byte	0x6
 4076 11cf 7D       		.byte	0x7d
 4077 11d0 05120000 		.4byte	0x1205
 4078 11d4 0B       		.uleb128 0xb
 4079 11d5 3F010000 		.4byte	.LASF649
 4080 11d9 00       		.sleb128 0
 4081 11da 0B       		.uleb128 0xb
 4082 11db 6B230000 		.4byte	.LASF650
 4083 11df 01       		.sleb128 1
 4084 11e0 0B       		.uleb128 0xb
 4085 11e1 4A250000 		.4byte	.LASF651
 4086 11e5 02       		.sleb128 2
 4087 11e6 0B       		.uleb128 0xb
 4088 11e7 7A1B0000 		.4byte	.LASF652
 4089 11eb 03       		.sleb128 3
 4090 11ec 0B       		.uleb128 0xb
 4091 11ed 251A0000 		.4byte	.LASF653
 4092 11f1 04       		.sleb128 4
 4093 11f2 0B       		.uleb128 0xb
 4094 11f3 6D1B0000 		.4byte	.LASF654
 4095 11f7 05       		.sleb128 5
 4096 11f8 0B       		.uleb128 0xb
 4097 11f9 D20A0000 		.4byte	.LASF655
 4098 11fd 06       		.sleb128 6
 4099 11fe 0B       		.uleb128 0xb
 4100 11ff 11300000 		.4byte	.LASF656
 4101 1203 07       		.sleb128 7
 4102 1204 00       		.byte	0
 4103 1205 08       		.uleb128 0x8
 4104 1206 A2000000 		.4byte	0xa2
 4105 120a 15120000 		.4byte	0x1215
 4106 120e 09       		.uleb128 0x9
 4107 120f 76000000 		.4byte	0x76
 4108 1213 04       		.byte	0x4
 4109 1214 00       		.byte	0
 4110 1215 0E       		.uleb128 0xe
 4111 1216 01       		.byte	0x1
 4112 1217 07       		.byte	0x7
 4113 1218 2D       		.byte	0x2d
 4114 1219 48120000 		.4byte	0x1248
 4115 121d 0B       		.uleb128 0xb
 4116 121e AC0B0000 		.4byte	.LASF657
 4117 1222 00       		.sleb128 0
 4118 1223 0B       		.uleb128 0xb
 4119 1224 232F0000 		.4byte	.LASF658
 4120 1228 01       		.sleb128 1
 4121 1229 0B       		.uleb128 0xb
 4122 122a 212A0000 		.4byte	.LASF659
 4123 122e 02       		.sleb128 2
 4124 122f 0B       		.uleb128 0xb
 4125 1230 72090000 		.4byte	.LASF660
 4126 1234 03       		.sleb128 3
 4127 1235 0B       		.uleb128 0xb
 4128 1236 6F170000 		.4byte	.LASF661
 4129 123a 04       		.sleb128 4
 4130 123b 0B       		.uleb128 0xb
ARM GAS  C:\Users\AHMED~1.ELE\AppData\Local\Temp\ccWMHy5f.s 			page 89


 4131 123c 0F0F0000 		.4byte	.LASF662
 4132 1240 05       		.sleb128 5
 4133 1241 0B       		.uleb128 0xb
 4134 1242 BF130000 		.4byte	.LASF663
 4135 1246 06       		.sleb128 6
 4136 1247 00       		.byte	0
 4137 1248 08       		.uleb128 0x8
 4138 1249 A2000000 		.4byte	0xa2
 4139 124d 59120000 		.4byte	0x1259
 4140 1251 0F       		.uleb128 0xf
 4141 1252 76000000 		.4byte	0x76
 4142 1256 FF01     		.2byte	0x1ff
 4143 1258 00       		.byte	0
 4144 1259 10       		.uleb128 0x10
 4145 125a 08       		.byte	0x8
 4146 125b 08       		.byte	0x8
 4147 125c 2B01     		.2byte	0x12b
 4148 125e 7D120000 		.4byte	0x127d
 4149 1262 11       		.uleb128 0x11
 4150 1263 25090000 		.4byte	.LASF664
 4151 1267 08       		.byte	0x8
 4152 1268 2C01     		.2byte	0x12c
 4153 126a AD000000 		.4byte	0xad
 4154 126e 00       		.byte	0
 4155 126f 11       		.uleb128 0x11
 4156 1270 B20F0000 		.4byte	.LASF665
 4157 1274 08       		.byte	0x8
 4158 1275 2D01     		.2byte	0x12d
 4159 1277 CE000000 		.4byte	0xce
 4160 127b 04       		.byte	0x4
 4161 127c 00       		.byte	0
 4162 127d 12       		.uleb128 0x12
 4163 127e 29080000 		.4byte	.LASF666
 4164 1282 08       		.byte	0x8
 4165 1283 2E01     		.2byte	0x12e
 4166 1285 59120000 		.4byte	0x1259
 4167 1289 13       		.uleb128 0x13
 4168 128a 1702     		.2byte	0x217
 4169 128c 08       		.byte	0x8
 4170 128d 6201     		.2byte	0x162
 4171 128f 09130000 		.4byte	0x1309
 4172 1293 11       		.uleb128 0x11
 4173 1294 E72C0000 		.4byte	.LASF667
 4174 1298 08       		.byte	0x8
 4175 1299 6301     		.2byte	0x163
 4176 129b A2000000 		.4byte	0xa2
 4177 129f 00       		.byte	0
 4178 12a0 11       		.uleb128 0x11
 4179 12a1 CE0F0000 		.4byte	.LASF668
 4180 12a5 08       		.byte	0x8
 4181 12a6 6401     		.2byte	0x164
 4182 12a8 A2000000 		.4byte	0xa2
 4183 12ac 01       		.byte	0x1
 4184 12ad 11       		.uleb128 0x11
 4185 12ae B52C0000 		.4byte	.LASF669
 4186 12b2 08       		.byte	0x8
 4187 12b3 6501     		.2byte	0x165
ARM GAS  C:\Users\AHMED~1.ELE\AppData\Local\Temp\ccWMHy5f.s 			page 90


 4188 12b5 B8000000 		.4byte	0xb8
 4189 12b9 02       		.byte	0x2
 4190 12ba 11       		.uleb128 0x11
 4191 12bb 50100000 		.4byte	.LASF670
 4192 12bf 08       		.byte	0x8
 4193 12c0 6601     		.2byte	0x166
 4194 12c2 A2000000 		.4byte	0xa2
 4195 12c6 06       		.byte	0x6
 4196 12c7 11       		.uleb128 0x11
 4197 12c8 D5250000 		.4byte	.LASF671
 4198 12cc 08       		.byte	0x8
 4199 12cd 6701     		.2byte	0x167
 4200 12cf A2000000 		.4byte	0xa2
 4201 12d3 07       		.byte	0x7
 4202 12d4 11       		.uleb128 0x11
 4203 12d5 EB1B0000 		.4byte	.LASF672
 4204 12d9 08       		.byte	0x8
 4205 12da 6801     		.2byte	0x168
 4206 12dc 05120000 		.4byte	0x1205
 4207 12e0 08       		.byte	0x8
 4208 12e1 11       		.uleb128 0x11
 4209 12e2 F2130000 		.4byte	.LASF673
 4210 12e6 08       		.byte	0x8
 4211 12e7 6901     		.2byte	0x169
 4212 12e9 05120000 		.4byte	0x1205
 4213 12ed 0D       		.byte	0xd
 4214 12ee 11       		.uleb128 0x11
 4215 12ef 8E280000 		.4byte	.LASF674
 4216 12f3 08       		.byte	0x8
 4217 12f4 6A01     		.2byte	0x16a
 4218 12f6 05120000 		.4byte	0x1205
 4219 12fa 12       		.byte	0x12
 4220 12fb 11       		.uleb128 0x11
 4221 12fc DB220000 		.4byte	.LASF675
 4222 1300 08       		.byte	0x8
 4223 1301 6B01     		.2byte	0x16b
 4224 1303 48120000 		.4byte	0x1248
 4225 1307 17       		.byte	0x17
 4226 1308 00       		.byte	0
 4227 1309 12       		.uleb128 0x12
 4228 130a FE1C0000 		.4byte	.LASF676
 4229 130e 08       		.byte	0x8
 4230 130f 6C01     		.2byte	0x16c
 4231 1311 89120000 		.4byte	0x1289
 4232 1315 10       		.uleb128 0x10
 4233 1316 0C       		.byte	0xc
 4234 1317 08       		.byte	0x8
 4235 1318 7E01     		.2byte	0x17e
 4236 131a 53130000 		.4byte	0x1353
 4237 131e 11       		.uleb128 0x11
 4238 131f 09030000 		.4byte	.LASF677
 4239 1323 08       		.byte	0x8
 4240 1324 7F01     		.2byte	0x17f
 4241 1326 A2000000 		.4byte	0xa2
 4242 132a 00       		.byte	0
 4243 132b 11       		.uleb128 0x11
 4244 132c C4310000 		.4byte	.LASF678
ARM GAS  C:\Users\AHMED~1.ELE\AppData\Local\Temp\ccWMHy5f.s 			page 91


 4245 1330 08       		.byte	0x8
 4246 1331 8001     		.2byte	0x180
 4247 1333 05120000 		.4byte	0x1205
 4248 1337 01       		.byte	0x1
 4249 1338 11       		.uleb128 0x11
 4250 1339 461C0000 		.4byte	.LASF679
 4251 133d 08       		.byte	0x8
 4252 133e 8101     		.2byte	0x181
 4253 1340 AD000000 		.4byte	0xad
 4254 1344 06       		.byte	0x6
 4255 1345 11       		.uleb128 0x11
 4256 1346 C7060000 		.4byte	.LASF680
 4257 134a 08       		.byte	0x8
 4258 134b 8201     		.2byte	0x182
 4259 134d AD000000 		.4byte	0xad
 4260 1351 08       		.byte	0x8
 4261 1352 00       		.byte	0
 4262 1353 12       		.uleb128 0x12
 4263 1354 3F080000 		.4byte	.LASF681
 4264 1358 08       		.byte	0x8
 4265 1359 8301     		.2byte	0x183
 4266 135b 15130000 		.4byte	0x1315
 4267 135f 0C       		.uleb128 0xc
 4268 1360 01       		.byte	0x1
 4269 1361 08       		.byte	0x8
 4270 1362 AD01     		.2byte	0x1ad
 4271 1364 93130000 		.4byte	0x1393
 4272 1368 0B       		.uleb128 0xb
 4273 1369 182F0000 		.4byte	.LASF682
 4274 136d 00       		.sleb128 0
 4275 136e 0B       		.uleb128 0xb
 4276 136f 2E200000 		.4byte	.LASF683
 4277 1373 01       		.sleb128 1
 4278 1374 0B       		.uleb128 0xb
 4279 1375 47200000 		.4byte	.LASF684
 4280 1379 02       		.sleb128 2
 4281 137a 0B       		.uleb128 0xb
 4282 137b FF1A0000 		.4byte	.LASF685
 4283 137f 03       		.sleb128 3
 4284 1380 0B       		.uleb128 0xb
 4285 1381 5C240000 		.4byte	.LASF686
 4286 1385 04       		.sleb128 4
 4287 1386 0B       		.uleb128 0xb
 4288 1387 4F310000 		.4byte	.LASF687
 4289 138b 05       		.sleb128 5
 4290 138c 0B       		.uleb128 0xb
 4291 138d 2F2D0000 		.4byte	.LASF688
 4292 1391 06       		.sleb128 6
 4293 1392 00       		.byte	0
 4294 1393 14       		.uleb128 0x14
 4295 1394 8D130000 		.4byte	.LASF759
 4296 1398 0C       		.byte	0xc
 4297 1399 09       		.byte	0x9
 4298 139a 2B       		.byte	0x2b
 4299 139b D0130000 		.4byte	0x13d0
 4300 139f 15       		.uleb128 0x15
 4301 13a0 04010000 		.4byte	.LASF689
ARM GAS  C:\Users\AHMED~1.ELE\AppData\Local\Temp\ccWMHy5f.s 			page 92


 4302 13a4 09       		.byte	0x9
 4303 13a5 2D       		.byte	0x2d
 4304 13a6 A2000000 		.4byte	0xa2
 4305 13aa 00       		.byte	0
 4306 13ab 15       		.uleb128 0x15
 4307 13ac 21280000 		.4byte	.LASF690
 4308 13b0 09       		.byte	0x9
 4309 13b1 2E       		.byte	0x2e
 4310 13b2 AD000000 		.4byte	0xad
 4311 13b6 02       		.byte	0x2
 4312 13b7 15       		.uleb128 0x15
 4313 13b8 D80F0000 		.4byte	.LASF691
 4314 13bc 09       		.byte	0x9
 4315 13bd 2F       		.byte	0x2f
 4316 13be CE000000 		.4byte	0xce
 4317 13c2 04       		.byte	0x4
 4318 13c3 15       		.uleb128 0x15
 4319 13c4 672C0000 		.4byte	.LASF692
 4320 13c8 09       		.byte	0x9
 4321 13c9 30       		.byte	0x30
 4322 13ca CE000000 		.4byte	0xce
 4323 13ce 08       		.byte	0x8
 4324 13cf 00       		.byte	0
 4325 13d0 16       		.uleb128 0x16
 4326 13d1 D7170000 		.4byte	.LASF705
 4327 13d5 01       		.byte	0x1
 4328 13d6 4A01     		.2byte	0x14a
 4329 13d8 97000000 		.4byte	0x97
 4330 13dc 01       		.byte	0x1
 4331 13dd 5A140000 		.4byte	0x145a
 4332 13e1 17       		.uleb128 0x17
 4333 13e2 73030000 		.4byte	.LASF693
 4334 13e6 01       		.byte	0x1
 4335 13e7 4A01     		.2byte	0x14a
 4336 13e9 09130000 		.4byte	0x1309
 4337 13ed 17       		.uleb128 0x17
 4338 13ee F60A0000 		.4byte	.LASF694
 4339 13f2 01       		.byte	0x1
 4340 13f3 4A01     		.2byte	0x14a
 4341 13f5 97000000 		.4byte	0x97
 4342 13f9 17       		.uleb128 0x17
 4343 13fa 5B030000 		.4byte	.LASF695
 4344 13fe 01       		.byte	0x1
 4345 13ff 4A01     		.2byte	0x14a
 4346 1401 97000000 		.4byte	0x97
 4347 1405 18       		.uleb128 0x18
 4348 1406 C10E0000 		.4byte	.LASF696
 4349 140a 01       		.byte	0x1
 4350 140b 4C01     		.2byte	0x14c
 4351 140d 97000000 		.4byte	0x97
 4352 1411 18       		.uleb128 0x18
 4353 1412 F71B0000 		.4byte	.LASF697
 4354 1416 01       		.byte	0x1
 4355 1417 4D01     		.2byte	0x14d
 4356 1419 7F000000 		.4byte	0x7f
 4357 141d 19       		.uleb128 0x19
 4358 141e 62756600 		.ascii	"buf\000"
ARM GAS  C:\Users\AHMED~1.ELE\AppData\Local\Temp\ccWMHy5f.s 			page 93


 4359 1422 01       		.byte	0x1
 4360 1423 4D01     		.2byte	0x14d
 4361 1425 45100000 		.4byte	0x1045
 4362 1429 18       		.uleb128 0x18
 4363 142a E1300000 		.4byte	.LASF698
 4364 142e 01       		.byte	0x1
 4365 142f 4D01     		.2byte	0x14d
 4366 1431 45100000 		.4byte	0x1045
 4367 1435 19       		.uleb128 0x19
 4368 1436 6C656E00 		.ascii	"len\000"
 4369 143a 01       		.byte	0x1
 4370 143b 4E01     		.2byte	0x14e
 4371 143d AD000000 		.4byte	0xad
 4372 1441 18       		.uleb128 0x18
 4373 1442 6D0D0000 		.4byte	.LASF699
 4374 1446 01       		.byte	0x1
 4375 1447 4E01     		.2byte	0x14e
 4376 1449 AD000000 		.4byte	0xad
 4377 144d 18       		.uleb128 0x18
 4378 144e B5300000 		.4byte	.LASF700
 4379 1452 01       		.byte	0x1
 4380 1453 4F01     		.2byte	0x14f
 4381 1455 93130000 		.4byte	0x1393
 4382 1459 00       		.byte	0
 4383 145a 1A       		.uleb128 0x1a
 4384 145b D42F0000 		.4byte	.LASF701
 4385 145f 01       		.byte	0x1
 4386 1460 6C       		.byte	0x6c
 4387 1461 01       		.byte	0x1
 4388 1462 1A       		.uleb128 0x1a
 4389 1463 0A080000 		.4byte	.LASF702
 4390 1467 01       		.byte	0x1
 4391 1468 7F       		.byte	0x7f
 4392 1469 01       		.byte	0x1
 4393 146a 1B       		.uleb128 0x1b
 4394 146b 72080000 		.4byte	.LASF735
 4395 146f 01       		.byte	0x1
 4396 1470 3401     		.2byte	0x134
 4397 1472 97000000 		.4byte	0x97
 4398 1476 01       		.byte	0x1
 4399 1477 94140000 		.4byte	0x1494
 4400 147b 17       		.uleb128 0x17
 4401 147c C91B0000 		.4byte	.LASF703
 4402 1480 01       		.byte	0x1
 4403 1481 3401     		.2byte	0x134
 4404 1483 94140000 		.4byte	0x1494
 4405 1487 17       		.uleb128 0x17
 4406 1488 EC050000 		.4byte	.LASF704
 4407 148c 01       		.byte	0x1
 4408 148d 3401     		.2byte	0x134
 4409 148f B8000000 		.4byte	0xb8
 4410 1493 00       		.byte	0
 4411 1494 06       		.uleb128 0x6
 4412 1495 04       		.byte	0x4
 4413 1496 53130000 		.4byte	0x1353
 4414 149a 16       		.uleb128 0x16
 4415 149b 21110000 		.4byte	.LASF706
ARM GAS  C:\Users\AHMED~1.ELE\AppData\Local\Temp\ccWMHy5f.s 			page 94


 4416 149f 01       		.byte	0x1
 4417 14a0 E701     		.2byte	0x1e7
 4418 14a2 97000000 		.4byte	0x97
 4419 14a6 01       		.byte	0x1
 4420 14a7 22150000 		.4byte	0x1522
 4421 14ab 17       		.uleb128 0x17
 4422 14ac F60A0000 		.4byte	.LASF694
 4423 14b0 01       		.byte	0x1
 4424 14b1 E701     		.2byte	0x1e7
 4425 14b3 97000000 		.4byte	0x97
 4426 14b7 17       		.uleb128 0x17
 4427 14b8 5B030000 		.4byte	.LASF695
 4428 14bc 01       		.byte	0x1
 4429 14bd E701     		.2byte	0x1e7
 4430 14bf 97000000 		.4byte	0x97
 4431 14c3 18       		.uleb128 0x18
 4432 14c4 C10E0000 		.4byte	.LASF696
 4433 14c8 01       		.byte	0x1
 4434 14c9 E901     		.2byte	0x1e9
 4435 14cb 97000000 		.4byte	0x97
 4436 14cf 18       		.uleb128 0x18
 4437 14d0 F71B0000 		.4byte	.LASF697
 4438 14d4 01       		.byte	0x1
 4439 14d5 EA01     		.2byte	0x1ea
 4440 14d7 7F000000 		.4byte	0x7f
 4441 14db 18       		.uleb128 0x18
 4442 14dc E1300000 		.4byte	.LASF698
 4443 14e0 01       		.byte	0x1
 4444 14e1 EA01     		.2byte	0x1ea
 4445 14e3 45100000 		.4byte	0x1045
 4446 14e7 19       		.uleb128 0x19
 4447 14e8 6900     		.ascii	"i\000"
 4448 14ea 01       		.byte	0x1
 4449 14eb EB01     		.2byte	0x1eb
 4450 14ed AD000000 		.4byte	0xad
 4451 14f1 19       		.uleb128 0x19
 4452 14f2 6C656E00 		.ascii	"len\000"
 4453 14f6 01       		.byte	0x1
 4454 14f7 EB01     		.2byte	0x1eb
 4455 14f9 AD000000 		.4byte	0xad
 4456 14fd 18       		.uleb128 0x18
 4457 14fe 6D0D0000 		.4byte	.LASF699
 4458 1502 01       		.byte	0x1
 4459 1503 EB01     		.2byte	0x1eb
 4460 1505 AD000000 		.4byte	0xad
 4461 1509 18       		.uleb128 0x18
 4462 150a B5300000 		.4byte	.LASF700
 4463 150e 01       		.byte	0x1
 4464 150f EC01     		.2byte	0x1ec
 4465 1511 93130000 		.4byte	0x1393
 4466 1515 18       		.uleb128 0x18
 4467 1516 A60E0000 		.4byte	.LASF707
 4468 151a 01       		.byte	0x1
 4469 151b ED01     		.2byte	0x1ed
 4470 151d 53130000 		.4byte	0x1353
 4471 1521 00       		.byte	0
 4472 1522 1C       		.uleb128 0x1c
ARM GAS  C:\Users\AHMED~1.ELE\AppData\Local\Temp\ccWMHy5f.s 			page 95


 4473 1523 4B070000 		.4byte	.LASF760
 4474 1527 01       		.byte	0x1
 4475 1528 4F       		.byte	0x4f
 4476 1529 97000000 		.4byte	0x97
 4477 152d 00000000 		.4byte	.LFB0
 4478 1531 12000000 		.4byte	.LFE0-.LFB0
 4479 1535 01       		.uleb128 0x1
 4480 1536 9C       		.byte	0x9c
 4481 1537 52150000 		.4byte	0x1552
 4482 153b 1D       		.uleb128 0x1d
 4483 153c 0A000000 		.4byte	.LVL0
 4484 1540 21280000 		.4byte	0x2821
 4485 1544 1E       		.uleb128 0x1e
 4486 1545 01       		.uleb128 0x1
 4487 1546 51       		.byte	0x51
 4488 1547 02       		.uleb128 0x2
 4489 1548 08       		.byte	0x8
 4490 1549 64       		.byte	0x64
 4491 154a 1E       		.uleb128 0x1e
 4492 154b 01       		.uleb128 0x1
 4493 154c 50       		.byte	0x50
 4494 154d 02       		.uleb128 0x2
 4495 154e 08       		.byte	0x8
 4496 154f 8D       		.byte	0x8d
 4497 1550 00       		.byte	0
 4498 1551 00       		.byte	0
 4499 1552 1F       		.uleb128 0x1f
 4500 1553 A3230000 		.4byte	.LASF761
 4501 1557 01       		.byte	0x1
 4502 1558 5E       		.byte	0x5e
 4503 1559 00000000 		.4byte	.LFB1
 4504 155d 24000000 		.4byte	.LFE1-.LFB1
 4505 1561 01       		.uleb128 0x1
 4506 1562 9C       		.byte	0x9c
 4507 1563 A5150000 		.4byte	0x15a5
 4508 1567 20       		.uleb128 0x20
 4509 1568 08000000 		.4byte	.LVL1
 4510 156c 3B280000 		.4byte	0x283b
 4511 1570 7E150000 		.4byte	0x157e
 4512 1574 1E       		.uleb128 0x1e
 4513 1575 01       		.uleb128 0x1
 4514 1576 50       		.byte	0x50
 4515 1577 05       		.uleb128 0x5
 4516 1578 03       		.byte	0x3
 4517 1579 00000000 		.4byte	.LC0
 4518 157d 00       		.byte	0
 4519 157e 20       		.uleb128 0x20
 4520 157f 10000000 		.4byte	.LVL2
 4521 1583 4C280000 		.4byte	0x284c
 4522 1587 93150000 		.4byte	0x1593
 4523 158b 1E       		.uleb128 0x1e
 4524 158c 01       		.uleb128 0x1
 4525 158d 50       		.byte	0x50
 4526 158e 03       		.uleb128 0x3
 4527 158f 0A       		.byte	0xa
 4528 1590 2823     		.2byte	0x2328
 4529 1592 00       		.byte	0
ARM GAS  C:\Users\AHMED~1.ELE\AppData\Local\Temp\ccWMHy5f.s 			page 96


 4530 1593 21       		.uleb128 0x21
 4531 1594 20000000 		.4byte	.LVL3
 4532 1598 61280000 		.4byte	0x2861
 4533 159c 1E       		.uleb128 0x1e
 4534 159d 01       		.uleb128 0x1
 4535 159e 50       		.byte	0x50
 4536 159f 03       		.uleb128 0x3
 4537 15a0 0A       		.byte	0xa
 4538 15a1 9E01     		.2byte	0x19e
 4539 15a3 00       		.byte	0
 4540 15a4 00       		.byte	0
 4541 15a5 22       		.uleb128 0x22
 4542 15a6 5A140000 		.4byte	0x145a
 4543 15aa 00000000 		.4byte	.LFB2
 4544 15ae 48000000 		.4byte	.LFE2-.LFB2
 4545 15b2 01       		.uleb128 0x1
 4546 15b3 9C       		.byte	0x9c
 4547 15b4 0F160000 		.4byte	0x160f
 4548 15b8 23       		.uleb128 0x23
 4549 15b9 06000000 		.4byte	.LVL4
 4550 15bd 22150000 		.4byte	0x1522
 4551 15c1 20       		.uleb128 0x20
 4552 15c2 1E000000 		.4byte	.LVL5
 4553 15c6 76280000 		.4byte	0x2876
 4554 15ca DA150000 		.4byte	0x15da
 4555 15ce 1E       		.uleb128 0x1e
 4556 15cf 01       		.uleb128 0x1
 4557 15d0 52       		.byte	0x52
 4558 15d1 02       		.uleb128 0x2
 4559 15d2 76       		.byte	0x76
 4560 15d3 00       		.sleb128 0
 4561 15d4 1E       		.uleb128 0x1e
 4562 15d5 01       		.uleb128 0x1
 4563 15d6 51       		.byte	0x51
 4564 15d7 01       		.uleb128 0x1
 4565 15d8 30       		.byte	0x30
 4566 15d9 00       		.byte	0
 4567 15da 20       		.uleb128 0x20
 4568 15db 2E000000 		.4byte	.LVL6
 4569 15df 93280000 		.4byte	0x2893
 4570 15e3 05160000 		.4byte	0x1605
 4571 15e7 1E       		.uleb128 0x1e
 4572 15e8 01       		.uleb128 0x1
 4573 15e9 53       		.byte	0x53
 4574 15ea 02       		.uleb128 0x2
 4575 15eb 74       		.byte	0x74
 4576 15ec 00       		.sleb128 0
 4577 15ed 1E       		.uleb128 0x1e
 4578 15ee 01       		.uleb128 0x1
 4579 15ef 52       		.byte	0x52
 4580 15f0 01       		.uleb128 0x1
 4581 15f1 32       		.byte	0x32
 4582 15f2 1E       		.uleb128 0x1e
 4583 15f3 01       		.uleb128 0x1
 4584 15f4 51       		.byte	0x51
 4585 15f5 01       		.uleb128 0x1
 4586 15f6 30       		.byte	0x30
ARM GAS  C:\Users\AHMED~1.ELE\AppData\Local\Temp\ccWMHy5f.s 			page 97


 4587 15f7 1E       		.uleb128 0x1e
 4588 15f8 01       		.uleb128 0x1
 4589 15f9 50       		.byte	0x50
 4590 15fa 02       		.uleb128 0x2
 4591 15fb 08       		.byte	0x8
 4592 15fc 64       		.byte	0x64
 4593 15fd 1E       		.uleb128 0x1e
 4594 15fe 02       		.uleb128 0x2
 4595 15ff 7D       		.byte	0x7d
 4596 1600 00       		.sleb128 0
 4597 1601 02       		.uleb128 0x2
 4598 1602 75       		.byte	0x75
 4599 1603 00       		.sleb128 0
 4600 1604 00       		.byte	0
 4601 1605 24       		.uleb128 0x24
 4602 1606 3E000000 		.4byte	.LVL7
 4603 160a 52150000 		.4byte	0x1552
 4604 160e 00       		.byte	0
 4605 160f 22       		.uleb128 0x22
 4606 1610 62140000 		.4byte	0x1462
 4607 1614 00000000 		.4byte	.LFB3
 4608 1618 54000000 		.4byte	.LFE3-.LFB3
 4609 161c 01       		.uleb128 0x1
 4610 161d 9C       		.byte	0x9c
 4611 161e 86160000 		.4byte	0x1686
 4612 1622 23       		.uleb128 0x23
 4613 1623 06000000 		.4byte	.LVL8
 4614 1627 22150000 		.4byte	0x1522
 4615 162b 20       		.uleb128 0x20
 4616 162c 1C000000 		.4byte	.LVL9
 4617 1630 BC280000 		.4byte	0x28bc
 4618 1634 44160000 		.4byte	0x1644
 4619 1638 1E       		.uleb128 0x1e
 4620 1639 01       		.uleb128 0x1
 4621 163a 51       		.byte	0x51
 4622 163b 01       		.uleb128 0x1
 4623 163c 32       		.byte	0x32
 4624 163d 1E       		.uleb128 0x1e
 4625 163e 01       		.uleb128 0x1
 4626 163f 50       		.byte	0x50
 4627 1640 02       		.uleb128 0x2
 4628 1641 08       		.byte	0x8
 4629 1642 B9       		.byte	0xb9
 4630 1643 00       		.byte	0
 4631 1644 20       		.uleb128 0x20
 4632 1645 30000000 		.4byte	.LVL10
 4633 1649 93280000 		.4byte	0x2893
 4634 164d 62160000 		.4byte	0x1662
 4635 1651 1E       		.uleb128 0x1e
 4636 1652 01       		.uleb128 0x1
 4637 1653 52       		.byte	0x52
 4638 1654 01       		.uleb128 0x1
 4639 1655 31       		.byte	0x31
 4640 1656 1E       		.uleb128 0x1e
 4641 1657 01       		.uleb128 0x1
 4642 1658 51       		.byte	0x51
 4643 1659 01       		.uleb128 0x1
ARM GAS  C:\Users\AHMED~1.ELE\AppData\Local\Temp\ccWMHy5f.s 			page 98


 4644 165a 30       		.byte	0x30
 4645 165b 1E       		.uleb128 0x1e
 4646 165c 01       		.uleb128 0x1
 4647 165d 50       		.byte	0x50
 4648 165e 02       		.uleb128 0x2
 4649 165f 08       		.byte	0x8
 4650 1660 64       		.byte	0x64
 4651 1661 00       		.byte	0
 4652 1662 23       		.uleb128 0x23
 4653 1663 3A000000 		.4byte	.LVL11
 4654 1667 52150000 		.4byte	0x1552
 4655 166b 1D       		.uleb128 0x1d
 4656 166c 4A000000 		.4byte	.LVL12
 4657 1670 93280000 		.4byte	0x2893
 4658 1674 1E       		.uleb128 0x1e
 4659 1675 01       		.uleb128 0x1
 4660 1676 52       		.byte	0x52
 4661 1677 01       		.uleb128 0x1
 4662 1678 33       		.byte	0x33
 4663 1679 1E       		.uleb128 0x1e
 4664 167a 01       		.uleb128 0x1
 4665 167b 51       		.byte	0x51
 4666 167c 01       		.uleb128 0x1
 4667 167d 30       		.byte	0x30
 4668 167e 1E       		.uleb128 0x1e
 4669 167f 01       		.uleb128 0x1
 4670 1680 50       		.byte	0x50
 4671 1681 02       		.uleb128 0x2
 4672 1682 08       		.byte	0x8
 4673 1683 64       		.byte	0x64
 4674 1684 00       		.byte	0
 4675 1685 00       		.byte	0
 4676 1686 25       		.uleb128 0x25
 4677 1687 881A0000 		.4byte	.LASF708
 4678 168b 01       		.byte	0x1
 4679 168c 96       		.byte	0x96
 4680 168d 00000000 		.4byte	.LFB4
 4681 1691 10000000 		.4byte	.LFE4-.LFB4
 4682 1695 01       		.uleb128 0x1
 4683 1696 9C       		.byte	0x9c
 4684 1697 AB160000 		.4byte	0x16ab
 4685 169b 26       		.uleb128 0x26
 4686 169c 812D0000 		.4byte	.LASF713
 4687 16a0 01       		.byte	0x1
 4688 16a1 96       		.byte	0x96
 4689 16a2 A2000000 		.4byte	0xa2
 4690 16a6 00000000 		.4byte	.LLST0
 4691 16aa 00       		.byte	0
 4692 16ab 25       		.uleb128 0x25
 4693 16ac EA0B0000 		.4byte	.LASF709
 4694 16b0 01       		.byte	0x1
 4695 16b1 A2       		.byte	0xa2
 4696 16b2 00000000 		.4byte	.LFB5
 4697 16b6 68000000 		.4byte	.LFE5-.LFB5
 4698 16ba 01       		.uleb128 0x1
 4699 16bb 9C       		.byte	0x9c
 4700 16bc 61170000 		.4byte	0x1761
ARM GAS  C:\Users\AHMED~1.ELE\AppData\Local\Temp\ccWMHy5f.s 			page 99


 4701 16c0 27       		.uleb128 0x27
 4702 16c1 410B0000 		.4byte	.LASF711
 4703 16c5 01       		.byte	0x1
 4704 16c6 A4       		.byte	0xa4
 4705 16c7 D4000000 		.4byte	0xd4
 4706 16cb 02       		.uleb128 0x2
 4707 16cc 91       		.byte	0x91
 4708 16cd 50       		.sleb128 -48
 4709 16ce 20       		.uleb128 0x20
 4710 16cf 28000000 		.4byte	.LVL15
 4711 16d3 93280000 		.4byte	0x2893
 4712 16d7 F1160000 		.4byte	0x16f1
 4713 16db 1E       		.uleb128 0x1e
 4714 16dc 01       		.uleb128 0x1
 4715 16dd 53       		.byte	0x53
 4716 16de 01       		.uleb128 0x1
 4717 16df 30       		.byte	0x30
 4718 16e0 1E       		.uleb128 0x1e
 4719 16e1 01       		.uleb128 0x1
 4720 16e2 51       		.byte	0x51
 4721 16e3 01       		.uleb128 0x1
 4722 16e4 3E       		.byte	0x3e
 4723 16e5 1E       		.uleb128 0x1e
 4724 16e6 01       		.uleb128 0x1
 4725 16e7 50       		.byte	0x50
 4726 16e8 01       		.uleb128 0x1
 4727 16e9 3F       		.byte	0x3f
 4728 16ea 1E       		.uleb128 0x1e
 4729 16eb 02       		.uleb128 0x2
 4730 16ec 7D       		.byte	0x7d
 4731 16ed 00       		.sleb128 0
 4732 16ee 01       		.uleb128 0x1
 4733 16ef 30       		.byte	0x30
 4734 16f0 00       		.byte	0
 4735 16f1 20       		.uleb128 0x20
 4736 16f2 38000000 		.4byte	.LVL16
 4737 16f6 DB280000 		.4byte	0x28db
 4738 16fa 0E170000 		.4byte	0x170e
 4739 16fe 1E       		.uleb128 0x1e
 4740 16ff 01       		.uleb128 0x1
 4741 1700 51       		.byte	0x51
 4742 1701 05       		.uleb128 0x5
 4743 1702 03       		.byte	0x3
 4744 1703 00000000 		.4byte	.LANCHOR2
 4745 1707 1E       		.uleb128 0x1e
 4746 1708 01       		.uleb128 0x1
 4747 1709 50       		.byte	0x50
 4748 170a 02       		.uleb128 0x2
 4749 170b 91       		.byte	0x91
 4750 170c 50       		.sleb128 -48
 4751 170d 00       		.byte	0
 4752 170e 20       		.uleb128 0x20
 4753 170f 46000000 		.4byte	.LVL17
 4754 1713 93280000 		.4byte	0x2893
 4755 1717 39170000 		.4byte	0x1739
 4756 171b 1E       		.uleb128 0x1e
 4757 171c 01       		.uleb128 0x1
ARM GAS  C:\Users\AHMED~1.ELE\AppData\Local\Temp\ccWMHy5f.s 			page 100


 4758 171d 53       		.byte	0x53
 4759 171e 02       		.uleb128 0x2
 4760 171f 75       		.byte	0x75
 4761 1720 00       		.sleb128 0
 4762 1721 1E       		.uleb128 0x1e
 4763 1722 01       		.uleb128 0x1
 4764 1723 52       		.byte	0x52
 4765 1724 02       		.uleb128 0x2
 4766 1725 91       		.byte	0x91
 4767 1726 50       		.sleb128 -48
 4768 1727 1E       		.uleb128 0x1e
 4769 1728 01       		.uleb128 0x1
 4770 1729 51       		.byte	0x51
 4771 172a 01       		.uleb128 0x1
 4772 172b 3C       		.byte	0x3c
 4773 172c 1E       		.uleb128 0x1e
 4774 172d 01       		.uleb128 0x1
 4775 172e 50       		.byte	0x50
 4776 172f 01       		.uleb128 0x1
 4777 1730 3F       		.byte	0x3f
 4778 1731 1E       		.uleb128 0x1e
 4779 1732 02       		.uleb128 0x2
 4780 1733 7D       		.byte	0x7d
 4781 1734 00       		.sleb128 0
 4782 1735 02       		.uleb128 0x2
 4783 1736 75       		.byte	0x75
 4784 1737 00       		.sleb128 0
 4785 1738 00       		.byte	0
 4786 1739 1D       		.uleb128 0x1d
 4787 173a 54000000 		.4byte	.LVL18
 4788 173e 93280000 		.4byte	0x2893
 4789 1742 1E       		.uleb128 0x1e
 4790 1743 01       		.uleb128 0x1
 4791 1744 53       		.byte	0x53
 4792 1745 02       		.uleb128 0x2
 4793 1746 75       		.byte	0x75
 4794 1747 00       		.sleb128 0
 4795 1748 1E       		.uleb128 0x1e
 4796 1749 01       		.uleb128 0x1
 4797 174a 52       		.byte	0x52
 4798 174b 02       		.uleb128 0x2
 4799 174c 91       		.byte	0x91
 4800 174d 50       		.sleb128 -48
 4801 174e 1E       		.uleb128 0x1e
 4802 174f 01       		.uleb128 0x1
 4803 1750 51       		.byte	0x51
 4804 1751 01       		.uleb128 0x1
 4805 1752 3B       		.byte	0x3b
 4806 1753 1E       		.uleb128 0x1e
 4807 1754 01       		.uleb128 0x1
 4808 1755 50       		.byte	0x50
 4809 1756 01       		.uleb128 0x1
 4810 1757 3F       		.byte	0x3f
 4811 1758 1E       		.uleb128 0x1e
 4812 1759 02       		.uleb128 0x2
 4813 175a 7D       		.byte	0x7d
 4814 175b 00       		.sleb128 0
ARM GAS  C:\Users\AHMED~1.ELE\AppData\Local\Temp\ccWMHy5f.s 			page 101


 4815 175c 02       		.uleb128 0x2
 4816 175d 75       		.byte	0x75
 4817 175e 00       		.sleb128 0
 4818 175f 00       		.byte	0
 4819 1760 00       		.byte	0
 4820 1761 25       		.uleb128 0x25
 4821 1762 6F190000 		.4byte	.LASF710
 4822 1766 01       		.byte	0x1
 4823 1767 BE       		.byte	0xbe
 4824 1768 00000000 		.4byte	.LFB6
 4825 176c 40000000 		.4byte	.LFE6-.LFB6
 4826 1770 01       		.uleb128 0x1
 4827 1771 9C       		.byte	0x9c
 4828 1772 EA170000 		.4byte	0x17ea
 4829 1776 27       		.uleb128 0x27
 4830 1777 410B0000 		.4byte	.LASF711
 4831 177b 01       		.byte	0x1
 4832 177c C0       		.byte	0xc0
 4833 177d D4000000 		.4byte	0xd4
 4834 1781 02       		.uleb128 0x2
 4835 1782 91       		.byte	0x91
 4836 1783 58       		.sleb128 -40
 4837 1784 20       		.uleb128 0x20
 4838 1785 0E000000 		.4byte	.LVL19
 4839 1789 DB280000 		.4byte	0x28db
 4840 178d A1170000 		.4byte	0x17a1
 4841 1791 1E       		.uleb128 0x1e
 4842 1792 01       		.uleb128 0x1
 4843 1793 51       		.byte	0x51
 4844 1794 05       		.uleb128 0x5
 4845 1795 03       		.byte	0x3
 4846 1796 00000000 		.4byte	.LANCHOR2
 4847 179a 1E       		.uleb128 0x1e
 4848 179b 01       		.uleb128 0x1
 4849 179c 50       		.byte	0x50
 4850 179d 02       		.uleb128 0x2
 4851 179e 91       		.byte	0x91
 4852 179f 58       		.sleb128 -40
 4853 17a0 00       		.byte	0
 4854 17a1 20       		.uleb128 0x20
 4855 17a2 20000000 		.4byte	.LVL20
 4856 17a6 93280000 		.4byte	0x2893
 4857 17aa C4170000 		.4byte	0x17c4
 4858 17ae 1E       		.uleb128 0x1e
 4859 17af 01       		.uleb128 0x1
 4860 17b0 53       		.byte	0x53
 4861 17b1 01       		.uleb128 0x1
 4862 17b2 30       		.byte	0x30
 4863 17b3 1E       		.uleb128 0x1e
 4864 17b4 01       		.uleb128 0x1
 4865 17b5 51       		.byte	0x51
 4866 17b6 01       		.uleb128 0x1
 4867 17b7 3E       		.byte	0x3e
 4868 17b8 1E       		.uleb128 0x1e
 4869 17b9 01       		.uleb128 0x1
 4870 17ba 50       		.byte	0x50
 4871 17bb 01       		.uleb128 0x1
ARM GAS  C:\Users\AHMED~1.ELE\AppData\Local\Temp\ccWMHy5f.s 			page 102


 4872 17bc 3F       		.byte	0x3f
 4873 17bd 1E       		.uleb128 0x1e
 4874 17be 02       		.uleb128 0x2
 4875 17bf 7D       		.byte	0x7d
 4876 17c0 00       		.sleb128 0
 4877 17c1 01       		.uleb128 0x1
 4878 17c2 30       		.byte	0x30
 4879 17c3 00       		.byte	0
 4880 17c4 1D       		.uleb128 0x1d
 4881 17c5 34000000 		.4byte	.LVL21
 4882 17c9 93280000 		.4byte	0x2893
 4883 17cd 1E       		.uleb128 0x1e
 4884 17ce 01       		.uleb128 0x1
 4885 17cf 53       		.byte	0x53
 4886 17d0 01       		.uleb128 0x1
 4887 17d1 30       		.byte	0x30
 4888 17d2 1E       		.uleb128 0x1e
 4889 17d3 01       		.uleb128 0x1
 4890 17d4 52       		.byte	0x52
 4891 17d5 02       		.uleb128 0x2
 4892 17d6 91       		.byte	0x91
 4893 17d7 58       		.sleb128 -40
 4894 17d8 1E       		.uleb128 0x1e
 4895 17d9 01       		.uleb128 0x1
 4896 17da 51       		.byte	0x51
 4897 17db 01       		.uleb128 0x1
 4898 17dc 3C       		.byte	0x3c
 4899 17dd 1E       		.uleb128 0x1e
 4900 17de 01       		.uleb128 0x1
 4901 17df 50       		.byte	0x50
 4902 17e0 01       		.uleb128 0x1
 4903 17e1 3F       		.byte	0x3f
 4904 17e2 1E       		.uleb128 0x1e
 4905 17e3 02       		.uleb128 0x2
 4906 17e4 7D       		.byte	0x7d
 4907 17e5 00       		.sleb128 0
 4908 17e6 01       		.uleb128 0x1
 4909 17e7 30       		.byte	0x30
 4910 17e8 00       		.byte	0
 4911 17e9 00       		.byte	0
 4912 17ea 25       		.uleb128 0x25
 4913 17eb A30C0000 		.4byte	.LASF712
 4914 17ef 01       		.byte	0x1
 4915 17f0 D2       		.byte	0xd2
 4916 17f1 00000000 		.4byte	.LFB7
 4917 17f5 78000000 		.4byte	.LFE7-.LFB7
 4918 17f9 01       		.uleb128 0x1
 4919 17fa 9C       		.byte	0x9c
 4920 17fb A6180000 		.4byte	0x18a6
 4921 17ff 26       		.uleb128 0x26
 4922 1800 BF030000 		.4byte	.LASF714
 4923 1804 01       		.byte	0x1
 4924 1805 D2       		.byte	0xd2
 4925 1806 A2000000 		.4byte	0xa2
 4926 180a 21000000 		.4byte	.LLST1
 4927 180e 26       		.uleb128 0x26
 4928 180f CB2E0000 		.4byte	.LASF715
ARM GAS  C:\Users\AHMED~1.ELE\AppData\Local\Temp\ccWMHy5f.s 			page 103


 4929 1813 01       		.byte	0x1
 4930 1814 D2       		.byte	0xd2
 4931 1815 CE000000 		.4byte	0xce
 4932 1819 51000000 		.4byte	.LLST2
 4933 181d 26       		.uleb128 0x26
 4934 181e 35260000 		.4byte	.LASF716
 4935 1822 01       		.byte	0x1
 4936 1823 D2       		.byte	0xd2
 4937 1824 AD000000 		.4byte	0xad
 4938 1828 7D000000 		.4byte	.LLST3
 4939 182c 28       		.uleb128 0x28
 4940 182d 5D300000 		.4byte	.LASF717
 4941 1831 01       		.byte	0x1
 4942 1832 D4       		.byte	0xd4
 4943 1833 AD000000 		.4byte	0xad
 4944 1837 B4000000 		.4byte	.LLST4
 4945 183b 20       		.uleb128 0x20
 4946 183c 2A000000 		.4byte	.LVL27
 4947 1840 F5280000 		.4byte	0x28f5
 4948 1844 5F180000 		.4byte	0x185f
 4949 1848 1E       		.uleb128 0x1e
 4950 1849 01       		.uleb128 0x1
 4951 184a 52       		.byte	0x52
 4952 184b 01       		.uleb128 0x1
 4953 184c 32       		.byte	0x32
 4954 184d 1E       		.uleb128 0x1e
 4955 184e 01       		.uleb128 0x1
 4956 184f 51       		.byte	0x51
 4957 1850 02       		.uleb128 0x2
 4958 1851 91       		.byte	0x91
 4959 1852 5E       		.sleb128 -34
 4960 1853 1E       		.uleb128 0x1e
 4961 1854 01       		.uleb128 0x1
 4962 1855 50       		.byte	0x50
 4963 1856 07       		.uleb128 0x7
 4964 1857 77       		.byte	0x77
 4965 1858 00       		.sleb128 0
 4966 1859 75       		.byte	0x75
 4967 185a 00       		.sleb128 0
 4968 185b 22       		.byte	0x22
 4969 185c 23       		.byte	0x23
 4970 185d 01       		.uleb128 0x1
 4971 185e 00       		.byte	0
 4972 185f 20       		.uleb128 0x20
 4973 1860 38000000 		.4byte	.LVL28
 4974 1864 F5280000 		.4byte	0x28f5
 4975 1868 7E180000 		.4byte	0x187e
 4976 186c 1E       		.uleb128 0x1e
 4977 186d 01       		.uleb128 0x1
 4978 186e 51       		.byte	0x51
 4979 186f 02       		.uleb128 0x2
 4980 1870 79       		.byte	0x79
 4981 1871 00       		.sleb128 0
 4982 1872 1E       		.uleb128 0x1e
 4983 1873 01       		.uleb128 0x1
 4984 1874 50       		.byte	0x50
 4985 1875 07       		.uleb128 0x7
ARM GAS  C:\Users\AHMED~1.ELE\AppData\Local\Temp\ccWMHy5f.s 			page 104


 4986 1876 77       		.byte	0x77
 4987 1877 00       		.sleb128 0
 4988 1878 75       		.byte	0x75
 4989 1879 00       		.sleb128 0
 4990 187a 22       		.byte	0x22
 4991 187b 23       		.byte	0x23
 4992 187c 03       		.uleb128 0x3
 4993 187d 00       		.byte	0
 4994 187e 1D       		.uleb128 0x1d
 4995 187f 58000000 		.4byte	.LVL29
 4996 1883 93280000 		.4byte	0x2893
 4997 1887 1E       		.uleb128 0x1e
 4998 1888 01       		.uleb128 0x1
 4999 1889 53       		.byte	0x53
 5000 188a 02       		.uleb128 0x2
 5001 188b 77       		.byte	0x77
 5002 188c 00       		.sleb128 0
 5003 188d 1E       		.uleb128 0x1e
 5004 188e 01       		.uleb128 0x1
 5005 188f 51       		.byte	0x51
 5006 1890 01       		.uleb128 0x1
 5007 1891 42       		.byte	0x42
 5008 1892 1E       		.uleb128 0x1e
 5009 1893 01       		.uleb128 0x1
 5010 1894 50       		.byte	0x50
 5011 1895 01       		.uleb128 0x1
 5012 1896 3F       		.byte	0x3f
 5013 1897 1E       		.uleb128 0x1e
 5014 1898 02       		.uleb128 0x2
 5015 1899 7D       		.byte	0x7d
 5016 189a 00       		.sleb128 0
 5017 189b 08       		.uleb128 0x8
 5018 189c 74       		.byte	0x74
 5019 189d 01       		.sleb128 1
 5020 189e 08       		.byte	0x8
 5021 189f FF       		.byte	0xff
 5022 18a0 1A       		.byte	0x1a
 5023 18a1 78       		.byte	0x78
 5024 18a2 00       		.sleb128 0
 5025 18a3 1E       		.byte	0x1e
 5026 18a4 00       		.byte	0
 5027 18a5 00       		.byte	0
 5028 18a6 25       		.uleb128 0x25
 5029 18a7 E9290000 		.4byte	.LASF718
 5030 18ab 01       		.byte	0x1
 5031 18ac E9       		.byte	0xe9
 5032 18ad 00000000 		.4byte	.LFB8
 5033 18b1 44010000 		.4byte	.LFE8-.LFB8
 5034 18b5 01       		.uleb128 0x1
 5035 18b6 9C       		.byte	0x9c
 5036 18b7 181A0000 		.4byte	0x1a18
 5037 18bb 28       		.uleb128 0x28
 5038 18bc 78230000 		.4byte	.LASF719
 5039 18c0 01       		.byte	0x1
 5040 18c1 EB       		.byte	0xeb
 5041 18c2 25000000 		.4byte	0x25
 5042 18c6 CF000000 		.4byte	.LLST5
ARM GAS  C:\Users\AHMED~1.ELE\AppData\Local\Temp\ccWMHy5f.s 			page 105


 5043 18ca 29       		.uleb128 0x29
 5044 18cb 6C656E00 		.ascii	"len\000"
 5045 18cf 01       		.byte	0x1
 5046 18d0 EB       		.byte	0xeb
 5047 18d1 25000000 		.4byte	0x25
 5048 18d5 ED000000 		.4byte	.LLST6
 5049 18d9 27       		.uleb128 0x27
 5050 18da 48040000 		.4byte	.LASF720
 5051 18de 01       		.byte	0x1
 5052 18df EC       		.byte	0xec
 5053 18e0 A2000000 		.4byte	0xa2
 5054 18e4 02       		.uleb128 0x2
 5055 18e5 91       		.byte	0x91
 5056 18e6 5F       		.sleb128 -33
 5057 18e7 23       		.uleb128 0x23
 5058 18e8 0A000000 		.4byte	.LVL31
 5059 18ec 22150000 		.4byte	0x1522
 5060 18f0 23       		.uleb128 0x23
 5061 18f1 30000000 		.4byte	.LVL32
 5062 18f5 62140000 		.4byte	0x1462
 5063 18f9 20       		.uleb128 0x20
 5064 18fa 4A000000 		.4byte	.LVL33
 5065 18fe 93280000 		.4byte	0x2893
 5066 1902 11190000 		.4byte	0x1911
 5067 1906 1E       		.uleb128 0x1e
 5068 1907 01       		.uleb128 0x1
 5069 1908 51       		.byte	0x51
 5070 1909 01       		.uleb128 0x1
 5071 190a 42       		.byte	0x42
 5072 190b 1E       		.uleb128 0x1e
 5073 190c 01       		.uleb128 0x1
 5074 190d 50       		.byte	0x50
 5075 190e 01       		.uleb128 0x1
 5076 190f 3F       		.byte	0x3f
 5077 1910 00       		.byte	0
 5078 1911 23       		.uleb128 0x23
 5079 1912 60000000 		.4byte	.LVL34
 5080 1916 5A140000 		.4byte	0x145a
 5081 191a 20       		.uleb128 0x20
 5082 191b 70000000 		.4byte	.LVL35
 5083 191f 93280000 		.4byte	0x2893
 5084 1923 3F190000 		.4byte	0x193f
 5085 1927 1E       		.uleb128 0x1e
 5086 1928 01       		.uleb128 0x1
 5087 1929 53       		.byte	0x53
 5088 192a 02       		.uleb128 0x2
 5089 192b 76       		.byte	0x76
 5090 192c 00       		.sleb128 0
 5091 192d 1E       		.uleb128 0x1e
 5092 192e 01       		.uleb128 0x1
 5093 192f 51       		.byte	0x51
 5094 1930 01       		.uleb128 0x1
 5095 1931 3F       		.byte	0x3f
 5096 1932 1E       		.uleb128 0x1e
 5097 1933 01       		.uleb128 0x1
 5098 1934 50       		.byte	0x50
 5099 1935 01       		.uleb128 0x1
ARM GAS  C:\Users\AHMED~1.ELE\AppData\Local\Temp\ccWMHy5f.s 			page 106


 5100 1936 3F       		.byte	0x3f
 5101 1937 1E       		.uleb128 0x1e
 5102 1938 02       		.uleb128 0x2
 5103 1939 7D       		.byte	0x7d
 5104 193a 00       		.sleb128 0
 5105 193b 02       		.uleb128 0x2
 5106 193c 76       		.byte	0x76
 5107 193d 00       		.sleb128 0
 5108 193e 00       		.byte	0
 5109 193f 20       		.uleb128 0x20
 5110 1940 80000000 		.4byte	.LVL38
 5111 1944 93280000 		.4byte	0x2893
 5112 1948 64190000 		.4byte	0x1964
 5113 194c 1E       		.uleb128 0x1e
 5114 194d 01       		.uleb128 0x1
 5115 194e 53       		.byte	0x53
 5116 194f 02       		.uleb128 0x2
 5117 1950 76       		.byte	0x76
 5118 1951 00       		.sleb128 0
 5119 1952 1E       		.uleb128 0x1e
 5120 1953 01       		.uleb128 0x1
 5121 1954 51       		.byte	0x51
 5122 1955 01       		.uleb128 0x1
 5123 1956 40       		.byte	0x40
 5124 1957 1E       		.uleb128 0x1e
 5125 1958 01       		.uleb128 0x1
 5126 1959 50       		.byte	0x50
 5127 195a 01       		.uleb128 0x1
 5128 195b 3F       		.byte	0x3f
 5129 195c 1E       		.uleb128 0x1e
 5130 195d 02       		.uleb128 0x2
 5131 195e 7D       		.byte	0x7d
 5132 195f 00       		.sleb128 0
 5133 1960 02       		.uleb128 0x2
 5134 1961 76       		.byte	0x76
 5135 1962 00       		.sleb128 0
 5136 1963 00       		.byte	0
 5137 1964 20       		.uleb128 0x20
 5138 1965 9C000000 		.4byte	.LVL40
 5139 1969 93280000 		.4byte	0x2893
 5140 196d 88190000 		.4byte	0x1988
 5141 1971 1E       		.uleb128 0x1e
 5142 1972 01       		.uleb128 0x1
 5143 1973 53       		.byte	0x53
 5144 1974 02       		.uleb128 0x2
 5145 1975 91       		.byte	0x91
 5146 1976 5F       		.sleb128 -33
 5147 1977 1E       		.uleb128 0x1e
 5148 1978 01       		.uleb128 0x1
 5149 1979 51       		.byte	0x51
 5150 197a 01       		.uleb128 0x1
 5151 197b 41       		.byte	0x41
 5152 197c 1E       		.uleb128 0x1e
 5153 197d 01       		.uleb128 0x1
 5154 197e 50       		.byte	0x50
 5155 197f 01       		.uleb128 0x1
 5156 1980 3F       		.byte	0x3f
ARM GAS  C:\Users\AHMED~1.ELE\AppData\Local\Temp\ccWMHy5f.s 			page 107


 5157 1981 1E       		.uleb128 0x1e
 5158 1982 02       		.uleb128 0x2
 5159 1983 7D       		.byte	0x7d
 5160 1984 00       		.sleb128 0
 5161 1985 01       		.uleb128 0x1
 5162 1986 31       		.byte	0x31
 5163 1987 00       		.byte	0
 5164 1988 20       		.uleb128 0x20
 5165 1989 AC000000 		.4byte	.LVL41
 5166 198d 93280000 		.4byte	0x2893
 5167 1991 A6190000 		.4byte	0x19a6
 5168 1995 1E       		.uleb128 0x1e
 5169 1996 01       		.uleb128 0x1
 5170 1997 51       		.byte	0x51
 5171 1998 01       		.uleb128 0x1
 5172 1999 41       		.byte	0x41
 5173 199a 1E       		.uleb128 0x1e
 5174 199b 01       		.uleb128 0x1
 5175 199c 50       		.byte	0x50
 5176 199d 01       		.uleb128 0x1
 5177 199e 3F       		.byte	0x3f
 5178 199f 1E       		.uleb128 0x1e
 5179 19a0 02       		.uleb128 0x2
 5180 19a1 7D       		.byte	0x7d
 5181 19a2 00       		.sleb128 0
 5182 19a3 01       		.uleb128 0x1
 5183 19a4 32       		.byte	0x32
 5184 19a5 00       		.byte	0
 5185 19a6 20       		.uleb128 0x20
 5186 19a7 C0000000 		.4byte	.LVL42
 5187 19ab 93280000 		.4byte	0x2893
 5188 19af C5190000 		.4byte	0x19c5
 5189 19b3 1E       		.uleb128 0x1e
 5190 19b4 01       		.uleb128 0x1
 5191 19b5 51       		.byte	0x51
 5192 19b6 01       		.uleb128 0x1
 5193 19b7 41       		.byte	0x41
 5194 19b8 1E       		.uleb128 0x1e
 5195 19b9 01       		.uleb128 0x1
 5196 19ba 50       		.byte	0x50
 5197 19bb 01       		.uleb128 0x1
 5198 19bc 3F       		.byte	0x3f
 5199 19bd 1E       		.uleb128 0x1e
 5200 19be 02       		.uleb128 0x2
 5201 19bf 7D       		.byte	0x7d
 5202 19c0 00       		.sleb128 0
 5203 19c1 02       		.uleb128 0x2
 5204 19c2 79       		.byte	0x79
 5205 19c3 7E       		.sleb128 -2
 5206 19c4 00       		.byte	0
 5207 19c5 20       		.uleb128 0x20
 5208 19c6 E0000000 		.4byte	.LVL43
 5209 19ca 93280000 		.4byte	0x2893
 5210 19ce DE190000 		.4byte	0x19de
 5211 19d2 1E       		.uleb128 0x1e
 5212 19d3 01       		.uleb128 0x1
 5213 19d4 51       		.byte	0x51
ARM GAS  C:\Users\AHMED~1.ELE\AppData\Local\Temp\ccWMHy5f.s 			page 108


 5214 19d5 01       		.uleb128 0x1
 5215 19d6 30       		.byte	0x30
 5216 19d7 1E       		.uleb128 0x1e
 5217 19d8 01       		.uleb128 0x1
 5218 19d9 50       		.byte	0x50
 5219 19da 02       		.uleb128 0x2
 5220 19db 08       		.byte	0x8
 5221 19dc 64       		.byte	0x64
 5222 19dd 00       		.byte	0
 5223 19de 20       		.uleb128 0x20
 5224 19df 0E010000 		.4byte	.LVL45
 5225 19e3 93280000 		.4byte	0x2893
 5226 19e7 FC190000 		.4byte	0x19fc
 5227 19eb 1E       		.uleb128 0x1e
 5228 19ec 01       		.uleb128 0x1
 5229 19ed 52       		.byte	0x52
 5230 19ee 01       		.uleb128 0x1
 5231 19ef 35       		.byte	0x35
 5232 19f0 1E       		.uleb128 0x1e
 5233 19f1 01       		.uleb128 0x1
 5234 19f2 51       		.byte	0x51
 5235 19f3 01       		.uleb128 0x1
 5236 19f4 30       		.byte	0x30
 5237 19f5 1E       		.uleb128 0x1e
 5238 19f6 01       		.uleb128 0x1
 5239 19f7 50       		.byte	0x50
 5240 19f8 02       		.uleb128 0x2
 5241 19f9 08       		.byte	0x8
 5242 19fa 64       		.byte	0x64
 5243 19fb 00       		.byte	0
 5244 19fc 23       		.uleb128 0x23
 5245 19fd 2E010000 		.4byte	.LVL46
 5246 1a01 5A140000 		.4byte	0x145a
 5247 1a05 23       		.uleb128 0x23
 5248 1a06 32010000 		.4byte	.LVL47
 5249 1a0a 61170000 		.4byte	0x1761
 5250 1a0e 23       		.uleb128 0x23
 5251 1a0f 36010000 		.4byte	.LVL48
 5252 1a13 52150000 		.4byte	0x1552
 5253 1a17 00       		.byte	0
 5254 1a18 22       		.uleb128 0x22
 5255 1a19 6A140000 		.4byte	0x146a
 5256 1a1d 00000000 		.4byte	.LFB10
 5257 1a21 44000000 		.4byte	.LFE10-.LFB10
 5258 1a25 01       		.uleb128 0x1
 5259 1a26 9C       		.byte	0x9c
 5260 1a27 891A0000 		.4byte	0x1a89
 5261 1a2b 2A       		.uleb128 0x2a
 5262 1a2c 7B140000 		.4byte	0x147b
 5263 1a30 00010000 		.4byte	.LLST7
 5264 1a34 2A       		.uleb128 0x2a
 5265 1a35 87140000 		.4byte	0x1487
 5266 1a39 2C010000 		.4byte	.LLST8
 5267 1a3d 2B       		.uleb128 0x2b
 5268 1a3e 2A000000 		.4byte	.LBB14
 5269 1a42 12000000 		.4byte	.LBE14-.LBB14
 5270 1a46 6E1A0000 		.4byte	0x1a6e
ARM GAS  C:\Users\AHMED~1.ELE\AppData\Local\Temp\ccWMHy5f.s 			page 109


 5271 1a4a 2C       		.uleb128 0x2c
 5272 1a4b 87140000 		.4byte	0x1487
 5273 1a4f 2A       		.uleb128 0x2a
 5274 1a50 7B140000 		.4byte	0x147b
 5275 1a54 4D010000 		.4byte	.LLST9
 5276 1a58 1D       		.uleb128 0x1d
 5277 1a59 3A000000 		.4byte	.LVL54
 5278 1a5d F5280000 		.4byte	0x28f5
 5279 1a61 1E       		.uleb128 0x1e
 5280 1a62 01       		.uleb128 0x1
 5281 1a63 52       		.byte	0x52
 5282 1a64 01       		.uleb128 0x1
 5283 1a65 3C       		.byte	0x3c
 5284 1a66 1E       		.uleb128 0x1e
 5285 1a67 01       		.uleb128 0x1
 5286 1a68 50       		.byte	0x50
 5287 1a69 02       		.uleb128 0x2
 5288 1a6a 76       		.byte	0x76
 5289 1a6b 00       		.sleb128 0
 5290 1a6c 00       		.byte	0
 5291 1a6d 00       		.byte	0
 5292 1a6e 1D       		.uleb128 0x1d
 5293 1a6f 26000000 		.4byte	.LVL52
 5294 1a73 93280000 		.4byte	0x2893
 5295 1a77 1E       		.uleb128 0x1e
 5296 1a78 01       		.uleb128 0x1
 5297 1a79 52       		.byte	0x52
 5298 1a7a 01       		.uleb128 0x1
 5299 1a7b 3A       		.byte	0x3a
 5300 1a7c 1E       		.uleb128 0x1e
 5301 1a7d 01       		.uleb128 0x1
 5302 1a7e 51       		.byte	0x51
 5303 1a7f 01       		.uleb128 0x1
 5304 1a80 30       		.byte	0x30
 5305 1a81 1E       		.uleb128 0x1e
 5306 1a82 01       		.uleb128 0x1
 5307 1a83 50       		.byte	0x50
 5308 1a84 02       		.uleb128 0x2
 5309 1a85 08       		.byte	0x8
 5310 1a86 64       		.byte	0x64
 5311 1a87 00       		.byte	0
 5312 1a88 00       		.byte	0
 5313 1a89 16       		.uleb128 0x16
 5314 1a8a 79310000 		.4byte	.LASF721
 5315 1a8e 01       		.byte	0x1
 5316 1a8f 2101     		.2byte	0x121
 5317 1a91 97000000 		.4byte	0x97
 5318 1a95 01       		.byte	0x1
 5319 1a96 B31A0000 		.4byte	0x1ab3
 5320 1a9a 17       		.uleb128 0x17
 5321 1a9b 1E300000 		.4byte	.LASF722
 5322 1a9f 01       		.byte	0x1
 5323 1aa0 2101     		.2byte	0x121
 5324 1aa2 B31A0000 		.4byte	0x1ab3
 5325 1aa6 17       		.uleb128 0x17
 5326 1aa7 EC050000 		.4byte	.LASF704
 5327 1aab 01       		.byte	0x1
ARM GAS  C:\Users\AHMED~1.ELE\AppData\Local\Temp\ccWMHy5f.s 			page 110


 5328 1aac 2101     		.2byte	0x121
 5329 1aae B8000000 		.4byte	0xb8
 5330 1ab2 00       		.byte	0
 5331 1ab3 06       		.uleb128 0x6
 5332 1ab4 04       		.byte	0x4
 5333 1ab5 09130000 		.4byte	0x1309
 5334 1ab9 2D       		.uleb128 0x2d
 5335 1aba 4A0B0000 		.4byte	.LASF724
 5336 1abe 01       		.byte	0x1
 5337 1abf 4802     		.2byte	0x248
 5338 1ac1 97000000 		.4byte	0x97
 5339 1ac5 00000000 		.4byte	.LFB13
 5340 1ac9 5C060000 		.4byte	.LFE13-.LFB13
 5341 1acd 01       		.uleb128 0x1
 5342 1ace 9C       		.byte	0x9c
 5343 1acf F8260000 		.4byte	0x26f8
 5344 1ad3 2E       		.uleb128 0x2e
 5345 1ad4 F60A0000 		.4byte	.LASF694
 5346 1ad8 01       		.byte	0x1
 5347 1ad9 4802     		.2byte	0x248
 5348 1adb 97000000 		.4byte	0x97
 5349 1adf 60010000 		.4byte	.LLST10
 5350 1ae3 2E       		.uleb128 0x2e
 5351 1ae4 5B030000 		.4byte	.LASF695
 5352 1ae8 01       		.byte	0x1
 5353 1ae9 4802     		.2byte	0x248
 5354 1aeb 97000000 		.4byte	0x97
 5355 1aef 81010000 		.4byte	.LLST11
 5356 1af3 2F       		.uleb128 0x2f
 5357 1af4 C10E0000 		.4byte	.LASF696
 5358 1af8 01       		.byte	0x1
 5359 1af9 4A02     		.2byte	0x24a
 5360 1afb 97000000 		.4byte	0x97
 5361 1aff A2010000 		.4byte	.LLST12
 5362 1b03 30       		.uleb128 0x30
 5363 1b04 6900     		.ascii	"i\000"
 5364 1b06 01       		.byte	0x1
 5365 1b07 4B02     		.2byte	0x24b
 5366 1b09 25000000 		.4byte	0x25
 5367 1b0d D7010000 		.4byte	.LLST13
 5368 1b11 2F       		.uleb128 0x2f
 5369 1b12 17210000 		.4byte	.LASF723
 5370 1b16 01       		.byte	0x1
 5371 1b17 4C02     		.2byte	0x24c
 5372 1b19 09130000 		.4byte	0x1309
 5373 1b1d 01020000 		.4byte	.LLST14
 5374 1b21 31       		.uleb128 0x31
 5375 1b22 D0130000 		.4byte	0x13d0
 5376 1b26 12000000 		.4byte	.LBB22
 5377 1b2a 00000000 		.4byte	.Ldebug_ranges0+0
 5378 1b2e 01       		.byte	0x1
 5379 1b2f 5602     		.2byte	0x256
 5380 1b31 EC230000 		.4byte	0x23ec
 5381 1b35 2A       		.uleb128 0x2a
 5382 1b36 ED130000 		.4byte	0x13ed
 5383 1b3a 19020000 		.4byte	.LLST15
 5384 1b3e 2C       		.uleb128 0x2c
ARM GAS  C:\Users\AHMED~1.ELE\AppData\Local\Temp\ccWMHy5f.s 			page 111


 5385 1b3f F9130000 		.4byte	0x13f9
 5386 1b43 32       		.uleb128 0x32
 5387 1b44 E1130000 		.4byte	0x13e1
 5388 1b48 03       		.uleb128 0x3
 5389 1b49 91       		.byte	0x91
 5390 1b4a C07B     		.sleb128 -576
 5391 1b4c 33       		.uleb128 0x33
 5392 1b4d 00000000 		.4byte	.Ldebug_ranges0+0
 5393 1b51 34       		.uleb128 0x34
 5394 1b52 05140000 		.4byte	0x1405
 5395 1b56 2F020000 		.4byte	.LLST16
 5396 1b5a 34       		.uleb128 0x34
 5397 1b5b 11140000 		.4byte	0x1411
 5398 1b5f 5A020000 		.4byte	.LLST17
 5399 1b63 35       		.uleb128 0x35
 5400 1b64 1D140000 		.4byte	0x141d
 5401 1b68 03       		.uleb128 0x3
 5402 1b69 91       		.byte	0x91
 5403 1b6a A876     		.sleb128 -1240
 5404 1b6c 35       		.uleb128 0x35
 5405 1b6d 29140000 		.4byte	0x1429
 5406 1b71 03       		.uleb128 0x3
 5407 1b72 91       		.byte	0x91
 5408 1b73 E876     		.sleb128 -1176
 5409 1b75 34       		.uleb128 0x34
 5410 1b76 35140000 		.4byte	0x1435
 5411 1b7a 83020000 		.4byte	.LLST18
 5412 1b7e 34       		.uleb128 0x34
 5413 1b7f 41140000 		.4byte	0x1441
 5414 1b83 B9020000 		.4byte	.LLST19
 5415 1b87 35       		.uleb128 0x35
 5416 1b88 4D140000 		.4byte	0x144d
 5417 1b8c 03       		.uleb128 0x3
 5418 1b8d 91       		.byte	0x91
 5419 1b8e 9C76     		.sleb128 -1252
 5420 1b90 20       		.uleb128 0x20
 5421 1b91 8A000000 		.4byte	.LVL68
 5422 1b95 21280000 		.4byte	0x2821
 5423 1b99 AB1B0000 		.4byte	0x1bab
 5424 1b9d 1E       		.uleb128 0x1e
 5425 1b9e 01       		.uleb128 0x1
 5426 1b9f 51       		.byte	0x51
 5427 1ba0 03       		.uleb128 0x3
 5428 1ba1 0A       		.byte	0xa
 5429 1ba2 0004     		.2byte	0x400
 5430 1ba4 1E       		.uleb128 0x1e
 5431 1ba5 01       		.uleb128 0x1
 5432 1ba6 50       		.byte	0x50
 5433 1ba7 02       		.uleb128 0x2
 5434 1ba8 08       		.byte	0x8
 5435 1ba9 92       		.byte	0x92
 5436 1baa 00       		.byte	0
 5437 1bab 20       		.uleb128 0x20
 5438 1bac A2000000 		.4byte	.LVL71
 5439 1bb0 12290000 		.4byte	0x2912
 5440 1bb4 CE1B0000 		.4byte	0x1bce
 5441 1bb8 1E       		.uleb128 0x1e
ARM GAS  C:\Users\AHMED~1.ELE\AppData\Local\Temp\ccWMHy5f.s 			page 112


 5442 1bb9 01       		.uleb128 0x1
 5443 1bba 52       		.byte	0x52
 5444 1bbb 03       		.uleb128 0x3
 5445 1bbc 0B       		.byte	0xb
 5446 1bbd 069F     		.2byte	0x9f06
 5447 1bbf 1E       		.uleb128 0x1e
 5448 1bc0 01       		.uleb128 0x1
 5449 1bc1 51       		.byte	0x51
 5450 1bc2 03       		.uleb128 0x3
 5451 1bc3 91       		.byte	0x91
 5452 1bc4 D77B     		.sleb128 -553
 5453 1bc6 1E       		.uleb128 0x1e
 5454 1bc7 01       		.uleb128 0x1
 5455 1bc8 50       		.byte	0x50
 5456 1bc9 03       		.uleb128 0x3
 5457 1bca 91       		.byte	0x91
 5458 1bcb A876     		.sleb128 -1240
 5459 1bcd 00       		.byte	0
 5460 1bce 20       		.uleb128 0x20
 5461 1bcf AE000000 		.4byte	.LVL72
 5462 1bd3 76280000 		.4byte	0x2876
 5463 1bd7 EE1B0000 		.4byte	0x1bee
 5464 1bdb 1E       		.uleb128 0x1e
 5465 1bdc 01       		.uleb128 0x1
 5466 1bdd 52       		.byte	0x52
 5467 1bde 02       		.uleb128 0x2
 5468 1bdf 08       		.byte	0x8
 5469 1be0 40       		.byte	0x40
 5470 1be1 1E       		.uleb128 0x1e
 5471 1be2 01       		.uleb128 0x1
 5472 1be3 51       		.byte	0x51
 5473 1be4 01       		.uleb128 0x1
 5474 1be5 30       		.byte	0x30
 5475 1be6 1E       		.uleb128 0x1e
 5476 1be7 01       		.uleb128 0x1
 5477 1be8 50       		.byte	0x50
 5478 1be9 03       		.uleb128 0x3
 5479 1bea 91       		.byte	0x91
 5480 1beb E876     		.sleb128 -1176
 5481 1bed 00       		.byte	0
 5482 1bee 20       		.uleb128 0x20
 5483 1bef BC000000 		.4byte	.LVL73
 5484 1bf3 31290000 		.4byte	0x2931
 5485 1bf7 0A1C0000 		.4byte	0x1c0a
 5486 1bfb 1E       		.uleb128 0x1e
 5487 1bfc 01       		.uleb128 0x1
 5488 1bfd 51       		.byte	0x51
 5489 1bfe 03       		.uleb128 0x3
 5490 1bff 91       		.byte	0x91
 5491 1c00 A976     		.sleb128 -1239
 5492 1c02 1E       		.uleb128 0x1e
 5493 1c03 01       		.uleb128 0x1
 5494 1c04 50       		.byte	0x50
 5495 1c05 03       		.uleb128 0x3
 5496 1c06 91       		.byte	0x91
 5497 1c07 E876     		.sleb128 -1176
 5498 1c09 00       		.byte	0
ARM GAS  C:\Users\AHMED~1.ELE\AppData\Local\Temp\ccWMHy5f.s 			page 113


 5499 1c0a 20       		.uleb128 0x20
 5500 1c0b C4000000 		.4byte	.LVL74
 5501 1c0f DB280000 		.4byte	0x28db
 5502 1c13 271C0000 		.4byte	0x1c27
 5503 1c17 1E       		.uleb128 0x1e
 5504 1c18 01       		.uleb128 0x1
 5505 1c19 51       		.byte	0x51
 5506 1c1a 05       		.uleb128 0x5
 5507 1c1b 03       		.byte	0x3
 5508 1c1c 22000000 		.4byte	.LC1
 5509 1c20 1E       		.uleb128 0x1e
 5510 1c21 01       		.uleb128 0x1
 5511 1c22 50       		.byte	0x50
 5512 1c23 02       		.uleb128 0x2
 5513 1c24 75       		.byte	0x75
 5514 1c25 00       		.sleb128 0
 5515 1c26 00       		.byte	0
 5516 1c27 20       		.uleb128 0x20
 5517 1c28 CE000000 		.4byte	.LVL75
 5518 1c2c 4C290000 		.4byte	0x294c
 5519 1c30 481C0000 		.4byte	0x1c48
 5520 1c34 1E       		.uleb128 0x1e
 5521 1c35 01       		.uleb128 0x1
 5522 1c36 52       		.byte	0x52
 5523 1c37 02       		.uleb128 0x2
 5524 1c38 76       		.byte	0x76
 5525 1c39 00       		.sleb128 0
 5526 1c3a 1E       		.uleb128 0x1e
 5527 1c3b 01       		.uleb128 0x1
 5528 1c3c 51       		.byte	0x51
 5529 1c3d 03       		.uleb128 0x3
 5530 1c3e 91       		.byte	0x91
 5531 1c3f E876     		.sleb128 -1176
 5532 1c41 1E       		.uleb128 0x1e
 5533 1c42 01       		.uleb128 0x1
 5534 1c43 50       		.byte	0x50
 5535 1c44 02       		.uleb128 0x2
 5536 1c45 75       		.byte	0x75
 5537 1c46 00       		.sleb128 0
 5538 1c47 00       		.byte	0
 5539 1c48 20       		.uleb128 0x20
 5540 1c49 F2000000 		.4byte	.LVL80
 5541 1c4d 6B290000 		.4byte	0x296b
 5542 1c51 651C0000 		.4byte	0x1c65
 5543 1c55 1E       		.uleb128 0x1e
 5544 1c56 01       		.uleb128 0x1
 5545 1c57 51       		.byte	0x51
 5546 1c58 05       		.uleb128 0x5
 5547 1c59 03       		.byte	0x3
 5548 1c5a 28000000 		.4byte	.LC2
 5549 1c5e 1E       		.uleb128 0x1e
 5550 1c5f 01       		.uleb128 0x1
 5551 1c60 50       		.byte	0x50
 5552 1c61 02       		.uleb128 0x2
 5553 1c62 7B       		.byte	0x7b
 5554 1c63 00       		.sleb128 0
 5555 1c64 00       		.byte	0
ARM GAS  C:\Users\AHMED~1.ELE\AppData\Local\Temp\ccWMHy5f.s 			page 114


 5556 1c65 20       		.uleb128 0x20
 5557 1c66 FC000000 		.4byte	.LVL81
 5558 1c6a 76280000 		.4byte	0x2876
 5559 1c6e 851C0000 		.4byte	0x1c85
 5560 1c72 1E       		.uleb128 0x1e
 5561 1c73 01       		.uleb128 0x1
 5562 1c74 52       		.byte	0x52
 5563 1c75 02       		.uleb128 0x2
 5564 1c76 08       		.byte	0x8
 5565 1c77 40       		.byte	0x40
 5566 1c78 1E       		.uleb128 0x1e
 5567 1c79 01       		.uleb128 0x1
 5568 1c7a 51       		.byte	0x51
 5569 1c7b 01       		.uleb128 0x1
 5570 1c7c 30       		.byte	0x30
 5571 1c7d 1E       		.uleb128 0x1e
 5572 1c7e 01       		.uleb128 0x1
 5573 1c7f 50       		.byte	0x50
 5574 1c80 03       		.uleb128 0x3
 5575 1c81 91       		.byte	0x91
 5576 1c82 E876     		.sleb128 -1176
 5577 1c84 00       		.byte	0
 5578 1c85 20       		.uleb128 0x20
 5579 1c86 08010000 		.4byte	.LVL82
 5580 1c8a 12290000 		.4byte	0x2912
 5581 1c8e A71C0000 		.4byte	0x1ca7
 5582 1c92 1E       		.uleb128 0x1e
 5583 1c93 01       		.uleb128 0x1
 5584 1c94 52       		.byte	0x52
 5585 1c95 03       		.uleb128 0x3
 5586 1c96 0B       		.byte	0xb
 5587 1c97 099F     		.2byte	0x9f09
 5588 1c99 1E       		.uleb128 0x1e
 5589 1c9a 01       		.uleb128 0x1
 5590 1c9b 51       		.byte	0x51
 5591 1c9c 02       		.uleb128 0x2
 5592 1c9d 7A       		.byte	0x7a
 5593 1c9e 00       		.sleb128 0
 5594 1c9f 1E       		.uleb128 0x1e
 5595 1ca0 01       		.uleb128 0x1
 5596 1ca1 50       		.byte	0x50
 5597 1ca2 03       		.uleb128 0x3
 5598 1ca3 91       		.byte	0x91
 5599 1ca4 A876     		.sleb128 -1240
 5600 1ca6 00       		.byte	0
 5601 1ca7 20       		.uleb128 0x20
 5602 1ca8 12010000 		.4byte	.LVL83
 5603 1cac DB280000 		.4byte	0x28db
 5604 1cb0 C51C0000 		.4byte	0x1cc5
 5605 1cb4 1E       		.uleb128 0x1e
 5606 1cb5 01       		.uleb128 0x1
 5607 1cb6 51       		.byte	0x51
 5608 1cb7 05       		.uleb128 0x5
 5609 1cb8 03       		.byte	0x3
 5610 1cb9 34000000 		.4byte	.LC3
 5611 1cbd 1E       		.uleb128 0x1e
 5612 1cbe 01       		.uleb128 0x1
ARM GAS  C:\Users\AHMED~1.ELE\AppData\Local\Temp\ccWMHy5f.s 			page 115


 5613 1cbf 50       		.byte	0x50
 5614 1cc0 03       		.uleb128 0x3
 5615 1cc1 91       		.byte	0x91
 5616 1cc2 E876     		.sleb128 -1176
 5617 1cc4 00       		.byte	0
 5618 1cc5 20       		.uleb128 0x20
 5619 1cc6 18010000 		.4byte	.LVL84
 5620 1cca 86290000 		.4byte	0x2986
 5621 1cce DA1C0000 		.4byte	0x1cda
 5622 1cd2 1E       		.uleb128 0x1e
 5623 1cd3 01       		.uleb128 0x1
 5624 1cd4 50       		.byte	0x50
 5625 1cd5 03       		.uleb128 0x3
 5626 1cd6 91       		.byte	0x91
 5627 1cd7 E876     		.sleb128 -1176
 5628 1cd9 00       		.byte	0
 5629 1cda 20       		.uleb128 0x20
 5630 1cdb 28010000 		.4byte	.LVL85
 5631 1cdf 31290000 		.4byte	0x2931
 5632 1ce3 EF1C0000 		.4byte	0x1cef
 5633 1ce7 1E       		.uleb128 0x1e
 5634 1ce8 01       		.uleb128 0x1
 5635 1ce9 51       		.byte	0x51
 5636 1cea 03       		.uleb128 0x3
 5637 1ceb 91       		.byte	0x91
 5638 1cec A976     		.sleb128 -1239
 5639 1cee 00       		.byte	0
 5640 1cef 20       		.uleb128 0x20
 5641 1cf0 32010000 		.4byte	.LVL86
 5642 1cf4 4C290000 		.4byte	0x294c
 5643 1cf8 101D0000 		.4byte	0x1d10
 5644 1cfc 1E       		.uleb128 0x1e
 5645 1cfd 01       		.uleb128 0x1
 5646 1cfe 52       		.byte	0x52
 5647 1cff 02       		.uleb128 0x2
 5648 1d00 76       		.byte	0x76
 5649 1d01 00       		.sleb128 0
 5650 1d02 1E       		.uleb128 0x1e
 5651 1d03 01       		.uleb128 0x1
 5652 1d04 51       		.byte	0x51
 5653 1d05 03       		.uleb128 0x3
 5654 1d06 91       		.byte	0x91
 5655 1d07 E876     		.sleb128 -1176
 5656 1d09 1E       		.uleb128 0x1e
 5657 1d0a 01       		.uleb128 0x1
 5658 1d0b 50       		.byte	0x50
 5659 1d0c 02       		.uleb128 0x2
 5660 1d0d 7B       		.byte	0x7b
 5661 1d0e 00       		.sleb128 0
 5662 1d0f 00       		.byte	0
 5663 1d10 20       		.uleb128 0x20
 5664 1d11 46010000 		.4byte	.LVL88
 5665 1d15 12290000 		.4byte	0x2912
 5666 1d19 321D0000 		.4byte	0x1d32
 5667 1d1d 1E       		.uleb128 0x1e
 5668 1d1e 01       		.uleb128 0x1
 5669 1d1f 52       		.byte	0x52
ARM GAS  C:\Users\AHMED~1.ELE\AppData\Local\Temp\ccWMHy5f.s 			page 116


 5670 1d20 03       		.uleb128 0x3
 5671 1d21 0B       		.byte	0xb
 5672 1d22 1B9F     		.2byte	0x9f1b
 5673 1d24 1E       		.uleb128 0x1e
 5674 1d25 01       		.uleb128 0x1
 5675 1d26 51       		.byte	0x51
 5676 1d27 02       		.uleb128 0x2
 5677 1d28 7A       		.byte	0x7a
 5678 1d29 00       		.sleb128 0
 5679 1d2a 1E       		.uleb128 0x1e
 5680 1d2b 01       		.uleb128 0x1
 5681 1d2c 50       		.byte	0x50
 5682 1d2d 03       		.uleb128 0x3
 5683 1d2e 91       		.byte	0x91
 5684 1d2f A876     		.sleb128 -1240
 5685 1d31 00       		.byte	0
 5686 1d32 20       		.uleb128 0x20
 5687 1d33 52010000 		.4byte	.LVL89
 5688 1d37 76280000 		.4byte	0x2876
 5689 1d3b 521D0000 		.4byte	0x1d52
 5690 1d3f 1E       		.uleb128 0x1e
 5691 1d40 01       		.uleb128 0x1
 5692 1d41 52       		.byte	0x52
 5693 1d42 02       		.uleb128 0x2
 5694 1d43 08       		.byte	0x8
 5695 1d44 40       		.byte	0x40
 5696 1d45 1E       		.uleb128 0x1e
 5697 1d46 01       		.uleb128 0x1
 5698 1d47 51       		.byte	0x51
 5699 1d48 01       		.uleb128 0x1
 5700 1d49 30       		.byte	0x30
 5701 1d4a 1E       		.uleb128 0x1e
 5702 1d4b 01       		.uleb128 0x1
 5703 1d4c 50       		.byte	0x50
 5704 1d4d 03       		.uleb128 0x3
 5705 1d4e 91       		.byte	0x91
 5706 1d4f E876     		.sleb128 -1176
 5707 1d51 00       		.byte	0
 5708 1d52 20       		.uleb128 0x20
 5709 1d53 5A010000 		.4byte	.LVL90
 5710 1d57 9B290000 		.4byte	0x299b
 5711 1d5b 6C1D0000 		.4byte	0x1d6c
 5712 1d5f 1E       		.uleb128 0x1e
 5713 1d60 01       		.uleb128 0x1
 5714 1d61 51       		.byte	0x51
 5715 1d62 01       		.uleb128 0x1
 5716 1d63 37       		.byte	0x37
 5717 1d64 1E       		.uleb128 0x1e
 5718 1d65 01       		.uleb128 0x1
 5719 1d66 50       		.byte	0x50
 5720 1d67 03       		.uleb128 0x3
 5721 1d68 91       		.byte	0x91
 5722 1d69 A876     		.sleb128 -1240
 5723 1d6b 00       		.byte	0
 5724 1d6c 20       		.uleb128 0x20
 5725 1d6d 66010000 		.4byte	.LVL91
 5726 1d71 F5280000 		.4byte	0x28f5
ARM GAS  C:\Users\AHMED~1.ELE\AppData\Local\Temp\ccWMHy5f.s 			page 117


 5727 1d75 881D0000 		.4byte	0x1d88
 5728 1d79 1E       		.uleb128 0x1e
 5729 1d7a 01       		.uleb128 0x1
 5730 1d7b 51       		.byte	0x51
 5731 1d7c 03       		.uleb128 0x3
 5732 1d7d 91       		.byte	0x91
 5733 1d7e A976     		.sleb128 -1239
 5734 1d80 1E       		.uleb128 0x1e
 5735 1d81 01       		.uleb128 0x1
 5736 1d82 50       		.byte	0x50
 5737 1d83 03       		.uleb128 0x3
 5738 1d84 91       		.byte	0x91
 5739 1d85 E876     		.sleb128 -1176
 5740 1d87 00       		.byte	0
 5741 1d88 20       		.uleb128 0x20
 5742 1d89 70010000 		.4byte	.LVL92
 5743 1d8d DB280000 		.4byte	0x28db
 5744 1d91 A81D0000 		.4byte	0x1da8
 5745 1d95 1E       		.uleb128 0x1e
 5746 1d96 01       		.uleb128 0x1
 5747 1d97 51       		.byte	0x51
 5748 1d98 05       		.uleb128 0x5
 5749 1d99 03       		.byte	0x3
 5750 1d9a 3A000000 		.4byte	.LC4
 5751 1d9e 1E       		.uleb128 0x1e
 5752 1d9f 01       		.uleb128 0x1
 5753 1da0 50       		.byte	0x50
 5754 1da1 05       		.uleb128 0x5
 5755 1da2 75       		.byte	0x75
 5756 1da3 00       		.sleb128 0
 5757 1da4 74       		.byte	0x74
 5758 1da5 00       		.sleb128 0
 5759 1da6 22       		.byte	0x22
 5760 1da7 00       		.byte	0
 5761 1da8 20       		.uleb128 0x20
 5762 1da9 78010000 		.4byte	.LVL93
 5763 1dad 4C290000 		.4byte	0x294c
 5764 1db1 C31D0000 		.4byte	0x1dc3
 5765 1db5 1E       		.uleb128 0x1e
 5766 1db6 01       		.uleb128 0x1
 5767 1db7 52       		.byte	0x52
 5768 1db8 02       		.uleb128 0x2
 5769 1db9 76       		.byte	0x76
 5770 1dba 00       		.sleb128 0
 5771 1dbb 1E       		.uleb128 0x1e
 5772 1dbc 01       		.uleb128 0x1
 5773 1dbd 51       		.byte	0x51
 5774 1dbe 03       		.uleb128 0x3
 5775 1dbf 91       		.byte	0x91
 5776 1dc0 E876     		.sleb128 -1176
 5777 1dc2 00       		.byte	0
 5778 1dc3 20       		.uleb128 0x20
 5779 1dc4 8C010000 		.4byte	.LVL95
 5780 1dc8 12290000 		.4byte	0x2912
 5781 1dcc E51D0000 		.4byte	0x1de5
 5782 1dd0 1E       		.uleb128 0x1e
 5783 1dd1 01       		.uleb128 0x1
ARM GAS  C:\Users\AHMED~1.ELE\AppData\Local\Temp\ccWMHy5f.s 			page 118


 5784 1dd2 52       		.byte	0x52
 5785 1dd3 03       		.uleb128 0x3
 5786 1dd4 0B       		.byte	0xb
 5787 1dd5 7FDF     		.2byte	0xdf7f
 5788 1dd7 1E       		.uleb128 0x1e
 5789 1dd8 01       		.uleb128 0x1
 5790 1dd9 51       		.byte	0x51
 5791 1dda 02       		.uleb128 0x2
 5792 1ddb 7A       		.byte	0x7a
 5793 1ddc 00       		.sleb128 0
 5794 1ddd 1E       		.uleb128 0x1e
 5795 1dde 01       		.uleb128 0x1
 5796 1ddf 50       		.byte	0x50
 5797 1de0 03       		.uleb128 0x3
 5798 1de1 91       		.byte	0x91
 5799 1de2 A876     		.sleb128 -1240
 5800 1de4 00       		.byte	0
 5801 1de5 20       		.uleb128 0x20
 5802 1de6 98010000 		.4byte	.LVL96
 5803 1dea 76280000 		.4byte	0x2876
 5804 1dee 051E0000 		.4byte	0x1e05
 5805 1df2 1E       		.uleb128 0x1e
 5806 1df3 01       		.uleb128 0x1
 5807 1df4 52       		.byte	0x52
 5808 1df5 02       		.uleb128 0x2
 5809 1df6 08       		.byte	0x8
 5810 1df7 40       		.byte	0x40
 5811 1df8 1E       		.uleb128 0x1e
 5812 1df9 01       		.uleb128 0x1
 5813 1dfa 51       		.byte	0x51
 5814 1dfb 01       		.uleb128 0x1
 5815 1dfc 30       		.byte	0x30
 5816 1dfd 1E       		.uleb128 0x1e
 5817 1dfe 01       		.uleb128 0x1
 5818 1dff 50       		.byte	0x50
 5819 1e00 03       		.uleb128 0x3
 5820 1e01 91       		.byte	0x91
 5821 1e02 E876     		.sleb128 -1176
 5822 1e04 00       		.byte	0
 5823 1e05 20       		.uleb128 0x20
 5824 1e06 A0010000 		.4byte	.LVL97
 5825 1e0a 9B290000 		.4byte	0x299b
 5826 1e0e 1F1E0000 		.4byte	0x1e1f
 5827 1e12 1E       		.uleb128 0x1e
 5828 1e13 01       		.uleb128 0x1
 5829 1e14 51       		.byte	0x51
 5830 1e15 01       		.uleb128 0x1
 5831 1e16 37       		.byte	0x37
 5832 1e17 1E       		.uleb128 0x1e
 5833 1e18 01       		.uleb128 0x1
 5834 1e19 50       		.byte	0x50
 5835 1e1a 03       		.uleb128 0x3
 5836 1e1b 91       		.byte	0x91
 5837 1e1c A876     		.sleb128 -1240
 5838 1e1e 00       		.byte	0
 5839 1e1f 20       		.uleb128 0x20
 5840 1e20 AC010000 		.4byte	.LVL98
ARM GAS  C:\Users\AHMED~1.ELE\AppData\Local\Temp\ccWMHy5f.s 			page 119


 5841 1e24 F5280000 		.4byte	0x28f5
 5842 1e28 3B1E0000 		.4byte	0x1e3b
 5843 1e2c 1E       		.uleb128 0x1e
 5844 1e2d 01       		.uleb128 0x1
 5845 1e2e 51       		.byte	0x51
 5846 1e2f 03       		.uleb128 0x3
 5847 1e30 91       		.byte	0x91
 5848 1e31 A976     		.sleb128 -1239
 5849 1e33 1E       		.uleb128 0x1e
 5850 1e34 01       		.uleb128 0x1
 5851 1e35 50       		.byte	0x50
 5852 1e36 03       		.uleb128 0x3
 5853 1e37 91       		.byte	0x91
 5854 1e38 E876     		.sleb128 -1176
 5855 1e3a 00       		.byte	0
 5856 1e3b 20       		.uleb128 0x20
 5857 1e3c B6010000 		.4byte	.LVL99
 5858 1e40 DB280000 		.4byte	0x28db
 5859 1e44 5B1E0000 		.4byte	0x1e5b
 5860 1e48 1E       		.uleb128 0x1e
 5861 1e49 01       		.uleb128 0x1
 5862 1e4a 51       		.byte	0x51
 5863 1e4b 05       		.uleb128 0x5
 5864 1e4c 03       		.byte	0x3
 5865 1e4d 44000000 		.4byte	.LC5
 5866 1e51 1E       		.uleb128 0x1e
 5867 1e52 01       		.uleb128 0x1
 5868 1e53 50       		.byte	0x50
 5869 1e54 05       		.uleb128 0x5
 5870 1e55 75       		.byte	0x75
 5871 1e56 00       		.sleb128 0
 5872 1e57 74       		.byte	0x74
 5873 1e58 00       		.sleb128 0
 5874 1e59 22       		.byte	0x22
 5875 1e5a 00       		.byte	0
 5876 1e5b 20       		.uleb128 0x20
 5877 1e5c BE010000 		.4byte	.LVL100
 5878 1e60 4C290000 		.4byte	0x294c
 5879 1e64 761E0000 		.4byte	0x1e76
 5880 1e68 1E       		.uleb128 0x1e
 5881 1e69 01       		.uleb128 0x1
 5882 1e6a 52       		.byte	0x52
 5883 1e6b 02       		.uleb128 0x2
 5884 1e6c 76       		.byte	0x76
 5885 1e6d 00       		.sleb128 0
 5886 1e6e 1E       		.uleb128 0x1e
 5887 1e6f 01       		.uleb128 0x1
 5888 1e70 51       		.byte	0x51
 5889 1e71 03       		.uleb128 0x3
 5890 1e72 91       		.byte	0x91
 5891 1e73 E876     		.sleb128 -1176
 5892 1e75 00       		.byte	0
 5893 1e76 20       		.uleb128 0x20
 5894 1e77 CE010000 		.4byte	.LVL102
 5895 1e7b DB280000 		.4byte	0x28db
 5896 1e7f 931E0000 		.4byte	0x1e93
 5897 1e83 1E       		.uleb128 0x1e
ARM GAS  C:\Users\AHMED~1.ELE\AppData\Local\Temp\ccWMHy5f.s 			page 120


 5898 1e84 01       		.uleb128 0x1
 5899 1e85 51       		.byte	0x51
 5900 1e86 05       		.uleb128 0x5
 5901 1e87 03       		.byte	0x3
 5902 1e88 51000000 		.4byte	.LC6
 5903 1e8c 1E       		.uleb128 0x1e
 5904 1e8d 01       		.uleb128 0x1
 5905 1e8e 50       		.byte	0x50
 5906 1e8f 02       		.uleb128 0x2
 5907 1e90 7B       		.byte	0x7b
 5908 1e91 00       		.sleb128 0
 5909 1e92 00       		.byte	0
 5910 1e93 20       		.uleb128 0x20
 5911 1e94 F8010000 		.4byte	.LVL105
 5912 1e98 6B290000 		.4byte	0x296b
 5913 1e9c B91E0000 		.4byte	0x1eb9
 5914 1ea0 1E       		.uleb128 0x1e
 5915 1ea1 01       		.uleb128 0x1
 5916 1ea2 52       		.byte	0x52
 5917 1ea3 04       		.uleb128 0x4
 5918 1ea4 91       		.byte	0x91
 5919 1ea5 9476     		.sleb128 -1260
 5920 1ea7 06       		.byte	0x6
 5921 1ea8 1E       		.uleb128 0x1e
 5922 1ea9 01       		.uleb128 0x1
 5923 1eaa 51       		.byte	0x51
 5924 1eab 05       		.uleb128 0x5
 5925 1eac 03       		.byte	0x3
 5926 1ead 60000000 		.4byte	.LC7
 5927 1eb1 1E       		.uleb128 0x1e
 5928 1eb2 01       		.uleb128 0x1
 5929 1eb3 50       		.byte	0x50
 5930 1eb4 03       		.uleb128 0x3
 5931 1eb5 91       		.byte	0x91
 5932 1eb6 E876     		.sleb128 -1176
 5933 1eb8 00       		.byte	0
 5934 1eb9 20       		.uleb128 0x20
 5935 1eba 02020000 		.4byte	.LVL106
 5936 1ebe 4C290000 		.4byte	0x294c
 5937 1ec2 DA1E0000 		.4byte	0x1eda
 5938 1ec6 1E       		.uleb128 0x1e
 5939 1ec7 01       		.uleb128 0x1
 5940 1ec8 52       		.byte	0x52
 5941 1ec9 02       		.uleb128 0x2
 5942 1eca 76       		.byte	0x76
 5943 1ecb 00       		.sleb128 0
 5944 1ecc 1E       		.uleb128 0x1e
 5945 1ecd 01       		.uleb128 0x1
 5946 1ece 51       		.byte	0x51
 5947 1ecf 03       		.uleb128 0x3
 5948 1ed0 91       		.byte	0x91
 5949 1ed1 E876     		.sleb128 -1176
 5950 1ed3 1E       		.uleb128 0x1e
 5951 1ed4 01       		.uleb128 0x1
 5952 1ed5 50       		.byte	0x50
 5953 1ed6 02       		.uleb128 0x2
 5954 1ed7 7B       		.byte	0x7b
ARM GAS  C:\Users\AHMED~1.ELE\AppData\Local\Temp\ccWMHy5f.s 			page 121


 5955 1ed8 00       		.sleb128 0
 5956 1ed9 00       		.byte	0
 5957 1eda 20       		.uleb128 0x20
 5958 1edb 12020000 		.4byte	.LVL108
 5959 1edf DB280000 		.4byte	0x28db
 5960 1ee3 F71E0000 		.4byte	0x1ef7
 5961 1ee7 1E       		.uleb128 0x1e
 5962 1ee8 01       		.uleb128 0x1
 5963 1ee9 51       		.byte	0x51
 5964 1eea 05       		.uleb128 0x5
 5965 1eeb 03       		.byte	0x3
 5966 1eec 69000000 		.4byte	.LC8
 5967 1ef0 1E       		.uleb128 0x1e
 5968 1ef1 01       		.uleb128 0x1
 5969 1ef2 50       		.byte	0x50
 5970 1ef3 02       		.uleb128 0x2
 5971 1ef4 7A       		.byte	0x7a
 5972 1ef5 00       		.sleb128 0
 5973 1ef6 00       		.byte	0
 5974 1ef7 20       		.uleb128 0x20
 5975 1ef8 22020000 		.4byte	.LVL109
 5976 1efc 6B290000 		.4byte	0x296b
 5977 1f00 151F0000 		.4byte	0x1f15
 5978 1f04 1E       		.uleb128 0x1e
 5979 1f05 01       		.uleb128 0x1
 5980 1f06 51       		.byte	0x51
 5981 1f07 05       		.uleb128 0x5
 5982 1f08 03       		.byte	0x3
 5983 1f09 74000000 		.4byte	.LC9
 5984 1f0d 1E       		.uleb128 0x1e
 5985 1f0e 01       		.uleb128 0x1
 5986 1f0f 50       		.byte	0x50
 5987 1f10 03       		.uleb128 0x3
 5988 1f11 91       		.byte	0x91
 5989 1f12 E876     		.sleb128 -1176
 5990 1f14 00       		.byte	0
 5991 1f15 20       		.uleb128 0x20
 5992 1f16 2C020000 		.4byte	.LVL110
 5993 1f1a 4C290000 		.4byte	0x294c
 5994 1f1e 361F0000 		.4byte	0x1f36
 5995 1f22 1E       		.uleb128 0x1e
 5996 1f23 01       		.uleb128 0x1
 5997 1f24 52       		.byte	0x52
 5998 1f25 02       		.uleb128 0x2
 5999 1f26 76       		.byte	0x76
 6000 1f27 00       		.sleb128 0
 6001 1f28 1E       		.uleb128 0x1e
 6002 1f29 01       		.uleb128 0x1
 6003 1f2a 51       		.byte	0x51
 6004 1f2b 03       		.uleb128 0x3
 6005 1f2c 91       		.byte	0x91
 6006 1f2d E876     		.sleb128 -1176
 6007 1f2f 1E       		.uleb128 0x1e
 6008 1f30 01       		.uleb128 0x1
 6009 1f31 50       		.byte	0x50
 6010 1f32 02       		.uleb128 0x2
 6011 1f33 7A       		.byte	0x7a
ARM GAS  C:\Users\AHMED~1.ELE\AppData\Local\Temp\ccWMHy5f.s 			page 122


 6012 1f34 00       		.sleb128 0
 6013 1f35 00       		.byte	0
 6014 1f36 20       		.uleb128 0x20
 6015 1f37 40020000 		.4byte	.LVL112
 6016 1f3b 12290000 		.4byte	0x2912
 6017 1f3f 591F0000 		.4byte	0x1f59
 6018 1f43 1E       		.uleb128 0x1e
 6019 1f44 01       		.uleb128 0x1
 6020 1f45 52       		.byte	0x52
 6021 1f46 03       		.uleb128 0x3
 6022 1f47 0B       		.byte	0xb
 6023 1f48 1A9F     		.2byte	0x9f1a
 6024 1f4a 1E       		.uleb128 0x1e
 6025 1f4b 01       		.uleb128 0x1
 6026 1f4c 51       		.byte	0x51
 6027 1f4d 03       		.uleb128 0x3
 6028 1f4e 91       		.byte	0x91
 6029 1f4f D77B     		.sleb128 -553
 6030 1f51 1E       		.uleb128 0x1e
 6031 1f52 01       		.uleb128 0x1
 6032 1f53 50       		.byte	0x50
 6033 1f54 03       		.uleb128 0x3
 6034 1f55 91       		.byte	0x91
 6035 1f56 A876     		.sleb128 -1240
 6036 1f58 00       		.byte	0
 6037 1f59 20       		.uleb128 0x20
 6038 1f5a 4C020000 		.4byte	.LVL113
 6039 1f5e 76280000 		.4byte	0x2876
 6040 1f62 791F0000 		.4byte	0x1f79
 6041 1f66 1E       		.uleb128 0x1e
 6042 1f67 01       		.uleb128 0x1
 6043 1f68 52       		.byte	0x52
 6044 1f69 02       		.uleb128 0x2
 6045 1f6a 08       		.byte	0x8
 6046 1f6b 40       		.byte	0x40
 6047 1f6c 1E       		.uleb128 0x1e
 6048 1f6d 01       		.uleb128 0x1
 6049 1f6e 51       		.byte	0x51
 6050 1f6f 01       		.uleb128 0x1
 6051 1f70 30       		.byte	0x30
 6052 1f71 1E       		.uleb128 0x1e
 6053 1f72 01       		.uleb128 0x1
 6054 1f73 50       		.byte	0x50
 6055 1f74 03       		.uleb128 0x3
 6056 1f75 91       		.byte	0x91
 6057 1f76 E876     		.sleb128 -1176
 6058 1f78 00       		.byte	0
 6059 1f79 20       		.uleb128 0x20
 6060 1f7a 5A020000 		.4byte	.LVL114
 6061 1f7e 31290000 		.4byte	0x2931
 6062 1f82 951F0000 		.4byte	0x1f95
 6063 1f86 1E       		.uleb128 0x1e
 6064 1f87 01       		.uleb128 0x1
 6065 1f88 51       		.byte	0x51
 6066 1f89 03       		.uleb128 0x3
 6067 1f8a 91       		.byte	0x91
 6068 1f8b A976     		.sleb128 -1239
ARM GAS  C:\Users\AHMED~1.ELE\AppData\Local\Temp\ccWMHy5f.s 			page 123


 6069 1f8d 1E       		.uleb128 0x1e
 6070 1f8e 01       		.uleb128 0x1
 6071 1f8f 50       		.byte	0x50
 6072 1f90 03       		.uleb128 0x3
 6073 1f91 91       		.byte	0x91
 6074 1f92 E876     		.sleb128 -1176
 6075 1f94 00       		.byte	0
 6076 1f95 20       		.uleb128 0x20
 6077 1f96 64020000 		.4byte	.LVL115
 6078 1f9a DB280000 		.4byte	0x28db
 6079 1f9e B51F0000 		.4byte	0x1fb5
 6080 1fa2 1E       		.uleb128 0x1e
 6081 1fa3 01       		.uleb128 0x1
 6082 1fa4 51       		.byte	0x51
 6083 1fa5 05       		.uleb128 0x5
 6084 1fa6 03       		.byte	0x3
 6085 1fa7 7E000000 		.4byte	.LC10
 6086 1fab 1E       		.uleb128 0x1e
 6087 1fac 01       		.uleb128 0x1
 6088 1fad 50       		.byte	0x50
 6089 1fae 05       		.uleb128 0x5
 6090 1faf 75       		.byte	0x75
 6091 1fb0 00       		.sleb128 0
 6092 1fb1 74       		.byte	0x74
 6093 1fb2 00       		.sleb128 0
 6094 1fb3 22       		.byte	0x22
 6095 1fb4 00       		.byte	0
 6096 1fb5 20       		.uleb128 0x20
 6097 1fb6 6E020000 		.4byte	.LVL116
 6098 1fba 4C290000 		.4byte	0x294c
 6099 1fbe D01F0000 		.4byte	0x1fd0
 6100 1fc2 1E       		.uleb128 0x1e
 6101 1fc3 01       		.uleb128 0x1
 6102 1fc4 52       		.byte	0x52
 6103 1fc5 02       		.uleb128 0x2
 6104 1fc6 76       		.byte	0x76
 6105 1fc7 00       		.sleb128 0
 6106 1fc8 1E       		.uleb128 0x1e
 6107 1fc9 01       		.uleb128 0x1
 6108 1fca 51       		.byte	0x51
 6109 1fcb 03       		.uleb128 0x3
 6110 1fcc 91       		.byte	0x91
 6111 1fcd E976     		.sleb128 -1175
 6112 1fcf 00       		.byte	0
 6113 1fd0 20       		.uleb128 0x20
 6114 1fd1 82020000 		.4byte	.LVL118
 6115 1fd5 12290000 		.4byte	0x2912
 6116 1fd9 F31F0000 		.4byte	0x1ff3
 6117 1fdd 1E       		.uleb128 0x1e
 6118 1fde 01       		.uleb128 0x1
 6119 1fdf 52       		.byte	0x52
 6120 1fe0 03       		.uleb128 0x3
 6121 1fe1 0A       		.byte	0xa
 6122 1fe2 2A5F     		.2byte	0x5f2a
 6123 1fe4 1E       		.uleb128 0x1e
 6124 1fe5 01       		.uleb128 0x1
 6125 1fe6 51       		.byte	0x51
ARM GAS  C:\Users\AHMED~1.ELE\AppData\Local\Temp\ccWMHy5f.s 			page 124


 6126 1fe7 03       		.uleb128 0x3
 6127 1fe8 91       		.byte	0x91
 6128 1fe9 D77B     		.sleb128 -553
 6129 1feb 1E       		.uleb128 0x1e
 6130 1fec 01       		.uleb128 0x1
 6131 1fed 50       		.byte	0x50
 6132 1fee 03       		.uleb128 0x3
 6133 1fef 91       		.byte	0x91
 6134 1ff0 A876     		.sleb128 -1240
 6135 1ff2 00       		.byte	0
 6136 1ff3 20       		.uleb128 0x20
 6137 1ff4 8E020000 		.4byte	.LVL119
 6138 1ff8 76280000 		.4byte	0x2876
 6139 1ffc 13200000 		.4byte	0x2013
 6140 2000 1E       		.uleb128 0x1e
 6141 2001 01       		.uleb128 0x1
 6142 2002 52       		.byte	0x52
 6143 2003 02       		.uleb128 0x2
 6144 2004 08       		.byte	0x8
 6145 2005 40       		.byte	0x40
 6146 2006 1E       		.uleb128 0x1e
 6147 2007 01       		.uleb128 0x1
 6148 2008 51       		.byte	0x51
 6149 2009 01       		.uleb128 0x1
 6150 200a 30       		.byte	0x30
 6151 200b 1E       		.uleb128 0x1e
 6152 200c 01       		.uleb128 0x1
 6153 200d 50       		.byte	0x50
 6154 200e 03       		.uleb128 0x3
 6155 200f 91       		.byte	0x91
 6156 2010 E876     		.sleb128 -1176
 6157 2012 00       		.byte	0
 6158 2013 20       		.uleb128 0x20
 6159 2014 9C020000 		.4byte	.LVL120
 6160 2018 31290000 		.4byte	0x2931
 6161 201c 2F200000 		.4byte	0x202f
 6162 2020 1E       		.uleb128 0x1e
 6163 2021 01       		.uleb128 0x1
 6164 2022 51       		.byte	0x51
 6165 2023 03       		.uleb128 0x3
 6166 2024 91       		.byte	0x91
 6167 2025 A976     		.sleb128 -1239
 6168 2027 1E       		.uleb128 0x1e
 6169 2028 01       		.uleb128 0x1
 6170 2029 50       		.byte	0x50
 6171 202a 03       		.uleb128 0x3
 6172 202b 91       		.byte	0x91
 6173 202c E876     		.sleb128 -1176
 6174 202e 00       		.byte	0
 6175 202f 20       		.uleb128 0x20
 6176 2030 A6020000 		.4byte	.LVL121
 6177 2034 DB280000 		.4byte	0x28db
 6178 2038 4F200000 		.4byte	0x204f
 6179 203c 1E       		.uleb128 0x1e
 6180 203d 01       		.uleb128 0x1
 6181 203e 51       		.byte	0x51
 6182 203f 05       		.uleb128 0x5
ARM GAS  C:\Users\AHMED~1.ELE\AppData\Local\Temp\ccWMHy5f.s 			page 125


 6183 2040 03       		.byte	0x3
 6184 2041 88000000 		.4byte	.LC11
 6185 2045 1E       		.uleb128 0x1e
 6186 2046 01       		.uleb128 0x1
 6187 2047 50       		.byte	0x50
 6188 2048 05       		.uleb128 0x5
 6189 2049 75       		.byte	0x75
 6190 204a 00       		.sleb128 0
 6191 204b 74       		.byte	0x74
 6192 204c 00       		.sleb128 0
 6193 204d 22       		.byte	0x22
 6194 204e 00       		.byte	0
 6195 204f 20       		.uleb128 0x20
 6196 2050 B0020000 		.4byte	.LVL122
 6197 2054 4C290000 		.4byte	0x294c
 6198 2058 6A200000 		.4byte	0x206a
 6199 205c 1E       		.uleb128 0x1e
 6200 205d 01       		.uleb128 0x1
 6201 205e 52       		.byte	0x52
 6202 205f 02       		.uleb128 0x2
 6203 2060 76       		.byte	0x76
 6204 2061 00       		.sleb128 0
 6205 2062 1E       		.uleb128 0x1e
 6206 2063 01       		.uleb128 0x1
 6207 2064 51       		.byte	0x51
 6208 2065 03       		.uleb128 0x3
 6209 2066 91       		.byte	0x91
 6210 2067 E976     		.sleb128 -1175
 6211 2069 00       		.byte	0
 6212 206a 20       		.uleb128 0x20
 6213 206b BE020000 		.4byte	.LVL124
 6214 206f 4C290000 		.4byte	0x294c
 6215 2073 90200000 		.4byte	0x2090
 6216 2077 1E       		.uleb128 0x1e
 6217 2078 01       		.uleb128 0x1
 6218 2079 52       		.byte	0x52
 6219 207a 02       		.uleb128 0x2
 6220 207b 76       		.byte	0x76
 6221 207c 00       		.sleb128 0
 6222 207d 1E       		.uleb128 0x1e
 6223 207e 01       		.uleb128 0x1
 6224 207f 51       		.byte	0x51
 6225 2080 05       		.uleb128 0x5
 6226 2081 03       		.byte	0x3
 6227 2082 93000000 		.4byte	.LC12
 6228 2086 1E       		.uleb128 0x1e
 6229 2087 01       		.uleb128 0x1
 6230 2088 50       		.byte	0x50
 6231 2089 05       		.uleb128 0x5
 6232 208a 75       		.byte	0x75
 6233 208b 00       		.sleb128 0
 6234 208c 74       		.byte	0x74
 6235 208d 00       		.sleb128 0
 6236 208e 22       		.byte	0x22
 6237 208f 00       		.byte	0
 6238 2090 20       		.uleb128 0x20
 6239 2091 D0020000 		.4byte	.LVL126
ARM GAS  C:\Users\AHMED~1.ELE\AppData\Local\Temp\ccWMHy5f.s 			page 126


 6240 2095 DB280000 		.4byte	0x28db
 6241 2099 B0200000 		.4byte	0x20b0
 6242 209d 1E       		.uleb128 0x1e
 6243 209e 01       		.uleb128 0x1
 6244 209f 51       		.byte	0x51
 6245 20a0 05       		.uleb128 0x5
 6246 20a1 03       		.byte	0x3
 6247 20a2 94000000 		.4byte	.LC13
 6248 20a6 1E       		.uleb128 0x1e
 6249 20a7 01       		.uleb128 0x1
 6250 20a8 50       		.byte	0x50
 6251 20a9 05       		.uleb128 0x5
 6252 20aa 75       		.byte	0x75
 6253 20ab 00       		.sleb128 0
 6254 20ac 74       		.byte	0x74
 6255 20ad 00       		.sleb128 0
 6256 20ae 22       		.byte	0x22
 6257 20af 00       		.byte	0
 6258 20b0 20       		.uleb128 0x20
 6259 20b1 EE020000 		.4byte	.LVL127
 6260 20b5 4C290000 		.4byte	0x294c
 6261 20b9 CB200000 		.4byte	0x20cb
 6262 20bd 1E       		.uleb128 0x1e
 6263 20be 01       		.uleb128 0x1
 6264 20bf 52       		.byte	0x52
 6265 20c0 02       		.uleb128 0x2
 6266 20c1 76       		.byte	0x76
 6267 20c2 00       		.sleb128 0
 6268 20c3 1E       		.uleb128 0x1e
 6269 20c4 01       		.uleb128 0x1
 6270 20c5 51       		.byte	0x51
 6271 20c6 03       		.uleb128 0x3
 6272 20c7 91       		.byte	0x91
 6273 20c8 E876     		.sleb128 -1176
 6274 20ca 00       		.byte	0
 6275 20cb 20       		.uleb128 0x20
 6276 20cc FC020000 		.4byte	.LVL129
 6277 20d0 DB280000 		.4byte	0x28db
 6278 20d4 EB200000 		.4byte	0x20eb
 6279 20d8 1E       		.uleb128 0x1e
 6280 20d9 01       		.uleb128 0x1
 6281 20da 51       		.byte	0x51
 6282 20db 05       		.uleb128 0x5
 6283 20dc 03       		.byte	0x3
 6284 20dd A8000000 		.4byte	.LC14
 6285 20e1 1E       		.uleb128 0x1e
 6286 20e2 01       		.uleb128 0x1
 6287 20e3 50       		.byte	0x50
 6288 20e4 05       		.uleb128 0x5
 6289 20e5 75       		.byte	0x75
 6290 20e6 00       		.sleb128 0
 6291 20e7 74       		.byte	0x74
 6292 20e8 00       		.sleb128 0
 6293 20e9 22       		.byte	0x22
 6294 20ea 00       		.byte	0
 6295 20eb 20       		.uleb128 0x20
 6296 20ec 1A030000 		.4byte	.LVL130
ARM GAS  C:\Users\AHMED~1.ELE\AppData\Local\Temp\ccWMHy5f.s 			page 127


 6297 20f0 4C290000 		.4byte	0x294c
 6298 20f4 06210000 		.4byte	0x2106
 6299 20f8 1E       		.uleb128 0x1e
 6300 20f9 01       		.uleb128 0x1
 6301 20fa 52       		.byte	0x52
 6302 20fb 02       		.uleb128 0x2
 6303 20fc 76       		.byte	0x76
 6304 20fd 00       		.sleb128 0
 6305 20fe 1E       		.uleb128 0x1e
 6306 20ff 01       		.uleb128 0x1
 6307 2100 51       		.byte	0x51
 6308 2101 03       		.uleb128 0x3
 6309 2102 91       		.byte	0x91
 6310 2103 E876     		.sleb128 -1176
 6311 2105 00       		.byte	0
 6312 2106 20       		.uleb128 0x20
 6313 2107 2A030000 		.4byte	.LVL132
 6314 210b DB280000 		.4byte	0x28db
 6315 210f 23210000 		.4byte	0x2123
 6316 2113 1E       		.uleb128 0x1e
 6317 2114 01       		.uleb128 0x1
 6318 2115 51       		.byte	0x51
 6319 2116 05       		.uleb128 0x5
 6320 2117 03       		.byte	0x3
 6321 2118 BA000000 		.4byte	.LC15
 6322 211c 1E       		.uleb128 0x1e
 6323 211d 01       		.uleb128 0x1
 6324 211e 50       		.byte	0x50
 6325 211f 02       		.uleb128 0x2
 6326 2120 7B       		.byte	0x7b
 6327 2121 00       		.sleb128 0
 6328 2122 00       		.byte	0
 6329 2123 20       		.uleb128 0x20
 6330 2124 34030000 		.4byte	.LVL133
 6331 2128 31290000 		.4byte	0x2931
 6332 212c 44210000 		.4byte	0x2144
 6333 2130 1E       		.uleb128 0x1e
 6334 2131 01       		.uleb128 0x1
 6335 2132 52       		.byte	0x52
 6336 2133 01       		.uleb128 0x1
 6337 2134 35       		.byte	0x35
 6338 2135 1E       		.uleb128 0x1e
 6339 2136 01       		.uleb128 0x1
 6340 2137 51       		.byte	0x51
 6341 2138 03       		.uleb128 0x3
 6342 2139 91       		.byte	0x91
 6343 213a C87B     		.sleb128 -568
 6344 213c 1E       		.uleb128 0x1e
 6345 213d 01       		.uleb128 0x1
 6346 213e 50       		.byte	0x50
 6347 213f 03       		.uleb128 0x3
 6348 2140 91       		.byte	0x91
 6349 2141 E876     		.sleb128 -1176
 6350 2143 00       		.byte	0
 6351 2144 20       		.uleb128 0x20
 6352 2145 42030000 		.4byte	.LVL134
 6353 2149 4C290000 		.4byte	0x294c
ARM GAS  C:\Users\AHMED~1.ELE\AppData\Local\Temp\ccWMHy5f.s 			page 128


 6354 214d 65210000 		.4byte	0x2165
 6355 2151 1E       		.uleb128 0x1e
 6356 2152 01       		.uleb128 0x1
 6357 2153 52       		.byte	0x52
 6358 2154 02       		.uleb128 0x2
 6359 2155 76       		.byte	0x76
 6360 2156 00       		.sleb128 0
 6361 2157 1E       		.uleb128 0x1e
 6362 2158 01       		.uleb128 0x1
 6363 2159 51       		.byte	0x51
 6364 215a 03       		.uleb128 0x3
 6365 215b 91       		.byte	0x91
 6366 215c E876     		.sleb128 -1176
 6367 215e 1E       		.uleb128 0x1e
 6368 215f 01       		.uleb128 0x1
 6369 2160 50       		.byte	0x50
 6370 2161 02       		.uleb128 0x2
 6371 2162 7B       		.byte	0x7b
 6372 2163 00       		.sleb128 0
 6373 2164 00       		.byte	0
 6374 2165 20       		.uleb128 0x20
 6375 2166 52030000 		.4byte	.LVL136
 6376 216a DB280000 		.4byte	0x28db
 6377 216e 82210000 		.4byte	0x2182
 6378 2172 1E       		.uleb128 0x1e
 6379 2173 01       		.uleb128 0x1
 6380 2174 51       		.byte	0x51
 6381 2175 05       		.uleb128 0x5
 6382 2176 03       		.byte	0x3
 6383 2177 C7000000 		.4byte	.LC16
 6384 217b 1E       		.uleb128 0x1e
 6385 217c 01       		.uleb128 0x1
 6386 217d 50       		.byte	0x50
 6387 217e 02       		.uleb128 0x2
 6388 217f 7B       		.byte	0x7b
 6389 2180 00       		.sleb128 0
 6390 2181 00       		.byte	0
 6391 2182 20       		.uleb128 0x20
 6392 2183 60030000 		.4byte	.LVL137
 6393 2187 31290000 		.4byte	0x2931
 6394 218b A3210000 		.4byte	0x21a3
 6395 218f 1E       		.uleb128 0x1e
 6396 2190 01       		.uleb128 0x1
 6397 2191 52       		.byte	0x52
 6398 2192 01       		.uleb128 0x1
 6399 2193 35       		.byte	0x35
 6400 2194 1E       		.uleb128 0x1e
 6401 2195 01       		.uleb128 0x1
 6402 2196 51       		.byte	0x51
 6403 2197 03       		.uleb128 0x3
 6404 2198 91       		.byte	0x91
 6405 2199 CD7B     		.sleb128 -563
 6406 219b 1E       		.uleb128 0x1e
 6407 219c 01       		.uleb128 0x1
 6408 219d 50       		.byte	0x50
 6409 219e 03       		.uleb128 0x3
 6410 219f 91       		.byte	0x91
ARM GAS  C:\Users\AHMED~1.ELE\AppData\Local\Temp\ccWMHy5f.s 			page 129


 6411 21a0 E876     		.sleb128 -1176
 6412 21a2 00       		.byte	0
 6413 21a3 20       		.uleb128 0x20
 6414 21a4 6E030000 		.4byte	.LVL138
 6415 21a8 4C290000 		.4byte	0x294c
 6416 21ac C4210000 		.4byte	0x21c4
 6417 21b0 1E       		.uleb128 0x1e
 6418 21b1 01       		.uleb128 0x1
 6419 21b2 52       		.byte	0x52
 6420 21b3 02       		.uleb128 0x2
 6421 21b4 76       		.byte	0x76
 6422 21b5 00       		.sleb128 0
 6423 21b6 1E       		.uleb128 0x1e
 6424 21b7 01       		.uleb128 0x1
 6425 21b8 51       		.byte	0x51
 6426 21b9 03       		.uleb128 0x3
 6427 21ba 91       		.byte	0x91
 6428 21bb E876     		.sleb128 -1176
 6429 21bd 1E       		.uleb128 0x1e
 6430 21be 01       		.uleb128 0x1
 6431 21bf 50       		.byte	0x50
 6432 21c0 02       		.uleb128 0x2
 6433 21c1 7B       		.byte	0x7b
 6434 21c2 00       		.sleb128 0
 6435 21c3 00       		.byte	0
 6436 21c4 20       		.uleb128 0x20
 6437 21c5 7E030000 		.4byte	.LVL140
 6438 21c9 DB280000 		.4byte	0x28db
 6439 21cd E1210000 		.4byte	0x21e1
 6440 21d1 1E       		.uleb128 0x1e
 6441 21d2 01       		.uleb128 0x1
 6442 21d3 51       		.byte	0x51
 6443 21d4 05       		.uleb128 0x5
 6444 21d5 03       		.byte	0x3
 6445 21d6 BA000000 		.4byte	.LC15
 6446 21da 1E       		.uleb128 0x1e
 6447 21db 01       		.uleb128 0x1
 6448 21dc 50       		.byte	0x50
 6449 21dd 02       		.uleb128 0x2
 6450 21de 7B       		.byte	0x7b
 6451 21df 00       		.sleb128 0
 6452 21e0 00       		.byte	0
 6453 21e1 20       		.uleb128 0x20
 6454 21e2 8C030000 		.4byte	.LVL141
 6455 21e6 31290000 		.4byte	0x2931
 6456 21ea 02220000 		.4byte	0x2202
 6457 21ee 1E       		.uleb128 0x1e
 6458 21ef 01       		.uleb128 0x1
 6459 21f0 52       		.byte	0x52
 6460 21f1 01       		.uleb128 0x1
 6461 21f2 35       		.byte	0x35
 6462 21f3 1E       		.uleb128 0x1e
 6463 21f4 01       		.uleb128 0x1
 6464 21f5 51       		.byte	0x51
 6465 21f6 03       		.uleb128 0x3
 6466 21f7 91       		.byte	0x91
 6467 21f8 D27B     		.sleb128 -558
ARM GAS  C:\Users\AHMED~1.ELE\AppData\Local\Temp\ccWMHy5f.s 			page 130


 6468 21fa 1E       		.uleb128 0x1e
 6469 21fb 01       		.uleb128 0x1
 6470 21fc 50       		.byte	0x50
 6471 21fd 03       		.uleb128 0x3
 6472 21fe 91       		.byte	0x91
 6473 21ff E876     		.sleb128 -1176
 6474 2201 00       		.byte	0
 6475 2202 20       		.uleb128 0x20
 6476 2203 9A030000 		.4byte	.LVL142
 6477 2207 4C290000 		.4byte	0x294c
 6478 220b 23220000 		.4byte	0x2223
 6479 220f 1E       		.uleb128 0x1e
 6480 2210 01       		.uleb128 0x1
 6481 2211 52       		.byte	0x52
 6482 2212 02       		.uleb128 0x2
 6483 2213 76       		.byte	0x76
 6484 2214 00       		.sleb128 0
 6485 2215 1E       		.uleb128 0x1e
 6486 2216 01       		.uleb128 0x1
 6487 2217 51       		.byte	0x51
 6488 2218 03       		.uleb128 0x3
 6489 2219 91       		.byte	0x91
 6490 221a E876     		.sleb128 -1176
 6491 221c 1E       		.uleb128 0x1e
 6492 221d 01       		.uleb128 0x1
 6493 221e 50       		.byte	0x50
 6494 221f 02       		.uleb128 0x2
 6495 2220 7B       		.byte	0x7b
 6496 2221 00       		.sleb128 0
 6497 2222 00       		.byte	0
 6498 2223 20       		.uleb128 0x20
 6499 2224 AE030000 		.4byte	.LVL144
 6500 2228 12290000 		.4byte	0x2912
 6501 222c 46220000 		.4byte	0x2246
 6502 2230 1E       		.uleb128 0x1e
 6503 2231 01       		.uleb128 0x1
 6504 2232 52       		.byte	0x52
 6505 2233 03       		.uleb128 0x3
 6506 2234 0B       		.byte	0xb
 6507 2235 339F     		.2byte	0x9f33
 6508 2237 1E       		.uleb128 0x1e
 6509 2238 01       		.uleb128 0x1
 6510 2239 51       		.byte	0x51
 6511 223a 03       		.uleb128 0x3
 6512 223b 91       		.byte	0x91
 6513 223c D77B     		.sleb128 -553
 6514 223e 1E       		.uleb128 0x1e
 6515 223f 01       		.uleb128 0x1
 6516 2240 50       		.byte	0x50
 6517 2241 03       		.uleb128 0x3
 6518 2242 91       		.byte	0x91
 6519 2243 A876     		.sleb128 -1240
 6520 2245 00       		.byte	0
 6521 2246 20       		.uleb128 0x20
 6522 2247 BC030000 		.4byte	.LVL145
 6523 224b 76280000 		.4byte	0x2876
 6524 224f 67220000 		.4byte	0x2267
ARM GAS  C:\Users\AHMED~1.ELE\AppData\Local\Temp\ccWMHy5f.s 			page 131


 6525 2253 1E       		.uleb128 0x1e
 6526 2254 01       		.uleb128 0x1
 6527 2255 52       		.byte	0x52
 6528 2256 02       		.uleb128 0x2
 6529 2257 08       		.byte	0x8
 6530 2258 40       		.byte	0x40
 6531 2259 1E       		.uleb128 0x1e
 6532 225a 01       		.uleb128 0x1
 6533 225b 51       		.byte	0x51
 6534 225c 02       		.uleb128 0x2
 6535 225d 7A       		.byte	0x7a
 6536 225e 00       		.sleb128 0
 6537 225f 1E       		.uleb128 0x1e
 6538 2260 01       		.uleb128 0x1
 6539 2261 50       		.byte	0x50
 6540 2262 03       		.uleb128 0x3
 6541 2263 91       		.byte	0x91
 6542 2264 E876     		.sleb128 -1176
 6543 2266 00       		.byte	0
 6544 2267 20       		.uleb128 0x20
 6545 2268 CA030000 		.4byte	.LVL146
 6546 226c 31290000 		.4byte	0x2931
 6547 2270 83220000 		.4byte	0x2283
 6548 2274 1E       		.uleb128 0x1e
 6549 2275 01       		.uleb128 0x1
 6550 2276 51       		.byte	0x51
 6551 2277 03       		.uleb128 0x3
 6552 2278 91       		.byte	0x91
 6553 2279 A976     		.sleb128 -1239
 6554 227b 1E       		.uleb128 0x1e
 6555 227c 01       		.uleb128 0x1
 6556 227d 50       		.byte	0x50
 6557 227e 03       		.uleb128 0x3
 6558 227f 91       		.byte	0x91
 6559 2280 E876     		.sleb128 -1176
 6560 2282 00       		.byte	0
 6561 2283 20       		.uleb128 0x20
 6562 2284 D4030000 		.4byte	.LVL147
 6563 2288 DB280000 		.4byte	0x28db
 6564 228c A3220000 		.4byte	0x22a3
 6565 2290 1E       		.uleb128 0x1e
 6566 2291 01       		.uleb128 0x1
 6567 2292 51       		.byte	0x51
 6568 2293 05       		.uleb128 0x5
 6569 2294 03       		.byte	0x3
 6570 2295 D4000000 		.4byte	.LC17
 6571 2299 1E       		.uleb128 0x1e
 6572 229a 01       		.uleb128 0x1
 6573 229b 50       		.byte	0x50
 6574 229c 05       		.uleb128 0x5
 6575 229d 75       		.byte	0x75
 6576 229e 00       		.sleb128 0
 6577 229f 74       		.byte	0x74
 6578 22a0 00       		.sleb128 0
 6579 22a1 22       		.byte	0x22
 6580 22a2 00       		.byte	0
 6581 22a3 20       		.uleb128 0x20
ARM GAS  C:\Users\AHMED~1.ELE\AppData\Local\Temp\ccWMHy5f.s 			page 132


 6582 22a4 DC030000 		.4byte	.LVL148
 6583 22a8 4C290000 		.4byte	0x294c
 6584 22ac BE220000 		.4byte	0x22be
 6585 22b0 1E       		.uleb128 0x1e
 6586 22b1 01       		.uleb128 0x1
 6587 22b2 52       		.byte	0x52
 6588 22b3 02       		.uleb128 0x2
 6589 22b4 76       		.byte	0x76
 6590 22b5 00       		.sleb128 0
 6591 22b6 1E       		.uleb128 0x1e
 6592 22b7 01       		.uleb128 0x1
 6593 22b8 51       		.byte	0x51
 6594 22b9 03       		.uleb128 0x3
 6595 22ba 91       		.byte	0x91
 6596 22bb E876     		.sleb128 -1176
 6597 22bd 00       		.byte	0
 6598 22be 20       		.uleb128 0x20
 6599 22bf 34040000 		.4byte	.LVL150
 6600 22c3 12290000 		.4byte	0x2912
 6601 22c7 E1220000 		.4byte	0x22e1
 6602 22cb 1E       		.uleb128 0x1e
 6603 22cc 01       		.uleb128 0x1
 6604 22cd 52       		.byte	0x52
 6605 22ce 03       		.uleb128 0x3
 6606 22cf 0B       		.byte	0xb
 6607 22d0 409F     		.2byte	0x9f40
 6608 22d2 1E       		.uleb128 0x1e
 6609 22d3 01       		.uleb128 0x1
 6610 22d4 51       		.byte	0x51
 6611 22d5 03       		.uleb128 0x3
 6612 22d6 91       		.byte	0x91
 6613 22d7 D77B     		.sleb128 -553
 6614 22d9 1E       		.uleb128 0x1e
 6615 22da 01       		.uleb128 0x1
 6616 22db 50       		.byte	0x50
 6617 22dc 03       		.uleb128 0x3
 6618 22dd 91       		.byte	0x91
 6619 22de A876     		.sleb128 -1240
 6620 22e0 00       		.byte	0
 6621 22e1 20       		.uleb128 0x20
 6622 22e2 44040000 		.4byte	.LVL151
 6623 22e6 76280000 		.4byte	0x2876
 6624 22ea 00230000 		.4byte	0x2300
 6625 22ee 1E       		.uleb128 0x1e
 6626 22ef 01       		.uleb128 0x1
 6627 22f0 52       		.byte	0x52
 6628 22f1 02       		.uleb128 0x2
 6629 22f2 08       		.byte	0x8
 6630 22f3 40       		.byte	0x40
 6631 22f4 1E       		.uleb128 0x1e
 6632 22f5 01       		.uleb128 0x1
 6633 22f6 51       		.byte	0x51
 6634 22f7 01       		.uleb128 0x1
 6635 22f8 30       		.byte	0x30
 6636 22f9 1E       		.uleb128 0x1e
 6637 22fa 01       		.uleb128 0x1
 6638 22fb 50       		.byte	0x50
ARM GAS  C:\Users\AHMED~1.ELE\AppData\Local\Temp\ccWMHy5f.s 			page 133


 6639 22fc 02       		.uleb128 0x2
 6640 22fd 7A       		.byte	0x7a
 6641 22fe 00       		.sleb128 0
 6642 22ff 00       		.byte	0
 6643 2300 20       		.uleb128 0x20
 6644 2301 52040000 		.4byte	.LVL152
 6645 2305 31290000 		.4byte	0x2931
 6646 2309 1B230000 		.4byte	0x231b
 6647 230d 1E       		.uleb128 0x1e
 6648 230e 01       		.uleb128 0x1
 6649 230f 51       		.byte	0x51
 6650 2310 03       		.uleb128 0x3
 6651 2311 91       		.byte	0x91
 6652 2312 A976     		.sleb128 -1239
 6653 2314 1E       		.uleb128 0x1e
 6654 2315 01       		.uleb128 0x1
 6655 2316 50       		.byte	0x50
 6656 2317 02       		.uleb128 0x2
 6657 2318 7A       		.byte	0x7a
 6658 2319 00       		.sleb128 0
 6659 231a 00       		.byte	0
 6660 231b 20       		.uleb128 0x20
 6661 231c 5C040000 		.4byte	.LVL153
 6662 2320 DB280000 		.4byte	0x28db
 6663 2324 3B230000 		.4byte	0x233b
 6664 2328 1E       		.uleb128 0x1e
 6665 2329 01       		.uleb128 0x1
 6666 232a 51       		.byte	0x51
 6667 232b 05       		.uleb128 0x5
 6668 232c 03       		.byte	0x3
 6669 232d DF000000 		.4byte	.LC18
 6670 2331 1E       		.uleb128 0x1e
 6671 2332 01       		.uleb128 0x1
 6672 2333 50       		.byte	0x50
 6673 2334 05       		.uleb128 0x5
 6674 2335 75       		.byte	0x75
 6675 2336 00       		.sleb128 0
 6676 2337 74       		.byte	0x74
 6677 2338 00       		.sleb128 0
 6678 2339 22       		.byte	0x22
 6679 233a 00       		.byte	0
 6680 233b 20       		.uleb128 0x20
 6681 233c 64040000 		.4byte	.LVL154
 6682 2340 4C290000 		.4byte	0x294c
 6683 2344 55230000 		.4byte	0x2355
 6684 2348 1E       		.uleb128 0x1e
 6685 2349 01       		.uleb128 0x1
 6686 234a 52       		.byte	0x52
 6687 234b 02       		.uleb128 0x2
 6688 234c 76       		.byte	0x76
 6689 234d 00       		.sleb128 0
 6690 234e 1E       		.uleb128 0x1e
 6691 234f 01       		.uleb128 0x1
 6692 2350 51       		.byte	0x51
 6693 2351 02       		.uleb128 0x2
 6694 2352 7A       		.byte	0x7a
 6695 2353 00       		.sleb128 0
ARM GAS  C:\Users\AHMED~1.ELE\AppData\Local\Temp\ccWMHy5f.s 			page 134


 6696 2354 00       		.byte	0
 6697 2355 20       		.uleb128 0x20
 6698 2356 70040000 		.4byte	.LVL156
 6699 235a B1290000 		.4byte	0x29b1
 6700 235e 72230000 		.4byte	0x2372
 6701 2362 1E       		.uleb128 0x1e
 6702 2363 01       		.uleb128 0x1
 6703 2364 51       		.byte	0x51
 6704 2365 05       		.uleb128 0x5
 6705 2366 03       		.byte	0x3
 6706 2367 E9000000 		.4byte	.LC19
 6707 236b 1E       		.uleb128 0x1e
 6708 236c 01       		.uleb128 0x1
 6709 236d 50       		.byte	0x50
 6710 236e 02       		.uleb128 0x2
 6711 236f 7A       		.byte	0x7a
 6712 2370 00       		.sleb128 0
 6713 2371 00       		.byte	0
 6714 2372 23       		.uleb128 0x23
 6715 2373 8A040000 		.4byte	.LVL159
 6716 2377 CF290000 		.4byte	0x29cf
 6717 237b 20       		.uleb128 0x20
 6718 237c 9C040000 		.4byte	.LVL160
 6719 2380 E4290000 		.4byte	0x29e4
 6720 2384 8E230000 		.4byte	0x238e
 6721 2388 1E       		.uleb128 0x1e
 6722 2389 01       		.uleb128 0x1
 6723 238a 50       		.byte	0x50
 6724 238b 01       		.uleb128 0x1
 6725 238c 32       		.byte	0x32
 6726 238d 00       		.byte	0
 6727 238e 20       		.uleb128 0x20
 6728 238f A4040000 		.4byte	.LVL161
 6729 2393 F5290000 		.4byte	0x29f5
 6730 2397 A2230000 		.4byte	0x23a2
 6731 239b 1E       		.uleb128 0x1e
 6732 239c 01       		.uleb128 0x1
 6733 239d 50       		.byte	0x50
 6734 239e 02       		.uleb128 0x2
 6735 239f 7A       		.byte	0x7a
 6736 23a0 01       		.sleb128 1
 6737 23a1 00       		.byte	0
 6738 23a2 20       		.uleb128 0x20
 6739 23a3 AA040000 		.4byte	.LVL162
 6740 23a7 E4290000 		.4byte	0x29e4
 6741 23ab B5230000 		.4byte	0x23b5
 6742 23af 1E       		.uleb128 0x1e
 6743 23b0 01       		.uleb128 0x1
 6744 23b1 50       		.byte	0x50
 6745 23b2 01       		.uleb128 0x1
 6746 23b3 31       		.byte	0x31
 6747 23b4 00       		.byte	0
 6748 23b5 20       		.uleb128 0x20
 6749 23b6 B4040000 		.4byte	.LVL163
 6750 23ba 0A2A0000 		.4byte	0x2a0a
 6751 23be D4230000 		.4byte	0x23d4
 6752 23c2 1E       		.uleb128 0x1e
ARM GAS  C:\Users\AHMED~1.ELE\AppData\Local\Temp\ccWMHy5f.s 			page 135


 6753 23c3 01       		.uleb128 0x1
 6754 23c4 52       		.byte	0x52
 6755 23c5 01       		.uleb128 0x1
 6756 23c6 31       		.byte	0x31
 6757 23c7 1E       		.uleb128 0x1e
 6758 23c8 01       		.uleb128 0x1
 6759 23c9 51       		.byte	0x51
 6760 23ca 02       		.uleb128 0x2
 6761 23cb 74       		.byte	0x74
 6762 23cc 00       		.sleb128 0
 6763 23cd 1E       		.uleb128 0x1e
 6764 23ce 01       		.uleb128 0x1
 6765 23cf 50       		.byte	0x50
 6766 23d0 02       		.uleb128 0x2
 6767 23d1 75       		.byte	0x75
 6768 23d2 00       		.sleb128 0
 6769 23d3 00       		.byte	0
 6770 23d4 1D       		.uleb128 0x1d
 6771 23d5 BE040000 		.4byte	.LVL165
 6772 23d9 21280000 		.4byte	0x2821
 6773 23dd 1E       		.uleb128 0x1e
 6774 23de 01       		.uleb128 0x1
 6775 23df 51       		.byte	0x51
 6776 23e0 02       		.uleb128 0x2
 6777 23e1 75       		.byte	0x75
 6778 23e2 00       		.sleb128 0
 6779 23e3 1E       		.uleb128 0x1e
 6780 23e4 01       		.uleb128 0x1
 6781 23e5 50       		.byte	0x50
 6782 23e6 02       		.uleb128 0x2
 6783 23e7 08       		.byte	0x8
 6784 23e8 94       		.byte	0x94
 6785 23e9 00       		.byte	0
 6786 23ea 00       		.byte	0
 6787 23eb 00       		.byte	0
 6788 23ec 31       		.uleb128 0x31
 6789 23ed 891A0000 		.4byte	0x1a89
 6790 23f1 1E000000 		.4byte	.LBB25
 6791 23f5 18000000 		.4byte	.Ldebug_ranges0+0x18
 6792 23f9 01       		.byte	0x1
 6793 23fa 5002     		.2byte	0x250
 6794 23fc 4F240000 		.4byte	0x244f
 6795 2400 2A       		.uleb128 0x2a
 6796 2401 A61A0000 		.4byte	0x1aa6
 6797 2405 D8020000 		.4byte	.LLST20
 6798 2409 2A       		.uleb128 0x2a
 6799 240a 9A1A0000 		.4byte	0x1a9a
 6800 240e 03030000 		.4byte	.LLST21
 6801 2412 20       		.uleb128 0x20
 6802 2413 3E000000 		.4byte	.LVL59
 6803 2417 93280000 		.4byte	0x2893
 6804 241b 30240000 		.4byte	0x2430
 6805 241f 1E       		.uleb128 0x1e
 6806 2420 01       		.uleb128 0x1
 6807 2421 52       		.byte	0x52
 6808 2422 01       		.uleb128 0x1
 6809 2423 39       		.byte	0x39
ARM GAS  C:\Users\AHMED~1.ELE\AppData\Local\Temp\ccWMHy5f.s 			page 136


 6810 2424 1E       		.uleb128 0x1e
 6811 2425 01       		.uleb128 0x1
 6812 2426 51       		.byte	0x51
 6813 2427 01       		.uleb128 0x1
 6814 2428 30       		.byte	0x30
 6815 2429 1E       		.uleb128 0x1e
 6816 242a 01       		.uleb128 0x1
 6817 242b 50       		.byte	0x50
 6818 242c 02       		.uleb128 0x2
 6819 242d 08       		.byte	0x8
 6820 242e 64       		.byte	0x64
 6821 242f 00       		.byte	0
 6822 2430 1D       		.uleb128 0x1d
 6823 2431 68000000 		.4byte	.LVL64
 6824 2435 F5280000 		.4byte	0x28f5
 6825 2439 1E       		.uleb128 0x1e
 6826 243a 01       		.uleb128 0x1
 6827 243b 52       		.byte	0x52
 6828 243c 03       		.uleb128 0x3
 6829 243d 0A       		.byte	0xa
 6830 243e 1702     		.2byte	0x217
 6831 2440 1E       		.uleb128 0x1e
 6832 2441 01       		.uleb128 0x1
 6833 2442 51       		.byte	0x51
 6834 2443 02       		.uleb128 0x2
 6835 2444 74       		.byte	0x74
 6836 2445 00       		.sleb128 0
 6837 2446 1E       		.uleb128 0x1e
 6838 2447 01       		.uleb128 0x1
 6839 2448 50       		.byte	0x50
 6840 2449 03       		.uleb128 0x3
 6841 244a 91       		.byte	0x91
 6842 244b A877     		.sleb128 -1112
 6843 244d 00       		.byte	0
 6844 244e 00       		.byte	0
 6845 244f 31       		.uleb128 0x31
 6846 2450 9A140000 		.4byte	0x149a
 6847 2454 44000000 		.4byte	.LBB28
 6848 2458 30000000 		.4byte	.Ldebug_ranges0+0x30
 6849 245c 01       		.byte	0x1
 6850 245d 5B02     		.2byte	0x25b
 6851 245f D8260000 		.4byte	0x26d8
 6852 2463 2A       		.uleb128 0x2a
 6853 2464 AB140000 		.4byte	0x14ab
 6854 2468 59030000 		.4byte	.LLST22
 6855 246c 2A       		.uleb128 0x2a
 6856 246d B7140000 		.4byte	0x14b7
 6857 2471 7D030000 		.4byte	.LLST23
 6858 2475 33       		.uleb128 0x33
 6859 2476 30000000 		.4byte	.Ldebug_ranges0+0x30
 6860 247a 34       		.uleb128 0x34
 6861 247b C3140000 		.4byte	0x14c3
 6862 247f 9B030000 		.4byte	.LLST24
 6863 2483 34       		.uleb128 0x34
 6864 2484 CF140000 		.4byte	0x14cf
 6865 2488 DD030000 		.4byte	.LLST25
 6866 248c 35       		.uleb128 0x35
ARM GAS  C:\Users\AHMED~1.ELE\AppData\Local\Temp\ccWMHy5f.s 			page 137


 6867 248d DB140000 		.4byte	0x14db
 6868 2491 03       		.uleb128 0x3
 6869 2492 91       		.byte	0x91
 6870 2493 E876     		.sleb128 -1176
 6871 2495 34       		.uleb128 0x34
 6872 2496 E7140000 		.4byte	0x14e7
 6873 249a 1C040000 		.4byte	.LLST26
 6874 249e 34       		.uleb128 0x34
 6875 249f F1140000 		.4byte	0x14f1
 6876 24a3 53040000 		.4byte	.LLST27
 6877 24a7 34       		.uleb128 0x34
 6878 24a8 FD140000 		.4byte	0x14fd
 6879 24ac AC040000 		.4byte	.LLST28
 6880 24b0 35       		.uleb128 0x35
 6881 24b1 09150000 		.4byte	0x1509
 6882 24b5 03       		.uleb128 0x3
 6883 24b6 91       		.byte	0x91
 6884 24b7 9C76     		.sleb128 -1252
 6885 24b9 35       		.uleb128 0x35
 6886 24ba 15150000 		.4byte	0x1515
 6887 24be 03       		.uleb128 0x3
 6888 24bf 91       		.byte	0x91
 6889 24c0 A876     		.sleb128 -1240
 6890 24c2 20       		.uleb128 0x20
 6891 24c3 4E000000 		.4byte	.LVL61
 6892 24c7 21280000 		.4byte	0x2821
 6893 24cb DD240000 		.4byte	0x24dd
 6894 24cf 1E       		.uleb128 0x1e
 6895 24d0 01       		.uleb128 0x1
 6896 24d1 51       		.byte	0x51
 6897 24d2 03       		.uleb128 0x3
 6898 24d3 0A       		.byte	0xa
 6899 24d4 0004     		.2byte	0x400
 6900 24d6 1E       		.uleb128 0x1e
 6901 24d7 01       		.uleb128 0x1
 6902 24d8 50       		.byte	0x50
 6903 24d9 02       		.uleb128 0x2
 6904 24da 08       		.byte	0x8
 6905 24db 92       		.byte	0x92
 6906 24dc 00       		.byte	0
 6907 24dd 20       		.uleb128 0x20
 6908 24de FE040000 		.4byte	.LVL173
 6909 24e2 6A140000 		.4byte	0x146a
 6910 24e6 F8240000 		.4byte	0x24f8
 6911 24ea 1E       		.uleb128 0x1e
 6912 24eb 01       		.uleb128 0x1
 6913 24ec 51       		.byte	0x51
 6914 24ed 02       		.uleb128 0x2
 6915 24ee 79       		.byte	0x79
 6916 24ef 00       		.sleb128 0
 6917 24f0 1E       		.uleb128 0x1e
 6918 24f1 01       		.uleb128 0x1
 6919 24f2 50       		.byte	0x50
 6920 24f3 03       		.uleb128 0x3
 6921 24f4 91       		.byte	0x91
 6922 24f5 A876     		.sleb128 -1240
 6923 24f7 00       		.byte	0
ARM GAS  C:\Users\AHMED~1.ELE\AppData\Local\Temp\ccWMHy5f.s 			page 138


 6924 24f8 20       		.uleb128 0x20
 6925 24f9 16050000 		.4byte	.LVL174
 6926 24fd DB280000 		.4byte	0x28db
 6927 2501 18250000 		.4byte	0x2518
 6928 2505 1E       		.uleb128 0x1e
 6929 2506 01       		.uleb128 0x1
 6930 2507 51       		.byte	0x51
 6931 2508 05       		.uleb128 0x5
 6932 2509 03       		.byte	0x3
 6933 250a F6000000 		.4byte	.LC20
 6934 250e 1E       		.uleb128 0x1e
 6935 250f 01       		.uleb128 0x1
 6936 2510 50       		.byte	0x50
 6937 2511 05       		.uleb128 0x5
 6938 2512 76       		.byte	0x76
 6939 2513 00       		.sleb128 0
 6940 2514 74       		.byte	0x74
 6941 2515 00       		.sleb128 0
 6942 2516 22       		.byte	0x22
 6943 2517 00       		.byte	0
 6944 2518 20       		.uleb128 0x20
 6945 2519 1E050000 		.4byte	.LVL175
 6946 251d 4C290000 		.4byte	0x294c
 6947 2521 35250000 		.4byte	0x2535
 6948 2525 1E       		.uleb128 0x1e
 6949 2526 01       		.uleb128 0x1
 6950 2527 52       		.byte	0x52
 6951 2528 02       		.uleb128 0x2
 6952 2529 78       		.byte	0x78
 6953 252a 00       		.sleb128 0
 6954 252b 1E       		.uleb128 0x1e
 6955 252c 01       		.uleb128 0x1
 6956 252d 51       		.byte	0x51
 6957 252e 05       		.uleb128 0x5
 6958 252f 03       		.byte	0x3
 6959 2530 04010000 		.4byte	.LC21
 6960 2534 00       		.byte	0
 6961 2535 20       		.uleb128 0x20
 6962 2536 32050000 		.4byte	.LVL177
 6963 253a 31290000 		.4byte	0x2931
 6964 253e 55250000 		.4byte	0x2555
 6965 2542 1E       		.uleb128 0x1e
 6966 2543 01       		.uleb128 0x1
 6967 2544 52       		.byte	0x52
 6968 2545 01       		.uleb128 0x1
 6969 2546 35       		.byte	0x35
 6970 2547 1E       		.uleb128 0x1e
 6971 2548 01       		.uleb128 0x1
 6972 2549 51       		.byte	0x51
 6973 254a 03       		.uleb128 0x3
 6974 254b 91       		.byte	0x91
 6975 254c A976     		.sleb128 -1239
 6976 254e 1E       		.uleb128 0x1e
 6977 254f 01       		.uleb128 0x1
 6978 2550 50       		.byte	0x50
 6979 2551 02       		.uleb128 0x2
 6980 2552 7B       		.byte	0x7b
ARM GAS  C:\Users\AHMED~1.ELE\AppData\Local\Temp\ccWMHy5f.s 			page 139


 6981 2553 00       		.sleb128 0
 6982 2554 00       		.byte	0
 6983 2555 20       		.uleb128 0x20
 6984 2556 48050000 		.4byte	.LVL178
 6985 255a 6B290000 		.4byte	0x296b
 6986 255e 77250000 		.4byte	0x2577
 6987 2562 1E       		.uleb128 0x1e
 6988 2563 01       		.uleb128 0x1
 6989 2564 51       		.byte	0x51
 6990 2565 05       		.uleb128 0x5
 6991 2566 03       		.byte	0x3
 6992 2567 10010000 		.4byte	.LC22
 6993 256b 1E       		.uleb128 0x1e
 6994 256c 01       		.uleb128 0x1
 6995 256d 50       		.byte	0x50
 6996 256e 07       		.uleb128 0x7
 6997 256f 74       		.byte	0x74
 6998 2570 00       		.sleb128 0
 6999 2571 76       		.byte	0x76
 7000 2572 00       		.sleb128 0
 7001 2573 22       		.byte	0x22
 7002 2574 23       		.byte	0x23
 7003 2575 0B       		.uleb128 0xb
 7004 2576 00       		.byte	0
 7005 2577 20       		.uleb128 0x20
 7006 2578 58050000 		.4byte	.LVL179
 7007 257c 6B290000 		.4byte	0x296b
 7008 2580 94250000 		.4byte	0x2594
 7009 2584 1E       		.uleb128 0x1e
 7010 2585 01       		.uleb128 0x1
 7011 2586 51       		.byte	0x51
 7012 2587 05       		.uleb128 0x5
 7013 2588 03       		.byte	0x3
 7014 2589 15010000 		.4byte	.LC23
 7015 258d 1E       		.uleb128 0x1e
 7016 258e 01       		.uleb128 0x1
 7017 258f 50       		.byte	0x50
 7018 2590 02       		.uleb128 0x2
 7019 2591 75       		.byte	0x75
 7020 2592 00       		.sleb128 0
 7021 2593 00       		.byte	0
 7022 2594 20       		.uleb128 0x20
 7023 2595 5E050000 		.4byte	.LVL180
 7024 2599 86290000 		.4byte	0x2986
 7025 259d A8250000 		.4byte	0x25a8
 7026 25a1 1E       		.uleb128 0x1e
 7027 25a2 01       		.uleb128 0x1
 7028 25a3 50       		.byte	0x50
 7029 25a4 02       		.uleb128 0x2
 7030 25a5 75       		.byte	0x75
 7031 25a6 00       		.sleb128 0
 7032 25a7 00       		.byte	0
 7033 25a8 20       		.uleb128 0x20
 7034 25a9 6E050000 		.4byte	.LVL181
 7035 25ad 6B290000 		.4byte	0x296b
 7036 25b1 BF250000 		.4byte	0x25bf
 7037 25b5 1E       		.uleb128 0x1e
ARM GAS  C:\Users\AHMED~1.ELE\AppData\Local\Temp\ccWMHy5f.s 			page 140


 7038 25b6 01       		.uleb128 0x1
 7039 25b7 51       		.byte	0x51
 7040 25b8 05       		.uleb128 0x5
 7041 25b9 03       		.byte	0x3
 7042 25ba 15010000 		.4byte	.LC23
 7043 25be 00       		.byte	0
 7044 25bf 20       		.uleb128 0x20
 7045 25c0 78050000 		.4byte	.LVL182
 7046 25c4 4C290000 		.4byte	0x294c
 7047 25c8 DF250000 		.4byte	0x25df
 7048 25cc 1E       		.uleb128 0x1e
 7049 25cd 01       		.uleb128 0x1
 7050 25ce 52       		.byte	0x52
 7051 25cf 02       		.uleb128 0x2
 7052 25d0 78       		.byte	0x78
 7053 25d1 00       		.sleb128 0
 7054 25d2 1E       		.uleb128 0x1e
 7055 25d3 01       		.uleb128 0x1
 7056 25d4 51       		.byte	0x51
 7057 25d5 02       		.uleb128 0x2
 7058 25d6 75       		.byte	0x75
 7059 25d7 00       		.sleb128 0
 7060 25d8 1E       		.uleb128 0x1e
 7061 25d9 01       		.uleb128 0x1
 7062 25da 50       		.byte	0x50
 7063 25db 02       		.uleb128 0x2
 7064 25dc 7B       		.byte	0x7b
 7065 25dd 00       		.sleb128 0
 7066 25de 00       		.byte	0
 7067 25df 20       		.uleb128 0x20
 7068 25e0 8A050000 		.4byte	.LVL184
 7069 25e4 B1290000 		.4byte	0x29b1
 7070 25e8 FC250000 		.4byte	0x25fc
 7071 25ec 1E       		.uleb128 0x1e
 7072 25ed 01       		.uleb128 0x1
 7073 25ee 51       		.byte	0x51
 7074 25ef 05       		.uleb128 0x5
 7075 25f0 03       		.byte	0x3
 7076 25f1 20010000 		.4byte	.LC24
 7077 25f5 1E       		.uleb128 0x1e
 7078 25f6 01       		.uleb128 0x1
 7079 25f7 50       		.byte	0x50
 7080 25f8 02       		.uleb128 0x2
 7081 25f9 75       		.byte	0x75
 7082 25fa 00       		.sleb128 0
 7083 25fb 00       		.byte	0
 7084 25fc 23       		.uleb128 0x23
 7085 25fd A2050000 		.4byte	.LVL187
 7086 2601 CF290000 		.4byte	0x29cf
 7087 2605 20       		.uleb128 0x20
 7088 2606 B4050000 		.4byte	.LVL190
 7089 260a 0A2A0000 		.4byte	0x2a0a
 7090 260e 24260000 		.4byte	0x2624
 7091 2612 1E       		.uleb128 0x1e
 7092 2613 01       		.uleb128 0x1
 7093 2614 52       		.byte	0x52
 7094 2615 01       		.uleb128 0x1
ARM GAS  C:\Users\AHMED~1.ELE\AppData\Local\Temp\ccWMHy5f.s 			page 141


 7095 2616 31       		.byte	0x31
 7096 2617 1E       		.uleb128 0x1e
 7097 2618 01       		.uleb128 0x1
 7098 2619 51       		.byte	0x51
 7099 261a 02       		.uleb128 0x2
 7100 261b 74       		.byte	0x74
 7101 261c 00       		.sleb128 0
 7102 261d 1E       		.uleb128 0x1e
 7103 261e 01       		.uleb128 0x1
 7104 261f 50       		.byte	0x50
 7105 2620 02       		.uleb128 0x2
 7106 2621 76       		.byte	0x76
 7107 2622 00       		.sleb128 0
 7108 2623 00       		.byte	0
 7109 2624 20       		.uleb128 0x20
 7110 2625 CE050000 		.4byte	.LVL196
 7111 2629 B1290000 		.4byte	0x29b1
 7112 262d 41260000 		.4byte	0x2641
 7113 2631 1E       		.uleb128 0x1e
 7114 2632 01       		.uleb128 0x1
 7115 2633 51       		.byte	0x51
 7116 2634 05       		.uleb128 0x5
 7117 2635 03       		.byte	0x3
 7118 2636 20010000 		.4byte	.LC24
 7119 263a 1E       		.uleb128 0x1e
 7120 263b 01       		.uleb128 0x1
 7121 263c 50       		.byte	0x50
 7122 263d 02       		.uleb128 0x2
 7123 263e 75       		.byte	0x75
 7124 263f 00       		.sleb128 0
 7125 2640 00       		.byte	0
 7126 2641 23       		.uleb128 0x23
 7127 2642 EE050000 		.4byte	.LVL199
 7128 2646 CF290000 		.4byte	0x29cf
 7129 264a 20       		.uleb128 0x20
 7130 264b 02060000 		.4byte	.LVL202
 7131 264f 0A2A0000 		.4byte	0x2a0a
 7132 2653 69260000 		.4byte	0x2669
 7133 2657 1E       		.uleb128 0x1e
 7134 2658 01       		.uleb128 0x1
 7135 2659 52       		.byte	0x52
 7136 265a 01       		.uleb128 0x1
 7137 265b 31       		.byte	0x31
 7138 265c 1E       		.uleb128 0x1e
 7139 265d 01       		.uleb128 0x1
 7140 265e 51       		.byte	0x51
 7141 265f 02       		.uleb128 0x2
 7142 2660 74       		.byte	0x74
 7143 2661 00       		.sleb128 0
 7144 2662 1E       		.uleb128 0x1e
 7145 2663 01       		.uleb128 0x1
 7146 2664 50       		.byte	0x50
 7147 2665 02       		.uleb128 0x2
 7148 2666 76       		.byte	0x76
 7149 2667 00       		.sleb128 0
 7150 2668 00       		.byte	0
 7151 2669 20       		.uleb128 0x20
ARM GAS  C:\Users\AHMED~1.ELE\AppData\Local\Temp\ccWMHy5f.s 			page 142


 7152 266a 0C060000 		.4byte	.LVL204
 7153 266e 21280000 		.4byte	0x2821
 7154 2672 83260000 		.4byte	0x2683
 7155 2676 1E       		.uleb128 0x1e
 7156 2677 01       		.uleb128 0x1
 7157 2678 51       		.byte	0x51
 7158 2679 02       		.uleb128 0x2
 7159 267a 76       		.byte	0x76
 7160 267b 00       		.sleb128 0
 7161 267c 1E       		.uleb128 0x1e
 7162 267d 01       		.uleb128 0x1
 7163 267e 50       		.byte	0x50
 7164 267f 02       		.uleb128 0x2
 7165 2680 08       		.byte	0x8
 7166 2681 94       		.byte	0x94
 7167 2682 00       		.byte	0
 7168 2683 20       		.uleb128 0x20
 7169 2684 18060000 		.4byte	.LVL209
 7170 2688 E4290000 		.4byte	0x29e4
 7171 268c 96260000 		.4byte	0x2696
 7172 2690 1E       		.uleb128 0x1e
 7173 2691 01       		.uleb128 0x1
 7174 2692 50       		.byte	0x50
 7175 2693 01       		.uleb128 0x1
 7176 2694 32       		.byte	0x32
 7177 2695 00       		.byte	0
 7178 2696 20       		.uleb128 0x20
 7179 2697 20060000 		.4byte	.LVL210
 7180 269b DB280000 		.4byte	0x28db
 7181 269f B3260000 		.4byte	0x26b3
 7182 26a3 1E       		.uleb128 0x1e
 7183 26a4 01       		.uleb128 0x1
 7184 26a5 51       		.byte	0x51
 7185 26a6 05       		.uleb128 0x5
 7186 26a7 03       		.byte	0x3
 7187 26a8 2E010000 		.4byte	.LC25
 7188 26ac 1E       		.uleb128 0x1e
 7189 26ad 01       		.uleb128 0x1
 7190 26ae 50       		.byte	0x50
 7191 26af 02       		.uleb128 0x2
 7192 26b0 75       		.byte	0x75
 7193 26b1 00       		.sleb128 0
 7194 26b2 00       		.byte	0
 7195 26b3 20       		.uleb128 0x20
 7196 26b4 26060000 		.4byte	.LVL211
 7197 26b8 F5290000 		.4byte	0x29f5
 7198 26bc C7260000 		.4byte	0x26c7
 7199 26c0 1E       		.uleb128 0x1e
 7200 26c1 01       		.uleb128 0x1
 7201 26c2 50       		.byte	0x50
 7202 26c3 02       		.uleb128 0x2
 7203 26c4 75       		.byte	0x75
 7204 26c5 00       		.sleb128 0
 7205 26c6 00       		.byte	0
 7206 26c7 1D       		.uleb128 0x1d
 7207 26c8 2C060000 		.4byte	.LVL212
 7208 26cc E4290000 		.4byte	0x29e4
ARM GAS  C:\Users\AHMED~1.ELE\AppData\Local\Temp\ccWMHy5f.s 			page 143


 7209 26d0 1E       		.uleb128 0x1e
 7210 26d1 01       		.uleb128 0x1
 7211 26d2 50       		.byte	0x50
 7212 26d3 01       		.uleb128 0x1
 7213 26d4 31       		.byte	0x31
 7214 26d5 00       		.byte	0
 7215 26d6 00       		.byte	0
 7216 26d7 00       		.byte	0
 7217 26d8 1D       		.uleb128 0x1d
 7218 26d9 80000000 		.4byte	.LVL67
 7219 26dd F5280000 		.4byte	0x28f5
 7220 26e1 1E       		.uleb128 0x1e
 7221 26e2 01       		.uleb128 0x1
 7222 26e3 52       		.byte	0x52
 7223 26e4 03       		.uleb128 0x3
 7224 26e5 0A       		.byte	0xa
 7225 26e6 1702     		.2byte	0x217
 7226 26e8 1E       		.uleb128 0x1e
 7227 26e9 01       		.uleb128 0x1
 7228 26ea 51       		.byte	0x51
 7229 26eb 03       		.uleb128 0x3
 7230 26ec 91       		.byte	0x91
 7231 26ed A877     		.sleb128 -1112
 7232 26ef 1E       		.uleb128 0x1e
 7233 26f0 01       		.uleb128 0x1
 7234 26f1 50       		.byte	0x50
 7235 26f2 03       		.uleb128 0x3
 7236 26f3 91       		.byte	0x91
 7237 26f4 C07B     		.sleb128 -576
 7238 26f6 00       		.byte	0
 7239 26f7 00       		.byte	0
 7240 26f8 36       		.uleb128 0x36
 7241 26f9 A02E0000 		.4byte	.LASF725
 7242 26fd 01       		.byte	0x1
 7243 26fe 6802     		.2byte	0x268
 7244 2700 97000000 		.4byte	0x97
 7245 2704 00000000 		.4byte	.LFB14
 7246 2708 44000000 		.4byte	.LFE14-.LFB14
 7247 270c 01       		.uleb128 0x1
 7248 270d 9C       		.byte	0x9c
 7249 270e 7D270000 		.4byte	0x277d
 7250 2712 20       		.uleb128 0x20
 7251 2713 0C000000 		.4byte	.LVL216
 7252 2717 21280000 		.4byte	0x2821
 7253 271b 2D270000 		.4byte	0x272d
 7254 271f 1E       		.uleb128 0x1e
 7255 2720 01       		.uleb128 0x1
 7256 2721 51       		.byte	0x51
 7257 2722 03       		.uleb128 0x3
 7258 2723 0A       		.byte	0xa
 7259 2724 DC05     		.2byte	0x5dc
 7260 2726 1E       		.uleb128 0x1e
 7261 2727 01       		.uleb128 0x1
 7262 2728 50       		.byte	0x50
 7263 2729 02       		.uleb128 0x2
 7264 272a 08       		.byte	0x8
 7265 272b 92       		.byte	0x92
ARM GAS  C:\Users\AHMED~1.ELE\AppData\Local\Temp\ccWMHy5f.s 			page 144


 7266 272c 00       		.byte	0
 7267 272d 20       		.uleb128 0x20
 7268 272e 1C000000 		.4byte	.LVL217
 7269 2732 21280000 		.4byte	0x2821
 7270 2736 47270000 		.4byte	0x2747
 7271 273a 1E       		.uleb128 0x1e
 7272 273b 01       		.uleb128 0x1
 7273 273c 51       		.byte	0x51
 7274 273d 02       		.uleb128 0x2
 7275 273e 75       		.byte	0x75
 7276 273f 00       		.sleb128 0
 7277 2740 1E       		.uleb128 0x1e
 7278 2741 01       		.uleb128 0x1
 7279 2742 50       		.byte	0x50
 7280 2743 02       		.uleb128 0x2
 7281 2744 08       		.byte	0x8
 7282 2745 92       		.byte	0x92
 7283 2746 00       		.byte	0
 7284 2747 20       		.uleb128 0x20
 7285 2748 26000000 		.4byte	.LVL218
 7286 274c 21280000 		.4byte	0x2821
 7287 2750 61270000 		.4byte	0x2761
 7288 2754 1E       		.uleb128 0x1e
 7289 2755 01       		.uleb128 0x1
 7290 2756 51       		.byte	0x51
 7291 2757 02       		.uleb128 0x2
 7292 2758 75       		.byte	0x75
 7293 2759 00       		.sleb128 0
 7294 275a 1E       		.uleb128 0x1e
 7295 275b 01       		.uleb128 0x1
 7296 275c 50       		.byte	0x50
 7297 275d 02       		.uleb128 0x2
 7298 275e 08       		.byte	0x8
 7299 275f 92       		.byte	0x92
 7300 2760 00       		.byte	0
 7301 2761 23       		.uleb128 0x23
 7302 2762 2E000000 		.4byte	.LVL219
 7303 2766 292A0000 		.4byte	0x2a29
 7304 276a 23       		.uleb128 0x23
 7305 276b 34000000 		.4byte	.LVL220
 7306 276f 292A0000 		.4byte	0x2a29
 7307 2773 23       		.uleb128 0x23
 7308 2774 3A000000 		.4byte	.LVL221
 7309 2778 292A0000 		.4byte	0x2a29
 7310 277c 00       		.byte	0
 7311 277d 27       		.uleb128 0x27
 7312 277e DF2C0000 		.4byte	.LASF726
 7313 2782 01       		.byte	0x1
 7314 2783 3C       		.byte	0x3c
 7315 2784 CE000000 		.4byte	0xce
 7316 2788 05       		.uleb128 0x5
 7317 2789 03       		.byte	0x3
 7318 278a 08000000 		.4byte	sbIOBuf
 7319 278e 27       		.uleb128 0x27
 7320 278f 672F0000 		.4byte	.LASF727
 7321 2793 01       		.byte	0x1
 7322 2794 3D       		.byte	0x3d
ARM GAS  C:\Users\AHMED~1.ELE\AppData\Local\Temp\ccWMHy5f.s 			page 145


 7323 2795 9F270000 		.4byte	0x279f
 7324 2799 05       		.uleb128 0x5
 7325 279a 03       		.byte	0x3
 7326 279b 00000000 		.4byte	sCTLIn
 7327 279f 06       		.uleb128 0x6
 7328 27a0 04       		.byte	0x4
 7329 27a1 7D120000 		.4byte	0x127d
 7330 27a5 27       		.uleb128 0x27
 7331 27a6 7D000000 		.4byte	.LASF728
 7332 27aa 01       		.byte	0x1
 7333 27ab 3E       		.byte	0x3e
 7334 27ac 9F270000 		.4byte	0x279f
 7335 27b0 05       		.uleb128 0x5
 7336 27b1 03       		.byte	0x3
 7337 27b2 04000000 		.4byte	sCTLOut
 7338 27b6 27       		.uleb128 0x27
 7339 27b7 A1020000 		.4byte	.LASF729
 7340 27bb 01       		.byte	0x1
 7341 27bc 3F       		.byte	0x3f
 7342 27bd A2000000 		.4byte	0xa2
 7343 27c1 05       		.uleb128 0x5
 7344 27c2 03       		.byte	0x3
 7345 27c3 0C000000 		.4byte	bCtlLoaded
 7346 27c7 27       		.uleb128 0x27
 7347 27c8 A60A0000 		.4byte	.LASF730
 7348 27cc 01       		.byte	0x1
 7349 27cd 40       		.byte	0x40
 7350 27ce A2000000 		.4byte	0xa2
 7351 27d2 05       		.uleb128 0x5
 7352 27d3 03       		.byte	0x3
 7353 27d4 10000000 		.4byte	bMaxNumBlk
 7354 27d8 27       		.uleb128 0x27
 7355 27d9 930F0000 		.4byte	.LASF731
 7356 27dd 01       		.byte	0x1
 7357 27de 40       		.byte	0x40
 7358 27df A2000000 		.4byte	0xa2
 7359 27e3 05       		.uleb128 0x5
 7360 27e4 03       		.byte	0x3
 7361 27e5 11000000 		.4byte	bDnloadBlk
 7362 27e9 27       		.uleb128 0x27
 7363 27ea F92A0000 		.4byte	.LASF732
 7364 27ee 01       		.byte	0x1
 7365 27ef 41       		.byte	0x41
 7366 27f0 AD000000 		.4byte	0xad
 7367 27f4 05       		.uleb128 0x5
 7368 27f5 03       		.byte	0x3
 7369 27f6 0E000000 		.4byte	wChunkSize
 7370 27fa 27       		.uleb128 0x27
 7371 27fb EB120000 		.4byte	.LASF733
 7372 27ff 01       		.byte	0x1
 7373 2800 42       		.byte	0x42
 7374 2801 25000000 		.4byte	0x25
 7375 2805 05       		.uleb128 0x5
 7376 2806 03       		.byte	0x3
 7377 2807 00000000 		.4byte	iDnloadFile
 7378 280b 27       		.uleb128 0x27
 7379 280c 3B240000 		.4byte	.LASF734
ARM GAS  C:\Users\AHMED~1.ELE\AppData\Local\Temp\ccWMHy5f.s 			page 146


 7380 2810 01       		.byte	0x1
 7381 2811 44       		.byte	0x44
 7382 2812 1C280000 		.4byte	0x281c
 7383 2816 05       		.uleb128 0x5
 7384 2817 03       		.byte	0x3
 7385 2818 00000000 		.4byte	KCTLTemp
 7386 281c 07       		.uleb128 0x7
 7387 281d E4000000 		.4byte	0xe4
 7388 2821 37       		.uleb128 0x37
 7389 2822 181D0000 		.4byte	.LASF736
 7390 2826 04       		.byte	0x4
 7391 2827 A2       		.byte	0xa2
 7392 2828 B8000000 		.4byte	0xb8
 7393 282c 3B280000 		.4byte	0x283b
 7394 2830 38       		.uleb128 0x38
 7395 2831 B8000000 		.4byte	0xb8
 7396 2835 38       		.uleb128 0x38
 7397 2836 B8000000 		.4byte	0xb8
 7398 283a 00       		.byte	0
 7399 283b 39       		.uleb128 0x39
 7400 283c 51280000 		.4byte	.LASF739
 7401 2840 0D       		.byte	0xd
 7402 2841 4E       		.byte	0x4e
 7403 2842 4C280000 		.4byte	0x284c
 7404 2846 38       		.uleb128 0x38
 7405 2847 8C000000 		.4byte	0x8c
 7406 284b 00       		.byte	0
 7407 284c 37       		.uleb128 0x37
 7408 284d 9E0E0000 		.4byte	.LASF737
 7409 2851 0A       		.byte	0xa
 7410 2852 39       		.byte	0x39
 7411 2853 B8000000 		.4byte	0xb8
 7412 2857 61280000 		.4byte	0x2861
 7413 285b 38       		.uleb128 0x38
 7414 285c B8000000 		.4byte	0xb8
 7415 2860 00       		.byte	0
 7416 2861 37       		.uleb128 0x37
 7417 2862 0E1D0000 		.4byte	.LASF738
 7418 2866 04       		.byte	0x4
 7419 2867 A1       		.byte	0xa1
 7420 2868 B8000000 		.4byte	0xb8
 7421 286c 76280000 		.4byte	0x2876
 7422 2870 38       		.uleb128 0x38
 7423 2871 B8000000 		.4byte	0xb8
 7424 2875 00       		.byte	0
 7425 2876 3A       		.uleb128 0x3a
 7426 2877 2E260000 		.4byte	.LASF740
 7427 287b 7D000000 		.4byte	0x7d
 7428 287f 93280000 		.4byte	0x2893
 7429 2883 38       		.uleb128 0x38
 7430 2884 7D000000 		.4byte	0x7d
 7431 2888 38       		.uleb128 0x38
 7432 2889 25000000 		.4byte	0x25
 7433 288d 38       		.uleb128 0x38
 7434 288e 76000000 		.4byte	0x76
 7435 2892 00       		.byte	0
 7436 2893 37       		.uleb128 0x37
ARM GAS  C:\Users\AHMED~1.ELE\AppData\Local\Temp\ccWMHy5f.s 			page 147


 7437 2894 C80B0000 		.4byte	.LASF741
 7438 2898 04       		.byte	0x4
 7439 2899 A0       		.byte	0xa0
 7440 289a B8000000 		.4byte	0xb8
 7441 289e BC280000 		.4byte	0x28bc
 7442 28a2 38       		.uleb128 0x38
 7443 28a3 B8000000 		.4byte	0xb8
 7444 28a7 38       		.uleb128 0x38
 7445 28a8 B8000000 		.4byte	0xb8
 7446 28ac 38       		.uleb128 0x38
 7447 28ad B8000000 		.4byte	0xb8
 7448 28b1 38       		.uleb128 0x38
 7449 28b2 B8000000 		.4byte	0xb8
 7450 28b6 38       		.uleb128 0x38
 7451 28b7 B8000000 		.4byte	0xb8
 7452 28bb 00       		.byte	0
 7453 28bc 37       		.uleb128 0x37
 7454 28bd 221D0000 		.4byte	.LASF742
 7455 28c1 04       		.byte	0x4
 7456 28c2 A3       		.byte	0xa3
 7457 28c3 B8000000 		.4byte	0xb8
 7458 28c7 DB280000 		.4byte	0x28db
 7459 28cb 38       		.uleb128 0x38
 7460 28cc B8000000 		.4byte	0xb8
 7461 28d0 38       		.uleb128 0x38
 7462 28d1 B8000000 		.4byte	0xb8
 7463 28d5 38       		.uleb128 0x38
 7464 28d6 B8000000 		.4byte	0xb8
 7465 28da 00       		.byte	0
 7466 28db 37       		.uleb128 0x37
 7467 28dc 78150000 		.4byte	.LASF743
 7468 28e0 0B       		.byte	0xb
 7469 28e1 1E       		.byte	0x1e
 7470 28e2 7F000000 		.4byte	0x7f
 7471 28e6 F5280000 		.4byte	0x28f5
 7472 28ea 38       		.uleb128 0x38
 7473 28eb 7F000000 		.4byte	0x7f
 7474 28ef 38       		.uleb128 0x38
 7475 28f0 8C000000 		.4byte	0x8c
 7476 28f4 00       		.byte	0
 7477 28f5 3A       		.uleb128 0x3a
 7478 28f6 6F2C0000 		.4byte	.LASF744
 7479 28fa 7D000000 		.4byte	0x7d
 7480 28fe 12290000 		.4byte	0x2912
 7481 2902 38       		.uleb128 0x38
 7482 2903 7D000000 		.4byte	0x7d
 7483 2907 38       		.uleb128 0x38
 7484 2908 3E100000 		.4byte	0x103e
 7485 290c 38       		.uleb128 0x38
 7486 290d 76000000 		.4byte	0x76
 7487 2911 00       		.byte	0
 7488 2912 37       		.uleb128 0x37
 7489 2913 51230000 		.4byte	.LASF745
 7490 2917 0C       		.byte	0xc
 7491 2918 37       		.byte	0x37
 7492 2919 97000000 		.4byte	0x97
 7493 291d 31290000 		.4byte	0x2931
ARM GAS  C:\Users\AHMED~1.ELE\AppData\Local\Temp\ccWMHy5f.s 			page 148


 7494 2921 38       		.uleb128 0x38
 7495 2922 CE000000 		.4byte	0xce
 7496 2926 38       		.uleb128 0x38
 7497 2927 CE000000 		.4byte	0xce
 7498 292b 38       		.uleb128 0x38
 7499 292c AD000000 		.4byte	0xad
 7500 2930 00       		.byte	0
 7501 2931 39       		.uleb128 0x39
 7502 2932 2E2E0000 		.4byte	.LASF746
 7503 2936 0E       		.byte	0xe
 7504 2937 29       		.byte	0x29
 7505 2938 4C290000 		.4byte	0x294c
 7506 293c 38       		.uleb128 0x38
 7507 293d CE000000 		.4byte	0xce
 7508 2941 38       		.uleb128 0x38
 7509 2942 CE000000 		.4byte	0xce
 7510 2946 38       		.uleb128 0x38
 7511 2947 B8000000 		.4byte	0xb8
 7512 294b 00       		.byte	0
 7513 294c 37       		.uleb128 0x37
 7514 294d FE130000 		.4byte	.LASF747
 7515 2951 09       		.byte	0x9
 7516 2952 36       		.byte	0x36
 7517 2953 25000000 		.4byte	0x25
 7518 2957 6B290000 		.4byte	0x296b
 7519 295b 38       		.uleb128 0x38
 7520 295c 7F000000 		.4byte	0x7f
 7521 2960 38       		.uleb128 0x38
 7522 2961 7F000000 		.4byte	0x7f
 7523 2965 38       		.uleb128 0x38
 7524 2966 25000000 		.4byte	0x25
 7525 296a 00       		.byte	0
 7526 296b 37       		.uleb128 0x37
 7527 296c 67170000 		.4byte	.LASF748
 7528 2970 0F       		.byte	0xf
 7529 2971 DD       		.byte	0xdd
 7530 2972 25000000 		.4byte	0x25
 7531 2976 86290000 		.4byte	0x2986
 7532 297a 38       		.uleb128 0x38
 7533 297b 7F000000 		.4byte	0x7f
 7534 297f 38       		.uleb128 0x38
 7535 2980 8C000000 		.4byte	0x8c
 7536 2984 3B       		.uleb128 0x3b
 7537 2985 00       		.byte	0
 7538 2986 37       		.uleb128 0x37
 7539 2987 052C0000 		.4byte	.LASF749
 7540 298b 0B       		.byte	0xb
 7541 298c 21       		.byte	0x21
 7542 298d 2C000000 		.4byte	0x2c
 7543 2991 9B290000 		.4byte	0x299b
 7544 2995 38       		.uleb128 0x38
 7545 2996 8C000000 		.4byte	0x8c
 7546 299a 00       		.byte	0
 7547 299b 39       		.uleb128 0x39
 7548 299c 95090000 		.4byte	.LASF750
 7549 29a0 0C       		.byte	0xc
 7550 29a1 38       		.byte	0x38
ARM GAS  C:\Users\AHMED~1.ELE\AppData\Local\Temp\ccWMHy5f.s 			page 149


 7551 29a2 B1290000 		.4byte	0x29b1
 7552 29a6 38       		.uleb128 0x38
 7553 29a7 CE000000 		.4byte	0xce
 7554 29ab 38       		.uleb128 0x38
 7555 29ac A2000000 		.4byte	0xa2
 7556 29b0 00       		.byte	0
 7557 29b1 3C       		.uleb128 0x3c
 7558 29b2 141A0000 		.4byte	.LASF762
 7559 29b6 11       		.byte	0x11
 7560 29b7 00       		.byte	0
 7561 29b8 78150000 		.4byte	.LASF743
 7562 29bc 7F000000 		.4byte	0x7f
 7563 29c0 CF290000 		.4byte	0x29cf
 7564 29c4 38       		.uleb128 0x38
 7565 29c5 7F000000 		.4byte	0x7f
 7566 29c9 38       		.uleb128 0x38
 7567 29ca 8C000000 		.4byte	0x8c
 7568 29ce 00       		.byte	0
 7569 29cf 37       		.uleb128 0x37
 7570 29d0 86250000 		.4byte	.LASF751
 7571 29d4 09       		.byte	0x9
 7572 29d5 37       		.byte	0x37
 7573 29d6 B8000000 		.4byte	0xb8
 7574 29da E4290000 		.4byte	0x29e4
 7575 29de 38       		.uleb128 0x38
 7576 29df 93130000 		.4byte	0x1393
 7577 29e3 00       		.byte	0
 7578 29e4 39       		.uleb128 0x39
 7579 29e5 1F060000 		.4byte	.LASF752
 7580 29e9 10       		.byte	0x10
 7581 29ea 3B       		.byte	0x3b
 7582 29eb F5290000 		.4byte	0x29f5
 7583 29ef 38       		.uleb128 0x38
 7584 29f0 B8000000 		.4byte	0xb8
 7585 29f4 00       		.byte	0
 7586 29f5 37       		.uleb128 0x37
 7587 29f6 28100000 		.4byte	.LASF753
 7588 29fa 10       		.byte	0x10
 7589 29fb 36       		.byte	0x36
 7590 29fc B8000000 		.4byte	0xb8
 7591 2a00 0A2A0000 		.4byte	0x2a0a
 7592 2a04 38       		.uleb128 0x38
 7593 2a05 C3000000 		.4byte	0xc3
 7594 2a09 00       		.byte	0
 7595 2a0a 37       		.uleb128 0x37
 7596 2a0b 8F190000 		.4byte	.LASF754
 7597 2a0f 10       		.byte	0x10
 7598 2a10 3A       		.byte	0x3a
 7599 2a11 97000000 		.4byte	0x97
 7600 2a15 292A0000 		.4byte	0x2a29
 7601 2a19 38       		.uleb128 0x38
 7602 2a1a CE000000 		.4byte	0xce
 7603 2a1e 38       		.uleb128 0x38
 7604 2a1f B8000000 		.4byte	0xb8
 7605 2a23 38       		.uleb128 0x38
 7606 2a24 97000000 		.4byte	0x97
 7607 2a28 00       		.byte	0
ARM GAS  C:\Users\AHMED~1.ELE\AppData\Local\Temp\ccWMHy5f.s 			page 150


 7608 2a29 3D       		.uleb128 0x3d
 7609 2a2a FB200000 		.4byte	.LASF763
 7610 2a2e 0D       		.byte	0xd
 7611 2a2f 7F       		.byte	0x7f
 7612 2a30 38       		.uleb128 0x38
 7613 2a31 7D000000 		.4byte	0x7d
 7614 2a35 00       		.byte	0
 7615 2a36 00       		.byte	0
 7616              		.section	.debug_abbrev,"",%progbits
 7617              	.Ldebug_abbrev0:
 7618 0000 01       		.uleb128 0x1
 7619 0001 11       		.uleb128 0x11
 7620 0002 01       		.byte	0x1
 7621 0003 25       		.uleb128 0x25
 7622 0004 0E       		.uleb128 0xe
 7623 0005 13       		.uleb128 0x13
 7624 0006 0B       		.uleb128 0xb
 7625 0007 03       		.uleb128 0x3
 7626 0008 0E       		.uleb128 0xe
 7627 0009 1B       		.uleb128 0x1b
 7628 000a 0E       		.uleb128 0xe
 7629 000b 55       		.uleb128 0x55
 7630 000c 17       		.uleb128 0x17
 7631 000d 11       		.uleb128 0x11
 7632 000e 01       		.uleb128 0x1
 7633 000f 10       		.uleb128 0x10
 7634 0010 17       		.uleb128 0x17
 7635 0011 00       		.byte	0
 7636 0012 00       		.byte	0
 7637 0013 02       		.uleb128 0x2
 7638 0014 24       		.uleb128 0x24
 7639 0015 00       		.byte	0
 7640 0016 0B       		.uleb128 0xb
 7641 0017 0B       		.uleb128 0xb
 7642 0018 3E       		.uleb128 0x3e
 7643 0019 0B       		.uleb128 0xb
 7644 001a 03       		.uleb128 0x3
 7645 001b 08       		.uleb128 0x8
 7646 001c 00       		.byte	0
 7647 001d 00       		.byte	0
 7648 001e 03       		.uleb128 0x3
 7649 001f 16       		.uleb128 0x16
 7650 0020 00       		.byte	0
 7651 0021 03       		.uleb128 0x3
 7652 0022 0E       		.uleb128 0xe
 7653 0023 3A       		.uleb128 0x3a
 7654 0024 0B       		.uleb128 0xb
 7655 0025 3B       		.uleb128 0x3b
 7656 0026 0B       		.uleb128 0xb
 7657 0027 49       		.uleb128 0x49
 7658 0028 13       		.uleb128 0x13
 7659 0029 00       		.byte	0
 7660 002a 00       		.byte	0
 7661 002b 04       		.uleb128 0x4
 7662 002c 24       		.uleb128 0x24
 7663 002d 00       		.byte	0
 7664 002e 0B       		.uleb128 0xb
ARM GAS  C:\Users\AHMED~1.ELE\AppData\Local\Temp\ccWMHy5f.s 			page 151


 7665 002f 0B       		.uleb128 0xb
 7666 0030 3E       		.uleb128 0x3e
 7667 0031 0B       		.uleb128 0xb
 7668 0032 03       		.uleb128 0x3
 7669 0033 0E       		.uleb128 0xe
 7670 0034 00       		.byte	0
 7671 0035 00       		.byte	0
 7672 0036 05       		.uleb128 0x5
 7673 0037 0F       		.uleb128 0xf
 7674 0038 00       		.byte	0
 7675 0039 0B       		.uleb128 0xb
 7676 003a 0B       		.uleb128 0xb
 7677 003b 00       		.byte	0
 7678 003c 00       		.byte	0
 7679 003d 06       		.uleb128 0x6
 7680 003e 0F       		.uleb128 0xf
 7681 003f 00       		.byte	0
 7682 0040 0B       		.uleb128 0xb
 7683 0041 0B       		.uleb128 0xb
 7684 0042 49       		.uleb128 0x49
 7685 0043 13       		.uleb128 0x13
 7686 0044 00       		.byte	0
 7687 0045 00       		.byte	0
 7688 0046 07       		.uleb128 0x7
 7689 0047 26       		.uleb128 0x26
 7690 0048 00       		.byte	0
 7691 0049 49       		.uleb128 0x49
 7692 004a 13       		.uleb128 0x13
 7693 004b 00       		.byte	0
 7694 004c 00       		.byte	0
 7695 004d 08       		.uleb128 0x8
 7696 004e 01       		.uleb128 0x1
 7697 004f 01       		.byte	0x1
 7698 0050 49       		.uleb128 0x49
 7699 0051 13       		.uleb128 0x13
 7700 0052 01       		.uleb128 0x1
 7701 0053 13       		.uleb128 0x13
 7702 0054 00       		.byte	0
 7703 0055 00       		.byte	0
 7704 0056 09       		.uleb128 0x9
 7705 0057 21       		.uleb128 0x21
 7706 0058 00       		.byte	0
 7707 0059 49       		.uleb128 0x49
 7708 005a 13       		.uleb128 0x13
 7709 005b 2F       		.uleb128 0x2f
 7710 005c 0B       		.uleb128 0xb
 7711 005d 00       		.byte	0
 7712 005e 00       		.byte	0
 7713 005f 0A       		.uleb128 0xa
 7714 0060 04       		.uleb128 0x4
 7715 0061 01       		.byte	0x1
 7716 0062 03       		.uleb128 0x3
 7717 0063 0E       		.uleb128 0xe
 7718 0064 0B       		.uleb128 0xb
 7719 0065 0B       		.uleb128 0xb
 7720 0066 3A       		.uleb128 0x3a
 7721 0067 0B       		.uleb128 0xb
ARM GAS  C:\Users\AHMED~1.ELE\AppData\Local\Temp\ccWMHy5f.s 			page 152


 7722 0068 3B       		.uleb128 0x3b
 7723 0069 05       		.uleb128 0x5
 7724 006a 01       		.uleb128 0x1
 7725 006b 13       		.uleb128 0x13
 7726 006c 00       		.byte	0
 7727 006d 00       		.byte	0
 7728 006e 0B       		.uleb128 0xb
 7729 006f 28       		.uleb128 0x28
 7730 0070 00       		.byte	0
 7731 0071 03       		.uleb128 0x3
 7732 0072 0E       		.uleb128 0xe
 7733 0073 1C       		.uleb128 0x1c
 7734 0074 0D       		.uleb128 0xd
 7735 0075 00       		.byte	0
 7736 0076 00       		.byte	0
 7737 0077 0C       		.uleb128 0xc
 7738 0078 04       		.uleb128 0x4
 7739 0079 01       		.byte	0x1
 7740 007a 0B       		.uleb128 0xb
 7741 007b 0B       		.uleb128 0xb
 7742 007c 3A       		.uleb128 0x3a
 7743 007d 0B       		.uleb128 0xb
 7744 007e 3B       		.uleb128 0x3b
 7745 007f 05       		.uleb128 0x5
 7746 0080 01       		.uleb128 0x1
 7747 0081 13       		.uleb128 0x13
 7748 0082 00       		.byte	0
 7749 0083 00       		.byte	0
 7750 0084 0D       		.uleb128 0xd
 7751 0085 26       		.uleb128 0x26
 7752 0086 00       		.byte	0
 7753 0087 00       		.byte	0
 7754 0088 00       		.byte	0
 7755 0089 0E       		.uleb128 0xe
 7756 008a 04       		.uleb128 0x4
 7757 008b 01       		.byte	0x1
 7758 008c 0B       		.uleb128 0xb
 7759 008d 0B       		.uleb128 0xb
 7760 008e 3A       		.uleb128 0x3a
 7761 008f 0B       		.uleb128 0xb
 7762 0090 3B       		.uleb128 0x3b
 7763 0091 0B       		.uleb128 0xb
 7764 0092 01       		.uleb128 0x1
 7765 0093 13       		.uleb128 0x13
 7766 0094 00       		.byte	0
 7767 0095 00       		.byte	0
 7768 0096 0F       		.uleb128 0xf
 7769 0097 21       		.uleb128 0x21
 7770 0098 00       		.byte	0
 7771 0099 49       		.uleb128 0x49
 7772 009a 13       		.uleb128 0x13
 7773 009b 2F       		.uleb128 0x2f
 7774 009c 05       		.uleb128 0x5
 7775 009d 00       		.byte	0
 7776 009e 00       		.byte	0
 7777 009f 10       		.uleb128 0x10
 7778 00a0 13       		.uleb128 0x13
ARM GAS  C:\Users\AHMED~1.ELE\AppData\Local\Temp\ccWMHy5f.s 			page 153


 7779 00a1 01       		.byte	0x1
 7780 00a2 0B       		.uleb128 0xb
 7781 00a3 0B       		.uleb128 0xb
 7782 00a4 3A       		.uleb128 0x3a
 7783 00a5 0B       		.uleb128 0xb
 7784 00a6 3B       		.uleb128 0x3b
 7785 00a7 05       		.uleb128 0x5
 7786 00a8 01       		.uleb128 0x1
 7787 00a9 13       		.uleb128 0x13
 7788 00aa 00       		.byte	0
 7789 00ab 00       		.byte	0
 7790 00ac 11       		.uleb128 0x11
 7791 00ad 0D       		.uleb128 0xd
 7792 00ae 00       		.byte	0
 7793 00af 03       		.uleb128 0x3
 7794 00b0 0E       		.uleb128 0xe
 7795 00b1 3A       		.uleb128 0x3a
 7796 00b2 0B       		.uleb128 0xb
 7797 00b3 3B       		.uleb128 0x3b
 7798 00b4 05       		.uleb128 0x5
 7799 00b5 49       		.uleb128 0x49
 7800 00b6 13       		.uleb128 0x13
 7801 00b7 38       		.uleb128 0x38
 7802 00b8 0B       		.uleb128 0xb
 7803 00b9 00       		.byte	0
 7804 00ba 00       		.byte	0
 7805 00bb 12       		.uleb128 0x12
 7806 00bc 16       		.uleb128 0x16
 7807 00bd 00       		.byte	0
 7808 00be 03       		.uleb128 0x3
 7809 00bf 0E       		.uleb128 0xe
 7810 00c0 3A       		.uleb128 0x3a
 7811 00c1 0B       		.uleb128 0xb
 7812 00c2 3B       		.uleb128 0x3b
 7813 00c3 05       		.uleb128 0x5
 7814 00c4 49       		.uleb128 0x49
 7815 00c5 13       		.uleb128 0x13
 7816 00c6 00       		.byte	0
 7817 00c7 00       		.byte	0
 7818 00c8 13       		.uleb128 0x13
 7819 00c9 13       		.uleb128 0x13
 7820 00ca 01       		.byte	0x1
 7821 00cb 0B       		.uleb128 0xb
 7822 00cc 05       		.uleb128 0x5
 7823 00cd 3A       		.uleb128 0x3a
 7824 00ce 0B       		.uleb128 0xb
 7825 00cf 3B       		.uleb128 0x3b
 7826 00d0 05       		.uleb128 0x5
 7827 00d1 01       		.uleb128 0x1
 7828 00d2 13       		.uleb128 0x13
 7829 00d3 00       		.byte	0
 7830 00d4 00       		.byte	0
 7831 00d5 14       		.uleb128 0x14
 7832 00d6 13       		.uleb128 0x13
 7833 00d7 01       		.byte	0x1
 7834 00d8 03       		.uleb128 0x3
 7835 00d9 0E       		.uleb128 0xe
ARM GAS  C:\Users\AHMED~1.ELE\AppData\Local\Temp\ccWMHy5f.s 			page 154


 7836 00da 0B       		.uleb128 0xb
 7837 00db 0B       		.uleb128 0xb
 7838 00dc 3A       		.uleb128 0x3a
 7839 00dd 0B       		.uleb128 0xb
 7840 00de 3B       		.uleb128 0x3b
 7841 00df 0B       		.uleb128 0xb
 7842 00e0 01       		.uleb128 0x1
 7843 00e1 13       		.uleb128 0x13
 7844 00e2 00       		.byte	0
 7845 00e3 00       		.byte	0
 7846 00e4 15       		.uleb128 0x15
 7847 00e5 0D       		.uleb128 0xd
 7848 00e6 00       		.byte	0
 7849 00e7 03       		.uleb128 0x3
 7850 00e8 0E       		.uleb128 0xe
 7851 00e9 3A       		.uleb128 0x3a
 7852 00ea 0B       		.uleb128 0xb
 7853 00eb 3B       		.uleb128 0x3b
 7854 00ec 0B       		.uleb128 0xb
 7855 00ed 49       		.uleb128 0x49
 7856 00ee 13       		.uleb128 0x13
 7857 00ef 38       		.uleb128 0x38
 7858 00f0 0B       		.uleb128 0xb
 7859 00f1 00       		.byte	0
 7860 00f2 00       		.byte	0
 7861 00f3 16       		.uleb128 0x16
 7862 00f4 2E       		.uleb128 0x2e
 7863 00f5 01       		.byte	0x1
 7864 00f6 03       		.uleb128 0x3
 7865 00f7 0E       		.uleb128 0xe
 7866 00f8 3A       		.uleb128 0x3a
 7867 00f9 0B       		.uleb128 0xb
 7868 00fa 3B       		.uleb128 0x3b
 7869 00fb 05       		.uleb128 0x5
 7870 00fc 27       		.uleb128 0x27
 7871 00fd 19       		.uleb128 0x19
 7872 00fe 49       		.uleb128 0x49
 7873 00ff 13       		.uleb128 0x13
 7874 0100 20       		.uleb128 0x20
 7875 0101 0B       		.uleb128 0xb
 7876 0102 01       		.uleb128 0x1
 7877 0103 13       		.uleb128 0x13
 7878 0104 00       		.byte	0
 7879 0105 00       		.byte	0
 7880 0106 17       		.uleb128 0x17
 7881 0107 05       		.uleb128 0x5
 7882 0108 00       		.byte	0
 7883 0109 03       		.uleb128 0x3
 7884 010a 0E       		.uleb128 0xe
 7885 010b 3A       		.uleb128 0x3a
 7886 010c 0B       		.uleb128 0xb
 7887 010d 3B       		.uleb128 0x3b
 7888 010e 05       		.uleb128 0x5
 7889 010f 49       		.uleb128 0x49
 7890 0110 13       		.uleb128 0x13
 7891 0111 00       		.byte	0
 7892 0112 00       		.byte	0
ARM GAS  C:\Users\AHMED~1.ELE\AppData\Local\Temp\ccWMHy5f.s 			page 155


 7893 0113 18       		.uleb128 0x18
 7894 0114 34       		.uleb128 0x34
 7895 0115 00       		.byte	0
 7896 0116 03       		.uleb128 0x3
 7897 0117 0E       		.uleb128 0xe
 7898 0118 3A       		.uleb128 0x3a
 7899 0119 0B       		.uleb128 0xb
 7900 011a 3B       		.uleb128 0x3b
 7901 011b 05       		.uleb128 0x5
 7902 011c 49       		.uleb128 0x49
 7903 011d 13       		.uleb128 0x13
 7904 011e 00       		.byte	0
 7905 011f 00       		.byte	0
 7906 0120 19       		.uleb128 0x19
 7907 0121 34       		.uleb128 0x34
 7908 0122 00       		.byte	0
 7909 0123 03       		.uleb128 0x3
 7910 0124 08       		.uleb128 0x8
 7911 0125 3A       		.uleb128 0x3a
 7912 0126 0B       		.uleb128 0xb
 7913 0127 3B       		.uleb128 0x3b
 7914 0128 05       		.uleb128 0x5
 7915 0129 49       		.uleb128 0x49
 7916 012a 13       		.uleb128 0x13
 7917 012b 00       		.byte	0
 7918 012c 00       		.byte	0
 7919 012d 1A       		.uleb128 0x1a
 7920 012e 2E       		.uleb128 0x2e
 7921 012f 00       		.byte	0
 7922 0130 3F       		.uleb128 0x3f
 7923 0131 19       		.uleb128 0x19
 7924 0132 03       		.uleb128 0x3
 7925 0133 0E       		.uleb128 0xe
 7926 0134 3A       		.uleb128 0x3a
 7927 0135 0B       		.uleb128 0xb
 7928 0136 3B       		.uleb128 0x3b
 7929 0137 0B       		.uleb128 0xb
 7930 0138 27       		.uleb128 0x27
 7931 0139 19       		.uleb128 0x19
 7932 013a 20       		.uleb128 0x20
 7933 013b 0B       		.uleb128 0xb
 7934 013c 00       		.byte	0
 7935 013d 00       		.byte	0
 7936 013e 1B       		.uleb128 0x1b
 7937 013f 2E       		.uleb128 0x2e
 7938 0140 01       		.byte	0x1
 7939 0141 3F       		.uleb128 0x3f
 7940 0142 19       		.uleb128 0x19
 7941 0143 03       		.uleb128 0x3
 7942 0144 0E       		.uleb128 0xe
 7943 0145 3A       		.uleb128 0x3a
 7944 0146 0B       		.uleb128 0xb
 7945 0147 3B       		.uleb128 0x3b
 7946 0148 05       		.uleb128 0x5
 7947 0149 27       		.uleb128 0x27
 7948 014a 19       		.uleb128 0x19
 7949 014b 49       		.uleb128 0x49
ARM GAS  C:\Users\AHMED~1.ELE\AppData\Local\Temp\ccWMHy5f.s 			page 156


 7950 014c 13       		.uleb128 0x13
 7951 014d 20       		.uleb128 0x20
 7952 014e 0B       		.uleb128 0xb
 7953 014f 01       		.uleb128 0x1
 7954 0150 13       		.uleb128 0x13
 7955 0151 00       		.byte	0
 7956 0152 00       		.byte	0
 7957 0153 1C       		.uleb128 0x1c
 7958 0154 2E       		.uleb128 0x2e
 7959 0155 01       		.byte	0x1
 7960 0156 03       		.uleb128 0x3
 7961 0157 0E       		.uleb128 0xe
 7962 0158 3A       		.uleb128 0x3a
 7963 0159 0B       		.uleb128 0xb
 7964 015a 3B       		.uleb128 0x3b
 7965 015b 0B       		.uleb128 0xb
 7966 015c 27       		.uleb128 0x27
 7967 015d 19       		.uleb128 0x19
 7968 015e 49       		.uleb128 0x49
 7969 015f 13       		.uleb128 0x13
 7970 0160 11       		.uleb128 0x11
 7971 0161 01       		.uleb128 0x1
 7972 0162 12       		.uleb128 0x12
 7973 0163 06       		.uleb128 0x6
 7974 0164 40       		.uleb128 0x40
 7975 0165 18       		.uleb128 0x18
 7976 0166 9742     		.uleb128 0x2117
 7977 0168 19       		.uleb128 0x19
 7978 0169 01       		.uleb128 0x1
 7979 016a 13       		.uleb128 0x13
 7980 016b 00       		.byte	0
 7981 016c 00       		.byte	0
 7982 016d 1D       		.uleb128 0x1d
 7983 016e 898201   		.uleb128 0x4109
 7984 0171 01       		.byte	0x1
 7985 0172 11       		.uleb128 0x11
 7986 0173 01       		.uleb128 0x1
 7987 0174 31       		.uleb128 0x31
 7988 0175 13       		.uleb128 0x13
 7989 0176 00       		.byte	0
 7990 0177 00       		.byte	0
 7991 0178 1E       		.uleb128 0x1e
 7992 0179 8A8201   		.uleb128 0x410a
 7993 017c 00       		.byte	0
 7994 017d 02       		.uleb128 0x2
 7995 017e 18       		.uleb128 0x18
 7996 017f 9142     		.uleb128 0x2111
 7997 0181 18       		.uleb128 0x18
 7998 0182 00       		.byte	0
 7999 0183 00       		.byte	0
 8000 0184 1F       		.uleb128 0x1f
 8001 0185 2E       		.uleb128 0x2e
 8002 0186 01       		.byte	0x1
 8003 0187 03       		.uleb128 0x3
 8004 0188 0E       		.uleb128 0xe
 8005 0189 3A       		.uleb128 0x3a
 8006 018a 0B       		.uleb128 0xb
ARM GAS  C:\Users\AHMED~1.ELE\AppData\Local\Temp\ccWMHy5f.s 			page 157


 8007 018b 3B       		.uleb128 0x3b
 8008 018c 0B       		.uleb128 0xb
 8009 018d 27       		.uleb128 0x27
 8010 018e 19       		.uleb128 0x19
 8011 018f 11       		.uleb128 0x11
 8012 0190 01       		.uleb128 0x1
 8013 0191 12       		.uleb128 0x12
 8014 0192 06       		.uleb128 0x6
 8015 0193 40       		.uleb128 0x40
 8016 0194 18       		.uleb128 0x18
 8017 0195 9742     		.uleb128 0x2117
 8018 0197 19       		.uleb128 0x19
 8019 0198 01       		.uleb128 0x1
 8020 0199 13       		.uleb128 0x13
 8021 019a 00       		.byte	0
 8022 019b 00       		.byte	0
 8023 019c 20       		.uleb128 0x20
 8024 019d 898201   		.uleb128 0x4109
 8025 01a0 01       		.byte	0x1
 8026 01a1 11       		.uleb128 0x11
 8027 01a2 01       		.uleb128 0x1
 8028 01a3 31       		.uleb128 0x31
 8029 01a4 13       		.uleb128 0x13
 8030 01a5 01       		.uleb128 0x1
 8031 01a6 13       		.uleb128 0x13
 8032 01a7 00       		.byte	0
 8033 01a8 00       		.byte	0
 8034 01a9 21       		.uleb128 0x21
 8035 01aa 898201   		.uleb128 0x4109
 8036 01ad 01       		.byte	0x1
 8037 01ae 11       		.uleb128 0x11
 8038 01af 01       		.uleb128 0x1
 8039 01b0 9542     		.uleb128 0x2115
 8040 01b2 19       		.uleb128 0x19
 8041 01b3 31       		.uleb128 0x31
 8042 01b4 13       		.uleb128 0x13
 8043 01b5 00       		.byte	0
 8044 01b6 00       		.byte	0
 8045 01b7 22       		.uleb128 0x22
 8046 01b8 2E       		.uleb128 0x2e
 8047 01b9 01       		.byte	0x1
 8048 01ba 31       		.uleb128 0x31
 8049 01bb 13       		.uleb128 0x13
 8050 01bc 11       		.uleb128 0x11
 8051 01bd 01       		.uleb128 0x1
 8052 01be 12       		.uleb128 0x12
 8053 01bf 06       		.uleb128 0x6
 8054 01c0 40       		.uleb128 0x40
 8055 01c1 18       		.uleb128 0x18
 8056 01c2 9742     		.uleb128 0x2117
 8057 01c4 19       		.uleb128 0x19
 8058 01c5 01       		.uleb128 0x1
 8059 01c6 13       		.uleb128 0x13
 8060 01c7 00       		.byte	0
 8061 01c8 00       		.byte	0
 8062 01c9 23       		.uleb128 0x23
 8063 01ca 898201   		.uleb128 0x4109
ARM GAS  C:\Users\AHMED~1.ELE\AppData\Local\Temp\ccWMHy5f.s 			page 158


 8064 01cd 00       		.byte	0
 8065 01ce 11       		.uleb128 0x11
 8066 01cf 01       		.uleb128 0x1
 8067 01d0 31       		.uleb128 0x31
 8068 01d1 13       		.uleb128 0x13
 8069 01d2 00       		.byte	0
 8070 01d3 00       		.byte	0
 8071 01d4 24       		.uleb128 0x24
 8072 01d5 898201   		.uleb128 0x4109
 8073 01d8 00       		.byte	0
 8074 01d9 11       		.uleb128 0x11
 8075 01da 01       		.uleb128 0x1
 8076 01db 9542     		.uleb128 0x2115
 8077 01dd 19       		.uleb128 0x19
 8078 01de 31       		.uleb128 0x31
 8079 01df 13       		.uleb128 0x13
 8080 01e0 00       		.byte	0
 8081 01e1 00       		.byte	0
 8082 01e2 25       		.uleb128 0x25
 8083 01e3 2E       		.uleb128 0x2e
 8084 01e4 01       		.byte	0x1
 8085 01e5 3F       		.uleb128 0x3f
 8086 01e6 19       		.uleb128 0x19
 8087 01e7 03       		.uleb128 0x3
 8088 01e8 0E       		.uleb128 0xe
 8089 01e9 3A       		.uleb128 0x3a
 8090 01ea 0B       		.uleb128 0xb
 8091 01eb 3B       		.uleb128 0x3b
 8092 01ec 0B       		.uleb128 0xb
 8093 01ed 27       		.uleb128 0x27
 8094 01ee 19       		.uleb128 0x19
 8095 01ef 11       		.uleb128 0x11
 8096 01f0 01       		.uleb128 0x1
 8097 01f1 12       		.uleb128 0x12
 8098 01f2 06       		.uleb128 0x6
 8099 01f3 40       		.uleb128 0x40
 8100 01f4 18       		.uleb128 0x18
 8101 01f5 9742     		.uleb128 0x2117
 8102 01f7 19       		.uleb128 0x19
 8103 01f8 01       		.uleb128 0x1
 8104 01f9 13       		.uleb128 0x13
 8105 01fa 00       		.byte	0
 8106 01fb 00       		.byte	0
 8107 01fc 26       		.uleb128 0x26
 8108 01fd 05       		.uleb128 0x5
 8109 01fe 00       		.byte	0
 8110 01ff 03       		.uleb128 0x3
 8111 0200 0E       		.uleb128 0xe
 8112 0201 3A       		.uleb128 0x3a
 8113 0202 0B       		.uleb128 0xb
 8114 0203 3B       		.uleb128 0x3b
 8115 0204 0B       		.uleb128 0xb
 8116 0205 49       		.uleb128 0x49
 8117 0206 13       		.uleb128 0x13
 8118 0207 02       		.uleb128 0x2
 8119 0208 17       		.uleb128 0x17
 8120 0209 00       		.byte	0
ARM GAS  C:\Users\AHMED~1.ELE\AppData\Local\Temp\ccWMHy5f.s 			page 159


 8121 020a 00       		.byte	0
 8122 020b 27       		.uleb128 0x27
 8123 020c 34       		.uleb128 0x34
 8124 020d 00       		.byte	0
 8125 020e 03       		.uleb128 0x3
 8126 020f 0E       		.uleb128 0xe
 8127 0210 3A       		.uleb128 0x3a
 8128 0211 0B       		.uleb128 0xb
 8129 0212 3B       		.uleb128 0x3b
 8130 0213 0B       		.uleb128 0xb
 8131 0214 49       		.uleb128 0x49
 8132 0215 13       		.uleb128 0x13
 8133 0216 02       		.uleb128 0x2
 8134 0217 18       		.uleb128 0x18
 8135 0218 00       		.byte	0
 8136 0219 00       		.byte	0
 8137 021a 28       		.uleb128 0x28
 8138 021b 34       		.uleb128 0x34
 8139 021c 00       		.byte	0
 8140 021d 03       		.uleb128 0x3
 8141 021e 0E       		.uleb128 0xe
 8142 021f 3A       		.uleb128 0x3a
 8143 0220 0B       		.uleb128 0xb
 8144 0221 3B       		.uleb128 0x3b
 8145 0222 0B       		.uleb128 0xb
 8146 0223 49       		.uleb128 0x49
 8147 0224 13       		.uleb128 0x13
 8148 0225 02       		.uleb128 0x2
 8149 0226 17       		.uleb128 0x17
 8150 0227 00       		.byte	0
 8151 0228 00       		.byte	0
 8152 0229 29       		.uleb128 0x29
 8153 022a 34       		.uleb128 0x34
 8154 022b 00       		.byte	0
 8155 022c 03       		.uleb128 0x3
 8156 022d 08       		.uleb128 0x8
 8157 022e 3A       		.uleb128 0x3a
 8158 022f 0B       		.uleb128 0xb
 8159 0230 3B       		.uleb128 0x3b
 8160 0231 0B       		.uleb128 0xb
 8161 0232 49       		.uleb128 0x49
 8162 0233 13       		.uleb128 0x13
 8163 0234 02       		.uleb128 0x2
 8164 0235 17       		.uleb128 0x17
 8165 0236 00       		.byte	0
 8166 0237 00       		.byte	0
 8167 0238 2A       		.uleb128 0x2a
 8168 0239 05       		.uleb128 0x5
 8169 023a 00       		.byte	0
 8170 023b 31       		.uleb128 0x31
 8171 023c 13       		.uleb128 0x13
 8172 023d 02       		.uleb128 0x2
 8173 023e 17       		.uleb128 0x17
 8174 023f 00       		.byte	0
 8175 0240 00       		.byte	0
 8176 0241 2B       		.uleb128 0x2b
 8177 0242 0B       		.uleb128 0xb
ARM GAS  C:\Users\AHMED~1.ELE\AppData\Local\Temp\ccWMHy5f.s 			page 160


 8178 0243 01       		.byte	0x1
 8179 0244 11       		.uleb128 0x11
 8180 0245 01       		.uleb128 0x1
 8181 0246 12       		.uleb128 0x12
 8182 0247 06       		.uleb128 0x6
 8183 0248 01       		.uleb128 0x1
 8184 0249 13       		.uleb128 0x13
 8185 024a 00       		.byte	0
 8186 024b 00       		.byte	0
 8187 024c 2C       		.uleb128 0x2c
 8188 024d 05       		.uleb128 0x5
 8189 024e 00       		.byte	0
 8190 024f 31       		.uleb128 0x31
 8191 0250 13       		.uleb128 0x13
 8192 0251 00       		.byte	0
 8193 0252 00       		.byte	0
 8194 0253 2D       		.uleb128 0x2d
 8195 0254 2E       		.uleb128 0x2e
 8196 0255 01       		.byte	0x1
 8197 0256 3F       		.uleb128 0x3f
 8198 0257 19       		.uleb128 0x19
 8199 0258 03       		.uleb128 0x3
 8200 0259 0E       		.uleb128 0xe
 8201 025a 3A       		.uleb128 0x3a
 8202 025b 0B       		.uleb128 0xb
 8203 025c 3B       		.uleb128 0x3b
 8204 025d 05       		.uleb128 0x5
 8205 025e 27       		.uleb128 0x27
 8206 025f 19       		.uleb128 0x19
 8207 0260 49       		.uleb128 0x49
 8208 0261 13       		.uleb128 0x13
 8209 0262 11       		.uleb128 0x11
 8210 0263 01       		.uleb128 0x1
 8211 0264 12       		.uleb128 0x12
 8212 0265 06       		.uleb128 0x6
 8213 0266 40       		.uleb128 0x40
 8214 0267 18       		.uleb128 0x18
 8215 0268 9642     		.uleb128 0x2116
 8216 026a 19       		.uleb128 0x19
 8217 026b 01       		.uleb128 0x1
 8218 026c 13       		.uleb128 0x13
 8219 026d 00       		.byte	0
 8220 026e 00       		.byte	0
 8221 026f 2E       		.uleb128 0x2e
 8222 0270 05       		.uleb128 0x5
 8223 0271 00       		.byte	0
 8224 0272 03       		.uleb128 0x3
 8225 0273 0E       		.uleb128 0xe
 8226 0274 3A       		.uleb128 0x3a
 8227 0275 0B       		.uleb128 0xb
 8228 0276 3B       		.uleb128 0x3b
 8229 0277 05       		.uleb128 0x5
 8230 0278 49       		.uleb128 0x49
 8231 0279 13       		.uleb128 0x13
 8232 027a 02       		.uleb128 0x2
 8233 027b 17       		.uleb128 0x17
 8234 027c 00       		.byte	0
ARM GAS  C:\Users\AHMED~1.ELE\AppData\Local\Temp\ccWMHy5f.s 			page 161


 8235 027d 00       		.byte	0
 8236 027e 2F       		.uleb128 0x2f
 8237 027f 34       		.uleb128 0x34
 8238 0280 00       		.byte	0
 8239 0281 03       		.uleb128 0x3
 8240 0282 0E       		.uleb128 0xe
 8241 0283 3A       		.uleb128 0x3a
 8242 0284 0B       		.uleb128 0xb
 8243 0285 3B       		.uleb128 0x3b
 8244 0286 05       		.uleb128 0x5
 8245 0287 49       		.uleb128 0x49
 8246 0288 13       		.uleb128 0x13
 8247 0289 02       		.uleb128 0x2
 8248 028a 17       		.uleb128 0x17
 8249 028b 00       		.byte	0
 8250 028c 00       		.byte	0
 8251 028d 30       		.uleb128 0x30
 8252 028e 34       		.uleb128 0x34
 8253 028f 00       		.byte	0
 8254 0290 03       		.uleb128 0x3
 8255 0291 08       		.uleb128 0x8
 8256 0292 3A       		.uleb128 0x3a
 8257 0293 0B       		.uleb128 0xb
 8258 0294 3B       		.uleb128 0x3b
 8259 0295 05       		.uleb128 0x5
 8260 0296 49       		.uleb128 0x49
 8261 0297 13       		.uleb128 0x13
 8262 0298 02       		.uleb128 0x2
 8263 0299 17       		.uleb128 0x17
 8264 029a 00       		.byte	0
 8265 029b 00       		.byte	0
 8266 029c 31       		.uleb128 0x31
 8267 029d 1D       		.uleb128 0x1d
 8268 029e 01       		.byte	0x1
 8269 029f 31       		.uleb128 0x31
 8270 02a0 13       		.uleb128 0x13
 8271 02a1 52       		.uleb128 0x52
 8272 02a2 01       		.uleb128 0x1
 8273 02a3 55       		.uleb128 0x55
 8274 02a4 17       		.uleb128 0x17
 8275 02a5 58       		.uleb128 0x58
 8276 02a6 0B       		.uleb128 0xb
 8277 02a7 59       		.uleb128 0x59
 8278 02a8 05       		.uleb128 0x5
 8279 02a9 01       		.uleb128 0x1
 8280 02aa 13       		.uleb128 0x13
 8281 02ab 00       		.byte	0
 8282 02ac 00       		.byte	0
 8283 02ad 32       		.uleb128 0x32
 8284 02ae 05       		.uleb128 0x5
 8285 02af 00       		.byte	0
 8286 02b0 31       		.uleb128 0x31
 8287 02b1 13       		.uleb128 0x13
 8288 02b2 02       		.uleb128 0x2
 8289 02b3 18       		.uleb128 0x18
 8290 02b4 00       		.byte	0
 8291 02b5 00       		.byte	0
ARM GAS  C:\Users\AHMED~1.ELE\AppData\Local\Temp\ccWMHy5f.s 			page 162


 8292 02b6 33       		.uleb128 0x33
 8293 02b7 0B       		.uleb128 0xb
 8294 02b8 01       		.byte	0x1
 8295 02b9 55       		.uleb128 0x55
 8296 02ba 17       		.uleb128 0x17
 8297 02bb 00       		.byte	0
 8298 02bc 00       		.byte	0
 8299 02bd 34       		.uleb128 0x34
 8300 02be 34       		.uleb128 0x34
 8301 02bf 00       		.byte	0
 8302 02c0 31       		.uleb128 0x31
 8303 02c1 13       		.uleb128 0x13
 8304 02c2 02       		.uleb128 0x2
 8305 02c3 17       		.uleb128 0x17
 8306 02c4 00       		.byte	0
 8307 02c5 00       		.byte	0
 8308 02c6 35       		.uleb128 0x35
 8309 02c7 34       		.uleb128 0x34
 8310 02c8 00       		.byte	0
 8311 02c9 31       		.uleb128 0x31
 8312 02ca 13       		.uleb128 0x13
 8313 02cb 02       		.uleb128 0x2
 8314 02cc 18       		.uleb128 0x18
 8315 02cd 00       		.byte	0
 8316 02ce 00       		.byte	0
 8317 02cf 36       		.uleb128 0x36
 8318 02d0 2E       		.uleb128 0x2e
 8319 02d1 01       		.byte	0x1
 8320 02d2 3F       		.uleb128 0x3f
 8321 02d3 19       		.uleb128 0x19
 8322 02d4 03       		.uleb128 0x3
 8323 02d5 0E       		.uleb128 0xe
 8324 02d6 3A       		.uleb128 0x3a
 8325 02d7 0B       		.uleb128 0xb
 8326 02d8 3B       		.uleb128 0x3b
 8327 02d9 05       		.uleb128 0x5
 8328 02da 27       		.uleb128 0x27
 8329 02db 19       		.uleb128 0x19
 8330 02dc 49       		.uleb128 0x49
 8331 02dd 13       		.uleb128 0x13
 8332 02de 11       		.uleb128 0x11
 8333 02df 01       		.uleb128 0x1
 8334 02e0 12       		.uleb128 0x12
 8335 02e1 06       		.uleb128 0x6
 8336 02e2 40       		.uleb128 0x40
 8337 02e3 18       		.uleb128 0x18
 8338 02e4 9742     		.uleb128 0x2117
 8339 02e6 19       		.uleb128 0x19
 8340 02e7 01       		.uleb128 0x1
 8341 02e8 13       		.uleb128 0x13
 8342 02e9 00       		.byte	0
 8343 02ea 00       		.byte	0
 8344 02eb 37       		.uleb128 0x37
 8345 02ec 2E       		.uleb128 0x2e
 8346 02ed 01       		.byte	0x1
 8347 02ee 3F       		.uleb128 0x3f
 8348 02ef 19       		.uleb128 0x19
ARM GAS  C:\Users\AHMED~1.ELE\AppData\Local\Temp\ccWMHy5f.s 			page 163


 8349 02f0 03       		.uleb128 0x3
 8350 02f1 0E       		.uleb128 0xe
 8351 02f2 3A       		.uleb128 0x3a
 8352 02f3 0B       		.uleb128 0xb
 8353 02f4 3B       		.uleb128 0x3b
 8354 02f5 0B       		.uleb128 0xb
 8355 02f6 27       		.uleb128 0x27
 8356 02f7 19       		.uleb128 0x19
 8357 02f8 49       		.uleb128 0x49
 8358 02f9 13       		.uleb128 0x13
 8359 02fa 3C       		.uleb128 0x3c
 8360 02fb 19       		.uleb128 0x19
 8361 02fc 01       		.uleb128 0x1
 8362 02fd 13       		.uleb128 0x13
 8363 02fe 00       		.byte	0
 8364 02ff 00       		.byte	0
 8365 0300 38       		.uleb128 0x38
 8366 0301 05       		.uleb128 0x5
 8367 0302 00       		.byte	0
 8368 0303 49       		.uleb128 0x49
 8369 0304 13       		.uleb128 0x13
 8370 0305 00       		.byte	0
 8371 0306 00       		.byte	0
 8372 0307 39       		.uleb128 0x39
 8373 0308 2E       		.uleb128 0x2e
 8374 0309 01       		.byte	0x1
 8375 030a 3F       		.uleb128 0x3f
 8376 030b 19       		.uleb128 0x19
 8377 030c 03       		.uleb128 0x3
 8378 030d 0E       		.uleb128 0xe
 8379 030e 3A       		.uleb128 0x3a
 8380 030f 0B       		.uleb128 0xb
 8381 0310 3B       		.uleb128 0x3b
 8382 0311 0B       		.uleb128 0xb
 8383 0312 27       		.uleb128 0x27
 8384 0313 19       		.uleb128 0x19
 8385 0314 3C       		.uleb128 0x3c
 8386 0315 19       		.uleb128 0x19
 8387 0316 01       		.uleb128 0x1
 8388 0317 13       		.uleb128 0x13
 8389 0318 00       		.byte	0
 8390 0319 00       		.byte	0
 8391 031a 3A       		.uleb128 0x3a
 8392 031b 2E       		.uleb128 0x2e
 8393 031c 01       		.byte	0x1
 8394 031d 3F       		.uleb128 0x3f
 8395 031e 19       		.uleb128 0x19
 8396 031f 03       		.uleb128 0x3
 8397 0320 0E       		.uleb128 0xe
 8398 0321 27       		.uleb128 0x27
 8399 0322 19       		.uleb128 0x19
 8400 0323 49       		.uleb128 0x49
 8401 0324 13       		.uleb128 0x13
 8402 0325 34       		.uleb128 0x34
 8403 0326 19       		.uleb128 0x19
 8404 0327 3C       		.uleb128 0x3c
 8405 0328 19       		.uleb128 0x19
ARM GAS  C:\Users\AHMED~1.ELE\AppData\Local\Temp\ccWMHy5f.s 			page 164


 8406 0329 01       		.uleb128 0x1
 8407 032a 13       		.uleb128 0x13
 8408 032b 00       		.byte	0
 8409 032c 00       		.byte	0
 8410 032d 3B       		.uleb128 0x3b
 8411 032e 18       		.uleb128 0x18
 8412 032f 00       		.byte	0
 8413 0330 00       		.byte	0
 8414 0331 00       		.byte	0
 8415 0332 3C       		.uleb128 0x3c
 8416 0333 2E       		.uleb128 0x2e
 8417 0334 01       		.byte	0x1
 8418 0335 3F       		.uleb128 0x3f
 8419 0336 19       		.uleb128 0x19
 8420 0337 03       		.uleb128 0x3
 8421 0338 0E       		.uleb128 0xe
 8422 0339 3A       		.uleb128 0x3a
 8423 033a 0B       		.uleb128 0xb
 8424 033b 3B       		.uleb128 0x3b
 8425 033c 0B       		.uleb128 0xb
 8426 033d 6E       		.uleb128 0x6e
 8427 033e 0E       		.uleb128 0xe
 8428 033f 27       		.uleb128 0x27
 8429 0340 19       		.uleb128 0x19
 8430 0341 49       		.uleb128 0x49
 8431 0342 13       		.uleb128 0x13
 8432 0343 3C       		.uleb128 0x3c
 8433 0344 19       		.uleb128 0x19
 8434 0345 01       		.uleb128 0x1
 8435 0346 13       		.uleb128 0x13
 8436 0347 00       		.byte	0
 8437 0348 00       		.byte	0
 8438 0349 3D       		.uleb128 0x3d
 8439 034a 2E       		.uleb128 0x2e
 8440 034b 01       		.byte	0x1
 8441 034c 3F       		.uleb128 0x3f
 8442 034d 19       		.uleb128 0x19
 8443 034e 03       		.uleb128 0x3
 8444 034f 0E       		.uleb128 0xe
 8445 0350 3A       		.uleb128 0x3a
 8446 0351 0B       		.uleb128 0xb
 8447 0352 3B       		.uleb128 0x3b
 8448 0353 0B       		.uleb128 0xb
 8449 0354 27       		.uleb128 0x27
 8450 0355 19       		.uleb128 0x19
 8451 0356 3C       		.uleb128 0x3c
 8452 0357 19       		.uleb128 0x19
 8453 0358 00       		.byte	0
 8454 0359 00       		.byte	0
 8455 035a 00       		.byte	0
 8456              		.section	.debug_loc,"",%progbits
 8457              	.Ldebug_loc0:
 8458              	.LLST0:
 8459 0000 00000000 		.4byte	.LVL13
 8460 0004 06000000 		.4byte	.LVL14
 8461 0008 0100     		.2byte	0x1
 8462 000a 50       		.byte	0x50
ARM GAS  C:\Users\AHMED~1.ELE\AppData\Local\Temp\ccWMHy5f.s 			page 165


 8463 000b 06000000 		.4byte	.LVL14
 8464 000f 10000000 		.4byte	.LFE4
 8465 0013 0400     		.2byte	0x4
 8466 0015 F3       		.byte	0xf3
 8467 0016 01       		.uleb128 0x1
 8468 0017 50       		.byte	0x50
 8469 0018 9F       		.byte	0x9f
 8470 0019 00000000 		.4byte	0
 8471 001d 00000000 		.4byte	0
 8472              	.LLST1:
 8473 0021 00000000 		.4byte	.LVL22
 8474 0025 1E000000 		.4byte	.LVL25
 8475 0029 0100     		.2byte	0x1
 8476 002b 50       		.byte	0x50
 8477 002c 1E000000 		.4byte	.LVL25
 8478 0030 29000000 		.4byte	.LVL27-1
 8479 0034 0500     		.2byte	0x5
 8480 0036 77       		.byte	0x77
 8481 0037 00       		.sleb128 0
 8482 0038 75       		.byte	0x75
 8483 0039 00       		.sleb128 0
 8484 003a 22       		.byte	0x22
 8485 003b 29000000 		.4byte	.LVL27-1
 8486 003f 78000000 		.4byte	.LFE7
 8487 0043 0400     		.2byte	0x4
 8488 0045 F3       		.byte	0xf3
 8489 0046 01       		.uleb128 0x1
 8490 0047 50       		.byte	0x50
 8491 0048 9F       		.byte	0x9f
 8492 0049 00000000 		.4byte	0
 8493 004d 00000000 		.4byte	0
 8494              	.LLST2:
 8495 0051 00000000 		.4byte	.LVL22
 8496 0055 1A000000 		.4byte	.LVL24
 8497 0059 0100     		.2byte	0x1
 8498 005b 51       		.byte	0x51
 8499 005c 1A000000 		.4byte	.LVL24
 8500 0060 70000000 		.4byte	.LVL30
 8501 0064 0100     		.2byte	0x1
 8502 0066 59       		.byte	0x59
 8503 0067 70000000 		.4byte	.LVL30
 8504 006b 78000000 		.4byte	.LFE7
 8505 006f 0400     		.2byte	0x4
 8506 0071 F3       		.byte	0xf3
 8507 0072 01       		.uleb128 0x1
 8508 0073 51       		.byte	0x51
 8509 0074 9F       		.byte	0x9f
 8510 0075 00000000 		.4byte	0
 8511 0079 00000000 		.4byte	0
 8512              	.LLST3:
 8513 007d 00000000 		.4byte	.LVL22
 8514 0081 26000000 		.4byte	.LVL26
 8515 0085 0100     		.2byte	0x1
 8516 0087 52       		.byte	0x52
 8517 0088 26000000 		.4byte	.LVL26
 8518 008c 29000000 		.4byte	.LVL27-1
 8519 0090 0200     		.2byte	0x2
ARM GAS  C:\Users\AHMED~1.ELE\AppData\Local\Temp\ccWMHy5f.s 			page 166


 8520 0092 71       		.byte	0x71
 8521 0093 00       		.sleb128 0
 8522 0094 29000000 		.4byte	.LVL27-1
 8523 0098 70000000 		.4byte	.LVL30
 8524 009c 0200     		.2byte	0x2
 8525 009e 91       		.byte	0x91
 8526 009f 5E       		.sleb128 -34
 8527 00a0 70000000 		.4byte	.LVL30
 8528 00a4 78000000 		.4byte	.LFE7
 8529 00a8 0200     		.2byte	0x2
 8530 00aa 7D       		.byte	0x7d
 8531 00ab 5E       		.sleb128 -34
 8532 00ac 00000000 		.4byte	0
 8533 00b0 00000000 		.4byte	0
 8534              	.LLST4:
 8535 00b4 0E000000 		.4byte	.LVL23
 8536 00b8 70000000 		.4byte	.LVL30
 8537 00bc 0900     		.2byte	0x9
 8538 00be 74       		.byte	0x74
 8539 00bf 00       		.sleb128 0
 8540 00c0 08       		.byte	0x8
 8541 00c1 FF       		.byte	0xff
 8542 00c2 1A       		.byte	0x1a
 8543 00c3 78       		.byte	0x78
 8544 00c4 00       		.sleb128 0
 8545 00c5 1E       		.byte	0x1e
 8546 00c6 9F       		.byte	0x9f
 8547 00c7 00000000 		.4byte	0
 8548 00cb 00000000 		.4byte	0
 8549              	.LLST5:
 8550 00cf 78000000 		.4byte	.LVL36
 8551 00d3 7C000000 		.4byte	.LVL37
 8552 00d7 0100     		.2byte	0x1
 8553 00d9 50       		.byte	0x50
 8554 00da 7C000000 		.4byte	.LVL37
 8555 00de 36010000 		.4byte	.LVL48
 8556 00e2 0100     		.2byte	0x1
 8557 00e4 57       		.byte	0x57
 8558 00e5 00000000 		.4byte	0
 8559 00e9 00000000 		.4byte	0
 8560              	.LLST6:
 8561 00ed 86000000 		.4byte	.LVL39
 8562 00f1 36010000 		.4byte	.LVL48
 8563 00f5 0100     		.2byte	0x1
 8564 00f7 59       		.byte	0x59
 8565 00f8 00000000 		.4byte	0
 8566 00fc 00000000 		.4byte	0
 8567              	.LLST7:
 8568 0100 00000000 		.4byte	.LVL49
 8569 0104 12000000 		.4byte	.LVL51
 8570 0108 0100     		.2byte	0x1
 8571 010a 50       		.byte	0x50
 8572 010b 12000000 		.4byte	.LVL51
 8573 010f 40000000 		.4byte	.LVL56
 8574 0113 0100     		.2byte	0x1
 8575 0115 56       		.byte	0x56
 8576 0116 40000000 		.4byte	.LVL56
ARM GAS  C:\Users\AHMED~1.ELE\AppData\Local\Temp\ccWMHy5f.s 			page 167


 8577 011a 44000000 		.4byte	.LFE10
 8578 011e 0400     		.2byte	0x4
 8579 0120 F3       		.byte	0xf3
 8580 0121 01       		.uleb128 0x1
 8581 0122 50       		.byte	0x50
 8582 0123 9F       		.byte	0x9f
 8583 0124 00000000 		.4byte	0
 8584 0128 00000000 		.4byte	0
 8585              	.LLST8:
 8586 012c 00000000 		.4byte	.LVL49
 8587 0130 08000000 		.4byte	.LVL50
 8588 0134 0100     		.2byte	0x1
 8589 0136 51       		.byte	0x51
 8590 0137 08000000 		.4byte	.LVL50
 8591 013b 44000000 		.4byte	.LFE10
 8592 013f 0400     		.2byte	0x4
 8593 0141 F3       		.byte	0xf3
 8594 0142 01       		.uleb128 0x1
 8595 0143 51       		.byte	0x51
 8596 0144 9F       		.byte	0x9f
 8597 0145 00000000 		.4byte	0
 8598 0149 00000000 		.4byte	0
 8599              	.LLST9:
 8600 014d 2A000000 		.4byte	.LVL53
 8601 0151 3C000000 		.4byte	.LVL55
 8602 0155 0100     		.2byte	0x1
 8603 0157 56       		.byte	0x56
 8604 0158 00000000 		.4byte	0
 8605 015c 00000000 		.4byte	0
 8606              	.LLST10:
 8607 0160 00000000 		.4byte	.LVL57
 8608 0164 1E000000 		.4byte	.LVL58
 8609 0168 0100     		.2byte	0x1
 8610 016a 50       		.byte	0x50
 8611 016b 1E000000 		.4byte	.LVL58
 8612 016f 5C060000 		.4byte	.LFE13
 8613 0173 0400     		.2byte	0x4
 8614 0175 F3       		.byte	0xf3
 8615 0176 01       		.uleb128 0x1
 8616 0177 50       		.byte	0x50
 8617 0178 9F       		.byte	0x9f
 8618 0179 00000000 		.4byte	0
 8619 017d 00000000 		.4byte	0
 8620              	.LLST11:
 8621 0181 00000000 		.4byte	.LVL57
 8622 0185 1E000000 		.4byte	.LVL58
 8623 0189 0100     		.2byte	0x1
 8624 018b 51       		.byte	0x51
 8625 018c 1E000000 		.4byte	.LVL58
 8626 0190 5C060000 		.4byte	.LFE13
 8627 0194 0400     		.2byte	0x4
 8628 0196 F3       		.byte	0xf3
 8629 0197 01       		.uleb128 0x1
 8630 0198 51       		.byte	0x51
 8631 0199 9F       		.byte	0x9f
 8632 019a 00000000 		.4byte	0
 8633 019e 00000000 		.4byte	0
ARM GAS  C:\Users\AHMED~1.ELE\AppData\Local\Temp\ccWMHy5f.s 			page 168


 8634              	.LLST12:
 8635 01a2 00000000 		.4byte	.LVL57
 8636 01a6 1E000000 		.4byte	.LVL58
 8637 01aa 0200     		.2byte	0x2
 8638 01ac 31       		.byte	0x31
 8639 01ad 9F       		.byte	0x9f
 8640 01ae 1E000000 		.4byte	.LVL58
 8641 01b2 E2000000 		.4byte	.LVL79
 8642 01b6 0100     		.2byte	0x1
 8643 01b8 5A       		.byte	0x5a
 8644 01b9 C0040000 		.4byte	.LVL166
 8645 01bd F4040000 		.4byte	.LVL171
 8646 01c1 0100     		.2byte	0x1
 8647 01c3 5A       		.byte	0x5a
 8648 01c4 0E060000 		.4byte	.LVL205
 8649 01c8 32060000 		.4byte	.LVL214
 8650 01cc 0100     		.2byte	0x1
 8651 01ce 5A       		.byte	0x5a
 8652 01cf 00000000 		.4byte	0
 8653 01d3 00000000 		.4byte	0
 8654              	.LLST13:
 8655 01d7 00000000 		.4byte	.LVL57
 8656 01db 1E000000 		.4byte	.LVL58
 8657 01df 0200     		.2byte	0x2
 8658 01e1 30       		.byte	0x30
 8659 01e2 9F       		.byte	0x9f
 8660 01e3 1E000000 		.4byte	.LVL58
 8661 01e7 EC040000 		.4byte	.LVL170
 8662 01eb 0100     		.2byte	0x1
 8663 01ed 58       		.byte	0x58
 8664 01ee 0E060000 		.4byte	.LVL205
 8665 01f2 30060000 		.4byte	.LVL213
 8666 01f6 0100     		.2byte	0x1
 8667 01f8 58       		.byte	0x58
 8668 01f9 00000000 		.4byte	0
 8669 01fd 00000000 		.4byte	0
 8670              	.LLST14:
 8671 0201 6A000000 		.4byte	.LVL65
 8672 0205 7F000000 		.4byte	.LVL67-1
 8673 0209 0600     		.2byte	0x6
 8674 020b 53       		.byte	0x53
 8675 020c 93       		.byte	0x93
 8676 020d 01       		.uleb128 0x1
 8677 020e 93       		.byte	0x93
 8678 020f 9604     		.uleb128 0x216
 8679 0211 00000000 		.4byte	0
 8680 0215 00000000 		.4byte	0
 8681              	.LLST15:
 8682 0219 80000000 		.4byte	.LVL67
 8683 021d C2040000 		.4byte	.LVL167
 8684 0221 0400     		.2byte	0x4
 8685 0223 F3       		.byte	0xf3
 8686 0224 01       		.uleb128 0x1
 8687 0225 50       		.byte	0x50
 8688 0226 9F       		.byte	0x9f
 8689 0227 00000000 		.4byte	0
 8690 022b 00000000 		.4byte	0
ARM GAS  C:\Users\AHMED~1.ELE\AppData\Local\Temp\ccWMHy5f.s 			page 169


 8691              	.LLST16:
 8692 022f 80000000 		.4byte	.LVL67
 8693 0233 B6040000 		.4byte	.LVL164
 8694 0237 0200     		.2byte	0x2
 8695 0239 31       		.byte	0x31
 8696 023a 9F       		.byte	0x9f
 8697 023b B6040000 		.4byte	.LVL164
 8698 023f C0040000 		.4byte	.LVL166
 8699 0243 0100     		.2byte	0x1
 8700 0245 5A       		.byte	0x5a
 8701 0246 C0040000 		.4byte	.LVL166
 8702 024a C2040000 		.4byte	.LVL167
 8703 024e 0200     		.2byte	0x2
 8704 0250 31       		.byte	0x31
 8705 0251 9F       		.byte	0x9f
 8706 0252 00000000 		.4byte	0
 8707 0256 00000000 		.4byte	0
 8708              	.LLST17:
 8709 025a 8A000000 		.4byte	.LVL68
 8710 025e 96000000 		.4byte	.LVL70
 8711 0262 0100     		.2byte	0x1
 8712 0264 50       		.byte	0x50
 8713 0265 96000000 		.4byte	.LVL70
 8714 0269 C0040000 		.4byte	.LVL166
 8715 026d 0100     		.2byte	0x1
 8716 026f 55       		.byte	0x55
 8717 0270 C0040000 		.4byte	.LVL166
 8718 0274 C2040000 		.4byte	.LVL167
 8719 0278 0100     		.2byte	0x1
 8720 027a 50       		.byte	0x50
 8721 027b 00000000 		.4byte	0
 8722 027f 00000000 		.4byte	0
 8723              	.LLST18:
 8724 0283 92000000 		.4byte	.LVL69
 8725 0287 D0000000 		.4byte	.LVL76
 8726 028b 0200     		.2byte	0x2
 8727 028d 30       		.byte	0x30
 8728 028e 9F       		.byte	0x9f
 8729 028f D0000000 		.4byte	.LVL76
 8730 0293 DC000000 		.4byte	.LVL77
 8731 0297 0100     		.2byte	0x1
 8732 0299 54       		.byte	0x54
 8733 029a DC000000 		.4byte	.LVL77
 8734 029e DE000000 		.4byte	.LVL78
 8735 02a2 0200     		.2byte	0x2
 8736 02a4 30       		.byte	0x30
 8737 02a5 9F       		.byte	0x9f
 8738 02a6 DE000000 		.4byte	.LVL78
 8739 02aa C0040000 		.4byte	.LVL166
 8740 02ae 0100     		.2byte	0x1
 8741 02b0 54       		.byte	0x54
 8742 02b1 00000000 		.4byte	0
 8743 02b5 00000000 		.4byte	0
 8744              	.LLST19:
 8745 02b9 92000000 		.4byte	.LVL69
 8746 02bd C0040000 		.4byte	.LVL166
 8747 02c1 0D00     		.2byte	0xd
ARM GAS  C:\Users\AHMED~1.ELE\AppData\Local\Temp\ccWMHy5f.s 			page 170


 8748 02c3 4A       		.byte	0x4a
 8749 02c4 08       		.byte	0x8
 8750 02c5 20       		.byte	0x20
 8751 02c6 77       		.byte	0x77
 8752 02c7 00       		.sleb128 0
 8753 02c8 30       		.byte	0x30
 8754 02c9 2E       		.byte	0x2e
 8755 02ca 28       		.byte	0x28
 8756 02cb 0100     		.2byte	0x1
 8757 02cd 16       		.byte	0x16
 8758 02ce 13       		.byte	0x13
 8759 02cf 9F       		.byte	0x9f
 8760 02d0 00000000 		.4byte	0
 8761 02d4 00000000 		.4byte	0
 8762              	.LLST20:
 8763 02d8 1E000000 		.4byte	.LVL58
 8764 02dc 44000000 		.4byte	.LVL60
 8765 02e0 0100     		.2byte	0x1
 8766 02e2 58       		.byte	0x58
 8767 02e3 58000000 		.4byte	.LVL62
 8768 02e7 C6040000 		.4byte	.LVL168
 8769 02eb 0100     		.2byte	0x1
 8770 02ed 58       		.byte	0x58
 8771 02ee C6040000 		.4byte	.LVL168
 8772 02f2 E0040000 		.4byte	.LVL169
 8773 02f6 0300     		.2byte	0x3
 8774 02f8 78       		.byte	0x78
 8775 02f9 7F       		.sleb128 -1
 8776 02fa 9F       		.byte	0x9f
 8777 02fb 00000000 		.4byte	0
 8778 02ff 00000000 		.4byte	0
 8779              	.LLST21:
 8780 0303 1E000000 		.4byte	.LVL58
 8781 0307 5C000000 		.4byte	.LVL63
 8782 030b 0400     		.2byte	0x4
 8783 030d 91       		.byte	0x91
 8784 030e A877     		.sleb128 -1112
 8785 0310 9F       		.byte	0x9f
 8786 0311 5C000000 		.4byte	.LVL63
 8787 0315 67000000 		.4byte	.LVL64-1
 8788 0319 0100     		.2byte	0x1
 8789 031b 50       		.byte	0x50
 8790 031c 67000000 		.4byte	.LVL64-1
 8791 0320 72000000 		.4byte	.LVL66
 8792 0324 0400     		.2byte	0x4
 8793 0326 91       		.byte	0x91
 8794 0327 A877     		.sleb128 -1112
 8795 0329 9F       		.byte	0x9f
 8796 032a 72000000 		.4byte	.LVL66
 8797 032e 7F000000 		.4byte	.LVL67-1
 8798 0332 0100     		.2byte	0x1
 8799 0334 51       		.byte	0x51
 8800 0335 7F000000 		.4byte	.LVL67-1
 8801 0339 3C060000 		.4byte	.LVL215
 8802 033d 0400     		.2byte	0x4
 8803 033f 91       		.byte	0x91
 8804 0340 A877     		.sleb128 -1112
ARM GAS  C:\Users\AHMED~1.ELE\AppData\Local\Temp\ccWMHy5f.s 			page 171


 8805 0342 9F       		.byte	0x9f
 8806 0343 3C060000 		.4byte	.LVL215
 8807 0347 5C060000 		.4byte	.LFE13
 8808 034b 0400     		.2byte	0x4
 8809 034d 7D       		.byte	0x7d
 8810 034e A877     		.sleb128 -1112
 8811 0350 9F       		.byte	0x9f
 8812 0351 00000000 		.4byte	0
 8813 0355 00000000 		.4byte	0
 8814              	.LLST22:
 8815 0359 44000000 		.4byte	.LVL60
 8816 035d 58000000 		.4byte	.LVL62
 8817 0361 0400     		.2byte	0x4
 8818 0363 F3       		.byte	0xf3
 8819 0364 01       		.uleb128 0x1
 8820 0365 50       		.byte	0x50
 8821 0366 9F       		.byte	0x9f
 8822 0367 E0040000 		.4byte	.LVL169
 8823 036b 32060000 		.4byte	.LVL214
 8824 036f 0400     		.2byte	0x4
 8825 0371 F3       		.byte	0xf3
 8826 0372 01       		.uleb128 0x1
 8827 0373 50       		.byte	0x50
 8828 0374 9F       		.byte	0x9f
 8829 0375 00000000 		.4byte	0
 8830 0379 00000000 		.4byte	0
 8831              	.LLST23:
 8832 037d 44000000 		.4byte	.LVL60
 8833 0381 58000000 		.4byte	.LVL62
 8834 0385 0100     		.2byte	0x1
 8835 0387 57       		.byte	0x57
 8836 0388 E0040000 		.4byte	.LVL169
 8837 038c 32060000 		.4byte	.LVL214
 8838 0390 0100     		.2byte	0x1
 8839 0392 57       		.byte	0x57
 8840 0393 00000000 		.4byte	0
 8841 0397 00000000 		.4byte	0
 8842              	.LLST24:
 8843 039b 44000000 		.4byte	.LVL60
 8844 039f 58000000 		.4byte	.LVL62
 8845 03a3 0200     		.2byte	0x2
 8846 03a5 31       		.byte	0x31
 8847 03a6 9F       		.byte	0x9f
 8848 03a7 E0040000 		.4byte	.LVL169
 8849 03ab F6040000 		.4byte	.LVL172
 8850 03af 0200     		.2byte	0x2
 8851 03b1 31       		.byte	0x31
 8852 03b2 9F       		.byte	0x9f
 8853 03b3 C6050000 		.4byte	.LVL195
 8854 03b7 F6050000 		.4byte	.LVL200
 8855 03bb 0100     		.2byte	0x1
 8856 03bd 5A       		.byte	0x5a
 8857 03be F8050000 		.4byte	.LVL201
 8858 03c2 0E060000 		.4byte	.LVL205
 8859 03c6 0100     		.2byte	0x1
 8860 03c8 5A       		.byte	0x5a
 8861 03c9 0E060000 		.4byte	.LVL205
ARM GAS  C:\Users\AHMED~1.ELE\AppData\Local\Temp\ccWMHy5f.s 			page 172


 8862 03cd 32060000 		.4byte	.LVL214
 8863 03d1 0200     		.2byte	0x2
 8864 03d3 31       		.byte	0x31
 8865 03d4 9F       		.byte	0x9f
 8866 03d5 00000000 		.4byte	0
 8867 03d9 00000000 		.4byte	0
 8868              	.LLST25:
 8869 03dd 4E000000 		.4byte	.LVL61
 8870 03e1 58000000 		.4byte	.LVL62
 8871 03e5 0100     		.2byte	0x1
 8872 03e7 50       		.byte	0x50
 8873 03e8 E0040000 		.4byte	.LVL169
 8874 03ec EC040000 		.4byte	.LVL170
 8875 03f0 0100     		.2byte	0x1
 8876 03f2 50       		.byte	0x50
 8877 03f3 EC040000 		.4byte	.LVL170
 8878 03f7 0E060000 		.4byte	.LVL205
 8879 03fb 0100     		.2byte	0x1
 8880 03fd 56       		.byte	0x56
 8881 03fe 0E060000 		.4byte	.LVL205
 8882 0402 14060000 		.4byte	.LVL208
 8883 0406 0100     		.2byte	0x1
 8884 0408 50       		.byte	0x50
 8885 0409 14060000 		.4byte	.LVL208
 8886 040d 32060000 		.4byte	.LVL214
 8887 0411 0100     		.2byte	0x1
 8888 0413 56       		.byte	0x56
 8889 0414 00000000 		.4byte	0
 8890 0418 00000000 		.4byte	0
 8891              	.LLST26:
 8892 041c EC040000 		.4byte	.LVL170
 8893 0420 F6040000 		.4byte	.LVL172
 8894 0424 0200     		.2byte	0x2
 8895 0426 30       		.byte	0x30
 8896 0427 9F       		.byte	0x9f
 8897 0428 F6040000 		.4byte	.LVL172
 8898 042c B8050000 		.4byte	.LVL192
 8899 0430 0100     		.2byte	0x1
 8900 0432 59       		.byte	0x59
 8901 0433 B8050000 		.4byte	.LVL192
 8902 0437 BC050000 		.4byte	.LVL193
 8903 043b 0300     		.2byte	0x3
 8904 043d 79       		.byte	0x79
 8905 043e 01       		.sleb128 1
 8906 043f 9F       		.byte	0x9f
 8907 0440 C4050000 		.4byte	.LVL194
 8908 0444 C6050000 		.4byte	.LVL195
 8909 0448 0100     		.2byte	0x1
 8910 044a 59       		.byte	0x59
 8911 044b 00000000 		.4byte	0
 8912 044f 00000000 		.4byte	0
 8913              	.LLST27:
 8914 0453 E0040000 		.4byte	.LVL169
 8915 0457 F6040000 		.4byte	.LVL172
 8916 045b 0200     		.2byte	0x2
 8917 045d 30       		.byte	0x30
 8918 045e 9F       		.byte	0x9f
ARM GAS  C:\Users\AHMED~1.ELE\AppData\Local\Temp\ccWMHy5f.s 			page 173


 8919 045f F6040000 		.4byte	.LVL172
 8920 0463 92050000 		.4byte	.LVL186
 8921 0467 0100     		.2byte	0x1
 8922 0469 54       		.byte	0x54
 8923 046a 92050000 		.4byte	.LVL186
 8924 046e B8050000 		.4byte	.LVL192
 8925 0472 0200     		.2byte	0x2
 8926 0474 30       		.byte	0x30
 8927 0475 9F       		.byte	0x9f
 8928 0476 B8050000 		.4byte	.LVL192
 8929 047a C4050000 		.4byte	.LVL194
 8930 047e 0100     		.2byte	0x1
 8931 0480 54       		.byte	0x54
 8932 0481 C4050000 		.4byte	.LVL194
 8933 0485 C6050000 		.4byte	.LVL195
 8934 0489 0200     		.2byte	0x2
 8935 048b 30       		.byte	0x30
 8936 048c 9F       		.byte	0x9f
 8937 048d C6050000 		.4byte	.LVL195
 8938 0491 0E060000 		.4byte	.LVL205
 8939 0495 0100     		.2byte	0x1
 8940 0497 54       		.byte	0x54
 8941 0498 12060000 		.4byte	.LVL207
 8942 049c 32060000 		.4byte	.LVL214
 8943 04a0 0200     		.2byte	0x2
 8944 04a2 30       		.byte	0x30
 8945 04a3 9F       		.byte	0x9f
 8946 04a4 00000000 		.4byte	0
 8947 04a8 00000000 		.4byte	0
 8948              	.LLST28:
 8949 04ac 12060000 		.4byte	.LVL207
 8950 04b0 32060000 		.4byte	.LVL214
 8951 04b4 0300     		.2byte	0x3
 8952 04b6 08       		.byte	0x8
 8953 04b7 20       		.byte	0x20
 8954 04b8 9F       		.byte	0x9f
 8955 04b9 00000000 		.4byte	0
 8956 04bd 00000000 		.4byte	0
 8957              		.section	.debug_aranges,"",%progbits
 8958 0000 74000000 		.4byte	0x74
 8959 0004 0200     		.2byte	0x2
 8960 0006 00000000 		.4byte	.Ldebug_info0
 8961 000a 04       		.byte	0x4
 8962 000b 00       		.byte	0
 8963 000c 0000     		.2byte	0
 8964 000e 0000     		.2byte	0
 8965 0010 00000000 		.4byte	.LFB0
 8966 0014 12000000 		.4byte	.LFE0-.LFB0
 8967 0018 00000000 		.4byte	.LFB1
 8968 001c 24000000 		.4byte	.LFE1-.LFB1
 8969 0020 00000000 		.4byte	.LFB2
 8970 0024 48000000 		.4byte	.LFE2-.LFB2
 8971 0028 00000000 		.4byte	.LFB3
 8972 002c 54000000 		.4byte	.LFE3-.LFB3
 8973 0030 00000000 		.4byte	.LFB4
 8974 0034 10000000 		.4byte	.LFE4-.LFB4
 8975 0038 00000000 		.4byte	.LFB5
ARM GAS  C:\Users\AHMED~1.ELE\AppData\Local\Temp\ccWMHy5f.s 			page 174


 8976 003c 68000000 		.4byte	.LFE5-.LFB5
 8977 0040 00000000 		.4byte	.LFB6
 8978 0044 40000000 		.4byte	.LFE6-.LFB6
 8979 0048 00000000 		.4byte	.LFB7
 8980 004c 78000000 		.4byte	.LFE7-.LFB7
 8981 0050 00000000 		.4byte	.LFB8
 8982 0054 44010000 		.4byte	.LFE8-.LFB8
 8983 0058 00000000 		.4byte	.LFB10
 8984 005c 44000000 		.4byte	.LFE10-.LFB10
 8985 0060 00000000 		.4byte	.LFB13
 8986 0064 5C060000 		.4byte	.LFE13-.LFB13
 8987 0068 00000000 		.4byte	.LFB14
 8988 006c 44000000 		.4byte	.LFE14-.LFB14
 8989 0070 00000000 		.4byte	0
 8990 0074 00000000 		.4byte	0
 8991              		.section	.debug_ranges,"",%progbits
 8992              	.Ldebug_ranges0:
 8993 0000 12000000 		.4byte	.LBB22
 8994 0004 16000000 		.4byte	.LBE22
 8995 0008 80000000 		.4byte	.LBB32
 8996 000c C2040000 		.4byte	.LBE32
 8997 0010 00000000 		.4byte	0
 8998 0014 00000000 		.4byte	0
 8999 0018 1E000000 		.4byte	.LBB25
 9000 001c 44000000 		.4byte	.LBE25
 9001 0020 58000000 		.4byte	.LBB31
 9002 0024 6A000000 		.4byte	.LBE31
 9003 0028 00000000 		.4byte	0
 9004 002c 00000000 		.4byte	0
 9005 0030 44000000 		.4byte	.LBB28
 9006 0034 58000000 		.4byte	.LBE28
 9007 0038 E2040000 		.4byte	.LBB33
 9008 003c 32060000 		.4byte	.LBE33
 9009 0040 00000000 		.4byte	0
 9010 0044 00000000 		.4byte	0
 9011 0048 00000000 		.4byte	.LFB0
 9012 004c 12000000 		.4byte	.LFE0
 9013 0050 00000000 		.4byte	.LFB1
 9014 0054 24000000 		.4byte	.LFE1
 9015 0058 00000000 		.4byte	.LFB2
 9016 005c 48000000 		.4byte	.LFE2
 9017 0060 00000000 		.4byte	.LFB3
 9018 0064 54000000 		.4byte	.LFE3
 9019 0068 00000000 		.4byte	.LFB4
 9020 006c 10000000 		.4byte	.LFE4
 9021 0070 00000000 		.4byte	.LFB5
 9022 0074 68000000 		.4byte	.LFE5
 9023 0078 00000000 		.4byte	.LFB6
 9024 007c 40000000 		.4byte	.LFE6
 9025 0080 00000000 		.4byte	.LFB7
 9026 0084 78000000 		.4byte	.LFE7
 9027 0088 00000000 		.4byte	.LFB8
 9028 008c 44010000 		.4byte	.LFE8
 9029 0090 00000000 		.4byte	.LFB10
 9030 0094 44000000 		.4byte	.LFE10
 9031 0098 00000000 		.4byte	.LFB13
 9032 009c 5C060000 		.4byte	.LFE13
ARM GAS  C:\Users\AHMED~1.ELE\AppData\Local\Temp\ccWMHy5f.s 			page 175


 9033 00a0 00000000 		.4byte	.LFB14
 9034 00a4 44000000 		.4byte	.LFE14
 9035 00a8 00000000 		.4byte	0
 9036 00ac 00000000 		.4byte	0
 9037              		.section	.debug_line,"",%progbits
 9038              	.Ldebug_line0:
 9039 0000 BC030000 		.section	.debug_str,"MS",%progbits,1
 9039      02006A01 
 9039      00000201 
 9039      FB0E0D00 
 9039      01010101 
 9040              	.LASF556:
 9041 0000 4B5F4346 		.ascii	"K_CF_NotDelAppData\000"
 9041      5F4E6F74 
 9041      44656C41 
 9041      70704461 
 9041      746100
 9042              	.LASF327:
 9043 0013 4F535F46 		.ascii	"OS_FN_CLICC_LED_OPEN\000"
 9043      4E5F434C 
 9043      4943435F 
 9043      4C45445F 
 9043      4F50454E 
 9044              	.LASF340:
 9045 0028 4F535F46 		.ascii	"OS_FN_DRIVER_REGISTER\000"
 9045      4E5F4452 
 9045      49564552 
 9045      5F524547 
 9045      49535445 
 9046              	.LASF10:
 9047 003e 63686172 		.ascii	"char\000"
 9047      00
 9048              	.LASF315:
 9049 0043 4F535F46 		.ascii	"OS_FN_CODEC_CLOSE\000"
 9049      4E5F434F 
 9049      4445435F 
 9049      434C4F53 
 9049      4500
 9050              	.LASF427:
 9051 0055 4F535F46 		.ascii	"OS_FN_GET_CALLID\000"
 9051      4E5F4745 
 9051      545F4341 
 9051      4C4C4944 
 9051      00
 9052              	.LASF528:
 9053 0066 4B5F4346 		.ascii	"K_CF_MdmHandshakeDelay\000"
 9053      5F4D646D 
 9053      48616E64 
 9053      7368616B 
 9053      6544656C 
 9054              	.LASF728:
 9055 007d 7343544C 		.ascii	"sCTLOut\000"
 9055      4F757400 
 9056              	.LASF193:
 9057 0085 4F535F46 		.ascii	"OS_FN_FILE_INIT_SEARCH\000"
 9057      4E5F4649 
 9057      4C455F49 
ARM GAS  C:\Users\AHMED~1.ELE\AppData\Local\Temp\ccWMHy5f.s 			page 176


 9057      4E49545F 
 9057      53454152 
 9058              	.LASF11:
 9059 009c 73697A65 		.ascii	"size_t\000"
 9059      5F7400
 9060              	.LASF173:
 9061 00a3 4F535F46 		.ascii	"OS_FN_FILE_SEEK\000"
 9061      4E5F4649 
 9061      4C455F53 
 9061      45454B00 
 9062              	.LASF9:
 9063 00b3 73697A65 		.ascii	"sizetype\000"
 9063      74797065 
 9063      00
 9064              	.LASF414:
 9065 00bc 4F535F46 		.ascii	"OS_FN_NFC_IC_REG_DIRECT_WRITE\000"
 9065      4E5F4E46 
 9065      435F4943 
 9065      5F524547 
 9065      5F444952 
 9066              	.LASF165:
 9067 00da 4F535F46 		.ascii	"OS_FN_FILE_CREATE_OWNER\000"
 9067      4E5F4649 
 9067      4C455F43 
 9067      52454154 
 9067      455F4F57 
 9068              	.LASF576:
 9069 00f2 4B5F4346 		.ascii	"K_CF_WIFI_GATEWAY\000"
 9069      5F574946 
 9069      495F4741 
 9069      54455741 
 9069      5900
 9070              	.LASF689:
 9071 0104 625F6C69 		.ascii	"b_line_width\000"
 9071      6E655F77 
 9071      69647468 
 9071      00
 9072              	.LASF303:
 9073 0111 4F535F46 		.ascii	"OS_FN_GPRS_SMS_SEND\000"
 9073      4E5F4750 
 9073      52535F53 
 9073      4D535F53 
 9073      454E4400 
 9074              	.LASF550:
 9075 0125 4B5F4346 		.ascii	"K_CF_LptStamp\000"
 9075      5F4C7074 
 9075      5374616D 
 9075      7000
 9076              	.LASF545:
 9077 0133 4B5F4346 		.ascii	"K_CF_ARPMac\000"
 9077      5F415250 
 9077      4D616300 
 9078              	.LASF649:
 9079 013f 41504D5F 		.ascii	"APM_SDEV_MSR\000"
 9079      53444556 
 9079      5F4D5352 
 9079      00
ARM GAS  C:\Users\AHMED~1.ELE\AppData\Local\Temp\ccWMHy5f.s 			page 177


 9080              	.LASF332:
 9081 014c 4F535F46 		.ascii	"OS_FN_CLICC_LED_ON\000"
 9081      4E5F434C 
 9081      4943435F 
 9081      4C45445F 
 9081      4F4E00
 9082              	.LASF339:
 9083 015f 4F535F46 		.ascii	"OS_FN_USBHOST_DEVICEMAP\000"
 9083      4E5F5553 
 9083      42484F53 
 9083      545F4445 
 9083      56494345 
 9084              	.LASF608:
 9085 0177 464F5045 		.ascii	"FOPENMW\000"
 9085      4E4D5700 
 9086              	.LASF321:
 9087 017f 4F535F46 		.ascii	"OS_FN_CLICC_POLL\000"
 9087      4E5F434C 
 9087      4943435F 
 9087      504F4C4C 
 9087      00
 9088              	.LASF457:
 9089 0190 4F535F46 		.ascii	"OS_FN_GCM_AES_OPEN\000"
 9089      4E5F4743 
 9089      4D5F4145 
 9089      535F4F50 
 9089      454E00
 9090              	.LASF633:
 9091 01a3 44495350 		.ascii	"DISP_SETPMW\000"
 9091      5F534554 
 9091      504D5700 
 9092              	.LASF314:
 9093 01af 4F535F46 		.ascii	"OS_FN_CODEC_OPEN\000"
 9093      4E5F434F 
 9093      4445435F 
 9093      4F50454E 
 9093      00
 9094              	.LASF641:
 9095 01c0 534D535F 		.ascii	"SMS_TX_MW\000"
 9095      54585F4D 
 9095      5700
 9096              	.LASF81:
 9097 01ca 4F535F46 		.ascii	"OS_FN_COM3_SREAD\000"
 9097      4E5F434F 
 9097      4D335F53 
 9097      52454144 
 9097      00
 9098              	.LASF169:
 9099 01db 4F535F46 		.ascii	"OS_FN_FILE_EXIST\000"
 9099      4E5F4649 
 9099      4C455F45 
 9099      58495354 
 9099      00
 9100              	.LASF479:
 9101 01ec 4F535F46 		.ascii	"OS_FN_IMG_SENSOR_LED_OPEN\000"
 9101      4E5F494D 
 9101      475F5345 
ARM GAS  C:\Users\AHMED~1.ELE\AppData\Local\Temp\ccWMHy5f.s 			page 178


 9101      4E534F52 
 9101      5F4C4544 
 9102              	.LASF118:
 9103 0206 4F535F46 		.ascii	"OS_FN_SM4_DECRYPT\000"
 9103      4E5F534D 
 9103      345F4445 
 9103      43525950 
 9103      5400
 9104              	.LASF505:
 9105 0218 4B5F4346 		.ascii	"K_CF_UDPPort\000"
 9105      5F554450 
 9105      506F7274 
 9105      00
 9106              	.LASF487:
 9107 0225 4F535F46 		.ascii	"OS_FN_GPS_GET_DETAIL_INFO\000"
 9107      4E5F4750 
 9107      535F4745 
 9107      545F4445 
 9107      5441494C 
 9108              	.LASF572:
 9109 023f 4B5F4346 		.ascii	"K_CF_GPS_PowerOnOff\000"
 9109      5F475053 
 9109      5F506F77 
 9109      65724F6E 
 9109      4F666600 
 9110              	.LASF299:
 9111 0253 4F535F46 		.ascii	"OS_FN_GPRS_GET_CID\000"
 9111      4E5F4750 
 9111      52535F47 
 9111      45545F43 
 9111      494400
 9112              	.LASF368:
 9113 0266 4F535F46 		.ascii	"OS_FN_TAMPER_RESET_STATUS\000"
 9113      4E5F5441 
 9113      4D504552 
 9113      5F524553 
 9113      45545F53 
 9114              	.LASF441:
 9115 0280 4F535F46 		.ascii	"OS_FN_POWER\000"
 9115      4E5F504F 
 9115      57455200 
 9116              	.LASF289:
 9117 028c 4F535F46 		.ascii	"OS_FN_ADC_CH_DISABLE\000"
 9117      4E5F4144 
 9117      435F4348 
 9117      5F444953 
 9117      41424C45 
 9118              	.LASF729:
 9119 02a1 6243746C 		.ascii	"bCtlLoaded\000"
 9119      4C6F6164 
 9119      656400
 9120              	.LASF484:
 9121 02ac 4F535F46 		.ascii	"OS_FN_TAMPER_UNLOCK\000"
 9121      4E5F5441 
 9121      4D504552 
 9121      5F554E4C 
 9121      4F434B00 
ARM GAS  C:\Users\AHMED~1.ELE\AppData\Local\Temp\ccWMHy5f.s 			page 179


 9122              	.LASF182:
 9123 02c0 4F535F46 		.ascii	"OS_FN_FILE_DSEARCH_ALL\000"
 9123      4E5F4649 
 9123      4C455F44 
 9123      53454152 
 9123      43485F41 
 9124              	.LASF436:
 9125 02d7 4F535F46 		.ascii	"OS_FN_DMK_KVC_READ\000"
 9125      4E5F444D 
 9125      4B5F4B56 
 9125      435F5245 
 9125      414400
 9126              	.LASF28:
 9127 02ea 4F535F46 		.ascii	"OS_FN_TIMER_SET\000"
 9127      4E5F5449 
 9127      4D45525F 
 9127      53455400 
 9128              	.LASF522:
 9129 02fa 4B5F4346 		.ascii	"K_CF_SimSelect\000"
 9129      5F53696D 
 9129      53656C65 
 9129      637400
 9130              	.LASF677:
 9131 0309 624B6579 		.ascii	"bKeyIdx\000"
 9131      49647800 
 9132              	.LASF463:
 9133 0311 4F535F46 		.ascii	"OS_FN_SYS_THREAD_CREATE\000"
 9133      4E5F5359 
 9133      535F5448 
 9133      52454144 
 9133      5F435245 
 9134              	.LASF146:
 9135 0329 4F535F46 		.ascii	"OS_FN_BUFMAN_FREE\000"
 9135      4E5F4255 
 9135      464D414E 
 9135      5F465245 
 9135      4500
 9136              	.LASF294:
 9137 033b 4F535F46 		.ascii	"OS_FN_GPRS_AT_RESP\000"
 9137      4E5F4750 
 9137      52535F41 
 9137      545F5245 
 9137      535000
 9138              	.LASF646:
 9139 034e 46465452 		.ascii	"FFTRUNCATEMW\000"
 9139      554E4341 
 9139      54454D57 
 9139      00
 9140              	.LASF695:
 9141 035b 61546F44 		.ascii	"aToDisplay\000"
 9141      6973706C 
 9141      617900
 9142              	.LASF489:
 9143 0366 4B5F4346 		.ascii	"K_CF_Version\000"
 9143      5F566572 
 9143      73696F6E 
 9143      00
ARM GAS  C:\Users\AHMED~1.ELE\AppData\Local\Temp\ccWMHy5f.s 			page 180


 9144              	.LASF693:
 9145 0373 6143746C 		.ascii	"aCtlCfg\000"
 9145      43666700 
 9146              	.LASF356:
 9147 037b 4F535F46 		.ascii	"OS_FN_USBOTG_GET_STATE\000"
 9147      4E5F5553 
 9147      424F5447 
 9147      5F474554 
 9147      5F535441 
 9148              	.LASF477:
 9149 0392 4F535F46 		.ascii	"OS_FN_GPRS_IS_HL6RD_OLD_FRM\000"
 9149      4E5F4750 
 9149      52535F49 
 9149      535F484C 
 9149      3652445F 
 9150              	.LASF278:
 9151 03ae 4F535F46 		.ascii	"OS_FN_MCOM_TXRDY\000"
 9151      4E5F4D43 
 9151      4F4D5F54 
 9151      58524459 
 9151      00
 9152              	.LASF714:
 9153 03bf 61547970 		.ascii	"aType\000"
 9153      6500
 9154              	.LASF516:
 9155 03c5 4B5F4346 		.ascii	"K_CF_TimeStamp\000"
 9155      5F54696D 
 9155      65537461 
 9155      6D7000
 9156              	.LASF222:
 9157 03d4 4F535F46 		.ascii	"OS_FN_SLE_OPEN\000"
 9157      4E5F534C 
 9157      455F4F50 
 9157      454E00
 9158              	.LASF49:
 9159 03e3 4F535F46 		.ascii	"OS_FN_DISP_BRIGHTNESS\000"
 9159      4E5F4449 
 9159      53505F42 
 9159      52494748 
 9159      544E4553 
 9160              	.LASF305:
 9161 03f9 4F535F46 		.ascii	"OS_FN_GPRS_SMS_READ\000"
 9161      4E5F4750 
 9161      52535F53 
 9161      4D535F52 
 9161      45414400 
 9162              	.LASF623:
 9163 040d 49434349 		.ascii	"ICCINSERTEDMW\000"
 9163      4E534552 
 9163      5445444D 
 9163      5700
 9164              	.LASF296:
 9165 041b 4F535F46 		.ascii	"OS_FN_GPRS_READ\000"
 9165      4E5F4750 
 9165      52535F52 
 9165      45414400 
 9166              	.LASF593:
ARM GAS  C:\Users\AHMED~1.ELE\AppData\Local\Temp\ccWMHy5f.s 			page 181


 9167 042b 55534246 		.ascii	"USBFPRT_GENERAL_INFO_IMG_BPP\000"
 9167      5052545F 
 9167      47454E45 
 9167      52414C5F 
 9167      494E464F 
 9168              	.LASF720:
 9169 0448 74797065 		.ascii	"type\000"
 9169      00
 9170              	.LASF189:
 9171 044d 4F535F46 		.ascii	"OS_FN_FILE_GET_FREE_SPACE\000"
 9171      4E5F4649 
 9171      4C455F47 
 9171      45545F46 
 9171      5245455F 
 9172              	.LASF129:
 9173 0467 4F535F46 		.ascii	"OS_FN_KEY_SAVE_NC\000"
 9173      4E5F4B45 
 9173      595F5341 
 9173      56455F4E 
 9173      4300
 9174              	.LASF468:
 9175 0479 4F535F46 		.ascii	"OS_FN_WIFI_SOCKET_SEND_UDP\000"
 9175      4E5F5749 
 9175      46495F53 
 9175      4F434B45 
 9175      545F5345 
 9176              	.LASF439:
 9177 0494 4F535F46 		.ascii	"OS_FN_RMB_CONTROL\000"
 9177      4E5F524D 
 9177      425F434F 
 9177      4E54524F 
 9177      4C00
 9178              	.LASF109:
 9179 04a6 4F535F46 		.ascii	"OS_FN_SM2_GET_SIGNATURE\000"
 9179      4E5F534D 
 9179      325F4745 
 9179      545F5349 
 9179      474E4154 
 9180              	.LASF75:
 9181 04be 4F535F46 		.ascii	"OS_FN_COM3_CLOSE\000"
 9181      4E5F434F 
 9181      4D335F43 
 9181      4C4F5345 
 9181      00
 9182              	.LASF470:
 9183 04cf 4F535F46 		.ascii	"OS_FN_WIFI_SOCKET_GET_STATUS\000"
 9183      4E5F5749 
 9183      46495F53 
 9183      4F434B45 
 9183      545F4745 
 9184              	.LASF65:
 9185 04ec 4F535F46 		.ascii	"OS_FN_COM2_OPEN\000"
 9185      4E5F434F 
 9185      4D325F4F 
 9185      50454E00 
 9186              	.LASF338:
 9187 04fc 4F535F46 		.ascii	"OS_FN_USBHOST_DEVINFO\000"
ARM GAS  C:\Users\AHMED~1.ELE\AppData\Local\Temp\ccWMHy5f.s 			page 182


 9187      4E5F5553 
 9187      42484F53 
 9187      545F4445 
 9187      56494E46 
 9188              	.LASF235:
 9189 0512 4F535F46 		.ascii	"OS_FN_MSR_RXLEN\000"
 9189      4E5F4D53 
 9189      525F5258 
 9189      4C454E00 
 9190              	.LASF348:
 9191 0522 4F535F46 		.ascii	"OS_FN_DEVICE_SEARCH_NEXT\000"
 9191      4E5F4445 
 9191      56494345 
 9191      5F534541 
 9191      5243485F 
 9192              	.LASF94:
 9193 053b 4F535F46 		.ascii	"OS_FN_AES_ENCRYPT_BLOCK\000"
 9193      4E5F4145 
 9193      535F454E 
 9193      43525950 
 9193      545F424C 
 9194              	.LASF179:
 9195 0553 4F535F46 		.ascii	"OS_FN_FILE_END\000"
 9195      4E5F4649 
 9195      4C455F45 
 9195      4E4400
 9196              	.LASF515:
 9197 0562 4B5F4346 		.ascii	"K_CF_DMK\000"
 9197      5F444D4B 
 9197      00
 9198              	.LASF206:
 9199 056b 4F535F46 		.ascii	"OS_FN_SAM_SELECT\000"
 9199      4E5F5341 
 9199      4D5F5345 
 9199      4C454354 
 9199      00
 9200              	.LASF423:
 9201 057c 4F535F46 		.ascii	"OS_FN_GPS_ENABLED\000"
 9201      4E5F4750 
 9201      535F454E 
 9201      41424C45 
 9201      4400
 9202              	.LASF399:
 9203 058e 4F535F46 		.ascii	"OS_FN_BARCODE_STATUS\000"
 9203      4E5F4241 
 9203      52434F44 
 9203      455F5354 
 9203      41545553 
 9204              	.LASF526:
 9205 05a3 4B5F4346 		.ascii	"K_CF_MdmCountry\000"
 9205      5F4D646D 
 9205      436F756E 
 9205      74727900 
 9206              	.LASF70:
 9207 05b3 4F535F46 		.ascii	"OS_FN_COM2_SEND\000"
 9207      4E5F434F 
 9207      4D325F53 
ARM GAS  C:\Users\AHMED~1.ELE\AppData\Local\Temp\ccWMHy5f.s 			page 183


 9207      454E4400 
 9208              	.LASF204:
 9209 05c3 4F535F46 		.ascii	"OS_FN_SAM_OPEN\000"
 9209      4E5F5341 
 9209      4D5F4F50 
 9209      454E00
 9210              	.LASF558:
 9211 05d2 4B5F4346 		.ascii	"K_CF_MdmHypercomAnsToneTo\000"
 9211      5F4D646D 
 9211      48797065 
 9211      72636F6D 
 9211      416E7354 
 9212              	.LASF704:
 9213 05ec 61496478 		.ascii	"aIdx\000"
 9213      00
 9214              	.LASF102:
 9215 05f1 4F535F46 		.ascii	"OS_FN_SHA_FINISH\000"
 9215      4E5F5348 
 9215      415F4649 
 9215      4E495348 
 9215      00
 9216              	.LASF383:
 9217 0602 4F535F46 		.ascii	"OS_FN_MIF_INC\000"
 9217      4E5F4D49 
 9217      465F494E 
 9217      4300
 9218              	.LASF421:
 9219 0610 4F535F46 		.ascii	"OS_FN_GPS_RESP\000"
 9219      4E5F4750 
 9219      535F5245 
 9219      535000
 9220              	.LASF752:
 9221 061f 5072696E 		.ascii	"PrintRcptLF\000"
 9221      74526370 
 9221      744C4600 
 9222              	.LASF185:
 9223 062b 4F535F46 		.ascii	"OS_FN_FILE_GET_NAME\000"
 9223      4E5F4649 
 9223      4C455F47 
 9223      45545F4E 
 9223      414D4500 
 9224              	.LASF110:
 9225 063f 4F535F46 		.ascii	"OS_FN_SM2_VERIFY_SIGNATURE\000"
 9225      4E5F534D 
 9225      325F5645 
 9225      52494659 
 9225      5F534947 
 9226              	.LASF598:
 9227 065a 434C4F53 		.ascii	"CLOSEMW\000"
 9227      454D5700 
 9228              	.LASF95:
 9229 0662 4F535F46 		.ascii	"OS_FN_AES_DECRYPT_BLOCK\000"
 9229      4E5F4145 
 9229      535F4445 
 9229      43525950 
 9229      545F424C 
 9230              	.LASF121:
ARM GAS  C:\Users\AHMED~1.ELE\AppData\Local\Temp\ccWMHy5f.s 			page 184


 9231 067a 4F535F46 		.ascii	"OS_FN_KEY_DES\000"
 9231      4E5F4B45 
 9231      595F4445 
 9231      5300
 9232              	.LASF26:
 9233 0688 4F535F46 		.ascii	"OS_FN_TIMER_OPEN\000"
 9233      4E5F5449 
 9233      4D45525F 
 9233      4F50454E 
 9233      00
 9234              	.LASF13:
 9235 0699 42595445 		.ascii	"BYTE\000"
 9235      00
 9236              	.LASF406:
 9237 069e 4F535F46 		.ascii	"OS_FN_WIFI_PROFILES_WRITE\000"
 9237      4E5F5749 
 9237      46495F50 
 9237      524F4649 
 9237      4C45535F 
 9238              	.LASF119:
 9239 06b8 4F535F46 		.ascii	"OS_FN_KEY_SAVE\000"
 9239      4E5F4B45 
 9239      595F5341 
 9239      564500
 9240              	.LASF680:
 9241 06c7 77456666 		.ascii	"wEffectMMYY\000"
 9241      6563744D 
 9241      4D595900 
 9242              	.LASF92:
 9243 06d3 4F535F46 		.ascii	"OS_FN_RSA_PRIVATE\000"
 9243      4E5F5253 
 9243      415F5052 
 9243      49564154 
 9243      4500
 9244              	.LASF254:
 9245 06e5 4F535F46 		.ascii	"OS_FN_FL_PGM\000"
 9245      4E5F464C 
 9245      5F50474D 
 9245      00
 9246              	.LASF196:
 9247 06f2 4F535F46 		.ascii	"OS_FN_FILE_RMDIR\000"
 9247      4E5F4649 
 9247      4C455F52 
 9247      4D444952 
 9247      00
 9248              	.LASF442:
 9249 0703 4F535F46 		.ascii	"OS_FN_CLICC_DEBUG\000"
 9249      4E5F434C 
 9249      4943435F 
 9249      44454255 
 9249      4700
 9250              	.LASF385:
 9251 0715 4F535F46 		.ascii	"OS_FN_MIF_RESTORE\000"
 9251      4E5F4D49 
 9251      465F5245 
 9251      53544F52 
 9251      4500
ARM GAS  C:\Users\AHMED~1.ELE\AppData\Local\Temp\ccWMHy5f.s 			page 185


 9252              	.LASF280:
 9253 0727 4F535F46 		.ascii	"OS_FN_MCOM_SSEND\000"
 9253      4E5F4D43 
 9253      4F4D5F53 
 9253      53454E44 
 9253      00
 9254              	.LASF342:
 9255 0738 4F535F46 		.ascii	"OS_FN_DEVICE_ALLOC\000"
 9255      4E5F4445 
 9255      56494345 
 9255      5F414C4C 
 9255      4F4300
 9256              	.LASF760:
 9257 074b 4B65726E 		.ascii	"KernelReady\000"
 9257      656C5265 
 9257      61647900 
 9258              	.LASF77:
 9259 0757 4F535F46 		.ascii	"OS_FN_COM3_TXRDY\000"
 9259      4E5F434F 
 9259      4D335F54 
 9259      58524459 
 9259      00
 9260              	.LASF453:
 9261 0768 4F535F46 		.ascii	"OS_FN_FPRT_INFO_GET\000"
 9261      4E5F4650 
 9261      52545F49 
 9261      4E464F5F 
 9261      47455400 
 9262              	.LASF198:
 9263 077c 4F535F46 		.ascii	"OS_FN_FILE_SYNC\000"
 9263      4E5F4649 
 9263      4C455F53 
 9263      594E4300 
 9264              	.LASF449:
 9265 078c 4F535F46 		.ascii	"OS_FN_FPRT_OPEN\000"
 9265      4E5F4650 
 9265      52545F4F 
 9265      50454E00 
 9266              	.LASF609:
 9267 079c 46434C4F 		.ascii	"FCLOSEMW\000"
 9267      53454D57 
 9267      00
 9268              	.LASF604:
 9269 07a5 4745544C 		.ascii	"GETLASTERRMW\000"
 9269      41535445 
 9269      52524D57 
 9269      00
 9270              	.LASF236:
 9271 07b2 4F535F46 		.ascii	"OS_FN_MSR_GETC\000"
 9271      4E5F4D53 
 9271      525F4745 
 9271      544300
 9272              	.LASF597:
 9273 07c1 4F50454E 		.ascii	"OPENMW\000"
 9273      4D5700
 9274              	.LASF287:
 9275 07c8 4F535F46 		.ascii	"OS_FN_BATT_CHARGE_MODE\000"
ARM GAS  C:\Users\AHMED~1.ELE\AppData\Local\Temp\ccWMHy5f.s 			page 186


 9275      4E5F4241 
 9275      54545F43 
 9275      48415247 
 9275      455F4D4F 
 9276              	.LASF391:
 9277 07df 4F535F46 		.ascii	"OS_FN_MIF_INFO_SET\000"
 9277      4E5F4D49 
 9277      465F494E 
 9277      464F5F53 
 9277      455400
 9278              	.LASF567:
 9279 07f2 4B5F4346 		.ascii	"K_CF_ArpAlways\000"
 9279      5F417270 
 9279      416C7761 
 9279      797300
 9280              	.LASF5:
 9281 0801 6C6F6E67 		.ascii	"long int\000"
 9281      20696E74 
 9281      00
 9282              	.LASF702:
 9283 080a 436C7243 		.ascii	"ClrCTLParam\000"
 9283      544C5061 
 9283      72616D00 
 9284              	.LASF145:
 9285 0816 4F535F46 		.ascii	"OS_FN_BUFMAN_ALLOC\000"
 9285      4E5F4255 
 9285      464D414E 
 9285      5F414C4C 
 9285      4F4300
 9286              	.LASF666:
 9287 0829 434C5F49 		.ascii	"CL_IO\000"
 9287      4F00
 9288              	.LASF56:
 9289 082f 4F535F46 		.ascii	"OS_FN_COM1_OPEN\000"
 9289      4E5F434F 
 9289      4D315F4F 
 9289      50454E00 
 9290              	.LASF681:
 9291 083f 434C5F4B 		.ascii	"CL_KEY_INFO\000"
 9291      45595F49 
 9291      4E464F00 
 9292              	.LASF300:
 9293 084b 4F535F46 		.ascii	"OS_FN_GPRS_READ_USSD\000"
 9293      4E5F4750 
 9293      52535F52 
 9293      4541445F 
 9293      55535344 
 9294              	.LASF111:
 9295 0860 4F535F46 		.ascii	"OS_FN_SM2_ENCRYPT\000"
 9295      4E5F534D 
 9295      325F454E 
 9295      43525950 
 9295      5400
 9296              	.LASF735:
 9297 0872 47657443 		.ascii	"GetCTLKeyInfo\000"
 9297      544C4B65 
 9297      79496E66 
ARM GAS  C:\Users\AHMED~1.ELE\AppData\Local\Temp\ccWMHy5f.s 			page 187


 9297      6F00
 9298              	.LASF460:
 9299 0880 4F535F46 		.ascii	"OS_FN_GCM_AES_PROCESS\000"
 9299      4E5F4743 
 9299      4D5F4145 
 9299      535F5052 
 9299      4F434553 
 9300              	.LASF344:
 9301 0896 4F535F46 		.ascii	"OS_FN_DEVICE_UNREGISTER\000"
 9301      4E5F4445 
 9301      56494345 
 9301      5F554E52 
 9301      45474953 
 9302              	.LASF587:
 9303 08ae 4B5F4346 		.ascii	"K_CF_WIFI_SCAN_REGION\000"
 9303      5F574946 
 9303      495F5343 
 9303      414E5F52 
 9303      4547494F 
 9304              	.LASF108:
 9305 08c4 4F535F46 		.ascii	"OS_FN_SM2_FREE_CURVE\000"
 9305      4E5F534D 
 9305      325F4652 
 9305      45455F43 
 9305      55525645 
 9306              	.LASF485:
 9307 08d9 4F535F46 		.ascii	"OS_FN_BATT_LEVEL2\000"
 9307      4E5F4241 
 9307      54545F4C 
 9307      4556454C 
 9307      3200
 9308              	.LASF288:
 9309 08eb 4F535F46 		.ascii	"OS_FN_ADC_CH_ENABLE\000"
 9309      4E5F4144 
 9309      435F4348 
 9309      5F454E41 
 9309      424C4500 
 9310              	.LASF260:
 9311 08ff 4F535F46 		.ascii	"OS_FN_FL_COPYB_START\000"
 9311      4E5F464C 
 9311      5F434F50 
 9311      59425F53 
 9311      54415254 
 9312              	.LASF47:
 9313 0914 4F535F46 		.ascii	"OS_FN_DISP_TEXTC\000"
 9313      4E5F4449 
 9313      53505F54 
 9313      45585443 
 9313      00
 9314              	.LASF664:
 9315 0925 774C656E 		.ascii	"wLen\000"
 9315      00
 9316              	.LASF143:
 9317 092a 4F535F46 		.ascii	"OS_FN_THREAD_POP\000"
 9317      4E5F5448 
 9317      52454144 
 9317      5F504F50 
ARM GAS  C:\Users\AHMED~1.ELE\AppData\Local\Temp\ccWMHy5f.s 			page 188


 9317      00
 9318              	.LASF319:
 9319 093b 4F535F46 		.ascii	"OS_FN_CODEC_STATUS\000"
 9319      4E5F434F 
 9319      4445435F 
 9319      53544154 
 9319      555300
 9320              	.LASF181:
 9321 094e 4F535F46 		.ascii	"OS_FN_FILE_DSEARCH\000"
 9321      4E5F4649 
 9321      4C455F44 
 9321      53454152 
 9321      434800
 9322              	.LASF564:
 9323 0961 4B5F4346 		.ascii	"K_CF_AbecsEnable\000"
 9323      5F416265 
 9323      6373456E 
 9323      61626C65 
 9323      00
 9324              	.LASF660:
 9325 0972 54494D45 		.ascii	"TIMER_DEFAULTAPP\000"
 9325      525F4445 
 9325      4641554C 
 9325      54415050 
 9325      00
 9326              	.LASF404:
 9327 0983 4F535F46 		.ascii	"OS_FN_WIFI_STATUS\000"
 9327      4E5F5749 
 9327      46495F53 
 9327      54415455 
 9327      5300
 9328              	.LASF750:
 9329 0995 436F6E76 		.ascii	"ConvDecimal\000"
 9329      44656369 
 9329      6D616C00 
 9330              	.LASF640:
 9331 09a1 534D535F 		.ascii	"SMS_RX_MW\000"
 9331      52585F4D 
 9331      5700
 9332              	.LASF594:
 9333 09ab 55534246 		.ascii	"USBFPRT_GENERAL_INFO_END\000"
 9333      5052545F 
 9333      47454E45 
 9333      52414C5F 
 9333      494E464F 
 9334              	.LASF36:
 9335 09c4 4F535F46 		.ascii	"OS_FN_DISP_OPEN\000"
 9335      4E5F4449 
 9335      53505F4F 
 9335      50454E00 
 9336              	.LASF38:
 9337 09d4 4F535F46 		.ascii	"OS_FN_DISP_PUTC\000"
 9337      4E5F4449 
 9337      53505F50 
 9337      55544300 
 9338              	.LASF326:
 9339 09e4 4F535F46 		.ascii	"OS_FN_CLICC_EMV_LV1\000"
ARM GAS  C:\Users\AHMED~1.ELE\AppData\Local\Temp\ccWMHy5f.s 			page 189


 9339      4E5F434C 
 9339      4943435F 
 9339      454D565F 
 9339      4C563100 
 9340              	.LASF42:
 9341 09f8 4F535F46 		.ascii	"OS_FN_DISP_PUTG\000"
 9341      4E5F4449 
 9341      53505F50 
 9341      55544700 
 9342              	.LASF132:
 9343 0a08 4F535F46 		.ascii	"OS_FN_KEY_SAVE_TMK_CBC_NC\000"
 9343      4E5F4B45 
 9343      595F5341 
 9343      56455F54 
 9343      4D4B5F43 
 9344              	.LASF606:
 9345 0a22 46435245 		.ascii	"FCREATEMW\000"
 9345      4154454D 
 9345      5700
 9346              	.LASF40:
 9347 0a2c 4F535F46 		.ascii	"OS_FN_DISP_PUTN\000"
 9347      4E5F4449 
 9347      53505F50 
 9347      55544E00 
 9348              	.LASF473:
 9349 0a3c 4F535F46 		.ascii	"OS_FN_IMG_SENSOR_GET_FRAME\000"
 9349      4E5F494D 
 9349      475F5345 
 9349      4E534F52 
 9349      5F474554 
 9350              	.LASF43:
 9351 0a57 4F535F46 		.ascii	"OS_FN_DISP_PUTP\000"
 9351      4E5F4449 
 9351      53505F50 
 9351      55545000 
 9352              	.LASF434:
 9353 0a67 4F535F46 		.ascii	"OS_FN_DUMMY\000"
 9353      4E5F4455 
 9353      4D4D5900 
 9354              	.LASF318:
 9355 0a73 4F535F46 		.ascii	"OS_FN_CODEC_STOP\000"
 9355      4E5F434F 
 9355      4445435F 
 9355      53544F50 
 9355      00
 9356              	.LASF39:
 9357 0a84 4F535F46 		.ascii	"OS_FN_DISP_PUTS\000"
 9357      4E5F4449 
 9357      53505F50 
 9357      55545300 
 9358              	.LASF201:
 9359 0a94 4F535F46 		.ascii	"OS_FN_CONFIG_READ\000"
 9359      4E5F434F 
 9359      4E464947 
 9359      5F524541 
 9359      4400
 9360              	.LASF730:
ARM GAS  C:\Users\AHMED~1.ELE\AppData\Local\Temp\ccWMHy5f.s 			page 190


 9361 0aa6 624D6178 		.ascii	"bMaxNumBlk\000"
 9361      4E756D42 
 9361      6C6B00
 9362              	.LASF502:
 9363 0ab1 4B5F4346 		.ascii	"K_CF_Gateway\000"
 9363      5F476174 
 9363      65776179 
 9363      00
 9364              	.LASF248:
 9365 0abe 4F535F46 		.ascii	"OS_FN_USBSER_STATUS\000"
 9365      4E5F5553 
 9365      42534552 
 9365      5F535441 
 9365      54555300 
 9366              	.LASF655:
 9367 0ad2 41504D5F 		.ascii	"APM_SDEV_WIFI\000"
 9367      53444556 
 9367      5F574946 
 9367      4900
 9368              	.LASF407:
 9369 0ae0 4F535F46 		.ascii	"OS_FN_NFC_OPEN_FELICA\000"
 9369      4E5F4E46 
 9369      435F4F50 
 9369      454E5F46 
 9369      454C4943 
 9370              	.LASF694:
 9371 0af6 61446574 		.ascii	"aDetail\000"
 9371      61696C00 
 9372              	.LASF154:
 9373 0afe 4F535F46 		.ascii	"OS_FN_LED_ON\000"
 9373      4E5F4C45 
 9373      445F4F4E 
 9373      00
 9374              	.LASF632:
 9375 0b0b 44495350 		.ascii	"DISP_LINEMW\000"
 9375      5F4C494E 
 9375      454D5700 
 9376              	.LASF503:
 9377 0b17 4B5F4346 		.ascii	"K_CF_DNS1\000"
 9377      5F444E53 
 9377      3100
 9378              	.LASF166:
 9379 0b21 4F535F46 		.ascii	"OS_FN_FILE_OPEN\000"
 9379      4E5F4649 
 9379      4C455F4F 
 9379      50454E00 
 9380              	.LASF176:
 9381 0b31 4F535F46 		.ascii	"OS_FN_FILE_PUTC\000"
 9381      4E5F4649 
 9381      4C455F50 
 9381      55544300 
 9382              	.LASF711:
 9383 0b41 66696C65 		.ascii	"filename\000"
 9383      6E616D65 
 9383      00
 9384              	.LASF724:
 9385 0b4a 5072696E 		.ascii	"PrintCTLParam\000"
ARM GAS  C:\Users\AHMED~1.ELE\AppData\Local\Temp\ccWMHy5f.s 			page 191


 9385      7443544C 
 9385      50617261 
 9385      6D00
 9386              	.LASF142:
 9387 0b58 4F535F46 		.ascii	"OS_FN_THREAD_PUSH\000"
 9387      4E5F5448 
 9387      52454144 
 9387      5F505553 
 9387      4800
 9388              	.LASF600:
 9389 0b6a 57524954 		.ascii	"WRITEMW\000"
 9389      454D5700 
 9390              	.LASF622:
 9391 0b72 44495350 		.ascii	"DISPLOGOMW\000"
 9391      4C4F474F 
 9391      4D5700
 9392              	.LASF435:
 9393 0b7d 4F535F46 		.ascii	"OS_FN_OFF\000"
 9393      4E5F4F46 
 9393      4600
 9394              	.LASF524:
 9395 0b87 4B5F4346 		.ascii	"K_CF_SmsEnable\000"
 9395      5F536D73 
 9395      456E6162 
 9395      6C6500
 9396              	.LASF603:
 9397 0b96 53544154 		.ascii	"STATMW\000"
 9397      4D5700
 9398              	.LASF19:
 9399 0b9d 4F535F46 		.ascii	"OS_FN_KBD_OPEN\000"
 9399      4E5F4B42 
 9399      445F4F50 
 9399      454E00
 9400              	.LASF657:
 9401 0bac 54494D45 		.ascii	"TIMER_GEN\000"
 9401      525F4745 
 9401      4E00
 9402              	.LASF126:
 9403 0bb6 4F535F46 		.ascii	"OS_FN_KEY_CUP_MAC\000"
 9403      4E5F4B45 
 9403      595F4355 
 9403      505F4D41 
 9403      4300
 9404              	.LASF741:
 9405 0bc8 6C69625F 		.ascii	"lib_app_call\000"
 9405      6170705F 
 9405      63616C6C 
 9405      00
 9406              	.LASF52:
 9407 0bd5 4F535F46 		.ascii	"OS_FN_DISP_ICON_PUTC\000"
 9407      4E5F4449 
 9407      53505F49 
 9407      434F4E5F 
 9407      50555443 
 9408              	.LASF709:
 9409 0bea 43544C43 		.ascii	"CTLClrDnloadBuf\000"
 9409      6C72446E 
ARM GAS  C:\Users\AHMED~1.ELE\AppData\Local\Temp\ccWMHy5f.s 			page 192


 9409      6C6F6164 
 9409      42756600 
 9410              	.LASF263:
 9411 0bfa 4F535F46 		.ascii	"OS_FN_FL_CREAD_RAND\000"
 9411      4E5F464C 
 9411      5F435245 
 9411      41445F52 
 9411      414E4400 
 9412              	.LASF613:
 9413 0c0e 46575249 		.ascii	"FWRITEMW\000"
 9413      54454D57 
 9413      00
 9414              	.LASF579:
 9415 0c17 4B5F4346 		.ascii	"K_CF_CLICC_CFG\000"
 9415      5F434C49 
 9415      43435F43 
 9415      464700
 9416              	.LASF616:
 9417 0c26 46445345 		.ascii	"FDSEARCHMW\000"
 9417      41524348 
 9417      4D5700
 9418              	.LASF136:
 9419 0c31 4F535F46 		.ascii	"OS_FN_THREAD_OPEN\000"
 9419      4E5F5448 
 9419      52454144 
 9419      5F4F5045 
 9419      4E00
 9420              	.LASF175:
 9421 0c43 4F535F46 		.ascii	"OS_FN_FILE_WRITE\000"
 9421      4E5F4649 
 9421      4C455F57 
 9421      52495445 
 9421      00
 9422              	.LASF409:
 9423 0c54 4F535F46 		.ascii	"OS_FN_NFC_CANCEL\000"
 9423      4E5F4E46 
 9423      435F4341 
 9423      4E43454C 
 9423      00
 9424              	.LASF625:
 9425 0c65 5343484E 		.ascii	"SCHNLGETPINMW\000"
 9425      4C474554 
 9425      50494E4D 
 9425      5700
 9426              	.LASF200:
 9427 0c73 4F535F46 		.ascii	"OS_FN_CONFIG_LENGTH\000"
 9427      4E5F434F 
 9427      4E464947 
 9427      5F4C454E 
 9427      47544800 
 9428              	.LASF469:
 9429 0c87 4F535F46 		.ascii	"OS_FN_WIFI_GET_DEVICE_STATE\000"
 9429      4E5F5749 
 9429      46495F47 
 9429      45545F44 
 9429      45564943 
 9430              	.LASF712:
ARM GAS  C:\Users\AHMED~1.ELE\AppData\Local\Temp\ccWMHy5f.s 			page 193


 9431 0ca3 43544C44 		.ascii	"CTLData2DnloadBuf\000"
 9431      61746132 
 9431      446E6C6F 
 9431      61644275 
 9431      6600
 9432              	.LASF61:
 9433 0cb5 4F535F46 		.ascii	"OS_FN_COM1_SEND\000"
 9433      4E5F434F 
 9433      4D315F53 
 9433      454E4400 
 9434              	.LASF135:
 9435 0cc5 4F535F46 		.ascii	"OS_FN_PCI_DSS\000"
 9435      4E5F5043 
 9435      495F4453 
 9435      5300
 9436              	.LASF757:
 9437 0cd3 433A5C54 		.ascii	"C:\\T1000-A5\\Projects\\APM\\apm_v3.0s03\000"
 9437      31303030 
 9437      2D41355C 
 9437      50726F6A 
 9437      65637473 
 9438              	.LASF638:
 9439 0cf8 42535F43 		.ascii	"BS_CALL_MW\000"
 9439      414C4C5F 
 9439      4D5700
 9440              	.LASF353:
 9441 0d03 4F535F46 		.ascii	"OS_FN_INTERRUPT_UNREGISTER\000"
 9441      4E5F494E 
 9441      54455252 
 9441      5550545F 
 9441      554E5245 
 9442              	.LASF151:
 9443 0d1e 4F535F46 		.ascii	"OS_FN_LED_STATUS\000"
 9443      4E5F4C45 
 9443      445F5354 
 9443      41545553 
 9443      00
 9444              	.LASF69:
 9445 0d2f 4F535F46 		.ascii	"OS_FN_COM2_READ\000"
 9445      4E5F434F 
 9445      4D325F52 
 9445      45414400 
 9446              	.LASF492:
 9447 0d3f 4B5F4346 		.ascii	"K_CF_Tid\000"
 9447      5F546964 
 9447      00
 9448              	.LASF30:
 9449 0d48 4F535F46 		.ascii	"OS_FN_BUZ_OPEN\000"
 9449      4E5F4255 
 9449      5A5F4F50 
 9449      454E00
 9450              	.LASF328:
 9451 0d57 4F535F46 		.ascii	"OS_FN_CLICC_LED_CLOSE\000"
 9451      4E5F434C 
 9451      4943435F 
 9451      4C45445F 
 9451      434C4F53 
ARM GAS  C:\Users\AHMED~1.ELE\AppData\Local\Temp\ccWMHy5f.s 			page 194


 9452              	.LASF699:
 9453 0d6d 7061636B 		.ascii	"pack_width\000"
 9453      5F776964 
 9453      746800
 9454              	.LASF384:
 9455 0d78 4F535F46 		.ascii	"OS_FN_MIF_DEC\000"
 9455      4E5F4D49 
 9455      465F4445 
 9455      4300
 9456              	.LASF226:
 9457 0d86 4F535F46 		.ascii	"OS_FN_LAN_OPEN\000"
 9457      4E5F4C41 
 9457      4E5F4F50 
 9457      454E00
 9458              	.LASF630:
 9459 0d95 44495350 		.ascii	"DISP_CLRBELOWMW\000"
 9459      5F434C52 
 9459      42454C4F 
 9459      574D5700 
 9460              	.LASF448:
 9461 0da5 4F535F46 		.ascii	"OS_FN_LPT_GET_COUNT\000"
 9461      4E5F4C50 
 9461      545F4745 
 9461      545F434F 
 9461      554E5400 
 9462              	.LASF284:
 9463 0db9 4F535F46 		.ascii	"OS_FN_BATT_LEVEL\000"
 9463      4E5F4241 
 9463      54545F4C 
 9463      4556454C 
 9463      00
 9464              	.LASF432:
 9465 0dca 4F535F46 		.ascii	"OS_FN_HD_CONFIG\000"
 9465      4E5F4844 
 9465      5F434F4E 
 9465      46494700 
 9466              	.LASF192:
 9467 0dda 4F535F46 		.ascii	"OS_FN_FILE_FTRUNCATE\000"
 9467      4E5F4649 
 9467      4C455F46 
 9467      5452554E 
 9467      43415445 
 9468              	.LASF577:
 9469 0def 4B5F4346 		.ascii	"K_CF_WIFI_DNS1\000"
 9469      5F574946 
 9469      495F444E 
 9469      533100
 9470              	.LASF578:
 9471 0dfe 4B5F4346 		.ascii	"K_CF_WIFI_DNS2\000"
 9471      5F574946 
 9471      495F444E 
 9471      533200
 9472              	.LASF229:
 9473 0e0d 4F535F46 		.ascii	"OS_FN_LAN_TXRDY\000"
 9473      4E5F4C41 
 9473      4E5F5458 
 9473      52445900 
ARM GAS  C:\Users\AHMED~1.ELE\AppData\Local\Temp\ccWMHy5f.s 			page 195


 9474              	.LASF137:
 9475 0e1d 4F535F46 		.ascii	"OS_FN_THREAD_CLOSE\000"
 9475      4E5F5448 
 9475      52454144 
 9475      5F434C4F 
 9475      534500
 9476              	.LASF286:
 9477 0e30 4F535F46 		.ascii	"OS_FN_BATT_CONTROL\000"
 9477      4E5F4241 
 9477      54545F43 
 9477      4F4E5452 
 9477      4F4C00
 9478              	.LASF373:
 9479 0e43 4F535F46 		.ascii	"OS_FN_MIF_CARD_TYPE\000"
 9479      4E5F4D49 
 9479      465F4341 
 9479      52445F54 
 9479      59504500 
 9480              	.LASF220:
 9481 0e57 4F535F46 		.ascii	"OS_FN_MMC_WRITE\000"
 9481      4E5F4D4D 
 9481      435F5752 
 9481      49544500 
 9482              	.LASF115:
 9483 0e67 4F535F46 		.ascii	"OS_FN_SM3\000"
 9483      4E5F534D 
 9483      3300
 9484              	.LASF454:
 9485 0e71 4F535F46 		.ascii	"OS_FN_ECC_KEYPAIR_GENERATE\000"
 9485      4E5F4543 
 9485      435F4B45 
 9485      59504149 
 9485      525F4745 
 9486              	.LASF276:
 9487 0e8c 4F535F46 		.ascii	"OS_FN_MCOM_PERMIT\000"
 9487      4E5F4D43 
 9487      4F4D5F50 
 9487      45524D49 
 9487      5400
 9488              	.LASF737:
 9489 0e9e 57616974 		.ascii	"WaitKey\000"
 9489      4B657900 
 9490              	.LASF707:
 9491 0ea6 6B65795F 		.ascii	"key_info\000"
 9491      696E666F 
 9491      00
 9492              	.LASF389:
 9493 0eaf 4F535F46 		.ascii	"OS_FN_MIF_SENDCMD\000"
 9493      4E5F4D49 
 9493      465F5345 
 9493      4E44434D 
 9493      4400
 9494              	.LASF696:
 9495 0ec1 7265745F 		.ascii	"ret_ok\000"
 9495      6F6B00
 9496              	.LASF22:
 9497 0ec8 4F535F46 		.ascii	"OS_FN_KBD_SCODE\000"
ARM GAS  C:\Users\AHMED~1.ELE\AppData\Local\Temp\ccWMHy5f.s 			page 196


 9497      4E5F4B42 
 9497      445F5343 
 9497      4F444500 
 9498              	.LASF529:
 9499 0ed8 4B5F4346 		.ascii	"K_CF_HwConfig\000"
 9499      5F487743 
 9499      6F6E6669 
 9499      6700
 9500              	.LASF519:
 9501 0ee6 4B5F4346 		.ascii	"K_CF_BattError\000"
 9501      5F426174 
 9501      74457272 
 9501      6F7200
 9502              	.LASF464:
 9503 0ef5 4F535F46 		.ascii	"OS_FN_WIFI_SOCKET_CONNECT\000"
 9503      4E5F5749 
 9503      46495F53 
 9503      4F434B45 
 9503      545F434F 
 9504              	.LASF662:
 9505 0f0f 54494D45 		.ascii	"TIMER_REMOTEDL\000"
 9505      525F5245 
 9505      4D4F5445 
 9505      444C00
 9506              	.LASF456:
 9507 0f1e 4F535F46 		.ascii	"OS_FN_ECC_SCALAR_MULTIPLY\000"
 9507      4E5F4543 
 9507      435F5343 
 9507      414C4152 
 9507      5F4D554C 
 9508              	.LASF362:
 9509 0f38 4F535F46 		.ascii	"OS_FN_USBKBD_OPEN\000"
 9509      4E5F5553 
 9509      424B4244 
 9509      5F4F5045 
 9509      4E00
 9510              	.LASF563:
 9511 0f4a 4B5F4346 		.ascii	"K_CF_MdmMinAnsToneDur\000"
 9511      5F4D646D 
 9511      4D696E41 
 9511      6E73546F 
 9511      6E654475 
 9512              	.LASF379:
 9513 0f60 4F535F46 		.ascii	"OS_FN_MIF_AUTH1\000"
 9513      4E5F4D49 
 9513      465F4155 
 9513      54483100 
 9514              	.LASF380:
 9515 0f70 4F535F46 		.ascii	"OS_FN_MIF_AUTH2\000"
 9515      4E5F4D49 
 9515      465F4155 
 9515      54483200 
 9516              	.LASF12:
 9517 0f80 424F4F4C 		.ascii	"BOOLEAN\000"
 9517      45414E00 
 9518              	.LASF85:
 9519 0f88 4F535F46 		.ascii	"OS_FN_DES2\000"
ARM GAS  C:\Users\AHMED~1.ELE\AppData\Local\Temp\ccWMHy5f.s 			page 197


 9519      4E5F4445 
 9519      533200
 9520              	.LASF731:
 9521 0f93 62446E6C 		.ascii	"bDnloadBlk\000"
 9521      6F616442 
 9521      6C6B00
 9522              	.LASF387:
 9523 0f9e 4F535F46 		.ascii	"OS_FN_MIF_DEC_TRANS\000"
 9523      4E5F4D49 
 9523      465F4445 
 9523      435F5452 
 9523      414E5300 
 9524              	.LASF665:
 9525 0fb2 70624D73 		.ascii	"pbMsg\000"
 9525      6700
 9526              	.LASF343:
 9527 0fb8 4F535F46 		.ascii	"OS_FN_DEVICE_REGISTER\000"
 9527      4E5F4445 
 9527      56494345 
 9527      5F524547 
 9527      49535445 
 9528              	.LASF668:
 9529 0fce 62426974 		.ascii	"bBitField\000"
 9529      4669656C 
 9529      6400
 9530              	.LASF691:
 9531 0fd8 70625F68 		.ascii	"pb_header\000"
 9531      65616465 
 9531      7200
 9532              	.LASF60:
 9533 0fe2 4F535F46 		.ascii	"OS_FN_COM1_READ\000"
 9533      4E5F434F 
 9533      4D315F52 
 9533      45414400 
 9534              	.LASF223:
 9535 0ff2 4F535F46 		.ascii	"OS_FN_SLE_CLOSE\000"
 9535      4E5F534C 
 9535      455F434C 
 9535      4F534500 
 9536              	.LASF232:
 9537 1002 4F535F46 		.ascii	"OS_FN_LAN_STATUS\000"
 9537      4E5F4C41 
 9537      4E5F5354 
 9537      41545553 
 9537      00
 9538              	.LASF160:
 9539 1013 4F535F46 		.ascii	"OS_FN_APP_CLR_VIRGIN\000"
 9539      4E5F4150 
 9539      505F434C 
 9539      525F5649 
 9539      5247494E 
 9540              	.LASF753:
 9541 1028 4C707450 		.ascii	"LptPutS\000"
 9541      75745300 
 9542              	.LASF159:
 9543 1030 4F535F46 		.ascii	"OS_FN_APP_GET_VIRGIN\000"
 9543      4E5F4150 
ARM GAS  C:\Users\AHMED~1.ELE\AppData\Local\Temp\ccWMHy5f.s 			page 198


 9543      505F4745 
 9543      545F5649 
 9543      5247494E 
 9544              	.LASF618:
 9545 1045 4B424453 		.ascii	"KBDSCODEMW\000"
 9545      434F4445 
 9545      4D5700
 9546              	.LASF670:
 9547 1050 62525354 		.ascii	"bRSTarget\000"
 9547      61726765 
 9547      7400
 9548              	.LASF208:
 9549 105a 4F535F46 		.ascii	"OS_FN_SAM_ON\000"
 9549      4E5F5341 
 9549      4D5F4F4E 
 9549      00
 9550              	.LASF283:
 9551 1067 4F535F46 		.ascii	"OS_FN_MCOM_SEND\000"
 9551      4E5F4D43 
 9551      4F4D5F53 
 9551      454E4400 
 9552              	.LASF369:
 9553 1077 4F535F46 		.ascii	"OS_FN_MIF_OPEN\000"
 9553      4E5F4D49 
 9553      465F4F50 
 9553      454E00
 9554              	.LASF245:
 9555 1086 4F535F46 		.ascii	"OS_FN_USBSER_CLOSE\000"
 9555      4E5F5553 
 9555      42534552 
 9555      5F434C4F 
 9555      534500
 9556              	.LASF418:
 9557 1099 4F535F46 		.ascii	"OS_FN_GPS_GET_INFO\000"
 9557      4E5F4750 
 9557      535F4745 
 9557      545F494E 
 9557      464F00
 9558              	.LASF532:
 9559 10ac 4B5F4346 		.ascii	"K_CF_SNControlOff\000"
 9559      5F534E43 
 9559      6F6E7472 
 9559      6F6C4F66 
 9559      6600
 9560              	.LASF269:
 9561 10be 4F535F46 		.ascii	"OS_FN_MDM_DIAL\000"
 9561      4E5F4D44 
 9561      4D5F4449 
 9561      414C00
 9562              	.LASF139:
 9563 10cd 4F535F46 		.ascii	"OS_FN_THREAD_DELETE\000"
 9563      4E5F5448 
 9563      52454144 
 9563      5F44454C 
 9563      45544500 
 9564              	.LASF514:
 9565 10e1 4B5F4346 		.ascii	"K_CF_EnforcePsw\000"
ARM GAS  C:\Users\AHMED~1.ELE\AppData\Local\Temp\ccWMHy5f.s 			page 199


 9565      5F456E66 
 9565      6F726365 
 9565      50737700 
 9566              	.LASF149:
 9567 10f1 4F535F46 		.ascii	"OS_FN_LED_OPEN\000"
 9567      4E5F4C45 
 9567      445F4F50 
 9567      454E00
 9568              	.LASF34:
 9569 1100 4F535F46 		.ascii	"OS_FN_RTC_GET\000"
 9569      4E5F5254 
 9569      435F4745 
 9569      5400
 9570              	.LASF401:
 9571 110e 4F535F46 		.ascii	"OS_FN_WIFI_CONTROL\000"
 9571      4E5F5749 
 9571      46495F43 
 9571      4F4E5452 
 9571      4F4C00
 9572              	.LASF706:
 9573 1121 5072696E 		.ascii	"PrintCTLKeyInfo\000"
 9573      7443544C 
 9573      4B657949 
 9573      6E666F00 
 9574              	.LASF153:
 9575 1131 4F535F46 		.ascii	"OS_FN_LED_CLEAR\000"
 9575      4E5F4C45 
 9575      445F434C 
 9575      45415200 
 9576              	.LASF445:
 9577 1141 4F535F46 		.ascii	"OS_FN_DTIMER_LATCH_STOP\000"
 9577      4E5F4454 
 9577      494D4552 
 9577      5F4C4154 
 9577      43485F53 
 9578              	.LASF354:
 9579 1159 4F535F46 		.ascii	"OS_FN_BUS_START\000"
 9579      4E5F4255 
 9579      535F5354 
 9579      41525400 
 9580              	.LASF99:
 9581 1169 4F535F46 		.ascii	"OS_FN_MD5_FINISH\000"
 9581      4E5F4D44 
 9581      355F4649 
 9581      4E495348 
 9581      00
 9582              	.LASF590:
 9583 117a 55534246 		.ascii	"USBFPRT_GENERAL_INFO_MODEL\000"
 9583      5052545F 
 9583      47454E45 
 9583      52414C5F 
 9583      494E464F 
 9584              	.LASF416:
 9585 1195 4F535F46 		.ascii	"OS_FN_GPS_ON\000"
 9585      4E5F4750 
 9585      535F4F4E 
 9585      00
ARM GAS  C:\Users\AHMED~1.ELE\AppData\Local\Temp\ccWMHy5f.s 			page 200


 9586              	.LASF88:
 9587 11a2 4F535F46 		.ascii	"OS_FN_COM_DES2\000"
 9587      4E5F434F 
 9587      4D5F4445 
 9587      533200
 9588              	.LASF317:
 9589 11b1 4F535F46 		.ascii	"OS_FN_CODEC_PLAY_RAM\000"
 9589      4E5F434F 
 9589      4445435F 
 9589      504C4159 
 9589      5F52414D 
 9590              	.LASF281:
 9591 11c6 4F535F46 		.ascii	"OS_FN_MCOM_STATUS\000"
 9591      4E5F4D43 
 9591      4F4D5F53 
 9591      54415455 
 9591      5300
 9592              	.LASF580:
 9593 11d8 4B5F4346 		.ascii	"K_CF_MIF_CFG\000"
 9593      5F4D4946 
 9593      5F434647 
 9593      00
 9594              	.LASF534:
 9595 11e5 4B5F4346 		.ascii	"K_CF_LcdBOffset\000"
 9595      5F4C6364 
 9595      424F6666 
 9595      73657400 
 9596              	.LASF53:
 9597 11f5 4F535F46 		.ascii	"OS_FN_DISP_ICON_TEXTC\000"
 9597      4E5F4449 
 9597      53505F49 
 9597      434F4E5F 
 9597      54455854 
 9598              	.LASF429:
 9599 120b 4F535F46 		.ascii	"OS_FN_POWER_SLEEP\000"
 9599      4E5F504F 
 9599      5745525F 
 9599      534C4545 
 9599      5000
 9600              	.LASF167:
 9601 121d 4F535F46 		.ascii	"OS_FN_FILE_CREATE\000"
 9601      4E5F4649 
 9601      4C455F43 
 9601      52454154 
 9601      4500
 9602              	.LASF239:
 9603 122f 4F535F46 		.ascii	"OS_FN_LPT_OPEN\000"
 9603      4E5F4C50 
 9603      545F4F50 
 9603      454E00
 9604              	.LASF241:
 9605 123e 4F535F46 		.ascii	"OS_FN_LPT_PUTC\000"
 9605      4E5F4C50 
 9605      545F5055 
 9605      544300
 9606              	.LASF231:
 9607 124d 4F535F46 		.ascii	"OS_FN_LAN_SEND\000"
ARM GAS  C:\Users\AHMED~1.ELE\AppData\Local\Temp\ccWMHy5f.s 			page 201


 9607      4E5F4C41 
 9607      4E5F5345 
 9607      4E4400
 9608              	.LASF547:
 9609 125c 4B5F4346 		.ascii	"K_CF_BattStatData\000"
 9609      5F426174 
 9609      74537461 
 9609      74446174 
 9609      6100
 9610              	.LASF451:
 9611 126e 4F535F46 		.ascii	"OS_FN_FPRT_SCAN_IMG\000"
 9611      4E5F4650 
 9611      52545F53 
 9611      43414E5F 
 9611      494D4700 
 9612              	.LASF309:
 9613 1282 4F535F46 		.ascii	"OS_FN_TPAD_DEL_OBJ\000"
 9613      4E5F5450 
 9613      41445F44 
 9613      454C5F4F 
 9613      424A00
 9614              	.LASF605:
 9615 1295 46535953 		.ascii	"FSYSINITMW\000"
 9615      494E4954 
 9615      4D5700
 9616              	.LASF602:
 9617 12a0 494F4354 		.ascii	"IOCTLMW\000"
 9617      4C4D5700 
 9618              	.LASF395:
 9619 12a8 4F535F46 		.ascii	"OS_FN_BARCODE_CMD\000"
 9619      4E5F4241 
 9619      52434F44 
 9619      455F434D 
 9619      4400
 9620              	.LASF244:
 9621 12ba 4F535F46 		.ascii	"OS_FN_USBSER_OPEN\000"
 9621      4E5F5553 
 9621      42534552 
 9621      5F4F5045 
 9621      4E00
 9622              	.LASF433:
 9623 12cc 4F535F46 		.ascii	"OS_FN_RDLL_APP\000"
 9623      4E5F5244 
 9623      4C4C5F41 
 9623      505000
 9624              	.LASF174:
 9625 12db 4F535F46 		.ascii	"OS_FN_FILE_READ\000"
 9625      4E5F4649 
 9625      4C455F52 
 9625      45414400 
 9626              	.LASF733:
 9627 12eb 69446E6C 		.ascii	"iDnloadFile\000"
 9627      6F616446 
 9627      696C6500 
 9628              	.LASF544:
 9629 12f7 4B5F4346 		.ascii	"K_CF_TcpHostEnable\000"
 9629      5F546370 
ARM GAS  C:\Users\AHMED~1.ELE\AppData\Local\Temp\ccWMHy5f.s 			page 202


 9629      486F7374 
 9629      456E6162 
 9629      6C6500
 9630              	.LASF506:
 9631 130a 4B5F4346 		.ascii	"K_CF_TCPPort\000"
 9631      5F544350 
 9631      506F7274 
 9631      00
 9632              	.LASF626:
 9633 1317 4C4C5345 		.ascii	"LLSEEKMW\000"
 9633      454B4D57 
 9633      00
 9634              	.LASF323:
 9635 1320 4F535F46 		.ascii	"OS_FN_CLICC_CLOSE\000"
 9635      4E5F434C 
 9635      4943435F 
 9635      434C4F53 
 9635      4500
 9636              	.LASF336:
 9637 1332 4F535F46 		.ascii	"OS_FN_USBHOST_STATUS\000"
 9637      4E5F5553 
 9637      42484F53 
 9637      545F5354 
 9637      41545553 
 9638              	.LASF552:
 9639 1347 4B5F4346 		.ascii	"K_CF_ReqSettleMsg\000"
 9639      5F526571 
 9639      53657474 
 9639      6C654D73 
 9639      6700
 9640              	.LASF480:
 9641 1359 4F535F46 		.ascii	"OS_FN_DISP_PUTS_ANYWHERE\000"
 9641      4E5F4449 
 9641      53505F50 
 9641      5554535F 
 9641      414E5957 
 9642              	.LASF758:
 9643 1372 73797374 		.ascii	"system_call_list\000"
 9643      656D5F63 
 9643      616C6C5F 
 9643      6C697374 
 9643      00
 9644              	.LASF644:
 9645 1383 4652454E 		.ascii	"FRENAMEMW\000"
 9645      414D454D 
 9645      5700
 9646              	.LASF759:
 9647 138d 494E464F 		.ascii	"INFO_DATA\000"
 9647      5F444154 
 9647      4100
 9648              	.LASF225:
 9649 1397 4F535F46 		.ascii	"OS_FN_SLE_IO\000"
 9649      4E5F534C 
 9649      455F494F 
 9649      00
 9650              	.LASF551:
 9651 13a4 4B5F4346 		.ascii	"K_CF_Settled\000"
ARM GAS  C:\Users\AHMED~1.ELE\AppData\Local\Temp\ccWMHy5f.s 			page 203


 9651      5F536574 
 9651      746C6564 
 9651      00
 9652              	.LASF271:
 9653 13b1 4F535F46 		.ascii	"OS_FN_MDM_CID\000"
 9653      4E5F4D44 
 9653      4D5F4349 
 9653      4400
 9654              	.LASF663:
 9655 13bf 4D41585F 		.ascii	"MAX_TIMER_SUPPORT\000"
 9655      54494D45 
 9655      525F5355 
 9655      50504F52 
 9655      5400
 9656              	.LASF277:
 9657 13d1 4F535F46 		.ascii	"OS_FN_MCOM_RXRDY\000"
 9657      4E5F4D43 
 9657      4F4D5F52 
 9657      58524459 
 9657      00
 9658              	.LASF240:
 9659 13e2 4F535F46 		.ascii	"OS_FN_LPT_CLOSE\000"
 9659      4E5F4C50 
 9659      545F434C 
 9659      4F534500 
 9660              	.LASF673:
 9661 13f2 61625441 		.ascii	"abTACOnline\000"
 9661      434F6E6C 
 9661      696E6500 
 9662              	.LASF747:
 9663 13fe 5061636B 		.ascii	"PackInfoData\000"
 9663      496E666F 
 9663      44617461 
 9663      00
 9664              	.LASF122:
 9665 140b 4F535F46 		.ascii	"OS_FN_KEY_RSA\000"
 9665      4E5F4B45 
 9665      595F5253 
 9665      4100
 9666              	.LASF205:
 9667 1419 4F535F46 		.ascii	"OS_FN_SAM_CLOSE\000"
 9667      4E5F5341 
 9667      4D5F434C 
 9667      4F534500 
 9668              	.LASF86:
 9669 1429 4F535F46 		.ascii	"OS_FN_COM_DESKEY\000"
 9669      4E5F434F 
 9669      4D5F4445 
 9669      534B4559 
 9669      00
 9670              	.LASF504:
 9671 143a 4B5F4346 		.ascii	"K_CF_DNS2\000"
 9671      5F444E53 
 9671      3200
 9672              	.LASF293:
 9673 1444 4F535F46 		.ascii	"OS_FN_GPRS_AT_CMD\000"
 9673      4E5F4750 
ARM GAS  C:\Users\AHMED~1.ELE\AppData\Local\Temp\ccWMHy5f.s 			page 204


 9673      52535F41 
 9673      545F434D 
 9673      4400
 9674              	.LASF481:
 9675 1456 4F535F46 		.ascii	"OS_FN_BATT_CHARGE_NOW\000"
 9675      4E5F4241 
 9675      54545F43 
 9675      48415247 
 9675      455F4E4F 
 9676              	.LASF197:
 9677 146c 4F535F46 		.ascii	"OS_FN_FILE_GET_LONGNAME\000"
 9677      4E5F4649 
 9677      4C455F47 
 9677      45545F4C 
 9677      4F4E474E 
 9678              	.LASF372:
 9679 1484 4F535F46 		.ascii	"OS_FN_MIF_HALT\000"
 9679      4E5F4D49 
 9679      465F4841 
 9679      4C5400
 9680              	.LASF265:
 9681 1493 4F535F46 		.ascii	"OS_FN_FL_CREAD_END\000"
 9681      4E5F464C 
 9681      5F435245 
 9681      41445F45 
 9681      4E4400
 9682              	.LASF238:
 9683 14a6 4F535F46 		.ascii	"OS_FN_MSR_STATUS\000"
 9683      4E5F4D53 
 9683      525F5354 
 9683      41545553 
 9683      00
 9684              	.LASF393:
 9685 14b7 4F535F46 		.ascii	"OS_FN_BARCODE_OPEN\000"
 9685      4E5F4241 
 9685      52434F44 
 9685      455F4F50 
 9685      454E00
 9686              	.LASF471:
 9687 14ca 4F535F46 		.ascii	"OS_FN_WIFI_SOCKET_LISTEN\000"
 9687      4E5F5749 
 9687      46495F53 
 9687      4F434B45 
 9687      545F4C49 
 9688              	.LASF247:
 9689 14e3 4F535F46 		.ascii	"OS_FN_USBSER_WRITE\000"
 9689      4E5F5553 
 9689      42534552 
 9689      5F575249 
 9689      544500
 9690              	.LASF371:
 9691 14f6 4F535F46 		.ascii	"OS_FN_MIF_CANCEL\000"
 9691      4E5F4D49 
 9691      465F4341 
 9691      4E43454C 
 9691      00
 9692              	.LASF6:
ARM GAS  C:\Users\AHMED~1.ELE\AppData\Local\Temp\ccWMHy5f.s 			page 205


 9693 1507 6C6F6E67 		.ascii	"long unsigned int\000"
 9693      20756E73 
 9693      69676E65 
 9693      6420696E 
 9693      7400
 9694              	.LASF48:
 9695 1519 4F535F46 		.ascii	"OS_FN_DISP_BACKC\000"
 9695      4E5F4449 
 9695      53505F42 
 9695      41434B43 
 9695      00
 9696              	.LASF44:
 9697 152a 4F535F46 		.ascii	"OS_FN_DISP_GETP\000"
 9697      4E5F4449 
 9697      53505F47 
 9697      45545000 
 9698              	.LASF424:
 9699 153a 4F535F46 		.ascii	"OS_FN_BREG_READ\000"
 9699      4E5F4252 
 9699      45475F52 
 9699      45414400 
 9700              	.LASF302:
 9701 154a 4F535F46 		.ascii	"OS_FN_GPRS_SMS_ACK\000"
 9701      4E5F4750 
 9701      52535F53 
 9701      4D535F41 
 9701      434B00
 9702              	.LASF17:
 9703 155d 4F535F46 		.ascii	"OS_FN_RAND\000"
 9703      4E5F5241 
 9703      4E4400
 9704              	.LASF234:
 9705 1568 4F535F46 		.ascii	"OS_FN_MSR_CLOSE\000"
 9705      4E5F4D53 
 9705      525F434C 
 9705      4F534500 
 9706              	.LASF743:
 9707 1578 73747263 		.ascii	"strcpy\000"
 9707      707900
 9708              	.LASF620:
 9709 157f 4445534D 		.ascii	"DESMW\000"
 9709      5700
 9710              	.LASF403:
 9711 1585 4F535F46 		.ascii	"OS_FN_WIFI_RECV_RESPONSE\000"
 9711      4E5F5749 
 9711      46495F52 
 9711      4543565F 
 9711      52455350 
 9712              	.LASF230:
 9713 159e 4F535F46 		.ascii	"OS_FN_LAN_READ\000"
 9713      4E5F4C41 
 9713      4E5F5245 
 9713      414400
 9714              	.LASF507:
 9715 15ad 4B5F4346 		.ascii	"K_CF_DHCPEnable\000"
 9715      5F444843 
 9715      50456E61 
ARM GAS  C:\Users\AHMED~1.ELE\AppData\Local\Temp\ccWMHy5f.s 			page 206


 9715      626C6500 
 9716              	.LASF490:
 9717 15bd 4B5F4346 		.ascii	"K_CF_DebugMode\000"
 9717      5F446562 
 9717      75674D6F 
 9717      646500
 9718              	.LASF595:
 9719 15cc 53544152 		.ascii	"STARTUPMW\000"
 9719      5455504D 
 9719      5700
 9720              	.LASF755:
 9721 15d6 474E5520 		.ascii	"GNU C 4.9.3 20141119 (release) [ARM/embedded-4_9-br"
 9721      4320342E 
 9721      392E3320 
 9721      32303134 
 9721      31313139 
 9722 1609 616E6368 		.ascii	"anch revision 218278] -mthumb -mcpu=cortex-a5 -mthu"
 9722      20726576 
 9722      6973696F 
 9722      6E203231 
 9722      38323738 
 9723 163c 6D622D69 		.ascii	"mb-interwork -mstructure-size-boundary=32 -mno-unal"
 9723      6E746572 
 9723      776F726B 
 9723      202D6D73 
 9723      74727563 
 9724 166f 69676E65 		.ascii	"igned-access -g -Os -ffunction-sections -fsigned-ch"
 9724      642D6163 
 9724      63657373 
 9724      202D6720 
 9724      2D4F7320 
 9725 16a2 617200   		.ascii	"ar\000"
 9726              	.LASF462:
 9727 16a5 4F535F46 		.ascii	"OS_FN_GCM_AES_CLOSE\000"
 9727      4E5F4743 
 9727      4D5F4145 
 9727      535F434C 
 9727      4F534500 
 9728              	.LASF267:
 9729 16b9 4F535F46 		.ascii	"OS_FN_MDM_OPEN\000"
 9729      4E5F4D44 
 9729      4D5F4F50 
 9729      454E00
 9730              	.LASF273:
 9731 16c8 4F535F46 		.ascii	"OS_FN_MDM_LAST_CONN_STAT\000"
 9731      4E5F4D44 
 9731      4D5F4C41 
 9731      53545F43 
 9731      4F4E4E5F 
 9732              	.LASF428:
 9733 16e1 4F535F46 		.ascii	"OS_FN_SLEEP\000"
 9733      4E5F534C 
 9733      45455000 
 9734              	.LASF642:
 9735 16ed 534D535F 		.ascii	"SMS_COUNT_MW\000"
 9735      434F554E 
 9735      545F4D57 
ARM GAS  C:\Users\AHMED~1.ELE\AppData\Local\Temp\ccWMHy5f.s 			page 207


 9735      00
 9736              	.LASF242:
 9737 16fa 4F535F46 		.ascii	"OS_FN_LPT_PUTDW\000"
 9737      4E5F4C50 
 9737      545F5055 
 9737      54445700 
 9738              	.LASF24:
 9739 170a 4F535F46 		.ascii	"OS_FN_KBD_LOCK\000"
 9739      4E5F4B42 
 9739      445F4C4F 
 9739      434B00
 9740              	.LASF476:
 9741 1719 4F535F46 		.ascii	"OS_FN_GPRS_IS_HL6RD\000"
 9741      4E5F4750 
 9741      52535F49 
 9741      535F484C 
 9741      36524400 
 9742              	.LASF538:
 9743 172d 4B5F4346 		.ascii	"K_CF_SysRdllInf\000"
 9743      5F537973 
 9743      52646C6C 
 9743      496E6600 
 9744              	.LASF152:
 9745 173d 4F535F46 		.ascii	"OS_FN_LED_SET\000"
 9745      4E5F4C45 
 9745      445F5345 
 9745      5400
 9746              	.LASF610:
 9747 174b 464C454E 		.ascii	"FLENGTHMW\000"
 9747      4754484D 
 9747      5700
 9748              	.LASF575:
 9749 1755 4B5F4346 		.ascii	"K_CF_WIFI_IP_MASK\000"
 9749      5F574946 
 9749      495F4950 
 9749      5F4D4153 
 9749      4B00
 9750              	.LASF748:
 9751 1767 73707269 		.ascii	"sprintf\000"
 9751      6E746600 
 9752              	.LASF661:
 9753 176f 54494D45 		.ascii	"TIMER_WIFI\000"
 9753      525F5749 
 9753      464900
 9754              	.LASF455:
 9755 177a 4F535F46 		.ascii	"OS_FN_ECC_PUBKEY_VERIFY\000"
 9755      4E5F4543 
 9755      435F5055 
 9755      424B4559 
 9755      5F564552 
 9756              	.LASF364:
 9757 1792 4F535F46 		.ascii	"OS_FN_USBKBD_INKEY\000"
 9757      4E5F5553 
 9757      424B4244 
 9757      5F494E4B 
 9757      455900
 9758              	.LASF68:
ARM GAS  C:\Users\AHMED~1.ELE\AppData\Local\Temp\ccWMHy5f.s 			page 208


 9759 17a5 4F535F46 		.ascii	"OS_FN_COM2_TXRDY\000"
 9759      4E5F434F 
 9759      4D325F54 
 9759      58524459 
 9759      00
 9760              	.LASF140:
 9761 17b6 4F535F46 		.ascii	"OS_FN_THREAD_LOCK\000"
 9761      4E5F5448 
 9761      52454144 
 9761      5F4C4F43 
 9761      4B00
 9762              	.LASF557:
 9763 17c8 4B5F4346 		.ascii	"K_CF_MirrorApp\000"
 9763      5F4D6972 
 9763      726F7241 
 9763      707000
 9764              	.LASF705:
 9765 17d7 5072696E 		.ascii	"PrintCTLAppCfg\000"
 9765      7443544C 
 9765      41707043 
 9765      666700
 9766              	.LASF355:
 9767 17e6 4F535F46 		.ascii	"OS_FN_BUS_STOP\000"
 9767      4E5F4255 
 9767      535F5354 
 9767      4F5000
 9768              	.LASF513:
 9769 17f5 4B5F4346 		.ascii	"K_CF_TamperPsw\000"
 9769      5F54616D 
 9769      70657250 
 9769      737700
 9770              	.LASF561:
 9771 1804 4B5F4346 		.ascii	"K_CF_MdmDTMFPwr\000"
 9771      5F4D646D 
 9771      44544D46 
 9771      50777200 
 9772              	.LASF554:
 9773 1814 4B5F4346 		.ascii	"K_CF_UserSignKeyLimit\000"
 9773      5F557365 
 9773      72536967 
 9773      6E4B6579 
 9773      4C696D69 
 9774              	.LASF500:
 9775 182a 4B5F4346 		.ascii	"K_CF_SnPrefix\000"
 9775      5F536E50 
 9775      72656669 
 9775      7800
 9776              	.LASF573:
 9777 1838 4B5F4346 		.ascii	"K_CF_WIFI_IP_CONFIG\000"
 9777      5F574946 
 9777      495F4950 
 9777      5F434F4E 
 9777      46494700 
 9778              	.LASF301:
 9779 184c 4F535F46 		.ascii	"OS_FN_GPRS_SMS_DECODE\000"
 9779      4E5F4750 
 9779      52535F53 
ARM GAS  C:\Users\AHMED~1.ELE\AppData\Local\Temp\ccWMHy5f.s 			page 209


 9779      4D535F44 
 9779      45434F44 
 9780              	.LASF279:
 9781 1862 4F535F46 		.ascii	"OS_FN_MCOM_SREAD\000"
 9781      4E5F4D43 
 9781      4F4D5F53 
 9781      52454144 
 9781      00
 9782              	.LASF128:
 9783 1873 4F535F46 		.ascii	"OS_FN_KEY_HASH\000"
 9783      4E5F4B45 
 9783      595F4841 
 9783      534800
 9784              	.LASF190:
 9785 1882 4F535F46 		.ascii	"OS_FN_FILE_FREESPACE\000"
 9785      4E5F4649 
 9785      4C455F46 
 9785      52454553 
 9785      50414345 
 9786              	.LASF210:
 9787 1897 4F535F46 		.ascii	"OS_FN_SAM_T1\000"
 9787      4E5F5341 
 9787      4D5F5431 
 9787      00
 9788              	.LASF194:
 9789 18a4 4F535F46 		.ascii	"OS_FN_FILE_READDIR\000"
 9789      4E5F4649 
 9789      4C455F52 
 9789      45414444 
 9789      495200
 9790              	.LASF32:
 9791 18b7 4F535F46 		.ascii	"OS_FN_BUZ_BEEP\000"
 9791      4E5F4255 
 9791      5A5F4245 
 9791      455000
 9792              	.LASF440:
 9793 18c6 4F535F46 		.ascii	"OS_FN_APPCALL_RETURN\000"
 9793      4E5F4150 
 9793      5043414C 
 9793      4C5F5245 
 9793      5455524E 
 9794              	.LASF120:
 9795 18db 4F535F46 		.ascii	"OS_FN_KEY_SAVE_TMK\000"
 9795      4E5F4B45 
 9795      595F5341 
 9795      56455F54 
 9795      4D4B00
 9796              	.LASF493:
 9797 18ee 4B5F4346 		.ascii	"K_CF_AppKekKvc\000"
 9797      5F417070 
 9797      4B656B4B 
 9797      766300
 9798              	.LASF520:
 9799 18fd 4B5F4346 		.ascii	"K_CF_LcdBrightness\000"
 9799      5F4C6364 
 9799      42726967 
 9799      68746E65 
ARM GAS  C:\Users\AHMED~1.ELE\AppData\Local\Temp\ccWMHy5f.s 			page 210


 9799      737300
 9800              	.LASF617:
 9801 1910 47455443 		.ascii	"GETCHARMW\000"
 9801      4841524D 
 9801      5700
 9802              	.LASF18:
 9803 191a 4F535F46 		.ascii	"OS_FN_RAND_UPDATE\000"
 9803      4E5F5241 
 9803      4E445F55 
 9803      50444154 
 9803      4500
 9804              	.LASF405:
 9805 192c 4F535F46 		.ascii	"OS_FN_WIFI_PROFILES_READ\000"
 9805      4E5F5749 
 9805      46495F50 
 9805      524F4649 
 9805      4C45535F 
 9806              	.LASF168:
 9807 1945 4F535F46 		.ascii	"OS_FN_FILE_CLOSE\000"
 9807      4E5F4649 
 9807      4C455F43 
 9807      4C4F5345 
 9807      00
 9808              	.LASF164:
 9809 1956 4F535F46 		.ascii	"OS_FN_FREE\000"
 9809      4E5F4652 
 9809      454500
 9810              	.LASF509:
 9811 1961 4B5F4346 		.ascii	"K_CF_Tampered\000"
 9811      5F54616D 
 9811      70657265 
 9811      6400
 9812              	.LASF710:
 9813 196f 43544C4B 		.ascii	"CTLKillDnloadBuf\000"
 9813      696C6C44 
 9813      6E6C6F61 
 9813      64427566 
 9813      00
 9814              	.LASF629:
 9815 1980 44495350 		.ascii	"DISP_CLRLINEMW\000"
 9815      5F434C52 
 9815      4C494E45 
 9815      4D5700
 9816              	.LASF754:
 9817 198f 5072696E 		.ascii	"PrintBuf\000"
 9817      74427566 
 9817      00
 9818              	.LASF7:
 9819 1998 6C6F6E67 		.ascii	"long long int\000"
 9819      206C6F6E 
 9819      6720696E 
 9819      7400
 9820              	.LASF37:
 9821 19a6 4F535F46 		.ascii	"OS_FN_DISP_CLOSE\000"
 9821      4E5F4449 
 9821      53505F43 
 9821      4C4F5345 
ARM GAS  C:\Users\AHMED~1.ELE\AppData\Local\Temp\ccWMHy5f.s 			page 211


 9821      00
 9822              	.LASF581:
 9823 19b7 4B5F4346 		.ascii	"K_CF_NFC_CFG\000"
 9823      5F4E4643 
 9823      5F434647 
 9823      00
 9824              	.LASF619:
 9825 19c4 4445534B 		.ascii	"DESKEYMW\000"
 9825      45594D57 
 9825      00
 9826              	.LASF360:
 9827 19cd 4F535F46 		.ascii	"OS_FN_NETDEV_EVENT\000"
 9827      4E5F4E45 
 9827      54444556 
 9827      5F455645 
 9827      4E5400
 9828              	.LASF71:
 9829 19e0 4F535F46 		.ascii	"OS_FN_COM2_STATUS\000"
 9829      4E5F434F 
 9829      4D325F53 
 9829      54415455 
 9829      5300
 9830              	.LASF574:
 9831 19f2 4B5F4346 		.ascii	"K_CF_WIFI_IP_ADDR\000"
 9831      5F574946 
 9831      495F4950 
 9831      5F414444 
 9831      5200
 9832              	.LASF366:
 9833 1a04 4F535F46 		.ascii	"OS_FN_TAMPER_ON\000"
 9833      4E5F5441 
 9833      4D504552 
 9833      5F4F4E00 
 9834              	.LASF762:
 9835 1a14 5F5F6275 		.ascii	"__builtin_strcpy\000"
 9835      696C7469 
 9835      6E5F7374 
 9835      72637079 
 9835      00
 9836              	.LASF653:
 9837 1a25 41504D5F 		.ascii	"APM_SDEV_CDC\000"
 9837      53444556 
 9837      5F434443 
 9837      00
 9838              	.LASF607:
 9839 1a32 4644454C 		.ascii	"FDELETEMW\000"
 9839      4554454D 
 9839      5700
 9840              	.LASF297:
 9841 1a3c 4F535F46 		.ascii	"OS_FN_GPRS_RESET\000"
 9841      4E5F4750 
 9841      52535F52 
 9841      45534554 
 9841      00
 9842              	.LASF586:
 9843 1a4d 4B5F4346 		.ascii	"K_CF_WIFI_DEFAULT_AP\000"
 9843      5F574946 
ARM GAS  C:\Users\AHMED~1.ELE\AppData\Local\Temp\ccWMHy5f.s 			page 212


 9843      495F4445 
 9843      4641554C 
 9843      545F4150 
 9844              	.LASF394:
 9845 1a62 4F535F46 		.ascii	"OS_FN_BARCODE_CLOSE\000"
 9845      4E5F4241 
 9845      52434F44 
 9845      455F434C 
 9845      4F534500 
 9846              	.LASF112:
 9847 1a76 4F535F46 		.ascii	"OS_FN_SM2_DECRYPT\000"
 9847      4E5F534D 
 9847      325F4445 
 9847      43525950 
 9847      5400
 9848              	.LASF708:
 9849 1a88 53657443 		.ascii	"SetCTLLoaded\000"
 9849      544C4C6F 
 9849      61646564 
 9849      00
 9850              	.LASF259:
 9851 1a95 4F535F46 		.ascii	"OS_FN_FL_ERASE_END\000"
 9851      4E5F464C 
 9851      5F455241 
 9851      53455F45 
 9851      4E4400
 9852              	.LASF295:
 9853 1aa8 4F535F46 		.ascii	"OS_FN_GPRS_SEND\000"
 9853      4E5F4750 
 9853      52535F53 
 9853      454E4400 
 9854              	.LASF243:
 9855 1ab8 4F535F46 		.ascii	"OS_FN_LPT_STATUS\000"
 9855      4E5F4C50 
 9855      545F5354 
 9855      41545553 
 9855      00
 9856              	.LASF51:
 9857 1ac9 4F535F46 		.ascii	"OS_FN_DISP_ICON_COLOR\000"
 9857      4E5F4449 
 9857      53505F49 
 9857      434F4E5F 
 9857      434F4C4F 
 9858              	.LASF592:
 9859 1adf 55534246 		.ascii	"USBFPRT_GENERAL_INFO_IMG_HEIGHT\000"
 9859      5052545F 
 9859      47454E45 
 9859      52414C5F 
 9859      494E464F 
 9860              	.LASF685:
 9861 1aff 434C5846 		.ascii	"CLXF_CL_WAITCARD\000"
 9861      5F434C5F 
 9861      57414954 
 9861      43415244 
 9861      00
 9862              	.LASF157:
 9863 1b10 4F535F46 		.ascii	"OS_FN_APP_SEARCH_ID\000"
ARM GAS  C:\Users\AHMED~1.ELE\AppData\Local\Temp\ccWMHy5f.s 			page 213


 9863      4E5F4150 
 9863      505F5345 
 9863      41524348 
 9863      5F494400 
 9864              	.LASF349:
 9865 1b24 4F535F46 		.ascii	"OS_FN_DEVICE_OPEN\000"
 9865      4E5F4445 
 9865      56494345 
 9865      5F4F5045 
 9865      4E00
 9866              	.LASF55:
 9867 1b36 4F535F46 		.ascii	"OS_FN_DISP_OVERLAY\000"
 9867      4E5F4449 
 9867      53505F4F 
 9867      5645524C 
 9867      415900
 9868              	.LASF313:
 9869 1b49 4F535F46 		.ascii	"OS_FN_TPAD_RAW_POS\000"
 9869      4E5F5450 
 9869      41445F52 
 9869      41575F50 
 9869      4F5300
 9870              	.LASF518:
 9871 1b5c 4B5F4346 		.ascii	"K_CF_BattChgMode\000"
 9871      5F426174 
 9871      74436867 
 9871      4D6F6465 
 9871      00
 9872              	.LASF654:
 9873 1b6d 41504D5F 		.ascii	"APM_SDEV_MDM\000"
 9873      53444556 
 9873      5F4D444D 
 9873      00
 9874              	.LASF652:
 9875 1b7a 41504D5F 		.ascii	"APM_SDEV_PPP\000"
 9875      53444556 
 9875      5F505050 
 9875      00
 9876              	.LASF83:
 9877 1b87 4F535F46 		.ascii	"OS_FN_DESKEY\000"
 9877      4E5F4445 
 9877      534B4559 
 9877      00
 9878              	.LASF58:
 9879 1b94 4F535F46 		.ascii	"OS_FN_COM1_RXRDY\000"
 9879      4E5F434F 
 9879      4D315F52 
 9879      58524459 
 9879      00
 9880              	.LASF246:
 9881 1ba5 4F535F46 		.ascii	"OS_FN_USBSER_READ\000"
 9881      4E5F5553 
 9881      42534552 
 9881      5F524541 
 9881      4400
 9882              	.LASF98:
 9883 1bb7 4F535F46 		.ascii	"OS_FN_MD5_PROCESS\000"
ARM GAS  C:\Users\AHMED~1.ELE\AppData\Local\Temp\ccWMHy5f.s 			page 214


 9883      4E5F4D44 
 9883      355F5052 
 9883      4F434553 
 9883      5300
 9884              	.LASF703:
 9885 1bc9 614B6579 		.ascii	"aKeyInfo\000"
 9885      496E666F 
 9885      00
 9886              	.LASF377:
 9887 1bd2 4F535F46 		.ascii	"OS_FN_MIF_SELECT\000"
 9887      4E5F4D49 
 9887      465F5345 
 9887      4C454354 
 9887      00
 9888              	.LASF601:
 9889 1be3 4C534545 		.ascii	"LSEEKMW\000"
 9889      4B4D5700 
 9890              	.LASF672:
 9891 1beb 61625441 		.ascii	"abTACDenial\000"
 9891      4344656E 
 9891      69616C00 
 9892              	.LASF697:
 9893 1bf7 705F6D65 		.ascii	"p_mem\000"
 9893      6D00
 9894              	.LASF569:
 9895 1bfd 4B5F4346 		.ascii	"K_CF_SysRebootEnable\000"
 9895      5F537973 
 9895      5265626F 
 9895      6F74456E 
 9895      61626C65 
 9896              	.LASF59:
 9897 1c12 4F535F46 		.ascii	"OS_FN_COM1_TXRDY\000"
 9897      4E5F434F 
 9897      4D315F54 
 9897      58524459 
 9897      00
 9898              	.LASF170:
 9899 1c23 4F535F46 		.ascii	"OS_FN_FILE_RENAME\000"
 9899      4E5F4649 
 9899      4C455F52 
 9899      454E414D 
 9899      4500
 9900              	.LASF450:
 9901 1c35 4F535F46 		.ascii	"OS_FN_FPRT_CLOSE\000"
 9901      4E5F4650 
 9901      52545F43 
 9901      4C4F5345 
 9901      00
 9902              	.LASF679:
 9903 1c46 77457870 		.ascii	"wExpiryMMYY\000"
 9903      6972794D 
 9903      4D595900 
 9904              	.LASF125:
 9905 1c52 4F535F46 		.ascii	"OS_FN_KEY_DUKPT_MAC_CAL\000"
 9905      4E5F4B45 
 9905      595F4455 
 9905      4B50545F 
ARM GAS  C:\Users\AHMED~1.ELE\AppData\Local\Temp\ccWMHy5f.s 			page 215


 9905      4D41435F 
 9906              	.LASF352:
 9907 1c6a 4F535F46 		.ascii	"OS_FN_INTERRUPT_REGISTER\000"
 9907      4E5F494E 
 9907      54455252 
 9907      5550545F 
 9907      52454749 
 9908              	.LASF211:
 9909 1c83 4F535F46 		.ascii	"OS_FN_SAM_CHANGE\000"
 9909      4E5F5341 
 9909      4D5F4348 
 9909      414E4745 
 9909      00
 9910              	.LASF184:
 9911 1c94 4F535F46 		.ascii	"OS_FN_FILE_ACTIVATE\000"
 9911      4E5F4649 
 9911      4C455F41 
 9911      43544956 
 9911      41544500 
 9912              	.LASF45:
 9913 1ca8 4F535F46 		.ascii	"OS_FN_DISP_LENGTH\000"
 9913      4E5F4449 
 9913      53505F4C 
 9913      454E4754 
 9913      4800
 9914              	.LASF643:
 9915 1cba 534D535F 		.ascii	"SMS_CLEAR_ALL_MW\000"
 9915      434C4541 
 9915      525F414C 
 9915      4C5F4D57 
 9915      00
 9916              	.LASF452:
 9917 1ccb 4F535F46 		.ascii	"OS_FN_FPRT_INFO_SET\000"
 9917      4E5F4650 
 9917      52545F49 
 9917      4E464F5F 
 9917      53455400 
 9918              	.LASF523:
 9919 1cdf 4B5F4346 		.ascii	"K_CF_IncomingCall\000"
 9919      5F496E63 
 9919      6F6D696E 
 9919      6743616C 
 9919      6C00
 9920              	.LASF0:
 9921 1cf1 756E7369 		.ascii	"unsigned int\000"
 9921      676E6564 
 9921      20696E74 
 9921      00
 9922              	.LASF676:
 9923 1cfe 434C5F43 		.ascii	"CL_CFGP\000"
 9923      46475000 
 9924              	.LASF496:
 9925 1d06 4B5F4346 		.ascii	"K_CF_IP\000"
 9925      5F495000 
 9926              	.LASF738:
 9927 1d0e 7379735F 		.ascii	"sys_func0\000"
 9927      66756E63 
ARM GAS  C:\Users\AHMED~1.ELE\AppData\Local\Temp\ccWMHy5f.s 			page 216


 9927      3000
 9928              	.LASF736:
 9929 1d18 7379735F 		.ascii	"sys_func1\000"
 9929      66756E63 
 9929      3100
 9930              	.LASF742:
 9931 1d22 7379735F 		.ascii	"sys_func2\000"
 9931      66756E63 
 9931      3200
 9932              	.LASF446:
 9933 1d2c 4F535F46 		.ascii	"OS_FN_DTIMER_LATCH_TIME\000"
 9933      4E5F4454 
 9933      494D4552 
 9933      5F4C4154 
 9933      43485F54 
 9934              	.LASF96:
 9935 1d44 4F535F46 		.ascii	"OS_FN_SHA1\000"
 9935      4E5F5348 
 9935      413100
 9936              	.LASF324:
 9937 1d4f 4F535F46 		.ascii	"OS_FN_CLICC_SENDCOMMAND\000"
 9937      4E5F434C 
 9937      4943435F 
 9937      53454E44 
 9937      434F4D4D 
 9938              	.LASF437:
 9939 1d67 4F535F46 		.ascii	"OS_FN_DLL_REQ\000"
 9939      4E5F444C 
 9939      4C5F5245 
 9939      5100
 9940              	.LASF553:
 9941 1d75 4B5F4346 		.ascii	"K_CF_FreqBand\000"
 9941      5F467265 
 9941      7142616E 
 9941      6400
 9942              	.LASF397:
 9943 1d83 4F535F46 		.ascii	"OS_FN_BARCODE_READ\000"
 9943      4E5F4241 
 9943      52434F44 
 9943      455F5245 
 9943      414400
 9944              	.LASF635:
 9945 1d96 44495350 		.ascii	"DISP_PUTGMW\000"
 9945      5F505554 
 9945      474D5700 
 9946              	.LASF474:
 9947 1da2 4F535F46 		.ascii	"OS_FN_IMG_SENSOR_GET_FRAME_COMPLETE\000"
 9947      4E5F494D 
 9947      475F5345 
 9947      4E534F52 
 9947      5F474554 
 9948              	.LASF298:
 9949 1dc6 4F535F46 		.ascii	"OS_FN_GPRS_CONTROL\000"
 9949      4E5F4750 
 9949      52535F43 
 9949      4F4E5452 
 9949      4F4C00
ARM GAS  C:\Users\AHMED~1.ELE\AppData\Local\Temp\ccWMHy5f.s 			page 217


 9950              	.LASF419:
 9951 1dd9 4F535F46 		.ascii	"OS_FN_GPRS_GET_GPS_INFO\000"
 9951      4E5F4750 
 9951      52535F47 
 9951      45545F47 
 9951      50535F49 
 9952              	.LASF127:
 9953 1df1 4F535F46 		.ascii	"OS_FN_KEY_CBC_MAC\000"
 9953      4E5F4B45 
 9953      595F4342 
 9953      435F4D41 
 9953      4300
 9954              	.LASF93:
 9955 1e03 4F535F46 		.ascii	"OS_FN_AES_SETUP_KEY\000"
 9955      4E5F4145 
 9955      535F5345 
 9955      5455505F 
 9955      4B455900 
 9956              	.LASF350:
 9957 1e17 4F535F46 		.ascii	"OS_FN_DEVICE_MOUNT\000"
 9957      4E5F4445 
 9957      56494345 
 9957      5F4D4F55 
 9957      4E5400
 9958              	.LASF89:
 9959 1e2a 4F535F46 		.ascii	"OS_FN_NEW_DES\000"
 9959      4E5F4E45 
 9959      575F4445 
 9959      5300
 9960              	.LASF183:
 9961 1e38 4F535F46 		.ascii	"OS_FN_FILE_DEACTIVATE\000"
 9961      4E5F4649 
 9961      4C455F44 
 9961      45414354 
 9961      49564154 
 9962              	.LASF566:
 9963 1e4e 4B5F4346 		.ascii	"K_CF_AgentLogged\000"
 9963      5F416765 
 9963      6E744C6F 
 9963      67676564 
 9963      00
 9964              	.LASF257:
 9965 1e5f 4F535F46 		.ascii	"OS_FN_FL_PGM_END\000"
 9965      4E5F464C 
 9965      5F50474D 
 9965      5F454E44 
 9965      00
 9966              	.LASF537:
 9967 1e70 4B5F4346 		.ascii	"K_CF_CurRdllInf\000"
 9967      5F437572 
 9967      52646C6C 
 9967      496E6600 
 9968              	.LASF264:
 9969 1e80 4F535F46 		.ascii	"OS_FN_FL_CREAD\000"
 9969      4E5F464C 
 9969      5F435245 
 9969      414400
ARM GAS  C:\Users\AHMED~1.ELE\AppData\Local\Temp\ccWMHy5f.s 			page 218


 9970              	.LASF637:
 9971 1e8f 4F535F43 		.ascii	"OS_CALL_MW\000"
 9971      414C4C5F 
 9971      4D5700
 9972              	.LASF415:
 9973 1e9a 4F535F46 		.ascii	"OS_FN_NFC_IC_REG_DIRECT_READ\000"
 9973      4E5F4E46 
 9973      435F4943 
 9973      5F524547 
 9973      5F444952 
 9974              	.LASF535:
 9975 1eb7 4B5F4346 		.ascii	"K_CF_Logo\000"
 9975      5F4C6F67 
 9975      6F00
 9976              	.LASF540:
 9977 1ec1 4B5F4346 		.ascii	"K_CF_SensitiveBlock\000"
 9977      5F53656E 
 9977      73697469 
 9977      7665426C 
 9977      6F636B00 
 9978              	.LASF388:
 9979 1ed5 4F535F46 		.ascii	"OS_FN_MIF_SNO\000"
 9979      4E5F4D49 
 9979      465F534E 
 9979      4F00
 9980              	.LASF130:
 9981 1ee3 4F535F46 		.ascii	"OS_FN_KEY_SAVE_TMK_NC\000"
 9981      4E5F4B45 
 9981      595F5341 
 9981      56455F54 
 9981      4D4B5F4E 
 9982              	.LASF251:
 9983 1ef9 4F535F46 		.ascii	"OS_FN_FL_STATUS\000"
 9983      4E5F464C 
 9983      5F535441 
 9983      54555300 
 9984              	.LASF306:
 9985 1f09 4F535F46 		.ascii	"OS_FN_TPAD_OPEN\000"
 9985      4E5F5450 
 9985      41445F4F 
 9985      50454E00 
 9986              	.LASF584:
 9987 1f19 4B5F4346 		.ascii	"K_CF_LogoDeactivate\000"
 9987      5F4C6F67 
 9987      6F446561 
 9987      63746976 
 9987      61746500 
 9988              	.LASF589:
 9989 1f2d 4B5F4346 		.ascii	"K_CF_Max\000"
 9989      5F4D6178 
 9989      00
 9990              	.LASF224:
 9991 1f36 4F535F46 		.ascii	"OS_FN_SLE_HIST\000"
 9991      4E5F534C 
 9991      455F4849 
 9991      535400
 9992              	.LASF425:
ARM GAS  C:\Users\AHMED~1.ELE\AppData\Local\Temp\ccWMHy5f.s 			page 219


 9993 1f45 4F535F46 		.ascii	"OS_FN_BREG_WRITE\000"
 9993      4E5F4252 
 9993      45475F57 
 9993      52495445 
 9993      00
 9994              	.LASF117:
 9995 1f56 4F535F46 		.ascii	"OS_FN_SM4_ENCRYPT\000"
 9995      4E5F534D 
 9995      345F454E 
 9995      43525950 
 9995      5400
 9996              	.LASF216:
 9997 1f68 4F535F46 		.ascii	"OS_FN_MMC_PSTATUS\000"
 9997      4E5F4D4D 
 9997      435F5053 
 9997      54415455 
 9997      5300
 9998              	.LASF430:
 9999 1f7a 4F535F46 		.ascii	"OS_FN_RESET\000"
 9999      4E5F5245 
 9999      53455400 
 10000              	.LASF258:
 10001 1f86 4F535F46 		.ascii	"OS_FN_FL_ERASE_START\000"
 10001      4E5F464C 
 10001      5F455241 
 10001      53455F53 
 10001      54415254 
 10002              	.LASF316:
 10003 1f9b 4F535F46 		.ascii	"OS_FN_CODEC_PLAY\000"
 10003      4E5F434F 
 10003      4445435F 
 10003      504C4159 
 10003      00
 10004              	.LASF50:
 10005 1fac 4F535F46 		.ascii	"OS_FN_DISP_BL_CONTROL\000"
 10005      4E5F4449 
 10005      53505F42 
 10005      4C5F434F 
 10005      4E54524F 
 10006              	.LASF14:
 10007 1fc2 574F5244 		.ascii	"WORD\000"
 10007      00
 10008              	.LASF357:
 10009 1fc7 4F535F46 		.ascii	"OS_FN_NETDEV_OPEN\000"
 10009      4E5F4E45 
 10009      54444556 
 10009      5F4F5045 
 10009      4E00
 10010              	.LASF461:
 10011 1fd9 4F535F46 		.ascii	"OS_FN_GCM_AES_FINISH\000"
 10011      4E5F4743 
 10011      4D5F4145 
 10011      535F4649 
 10011      4E495348 
 10012              	.LASF2:
 10013 1fee 756E7369 		.ascii	"unsigned char\000"
 10013      676E6564 
ARM GAS  C:\Users\AHMED~1.ELE\AppData\Local\Temp\ccWMHy5f.s 			page 220


 10013      20636861 
 10013      7200
 10014              	.LASF330:
 10015 1ffc 4F535F46 		.ascii	"OS_FN_CLICC_LED_SET\000"
 10015      4E5F434C 
 10015      4943435F 
 10015      4C45445F 
 10015      53455400 
 10016              	.LASF408:
 10017 2010 4F535F46 		.ascii	"OS_FN_NFC_SEND_FELICA_COMMAND\000"
 10017      4E5F4E46 
 10017      435F5345 
 10017      4E445F46 
 10017      454C4943 
 10018              	.LASF683:
 10019 202e 434C5846 		.ascii	"CLXF_MSG\000"
 10019      5F4D5347 
 10019      00
 10020              	.LASF41:
 10021 2037 4F535F46 		.ascii	"OS_FN_DISP_GETG\000"
 10021      4E5F4449 
 10021      53505F47 
 10021      45544700 
 10022              	.LASF684:
 10023 2047 434C5846 		.ascii	"CLXF_OSF_OWNER_EXPORT\000"
 10023      5F4F5346 
 10023      5F4F574E 
 10023      45525F45 
 10023      58504F52 
 10024              	.LASF325:
 10025 205d 4F535F46 		.ascii	"OS_FN_CLICC_CTRL\000"
 10025      4E5F434C 
 10025      4943435F 
 10025      4354524C 
 10025      00
 10026              	.LASF546:
 10027 206e 4B5F4346 		.ascii	"K_CF_ARPIp\000"
 10027      5F415250 
 10027      497000
 10028              	.LASF521:
 10029 2079 4B5F4346 		.ascii	"K_CF_LcdTimeout\000"
 10029      5F4C6364 
 10029      54696D65 
 10029      6F757400 
 10030              	.LASF498:
 10031 2089 4B5F4346 		.ascii	"K_CF_Tpad\000"
 10031      5F547061 
 10031      6400
 10032              	.LASF218:
 10033 2093 4F535F46 		.ascii	"OS_FN_MMC_BLK_WRITE\000"
 10033      4E5F4D4D 
 10033      435F424C 
 10033      4B5F5752 
 10033      49544500 
 10034              	.LASF536:
 10035 20a7 4B5F4346 		.ascii	"K_CF_PublicKey\000"
 10035      5F507562 
ARM GAS  C:\Users\AHMED~1.ELE\AppData\Local\Temp\ccWMHy5f.s 			page 221


 10035      6C69634B 
 10035      657900
 10036              	.LASF363:
 10037 20b6 4F535F46 		.ascii	"OS_FN_USBKBD_CLOSE\000"
 10037      4E5F5553 
 10037      424B4244 
 10037      5F434C4F 
 10037      534500
 10038              	.LASF187:
 10039 20c9 4F535F46 		.ascii	"OS_FN_FILE_AUTH\000"
 10039      4E5F4649 
 10039      4C455F41 
 10039      55544800 
 10040              	.LASF266:
 10041 20d9 4F535F46 		.ascii	"OS_FN_FL_COPYBACK\000"
 10041      4E5F464C 
 10041      5F434F50 
 10041      59424143 
 10041      4B00
 10042              	.LASF21:
 10043 20eb 4F535F46 		.ascii	"OS_FN_KBD_INKEY\000"
 10043      4E5F4B42 
 10043      445F494E 
 10043      4B455900 
 10044              	.LASF763:
 10045 20fb 4D656D46 		.ascii	"MemFatalErr\000"
 10045      6174616C 
 10045      45727200 
 10046              	.LASF29:
 10047 2107 4F535F46 		.ascii	"OS_FN_TIMER_GET\000"
 10047      4E5F5449 
 10047      4D45525F 
 10047      47455400 
 10048              	.LASF723:
 10049 2117 63746C5F 		.ascii	"ctl_cfg\000"
 10049      63666700 
 10050              	.LASF178:
 10051 211f 4F535F46 		.ascii	"OS_FN_FILE_LENGTH\000"
 10051      4E5F4649 
 10051      4C455F4C 
 10051      454E4754 
 10051      4800
 10052              	.LASF488:
 10053 2131 454E445F 		.ascii	"END_OF_OS_FN_LIST\000"
 10053      4F465F4F 
 10053      535F464E 
 10053      5F4C4953 
 10053      5400
 10054              	.LASF636:
 10055 2143 4745545F 		.ascii	"GET_LCD_TYPEMW\000"
 10055      4C43445F 
 10055      54595045 
 10055      4D5700
 10056              	.LASF162:
 10057 2152 4F535F46 		.ascii	"OS_FN_MALLOC\000"
 10057      4E5F4D41 
 10057      4C4C4F43 
ARM GAS  C:\Users\AHMED~1.ELE\AppData\Local\Temp\ccWMHy5f.s 			page 222


 10057      00
 10058              	.LASF365:
 10059 215f 4F535F46 		.ascii	"OS_FN_USBKBD_GETKEY\000"
 10059      4E5F5553 
 10059      424B4244 
 10059      5F474554 
 10059      4B455900 
 10060              	.LASF583:
 10061 2173 4B5F4346 		.ascii	"K_CF_Bc2DSensitivity\000"
 10061      5F426332 
 10061      4453656E 
 10061      73697469 
 10061      76697479 
 10062              	.LASF444:
 10063 2188 4F535F46 		.ascii	"OS_FN_DTIMER_LATCH_START\000"
 10063      4E5F4454 
 10063      494D4552 
 10063      5F4C4154 
 10063      43485F53 
 10064              	.LASF420:
 10065 21a1 4F535F46 		.ascii	"OS_FN_GPS_CMD\000"
 10065      4E5F4750 
 10065      535F434D 
 10065      4400
 10066              	.LASF585:
 10067 21af 4B5F4346 		.ascii	"K_CF_WIFI_AP_PROFILE\000"
 10067      5F574946 
 10067      495F4150 
 10067      5F50524F 
 10067      46494C45 
 10068              	.LASF400:
 10069 21c4 4F535F46 		.ascii	"OS_FN_BARCODE_ENABLED\000"
 10069      4E5F4241 
 10069      52434F44 
 10069      455F454E 
 10069      41424C45 
 10070              	.LASF171:
 10071 21da 4F535F46 		.ascii	"OS_FN_FILE_DELETE\000"
 10071      4E5F4649 
 10071      4C455F44 
 10071      454C4554 
 10071      4500
 10072              	.LASF147:
 10073 21ec 4F535F46 		.ascii	"OS_FN_BUFMAN_REALLOC\000"
 10073      4E5F4255 
 10073      464D414E 
 10073      5F524541 
 10073      4C4C4F43 
 10074              	.LASF312:
 10075 2201 4F535F46 		.ascii	"OS_FN_TPAD_CALIBRATE\000"
 10075      4E5F5450 
 10075      41445F43 
 10075      414C4942 
 10075      52415445 
 10076              	.LASF359:
 10077 2216 4F535F46 		.ascii	"OS_FN_NETDEV_GETLINK\000"
 10077      4E5F4E45 
ARM GAS  C:\Users\AHMED~1.ELE\AppData\Local\Temp\ccWMHy5f.s 			page 223


 10077      54444556 
 10077      5F474554 
 10077      4C494E4B 
 10078              	.LASF621:
 10079 222b 44455332 		.ascii	"DES2MW\000"
 10079      4D5700
 10080              	.LASF107:
 10081 2232 4F535F46 		.ascii	"OS_FN_SM2_SET_CURVE\000"
 10081      4E5F534D 
 10081      325F5345 
 10081      545F4355 
 10081      52564500 
 10082              	.LASF274:
 10083 2246 4F535F46 		.ascii	"OS_FN_MCOM_OPEN\000"
 10083      4E5F4D43 
 10083      4F4D5F4F 
 10083      50454E00 
 10084              	.LASF331:
 10085 2256 4F535F46 		.ascii	"OS_FN_CLICC_LED_CLEAR\000"
 10085      4E5F434C 
 10085      4943435F 
 10085      4C45445F 
 10085      434C4541 
 10086              	.LASF548:
 10087 226c 4B5F4346 		.ascii	"K_CF_BattStatCount\000"
 10087      5F426174 
 10087      74537461 
 10087      74436F75 
 10087      6E7400
 10088              	.LASF158:
 10089 227f 4F535F46 		.ascii	"OS_FN_APP_SEARCH_NAME\000"
 10089      4E5F4150 
 10089      505F5345 
 10089      41524348 
 10089      5F4E414D 
 10090              	.LASF101:
 10091 2295 4F535F46 		.ascii	"OS_FN_SHA_PROCESS\000"
 10091      4E5F5348 
 10091      415F5052 
 10091      4F434553 
 10091      5300
 10092              	.LASF361:
 10093 22a7 4F535F46 		.ascii	"OS_FN_NETDEV_IOCTL\000"
 10093      4E5F4E45 
 10093      54444556 
 10093      5F494F43 
 10093      544C00
 10094              	.LASF84:
 10095 22ba 4F535F46 		.ascii	"OS_FN_DES\000"
 10095      4E5F4445 
 10095      5300
 10096              	.LASF475:
 10097 22c4 4F535F46 		.ascii	"OS_FN_IMG_SENSOR_CLOSE\000"
 10097      4E5F494D 
 10097      475F5345 
 10097      4E534F52 
 10097      5F434C4F 
ARM GAS  C:\Users\AHMED~1.ELE\AppData\Local\Temp\ccWMHy5f.s 			page 224


 10098              	.LASF675:
 10099 22db 6162544C 		.ascii	"abTLV\000"
 10099      5600
 10100              	.LASF57:
 10101 22e1 4F535F46 		.ascii	"OS_FN_COM1_CLOSE\000"
 10101      4E5F434F 
 10101      4D315F43 
 10101      4C4F5345 
 10101      00
 10102              	.LASF543:
 10103 22f2 4B5F4346 		.ascii	"K_CF_PingEnable\000"
 10103      5F50696E 
 10103      67456E61 
 10103      626C6500 
 10104              	.LASF396:
 10105 2302 4F535F46 		.ascii	"OS_FN_BARCODE_SCAN\000"
 10105      4E5F4241 
 10105      52434F44 
 10105      455F5343 
 10105      414E00
 10106              	.LASF23:
 10107 2315 4F535F46 		.ascii	"OS_FN_KBD_GETKEY\000"
 10107      4E5F4B42 
 10107      445F4745 
 10107      544B4559 
 10107      00
 10108              	.LASF335:
 10109 2326 4F535F46 		.ascii	"OS_FN_USBHOST_RESET_DEVICE\000"
 10109      4E5F5553 
 10109      42484F53 
 10109      545F5245 
 10109      5345545F 
 10110              	.LASF213:
 10111 2341 4F535F46 		.ascii	"OS_FN_MMC_CLOSE\000"
 10111      4E5F4D4D 
 10111      435F434C 
 10111      4F534500 
 10112              	.LASF745:
 10113 2351 4C444C6F 		.ascii	"LDLoad\000"
 10113      616400
 10114              	.LASF308:
 10115 2358 4F535F46 		.ascii	"OS_FN_TPAD_ADD_OBJ\000"
 10115      4E5F5450 
 10115      41445F41 
 10115      44445F4F 
 10115      424A00
 10116              	.LASF650:
 10117 236b 41504D5F 		.ascii	"APM_SDEV_ICC\000"
 10117      53444556 
 10117      5F494343 
 10117      00
 10118              	.LASF719:
 10119 2378 73697A65 		.ascii	"size\000"
 10119      00
 10120              	.LASF549:
 10121 237d 4B5F4346 		.ascii	"K_CF_BattStatValid\000"
 10121      5F426174 
ARM GAS  C:\Users\AHMED~1.ELE\AppData\Local\Temp\ccWMHy5f.s 			page 225


 10121      74537461 
 10121      7456616C 
 10121      696400
 10122              	.LASF571:
 10123 2390 4B5F4346 		.ascii	"K_CF_BUpDllControl\000"
 10123      5F425570 
 10123      446C6C43 
 10123      6F6E7472 
 10123      6F6C00
 10124              	.LASF761:
 10125 23a3 43544C46 		.ascii	"CTLFatal\000"
 10125      6174616C 
 10125      00
 10126              	.LASF199:
 10127 23ac 4F535F46 		.ascii	"OS_FN_FILE_IOCTL\000"
 10127      4E5F4649 
 10127      4C455F49 
 10127      4F43544C 
 10127      00
 10128              	.LASF180:
 10129 23bd 4F535F46 		.ascii	"OS_FN_FILE_SEARCH\000"
 10129      4E5F4649 
 10129      4C455F53 
 10129      45415243 
 10129      4800
 10130              	.LASF411:
 10131 23cf 4F535F46 		.ascii	"OS_FN_NFC_GET_VALID_RESP\000"
 10131      4E5F4E46 
 10131      435F4745 
 10131      545F5641 
 10131      4C49445F 
 10132              	.LASF177:
 10133 23e8 4F535F46 		.ascii	"OS_FN_FILE_GETC\000"
 10133      4E5F4649 
 10133      4C455F47 
 10133      45544300 
 10134              	.LASF648:
 10135 23f8 4D575F46 		.ascii	"MW_FUNC_COUNT\000"
 10135      554E435F 
 10135      434F554E 
 10135      5400
 10136              	.LASF341:
 10137 2406 4F535F46 		.ascii	"OS_FN_DRIVER_UNREGISTER\000"
 10137      4E5F4452 
 10137      49564552 
 10137      5F554E52 
 10137      45474953 
 10138              	.LASF465:
 10139 241e 4F535F46 		.ascii	"OS_FN_WIFI_SOCKET_DISCONNECT\000"
 10139      4E5F5749 
 10139      46495F53 
 10139      4F434B45 
 10139      545F4449 
 10140              	.LASF734:
 10141 243b 4B43544C 		.ascii	"KCTLTemp\000"
 10141      54656D70 
 10141      00
ARM GAS  C:\Users\AHMED~1.ELE\AppData\Local\Temp\ccWMHy5f.s 			page 226


 10142              	.LASF311:
 10143 2444 4F535F46 		.ascii	"OS_FN_TPAD_ALERT_RETURN\000"
 10143      4E5F5450 
 10143      41445F41 
 10143      4C455254 
 10143      5F524554 
 10144              	.LASF686:
 10145 245c 434C5846 		.ascii	"CLXF_CL_CLOSE\000"
 10145      5F434C5F 
 10145      434C4F53 
 10145      4500
 10146              	.LASF131:
 10147 246a 4F535F46 		.ascii	"OS_FN_KEY_SAVE_TMK_CBC\000"
 10147      4E5F4B45 
 10147      595F5341 
 10147      56455F54 
 10147      4D4B5F43 
 10148              	.LASF87:
 10149 2481 4F535F46 		.ascii	"OS_FN_COM_DES\000"
 10149      4E5F434F 
 10149      4D5F4445 
 10149      5300
 10150              	.LASF106:
 10151 248f 4F535F46 		.ascii	"OS_FN_MD4_FINISH\000"
 10151      4E5F4D44 
 10151      345F4649 
 10151      4E495348 
 10151      00
 10152              	.LASF74:
 10153 24a0 4F535F46 		.ascii	"OS_FN_COM3_OPEN\000"
 10153      4E5F434F 
 10153      4D335F4F 
 10153      50454E00 
 10154              	.LASF614:
 10155 24b0 46434F4D 		.ascii	"FCOMMITALLMW\000"
 10155      4D495441 
 10155      4C4C4D57 
 10155      00
 10156              	.LASF261:
 10157 24bd 4F535F46 		.ascii	"OS_FN_FL_COPYB_PGM\000"
 10157      4E5F464C 
 10157      5F434F50 
 10157      59425F50 
 10157      474D00
 10158              	.LASF756:
 10159 24d0 7372632F 		.ascii	"src/ctlcfg.c\000"
 10159      63746C63 
 10159      66672E63 
 10159      00
 10160              	.LASF486:
 10161 24dd 4F535F46 		.ascii	"OS_FN_IMG_SENSOR_SET_MODE\000"
 10161      4E5F494D 
 10161      475F5345 
 10161      4E534F52 
 10161      5F534554 
 10162              	.LASF568:
 10163 24f7 4B5F4346 		.ascii	"K_CF_LCDC_ALWAYS_ON\000"
ARM GAS  C:\Users\AHMED~1.ELE\AppData\Local\Temp\ccWMHy5f.s 			page 227


 10163      5F4C4344 
 10163      435F414C 
 10163      57415953 
 10163      5F4F4E00 
 10164              	.LASF374:
 10165 250b 4F535F46 		.ascii	"OS_FN_MIF_TAG\000"
 10165      4E5F4D49 
 10165      465F5441 
 10165      4700
 10166              	.LASF262:
 10167 2519 4F535F46 		.ascii	"OS_FN_FL_COPYB_END\000"
 10167      4E5F464C 
 10167      5F434F50 
 10167      59425F45 
 10167      4E4400
 10168              	.LASF582:
 10169 252c 4B5F4346 		.ascii	"K_CF_Barcode\000"
 10169      5F426172 
 10169      636F6465 
 10169      00
 10170              	.LASF66:
 10171 2539 4F535F46 		.ascii	"OS_FN_COM2_CLOSE\000"
 10171      4E5F434F 
 10171      4D325F43 
 10171      4C4F5345 
 10171      00
 10172              	.LASF651:
 10173 254a 41504D5F 		.ascii	"APM_SDEV_GPRS\000"
 10173      53444556 
 10173      5F475052 
 10173      5300
 10174              	.LASF639:
 10175 2558 534D535F 		.ascii	"SMS_ENB_MW\000"
 10175      454E425F 
 10175      4D5700
 10176              	.LASF221:
 10177 2563 4F535F46 		.ascii	"OS_FN_MMC_INSERTED\000"
 10177      4E5F4D4D 
 10177      435F494E 
 10177      53455254 
 10177      454400
 10178              	.LASF422:
 10179 2576 4F535F46 		.ascii	"OS_FN_GPS_RESET\000"
 10179      4E5F4750 
 10179      535F5245 
 10179      53455400 
 10180              	.LASF751:
 10181 2586 44697370 		.ascii	"DispInfoData\000"
 10181      496E666F 
 10181      44617461 
 10181      00
 10182              	.LASF533:
 10183 2593 4B5F4346 		.ascii	"K_CF_LcdBannerEnable\000"
 10183      5F4C6364 
 10183      42616E6E 
 10183      6572456E 
 10183      61626C65 
ARM GAS  C:\Users\AHMED~1.ELE\AppData\Local\Temp\ccWMHy5f.s 			page 228


 10184              	.LASF512:
 10185 25a8 4B5F4346 		.ascii	"K_CF_SetupPsw\000"
 10185      5F536574 
 10185      75705073 
 10185      7700
 10186              	.LASF645:
 10187 25b6 46545255 		.ascii	"FTRUNCATEMW\000"
 10187      4E434154 
 10187      454D5700 
 10188              	.LASF458:
 10189 25c2 4F535F46 		.ascii	"OS_FN_GCM_AES_INIT\000"
 10189      4E5F4743 
 10189      4D5F4145 
 10189      535F494E 
 10189      495400
 10190              	.LASF671:
 10191 25d5 62525342 		.ascii	"bRSBMax\000"
 10191      4D617800 
 10192              	.LASF483:
 10193 25dd 4F535F46 		.ascii	"OS_FN_WIFI_SET_REGULATORY_DOMAIN\000"
 10193      4E5F5749 
 10193      46495F53 
 10193      45545F52 
 10193      4547554C 
 10194              	.LASF510:
 10195 25fe 4B5F4346 		.ascii	"K_CF_BSysPsw\000"
 10195      5F425379 
 10195      73507377 
 10195      00
 10196              	.LASF285:
 10197 260b 4F535F46 		.ascii	"OS_FN_BATT_TEMP\000"
 10197      4E5F4241 
 10197      54545F54 
 10197      454D5000 
 10198              	.LASF386:
 10199 261b 4F535F46 		.ascii	"OS_FN_MIF_TRANSFER\000"
 10199      4E5F4D49 
 10199      465F5452 
 10199      414E5346 
 10199      455200
 10200              	.LASF740:
 10201 262e 6D656D73 		.ascii	"memset\000"
 10201      657400
 10202              	.LASF716:
 10203 2635 614C656E 		.ascii	"aLen\000"
 10203      00
 10204              	.LASF27:
 10205 263a 4F535F46 		.ascii	"OS_FN_TIMER_CLOSE\000"
 10205      4E5F5449 
 10205      4D45525F 
 10205      434C4F53 
 10205      4500
 10206              	.LASF148:
 10207 264c 4F535F46 		.ascii	"OS_FN_BUFMAN_SHRINK\000"
 10207      4E5F4255 
 10207      464D414E 
 10207      5F534852 
ARM GAS  C:\Users\AHMED~1.ELE\AppData\Local\Temp\ccWMHy5f.s 			page 229


 10207      494E4B00 
 10208              	.LASF275:
 10209 2660 4F535F46 		.ascii	"OS_FN_MCOM_CLOSE\000"
 10209      4E5F4D43 
 10209      4F4D5F43 
 10209      4C4F5345 
 10209      00
 10210              	.LASF104:
 10211 2671 4F535F46 		.ascii	"OS_FN_RC4_ENCRYPT\000"
 10211      4E5F5243 
 10211      345F454E 
 10211      43525950 
 10211      5400
 10212              	.LASF398:
 10213 2683 4F535F46 		.ascii	"OS_FN_BARCODE_ABORT\000"
 10213      4E5F4241 
 10213      52434F44 
 10213      455F4142 
 10213      4F525400 
 10214              	.LASF565:
 10215 2697 4B5F4346 		.ascii	"K_CF_DllControlEnable\000"
 10215      5F446C6C 
 10215      436F6E74 
 10215      726F6C45 
 10215      6E61626C 
 10216              	.LASF596:
 10217 26ad 53485554 		.ascii	"SHUTDOWNMW\000"
 10217      444F574E 
 10217      4D5700
 10218              	.LASF33:
 10219 26b8 4F535F46 		.ascii	"OS_FN_BUZ_STATE\000"
 10219      4E5F4255 
 10219      5A5F5354 
 10219      41544500 
 10220              	.LASF304:
 10221 26c8 4F535F46 		.ascii	"OS_FN_GPRS_SMS_CONTROL\000"
 10221      4E5F4750 
 10221      52535F53 
 10221      4D535F43 
 10221      4F4E5452 
 10222              	.LASF228:
 10223 26df 4F535F46 		.ascii	"OS_FN_LAN_RXRDY\000"
 10223      4E5F4C41 
 10223      4E5F5258 
 10223      52445900 
 10224              	.LASF35:
 10225 26ef 4F535F46 		.ascii	"OS_FN_RTC_SET\000"
 10225      4E5F5254 
 10225      435F5345 
 10225      5400
 10226              	.LASF495:
 10227 26fd 4B5F4346 		.ascii	"K_CF_PppFixIP\000"
 10227      5F507070 
 10227      46697849 
 10227      5000
 10228              	.LASF212:
 10229 270b 4F535F46 		.ascii	"OS_FN_MMC_OPEN\000"
ARM GAS  C:\Users\AHMED~1.ELE\AppData\Local\Temp\ccWMHy5f.s 			page 230


 10229      4E5F4D4D 
 10229      435F4F50 
 10229      454E00
 10230              	.LASF627:
 10231 271a 44495350 		.ascii	"DISP_PUTCMW\000"
 10231      5F505554 
 10231      434D5700 
 10232              	.LASF346:
 10233 2726 4F535F46 		.ascii	"OS_FN_DEVICE_IOCTL\000"
 10233      4E5F4445 
 10233      56494345 
 10233      5F494F43 
 10233      544C00
 10234              	.LASF155:
 10235 2739 4F535F46 		.ascii	"OS_FN_GET_CHALLENGE\000"
 10235      4E5F4745 
 10235      545F4348 
 10235      414C4C45 
 10235      4E474500 
 10236              	.LASF217:
 10237 274d 4F535F46 		.ascii	"OS_FN_MMC_BLK_READ\000"
 10237      4E5F4D4D 
 10237      435F424C 
 10237      4B5F5245 
 10237      414400
 10238              	.LASF508:
 10239 2760 4B5F4346 		.ascii	"K_CF_TamperOn\000"
 10239      5F54616D 
 10239      7065724F 
 10239      6E00
 10240              	.LASF97:
 10241 276e 4F535F46 		.ascii	"OS_FN_MD5_INIT\000"
 10241      4E5F4D44 
 10241      355F494E 
 10241      495400
 10242              	.LASF494:
 10243 277d 4B5F4346 		.ascii	"K_CF_EtherID\000"
 10243      5F457468 
 10243      65724944 
 10243      00
 10244              	.LASF253:
 10245 278a 4F535F46 		.ascii	"OS_FN_FL_PAGE\000"
 10245      4E5F464C 
 10245      5F504147 
 10245      4500
 10246              	.LASF144:
 10247 2798 4F535F46 		.ascii	"OS_FN_THREAD_RETURN\000"
 10247      4E5F5448 
 10247      52454144 
 10247      5F524554 
 10247      55524E00 
 10248              	.LASF203:
 10249 27ac 4F535F46 		.ascii	"OS_FN_CONFIG_UPDATE\000"
 10249      4E5F434F 
 10249      4E464947 
 10249      5F555044 
 10249      41544500 
ARM GAS  C:\Users\AHMED~1.ELE\AppData\Local\Temp\ccWMHy5f.s 			page 231


 10250              	.LASF412:
 10251 27c0 4F535F46 		.ascii	"OS_FN_NFC_INFO_GET\000"
 10251      4E5F4E46 
 10251      435F494E 
 10251      464F5F47 
 10251      455400
 10252              	.LASF559:
 10253 27d3 4B5F4346 		.ascii	"K_CF_MdmAutoTxPwr\000"
 10253      5F4D646D 
 10253      4175746F 
 10253      54785077 
 10253      7200
 10254              	.LASF191:
 10255 27e5 4F535F46 		.ascii	"OS_FN_FILE_GET_SYSTEMINFO\000"
 10255      4E5F4649 
 10255      4C455F47 
 10255      45545F53 
 10255      59535445 
 10256              	.LASF378:
 10257 27ff 4F535F46 		.ascii	"OS_FN_MIF_LOAD_KEY\000"
 10257      4E5F4D49 
 10257      465F4C4F 
 10257      41445F4B 
 10257      455900
 10258              	.LASF100:
 10259 2812 4F535F46 		.ascii	"OS_FN_SHA_INIT\000"
 10259      4E5F5348 
 10259      415F494E 
 10259      495400
 10260              	.LASF690:
 10261 2821 775F696E 		.ascii	"w_info_len\000"
 10261      666F5F6C 
 10261      656E00
 10262              	.LASF345:
 10263 282c 4F535F46 		.ascii	"OS_FN_DEVICE_ALLOC_MEDIA\000"
 10263      4E5F4445 
 10263      56494345 
 10263      5F414C4C 
 10263      4F435F4D 
 10264              	.LASF562:
 10265 2845 4B5F4346 		.ascii	"K_CF_MdmU80\000"
 10265      5F4D646D 
 10265      55383000 
 10266              	.LASF739:
 10267 2851 44697370 		.ascii	"DispPutStr\000"
 10267      50757453 
 10267      747200
 10268              	.LASF459:
 10269 285c 4F535F46 		.ascii	"OS_FN_GCM_AES_PROCESS_AAD\000"
 10269      4E5F4743 
 10269      4D5F4145 
 10269      535F5052 
 10269      4F434553 
 10270              	.LASF367:
 10271 2876 4F535F46 		.ascii	"OS_FN_TAMPER_GET_STATUS\000"
 10271      4E5F5441 
 10271      4D504552 
ARM GAS  C:\Users\AHMED~1.ELE\AppData\Local\Temp\ccWMHy5f.s 			page 232


 10271      5F474554 
 10271      5F535441 
 10272              	.LASF674:
 10273 288e 61625441 		.ascii	"abTACDefault\000"
 10273      43446566 
 10273      61756C74 
 10273      00
 10274              	.LASF79:
 10275 289b 4F535F46 		.ascii	"OS_FN_COM3_SEND\000"
 10275      4E5F434F 
 10275      4D335F53 
 10275      454E4400 
 10276              	.LASF124:
 10277 28ab 4F535F46 		.ascii	"OS_FN_KEY_DUKPT_ENCRYPT\000"
 10277      4E5F4B45 
 10277      595F4455 
 10277      4B50545F 
 10277      454E4352 
 10278              	.LASF141:
 10279 28c3 4F535F46 		.ascii	"OS_FN_THREAD_UNLOCK\000"
 10279      4E5F5448 
 10279      52454144 
 10279      5F554E4C 
 10279      4F434B00 
 10280              	.LASF370:
 10281 28d7 4F535F46 		.ascii	"OS_FN_MIF_CLOSE\000"
 10281      4E5F4D49 
 10281      465F434C 
 10281      4F534500 
 10282              	.LASF80:
 10283 28e7 4F535F46 		.ascii	"OS_FN_COM3_STATUS\000"
 10283      4E5F434F 
 10283      4D335F53 
 10283      54415455 
 10283      5300
 10284              	.LASF307:
 10285 28f9 4F535F46 		.ascii	"OS_FN_TPAD_CLOSE\000"
 10285      4E5F5450 
 10285      41445F43 
 10285      4C4F5345 
 10285      00
 10286              	.LASF3:
 10287 290a 73686F72 		.ascii	"short int\000"
 10287      7420696E 
 10287      7400
 10288              	.LASF105:
 10289 2914 4F535F46 		.ascii	"OS_FN_MD4_PROCESS\000"
 10289      4E5F4D44 
 10289      345F5052 
 10289      4F434553 
 10289      5300
 10290              	.LASF207:
 10291 2926 4F535F46 		.ascii	"OS_FN_SAM_INSERTED\000"
 10291      4E5F5341 
 10291      4D5F494E 
 10291      53455254 
 10291      454400
ARM GAS  C:\Users\AHMED~1.ELE\AppData\Local\Temp\ccWMHy5f.s 			page 233


 10292              	.LASF591:
 10293 2939 55534246 		.ascii	"USBFPRT_GENERAL_INFO_IMG_WIDTH\000"
 10293      5052545F 
 10293      47454E45 
 10293      52414C5F 
 10293      494E464F 
 10294              	.LASF329:
 10295 2958 4F535F46 		.ascii	"OS_FN_CLICC_LED_STATUS\000"
 10295      4E5F434C 
 10295      4943435F 
 10295      4C45445F 
 10295      53544154 
 10296              	.LASF320:
 10297 296f 4F535F46 		.ascii	"OS_FN_CLICC_OPEN\000"
 10297      4E5F434C 
 10297      4943435F 
 10297      4F50454E 
 10297      00
 10298              	.LASF64:
 10299 2980 4F535F46 		.ascii	"OS_FN_COM1_SSEND\000"
 10299      4E5F434F 
 10299      4D315F53 
 10299      53454E44 
 10299      00
 10300              	.LASF347:
 10301 2991 4F535F46 		.ascii	"OS_FN_DEVICE_SEARCH_INIT\000"
 10301      4E5F4445 
 10301      56494345 
 10301      5F534541 
 10301      5243485F 
 10302              	.LASF282:
 10303 29aa 4F535F46 		.ascii	"OS_FN_MCOM_READ\000"
 10303      4E5F4D43 
 10303      4F4D5F52 
 10303      45414400 
 10304              	.LASF431:
 10305 29ba 4F535F46 		.ascii	"OS_FN_FREE_RUN\000"
 10305      4E5F4652 
 10305      45455F52 
 10305      554E00
 10306              	.LASF291:
 10307 29c9 4F535F46 		.ascii	"OS_FN_GPRS_SIGNAL\000"
 10307      4E5F4750 
 10307      52535F53 
 10307      49474E41 
 10307      4C00
 10308              	.LASF250:
 10309 29db 4F535F46 		.ascii	"OS_FN_FL_INFO\000"
 10309      4E5F464C 
 10309      5F494E46 
 10309      4F00
 10310              	.LASF718:
 10311 29e9 43544C44 		.ascii	"CTLDataUpdate\000"
 10311      61746155 
 10311      70646174 
 10311      6500
 10312              	.LASF478:
ARM GAS  C:\Users\AHMED~1.ELE\AppData\Local\Temp\ccWMHy5f.s 			page 234


 10313 29f7 4F535F46 		.ascii	"OS_FN_GPRS_SET_PIN_STATUS\000"
 10313      4E5F4750 
 10313      52535F53 
 10313      45545F50 
 10313      494E5F53 
 10314              	.LASF114:
 10315 2a11 4F535F46 		.ascii	"OS_FN_SM3_ASCII\000"
 10315      4E5F534D 
 10315      335F4153 
 10315      43494900 
 10316              	.LASF659:
 10317 2a21 54494D45 		.ascii	"TIMER_COMM\000"
 10317      525F434F 
 10317      4D4D00
 10318              	.LASF209:
 10319 2a2c 4F535F46 		.ascii	"OS_FN_SAM_OFF\000"
 10319      4E5F5341 
 10319      4D5F4F46 
 10319      4600
 10320              	.LASF539:
 10321 2a3a 4B5F4346 		.ascii	"K_CF_RdllInf\000"
 10321      5F52646C 
 10321      6C496E66 
 10321      00
 10322              	.LASF560:
 10323 2a47 4B5F4346 		.ascii	"K_CF_MdmDTPwr\000"
 10323      5F4D646D 
 10323      44545077 
 10323      7200
 10324              	.LASF417:
 10325 2a55 4F535F46 		.ascii	"OS_FN_GPS_OFF\000"
 10325      4E5F4750 
 10325      535F4F46 
 10325      4600
 10326              	.LASF123:
 10327 2a63 4F535F46 		.ascii	"OS_FN_KEY_FLUSH\000"
 10327      4E5F4B45 
 10327      595F464C 
 10327      55534800 
 10328              	.LASF113:
 10329 2a73 4F535F46 		.ascii	"OS_FN_SM2_GET_MESS\000"
 10329      4E5F534D 
 10329      325F4745 
 10329      545F4D45 
 10329      535300
 10330              	.LASF588:
 10331 2a86 4B5F4346 		.ascii	"K_CF_TermIDControlOff\000"
 10331      5F546572 
 10331      6D494443 
 10331      6F6E7472 
 10331      6F6C4F66 
 10332              	.LASF501:
 10333 2a9c 4B5F4346 		.ascii	"K_CF_Netmask\000"
 10333      5F4E6574 
 10333      6D61736B 
 10333      00
 10334              	.LASF252:
ARM GAS  C:\Users\AHMED~1.ELE\AppData\Local\Temp\ccWMHy5f.s 			page 235


 10335 2aa9 4F535F46 		.ascii	"OS_FN_FL_PAGE_READ\000"
 10335      4E5F464C 
 10335      5F504147 
 10335      455F5245 
 10335      414400
 10336              	.LASF163:
 10337 2abc 4F535F46 		.ascii	"OS_FN_REALLOC\000"
 10337      4E5F5245 
 10337      414C4C4F 
 10337      4300
 10338              	.LASF466:
 10339 2aca 4F535F46 		.ascii	"OS_FN_WIFI_SOCKET_GET_STATE\000"
 10339      4E5F5749 
 10339      46495F53 
 10339      4F434B45 
 10339      545F4745 
 10340              	.LASF376:
 10341 2ae6 4F535F46 		.ascii	"OS_FN_MIF_ANTICOLL\000"
 10341      4E5F4D49 
 10341      465F414E 
 10341      5449434F 
 10341      4C4C00
 10342              	.LASF732:
 10343 2af9 77436875 		.ascii	"wChunkSize\000"
 10343      6E6B5369 
 10343      7A6500
 10344              	.LASF255:
 10345 2b04 4F535F46 		.ascii	"OS_FN_FL_PGM_START\000"
 10345      4E5F464C 
 10345      5F50474D 
 10345      5F535441 
 10345      525400
 10346              	.LASF413:
 10347 2b17 4F535F46 		.ascii	"OS_FN_NFC_INFO_SET\000"
 10347      4E5F4E46 
 10347      435F494E 
 10347      464F5F53 
 10347      455400
 10348              	.LASF467:
 10349 2b2a 4F535F46 		.ascii	"OS_FN_WIFI_SOCKET_SEND_TCP\000"
 10349      4E5F5749 
 10349      46495F53 
 10349      4F434B45 
 10349      545F5345 
 10350              	.LASF634:
 10351 2b45 44495350 		.ascii	"DISP_GETGMW\000"
 10351      5F474554 
 10351      474D5700 
 10352              	.LASF133:
 10353 2b51 4F535F46 		.ascii	"OS_FN_PCI_DSS_GET_KVC\000"
 10353      4E5F5043 
 10353      495F4453 
 10353      535F4745 
 10353      545F4B56 
 10354              	.LASF541:
 10355 2b67 4B5F4346 		.ascii	"K_CF_PswError\000"
 10355      5F507377 
ARM GAS  C:\Users\AHMED~1.ELE\AppData\Local\Temp\ccWMHy5f.s 			page 236


 10355      4572726F 
 10355      7200
 10356              	.LASF555:
 10357 2b75 4B5F4346 		.ascii	"K_CF_ParamTerm2Term\000"
 10357      5F506172 
 10357      616D5465 
 10357      726D3254 
 10357      65726D00 
 10358              	.LASF116:
 10359 2b89 4F535F46 		.ascii	"OS_FN_SM4_SET_KEY\000"
 10359      4E5F534D 
 10359      345F5345 
 10359      545F4B45 
 10359      5900
 10360              	.LASF54:
 10361 2b9b 4F535F46 		.ascii	"OS_FN_DISP_ICON_SET_SIGNAL_TYPE\000"
 10361      4E5F4449 
 10361      53505F49 
 10361      434F4E5F 
 10361      5345545F 
 10362              	.LASF310:
 10363 2bbb 4F535F46 		.ascii	"OS_FN_TPAD_CPOS\000"
 10363      4E5F5450 
 10363      41445F43 
 10363      504F5300 
 10364              	.LASF1:
 10365 2bcb 7369676E 		.ascii	"signed char\000"
 10365      65642063 
 10365      68617200 
 10366              	.LASF402:
 10367 2bd7 4F535F46 		.ascii	"OS_FN_WIFI_SEND_COMMAND\000"
 10367      4E5F5749 
 10367      46495F53 
 10367      454E445F 
 10367      434F4D4D 
 10368              	.LASF527:
 10369 2bef 4B5F4346 		.ascii	"K_CF_MdmTxPwr\000"
 10369      5F4D646D 
 10369      54785077 
 10369      7200
 10370              	.LASF612:
 10371 2bfd 46524541 		.ascii	"FREADMW\000"
 10371      444D5700 
 10372              	.LASF749:
 10373 2c05 7374726C 		.ascii	"strlen\000"
 10373      656E00
 10374              	.LASF62:
 10375 2c0c 4F535F46 		.ascii	"OS_FN_COM1_STATUS\000"
 10375      4E5F434F 
 10375      4D315F53 
 10375      54415455 
 10375      5300
 10376              	.LASF134:
 10377 2c1e 4F535F46 		.ascii	"OS_FN_PCI_DSS_REGEN_KEY\000"
 10377      4E5F5043 
 10377      495F4453 
 10377      535F5245 
ARM GAS  C:\Users\AHMED~1.ELE\AppData\Local\Temp\ccWMHy5f.s 			page 237


 10377      47454E5F 
 10378              	.LASF78:
 10379 2c36 4F535F46 		.ascii	"OS_FN_COM3_READ\000"
 10379      4E5F434F 
 10379      4D335F52 
 10379      45414400 
 10380              	.LASF482:
 10381 2c46 4F535F46 		.ascii	"OS_FN_WIFI_GET_REGULATORY_DOMAIN\000"
 10381      4E5F5749 
 10381      46495F47 
 10381      45545F52 
 10381      4547554C 
 10382              	.LASF692:
 10383 2c67 70625F69 		.ascii	"pb_info\000"
 10383      6E666F00 
 10384              	.LASF744:
 10385 2c6f 6D656D63 		.ascii	"memcpy\000"
 10385      707900
 10386              	.LASF390:
 10387 2c76 4F535F46 		.ascii	"OS_FN_MIF_GET\000"
 10387      4E5F4D49 
 10387      465F4745 
 10387      5400
 10388              	.LASF188:
 10389 2c84 4F535F46 		.ascii	"OS_FN_FILE_SET_LOCK\000"
 10389      4E5F4649 
 10389      4C455F53 
 10389      45545F4C 
 10389      4F434B00 
 10390              	.LASF161:
 10391 2c98 4F535F46 		.ascii	"OS_FN_APP_INFO\000"
 10391      4E5F4150 
 10391      505F494E 
 10391      464F00
 10392              	.LASF491:
 10393 2ca7 4B5F4346 		.ascii	"K_CF_SerialNo\000"
 10393      5F536572 
 10393      69616C4E 
 10393      6F00
 10394              	.LASF669:
 10395 2cb5 64525342 		.ascii	"dRSBThresh\000"
 10395      54687265 
 10395      736800
 10396              	.LASF237:
 10397 2cc0 4F535F46 		.ascii	"OS_FN_MSR_READ\000"
 10397      4E5F4D53 
 10397      525F5245 
 10397      414400
 10398              	.LASF382:
 10399 2ccf 4F535F46 		.ascii	"OS_FN_MIF_WRITE\000"
 10399      4E5F4D49 
 10399      465F5752 
 10399      49544500 
 10400              	.LASF726:
 10401 2cdf 7362494F 		.ascii	"sbIOBuf\000"
 10401      42756600 
 10402              	.LASF667:
ARM GAS  C:\Users\AHMED~1.ELE\AppData\Local\Temp\ccWMHy5f.s 			page 238


 10403 2ce7 62455479 		.ascii	"bEType\000"
 10403      706500
 10404              	.LASF25:
 10405 2cee 4F535F46 		.ascii	"OS_FN_KBD_UNLOCK\000"
 10405      4E5F4B42 
 10405      445F554E 
 10405      4C4F434B 
 10405      00
 10406              	.LASF647:
 10407 2cff 41505049 		.ascii	"APPINFO_GETMW\000"
 10407      4E464F5F 
 10407      4745544D 
 10407      5700
 10408              	.LASF531:
 10409 2d0d 4B5F4346 		.ascii	"K_CF_RtcControlOff\000"
 10409      5F527463 
 10409      436F6E74 
 10409      726F6C4F 
 10409      666600
 10410              	.LASF381:
 10411 2d20 4F535F46 		.ascii	"OS_FN_MIF_READ\000"
 10411      4E5F4D49 
 10411      465F5245 
 10411      414400
 10412              	.LASF688:
 10413 2d2f 434C5846 		.ascii	"CLXF_NUM\000"
 10413      5F4E554D 
 10413      00
 10414              	.LASF426:
 10415 2d38 4F535F46 		.ascii	"OS_FN_APPDL_WRITE_APP\000"
 10415      4E5F4150 
 10415      50444C5F 
 10415      57524954 
 10415      455F4150 
 10416              	.LASF195:
 10417 2d4e 4F535F46 		.ascii	"OS_FN_FILE_MKDIR\000"
 10417      4E5F4649 
 10417      4C455F4D 
 10417      4B444952 
 10417      00
 10418              	.LASF156:
 10419 2d5f 4F535F46 		.ascii	"OS_FN_AUTH\000"
 10419      4E5F4155 
 10419      544800
 10420              	.LASF8:
 10421 2d6a 6C6F6E67 		.ascii	"long long unsigned int\000"
 10421      206C6F6E 
 10421      6720756E 
 10421      7369676E 
 10421      65642069 
 10422              	.LASF713:
 10423 2d81 61466C61 		.ascii	"aFlag\000"
 10423      6700
 10424              	.LASF227:
 10425 2d87 4F535F46 		.ascii	"OS_FN_LAN_CLOSE\000"
 10425      4E5F4C41 
 10425      4E5F434C 
ARM GAS  C:\Users\AHMED~1.ELE\AppData\Local\Temp\ccWMHy5f.s 			page 239


 10425      4F534500 
 10426              	.LASF497:
 10427 2d97 4B5F4346 		.ascii	"K_CF_DssMkKvc\000"
 10427      5F447373 
 10427      4D6B4B76 
 10427      6300
 10428              	.LASF499:
 10429 2da5 4B5F4346 		.ascii	"K_CF_TpadOffset\000"
 10429      5F547061 
 10429      644F6666 
 10429      73657400 
 10430              	.LASF214:
 10431 2db5 4F535F46 		.ascii	"OS_FN_MMC_BLK_SIZE\000"
 10431      4E5F4D4D 
 10431      435F424C 
 10431      4B5F5349 
 10431      5A4500
 10432              	.LASF67:
 10433 2dc8 4F535F46 		.ascii	"OS_FN_COM2_RXRDY\000"
 10433      4E5F434F 
 10433      4D325F52 
 10433      58524459 
 10433      00
 10434              	.LASF438:
 10435 2dd9 4F535F46 		.ascii	"OS_FN_GET_MCLK\000"
 10435      4E5F4745 
 10435      545F4D43 
 10435      4C4B00
 10436              	.LASF624:
 10437 2de8 5343484E 		.ascii	"SCHNLSETUPMW\000"
 10437      4C534554 
 10437      55504D57 
 10437      00
 10438              	.LASF272:
 10439 2df5 4F535F46 		.ascii	"OS_FN_MDM_STATUS\000"
 10439      4E5F4D44 
 10439      4D5F5354 
 10439      41545553 
 10439      00
 10440              	.LASF15:
 10441 2e06 44574F52 		.ascii	"DWORD\000"
 10441      4400
 10442              	.LASF233:
 10443 2e0c 4F535F46 		.ascii	"OS_FN_MSR_OPEN\000"
 10443      4E5F4D53 
 10443      525F4F50 
 10443      454E00
 10444              	.LASF322:
 10445 2e1b 4F535F46 		.ascii	"OS_FN_CLICC_REMOVE\000"
 10445      4E5F434C 
 10445      4943435F 
 10445      52454D4F 
 10445      564500
 10446              	.LASF746:
 10447 2e2e 73706C69 		.ascii	"split\000"
 10447      7400
 10448              	.LASF570:
ARM GAS  C:\Users\AHMED~1.ELE\AppData\Local\Temp\ccWMHy5f.s 			page 240


 10449 2e34 4B5F4346 		.ascii	"K_CF_GPRS_StkiRespMsgOn\000"
 10449      5F475052 
 10449      535F5374 
 10449      6B695265 
 10449      73704D73 
 10450              	.LASF611:
 10451 2e4c 46534545 		.ascii	"FSEEKMW\000"
 10451      4B4D5700 
 10452              	.LASF256:
 10453 2e54 4F535F46 		.ascii	"OS_FN_FL_WRITE\000"
 10453      4E5F464C 
 10453      5F575249 
 10453      544500
 10454              	.LASF73:
 10455 2e63 4F535F46 		.ascii	"OS_FN_COM2_SSEND\000"
 10455      4E5F434F 
 10455      4D325F53 
 10455      53454E44 
 10455      00
 10456              	.LASF631:
 10457 2e74 44495350 		.ascii	"DISP_GOTOMW\000"
 10457      5F474F54 
 10457      4F4D5700 
 10458              	.LASF219:
 10459 2e80 4F535F46 		.ascii	"OS_FN_MMC_READ\000"
 10459      4E5F4D4D 
 10459      435F5245 
 10459      414400
 10460              	.LASF542:
 10461 2e8f 4B5F4346 		.ascii	"K_CF_LandingZone\000"
 10461      5F4C616E 
 10461      64696E67 
 10461      5A6F6E65 
 10461      00
 10462              	.LASF725:
 10463 2ea0 43544C55 		.ascii	"CTLUtilStart\000"
 10463      74696C53 
 10463      74617274 
 10463      00
 10464              	.LASF270:
 10465 2ead 4F535F46 		.ascii	"OS_FN_MDM_DISC\000"
 10465      4E5F4D44 
 10465      4D5F4449 
 10465      534300
 10466              	.LASF90:
 10467 2ebc 4F535F46 		.ascii	"OS_FN_NEW_DES2\000"
 10467      4E5F4E45 
 10467      575F4445 
 10467      533200
 10468              	.LASF715:
 10469 2ecb 61446174 		.ascii	"aData\000"
 10469      6100
 10470              	.LASF186:
 10471 2ed1 4F535F46 		.ascii	"OS_FN_FILE_TRUNCATE\000"
 10471      4E5F4649 
 10471      4C455F54 
 10471      52554E43 
ARM GAS  C:\Users\AHMED~1.ELE\AppData\Local\Temp\ccWMHy5f.s 			page 241


 10471      41544500 
 10472              	.LASF4:
 10473 2ee5 73686F72 		.ascii	"short unsigned int\000"
 10473      7420756E 
 10473      7369676E 
 10473      65642069 
 10473      6E7400
 10474              	.LASF138:
 10475 2ef8 4F535F46 		.ascii	"OS_FN_THREAD_CREATE\000"
 10475      4E5F5448 
 10475      52454144 
 10475      5F435245 
 10475      41544500 
 10476              	.LASF511:
 10477 2f0c 4B5F4346 		.ascii	"K_CF_DllPsw\000"
 10477      5F446C6C 
 10477      50737700 
 10478              	.LASF682:
 10479 2f18 434C5846 		.ascii	"CLXF_SETUP\000"
 10479      5F534554 
 10479      555000
 10480              	.LASF658:
 10481 2f23 54494D45 		.ascii	"TIMER_KBD\000"
 10481      525F4B42 
 10481      4400
 10482              	.LASF358:
 10483 2f2d 4F535F46 		.ascii	"OS_FN_NETDEV_CLOSE\000"
 10483      4E5F4E45 
 10483      54444556 
 10483      5F434C4F 
 10483      534500
 10484              	.LASF472:
 10485 2f40 4F535F46 		.ascii	"OS_FN_IMG_SENSOR_OPEN\000"
 10485      4E5F494D 
 10485      475F5345 
 10485      4E534F52 
 10485      5F4F5045 
 10486              	.LASF63:
 10487 2f56 4F535F46 		.ascii	"OS_FN_COM1_SREAD\000"
 10487      4E5F434F 
 10487      4D315F53 
 10487      52454144 
 10487      00
 10488              	.LASF727:
 10489 2f67 7343544C 		.ascii	"sCTLIn\000"
 10489      496E00
 10490              	.LASF103:
 10491 2f6e 4F535F46 		.ascii	"OS_FN_RC4_SETUP\000"
 10491      4E5F5243 
 10491      345F5345 
 10491      54555000 
 10492              	.LASF530:
 10493 2f7e 4B5F4346 		.ascii	"K_CF_KbdBL\000"
 10493      5F4B6264 
 10493      424C00
 10494              	.LASF91:
 10495 2f89 4F535F46 		.ascii	"OS_FN_RSA\000"
ARM GAS  C:\Users\AHMED~1.ELE\AppData\Local\Temp\ccWMHy5f.s 			page 242


 10495      4E5F5253 
 10495      4100
 10496              	.LASF337:
 10497 2f93 4F535F46 		.ascii	"OS_FN_USBHOST_RHPORT_STATUS\000"
 10497      4E5F5553 
 10497      42484F53 
 10497      545F5248 
 10497      504F5254 
 10498              	.LASF150:
 10499 2faf 4F535F46 		.ascii	"OS_FN_LED_CLOSE\000"
 10499      4E5F4C45 
 10499      445F434C 
 10499      4F534500 
 10500              	.LASF351:
 10501 2fbf 4F535F46 		.ascii	"OS_FN_DEVICE_UNMOUNT\000"
 10501      4E5F4445 
 10501      56494345 
 10501      5F554E4D 
 10501      4F554E54 
 10502              	.LASF701:
 10503 2fd4 436C7243 		.ascii	"ClrCTLKey\000"
 10503      544C4B65 
 10503      7900
 10504              	.LASF215:
 10505 2fde 4F535F46 		.ascii	"OS_FN_MMC_SIZE\000"
 10505      4E5F4D4D 
 10505      435F5349 
 10505      5A4500
 10506              	.LASF76:
 10507 2fed 4F535F46 		.ascii	"OS_FN_COM3_RXRDY\000"
 10507      4E5F434F 
 10507      4D335F52 
 10507      58524459 
 10507      00
 10508              	.LASF392:
 10509 2ffe 4F535F46 		.ascii	"OS_FN_MIF_INFO_GET\000"
 10509      4E5F4D49 
 10509      465F494E 
 10509      464F5F47 
 10509      455400
 10510              	.LASF656:
 10511 3011 41504D5F 		.ascii	"APM_SDEV_MAX\000"
 10511      53444556 
 10511      5F4D4158 
 10511      00
 10512              	.LASF722:
 10513 301e 61436667 		.ascii	"aCfg\000"
 10513      00
 10514              	.LASF249:
 10515 3023 4F535F46 		.ascii	"OS_FN_USBSER_ENABLE\000"
 10515      4E5F5553 
 10515      42534552 
 10515      5F454E41 
 10515      424C4500 
 10516              	.LASF447:
 10517 3037 4F535F46 		.ascii	"OS_FN_LPT_RESET_COUNT\000"
 10517      4E5F4C50 
ARM GAS  C:\Users\AHMED~1.ELE\AppData\Local\Temp\ccWMHy5f.s 			page 243


 10517      545F5245 
 10517      5345545F 
 10517      434F554E 
 10518              	.LASF20:
 10519 304d 4F535F46 		.ascii	"OS_FN_KBD_CLOSE\000"
 10519      4E5F4B42 
 10519      445F434C 
 10519      4F534500 
 10520              	.LASF717:
 10521 305d 6F666673 		.ascii	"offset\000"
 10521      657400
 10522              	.LASF615:
 10523 3064 46464C55 		.ascii	"FFLUSHMW\000"
 10523      53484D57 
 10523      00
 10524              	.LASF517:
 10525 306d 4B5F4346 		.ascii	"K_CF_ParsePhrase\000"
 10525      5F506172 
 10525      73655068 
 10525      72617365 
 10525      00
 10526              	.LASF292:
 10527 307e 4F535F46 		.ascii	"OS_FN_GPRS_STATUS\000"
 10527      4E5F4750 
 10527      52535F53 
 10527      54415455 
 10527      5300
 10528              	.LASF525:
 10529 3090 4B5F4346 		.ascii	"K_CF_GprsPowerOnOff\000"
 10529      5F477072 
 10529      73506F77 
 10529      65724F6E 
 10529      4F666600 
 10530              	.LASF82:
 10531 30a4 4F535F46 		.ascii	"OS_FN_COM3_SSEND\000"
 10531      4E5F434F 
 10531      4D335F53 
 10531      53454E44 
 10531      00
 10532              	.LASF700:
 10533 30b5 696E666F 		.ascii	"info_data\000"
 10533      5F646174 
 10533      6100
 10534              	.LASF410:
 10535 30bf 4F535F46 		.ascii	"OS_FN_NFC_CLOSE\000"
 10535      4E5F4E46 
 10535      435F434C 
 10535      4F534500 
 10536              	.LASF16:
 10537 30cf 4F535F46 		.ascii	"OS_FN_GET_VERSION\000"
 10537      4E5F4745 
 10537      545F5645 
 10537      5253494F 
 10537      4E00
 10538              	.LASF698:
 10539 30e1 64617461 		.ascii	"data\000"
 10539      00
ARM GAS  C:\Users\AHMED~1.ELE\AppData\Local\Temp\ccWMHy5f.s 			page 244


 10540              	.LASF290:
 10541 30e6 4F535F46 		.ascii	"OS_FN_ADC_CH_READ\000"
 10541      4E5F4144 
 10541      435F4348 
 10541      5F524541 
 10541      4400
 10542              	.LASF268:
 10543 30f8 4F535F46 		.ascii	"OS_FN_MDM_CLOSE\000"
 10543      4E5F4D44 
 10543      4D5F434C 
 10543      4F534500 
 10544              	.LASF628:
 10545 3108 44495350 		.ascii	"DISP_PUTNMW\000"
 10545      5F505554 
 10545      4E4D5700 
 10546              	.LASF443:
 10547 3114 4F535F46 		.ascii	"OS_FN_DMK_INJECT\000"
 10547      4E5F444D 
 10547      4B5F494E 
 10547      4A454354 
 10547      00
 10548              	.LASF599:
 10549 3125 52454144 		.ascii	"READMW\000"
 10549      4D5700
 10550              	.LASF31:
 10551 312c 4F535F46 		.ascii	"OS_FN_BUZ_CLOSE\000"
 10551      4E5F4255 
 10551      5A5F434C 
 10551      4F534500 
 10552              	.LASF172:
 10553 313c 4F535F46 		.ascii	"OS_FN_FILE_FLUSHED\000"
 10553      4E5F4649 
 10553      4C455F46 
 10553      4C555348 
 10553      454400
 10554              	.LASF687:
 10555 314f 434C5846 		.ascii	"CLXF_CL_APDUCMD\000"
 10555      5F434C5F 
 10555      41504455 
 10555      434D4400 
 10556              	.LASF46:
 10557 315f 4F535F46 		.ascii	"OS_FN_DISP_GET_LCD_BUFFER\000"
 10557      4E5F4449 
 10557      53505F47 
 10557      45545F4C 
 10557      43445F42 
 10558              	.LASF721:
 10559 3179 47657443 		.ascii	"GetCTLAppCfg\000"
 10559      544C4170 
 10559      70436667 
 10559      00
 10560              	.LASF72:
 10561 3186 4F535F46 		.ascii	"OS_FN_COM2_SREAD\000"
 10561      4E5F434F 
 10561      4D325F53 
 10561      52454144 
 10561      00
ARM GAS  C:\Users\AHMED~1.ELE\AppData\Local\Temp\ccWMHy5f.s 			page 245


 10562              	.LASF375:
 10563 3197 4F535F46 		.ascii	"OS_FN_MIF_STATUS\000"
 10563      4E5F4D49 
 10563      465F5354 
 10563      41545553 
 10563      00
 10564              	.LASF333:
 10565 31a8 4F535F46 		.ascii	"OS_FN_USBHOST_SUBMIT_BUFFER\000"
 10565      4E5F5553 
 10565      42484F53 
 10565      545F5355 
 10565      424D4954 
 10566              	.LASF678:
 10567 31c4 61625249 		.ascii	"abRID\000"
 10567      4400
 10568              	.LASF202:
 10569 31ca 4F535F46 		.ascii	"OS_FN_CONFIG_WRITE\000"
 10569      4E5F434F 
 10569      4E464947 
 10569      5F575249 
 10569      544500
 10570              	.LASF334:
 10571 31dd 4F535F46 		.ascii	"OS_FN_USBHOST_UNLINK_BUFFER\000"
 10571      4E5F5553 
 10571      42484F53 
 10571      545F554E 
 10571      4C494E4B 
 10572              		.ident	"GCC: (GNU Tools for ARM Embedded Processors) 4.9.3 20141119 (release) [ARM/embedded-4_9-br
ARM GAS  C:\Users\AHMED~1.ELE\AppData\Local\Temp\ccWMHy5f.s 			page 246


DEFINED SYMBOLS
                            *ABS*:00000000 ctlcfg.c
C:\Users\AHMED~1.ELE\AppData\Local\Temp\ccWMHy5f.s:19     .text.KernelReady:00000000 $t
C:\Users\AHMED~1.ELE\AppData\Local\Temp\ccWMHy5f.s:23     .text.KernelReady:00000000 KernelReady
C:\Users\AHMED~1.ELE\AppData\Local\Temp\ccWMHy5f.s:48     .text.CTLFatal:00000000 $t
C:\Users\AHMED~1.ELE\AppData\Local\Temp\ccWMHy5f.s:52     .text.CTLFatal:00000000 CTLFatal
C:\Users\AHMED~1.ELE\AppData\Local\Temp\ccWMHy5f.s:86     .text.CTLFatal:00000020 $d
C:\Users\AHMED~1.ELE\AppData\Local\Temp\ccWMHy5f.s:91     .text.ClrCTLKey:00000000 $t
C:\Users\AHMED~1.ELE\AppData\Local\Temp\ccWMHy5f.s:96     .text.ClrCTLKey:00000000 ClrCTLKey
C:\Users\AHMED~1.ELE\AppData\Local\Temp\ccWMHy5f.s:174    .text.ClrCTLKey:00000044 $d
C:\Users\AHMED~1.ELE\AppData\Local\Temp\ccWMHy5f.s:179    .text.ClrCTLParam:00000000 $t
C:\Users\AHMED~1.ELE\AppData\Local\Temp\ccWMHy5f.s:184    .text.ClrCTLParam:00000000 ClrCTLParam
C:\Users\AHMED~1.ELE\AppData\Local\Temp\ccWMHy5f.s:254    .text.ClrCTLParam:00000050 $d
C:\Users\AHMED~1.ELE\AppData\Local\Temp\ccWMHy5f.s:259    .text.SetCTLLoaded:00000000 $t
C:\Users\AHMED~1.ELE\AppData\Local\Temp\ccWMHy5f.s:264    .text.SetCTLLoaded:00000000 SetCTLLoaded
C:\Users\AHMED~1.ELE\AppData\Local\Temp\ccWMHy5f.s:282    .text.SetCTLLoaded:0000000c $d
C:\Users\AHMED~1.ELE\AppData\Local\Temp\ccWMHy5f.s:287    .text.CTLClrDnloadBuf:00000000 $t
C:\Users\AHMED~1.ELE\AppData\Local\Temp\ccWMHy5f.s:292    .text.CTLClrDnloadBuf:00000000 CTLClrDnloadBuf
C:\Users\AHMED~1.ELE\AppData\Local\Temp\ccWMHy5f.s:369    .text.CTLClrDnloadBuf:0000005c $d
C:\Users\AHMED~1.ELE\AppData\Local\Temp\ccWMHy5f.s:376    .text.CTLKillDnloadBuf:00000000 $t
C:\Users\AHMED~1.ELE\AppData\Local\Temp\ccWMHy5f.s:381    .text.CTLKillDnloadBuf:00000000 CTLKillDnloadBuf
C:\Users\AHMED~1.ELE\AppData\Local\Temp\ccWMHy5f.s:432    .text.CTLKillDnloadBuf:00000038 $d
C:\Users\AHMED~1.ELE\AppData\Local\Temp\ccWMHy5f.s:438    .text.CTLData2DnloadBuf:00000000 $t
C:\Users\AHMED~1.ELE\AppData\Local\Temp\ccWMHy5f.s:443    .text.CTLData2DnloadBuf:00000000 CTLData2DnloadBuf
C:\Users\AHMED~1.ELE\AppData\Local\Temp\ccWMHy5f.s:537    .text.CTLData2DnloadBuf:00000070 $d
C:\Users\AHMED~1.ELE\AppData\Local\Temp\ccWMHy5f.s:543    .text.CTLDataUpdate:00000000 $t
C:\Users\AHMED~1.ELE\AppData\Local\Temp\ccWMHy5f.s:548    .text.CTLDataUpdate:00000000 CTLDataUpdate
C:\Users\AHMED~1.ELE\AppData\Local\Temp\ccWMHy5f.s:754    .text.CTLDataUpdate:0000013c $d
C:\Users\AHMED~1.ELE\AppData\Local\Temp\ccWMHy5f.s:760    .text.GetCTLKeyInfo:00000000 $t
C:\Users\AHMED~1.ELE\AppData\Local\Temp\ccWMHy5f.s:765    .text.GetCTLKeyInfo:00000000 GetCTLKeyInfo
C:\Users\AHMED~1.ELE\AppData\Local\Temp\ccWMHy5f.s:835    .text.GetCTLKeyInfo:00000040 $d
C:\Users\AHMED~1.ELE\AppData\Local\Temp\ccWMHy5f.s:842    .text.PrintCTLParam:00000000 $t
C:\Users\AHMED~1.ELE\AppData\Local\Temp\ccWMHy5f.s:847    .text.PrintCTLParam:00000000 PrintCTLParam
C:\Users\AHMED~1.ELE\AppData\Local\Temp\ccWMHy5f.s:1002   .text.PrintCTLParam:000000d4 $d
C:\Users\AHMED~1.ELE\AppData\Local\Temp\ccWMHy5f.s:1007   .text.PrintCTLParam:000000dc $t
C:\Users\AHMED~1.ELE\AppData\Local\Temp\ccWMHy5f.s:1458   .text.PrintCTLParam:000003e4 $d
C:\Users\AHMED~1.ELE\AppData\Local\Temp\ccWMHy5f.s:1478   .text.PrintCTLParam:00000424 $t
C:\Users\AHMED~1.ELE\AppData\Local\Temp\ccWMHy5f.s:1828   .text.PrintCTLParam:0000063c $d
C:\Users\AHMED~1.ELE\AppData\Local\Temp\ccWMHy5f.s:1840   .text.CTLUtilStart:00000000 $t
C:\Users\AHMED~1.ELE\AppData\Local\Temp\ccWMHy5f.s:1845   .text.CTLUtilStart:00000000 CTLUtilStart
C:\Users\AHMED~1.ELE\AppData\Local\Temp\ccWMHy5f.s:1899   .text.CTLUtilStart:00000040 $d
C:\Users\AHMED~1.ELE\AppData\Local\Temp\ccWMHy5f.s:1907   .rodata:00000000 KCTLTemp
C:\Users\AHMED~1.ELE\AppData\Local\Temp\ccWMHy5f.s:1963   .data:00000000 $d
C:\Users\AHMED~1.ELE\AppData\Local\Temp\ccWMHy5f.s:1967   .data:00000000 iDnloadFile
C:\Users\AHMED~1.ELE\AppData\Local\Temp\ccWMHy5f.s:1970   .bss:00000000 $d
C:\Users\AHMED~1.ELE\AppData\Local\Temp\ccWMHy5f.s:1974   .bss:00000000 sCTLIn
C:\Users\AHMED~1.ELE\AppData\Local\Temp\ccWMHy5f.s:1978   .bss:00000004 sCTLOut
C:\Users\AHMED~1.ELE\AppData\Local\Temp\ccWMHy5f.s:1982   .bss:00000008 sbIOBuf
C:\Users\AHMED~1.ELE\AppData\Local\Temp\ccWMHy5f.s:1986   .bss:0000000c bCtlLoaded
C:\Users\AHMED~1.ELE\AppData\Local\Temp\ccWMHy5f.s:1991   .bss:0000000e wChunkSize
C:\Users\AHMED~1.ELE\AppData\Local\Temp\ccWMHy5f.s:1995   .bss:00000010 bMaxNumBlk
C:\Users\AHMED~1.ELE\AppData\Local\Temp\ccWMHy5f.s:1999   .bss:00000011 bDnloadBlk
                     .debug_frame:00000010 $d

UNDEFINED SYMBOLS
sys_func1
DispPutStr
ARM GAS  C:\Users\AHMED~1.ELE\AppData\Local\Temp\ccWMHy5f.s 			page 247


WaitKey
sys_func0
memset
lib_app_call
sys_func2
strcpy
memcpy
__aeabi_uidiv
__aeabi_uidivmod
LDLoad
split
PackInfoData
sprintf
strlen
ConvDecimal
DispInfoData
PrintRcptLF
LptPutS
PrintBuf
MemFatalErr
