ARM GAS  C:\Users\AHMED~1.ELE\AppData\Local\Temp\ccWMHy5f.s 			page 1


   1              		.syntax unified
   2              		.cpu cortex-a5
   3              		.fpu softvfp
   4              		.eabi_attribute 20, 1
   5              		.eabi_attribute 21, 1
   6              		.eabi_attribute 23, 3
   7              		.eabi_attribute 24, 1
   8              		.eabi_attribute 25, 1
   9              		.eabi_attribute 26, 1
  10              		.eabi_attribute 30, 4
  11              		.eabi_attribute 34, 0
  12              		.eabi_attribute 18, 4
  13              		.thumb
  14              		.file	"ctlcfg.c"
  15              		.text
  16              	.Ltext0:
  17              		.cfi_sections	.debug_frame
  18              		.section	.text.KernelReady,"ax",%progbits
  19              		.align	1
  20              		.thumb
  21              		.thumb_func
  22              		.type	KernelReady, %function
  23              	KernelReady:
  24              	.LFB0:
  25              		.file 1 "src/ctlcfg.c"
   1:src/ctlcfg.c  **** //-----------------------------------------------------------------------------
   2:src/ctlcfg.c  **** //  File          : CTLCfg.c
   3:src/ctlcfg.c  **** //  Module        :
   4:src/ctlcfg.c  **** //  Description   : CTL Configuration Process.
   5:src/ctlcfg.c  **** //  Author        : Lewis
   6:src/ctlcfg.c  **** //  Notes         :
   7:src/ctlcfg.c  **** //
   8:src/ctlcfg.c  **** // ============================================================================
   9:src/ctlcfg.c  **** // | Naming conventions                                                       |
  10:src/ctlcfg.c  **** // | ~~~~~~~~~~~~~~~~~~                                                       |
  11:src/ctlcfg.c  **** // |        Struct define : Leading T                                         |
  12:src/ctlcfg.c  **** // |         Struct/Array : Leading s                                         |
  13:src/ctlcfg.c  **** // |             Constant : Leading K                                         |
  14:src/ctlcfg.c  **** // |      Global Variable : Leading g  (variable use outside one C file)      |
  15:src/ctlcfg.c  **** // |                                                                          |
  16:src/ctlcfg.c  **** // |   BYTE( 8 Bits) size : Leading b                                         |
  17:src/ctlcfg.c  **** // |   CHAR( 8 Bits) size : Leading c                                         |
  18:src/ctlcfg.c  **** // |   WORD(16 Bits) size : Leading w                                         |
  19:src/ctlcfg.c  **** // |  DWORD(32 Bits) size : Leading d                                         |
  20:src/ctlcfg.c  **** // |    int(32 Bits) size : Leading i                                         |
  21:src/ctlcfg.c  **** // | DDWORD(64 Bits) size : Leading dd                                        |
  22:src/ctlcfg.c  **** // |              Pointer : Leading p                                         |
  23:src/ctlcfg.c  **** // |                                                                          |
  24:src/ctlcfg.c  **** // |    Function argument : Leading a                                         |
  25:src/ctlcfg.c  **** // |       Local Variable : All lower case                                    |
  26:src/ctlcfg.c  **** // |                                                                          |
  27:src/ctlcfg.c  **** // | Examples:                                                                |
  28:src/ctlcfg.c  **** // |                Array : Leading s, (sb = arrary of byte, etc)             |
  29:src/ctlcfg.c  **** // |              Pointer : Leading p, (pb = pointer of byte, etc)            |
  30:src/ctlcfg.c  **** // ============================================================================
  31:src/ctlcfg.c  **** //
  32:src/ctlcfg.c  **** //  Date          Who         Action
ARM GAS  C:\Users\AHMED~1.ELE\AppData\Local\Temp\ccWMHy5f.s 			page 2


  33:src/ctlcfg.c  **** //  ------------  ----------- -------------------------------------------------
  34:src/ctlcfg.c  **** //  29 Sept 2008  Lewis       Initial Version.
  35:src/ctlcfg.c  **** //-----------------------------------------------------------------------------
  36:src/ctlcfg.c  **** #include <string.h>
  37:src/ctlcfg.c  **** #include "midware.h"
  38:src/ctlcfg.c  **** #include "util.h"
  39:src/ctlcfg.c  **** #include "hardware.h"
  40:src/ctlcfg.c  **** #include "emv2dll.h"
  41:src/ctlcfg.c  **** #include "emvcl2dll.h"
  42:src/ctlcfg.c  **** #include "sysutil.h"
  43:src/ctlcfg.c  **** #include "kbdutil.h"
  44:src/ctlcfg.c  **** #include "infodata.h"
  45:src/ctlcfg.c  **** #include "lptutil.h"
  46:src/ctlcfg.c  **** #include "emvtrans.h"
  47:src/ctlcfg.c  **** #include "ctlcfg.h"
  48:src/ctlcfg.c  **** 
  49:src/ctlcfg.c  **** //-----------------------------------------------------------------------------
  50:src/ctlcfg.c  **** //      Common Defines
  51:src/ctlcfg.c  **** //-----------------------------------------------------------------------------
  52:src/ctlcfg.c  **** 
  53:src/ctlcfg.c  **** //-----------------------------------------------------------------------------
  54:src/ctlcfg.c  **** //    Constant Message
  55:src/ctlcfg.c  **** //-----------------------------------------------------------------------------
  56:src/ctlcfg.c  **** 
  57:src/ctlcfg.c  **** //-----------------------------------------------------------------------------
  58:src/ctlcfg.c  **** //    Global Variables
  59:src/ctlcfg.c  **** //-----------------------------------------------------------------------------
  60:src/ctlcfg.c  **** static BYTE   *sbIOBuf;
  61:src/ctlcfg.c  **** static CL_IO  *sCTLIn;
  62:src/ctlcfg.c  **** static CL_IO  *sCTLOut;
  63:src/ctlcfg.c  **** static BYTE   bCtlLoaded;
  64:src/ctlcfg.c  **** static BYTE   bMaxNumBlk, bDnloadBlk;
  65:src/ctlcfg.c  **** static WORD   wChunkSize;
  66:src/ctlcfg.c  **** static int    iDnloadFile = -1;
  67:src/ctlcfg.c  **** 
  68:src/ctlcfg.c  **** static const BYTE KCTLTemp[] = {"ctl_tmp"};
  69:src/ctlcfg.c  **** 
  70:src/ctlcfg.c  **** 
  71:src/ctlcfg.c  **** //*****************************************************************************
  72:src/ctlcfg.c  **** //  Function        : KernelReady
  73:src/ctlcfg.c  **** //  Description     : Check Whether CTL Kernel exist
  74:src/ctlcfg.c  **** //  Input           : N/A
  75:src/ctlcfg.c  **** //  Return          : N/A
  76:src/ctlcfg.c  **** //  Note            : N/A
  77:src/ctlcfg.c  **** //  Globals Changed : N/A
  78:src/ctlcfg.c  **** //*****************************************************************************
  79:src/ctlcfg.c  **** static BOOLEAN KernelReady(void)
  80:src/ctlcfg.c  **** {
  26              		.loc 1 80 0
  27              		.cfi_startproc
  28              		@ args = 0, pretend = 0, frame = 0
  29              		@ frame_needed = 0, uses_anonymous_args = 0
  30 0000 08B5     		push	{r3, lr}
  31              		.cfi_def_cfa_offset 8
  32              		.cfi_offset 3, -8
  33              		.cfi_offset 14, -4
  81:src/ctlcfg.c  ****   if (!IsAppIdExistMW(EMVCLDLL_ID))
ARM GAS  C:\Users\AHMED~1.ELE\AppData\Local\Temp\ccWMHy5f.s 			page 3


  34              		.loc 1 81 0
  35 0002 6421     		movs	r1, #100
  36 0004 8D20     		movs	r0, #141
  37 0006 FFF7FEFF 		bl	sys_func1
  38              	.LVL0:
  82:src/ctlcfg.c  ****     return FALSE;
  83:src/ctlcfg.c  **** 
  84:src/ctlcfg.c  ****   return TRUE;
  85:src/ctlcfg.c  **** }
  39              		.loc 1 85 0
  40 000a 0030     		adds	r0, r0, #0
  41 000c 18BF     		it	ne
  42 000e 0120     		movne	r0, #1
  43 0010 08BD     		pop	{r3, pc}
  44              		.cfi_endproc
  45              	.LFE0:
  46              		.size	KernelReady, .-KernelReady
  47              		.section	.text.CTLFatal,"ax",%progbits
  48              		.align	1
  49              		.thumb
  50              		.thumb_func
  51              		.type	CTLFatal, %function
  52              	CTLFatal:
  53              	.LFB1:
  86:src/ctlcfg.c  **** //*****************************************************************************
  87:src/ctlcfg.c  **** //  Function        : CTLFatal
  88:src/ctlcfg.c  **** //  Description     : CTL Fatal Error.
  89:src/ctlcfg.c  **** //  Input           : N/A
  90:src/ctlcfg.c  **** //  Return          : N/A
  91:src/ctlcfg.c  **** //  Note            : N/A
  92:src/ctlcfg.c  **** //  Globals Changed : N/A
  93:src/ctlcfg.c  **** //*****************************************************************************
  94:src/ctlcfg.c  **** static void CTLFatal(void)
  95:src/ctlcfg.c  **** {
  54              		.loc 1 95 0
  55              		.cfi_startproc
  56              		@ args = 0, pretend = 0, frame = 0
  57              		@ frame_needed = 0, uses_anonymous_args = 0
  58 0000 08B5     		push	{r3, lr}
  59              		.cfi_def_cfa_offset 8
  60              		.cfi_offset 3, -8
  61              		.cfi_offset 14, -4
  96:src/ctlcfg.c  ****   DispPutStr("\f\nCTL2 FATAL ERR\nPLS CALL SERVICE");
  62              		.loc 1 96 0
  63 0002 0748     		ldr	r0, .L6
  64 0004 FFF7FEFF 		bl	DispPutStr
  65              	.LVL1:
  66              	.L3:
  97:src/ctlcfg.c  ****   while (WaitKey(KBD_TIMEOUT) != MWKEY_CANCL);
  67              		.loc 1 97 0 discriminator 1
  68 0008 42F22830 		movw	r0, #9000
  69 000c FFF7FEFF 		bl	WaitKey
  70              	.LVL2:
  71 0010 1128     		cmp	r0, #17
  72 0012 F9D1     		bne	.L3
  98:src/ctlcfg.c  ****   ResetMW();
  73              		.loc 1 98 0
ARM GAS  C:\Users\AHMED~1.ELE\AppData\Local\Temp\ccWMHy5f.s 			page 4


  74 0014 4FF4CF70 		mov	r0, #414
  99:src/ctlcfg.c  **** }
  75              		.loc 1 99 0
  76 0018 BDE80840 		pop	{r3, lr}
  77              		.cfi_restore 14
  78              		.cfi_restore 3
  79              		.cfi_def_cfa_offset 0
  98:src/ctlcfg.c  ****   ResetMW();
  80              		.loc 1 98 0
  81 001c FFF7FEBF 		b	sys_func0
  82              	.LVL3:
  83              	.L7:
  84              		.align	2
  85              	.L6:
  86 0020 00000000 		.word	.LC0
  87              		.cfi_endproc
  88              	.LFE1:
  89              		.size	CTLFatal, .-CTLFatal
  90              		.section	.text.ClrCTLKey,"ax",%progbits
  91              		.align	1
  92              		.global	ClrCTLKey
  93              		.thumb
  94              		.thumb_func
  95              		.type	ClrCTLKey, %function
  96              	ClrCTLKey:
  97              	.LFB2:
 100:src/ctlcfg.c  **** //*****************************************************************************
 101:src/ctlcfg.c  **** //  Function        : ClrCTLKey
 102:src/ctlcfg.c  **** //  Description     : Clear All CTL Keys.
 103:src/ctlcfg.c  **** //  Input           : N/A
 104:src/ctlcfg.c  **** //  Return          : N/A
 105:src/ctlcfg.c  **** //  Note            : N/A
 106:src/ctlcfg.c  **** //  Globals Changed : N/A
 107:src/ctlcfg.c  **** //*****************************************************************************
 108:src/ctlcfg.c  **** void ClrCTLKey(void)
 109:src/ctlcfg.c  **** {
  98              		.loc 1 109 0
  99              		.cfi_startproc
 100              		@ args = 0, pretend = 0, frame = 0
 101              		@ frame_needed = 0, uses_anonymous_args = 0
 102 0000 73B5     		push	{r0, r1, r4, r5, r6, lr}
 103              		.cfi_def_cfa_offset 24
 104              		.cfi_offset 4, -16
 105              		.cfi_offset 5, -12
 106              		.cfi_offset 6, -8
 107              		.cfi_offset 14, -4
 110:src/ctlcfg.c  ****   if (!KernelReady())
 108              		.loc 1 110 0
 109 0002 FFF7FEFF 		bl	KernelReady
 110              	.LVL4:
 111 0006 D0B1     		cbz	r0, .L8
 112              	.LBB4:
 113              	.LBB5:
 111:src/ctlcfg.c  ****     return;
 112:src/ctlcfg.c  **** 
 113:src/ctlcfg.c  ****   sCTLIn->pbMsg = sCTLOut->pbMsg = sbIOBuf;
 114              		.loc 1 113 0
ARM GAS  C:\Users\AHMED~1.ELE\AppData\Local\Temp\ccWMHy5f.s 			page 5


 115 0008 0E4B     		ldr	r3, .L12
 114:src/ctlcfg.c  ****   memset(sCTLIn->pbMsg, 0, 6);
 116              		.loc 1 114 0
 117 000a 0626     		movs	r6, #6
 113:src/ctlcfg.c  ****   memset(sCTLIn->pbMsg, 0, 6);
 118              		.loc 1 113 0
 119 000c 93E83000 		ldmia	r3, {r4, r5}
 120 0010 9868     		ldr	r0, [r3, #8]
 121              		.loc 1 114 0
 122 0012 0021     		movs	r1, #0
 113:src/ctlcfg.c  ****   memset(sCTLIn->pbMsg, 0, 6);
 123              		.loc 1 113 0
 124 0014 6860     		str	r0, [r5, #4]
 125              		.loc 1 114 0
 126 0016 3246     		mov	r2, r6
 113:src/ctlcfg.c  ****   memset(sCTLIn->pbMsg, 0, 6);
 127              		.loc 1 113 0
 128 0018 6060     		str	r0, [r4, #4]
 129              		.loc 1 114 0
 130 001a FFF7FEFF 		bl	memset
 131              	.LVL5:
 115:src/ctlcfg.c  ****   sCTLIn->wLen = 6;
 132              		.loc 1 115 0
 133 001e 2680     		strh	r6, [r4]	@ movhi
 116:src/ctlcfg.c  ****   if (emvclSetup(CLCMD_KEY_LOADING,sCTLIn,sCTLOut) == FALSE)     // clear all key
 134              		.loc 1 116 0
 135 0020 6420     		movs	r0, #100
 136 0022 0095     		str	r5, [sp]
 137 0024 0021     		movs	r1, #0
 138 0026 0222     		movs	r2, #2
 139 0028 2346     		mov	r3, r4
 140 002a FFF7FEFF 		bl	lib_app_call
 141              	.LVL6:
 142 002e 10F0FF0F 		tst	r0, #255
 143 0032 04D1     		bne	.L8
 144              	.LBE5:
 145              	.LBE4:
 117:src/ctlcfg.c  ****     CTLFatal();
 118:src/ctlcfg.c  **** }
 146              		.loc 1 118 0
 147 0034 02B0     		add	sp, sp, #8
 148              		.cfi_remember_state
 149              		.cfi_def_cfa_offset 16
 150              		@ sp needed
 151 0036 BDE87040 		pop	{r4, r5, r6, lr}
 152              		.cfi_restore 14
 153              		.cfi_restore 6
 154              		.cfi_restore 5
 155              		.cfi_restore 4
 156              		.cfi_def_cfa_offset 0
 157              	.LBB7:
 158              	.LBB6:
 117:src/ctlcfg.c  ****     CTLFatal();
 159              		.loc 1 117 0
 160 003a FFF7FEBF 		b	CTLFatal
 161              	.LVL7:
 162              	.L8:
ARM GAS  C:\Users\AHMED~1.ELE\AppData\Local\Temp\ccWMHy5f.s 			page 6


 163              		.cfi_restore_state
 164              	.LBE6:
 165              	.LBE7:
 166              		.loc 1 118 0
 167 003e 02B0     		add	sp, sp, #8
 168              		.cfi_def_cfa_offset 16
 169              		@ sp needed
 170 0040 70BD     		pop	{r4, r5, r6, pc}
 171              	.L13:
 172 0042 00BF     		.align	2
 173              	.L12:
 174 0044 00000000 		.word	.LANCHOR0
 175              		.cfi_endproc
 176              	.LFE2:
 177              		.size	ClrCTLKey, .-ClrCTLKey
 178              		.section	.text.ClrCTLParam,"ax",%progbits
 179              		.align	1
 180              		.global	ClrCTLParam
 181              		.thumb
 182              		.thumb_func
 183              		.type	ClrCTLParam, %function
 184              	ClrCTLParam:
 185              	.LFB3:
 119:src/ctlcfg.c  **** //*****************************************************************************
 120:src/ctlcfg.c  **** //  Function        : ClrCTLParam
 121:src/ctlcfg.c  **** //  Description     : Clear all CTL dll's parameters.
 122:src/ctlcfg.c  **** //  Input           : N/A
 123:src/ctlcfg.c  **** //  Return          : N/A
 124:src/ctlcfg.c  **** //  Note            : N/A
 125:src/ctlcfg.c  **** //  Globals Changed : N/A
 126:src/ctlcfg.c  **** //*****************************************************************************
 127:src/ctlcfg.c  **** void ClrCTLParam(void)
 128:src/ctlcfg.c  **** {
 186              		.loc 1 128 0
 187              		.cfi_startproc
 188              		@ args = 0, pretend = 0, frame = 0
 189              		@ frame_needed = 0, uses_anonymous_args = 0
 190 0000 13B5     		push	{r0, r1, r4, lr}
 191              		.cfi_def_cfa_offset 16
 192              		.cfi_offset 4, -8
 193              		.cfi_offset 14, -4
 129:src/ctlcfg.c  ****   if (!KernelReady())
 194              		.loc 1 129 0
 195 0002 FFF7FEFF 		bl	KernelReady
 196              	.LVL8:
 197 0006 00B3     		cbz	r0, .L14
 198              	.LBB10:
 199              	.LBB11:
 130:src/ctlcfg.c  ****     return;
 131:src/ctlcfg.c  **** 
 132:src/ctlcfg.c  ****   sCTLIn->pbMsg = sCTLOut->pbMsg = sbIOBuf;
 200              		.loc 1 132 0
 201 0008 114C     		ldr	r4, .L20
 133:src/ctlcfg.c  **** 
 134:src/ctlcfg.c  ****   GetSysCfgMW(K_CF_SerialNo, sCTLIn->pbMsg);
 202              		.loc 1 134 0
 203 000a B920     		movs	r0, #185
ARM GAS  C:\Users\AHMED~1.ELE\AppData\Local\Temp\ccWMHy5f.s 			page 7


 132:src/ctlcfg.c  **** 
 204              		.loc 1 132 0
 205 000c A268     		ldr	r2, [r4, #8]
 206 000e 2368     		ldr	r3, [r4]
 207 0010 6168     		ldr	r1, [r4, #4]
 208 0012 4A60     		str	r2, [r1, #4]
 209 0014 5A60     		str	r2, [r3, #4]
 210              		.loc 1 134 0
 211 0016 0221     		movs	r1, #2
 212 0018 FFF7FEFF 		bl	sys_func2
 213              	.LVL9:
 135:src/ctlcfg.c  ****   sCTLIn->wLen = 8;
 214              		.loc 1 135 0
 215 001c 2368     		ldr	r3, [r4]
 216 001e 0822     		movs	r2, #8
 136:src/ctlcfg.c  **** 
 137:src/ctlcfg.c  ****   if (emvclSetup(CLCMD_IFDSN_RW,sCTLIn,sCTLOut) == FALSE)     // set IFDSN
 217              		.loc 1 137 0
 218 0020 6420     		movs	r0, #100
 135:src/ctlcfg.c  ****   sCTLIn->wLen = 8;
 219              		.loc 1 135 0
 220 0022 1A80     		strh	r2, [r3]	@ movhi
 221              		.loc 1 137 0
 222 0024 6268     		ldr	r2, [r4, #4]
 223 0026 0021     		movs	r1, #0
 224 0028 0092     		str	r2, [sp]
 225 002a 0122     		movs	r2, #1
 226 002c FFF7FEFF 		bl	lib_app_call
 227              	.LVL10:
 228 0030 10F0FF0F 		tst	r0, #255
 229 0034 01D1     		bne	.L16
 138:src/ctlcfg.c  ****     CTLFatal();
 230              		.loc 1 138 0
 231 0036 FFF7FEFF 		bl	CTLFatal
 232              	.LVL11:
 233              	.L16:
 139:src/ctlcfg.c  **** 
 140:src/ctlcfg.c  ****   emvclSetup(CLCMD_CLR_AID,sCTLIn,sCTLOut);              // clear AID parameters
 234              		.loc 1 140 0
 235 003a 6368     		ldr	r3, [r4, #4]
 236 003c 6420     		movs	r0, #100
 237 003e 0093     		str	r3, [sp]
 238 0040 0021     		movs	r1, #0
 239 0042 0322     		movs	r2, #3
 240 0044 2368     		ldr	r3, [r4]
 241 0046 FFF7FEFF 		bl	lib_app_call
 242              	.LVL12:
 243              	.L14:
 244              	.LBE11:
 245              	.LBE10:
 141:src/ctlcfg.c  **** }
 246              		.loc 1 141 0
 247 004a 02B0     		add	sp, sp, #8
 248              		.cfi_def_cfa_offset 8
 249              		@ sp needed
 250 004c 10BD     		pop	{r4, pc}
 251              	.L21:
ARM GAS  C:\Users\AHMED~1.ELE\AppData\Local\Temp\ccWMHy5f.s 			page 8


 252 004e 00BF     		.align	2
 253              	.L20:
 254 0050 00000000 		.word	.LANCHOR0
 255              		.cfi_endproc
 256              	.LFE3:
 257              		.size	ClrCTLParam, .-ClrCTLParam
 258              		.section	.text.SetCTLLoaded,"ax",%progbits
 259              		.align	1
 260              		.global	SetCTLLoaded
 261              		.thumb
 262              		.thumb_func
 263              		.type	SetCTLLoaded, %function
 264              	SetCTLLoaded:
 265              	.LFB4:
 142:src/ctlcfg.c  **** //*****************************************************************************
 143:src/ctlcfg.c  **** //  Function        : SetCTLLoaded
 144:src/ctlcfg.c  **** //  Description     : set CTL loaded flag
 145:src/ctlcfg.c  **** //  Input           : aFlag
 146:src/ctlcfg.c  **** //  Return          : N/A
 147:src/ctlcfg.c  **** //  Note            : N/A
 148:src/ctlcfg.c  **** //  Globals Changed : N/A
 149:src/ctlcfg.c  **** //*****************************************************************************
 150:src/ctlcfg.c  **** void SetCTLLoaded(BYTE aFlag)
 151:src/ctlcfg.c  **** {
 266              		.loc 1 151 0
 267              		.cfi_startproc
 268              		@ args = 0, pretend = 0, frame = 0
 269              		@ frame_needed = 0, uses_anonymous_args = 0
 270              		@ link register save eliminated.
 271              	.LVL13:
 152:src/ctlcfg.c  ****   bCtlLoaded |= aFlag;
 272              		.loc 1 152 0
 273 0000 024A     		ldr	r2, .L23
 274 0002 137B     		ldrb	r3, [r2, #12]	@ zero_extendqisi2
 275 0004 1843     		orrs	r0, r0, r3
 276              	.LVL14:
 277 0006 1073     		strb	r0, [r2, #12]
 278 0008 7047     		bx	lr
 279              	.L24:
 280 000a 00BF     		.align	2
 281              	.L23:
 282 000c 00000000 		.word	.LANCHOR0
 283              		.cfi_endproc
 284              	.LFE4:
 285              		.size	SetCTLLoaded, .-SetCTLLoaded
 286              		.section	.text.CTLClrDnloadBuf,"ax",%progbits
 287              		.align	1
 288              		.global	CTLClrDnloadBuf
 289              		.thumb
 290              		.thumb_func
 291              		.type	CTLClrDnloadBuf, %function
 292              	CTLClrDnloadBuf:
 293              	.LFB5:
 153:src/ctlcfg.c  **** }
 154:src/ctlcfg.c  **** //*****************************************************************************
 155:src/ctlcfg.c  **** //  Function        : CTLClrDnloadBuf
 156:src/ctlcfg.c  **** //  Description     : Prepare download buffer for CTL data download.
ARM GAS  C:\Users\AHMED~1.ELE\AppData\Local\Temp\ccWMHy5f.s 			page 9


 157:src/ctlcfg.c  **** //  Input           : N/A
 158:src/ctlcfg.c  **** //  Return          : N/A
 159:src/ctlcfg.c  **** //  Note            : N/A
 160:src/ctlcfg.c  **** //  Globals Changed : N/A
 161:src/ctlcfg.c  **** //*****************************************************************************
 162:src/ctlcfg.c  **** void CTLClrDnloadBuf (void)
 163:src/ctlcfg.c  **** {
 294              		.loc 1 163 0
 295              		.cfi_startproc
 296              		@ args = 0, pretend = 0, frame = 32
 297              		@ frame_needed = 0, uses_anonymous_args = 0
 164:src/ctlcfg.c  ****   BYTE filename[32];
 165:src/ctlcfg.c  ****   if (sizeof(CL_CFGP) < sizeof(CL_KEY_ROOM))
 166:src/ctlcfg.c  ****     wChunkSize = sizeof(CL_KEY_ROOM)+3;  // 3B for type and len
 167:src/ctlcfg.c  ****   else
 168:src/ctlcfg.c  ****     wChunkSize = sizeof(CL_CFGP)+3;   // 3B for type and len
 298              		.loc 1 168 0
 299 0000 164A     		ldr	r2, .L27
 163:src/ctlcfg.c  ****   BYTE filename[32];
 300              		.loc 1 163 0
 301 0002 30B5     		push	{r4, r5, lr}
 302              		.cfi_def_cfa_offset 12
 303              		.cfi_offset 4, -12
 304              		.cfi_offset 5, -8
 305              		.cfi_offset 14, -4
 306              		.loc 1 168 0
 307 0004 40F21A23 		movw	r3, #538
 169:src/ctlcfg.c  ****   //bMaxNumBlk = sizeof(sbIOBuf)/wChunkSize;
 170:src/ctlcfg.c  ****   bMaxNumBlk = 1500/wChunkSize;                       //29-09-16 JC ++
 171:src/ctlcfg.c  ****   bDnloadBlk = bCtlLoaded = 0;
 172:src/ctlcfg.c  **** 
 173:src/ctlcfg.c  ****   if (iDnloadFile >= 0) {
 308              		.loc 1 173 0
 309 0008 154C     		ldr	r4, .L27+4
 168:src/ctlcfg.c  ****   //bMaxNumBlk = sizeof(sbIOBuf)/wChunkSize;
 310              		.loc 1 168 0
 311 000a D381     		strh	r3, [r2, #14]	@ movhi
 170:src/ctlcfg.c  ****   bDnloadBlk = bCtlLoaded = 0;
 312              		.loc 1 170 0
 313 000c 0223     		movs	r3, #2
 163:src/ctlcfg.c  ****   BYTE filename[32];
 314              		.loc 1 163 0
 315 000e 8BB0     		sub	sp, sp, #44
 316              		.cfi_def_cfa_offset 56
 170:src/ctlcfg.c  ****   bDnloadBlk = bCtlLoaded = 0;
 317              		.loc 1 170 0
 318 0010 1374     		strb	r3, [r2, #16]
 171:src/ctlcfg.c  **** 
 319              		.loc 1 171 0
 320 0012 0023     		movs	r3, #0
 321 0014 1373     		strb	r3, [r2, #12]
 322 0016 5374     		strb	r3, [r2, #17]
 323              		.loc 1 173 0
 324 0018 2268     		ldr	r2, [r4]
 325 001a 9A42     		cmp	r2, r3
 326 001c 07DB     		blt	.L26
 174:src/ctlcfg.c  ****     fCloseMW(iDnloadFile);
ARM GAS  C:\Users\AHMED~1.ELE\AppData\Local\Temp\ccWMHy5f.s 			page 10


 327              		.loc 1 174 0
 328 001e 0093     		str	r3, [sp]
 329 0020 0F20     		movs	r0, #15
 330 0022 0E21     		movs	r1, #14
 331 0024 FFF7FEFF 		bl	lib_app_call
 332              	.LVL15:
 175:src/ctlcfg.c  ****     iDnloadFile = -1;
 333              		.loc 1 175 0
 334 0028 4FF0FF33 		mov	r3, #-1
 335 002c 2360     		str	r3, [r4]
 336              	.L26:
 176:src/ctlcfg.c  ****   }
 177:src/ctlcfg.c  **** 
 178:src/ctlcfg.c  ****   strcpy(filename, KCTLTemp);
 179:src/ctlcfg.c  ****   fDeleteMW(filename);
 337              		.loc 1 179 0
 338 002e 0025     		movs	r5, #0
 178:src/ctlcfg.c  ****   fDeleteMW(filename);
 339              		.loc 1 178 0
 340 0030 02A8     		add	r0, sp, #8
 341 0032 0C49     		ldr	r1, .L27+8
 342 0034 FFF7FEFF 		bl	strcpy
 343              	.LVL16:
 344              		.loc 1 179 0
 345 0038 02AA     		add	r2, sp, #8
 346 003a 2B46     		mov	r3, r5
 347 003c 0095     		str	r5, [sp]
 348 003e 0C21     		movs	r1, #12
 349 0040 0F20     		movs	r0, #15
 350 0042 FFF7FEFF 		bl	lib_app_call
 351              	.LVL17:
 180:src/ctlcfg.c  ****   iDnloadFile = fCreateMW(filename, 0);
 352              		.loc 1 180 0
 353 0046 0095     		str	r5, [sp]
 354 0048 0B21     		movs	r1, #11
 355 004a 02AA     		add	r2, sp, #8
 356 004c 2B46     		mov	r3, r5
 357 004e 0F20     		movs	r0, #15
 358 0050 FFF7FEFF 		bl	lib_app_call
 359              	.LVL18:
 360 0054 2060     		str	r0, [r4]
 181:src/ctlcfg.c  **** }
 361              		.loc 1 181 0
 362 0056 0BB0     		add	sp, sp, #44
 363              		.cfi_def_cfa_offset 12
 364              		@ sp needed
 365 0058 30BD     		pop	{r4, r5, pc}
 366              	.L28:
 367 005a 00BF     		.align	2
 368              	.L27:
 369 005c 00000000 		.word	.LANCHOR0
 370 0060 00000000 		.word	.LANCHOR1
 371 0064 00000000 		.word	.LANCHOR2
 372              		.cfi_endproc
 373              	.LFE5:
 374              		.size	CTLClrDnloadBuf, .-CTLClrDnloadBuf
 375              		.section	.text.CTLKillDnloadBuf,"ax",%progbits
ARM GAS  C:\Users\AHMED~1.ELE\AppData\Local\Temp\ccWMHy5f.s 			page 11


 376              		.align	1
 377              		.global	CTLKillDnloadBuf
 378              		.thumb
 379              		.thumb_func
 380              		.type	CTLKillDnloadBuf, %function
 381              	CTLKillDnloadBuf:
 382              	.LFB6:
 182:src/ctlcfg.c  **** //*****************************************************************************
 183:src/ctlcfg.c  **** //  Function        : CTLKillDnloadBuf
 184:src/ctlcfg.c  **** //  Description     : Kill CTL data download buffer.
 185:src/ctlcfg.c  **** //  Input           : N/A
 186:src/ctlcfg.c  **** //  Return          : N/A
 187:src/ctlcfg.c  **** //  Note            : N/A
 188:src/ctlcfg.c  **** //  Globals Changed : N/A
 189:src/ctlcfg.c  **** //*****************************************************************************
 190:src/ctlcfg.c  **** void CTLKillDnloadBuf (void)
 191:src/ctlcfg.c  **** {
 383              		.loc 1 191 0
 384              		.cfi_startproc
 385              		@ args = 0, pretend = 0, frame = 32
 386              		@ frame_needed = 0, uses_anonymous_args = 0
 387 0000 10B5     		push	{r4, lr}
 388              		.cfi_def_cfa_offset 8
 389              		.cfi_offset 4, -8
 390              		.cfi_offset 14, -4
 192:src/ctlcfg.c  ****   BYTE filename[32];
 193:src/ctlcfg.c  ****   strcpy(filename, KCTLTemp);
 194:src/ctlcfg.c  ****   if (iDnloadFile >= 0) {
 391              		.loc 1 194 0
 392 0002 0D4C     		ldr	r4, .L31
 191:src/ctlcfg.c  ****   BYTE filename[32];
 393              		.loc 1 191 0
 394 0004 8AB0     		sub	sp, sp, #40
 395              		.cfi_def_cfa_offset 48
 193:src/ctlcfg.c  ****   if (iDnloadFile >= 0) {
 396              		.loc 1 193 0
 397 0006 02A8     		add	r0, sp, #8
 398 0008 0C49     		ldr	r1, .L31+4
 399 000a FFF7FEFF 		bl	strcpy
 400              	.LVL19:
 401              		.loc 1 194 0
 402 000e 2268     		ldr	r2, [r4]
 403 0010 002A     		cmp	r2, #0
 404 0012 08DB     		blt	.L30
 195:src/ctlcfg.c  ****     fCloseMW(iDnloadFile);
 405              		.loc 1 195 0
 406 0014 0023     		movs	r3, #0
 407 0016 0F20     		movs	r0, #15
 408 0018 0093     		str	r3, [sp]
 409 001a 0E21     		movs	r1, #14
 410 001c FFF7FEFF 		bl	lib_app_call
 411              	.LVL20:
 196:src/ctlcfg.c  ****     iDnloadFile = -1;
 412              		.loc 1 196 0
 413 0020 4FF0FF33 		mov	r3, #-1
 414 0024 2360     		str	r3, [r4]
 415              	.L30:
ARM GAS  C:\Users\AHMED~1.ELE\AppData\Local\Temp\ccWMHy5f.s 			page 12


 197:src/ctlcfg.c  ****   }
 198:src/ctlcfg.c  ****   fDeleteMW(filename);
 416              		.loc 1 198 0
 417 0026 0023     		movs	r3, #0
 418 0028 0C21     		movs	r1, #12
 419 002a 0093     		str	r3, [sp]
 420 002c 02AA     		add	r2, sp, #8
 421 002e 0F20     		movs	r0, #15
 422 0030 FFF7FEFF 		bl	lib_app_call
 423              	.LVL21:
 199:src/ctlcfg.c  **** }
 424              		.loc 1 199 0
 425 0034 0AB0     		add	sp, sp, #40
 426              		.cfi_def_cfa_offset 8
 427              		@ sp needed
 428 0036 10BD     		pop	{r4, pc}
 429              	.L32:
 430              		.align	2
 431              	.L31:
 432 0038 00000000 		.word	.LANCHOR1
 433 003c 00000000 		.word	.LANCHOR2
 434              		.cfi_endproc
 435              	.LFE6:
 436              		.size	CTLKillDnloadBuf, .-CTLKillDnloadBuf
 437              		.section	.text.CTLData2DnloadBuf,"ax",%progbits
 438              		.align	1
 439              		.global	CTLData2DnloadBuf
 440              		.thumb
 441              		.thumb_func
 442              		.type	CTLData2DnloadBuf, %function
 443              	CTLData2DnloadBuf:
 444              	.LFB7:
 200:src/ctlcfg.c  **** //*****************************************************************************
 201:src/ctlcfg.c  **** //  Function        : CTLData2DnloadBuf
 202:src/ctlcfg.c  **** //  Description     : Store CTL param/key to download buffer in file system.
 203:src/ctlcfg.c  **** //  Input           : aType;        // CTL param or key
 204:src/ctlcfg.c  **** //                    aData;        // pointer to CTL param or key
 205:src/ctlcfg.c  **** //                    aLen;         // length of CTL param or key
 206:src/ctlcfg.c  **** //  Return          : N/A
 207:src/ctlcfg.c  **** //  Note            : N/A
 208:src/ctlcfg.c  **** //  Globals Changed : N/A
 209:src/ctlcfg.c  **** //*****************************************************************************
 210:src/ctlcfg.c  **** void CTLData2DnloadBuf (BYTE aType, BYTE *aData, WORD aLen)
 211:src/ctlcfg.c  **** {
 445              		.loc 1 211 0
 446              		.cfi_startproc
 447              		@ args = 0, pretend = 0, frame = 8
 448              		@ frame_needed = 0, uses_anonymous_args = 0
 449              	.LVL22:
 450 0000 2DE9F043 		push	{r4, r5, r6, r7, r8, r9, lr}
 451              		.cfi_def_cfa_offset 28
 452              		.cfi_offset 4, -28
 453              		.cfi_offset 5, -24
 454              		.cfi_offset 6, -20
 455              		.cfi_offset 7, -16
 456              		.cfi_offset 8, -12
 457              		.cfi_offset 9, -8
ARM GAS  C:\Users\AHMED~1.ELE\AppData\Local\Temp\ccWMHy5f.s 			page 13


 458              		.cfi_offset 14, -4
 212:src/ctlcfg.c  ****   WORD offset;
 213:src/ctlcfg.c  **** 
 214:src/ctlcfg.c  ****   offset = wChunkSize*bDnloadBlk;
 459              		.loc 1 214 0
 460 0004 1A4E     		ldr	r6, .L36
 211:src/ctlcfg.c  ****   WORD offset;
 461              		.loc 1 211 0
 462 0006 85B0     		sub	sp, sp, #20
 463              		.cfi_def_cfa_offset 48
 464              		.loc 1 214 0
 465 0008 747C     		ldrb	r4, [r6, #17]	@ zero_extendqisi2
 466 000a B6F80E80 		ldrh	r8, [r6, #14]
 467              	.LVL23:
 215:src/ctlcfg.c  ****   sbIOBuf[offset] = aType;
 468              		.loc 1 215 0
 469 000e B768     		ldr	r7, [r6, #8]
 214:src/ctlcfg.c  ****   sbIOBuf[offset] = aType;
 470              		.loc 1 214 0
 471 0010 14FB08F5 		smulbb	r5, r4, r8
 211:src/ctlcfg.c  ****   WORD offset;
 472              		.loc 1 211 0
 473 0014 8946     		mov	r9, r1
 474              		.loc 1 215 0
 475 0016 ADB2     		uxth	r5, r5
 211:src/ctlcfg.c  ****   WORD offset;
 476              		.loc 1 211 0
 477 0018 04A9     		add	r1, sp, #16
 478              	.LVL24:
 479              		.loc 1 215 0
 480 001a 7855     		strb	r0, [r7, r5]
 216:src/ctlcfg.c  ****   memcpy(&sbIOBuf[offset+1], &aLen, 2);
 481              		.loc 1 216 0
 482 001c 681C     		adds	r0, r5, #1
 483              	.LVL25:
 211:src/ctlcfg.c  ****   WORD offset;
 484              		.loc 1 211 0
 485 001e 21F8022D 		strh	r2, [r1, #-2]!	@ movhi
 486              		.loc 1 216 0
 487 0022 3844     		add	r0, r0, r7
 488 0024 0222     		movs	r2, #2
 489              	.LVL26:
 490 0026 FFF7FEFF 		bl	memcpy
 491              	.LVL27:
 217:src/ctlcfg.c  ****   memcpy(&sbIOBuf[offset+3], aData, aLen);
 492              		.loc 1 217 0
 493 002a E81C     		adds	r0, r5, #3
 494 002c BDF80E20 		ldrh	r2, [sp, #14]
 495 0030 3844     		add	r0, r0, r7
 496 0032 4946     		mov	r1, r9
 497 0034 FFF7FEFF 		bl	memcpy
 498              	.LVL28:
 218:src/ctlcfg.c  **** 
 219:src/ctlcfg.c  ****   if (++bDnloadBlk >= bMaxNumBlk) {
 499              		.loc 1 219 0
 500 0038 621C     		adds	r2, r4, #1
 501 003a 337C     		ldrb	r3, [r6, #16]	@ zero_extendqisi2
ARM GAS  C:\Users\AHMED~1.ELE\AppData\Local\Temp\ccWMHy5f.s 			page 14


 502 003c D2B2     		uxtb	r2, r2
 503 003e 9342     		cmp	r3, r2
 504 0040 7274     		strb	r2, [r6, #17]
 505 0042 12D8     		bhi	.L33
 220:src/ctlcfg.c  ****     if (fWriteMW(iDnloadFile, sbIOBuf, wChunkSize*bDnloadBlk) != (wChunkSize*bDnloadBlk))
 506              		.loc 1 220 0
 507 0044 08FB02F2 		mul	r2, r8, r2
 508 0048 0A4B     		ldr	r3, .L36+4
 509 004a 0092     		str	r2, [sp]
 510 004c 0F20     		movs	r0, #15
 511 004e 1A68     		ldr	r2, [r3]
 512 0050 1221     		movs	r1, #18
 513 0052 3B46     		mov	r3, r7
 514 0054 FFF7FEFF 		bl	lib_app_call
 515              	.LVL29:
 516 0058 737C     		ldrb	r3, [r6, #17]	@ zero_extendqisi2
 517 005a F289     		ldrh	r2, [r6, #14]
 518 005c 5343     		muls	r3, r2, r3
 519 005e 9842     		cmp	r0, r3
 221:src/ctlcfg.c  ****       bCtlLoaded = 0xFF;  // indicate fail
 520              		.loc 1 221 0
 521 0060 1CBF     		itt	ne
 522 0062 FF23     		movne	r3, #255
 523 0064 3373     		strbne	r3, [r6, #12]
 222:src/ctlcfg.c  ****     bDnloadBlk = 0;
 524              		.loc 1 222 0
 525 0066 0023     		movs	r3, #0
 526 0068 7374     		strb	r3, [r6, #17]
 527              	.L33:
 223:src/ctlcfg.c  ****   }
 224:src/ctlcfg.c  **** }
 528              		.loc 1 224 0
 529 006a 05B0     		add	sp, sp, #20
 530              		.cfi_def_cfa_offset 28
 531              		@ sp needed
 532 006c BDE8F083 		pop	{r4, r5, r6, r7, r8, r9, pc}
 533              	.LVL30:
 534              	.L37:
 535              		.align	2
 536              	.L36:
 537 0070 00000000 		.word	.LANCHOR0
 538 0074 00000000 		.word	.LANCHOR1
 539              		.cfi_endproc
 540              	.LFE7:
 541              		.size	CTLData2DnloadBuf, .-CTLData2DnloadBuf
 542              		.section	.text.CTLDataUpdate,"ax",%progbits
 543              		.align	1
 544              		.global	CTLDataUpdate
 545              		.thumb
 546              		.thumb_func
 547              		.type	CTLDataUpdate, %function
 548              	CTLDataUpdate:
 549              	.LFB8:
 225:src/ctlcfg.c  **** //*****************************************************************************
 226:src/ctlcfg.c  **** //  Function        : CTLDataUpdate
 227:src/ctlcfg.c  **** //  Description     : Clear/Store param/key to EMVCLDLL.
 228:src/ctlcfg.c  **** //  Input           : N/A
ARM GAS  C:\Users\AHMED~1.ELE\AppData\Local\Temp\ccWMHy5f.s 			page 15


 229:src/ctlcfg.c  **** //  Return          : N/A
 230:src/ctlcfg.c  **** //  Note            : N/A
 231:src/ctlcfg.c  **** //  Globals Changed : N/A
 232:src/ctlcfg.c  **** //*****************************************************************************
 233:src/ctlcfg.c  **** void CTLDataUpdate (void)
 234:src/ctlcfg.c  **** {
 550              		.loc 1 234 0
 551              		.cfi_startproc
 552              		@ args = 0, pretend = 0, frame = 8
 553              		@ frame_needed = 0, uses_anonymous_args = 0
 554 0000 2DE9F043 		push	{r4, r5, r6, r7, r8, r9, lr}
 555              		.cfi_def_cfa_offset 28
 556              		.cfi_offset 4, -28
 557              		.cfi_offset 5, -24
 558              		.cfi_offset 6, -20
 559              		.cfi_offset 7, -16
 560              		.cfi_offset 8, -12
 561              		.cfi_offset 9, -8
 562              		.cfi_offset 14, -4
 563 0004 85B0     		sub	sp, sp, #20
 564              		.cfi_def_cfa_offset 48
 235:src/ctlcfg.c  ****   int size, len;
 236:src/ctlcfg.c  ****   BYTE type;
 237:src/ctlcfg.c  **** 
 238:src/ctlcfg.c  ****   if (!KernelReady() || (bCtlLoaded == 0xFF) || (bCtlLoaded == 0x00))
 565              		.loc 1 238 0
 566 0006 FFF7FEFF 		bl	KernelReady
 567              	.LVL31:
 568 000a 0028     		cmp	r0, #0
 569 000c 00F09380 		beq	.L38
 570              		.loc 1 238 0 is_stmt 0 discriminator 1
 571 0010 4A4C     		ldr	r4, .L67
 572 0012 237B     		ldrb	r3, [r4, #12]	@ zero_extendqisi2
 573 0014 013B     		subs	r3, r3, #1
 574 0016 DBB2     		uxtb	r3, r3
 575 0018 FD2B     		cmp	r3, #253
 576 001a 00F28C80 		bhi	.L38
 239:src/ctlcfg.c  ****     return;
 240:src/ctlcfg.c  **** 
 241:src/ctlcfg.c  ****   if ((bDnloadBlk != 0) && (bDnloadBlk < bMaxNumBlk)) { // store remaining data chunk
 577              		.loc 1 241 0 is_stmt 1
 578 001e 627C     		ldrb	r2, [r4, #17]	@ zero_extendqisi2
 579 0020 474D     		ldr	r5, .L67+4
 580 0022 32B9     		cbnz	r2, .L40
 581              	.L43:
 242:src/ctlcfg.c  ****     if (fWriteMW(iDnloadFile, sbIOBuf, wChunkSize*bDnloadBlk) != (wChunkSize*bDnloadBlk))
 243:src/ctlcfg.c  ****       return;
 244:src/ctlcfg.c  ****   }
 245:src/ctlcfg.c  **** 
 246:src/ctlcfg.c  ****   if (bCtlLoaded & 0x80)
 582              		.loc 1 246 0
 583 0024 94F90C30 		ldrsb	r3, [r4, #12]
 584 0028 002B     		cmp	r3, #0
 585 002a 14DA     		bge	.L42
 247:src/ctlcfg.c  ****     ClrCTLParam();
 586              		.loc 1 247 0
 587 002c FFF7FEFF 		bl	ClrCTLParam
ARM GAS  C:\Users\AHMED~1.ELE\AppData\Local\Temp\ccWMHy5f.s 			page 16


 588              	.LVL32:
 589 0030 11E0     		b	.L42
 590              	.L40:
 241:src/ctlcfg.c  ****     if (fWriteMW(iDnloadFile, sbIOBuf, wChunkSize*bDnloadBlk) != (wChunkSize*bDnloadBlk))
 591              		.loc 1 241 0 discriminator 1
 592 0032 237C     		ldrb	r3, [r4, #16]	@ zero_extendqisi2
 593 0034 9342     		cmp	r3, r2
 594 0036 F5D9     		bls	.L43
 242:src/ctlcfg.c  ****     if (fWriteMW(iDnloadFile, sbIOBuf, wChunkSize*bDnloadBlk) != (wChunkSize*bDnloadBlk))
 595              		.loc 1 242 0
 596 0038 E389     		ldrh	r3, [r4, #14]
 597 003a 0F20     		movs	r0, #15
 598 003c 5343     		muls	r3, r2, r3
 599 003e 1221     		movs	r1, #18
 600 0040 0093     		str	r3, [sp]
 601 0042 A368     		ldr	r3, [r4, #8]
 602 0044 2A68     		ldr	r2, [r5]
 603 0046 FFF7FEFF 		bl	lib_app_call
 604              	.LVL33:
 605 004a E289     		ldrh	r2, [r4, #14]
 606 004c 637C     		ldrb	r3, [r4, #17]	@ zero_extendqisi2
 607 004e 5343     		muls	r3, r2, r3
 608 0050 9842     		cmp	r0, r3
 609 0052 70D1     		bne	.L38
 610 0054 E6E7     		b	.L43
 611              	.L42:
 248:src/ctlcfg.c  ****   if (bCtlLoaded & 0x40)
 612              		.loc 1 248 0
 613 0056 237B     		ldrb	r3, [r4, #12]	@ zero_extendqisi2
 614 0058 5A06     		lsls	r2, r3, #25
 615 005a 01D5     		bpl	.L44
 249:src/ctlcfg.c  ****     ClrCTLKey();
 616              		.loc 1 249 0
 617 005c FFF7FEFF 		bl	ClrCTLKey
 618              	.LVL34:
 619              	.L44:
 250:src/ctlcfg.c  **** 
 251:src/ctlcfg.c  ****   //fFlushMW(iDnloadFile);
 252:src/ctlcfg.c  ****   size = fLengthMW(iDnloadFile);
 620              		.loc 1 252 0
 621 0060 0026     		movs	r6, #0
 622 0062 0F20     		movs	r0, #15
 623 0064 0096     		str	r6, [sp]
 624 0066 3346     		mov	r3, r6
 625 0068 0146     		mov	r1, r0
 626 006a 2A68     		ldr	r2, [r5]
 627 006c FFF7FEFF 		bl	lib_app_call
 628              	.LVL35:
 253:src/ctlcfg.c  ****   fSeekMW(iDnloadFile, 0);
 629              		.loc 1 253 0
 630 0070 0096     		str	r6, [sp]
 631 0072 3346     		mov	r3, r6
 632 0074 1021     		movs	r1, #16
 252:src/ctlcfg.c  ****   fSeekMW(iDnloadFile, 0);
 633              		.loc 1 252 0
 634 0076 0746     		mov	r7, r0
 635              	.LVL36:
ARM GAS  C:\Users\AHMED~1.ELE\AppData\Local\Temp\ccWMHy5f.s 			page 17


 636              		.loc 1 253 0
 637 0078 2A68     		ldr	r2, [r5]
 638 007a 0F20     		movs	r0, #15
 639              	.LVL37:
 640 007c FFF7FEFF 		bl	lib_app_call
 641              	.LVL38:
 254:src/ctlcfg.c  ****   len = wChunkSize-1;
 642              		.loc 1 254 0
 643 0080 E689     		ldrh	r6, [r4, #14]
 644 0082 06F1FF39 		add	r9, r6, #-1
 645              	.LVL39:
 646              	.L45:
 255:src/ctlcfg.c  ****   while (size > 0) {
 647              		.loc 1 255 0
 648 0086 002F     		cmp	r7, #0
 649 0088 33DD     		ble	.L47
 256:src/ctlcfg.c  ****     fReadMW(iDnloadFile, &type, 1);
 650              		.loc 1 256 0
 651 008a 0123     		movs	r3, #1
 652 008c 0F20     		movs	r0, #15
 653 008e 0093     		str	r3, [sp]
 654 0090 1121     		movs	r1, #17
 655 0092 2A68     		ldr	r2, [r5]
 656 0094 0DEB0003 		add	r3, sp, r0
 657 0098 FFF7FEFF 		bl	lib_app_call
 658              	.LVL40:
 257:src/ctlcfg.c  ****     fReadMW(iDnloadFile, &sCTLIn->wLen, 2);
 659              		.loc 1 257 0
 660 009c 0223     		movs	r3, #2
 661 009e 1121     		movs	r1, #17
 662 00a0 0093     		str	r3, [sp]
 663 00a2 0F20     		movs	r0, #15
 664 00a4 2A68     		ldr	r2, [r5]
 665 00a6 2368     		ldr	r3, [r4]
 666 00a8 FFF7FEFF 		bl	lib_app_call
 667              	.LVL41:
 258:src/ctlcfg.c  ****     if (fReadMW(iDnloadFile, sCTLIn->pbMsg, len-2) == (len-2)) {
 668              		.loc 1 258 0
 669 00ac 2368     		ldr	r3, [r4]
 670 00ae A9F10202 		sub	r2, r9, #2
 671 00b2 0F20     		movs	r0, #15
 672 00b4 0092     		str	r2, [sp]
 673 00b6 1121     		movs	r1, #17
 674 00b8 5B68     		ldr	r3, [r3, #4]
 675 00ba 2A68     		ldr	r2, [r5]
 676 00bc FFF7FEFF 		bl	lib_app_call
 677              	.LVL42:
 678 00c0 F31E     		subs	r3, r6, #3
 257:src/ctlcfg.c  ****     fReadMW(iDnloadFile, &sCTLIn->wLen, 2);
 679              		.loc 1 257 0
 680 00c2 DFF87880 		ldr	r8, .L67
 681              		.loc 1 258 0
 682 00c6 9842     		cmp	r0, r3
 683 00c8 0FD1     		bne	.L46
 259:src/ctlcfg.c  ****       if (emvclSetup(type, sCTLIn, sCTLOut)) {
 684              		.loc 1 259 0
 685 00ca D8F80430 		ldr	r3, [r8, #4]
ARM GAS  C:\Users\AHMED~1.ELE\AppData\Local\Temp\ccWMHy5f.s 			page 18


 686 00ce 9DF80F20 		ldrb	r2, [sp, #15]	@ zero_extendqisi2
 687 00d2 0093     		str	r3, [sp]
 688 00d4 6420     		movs	r0, #100
 689 00d6 0021     		movs	r1, #0
 690 00d8 D8F80030 		ldr	r3, [r8]
 691 00dc FFF7FEFF 		bl	lib_app_call
 692              	.LVL43:
 693 00e0 10F0FF0F 		tst	r0, #255
 694 00e4 01D0     		beq	.L46
 695 00e6 BF1B     		subs	r7, r7, r6
 696              	.LVL44:
 260:src/ctlcfg.c  ****         size -= (len+1);
 261:src/ctlcfg.c  ****         continue;
 697              		.loc 1 261 0
 698 00e8 CDE7     		b	.L45
 699              	.L46:
 262:src/ctlcfg.c  ****       }
 263:src/ctlcfg.c  ****     }
 264:src/ctlcfg.c  ****     bCtlLoaded |= 0x0F;   // indicate fail
 700              		.loc 1 264 0
 701 00ea 237B     		ldrb	r3, [r4, #12]	@ zero_extendqisi2
 702 00ec 43F00F03 		orr	r3, r3, #15
 703 00f0 2373     		strb	r3, [r4, #12]
 704              	.L47:
 265:src/ctlcfg.c  ****     break;
 266:src/ctlcfg.c  ****   }
 267:src/ctlcfg.c  ****   if ((bCtlLoaded & 0x0F) == 0x01) {
 705              		.loc 1 267 0
 706 00f2 237B     		ldrb	r3, [r4, #12]	@ zero_extendqisi2
 707 00f4 114D     		ldr	r5, .L67
 708 00f6 03F00F03 		and	r3, r3, #15
 709 00fa 012B     		cmp	r3, #1
 710 00fc 0ED1     		bne	.L50
 268:src/ctlcfg.c  ****     if (emvclSetup(CLCMD_CLOSE_LOAD, sCTLIn, sCTLOut) == FALSE) // close AID loading
 711              		.loc 1 268 0
 712 00fe 6B68     		ldr	r3, [r5, #4]
 713 0100 6420     		movs	r0, #100
 714 0102 0093     		str	r3, [sp]
 715 0104 0021     		movs	r1, #0
 716 0106 2B68     		ldr	r3, [r5]
 717 0108 0522     		movs	r2, #5
 718 010a FFF7FEFF 		bl	lib_app_call
 719              	.LVL45:
 720 010e 10F0FF0F 		tst	r0, #255
 269:src/ctlcfg.c  ****       bCtlLoaded |= 0x0F; // indicate fail
 721              		.loc 1 269 0
 722 0112 02BF     		ittt	eq
 723 0114 2B7B     		ldrbeq	r3, [r5, #12]	@ zero_extendqisi2
 724 0116 43F00F03 		orreq	r3, r3, #15
 725 011a 2B73     		strbeq	r3, [r5, #12]
 726              	.L50:
 270:src/ctlcfg.c  ****   }
 271:src/ctlcfg.c  ****   if ((bCtlLoaded & 0x0F) == 0x0F) {
 727              		.loc 1 271 0
 728 011c 237B     		ldrb	r3, [r4, #12]	@ zero_extendqisi2
 729 011e 03F00F02 		and	r2, r3, #15
 730 0122 0F2A     		cmp	r2, #15
ARM GAS  C:\Users\AHMED~1.ELE\AppData\Local\Temp\ccWMHy5f.s 			page 19


 731 0124 07D1     		bne	.L38
 272:src/ctlcfg.c  ****     //if (bCtlLoaded & 0x80)
 273:src/ctlcfg.c  ****     //  ClrAllParam();
 274:src/ctlcfg.c  ****     if (bCtlLoaded & 0x40)
 732              		.loc 1 274 0
 733 0126 5B06     		lsls	r3, r3, #25
 734 0128 01D5     		bpl	.L53
 275:src/ctlcfg.c  ****       ClrCTLKey();
 735              		.loc 1 275 0
 736 012a FFF7FEFF 		bl	ClrCTLKey
 737              	.LVL46:
 738              	.L53:
 276:src/ctlcfg.c  ****     CTLKillDnloadBuf();
 739              		.loc 1 276 0
 740 012e FFF7FEFF 		bl	CTLKillDnloadBuf
 741              	.LVL47:
 277:src/ctlcfg.c  ****     CTLFatal();
 742              		.loc 1 277 0
 743 0132 FFF7FEFF 		bl	CTLFatal
 744              	.LVL48:
 745              	.L38:
 278:src/ctlcfg.c  ****   }
 279:src/ctlcfg.c  **** }
 746              		.loc 1 279 0
 747 0136 05B0     		add	sp, sp, #20
 748              		.cfi_def_cfa_offset 28
 749              		@ sp needed
 750 0138 BDE8F083 		pop	{r4, r5, r6, r7, r8, r9, pc}
 751              	.L68:
 752              		.align	2
 753              	.L67:
 754 013c 00000000 		.word	.LANCHOR0
 755 0140 00000000 		.word	.LANCHOR1
 756              		.cfi_endproc
 757              	.LFE8:
 758              		.size	CTLDataUpdate, .-CTLDataUpdate
 759              		.section	.text.GetCTLKeyInfo,"ax",%progbits
 760              		.align	1
 761              		.global	GetCTLKeyInfo
 762              		.thumb
 763              		.thumb_func
 764              		.type	GetCTLKeyInfo, %function
 765              	GetCTLKeyInfo:
 766              	.LFB10:
 280:src/ctlcfg.c  **** //*****************************************************************************
 281:src/ctlcfg.c  **** //  Function        : GetCTLAppCfg
 282:src/ctlcfg.c  **** //  Description     : Retrieve Configuration from CTL KERNEL.
 283:src/ctlcfg.c  **** //  Input           : aCfg;     // pointer to buffer
 284:src/ctlcfg.c  **** //                    aIdx;     // config index.
 285:src/ctlcfg.c  **** //  Return          : N/A
 286:src/ctlcfg.c  **** //  Note            : N/A
 287:src/ctlcfg.c  **** //  Globals Changed : N/A
 288:src/ctlcfg.c  **** //*****************************************************************************
 289:src/ctlcfg.c  **** static BOOLEAN GetCTLAppCfg(CL_CFGP *aCfg, DWORD aIdx)
 290:src/ctlcfg.c  **** {
 291:src/ctlcfg.c  ****   sCTLIn->pbMsg = sCTLOut->pbMsg = sbIOBuf;
 292:src/ctlcfg.c  ****   sCTLIn->pbMsg[0] = (BYTE) aIdx;
ARM GAS  C:\Users\AHMED~1.ELE\AppData\Local\Temp\ccWMHy5f.s 			page 20


 293:src/ctlcfg.c  ****   sCTLIn->wLen = 1;
 294:src/ctlcfg.c  ****   if (emvclSetup(CLCMD_READ_AIDIDX,sCTLIn,sCTLOut) == FALSE)     // load APP parameters
 295:src/ctlcfg.c  ****     return FALSE;
 296:src/ctlcfg.c  ****   memcpy(aCfg, sCTLOut->pbMsg, sizeof(CL_CFGP));
 297:src/ctlcfg.c  ****   return TRUE;
 298:src/ctlcfg.c  **** }
 299:src/ctlcfg.c  **** //*****************************************************************************
 300:src/ctlcfg.c  **** //  Function        : GetCTLKeyInfo
 301:src/ctlcfg.c  **** //  Description     : Retrieve Key info. from CTL KERNEL.
 302:src/ctlcfg.c  **** //  Input           : aKeyInfo;     // pointer to buffer
 303:src/ctlcfg.c  **** //                    aIdx;         // config index.
 304:src/ctlcfg.c  **** //  Return          : N/A
 305:src/ctlcfg.c  **** //  Note            : N/A
 306:src/ctlcfg.c  **** //  Globals Changed : N/A
 307:src/ctlcfg.c  **** //*****************************************************************************
 308:src/ctlcfg.c  **** BOOLEAN GetCTLKeyInfo(CL_KEY_INFO *aKeyInfo, DWORD aIdx)
 309:src/ctlcfg.c  **** {
 767              		.loc 1 309 0
 768              		.cfi_startproc
 769              		@ args = 0, pretend = 0, frame = 0
 770              		@ frame_needed = 0, uses_anonymous_args = 0
 771              	.LVL49:
 772 0000 73B5     		push	{r0, r1, r4, r5, r6, lr}
 773              		.cfi_def_cfa_offset 24
 774              		.cfi_offset 4, -16
 775              		.cfi_offset 5, -12
 776              		.cfi_offset 6, -8
 777              		.cfi_offset 14, -4
 310:src/ctlcfg.c  ****   sCTLIn->pbMsg = sCTLOut->pbMsg = sbIOBuf;
 778              		.loc 1 310 0
 779 0002 0F4C     		ldr	r4, .L75
 311:src/ctlcfg.c  ****   sCTLIn->pbMsg[0] = (BYTE) aIdx|0x80;
 780              		.loc 1 311 0
 781 0004 61F07F01 		orn	r1, r1, #127
 782              	.LVL50:
 310:src/ctlcfg.c  ****   sCTLIn->pbMsg = sCTLOut->pbMsg = sbIOBuf;
 783              		.loc 1 310 0
 784 0008 A268     		ldr	r2, [r4, #8]
 785 000a 2368     		ldr	r3, [r4]
 309:src/ctlcfg.c  ****   sCTLIn->pbMsg = sCTLOut->pbMsg = sbIOBuf;
 786              		.loc 1 309 0
 787 000c 0646     		mov	r6, r0
 312:src/ctlcfg.c  ****   sCTLIn->wLen = 1;
 788              		.loc 1 312 0
 789 000e 0125     		movs	r5, #1
 310:src/ctlcfg.c  ****   sCTLIn->pbMsg[0] = (BYTE) aIdx|0x80;
 790              		.loc 1 310 0
 791 0010 6068     		ldr	r0, [r4, #4]
 792              	.LVL51:
 793 0012 4260     		str	r2, [r0, #4]
 794 0014 5A60     		str	r2, [r3, #4]
 311:src/ctlcfg.c  ****   sCTLIn->wLen = 1;
 795              		.loc 1 311 0
 796 0016 1170     		strb	r1, [r2]
 797              		.loc 1 312 0
 798 0018 1D80     		strh	r5, [r3]	@ movhi
 313:src/ctlcfg.c  **** 
ARM GAS  C:\Users\AHMED~1.ELE\AppData\Local\Temp\ccWMHy5f.s 			page 21


 314:src/ctlcfg.c  ****   if ((emvclSetup(CLCMD_READ_KEY,sCTLIn,sCTLOut) == FALSE) || (sCTLOut->wLen == 0))     // Read Key
 799              		.loc 1 314 0
 800 001a 0021     		movs	r1, #0
 801 001c 0090     		str	r0, [sp]
 802 001e 0A22     		movs	r2, #10
 803 0020 6420     		movs	r0, #100
 804 0022 FFF7FEFF 		bl	lib_app_call
 805              	.LVL52:
 806 0026 C0B2     		uxtb	r0, r0
 807 0028 40B1     		cbz	r0, .L70
 808              	.LVL53:
 809              	.LBB14:
 810              	.LBB15:
 811 002a 6368     		ldr	r3, [r4, #4]
 812 002c 1888     		ldrh	r0, [r3]
 813 002e 28B1     		cbz	r0, .L70
 315:src/ctlcfg.c  ****     return FALSE;
 316:src/ctlcfg.c  **** 
 317:src/ctlcfg.c  ****   memcpy(aKeyInfo, sCTLOut->pbMsg, sizeof(CL_KEY_INFO));
 814              		.loc 1 317 0
 815 0030 3046     		mov	r0, r6
 816 0032 5968     		ldr	r1, [r3, #4]
 817 0034 0C22     		movs	r2, #12
 818 0036 FFF7FEFF 		bl	memcpy
 819              	.LVL54:
 318:src/ctlcfg.c  ****   return TRUE;
 820              		.loc 1 318 0
 821 003a 2846     		mov	r0, r5
 822              	.LVL55:
 823              	.L70:
 824              	.LBE15:
 825              	.LBE14:
 319:src/ctlcfg.c  **** }
 826              		.loc 1 319 0
 827 003c 02B0     		add	sp, sp, #8
 828              		.cfi_def_cfa_offset 16
 829              		@ sp needed
 830 003e 70BD     		pop	{r4, r5, r6, pc}
 831              	.LVL56:
 832              	.L76:
 833              		.align	2
 834              	.L75:
 835 0040 00000000 		.word	.LANCHOR0
 836              		.cfi_endproc
 837              	.LFE10:
 838              		.size	GetCTLKeyInfo, .-GetCTLKeyInfo
 839              		.global	__aeabi_uidiv
 840              		.global	__aeabi_uidivmod
 841              		.section	.text.PrintCTLParam,"ax",%progbits
 842              		.align	1
 843              		.global	PrintCTLParam
 844              		.thumb
 845              		.thumb_func
 846              		.type	PrintCTLParam, %function
 847              	PrintCTLParam:
 848              	.LFB13:
 320:src/ctlcfg.c  **** //*****************************************************************************
ARM GAS  C:\Users\AHMED~1.ELE\AppData\Local\Temp\ccWMHy5f.s 			page 22


 321:src/ctlcfg.c  **** //  Function        : PrintCTLParam
 322:src/ctlcfg.c  **** //  Description     : print or display CTL parameter report.
 323:src/ctlcfg.c  **** //  Input           : aCtlCfg
 324:src/ctlcfg.c  **** //                    aDetail
 325:src/ctlcfg.c  **** //                    aToDisplay
 326:src/ctlcfg.c  **** //  Return          : TRUE / FALSE
 327:src/ctlcfg.c  **** //  Note            : N/A
 328:src/ctlcfg.c  **** //  Globals Changed : N/A
 329:src/ctlcfg.c  **** //*****************************************************************************
 330:src/ctlcfg.c  **** static BOOLEAN PrintCTLAppCfg(CL_CFGP aCtlCfg, BOOLEAN aDetail, BOOLEAN aToDisplay)
 331:src/ctlcfg.c  **** {
 332:src/ctlcfg.c  ****   BOOLEAN ret_ok = TRUE;
 333:src/ctlcfg.c  ****   char *p_mem, buf[64], data[64];
 334:src/ctlcfg.c  ****   WORD len, pack_width;
 335:src/ctlcfg.c  ****   struct INFO_DATA info_data;
 336:src/ctlcfg.c  **** 
 337:src/ctlcfg.c  ****   // allocate large memory
 338:src/ctlcfg.c  ****   if ((p_mem = MallocMW(1024)) == NULL) {
 339:src/ctlcfg.c  ****     return FALSE;
 340:src/ctlcfg.c  ****   }
 341:src/ctlcfg.c  **** 
 342:src/ctlcfg.c  ****   // init
 343:src/ctlcfg.c  ****   len = 0;
 344:src/ctlcfg.c  ****   pack_width = (aToDisplay)? MW_MAX_LINESIZE : PRINT_WIDTH;
 345:src/ctlcfg.c  **** 
 346:src/ctlcfg.c  ****   // AID
 347:src/ctlcfg.c  ****   if (LDLoad(buf, aCtlCfg.abTLV, 0x9F06)) {
 348:src/ctlcfg.c  ****     memset(data, 0x00, sizeof(data));
 349:src/ctlcfg.c  ****     split(data, buf+1, buf[0]);
 350:src/ctlcfg.c  ****     strcpy(p_mem+len, "AID: ");
 351:src/ctlcfg.c  ****     len += PackInfoData(p_mem+len, data, pack_width);
 352:src/ctlcfg.c  ****   }
 353:src/ctlcfg.c  **** 
 354:src/ctlcfg.c  ****   // type & ver
 355:src/ctlcfg.c  ****   SprintfMW(p_mem+len, "Type: %02X ", aCtlCfg.bEType);
 356:src/ctlcfg.c  ****   memset(data, 0x00, sizeof(data));
 357:src/ctlcfg.c  ****   if (LDLoad(buf, aCtlCfg.abTLV, 0x9F09)) {
 358:src/ctlcfg.c  ****     strcpy(data, "Ver: ");
 359:src/ctlcfg.c  ****     split(data+strlen(data), buf+1, buf[0]);
 360:src/ctlcfg.c  ****   }
 361:src/ctlcfg.c  ****   len += PackInfoData(p_mem+len, data, pack_width);
 362:src/ctlcfg.c  **** 
 363:src/ctlcfg.c  ****   // floor limit
 364:src/ctlcfg.c  ****   if (LDLoad(buf, aCtlCfg.abTLV, 0x9F1B)) {
 365:src/ctlcfg.c  ****     memset(data, 0x00, sizeof(data));
 366:src/ctlcfg.c  ****     ConvDecimal(buf, 7);
 367:src/ctlcfg.c  ****     memcpy(data, buf+1, buf[0]);
 368:src/ctlcfg.c  ****     strcpy(p_mem+len, "FLR LMT: ");
 369:src/ctlcfg.c  ****     len += PackInfoData(p_mem+len, data, pack_width);
 370:src/ctlcfg.c  ****   }
 371:src/ctlcfg.c  **** 
 372:src/ctlcfg.c  ****   // oversea floor limit
 373:src/ctlcfg.c  ****   if (LDLoad(buf, aCtlCfg.abTLV, 0xDF7F)) {
 374:src/ctlcfg.c  ****     memset(data, 0x00, sizeof(data));
 375:src/ctlcfg.c  ****     ConvDecimal(buf, 7);
 376:src/ctlcfg.c  ****     memcpy(data, buf+1, buf[0]);
 377:src/ctlcfg.c  ****     strcpy(p_mem+len, "FLR LMT(O): ");
ARM GAS  C:\Users\AHMED~1.ELE\AppData\Local\Temp\ccWMHy5f.s 			page 23


 378:src/ctlcfg.c  ****     len += PackInfoData(p_mem+len, data, pack_width);
 379:src/ctlcfg.c  ****   }
 380:src/ctlcfg.c  **** 
 381:src/ctlcfg.c  ****   // basic random
 382:src/ctlcfg.c  ****   strcpy(p_mem+len, "Basic Random: ");
 383:src/ctlcfg.c  ****   SprintfMW(data, "%0d.%02d", aCtlCfg.dRSBThresh/100, aCtlCfg.dRSBThresh%100);
 384:src/ctlcfg.c  ****   len += PackInfoData(p_mem+len, data, pack_width);
 385:src/ctlcfg.c  **** 
 386:src/ctlcfg.c  ****   // target & max target
 387:src/ctlcfg.c  ****   strcpy(p_mem+len, "Target %: ");
 388:src/ctlcfg.c  ****   SprintfMW(data, "%02d-%02d", aCtlCfg.bRSTarget, aCtlCfg.bRSBMax);
 389:src/ctlcfg.c  ****   len += PackInfoData(p_mem+len, data, pack_width);
 390:src/ctlcfg.c  **** 
 391:src/ctlcfg.c  ****   // country
 392:src/ctlcfg.c  ****   if (LDLoad(buf, aCtlCfg.abTLV, 0x9F1A)) {
 393:src/ctlcfg.c  ****     memset(data, 0x00, sizeof(data));
 394:src/ctlcfg.c  ****     split(data, buf+1, buf[0]);
 395:src/ctlcfg.c  ****     strcpy(p_mem+len, "Country: ");
 396:src/ctlcfg.c  ****     len += PackInfoData(p_mem+len, data+1, pack_width);
 397:src/ctlcfg.c  ****   }
 398:src/ctlcfg.c  **** 
 399:src/ctlcfg.c  ****   //currency
 400:src/ctlcfg.c  ****   if (LDLoad(buf, aCtlCfg.abTLV, 0x5F2A)) {
 401:src/ctlcfg.c  ****     memset(data, 0x00, sizeof(data));
 402:src/ctlcfg.c  ****     split(data, buf+1, buf[0]);
 403:src/ctlcfg.c  ****     strcpy(p_mem+len, "Currency: ");
 404:src/ctlcfg.c  ****     len += PackInfoData(p_mem+len, data+1, pack_width);
 405:src/ctlcfg.c  ****   }
 406:src/ctlcfg.c  **** 
 407:src/ctlcfg.c  ****   // blank line
 408:src/ctlcfg.c  ****   len += PackInfoData(p_mem+len, "", pack_width);
 409:src/ctlcfg.c  **** 
 410:src/ctlcfg.c  ****   // allow partial AID
 411:src/ctlcfg.c  ****   strcpy(p_mem+len, "Allow Partial AID: ");
 412:src/ctlcfg.c  ****   data[0] = (!(aCtlCfg.bBitField&BIT_PARTIAL_NA))? 'Y':'N';
 413:src/ctlcfg.c  ****   data[1] = 0x00;
 414:src/ctlcfg.c  ****   len += PackInfoData(p_mem+len, data, pack_width);
 415:src/ctlcfg.c  **** 
 416:src/ctlcfg.c  ****   // referral enable
 417:src/ctlcfg.c  ****   strcpy(p_mem+len, "Referral Enable: ");
 418:src/ctlcfg.c  ****   data[0] = (!(aCtlCfg.bBitField&BIT_REFERRAL_NA))? 'Y':'N';
 419:src/ctlcfg.c  ****   data[1] = 0x00;
 420:src/ctlcfg.c  ****   len += PackInfoData(p_mem+len, data, pack_width);
 421:src/ctlcfg.c  **** 
 422:src/ctlcfg.c  ****   // TAC denial
 423:src/ctlcfg.c  ****   strcpy(p_mem+len, "TAC Denial: ");
 424:src/ctlcfg.c  ****   split(data, aCtlCfg.abTACDenial, 5);
 425:src/ctlcfg.c  ****   data[5*2] = 0x00;
 426:src/ctlcfg.c  ****   len += PackInfoData(p_mem+len, data, pack_width);
 427:src/ctlcfg.c  **** 
 428:src/ctlcfg.c  ****   // TAC Online
 429:src/ctlcfg.c  ****   strcpy(p_mem+len, "TAC Online: ");
 430:src/ctlcfg.c  ****   split(data, aCtlCfg.abTACOnline, 5);
 431:src/ctlcfg.c  ****   data[5*2] = 0x00;
 432:src/ctlcfg.c  ****   len += PackInfoData(p_mem+len, data, pack_width);
 433:src/ctlcfg.c  **** 
 434:src/ctlcfg.c  ****   // TAC Default
ARM GAS  C:\Users\AHMED~1.ELE\AppData\Local\Temp\ccWMHy5f.s 			page 24


 435:src/ctlcfg.c  ****   strcpy(p_mem+len, "TAC Denial: ");
 436:src/ctlcfg.c  ****   split(data, aCtlCfg.abTACDefault, 5);
 437:src/ctlcfg.c  ****   data[5*2] = 0x00;
 438:src/ctlcfg.c  ****   len += PackInfoData(p_mem+len, data, pack_width);
 439:src/ctlcfg.c  **** 
 440:src/ctlcfg.c  ****   // Term Cap
 441:src/ctlcfg.c  ****   if (LDLoad(buf, aCtlCfg.abTLV, 0x9F33)) {
 442:src/ctlcfg.c  ****     memset(data, 0x00, sizeof(data));
 443:src/ctlcfg.c  ****     split(data, buf+1, buf[0]);
 444:src/ctlcfg.c  ****     strcpy(p_mem+len, "Term Cap: ");
 445:src/ctlcfg.c  ****     len += PackInfoData(p_mem+len, data, pack_width);
 446:src/ctlcfg.c  ****   }
 447:src/ctlcfg.c  **** 
 448:src/ctlcfg.c  ****   // Add Cap
 449:src/ctlcfg.c  ****   if (LDLoad(buf, aCtlCfg.abTLV, 0x9F40)) {
 450:src/ctlcfg.c  ****     memset(data, 0x00, sizeof(data));
 451:src/ctlcfg.c  ****     split(data, buf+1, buf[0]);
 452:src/ctlcfg.c  ****     strcpy(p_mem+len, "Add Cap: ");
 453:src/ctlcfg.c  ****     len += PackInfoData(p_mem+len, data, pack_width);
 454:src/ctlcfg.c  ****   }
 455:src/ctlcfg.c  **** 
 456:src/ctlcfg.c  ****   // setup data info
 457:src/ctlcfg.c  ****   SprintfMW(data, " CTL APP CFG");
 458:src/ctlcfg.c  ****   info_data.b_line_width  = (unsigned char)pack_width;
 459:src/ctlcfg.c  ****   info_data.w_info_len    = len;
 460:src/ctlcfg.c  ****   info_data.pb_header     = data;
 461:src/ctlcfg.c  ****   info_data.pb_info       = p_mem;
 462:src/ctlcfg.c  **** 
 463:src/ctlcfg.c  ****   if (aToDisplay) {
 464:src/ctlcfg.c  ****     if (DispInfoData(info_data) == MWKEY_CANCL) {
 465:src/ctlcfg.c  ****       ret_ok = FALSE;
 466:src/ctlcfg.c  ****     }
 467:src/ctlcfg.c  ****   }
 468:src/ctlcfg.c  ****   else  {
 469:src/ctlcfg.c  ****     PrintRcptLF(2);
 470:src/ctlcfg.c  ****     LptPutS(&data[1]);
 471:src/ctlcfg.c  ****     PrintRcptLF(1);
 472:src/ctlcfg.c  ****     ret_ok = PrintBuf(info_data.pb_info, info_data.w_info_len, TRUE);
 473:src/ctlcfg.c  ****   }
 474:src/ctlcfg.c  **** 
 475:src/ctlcfg.c  ****   FreeMW(p_mem);
 476:src/ctlcfg.c  ****   return ret_ok;
 477:src/ctlcfg.c  **** }
 478:src/ctlcfg.c  **** //*****************************************************************************
 479:src/ctlcfg.c  **** //  Function        : PrintCTLKeyInfo
 480:src/ctlcfg.c  **** //  Description     : print or display CTL key info.
 481:src/ctlcfg.c  **** //  Input           : aDetail
 482:src/ctlcfg.c  **** //                    aToDisplay
 483:src/ctlcfg.c  **** //  Return          : TRUE / FALSE
 484:src/ctlcfg.c  **** //  Note            : N/A
 485:src/ctlcfg.c  **** //  Globals Changed : N/A
 486:src/ctlcfg.c  **** //*****************************************************************************
 487:src/ctlcfg.c  **** static BOOLEAN PrintCTLKeyInfo(BOOLEAN aDetail, BOOLEAN aToDisplay)
 488:src/ctlcfg.c  **** {
 489:src/ctlcfg.c  ****   BOOLEAN ret_ok = TRUE;
 490:src/ctlcfg.c  ****   char *p_mem, data[64];
 491:src/ctlcfg.c  ****   WORD i, len, pack_width;
ARM GAS  C:\Users\AHMED~1.ELE\AppData\Local\Temp\ccWMHy5f.s 			page 25


 492:src/ctlcfg.c  ****   struct INFO_DATA info_data;
 493:src/ctlcfg.c  ****   CL_KEY_INFO key_info;
 494:src/ctlcfg.c  **** 
 495:src/ctlcfg.c  ****   // allocate large memory
 496:src/ctlcfg.c  ****   if ((p_mem = MallocMW(1024)) == NULL) {
 497:src/ctlcfg.c  ****     return FALSE;
 498:src/ctlcfg.c  ****   }
 499:src/ctlcfg.c  **** 
 500:src/ctlcfg.c  ****   // init
 501:src/ctlcfg.c  ****   len = 0;
 502:src/ctlcfg.c  ****   pack_width = (aToDisplay)? MW_MAX_LINESIZE : PRINT_WIDTH;
 503:src/ctlcfg.c  **** 
 504:src/ctlcfg.c  ****   if (!aToDisplay) {
 505:src/ctlcfg.c  ****     PrintRcptLF(2);
 506:src/ctlcfg.c  ****     strcpy(data, "CTL KEY INFO");
 507:src/ctlcfg.c  ****     LptPutS(data);
 508:src/ctlcfg.c  ****     PrintRcptLF(1);
 509:src/ctlcfg.c  ****   }
 510:src/ctlcfg.c  **** 
 511:src/ctlcfg.c  ****   // get key info one by one
 512:src/ctlcfg.c  ****   for (i=0; i<MAX_CL_KEY; i++) {
 513:src/ctlcfg.c  ****     // get key info
 514:src/ctlcfg.c  ****     if (!GetCTLKeyInfo(&key_info, i)) {
 515:src/ctlcfg.c  ****       break;
 516:src/ctlcfg.c  ****     }
 517:src/ctlcfg.c  **** 
 518:src/ctlcfg.c  ****     // set description
 519:src/ctlcfg.c  ****     if ((i==0) || ((len==0)&&(aToDisplay))) {
 520:src/ctlcfg.c  ****       strcpy(p_mem+len, "Public Key-ID");
 521:src/ctlcfg.c  ****       len += PackInfoData(p_mem+len, "Eff   Exp  ", pack_width);
 522:src/ctlcfg.c  ****     }
 523:src/ctlcfg.c  **** 
 524:src/ctlcfg.c  ****     // set key info
 525:src/ctlcfg.c  ****     split(p_mem+len, key_info.abRID, 5);
 526:src/ctlcfg.c  ****     p_mem[len+10] = '-';
 527:src/ctlcfg.c  ****     SprintfMW(p_mem+len+11, "%02X", key_info.bKeyIdx);
 528:src/ctlcfg.c  ****     SprintfMW(data, "%02X/%02X ", key_info.wEffectMMYY/256, key_info.wEffectMMYY%256);
 529:src/ctlcfg.c  ****     SprintfMW(data+strlen(data), "%02X/%02X ", key_info.wExpiryMMYY/256, key_info.wExpiryMMYY%256);
 530:src/ctlcfg.c  ****     len += PackInfoData(p_mem+len, data, pack_width);
 531:src/ctlcfg.c  **** 
 532:src/ctlcfg.c  ****     // print first to prevent overfall
 533:src/ctlcfg.c  **** 
 534:src/ctlcfg.c  **** 
 535:src/ctlcfg.c  ****     if (len > 960) {
 536:src/ctlcfg.c  ****       SprintfMW(data, " CTL KEY INFO");
 537:src/ctlcfg.c  ****       info_data.b_line_width  = (unsigned char)pack_width;
 538:src/ctlcfg.c  ****       info_data.w_info_len    = len;
 539:src/ctlcfg.c  ****       info_data.pb_header     = data;
 540:src/ctlcfg.c  ****       info_data.pb_info       = p_mem;
 541:src/ctlcfg.c  ****       len = 0;
 542:src/ctlcfg.c  ****       if (aToDisplay) {
 543:src/ctlcfg.c  ****         if (DispInfoData(info_data) == MWKEY_CANCL) {
 544:src/ctlcfg.c  ****           ret_ok = FALSE;
 545:src/ctlcfg.c  ****           break;
 546:src/ctlcfg.c  ****         }
 547:src/ctlcfg.c  ****       }
 548:src/ctlcfg.c  ****       else  {
ARM GAS  C:\Users\AHMED~1.ELE\AppData\Local\Temp\ccWMHy5f.s 			page 26


 549:src/ctlcfg.c  ****         ret_ok = PrintBuf(info_data.pb_info, info_data.w_info_len, TRUE);
 550:src/ctlcfg.c  ****       }
 551:src/ctlcfg.c  ****     }
 552:src/ctlcfg.c  ****   }
 553:src/ctlcfg.c  **** 
 554:src/ctlcfg.c  ****   // setup data info
 555:src/ctlcfg.c  ****   SprintfMW(data, " CTL KEY INFO");
 556:src/ctlcfg.c  ****   info_data.b_line_width  = (unsigned char)pack_width;
 557:src/ctlcfg.c  ****   info_data.w_info_len    = len;
 558:src/ctlcfg.c  ****   info_data.pb_header     = data;
 559:src/ctlcfg.c  ****   info_data.pb_info       = p_mem;
 560:src/ctlcfg.c  **** 
 561:src/ctlcfg.c  ****   if (len && ret_ok) {
 562:src/ctlcfg.c  ****     if (aToDisplay) {
 563:src/ctlcfg.c  ****       if (DispInfoData(info_data) == MWKEY_CANCL) {
 564:src/ctlcfg.c  ****         ret_ok = FALSE;
 565:src/ctlcfg.c  ****       }
 566:src/ctlcfg.c  ****     }
 567:src/ctlcfg.c  ****     else  {
 568:src/ctlcfg.c  ****       ret_ok = PrintBuf(info_data.pb_info, info_data.w_info_len, TRUE);
 569:src/ctlcfg.c  ****     }
 570:src/ctlcfg.c  ****   }
 571:src/ctlcfg.c  **** 
 572:src/ctlcfg.c  ****   FreeMW(p_mem);
 573:src/ctlcfg.c  ****   return ret_ok;
 574:src/ctlcfg.c  **** }
 575:src/ctlcfg.c  **** //*****************************************************************************
 576:src/ctlcfg.c  **** //  Function        : PrintCTLParam
 577:src/ctlcfg.c  **** //  Description     : print or display CTL parameter report.
 578:src/ctlcfg.c  **** //  Input           : aDetail
 579:src/ctlcfg.c  **** //                    aToDisplay
 580:src/ctlcfg.c  **** //  Return          : TRUE / FALSE
 581:src/ctlcfg.c  **** //  Note            : N/A
 582:src/ctlcfg.c  **** //  Globals Changed : N/A
 583:src/ctlcfg.c  **** //*****************************************************************************
 584:src/ctlcfg.c  **** BOOLEAN PrintCTLParam(BOOLEAN aDetail, BOOLEAN aToDisplay)
 585:src/ctlcfg.c  **** {
 849              		.loc 1 585 0
 850              		.cfi_startproc
 851              		@ args = 0, pretend = 0, frame = 1224
 852              		@ frame_needed = 0, uses_anonymous_args = 0
 853              	.LVL57:
 854 0000 2DE9F04F 		push	{r4, r5, r6, r7, r8, r9, r10, fp, lr}
 855              		.cfi_def_cfa_offset 36
 856              		.cfi_offset 4, -36
 857              		.cfi_offset 5, -32
 858              		.cfi_offset 6, -28
 859              		.cfi_offset 7, -24
 860              		.cfi_offset 8, -20
 861              		.cfi_offset 9, -16
 862              		.cfi_offset 10, -12
 863              		.cfi_offset 11, -8
 864              		.cfi_offset 14, -4
 865 0004 0029     		cmp	r1, #0
 866 0006 14BF     		ite	ne
 867 0008 1A26     		movne	r6, #26
 868 000a 2026     		moveq	r6, #32
ARM GAS  C:\Users\AHMED~1.ELE\AppData\Local\Temp\ccWMHy5f.s 			page 27


 869 000c ADF2D44D 		subw	sp, sp, #1236
 870              		.cfi_def_cfa_offset 1272
 871 0010 0F46     		mov	r7, r1
 872              	.LBB22:
 873              	.LBB23:
 458:src/ctlcfg.c  ****   info_data.w_info_len    = len;
 874              		.loc 1 458 0
 875 0012 5FFA86F9 		uxtb	r9, r6
 876              	.LBE23:
 877              	.LBE22:
 586:src/ctlcfg.c  ****   BOOLEAN ret_ok = TRUE;
 587:src/ctlcfg.c  ****   int i;
 588:src/ctlcfg.c  ****   CL_CFGP ctl_cfg;
 589:src/ctlcfg.c  **** 
 590:src/ctlcfg.c  ****   // CTL app cfg
 591:src/ctlcfg.c  ****   for (i=0; i<MAX_CL_CFG && ret_ok; i++) {
 878              		.loc 1 591 0
 879 0016 4FF00008 		mov	r8, #0
 586:src/ctlcfg.c  ****   BOOLEAN ret_ok = TRUE;
 880              		.loc 1 586 0
 881 001a 4FF0010A 		mov	r10, #1
 882              	.LVL58:
 883              	.L96:
 884              	.LBB25:
 885              	.LBB26:
 291:src/ctlcfg.c  ****   sCTLIn->pbMsg[0] = (BYTE) aIdx;
 886              		.loc 1 291 0
 887 001e 2D4C     		ldr	r4, .L159
 294:src/ctlcfg.c  ****     return FALSE;
 888              		.loc 1 294 0
 889 0020 6420     		movs	r0, #100
 291:src/ctlcfg.c  ****   sCTLIn->pbMsg[0] = (BYTE) aIdx;
 890              		.loc 1 291 0
 891 0022 A268     		ldr	r2, [r4, #8]
 892 0024 2368     		ldr	r3, [r4]
 893 0026 6168     		ldr	r1, [r4, #4]
 894 0028 4A60     		str	r2, [r1, #4]
 895 002a 5A60     		str	r2, [r3, #4]
 292:src/ctlcfg.c  ****   sCTLIn->wLen = 1;
 896              		.loc 1 292 0
 897 002c 82F80080 		strb	r8, [r2]
 293:src/ctlcfg.c  ****   if (emvclSetup(CLCMD_READ_AIDIDX,sCTLIn,sCTLOut) == FALSE)     // load APP parameters
 898              		.loc 1 293 0
 899 0030 0122     		movs	r2, #1
 900 0032 1A80     		strh	r2, [r3]	@ movhi
 294:src/ctlcfg.c  ****     return FALSE;
 901              		.loc 1 294 0
 902 0034 0091     		str	r1, [sp]
 903 0036 0922     		movs	r2, #9
 904 0038 0021     		movs	r1, #0
 905 003a FFF7FEFF 		bl	lib_app_call
 906              	.LVL59:
 907 003e 10F0FF0F 		tst	r0, #255
 908 0042 09D1     		bne	.L78
 909              	.LVL60:
 910              	.L98:
 911              	.LBE26:
ARM GAS  C:\Users\AHMED~1.ELE\AppData\Local\Temp\ccWMHy5f.s 			page 28


 912              	.LBE25:
 913              	.LBB28:
 914              	.LBB29:
 496:src/ctlcfg.c  ****     return FALSE;
 915              		.loc 1 496 0
 916 0044 9220     		movs	r0, #146
 917 0046 4FF48061 		mov	r1, #1024
 918 004a FFF7FEFF 		bl	sys_func1
 919              	.LVL61:
 920 004e 0646     		mov	r6, r0
 921 0050 0028     		cmp	r0, #0
 922 0052 40F04582 		bne	.L156
 923 0056 DAE2     		b	.L158
 924              	.LVL62:
 925              	.L78:
 926              	.LBE29:
 927              	.LBE28:
 928              	.LBB31:
 929              	.LBB27:
 296:src/ctlcfg.c  ****   return TRUE;
 930              		.loc 1 296 0
 931 0058 6368     		ldr	r3, [r4, #4]
 932 005a 28A8     		add	r0, sp, #160
 933              	.LVL63:
 934 005c 5C68     		ldr	r4, [r3, #4]
 935 005e 40F21722 		movw	r2, #535
 936 0062 2146     		mov	r1, r4
 937 0064 FFF7FEFF 		bl	memcpy
 938              	.LVL64:
 939 0068 2378     		ldrb	r3, [r4]	@ zero_extendqisi2
 940              	.LVL65:
 941              	.LBE27:
 942              	.LBE31:
 592:src/ctlcfg.c  ****     if (!GetCTLAppCfg(&ctl_cfg, i)) {
 593:src/ctlcfg.c  ****       break;
 594:src/ctlcfg.c  ****     }
 595:src/ctlcfg.c  ****     if (ctl_cfg.bEType == 0) {
 943              		.loc 1 595 0
 944 006a 002B     		cmp	r3, #0
 945 006c 00F02982 		beq	.L81
 946 0070 28A9     		add	r1, sp, #160
 947              	.LVL66:
 948 0072 40F21722 		movw	r2, #535
 949 0076 AEA8     		add	r0, sp, #696
 950 0078 8DF8A030 		strb	r3, [sp, #160]
 951 007c FFF7FEFF 		bl	memcpy
 952              	.LVL67:
 953              	.LBB32:
 954              	.LBB24:
 338:src/ctlcfg.c  ****     return FALSE;
 955              		.loc 1 338 0
 956 0080 9220     		movs	r0, #146
 957 0082 4FF48061 		mov	r1, #1024
 958 0086 FFF7FEFF 		bl	sys_func1
 959              	.LVL68:
 960 008a 0546     		mov	r5, r0
 961 008c 0028     		cmp	r0, #0
ARM GAS  C:\Users\AHMED~1.ELE\AppData\Local\Temp\ccWMHy5f.s 			page 29


 962 008e 00F01782 		beq	.L110
 963              	.LVL69:
 347:src/ctlcfg.c  ****     memset(data, 0x00, sizeof(data));
 964              		.loc 1 347 0
 965 0092 AEAB     		add	r3, sp, #696
 966 0094 08A8     		add	r0, sp, #32
 967              	.LVL70:
 968 0096 03F11701 		add	r1, r3, #23
 969 009a 49F60672 		movw	r2, #40710
 970 009e FFF7FEFF 		bl	LDLoad
 971              	.LVL71:
 972 00a2 D8B1     		cbz	r0, .L111
 348:src/ctlcfg.c  ****     split(data, buf+1, buf[0]);
 973              		.loc 1 348 0
 974 00a4 0021     		movs	r1, #0
 975 00a6 4022     		movs	r2, #64
 976 00a8 18A8     		add	r0, sp, #96
 977 00aa FFF7FEFF 		bl	memset
 978              	.LVL72:
 349:src/ctlcfg.c  ****     strcpy(p_mem+len, "AID: ");
 979              		.loc 1 349 0
 980 00ae 9DF92020 		ldrsb	r2, [sp, #32]
 981 00b2 18A8     		add	r0, sp, #96
 982 00b4 0DF12101 		add	r1, sp, #33
 983 00b8 FFF7FEFF 		bl	split
 984              	.LVL73:
 350:src/ctlcfg.c  ****     len += PackInfoData(p_mem+len, data, pack_width);
 985              		.loc 1 350 0
 986 00bc 0649     		ldr	r1, .L159+4
 987 00be 2846     		mov	r0, r5
 988 00c0 FFF7FEFF 		bl	strcpy
 989              	.LVL74:
 351:src/ctlcfg.c  ****   }
 990              		.loc 1 351 0
 991 00c4 2846     		mov	r0, r5
 992 00c6 18A9     		add	r1, sp, #96
 993 00c8 3246     		mov	r2, r6
 994 00ca FFF7FEFF 		bl	PackInfoData
 995              	.LVL75:
 996 00ce 84B2     		uxth	r4, r0
 997              	.LVL76:
 998 00d0 05E0     		b	.L83
 999              	.L160:
 1000 00d2 00BF     		.align	2
 1001              	.L159:
 1002 00d4 00000000 		.word	.LANCHOR0
 1003 00d8 22000000 		.word	.LC1
 1004              	.LVL77:
 1005              	.L111:
 343:src/ctlcfg.c  ****   pack_width = (aToDisplay)? MW_MAX_LINESIZE : PRINT_WIDTH;
 1006              		.loc 1 343 0
 1007 00dc 0446     		mov	r4, r0
 1008              	.LVL78:
 1009              	.L83:
 355:src/ctlcfg.c  ****   memset(data, 0x00, sizeof(data));
 1010              		.loc 1 355 0
 1011 00de 0DF52E7A 		add	r10, sp, #696
ARM GAS  C:\Users\AHMED~1.ELE\AppData\Local\Temp\ccWMHy5f.s 			page 30


 1012              	.LVL79:
 1013 00e2 05EB040B 		add	fp, r5, r4
 1014 00e6 1AF8172B 		ldrb	r2, [r10], #23	@ zero_extendqisi2
 1015 00ea BE49     		ldr	r1, .L161
 1016 00ec 5846     		mov	r0, fp
 1017 00ee FFF7FEFF 		bl	sprintf
 1018              	.LVL80:
 356:src/ctlcfg.c  ****   if (LDLoad(buf, aCtlCfg.abTLV, 0x9F09)) {
 1019              		.loc 1 356 0
 1020 00f2 0021     		movs	r1, #0
 1021 00f4 4022     		movs	r2, #64
 1022 00f6 18A8     		add	r0, sp, #96
 1023 00f8 FFF7FEFF 		bl	memset
 1024              	.LVL81:
 357:src/ctlcfg.c  ****     strcpy(data, "Ver: ");
 1025              		.loc 1 357 0
 1026 00fc 08A8     		add	r0, sp, #32
 1027 00fe 5146     		mov	r1, r10
 1028 0100 49F60972 		movw	r2, #40713
 1029 0104 FFF7FEFF 		bl	LDLoad
 1030              	.LVL82:
 1031 0108 70B1     		cbz	r0, .L84
 358:src/ctlcfg.c  ****     split(data+strlen(data), buf+1, buf[0]);
 1032              		.loc 1 358 0
 1033 010a B749     		ldr	r1, .L161+4
 1034 010c 18A8     		add	r0, sp, #96
 1035 010e FFF7FEFF 		bl	strcpy
 1036              	.LVL83:
 359:src/ctlcfg.c  ****   }
 1037              		.loc 1 359 0
 1038 0112 18A8     		add	r0, sp, #96
 1039 0114 FFF7FEFF 		bl	strlen
 1040              	.LVL84:
 1041 0118 18AB     		add	r3, sp, #96
 1042 011a 0DF12101 		add	r1, sp, #33
 1043 011e 9DF92020 		ldrsb	r2, [sp, #32]
 1044 0122 1844     		add	r0, r0, r3
 1045 0124 FFF7FEFF 		bl	split
 1046              	.LVL85:
 1047              	.L84:
 361:src/ctlcfg.c  **** 
 1048              		.loc 1 361 0
 1049 0128 18A9     		add	r1, sp, #96
 1050 012a 3246     		mov	r2, r6
 1051 012c 5846     		mov	r0, fp
 1052 012e FFF7FEFF 		bl	PackInfoData
 1053              	.LVL86:
 364:src/ctlcfg.c  ****     memset(data, 0x00, sizeof(data));
 1054              		.loc 1 364 0
 1055 0132 AEAB     		add	r3, sp, #696
 1056 0134 03F11701 		add	r1, r3, #23
 1057 0138 49F61B72 		movw	r2, #40731
 361:src/ctlcfg.c  **** 
 1058              		.loc 1 361 0
 1059 013c 2044     		add	r0, r0, r4
 1060 013e 84B2     		uxth	r4, r0
 1061              	.LVL87:
ARM GAS  C:\Users\AHMED~1.ELE\AppData\Local\Temp\ccWMHy5f.s 			page 31


 364:src/ctlcfg.c  ****     memset(data, 0x00, sizeof(data));
 1062              		.loc 1 364 0
 1063 0140 08A8     		add	r0, sp, #32
 1064 0142 FFF7FEFF 		bl	LDLoad
 1065              	.LVL88:
 1066 0146 C8B1     		cbz	r0, .L85
 365:src/ctlcfg.c  ****     ConvDecimal(buf, 7);
 1067              		.loc 1 365 0
 1068 0148 4022     		movs	r2, #64
 1069 014a 0021     		movs	r1, #0
 1070 014c 18A8     		add	r0, sp, #96
 1071 014e FFF7FEFF 		bl	memset
 1072              	.LVL89:
 366:src/ctlcfg.c  ****     memcpy(data, buf+1, buf[0]);
 1073              		.loc 1 366 0
 1074 0152 08A8     		add	r0, sp, #32
 1075 0154 0721     		movs	r1, #7
 1076 0156 FFF7FEFF 		bl	ConvDecimal
 1077              	.LVL90:
 367:src/ctlcfg.c  ****     strcpy(p_mem+len, "FLR LMT: ");
 1078              		.loc 1 367 0
 1079 015a 08A9     		add	r1, sp, #32
 1080 015c 18A8     		add	r0, sp, #96
 1081 015e 11F9012B 		ldrsb	r2, [r1], #1
 1082 0162 FFF7FEFF 		bl	memcpy
 1083              	.LVL91:
 368:src/ctlcfg.c  ****     len += PackInfoData(p_mem+len, data, pack_width);
 1084              		.loc 1 368 0
 1085 0166 2B19     		adds	r3, r5, r4
 1086 0168 1846     		mov	r0, r3
 1087 016a A049     		ldr	r1, .L161+8
 1088 016c FFF7FEFF 		bl	strcpy
 1089              	.LVL92:
 369:src/ctlcfg.c  ****   }
 1090              		.loc 1 369 0
 1091 0170 18A9     		add	r1, sp, #96
 1092 0172 3246     		mov	r2, r6
 1093 0174 FFF7FEFF 		bl	PackInfoData
 1094              	.LVL93:
 1095 0178 2044     		add	r0, r0, r4
 1096 017a 84B2     		uxth	r4, r0
 1097              	.LVL94:
 1098              	.L85:
 373:src/ctlcfg.c  ****     memset(data, 0x00, sizeof(data));
 1099              		.loc 1 373 0
 1100 017c AEAB     		add	r3, sp, #696
 1101 017e 08A8     		add	r0, sp, #32
 1102 0180 03F11701 		add	r1, r3, #23
 1103 0184 4DF67F72 		movw	r2, #57215
 1104 0188 FFF7FEFF 		bl	LDLoad
 1105              	.LVL95:
 1106 018c C8B1     		cbz	r0, .L86
 374:src/ctlcfg.c  ****     ConvDecimal(buf, 7);
 1107              		.loc 1 374 0
 1108 018e 4022     		movs	r2, #64
 1109 0190 0021     		movs	r1, #0
 1110 0192 18A8     		add	r0, sp, #96
ARM GAS  C:\Users\AHMED~1.ELE\AppData\Local\Temp\ccWMHy5f.s 			page 32


 1111 0194 FFF7FEFF 		bl	memset
 1112              	.LVL96:
 375:src/ctlcfg.c  ****     memcpy(data, buf+1, buf[0]);
 1113              		.loc 1 375 0
 1114 0198 08A8     		add	r0, sp, #32
 1115 019a 0721     		movs	r1, #7
 1116 019c FFF7FEFF 		bl	ConvDecimal
 1117              	.LVL97:
 376:src/ctlcfg.c  ****     strcpy(p_mem+len, "FLR LMT(O): ");
 1118              		.loc 1 376 0
 1119 01a0 08A9     		add	r1, sp, #32
 1120 01a2 18A8     		add	r0, sp, #96
 1121 01a4 11F9012B 		ldrsb	r2, [r1], #1
 1122 01a8 FFF7FEFF 		bl	memcpy
 1123              	.LVL98:
 377:src/ctlcfg.c  ****     len += PackInfoData(p_mem+len, data, pack_width);
 1124              		.loc 1 377 0
 1125 01ac 2B19     		adds	r3, r5, r4
 1126 01ae 1846     		mov	r0, r3
 1127 01b0 8F49     		ldr	r1, .L161+12
 1128 01b2 FFF7FEFF 		bl	strcpy
 1129              	.LVL99:
 378:src/ctlcfg.c  ****   }
 1130              		.loc 1 378 0
 1131 01b6 18A9     		add	r1, sp, #96
 1132 01b8 3246     		mov	r2, r6
 1133 01ba FFF7FEFF 		bl	PackInfoData
 1134              	.LVL100:
 1135 01be 2044     		add	r0, r0, r4
 1136 01c0 84B2     		uxth	r4, r0
 1137              	.LVL101:
 1138              	.L86:
 382:src/ctlcfg.c  ****   SprintfMW(data, "%0d.%02d", aCtlCfg.dRSBThresh/100, aCtlCfg.dRSBThresh%100);
 1139              		.loc 1 382 0
 1140 01c2 05EB040B 		add	fp, r5, r4
 1141 01c6 8B49     		ldr	r1, .L161+16
 1142 01c8 5846     		mov	r0, fp
 1143 01ca FFF7FEFF 		bl	strcpy
 1144              	.LVL102:
 383:src/ctlcfg.c  ****   len += PackInfoData(p_mem+len, data, pack_width);
 1145              		.loc 1 383 0
 1146 01ce BDF8BA32 		ldrh	r3, [sp, #698]
 1147 01d2 BDF8BCA2 		ldrh	r10, [sp, #700]
 1148 01d6 6421     		movs	r1, #100
 1149 01d8 43EA0A4A 		orr	r10, r3, r10, lsl #16
 1150 01dc 5046     		mov	r0, r10
 1151 01de FFF7FEFF 		bl	__aeabi_uidiv
 1152              	.LVL103:
 1153 01e2 6421     		movs	r1, #100
 1154 01e4 0390     		str	r0, [sp, #12]
 1155 01e6 5046     		mov	r0, r10
 1156 01e8 FFF7FEFF 		bl	__aeabi_uidivmod
 1157              	.LVL104:
 1158 01ec 039A     		ldr	r2, [sp, #12]
 1159 01ee 18A8     		add	r0, sp, #96
 1160 01f0 0B46     		mov	r3, r1
 1161 01f2 8149     		ldr	r1, .L161+20
ARM GAS  C:\Users\AHMED~1.ELE\AppData\Local\Temp\ccWMHy5f.s 			page 33


 1162 01f4 FFF7FEFF 		bl	sprintf
 1163              	.LVL105:
 384:src/ctlcfg.c  **** 
 1164              		.loc 1 384 0
 1165 01f8 3246     		mov	r2, r6
 1166 01fa 18A9     		add	r1, sp, #96
 1167 01fc 5846     		mov	r0, fp
 1168 01fe FFF7FEFF 		bl	PackInfoData
 1169              	.LVL106:
 387:src/ctlcfg.c  ****   SprintfMW(data, "%02d-%02d", aCtlCfg.bRSTarget, aCtlCfg.bRSBMax);
 1170              		.loc 1 387 0
 1171 0202 7E49     		ldr	r1, .L161+24
 384:src/ctlcfg.c  **** 
 1172              		.loc 1 384 0
 1173 0204 2044     		add	r0, r0, r4
 1174 0206 84B2     		uxth	r4, r0
 1175              	.LVL107:
 387:src/ctlcfg.c  ****   SprintfMW(data, "%02d-%02d", aCtlCfg.bRSTarget, aCtlCfg.bRSBMax);
 1176              		.loc 1 387 0
 1177 0208 05EB040A 		add	r10, r5, r4
 1178 020c 5046     		mov	r0, r10
 1179 020e FFF7FEFF 		bl	strcpy
 1180              	.LVL108:
 388:src/ctlcfg.c  ****   len += PackInfoData(p_mem+len, data, pack_width);
 1181              		.loc 1 388 0
 1182 0212 9DF8BF32 		ldrb	r3, [sp, #703]	@ zero_extendqisi2
 1183 0216 7A49     		ldr	r1, .L161+28
 1184 0218 9DF8BE22 		ldrb	r2, [sp, #702]	@ zero_extendqisi2
 1185 021c 18A8     		add	r0, sp, #96
 1186 021e FFF7FEFF 		bl	sprintf
 1187              	.LVL109:
 389:src/ctlcfg.c  **** 
 1188              		.loc 1 389 0
 1189 0222 18A9     		add	r1, sp, #96
 1190 0224 3246     		mov	r2, r6
 1191 0226 5046     		mov	r0, r10
 1192 0228 FFF7FEFF 		bl	PackInfoData
 1193              	.LVL110:
 392:src/ctlcfg.c  ****     memset(data, 0x00, sizeof(data));
 1194              		.loc 1 392 0
 1195 022c AEAB     		add	r3, sp, #696
 1196 022e 03F11701 		add	r1, r3, #23
 1197 0232 49F61A72 		movw	r2, #40730
 389:src/ctlcfg.c  **** 
 1198              		.loc 1 389 0
 1199 0236 2044     		add	r0, r0, r4
 1200 0238 84B2     		uxth	r4, r0
 1201              	.LVL111:
 392:src/ctlcfg.c  ****     memset(data, 0x00, sizeof(data));
 1202              		.loc 1 392 0
 1203 023a 08A8     		add	r0, sp, #32
 1204 023c FFF7FEFF 		bl	LDLoad
 1205              	.LVL112:
 1206 0240 B8B1     		cbz	r0, .L87
 393:src/ctlcfg.c  ****     split(data, buf+1, buf[0]);
 1207              		.loc 1 393 0
 1208 0242 0021     		movs	r1, #0
ARM GAS  C:\Users\AHMED~1.ELE\AppData\Local\Temp\ccWMHy5f.s 			page 34


 1209 0244 4022     		movs	r2, #64
 1210 0246 18A8     		add	r0, sp, #96
 1211 0248 FFF7FEFF 		bl	memset
 1212              	.LVL113:
 394:src/ctlcfg.c  ****     strcpy(p_mem+len, "Country: ");
 1213              		.loc 1 394 0
 1214 024c 9DF92020 		ldrsb	r2, [sp, #32]
 1215 0250 18A8     		add	r0, sp, #96
 1216 0252 0DF12101 		add	r1, sp, #33
 1217 0256 FFF7FEFF 		bl	split
 1218              	.LVL114:
 395:src/ctlcfg.c  ****     len += PackInfoData(p_mem+len, data+1, pack_width);
 1219              		.loc 1 395 0
 1220 025a 2B19     		adds	r3, r5, r4
 1221 025c 1846     		mov	r0, r3
 1222 025e 6949     		ldr	r1, .L161+32
 1223 0260 FFF7FEFF 		bl	strcpy
 1224              	.LVL115:
 396:src/ctlcfg.c  ****   }
 1225              		.loc 1 396 0
 1226 0264 0DF16101 		add	r1, sp, #97
 1227 0268 3246     		mov	r2, r6
 1228 026a FFF7FEFF 		bl	PackInfoData
 1229              	.LVL116:
 1230 026e 2044     		add	r0, r0, r4
 1231 0270 84B2     		uxth	r4, r0
 1232              	.LVL117:
 1233              	.L87:
 400:src/ctlcfg.c  ****     memset(data, 0x00, sizeof(data));
 1234              		.loc 1 400 0
 1235 0272 AEAB     		add	r3, sp, #696
 1236 0274 08A8     		add	r0, sp, #32
 1237 0276 03F11701 		add	r1, r3, #23
 1238 027a 45F62A72 		movw	r2, #24362
 1239 027e FFF7FEFF 		bl	LDLoad
 1240              	.LVL118:
 1241 0282 B8B1     		cbz	r0, .L88
 401:src/ctlcfg.c  ****     split(data, buf+1, buf[0]);
 1242              		.loc 1 401 0
 1243 0284 0021     		movs	r1, #0
 1244 0286 4022     		movs	r2, #64
 1245 0288 18A8     		add	r0, sp, #96
 1246 028a FFF7FEFF 		bl	memset
 1247              	.LVL119:
 402:src/ctlcfg.c  ****     strcpy(p_mem+len, "Currency: ");
 1248              		.loc 1 402 0
 1249 028e 9DF92020 		ldrsb	r2, [sp, #32]
 1250 0292 18A8     		add	r0, sp, #96
 1251 0294 0DF12101 		add	r1, sp, #33
 1252 0298 FFF7FEFF 		bl	split
 1253              	.LVL120:
 403:src/ctlcfg.c  ****     len += PackInfoData(p_mem+len, data+1, pack_width);
 1254              		.loc 1 403 0
 1255 029c 2B19     		adds	r3, r5, r4
 1256 029e 1846     		mov	r0, r3
 1257 02a0 5949     		ldr	r1, .L161+36
 1258 02a2 FFF7FEFF 		bl	strcpy
ARM GAS  C:\Users\AHMED~1.ELE\AppData\Local\Temp\ccWMHy5f.s 			page 35


 1259              	.LVL121:
 404:src/ctlcfg.c  ****   }
 1260              		.loc 1 404 0
 1261 02a6 0DF16101 		add	r1, sp, #97
 1262 02aa 3246     		mov	r2, r6
 1263 02ac FFF7FEFF 		bl	PackInfoData
 1264              	.LVL122:
 1265 02b0 2044     		add	r0, r0, r4
 1266 02b2 84B2     		uxth	r4, r0
 1267              	.LVL123:
 1268              	.L88:
 408:src/ctlcfg.c  **** 
 1269              		.loc 1 408 0
 1270 02b4 3246     		mov	r2, r6
 1271 02b6 2819     		adds	r0, r5, r4
 1272 02b8 5449     		ldr	r1, .L161+40
 1273 02ba FFF7FEFF 		bl	PackInfoData
 1274              	.LVL124:
 411:src/ctlcfg.c  ****   data[0] = (!(aCtlCfg.bBitField&BIT_PARTIAL_NA))? 'Y':'N';
 1275              		.loc 1 411 0
 1276 02be 5449     		ldr	r1, .L161+44
 413:src/ctlcfg.c  ****   len += PackInfoData(p_mem+len, data, pack_width);
 1277              		.loc 1 413 0
 1278 02c0 4FF0000A 		mov	r10, #0
 408:src/ctlcfg.c  **** 
 1279              		.loc 1 408 0
 1280 02c4 2044     		add	r0, r0, r4
 1281 02c6 84B2     		uxth	r4, r0
 1282              	.LVL125:
 411:src/ctlcfg.c  ****   data[0] = (!(aCtlCfg.bBitField&BIT_PARTIAL_NA))? 'Y':'N';
 1283              		.loc 1 411 0
 1284 02c8 2B19     		adds	r3, r5, r4
 1285 02ca 1846     		mov	r0, r3
 1286 02cc FFF7FEFF 		bl	strcpy
 1287              	.LVL126:
 412:src/ctlcfg.c  ****   data[1] = 0x00;
 1288              		.loc 1 412 0
 1289 02d0 9DF8B922 		ldrb	r2, [sp, #697]	@ zero_extendqisi2
 414:src/ctlcfg.c  **** 
 1290              		.loc 1 414 0
 1291 02d4 18A9     		add	r1, sp, #96
 412:src/ctlcfg.c  ****   data[1] = 0x00;
 1292              		.loc 1 412 0
 1293 02d6 12F0010F 		tst	r2, #1
 1294 02da 0CBF     		ite	eq
 1295 02dc 5922     		moveq	r2, #89
 1296 02de 4E22     		movne	r2, #78
 413:src/ctlcfg.c  ****   len += PackInfoData(p_mem+len, data, pack_width);
 1297              		.loc 1 413 0
 1298 02e0 8DF861A0 		strb	r10, [sp, #97]
 412:src/ctlcfg.c  ****   data[1] = 0x00;
 1299              		.loc 1 412 0
 1300 02e4 8DF86020 		strb	r2, [sp, #96]
 414:src/ctlcfg.c  **** 
 1301              		.loc 1 414 0
 1302 02e8 3246     		mov	r2, r6
 1303 02ea FFF7FEFF 		bl	PackInfoData
ARM GAS  C:\Users\AHMED~1.ELE\AppData\Local\Temp\ccWMHy5f.s 			page 36


 1304              	.LVL127:
 417:src/ctlcfg.c  ****   data[0] = (!(aCtlCfg.bBitField&BIT_REFERRAL_NA))? 'Y':'N';
 1305              		.loc 1 417 0
 1306 02ee 4949     		ldr	r1, .L161+48
 414:src/ctlcfg.c  **** 
 1307              		.loc 1 414 0
 1308 02f0 2044     		add	r0, r0, r4
 1309 02f2 84B2     		uxth	r4, r0
 1310              	.LVL128:
 417:src/ctlcfg.c  ****   data[0] = (!(aCtlCfg.bBitField&BIT_REFERRAL_NA))? 'Y':'N';
 1311              		.loc 1 417 0
 1312 02f4 2B19     		adds	r3, r5, r4
 1313 02f6 1846     		mov	r0, r3
 1314 02f8 FFF7FEFF 		bl	strcpy
 1315              	.LVL129:
 418:src/ctlcfg.c  ****   data[1] = 0x00;
 1316              		.loc 1 418 0
 1317 02fc 9DF8B922 		ldrb	r2, [sp, #697]	@ zero_extendqisi2
 420:src/ctlcfg.c  **** 
 1318              		.loc 1 420 0
 1319 0300 18A9     		add	r1, sp, #96
 418:src/ctlcfg.c  ****   data[1] = 0x00;
 1320              		.loc 1 418 0
 1321 0302 12F0020F 		tst	r2, #2
 1322 0306 0CBF     		ite	eq
 1323 0308 5922     		moveq	r2, #89
 1324 030a 4E22     		movne	r2, #78
 419:src/ctlcfg.c  ****   len += PackInfoData(p_mem+len, data, pack_width);
 1325              		.loc 1 419 0
 1326 030c 8DF861A0 		strb	r10, [sp, #97]
 418:src/ctlcfg.c  ****   data[1] = 0x00;
 1327              		.loc 1 418 0
 1328 0310 8DF86020 		strb	r2, [sp, #96]
 420:src/ctlcfg.c  **** 
 1329              		.loc 1 420 0
 1330 0314 3246     		mov	r2, r6
 1331 0316 FFF7FEFF 		bl	PackInfoData
 1332              	.LVL130:
 423:src/ctlcfg.c  ****   split(data, aCtlCfg.abTACDenial, 5);
 1333              		.loc 1 423 0
 1334 031a 3F49     		ldr	r1, .L161+52
 420:src/ctlcfg.c  **** 
 1335              		.loc 1 420 0
 1336 031c 2044     		add	r0, r0, r4
 1337 031e 84B2     		uxth	r4, r0
 1338              	.LVL131:
 423:src/ctlcfg.c  ****   split(data, aCtlCfg.abTACDenial, 5);
 1339              		.loc 1 423 0
 1340 0320 05EB040B 		add	fp, r5, r4
 1341 0324 5846     		mov	r0, fp
 1342 0326 FFF7FEFF 		bl	strcpy
 1343              	.LVL132:
 424:src/ctlcfg.c  ****   data[5*2] = 0x00;
 1344              		.loc 1 424 0
 1345 032a 18A8     		add	r0, sp, #96
 1346 032c B0A9     		add	r1, sp, #704
 1347 032e 0522     		movs	r2, #5
ARM GAS  C:\Users\AHMED~1.ELE\AppData\Local\Temp\ccWMHy5f.s 			page 37


 1348 0330 FFF7FEFF 		bl	split
 1349              	.LVL133:
 426:src/ctlcfg.c  **** 
 1350              		.loc 1 426 0
 1351 0334 3246     		mov	r2, r6
 1352 0336 5846     		mov	r0, fp
 1353 0338 18A9     		add	r1, sp, #96
 425:src/ctlcfg.c  ****   len += PackInfoData(p_mem+len, data, pack_width);
 1354              		.loc 1 425 0
 1355 033a 8DF86AA0 		strb	r10, [sp, #106]
 426:src/ctlcfg.c  **** 
 1356              		.loc 1 426 0
 1357 033e FFF7FEFF 		bl	PackInfoData
 1358              	.LVL134:
 429:src/ctlcfg.c  ****   split(data, aCtlCfg.abTACOnline, 5);
 1359              		.loc 1 429 0
 1360 0342 3649     		ldr	r1, .L161+56
 426:src/ctlcfg.c  **** 
 1361              		.loc 1 426 0
 1362 0344 2044     		add	r0, r0, r4
 1363 0346 84B2     		uxth	r4, r0
 1364              	.LVL135:
 429:src/ctlcfg.c  ****   split(data, aCtlCfg.abTACOnline, 5);
 1365              		.loc 1 429 0
 1366 0348 05EB040B 		add	fp, r5, r4
 1367 034c 5846     		mov	r0, fp
 1368 034e FFF7FEFF 		bl	strcpy
 1369              	.LVL136:
 430:src/ctlcfg.c  ****   data[5*2] = 0x00;
 1370              		.loc 1 430 0
 1371 0352 AEAB     		add	r3, sp, #696
 1372 0354 03F10D01 		add	r1, r3, #13
 1373 0358 18A8     		add	r0, sp, #96
 1374 035a 0522     		movs	r2, #5
 1375 035c FFF7FEFF 		bl	split
 1376              	.LVL137:
 432:src/ctlcfg.c  **** 
 1377              		.loc 1 432 0
 1378 0360 3246     		mov	r2, r6
 1379 0362 5846     		mov	r0, fp
 1380 0364 18A9     		add	r1, sp, #96
 431:src/ctlcfg.c  ****   len += PackInfoData(p_mem+len, data, pack_width);
 1381              		.loc 1 431 0
 1382 0366 8DF86AA0 		strb	r10, [sp, #106]
 432:src/ctlcfg.c  **** 
 1383              		.loc 1 432 0
 1384 036a FFF7FEFF 		bl	PackInfoData
 1385              	.LVL138:
 435:src/ctlcfg.c  ****   split(data, aCtlCfg.abTACDefault, 5);
 1386              		.loc 1 435 0
 1387 036e 2A49     		ldr	r1, .L161+52
 432:src/ctlcfg.c  **** 
 1388              		.loc 1 432 0
 1389 0370 2044     		add	r0, r0, r4
 1390 0372 84B2     		uxth	r4, r0
 1391              	.LVL139:
 435:src/ctlcfg.c  ****   split(data, aCtlCfg.abTACDefault, 5);
ARM GAS  C:\Users\AHMED~1.ELE\AppData\Local\Temp\ccWMHy5f.s 			page 38


 1392              		.loc 1 435 0
 1393 0374 05EB040B 		add	fp, r5, r4
 1394 0378 5846     		mov	r0, fp
 1395 037a FFF7FEFF 		bl	strcpy
 1396              	.LVL140:
 436:src/ctlcfg.c  ****   data[5*2] = 0x00;
 1397              		.loc 1 436 0
 1398 037e AEAB     		add	r3, sp, #696
 1399 0380 03F11201 		add	r1, r3, #18
 1400 0384 18A8     		add	r0, sp, #96
 1401 0386 0522     		movs	r2, #5
 1402 0388 FFF7FEFF 		bl	split
 1403              	.LVL141:
 438:src/ctlcfg.c  **** 
 1404              		.loc 1 438 0
 1405 038c 18A9     		add	r1, sp, #96
 1406 038e 3246     		mov	r2, r6
 1407 0390 5846     		mov	r0, fp
 437:src/ctlcfg.c  ****   len += PackInfoData(p_mem+len, data, pack_width);
 1408              		.loc 1 437 0
 1409 0392 8DF86AA0 		strb	r10, [sp, #106]
 438:src/ctlcfg.c  **** 
 1410              		.loc 1 438 0
 1411 0396 FFF7FEFF 		bl	PackInfoData
 1412              	.LVL142:
 441:src/ctlcfg.c  ****     memset(data, 0x00, sizeof(data));
 1413              		.loc 1 441 0
 1414 039a AEAB     		add	r3, sp, #696
 1415 039c 03F11701 		add	r1, r3, #23
 438:src/ctlcfg.c  **** 
 1416              		.loc 1 438 0
 1417 03a0 2044     		add	r0, r0, r4
 441:src/ctlcfg.c  ****     memset(data, 0x00, sizeof(data));
 1418              		.loc 1 441 0
 1419 03a2 49F63372 		movw	r2, #40755
 438:src/ctlcfg.c  **** 
 1420              		.loc 1 438 0
 1421 03a6 84B2     		uxth	r4, r0
 1422              	.LVL143:
 441:src/ctlcfg.c  ****     memset(data, 0x00, sizeof(data));
 1423              		.loc 1 441 0
 1424 03a8 08A8     		add	r0, sp, #32
 1425 03aa FFF7FEFF 		bl	LDLoad
 1426              	.LVL144:
 1427 03ae 0028     		cmp	r0, #0
 1428 03b0 38D0     		beq	.L91
 442:src/ctlcfg.c  ****     split(data, buf+1, buf[0]);
 1429              		.loc 1 442 0
 1430 03b2 5146     		mov	r1, r10
 1431 03b4 4022     		movs	r2, #64
 1432 03b6 18A8     		add	r0, sp, #96
 1433 03b8 FFF7FEFF 		bl	memset
 1434              	.LVL145:
 443:src/ctlcfg.c  ****     strcpy(p_mem+len, "Term Cap: ");
 1435              		.loc 1 443 0
 1436 03bc 9DF92020 		ldrsb	r2, [sp, #32]
 1437 03c0 18A8     		add	r0, sp, #96
ARM GAS  C:\Users\AHMED~1.ELE\AppData\Local\Temp\ccWMHy5f.s 			page 39


 1438 03c2 0DF12101 		add	r1, sp, #33
 1439 03c6 FFF7FEFF 		bl	split
 1440              	.LVL146:
 444:src/ctlcfg.c  ****     len += PackInfoData(p_mem+len, data, pack_width);
 1441              		.loc 1 444 0
 1442 03ca 2B19     		adds	r3, r5, r4
 1443 03cc 1846     		mov	r0, r3
 1444 03ce 1449     		ldr	r1, .L161+60
 1445 03d0 FFF7FEFF 		bl	strcpy
 1446              	.LVL147:
 445:src/ctlcfg.c  ****   }
 1447              		.loc 1 445 0
 1448 03d4 18A9     		add	r1, sp, #96
 1449 03d6 3246     		mov	r2, r6
 1450 03d8 FFF7FEFF 		bl	PackInfoData
 1451              	.LVL148:
 1452 03dc 2044     		add	r0, r0, r4
 1453 03de 84B2     		uxth	r4, r0
 1454 03e0 20E0     		b	.L162
 1455              	.L163:
 1456 03e2 00BF     		.align	2
 1457              	.L161:
 1458 03e4 28000000 		.word	.LC2
 1459 03e8 34000000 		.word	.LC3
 1460 03ec 3A000000 		.word	.LC4
 1461 03f0 44000000 		.word	.LC5
 1462 03f4 51000000 		.word	.LC6
 1463 03f8 60000000 		.word	.LC7
 1464 03fc 69000000 		.word	.LC8
 1465 0400 74000000 		.word	.LC9
 1466 0404 7E000000 		.word	.LC10
 1467 0408 88000000 		.word	.LC11
 1468 040c 93000000 		.word	.LC12
 1469 0410 94000000 		.word	.LC13
 1470 0414 A8000000 		.word	.LC14
 1471 0418 BA000000 		.word	.LC15
 1472 041c C7000000 		.word	.LC16
 1473 0420 D4000000 		.word	.LC17
 1474              	.L162:
 1475              	.LVL149:
 1476              	.L91:
 449:src/ctlcfg.c  ****     memset(data, 0x00, sizeof(data));
 1477              		.loc 1 449 0
 1478 0424 AEAB     		add	r3, sp, #696
 1479 0426 08A8     		add	r0, sp, #32
 1480 0428 03F11701 		add	r1, r3, #23
 1481 042c 49F64072 		movw	r2, #40768
 1482 0430 FFF7FEFF 		bl	LDLoad
 1483              	.LVL150:
 1484 0434 0DF1600A 		add	r10, sp, #96
 1485 0438 B0B1     		cbz	r0, .L92
 450:src/ctlcfg.c  ****     split(data, buf+1, buf[0]);
 1486              		.loc 1 450 0
 1487 043a 0021     		movs	r1, #0
 1488 043c 4022     		movs	r2, #64
 1489 043e 5046     		mov	r0, r10
 1490 0440 FFF7FEFF 		bl	memset
ARM GAS  C:\Users\AHMED~1.ELE\AppData\Local\Temp\ccWMHy5f.s 			page 40


 1491              	.LVL151:
 451:src/ctlcfg.c  ****     strcpy(p_mem+len, "Add Cap: ");
 1492              		.loc 1 451 0
 1493 0444 9DF92020 		ldrsb	r2, [sp, #32]
 1494 0448 5046     		mov	r0, r10
 1495 044a 0DF12101 		add	r1, sp, #33
 1496 044e FFF7FEFF 		bl	split
 1497              	.LVL152:
 452:src/ctlcfg.c  ****     len += PackInfoData(p_mem+len, data, pack_width);
 1498              		.loc 1 452 0
 1499 0452 2B19     		adds	r3, r5, r4
 1500 0454 1846     		mov	r0, r3
 1501 0456 7949     		ldr	r1, .L164
 1502 0458 FFF7FEFF 		bl	strcpy
 1503              	.LVL153:
 453:src/ctlcfg.c  ****   }
 1504              		.loc 1 453 0
 1505 045c 5146     		mov	r1, r10
 1506 045e 3246     		mov	r2, r6
 1507 0460 FFF7FEFF 		bl	PackInfoData
 1508              	.LVL154:
 1509 0464 2044     		add	r0, r0, r4
 1510 0466 84B2     		uxth	r4, r0
 1511              	.LVL155:
 1512              	.L92:
 457:src/ctlcfg.c  ****   info_data.b_line_width  = (unsigned char)pack_width;
 1513              		.loc 1 457 0
 1514 0468 5046     		mov	r0, r10
 1515 046a 7549     		ldr	r1, .L164+4
 1516 046c FFF7FEFF 		bl	strcpy
 1517              	.LVL156:
 458:src/ctlcfg.c  ****   info_data.w_info_len    = len;
 1518              		.loc 1 458 0
 1519 0470 05AB     		add	r3, sp, #20
 1520 0472 8DF81490 		strb	r9, [sp, #20]
 1521              	.LVL157:
 460:src/ctlcfg.c  ****   info_data.pb_info       = p_mem;
 1522              		.loc 1 460 0
 1523 0476 CDF818A0 		str	r10, [sp, #24]
 1524              	.LVL158:
 463:src/ctlcfg.c  ****     if (DispInfoData(info_data) == MWKEY_CANCL) {
 1525              		.loc 1 463 0
 1526 047a 67B1     		cbz	r7, .L93
 464:src/ctlcfg.c  ****       ret_ok = FALSE;
 1527              		.loc 1 464 0
 1528 047c ADF81640 		strh	r4, [sp, #22]	@ movhi
 1529 0480 0795     		str	r5, [sp, #28]
 1530 0482 93E80700 		ldmia	r3, {r0, r1, r2}
 1531 0486 FFF7FEFF 		bl	DispInfoData
 1532              	.LVL159:
 332:src/ctlcfg.c  ****   char *p_mem, buf[64], data[64];
 1533              		.loc 1 332 0
 1534 048a B0F1110A 		subs	r10, r0, #17
 1535 048e 18BF     		it	ne
 1536 0490 4FF0010A 		movne	r10, #1
 1537 0494 0FE0     		b	.L94
 1538              	.L93:
ARM GAS  C:\Users\AHMED~1.ELE\AppData\Local\Temp\ccWMHy5f.s 			page 41


 469:src/ctlcfg.c  ****     LptPutS(&data[1]);
 1539              		.loc 1 469 0
 1540 0496 0220     		movs	r0, #2
 1541 0498 FFF7FEFF 		bl	PrintRcptLF
 1542              	.LVL160:
 470:src/ctlcfg.c  ****     PrintRcptLF(1);
 1543              		.loc 1 470 0
 1544 049c 0AF10100 		add	r0, r10, #1
 1545 04a0 FFF7FEFF 		bl	LptPutS
 1546              	.LVL161:
 471:src/ctlcfg.c  ****     ret_ok = PrintBuf(info_data.pb_info, info_data.w_info_len, TRUE);
 1547              		.loc 1 471 0
 1548 04a4 0120     		movs	r0, #1
 1549 04a6 FFF7FEFF 		bl	PrintRcptLF
 1550              	.LVL162:
 472:src/ctlcfg.c  ****   }
 1551              		.loc 1 472 0
 1552 04aa 2846     		mov	r0, r5
 1553 04ac 2146     		mov	r1, r4
 1554 04ae 0122     		movs	r2, #1
 1555 04b0 FFF7FEFF 		bl	PrintBuf
 1556              	.LVL163:
 1557 04b4 8246     		mov	r10, r0
 1558              	.LVL164:
 1559              	.L94:
 475:src/ctlcfg.c  ****   return ret_ok;
 1560              		.loc 1 475 0
 1561 04b6 2946     		mov	r1, r5
 1562 04b8 9420     		movs	r0, #148
 1563 04ba FFF7FEFF 		bl	sys_func1
 1564              	.LVL165:
 1565 04be 00E0     		b	.L81
 1566              	.LVL166:
 1567              	.L110:
 339:src/ctlcfg.c  ****   }
 1568              		.loc 1 339 0
 1569 04c0 8246     		mov	r10, r0
 1570              	.LVL167:
 1571              	.L81:
 1572              	.LBE24:
 1573              	.LBE32:
 591:src/ctlcfg.c  ****     if (!GetCTLAppCfg(&ctl_cfg, i)) {
 1574              		.loc 1 591 0 discriminator 2
 1575 04c2 08F10108 		add	r8, r8, #1
 1576              	.LVL168:
 1577 04c6 B8F1100F 		cmp	r8, #16
 1578 04ca 04D0     		beq	.L95
 591:src/ctlcfg.c  ****     if (!GetCTLAppCfg(&ctl_cfg, i)) {
 1579              		.loc 1 591 0 is_stmt 0 discriminator 3
 1580 04cc BAF1000F 		cmp	r10, #0
 1581 04d0 7FF4A5AD 		bne	.L96
 1582 04d4 ADE0     		b	.L157
 1583              	.L95:
 596:src/ctlcfg.c  ****       continue;
 597:src/ctlcfg.c  ****     }
 598:src/ctlcfg.c  ****     ret_ok = PrintCTLAppCfg(ctl_cfg, aDetail, aToDisplay);
 599:src/ctlcfg.c  ****   }
ARM GAS  C:\Users\AHMED~1.ELE\AppData\Local\Temp\ccWMHy5f.s 			page 42


 600:src/ctlcfg.c  **** 
 601:src/ctlcfg.c  ****   //CTL key info
 602:src/ctlcfg.c  ****   if (ret_ok) {
 1584              		.loc 1 602 0 is_stmt 1
 1585 04d6 BAF1000F 		cmp	r10, #0
 1586 04da 00F0AA80 		beq	.L157
 1587 04de B1E5     		b	.L98
 1588              	.LVL169:
 1589              	.L156:
 1590 04e0 18AD     		add	r5, sp, #96
 1591              	.LBB33:
 1592              	.LBB30:
 502:src/ctlcfg.c  **** 
 1593              		.loc 1 502 0
 1594 04e2 002F     		cmp	r7, #0
 1595 04e4 00F09580 		beq	.L99
 1596 04e8 4FF01A08 		mov	r8, #26
 1597              	.LVL170:
 1598              	.L108:
 1599 04ec 4FF00009 		mov	r9, #0
 1600 04f0 4FF0010A 		mov	r10, #1
 1601              	.LVL171:
 1602 04f4 4C46     		mov	r4, r9
 1603              	.LVL172:
 1604              	.L105:
 514:src/ctlcfg.c  ****       break;
 1605              		.loc 1 514 0
 1606 04f6 08A8     		add	r0, sp, #32
 1607 04f8 4946     		mov	r1, r9
 1608 04fa FFF7FEFF 		bl	GetCTLKeyInfo
 1609              	.LVL173:
 1610 04fe 0028     		cmp	r0, #0
 1611 0500 61D0     		beq	.L100
 519:src/ctlcfg.c  ****       strcpy(p_mem+len, "Public Key-ID");
 1612              		.loc 1 519 0
 1613 0502 B9F1000F 		cmp	r9, #0
 1614 0506 01D0     		beq	.L101
 1615 0508 5CB9     		cbnz	r4, .L102
 1616 050a 57B1     		cbz	r7, .L102
 1617              	.L101:
 520:src/ctlcfg.c  ****       len += PackInfoData(p_mem+len, "Eff   Exp  ", pack_width);
 1618              		.loc 1 520 0
 1619 050c 3319     		adds	r3, r6, r4
 1620 050e 1846     		mov	r0, r3
 1621 0510 4C49     		ldr	r1, .L164+8
 1622 0512 FFF7FEFF 		bl	strcpy
 1623              	.LVL174:
 521:src/ctlcfg.c  ****     }
 1624              		.loc 1 521 0
 1625 0516 4C49     		ldr	r1, .L164+12
 1626 0518 4246     		mov	r2, r8
 1627 051a FFF7FEFF 		bl	PackInfoData
 1628              	.LVL175:
 1629 051e 2044     		add	r0, r0, r4
 1630 0520 84B2     		uxth	r4, r0
 1631              	.LVL176:
 1632              	.L102:
ARM GAS  C:\Users\AHMED~1.ELE\AppData\Local\Temp\ccWMHy5f.s 			page 43


 525:src/ctlcfg.c  ****     p_mem[len+10] = '-';
 1633              		.loc 1 525 0
 1634 0522 06EB040B 		add	fp, r6, r4
 1635 0526 5846     		mov	r0, fp
 1636 0528 0DF12101 		add	r1, sp, #33
 1637 052c 0522     		movs	r2, #5
 1638 052e FFF7FEFF 		bl	split
 1639              	.LVL177:
 526:src/ctlcfg.c  ****     SprintfMW(p_mem+len+11, "%02X", key_info.bKeyIdx);
 1640              		.loc 1 526 0
 1641 0532 2D23     		movs	r3, #45
 527:src/ctlcfg.c  ****     SprintfMW(data, "%02X/%02X ", key_info.wEffectMMYY/256, key_info.wEffectMMYY%256);
 1642              		.loc 1 527 0
 1643 0534 04F10B00 		add	r0, r4, #11
 526:src/ctlcfg.c  ****     SprintfMW(p_mem+len+11, "%02X", key_info.bKeyIdx);
 1644              		.loc 1 526 0
 1645 0538 8BF80A30 		strb	r3, [fp, #10]
 527:src/ctlcfg.c  ****     SprintfMW(data, "%02X/%02X ", key_info.wEffectMMYY/256, key_info.wEffectMMYY%256);
 1646              		.loc 1 527 0
 1647 053c 4349     		ldr	r1, .L164+16
 1648 053e 9DF82020 		ldrb	r2, [sp, #32]	@ zero_extendqisi2
 1649 0542 3044     		add	r0, r0, r6
 1650 0544 FFF7FEFF 		bl	sprintf
 1651              	.LVL178:
 528:src/ctlcfg.c  ****     SprintfMW(data+strlen(data), "%02X/%02X ", key_info.wExpiryMMYY/256, key_info.wExpiryMMYY%256);
 1652              		.loc 1 528 0
 1653 0548 BDF82830 		ldrh	r3, [sp, #40]
 1654 054c 4049     		ldr	r1, .L164+20
 1655 054e 1A0A     		lsrs	r2, r3, #8
 1656 0550 2846     		mov	r0, r5
 1657 0552 DBB2     		uxtb	r3, r3
 1658 0554 FFF7FEFF 		bl	sprintf
 1659              	.LVL179:
 529:src/ctlcfg.c  ****     len += PackInfoData(p_mem+len, data, pack_width);
 1660              		.loc 1 529 0
 1661 0558 2846     		mov	r0, r5
 1662 055a FFF7FEFF 		bl	strlen
 1663              	.LVL180:
 1664 055e BDF82630 		ldrh	r3, [sp, #38]
 1665 0562 3B49     		ldr	r1, .L164+20
 1666 0564 1A0A     		lsrs	r2, r3, #8
 1667 0566 2844     		add	r0, r0, r5
 1668 0568 DBB2     		uxtb	r3, r3
 1669 056a FFF7FEFF 		bl	sprintf
 1670              	.LVL181:
 530:src/ctlcfg.c  **** 
 1671              		.loc 1 530 0
 1672 056e 5846     		mov	r0, fp
 1673 0570 2946     		mov	r1, r5
 1674 0572 4246     		mov	r2, r8
 1675 0574 FFF7FEFF 		bl	PackInfoData
 1676              	.LVL182:
 1677 0578 2044     		add	r0, r0, r4
 1678 057a 84B2     		uxth	r4, r0
 1679              	.LVL183:
 535:src/ctlcfg.c  ****       SprintfMW(data, " CTL KEY INFO");
 1680              		.loc 1 535 0
ARM GAS  C:\Users\AHMED~1.ELE\AppData\Local\Temp\ccWMHy5f.s 			page 44


 1681 057c B4F5707F 		cmp	r4, #960
 1682 0580 1AD9     		bls	.L103
 536:src/ctlcfg.c  ****       info_data.b_line_width  = (unsigned char)pack_width;
 1683              		.loc 1 536 0
 1684 0582 2846     		mov	r0, r5
 1685 0584 3349     		ldr	r1, .L164+24
 1686 0586 FFF7FEFF 		bl	strcpy
 1687              	.LVL184:
 537:src/ctlcfg.c  ****       info_data.w_info_len    = len;
 1688              		.loc 1 537 0
 1689 058a 05AB     		add	r3, sp, #20
 1690 058c 8DF81480 		strb	r8, [sp, #20]
 1691              	.LVL185:
 539:src/ctlcfg.c  ****       info_data.pb_info       = p_mem;
 1692              		.loc 1 539 0
 1693 0590 0695     		str	r5, [sp, #24]
 1694              	.LVL186:
 542:src/ctlcfg.c  ****         if (DispInfoData(info_data) == MWKEY_CANCL) {
 1695              		.loc 1 542 0
 1696 0592 57B1     		cbz	r7, .L104
 543:src/ctlcfg.c  ****           ret_ok = FALSE;
 1697              		.loc 1 543 0
 1698 0594 ADF81640 		strh	r4, [sp, #22]	@ movhi
 1699 0598 0796     		str	r6, [sp, #28]
 1700 059a 93E80700 		ldmia	r3, {r0, r1, r2}
 1701 059e FFF7FEFF 		bl	DispInfoData
 1702              	.LVL187:
 541:src/ctlcfg.c  ****       if (aToDisplay) {
 1703              		.loc 1 541 0
 1704 05a2 0024     		movs	r4, #0
 1705              	.LVL188:
 543:src/ctlcfg.c  ****           ret_ok = FALSE;
 1706              		.loc 1 543 0
 1707 05a4 1128     		cmp	r0, #17
 1708 05a6 07D1     		bne	.L103
 1709 05a8 0CE0     		b	.L114
 1710              	.LVL189:
 1711              	.L104:
 549:src/ctlcfg.c  ****       }
 1712              		.loc 1 549 0
 1713 05aa 2146     		mov	r1, r4
 1714 05ac 3046     		mov	r0, r6
 1715 05ae 0122     		movs	r2, #1
 1716 05b0 FFF7FEFF 		bl	PrintBuf
 1717              	.LVL190:
 541:src/ctlcfg.c  ****       if (aToDisplay) {
 1718              		.loc 1 541 0
 1719 05b4 3C46     		mov	r4, r7
 1720              	.LVL191:
 549:src/ctlcfg.c  ****       }
 1721              		.loc 1 549 0
 1722 05b6 8246     		mov	r10, r0
 1723              	.LVL192:
 1724              	.L103:
 1725 05b8 09F10109 		add	r9, r9, #1
 1726              	.LVL193:
 512:src/ctlcfg.c  ****     // get key info
ARM GAS  C:\Users\AHMED~1.ELE\AppData\Local\Temp\ccWMHy5f.s 			page 45


 1727              		.loc 1 512 0
 1728 05bc B9F1200F 		cmp	r9, #32
 1729 05c0 99D1     		bne	.L105
 1730 05c2 00E0     		b	.L100
 1731              	.LVL194:
 1732              	.L114:
 544:src/ctlcfg.c  ****           break;
 1733              		.loc 1 544 0
 1734 05c4 A246     		mov	r10, r4
 1735              	.LVL195:
 1736              	.L100:
 555:src/ctlcfg.c  ****   info_data.b_line_width  = (unsigned char)pack_width;
 1737              		.loc 1 555 0
 1738 05c6 2846     		mov	r0, r5
 1739 05c8 2249     		ldr	r1, .L164+24
 1740 05ca FFF7FEFF 		bl	strcpy
 1741              	.LVL196:
 556:src/ctlcfg.c  ****   info_data.w_info_len    = len;
 1742              		.loc 1 556 0
 1743 05ce 05AB     		add	r3, sp, #20
 1744 05d0 8DF81480 		strb	r8, [sp, #20]
 1745              	.LVL197:
 558:src/ctlcfg.c  ****   info_data.pb_info       = p_mem;
 1746              		.loc 1 558 0
 1747 05d4 0695     		str	r5, [sp, #24]
 1748              	.LVL198:
 561:src/ctlcfg.c  ****     if (aToDisplay) {
 1749              		.loc 1 561 0
 1750 05d6 ACB1     		cbz	r4, .L106
 1751 05d8 BAF1000F 		cmp	r10, #0
 1752 05dc 12D0     		beq	.L106
 562:src/ctlcfg.c  ****       if (DispInfoData(info_data) == MWKEY_CANCL) {
 1753              		.loc 1 562 0
 1754 05de 5FB1     		cbz	r7, .L107
 563:src/ctlcfg.c  ****         ret_ok = FALSE;
 1755              		.loc 1 563 0
 1756 05e0 ADF81640 		strh	r4, [sp, #22]	@ movhi
 1757 05e4 0796     		str	r6, [sp, #28]
 1758 05e6 93E80700 		ldmia	r3, {r0, r1, r2}
 1759 05ea FFF7FEFF 		bl	DispInfoData
 1760              	.LVL199:
 564:src/ctlcfg.c  ****       }
 1761              		.loc 1 564 0
 1762 05ee 1128     		cmp	r0, #17
 1763 05f0 08BF     		it	eq
 1764 05f2 4FF0000A 		moveq	r10, #0
 1765              	.LVL200:
 1766 05f6 05E0     		b	.L106
 1767              	.LVL201:
 1768              	.L107:
 568:src/ctlcfg.c  ****     }
 1769              		.loc 1 568 0
 1770 05f8 3046     		mov	r0, r6
 1771 05fa 2146     		mov	r1, r4
 1772 05fc 0122     		movs	r2, #1
 1773 05fe FFF7FEFF 		bl	PrintBuf
 1774              	.LVL202:
ARM GAS  C:\Users\AHMED~1.ELE\AppData\Local\Temp\ccWMHy5f.s 			page 46


 1775 0602 8246     		mov	r10, r0
 1776              	.LVL203:
 1777              	.L106:
 572:src/ctlcfg.c  ****   return ret_ok;
 1778              		.loc 1 572 0
 1779 0604 3146     		mov	r1, r6
 1780 0606 9420     		movs	r0, #148
 1781 0608 FFF7FEFF 		bl	sys_func1
 1782              	.LVL204:
 1783 060c 11E0     		b	.L157
 1784              	.LVL205:
 1785              	.L158:
 497:src/ctlcfg.c  ****   }
 1786              		.loc 1 497 0
 1787 060e 8246     		mov	r10, r0
 1788              	.LVL206:
 1789 0610 0FE0     		b	.L157
 1790              	.LVL207:
 1791              	.L99:
 505:src/ctlcfg.c  ****     strcpy(data, "CTL KEY INFO");
 1792              		.loc 1 505 0
 1793 0612 0220     		movs	r0, #2
 1794              	.LVL208:
 1795 0614 FFF7FEFF 		bl	PrintRcptLF
 1796              	.LVL209:
 506:src/ctlcfg.c  ****     LptPutS(data);
 1797              		.loc 1 506 0
 1798 0618 0F49     		ldr	r1, .L164+28
 1799 061a 2846     		mov	r0, r5
 1800 061c FFF7FEFF 		bl	strcpy
 1801              	.LVL210:
 507:src/ctlcfg.c  ****     PrintRcptLF(1);
 1802              		.loc 1 507 0
 1803 0620 2846     		mov	r0, r5
 1804 0622 FFF7FEFF 		bl	LptPutS
 1805              	.LVL211:
 508:src/ctlcfg.c  ****   }
 1806              		.loc 1 508 0
 1807 0626 0120     		movs	r0, #1
 1808 0628 FFF7FEFF 		bl	PrintRcptLF
 1809              	.LVL212:
 502:src/ctlcfg.c  **** 
 1810              		.loc 1 502 0
 1811 062c 4FF02008 		mov	r8, #32
 1812              	.LVL213:
 1813 0630 5CE7     		b	.L108
 1814              	.LVL214:
 1815              	.L157:
 1816              	.LBE30:
 1817              	.LBE33:
 603:src/ctlcfg.c  ****     ret_ok = PrintCTLKeyInfo(aDetail, aToDisplay);
 604:src/ctlcfg.c  ****   }
 605:src/ctlcfg.c  **** 
 606:src/ctlcfg.c  ****   return ret_ok;
 607:src/ctlcfg.c  **** }
 1818              		.loc 1 607 0
 1819 0632 5046     		mov	r0, r10
ARM GAS  C:\Users\AHMED~1.ELE\AppData\Local\Temp\ccWMHy5f.s 			page 47


 1820 0634 0DF2D44D 		addw	sp, sp, #1236
 1821              		.cfi_def_cfa_offset 36
 1822              		@ sp needed
 1823 0638 BDE8F08F 		pop	{r4, r5, r6, r7, r8, r9, r10, fp, pc}
 1824              	.LVL215:
 1825              	.L165:
 1826              		.align	2
 1827              	.L164:
 1828 063c DF000000 		.word	.LC18
 1829 0640 E9000000 		.word	.LC19
 1830 0644 F6000000 		.word	.LC20
 1831 0648 04010000 		.word	.LC21
 1832 064c 10010000 		.word	.LC22
 1833 0650 15010000 		.word	.LC23
 1834 0654 20010000 		.word	.LC24
 1835 0658 2E010000 		.word	.LC25
 1836              		.cfi_endproc
 1837              	.LFE13:
 1838              		.size	PrintCTLParam, .-PrintCTLParam
 1839              		.section	.text.CTLUtilStart,"ax",%progbits
 1840              		.align	1
 1841              		.global	CTLUtilStart
 1842              		.thumb
 1843              		.thumb_func
 1844              		.type	CTLUtilStart, %function
 1845              	CTLUtilStart:
 1846              	.LFB14:
 608:src/ctlcfg.c  **** //*****************************************************************************
 609:src/ctlcfg.c  **** //  Function        : CTLUtilStart
 610:src/ctlcfg.c  **** //  Description     : Initialize all Globals variable for parameters passing.
 611:src/ctlcfg.c  **** //  Input           : N/A
 612:src/ctlcfg.c  **** //  Return          : N/A
 613:src/ctlcfg.c  **** //  Note            : N/A
 614:src/ctlcfg.c  **** //  Globals Changed : N/A
 615:src/ctlcfg.c  **** //*****************************************************************************
 616:src/ctlcfg.c  **** BOOLEAN CTLUtilStart(void)
 617:src/ctlcfg.c  **** {
 1847              		.loc 1 617 0
 1848              		.cfi_startproc
 1849              		@ args = 0, pretend = 0, frame = 0
 1850              		@ frame_needed = 0, uses_anonymous_args = 0
 1851 0000 38B5     		push	{r3, r4, r5, lr}
 1852              		.cfi_def_cfa_offset 16
 1853              		.cfi_offset 3, -16
 1854              		.cfi_offset 4, -12
 1855              		.cfi_offset 5, -8
 1856              		.cfi_offset 14, -4
 618:src/ctlcfg.c  ****   sbIOBuf  = (BYTE *)  MallocMW(1500);
 1857              		.loc 1 618 0
 1858 0002 40F2DC51 		movw	r1, #1500
 1859 0006 9220     		movs	r0, #146
 1860 0008 FFF7FEFF 		bl	sys_func1
 1861              	.LVL216:
 1862 000c 0C4C     		ldr	r4, .L167
 619:src/ctlcfg.c  ****   sCTLIn  = (CL_IO *) MallocMW(sizeof(CL_CFGP));
 1863              		.loc 1 619 0
 1864 000e 40F21725 		movw	r5, #535
ARM GAS  C:\Users\AHMED~1.ELE\AppData\Local\Temp\ccWMHy5f.s 			page 48


 1865 0012 2946     		mov	r1, r5
 618:src/ctlcfg.c  ****   sbIOBuf  = (BYTE *)  MallocMW(1500);
 1866              		.loc 1 618 0
 1867 0014 A060     		str	r0, [r4, #8]
 1868              		.loc 1 619 0
 1869 0016 9220     		movs	r0, #146
 1870 0018 FFF7FEFF 		bl	sys_func1
 1871              	.LVL217:
 620:src/ctlcfg.c  ****   sCTLOut = (CL_IO *) MallocMW(sizeof(CL_CFGP));
 1872              		.loc 1 620 0
 1873 001c 2946     		mov	r1, r5
 619:src/ctlcfg.c  ****   sCTLIn  = (CL_IO *) MallocMW(sizeof(CL_CFGP));
 1874              		.loc 1 619 0
 1875 001e 2060     		str	r0, [r4]
 1876              		.loc 1 620 0
 1877 0020 9220     		movs	r0, #146
 1878 0022 FFF7FEFF 		bl	sys_func1
 1879              	.LVL218:
 1880 0026 6060     		str	r0, [r4, #4]
 621:src/ctlcfg.c  **** 
 622:src/ctlcfg.c  ****   MemFatalErr(sbIOBuf);  // Check Memory Pointer
 1881              		.loc 1 622 0
 1882 0028 A068     		ldr	r0, [r4, #8]
 1883 002a FFF7FEFF 		bl	MemFatalErr
 1884              	.LVL219:
 623:src/ctlcfg.c  ****   MemFatalErr(sCTLIn);  // Check Memory Pointer
 1885              		.loc 1 623 0
 1886 002e 2068     		ldr	r0, [r4]
 1887 0030 FFF7FEFF 		bl	MemFatalErr
 1888              	.LVL220:
 624:src/ctlcfg.c  ****   MemFatalErr(sCTLOut);  // Check Memory Pointer
 1889              		.loc 1 624 0
 1890 0034 6068     		ldr	r0, [r4, #4]
 1891 0036 FFF7FEFF 		bl	MemFatalErr
 1892              	.LVL221:
 625:src/ctlcfg.c  ****   return TRUE;
 626:src/ctlcfg.c  **** }
 1893              		.loc 1 626 0
 1894 003a 0120     		movs	r0, #1
 1895 003c 38BD     		pop	{r3, r4, r5, pc}
 1896              	.L168:
 1897 003e 00BF     		.align	2
 1898              	.L167:
 1899 0040 00000000 		.word	.LANCHOR0
 1900              		.cfi_endproc
 1901              	.LFE14:
 1902              		.size	CTLUtilStart, .-CTLUtilStart
 1903              		.section	.rodata
 1904              		.set	.LANCHOR2,. + 0
 1905              		.type	KCTLTemp, %object
 1906              		.size	KCTLTemp, 8
 1907              	KCTLTemp:
 1908 0000 63746C5F 		.ascii	"ctl_tmp\000"
 1908      746D7000 
 1909              		.section	.rodata.str1.1,"aMS",%progbits,1
 1910              	.LC0:
 1911 0000 0C0A4354 		.ascii	"\014\012CTL2 FATAL ERR\012PLS CALL SERVICE\000"
ARM GAS  C:\Users\AHMED~1.ELE\AppData\Local\Temp\ccWMHy5f.s 			page 49


 1911      4C322046 
 1911      4154414C 
 1911      20455252 
 1911      0A504C53 
 1912              	.LC1:
 1913 0022 4149443A 		.ascii	"AID: \000"
 1913      2000
 1914              	.LC2:
 1915 0028 54797065 		.ascii	"Type: %02X \000"
 1915      3A202530 
 1915      32582000 
 1916              	.LC3:
 1917 0034 5665723A 		.ascii	"Ver: \000"
 1917      2000
 1918              	.LC4:
 1919 003a 464C5220 		.ascii	"FLR LMT: \000"
 1919      4C4D543A 
 1919      2000
 1920              	.LC5:
 1921 0044 464C5220 		.ascii	"FLR LMT(O): \000"
 1921      4C4D5428 
 1921      4F293A20 
 1921      00
 1922              	.LC6:
 1923 0051 42617369 		.ascii	"Basic Random: \000"
 1923      63205261 
 1923      6E646F6D 
 1923      3A2000
 1924              	.LC7:
 1925 0060 2530642E 		.ascii	"%0d.%02d\000"
 1925      25303264 
 1925      00
 1926              	.LC8:
 1927 0069 54617267 		.ascii	"Target %: \000"
 1927      65742025 
 1927      3A2000
 1928              	.LC9:
 1929 0074 25303264 		.ascii	"%02d-%02d\000"
 1929      2D253032 
 1929      6400
 1930              	.LC10:
 1931 007e 436F756E 		.ascii	"Country: \000"
 1931      7472793A 
 1931      2000
 1932              	.LC11:
 1933 0088 43757272 		.ascii	"Currency: \000"
 1933      656E6379 
 1933      3A2000
 1934              	.LC12:
 1935 0093 00       		.ascii	"\000"
 1936              	.LC13:
 1937 0094 416C6C6F 		.ascii	"Allow Partial AID: \000"
 1937      77205061 
 1937      72746961 
 1937      6C204149 
 1937      443A2000 
 1938              	.LC14:
ARM GAS  C:\Users\AHMED~1.ELE\AppData\Local\Temp\ccWMHy5f.s 			page 50


 1939 00a8 52656665 		.ascii	"Referral Enable: \000"
 1939      7272616C 
 1939      20456E61 
 1939      626C653A 
 1939      2000
 1940              	.LC15:
 1941 00ba 54414320 		.ascii	"TAC Denial: \000"
 1941      44656E69 
 1941      616C3A20 
 1941      00
 1942              	.LC16:
 1943 00c7 54414320 		.ascii	"TAC Online: \000"
 1943      4F6E6C69 
 1943      6E653A20 
 1943      00
 1944              	.LC17:
 1945 00d4 5465726D 		.ascii	"Term Cap: \000"
 1945      20436170 
 1945      3A2000
 1946              	.LC18:
 1947 00df 41646420 		.ascii	"Add Cap: \000"
 1947      4361703A 
 1947      2000
 1948              	.LC19:
 1949 00e9 2043544C 		.ascii	" CTL APP CFG\000"
 1949      20415050 
 1949      20434647 
 1949      00
 1950              	.LC20:
 1951 00f6 5075626C 		.ascii	"Public Key-ID\000"
 1951      6963204B 
 1951      65792D49 
 1951      4400
 1952              	.LC21:
 1953 0104 45666620 		.ascii	"Eff   Exp  \000"
 1953      20204578 
 1953      70202000 
 1954              	.LC22:
 1955 0110 25303258 		.ascii	"%02X\000"
 1955      00
 1956              	.LC23:
 1957 0115 25303258 		.ascii	"%02X/%02X \000"
 1957      2F253032 
 1957      582000
 1958              	.LC24:
 1959 0120 2043544C 		.ascii	" CTL KEY INFO\000"
 1959      204B4559 
 1959      20494E46 
 1959      4F00
 1960              	.LC25:
 1961 012e 43544C20 		.ascii	"CTL KEY INFO\000"
 1961      4B455920 
 1961      494E464F 
 1961      00
 1962              		.data
 1963              		.align	2
 1964              		.set	.LANCHOR1,. + 0
ARM GAS  C:\Users\AHMED~1.ELE\AppData\Local\Temp\ccWMHy5f.s 			page 51


 1965              		.type	iDnloadFile, %object
 1966              		.size	iDnloadFile, 4
 1967              	iDnloadFile:
 1968 0000 FFFFFFFF 		.word	-1
 1969              		.bss
 1970              		.align	2
 1971              		.set	.LANCHOR0,. + 0
 1972              		.type	sCTLIn, %object
 1973              		.size	sCTLIn, 4
 1974              	sCTLIn:
 1975 0000 00000000 		.space	4
 1976              		.type	sCTLOut, %object
 1977              		.size	sCTLOut, 4
 1978              	sCTLOut:
 1979 0004 00000000 		.space	4
 1980              		.type	sbIOBuf, %object
 1981              		.size	sbIOBuf, 4
 1982              	sbIOBuf:
 1983 0008 00000000 		.space	4
 1984              		.type	bCtlLoaded, %object
 1985              		.size	bCtlLoaded, 1
 1986              	bCtlLoaded:
 1987 000c 00       		.space	1
 1988 000d 00       		.space	1
 1989              		.type	wChunkSize, %object
 1990              		.size	wChunkSize, 2
 1991              	wChunkSize:
 1992 000e 0000     		.space	2
 1993              		.type	bMaxNumBlk, %object
 1994              		.size	bMaxNumBlk, 1
 1995              	bMaxNumBlk:
 1996 0010 00       		.space	1
 1997              		.type	bDnloadBlk, %object
 1998              		.size	bDnloadBlk, 1
 1999              	bDnloadBlk:
 2000 0011 00       		.space	1
 2001 0012 0000     		.text
 2002              	.Letext0:
 2003              		.file 2 "c:\\devtools\\gcc_v49_2014q4\\lib\\gcc\\arm-none-eabi\\4.9.3\\include\\stddef.h"
 2004              		.file 3 "../LibA5T1000/common.h"
 2005              		.file 4 "../LibA5T1000/system.h"
 2006              		.file 5 "../LibA5T1000/midware.h"
 2007              		.file 6 "../LibA5T1000/apm.h"
 2008              		.file 7 "src/hardware.h"
 2009              		.file 8 "../LibA5T1000/emvcl2dll.h"
 2010              		.file 9 "src/infodata.h"
 2011              		.file 10 "src/kbdutil.h"
 2012              		.file 11 "c:\\devtools\\gcc_v49_2014q4\\arm-none-eabi\\include\\string.h"
 2013              		.file 12 "src/emvtrans.h"
 2014              		.file 13 "src/sysutil.h"
 2015              		.file 14 "../LibA5T1000/util.h"
 2016              		.file 15 "c:\\devtools\\gcc_v49_2014q4\\arm-none-eabi\\include\\stdio.h"
 2017              		.file 16 "src/lptutil.h"
 2018              		.file 17 "<built-in>"