ARM GAS  C:\Users\AHMED~1.ELE\AppData\Local\Temp\ccAhPyWN.s 			page 1


   1              		.syntax unified
   2              		.cpu cortex-a5
   3              		.fpu softvfp
   4              		.eabi_attribute 20, 1
   5              		.eabi_attribute 21, 1
   6              		.eabi_attribute 23, 3
   7              		.eabi_attribute 24, 1
   8              		.eabi_attribute 25, 1
   9              		.eabi_attribute 26, 1
  10              		.eabi_attribute 30, 4
  11              		.eabi_attribute 34, 0
  12              		.eabi_attribute 18, 4
  13              		.thumb
  14              		.file	"emvtrans.c"
  15              		.text
  16              	.Ltext0:
  17              		.cfi_sections	.debug_frame
  18              		.section	.text.KernelReady,"ax",%progbits
  19              		.align	1
  20              		.thumb
  21              		.thumb_func
  22              		.type	KernelReady, %function
  23              	KernelReady:
  24              	.LFB6:
  25              		.file 1 "src/emvtrans.c"
   1:src/emvtrans.c **** //-----------------------------------------------------------------------------
   2:src/emvtrans.c **** //  File          : EMVTrans.c
   3:src/emvtrans.c **** //  Module        :
   4:src/emvtrans.c **** //  Description   : EMV Transactions Process.
   5:src/emvtrans.c **** //  Author        : Lewis
   6:src/emvtrans.c **** //  Notes         :
   7:src/emvtrans.c **** //
   8:src/emvtrans.c **** // ============================================================================
   9:src/emvtrans.c **** // | Naming conventions                                                       |
  10:src/emvtrans.c **** // | ~~~~~~~~~~~~~~~~~~                                                       |
  11:src/emvtrans.c **** // |        Struct define : Leading T                                         |
  12:src/emvtrans.c **** // |         Struct/Array : Leading s                                         |
  13:src/emvtrans.c **** // |             Constant : Leading K                                         |
  14:src/emvtrans.c **** // |      Global Variable : Leading g  (variable use outside one C file)      |
  15:src/emvtrans.c **** // |                                                                          |
  16:src/emvtrans.c **** // |   BYTE( 8 Bits) size : Leading b                                         |
  17:src/emvtrans.c **** // |   CHAR( 8 Bits) size : Leading c                                         |
  18:src/emvtrans.c **** // |   WORD(16 Bits) size : Leading w                                         |
  19:src/emvtrans.c **** // |  DWORD(32 Bits) size : Leading d                                         |
  20:src/emvtrans.c **** // |    int(32 Bits) size : Leading i                                         |
  21:src/emvtrans.c **** // | DDWORD(64 Bits) size : Leading dd                                        |
  22:src/emvtrans.c **** // |              Pointer : Leading p                                         |
  23:src/emvtrans.c **** // |                                                                          |
  24:src/emvtrans.c **** // |    Function argument : Leading a                                         |
  25:src/emvtrans.c **** // |       Local Variable : All lower case                                    |
  26:src/emvtrans.c **** // |                                                                          |
  27:src/emvtrans.c **** // | Examples:                                                                |
  28:src/emvtrans.c **** // |                Array : Leading s, (sb = arrary of byte, etc)             |
  29:src/emvtrans.c **** // |              Pointer : Leading p, (pb = pointer of byte, etc)            |
  30:src/emvtrans.c **** // ============================================================================
  31:src/emvtrans.c **** //
  32:src/emvtrans.c **** //  Date          Who         Action
ARM GAS  C:\Users\AHMED~1.ELE\AppData\Local\Temp\ccAhPyWN.s 			page 2


  33:src/emvtrans.c **** //  ------------  ----------- -------------------------------------------------
  34:src/emvtrans.c **** //  29 Sept 2008  Lewis       Initial Version.
  35:src/emvtrans.c **** //-----------------------------------------------------------------------------
  36:src/emvtrans.c **** #include <string.h>
  37:src/emvtrans.c **** #include "midware.h"
  38:src/emvtrans.c **** #include "util.h"
  39:src/emvtrans.c **** #include "hardware.h"
  40:src/emvtrans.c **** #include "emv2dll.h"
  41:src/emvtrans.c **** #include "sysutil.h"
  42:src/emvtrans.c **** #include "kbdutil.h"
  43:src/emvtrans.c **** #include "infodata.h"
  44:src/emvtrans.c **** #include "lptutil.h"
  45:src/emvtrans.c **** #include "emvtrans.h"
  46:src/emvtrans.c **** 
  47:src/emvtrans.c **** //-----------------------------------------------------------------------------
  48:src/emvtrans.c **** //      Common Defines
  49:src/emvtrans.c **** //-----------------------------------------------------------------------------
  50:src/emvtrans.c **** 
  51:src/emvtrans.c **** //-----------------------------------------------------------------------------
  52:src/emvtrans.c **** //    Constant Message
  53:src/emvtrans.c **** //-----------------------------------------------------------------------------
  54:src/emvtrans.c **** const BYTE KPinMsg[4][16] = {     /* PIN related message */
  55:src/emvtrans.c ****   " 请 输 入 密 码 ",                   /*   1. Enter PIN      */
  56:src/emvtrans.c ****   " 密  码  正  确 ",                   /*   2. PIN OK         */
  57:src/emvtrans.c ****   " 密  码  错  误 ",                   /*   3. Incorrect PIN  */
  58:src/emvtrans.c ****   "  最后一次密码  "                    /*   4. Last PIN Try   */
  59:src/emvtrans.c **** };
  60:src/emvtrans.c **** const BYTE KCardholderIDName[6][11] = {
  61:src/emvtrans.c ****   "身份证    ",
  62:src/emvtrans.c ****   "军官证    ",
  63:src/emvtrans.c ****   "护照      ",
  64:src/emvtrans.c ****   "入境证    ",
  65:src/emvtrans.c ****   "临时身份证",
  66:src/emvtrans.c ****   "其他      ",
  67:src/emvtrans.c **** };
  68:src/emvtrans.c **** 
  69:src/emvtrans.c **** //-----------------------------------------------------------------------------
  70:src/emvtrans.c **** //    Global Variables
  71:src/emvtrans.c **** //-----------------------------------------------------------------------------
  72:src/emvtrans.c **** static BYTE    *sbIOBuf;
  73:src/emvtrans.c **** static sIO_t   *sEMVIn;
  74:src/emvtrans.c **** static sIO_t   *sEMVOut;
  75:src/emvtrans.c **** static BYTE   bEmvLoaded;
  76:src/emvtrans.c **** static BYTE   bMaxNumBlk, bDnloadBlk;
  77:src/emvtrans.c **** static WORD   wChunkSize;
  78:src/emvtrans.c **** static int    iDnloadFile = -1;
  79:src/emvtrans.c **** 
  80:src/emvtrans.c **** static const BYTE KEMVTemp[] = {"emv_tmp"};
  81:src/emvtrans.c **** 
  82:src/emvtrans.c **** 
  83:src/emvtrans.c **** //*****************************************************************************
  84:src/emvtrans.c **** //  Function        : TagSize
  85:src/emvtrans.c **** //  Description     : Retrieve Tag Size from input buffer.
  86:src/emvtrans.c **** //  Input           : aBuf;     // Data buffer
  87:src/emvtrans.c **** //  Return          : Tag Size;
  88:src/emvtrans.c **** //  Note            : N/A
  89:src/emvtrans.c **** //  Globals Changed : N/A
ARM GAS  C:\Users\AHMED~1.ELE\AppData\Local\Temp\ccAhPyWN.s 			page 3


  90:src/emvtrans.c **** //*****************************************************************************
  91:src/emvtrans.c **** BYTE TagSize(BYTE *aBuf)
  92:src/emvtrans.c **** {
  93:src/emvtrans.c ****   return ((*aBuf & 0x1F) == 0x1F) ? 2 : 1;
  94:src/emvtrans.c **** }
  95:src/emvtrans.c **** //*****************************************************************************
  96:src/emvtrans.c **** //  Function        : TagGet
  97:src/emvtrans.c **** //  Description     : Retrieve Tag value from input buffer.
  98:src/emvtrans.c **** //  Input           : aBuf;     // Data buffer
  99:src/emvtrans.c **** //  Return          : Tag Size/Orignal Tag Value
 100:src/emvtrans.c **** //  Note            : N/A
 101:src/emvtrans.c **** //  Globals Changed : N/A
 102:src/emvtrans.c **** //*****************************************************************************
 103:src/emvtrans.c **** WORD TagGet(BYTE *aBuf)
 104:src/emvtrans.c **** {
 105:src/emvtrans.c ****   if ((*aBuf & 0x1F) != 0x1F)
 106:src/emvtrans.c ****     return *aBuf;
 107:src/emvtrans.c ****   return WGet(aBuf);
 108:src/emvtrans.c **** }
 109:src/emvtrans.c **** //*****************************************************************************
 110:src/emvtrans.c **** //  Function        : TLSize
 111:src/emvtrans.c **** //  Description     : Get L size
 112:src/emvtrans.c **** //  Input           : *aLD;   // LD pointer
 113:src/emvtrans.c **** //  Return          : L Size
 114:src/emvtrans.c **** //  Note            : N/A
 115:src/emvtrans.c **** //  Globals Changed : N/A
 116:src/emvtrans.c **** //*****************************************************************************
 117:src/emvtrans.c **** BYTE TLSize(BYTE *aLD)
 118:src/emvtrans.c **** {
 119:src/emvtrans.c ****   //bit 8 is 1, Lenght size if bit 7 to bit 1 plus one
 120:src/emvtrans.c ****   if (*aLD & 0x80)
 121:src/emvtrans.c ****     return (*aLD & 0x7F) + 1;
 122:src/emvtrans.c ****   return 1;
 123:src/emvtrans.c **** }
 124:src/emvtrans.c **** //*****************************************************************************
 125:src/emvtrans.c **** //  Function        : TLGet
 126:src/emvtrans.c **** //  Description     : Get L value
 127:src/emvtrans.c **** //  Input           : *aLD;   // LD pointer
 128:src/emvtrans.c **** //  Return          : Length value
 129:src/emvtrans.c **** //  Note            : N/A
 130:src/emvtrans.c **** //  Globals Changed : N/A
 131:src/emvtrans.c **** //*****************************************************************************
 132:src/emvtrans.c **** WORD TLGet(BYTE *aLD)
 133:src/emvtrans.c **** {
 134:src/emvtrans.c ****   //if bit 8 = 0, one byte length field
 135:src/emvtrans.c ****   if ((*aLD & 0x80) == 0)
 136:src/emvtrans.c ****     return *aLD;
 137:src/emvtrans.c **** 
 138:src/emvtrans.c ****   //Otherwise, no. of lenght field depends on value of bit 7 to bit 1
 139:src/emvtrans.c ****   if (*aLD == 0x81)
 140:src/emvtrans.c ****     return *(aLD + 1);
 141:src/emvtrans.c **** 
 142:src/emvtrans.c ****   if (*aLD == 0x82)
 143:src/emvtrans.c ****     return WGet(aLD + 1);
 144:src/emvtrans.c **** 
 145:src/emvtrans.c ****   return 0xFFFF;
 146:src/emvtrans.c **** }
ARM GAS  C:\Users\AHMED~1.ELE\AppData\Local\Temp\ccAhPyWN.s 			page 4


 147:src/emvtrans.c **** //*****************************************************************************
 148:src/emvtrans.c **** //  Function        : LDLoad
 149:src/emvtrans.c **** //  Description     : Retrieve Tag value from TLD buffer (record) to abKbd
 150:src/emvtrans.c **** //  Input           : aBuf;     // Data buffer
 151:src/emvtrans.c **** //                    aTag;     // require tag Value
 152:src/emvtrans.c **** //  Return          : TRUE/FALSE;
 153:src/emvtrans.c **** //  Note            : Data length in record < 128 for each tag value
 154:src/emvtrans.c **** //  Globals Changed : N/A
 155:src/emvtrans.c **** //*****************************************************************************
 156:src/emvtrans.c **** #define MAX_OUT_SIZE      50
 157:src/emvtrans.c **** BOOLEAN LDLoad(BYTE *aDest, BYTE *aSrc, WORD aTag)
 158:src/emvtrans.c **** {
 159:src/emvtrans.c ****   WORD wNew;
 160:src/emvtrans.c ****   BYTE bLen;
 161:src/emvtrans.c ****   BYTE bCnt;
 162:src/emvtrans.c **** 
 163:src/emvtrans.c ****   bCnt = 100;                           /* safety limit */
 164:src/emvtrans.c ****   while ((wNew = TagGet(aSrc)) != 0 && bCnt-- != 0) {
 165:src/emvtrans.c ****     aSrc += TagSize(aSrc);
 166:src/emvtrans.c ****     bLen = *aSrc;
 167:src/emvtrans.c ****     if (aTag == wNew) {
 168:src/emvtrans.c ****       if (bLen >= MAX_OUT_SIZE)
 169:src/emvtrans.c ****         break;
 170:src/emvtrans.c ****       memcpy(aDest, aSrc, bLen + 1);
 171:src/emvtrans.c ****       return TRUE;
 172:src/emvtrans.c ****     }
 173:src/emvtrans.c ****     aSrc += bLen + 1;
 174:src/emvtrans.c ****   }
 175:src/emvtrans.c ****   return FALSE;
 176:src/emvtrans.c **** }
 177:src/emvtrans.c **** //*****************************************************************************
 178:src/emvtrans.c **** //  Function        : ConvDecimal
 179:src/emvtrans.c **** //  Description     : Convert the value in aBuf to decimal and insert
 180:src/emvtrans.c **** //                    decimal point.
 181:src/emvtrans.c **** //  Input           : aBuf;         // Input Buffer.
 182:src/emvtrans.c **** //                    var_i;        // Len of result
 183:src/emvtrans.c **** //  Return          : N/A
 184:src/emvtrans.c **** //  Note            : N/A
 185:src/emvtrans.c **** //  Globals Changed : N/A
 186:src/emvtrans.c **** //*****************************************************************************
 187:src/emvtrans.c **** void ConvDecimal(BYTE *aBuf, BYTE aLen)
 188:src/emvtrans.c **** {
 189:src/emvtrans.c ****   BYTE buffer[13];
 190:src/emvtrans.c ****   WORD version;
 191:src/emvtrans.c ****   DWORD tmp, lead0len;
 192:src/emvtrans.c **** 
 193:src/emvtrans.c ****   if (aLen > 5){
 194:src/emvtrans.c ****     tmp = DWGet(&aBuf[1]);
 195:src/emvtrans.c ****     lbin2asc(buffer, tmp);
 196:src/emvtrans.c ****   }
 197:src/emvtrans.c ****   else {
 198:src/emvtrans.c ****     version = WGet(&aBuf[1]);
 199:src/emvtrans.c ****     bin2dec(version, buffer, 5);
 200:src/emvtrans.c ****   }
 201:src/emvtrans.c **** 
 202:src/emvtrans.c ****   if ((lead0len = skpb(buffer, '0', aLen)) == aLen)   /* leading zero count */
 203:src/emvtrans.c ****     lead0len = aLen;    /* max leading zeros to ignore */
ARM GAS  C:\Users\AHMED~1.ELE\AppData\Local\Temp\ccAhPyWN.s 			page 5


 204:src/emvtrans.c **** 
 205:src/emvtrans.c ****   aBuf[0] = (BYTE)(aLen+1-lead0len);   /* excluding decimal digits */
 206:src/emvtrans.c ****   memcpy(&aBuf[1], &buffer[lead0len], aBuf[0]);
 207:src/emvtrans.c ****   buffer[aLen] = '.';
 208:src/emvtrans.c ****   memcpy(&aBuf[aBuf[0]+1], &buffer[aLen], 3);
 209:src/emvtrans.c ****   aBuf[0] += 3;
 210:src/emvtrans.c **** 
 211:src/emvtrans.c **** }
 212:src/emvtrans.c **** //*****************************************************************************
 213:src/emvtrans.c **** //  Function        : KernelReady
 214:src/emvtrans.c **** //  Description     : Check Whether EMV Kernel exist
 215:src/emvtrans.c **** //  Input           : N/A
 216:src/emvtrans.c **** //  Return          : N/A
 217:src/emvtrans.c **** //  Note            : N/A
 218:src/emvtrans.c **** //  Globals Changed : N/A
 219:src/emvtrans.c **** //*****************************************************************************
 220:src/emvtrans.c **** static BOOLEAN KernelReady(void)
 221:src/emvtrans.c **** {
  26              		.loc 1 221 0
  27              		.cfi_startproc
  28              		@ args = 0, pretend = 0, frame = 0
  29              		@ frame_needed = 0, uses_anonymous_args = 0
  30 0000 08B5     		push	{r3, lr}
  31              		.cfi_def_cfa_offset 8
  32              		.cfi_offset 3, -8
  33              		.cfi_offset 14, -4
 222:src/emvtrans.c ****   if (!IsAppIdExistMW(EMVDLL_ID))
  34              		.loc 1 222 0
  35 0002 0E21     		movs	r1, #14
  36 0004 8D20     		movs	r0, #141
  37 0006 FFF7FEFF 		bl	sys_func1
  38              	.LVL0:
 223:src/emvtrans.c ****     return FALSE;
 224:src/emvtrans.c **** 
 225:src/emvtrans.c ****   return TRUE;
 226:src/emvtrans.c **** }
  39              		.loc 1 226 0
  40 000a 0030     		adds	r0, r0, #0
  41 000c 18BF     		it	ne
  42 000e 0120     		movne	r0, #1
  43 0010 08BD     		pop	{r3, pc}
  44              		.cfi_endproc
  45              	.LFE6:
  46              		.size	KernelReady, .-KernelReady
  47              		.section	.text.EMVFatal,"ax",%progbits
  48              		.align	1
  49              		.thumb
  50              		.thumb_func
  51              		.type	EMVFatal, %function
  52              	EMVFatal:
  53              	.LFB7:
 227:src/emvtrans.c **** //*****************************************************************************
 228:src/emvtrans.c **** //  Function        : EMVFatal
 229:src/emvtrans.c **** //  Description     : EMV Fatal Error.
 230:src/emvtrans.c **** //  Input           : N/A
 231:src/emvtrans.c **** //  Return          : N/A
 232:src/emvtrans.c **** //  Note            : N/A
ARM GAS  C:\Users\AHMED~1.ELE\AppData\Local\Temp\ccAhPyWN.s 			page 6


 233:src/emvtrans.c **** //  Globals Changed : N/A
 234:src/emvtrans.c **** //*****************************************************************************
 235:src/emvtrans.c **** static void EMVFatal(void)
 236:src/emvtrans.c **** {
  54              		.loc 1 236 0
  55              		.cfi_startproc
  56              		@ args = 0, pretend = 0, frame = 0
  57              		@ frame_needed = 0, uses_anonymous_args = 0
  58 0000 08B5     		push	{r3, lr}
  59              		.cfi_def_cfa_offset 8
  60              		.cfi_offset 3, -8
  61              		.cfi_offset 14, -4
 237:src/emvtrans.c ****   DispPutStr("\f\nEMV2 FATAL ERR\nPLS CALL SERVICE");
  62              		.loc 1 237 0
  63 0002 0748     		ldr	r0, .L6
  64 0004 FFF7FEFF 		bl	DispPutStr
  65              	.LVL1:
  66              	.L3:
 238:src/emvtrans.c ****   while (WaitKey(KBD_TIMEOUT) != MWKEY_CANCL);
  67              		.loc 1 238 0 discriminator 1
  68 0008 42F22830 		movw	r0, #9000
  69 000c FFF7FEFF 		bl	WaitKey
  70              	.LVL2:
  71 0010 1128     		cmp	r0, #17
  72 0012 F9D1     		bne	.L3
 239:src/emvtrans.c ****   ResetMW();
  73              		.loc 1 239 0
  74 0014 4FF4CF70 		mov	r0, #414
 240:src/emvtrans.c **** }
  75              		.loc 1 240 0
  76 0018 BDE80840 		pop	{r3, lr}
  77              		.cfi_restore 14
  78              		.cfi_restore 3
  79              		.cfi_def_cfa_offset 0
 239:src/emvtrans.c ****   ResetMW();
  80              		.loc 1 239 0
  81 001c FFF7FEBF 		b	sys_func0
  82              	.LVL3:
  83              	.L7:
  84              		.align	2
  85              	.L6:
  86 0020 00000000 		.word	.LC0
  87              		.cfi_endproc
  88              	.LFE7:
  89              		.size	EMVFatal, .-EMVFatal
  90              		.section	.text.TagSize,"ax",%progbits
  91              		.align	1
  92              		.global	TagSize
  93              		.thumb
  94              		.thumb_func
  95              		.type	TagSize, %function
  96              	TagSize:
  97              	.LFB0:
  92:src/emvtrans.c ****   return ((*aBuf & 0x1F) == 0x1F) ? 2 : 1;
  98              		.loc 1 92 0
  99              		.cfi_startproc
 100              		@ args = 0, pretend = 0, frame = 0
ARM GAS  C:\Users\AHMED~1.ELE\AppData\Local\Temp\ccAhPyWN.s 			page 7


 101              		@ frame_needed = 0, uses_anonymous_args = 0
 102              		@ link register save eliminated.
 103              	.LVL4:
  93:src/emvtrans.c **** }
 104              		.loc 1 93 0
 105 0000 0078     		ldrb	r0, [r0]	@ zero_extendqisi2
 106              	.LVL5:
 107 0002 00F01F00 		and	r0, r0, #31
  94:src/emvtrans.c **** //*****************************************************************************
 108              		.loc 1 94 0
 109 0006 1F28     		cmp	r0, #31
 110 0008 0CBF     		ite	eq
 111 000a 0220     		moveq	r0, #2
 112 000c 0120     		movne	r0, #1
 113 000e 7047     		bx	lr
 114              		.cfi_endproc
 115              	.LFE0:
 116              		.size	TagSize, .-TagSize
 117              		.section	.text.TagGet,"ax",%progbits
 118              		.align	1
 119              		.global	TagGet
 120              		.thumb
 121              		.thumb_func
 122              		.type	TagGet, %function
 123              	TagGet:
 124              	.LFB1:
 104:src/emvtrans.c ****   if ((*aBuf & 0x1F) != 0x1F)
 125              		.loc 1 104 0
 126              		.cfi_startproc
 127              		@ args = 0, pretend = 0, frame = 0
 128              		@ frame_needed = 0, uses_anonymous_args = 0
 129              		@ link register save eliminated.
 130              	.LVL6:
 105:src/emvtrans.c ****     return *aBuf;
 131              		.loc 1 105 0
 132 0000 0378     		ldrb	r3, [r0]	@ zero_extendqisi2
 133 0002 03F01F02 		and	r2, r3, #31
 134 0006 1F2A     		cmp	r2, #31
 135 0008 01D1     		bne	.L15
 107:src/emvtrans.c **** }
 136              		.loc 1 107 0
 137 000a FFF7FEBF 		b	WGet
 138              	.LVL7:
 139              	.L15:
 106:src/emvtrans.c ****   return WGet(aBuf);
 140              		.loc 1 106 0
 141 000e 98B2     		uxth	r0, r3
 142              	.LVL8:
 108:src/emvtrans.c **** //*****************************************************************************
 143              		.loc 1 108 0
 144 0010 7047     		bx	lr
 145              		.cfi_endproc
 146              	.LFE1:
 147              		.size	TagGet, .-TagGet
 148              		.section	.text.TLSize,"ax",%progbits
 149              		.align	1
 150              		.global	TLSize
ARM GAS  C:\Users\AHMED~1.ELE\AppData\Local\Temp\ccAhPyWN.s 			page 8


 151              		.thumb
 152              		.thumb_func
 153              		.type	TLSize, %function
 154              	TLSize:
 155              	.LFB2:
 118:src/emvtrans.c ****   //bit 8 is 1, Lenght size if bit 7 to bit 1 plus one
 156              		.loc 1 118 0
 157              		.cfi_startproc
 158              		@ args = 0, pretend = 0, frame = 0
 159              		@ frame_needed = 0, uses_anonymous_args = 0
 160              		@ link register save eliminated.
 161              	.LVL9:
 120:src/emvtrans.c ****     return (*aLD & 0x7F) + 1;
 162              		.loc 1 120 0
 163 0000 0078     		ldrb	r0, [r0]	@ zero_extendqisi2
 164              	.LVL10:
 165 0002 0306     		lsls	r3, r0, #24
 121:src/emvtrans.c ****   return 1;
 166              		.loc 1 121 0
 167 0004 46BF     		itte	mi
 168 0006 00F07F00 		andmi	r0, r0, #127
 169 000a 0130     		addmi	r0, r0, #1
 122:src/emvtrans.c **** }
 170              		.loc 1 122 0
 171 000c 0120     		movpl	r0, #1
 123:src/emvtrans.c **** //*****************************************************************************
 172              		.loc 1 123 0
 173 000e 7047     		bx	lr
 174              		.cfi_endproc
 175              	.LFE2:
 176              		.size	TLSize, .-TLSize
 177              		.section	.text.TLGet,"ax",%progbits
 178              		.align	1
 179              		.global	TLGet
 180              		.thumb
 181              		.thumb_func
 182              		.type	TLGet, %function
 183              	TLGet:
 184              	.LFB3:
 133:src/emvtrans.c ****   //if bit 8 = 0, one byte length field
 185              		.loc 1 133 0
 186              		.cfi_startproc
 187              		@ args = 0, pretend = 0, frame = 0
 188              		@ frame_needed = 0, uses_anonymous_args = 0
 189              		@ link register save eliminated.
 190              	.LVL11:
 135:src/emvtrans.c ****     return *aLD;
 191              		.loc 1 135 0
 192 0000 0378     		ldrb	r3, [r0]	@ zero_extendqisi2
 193 0002 1A06     		lsls	r2, r3, #24
 194 0004 01D4     		bmi	.L20
 136:src/emvtrans.c **** 
 195              		.loc 1 136 0
 196 0006 98B2     		uxth	r0, r3
 197              	.LVL12:
 198 0008 7047     		bx	lr
 199              	.LVL13:
ARM GAS  C:\Users\AHMED~1.ELE\AppData\Local\Temp\ccAhPyWN.s 			page 9


 200              	.L20:
 139:src/emvtrans.c ****     return *(aLD + 1);
 201              		.loc 1 139 0
 202 000a 812B     		cmp	r3, #129
 203 000c 01D1     		bne	.L22
 140:src/emvtrans.c **** 
 204              		.loc 1 140 0
 205 000e 4078     		ldrb	r0, [r0, #1]	@ zero_extendqisi2
 206              	.LVL14:
 207 0010 7047     		bx	lr
 208              	.LVL15:
 209              	.L22:
 142:src/emvtrans.c ****     return WGet(aLD + 1);
 210              		.loc 1 142 0
 211 0012 822B     		cmp	r3, #130
 212 0014 02D1     		bne	.L23
 143:src/emvtrans.c **** 
 213              		.loc 1 143 0
 214 0016 0130     		adds	r0, r0, #1
 215              	.LVL16:
 216 0018 FFF7FEBF 		b	WGet
 217              	.LVL17:
 218              	.L23:
 145:src/emvtrans.c **** }
 219              		.loc 1 145 0
 220 001c 4FF6FF70 		movw	r0, #65535
 221              	.LVL18:
 146:src/emvtrans.c **** //*****************************************************************************
 222              		.loc 1 146 0
 223 0020 7047     		bx	lr
 224              		.cfi_endproc
 225              	.LFE3:
 226              		.size	TLGet, .-TLGet
 227              		.section	.text.LDLoad,"ax",%progbits
 228              		.align	1
 229              		.global	LDLoad
 230              		.thumb
 231              		.thumb_func
 232              		.type	LDLoad, %function
 233              	LDLoad:
 234              	.LFB4:
 158:src/emvtrans.c ****   WORD wNew;
 235              		.loc 1 158 0
 236              		.cfi_startproc
 237              		@ args = 0, pretend = 0, frame = 0
 238              		@ frame_needed = 0, uses_anonymous_args = 0
 239              	.LVL19:
 240 0000 2DE9F041 		push	{r4, r5, r6, r7, r8, lr}
 241              		.cfi_def_cfa_offset 24
 242              		.cfi_offset 4, -24
 243              		.cfi_offset 5, -20
 244              		.cfi_offset 6, -16
 245              		.cfi_offset 7, -12
 246              		.cfi_offset 8, -8
 247              		.cfi_offset 14, -4
 158:src/emvtrans.c ****   WORD wNew;
 248              		.loc 1 158 0
ARM GAS  C:\Users\AHMED~1.ELE\AppData\Local\Temp\ccAhPyWN.s 			page 10


 249 0004 0746     		mov	r7, r0
 250 0006 0C46     		mov	r4, r1
 251 0008 9046     		mov	r8, r2
 164:src/emvtrans.c ****     aSrc += TagSize(aSrc);
 252              		.loc 1 164 0
 253 000a 6525     		movs	r5, #101
 254              	.LVL20:
 255              	.L25:
 256 000c 2046     		mov	r0, r4
 257 000e FFF7FEFF 		bl	TagGet
 258              	.LVL21:
 259 0012 0646     		mov	r6, r0
 260 0014 C0B1     		cbz	r0, .L30
 261              	.LVL22:
 262 0016 013D     		subs	r5, r5, #1
 263              	.LVL23:
 164:src/emvtrans.c ****     aSrc += TagSize(aSrc);
 264              		.loc 1 164 0 is_stmt 0 discriminator 1
 265 0018 15F0FF05 		ands	r5, r5, #255
 266 001c 15D0     		beq	.L27
 267              	.LVL24:
 165:src/emvtrans.c ****     bLen = *aSrc;
 268              		.loc 1 165 0 is_stmt 1
 269 001e 2046     		mov	r0, r4
 270              	.LVL25:
 271 0020 FFF7FEFF 		bl	TagSize
 272              	.LVL26:
 167:src/emvtrans.c ****       if (bLen >= MAX_OUT_SIZE)
 273              		.loc 1 167 0
 274 0024 B045     		cmp	r8, r6
 165:src/emvtrans.c ****     bLen = *aSrc;
 275              		.loc 1 165 0
 276 0026 04EB0001 		add	r1, r4, r0
 277              	.LVL27:
 166:src/emvtrans.c ****     if (aTag == wNew) {
 278              		.loc 1 166 0
 279 002a 225C     		ldrb	r2, [r4, r0]	@ zero_extendqisi2
 280              	.LVL28:
 167:src/emvtrans.c ****       if (bLen >= MAX_OUT_SIZE)
 281              		.loc 1 167 0
 282 002c 07D1     		bne	.L26
 168:src/emvtrans.c ****         break;
 283              		.loc 1 168 0
 284 002e 312A     		cmp	r2, #49
 285 0030 08D8     		bhi	.L29
 170:src/emvtrans.c ****       return TRUE;
 286              		.loc 1 170 0
 287 0032 3846     		mov	r0, r7
 288 0034 0132     		adds	r2, r2, #1
 289              	.LVL29:
 290 0036 FFF7FEFF 		bl	memcpy
 291              	.LVL30:
 171:src/emvtrans.c ****     }
 292              		.loc 1 171 0
 293 003a 0125     		movs	r5, #1
 294              	.LVL31:
 295 003c 05E0     		b	.L27
ARM GAS  C:\Users\AHMED~1.ELE\AppData\Local\Temp\ccAhPyWN.s 			page 11


 296              	.LVL32:
 297              	.L26:
 173:src/emvtrans.c ****   }
 298              		.loc 1 173 0
 299 003e 0132     		adds	r2, r2, #1
 300              	.LVL33:
 301 0040 8C18     		adds	r4, r1, r2
 302              	.LVL34:
 303 0042 E3E7     		b	.L25
 304              	.LVL35:
 305              	.L29:
 175:src/emvtrans.c **** }
 306              		.loc 1 175 0
 307 0044 0025     		movs	r5, #0
 308              	.LVL36:
 309 0046 00E0     		b	.L27
 310              	.LVL37:
 311              	.L30:
 312 0048 0546     		mov	r5, r0
 313              	.LVL38:
 314              	.L27:
 176:src/emvtrans.c **** //*****************************************************************************
 315              		.loc 1 176 0
 316 004a 2846     		mov	r0, r5
 317 004c BDE8F081 		pop	{r4, r5, r6, r7, r8, pc}
 318              		.cfi_endproc
 319              	.LFE4:
 320              		.size	LDLoad, .-LDLoad
 321              		.section	.text.ConvDecimal,"ax",%progbits
 322              		.align	1
 323              		.global	ConvDecimal
 324              		.thumb
 325              		.thumb_func
 326              		.type	ConvDecimal, %function
 327              	ConvDecimal:
 328              	.LFB5:
 188:src/emvtrans.c ****   BYTE buffer[13];
 329              		.loc 1 188 0
 330              		.cfi_startproc
 331              		@ args = 0, pretend = 0, frame = 16
 332              		@ frame_needed = 0, uses_anonymous_args = 0
 333              	.LVL39:
 193:src/emvtrans.c ****     tmp = DWGet(&aBuf[1]);
 334              		.loc 1 193 0
 335 0000 0529     		cmp	r1, #5
 188:src/emvtrans.c ****   BYTE buffer[13];
 336              		.loc 1 188 0
 337 0002 F0B5     		push	{r4, r5, r6, r7, lr}
 338              		.cfi_def_cfa_offset 20
 339              		.cfi_offset 4, -20
 340              		.cfi_offset 5, -16
 341              		.cfi_offset 6, -12
 342              		.cfi_offset 7, -8
 343              		.cfi_offset 14, -4
 344 0004 00F10107 		add	r7, r0, #1
 345 0008 0546     		mov	r5, r0
 346 000a 85B0     		sub	sp, sp, #20
ARM GAS  C:\Users\AHMED~1.ELE\AppData\Local\Temp\ccAhPyWN.s 			page 12


 347              		.cfi_def_cfa_offset 40
 188:src/emvtrans.c ****   BYTE buffer[13];
 348              		.loc 1 188 0
 349 000c 0E46     		mov	r6, r1
 194:src/emvtrans.c ****     lbin2asc(buffer, tmp);
 350              		.loc 1 194 0
 351 000e 3846     		mov	r0, r7
 352              	.LVL40:
 193:src/emvtrans.c ****     tmp = DWGet(&aBuf[1]);
 353              		.loc 1 193 0
 354 0010 06D9     		bls	.L32
 194:src/emvtrans.c ****     lbin2asc(buffer, tmp);
 355              		.loc 1 194 0
 356 0012 FFF7FEFF 		bl	DWGet
 357              	.LVL41:
 358 0016 0146     		mov	r1, r0
 359              	.LVL42:
 195:src/emvtrans.c ****   }
 360              		.loc 1 195 0
 361 0018 6846     		mov	r0, sp
 362              	.LVL43:
 363 001a FFF7FEFF 		bl	lbin2asc
 364              	.LVL44:
 365 001e 05E0     		b	.L33
 366              	.LVL45:
 367              	.L32:
 198:src/emvtrans.c ****     bin2dec(version, buffer, 5);
 368              		.loc 1 198 0
 369 0020 FFF7FEFF 		bl	WGet
 370              	.LVL46:
 199:src/emvtrans.c ****   }
 371              		.loc 1 199 0
 372 0024 6946     		mov	r1, sp
 373 0026 0522     		movs	r2, #5
 374 0028 FFF7FEFF 		bl	bin2dec
 375              	.LVL47:
 376              	.L33:
 202:src/emvtrans.c ****     lead0len = aLen;    /* max leading zeros to ignore */
 377              		.loc 1 202 0
 378 002c 3246     		mov	r2, r6
 379 002e 6846     		mov	r0, sp
 380 0030 3021     		movs	r1, #48
 381 0032 FFF7FEFF 		bl	skpb
 382              	.LVL48:
 383 0036 741C     		adds	r4, r6, #1
 205:src/emvtrans.c ****   memcpy(&aBuf[1], &buffer[lead0len], aBuf[0]);
 384              		.loc 1 205 0
 385 0038 241A     		subs	r4, r4, r0
 202:src/emvtrans.c ****     lead0len = aLen;    /* max leading zeros to ignore */
 386              		.loc 1 202 0
 387 003a 0146     		mov	r1, r0
 388              	.LVL49:
 205:src/emvtrans.c ****   memcpy(&aBuf[1], &buffer[lead0len], aBuf[0]);
 389              		.loc 1 205 0
 390 003c E4B2     		uxtb	r4, r4
 206:src/emvtrans.c ****   buffer[aLen] = '.';
 391              		.loc 1 206 0
ARM GAS  C:\Users\AHMED~1.ELE\AppData\Local\Temp\ccAhPyWN.s 			page 13


 392 003e 6944     		add	r1, r1, sp
 393 0040 2246     		mov	r2, r4
 205:src/emvtrans.c ****   memcpy(&aBuf[1], &buffer[lead0len], aBuf[0]);
 394              		.loc 1 205 0
 395 0042 2C70     		strb	r4, [r5]
 206:src/emvtrans.c ****   buffer[aLen] = '.';
 396              		.loc 1 206 0
 397 0044 3846     		mov	r0, r7
 398              	.LVL50:
 399 0046 FFF7FEFF 		bl	memcpy
 400              	.LVL51:
 207:src/emvtrans.c ****   memcpy(&aBuf[aBuf[0]+1], &buffer[aLen], 3);
 401              		.loc 1 207 0
 402 004a 04AB     		add	r3, sp, #16
 403 004c 3344     		add	r3, r3, r6
 404 004e 2E22     		movs	r2, #46
 208:src/emvtrans.c ****   aBuf[0] += 3;
 405              		.loc 1 208 0
 406 0050 601C     		adds	r0, r4, #1
 207:src/emvtrans.c ****   memcpy(&aBuf[aBuf[0]+1], &buffer[aLen], 3);
 407              		.loc 1 207 0
 408 0052 03F8102C 		strb	r2, [r3, #-16]
 208:src/emvtrans.c ****   aBuf[0] += 3;
 409              		.loc 1 208 0
 410 0056 2844     		add	r0, r0, r5
 411 0058 0DEB0601 		add	r1, sp, r6
 412 005c 0322     		movs	r2, #3
 413 005e FFF7FEFF 		bl	memcpy
 414              	.LVL52:
 209:src/emvtrans.c **** 
 415              		.loc 1 209 0
 416 0062 2B78     		ldrb	r3, [r5]	@ zero_extendqisi2
 417 0064 0333     		adds	r3, r3, #3
 418 0066 2B70     		strb	r3, [r5]
 211:src/emvtrans.c **** //*****************************************************************************
 419              		.loc 1 211 0
 420 0068 05B0     		add	sp, sp, #20
 421              		.cfi_def_cfa_offset 20
 422              		@ sp needed
 423 006a F0BD     		pop	{r4, r5, r6, r7, pc}
 424              		.cfi_endproc
 425              	.LFE5:
 426              		.size	ConvDecimal, .-ConvDecimal
 427              		.section	.text.ClrEMVKey,"ax",%progbits
 428              		.align	1
 429              		.global	ClrEMVKey
 430              		.thumb
 431              		.thumb_func
 432              		.type	ClrEMVKey, %function
 433              	ClrEMVKey:
 434              	.LFB8:
 241:src/emvtrans.c **** //*****************************************************************************
 242:src/emvtrans.c **** //  Function        : ClrEMVKey
 243:src/emvtrans.c **** //  Description     : Clear All EMV Keys.
 244:src/emvtrans.c **** //  Input           : N/A
 245:src/emvtrans.c **** //  Return          : N/A
 246:src/emvtrans.c **** //  Note            : N/A
ARM GAS  C:\Users\AHMED~1.ELE\AppData\Local\Temp\ccAhPyWN.s 			page 14


 247:src/emvtrans.c **** //  Globals Changed : N/A
 248:src/emvtrans.c **** //*****************************************************************************
 249:src/emvtrans.c **** void ClrEMVKey(void)
 250:src/emvtrans.c **** {
 435              		.loc 1 250 0
 436              		.cfi_startproc
 437              		@ args = 0, pretend = 0, frame = 0
 438              		@ frame_needed = 0, uses_anonymous_args = 0
 439 0000 73B5     		push	{r0, r1, r4, r5, r6, lr}
 440              		.cfi_def_cfa_offset 24
 441              		.cfi_offset 4, -16
 442              		.cfi_offset 5, -12
 443              		.cfi_offset 6, -8
 444              		.cfi_offset 14, -4
 251:src/emvtrans.c ****   if (!KernelReady())
 445              		.loc 1 251 0
 446 0002 FFF7FEFF 		bl	KernelReady
 447              	.LVL53:
 448 0006 D0B1     		cbz	r0, .L34
 449              	.LBB4:
 450              	.LBB5:
 252:src/emvtrans.c ****     return;
 253:src/emvtrans.c **** 
 254:src/emvtrans.c ****   sEMVIn->bMsg = sEMVOut->bMsg = sbIOBuf;
 451              		.loc 1 254 0
 452 0008 0E4B     		ldr	r3, .L38
 255:src/emvtrans.c ****   memset(sEMVIn->bMsg, 0, 6);
 453              		.loc 1 255 0
 454 000a 0626     		movs	r6, #6
 254:src/emvtrans.c ****   memset(sEMVIn->bMsg, 0, 6);
 455              		.loc 1 254 0
 456 000c 93E83000 		ldmia	r3, {r4, r5}
 457 0010 9868     		ldr	r0, [r3, #8]
 458              		.loc 1 255 0
 459 0012 0021     		movs	r1, #0
 254:src/emvtrans.c ****   memset(sEMVIn->bMsg, 0, 6);
 460              		.loc 1 254 0
 461 0014 6860     		str	r0, [r5, #4]
 462              		.loc 1 255 0
 463 0016 3246     		mov	r2, r6
 254:src/emvtrans.c ****   memset(sEMVIn->bMsg, 0, 6);
 464              		.loc 1 254 0
 465 0018 6060     		str	r0, [r4, #4]
 466              		.loc 1 255 0
 467 001a FFF7FEFF 		bl	memset
 468              	.LVL54:
 256:src/emvtrans.c ****   sEMVIn->wLen = 6;
 469              		.loc 1 256 0
 470 001e 2680     		strh	r6, [r4]	@ movhi
 257:src/emvtrans.c ****   if (EMV_DllSetup(IOCMD_KEY_LOADING,sEMVIn,sEMVOut) == FALSE)     // clear all key
 471              		.loc 1 257 0
 472 0020 0E20     		movs	r0, #14
 473 0022 0095     		str	r5, [sp]
 474 0024 0021     		movs	r1, #0
 475 0026 0222     		movs	r2, #2
 476 0028 2346     		mov	r3, r4
 477 002a FFF7FEFF 		bl	lib_app_call
ARM GAS  C:\Users\AHMED~1.ELE\AppData\Local\Temp\ccAhPyWN.s 			page 15


 478              	.LVL55:
 479 002e 10F0FF0F 		tst	r0, #255
 480 0032 04D1     		bne	.L34
 481              	.LBE5:
 482              	.LBE4:
 258:src/emvtrans.c ****     EMVFatal();
 259:src/emvtrans.c **** }
 483              		.loc 1 259 0
 484 0034 02B0     		add	sp, sp, #8
 485              		.cfi_remember_state
 486              		.cfi_def_cfa_offset 16
 487              		@ sp needed
 488 0036 BDE87040 		pop	{r4, r5, r6, lr}
 489              		.cfi_restore 14
 490              		.cfi_restore 6
 491              		.cfi_restore 5
 492              		.cfi_restore 4
 493              		.cfi_def_cfa_offset 0
 494              	.LBB7:
 495              	.LBB6:
 258:src/emvtrans.c ****     EMVFatal();
 496              		.loc 1 258 0
 497 003a FFF7FEBF 		b	EMVFatal
 498              	.LVL56:
 499              	.L34:
 500              		.cfi_restore_state
 501              	.LBE6:
 502              	.LBE7:
 503              		.loc 1 259 0
 504 003e 02B0     		add	sp, sp, #8
 505              		.cfi_def_cfa_offset 16
 506              		@ sp needed
 507 0040 70BD     		pop	{r4, r5, r6, pc}
 508              	.L39:
 509 0042 00BF     		.align	2
 510              	.L38:
 511 0044 00000000 		.word	.LANCHOR0
 512              		.cfi_endproc
 513              	.LFE8:
 514              		.size	ClrEMVKey, .-ClrEMVKey
 515              		.section	.text.ClrEMVParam,"ax",%progbits
 516              		.align	1
 517              		.global	ClrEMVParam
 518              		.thumb
 519              		.thumb_func
 520              		.type	ClrEMVParam, %function
 521              	ClrEMVParam:
 522              	.LFB9:
 260:src/emvtrans.c **** //*****************************************************************************
 261:src/emvtrans.c **** //  Function        : ClrEMVParam
 262:src/emvtrans.c **** //  Description     : Clear all EMV dll's parameters.
 263:src/emvtrans.c **** //  Input           : N/A
 264:src/emvtrans.c **** //  Return          : N/A
 265:src/emvtrans.c **** //  Note            : N/A
 266:src/emvtrans.c **** //  Globals Changed : N/A
 267:src/emvtrans.c **** //*****************************************************************************
 268:src/emvtrans.c **** void ClrEMVParam(void)
ARM GAS  C:\Users\AHMED~1.ELE\AppData\Local\Temp\ccAhPyWN.s 			page 16


 269:src/emvtrans.c **** {
 523              		.loc 1 269 0
 524              		.cfi_startproc
 525              		@ args = 0, pretend = 0, frame = 0
 526              		@ frame_needed = 0, uses_anonymous_args = 0
 527 0000 13B5     		push	{r0, r1, r4, lr}
 528              		.cfi_def_cfa_offset 16
 529              		.cfi_offset 4, -8
 530              		.cfi_offset 14, -4
 270:src/emvtrans.c ****   if (!KernelReady())
 531              		.loc 1 270 0
 532 0002 FFF7FEFF 		bl	KernelReady
 533              	.LVL57:
 534 0006 00B3     		cbz	r0, .L40
 535              	.LBB10:
 536              	.LBB11:
 271:src/emvtrans.c ****     return;
 272:src/emvtrans.c **** 
 273:src/emvtrans.c ****   sEMVIn->bMsg = sEMVOut->bMsg = sbIOBuf;
 537              		.loc 1 273 0
 538 0008 114C     		ldr	r4, .L46
 274:src/emvtrans.c **** 
 275:src/emvtrans.c ****   GetSysCfgMW(K_CF_SerialNo, sEMVIn->bMsg);
 539              		.loc 1 275 0
 540 000a B920     		movs	r0, #185
 273:src/emvtrans.c **** 
 541              		.loc 1 273 0
 542 000c A268     		ldr	r2, [r4, #8]
 543 000e 2368     		ldr	r3, [r4]
 544 0010 6168     		ldr	r1, [r4, #4]
 545 0012 4A60     		str	r2, [r1, #4]
 546 0014 5A60     		str	r2, [r3, #4]
 547              		.loc 1 275 0
 548 0016 0221     		movs	r1, #2
 549 0018 FFF7FEFF 		bl	sys_func2
 550              	.LVL58:
 276:src/emvtrans.c ****   sEMVIn->wLen = 8;
 551              		.loc 1 276 0
 552 001c 2368     		ldr	r3, [r4]
 553 001e 0822     		movs	r2, #8
 277:src/emvtrans.c **** 
 278:src/emvtrans.c ****   if (EMV_DllSetup(IOCMD_IFDSN_RW,sEMVIn,sEMVOut) == FALSE)     // set IFDSN
 554              		.loc 1 278 0
 555 0020 0E20     		movs	r0, #14
 276:src/emvtrans.c ****   sEMVIn->wLen = 8;
 556              		.loc 1 276 0
 557 0022 1A80     		strh	r2, [r3]	@ movhi
 558              		.loc 1 278 0
 559 0024 6268     		ldr	r2, [r4, #4]
 560 0026 0021     		movs	r1, #0
 561 0028 0092     		str	r2, [sp]
 562 002a 0122     		movs	r2, #1
 563 002c FFF7FEFF 		bl	lib_app_call
 564              	.LVL59:
 565 0030 10F0FF0F 		tst	r0, #255
 566 0034 01D1     		bne	.L42
 279:src/emvtrans.c ****     EMVFatal();
ARM GAS  C:\Users\AHMED~1.ELE\AppData\Local\Temp\ccAhPyWN.s 			page 17


 567              		.loc 1 279 0
 568 0036 FFF7FEFF 		bl	EMVFatal
 569              	.LVL60:
 570              	.L42:
 280:src/emvtrans.c **** 
 281:src/emvtrans.c ****   EMV_DllSetup(IOCMD_CLR_AID,sEMVIn,sEMVOut);              // clear AID parameters
 571              		.loc 1 281 0
 572 003a 6368     		ldr	r3, [r4, #4]
 573 003c 0E20     		movs	r0, #14
 574 003e 0093     		str	r3, [sp]
 575 0040 0021     		movs	r1, #0
 576 0042 0322     		movs	r2, #3
 577 0044 2368     		ldr	r3, [r4]
 578 0046 FFF7FEFF 		bl	lib_app_call
 579              	.LVL61:
 580              	.L40:
 581              	.LBE11:
 582              	.LBE10:
 282:src/emvtrans.c **** }
 583              		.loc 1 282 0
 584 004a 02B0     		add	sp, sp, #8
 585              		.cfi_def_cfa_offset 8
 586              		@ sp needed
 587 004c 10BD     		pop	{r4, pc}
 588              	.L47:
 589 004e 00BF     		.align	2
 590              	.L46:
 591 0050 00000000 		.word	.LANCHOR0
 592              		.cfi_endproc
 593              	.LFE9:
 594              		.size	ClrEMVParam, .-ClrEMVParam
 595              		.section	.text.SetEMVLoaded,"ax",%progbits
 596              		.align	1
 597              		.global	SetEMVLoaded
 598              		.thumb
 599              		.thumb_func
 600              		.type	SetEMVLoaded, %function
 601              	SetEMVLoaded:
 602              	.LFB10:
 283:src/emvtrans.c **** //*****************************************************************************
 284:src/emvtrans.c **** //  Function        : SetEMVLoaded
 285:src/emvtrans.c **** //  Description     : set emv loaded flag
 286:src/emvtrans.c **** //  Input           : aFlag
 287:src/emvtrans.c **** //  Return          : N/A
 288:src/emvtrans.c **** //  Note            : N/A
 289:src/emvtrans.c **** //  Globals Changed : N/A
 290:src/emvtrans.c **** //*****************************************************************************
 291:src/emvtrans.c **** void SetEMVLoaded(BYTE aFlag)
 292:src/emvtrans.c **** {
 603              		.loc 1 292 0
 604              		.cfi_startproc
 605              		@ args = 0, pretend = 0, frame = 0
 606              		@ frame_needed = 0, uses_anonymous_args = 0
 607              		@ link register save eliminated.
 608              	.LVL62:
 293:src/emvtrans.c ****   bEmvLoaded |= aFlag;
 609              		.loc 1 293 0
ARM GAS  C:\Users\AHMED~1.ELE\AppData\Local\Temp\ccAhPyWN.s 			page 18


 610 0000 024A     		ldr	r2, .L49
 611 0002 137B     		ldrb	r3, [r2, #12]	@ zero_extendqisi2
 612 0004 1843     		orrs	r0, r0, r3
 613              	.LVL63:
 614 0006 1073     		strb	r0, [r2, #12]
 615 0008 7047     		bx	lr
 616              	.L50:
 617 000a 00BF     		.align	2
 618              	.L49:
 619 000c 00000000 		.word	.LANCHOR0
 620              		.cfi_endproc
 621              	.LFE10:
 622              		.size	SetEMVLoaded, .-SetEMVLoaded
 623              		.section	.text.EMVClrDnloadBuf,"ax",%progbits
 624              		.align	1
 625              		.global	EMVClrDnloadBuf
 626              		.thumb
 627              		.thumb_func
 628              		.type	EMVClrDnloadBuf, %function
 629              	EMVClrDnloadBuf:
 630              	.LFB11:
 294:src/emvtrans.c **** }
 295:src/emvtrans.c **** //*****************************************************************************
 296:src/emvtrans.c **** //  Function        : EMVClrDnloadBuf
 297:src/emvtrans.c **** //  Description     : Prepare download buffer for EMV data download.
 298:src/emvtrans.c **** //  Input           : N/A
 299:src/emvtrans.c **** //  Return          : N/A
 300:src/emvtrans.c **** //  Note            : N/A
 301:src/emvtrans.c **** //  Globals Changed : N/A
 302:src/emvtrans.c **** //*****************************************************************************
 303:src/emvtrans.c **** void EMVClrDnloadBuf (void)
 304:src/emvtrans.c **** {
 631              		.loc 1 304 0
 632              		.cfi_startproc
 633              		@ args = 0, pretend = 0, frame = 32
 634              		@ frame_needed = 0, uses_anonymous_args = 0
 305:src/emvtrans.c ****   BYTE filename[32];
 306:src/emvtrans.c ****   if (sizeof(APP_CFG) < sizeof(KEY_ROOM))
 307:src/emvtrans.c ****     wChunkSize = sizeof(KEY_ROOM)+3;  // 3B for type and len
 308:src/emvtrans.c ****   else
 309:src/emvtrans.c ****     wChunkSize = sizeof(APP_CFG)+3;   // 3B for type and len
 635              		.loc 1 309 0
 636 0000 164A     		ldr	r2, .L53
 304:src/emvtrans.c ****   BYTE filename[32];
 637              		.loc 1 304 0
 638 0002 30B5     		push	{r4, r5, lr}
 639              		.cfi_def_cfa_offset 12
 640              		.cfi_offset 4, -12
 641              		.cfi_offset 5, -8
 642              		.cfi_offset 14, -4
 643              		.loc 1 309 0
 644 0004 40F21A23 		movw	r3, #538
 310:src/emvtrans.c ****   //bMaxNumBlk = sizeof(sbIOBuf)/wChunkSize;          //29-09-16 JC ++
 311:src/emvtrans.c ****   bMaxNumBlk = 1500/wChunkSize;
 312:src/emvtrans.c ****   bDnloadBlk = bEmvLoaded = 0;
 313:src/emvtrans.c **** 
 314:src/emvtrans.c ****   if (iDnloadFile >= 0) {
ARM GAS  C:\Users\AHMED~1.ELE\AppData\Local\Temp\ccAhPyWN.s 			page 19


 645              		.loc 1 314 0
 646 0008 154C     		ldr	r4, .L53+4
 309:src/emvtrans.c ****   //bMaxNumBlk = sizeof(sbIOBuf)/wChunkSize;          //29-09-16 JC ++
 647              		.loc 1 309 0
 648 000a D381     		strh	r3, [r2, #14]	@ movhi
 311:src/emvtrans.c ****   bDnloadBlk = bEmvLoaded = 0;
 649              		.loc 1 311 0
 650 000c 0223     		movs	r3, #2
 304:src/emvtrans.c ****   BYTE filename[32];
 651              		.loc 1 304 0
 652 000e 8BB0     		sub	sp, sp, #44
 653              		.cfi_def_cfa_offset 56
 311:src/emvtrans.c ****   bDnloadBlk = bEmvLoaded = 0;
 654              		.loc 1 311 0
 655 0010 1374     		strb	r3, [r2, #16]
 312:src/emvtrans.c **** 
 656              		.loc 1 312 0
 657 0012 0023     		movs	r3, #0
 658 0014 1373     		strb	r3, [r2, #12]
 659 0016 5374     		strb	r3, [r2, #17]
 660              		.loc 1 314 0
 661 0018 2268     		ldr	r2, [r4]
 662 001a 9A42     		cmp	r2, r3
 663 001c 07DB     		blt	.L52
 315:src/emvtrans.c ****     fCloseMW(iDnloadFile);
 664              		.loc 1 315 0
 665 001e 0093     		str	r3, [sp]
 666 0020 0F20     		movs	r0, #15
 667 0022 0E21     		movs	r1, #14
 668 0024 FFF7FEFF 		bl	lib_app_call
 669              	.LVL64:
 316:src/emvtrans.c ****     iDnloadFile = -1;
 670              		.loc 1 316 0
 671 0028 4FF0FF33 		mov	r3, #-1
 672 002c 2360     		str	r3, [r4]
 673              	.L52:
 317:src/emvtrans.c ****   }
 318:src/emvtrans.c **** 
 319:src/emvtrans.c ****   strcpy(filename, KEMVTemp);
 320:src/emvtrans.c ****   fDeleteMW(filename);
 674              		.loc 1 320 0
 675 002e 0025     		movs	r5, #0
 319:src/emvtrans.c ****   fDeleteMW(filename);
 676              		.loc 1 319 0
 677 0030 02A8     		add	r0, sp, #8
 678 0032 0C49     		ldr	r1, .L53+8
 679 0034 FFF7FEFF 		bl	strcpy
 680              	.LVL65:
 681              		.loc 1 320 0
 682 0038 02AA     		add	r2, sp, #8
 683 003a 2B46     		mov	r3, r5
 684 003c 0095     		str	r5, [sp]
 685 003e 0C21     		movs	r1, #12
 686 0040 0F20     		movs	r0, #15
 687 0042 FFF7FEFF 		bl	lib_app_call
 688              	.LVL66:
 321:src/emvtrans.c ****   iDnloadFile = fCreateMW(filename, 0);
ARM GAS  C:\Users\AHMED~1.ELE\AppData\Local\Temp\ccAhPyWN.s 			page 20


 689              		.loc 1 321 0
 690 0046 0095     		str	r5, [sp]
 691 0048 0B21     		movs	r1, #11
 692 004a 02AA     		add	r2, sp, #8
 693 004c 2B46     		mov	r3, r5
 694 004e 0F20     		movs	r0, #15
 695 0050 FFF7FEFF 		bl	lib_app_call
 696              	.LVL67:
 697 0054 2060     		str	r0, [r4]
 322:src/emvtrans.c **** }
 698              		.loc 1 322 0
 699 0056 0BB0     		add	sp, sp, #44
 700              		.cfi_def_cfa_offset 12
 701              		@ sp needed
 702 0058 30BD     		pop	{r4, r5, pc}
 703              	.L54:
 704 005a 00BF     		.align	2
 705              	.L53:
 706 005c 00000000 		.word	.LANCHOR0
 707 0060 00000000 		.word	.LANCHOR1
 708 0064 00000000 		.word	.LANCHOR2
 709              		.cfi_endproc
 710              	.LFE11:
 711              		.size	EMVClrDnloadBuf, .-EMVClrDnloadBuf
 712              		.section	.text.EMVKillDnloadBuf,"ax",%progbits
 713              		.align	1
 714              		.global	EMVKillDnloadBuf
 715              		.thumb
 716              		.thumb_func
 717              		.type	EMVKillDnloadBuf, %function
 718              	EMVKillDnloadBuf:
 719              	.LFB12:
 323:src/emvtrans.c **** //*****************************************************************************
 324:src/emvtrans.c **** //  Function        : EMVKillDnloadBuf
 325:src/emvtrans.c **** //  Description     : Kill EMV data download buffer.
 326:src/emvtrans.c **** //  Input           : N/A
 327:src/emvtrans.c **** //  Return          : N/A
 328:src/emvtrans.c **** //  Note            : N/A
 329:src/emvtrans.c **** //  Globals Changed : N/A
 330:src/emvtrans.c **** //*****************************************************************************
 331:src/emvtrans.c **** void EMVKillDnloadBuf (void)
 332:src/emvtrans.c **** {
 720              		.loc 1 332 0
 721              		.cfi_startproc
 722              		@ args = 0, pretend = 0, frame = 32
 723              		@ frame_needed = 0, uses_anonymous_args = 0
 724 0000 10B5     		push	{r4, lr}
 725              		.cfi_def_cfa_offset 8
 726              		.cfi_offset 4, -8
 727              		.cfi_offset 14, -4
 333:src/emvtrans.c ****   BYTE filename[32];
 334:src/emvtrans.c ****   strcpy(filename, KEMVTemp);
 335:src/emvtrans.c ****   if (iDnloadFile >= 0) {
 728              		.loc 1 335 0
 729 0002 0D4C     		ldr	r4, .L57
 332:src/emvtrans.c ****   BYTE filename[32];
 730              		.loc 1 332 0
ARM GAS  C:\Users\AHMED~1.ELE\AppData\Local\Temp\ccAhPyWN.s 			page 21


 731 0004 8AB0     		sub	sp, sp, #40
 732              		.cfi_def_cfa_offset 48
 334:src/emvtrans.c ****   if (iDnloadFile >= 0) {
 733              		.loc 1 334 0
 734 0006 02A8     		add	r0, sp, #8
 735 0008 0C49     		ldr	r1, .L57+4
 736 000a FFF7FEFF 		bl	strcpy
 737              	.LVL68:
 738              		.loc 1 335 0
 739 000e 2268     		ldr	r2, [r4]
 740 0010 002A     		cmp	r2, #0
 741 0012 08DB     		blt	.L56
 336:src/emvtrans.c ****     fCloseMW(iDnloadFile);
 742              		.loc 1 336 0
 743 0014 0023     		movs	r3, #0
 744 0016 0F20     		movs	r0, #15
 745 0018 0093     		str	r3, [sp]
 746 001a 0E21     		movs	r1, #14
 747 001c FFF7FEFF 		bl	lib_app_call
 748              	.LVL69:
 337:src/emvtrans.c ****     iDnloadFile = -1;
 749              		.loc 1 337 0
 750 0020 4FF0FF33 		mov	r3, #-1
 751 0024 2360     		str	r3, [r4]
 752              	.L56:
 338:src/emvtrans.c ****   }
 339:src/emvtrans.c ****   fDeleteMW(filename);
 753              		.loc 1 339 0
 754 0026 0023     		movs	r3, #0
 755 0028 0C21     		movs	r1, #12
 756 002a 0093     		str	r3, [sp]
 757 002c 02AA     		add	r2, sp, #8
 758 002e 0F20     		movs	r0, #15
 759 0030 FFF7FEFF 		bl	lib_app_call
 760              	.LVL70:
 340:src/emvtrans.c **** }
 761              		.loc 1 340 0
 762 0034 0AB0     		add	sp, sp, #40
 763              		.cfi_def_cfa_offset 8
 764              		@ sp needed
 765 0036 10BD     		pop	{r4, pc}
 766              	.L58:
 767              		.align	2
 768              	.L57:
 769 0038 00000000 		.word	.LANCHOR1
 770 003c 00000000 		.word	.LANCHOR2
 771              		.cfi_endproc
 772              	.LFE12:
 773              		.size	EMVKillDnloadBuf, .-EMVKillDnloadBuf
 774              		.section	.text.EMVData2DnloadBuf,"ax",%progbits
 775              		.align	1
 776              		.global	EMVData2DnloadBuf
 777              		.thumb
 778              		.thumb_func
 779              		.type	EMVData2DnloadBuf, %function
 780              	EMVData2DnloadBuf:
 781              	.LFB13:
ARM GAS  C:\Users\AHMED~1.ELE\AppData\Local\Temp\ccAhPyWN.s 			page 22


 341:src/emvtrans.c **** //*****************************************************************************
 342:src/emvtrans.c **** //  Function        : EMVData2DnloadBuf
 343:src/emvtrans.c **** //  Description     : Store EMV param/key to download buffer in file system.
 344:src/emvtrans.c **** //  Input           : aType;        // EMV param or key
 345:src/emvtrans.c **** //                    aData;        // pointer to EMV param or key
 346:src/emvtrans.c **** //                    aLen;         // length of EMV param or key
 347:src/emvtrans.c **** //  Return          : N/A
 348:src/emvtrans.c **** //  Note            : N/A
 349:src/emvtrans.c **** //  Globals Changed : N/A
 350:src/emvtrans.c **** //*****************************************************************************
 351:src/emvtrans.c **** void EMVData2DnloadBuf (BYTE aType, BYTE *aData, WORD aLen)
 352:src/emvtrans.c **** {
 782              		.loc 1 352 0
 783              		.cfi_startproc
 784              		@ args = 0, pretend = 0, frame = 8
 785              		@ frame_needed = 0, uses_anonymous_args = 0
 786              	.LVL71:
 787 0000 2DE9F043 		push	{r4, r5, r6, r7, r8, r9, lr}
 788              		.cfi_def_cfa_offset 28
 789              		.cfi_offset 4, -28
 790              		.cfi_offset 5, -24
 791              		.cfi_offset 6, -20
 792              		.cfi_offset 7, -16
 793              		.cfi_offset 8, -12
 794              		.cfi_offset 9, -8
 795              		.cfi_offset 14, -4
 353:src/emvtrans.c ****   WORD offset;
 354:src/emvtrans.c **** 
 355:src/emvtrans.c ****   offset = wChunkSize*bDnloadBlk;
 796              		.loc 1 355 0
 797 0004 1A4E     		ldr	r6, .L62
 352:src/emvtrans.c ****   WORD offset;
 798              		.loc 1 352 0
 799 0006 85B0     		sub	sp, sp, #20
 800              		.cfi_def_cfa_offset 48
 801              		.loc 1 355 0
 802 0008 747C     		ldrb	r4, [r6, #17]	@ zero_extendqisi2
 803 000a B6F80E80 		ldrh	r8, [r6, #14]
 804              	.LVL72:
 356:src/emvtrans.c ****   sbIOBuf[offset] = aType;
 805              		.loc 1 356 0
 806 000e B768     		ldr	r7, [r6, #8]
 355:src/emvtrans.c ****   sbIOBuf[offset] = aType;
 807              		.loc 1 355 0
 808 0010 14FB08F5 		smulbb	r5, r4, r8
 352:src/emvtrans.c ****   WORD offset;
 809              		.loc 1 352 0
 810 0014 8946     		mov	r9, r1
 811              		.loc 1 356 0
 812 0016 ADB2     		uxth	r5, r5
 352:src/emvtrans.c ****   WORD offset;
 813              		.loc 1 352 0
 814 0018 04A9     		add	r1, sp, #16
 815              	.LVL73:
 816              		.loc 1 356 0
 817 001a 7855     		strb	r0, [r7, r5]
 357:src/emvtrans.c ****   memcpy(&sbIOBuf[offset+1], &aLen, 2);
ARM GAS  C:\Users\AHMED~1.ELE\AppData\Local\Temp\ccAhPyWN.s 			page 23


 818              		.loc 1 357 0
 819 001c 681C     		adds	r0, r5, #1
 820              	.LVL74:
 352:src/emvtrans.c ****   WORD offset;
 821              		.loc 1 352 0
 822 001e 21F8022D 		strh	r2, [r1, #-2]!	@ movhi
 823              		.loc 1 357 0
 824 0022 3844     		add	r0, r0, r7
 825 0024 0222     		movs	r2, #2
 826              	.LVL75:
 827 0026 FFF7FEFF 		bl	memcpy
 828              	.LVL76:
 358:src/emvtrans.c ****   memcpy(&sbIOBuf[offset+3], aData, aLen);
 829              		.loc 1 358 0
 830 002a E81C     		adds	r0, r5, #3
 831 002c BDF80E20 		ldrh	r2, [sp, #14]
 832 0030 3844     		add	r0, r0, r7
 833 0032 4946     		mov	r1, r9
 834 0034 FFF7FEFF 		bl	memcpy
 835              	.LVL77:
 359:src/emvtrans.c **** 
 360:src/emvtrans.c ****   if (++bDnloadBlk >= bMaxNumBlk) {
 836              		.loc 1 360 0
 837 0038 621C     		adds	r2, r4, #1
 838 003a 337C     		ldrb	r3, [r6, #16]	@ zero_extendqisi2
 839 003c D2B2     		uxtb	r2, r2
 840 003e 9342     		cmp	r3, r2
 841 0040 7274     		strb	r2, [r6, #17]
 842 0042 12D8     		bhi	.L59
 361:src/emvtrans.c ****     if (fWriteMW(iDnloadFile, sbIOBuf, wChunkSize*bDnloadBlk) != (wChunkSize*bDnloadBlk))
 843              		.loc 1 361 0
 844 0044 08FB02F2 		mul	r2, r8, r2
 845 0048 0A4B     		ldr	r3, .L62+4
 846 004a 0092     		str	r2, [sp]
 847 004c 0F20     		movs	r0, #15
 848 004e 1A68     		ldr	r2, [r3]
 849 0050 1221     		movs	r1, #18
 850 0052 3B46     		mov	r3, r7
 851 0054 FFF7FEFF 		bl	lib_app_call
 852              	.LVL78:
 853 0058 737C     		ldrb	r3, [r6, #17]	@ zero_extendqisi2
 854 005a F289     		ldrh	r2, [r6, #14]
 855 005c 5343     		muls	r3, r2, r3
 856 005e 9842     		cmp	r0, r3
 362:src/emvtrans.c ****       bEmvLoaded = 0xFF;  // indicate fail
 857              		.loc 1 362 0
 858 0060 1CBF     		itt	ne
 859 0062 FF23     		movne	r3, #255
 860 0064 3373     		strbne	r3, [r6, #12]
 363:src/emvtrans.c ****     bDnloadBlk = 0;
 861              		.loc 1 363 0
 862 0066 0023     		movs	r3, #0
 863 0068 7374     		strb	r3, [r6, #17]
 864              	.L59:
 364:src/emvtrans.c ****   }
 365:src/emvtrans.c **** }
 865              		.loc 1 365 0
ARM GAS  C:\Users\AHMED~1.ELE\AppData\Local\Temp\ccAhPyWN.s 			page 24


 866 006a 05B0     		add	sp, sp, #20
 867              		.cfi_def_cfa_offset 28
 868              		@ sp needed
 869 006c BDE8F083 		pop	{r4, r5, r6, r7, r8, r9, pc}
 870              	.LVL79:
 871              	.L63:
 872              		.align	2
 873              	.L62:
 874 0070 00000000 		.word	.LANCHOR0
 875 0074 00000000 		.word	.LANCHOR1
 876              		.cfi_endproc
 877              	.LFE13:
 878              		.size	EMVData2DnloadBuf, .-EMVData2DnloadBuf
 879              		.section	.text.EMVDataUpdate,"ax",%progbits
 880              		.align	1
 881              		.global	EMVDataUpdate
 882              		.thumb
 883              		.thumb_func
 884              		.type	EMVDataUpdate, %function
 885              	EMVDataUpdate:
 886              	.LFB14:
 366:src/emvtrans.c **** //*****************************************************************************
 367:src/emvtrans.c **** //  Function        : EMVDataUpdate
 368:src/emvtrans.c **** //  Description     : Clear/Store param/key to EMVDLL.
 369:src/emvtrans.c **** //  Input           : N/A
 370:src/emvtrans.c **** //  Return          : N/A
 371:src/emvtrans.c **** //  Note            : N/A
 372:src/emvtrans.c **** //  Globals Changed : N/A
 373:src/emvtrans.c **** //*****************************************************************************
 374:src/emvtrans.c **** void EMVDataUpdate (void)
 375:src/emvtrans.c **** {
 887              		.loc 1 375 0
 888              		.cfi_startproc
 889              		@ args = 0, pretend = 0, frame = 8
 890              		@ frame_needed = 0, uses_anonymous_args = 0
 891 0000 2DE9F043 		push	{r4, r5, r6, r7, r8, r9, lr}
 892              		.cfi_def_cfa_offset 28
 893              		.cfi_offset 4, -28
 894              		.cfi_offset 5, -24
 895              		.cfi_offset 6, -20
 896              		.cfi_offset 7, -16
 897              		.cfi_offset 8, -12
 898              		.cfi_offset 9, -8
 899              		.cfi_offset 14, -4
 900 0004 85B0     		sub	sp, sp, #20
 901              		.cfi_def_cfa_offset 48
 376:src/emvtrans.c ****   int size, len;
 377:src/emvtrans.c ****   BYTE type;
 378:src/emvtrans.c **** 
 379:src/emvtrans.c ****   if (!KernelReady() || (bEmvLoaded == 0xFF) || (bEmvLoaded == 0x00))
 902              		.loc 1 379 0
 903 0006 FFF7FEFF 		bl	KernelReady
 904              	.LVL80:
 905 000a 0028     		cmp	r0, #0
 906 000c 00F09380 		beq	.L64
 907              		.loc 1 379 0 is_stmt 0 discriminator 1
 908 0010 4A4C     		ldr	r4, .L93
ARM GAS  C:\Users\AHMED~1.ELE\AppData\Local\Temp\ccAhPyWN.s 			page 25


 909 0012 237B     		ldrb	r3, [r4, #12]	@ zero_extendqisi2
 910 0014 013B     		subs	r3, r3, #1
 911 0016 DBB2     		uxtb	r3, r3
 912 0018 FD2B     		cmp	r3, #253
 913 001a 00F28C80 		bhi	.L64
 380:src/emvtrans.c ****     return;
 381:src/emvtrans.c **** 
 382:src/emvtrans.c ****   if ((bDnloadBlk != 0) && (bDnloadBlk < bMaxNumBlk)) { // store remaining data chunk
 914              		.loc 1 382 0 is_stmt 1
 915 001e 627C     		ldrb	r2, [r4, #17]	@ zero_extendqisi2
 916 0020 474D     		ldr	r5, .L93+4
 917 0022 32B9     		cbnz	r2, .L66
 918              	.L69:
 383:src/emvtrans.c ****     if (fWriteMW(iDnloadFile, sbIOBuf, wChunkSize*bDnloadBlk) != (wChunkSize*bDnloadBlk))
 384:src/emvtrans.c ****       return;
 385:src/emvtrans.c ****   }
 386:src/emvtrans.c **** 
 387:src/emvtrans.c ****   if (bEmvLoaded & 0x80)
 919              		.loc 1 387 0
 920 0024 94F90C30 		ldrsb	r3, [r4, #12]
 921 0028 002B     		cmp	r3, #0
 922 002a 14DA     		bge	.L68
 388:src/emvtrans.c ****     ClrEMVParam();
 923              		.loc 1 388 0
 924 002c FFF7FEFF 		bl	ClrEMVParam
 925              	.LVL81:
 926 0030 11E0     		b	.L68
 927              	.L66:
 382:src/emvtrans.c ****     if (fWriteMW(iDnloadFile, sbIOBuf, wChunkSize*bDnloadBlk) != (wChunkSize*bDnloadBlk))
 928              		.loc 1 382 0 discriminator 1
 929 0032 237C     		ldrb	r3, [r4, #16]	@ zero_extendqisi2
 930 0034 9342     		cmp	r3, r2
 931 0036 F5D9     		bls	.L69
 383:src/emvtrans.c ****     if (fWriteMW(iDnloadFile, sbIOBuf, wChunkSize*bDnloadBlk) != (wChunkSize*bDnloadBlk))
 932              		.loc 1 383 0
 933 0038 E389     		ldrh	r3, [r4, #14]
 934 003a 0F20     		movs	r0, #15
 935 003c 5343     		muls	r3, r2, r3
 936 003e 1221     		movs	r1, #18
 937 0040 0093     		str	r3, [sp]
 938 0042 A368     		ldr	r3, [r4, #8]
 939 0044 2A68     		ldr	r2, [r5]
 940 0046 FFF7FEFF 		bl	lib_app_call
 941              	.LVL82:
 942 004a E289     		ldrh	r2, [r4, #14]
 943 004c 637C     		ldrb	r3, [r4, #17]	@ zero_extendqisi2
 944 004e 5343     		muls	r3, r2, r3
 945 0050 9842     		cmp	r0, r3
 946 0052 70D1     		bne	.L64
 947 0054 E6E7     		b	.L69
 948              	.L68:
 389:src/emvtrans.c ****   if (bEmvLoaded & 0x40)
 949              		.loc 1 389 0
 950 0056 237B     		ldrb	r3, [r4, #12]	@ zero_extendqisi2
 951 0058 5A06     		lsls	r2, r3, #25
 952 005a 01D5     		bpl	.L70
 390:src/emvtrans.c ****     ClrEMVKey();
ARM GAS  C:\Users\AHMED~1.ELE\AppData\Local\Temp\ccAhPyWN.s 			page 26


 953              		.loc 1 390 0
 954 005c FFF7FEFF 		bl	ClrEMVKey
 955              	.LVL83:
 956              	.L70:
 391:src/emvtrans.c **** 
 392:src/emvtrans.c ****   //fFlushMW(iDnloadFile);
 393:src/emvtrans.c ****   size = fLengthMW(iDnloadFile);
 957              		.loc 1 393 0
 958 0060 0026     		movs	r6, #0
 959 0062 0F20     		movs	r0, #15
 960 0064 0096     		str	r6, [sp]
 961 0066 3346     		mov	r3, r6
 962 0068 0146     		mov	r1, r0
 963 006a 2A68     		ldr	r2, [r5]
 964 006c FFF7FEFF 		bl	lib_app_call
 965              	.LVL84:
 394:src/emvtrans.c ****   fSeekMW(iDnloadFile, 0);
 966              		.loc 1 394 0
 967 0070 0096     		str	r6, [sp]
 968 0072 3346     		mov	r3, r6
 969 0074 1021     		movs	r1, #16
 393:src/emvtrans.c ****   fSeekMW(iDnloadFile, 0);
 970              		.loc 1 393 0
 971 0076 0746     		mov	r7, r0
 972              	.LVL85:
 973              		.loc 1 394 0
 974 0078 2A68     		ldr	r2, [r5]
 975 007a 0F20     		movs	r0, #15
 976              	.LVL86:
 977 007c FFF7FEFF 		bl	lib_app_call
 978              	.LVL87:
 395:src/emvtrans.c ****   len = wChunkSize-1;
 979              		.loc 1 395 0
 980 0080 E689     		ldrh	r6, [r4, #14]
 981 0082 06F1FF39 		add	r9, r6, #-1
 982              	.LVL88:
 983              	.L71:
 396:src/emvtrans.c ****   while (size > 0) {
 984              		.loc 1 396 0
 985 0086 002F     		cmp	r7, #0
 986 0088 33DD     		ble	.L73
 397:src/emvtrans.c ****     fReadMW(iDnloadFile, &type, 1);
 987              		.loc 1 397 0
 988 008a 0123     		movs	r3, #1
 989 008c 0F20     		movs	r0, #15
 990 008e 0093     		str	r3, [sp]
 991 0090 1121     		movs	r1, #17
 992 0092 2A68     		ldr	r2, [r5]
 993 0094 0DEB0003 		add	r3, sp, r0
 994 0098 FFF7FEFF 		bl	lib_app_call
 995              	.LVL89:
 398:src/emvtrans.c ****     fReadMW(iDnloadFile, &sEMVIn->wLen, 2);
 996              		.loc 1 398 0
 997 009c 0223     		movs	r3, #2
 998 009e 1121     		movs	r1, #17
 999 00a0 0093     		str	r3, [sp]
 1000 00a2 0F20     		movs	r0, #15
ARM GAS  C:\Users\AHMED~1.ELE\AppData\Local\Temp\ccAhPyWN.s 			page 27


 1001 00a4 2A68     		ldr	r2, [r5]
 1002 00a6 2368     		ldr	r3, [r4]
 1003 00a8 FFF7FEFF 		bl	lib_app_call
 1004              	.LVL90:
 399:src/emvtrans.c ****     if (fReadMW(iDnloadFile, sEMVIn->bMsg, len-2) == (len-2)) {
 1005              		.loc 1 399 0
 1006 00ac 2368     		ldr	r3, [r4]
 1007 00ae A9F10202 		sub	r2, r9, #2
 1008 00b2 0F20     		movs	r0, #15
 1009 00b4 0092     		str	r2, [sp]
 1010 00b6 1121     		movs	r1, #17
 1011 00b8 5B68     		ldr	r3, [r3, #4]
 1012 00ba 2A68     		ldr	r2, [r5]
 1013 00bc FFF7FEFF 		bl	lib_app_call
 1014              	.LVL91:
 1015 00c0 F31E     		subs	r3, r6, #3
 398:src/emvtrans.c ****     fReadMW(iDnloadFile, &sEMVIn->wLen, 2);
 1016              		.loc 1 398 0
 1017 00c2 DFF87880 		ldr	r8, .L93
 1018              		.loc 1 399 0
 1019 00c6 9842     		cmp	r0, r3
 1020 00c8 0FD1     		bne	.L72
 400:src/emvtrans.c ****       if (EMV_DllSetup(type, sEMVIn, sEMVOut)) {
 1021              		.loc 1 400 0
 1022 00ca D8F80430 		ldr	r3, [r8, #4]
 1023 00ce 9DF80F20 		ldrb	r2, [sp, #15]	@ zero_extendqisi2
 1024 00d2 0093     		str	r3, [sp]
 1025 00d4 0E20     		movs	r0, #14
 1026 00d6 0021     		movs	r1, #0
 1027 00d8 D8F80030 		ldr	r3, [r8]
 1028 00dc FFF7FEFF 		bl	lib_app_call
 1029              	.LVL92:
 1030 00e0 10F0FF0F 		tst	r0, #255
 1031 00e4 01D0     		beq	.L72
 1032 00e6 BF1B     		subs	r7, r7, r6
 1033              	.LVL93:
 401:src/emvtrans.c ****         size -= (len+1);
 402:src/emvtrans.c ****         continue;
 1034              		.loc 1 402 0
 1035 00e8 CDE7     		b	.L71
 1036              	.L72:
 403:src/emvtrans.c ****       }
 404:src/emvtrans.c ****     }
 405:src/emvtrans.c ****     bEmvLoaded |= 0x0F;   // indicate fail
 1037              		.loc 1 405 0
 1038 00ea 237B     		ldrb	r3, [r4, #12]	@ zero_extendqisi2
 1039 00ec 43F00F03 		orr	r3, r3, #15
 1040 00f0 2373     		strb	r3, [r4, #12]
 1041              	.L73:
 406:src/emvtrans.c ****     break;
 407:src/emvtrans.c ****   }
 408:src/emvtrans.c ****   if ((bEmvLoaded & 0x0F) == 0x01) {
 1042              		.loc 1 408 0
 1043 00f2 237B     		ldrb	r3, [r4, #12]	@ zero_extendqisi2
 1044 00f4 114D     		ldr	r5, .L93
 1045 00f6 03F00F03 		and	r3, r3, #15
 1046 00fa 012B     		cmp	r3, #1
ARM GAS  C:\Users\AHMED~1.ELE\AppData\Local\Temp\ccAhPyWN.s 			page 28


 1047 00fc 0ED1     		bne	.L76
 409:src/emvtrans.c ****     if (EMV_DllSetup(IOCMD_CLOSE_LOAD, sEMVIn, sEMVOut) == FALSE) // close AID loading
 1048              		.loc 1 409 0
 1049 00fe 6B68     		ldr	r3, [r5, #4]
 1050 0100 0E20     		movs	r0, #14
 1051 0102 0093     		str	r3, [sp]
 1052 0104 0021     		movs	r1, #0
 1053 0106 2B68     		ldr	r3, [r5]
 1054 0108 0522     		movs	r2, #5
 1055 010a FFF7FEFF 		bl	lib_app_call
 1056              	.LVL94:
 1057 010e 10F0FF0F 		tst	r0, #255
 410:src/emvtrans.c ****       bEmvLoaded |= 0x0F; // indicate fail
 1058              		.loc 1 410 0
 1059 0112 02BF     		ittt	eq
 1060 0114 2B7B     		ldrbeq	r3, [r5, #12]	@ zero_extendqisi2
 1061 0116 43F00F03 		orreq	r3, r3, #15
 1062 011a 2B73     		strbeq	r3, [r5, #12]
 1063              	.L76:
 411:src/emvtrans.c ****   }
 412:src/emvtrans.c ****   if ((bEmvLoaded & 0x0F) == 0x0F) {
 1064              		.loc 1 412 0
 1065 011c 237B     		ldrb	r3, [r4, #12]	@ zero_extendqisi2
 1066 011e 03F00F02 		and	r2, r3, #15
 1067 0122 0F2A     		cmp	r2, #15
 1068 0124 07D1     		bne	.L64
 413:src/emvtrans.c ****     //if (bEmvLoaded & 0x80)
 414:src/emvtrans.c ****     //  ClrAllParam();
 415:src/emvtrans.c ****     if (bEmvLoaded & 0x40)
 1069              		.loc 1 415 0
 1070 0126 5B06     		lsls	r3, r3, #25
 1071 0128 01D5     		bpl	.L79
 416:src/emvtrans.c ****       ClrEMVKey();
 1072              		.loc 1 416 0
 1073 012a FFF7FEFF 		bl	ClrEMVKey
 1074              	.LVL95:
 1075              	.L79:
 417:src/emvtrans.c ****     EMVKillDnloadBuf();
 1076              		.loc 1 417 0
 1077 012e FFF7FEFF 		bl	EMVKillDnloadBuf
 1078              	.LVL96:
 418:src/emvtrans.c ****     EMVFatal();
 1079              		.loc 1 418 0
 1080 0132 FFF7FEFF 		bl	EMVFatal
 1081              	.LVL97:
 1082              	.L64:
 419:src/emvtrans.c ****   }
 420:src/emvtrans.c **** }
 1083              		.loc 1 420 0
 1084 0136 05B0     		add	sp, sp, #20
 1085              		.cfi_def_cfa_offset 28
 1086              		@ sp needed
 1087 0138 BDE8F083 		pop	{r4, r5, r6, r7, r8, r9, pc}
 1088              	.L94:
 1089              		.align	2
 1090              	.L93:
 1091 013c 00000000 		.word	.LANCHOR0
ARM GAS  C:\Users\AHMED~1.ELE\AppData\Local\Temp\ccAhPyWN.s 			page 29


 1092 0140 00000000 		.word	.LANCHOR1
 1093              		.cfi_endproc
 1094              	.LFE14:
 1095              		.size	EMVDataUpdate, .-EMVDataUpdate
 1096              		.section	.text.GetEMVKeyInfo,"ax",%progbits
 1097              		.align	1
 1098              		.global	GetEMVKeyInfo
 1099              		.thumb
 1100              		.thumb_func
 1101              		.type	GetEMVKeyInfo, %function
 1102              	GetEMVKeyInfo:
 1103              	.LFB16:
 421:src/emvtrans.c **** //*****************************************************************************
 422:src/emvtrans.c **** //  Function        : GetAppCfg
 423:src/emvtrans.c **** //  Description     : Retrieve Configuration from EMV KERNEL.
 424:src/emvtrans.c **** //  Input           : aCfg;     // pointer to buffer
 425:src/emvtrans.c **** //                    aIdx;     // config index.
 426:src/emvtrans.c **** //  Return          : N/A
 427:src/emvtrans.c **** //  Note            : N/A
 428:src/emvtrans.c **** //  Globals Changed : N/A
 429:src/emvtrans.c **** //*****************************************************************************
 430:src/emvtrans.c **** static BOOLEAN GetEMVAppCfg(APP_CFG *aCfg, DWORD aIdx)
 431:src/emvtrans.c **** {
 432:src/emvtrans.c ****   sEMVIn->bMsg = sEMVOut->bMsg = sbIOBuf;
 433:src/emvtrans.c ****   sEMVIn->bMsg[0] = (BYTE) aIdx;
 434:src/emvtrans.c ****   sEMVIn->wLen = 1;
 435:src/emvtrans.c ****   if (EMV_DllSetup(IOCMD_READ_AIDIDX,sEMVIn,sEMVOut) == FALSE)     // load APP parameters
 436:src/emvtrans.c ****     return FALSE;
 437:src/emvtrans.c ****   memcpy(aCfg, sEMVOut->bMsg, sizeof(APP_CFG));
 438:src/emvtrans.c ****   return TRUE;
 439:src/emvtrans.c **** }
 440:src/emvtrans.c **** //*****************************************************************************
 441:src/emvtrans.c **** //  Function        : GetEMVKeyInfo
 442:src/emvtrans.c **** //  Description     : Retrieve Key info. from EMV KERNEL.
 443:src/emvtrans.c **** //  Input           : aKeyInfo;     // pointer to buffer
 444:src/emvtrans.c **** //                    aIdx;         // config index.
 445:src/emvtrans.c **** //  Return          : N/A
 446:src/emvtrans.c **** //  Note            : N/A
 447:src/emvtrans.c **** //  Globals Changed : N/A
 448:src/emvtrans.c **** //*****************************************************************************
 449:src/emvtrans.c **** BOOLEAN GetEMVKeyInfo(KEY_INFO *aKeyInfo, DWORD aIdx)
 450:src/emvtrans.c **** {
 1104              		.loc 1 450 0
 1105              		.cfi_startproc
 1106              		@ args = 0, pretend = 0, frame = 0
 1107              		@ frame_needed = 0, uses_anonymous_args = 0
 1108              	.LVL98:
 1109 0000 73B5     		push	{r0, r1, r4, r5, r6, lr}
 1110              		.cfi_def_cfa_offset 24
 1111              		.cfi_offset 4, -16
 1112              		.cfi_offset 5, -12
 1113              		.cfi_offset 6, -8
 1114              		.cfi_offset 14, -4
 451:src/emvtrans.c ****   sEMVIn->bMsg = sEMVOut->bMsg = sbIOBuf;
 1115              		.loc 1 451 0
 1116 0002 0F4C     		ldr	r4, .L101
 452:src/emvtrans.c ****   sEMVIn->bMsg[0] = (BYTE) aIdx|0x80;
ARM GAS  C:\Users\AHMED~1.ELE\AppData\Local\Temp\ccAhPyWN.s 			page 30


 1117              		.loc 1 452 0
 1118 0004 61F07F01 		orn	r1, r1, #127
 1119              	.LVL99:
 451:src/emvtrans.c ****   sEMVIn->bMsg = sEMVOut->bMsg = sbIOBuf;
 1120              		.loc 1 451 0
 1121 0008 A268     		ldr	r2, [r4, #8]
 1122 000a 2368     		ldr	r3, [r4]
 450:src/emvtrans.c ****   sEMVIn->bMsg = sEMVOut->bMsg = sbIOBuf;
 1123              		.loc 1 450 0
 1124 000c 0646     		mov	r6, r0
 453:src/emvtrans.c ****   sEMVIn->wLen = 1;
 1125              		.loc 1 453 0
 1126 000e 0125     		movs	r5, #1
 451:src/emvtrans.c ****   sEMVIn->bMsg[0] = (BYTE) aIdx|0x80;
 1127              		.loc 1 451 0
 1128 0010 6068     		ldr	r0, [r4, #4]
 1129              	.LVL100:
 1130 0012 4260     		str	r2, [r0, #4]
 1131 0014 5A60     		str	r2, [r3, #4]
 452:src/emvtrans.c ****   sEMVIn->wLen = 1;
 1132              		.loc 1 452 0
 1133 0016 1170     		strb	r1, [r2]
 1134              		.loc 1 453 0
 1135 0018 1D80     		strh	r5, [r3]	@ movhi
 454:src/emvtrans.c **** 
 455:src/emvtrans.c ****   if ((EMV_DllSetup(IOCMD_READ_KEY,sEMVIn,sEMVOut) == FALSE) || (sEMVOut->wLen == 0))     // Read K
 1136              		.loc 1 455 0
 1137 001a 0021     		movs	r1, #0
 1138 001c 0090     		str	r0, [sp]
 1139 001e 0A22     		movs	r2, #10
 1140 0020 0E20     		movs	r0, #14
 1141 0022 FFF7FEFF 		bl	lib_app_call
 1142              	.LVL101:
 1143 0026 C0B2     		uxtb	r0, r0
 1144 0028 40B1     		cbz	r0, .L96
 1145              	.LVL102:
 1146              	.LBB14:
 1147              	.LBB15:
 1148 002a 6368     		ldr	r3, [r4, #4]
 1149 002c 1888     		ldrh	r0, [r3]
 1150 002e 28B1     		cbz	r0, .L96
 456:src/emvtrans.c ****     return FALSE;
 457:src/emvtrans.c **** 
 458:src/emvtrans.c ****   memcpy(aKeyInfo, sEMVOut->bMsg, sizeof(KEY_INFO));
 1151              		.loc 1 458 0
 1152 0030 3046     		mov	r0, r6
 1153 0032 5968     		ldr	r1, [r3, #4]
 1154 0034 0C22     		movs	r2, #12
 1155 0036 FFF7FEFF 		bl	memcpy
 1156              	.LVL103:
 459:src/emvtrans.c ****   return TRUE;
 1157              		.loc 1 459 0
 1158 003a 2846     		mov	r0, r5
 1159              	.LVL104:
 1160              	.L96:
 1161              	.LBE15:
 1162              	.LBE14:
ARM GAS  C:\Users\AHMED~1.ELE\AppData\Local\Temp\ccAhPyWN.s 			page 31


 460:src/emvtrans.c **** }
 1163              		.loc 1 460 0
 1164 003c 02B0     		add	sp, sp, #8
 1165              		.cfi_def_cfa_offset 16
 1166              		@ sp needed
 1167 003e 70BD     		pop	{r4, r5, r6, pc}
 1168              	.LVL105:
 1169              	.L102:
 1170              		.align	2
 1171              	.L101:
 1172 0040 00000000 		.word	.LANCHOR0
 1173              		.cfi_endproc
 1174              	.LFE16:
 1175              		.size	GetEMVKeyInfo, .-GetEMVKeyInfo
 1176              		.global	__aeabi_uidiv
 1177              		.global	__aeabi_uidivmod
 1178              		.section	.text.PrintEMVParam,"ax",%progbits
 1179              		.align	1
 1180              		.global	PrintEMVParam
 1181              		.thumb
 1182              		.thumb_func
 1183              		.type	PrintEMVParam, %function
 1184              	PrintEMVParam:
 1185              	.LFB19:
 461:src/emvtrans.c **** //*****************************************************************************
 462:src/emvtrans.c **** //  Function        : PrintEMVParam
 463:src/emvtrans.c **** //  Description     : print or display EMV parameter report.
 464:src/emvtrans.c **** //  Input           : aEmvCfg
 465:src/emvtrans.c **** //                    aDetail
 466:src/emvtrans.c **** //                    aToDisplay
 467:src/emvtrans.c **** //  Return          : TRUE / FALSE
 468:src/emvtrans.c **** //  Note            : N/A
 469:src/emvtrans.c **** //  Globals Changed : N/A
 470:src/emvtrans.c **** //*****************************************************************************
 471:src/emvtrans.c **** static BOOLEAN PrintEMVAppCfg(APP_CFG aEmvCfg, BOOLEAN aDetail, BOOLEAN aToDisplay)
 472:src/emvtrans.c **** {
 473:src/emvtrans.c ****   BOOLEAN ret_ok = TRUE;
 474:src/emvtrans.c ****   char *p_mem, buf[64], data[64];
 475:src/emvtrans.c ****   WORD len, pack_width;
 476:src/emvtrans.c ****   struct INFO_DATA info_data;
 477:src/emvtrans.c **** 
 478:src/emvtrans.c ****   // allocate large memory
 479:src/emvtrans.c ****   if ((p_mem = MallocMW(1024)) == NULL) {
 480:src/emvtrans.c ****     return FALSE;
 481:src/emvtrans.c ****   }
 482:src/emvtrans.c **** 
 483:src/emvtrans.c ****   // init
 484:src/emvtrans.c ****   len = 0;
 485:src/emvtrans.c ****   pack_width = (aToDisplay)? MW_MAX_LINESIZE : PRINT_WIDTH;
 486:src/emvtrans.c **** 
 487:src/emvtrans.c ****   // AID
 488:src/emvtrans.c ****   if (LDLoad(buf, aEmvCfg.eACFG, 0x9F06)) {
 489:src/emvtrans.c ****     memset(data, 0x00, sizeof(data));
 490:src/emvtrans.c ****     split(data, buf+1, buf[0]);
 491:src/emvtrans.c ****     strcpy(p_mem+len, "AID: ");
 492:src/emvtrans.c ****     len += PackInfoData(p_mem+len, data, pack_width);
 493:src/emvtrans.c ****   }
ARM GAS  C:\Users\AHMED~1.ELE\AppData\Local\Temp\ccAhPyWN.s 			page 32


 494:src/emvtrans.c **** 
 495:src/emvtrans.c ****   // ACQ
 496:src/emvtrans.c ****   strcpy(p_mem+len, "Def ACQ Profile: ");
 497:src/emvtrans.c ****   data[0] = (!(aEmvCfg.eBitField&eMULTI_ACQ))? 'Y' : 'N';
 498:src/emvtrans.c ****   data[1] = 0x00;
 499:src/emvtrans.c ****   len += PackInfoData(p_mem+len, data, pack_width);
 500:src/emvtrans.c **** 
 501:src/emvtrans.c ****   // type & ver
 502:src/emvtrans.c ****   SprintfMW(p_mem+len, "Type: %02X ", aEmvCfg.eType);
 503:src/emvtrans.c ****   memset(data, 0x00, sizeof(data));
 504:src/emvtrans.c ****   if (LDLoad(buf, aEmvCfg.eACFG, 0x9F09)) {
 505:src/emvtrans.c ****     strcpy(data, "Ver: ");
 506:src/emvtrans.c ****     split(data+strlen(data), buf+1, buf[0]);
 507:src/emvtrans.c ****   }
 508:src/emvtrans.c ****   len += PackInfoData(p_mem+len, data, pack_width);
 509:src/emvtrans.c **** 
 510:src/emvtrans.c ****   // floor limit
 511:src/emvtrans.c ****   if (LDLoad(buf, aEmvCfg.eACFG, 0x9F1B)) {
 512:src/emvtrans.c ****     memset(data, 0x00, sizeof(data));
 513:src/emvtrans.c ****     ConvDecimal(buf, 7);
 514:src/emvtrans.c ****     memcpy(data, buf+1, buf[0]);
 515:src/emvtrans.c ****     strcpy(p_mem+len, "FLR LMT: ");
 516:src/emvtrans.c ****     len += PackInfoData(p_mem+len, data, pack_width);
 517:src/emvtrans.c ****   }
 518:src/emvtrans.c **** 
 519:src/emvtrans.c ****   // oversea floor limit
 520:src/emvtrans.c ****   if (LDLoad(buf, aEmvCfg.eACFG, 0xDF7F)) {
 521:src/emvtrans.c ****     memset(data, 0x00, sizeof(data));
 522:src/emvtrans.c ****     ConvDecimal(buf, 7);
 523:src/emvtrans.c ****     memcpy(data, buf+1, buf[0]);
 524:src/emvtrans.c ****     strcpy(p_mem+len, "FLR LMT(O): ");
 525:src/emvtrans.c ****     len += PackInfoData(p_mem+len, data, pack_width);
 526:src/emvtrans.c ****   }
 527:src/emvtrans.c **** 
 528:src/emvtrans.c ****   // basic random
 529:src/emvtrans.c ****   strcpy(p_mem+len, "Basic Random: ");
 530:src/emvtrans.c ****   SprintfMW(data, "%0d.%02d", aEmvCfg.eRSBThresh/100, aEmvCfg.eRSBThresh%100);
 531:src/emvtrans.c ****   len += PackInfoData(p_mem+len, data, pack_width);
 532:src/emvtrans.c **** 
 533:src/emvtrans.c ****   // target & max target
 534:src/emvtrans.c ****   strcpy(p_mem+len, "Target %: ");
 535:src/emvtrans.c ****   SprintfMW(data, "%02d-%02d", aEmvCfg.eRSTarget, aEmvCfg.eRSBMax);
 536:src/emvtrans.c ****   len += PackInfoData(p_mem+len, data, pack_width);
 537:src/emvtrans.c **** 
 538:src/emvtrans.c ****   // country
 539:src/emvtrans.c ****   if (LDLoad(buf, aEmvCfg.eACFG, 0x9F1A)) {
 540:src/emvtrans.c ****     memset(data, 0x00, sizeof(data));
 541:src/emvtrans.c ****     split(data, buf+1, buf[0]);
 542:src/emvtrans.c ****     strcpy(p_mem+len, "Country: ");
 543:src/emvtrans.c ****     len += PackInfoData(p_mem+len, data+1, pack_width);
 544:src/emvtrans.c ****   }
 545:src/emvtrans.c **** 
 546:src/emvtrans.c ****   //currency
 547:src/emvtrans.c ****   if (LDLoad(buf, aEmvCfg.eACFG, 0x5F2A)) {
 548:src/emvtrans.c ****     memset(data, 0x00, sizeof(data));
 549:src/emvtrans.c ****     split(data, buf+1, buf[0]);
 550:src/emvtrans.c ****     strcpy(p_mem+len, "Currency: ");
ARM GAS  C:\Users\AHMED~1.ELE\AppData\Local\Temp\ccAhPyWN.s 			page 33


 551:src/emvtrans.c ****     len += PackInfoData(p_mem+len, data+1, pack_width);
 552:src/emvtrans.c ****   }
 553:src/emvtrans.c **** 
 554:src/emvtrans.c ****   // blank line
 555:src/emvtrans.c ****   len += PackInfoData(p_mem+len, "", pack_width);
 556:src/emvtrans.c **** 
 557:src/emvtrans.c ****   // allow partial AID
 558:src/emvtrans.c ****   strcpy(p_mem+len, "Allow Partial AID: ");
 559:src/emvtrans.c ****   data[0] = (!(aEmvCfg.eBitField&eNO_PARTIAL_AID))? 'Y':'N';
 560:src/emvtrans.c ****   data[1] = 0x00;
 561:src/emvtrans.c ****   len += PackInfoData(p_mem+len, data, pack_width);
 562:src/emvtrans.c **** 
 563:src/emvtrans.c ****   // referral enable
 564:src/emvtrans.c ****   strcpy(p_mem+len, "Referral Enable: ");
 565:src/emvtrans.c ****   data[0] = (!(aEmvCfg.eBitField&eNO_REFERRAL))? 'Y':'N';
 566:src/emvtrans.c ****   data[1] = 0x00;
 567:src/emvtrans.c ****   len += PackInfoData(p_mem+len, data, pack_width);
 568:src/emvtrans.c **** 
 569:src/emvtrans.c ****   // PIN bypass enable
 570:src/emvtrans.c ****   strcpy(p_mem+len, "PIN Bypass Enable: ");
 571:src/emvtrans.c ****   data[0] = (aEmvCfg.eBitField&eENB_PIN_BYPASS)? 'Y':'N';
 572:src/emvtrans.c ****   data[1] = 0x00;
 573:src/emvtrans.c ****   len += PackInfoData(p_mem+len, data, pack_width);
 574:src/emvtrans.c **** 
 575:src/emvtrans.c ****   // Force TRM
 576:src/emvtrans.c ****   strcpy(p_mem+len, "Force TRM: ");
 577:src/emvtrans.c ****   data[0] = (aEmvCfg.eBitField&eFORCE_TRM)? 'Y':'N';
 578:src/emvtrans.c ****   data[1] = 0x00;
 579:src/emvtrans.c ****   len += PackInfoData(p_mem+len, data, pack_width);
 580:src/emvtrans.c **** 
 581:src/emvtrans.c ****   // TAC denial
 582:src/emvtrans.c ****   strcpy(p_mem+len, "TAC Denial: ");
 583:src/emvtrans.c ****   split(data, aEmvCfg.eTACDenial, 5);
 584:src/emvtrans.c ****   data[5*2] = 0x00;
 585:src/emvtrans.c ****   len += PackInfoData(p_mem+len, data, pack_width);
 586:src/emvtrans.c **** 
 587:src/emvtrans.c ****   // TAC Online
 588:src/emvtrans.c ****   strcpy(p_mem+len, "TAC Online: ");
 589:src/emvtrans.c ****   split(data, aEmvCfg.eTACOnline, 5);
 590:src/emvtrans.c ****   data[5*2] = 0x00;
 591:src/emvtrans.c ****   len += PackInfoData(p_mem+len, data, pack_width);
 592:src/emvtrans.c **** 
 593:src/emvtrans.c ****   // TAC Default
 594:src/emvtrans.c ****   strcpy(p_mem+len, "TAC Denial: ");
 595:src/emvtrans.c ****   split(data, aEmvCfg.eTACDefault, 5);
 596:src/emvtrans.c ****   data[5*2] = 0x00;
 597:src/emvtrans.c ****   len += PackInfoData(p_mem+len, data, pack_width);
 598:src/emvtrans.c **** 
 599:src/emvtrans.c ****   // Term Cap
 600:src/emvtrans.c ****   if (LDLoad(buf, aEmvCfg.eACFG, 0x9F33)) {
 601:src/emvtrans.c ****     memset(data, 0x00, sizeof(data));
 602:src/emvtrans.c ****     split(data, buf+1, buf[0]);
 603:src/emvtrans.c ****     strcpy(p_mem+len, "Term Cap: ");
 604:src/emvtrans.c ****     len += PackInfoData(p_mem+len, data, pack_width);
 605:src/emvtrans.c ****   }
 606:src/emvtrans.c **** 
 607:src/emvtrans.c ****   // Add Cap
ARM GAS  C:\Users\AHMED~1.ELE\AppData\Local\Temp\ccAhPyWN.s 			page 34


 608:src/emvtrans.c ****   if (LDLoad(buf, aEmvCfg.eACFG, 0x9F40)) {
 609:src/emvtrans.c ****     memset(data, 0x00, sizeof(data));
 610:src/emvtrans.c ****     split(data, buf+1, buf[0]);
 611:src/emvtrans.c ****     strcpy(p_mem+len, "Add Cap: ");
 612:src/emvtrans.c ****     len += PackInfoData(p_mem+len, data, pack_width);
 613:src/emvtrans.c ****   }
 614:src/emvtrans.c **** 
 615:src/emvtrans.c ****   // setup data info
 616:src/emvtrans.c ****   SprintfMW(data, " EMV APP CFG");
 617:src/emvtrans.c ****   info_data.b_line_width  = (unsigned char)pack_width;
 618:src/emvtrans.c ****   info_data.w_info_len    = len;
 619:src/emvtrans.c ****   info_data.pb_header     = data;
 620:src/emvtrans.c ****   info_data.pb_info       = p_mem;
 621:src/emvtrans.c **** 
 622:src/emvtrans.c ****   if (aToDisplay) {
 623:src/emvtrans.c ****     if (DispInfoData(info_data) == MWKEY_CANCL) {
 624:src/emvtrans.c ****       ret_ok = FALSE;
 625:src/emvtrans.c ****     }
 626:src/emvtrans.c ****   }
 627:src/emvtrans.c ****   else  {
 628:src/emvtrans.c ****     PrintRcptLF(2);
 629:src/emvtrans.c ****     LptPutS(&data[1]);
 630:src/emvtrans.c ****     PrintRcptLF(1);
 631:src/emvtrans.c ****     ret_ok = PrintBuf(info_data.pb_info, info_data.w_info_len, TRUE);
 632:src/emvtrans.c ****   }
 633:src/emvtrans.c **** 
 634:src/emvtrans.c ****   FreeMW(p_mem);
 635:src/emvtrans.c ****   return ret_ok;
 636:src/emvtrans.c **** }
 637:src/emvtrans.c **** //*****************************************************************************
 638:src/emvtrans.c **** //  Function        : PrintEMVKeyInfo
 639:src/emvtrans.c **** //  Description     : print or display EMV key info.
 640:src/emvtrans.c **** //  Input           : aDetail
 641:src/emvtrans.c **** //                    aToDisplay
 642:src/emvtrans.c **** //  Return          : TRUE / FALSE
 643:src/emvtrans.c **** //  Note            : N/A
 644:src/emvtrans.c **** //  Globals Changed : N/A
 645:src/emvtrans.c **** //*****************************************************************************
 646:src/emvtrans.c **** static BOOLEAN PrintEMVKeyInfo(BOOLEAN aDetail, BOOLEAN aToDisplay)
 647:src/emvtrans.c **** {
 648:src/emvtrans.c ****   BOOLEAN ret_ok = TRUE;
 649:src/emvtrans.c ****   char *p_mem, data[64];
 650:src/emvtrans.c ****   WORD i, len, pack_width;
 651:src/emvtrans.c ****   struct INFO_DATA info_data;
 652:src/emvtrans.c ****   KEY_INFO key_info;
 653:src/emvtrans.c **** 
 654:src/emvtrans.c ****   // allocate large memory
 655:src/emvtrans.c ****   if ((p_mem = MallocMW(1024)) == NULL) {
 656:src/emvtrans.c ****     return FALSE;
 657:src/emvtrans.c ****   }
 658:src/emvtrans.c **** 
 659:src/emvtrans.c ****   // init
 660:src/emvtrans.c ****   len = 0;
 661:src/emvtrans.c ****   pack_width = (aToDisplay)? MW_MAX_LINESIZE : PRINT_WIDTH;
 662:src/emvtrans.c **** 
 663:src/emvtrans.c ****   if (!aToDisplay) {
 664:src/emvtrans.c ****     PrintRcptLF(2);
ARM GAS  C:\Users\AHMED~1.ELE\AppData\Local\Temp\ccAhPyWN.s 			page 35


 665:src/emvtrans.c ****     strcpy(data, "EMV KEY INFO");
 666:src/emvtrans.c ****     LptPutS(data);
 667:src/emvtrans.c ****     PrintRcptLF(1);
 668:src/emvtrans.c ****   }
 669:src/emvtrans.c **** 
 670:src/emvtrans.c ****   // get key info one by one
 671:src/emvtrans.c ****   for (i=0; i<MAX_APPL*6; i++) {
 672:src/emvtrans.c ****     // get key info
 673:src/emvtrans.c ****     if (!GetEMVKeyInfo(&key_info, i)) {
 674:src/emvtrans.c ****       break;
 675:src/emvtrans.c ****     }
 676:src/emvtrans.c **** 
 677:src/emvtrans.c ****     // set description
 678:src/emvtrans.c ****     if ((i==0) || ((len==0)&&(aToDisplay))) {
 679:src/emvtrans.c ****       strcpy(p_mem+len, "Public Key-ID");
 680:src/emvtrans.c ****       len += PackInfoData(p_mem+len, "Eff   Exp  ", pack_width);
 681:src/emvtrans.c ****     }
 682:src/emvtrans.c **** 
 683:src/emvtrans.c ****     // set key info
 684:src/emvtrans.c ****     split(p_mem+len, key_info.RID, 5);
 685:src/emvtrans.c ****     p_mem[len+10] = '-';
 686:src/emvtrans.c ****     SprintfMW(p_mem+len+11, "%02X", key_info.KeyIdx);
 687:src/emvtrans.c ****     SprintfMW(data, "%02X/%02X ", key_info.EffectDate/256, key_info.EffectDate%256);
 688:src/emvtrans.c ****     SprintfMW(data+strlen(data), "%02X/%02X ", key_info.ExpiryDate/256, key_info.ExpiryDate%256);
 689:src/emvtrans.c ****     len += PackInfoData(p_mem+len, data, pack_width);
 690:src/emvtrans.c **** 
 691:src/emvtrans.c ****     // print first to prevent overfall
 692:src/emvtrans.c **** 
 693:src/emvtrans.c **** 
 694:src/emvtrans.c ****     if (len > 960) {
 695:src/emvtrans.c ****       SprintfMW(data, " EMV KEY INFO");
 696:src/emvtrans.c ****       info_data.b_line_width  = (unsigned char)pack_width;
 697:src/emvtrans.c ****       info_data.w_info_len    = len;
 698:src/emvtrans.c ****       info_data.pb_header     = data;
 699:src/emvtrans.c ****       info_data.pb_info       = p_mem;
 700:src/emvtrans.c ****       len = 0;
 701:src/emvtrans.c ****       if (aToDisplay) {
 702:src/emvtrans.c ****         if (DispInfoData(info_data) == MWKEY_CANCL) {
 703:src/emvtrans.c ****           ret_ok = FALSE;
 704:src/emvtrans.c ****           break;
 705:src/emvtrans.c ****         }
 706:src/emvtrans.c ****       }
 707:src/emvtrans.c ****       else  {
 708:src/emvtrans.c ****         ret_ok = PrintBuf(info_data.pb_info, info_data.w_info_len, TRUE);
 709:src/emvtrans.c ****       }
 710:src/emvtrans.c ****     }
 711:src/emvtrans.c ****   }
 712:src/emvtrans.c **** 
 713:src/emvtrans.c ****   // setup data info
 714:src/emvtrans.c ****   SprintfMW(data, " EMV KEY INFO");
 715:src/emvtrans.c ****   info_data.b_line_width  = (unsigned char)pack_width;
 716:src/emvtrans.c ****   info_data.w_info_len    = len;
 717:src/emvtrans.c ****   info_data.pb_header     = data;
 718:src/emvtrans.c ****   info_data.pb_info       = p_mem;
 719:src/emvtrans.c **** 
 720:src/emvtrans.c ****   if (len && ret_ok) {
 721:src/emvtrans.c ****     if (aToDisplay) {
ARM GAS  C:\Users\AHMED~1.ELE\AppData\Local\Temp\ccAhPyWN.s 			page 36


 722:src/emvtrans.c ****       if (DispInfoData(info_data) == MWKEY_CANCL) {
 723:src/emvtrans.c ****         ret_ok = FALSE;
 724:src/emvtrans.c ****       }
 725:src/emvtrans.c ****     }
 726:src/emvtrans.c ****     else  {
 727:src/emvtrans.c ****       ret_ok = PrintBuf(info_data.pb_info, info_data.w_info_len, TRUE);
 728:src/emvtrans.c ****     }
 729:src/emvtrans.c ****   }
 730:src/emvtrans.c **** 
 731:src/emvtrans.c ****   FreeMW(p_mem);
 732:src/emvtrans.c ****   return ret_ok;
 733:src/emvtrans.c **** }
 734:src/emvtrans.c **** //*****************************************************************************
 735:src/emvtrans.c **** //  Function        : PrintEMVParam
 736:src/emvtrans.c **** //  Description     : print or display EMV parameter report.
 737:src/emvtrans.c **** //  Input           : aDetail
 738:src/emvtrans.c **** //                    aToDisplay
 739:src/emvtrans.c **** //  Return          : TRUE / FALSE
 740:src/emvtrans.c **** //  Note            : N/A
 741:src/emvtrans.c **** //  Globals Changed : N/A
 742:src/emvtrans.c **** //*****************************************************************************
 743:src/emvtrans.c **** BOOLEAN PrintEMVParam(BOOLEAN aDetail, BOOLEAN aToDisplay)
 744:src/emvtrans.c **** {
 1186              		.loc 1 744 0
 1187              		.cfi_startproc
 1188              		@ args = 0, pretend = 0, frame = 1224
 1189              		@ frame_needed = 0, uses_anonymous_args = 0
 1190              	.LVL106:
 1191 0000 2DE9F04F 		push	{r4, r5, r6, r7, r8, r9, r10, fp, lr}
 1192              		.cfi_def_cfa_offset 36
 1193              		.cfi_offset 4, -36
 1194              		.cfi_offset 5, -32
 1195              		.cfi_offset 6, -28
 1196              		.cfi_offset 7, -24
 1197              		.cfi_offset 8, -20
 1198              		.cfi_offset 9, -16
 1199              		.cfi_offset 10, -12
 1200              		.cfi_offset 11, -8
 1201              		.cfi_offset 14, -4
 1202 0004 0029     		cmp	r1, #0
 1203 0006 14BF     		ite	ne
 1204 0008 1A26     		movne	r6, #26
 1205 000a 2026     		moveq	r6, #32
 1206 000c ADF2D44D 		subw	sp, sp, #1236
 1207              		.cfi_def_cfa_offset 1272
 1208 0010 0F46     		mov	r7, r1
 1209              	.LBB22:
 1210              	.LBB23:
 617:src/emvtrans.c ****   info_data.w_info_len    = len;
 1211              		.loc 1 617 0
 1212 0012 5FFA86F9 		uxtb	r9, r6
 1213              	.LBE23:
 1214              	.LBE22:
 745:src/emvtrans.c ****   BOOLEAN ret_ok = TRUE;
 746:src/emvtrans.c ****   int i;
 747:src/emvtrans.c ****   APP_CFG emv_cfg;
 748:src/emvtrans.c **** 
ARM GAS  C:\Users\AHMED~1.ELE\AppData\Local\Temp\ccAhPyWN.s 			page 37


 749:src/emvtrans.c ****   // EMV app cfg
 750:src/emvtrans.c ****   for (i=0; i<MAX_APPL && ret_ok; i++) {
 1215              		.loc 1 750 0
 1216 0016 4FF00008 		mov	r8, #0
 745:src/emvtrans.c ****   BOOLEAN ret_ok = TRUE;
 1217              		.loc 1 745 0
 1218 001a 4FF0010A 		mov	r10, #1
 1219              	.LVL107:
 1220              	.L125:
 1221              	.LBB25:
 1222              	.LBB26:
 432:src/emvtrans.c ****   sEMVIn->bMsg[0] = (BYTE) aIdx;
 1223              		.loc 1 432 0
 1224 001e 2D4C     		ldr	r4, .L191
 435:src/emvtrans.c ****     return FALSE;
 1225              		.loc 1 435 0
 1226 0020 0E20     		movs	r0, #14
 432:src/emvtrans.c ****   sEMVIn->bMsg[0] = (BYTE) aIdx;
 1227              		.loc 1 432 0
 1228 0022 A268     		ldr	r2, [r4, #8]
 1229 0024 2368     		ldr	r3, [r4]
 1230 0026 6168     		ldr	r1, [r4, #4]
 1231 0028 4A60     		str	r2, [r1, #4]
 1232 002a 5A60     		str	r2, [r3, #4]
 433:src/emvtrans.c ****   sEMVIn->wLen = 1;
 1233              		.loc 1 433 0
 1234 002c 82F80080 		strb	r8, [r2]
 434:src/emvtrans.c ****   if (EMV_DllSetup(IOCMD_READ_AIDIDX,sEMVIn,sEMVOut) == FALSE)     // load APP parameters
 1235              		.loc 1 434 0
 1236 0030 0122     		movs	r2, #1
 1237 0032 1A80     		strh	r2, [r3]	@ movhi
 435:src/emvtrans.c ****     return FALSE;
 1238              		.loc 1 435 0
 1239 0034 0091     		str	r1, [sp]
 1240 0036 0922     		movs	r2, #9
 1241 0038 0021     		movs	r1, #0
 1242 003a FFF7FEFF 		bl	lib_app_call
 1243              	.LVL108:
 1244 003e 10F0FF0F 		tst	r0, #255
 1245 0042 09D1     		bne	.L104
 1246              	.LVL109:
 1247              	.L127:
 1248              	.LBE26:
 1249              	.LBE25:
 1250              	.LBB28:
 1251              	.LBB29:
 655:src/emvtrans.c ****     return FALSE;
 1252              		.loc 1 655 0
 1253 0044 9220     		movs	r0, #146
 1254 0046 4FF48061 		mov	r1, #1024
 1255 004a FFF7FEFF 		bl	sys_func1
 1256              	.LVL110:
 1257 004e 0646     		mov	r6, r0
 1258 0050 0028     		cmp	r0, #0
 1259 0052 40F08D82 		bne	.L188
 1260 0056 22E3     		b	.L190
 1261              	.LVL111:
ARM GAS  C:\Users\AHMED~1.ELE\AppData\Local\Temp\ccAhPyWN.s 			page 38


 1262              	.L104:
 1263              	.LBE29:
 1264              	.LBE28:
 1265              	.LBB31:
 1266              	.LBB27:
 437:src/emvtrans.c ****   return TRUE;
 1267              		.loc 1 437 0
 1268 0058 6368     		ldr	r3, [r4, #4]
 1269 005a 28A8     		add	r0, sp, #160
 1270              	.LVL112:
 1271 005c 5C68     		ldr	r4, [r3, #4]
 1272 005e 40F21722 		movw	r2, #535
 1273 0062 2146     		mov	r1, r4
 1274 0064 FFF7FEFF 		bl	memcpy
 1275              	.LVL113:
 1276 0068 2378     		ldrb	r3, [r4]	@ zero_extendqisi2
 1277              	.LVL114:
 1278              	.LBE27:
 1279              	.LBE31:
 751:src/emvtrans.c ****     if (!GetEMVAppCfg(&emv_cfg, i)) {
 752:src/emvtrans.c ****       break;
 753:src/emvtrans.c ****     }
 754:src/emvtrans.c ****     if (emv_cfg.eType == 0) {
 1280              		.loc 1 754 0
 1281 006a 002B     		cmp	r3, #0
 1282 006c 00F07182 		beq	.L107
 1283 0070 28A9     		add	r1, sp, #160
 1284              	.LVL115:
 1285 0072 40F21722 		movw	r2, #535
 1286 0076 AEA8     		add	r0, sp, #696
 1287 0078 8DF8A030 		strb	r3, [sp, #160]
 1288 007c FFF7FEFF 		bl	memcpy
 1289              	.LVL116:
 1290              	.LBB32:
 1291              	.LBB24:
 479:src/emvtrans.c ****     return FALSE;
 1292              		.loc 1 479 0
 1293 0080 9220     		movs	r0, #146
 1294 0082 4FF48061 		mov	r1, #1024
 1295 0086 FFF7FEFF 		bl	sys_func1
 1296              	.LVL117:
 1297 008a 0546     		mov	r5, r0
 1298 008c 0028     		cmp	r0, #0
 1299 008e 00F05F82 		beq	.L139
 1300              	.LVL118:
 488:src/emvtrans.c ****     memset(data, 0x00, sizeof(data));
 1301              		.loc 1 488 0
 1302 0092 AEAB     		add	r3, sp, #696
 1303 0094 08A8     		add	r0, sp, #32
 1304              	.LVL119:
 1305 0096 03F11701 		add	r1, r3, #23
 1306 009a 49F60672 		movw	r2, #40710
 1307 009e FFF7FEFF 		bl	LDLoad
 1308              	.LVL120:
 1309 00a2 D8B1     		cbz	r0, .L140
 489:src/emvtrans.c ****     split(data, buf+1, buf[0]);
 1310              		.loc 1 489 0
ARM GAS  C:\Users\AHMED~1.ELE\AppData\Local\Temp\ccAhPyWN.s 			page 39


 1311 00a4 0021     		movs	r1, #0
 1312 00a6 4022     		movs	r2, #64
 1313 00a8 18A8     		add	r0, sp, #96
 1314 00aa FFF7FEFF 		bl	memset
 1315              	.LVL121:
 490:src/emvtrans.c ****     strcpy(p_mem+len, "AID: ");
 1316              		.loc 1 490 0
 1317 00ae 9DF92020 		ldrsb	r2, [sp, #32]
 1318 00b2 18A8     		add	r0, sp, #96
 1319 00b4 0DF12101 		add	r1, sp, #33
 1320 00b8 FFF7FEFF 		bl	split
 1321              	.LVL122:
 491:src/emvtrans.c ****     len += PackInfoData(p_mem+len, data, pack_width);
 1322              		.loc 1 491 0
 1323 00bc 0649     		ldr	r1, .L191+4
 1324 00be 2846     		mov	r0, r5
 1325 00c0 FFF7FEFF 		bl	strcpy
 1326              	.LVL123:
 492:src/emvtrans.c ****   }
 1327              		.loc 1 492 0
 1328 00c4 2846     		mov	r0, r5
 1329 00c6 18A9     		add	r1, sp, #96
 1330 00c8 3246     		mov	r2, r6
 1331 00ca FFF7FEFF 		bl	PackInfoData
 1332              	.LVL124:
 1333 00ce 84B2     		uxth	r4, r0
 1334              	.LVL125:
 1335 00d0 05E0     		b	.L109
 1336              	.L192:
 1337 00d2 00BF     		.align	2
 1338              	.L191:
 1339 00d4 00000000 		.word	.LANCHOR0
 1340 00d8 22000000 		.word	.LC1
 1341              	.LVL126:
 1342              	.L140:
 484:src/emvtrans.c ****   pack_width = (aToDisplay)? MW_MAX_LINESIZE : PRINT_WIDTH;
 1343              		.loc 1 484 0
 1344 00dc 0446     		mov	r4, r0
 1345              	.LVL127:
 1346              	.L109:
 496:src/emvtrans.c ****   data[0] = (!(aEmvCfg.eBitField&eMULTI_ACQ))? 'Y' : 'N';
 1347              		.loc 1 496 0
 1348 00de 2A19     		adds	r2, r5, r4
 1349 00e0 1046     		mov	r0, r2
 1350 00e2 C649     		ldr	r1, .L193
 1351 00e4 FFF7FEFF 		bl	strcpy
 1352              	.LVL128:
 497:src/emvtrans.c ****   data[1] = 0x00;
 1353              		.loc 1 497 0
 1354 00e8 9DF9B932 		ldrsb	r3, [sp, #697]
 498:src/emvtrans.c ****   len += PackInfoData(p_mem+len, data, pack_width);
 1355              		.loc 1 498 0
 1356 00ec 4FF0000B 		mov	fp, #0
 497:src/emvtrans.c ****   data[1] = 0x00;
 1357              		.loc 1 497 0
 1358 00f0 002B     		cmp	r3, #0
 1359 00f2 ACBF     		ite	ge
ARM GAS  C:\Users\AHMED~1.ELE\AppData\Local\Temp\ccAhPyWN.s 			page 40


 1360 00f4 5923     		movge	r3, #89
 1361 00f6 4E23     		movlt	r3, #78
 499:src/emvtrans.c **** 
 1362              		.loc 1 499 0
 1363 00f8 18A9     		add	r1, sp, #96
 1364 00fa 3246     		mov	r2, r6
 497:src/emvtrans.c ****   data[1] = 0x00;
 1365              		.loc 1 497 0
 1366 00fc 8DF86030 		strb	r3, [sp, #96]
 498:src/emvtrans.c ****   len += PackInfoData(p_mem+len, data, pack_width);
 1367              		.loc 1 498 0
 1368 0100 8DF861B0 		strb	fp, [sp, #97]
 499:src/emvtrans.c **** 
 1369              		.loc 1 499 0
 1370 0104 FFF7FEFF 		bl	PackInfoData
 1371              	.LVL129:
 502:src/emvtrans.c ****   memset(data, 0x00, sizeof(data));
 1372              		.loc 1 502 0
 1373 0108 AEAB     		add	r3, sp, #696
 1374 010a BD49     		ldr	r1, .L193+4
 499:src/emvtrans.c **** 
 1375              		.loc 1 499 0
 1376 010c 2044     		add	r0, r0, r4
 502:src/emvtrans.c ****   memset(data, 0x00, sizeof(data));
 1377              		.loc 1 502 0
 1378 010e 13F8172B 		ldrb	r2, [r3], #23	@ zero_extendqisi2
 499:src/emvtrans.c **** 
 1379              		.loc 1 499 0
 1380 0112 84B2     		uxth	r4, r0
 1381              	.LVL130:
 502:src/emvtrans.c ****   memset(data, 0x00, sizeof(data));
 1382              		.loc 1 502 0
 1383 0114 05EB040A 		add	r10, r5, r4
 1384              	.LVL131:
 1385 0118 5046     		mov	r0, r10
 1386 011a 0293     		str	r3, [sp, #8]
 1387 011c 0393     		str	r3, [sp, #12]
 1388 011e FFF7FEFF 		bl	sprintf
 1389              	.LVL132:
 503:src/emvtrans.c ****   if (LDLoad(buf, aEmvCfg.eACFG, 0x9F09)) {
 1390              		.loc 1 503 0
 1391 0122 5946     		mov	r1, fp
 1392 0124 4022     		movs	r2, #64
 1393 0126 18A8     		add	r0, sp, #96
 1394 0128 FFF7FEFF 		bl	memset
 1395              	.LVL133:
 504:src/emvtrans.c ****     strcpy(data, "Ver: ");
 1396              		.loc 1 504 0
 1397 012c 029B     		ldr	r3, [sp, #8]
 1398 012e 08A8     		add	r0, sp, #32
 1399 0130 1946     		mov	r1, r3
 1400 0132 49F60972 		movw	r2, #40713
 1401 0136 FFF7FEFF 		bl	LDLoad
 1402              	.LVL134:
 1403 013a 70B1     		cbz	r0, .L111
 505:src/emvtrans.c ****     split(data+strlen(data), buf+1, buf[0]);
 1404              		.loc 1 505 0
ARM GAS  C:\Users\AHMED~1.ELE\AppData\Local\Temp\ccAhPyWN.s 			page 41


 1405 013c B149     		ldr	r1, .L193+8
 1406 013e 18A8     		add	r0, sp, #96
 1407 0140 FFF7FEFF 		bl	strcpy
 1408              	.LVL135:
 506:src/emvtrans.c ****   }
 1409              		.loc 1 506 0
 1410 0144 18A8     		add	r0, sp, #96
 1411 0146 FFF7FEFF 		bl	strlen
 1412              	.LVL136:
 1413 014a 18AB     		add	r3, sp, #96
 1414 014c 0DF12101 		add	r1, sp, #33
 1415 0150 9DF92020 		ldrsb	r2, [sp, #32]
 1416 0154 1844     		add	r0, r0, r3
 1417 0156 FFF7FEFF 		bl	split
 1418              	.LVL137:
 1419              	.L111:
 508:src/emvtrans.c **** 
 1420              		.loc 1 508 0
 1421 015a 18A9     		add	r1, sp, #96
 1422 015c 3246     		mov	r2, r6
 1423 015e 5046     		mov	r0, r10
 1424 0160 FFF7FEFF 		bl	PackInfoData
 1425              	.LVL138:
 511:src/emvtrans.c ****     memset(data, 0x00, sizeof(data));
 1426              		.loc 1 511 0
 1427 0164 AEAB     		add	r3, sp, #696
 1428 0166 03F11701 		add	r1, r3, #23
 1429 016a 49F61B72 		movw	r2, #40731
 508:src/emvtrans.c **** 
 1430              		.loc 1 508 0
 1431 016e 2044     		add	r0, r0, r4
 1432 0170 84B2     		uxth	r4, r0
 1433              	.LVL139:
 511:src/emvtrans.c ****     memset(data, 0x00, sizeof(data));
 1434              		.loc 1 511 0
 1435 0172 08A8     		add	r0, sp, #32
 1436 0174 FFF7FEFF 		bl	LDLoad
 1437              	.LVL140:
 1438 0178 C8B1     		cbz	r0, .L112
 512:src/emvtrans.c ****     ConvDecimal(buf, 7);
 1439              		.loc 1 512 0
 1440 017a 4022     		movs	r2, #64
 1441 017c 0021     		movs	r1, #0
 1442 017e 18A8     		add	r0, sp, #96
 1443 0180 FFF7FEFF 		bl	memset
 1444              	.LVL141:
 513:src/emvtrans.c ****     memcpy(data, buf+1, buf[0]);
 1445              		.loc 1 513 0
 1446 0184 08A8     		add	r0, sp, #32
 1447 0186 0721     		movs	r1, #7
 1448 0188 FFF7FEFF 		bl	ConvDecimal
 1449              	.LVL142:
 514:src/emvtrans.c ****     strcpy(p_mem+len, "FLR LMT: ");
 1450              		.loc 1 514 0
 1451 018c 08A9     		add	r1, sp, #32
 1452 018e 18A8     		add	r0, sp, #96
 1453 0190 11F9012B 		ldrsb	r2, [r1], #1
ARM GAS  C:\Users\AHMED~1.ELE\AppData\Local\Temp\ccAhPyWN.s 			page 42


 1454 0194 FFF7FEFF 		bl	memcpy
 1455              	.LVL143:
 515:src/emvtrans.c ****     len += PackInfoData(p_mem+len, data, pack_width);
 1456              		.loc 1 515 0
 1457 0198 2B19     		adds	r3, r5, r4
 1458 019a 1846     		mov	r0, r3
 1459 019c 9A49     		ldr	r1, .L193+12
 1460 019e FFF7FEFF 		bl	strcpy
 1461              	.LVL144:
 516:src/emvtrans.c ****   }
 1462              		.loc 1 516 0
 1463 01a2 18A9     		add	r1, sp, #96
 1464 01a4 3246     		mov	r2, r6
 1465 01a6 FFF7FEFF 		bl	PackInfoData
 1466              	.LVL145:
 1467 01aa 2044     		add	r0, r0, r4
 1468 01ac 84B2     		uxth	r4, r0
 1469              	.LVL146:
 1470              	.L112:
 520:src/emvtrans.c ****     memset(data, 0x00, sizeof(data));
 1471              		.loc 1 520 0
 1472 01ae AEAB     		add	r3, sp, #696
 1473 01b0 08A8     		add	r0, sp, #32
 1474 01b2 03F11701 		add	r1, r3, #23
 1475 01b6 4DF67F72 		movw	r2, #57215
 1476 01ba FFF7FEFF 		bl	LDLoad
 1477              	.LVL147:
 1478 01be C8B1     		cbz	r0, .L113
 521:src/emvtrans.c ****     ConvDecimal(buf, 7);
 1479              		.loc 1 521 0
 1480 01c0 4022     		movs	r2, #64
 1481 01c2 0021     		movs	r1, #0
 1482 01c4 18A8     		add	r0, sp, #96
 1483 01c6 FFF7FEFF 		bl	memset
 1484              	.LVL148:
 522:src/emvtrans.c ****     memcpy(data, buf+1, buf[0]);
 1485              		.loc 1 522 0
 1486 01ca 08A8     		add	r0, sp, #32
 1487 01cc 0721     		movs	r1, #7
 1488 01ce FFF7FEFF 		bl	ConvDecimal
 1489              	.LVL149:
 523:src/emvtrans.c ****     strcpy(p_mem+len, "FLR LMT(O): ");
 1490              		.loc 1 523 0
 1491 01d2 08A9     		add	r1, sp, #32
 1492 01d4 18A8     		add	r0, sp, #96
 1493 01d6 11F9012B 		ldrsb	r2, [r1], #1
 1494 01da FFF7FEFF 		bl	memcpy
 1495              	.LVL150:
 524:src/emvtrans.c ****     len += PackInfoData(p_mem+len, data, pack_width);
 1496              		.loc 1 524 0
 1497 01de 2B19     		adds	r3, r5, r4
 1498 01e0 1846     		mov	r0, r3
 1499 01e2 8A49     		ldr	r1, .L193+16
 1500 01e4 FFF7FEFF 		bl	strcpy
 1501              	.LVL151:
 525:src/emvtrans.c ****   }
 1502              		.loc 1 525 0
ARM GAS  C:\Users\AHMED~1.ELE\AppData\Local\Temp\ccAhPyWN.s 			page 43


 1503 01e8 18A9     		add	r1, sp, #96
 1504 01ea 3246     		mov	r2, r6
 1505 01ec FFF7FEFF 		bl	PackInfoData
 1506              	.LVL152:
 1507 01f0 2044     		add	r0, r0, r4
 1508 01f2 84B2     		uxth	r4, r0
 1509              	.LVL153:
 1510              	.L113:
 529:src/emvtrans.c ****   SprintfMW(data, "%0d.%02d", aEmvCfg.eRSBThresh/100, aEmvCfg.eRSBThresh%100);
 1511              		.loc 1 529 0
 1512 01f4 05EB040B 		add	fp, r5, r4
 1513 01f8 8549     		ldr	r1, .L193+20
 1514 01fa 5846     		mov	r0, fp
 1515 01fc FFF7FEFF 		bl	strcpy
 1516              	.LVL154:
 530:src/emvtrans.c ****   len += PackInfoData(p_mem+len, data, pack_width);
 1517              		.loc 1 530 0
 1518 0200 BDF8BA32 		ldrh	r3, [sp, #698]
 1519 0204 BDF8BCA2 		ldrh	r10, [sp, #700]
 1520 0208 6421     		movs	r1, #100
 1521 020a 43EA0A4A 		orr	r10, r3, r10, lsl #16
 1522 020e 5046     		mov	r0, r10
 1523 0210 FFF7FEFF 		bl	__aeabi_uidiv
 1524              	.LVL155:
 1525 0214 6421     		movs	r1, #100
 1526 0216 0290     		str	r0, [sp, #8]
 1527 0218 5046     		mov	r0, r10
 1528 021a FFF7FEFF 		bl	__aeabi_uidivmod
 1529              	.LVL156:
 1530 021e 029A     		ldr	r2, [sp, #8]
 1531 0220 18A8     		add	r0, sp, #96
 1532 0222 0B46     		mov	r3, r1
 1533 0224 7B49     		ldr	r1, .L193+24
 1534 0226 FFF7FEFF 		bl	sprintf
 1535              	.LVL157:
 531:src/emvtrans.c **** 
 1536              		.loc 1 531 0
 1537 022a 3246     		mov	r2, r6
 1538 022c 18A9     		add	r1, sp, #96
 1539 022e 5846     		mov	r0, fp
 1540 0230 FFF7FEFF 		bl	PackInfoData
 1541              	.LVL158:
 534:src/emvtrans.c ****   SprintfMW(data, "%02d-%02d", aEmvCfg.eRSTarget, aEmvCfg.eRSBMax);
 1542              		.loc 1 534 0
 1543 0234 7849     		ldr	r1, .L193+28
 531:src/emvtrans.c **** 
 1544              		.loc 1 531 0
 1545 0236 2044     		add	r0, r0, r4
 1546 0238 84B2     		uxth	r4, r0
 1547              	.LVL159:
 534:src/emvtrans.c ****   SprintfMW(data, "%02d-%02d", aEmvCfg.eRSTarget, aEmvCfg.eRSBMax);
 1548              		.loc 1 534 0
 1549 023a 05EB040A 		add	r10, r5, r4
 1550 023e 5046     		mov	r0, r10
 1551 0240 FFF7FEFF 		bl	strcpy
 1552              	.LVL160:
 535:src/emvtrans.c ****   len += PackInfoData(p_mem+len, data, pack_width);
ARM GAS  C:\Users\AHMED~1.ELE\AppData\Local\Temp\ccAhPyWN.s 			page 44


 1553              		.loc 1 535 0
 1554 0244 9DF8BF32 		ldrb	r3, [sp, #703]	@ zero_extendqisi2
 1555 0248 7449     		ldr	r1, .L193+32
 1556 024a 9DF8BE22 		ldrb	r2, [sp, #702]	@ zero_extendqisi2
 1557 024e 18A8     		add	r0, sp, #96
 1558 0250 FFF7FEFF 		bl	sprintf
 1559              	.LVL161:
 536:src/emvtrans.c **** 
 1560              		.loc 1 536 0
 1561 0254 18A9     		add	r1, sp, #96
 1562 0256 3246     		mov	r2, r6
 1563 0258 5046     		mov	r0, r10
 1564 025a FFF7FEFF 		bl	PackInfoData
 1565              	.LVL162:
 539:src/emvtrans.c ****     memset(data, 0x00, sizeof(data));
 1566              		.loc 1 539 0
 1567 025e AEAB     		add	r3, sp, #696
 1568 0260 03F11701 		add	r1, r3, #23
 1569 0264 49F61A72 		movw	r2, #40730
 536:src/emvtrans.c **** 
 1570              		.loc 1 536 0
 1571 0268 2044     		add	r0, r0, r4
 1572 026a 84B2     		uxth	r4, r0
 1573              	.LVL163:
 539:src/emvtrans.c ****     memset(data, 0x00, sizeof(data));
 1574              		.loc 1 539 0
 1575 026c 08A8     		add	r0, sp, #32
 1576 026e FFF7FEFF 		bl	LDLoad
 1577              	.LVL164:
 1578 0272 B8B1     		cbz	r0, .L114
 540:src/emvtrans.c ****     split(data, buf+1, buf[0]);
 1579              		.loc 1 540 0
 1580 0274 0021     		movs	r1, #0
 1581 0276 4022     		movs	r2, #64
 1582 0278 18A8     		add	r0, sp, #96
 1583 027a FFF7FEFF 		bl	memset
 1584              	.LVL165:
 541:src/emvtrans.c ****     strcpy(p_mem+len, "Country: ");
 1585              		.loc 1 541 0
 1586 027e 9DF92020 		ldrsb	r2, [sp, #32]
 1587 0282 18A8     		add	r0, sp, #96
 1588 0284 0DF12101 		add	r1, sp, #33
 1589 0288 FFF7FEFF 		bl	split
 1590              	.LVL166:
 542:src/emvtrans.c ****     len += PackInfoData(p_mem+len, data+1, pack_width);
 1591              		.loc 1 542 0
 1592 028c 2B19     		adds	r3, r5, r4
 1593 028e 1846     		mov	r0, r3
 1594 0290 6349     		ldr	r1, .L193+36
 1595 0292 FFF7FEFF 		bl	strcpy
 1596              	.LVL167:
 543:src/emvtrans.c ****   }
 1597              		.loc 1 543 0
 1598 0296 0DF16101 		add	r1, sp, #97
 1599 029a 3246     		mov	r2, r6
 1600 029c FFF7FEFF 		bl	PackInfoData
 1601              	.LVL168:
ARM GAS  C:\Users\AHMED~1.ELE\AppData\Local\Temp\ccAhPyWN.s 			page 45


 1602 02a0 2044     		add	r0, r0, r4
 1603 02a2 84B2     		uxth	r4, r0
 1604              	.LVL169:
 1605              	.L114:
 547:src/emvtrans.c ****     memset(data, 0x00, sizeof(data));
 1606              		.loc 1 547 0
 1607 02a4 AEAB     		add	r3, sp, #696
 1608 02a6 08A8     		add	r0, sp, #32
 1609 02a8 03F11701 		add	r1, r3, #23
 1610 02ac 45F62A72 		movw	r2, #24362
 1611 02b0 FFF7FEFF 		bl	LDLoad
 1612              	.LVL170:
 1613 02b4 B8B1     		cbz	r0, .L115
 548:src/emvtrans.c ****     split(data, buf+1, buf[0]);
 1614              		.loc 1 548 0
 1615 02b6 0021     		movs	r1, #0
 1616 02b8 4022     		movs	r2, #64
 1617 02ba 18A8     		add	r0, sp, #96
 1618 02bc FFF7FEFF 		bl	memset
 1619              	.LVL171:
 549:src/emvtrans.c ****     strcpy(p_mem+len, "Currency: ");
 1620              		.loc 1 549 0
 1621 02c0 9DF92020 		ldrsb	r2, [sp, #32]
 1622 02c4 18A8     		add	r0, sp, #96
 1623 02c6 0DF12101 		add	r1, sp, #33
 1624 02ca FFF7FEFF 		bl	split
 1625              	.LVL172:
 550:src/emvtrans.c ****     len += PackInfoData(p_mem+len, data+1, pack_width);
 1626              		.loc 1 550 0
 1627 02ce 2B19     		adds	r3, r5, r4
 1628 02d0 1846     		mov	r0, r3
 1629 02d2 5449     		ldr	r1, .L193+40
 1630 02d4 FFF7FEFF 		bl	strcpy
 1631              	.LVL173:
 551:src/emvtrans.c ****   }
 1632              		.loc 1 551 0
 1633 02d8 0DF16101 		add	r1, sp, #97
 1634 02dc 3246     		mov	r2, r6
 1635 02de FFF7FEFF 		bl	PackInfoData
 1636              	.LVL174:
 1637 02e2 2044     		add	r0, r0, r4
 1638 02e4 84B2     		uxth	r4, r0
 1639              	.LVL175:
 1640              	.L115:
 555:src/emvtrans.c **** 
 1641              		.loc 1 555 0
 1642 02e6 3246     		mov	r2, r6
 1643 02e8 2819     		adds	r0, r5, r4
 1644 02ea 4F49     		ldr	r1, .L193+44
 1645 02ec FFF7FEFF 		bl	PackInfoData
 1646              	.LVL176:
 558:src/emvtrans.c ****   data[0] = (!(aEmvCfg.eBitField&eNO_PARTIAL_AID))? 'Y':'N';
 1647              		.loc 1 558 0
 1648 02f0 4E49     		ldr	r1, .L193+48
 560:src/emvtrans.c ****   len += PackInfoData(p_mem+len, data, pack_width);
 1649              		.loc 1 560 0
 1650 02f2 4FF0000A 		mov	r10, #0
ARM GAS  C:\Users\AHMED~1.ELE\AppData\Local\Temp\ccAhPyWN.s 			page 46


 555:src/emvtrans.c **** 
 1651              		.loc 1 555 0
 1652 02f6 2044     		add	r0, r0, r4
 1653 02f8 84B2     		uxth	r4, r0
 1654              	.LVL177:
 558:src/emvtrans.c ****   data[0] = (!(aEmvCfg.eBitField&eNO_PARTIAL_AID))? 'Y':'N';
 1655              		.loc 1 558 0
 1656 02fa 2B19     		adds	r3, r5, r4
 1657 02fc 1846     		mov	r0, r3
 1658 02fe FFF7FEFF 		bl	strcpy
 1659              	.LVL178:
 559:src/emvtrans.c ****   data[1] = 0x00;
 1660              		.loc 1 559 0
 1661 0302 9DF8B922 		ldrb	r2, [sp, #697]	@ zero_extendqisi2
 561:src/emvtrans.c **** 
 1662              		.loc 1 561 0
 1663 0306 18A9     		add	r1, sp, #96
 559:src/emvtrans.c ****   data[1] = 0x00;
 1664              		.loc 1 559 0
 1665 0308 12F0010F 		tst	r2, #1
 1666 030c 0CBF     		ite	eq
 1667 030e 5922     		moveq	r2, #89
 1668 0310 4E22     		movne	r2, #78
 560:src/emvtrans.c ****   len += PackInfoData(p_mem+len, data, pack_width);
 1669              		.loc 1 560 0
 1670 0312 8DF861A0 		strb	r10, [sp, #97]
 559:src/emvtrans.c ****   data[1] = 0x00;
 1671              		.loc 1 559 0
 1672 0316 8DF86020 		strb	r2, [sp, #96]
 561:src/emvtrans.c **** 
 1673              		.loc 1 561 0
 1674 031a 3246     		mov	r2, r6
 1675 031c FFF7FEFF 		bl	PackInfoData
 1676              	.LVL179:
 564:src/emvtrans.c ****   data[0] = (!(aEmvCfg.eBitField&eNO_REFERRAL))? 'Y':'N';
 1677              		.loc 1 564 0
 1678 0320 4349     		ldr	r1, .L193+52
 561:src/emvtrans.c **** 
 1679              		.loc 1 561 0
 1680 0322 2044     		add	r0, r0, r4
 1681 0324 84B2     		uxth	r4, r0
 1682              	.LVL180:
 564:src/emvtrans.c ****   data[0] = (!(aEmvCfg.eBitField&eNO_REFERRAL))? 'Y':'N';
 1683              		.loc 1 564 0
 1684 0326 2B19     		adds	r3, r5, r4
 1685 0328 1846     		mov	r0, r3
 1686 032a FFF7FEFF 		bl	strcpy
 1687              	.LVL181:
 565:src/emvtrans.c ****   data[1] = 0x00;
 1688              		.loc 1 565 0
 1689 032e 9DF8B922 		ldrb	r2, [sp, #697]	@ zero_extendqisi2
 567:src/emvtrans.c **** 
 1690              		.loc 1 567 0
 1691 0332 18A9     		add	r1, sp, #96
 565:src/emvtrans.c ****   data[1] = 0x00;
 1692              		.loc 1 565 0
 1693 0334 12F0020F 		tst	r2, #2
ARM GAS  C:\Users\AHMED~1.ELE\AppData\Local\Temp\ccAhPyWN.s 			page 47


 1694 0338 0CBF     		ite	eq
 1695 033a 5922     		moveq	r2, #89
 1696 033c 4E22     		movne	r2, #78
 566:src/emvtrans.c ****   len += PackInfoData(p_mem+len, data, pack_width);
 1697              		.loc 1 566 0
 1698 033e 8DF861A0 		strb	r10, [sp, #97]
 565:src/emvtrans.c ****   data[1] = 0x00;
 1699              		.loc 1 565 0
 1700 0342 8DF86020 		strb	r2, [sp, #96]
 567:src/emvtrans.c **** 
 1701              		.loc 1 567 0
 1702 0346 3246     		mov	r2, r6
 1703 0348 FFF7FEFF 		bl	PackInfoData
 1704              	.LVL182:
 570:src/emvtrans.c ****   data[0] = (aEmvCfg.eBitField&eENB_PIN_BYPASS)? 'Y':'N';
 1705              		.loc 1 570 0
 1706 034c 3949     		ldr	r1, .L193+56
 567:src/emvtrans.c **** 
 1707              		.loc 1 567 0
 1708 034e 2044     		add	r0, r0, r4
 1709 0350 84B2     		uxth	r4, r0
 1710              	.LVL183:
 570:src/emvtrans.c ****   data[0] = (aEmvCfg.eBitField&eENB_PIN_BYPASS)? 'Y':'N';
 1711              		.loc 1 570 0
 1712 0352 2B19     		adds	r3, r5, r4
 1713 0354 1846     		mov	r0, r3
 1714 0356 FFF7FEFF 		bl	strcpy
 1715              	.LVL184:
 571:src/emvtrans.c ****   data[1] = 0x00;
 1716              		.loc 1 571 0
 1717 035a 9DF8B922 		ldrb	r2, [sp, #697]	@ zero_extendqisi2
 573:src/emvtrans.c **** 
 1718              		.loc 1 573 0
 1719 035e 18A9     		add	r1, sp, #96
 571:src/emvtrans.c ****   data[1] = 0x00;
 1720              		.loc 1 571 0
 1721 0360 12F0040F 		tst	r2, #4
 1722 0364 14BF     		ite	ne
 1723 0366 5922     		movne	r2, #89
 1724 0368 4E22     		moveq	r2, #78
 572:src/emvtrans.c ****   len += PackInfoData(p_mem+len, data, pack_width);
 1725              		.loc 1 572 0
 1726 036a 8DF861A0 		strb	r10, [sp, #97]
 571:src/emvtrans.c ****   data[1] = 0x00;
 1727              		.loc 1 571 0
 1728 036e 8DF86020 		strb	r2, [sp, #96]
 573:src/emvtrans.c **** 
 1729              		.loc 1 573 0
 1730 0372 3246     		mov	r2, r6
 1731 0374 FFF7FEFF 		bl	PackInfoData
 1732              	.LVL185:
 576:src/emvtrans.c ****   data[0] = (aEmvCfg.eBitField&eFORCE_TRM)? 'Y':'N';
 1733              		.loc 1 576 0
 1734 0378 2F49     		ldr	r1, .L193+60
 573:src/emvtrans.c **** 
 1735              		.loc 1 573 0
 1736 037a 2044     		add	r0, r0, r4
ARM GAS  C:\Users\AHMED~1.ELE\AppData\Local\Temp\ccAhPyWN.s 			page 48


 1737 037c 84B2     		uxth	r4, r0
 1738              	.LVL186:
 576:src/emvtrans.c ****   data[0] = (aEmvCfg.eBitField&eFORCE_TRM)? 'Y':'N';
 1739              		.loc 1 576 0
 1740 037e 2B19     		adds	r3, r5, r4
 1741 0380 1846     		mov	r0, r3
 1742 0382 FFF7FEFF 		bl	strcpy
 1743              	.LVL187:
 577:src/emvtrans.c ****   data[1] = 0x00;
 1744              		.loc 1 577 0
 1745 0386 9DF8B922 		ldrb	r2, [sp, #697]	@ zero_extendqisi2
 579:src/emvtrans.c **** 
 1746              		.loc 1 579 0
 1747 038a 18A9     		add	r1, sp, #96
 577:src/emvtrans.c ****   data[1] = 0x00;
 1748              		.loc 1 577 0
 1749 038c 12F0080F 		tst	r2, #8
 1750 0390 14BF     		ite	ne
 1751 0392 5922     		movne	r2, #89
 1752 0394 4E22     		moveq	r2, #78
 578:src/emvtrans.c ****   len += PackInfoData(p_mem+len, data, pack_width);
 1753              		.loc 1 578 0
 1754 0396 8DF861A0 		strb	r10, [sp, #97]
 577:src/emvtrans.c ****   data[1] = 0x00;
 1755              		.loc 1 577 0
 1756 039a 8DF86020 		strb	r2, [sp, #96]
 579:src/emvtrans.c **** 
 1757              		.loc 1 579 0
 1758 039e 3246     		mov	r2, r6
 1759 03a0 FFF7FEFF 		bl	PackInfoData
 1760              	.LVL188:
 582:src/emvtrans.c ****   split(data, aEmvCfg.eTACDenial, 5);
 1761              		.loc 1 582 0
 1762 03a4 2549     		ldr	r1, .L193+64
 579:src/emvtrans.c **** 
 1763              		.loc 1 579 0
 1764 03a6 2044     		add	r0, r0, r4
 1765 03a8 84B2     		uxth	r4, r0
 1766              	.LVL189:
 582:src/emvtrans.c ****   split(data, aEmvCfg.eTACDenial, 5);
 1767              		.loc 1 582 0
 1768 03aa 05EB040B 		add	fp, r5, r4
 1769 03ae 5846     		mov	r0, fp
 1770 03b0 FFF7FEFF 		bl	strcpy
 1771              	.LVL190:
 583:src/emvtrans.c ****   data[5*2] = 0x00;
 1772              		.loc 1 583 0
 1773 03b4 18A8     		add	r0, sp, #96
 1774 03b6 B0A9     		add	r1, sp, #704
 1775 03b8 0522     		movs	r2, #5
 1776 03ba FFF7FEFF 		bl	split
 1777              	.LVL191:
 585:src/emvtrans.c **** 
 1778              		.loc 1 585 0
 1779 03be 3246     		mov	r2, r6
 1780 03c0 5846     		mov	r0, fp
 1781 03c2 18A9     		add	r1, sp, #96
ARM GAS  C:\Users\AHMED~1.ELE\AppData\Local\Temp\ccAhPyWN.s 			page 49


 584:src/emvtrans.c ****   len += PackInfoData(p_mem+len, data, pack_width);
 1782              		.loc 1 584 0
 1783 03c4 8DF86AA0 		strb	r10, [sp, #106]
 585:src/emvtrans.c **** 
 1784              		.loc 1 585 0
 1785 03c8 FFF7FEFF 		bl	PackInfoData
 1786              	.LVL192:
 588:src/emvtrans.c ****   split(data, aEmvCfg.eTACOnline, 5);
 1787              		.loc 1 588 0
 1788 03cc 1C49     		ldr	r1, .L193+68
 585:src/emvtrans.c **** 
 1789              		.loc 1 585 0
 1790 03ce 2044     		add	r0, r0, r4
 1791 03d0 84B2     		uxth	r4, r0
 1792              	.LVL193:
 588:src/emvtrans.c ****   split(data, aEmvCfg.eTACOnline, 5);
 1793              		.loc 1 588 0
 1794 03d2 05EB040B 		add	fp, r5, r4
 1795 03d6 5846     		mov	r0, fp
 1796 03d8 FFF7FEFF 		bl	strcpy
 1797              	.LVL194:
 589:src/emvtrans.c ****   data[5*2] = 0x00;
 1798              		.loc 1 589 0
 1799 03dc AEAB     		add	r3, sp, #696
 1800 03de 03F10D01 		add	r1, r3, #13
 1801 03e2 18A8     		add	r0, sp, #96
 1802 03e4 0522     		movs	r2, #5
 1803 03e6 FFF7FEFF 		bl	split
 1804              	.LVL195:
 591:src/emvtrans.c **** 
 1805              		.loc 1 591 0
 1806 03ea 3246     		mov	r2, r6
 1807 03ec 5846     		mov	r0, fp
 1808 03ee 18A9     		add	r1, sp, #96
 590:src/emvtrans.c ****   len += PackInfoData(p_mem+len, data, pack_width);
 1809              		.loc 1 590 0
 1810 03f0 8DF86AA0 		strb	r10, [sp, #106]
 591:src/emvtrans.c **** 
 1811              		.loc 1 591 0
 1812 03f4 FFF7FEFF 		bl	PackInfoData
 1813              	.LVL196:
 1814 03f8 24E0     		b	.L194
 1815              	.L195:
 1816 03fa 00BF     		.align	2
 1817              	.L193:
 1818 03fc 28000000 		.word	.LC2
 1819 0400 3A000000 		.word	.LC3
 1820 0404 46000000 		.word	.LC4
 1821 0408 4C000000 		.word	.LC5
 1822 040c 56000000 		.word	.LC6
 1823 0410 63000000 		.word	.LC7
 1824 0414 72000000 		.word	.LC8
 1825 0418 7B000000 		.word	.LC9
 1826 041c 86000000 		.word	.LC10
 1827 0420 90000000 		.word	.LC11
 1828 0424 9A000000 		.word	.LC12
 1829 0428 A5000000 		.word	.LC13
ARM GAS  C:\Users\AHMED~1.ELE\AppData\Local\Temp\ccAhPyWN.s 			page 50


 1830 042c A6000000 		.word	.LC14
 1831 0430 BA000000 		.word	.LC15
 1832 0434 CC000000 		.word	.LC16
 1833 0438 E0000000 		.word	.LC17
 1834 043c EC000000 		.word	.LC18
 1835 0440 F9000000 		.word	.LC19
 1836              	.L194:
 594:src/emvtrans.c ****   split(data, aEmvCfg.eTACDefault, 5);
 1837              		.loc 1 594 0
 1838 0444 A149     		ldr	r1, .L196
 591:src/emvtrans.c **** 
 1839              		.loc 1 591 0
 1840 0446 2044     		add	r0, r0, r4
 1841 0448 84B2     		uxth	r4, r0
 1842              	.LVL197:
 594:src/emvtrans.c ****   split(data, aEmvCfg.eTACDefault, 5);
 1843              		.loc 1 594 0
 1844 044a 05EB040B 		add	fp, r5, r4
 1845 044e 5846     		mov	r0, fp
 1846 0450 FFF7FEFF 		bl	strcpy
 1847              	.LVL198:
 595:src/emvtrans.c ****   data[5*2] = 0x00;
 1848              		.loc 1 595 0
 1849 0454 AEAB     		add	r3, sp, #696
 1850 0456 03F11201 		add	r1, r3, #18
 1851 045a 18A8     		add	r0, sp, #96
 1852 045c 0522     		movs	r2, #5
 1853 045e FFF7FEFF 		bl	split
 1854              	.LVL199:
 597:src/emvtrans.c **** 
 1855              		.loc 1 597 0
 1856 0462 18A9     		add	r1, sp, #96
 1857 0464 3246     		mov	r2, r6
 1858 0466 5846     		mov	r0, fp
 596:src/emvtrans.c ****   len += PackInfoData(p_mem+len, data, pack_width);
 1859              		.loc 1 596 0
 1860 0468 8DF86AA0 		strb	r10, [sp, #106]
 597:src/emvtrans.c **** 
 1861              		.loc 1 597 0
 1862 046c FFF7FEFF 		bl	PackInfoData
 1863              	.LVL200:
 600:src/emvtrans.c ****     memset(data, 0x00, sizeof(data));
 1864              		.loc 1 600 0
 1865 0470 AEAB     		add	r3, sp, #696
 1866 0472 03F11701 		add	r1, r3, #23
 597:src/emvtrans.c **** 
 1867              		.loc 1 597 0
 1868 0476 2044     		add	r0, r0, r4
 600:src/emvtrans.c ****     memset(data, 0x00, sizeof(data));
 1869              		.loc 1 600 0
 1870 0478 49F63372 		movw	r2, #40755
 597:src/emvtrans.c **** 
 1871              		.loc 1 597 0
 1872 047c 84B2     		uxth	r4, r0
 1873              	.LVL201:
 600:src/emvtrans.c ****     memset(data, 0x00, sizeof(data));
 1874              		.loc 1 600 0
ARM GAS  C:\Users\AHMED~1.ELE\AppData\Local\Temp\ccAhPyWN.s 			page 51


 1875 047e 08A8     		add	r0, sp, #32
 1876 0480 FFF7FEFF 		bl	LDLoad
 1877              	.LVL202:
 1878 0484 B0B1     		cbz	r0, .L120
 601:src/emvtrans.c ****     split(data, buf+1, buf[0]);
 1879              		.loc 1 601 0
 1880 0486 5146     		mov	r1, r10
 1881 0488 4022     		movs	r2, #64
 1882 048a 18A8     		add	r0, sp, #96
 1883 048c FFF7FEFF 		bl	memset
 1884              	.LVL203:
 602:src/emvtrans.c ****     strcpy(p_mem+len, "Term Cap: ");
 1885              		.loc 1 602 0
 1886 0490 9DF92020 		ldrsb	r2, [sp, #32]
 1887 0494 18A8     		add	r0, sp, #96
 1888 0496 0DF12101 		add	r1, sp, #33
 1889 049a FFF7FEFF 		bl	split
 1890              	.LVL204:
 603:src/emvtrans.c ****     len += PackInfoData(p_mem+len, data, pack_width);
 1891              		.loc 1 603 0
 1892 049e 2B19     		adds	r3, r5, r4
 1893 04a0 1846     		mov	r0, r3
 1894 04a2 8B49     		ldr	r1, .L196+4
 1895 04a4 FFF7FEFF 		bl	strcpy
 1896              	.LVL205:
 604:src/emvtrans.c ****   }
 1897              		.loc 1 604 0
 1898 04a8 18A9     		add	r1, sp, #96
 1899 04aa 3246     		mov	r2, r6
 1900 04ac FFF7FEFF 		bl	PackInfoData
 1901              	.LVL206:
 1902 04b0 2044     		add	r0, r0, r4
 1903 04b2 84B2     		uxth	r4, r0
 1904              	.LVL207:
 1905              	.L120:
 608:src/emvtrans.c ****     memset(data, 0x00, sizeof(data));
 1906              		.loc 1 608 0
 1907 04b4 AEAB     		add	r3, sp, #696
 1908 04b6 08A8     		add	r0, sp, #32
 1909 04b8 03F11701 		add	r1, r3, #23
 1910 04bc 49F64072 		movw	r2, #40768
 1911 04c0 FFF7FEFF 		bl	LDLoad
 1912              	.LVL208:
 1913 04c4 0DF1600A 		add	r10, sp, #96
 1914 04c8 B0B1     		cbz	r0, .L121
 609:src/emvtrans.c ****     split(data, buf+1, buf[0]);
 1915              		.loc 1 609 0
 1916 04ca 0021     		movs	r1, #0
 1917 04cc 4022     		movs	r2, #64
 1918 04ce 5046     		mov	r0, r10
 1919 04d0 FFF7FEFF 		bl	memset
 1920              	.LVL209:
 610:src/emvtrans.c ****     strcpy(p_mem+len, "Add Cap: ");
 1921              		.loc 1 610 0
 1922 04d4 9DF92020 		ldrsb	r2, [sp, #32]
 1923 04d8 5046     		mov	r0, r10
 1924 04da 0DF12101 		add	r1, sp, #33
ARM GAS  C:\Users\AHMED~1.ELE\AppData\Local\Temp\ccAhPyWN.s 			page 52


 1925 04de FFF7FEFF 		bl	split
 1926              	.LVL210:
 611:src/emvtrans.c ****     len += PackInfoData(p_mem+len, data, pack_width);
 1927              		.loc 1 611 0
 1928 04e2 2B19     		adds	r3, r5, r4
 1929 04e4 1846     		mov	r0, r3
 1930 04e6 7B49     		ldr	r1, .L196+8
 1931 04e8 FFF7FEFF 		bl	strcpy
 1932              	.LVL211:
 612:src/emvtrans.c ****   }
 1933              		.loc 1 612 0
 1934 04ec 5146     		mov	r1, r10
 1935 04ee 3246     		mov	r2, r6
 1936 04f0 FFF7FEFF 		bl	PackInfoData
 1937              	.LVL212:
 1938 04f4 2044     		add	r0, r0, r4
 1939 04f6 84B2     		uxth	r4, r0
 1940              	.LVL213:
 1941              	.L121:
 616:src/emvtrans.c ****   info_data.b_line_width  = (unsigned char)pack_width;
 1942              		.loc 1 616 0
 1943 04f8 5046     		mov	r0, r10
 1944 04fa 7749     		ldr	r1, .L196+12
 1945 04fc FFF7FEFF 		bl	strcpy
 1946              	.LVL214:
 617:src/emvtrans.c ****   info_data.w_info_len    = len;
 1947              		.loc 1 617 0
 1948 0500 05AB     		add	r3, sp, #20
 1949 0502 8DF81490 		strb	r9, [sp, #20]
 1950              	.LVL215:
 619:src/emvtrans.c ****   info_data.pb_info       = p_mem;
 1951              		.loc 1 619 0
 1952 0506 CDF818A0 		str	r10, [sp, #24]
 1953              	.LVL216:
 622:src/emvtrans.c ****     if (DispInfoData(info_data) == MWKEY_CANCL) {
 1954              		.loc 1 622 0
 1955 050a 67B1     		cbz	r7, .L122
 623:src/emvtrans.c ****       ret_ok = FALSE;
 1956              		.loc 1 623 0
 1957 050c ADF81640 		strh	r4, [sp, #22]	@ movhi
 1958 0510 0795     		str	r5, [sp, #28]
 1959 0512 93E80700 		ldmia	r3, {r0, r1, r2}
 1960 0516 FFF7FEFF 		bl	DispInfoData
 1961              	.LVL217:
 473:src/emvtrans.c ****   char *p_mem, buf[64], data[64];
 1962              		.loc 1 473 0
 1963 051a B0F1110A 		subs	r10, r0, #17
 1964 051e 18BF     		it	ne
 1965 0520 4FF0010A 		movne	r10, #1
 1966 0524 0FE0     		b	.L123
 1967              	.L122:
 628:src/emvtrans.c ****     LptPutS(&data[1]);
 1968              		.loc 1 628 0
 1969 0526 0220     		movs	r0, #2
 1970 0528 FFF7FEFF 		bl	PrintRcptLF
 1971              	.LVL218:
 629:src/emvtrans.c ****     PrintRcptLF(1);
ARM GAS  C:\Users\AHMED~1.ELE\AppData\Local\Temp\ccAhPyWN.s 			page 53


 1972              		.loc 1 629 0
 1973 052c 0AF10100 		add	r0, r10, #1
 1974 0530 FFF7FEFF 		bl	LptPutS
 1975              	.LVL219:
 630:src/emvtrans.c ****     ret_ok = PrintBuf(info_data.pb_info, info_data.w_info_len, TRUE);
 1976              		.loc 1 630 0
 1977 0534 0120     		movs	r0, #1
 1978 0536 FFF7FEFF 		bl	PrintRcptLF
 1979              	.LVL220:
 631:src/emvtrans.c ****   }
 1980              		.loc 1 631 0
 1981 053a 2846     		mov	r0, r5
 1982 053c 2146     		mov	r1, r4
 1983 053e 0122     		movs	r2, #1
 1984 0540 FFF7FEFF 		bl	PrintBuf
 1985              	.LVL221:
 1986 0544 8246     		mov	r10, r0
 1987              	.LVL222:
 1988              	.L123:
 634:src/emvtrans.c ****   return ret_ok;
 1989              		.loc 1 634 0
 1990 0546 2946     		mov	r1, r5
 1991 0548 9420     		movs	r0, #148
 1992 054a FFF7FEFF 		bl	sys_func1
 1993              	.LVL223:
 1994 054e 00E0     		b	.L107
 1995              	.LVL224:
 1996              	.L139:
 480:src/emvtrans.c ****   }
 1997              		.loc 1 480 0
 1998 0550 8246     		mov	r10, r0
 1999              	.LVL225:
 2000              	.L107:
 2001              	.LBE24:
 2002              	.LBE32:
 750:src/emvtrans.c ****     if (!GetEMVAppCfg(&emv_cfg, i)) {
 2003              		.loc 1 750 0 discriminator 2
 2004 0552 08F10108 		add	r8, r8, #1
 2005              	.LVL226:
 2006 0556 B8F1800F 		cmp	r8, #128
 2007 055a 04D0     		beq	.L124
 750:src/emvtrans.c ****     if (!GetEMVAppCfg(&emv_cfg, i)) {
 2008              		.loc 1 750 0 is_stmt 0 discriminator 3
 2009 055c BAF1000F 		cmp	r10, #0
 2010 0560 7FF45DAD 		bne	.L125
 2011 0564 ADE0     		b	.L189
 2012              	.L124:
 755:src/emvtrans.c ****       continue;
 756:src/emvtrans.c ****     }
 757:src/emvtrans.c ****     ret_ok = PrintEMVAppCfg(emv_cfg, aDetail, aToDisplay);
 758:src/emvtrans.c ****   }
 759:src/emvtrans.c **** 
 760:src/emvtrans.c ****   //EMV key info
 761:src/emvtrans.c ****   if (ret_ok) {
 2013              		.loc 1 761 0 is_stmt 1
 2014 0566 BAF1000F 		cmp	r10, #0
 2015 056a 00F0AA80 		beq	.L189
ARM GAS  C:\Users\AHMED~1.ELE\AppData\Local\Temp\ccAhPyWN.s 			page 54


 2016 056e 69E5     		b	.L127
 2017              	.LVL227:
 2018              	.L188:
 2019 0570 18AD     		add	r5, sp, #96
 2020              	.LBB33:
 2021              	.LBB30:
 661:src/emvtrans.c **** 
 2022              		.loc 1 661 0
 2023 0572 002F     		cmp	r7, #0
 2024 0574 00F09580 		beq	.L128
 2025 0578 4FF01A08 		mov	r8, #26
 2026              	.LVL228:
 2027              	.L137:
 2028 057c 4FF00009 		mov	r9, #0
 2029 0580 4FF0010A 		mov	r10, #1
 2030              	.LVL229:
 2031 0584 4C46     		mov	r4, r9
 2032              	.LVL230:
 2033              	.L134:
 673:src/emvtrans.c ****       break;
 2034              		.loc 1 673 0
 2035 0586 08A8     		add	r0, sp, #32
 2036 0588 4946     		mov	r1, r9
 2037 058a FFF7FEFF 		bl	GetEMVKeyInfo
 2038              	.LVL231:
 2039 058e 0028     		cmp	r0, #0
 2040 0590 61D0     		beq	.L129
 678:src/emvtrans.c ****       strcpy(p_mem+len, "Public Key-ID");
 2041              		.loc 1 678 0
 2042 0592 B9F1000F 		cmp	r9, #0
 2043 0596 01D0     		beq	.L130
 2044 0598 5CB9     		cbnz	r4, .L131
 2045 059a 57B1     		cbz	r7, .L131
 2046              	.L130:
 679:src/emvtrans.c ****       len += PackInfoData(p_mem+len, "Eff   Exp  ", pack_width);
 2047              		.loc 1 679 0
 2048 059c 3319     		adds	r3, r6, r4
 2049 059e 1846     		mov	r0, r3
 2050 05a0 4E49     		ldr	r1, .L196+16
 2051 05a2 FFF7FEFF 		bl	strcpy
 2052              	.LVL232:
 680:src/emvtrans.c ****     }
 2053              		.loc 1 680 0
 2054 05a6 4E49     		ldr	r1, .L196+20
 2055 05a8 4246     		mov	r2, r8
 2056 05aa FFF7FEFF 		bl	PackInfoData
 2057              	.LVL233:
 2058 05ae 2044     		add	r0, r0, r4
 2059 05b0 84B2     		uxth	r4, r0
 2060              	.LVL234:
 2061              	.L131:
 684:src/emvtrans.c ****     p_mem[len+10] = '-';
 2062              		.loc 1 684 0
 2063 05b2 06EB040B 		add	fp, r6, r4
 2064 05b6 5846     		mov	r0, fp
 2065 05b8 0DF12101 		add	r1, sp, #33
 2066 05bc 0522     		movs	r2, #5
ARM GAS  C:\Users\AHMED~1.ELE\AppData\Local\Temp\ccAhPyWN.s 			page 55


 2067 05be FFF7FEFF 		bl	split
 2068              	.LVL235:
 685:src/emvtrans.c ****     SprintfMW(p_mem+len+11, "%02X", key_info.KeyIdx);
 2069              		.loc 1 685 0
 2070 05c2 2D23     		movs	r3, #45
 686:src/emvtrans.c ****     SprintfMW(data, "%02X/%02X ", key_info.EffectDate/256, key_info.EffectDate%256);
 2071              		.loc 1 686 0
 2072 05c4 04F10B00 		add	r0, r4, #11
 685:src/emvtrans.c ****     SprintfMW(p_mem+len+11, "%02X", key_info.KeyIdx);
 2073              		.loc 1 685 0
 2074 05c8 8BF80A30 		strb	r3, [fp, #10]
 686:src/emvtrans.c ****     SprintfMW(data, "%02X/%02X ", key_info.EffectDate/256, key_info.EffectDate%256);
 2075              		.loc 1 686 0
 2076 05cc 4549     		ldr	r1, .L196+24
 2077 05ce 9DF82020 		ldrb	r2, [sp, #32]	@ zero_extendqisi2
 2078 05d2 3044     		add	r0, r0, r6
 2079 05d4 FFF7FEFF 		bl	sprintf
 2080              	.LVL236:
 687:src/emvtrans.c ****     SprintfMW(data+strlen(data), "%02X/%02X ", key_info.ExpiryDate/256, key_info.ExpiryDate%256);
 2081              		.loc 1 687 0
 2082 05d8 BDF82830 		ldrh	r3, [sp, #40]
 2083 05dc 4249     		ldr	r1, .L196+28
 2084 05de 1A0A     		lsrs	r2, r3, #8
 2085 05e0 2846     		mov	r0, r5
 2086 05e2 DBB2     		uxtb	r3, r3
 2087 05e4 FFF7FEFF 		bl	sprintf
 2088              	.LVL237:
 688:src/emvtrans.c ****     len += PackInfoData(p_mem+len, data, pack_width);
 2089              		.loc 1 688 0
 2090 05e8 2846     		mov	r0, r5
 2091 05ea FFF7FEFF 		bl	strlen
 2092              	.LVL238:
 2093 05ee BDF82630 		ldrh	r3, [sp, #38]
 2094 05f2 3D49     		ldr	r1, .L196+28
 2095 05f4 1A0A     		lsrs	r2, r3, #8
 2096 05f6 2844     		add	r0, r0, r5
 2097 05f8 DBB2     		uxtb	r3, r3
 2098 05fa FFF7FEFF 		bl	sprintf
 2099              	.LVL239:
 689:src/emvtrans.c **** 
 2100              		.loc 1 689 0
 2101 05fe 5846     		mov	r0, fp
 2102 0600 2946     		mov	r1, r5
 2103 0602 4246     		mov	r2, r8
 2104 0604 FFF7FEFF 		bl	PackInfoData
 2105              	.LVL240:
 2106 0608 2044     		add	r0, r0, r4
 2107 060a 84B2     		uxth	r4, r0
 2108              	.LVL241:
 694:src/emvtrans.c ****       SprintfMW(data, " EMV KEY INFO");
 2109              		.loc 1 694 0
 2110 060c B4F5707F 		cmp	r4, #960
 2111 0610 1AD9     		bls	.L132
 695:src/emvtrans.c ****       info_data.b_line_width  = (unsigned char)pack_width;
 2112              		.loc 1 695 0
 2113 0612 2846     		mov	r0, r5
 2114 0614 3549     		ldr	r1, .L196+32
ARM GAS  C:\Users\AHMED~1.ELE\AppData\Local\Temp\ccAhPyWN.s 			page 56


 2115 0616 FFF7FEFF 		bl	strcpy
 2116              	.LVL242:
 696:src/emvtrans.c ****       info_data.w_info_len    = len;
 2117              		.loc 1 696 0
 2118 061a 05AB     		add	r3, sp, #20
 2119 061c 8DF81480 		strb	r8, [sp, #20]
 2120              	.LVL243:
 698:src/emvtrans.c ****       info_data.pb_info       = p_mem;
 2121              		.loc 1 698 0
 2122 0620 0695     		str	r5, [sp, #24]
 2123              	.LVL244:
 701:src/emvtrans.c ****         if (DispInfoData(info_data) == MWKEY_CANCL) {
 2124              		.loc 1 701 0
 2125 0622 57B1     		cbz	r7, .L133
 702:src/emvtrans.c ****           ret_ok = FALSE;
 2126              		.loc 1 702 0
 2127 0624 ADF81640 		strh	r4, [sp, #22]	@ movhi
 2128 0628 0796     		str	r6, [sp, #28]
 2129 062a 93E80700 		ldmia	r3, {r0, r1, r2}
 2130 062e FFF7FEFF 		bl	DispInfoData
 2131              	.LVL245:
 700:src/emvtrans.c ****       if (aToDisplay) {
 2132              		.loc 1 700 0
 2133 0632 0024     		movs	r4, #0
 2134              	.LVL246:
 702:src/emvtrans.c ****           ret_ok = FALSE;
 2135              		.loc 1 702 0
 2136 0634 1128     		cmp	r0, #17
 2137 0636 07D1     		bne	.L132
 2138 0638 0CE0     		b	.L146
 2139              	.LVL247:
 2140              	.L133:
 708:src/emvtrans.c ****       }
 2141              		.loc 1 708 0
 2142 063a 2146     		mov	r1, r4
 2143 063c 3046     		mov	r0, r6
 2144 063e 0122     		movs	r2, #1
 2145 0640 FFF7FEFF 		bl	PrintBuf
 2146              	.LVL248:
 700:src/emvtrans.c ****       if (aToDisplay) {
 2147              		.loc 1 700 0
 2148 0644 3C46     		mov	r4, r7
 2149              	.LVL249:
 708:src/emvtrans.c ****       }
 2150              		.loc 1 708 0
 2151 0646 8246     		mov	r10, r0
 2152              	.LVL250:
 2153              	.L132:
 2154 0648 09F10109 		add	r9, r9, #1
 2155              	.LVL251:
 671:src/emvtrans.c ****     // get key info
 2156              		.loc 1 671 0
 2157 064c B9F5407F 		cmp	r9, #768
 2158 0650 99D1     		bne	.L134
 2159 0652 00E0     		b	.L129
 2160              	.LVL252:
 2161              	.L146:
ARM GAS  C:\Users\AHMED~1.ELE\AppData\Local\Temp\ccAhPyWN.s 			page 57


 703:src/emvtrans.c ****           break;
 2162              		.loc 1 703 0
 2163 0654 A246     		mov	r10, r4
 2164              	.LVL253:
 2165              	.L129:
 714:src/emvtrans.c ****   info_data.b_line_width  = (unsigned char)pack_width;
 2166              		.loc 1 714 0
 2167 0656 2846     		mov	r0, r5
 2168 0658 2449     		ldr	r1, .L196+32
 2169 065a FFF7FEFF 		bl	strcpy
 2170              	.LVL254:
 715:src/emvtrans.c ****   info_data.w_info_len    = len;
 2171              		.loc 1 715 0
 2172 065e 05AB     		add	r3, sp, #20
 2173 0660 8DF81480 		strb	r8, [sp, #20]
 2174              	.LVL255:
 717:src/emvtrans.c ****   info_data.pb_info       = p_mem;
 2175              		.loc 1 717 0
 2176 0664 0695     		str	r5, [sp, #24]
 2177              	.LVL256:
 720:src/emvtrans.c ****     if (aToDisplay) {
 2178              		.loc 1 720 0
 2179 0666 ACB1     		cbz	r4, .L135
 2180 0668 BAF1000F 		cmp	r10, #0
 2181 066c 12D0     		beq	.L135
 721:src/emvtrans.c ****       if (DispInfoData(info_data) == MWKEY_CANCL) {
 2182              		.loc 1 721 0
 2183 066e 5FB1     		cbz	r7, .L136
 722:src/emvtrans.c ****         ret_ok = FALSE;
 2184              		.loc 1 722 0
 2185 0670 ADF81640 		strh	r4, [sp, #22]	@ movhi
 2186 0674 0796     		str	r6, [sp, #28]
 2187 0676 93E80700 		ldmia	r3, {r0, r1, r2}
 2188 067a FFF7FEFF 		bl	DispInfoData
 2189              	.LVL257:
 723:src/emvtrans.c ****       }
 2190              		.loc 1 723 0
 2191 067e 1128     		cmp	r0, #17
 2192 0680 08BF     		it	eq
 2193 0682 4FF0000A 		moveq	r10, #0
 2194              	.LVL258:
 2195 0686 05E0     		b	.L135
 2196              	.LVL259:
 2197              	.L136:
 727:src/emvtrans.c ****     }
 2198              		.loc 1 727 0
 2199 0688 3046     		mov	r0, r6
 2200 068a 2146     		mov	r1, r4
 2201 068c 0122     		movs	r2, #1
 2202 068e FFF7FEFF 		bl	PrintBuf
 2203              	.LVL260:
 2204 0692 8246     		mov	r10, r0
 2205              	.LVL261:
 2206              	.L135:
 731:src/emvtrans.c ****   return ret_ok;
 2207              		.loc 1 731 0
 2208 0694 3146     		mov	r1, r6
ARM GAS  C:\Users\AHMED~1.ELE\AppData\Local\Temp\ccAhPyWN.s 			page 58


 2209 0696 9420     		movs	r0, #148
 2210 0698 FFF7FEFF 		bl	sys_func1
 2211              	.LVL262:
 2212 069c 11E0     		b	.L189
 2213              	.LVL263:
 2214              	.L190:
 656:src/emvtrans.c ****   }
 2215              		.loc 1 656 0
 2216 069e 8246     		mov	r10, r0
 2217              	.LVL264:
 2218 06a0 0FE0     		b	.L189
 2219              	.LVL265:
 2220              	.L128:
 664:src/emvtrans.c ****     strcpy(data, "EMV KEY INFO");
 2221              		.loc 1 664 0
 2222 06a2 0220     		movs	r0, #2
 2223              	.LVL266:
 2224 06a4 FFF7FEFF 		bl	PrintRcptLF
 2225              	.LVL267:
 665:src/emvtrans.c ****     LptPutS(data);
 2226              		.loc 1 665 0
 2227 06a8 1149     		ldr	r1, .L196+36
 2228 06aa 2846     		mov	r0, r5
 2229 06ac FFF7FEFF 		bl	strcpy
 2230              	.LVL268:
 666:src/emvtrans.c ****     PrintRcptLF(1);
 2231              		.loc 1 666 0
 2232 06b0 2846     		mov	r0, r5
 2233 06b2 FFF7FEFF 		bl	LptPutS
 2234              	.LVL269:
 667:src/emvtrans.c ****   }
 2235              		.loc 1 667 0
 2236 06b6 0120     		movs	r0, #1
 2237 06b8 FFF7FEFF 		bl	PrintRcptLF
 2238              	.LVL270:
 661:src/emvtrans.c **** 
 2239              		.loc 1 661 0
 2240 06bc 4FF02008 		mov	r8, #32
 2241              	.LVL271:
 2242 06c0 5CE7     		b	.L137
 2243              	.LVL272:
 2244              	.L189:
 2245              	.LBE30:
 2246              	.LBE33:
 762:src/emvtrans.c ****     ret_ok = PrintEMVKeyInfo(aDetail, aToDisplay);
 763:src/emvtrans.c ****   }
 764:src/emvtrans.c **** 
 765:src/emvtrans.c ****   return ret_ok;
 766:src/emvtrans.c **** }
 2247              		.loc 1 766 0
 2248 06c2 5046     		mov	r0, r10
 2249 06c4 0DF2D44D 		addw	sp, sp, #1236
 2250              		.cfi_def_cfa_offset 36
 2251              		@ sp needed
 2252 06c8 BDE8F08F 		pop	{r4, r5, r6, r7, r8, r9, r10, fp, pc}
 2253              	.LVL273:
 2254              	.L197:
ARM GAS  C:\Users\AHMED~1.ELE\AppData\Local\Temp\ccAhPyWN.s 			page 59


 2255              		.align	2
 2256              	.L196:
 2257 06cc EC000000 		.word	.LC18
 2258 06d0 06010000 		.word	.LC20
 2259 06d4 11010000 		.word	.LC21
 2260 06d8 1B010000 		.word	.LC22
 2261 06dc 28010000 		.word	.LC23
 2262 06e0 36010000 		.word	.LC24
 2263 06e4 42010000 		.word	.LC25
 2264 06e8 47010000 		.word	.LC26
 2265 06ec 52010000 		.word	.LC27
 2266 06f0 60010000 		.word	.LC28
 2267              		.cfi_endproc
 2268              	.LFE19:
 2269              		.size	PrintEMVParam, .-PrintEMVParam
 2270              		.section	.text.EMVUtilStart,"ax",%progbits
 2271              		.align	1
 2272              		.global	EMVUtilStart
 2273              		.thumb
 2274              		.thumb_func
 2275              		.type	EMVUtilStart, %function
 2276              	EMVUtilStart:
 2277              	.LFB20:
 767:src/emvtrans.c **** //*****************************************************************************
 768:src/emvtrans.c **** //  Function        : EMVUtilStart
 769:src/emvtrans.c **** //  Description     : Initialize all Globals variable for parameters passing.
 770:src/emvtrans.c **** //  Input           : N/A
 771:src/emvtrans.c **** //  Return          : N/A
 772:src/emvtrans.c **** //  Note            : N/A
 773:src/emvtrans.c **** //  Globals Changed : N/A
 774:src/emvtrans.c **** //*****************************************************************************
 775:src/emvtrans.c **** BOOLEAN EMVUtilStart(void)
 776:src/emvtrans.c **** {
 2278              		.loc 1 776 0
 2279              		.cfi_startproc
 2280              		@ args = 0, pretend = 0, frame = 0
 2281              		@ frame_needed = 0, uses_anonymous_args = 0
 2282 0000 10B5     		push	{r4, lr}
 2283              		.cfi_def_cfa_offset 8
 2284              		.cfi_offset 4, -8
 2285              		.cfi_offset 14, -4
 777:src/emvtrans.c ****   sbIOBuf  = (BYTE *)  MallocMW(1500);
 2286              		.loc 1 777 0
 2287 0002 40F2DC51 		movw	r1, #1500
 2288 0006 9220     		movs	r0, #146
 2289 0008 FFF7FEFF 		bl	sys_func1
 2290              	.LVL274:
 2291 000c 0B4C     		ldr	r4, .L199
 778:src/emvtrans.c ****   sEMVIn  = (sIO_t *) MallocMW(sizeof(sIO_t));
 2292              		.loc 1 778 0
 2293 000e 0821     		movs	r1, #8
 777:src/emvtrans.c ****   sbIOBuf  = (BYTE *)  MallocMW(1500);
 2294              		.loc 1 777 0
 2295 0010 A060     		str	r0, [r4, #8]
 2296              		.loc 1 778 0
 2297 0012 9220     		movs	r0, #146
 2298 0014 FFF7FEFF 		bl	sys_func1
ARM GAS  C:\Users\AHMED~1.ELE\AppData\Local\Temp\ccAhPyWN.s 			page 60


 2299              	.LVL275:
 779:src/emvtrans.c ****   sEMVOut = (sIO_t *) MallocMW(sizeof(sIO_t));
 2300              		.loc 1 779 0
 2301 0018 0821     		movs	r1, #8
 778:src/emvtrans.c ****   sEMVIn  = (sIO_t *) MallocMW(sizeof(sIO_t));
 2302              		.loc 1 778 0
 2303 001a 2060     		str	r0, [r4]
 2304              		.loc 1 779 0
 2305 001c 9220     		movs	r0, #146
 2306 001e FFF7FEFF 		bl	sys_func1
 2307              	.LVL276:
 2308 0022 6060     		str	r0, [r4, #4]
 780:src/emvtrans.c **** 
 781:src/emvtrans.c ****   MemFatalErr(sbIOBuf);  // Check Memory Pointer
 2309              		.loc 1 781 0
 2310 0024 A068     		ldr	r0, [r4, #8]
 2311 0026 FFF7FEFF 		bl	MemFatalErr
 2312              	.LVL277:
 782:src/emvtrans.c ****   MemFatalErr(sEMVIn);  // Check Memory Pointer
 2313              		.loc 1 782 0
 2314 002a 2068     		ldr	r0, [r4]
 2315 002c FFF7FEFF 		bl	MemFatalErr
 2316              	.LVL278:
 783:src/emvtrans.c ****   MemFatalErr(sEMVOut);  // Check Memory Pointer
 2317              		.loc 1 783 0
 2318 0030 6068     		ldr	r0, [r4, #4]
 2319 0032 FFF7FEFF 		bl	MemFatalErr
 2320              	.LVL279:
 784:src/emvtrans.c ****   return TRUE;
 785:src/emvtrans.c **** }
 2321              		.loc 1 785 0
 2322 0036 0120     		movs	r0, #1
 2323 0038 10BD     		pop	{r4, pc}
 2324              	.L200:
 2325 003a 00BF     		.align	2
 2326              	.L199:
 2327 003c 00000000 		.word	.LANCHOR0
 2328              		.cfi_endproc
 2329              	.LFE20:
 2330              		.size	EMVUtilStart, .-EMVUtilStart
 2331              		.section	.text.EMVInit,"ax",%progbits
 2332              		.align	1
 2333              		.global	EMVInit
 2334              		.thumb
 2335              		.thumb_func
 2336              		.type	EMVInit, %function
 2337              	EMVInit:
 2338              	.LFB21:
 786:src/emvtrans.c **** //*****************************************************************************
 787:src/emvtrans.c **** //  Function        : EMVInit
 788:src/emvtrans.c **** //  Description     : Kernel initialization.
 789:src/emvtrans.c **** //  Input           : N/A
 790:src/emvtrans.c **** //  Return          : N/A
 791:src/emvtrans.c **** //  Note            : N/A
 792:src/emvtrans.c **** //  Globals Changed : N/A
 793:src/emvtrans.c **** //*****************************************************************************
 794:src/emvtrans.c **** void EMVInit(void)
ARM GAS  C:\Users\AHMED~1.ELE\AppData\Local\Temp\ccAhPyWN.s 			page 61


 795:src/emvtrans.c **** {
 2339              		.loc 1 795 0
 2340              		.cfi_startproc
 2341              		@ args = 0, pretend = 0, frame = 0
 2342              		@ frame_needed = 0, uses_anonymous_args = 0
 2343              	.LVL280:
 2344 0000 73B5     		push	{r0, r1, r4, r5, r6, lr}
 2345              		.cfi_def_cfa_offset 24
 2346              		.cfi_offset 4, -16
 2347              		.cfi_offset 5, -12
 2348              		.cfi_offset 6, -8
 2349              		.cfi_offset 14, -4
 796:src/emvtrans.c ****   BYTE init_mode;
 797:src/emvtrans.c **** 
 798:src/emvtrans.c ****   init_mode = 0;
 799:src/emvtrans.c **** 
 800:src/emvtrans.c ****   sEMVIn->bMsg = sEMVOut->bMsg = sbIOBuf;
 2350              		.loc 1 800 0
 2351 0002 1A4C     		ldr	r4, .L203
 801:src/emvtrans.c ****   GetSysCfgMW(K_CF_SerialNo, sEMVIn->bMsg);
 2352              		.loc 1 801 0
 2353 0004 B920     		movs	r0, #185
 800:src/emvtrans.c ****   GetSysCfgMW(K_CF_SerialNo, sEMVIn->bMsg);
 2354              		.loc 1 800 0
 2355 0006 A268     		ldr	r2, [r4, #8]
 2356 0008 2368     		ldr	r3, [r4]
 2357 000a 6168     		ldr	r1, [r4, #4]
 2358 000c 4A60     		str	r2, [r1, #4]
 2359 000e 5A60     		str	r2, [r3, #4]
 2360              		.loc 1 801 0
 2361 0010 0221     		movs	r1, #2
 2362 0012 FFF7FEFF 		bl	sys_func2
 2363              	.LVL281:
 802:src/emvtrans.c ****   sEMVIn->wLen = 8;
 2364              		.loc 1 802 0
 2365 0016 2368     		ldr	r3, [r4]
 2366 0018 0822     		movs	r2, #8
 803:src/emvtrans.c **** 
 804:src/emvtrans.c ****   if (EMV_DllSetup(IOCMD_IFDSN_RW, sEMVIn, sEMVOut) == FALSE) // set IFDSN
 2367              		.loc 1 804 0
 2368 001a 0E20     		movs	r0, #14
 802:src/emvtrans.c ****   sEMVIn->wLen = 8;
 2369              		.loc 1 802 0
 2370 001c 1A80     		strh	r2, [r3]	@ movhi
 2371              		.loc 1 804 0
 2372 001e 6268     		ldr	r2, [r4, #4]
 2373 0020 0021     		movs	r1, #0
 2374 0022 0092     		str	r2, [sp]
 2375 0024 0122     		movs	r2, #1
 2376 0026 FFF7FEFF 		bl	lib_app_call
 2377              	.LVL282:
 2378 002a 10F0FF0F 		tst	r0, #255
 2379 002e 01D1     		bne	.L202
 805:src/emvtrans.c ****     EMVFatal();
 2380              		.loc 1 805 0
 2381 0030 FFF7FEFF 		bl	EMVFatal
 2382              	.LVL283:
ARM GAS  C:\Users\AHMED~1.ELE\AppData\Local\Temp\ccAhPyWN.s 			page 62


 2383              	.L202:
 806:src/emvtrans.c **** 
 807:src/emvtrans.c ****   memcpy(sEMVIn->bMsg, KPinMsg, sizeof(KPinMsg));
 2384              		.loc 1 807 0
 2385 0034 2568     		ldr	r5, [r4]
 2386 0036 4026     		movs	r6, #64
 2387 0038 3246     		mov	r2, r6
 2388 003a 6868     		ldr	r0, [r5, #4]
 2389 003c 0C49     		ldr	r1, .L203+4
 2390 003e FFF7FEFF 		bl	memcpy
 2391              	.LVL284:
 808:src/emvtrans.c ****   sEMVIn->wLen = sizeof(KPinMsg);
 809:src/emvtrans.c ****   memcpy(sEMVIn->bMsg+sEMVIn->wLen, KCardholderIDName, sizeof(KCardholderIDName));
 2392              		.loc 1 809 0
 2393 0042 6868     		ldr	r0, [r5, #4]
 808:src/emvtrans.c ****   sEMVIn->wLen = sizeof(KPinMsg);
 2394              		.loc 1 808 0
 2395 0044 2E80     		strh	r6, [r5]	@ movhi
 2396              		.loc 1 809 0
 2397 0046 3044     		add	r0, r0, r6
 2398 0048 0A49     		ldr	r1, .L203+8
 2399 004a 4222     		movs	r2, #66
 2400 004c FFF7FEFF 		bl	memcpy
 2401              	.LVL285:
 810:src/emvtrans.c ****   sEMVIn->wLen+=sizeof(KCardholderIDName);
 2402              		.loc 1 810 0
 2403 0050 2B88     		ldrh	r3, [r5]
 811:src/emvtrans.c ****   init_mode |= BIT_PSE_SUPPORT;
 812:src/emvtrans.c ****   EMV_DllMsg(init_mode,  sEMVIn, sEMVOut);
 2404              		.loc 1 812 0
 2405 0052 0121     		movs	r1, #1
 810:src/emvtrans.c ****   sEMVIn->wLen+=sizeof(KCardholderIDName);
 2406              		.loc 1 810 0
 2407 0054 4233     		adds	r3, r3, #66
 2408              		.loc 1 812 0
 2409 0056 8022     		movs	r2, #128
 810:src/emvtrans.c ****   sEMVIn->wLen+=sizeof(KCardholderIDName);
 2410              		.loc 1 810 0
 2411 0058 2B80     		strh	r3, [r5]	@ movhi
 2412              	.LVL286:
 2413              		.loc 1 812 0
 2414 005a 6368     		ldr	r3, [r4, #4]
 2415 005c 0E20     		movs	r0, #14
 2416 005e 0093     		str	r3, [sp]
 2417 0060 2B46     		mov	r3, r5
 2418 0062 FFF7FEFF 		bl	lib_app_call
 2419              	.LVL287:
 813:src/emvtrans.c **** }
 2420              		.loc 1 813 0
 2421 0066 02B0     		add	sp, sp, #8
 2422              		.cfi_def_cfa_offset 16
 2423              		@ sp needed
 2424 0068 70BD     		pop	{r4, r5, r6, pc}
 2425              	.L204:
 2426 006a 00BF     		.align	2
 2427              	.L203:
 2428 006c 00000000 		.word	.LANCHOR0
ARM GAS  C:\Users\AHMED~1.ELE\AppData\Local\Temp\ccAhPyWN.s 			page 63


 2429 0070 08000000 		.word	.LANCHOR2+8
 2430 0074 48000000 		.word	.LANCHOR2+72
 2431              		.cfi_endproc
 2432              	.LFE21:
 2433              		.size	EMVInit, .-EMVInit
 2434              		.global	KCardholderIDName
 2435              		.global	KPinMsg
 2436              		.section	.rodata
 2437              		.set	.LANCHOR2,. + 0
 2438              		.type	KEMVTemp, %object
 2439              		.size	KEMVTemp, 8
 2440              	KEMVTemp:
 2441 0000 656D765F 		.ascii	"emv_tmp\000"
 2441      746D7000 
 2442              		.type	KPinMsg, %object
 2443              		.size	KPinMsg, 64
 2444              	KPinMsg:
 2445 0008 20C7EB20 		.ascii	" \307\353 \312\344 \310\353 \303\334 \302\353 "
 2445      CAE420C8 
 2445      EB20C3DC 
 2445      20C2EB20 
 2446 0018 20C3DC20 		.ascii	" \303\334  \302\353  \325\375  \310\267 "
 2446      20C2EB20 
 2446      20D5FD20 
 2446      20C8B720 
 2447 0028 20C3DC20 		.ascii	" \303\334  \302\353  \264\355  \316\363 "
 2447      20C2EB20 
 2447      20B4ED20 
 2447      20CEF320 
 2448 0038 2020D7EE 		.ascii	"  \327\356\272\363\322\273\264\316\303\334\302\353 "
 2448      BAF3D2BB 
 2448      B4CEC3DC 
 2448      C2EB20
 2449 0047 20       		.ascii	" "
 2450              		.type	KCardholderIDName, %object
 2451              		.size	KCardholderIDName, 66
 2452              	KCardholderIDName:
 2453 0048 C9EDB7DD 		.ascii	"\311\355\267\335\326\244    \000"
 2453      D6A42020 
 2453      202000
 2454 0053 BEFCB9D9 		.ascii	"\276\374\271\331\326\244    \000"
 2454      D6A42020 
 2454      202000
 2455 005e BBA4D5D5 		.ascii	"\273\244\325\325      \000"
 2455      20202020 
 2455      202000
 2456 0069 C8EBBEB3 		.ascii	"\310\353\276\263\326\244    \000"
 2456      D6A42020 
 2456      202000
 2457 0074 C1D9CAB1 		.ascii	"\301\331\312\261\311\355\267\335\326\244\000"
 2457      C9EDB7DD 
 2457      D6A400
 2458 007f C6E4CBFB 		.ascii	"\306\344\313\373      \000"
 2458      20202020 
 2458      202000
 2459              		.section	.rodata.str1.1,"aMS",%progbits,1
 2460              	.LC0:
ARM GAS  C:\Users\AHMED~1.ELE\AppData\Local\Temp\ccAhPyWN.s 			page 64


 2461 0000 0C0A454D 		.ascii	"\014\012EMV2 FATAL ERR\012PLS CALL SERVICE\000"
 2461      56322046 
 2461      4154414C 
 2461      20455252 
 2461      0A504C53 
 2462              	.LC1:
 2463 0022 4149443A 		.ascii	"AID: \000"
 2463      2000
 2464              	.LC2:
 2465 0028 44656620 		.ascii	"Def ACQ Profile: \000"
 2465      41435120 
 2465      50726F66 
 2465      696C653A 
 2465      2000
 2466              	.LC3:
 2467 003a 54797065 		.ascii	"Type: %02X \000"
 2467      3A202530 
 2467      32582000 
 2468              	.LC4:
 2469 0046 5665723A 		.ascii	"Ver: \000"
 2469      2000
 2470              	.LC5:
 2471 004c 464C5220 		.ascii	"FLR LMT: \000"
 2471      4C4D543A 
 2471      2000
 2472              	.LC6:
 2473 0056 464C5220 		.ascii	"FLR LMT(O): \000"
 2473      4C4D5428 
 2473      4F293A20 
 2473      00
 2474              	.LC7:
 2475 0063 42617369 		.ascii	"Basic Random: \000"
 2475      63205261 
 2475      6E646F6D 
 2475      3A2000
 2476              	.LC8:
 2477 0072 2530642E 		.ascii	"%0d.%02d\000"
 2477      25303264 
 2477      00
 2478              	.LC9:
 2479 007b 54617267 		.ascii	"Target %: \000"
 2479      65742025 
 2479      3A2000
 2480              	.LC10:
 2481 0086 25303264 		.ascii	"%02d-%02d\000"
 2481      2D253032 
 2481      6400
 2482              	.LC11:
 2483 0090 436F756E 		.ascii	"Country: \000"
 2483      7472793A 
 2483      2000
 2484              	.LC12:
 2485 009a 43757272 		.ascii	"Currency: \000"
 2485      656E6379 
 2485      3A2000
 2486              	.LC13:
 2487 00a5 00       		.ascii	"\000"
ARM GAS  C:\Users\AHMED~1.ELE\AppData\Local\Temp\ccAhPyWN.s 			page 65


 2488              	.LC14:
 2489 00a6 416C6C6F 		.ascii	"Allow Partial AID: \000"
 2489      77205061 
 2489      72746961 
 2489      6C204149 
 2489      443A2000 
 2490              	.LC15:
 2491 00ba 52656665 		.ascii	"Referral Enable: \000"
 2491      7272616C 
 2491      20456E61 
 2491      626C653A 
 2491      2000
 2492              	.LC16:
 2493 00cc 50494E20 		.ascii	"PIN Bypass Enable: \000"
 2493      42797061 
 2493      73732045 
 2493      6E61626C 
 2493      653A2000 
 2494              	.LC17:
 2495 00e0 466F7263 		.ascii	"Force TRM: \000"
 2495      65205452 
 2495      4D3A2000 
 2496              	.LC18:
 2497 00ec 54414320 		.ascii	"TAC Denial: \000"
 2497      44656E69 
 2497      616C3A20 
 2497      00
 2498              	.LC19:
 2499 00f9 54414320 		.ascii	"TAC Online: \000"
 2499      4F6E6C69 
 2499      6E653A20 
 2499      00
 2500              	.LC20:
 2501 0106 5465726D 		.ascii	"Term Cap: \000"
 2501      20436170 
 2501      3A2000
 2502              	.LC21:
 2503 0111 41646420 		.ascii	"Add Cap: \000"
 2503      4361703A 
 2503      2000
 2504              	.LC22:
 2505 011b 20454D56 		.ascii	" EMV APP CFG\000"
 2505      20415050 
 2505      20434647 
 2505      00
 2506              	.LC23:
 2507 0128 5075626C 		.ascii	"Public Key-ID\000"
 2507      6963204B 
 2507      65792D49 
 2507      4400
 2508              	.LC24:
 2509 0136 45666620 		.ascii	"Eff   Exp  \000"
 2509      20204578 
 2509      70202000 
 2510              	.LC25:
 2511 0142 25303258 		.ascii	"%02X\000"
 2511      00
ARM GAS  C:\Users\AHMED~1.ELE\AppData\Local\Temp\ccAhPyWN.s 			page 66


 2512              	.LC26:
 2513 0147 25303258 		.ascii	"%02X/%02X \000"
 2513      2F253032 
 2513      582000
 2514              	.LC27:
 2515 0152 20454D56 		.ascii	" EMV KEY INFO\000"
 2515      204B4559 
 2515      20494E46 
 2515      4F00
 2516              	.LC28:
 2517 0160 454D5620 		.ascii	"EMV KEY INFO\000"
 2517      4B455920 
 2517      494E464F 
 2517      00
 2518              		.data
 2519              		.align	2
 2520              		.set	.LANCHOR1,. + 0
 2521              		.type	iDnloadFile, %object
 2522              		.size	iDnloadFile, 4
 2523              	iDnloadFile:
 2524 0000 FFFFFFFF 		.word	-1
 2525              		.bss
 2526              		.align	2
 2527              		.set	.LANCHOR0,. + 0
 2528              		.type	sEMVIn, %object
 2529              		.size	sEMVIn, 4
 2530              	sEMVIn:
 2531 0000 00000000 		.space	4
 2532              		.type	sEMVOut, %object
 2533              		.size	sEMVOut, 4
 2534              	sEMVOut:
 2535 0004 00000000 		.space	4
 2536              		.type	sbIOBuf, %object
 2537              		.size	sbIOBuf, 4
 2538              	sbIOBuf:
 2539 0008 00000000 		.space	4
 2540              		.type	bEmvLoaded, %object
 2541              		.size	bEmvLoaded, 1
 2542              	bEmvLoaded:
 2543 000c 00       		.space	1
 2544 000d 00       		.space	1
 2545              		.type	wChunkSize, %object
 2546              		.size	wChunkSize, 2
 2547              	wChunkSize:
 2548 000e 0000     		.space	2
 2549              		.type	bMaxNumBlk, %object
 2550              		.size	bMaxNumBlk, 1
 2551              	bMaxNumBlk:
 2552 0010 00       		.space	1
 2553              		.type	bDnloadBlk, %object
 2554              		.size	bDnloadBlk, 1
 2555              	bDnloadBlk:
 2556 0011 00       		.space	1
 2557 0012 0000     		.text
 2558              	.Letext0:
 2559              		.file 2 "c:\\devtools\\gcc_v49_2014q4\\lib\\gcc\\arm-none-eabi\\4.9.3\\include\\stddef.h"
 2560              		.file 3 "../LibA5T1000/common.h"
ARM GAS  C:\Users\AHMED~1.ELE\AppData\Local\Temp\ccAhPyWN.s 			page 67


 2561              		.file 4 "../LibA5T1000/system.h"
 2562              		.file 5 "../LibA5T1000/midware.h"
 2563              		.file 6 "../LibA5T1000/apm.h"
 2564              		.file 7 "src/hardware.h"
 2565              		.file 8 "../LibA5T1000/emv2dll.h"
 2566              		.file 9 "src/infodata.h"
 2567              		.file 10 "src/kbdutil.h"
 2568              		.file 11 "src/sysutil.h"
 2569              		.file 12 "../LibA5T1000/util.h"
 2570              		.file 13 "c:\\devtools\\gcc_v49_2014q4\\arm-none-eabi\\include\\string.h"
 2571              		.file 14 "c:\\devtools\\gcc_v49_2014q4\\arm-none-eabi\\include\\stdio.h"
 2572              		.file 15 "src/lptutil.h"
 2573              		.file 16 "<built-in>"
 2574              		.section	.debug_info,"",%progbits
 2575              	.Ldebug_info0:
 2576 0000 ED2E0000 		.4byte	0x2eed
 2577 0004 0400     		.2byte	0x4
 2578 0006 00000000 		.4byte	.Ldebug_abbrev0
 2579 000a 04       		.byte	0x4
 2580 000b 01       		.uleb128 0x1
 2581 000c 2D160000 		.4byte	.LASF779
 2582 0010 01       		.byte	0x1
 2583 0011 4E180000 		.4byte	.LASF780
 2584 0015 230D0000 		.4byte	.LASF781
 2585 0019 48000000 		.4byte	.Ldebug_ranges0+0x48
 2586 001d 00000000 		.4byte	0
 2587 0021 00000000 		.4byte	.Ldebug_line0
 2588 0025 02       		.uleb128 0x2
 2589 0026 04       		.byte	0x4
 2590 0027 05       		.byte	0x5
 2591 0028 696E7400 		.ascii	"int\000"
 2592 002c 03       		.uleb128 0x3
 2593 002d A1000000 		.4byte	.LASF11
 2594 0031 02       		.byte	0x2
 2595 0032 D4       		.byte	0xd4
 2596 0033 37000000 		.4byte	0x37
 2597 0037 04       		.uleb128 0x4
 2598 0038 04       		.byte	0x4
 2599 0039 07       		.byte	0x7
 2600 003a 581D0000 		.4byte	.LASF0
 2601 003e 04       		.uleb128 0x4
 2602 003f 01       		.byte	0x1
 2603 0040 06       		.byte	0x6
 2604 0041 722C0000 		.4byte	.LASF1
 2605 0045 04       		.uleb128 0x4
 2606 0046 01       		.byte	0x1
 2607 0047 08       		.byte	0x8
 2608 0048 65200000 		.4byte	.LASF2
 2609 004c 04       		.uleb128 0x4
 2610 004d 02       		.byte	0x2
 2611 004e 05       		.byte	0x5
 2612 004f B6290000 		.4byte	.LASF3
 2613 0053 04       		.uleb128 0x4
 2614 0054 02       		.byte	0x2
 2615 0055 07       		.byte	0x7
 2616 0056 752F0000 		.4byte	.LASF4
 2617 005a 04       		.uleb128 0x4
ARM GAS  C:\Users\AHMED~1.ELE\AppData\Local\Temp\ccAhPyWN.s 			page 68


 2618 005b 04       		.byte	0x4
 2619 005c 05       		.byte	0x5
 2620 005d 54080000 		.4byte	.LASF5
 2621 0061 04       		.uleb128 0x4
 2622 0062 04       		.byte	0x4
 2623 0063 07       		.byte	0x7
 2624 0064 56150000 		.4byte	.LASF6
 2625 0068 04       		.uleb128 0x4
 2626 0069 08       		.byte	0x8
 2627 006a 05       		.byte	0x5
 2628 006b FE190000 		.4byte	.LASF7
 2629 006f 04       		.uleb128 0x4
 2630 0070 08       		.byte	0x8
 2631 0071 07       		.byte	0x7
 2632 0072 33240000 		.4byte	.LASF8
 2633 0076 04       		.uleb128 0x4
 2634 0077 04       		.byte	0x4
 2635 0078 07       		.byte	0x7
 2636 0079 B8000000 		.4byte	.LASF9
 2637 007d 05       		.uleb128 0x5
 2638 007e 04       		.byte	0x4
 2639 007f 06       		.uleb128 0x6
 2640 0080 04       		.byte	0x4
 2641 0081 85000000 		.4byte	0x85
 2642 0085 04       		.uleb128 0x4
 2643 0086 01       		.byte	0x1
 2644 0087 06       		.byte	0x6
 2645 0088 3E000000 		.4byte	.LASF10
 2646 008c 06       		.uleb128 0x6
 2647 008d 04       		.byte	0x4
 2648 008e 92000000 		.4byte	0x92
 2649 0092 07       		.uleb128 0x7
 2650 0093 85000000 		.4byte	0x85
 2651 0097 03       		.uleb128 0x3
 2652 0098 E40F0000 		.4byte	.LASF12
 2653 009c 03       		.byte	0x3
 2654 009d 0D       		.byte	0xd
 2655 009e 45000000 		.4byte	0x45
 2656 00a2 03       		.uleb128 0x3
 2657 00a3 FD060000 		.4byte	.LASF13
 2658 00a7 03       		.byte	0x3
 2659 00a8 0E       		.byte	0xe
 2660 00a9 45000000 		.4byte	0x45
 2661 00ad 03       		.uleb128 0x3
 2662 00ae 39200000 		.4byte	.LASF14
 2663 00b2 03       		.byte	0x3
 2664 00b3 0F       		.byte	0xf
 2665 00b4 53000000 		.4byte	0x53
 2666 00b8 03       		.uleb128 0x3
 2667 00b9 832E0000 		.4byte	.LASF15
 2668 00bd 03       		.byte	0x3
 2669 00be 10       		.byte	0x10
 2670 00bf 37000000 		.4byte	0x37
 2671 00c3 06       		.uleb128 0x6
 2672 00c4 04       		.byte	0x4
 2673 00c5 C9000000 		.4byte	0xc9
 2674 00c9 07       		.uleb128 0x7
ARM GAS  C:\Users\AHMED~1.ELE\AppData\Local\Temp\ccAhPyWN.s 			page 69


 2675 00ca A2000000 		.4byte	0xa2
 2676 00ce 06       		.uleb128 0x6
 2677 00cf 04       		.byte	0x4
 2678 00d0 A2000000 		.4byte	0xa2
 2679 00d4 08       		.uleb128 0x8
 2680 00d5 A2000000 		.4byte	0xa2
 2681 00d9 E4000000 		.4byte	0xe4
 2682 00dd 09       		.uleb128 0x9
 2683 00de 76000000 		.4byte	0x76
 2684 00e2 1F       		.byte	0x1f
 2685 00e3 00       		.byte	0
 2686 00e4 08       		.uleb128 0x8
 2687 00e5 A2000000 		.4byte	0xa2
 2688 00e9 F4000000 		.4byte	0xf4
 2689 00ed 09       		.uleb128 0x9
 2690 00ee 76000000 		.4byte	0x76
 2691 00f2 07       		.byte	0x7
 2692 00f3 00       		.byte	0
 2693 00f4 08       		.uleb128 0x8
 2694 00f5 A2000000 		.4byte	0xa2
 2695 00f9 04010000 		.4byte	0x104
 2696 00fd 09       		.uleb128 0x9
 2697 00fe 76000000 		.4byte	0x76
 2698 0102 0C       		.byte	0xc
 2699 0103 00       		.byte	0
 2700 0104 0A       		.uleb128 0xa
 2701 0105 C0130000 		.4byte	.LASF782
 2702 0109 02       		.byte	0x2
 2703 010a 04       		.byte	0x4
 2704 010b 9A04     		.2byte	0x49a
 2705 010d C10D0000 		.4byte	0xdc1
 2706 0111 0B       		.uleb128 0xb
 2707 0112 4F310000 		.4byte	.LASF16
 2708 0116 00       		.sleb128 0
 2709 0117 0B       		.uleb128 0xb
 2710 0118 AC150000 		.4byte	.LASF17
 2711 011c 01       		.sleb128 1
 2712 011d 0B       		.uleb128 0xb
 2713 011e 83190000 		.4byte	.LASF18
 2714 0122 02       		.sleb128 2
 2715 0123 0B       		.uleb128 0xb
 2716 0124 FD0B0000 		.4byte	.LASF19
 2717 0128 03       		.sleb128 3
 2718 0129 0B       		.uleb128 0xb
 2719 012a CD300000 		.4byte	.LASF20
 2720 012e 04       		.sleb128 4
 2721 012f 0B       		.uleb128 0xb
 2722 0130 52210000 		.4byte	.LASF21
 2723 0134 05       		.sleb128 5
 2724 0135 0B       		.uleb128 0xb
 2725 0136 230F0000 		.4byte	.LASF22
 2726 013a 06       		.sleb128 6
 2727 013b 0B       		.uleb128 0xb
 2728 013c 8D230000 		.4byte	.LASF23
 2729 0140 07       		.sleb128 7
 2730 0141 0B       		.uleb128 0xb
 2731 0142 72170000 		.4byte	.LASF24
ARM GAS  C:\Users\AHMED~1.ELE\AppData\Local\Temp\ccAhPyWN.s 			page 70


 2732 0146 08       		.sleb128 8
 2733 0147 0B       		.uleb128 0xb
 2734 0148 7E2D0000 		.4byte	.LASF25
 2735 014c 09       		.sleb128 9
 2736 014d 0B       		.uleb128 0xb
 2737 014e EC060000 		.4byte	.LASF26
 2738 0152 0A       		.sleb128 10
 2739 0153 0B       		.uleb128 0xb
 2740 0154 5D080000 		.4byte	.LASF27
 2741 0158 0B       		.sleb128 11
 2742 0159 0B       		.uleb128 0xb
 2743 015a F3020000 		.4byte	.LASF28
 2744 015e 0C       		.sleb128 12
 2745 015f 0B       		.uleb128 0xb
 2746 0160 78210000 		.4byte	.LASF29
 2747 0164 0D       		.sleb128 13
 2748 0165 0B       		.uleb128 0xb
 2749 0166 A60D0000 		.4byte	.LASF30
 2750 016a 0E       		.sleb128 14
 2751 016b 0B       		.uleb128 0xb
 2752 016c BF310000 		.4byte	.LASF31
 2753 0170 0F       		.sleb128 15
 2754 0171 0B       		.uleb128 0xb
 2755 0172 20190000 		.4byte	.LASF32
 2756 0176 10       		.sleb128 16
 2757 0177 0B       		.uleb128 0xb
 2758 0178 41270000 		.4byte	.LASF33
 2759 017c 11       		.sleb128 17
 2760 017d 0B       		.uleb128 0xb
 2761 017e 57110000 		.4byte	.LASF34
 2762 0182 12       		.sleb128 18
 2763 0183 0B       		.uleb128 0xb
 2764 0184 78270000 		.4byte	.LASF35
 2765 0188 13       		.sleb128 19
 2766 0189 0B       		.uleb128 0xb
 2767 018a 1E0A0000 		.4byte	.LASF36
 2768 018e 14       		.sleb128 20
 2769 018f 0B       		.uleb128 0xb
 2770 0190 0C1A0000 		.4byte	.LASF37
 2771 0194 15       		.sleb128 21
 2772 0195 0B       		.uleb128 0xb
 2773 0196 2E0A0000 		.4byte	.LASF38
 2774 019a 16       		.sleb128 22
 2775 019b 0B       		.uleb128 0xb
 2776 019c DE0A0000 		.4byte	.LASF39
 2777 01a0 17       		.sleb128 23
 2778 01a1 0B       		.uleb128 0xb
 2779 01a2 860A0000 		.4byte	.LASF40
 2780 01a6 18       		.sleb128 24
 2781 01a7 0B       		.uleb128 0xb
 2782 01a8 AE200000 		.4byte	.LASF41
 2783 01ac 19       		.sleb128 25
 2784 01ad 0B       		.uleb128 0xb
 2785 01ae 520A0000 		.4byte	.LASF42
 2786 01b2 1A       		.sleb128 26
 2787 01b3 0B       		.uleb128 0xb
 2788 01b4 B10A0000 		.4byte	.LASF43
ARM GAS  C:\Users\AHMED~1.ELE\AppData\Local\Temp\ccAhPyWN.s 			page 71


 2789 01b8 1B       		.sleb128 27
 2790 01b9 0B       		.uleb128 0xb
 2791 01ba 79150000 		.4byte	.LASF44
 2792 01be 1C       		.sleb128 28
 2793 01bf 0B       		.uleb128 0xb
 2794 01c0 0F1D0000 		.4byte	.LASF45
 2795 01c4 1D       		.sleb128 29
 2796 01c5 0B       		.uleb128 0xb
 2797 01c6 E2310000 		.4byte	.LASF46
 2798 01ca 1E       		.sleb128 30
 2799 01cb 0B       		.uleb128 0xb
 2800 01cc 6E090000 		.4byte	.LASF47
 2801 01d0 1F       		.sleb128 31
 2802 01d1 0B       		.uleb128 0xb
 2803 01d2 68150000 		.4byte	.LASF48
 2804 01d6 20       		.sleb128 32
 2805 01d7 0B       		.uleb128 0xb
 2806 01d8 26040000 		.4byte	.LASF49
 2807 01dc 21       		.sleb128 33
 2808 01dd 0B       		.uleb128 0xb
 2809 01de 23200000 		.4byte	.LASF50
 2810 01e2 22       		.sleb128 34
 2811 01e3 0B       		.uleb128 0xb
 2812 01e4 271B0000 		.4byte	.LASF51
 2813 01e8 23       		.sleb128 35
 2814 01e9 0B       		.uleb128 0xb
 2815 01ea 3D0C0000 		.4byte	.LASF52
 2816 01ee 24       		.sleb128 36
 2817 01ef 0B       		.uleb128 0xb
 2818 01f0 3C120000 		.4byte	.LASF53
 2819 01f4 25       		.sleb128 37
 2820 01f5 0B       		.uleb128 0xb
 2821 01f6 422C0000 		.4byte	.LASF54
 2822 01fa 26       		.sleb128 38
 2823 01fb 0B       		.uleb128 0xb
 2824 01fc 831B0000 		.4byte	.LASF55
 2825 0200 27       		.sleb128 39
 2826 0201 0B       		.uleb128 0xb
 2827 0202 A3080000 		.4byte	.LASF56
 2828 0206 28       		.sleb128 40
 2829 0207 0B       		.uleb128 0xb
 2830 0208 59230000 		.4byte	.LASF57
 2831 020c 29       		.sleb128 41
 2832 020d 0B       		.uleb128 0xb
 2833 020e E11B0000 		.4byte	.LASF58
 2834 0212 2A       		.sleb128 42
 2835 0213 0B       		.uleb128 0xb
 2836 0214 7D1C0000 		.4byte	.LASF59
 2837 0218 2B       		.sleb128 43
 2838 0219 0B       		.uleb128 0xb
 2839 021a 36100000 		.4byte	.LASF60
 2840 021e 2C       		.sleb128 44
 2841 021f 0B       		.uleb128 0xb
 2842 0220 050D0000 		.4byte	.LASF61
 2843 0224 2D       		.sleb128 45
 2844 0225 0B       		.uleb128 0xb
 2845 0226 B32C0000 		.4byte	.LASF62
ARM GAS  C:\Users\AHMED~1.ELE\AppData\Local\Temp\ccAhPyWN.s 			page 72


 2846 022a 2E       		.sleb128 46
 2847 022b 0B       		.uleb128 0xb
 2848 022c DB2F0000 		.4byte	.LASF63
 2849 0230 2F       		.sleb128 47
 2850 0231 0B       		.uleb128 0xb
 2851 0232 2C2A0000 		.4byte	.LASF64
 2852 0236 30       		.sleb128 48
 2853 0237 0B       		.uleb128 0xb
 2854 0238 2F050000 		.4byte	.LASF65
 2855 023c 31       		.sleb128 49
 2856 023d 0B       		.uleb128 0xb
 2857 023e C6250000 		.4byte	.LASF66
 2858 0242 32       		.sleb128 50
 2859 0243 0B       		.uleb128 0xb
 2860 0244 402E0000 		.4byte	.LASF67
 2861 0248 33       		.sleb128 51
 2862 0249 0B       		.uleb128 0xb
 2863 024a 0D180000 		.4byte	.LASF68
 2864 024e 34       		.sleb128 52
 2865 024f 0B       		.uleb128 0xb
 2866 0250 7F0D0000 		.4byte	.LASF69
 2867 0254 35       		.sleb128 53
 2868 0255 0B       		.uleb128 0xb
 2869 0256 F6050000 		.4byte	.LASF70
 2870 025a 36       		.sleb128 54
 2871 025b 0B       		.uleb128 0xb
 2872 025c 461A0000 		.4byte	.LASF71
 2873 0260 37       		.sleb128 55
 2874 0261 0B       		.uleb128 0xb
 2875 0262 0D320000 		.4byte	.LASF72
 2876 0266 38       		.sleb128 56
 2877 0267 0B       		.uleb128 0xb
 2878 0268 ED2E0000 		.4byte	.LASF73
 2879 026c 39       		.sleb128 57
 2880 026d 0B       		.uleb128 0xb
 2881 026e 3A250000 		.4byte	.LASF74
 2882 0272 3A       		.sleb128 58
 2883 0273 0B       		.uleb128 0xb
 2884 0274 01050000 		.4byte	.LASF75
 2885 0278 3B       		.sleb128 59
 2886 0279 0B       		.uleb128 0xb
 2887 027a 6D300000 		.4byte	.LASF76
 2888 027e 3C       		.sleb128 60
 2889 027f 0B       		.uleb128 0xb
 2890 0280 88210000 		.4byte	.LASF77
 2891 0284 3D       		.sleb128 61
 2892 0285 0B       		.uleb128 0xb
 2893 0286 DD2C0000 		.4byte	.LASF78
 2894 028a 3E       		.sleb128 62
 2895 028b 0B       		.uleb128 0xb
 2896 028c 2E290000 		.4byte	.LASF79
 2897 0290 3F       		.sleb128 63
 2898 0291 0B       		.uleb128 0xb
 2899 0292 81290000 		.4byte	.LASF80
 2900 0296 C000     		.sleb128 64
 2901 0298 0B       		.uleb128 0xb
 2902 0299 BE010000 		.4byte	.LASF81
ARM GAS  C:\Users\AHMED~1.ELE\AppData\Local\Temp\ccAhPyWN.s 			page 73


 2903 029d C100     		.sleb128 65
 2904 029f 0B       		.uleb128 0xb
 2905 02a0 24310000 		.4byte	.LASF82
 2906 02a4 C200     		.sleb128 66
 2907 02a6 0B       		.uleb128 0xb
 2908 02a7 D41B0000 		.4byte	.LASF83
 2909 02ab C300     		.sleb128 67
 2910 02ad 0B       		.uleb128 0xb
 2911 02ae 38230000 		.4byte	.LASF84
 2912 02b2 C400     		.sleb128 68
 2913 02b4 0B       		.uleb128 0xb
 2914 02b5 EC0F0000 		.4byte	.LASF85
 2915 02b9 C500     		.sleb128 69
 2916 02bb 0B       		.uleb128 0xb
 2917 02bc 78140000 		.4byte	.LASF86
 2918 02c0 C600     		.sleb128 70
 2919 02c2 0B       		.uleb128 0xb
 2920 02c3 1B250000 		.4byte	.LASF87
 2921 02c7 C700     		.sleb128 71
 2922 02c9 0B       		.uleb128 0xb
 2923 02ca E9110000 		.4byte	.LASF88
 2924 02ce C800     		.sleb128 72
 2925 02d0 0B       		.uleb128 0xb
 2926 02d1 8E1E0000 		.4byte	.LASF89
 2927 02d5 C900     		.sleb128 73
 2928 02d7 0B       		.uleb128 0xb
 2929 02d8 412F0000 		.4byte	.LASF90
 2930 02dc CA00     		.sleb128 74
 2931 02de 0B       		.uleb128 0xb
 2932 02df 07300000 		.4byte	.LASF91
 2933 02e3 CB00     		.sleb128 75
 2934 02e5 0B       		.uleb128 0xb
 2935 02e6 2B070000 		.4byte	.LASF92
 2936 02ea CC00     		.sleb128 76
 2937 02ec 0B       		.uleb128 0xb
 2938 02ed 671E0000 		.4byte	.LASF93
 2939 02f1 CD00     		.sleb128 77
 2940 02f3 0B       		.uleb128 0xb
 2941 02f4 7E050000 		.4byte	.LASF94
 2942 02f8 CE00     		.sleb128 78
 2943 02fa 0B       		.uleb128 0xb
 2944 02fb C6060000 		.4byte	.LASF95
 2945 02ff CF00     		.sleb128 79
 2946 0301 0B       		.uleb128 0xb
 2947 0302 A31D0000 		.4byte	.LASF96
 2948 0306 D000     		.sleb128 80
 2949 0308 0B       		.uleb128 0xb
 2950 0309 02280000 		.4byte	.LASF97
 2951 030d D100     		.sleb128 81
 2952 030f 0B       		.uleb128 0xb
 2953 0310 041C0000 		.4byte	.LASF98
 2954 0314 D200     		.sleb128 82
 2955 0316 0B       		.uleb128 0xb
 2956 0317 B0110000 		.4byte	.LASF99
 2957 031b D300     		.sleb128 83
 2958 031d 0B       		.uleb128 0xb
 2959 031e B2280000 		.4byte	.LASF100
ARM GAS  C:\Users\AHMED~1.ELE\AppData\Local\Temp\ccAhPyWN.s 			page 74


 2960 0322 D400     		.sleb128 84
 2961 0324 0B       		.uleb128 0xb
 2962 0325 13230000 		.4byte	.LASF101
 2963 0329 D500     		.sleb128 85
 2964 032b 0B       		.uleb128 0xb
 2965 032c 42060000 		.4byte	.LASF102
 2966 0330 D600     		.sleb128 86
 2967 0332 0B       		.uleb128 0xb
 2968 0333 EC2F0000 		.4byte	.LASF103
 2969 0337 D700     		.sleb128 87
 2970 0339 0B       		.uleb128 0xb
 2971 033a FA260000 		.4byte	.LASF104
 2972 033e D800     		.sleb128 88
 2973 0340 0B       		.uleb128 0xb
 2974 0341 C0290000 		.4byte	.LASF105
 2975 0345 D900     		.sleb128 89
 2976 0347 0B       		.uleb128 0xb
 2977 0348 29250000 		.4byte	.LASF106
 2978 034c DA00     		.sleb128 90
 2979 034e 0B       		.uleb128 0xb
 2980 034f AB220000 		.4byte	.LASF107
 2981 0353 DB00     		.sleb128 91
 2982 0355 0B       		.uleb128 0xb
 2983 0356 1E090000 		.4byte	.LASF108
 2984 035a DC00     		.sleb128 92
 2985 035c 0B       		.uleb128 0xb
 2986 035d E9040000 		.4byte	.LASF109
 2987 0361 DD00     		.sleb128 93
 2988 0363 0B       		.uleb128 0xb
 2989 0364 90060000 		.4byte	.LASF110
 2990 0368 DE00     		.sleb128 94
 2991 036a 0B       		.uleb128 0xb
 2992 036b C8080000 		.4byte	.LASF111
 2993 036f DF00     		.sleb128 95
 2994 0371 0B       		.uleb128 0xb
 2995 0372 E11A0000 		.4byte	.LASF112
 2996 0376 E000     		.sleb128 96
 2997 0378 0B       		.uleb128 0xb
 2998 0379 1A2B0000 		.4byte	.LASF113
 2999 037d E100     		.sleb128 97
 3000 037f 0B       		.uleb128 0xb
 3001 0380 AF2A0000 		.4byte	.LASF114
 3002 0384 E200     		.sleb128 98
 3003 0386 0B       		.uleb128 0xb
 3004 0387 B70E0000 		.4byte	.LASF115
 3005 038b E300     		.sleb128 99
 3006 038d 0B       		.uleb128 0xb
 3007 038e 93290000 		.4byte	.LASF116
 3008 0392 E400     		.sleb128 100
 3009 0394 0B       		.uleb128 0xb
 3010 0395 CD1F0000 		.4byte	.LASF117
 3011 0399 E500     		.sleb128 101
 3012 039b 0B       		.uleb128 0xb
 3013 039c FA010000 		.4byte	.LASF118
 3014 03a0 E600     		.sleb128 102
 3015 03a2 0B       		.uleb128 0xb
 3016 03a3 1C070000 		.4byte	.LASF119
ARM GAS  C:\Users\AHMED~1.ELE\AppData\Local\Temp\ccAhPyWN.s 			page 75


 3017 03a7 E700     		.sleb128 103
 3018 03a9 0B       		.uleb128 0xb
 3019 03aa 44190000 		.4byte	.LASF120
 3020 03ae E800     		.sleb128 104
 3021 03b0 0B       		.uleb128 0xb
 3022 03b1 DE060000 		.4byte	.LASF121
 3023 03b5 E900     		.sleb128 105
 3024 03b7 0B       		.uleb128 0xb
 3025 03b8 5A140000 		.4byte	.LASF122
 3026 03bc EA00     		.sleb128 106
 3027 03be 0B       		.uleb128 0xb
 3028 03bf 0A2B0000 		.4byte	.LASF123
 3029 03c3 EB00     		.sleb128 107
 3030 03c5 0B       		.uleb128 0xb
 3031 03c6 3E290000 		.4byte	.LASF124
 3032 03ca EC00     		.sleb128 108
 3033 03cc 0B       		.uleb128 0xb
 3034 03cd B11C0000 		.4byte	.LASF125
 3035 03d1 ED00     		.sleb128 109
 3036 03d3 0B       		.uleb128 0xb
 3037 03d4 160C0000 		.4byte	.LASF126
 3038 03d8 EE00     		.sleb128 110
 3039 03da 0B       		.uleb128 0xb
 3040 03db 551E0000 		.4byte	.LASF127
 3041 03df EF00     		.sleb128 111
 3042 03e1 0B       		.uleb128 0xb
 3043 03e2 D5180000 		.4byte	.LASF128
 3044 03e6 F000     		.sleb128 112
 3045 03e8 0B       		.uleb128 0xb
 3046 03e9 AA040000 		.4byte	.LASF129
 3047 03ed F100     		.sleb128 113
 3048 03ef 0B       		.uleb128 0xb
 3049 03f0 5A1F0000 		.4byte	.LASF130
 3050 03f4 F200     		.sleb128 114
 3051 03f6 0B       		.uleb128 0xb
 3052 03f7 04250000 		.4byte	.LASF131
 3053 03fb F300     		.sleb128 115
 3054 03fd 0B       		.uleb128 0xb
 3055 03fe 620A0000 		.4byte	.LASF132
 3056 0402 F400     		.sleb128 116
 3057 0404 0B       		.uleb128 0xb
 3058 0405 FF2B0000 		.4byte	.LASF133
 3059 0409 F500     		.sleb128 117
 3060 040b 0B       		.uleb128 0xb
 3061 040c C52C0000 		.4byte	.LASF134
 3062 0410 F600     		.sleb128 118
 3063 0412 0B       		.uleb128 0xb
 3064 0413 150D0000 		.4byte	.LASF135
 3065 0417 F700     		.sleb128 119
 3066 0419 0B       		.uleb128 0xb
 3067 041a 9D0C0000 		.4byte	.LASF136
 3068 041e F800     		.sleb128 120
 3069 0420 0B       		.uleb128 0xb
 3070 0421 6D0E0000 		.4byte	.LASF137
 3071 0425 F900     		.sleb128 121
 3072 0427 0B       		.uleb128 0xb
 3073 0428 882F0000 		.4byte	.LASF138
ARM GAS  C:\Users\AHMED~1.ELE\AppData\Local\Temp\ccAhPyWN.s 			page 76


 3074 042c FA00     		.sleb128 122
 3075 042e 0B       		.uleb128 0xb
 3076 042f 24110000 		.4byte	.LASF139
 3077 0433 FB00     		.sleb128 123
 3078 0435 0B       		.uleb128 0xb
 3079 0436 1E180000 		.4byte	.LASF140
 3080 043a FC00     		.sleb128 124
 3081 043c 0B       		.uleb128 0xb
 3082 043d 56290000 		.4byte	.LASF141
 3083 0441 FD00     		.sleb128 125
 3084 0443 0B       		.uleb128 0xb
 3085 0444 A40B0000 		.4byte	.LASF142
 3086 0448 FE00     		.sleb128 126
 3087 044a 0B       		.uleb128 0xb
 3088 044b 84090000 		.4byte	.LASF143
 3089 044f FF00     		.sleb128 127
 3090 0451 0B       		.uleb128 0xb
 3091 0452 38280000 		.4byte	.LASF144
 3092 0456 8001     		.sleb128 128
 3093 0458 0B       		.uleb128 0xb
 3094 0459 7C080000 		.4byte	.LASF145
 3095 045d 8101     		.sleb128 129
 3096 045f 0B       		.uleb128 0xb
 3097 0460 38030000 		.4byte	.LASF146
 3098 0464 8201     		.sleb128 130
 3099 0466 0B       		.uleb128 0xb
 3100 0467 66220000 		.4byte	.LASF147
 3101 046b 8301     		.sleb128 131
 3102 046d 0B       		.uleb128 0xb
 3103 046e D5260000 		.4byte	.LASF148
 3104 0472 8401     		.sleb128 132
 3105 0474 0B       		.uleb128 0xb
 3106 0475 48110000 		.4byte	.LASF149
 3107 0479 8501     		.sleb128 133
 3108 047b 0B       		.uleb128 0xb
 3109 047c 2D300000 		.4byte	.LASF150
 3110 0480 8601     		.sleb128 134
 3111 0482 0B       		.uleb128 0xb
 3112 0483 6E0D0000 		.4byte	.LASF151
 3113 0487 8701     		.sleb128 135
 3114 0489 0B       		.uleb128 0xb
 3115 048a A5170000 		.4byte	.LASF152
 3116 048e 8801     		.sleb128 136
 3117 0490 0B       		.uleb128 0xb
 3118 0491 78110000 		.4byte	.LASF153
 3119 0495 8901     		.sleb128 137
 3120 0497 0B       		.uleb128 0xb
 3121 0498 580B0000 		.4byte	.LASF154
 3122 049c 8A01     		.sleb128 138
 3123 049e 0B       		.uleb128 0xb
 3124 049f CD270000 		.4byte	.LASF155
 3125 04a3 8B01     		.sleb128 139
 3126 04a5 0B       		.uleb128 0xb
 3127 04a6 E62D0000 		.4byte	.LASF156
 3128 04aa 8C01     		.sleb128 140
 3129 04ac 0B       		.uleb128 0xb
 3130 04ad 5D1B0000 		.4byte	.LASF157
ARM GAS  C:\Users\AHMED~1.ELE\AppData\Local\Temp\ccAhPyWN.s 			page 77


 3131 04b1 8D01     		.sleb128 141
 3132 04b3 0B       		.uleb128 0xb
 3133 04b4 FD220000 		.4byte	.LASF158
 3134 04b8 8E01     		.sleb128 142
 3135 04ba 0B       		.uleb128 0xb
 3136 04bb 81100000 		.4byte	.LASF159
 3137 04bf 8F01     		.sleb128 143
 3138 04c1 0B       		.uleb128 0xb
 3139 04c2 64100000 		.4byte	.LASF160
 3140 04c6 9001     		.sleb128 144
 3141 04c8 0B       		.uleb128 0xb
 3142 04c9 482D0000 		.4byte	.LASF161
 3143 04cd 9101     		.sleb128 145
 3144 04cf 0B       		.uleb128 0xb
 3145 04d0 CC210000 		.4byte	.LASF162
 3146 04d4 9201     		.sleb128 146
 3147 04d6 0B       		.uleb128 0xb
 3148 04d7 632B0000 		.4byte	.LASF163
 3149 04db 9301     		.sleb128 147
 3150 04dd 0B       		.uleb128 0xb
 3151 04de BF190000 		.4byte	.LASF164
 3152 04e2 9401     		.sleb128 148
 3153 04e4 0B       		.uleb128 0xb
 3154 04e5 DF000000 		.4byte	.LASF165
 3155 04e9 9501     		.sleb128 149
 3156 04eb 0B       		.uleb128 0xb
 3157 04ec 7B0B0000 		.4byte	.LASF166
 3158 04f0 9601     		.sleb128 150
 3159 04f2 0B       		.uleb128 0xb
 3160 04f3 6B120000 		.4byte	.LASF167
 3161 04f7 9701     		.sleb128 151
 3162 04f9 0B       		.uleb128 0xb
 3163 04fa AE190000 		.4byte	.LASF168
 3164 04fe 9801     		.sleb128 152
 3165 0500 0B       		.uleb128 0xb
 3166 0501 CF010000 		.4byte	.LASF169
 3167 0505 9901     		.sleb128 153
 3168 0507 0B       		.uleb128 0xb
 3169 0508 8E1C0000 		.4byte	.LASF170
 3170 050c 9A01     		.sleb128 154
 3171 050e 0B       		.uleb128 0xb
 3172 050f 54220000 		.4byte	.LASF171
 3173 0513 9B01     		.sleb128 155
 3174 0515 0B       		.uleb128 0xb
 3175 0516 CF310000 		.4byte	.LASF172
 3176 051a 9C01     		.sleb128 156
 3177 051c 0B       		.uleb128 0xb
 3178 051d A8000000 		.4byte	.LASF173
 3179 0521 9D01     		.sleb128 157
 3180 0523 0B       		.uleb128 0xb
 3181 0524 29130000 		.4byte	.LASF174
 3182 0528 9E01     		.sleb128 158
 3183 052a 0B       		.uleb128 0xb
 3184 052b AF0C0000 		.4byte	.LASF175
 3185 052f 9F01     		.sleb128 159
 3186 0531 0B       		.uleb128 0xb
 3187 0532 8B0B0000 		.4byte	.LASF176
ARM GAS  C:\Users\AHMED~1.ELE\AppData\Local\Temp\ccAhPyWN.s 			page 78


 3188 0536 A001     		.sleb128 160
 3189 0538 0B       		.uleb128 0xb
 3190 0539 86240000 		.4byte	.LASF177
 3191 053d A101     		.sleb128 161
 3192 053f 0B       		.uleb128 0xb
 3193 0540 99210000 		.4byte	.LASF178
 3194 0544 A201     		.sleb128 162
 3195 0546 0B       		.uleb128 0xb
 3196 0547 96050000 		.4byte	.LASF179
 3197 054b A301     		.sleb128 163
 3198 054d 0B       		.uleb128 0xb
 3199 054e 5B240000 		.4byte	.LASF180
 3200 0552 A401     		.sleb128 164
 3201 0554 0B       		.uleb128 0xb
 3202 0555 A8090000 		.4byte	.LASF181
 3203 0559 A501     		.sleb128 165
 3204 055b 0B       		.uleb128 0xb
 3205 055c C9020000 		.4byte	.LASF182
 3206 0560 A601     		.sleb128 166
 3207 0562 0B       		.uleb128 0xb
 3208 0563 AD1E0000 		.4byte	.LASF183
 3209 0567 A701     		.sleb128 167
 3210 0569 0B       		.uleb128 0xb
 3211 056a FB1C0000 		.4byte	.LASF184
 3212 056e A801     		.sleb128 168
 3213 0570 0B       		.uleb128 0xb
 3214 0571 7C060000 		.4byte	.LASF185
 3215 0575 A901     		.sleb128 169
 3216 0577 0B       		.uleb128 0xb
 3217 0578 562F0000 		.4byte	.LASF186
 3218 057c AA01     		.sleb128 170
 3219 057e 0B       		.uleb128 0xb
 3220 057f 30210000 		.4byte	.LASF187
 3221 0583 AB01     		.sleb128 171
 3222 0585 0B       		.uleb128 0xb
 3223 0586 342D0000 		.4byte	.LASF188
 3224 058a AC01     		.sleb128 172
 3225 058c 0B       		.uleb128 0xb
 3226 058d 90040000 		.4byte	.LASF189
 3227 0591 AD01     		.sleb128 173
 3228 0593 0B       		.uleb128 0xb
 3229 0594 E4180000 		.4byte	.LASF190
 3230 0598 AE01     		.sleb128 174
 3231 059a 0B       		.uleb128 0xb
 3232 059b 85280000 		.4byte	.LASF191
 3233 059f AF01     		.sleb128 175
 3234 05a1 0B       		.uleb128 0xb
 3235 05a2 2A0E0000 		.4byte	.LASF192
 3236 05a6 B001     		.sleb128 176
 3237 05a8 0B       		.uleb128 0xb
 3238 05a9 8A000000 		.4byte	.LASF193
 3239 05ad B101     		.sleb128 177
 3240 05af 0B       		.uleb128 0xb
 3241 05b0 0D190000 		.4byte	.LASF194
 3242 05b4 B201     		.sleb128 178
 3243 05b6 0B       		.uleb128 0xb
 3244 05b7 D52D0000 		.4byte	.LASF195
ARM GAS  C:\Users\AHMED~1.ELE\AppData\Local\Temp\ccAhPyWN.s 			page 79


 3245 05bb B301     		.sleb128 179
 3246 05bd 0B       		.uleb128 0xb
 3247 05be 4A070000 		.4byte	.LASF196
 3248 05c2 B401     		.sleb128 180
 3249 05c4 0B       		.uleb128 0xb
 3250 05c5 BB140000 		.4byte	.LASF197
 3251 05c9 B501     		.sleb128 181
 3252 05cb 0B       		.uleb128 0xb
 3253 05cc C3070000 		.4byte	.LASF198
 3254 05d0 B601     		.sleb128 182
 3255 05d2 0B       		.uleb128 0xb
 3256 05d3 4A240000 		.4byte	.LASF199
 3257 05d7 B701     		.sleb128 183
 3258 05d9 0B       		.uleb128 0xb
 3259 05da 520C0000 		.4byte	.LASF200
 3260 05de B801     		.sleb128 184
 3261 05e0 0B       		.uleb128 0xb
 3262 05e1 EE0A0000 		.4byte	.LASF201
 3263 05e5 B901     		.sleb128 185
 3264 05e7 0B       		.uleb128 0xb
 3265 05e8 75320000 		.4byte	.LASF202
 3266 05ec BA01     		.sleb128 186
 3267 05ee 0B       		.uleb128 0xb
 3268 05ef 4C280000 		.4byte	.LASF203
 3269 05f3 BB01     		.sleb128 187
 3270 05f5 0B       		.uleb128 0xb
 3271 05f6 06060000 		.4byte	.LASF204
 3272 05fa BC01     		.sleb128 188
 3273 05fc 0B       		.uleb128 0xb
 3274 05fd 68140000 		.4byte	.LASF205
 3275 0601 BD01     		.sleb128 189
 3276 0603 0B       		.uleb128 0xb
 3277 0604 AE050000 		.4byte	.LASF206
 3278 0608 BE01     		.sleb128 190
 3279 060a 0B       		.uleb128 0xb
 3280 060b D2290000 		.4byte	.LASF207
 3281 060f BF01     		.sleb128 191
 3282 0611 0B       		.uleb128 0xb
 3283 0612 A1100000 		.4byte	.LASF208
 3284 0616 C001     		.sleb128 192
 3285 0618 0B       		.uleb128 0xb
 3286 0619 D32A0000 		.4byte	.LASF209
 3287 061d C101     		.sleb128 193
 3288 061f 0B       		.uleb128 0xb
 3289 0620 F9180000 		.4byte	.LASF210
 3290 0624 C201     		.sleb128 194
 3291 0626 0B       		.uleb128 0xb
 3292 0627 E21C0000 		.4byte	.LASF211
 3293 062b C301     		.sleb128 195
 3294 062d 0B       		.uleb128 0xb
 3295 062e 92270000 		.4byte	.LASF212
 3296 0632 C401     		.sleb128 196
 3297 0634 0B       		.uleb128 0xb
 3298 0635 C5230000 		.4byte	.LASF213
 3299 0639 C501     		.sleb128 197
 3300 063b 0B       		.uleb128 0xb
 3301 063c 2D2E0000 		.4byte	.LASF214
ARM GAS  C:\Users\AHMED~1.ELE\AppData\Local\Temp\ccAhPyWN.s 			page 80


 3302 0640 C601     		.sleb128 198
 3303 0642 0B       		.uleb128 0xb
 3304 0643 A6020000 		.4byte	.LASF215
 3305 0647 C701     		.sleb128 199
 3306 0649 0B       		.uleb128 0xb
 3307 064a DF1F0000 		.4byte	.LASF216
 3308 064e C801     		.sleb128 200
 3309 0650 0B       		.uleb128 0xb
 3310 0651 E1270000 		.4byte	.LASF217
 3311 0655 C901     		.sleb128 201
 3312 0657 0B       		.uleb128 0xb
 3313 0658 FA200000 		.4byte	.LASF218
 3314 065c CA01     		.sleb128 202
 3315 065e 0B       		.uleb128 0xb
 3316 065f 0A2F0000 		.4byte	.LASF219
 3317 0663 CB01     		.sleb128 203
 3318 0665 0B       		.uleb128 0xb
 3319 0666 A70E0000 		.4byte	.LASF220
 3320 066a CC01     		.sleb128 204
 3321 066c 0B       		.uleb128 0xb
 3322 066d F0250000 		.4byte	.LASF221
 3323 0671 CD01     		.sleb128 205
 3324 0673 0B       		.uleb128 0xb
 3325 0674 17040000 		.4byte	.LASF222
 3326 0678 CE01     		.sleb128 206
 3327 067a 0B       		.uleb128 0xb
 3328 067b 46100000 		.4byte	.LASF223
 3329 067f CF01     		.sleb128 207
 3330 0681 0B       		.uleb128 0xb
 3331 0682 AD1F0000 		.4byte	.LASF224
 3332 0686 D001     		.sleb128 208
 3333 0688 0B       		.uleb128 0xb
 3334 0689 E5130000 		.4byte	.LASF225
 3335 068d D101     		.sleb128 209
 3336 068f 0B       		.uleb128 0xb
 3337 0690 D60D0000 		.4byte	.LASF226
 3338 0694 D201     		.sleb128 210
 3339 0696 0B       		.uleb128 0xb
 3340 0697 F72D0000 		.4byte	.LASF227
 3341 069b D301     		.sleb128 211
 3342 069d 0B       		.uleb128 0xb
 3343 069e 68270000 		.4byte	.LASF228
 3344 06a2 D401     		.sleb128 212
 3345 06a4 0B       		.uleb128 0xb
 3346 06a5 5D0E0000 		.4byte	.LASF229
 3347 06a9 D501     		.sleb128 213
 3348 06ab 0B       		.uleb128 0xb
 3349 06ac F3150000 		.4byte	.LASF230
 3350 06b0 D601     		.sleb128 214
 3351 06b2 0B       		.uleb128 0xb
 3352 06b3 9B120000 		.4byte	.LASF231
 3353 06b7 D701     		.sleb128 215
 3354 06b9 0B       		.uleb128 0xb
 3355 06ba 9C1E0000 		.4byte	.LASF232
 3356 06be D801     		.sleb128 216
 3357 06c0 0B       		.uleb128 0xb
 3358 06c1 962E0000 		.4byte	.LASF233
ARM GAS  C:\Users\AHMED~1.ELE\AppData\Local\Temp\ccAhPyWN.s 			page 81


 3359 06c5 D901     		.sleb128 217
 3360 06c7 0B       		.uleb128 0xb
 3361 06c8 B7150000 		.4byte	.LASF234
 3362 06cc DA01     		.sleb128 218
 3363 06ce 0B       		.uleb128 0xb
 3364 06cf 55050000 		.4byte	.LASF235
 3365 06d3 DB01     		.sleb128 219
 3366 06d5 0B       		.uleb128 0xb
 3367 06d6 F9070000 		.4byte	.LASF236
 3368 06da DC01     		.sleb128 220
 3369 06dc 0B       		.uleb128 0xb
 3370 06dd 5F2D0000 		.4byte	.LASF237
 3371 06e1 DD01     		.sleb128 221
 3372 06e3 0B       		.uleb128 0xb
 3373 06e4 F5140000 		.4byte	.LASF238
 3374 06e8 DE01     		.sleb128 222
 3375 06ea 0B       		.uleb128 0xb
 3376 06eb 7D120000 		.4byte	.LASF239
 3377 06ef DF01     		.sleb128 223
 3378 06f1 0B       		.uleb128 0xb
 3379 06f2 3D140000 		.4byte	.LASF240
 3380 06f6 E001     		.sleb128 224
 3381 06f8 0B       		.uleb128 0xb
 3382 06f9 8C120000 		.4byte	.LASF241
 3383 06fd E101     		.sleb128 225
 3384 06ff 0B       		.uleb128 0xb
 3385 0700 51170000 		.4byte	.LASF242
 3386 0704 E201     		.sleb128 226
 3387 0706 0B       		.uleb128 0xb
 3388 0707 161B0000 		.4byte	.LASF243
 3389 070b E301     		.sleb128 227
 3390 070d 0B       		.uleb128 0xb
 3391 070e 08130000 		.4byte	.LASF244
 3392 0712 E401     		.sleb128 228
 3393 0714 0B       		.uleb128 0xb
 3394 0715 DD100000 		.4byte	.LASF245
 3395 0719 E501     		.sleb128 229
 3396 071b 0B       		.uleb128 0xb
 3397 071c F21B0000 		.4byte	.LASF246
 3398 0720 E601     		.sleb128 230
 3399 0722 0B       		.uleb128 0xb
 3400 0723 32150000 		.4byte	.LASF247
 3401 0727 E701     		.sleb128 231
 3402 0729 0B       		.uleb128 0xb
 3403 072a 180B0000 		.4byte	.LASF248
 3404 072e E801     		.sleb128 232
 3405 0730 0B       		.uleb128 0xb
 3406 0731 A3300000 		.4byte	.LASF249
 3407 0735 E901     		.sleb128 233
 3408 0737 0B       		.uleb128 0xb
 3409 0738 872A0000 		.4byte	.LASF250
 3410 073c EA01     		.sleb128 234
 3411 073e 0B       		.uleb128 0xb
 3412 073f 701F0000 		.4byte	.LASF251
 3413 0743 EB01     		.sleb128 235
 3414 0745 0B       		.uleb128 0xb
 3415 0746 502B0000 		.4byte	.LASF252
ARM GAS  C:\Users\AHMED~1.ELE\AppData\Local\Temp\ccAhPyWN.s 			page 82


 3416 074a EC01     		.sleb128 236
 3417 074c 0B       		.uleb128 0xb
 3418 074d 1E280000 		.4byte	.LASF253
 3419 0751 ED01     		.sleb128 237
 3420 0753 0B       		.uleb128 0xb
 3421 0754 3D070000 		.4byte	.LASF254
 3422 0758 EE01     		.sleb128 238
 3423 075a 0B       		.uleb128 0xb
 3424 075b B22B0000 		.4byte	.LASF255
 3425 075f EF01     		.sleb128 239
 3426 0761 0B       		.uleb128 0xb
 3427 0762 DE2E0000 		.4byte	.LASF256
 3428 0766 F001     		.sleb128 240
 3429 0768 0B       		.uleb128 0xb
 3430 0769 61170000 		.4byte	.LASF257
 3431 076d F101     		.sleb128 241
 3432 076f 0B       		.uleb128 0xb
 3433 0770 FD1F0000 		.4byte	.LASF258
 3434 0774 F201     		.sleb128 242
 3435 0776 0B       		.uleb128 0xb
 3436 0777 F31A0000 		.4byte	.LASF259
 3437 077b F301     		.sleb128 243
 3438 077d 0B       		.uleb128 0xb
 3439 077e 59090000 		.4byte	.LASF260
 3440 0782 F401     		.sleb128 244
 3441 0784 0B       		.uleb128 0xb
 3442 0785 57250000 		.4byte	.LASF261
 3443 0789 F501     		.sleb128 245
 3444 078b 0B       		.uleb128 0xb
 3445 078c A6250000 		.4byte	.LASF262
 3446 0790 F601     		.sleb128 246
 3447 0792 0B       		.uleb128 0xb
 3448 0793 660C0000 		.4byte	.LASF263
 3449 0797 F701     		.sleb128 247
 3450 0799 0B       		.uleb128 0xb
 3451 079a F71E0000 		.4byte	.LASF264
 3452 079e F801     		.sleb128 248
 3453 07a0 0B       		.uleb128 0xb
 3454 07a1 E2140000 		.4byte	.LASF265
 3455 07a5 F901     		.sleb128 249
 3456 07a7 0B       		.uleb128 0xb
 3457 07a8 40210000 		.4byte	.LASF266
 3458 07ac FA01     		.sleb128 250
 3459 07ae 0B       		.uleb128 0xb
 3460 07af 10170000 		.4byte	.LASF267
 3461 07b3 FB01     		.sleb128 251
 3462 07b5 0B       		.uleb128 0xb
 3463 07b6 80310000 		.4byte	.LASF268
 3464 07ba FC01     		.sleb128 252
 3465 07bc 0B       		.uleb128 0xb
 3466 07bd 15110000 		.4byte	.LASF269
 3467 07c1 FD01     		.sleb128 253
 3468 07c3 0B       		.uleb128 0xb
 3469 07c4 322F0000 		.4byte	.LASF270
 3470 07c8 FE01     		.sleb128 254
 3471 07ca 0B       		.uleb128 0xb
 3472 07cb 0C140000 		.4byte	.LASF271
ARM GAS  C:\Users\AHMED~1.ELE\AppData\Local\Temp\ccAhPyWN.s 			page 83


 3473 07cf FF01     		.sleb128 255
 3474 07d1 0B       		.uleb128 0xb
 3475 07d2 722E0000 		.4byte	.LASF272
 3476 07d6 8002     		.sleb128 256
 3477 07d8 0B       		.uleb128 0xb
 3478 07d9 1F170000 		.4byte	.LASF273
 3479 07dd 8102     		.sleb128 257
 3480 07df 0B       		.uleb128 0xb
 3481 07e0 BF220000 		.4byte	.LASF274
 3482 07e4 8202     		.sleb128 258
 3483 07e6 0B       		.uleb128 0xb
 3484 07e7 E9260000 		.4byte	.LASF275
 3485 07eb 8302     		.sleb128 259
 3486 07ed 0B       		.uleb128 0xb
 3487 07ee E70E0000 		.4byte	.LASF276
 3488 07f2 8402     		.sleb128 260
 3489 07f4 0B       		.uleb128 0xb
 3490 07f5 2C140000 		.4byte	.LASF277
 3491 07f9 8502     		.sleb128 261
 3492 07fb 0B       		.uleb128 0xb
 3493 07fc D2030000 		.4byte	.LASF278
 3494 0800 8602     		.sleb128 262
 3495 0802 0B       		.uleb128 0xb
 3496 0803 C4180000 		.4byte	.LASF279
 3497 0807 8702     		.sleb128 263
 3498 0809 0B       		.uleb128 0xb
 3499 080a 7F070000 		.4byte	.LASF280
 3500 080e 8802     		.sleb128 264
 3501 0810 0B       		.uleb128 0xb
 3502 0811 0D120000 		.4byte	.LASF281
 3503 0815 8902     		.sleb128 265
 3504 0817 0B       		.uleb128 0xb
 3505 0818 562A0000 		.4byte	.LASF282
 3506 081c 8A02     		.sleb128 266
 3507 081e 0B       		.uleb128 0xb
 3508 081f AE100000 		.4byte	.LASF283
 3509 0823 8B02     		.sleb128 267
 3510 0825 0B       		.uleb128 0xb
 3511 0826 090E0000 		.4byte	.LASF284
 3512 082a 8C02     		.sleb128 268
 3513 082c 0B       		.uleb128 0xb
 3514 082d 95260000 		.4byte	.LASF285
 3515 0831 8D02     		.sleb128 269
 3516 0833 0B       		.uleb128 0xb
 3517 0834 800E0000 		.4byte	.LASF286
 3518 0838 8E02     		.sleb128 270
 3519 083a 0B       		.uleb128 0xb
 3520 083b 0F080000 		.4byte	.LASF287
 3521 083f 8F02     		.sleb128 271
 3522 0841 0B       		.uleb128 0xb
 3523 0842 45090000 		.4byte	.LASF288
 3524 0846 9002     		.sleb128 272
 3525 0848 0B       		.uleb128 0xb
 3526 0849 91020000 		.4byte	.LASF289
 3527 084d 9102     		.sleb128 273
 3528 084f 0B       		.uleb128 0xb
 3529 0850 6E310000 		.4byte	.LASF290
ARM GAS  C:\Users\AHMED~1.ELE\AppData\Local\Temp\ccAhPyWN.s 			page 84


 3530 0854 9202     		.sleb128 274
 3531 0856 0B       		.uleb128 0xb
 3532 0857 752A0000 		.4byte	.LASF291
 3533 085b 9302     		.sleb128 275
 3534 085d 0B       		.uleb128 0xb
 3535 085e FE300000 		.4byte	.LASF292
 3536 0862 9402     		.sleb128 276
 3537 0864 0B       		.uleb128 0xb
 3538 0865 93140000 		.4byte	.LASF293
 3539 0869 9502     		.sleb128 277
 3540 086b 0B       		.uleb128 0xb
 3541 086c 4A030000 		.4byte	.LASF294
 3542 0870 9602     		.sleb128 278
 3543 0872 0B       		.uleb128 0xb
 3544 0873 061B0000 		.4byte	.LASF295
 3545 0877 9702     		.sleb128 279
 3546 0879 0B       		.uleb128 0xb
 3547 087a 5E040000 		.4byte	.LASF296
 3548 087e 9802     		.sleb128 280
 3549 0880 0B       		.uleb128 0xb
 3550 0881 A71A0000 		.4byte	.LASF297
 3551 0885 9902     		.sleb128 281
 3552 0887 0B       		.uleb128 0xb
 3553 0888 251E0000 		.4byte	.LASF298
 3554 088c 9A02     		.sleb128 282
 3555 088e 0B       		.uleb128 0xb
 3556 088f 4D020000 		.4byte	.LASF299
 3557 0893 9B02     		.sleb128 283
 3558 0895 0B       		.uleb128 0xb
 3559 0896 B3080000 		.4byte	.LASF300
 3560 089a 9C02     		.sleb128 284
 3561 089c 0B       		.uleb128 0xb
 3562 089d AE180000 		.4byte	.LASF301
 3563 08a1 9D02     		.sleb128 285
 3564 08a3 0B       		.uleb128 0xb
 3565 08a4 99150000 		.4byte	.LASF302
 3566 08a8 9E02     		.sleb128 286
 3567 08aa 0B       		.uleb128 0xb
 3568 08ab 16010000 		.4byte	.LASF303
 3569 08af 9F02     		.sleb128 287
 3570 08b1 0B       		.uleb128 0xb
 3571 08b2 51270000 		.4byte	.LASF304
 3572 08b6 A002     		.sleb128 288
 3573 08b8 0B       		.uleb128 0xb
 3574 08b9 3C040000 		.4byte	.LASF305
 3575 08bd A102     		.sleb128 289
 3576 08bf 0B       		.uleb128 0xb
 3577 08c0 801F0000 		.4byte	.LASF306
 3578 08c4 A202     		.sleb128 290
 3579 08c6 0B       		.uleb128 0xb
 3580 08c7 A5290000 		.4byte	.LASF307
 3581 08cb A302     		.sleb128 291
 3582 08cd 0B       		.uleb128 0xb
 3583 08ce DC230000 		.4byte	.LASF308
 3584 08d2 A402     		.sleb128 292
 3585 08d4 0B       		.uleb128 0xb
 3586 08d5 D0120000 		.4byte	.LASF309
ARM GAS  C:\Users\AHMED~1.ELE\AppData\Local\Temp\ccAhPyWN.s 			page 85


 3587 08d9 A502     		.sleb128 293
 3588 08db 0B       		.uleb128 0xb
 3589 08dc 622C0000 		.4byte	.LASF310
 3590 08e0 A602     		.sleb128 294
 3591 08e2 0B       		.uleb128 0xb
 3592 08e3 EC240000 		.4byte	.LASF311
 3593 08e7 A702     		.sleb128 295
 3594 08e9 0B       		.uleb128 0xb
 3595 08ea 7B220000 		.4byte	.LASF312
 3596 08ee A802     		.sleb128 296
 3597 08f0 0B       		.uleb128 0xb
 3598 08f1 961B0000 		.4byte	.LASF313
 3599 08f5 A902     		.sleb128 297
 3600 08f7 0B       		.uleb128 0xb
 3601 08f8 A3010000 		.4byte	.LASF314
 3602 08fc AA02     		.sleb128 298
 3603 08fe 0B       		.uleb128 0xb
 3604 08ff 50000000 		.4byte	.LASF315
 3605 0903 AB02     		.sleb128 299
 3606 0905 0B       		.uleb128 0xb
 3607 0906 12200000 		.4byte	.LASF316
 3608 090a AC02     		.sleb128 300
 3609 090c 0B       		.uleb128 0xb
 3610 090d F8110000 		.4byte	.LASF317
 3611 0911 AD02     		.sleb128 301
 3612 0913 0B       		.uleb128 0xb
 3613 0914 CD0A0000 		.4byte	.LASF318
 3614 0918 AE02     		.sleb128 302
 3615 091a 0B       		.uleb128 0xb
 3616 091b 95090000 		.4byte	.LASF319
 3617 091f AF02     		.sleb128 303
 3618 0921 0B       		.uleb128 0xb
 3619 0922 1B2A0000 		.4byte	.LASF320
 3620 0926 B002     		.sleb128 304
 3621 0928 0B       		.uleb128 0xb
 3622 0929 FC310000 		.4byte	.LASF321
 3623 092d B102     		.sleb128 305
 3624 092f 0B       		.uleb128 0xb
 3625 0930 A52E0000 		.4byte	.LASF322
 3626 0934 B202     		.sleb128 306
 3627 0936 0B       		.uleb128 0xb
 3628 0937 6E130000 		.4byte	.LASF323
 3629 093b B302     		.sleb128 307
 3630 093d 0B       		.uleb128 0xb
 3631 093e AE1D0000 		.4byte	.LASF324
 3632 0942 B402     		.sleb128 308
 3633 0944 0B       		.uleb128 0xb
 3634 0945 C4200000 		.4byte	.LASF325
 3635 0949 B502     		.sleb128 309
 3636 094b 0B       		.uleb128 0xb
 3637 094c 3E0A0000 		.4byte	.LASF326
 3638 0950 B602     		.sleb128 310
 3639 0952 0B       		.uleb128 0xb
 3640 0953 13000000 		.4byte	.LASF327
 3641 0957 B702     		.sleb128 311
 3642 0959 0B       		.uleb128 0xb
 3643 095a B50D0000 		.4byte	.LASF328
ARM GAS  C:\Users\AHMED~1.ELE\AppData\Local\Temp\ccAhPyWN.s 			page 86


 3644 095e B802     		.sleb128 312
 3645 0960 0B       		.uleb128 0xb
 3646 0961 042A0000 		.4byte	.LASF329
 3647 0965 B902     		.sleb128 313
 3648 0967 0B       		.uleb128 0xb
 3649 0968 73200000 		.4byte	.LASF330
 3650 096c BA02     		.sleb128 314
 3651 096e 0B       		.uleb128 0xb
 3652 096f D4220000 		.4byte	.LASF331
 3653 0973 BB02     		.sleb128 315
 3654 0975 0B       		.uleb128 0xb
 3655 0976 51010000 		.4byte	.LASF332
 3656 097a BC02     		.sleb128 316
 3657 097c 0B       		.uleb128 0xb
 3658 097d 4B320000 		.4byte	.LASF333
 3659 0981 BD02     		.sleb128 317
 3660 0983 0B       		.uleb128 0xb
 3661 0984 88320000 		.4byte	.LASF334
 3662 0988 BE02     		.sleb128 318
 3663 098a 0B       		.uleb128 0xb
 3664 098b 9E230000 		.4byte	.LASF335
 3665 098f BF02     		.sleb128 319
 3666 0991 0B       		.uleb128 0xb
 3667 0992 80130000 		.4byte	.LASF336
 3668 0996 C002     		.sleb128 320
 3669 0998 0B       		.uleb128 0xb
 3670 0999 11300000 		.4byte	.LASF337
 3671 099d C102     		.sleb128 321
 3672 099f 0B       		.uleb128 0xb
 3673 09a0 3F050000 		.4byte	.LASF338
 3674 09a4 C202     		.sleb128 322
 3675 09a6 0B       		.uleb128 0xb
 3676 09a7 64010000 		.4byte	.LASF339
 3677 09ab C302     		.sleb128 323
 3678 09ad 0B       		.uleb128 0xb
 3679 09ae 28000000 		.4byte	.LASF340
 3680 09b2 C402     		.sleb128 324
 3681 09b4 0B       		.uleb128 0xb
 3682 09b5 AC240000 		.4byte	.LASF341
 3683 09b9 C502     		.sleb128 325
 3684 09bb 0B       		.uleb128 0xb
 3685 09bc 90070000 		.4byte	.LASF342
 3686 09c0 C602     		.sleb128 326
 3687 09c2 0B       		.uleb128 0xb
 3688 09c3 16100000 		.4byte	.LASF343
 3689 09c7 C702     		.sleb128 327
 3690 09c9 0B       		.uleb128 0xb
 3691 09ca F0080000 		.4byte	.LASF344
 3692 09ce C802     		.sleb128 328
 3693 09d0 0B       		.uleb128 0xb
 3694 09d1 CC280000 		.4byte	.LASF345
 3695 09d5 C902     		.sleb128 329
 3696 09d7 0B       		.uleb128 0xb
 3697 09d8 BA270000 		.4byte	.LASF346
 3698 09dc CA02     		.sleb128 330
 3699 09de 0B       		.uleb128 0xb
 3700 09df 3D2A0000 		.4byte	.LASF347
ARM GAS  C:\Users\AHMED~1.ELE\AppData\Local\Temp\ccAhPyWN.s 			page 87


 3701 09e3 CB02     		.sleb128 331
 3702 09e5 0B       		.uleb128 0xb
 3703 09e6 65050000 		.4byte	.LASF348
 3704 09ea CC02     		.sleb128 332
 3705 09ec 0B       		.uleb128 0xb
 3706 09ed 711B0000 		.4byte	.LASF349
 3707 09f1 CD02     		.sleb128 333
 3708 09f3 0B       		.uleb128 0xb
 3709 09f4 7B1E0000 		.4byte	.LASF350
 3710 09f8 CE02     		.sleb128 334
 3711 09fa 0B       		.uleb128 0xb
 3712 09fb 49300000 		.4byte	.LASF351
 3713 09ff CF02     		.sleb128 335
 3714 0a01 0B       		.uleb128 0xb
 3715 0a02 C91C0000 		.4byte	.LASF352
 3716 0a06 D002     		.sleb128 336
 3717 0a08 0B       		.uleb128 0xb
 3718 0a09 530D0000 		.4byte	.LASF353
 3719 0a0d D102     		.sleb128 337
 3720 0a0f 0B       		.uleb128 0xb
 3721 0a10 A0110000 		.4byte	.LASF354
 3722 0a14 D202     		.sleb128 338
 3723 0a16 0B       		.uleb128 0xb
 3724 0a17 3F180000 		.4byte	.LASF355
 3725 0a1b D302     		.sleb128 339
 3726 0a1d 0B       		.uleb128 0xb
 3727 0a1e 99030000 		.4byte	.LASF356
 3728 0a22 D402     		.sleb128 340
 3729 0a24 0B       		.uleb128 0xb
 3730 0a25 3E200000 		.4byte	.LASF357
 3731 0a29 D502     		.sleb128 341
 3732 0a2b 0B       		.uleb128 0xb
 3733 0a2c B22F0000 		.4byte	.LASF358
 3734 0a30 D602     		.sleb128 342
 3735 0a32 0B       		.uleb128 0xb
 3736 0a33 90220000 		.4byte	.LASF359
 3737 0a37 D702     		.sleb128 343
 3738 0a39 0B       		.uleb128 0xb
 3739 0a3a 331A0000 		.4byte	.LASF360
 3740 0a3e D802     		.sleb128 344
 3741 0a40 0B       		.uleb128 0xb
 3742 0a41 25230000 		.4byte	.LASF361
 3743 0a45 D902     		.sleb128 345
 3744 0a47 0B       		.uleb128 0xb
 3745 0a48 9C0F0000 		.4byte	.LASF362
 3746 0a4c DA02     		.sleb128 346
 3747 0a4e 0B       		.uleb128 0xb
 3748 0a4f 1D210000 		.4byte	.LASF363
 3749 0a53 DB02     		.sleb128 347
 3750 0a55 0B       		.uleb128 0xb
 3751 0a56 FA170000 		.4byte	.LASF364
 3752 0a5a DC02     		.sleb128 348
 3753 0a5c 0B       		.uleb128 0xb
 3754 0a5d D9210000 		.4byte	.LASF365
 3755 0a61 DD02     		.sleb128 349
 3756 0a63 0B       		.uleb128 0xb
 3757 0a64 6A1A0000 		.4byte	.LASF366
ARM GAS  C:\Users\AHMED~1.ELE\AppData\Local\Temp\ccAhPyWN.s 			page 88


 3758 0a68 DE02     		.sleb128 350
 3759 0a6a 0B       		.uleb128 0xb
 3760 0a6b 16290000 		.4byte	.LASF367
 3761 0a6f DF02     		.sleb128 351
 3762 0a71 0B       		.uleb128 0xb
 3763 0a72 60020000 		.4byte	.LASF368
 3764 0a76 E002     		.sleb128 352
 3765 0a78 0B       		.uleb128 0xb
 3766 0a79 CE100000 		.4byte	.LASF369
 3767 0a7d E102     		.sleb128 353
 3768 0a7f 0B       		.uleb128 0xb
 3769 0a80 71290000 		.4byte	.LASF370
 3770 0a84 E202     		.sleb128 354
 3771 0a86 0B       		.uleb128 0xb
 3772 0a87 45150000 		.4byte	.LASF371
 3773 0a8b E302     		.sleb128 355
 3774 0a8d 0B       		.uleb128 0xb
 3775 0a8e D3140000 		.4byte	.LASF372
 3776 0a92 E402     		.sleb128 356
 3777 0a94 0B       		.uleb128 0xb
 3778 0a95 930E0000 		.4byte	.LASF373
 3779 0a99 E502     		.sleb128 357
 3780 0a9b 0B       		.uleb128 0xb
 3781 0a9c 98250000 		.4byte	.LASF374
 3782 0aa0 E602     		.sleb128 358
 3783 0aa2 0B       		.uleb128 0xb
 3784 0aa3 3A320000 		.4byte	.LASF375
 3785 0aa7 E702     		.sleb128 359
 3786 0aa9 0B       		.uleb128 0xb
 3787 0aaa 942B0000 		.4byte	.LASF376
 3788 0aae E802     		.sleb128 360
 3789 0ab0 0B       		.uleb128 0xb
 3790 0ab1 1F1C0000 		.4byte	.LASF377
 3791 0ab5 E902     		.sleb128 361
 3792 0ab7 0B       		.uleb128 0xb
 3793 0ab8 9F280000 		.4byte	.LASF378
 3794 0abc EA02     		.sleb128 362
 3795 0abe 0B       		.uleb128 0xb
 3796 0abf C40F0000 		.4byte	.LASF379
 3797 0ac3 EB02     		.sleb128 363
 3798 0ac5 0B       		.uleb128 0xb
 3799 0ac6 D40F0000 		.4byte	.LASF380
 3800 0aca EC02     		.sleb128 364
 3801 0acc 0B       		.uleb128 0xb
 3802 0acd B02D0000 		.4byte	.LASF381
 3803 0ad1 ED02     		.sleb128 365
 3804 0ad3 0B       		.uleb128 0xb
 3805 0ad4 6E2D0000 		.4byte	.LASF382
 3806 0ad8 EE02     		.sleb128 366
 3807 0ada 0B       		.uleb128 0xb
 3808 0adb 53060000 		.4byte	.LASF383
 3809 0adf EF02     		.sleb128 367
 3810 0ae1 0B       		.uleb128 0xb
 3811 0ae2 E7190000 		.4byte	.LASF384
 3812 0ae6 F002     		.sleb128 368
 3813 0ae8 0B       		.uleb128 0xb
 3814 0ae9 6D070000 		.4byte	.LASF385
ARM GAS  C:\Users\AHMED~1.ELE\AppData\Local\Temp\ccAhPyWN.s 			page 89


 3815 0aed F102     		.sleb128 369
 3816 0aef 0B       		.uleb128 0xb
 3817 0af0 A5260000 		.4byte	.LASF386
 3818 0af4 F202     		.sleb128 370
 3819 0af6 0B       		.uleb128 0xb
 3820 0af7 02100000 		.4byte	.LASF387
 3821 0afb F302     		.sleb128 371
 3822 0afd 0B       		.uleb128 0xb
 3823 0afe 4C1F0000 		.4byte	.LASF388
 3824 0b02 F402     		.sleb128 372
 3825 0b04 0B       		.uleb128 0xb
 3826 0b05 0A0F0000 		.4byte	.LASF389
 3827 0b09 F502     		.sleb128 373
 3828 0b0b 0B       		.uleb128 0xb
 3829 0b0c 1D2D0000 		.4byte	.LASF390
 3830 0b10 F602     		.sleb128 374
 3831 0b12 0B       		.uleb128 0xb
 3832 0b13 26080000 		.4byte	.LASF391
 3833 0b17 F702     		.sleb128 375
 3834 0b19 0B       		.uleb128 0xb
 3835 0b1a 7E300000 		.4byte	.LASF392
 3836 0b1e F802     		.sleb128 376
 3837 0b20 0B       		.uleb128 0xb
 3838 0b21 06150000 		.4byte	.LASF393
 3839 0b25 F902     		.sleb128 377
 3840 0b27 0B       		.uleb128 0xb
 3841 0b28 CD1A0000 		.4byte	.LASF394
 3842 0b2c FA02     		.sleb128 378
 3843 0b2e 0B       		.uleb128 0xb
 3844 0b2f F6120000 		.4byte	.LASF395
 3845 0b33 FB02     		.sleb128 379
 3846 0b35 0B       		.uleb128 0xb
 3847 0b36 7A230000 		.4byte	.LASF396
 3848 0b3a FC02     		.sleb128 380
 3849 0b3c 0B       		.uleb128 0xb
 3850 0b3d E21D0000 		.4byte	.LASF397
 3851 0b41 FD02     		.sleb128 381
 3852 0b43 0B       		.uleb128 0xb
 3853 0b44 0C270000 		.4byte	.LASF398
 3854 0b48 FE02     		.sleb128 382
 3855 0b4a 0B       		.uleb128 0xb
 3856 0b4b D1050000 		.4byte	.LASF399
 3857 0b4f FF02     		.sleb128 383
 3858 0b51 0B       		.uleb128 0xb
 3859 0b52 3E220000 		.4byte	.LASF400
 3860 0b56 8003     		.sleb128 384
 3861 0b58 0B       		.uleb128 0xb
 3862 0b59 65110000 		.4byte	.LASF401
 3863 0b5d 8103     		.sleb128 385
 3864 0b5f 0B       		.uleb128 0xb
 3865 0b60 7E2C0000 		.4byte	.LASF402
 3866 0b64 8203     		.sleb128 386
 3867 0b66 0B       		.uleb128 0xb
 3868 0b67 DA150000 		.4byte	.LASF403
 3869 0b6b 8303     		.sleb128 387
 3870 0b6d 0B       		.uleb128 0xb
 3871 0b6e DD090000 		.4byte	.LASF404
ARM GAS  C:\Users\AHMED~1.ELE\AppData\Local\Temp\ccAhPyWN.s 			page 90


 3872 0b72 8403     		.sleb128 388
 3873 0b74 0B       		.uleb128 0xb
 3874 0b75 95190000 		.4byte	.LASF405
 3875 0b79 8503     		.sleb128 389
 3876 0b7b 0B       		.uleb128 0xb
 3877 0b7c 02070000 		.4byte	.LASF406
 3878 0b80 8603     		.sleb128 390
 3879 0b82 0B       		.uleb128 0xb
 3880 0b83 3A0B0000 		.4byte	.LASF407
 3881 0b87 8703     		.sleb128 391
 3882 0b89 0B       		.uleb128 0xb
 3883 0b8a 90200000 		.4byte	.LASF408
 3884 0b8e 8803     		.sleb128 392
 3885 0b90 0B       		.uleb128 0xb
 3886 0b91 C00C0000 		.4byte	.LASF409
 3887 0b95 8903     		.sleb128 393
 3888 0b97 0B       		.uleb128 0xb
 3889 0b98 3F310000 		.4byte	.LASF410
 3890 0b9c 8A03     		.sleb128 394
 3891 0b9e 0B       		.uleb128 0xb
 3892 0b9f 6D240000 		.4byte	.LASF411
 3893 0ba3 8B03     		.sleb128 395
 3894 0ba5 0B       		.uleb128 0xb
 3895 0ba6 60280000 		.4byte	.LASF412
 3896 0baa 8C03     		.sleb128 396
 3897 0bac 0B       		.uleb128 0xb
 3898 0bad C52B0000 		.4byte	.LASF413
 3899 0bb1 8D03     		.sleb128 397
 3900 0bb3 0B       		.uleb128 0xb
 3901 0bb4 C1000000 		.4byte	.LASF414
 3902 0bb8 8E03     		.sleb128 398
 3903 0bba 0B       		.uleb128 0xb
 3904 0bbb 111F0000 		.4byte	.LASF415
 3905 0bbf 8F03     		.sleb128 399
 3906 0bc1 0B       		.uleb128 0xb
 3907 0bc2 DC110000 		.4byte	.LASF416
 3908 0bc6 9003     		.sleb128 400
 3909 0bc8 0B       		.uleb128 0xb
 3910 0bc9 FC2A0000 		.4byte	.LASF417
 3911 0bcd 9103     		.sleb128 401
 3912 0bcf 0B       		.uleb128 0xb
 3913 0bd0 F0100000 		.4byte	.LASF418
 3914 0bd4 9203     		.sleb128 402
 3915 0bd6 0B       		.uleb128 0xb
 3916 0bd7 381E0000 		.4byte	.LASF419
 3917 0bdb 9303     		.sleb128 403
 3918 0bdd 0B       		.uleb128 0xb
 3919 0bde 1B220000 		.4byte	.LASF420
 3920 0be2 9403     		.sleb128 404
 3921 0be4 0B       		.uleb128 0xb
 3922 0be5 61060000 		.4byte	.LASF421
 3923 0be9 9503     		.sleb128 405
 3924 0beb 0B       		.uleb128 0xb
 3925 0bec 03260000 		.4byte	.LASF422
 3926 0bf0 9603     		.sleb128 406
 3927 0bf2 0B       		.uleb128 0xb
 3928 0bf3 BF050000 		.4byte	.LASF423
ARM GAS  C:\Users\AHMED~1.ELE\AppData\Local\Temp\ccAhPyWN.s 			page 91


 3929 0bf7 9703     		.sleb128 407
 3930 0bf9 0B       		.uleb128 0xb
 3931 0bfa 89150000 		.4byte	.LASF424
 3932 0bfe 9803     		.sleb128 408
 3933 0c00 0B       		.uleb128 0xb
 3934 0c01 BC1F0000 		.4byte	.LASF425
 3935 0c05 9903     		.sleb128 409
 3936 0c07 0B       		.uleb128 0xb
 3937 0c08 BF2D0000 		.4byte	.LASF426
 3938 0c0c 9A03     		.sleb128 410
 3939 0c0e 0B       		.uleb128 0xb
 3940 0c0f 62000000 		.4byte	.LASF427
 3941 0c13 9B03     		.sleb128 411
 3942 0c15 0B       		.uleb128 0xb
 3943 0c16 38170000 		.4byte	.LASF428
 3944 0c1a 9C03     		.sleb128 412
 3945 0c1c 0B       		.uleb128 0xb
 3946 0c1d 52120000 		.4byte	.LASF429
 3947 0c21 9D03     		.sleb128 413
 3948 0c23 0B       		.uleb128 0xb
 3949 0c24 F11F0000 		.4byte	.LASF430
 3950 0c28 9E03     		.sleb128 414
 3951 0c2a 0B       		.uleb128 0xb
 3952 0c2b 662A0000 		.4byte	.LASF431
 3953 0c2f 9F03     		.sleb128 415
 3954 0c31 0B       		.uleb128 0xb
 3955 0c32 1A0E0000 		.4byte	.LASF432
 3956 0c36 A003     		.sleb128 416
 3957 0c38 0B       		.uleb128 0xb
 3958 0c39 1A130000 		.4byte	.LASF433
 3959 0c3d A103     		.sleb128 417
 3960 0c3f 0B       		.uleb128 0xb
 3961 0c40 C10A0000 		.4byte	.LASF434
 3962 0c44 A203     		.sleb128 418
 3963 0c46 0B       		.uleb128 0xb
 3964 0c47 DD0B0000 		.4byte	.LASF435
 3965 0c4b A303     		.sleb128 419
 3966 0c4d 0B       		.uleb128 0xb
 3967 0c4e E0020000 		.4byte	.LASF436
 3968 0c52 A403     		.sleb128 420
 3969 0c54 0B       		.uleb128 0xb
 3970 0c55 C61D0000 		.4byte	.LASF437
 3971 0c59 A503     		.sleb128 421
 3972 0c5b 0B       		.uleb128 0xb
 3973 0c5c 512E0000 		.4byte	.LASF438
 3974 0c60 A603     		.sleb128 422
 3975 0c62 0B       		.uleb128 0xb
 3976 0c63 D7040000 		.4byte	.LASF439
 3977 0c67 A703     		.sleb128 423
 3978 0c69 0B       		.uleb128 0xb
 3979 0c6a 2F190000 		.4byte	.LASF440
 3980 0c6e A803     		.sleb128 424
 3981 0c70 0B       		.uleb128 0xb
 3982 0c71 7A020000 		.4byte	.LASF441
 3983 0c75 A903     		.sleb128 425
 3984 0c77 0B       		.uleb128 0xb
 3985 0c78 5B070000 		.4byte	.LASF442
ARM GAS  C:\Users\AHMED~1.ELE\AppData\Local\Temp\ccAhPyWN.s 			page 92


 3986 0c7c AA03     		.sleb128 426
 3987 0c7e 0B       		.uleb128 0xb
 3988 0c7f 9C310000 		.4byte	.LASF443
 3989 0c83 AB03     		.sleb128 427
 3990 0c85 0B       		.uleb128 0xb
 3991 0c86 02220000 		.4byte	.LASF444
 3992 0c8a AC03     		.sleb128 428
 3993 0c8c 0B       		.uleb128 0xb
 3994 0c8d 88110000 		.4byte	.LASF445
 3995 0c91 AD03     		.sleb128 429
 3996 0c93 0B       		.uleb128 0xb
 3997 0c94 8B1D0000 		.4byte	.LASF446
 3998 0c98 AE03     		.sleb128 430
 3999 0c9a 0B       		.uleb128 0xb
 4000 0c9b B7300000 		.4byte	.LASF447
 4001 0c9f AF03     		.sleb128 431
 4002 0ca1 0B       		.uleb128 0xb
 4003 0ca2 F50D0000 		.4byte	.LASF448
 4004 0ca6 B003     		.sleb128 432
 4005 0ca8 0B       		.uleb128 0xb
 4006 0ca9 D3070000 		.4byte	.LASF449
 4007 0cad B103     		.sleb128 433
 4008 0caf 0B       		.uleb128 0xb
 4009 0cb0 A01C0000 		.4byte	.LASF450
 4010 0cb4 B203     		.sleb128 434
 4011 0cb6 0B       		.uleb128 0xb
 4012 0cb7 BC120000 		.4byte	.LASF451
 4013 0cbb B303     		.sleb128 435
 4014 0cbd 0B       		.uleb128 0xb
 4015 0cbe 321D0000 		.4byte	.LASF452
 4016 0cc2 B403     		.sleb128 436
 4017 0cc4 0B       		.uleb128 0xb
 4018 0cc5 AF070000 		.4byte	.LASF453
 4019 0cc9 B503     		.sleb128 437
 4020 0ccb 0B       		.uleb128 0xb
 4021 0ccc CC0E0000 		.4byte	.LASF454
 4022 0cd0 B603     		.sleb128 438
 4023 0cd2 0B       		.uleb128 0xb
 4024 0cd3 E2170000 		.4byte	.LASF455
 4025 0cd7 B703     		.sleb128 439
 4026 0cd9 0B       		.uleb128 0xb
 4027 0cda 820F0000 		.4byte	.LASF456
 4028 0cde B803     		.sleb128 440
 4029 0ce0 0B       		.uleb128 0xb
 4030 0ce1 84010000 		.4byte	.LASF457
 4031 0ce5 B903     		.sleb128 441
 4032 0ce7 0B       		.uleb128 0xb
 4033 0ce8 54260000 		.4byte	.LASF458
 4034 0cec BA03     		.sleb128 442
 4035 0cee 0B       		.uleb128 0xb
 4036 0cef FC280000 		.4byte	.LASF459
 4037 0cf3 BB03     		.sleb128 443
 4038 0cf5 0B       		.uleb128 0xb
 4039 0cf6 DA080000 		.4byte	.LASF460
 4040 0cfa BC03     		.sleb128 444
 4041 0cfc 0B       		.uleb128 0xb
 4042 0cfd 50200000 		.4byte	.LASF461
ARM GAS  C:\Users\AHMED~1.ELE\AppData\Local\Temp\ccAhPyWN.s 			page 93


 4043 0d01 BD03     		.sleb128 445
 4044 0d03 0B       		.uleb128 0xb
 4045 0d04 FC160000 		.4byte	.LASF462
 4046 0d08 BE03     		.sleb128 446
 4047 0d0a 0B       		.uleb128 0xb
 4048 0d0b 20030000 		.4byte	.LASF463
 4049 0d0f BF03     		.sleb128 447
 4050 0d11 0B       		.uleb128 0xb
 4051 0d12 590F0000 		.4byte	.LASF464
 4052 0d16 C003     		.sleb128 448
 4053 0d18 0B       		.uleb128 0xb
 4054 0d19 C4240000 		.4byte	.LASF465
 4055 0d1d C103     		.sleb128 449
 4056 0d1f 0B       		.uleb128 0xb
 4057 0d20 782B0000 		.4byte	.LASF466
 4058 0d24 C203     		.sleb128 450
 4059 0d26 0B       		.uleb128 0xb
 4060 0d27 D82B0000 		.4byte	.LASF467
 4061 0d2b C303     		.sleb128 451
 4062 0d2d 0B       		.uleb128 0xb
 4063 0d2e BC040000 		.4byte	.LASF468
 4064 0d32 C403     		.sleb128 452
 4065 0d34 0B       		.uleb128 0xb
 4066 0d35 E90C0000 		.4byte	.LASF469
 4067 0d39 C503     		.sleb128 453
 4068 0d3b 0B       		.uleb128 0xb
 4069 0d3c 12050000 		.4byte	.LASF470
 4070 0d40 C603     		.sleb128 454
 4071 0d42 0B       		.uleb128 0xb
 4072 0d43 19150000 		.4byte	.LASF471
 4073 0d47 C703     		.sleb128 455
 4074 0d49 0B       		.uleb128 0xb
 4075 0d4a C52F0000 		.4byte	.LASF472
 4076 0d4e C803     		.sleb128 456
 4077 0d50 0B       		.uleb128 0xb
 4078 0d51 960A0000 		.4byte	.LASF473
 4079 0d55 C903     		.sleb128 457
 4080 0d57 0B       		.uleb128 0xb
 4081 0d58 011E0000 		.4byte	.LASF474
 4082 0d5c CA03     		.sleb128 458
 4083 0d5e 0B       		.uleb128 0xb
 4084 0d5f 42230000 		.4byte	.LASF475
 4085 0d63 CB03     		.sleb128 459
 4086 0d65 0B       		.uleb128 0xb
 4087 0d66 81170000 		.4byte	.LASF476
 4088 0d6a CC03     		.sleb128 460
 4089 0d6c 0B       		.uleb128 0xb
 4090 0d6d B6030000 		.4byte	.LASF477
 4091 0d71 CD03     		.sleb128 461
 4092 0d73 0B       		.uleb128 0xb
 4093 0d74 952A0000 		.4byte	.LASF478
 4094 0d78 CE03     		.sleb128 462
 4095 0d7a 0B       		.uleb128 0xb
 4096 0d7b E0010000 		.4byte	.LASF479
 4097 0d7f CF03     		.sleb128 463
 4098 0d81 0B       		.uleb128 0xb
 4099 0d82 A7130000 		.4byte	.LASF480
ARM GAS  C:\Users\AHMED~1.ELE\AppData\Local\Temp\ccAhPyWN.s 			page 94


 4100 0d86 D003     		.sleb128 464
 4101 0d88 0B       		.uleb128 0xb
 4102 0d89 A5140000 		.4byte	.LASF481
 4103 0d8d D103     		.sleb128 465
 4104 0d8f 0B       		.uleb128 0xb
 4105 0d90 ED2C0000 		.4byte	.LASF482
 4106 0d94 D203     		.sleb128 466
 4107 0d96 0B       		.uleb128 0xb
 4108 0d97 67260000 		.4byte	.LASF483
 4109 0d9b D303     		.sleb128 467
 4110 0d9d 0B       		.uleb128 0xb
 4111 0d9e B5020000 		.4byte	.LASF484
 4112 0da2 D403     		.sleb128 468
 4113 0da4 0B       		.uleb128 0xb
 4114 0da5 33090000 		.4byte	.LASF485
 4115 0da9 D503     		.sleb128 469
 4116 0dab 0B       		.uleb128 0xb
 4117 0dac 6A250000 		.4byte	.LASF486
 4118 0db0 D603     		.sleb128 470
 4119 0db2 0B       		.uleb128 0xb
 4120 0db3 1F020000 		.4byte	.LASF487
 4121 0db7 D703     		.sleb128 471
 4122 0db9 0B       		.uleb128 0xb
 4123 0dba AB210000 		.4byte	.LASF488
 4124 0dbe D803     		.sleb128 472
 4125 0dc0 00       		.byte	0
 4126 0dc1 0C       		.uleb128 0xc
 4127 0dc2 01       		.byte	0x1
 4128 0dc3 04       		.byte	0x4
 4129 0dc4 910B     		.2byte	0xb91
 4130 0dc6 4E100000 		.4byte	0x104e
 4131 0dca 0B       		.uleb128 0xb
 4132 0dcb 75030000 		.4byte	.LASF489
 4133 0dcf 00       		.sleb128 0
 4134 0dd0 0B       		.uleb128 0xb
 4135 0dd1 82030000 		.4byte	.LASF490
 4136 0dd5 01       		.sleb128 1
 4137 0dd6 0B       		.uleb128 0xb
 4138 0dd7 56100000 		.4byte	.LASF491
 4139 0ddb 02       		.sleb128 2
 4140 0ddc 0B       		.uleb128 0xb
 4141 0ddd 8F0D0000 		.4byte	.LASF492
 4142 0de1 03       		.sleb128 3
 4143 0de2 0B       		.uleb128 0xb
 4144 0de3 57190000 		.4byte	.LASF493
 4145 0de7 04       		.sleb128 4
 4146 0de8 0B       		.uleb128 0xb
 4147 0de9 11280000 		.4byte	.LASF494
 4148 0ded 05       		.sleb128 5
 4149 0dee 0B       		.uleb128 0xb
 4150 0def 67320000 		.4byte	.LASF495
 4151 0df3 06       		.sleb128 6
 4152 0df4 0B       		.uleb128 0xb
 4153 0df5 651D0000 		.4byte	.LASF496
 4154 0df9 07       		.sleb128 7
 4155 0dfa 0B       		.uleb128 0xb
 4156 0dfb 0F2E0000 		.4byte	.LASF497
ARM GAS  C:\Users\AHMED~1.ELE\AppData\Local\Temp\ccAhPyWN.s 			page 95


 4157 0dff 08       		.sleb128 8
 4158 0e00 0B       		.uleb128 0xb
 4159 0e01 F0200000 		.4byte	.LASF498
 4160 0e05 09       		.sleb128 9
 4161 0e06 0B       		.uleb128 0xb
 4162 0e07 1D2E0000 		.4byte	.LASF499
 4163 0e0b 0A       		.sleb128 10
 4164 0e0c 0B       		.uleb128 0xb
 4165 0e0d A0180000 		.4byte	.LASF500
 4166 0e11 0B       		.sleb128 11
 4167 0e12 0B       		.uleb128 0xb
 4168 0e13 432B0000 		.4byte	.LASF501
 4169 0e17 0C       		.sleb128 12
 4170 0e18 0B       		.uleb128 0xb
 4171 0e19 0B0B0000 		.4byte	.LASF502
 4172 0e1d 0D       		.sleb128 13
 4173 0e1e 0B       		.uleb128 0xb
 4174 0e1f 710B0000 		.4byte	.LASF503
 4175 0e23 0E       		.sleb128 14
 4176 0e24 0B       		.uleb128 0xb
 4177 0e25 89140000 		.4byte	.LASF504
 4178 0e29 0F       		.sleb128 15
 4179 0e2a 0B       		.uleb128 0xb
 4180 0e2b 12020000 		.4byte	.LASF505
 4181 0e2f 10       		.sleb128 16
 4182 0e30 0B       		.uleb128 0xb
 4183 0e31 58130000 		.4byte	.LASF506
 4184 0e35 11       		.sleb128 17
 4185 0e36 0B       		.uleb128 0xb
 4186 0e37 02160000 		.4byte	.LASF507
 4187 0e3b 12       		.sleb128 18
 4188 0e3c 0B       		.uleb128 0xb
 4189 0e3d F4270000 		.4byte	.LASF508
 4190 0e41 13       		.sleb128 19
 4191 0e42 0B       		.uleb128 0xb
 4192 0e43 CA190000 		.4byte	.LASF509
 4193 0e47 14       		.sleb128 20
 4194 0e48 0B       		.uleb128 0xb
 4195 0e49 88260000 		.4byte	.LASF510
 4196 0e4d 15       		.sleb128 21
 4197 0e4e 0B       		.uleb128 0xb
 4198 0e4f 9C2F0000 		.4byte	.LASF511
 4199 0e53 16       		.sleb128 22
 4200 0e54 0B       		.uleb128 0xb
 4201 0e55 35260000 		.4byte	.LASF512
 4202 0e59 17       		.sleb128 23
 4203 0e5a 0B       		.uleb128 0xb
 4204 0e5b 5D180000 		.4byte	.LASF513
 4205 0e5f 18       		.sleb128 24
 4206 0e60 0B       		.uleb128 0xb
 4207 0e61 38110000 		.4byte	.LASF514
 4208 0e65 19       		.sleb128 25
 4209 0e66 0B       		.uleb128 0xb
 4210 0e67 A5050000 		.4byte	.LASF515
 4211 0e6b 1A       		.sleb128 26
 4212 0e6c 0B       		.uleb128 0xb
 4213 0e6d 08040000 		.4byte	.LASF516
ARM GAS  C:\Users\AHMED~1.ELE\AppData\Local\Temp\ccAhPyWN.s 			page 96


 4214 0e71 1B       		.sleb128 27
 4215 0e72 0B       		.uleb128 0xb
 4216 0e73 ED300000 		.4byte	.LASF517
 4217 0e77 1C       		.sleb128 28
 4218 0e78 0B       		.uleb128 0xb
 4219 0e79 A91B0000 		.4byte	.LASF518
 4220 0e7d 1D       		.sleb128 29
 4221 0e7e 0B       		.uleb128 0xb
 4222 0e7f 4A0F0000 		.4byte	.LASF519
 4223 0e83 1E       		.sleb128 30
 4224 0e84 0B       		.uleb128 0xb
 4225 0e85 66190000 		.4byte	.LASF520
 4226 0e89 1F       		.sleb128 31
 4227 0e8a 0B       		.uleb128 0xb
 4228 0e8b E0200000 		.4byte	.LASF521
 4229 0e8f 20       		.sleb128 32
 4230 0e90 0B       		.uleb128 0xb
 4231 0e91 03030000 		.4byte	.LASF522
 4232 0e95 21       		.sleb128 33
 4233 0e96 0B       		.uleb128 0xb
 4234 0e97 461D0000 		.4byte	.LASF523
 4235 0e9b 22       		.sleb128 34
 4236 0e9c 0B       		.uleb128 0xb
 4237 0e9d E70B0000 		.4byte	.LASF524
 4238 0ea1 23       		.sleb128 35
 4239 0ea2 0B       		.uleb128 0xb
 4240 0ea3 10310000 		.4byte	.LASF525
 4241 0ea7 24       		.sleb128 36
 4242 0ea8 0B       		.uleb128 0xb
 4243 0ea9 E6050000 		.4byte	.LASF526
 4244 0ead 25       		.sleb128 37
 4245 0eae 0B       		.uleb128 0xb
 4246 0eaf 962C0000 		.4byte	.LASF527
 4247 0eb3 26       		.sleb128 38
 4248 0eb4 0B       		.uleb128 0xb
 4249 0eb5 73000000 		.4byte	.LASF528
 4250 0eb9 27       		.sleb128 39
 4251 0eba 0B       		.uleb128 0xb
 4252 0ebb 3C0F0000 		.4byte	.LASF529
 4253 0ebf 28       		.sleb128 40
 4254 0ec0 0B       		.uleb128 0xb
 4255 0ec1 FC2F0000 		.4byte	.LASF530
 4256 0ec5 29       		.sleb128 41
 4257 0ec6 0B       		.uleb128 0xb
 4258 0ec7 9D2D0000 		.4byte	.LASF531
 4259 0ecb 2A       		.sleb128 42
 4260 0ecc 0B       		.uleb128 0xb
 4261 0ecd 03110000 		.4byte	.LASF532
 4262 0ed1 2B       		.sleb128 43
 4263 0ed2 0B       		.uleb128 0xb
 4264 0ed3 20260000 		.4byte	.LASF533
 4265 0ed7 2C       		.sleb128 44
 4266 0ed8 0B       		.uleb128 0xb
 4267 0ed9 2C120000 		.4byte	.LASF534
 4268 0edd 2D       		.sleb128 45
 4269 0ede 0B       		.uleb128 0xb
 4270 0edf 2E1F0000 		.4byte	.LASF535
ARM GAS  C:\Users\AHMED~1.ELE\AppData\Local\Temp\ccAhPyWN.s 			page 97


 4271 0ee3 2E       		.sleb128 46
 4272 0ee4 0B       		.uleb128 0xb
 4273 0ee5 0E210000 		.4byte	.LASF536
 4274 0ee9 2F       		.sleb128 47
 4275 0eea 0B       		.uleb128 0xb
 4276 0eeb E71E0000 		.4byte	.LASF537
 4277 0eef 30       		.sleb128 48
 4278 0ef0 0B       		.uleb128 0xb
 4279 0ef1 95170000 		.4byte	.LASF538
 4280 0ef5 31       		.sleb128 49
 4281 0ef6 0B       		.uleb128 0xb
 4282 0ef7 E12A0000 		.4byte	.LASF539
 4283 0efb 32       		.sleb128 50
 4284 0efc 0B       		.uleb128 0xb
 4285 0efd 381F0000 		.4byte	.LASF540
 4286 0f01 33       		.sleb128 51
 4287 0f02 0B       		.uleb128 0xb
 4288 0f03 152C0000 		.4byte	.LASF541
 4289 0f07 34       		.sleb128 52
 4290 0f08 0B       		.uleb128 0xb
 4291 0f09 192F0000 		.4byte	.LASF542
 4292 0f0d 35       		.sleb128 53
 4293 0f0e 0B       		.uleb128 0xb
 4294 0f0f 6A230000 		.4byte	.LASF543
 4295 0f13 36       		.sleb128 54
 4296 0f14 0B       		.uleb128 0xb
 4297 0f15 45130000 		.4byte	.LASF544
 4298 0f19 37       		.sleb128 55
 4299 0f1a 0B       		.uleb128 0xb
 4300 0f1b 38010000 		.4byte	.LASF545
 4301 0f1f 38       		.sleb128 56
 4302 0f20 0B       		.uleb128 0xb
 4303 0f21 D5200000 		.4byte	.LASF546
 4304 0f25 39       		.sleb128 57
 4305 0f26 0B       		.uleb128 0xb
 4306 0f27 AA120000 		.4byte	.LASF547
 4307 0f2b 3A       		.sleb128 58
 4308 0f2c 0B       		.uleb128 0xb
 4309 0f2d EA220000 		.4byte	.LASF548
 4310 0f31 3B       		.sleb128 59
 4311 0f32 0B       		.uleb128 0xb
 4312 0f33 01240000 		.4byte	.LASF549
 4313 0f37 3C       		.sleb128 60
 4314 0f38 0B       		.uleb128 0xb
 4315 0f39 2A010000 		.4byte	.LASF550
 4316 0f3d 3D       		.sleb128 61
 4317 0f3e 0B       		.uleb128 0xb
 4318 0f3f F2130000 		.4byte	.LASF551
 4319 0f43 3E       		.sleb128 62
 4320 0f44 0B       		.uleb128 0xb
 4321 0f45 95130000 		.4byte	.LASF552
 4322 0f49 3F       		.sleb128 63
 4323 0f4a 0B       		.uleb128 0xb
 4324 0f4b D41D0000 		.4byte	.LASF553
 4325 0f4f C000     		.sleb128 64
 4326 0f51 0B       		.uleb128 0xb
 4327 0f52 8A180000 		.4byte	.LASF554
ARM GAS  C:\Users\AHMED~1.ELE\AppData\Local\Temp\ccAhPyWN.s 			page 98


 4328 0f56 C100     		.sleb128 65
 4329 0f58 0B       		.uleb128 0xb
 4330 0f59 232C0000 		.4byte	.LASF555
 4331 0f5d C200     		.sleb128 66
 4332 0f5f 0B       		.uleb128 0xb
 4333 0f60 00000000 		.4byte	.LASF556
 4334 0f64 C300     		.sleb128 67
 4335 0f66 0B       		.uleb128 0xb
 4336 0f67 30180000 		.4byte	.LASF557
 4337 0f6b C400     		.sleb128 68
 4338 0f6d 0B       		.uleb128 0xb
 4339 0f6e 1C060000 		.4byte	.LASF558
 4340 0f72 C500     		.sleb128 69
 4341 0f74 0B       		.uleb128 0xb
 4342 0f75 73280000 		.4byte	.LASF559
 4343 0f79 C600     		.sleb128 70
 4344 0f7b 0B       		.uleb128 0xb
 4345 0f7c EE2A0000 		.4byte	.LASF560
 4346 0f80 C700     		.sleb128 71
 4347 0f82 0B       		.uleb128 0xb
 4348 0f83 6C180000 		.4byte	.LASF561
 4349 0f87 C800     		.sleb128 72
 4350 0f89 0B       		.uleb128 0xb
 4351 0f8a E5280000 		.4byte	.LASF562
 4352 0f8e C900     		.sleb128 73
 4353 0f90 0B       		.uleb128 0xb
 4354 0f91 AE0F0000 		.4byte	.LASF563
 4355 0f95 CA00     		.sleb128 74
 4356 0f97 0B       		.uleb128 0xb
 4357 0f98 BB090000 		.4byte	.LASF564
 4358 0f9c CB00     		.sleb128 75
 4359 0f9e 0B       		.uleb128 0xb
 4360 0f9f 20270000 		.4byte	.LASF565
 4361 0fa3 CC00     		.sleb128 76
 4362 0fa5 0B       		.uleb128 0xb
 4363 0fa6 C31E0000 		.4byte	.LASF566
 4364 0faa CD00     		.sleb128 77
 4365 0fac 0B       		.uleb128 0xb
 4366 0fad 45080000 		.4byte	.LASF567
 4367 0fb1 CE00     		.sleb128 78
 4368 0fb3 0B       		.uleb128 0xb
 4369 0fb4 84250000 		.4byte	.LASF568
 4370 0fb8 CF00     		.sleb128 79
 4371 0fba 0B       		.uleb128 0xb
 4372 0fbb 681C0000 		.4byte	.LASF569
 4373 0fbf D000     		.sleb128 80
 4374 0fc1 0B       		.uleb128 0xb
 4375 0fc2 BE2E0000 		.4byte	.LASF570
 4376 0fc6 D100     		.sleb128 81
 4377 0fc8 0B       		.uleb128 0xb
 4378 0fc9 14240000 		.4byte	.LASF571
 4379 0fcd D200     		.sleb128 82
 4380 0fcf 0B       		.uleb128 0xb
 4381 0fd0 39020000 		.4byte	.LASF572
 4382 0fd4 D300     		.sleb128 83
 4383 0fd6 0B       		.uleb128 0xb
 4384 0fd7 8F080000 		.4byte	.LASF573
ARM GAS  C:\Users\AHMED~1.ELE\AppData\Local\Temp\ccAhPyWN.s 			page 99


 4385 0fdb D400     		.sleb128 84
 4386 0fdd 0B       		.uleb128 0xb
 4387 0fde 581A0000 		.4byte	.LASF574
 4388 0fe2 D500     		.sleb128 85
 4389 0fe4 0B       		.uleb128 0xb
 4390 0fe5 BD170000 		.4byte	.LASF575
 4391 0fe9 D600     		.sleb128 86
 4392 0feb 0B       		.uleb128 0xb
 4393 0fec F7000000 		.4byte	.LASF576
 4394 0ff0 D700     		.sleb128 87
 4395 0ff2 0B       		.uleb128 0xb
 4396 0ff3 3F0E0000 		.4byte	.LASF577
 4397 0ff7 D800     		.sleb128 88
 4398 0ff9 0B       		.uleb128 0xb
 4399 0ffa 4E0E0000 		.4byte	.LASF578
 4400 0ffe D900     		.sleb128 89
 4401 1000 0B       		.uleb128 0xb
 4402 1001 830C0000 		.4byte	.LASF579
 4403 1005 DA00     		.sleb128 90
 4404 1007 0B       		.uleb128 0xb
 4405 1008 1F120000 		.4byte	.LASF580
 4406 100c DB00     		.sleb128 91
 4407 100e 0B       		.uleb128 0xb
 4408 100f 1D1A0000 		.4byte	.LASF581
 4409 1013 DC00     		.sleb128 92
 4410 1015 0B       		.uleb128 0xb
 4411 1016 B9250000 		.4byte	.LASF582
 4412 101a DD00     		.sleb128 93
 4413 101c 0B       		.uleb128 0xb
 4414 101d ED210000 		.4byte	.LASF583
 4415 1021 DE00     		.sleb128 94
 4416 1023 0B       		.uleb128 0xb
 4417 1024 901F0000 		.4byte	.LASF584
 4418 1028 DF00     		.sleb128 95
 4419 102a 0B       		.uleb128 0xb
 4420 102b 29220000 		.4byte	.LASF585
 4421 102f E000     		.sleb128 96
 4422 1031 0B       		.uleb128 0xb
 4423 1032 B81A0000 		.4byte	.LASF586
 4424 1036 E100     		.sleb128 97
 4425 1038 0B       		.uleb128 0xb
 4426 1039 08090000 		.4byte	.LASF587
 4427 103d E200     		.sleb128 98
 4428 103f 0B       		.uleb128 0xb
 4429 1040 2D2B0000 		.4byte	.LASF588
 4430 1044 E300     		.sleb128 99
 4431 1046 0B       		.uleb128 0xb
 4432 1047 A41F0000 		.4byte	.LASF589
 4433 104b E400     		.sleb128 100
 4434 104d 00       		.byte	0
 4435 104e 06       		.uleb128 0x6
 4436 104f 04       		.byte	0x4
 4437 1050 54100000 		.4byte	0x1054
 4438 1054 0D       		.uleb128 0xd
 4439 1055 08       		.uleb128 0x8
 4440 1056 85000000 		.4byte	0x85
 4441 105a 65100000 		.4byte	0x1065
ARM GAS  C:\Users\AHMED~1.ELE\AppData\Local\Temp\ccAhPyWN.s 			page 100


 4442 105e 09       		.uleb128 0x9
 4443 105f 76000000 		.4byte	0x76
 4444 1063 3F       		.byte	0x3f
 4445 1064 00       		.byte	0
 4446 1065 0C       		.uleb128 0xc
 4447 1066 02       		.byte	0x2
 4448 1067 04       		.byte	0x4
 4449 1068 DD18     		.2byte	0x18dd
 4450 106a 8E100000 		.4byte	0x108e
 4451 106e 0B       		.uleb128 0xb
 4452 106f C1110000 		.4byte	.LASF590
 4453 1073 00       		.sleb128 0
 4454 1074 0B       		.uleb128 0xb
 4455 1075 E5290000 		.4byte	.LASF591
 4456 1079 01       		.sleb128 1
 4457 107a 0B       		.uleb128 0xb
 4458 107b 3D1B0000 		.4byte	.LASF592
 4459 107f 02       		.sleb128 2
 4460 1080 0B       		.uleb128 0xb
 4461 1081 6E040000 		.4byte	.LASF593
 4462 1085 03       		.sleb128 3
 4463 1086 0B       		.uleb128 0xb
 4464 1087 050A0000 		.4byte	.LASF594
 4465 108b 8002     		.sleb128 256
 4466 108d 00       		.byte	0
 4467 108e 0C       		.uleb128 0xc
 4468 108f 01       		.byte	0x1
 4469 1090 05       		.byte	0x5
 4470 1091 DC07     		.2byte	0x7dc
 4471 1093 DC110000 		.4byte	0x11dc
 4472 1097 0B       		.uleb128 0xb
 4473 1098 12160000 		.4byte	.LASF595
 4474 109c 00       		.sleb128 0
 4475 109d 0B       		.uleb128 0xb
 4476 109e 36270000 		.4byte	.LASF596
 4477 10a2 01       		.sleb128 1
 4478 10a3 0B       		.uleb128 0xb
 4479 10a4 08080000 		.4byte	.LASF597
 4480 10a8 02       		.sleb128 2
 4481 10a9 0B       		.uleb128 0xb
 4482 10aa F31C0000 		.4byte	.LASF598
 4483 10ae 03       		.sleb128 3
 4484 10af 0B       		.uleb128 0xb
 4485 10b0 B8310000 		.4byte	.LASF599
 4486 10b4 04       		.sleb128 4
 4487 10b5 0B       		.uleb128 0xb
 4488 10b6 C50B0000 		.4byte	.LASF600
 4489 10ba 05       		.sleb128 5
 4490 10bb 0B       		.uleb128 0xb
 4491 10bc 3A1C0000 		.4byte	.LASF601
 4492 10c0 06       		.sleb128 6
 4493 10c1 0B       		.uleb128 0xb
 4494 10c2 EE120000 		.4byte	.LASF602
 4495 10c6 07       		.sleb128 7
 4496 10c7 0B       		.uleb128 0xb
 4497 10c8 F60B0000 		.4byte	.LASF603
 4498 10cc 08       		.sleb128 8
ARM GAS  C:\Users\AHMED~1.ELE\AppData\Local\Temp\ccAhPyWN.s 			page 101


 4499 10cd 0B       		.uleb128 0xb
 4500 10ce EC070000 		.4byte	.LASF604
 4501 10d2 09       		.sleb128 9
 4502 10d3 0B       		.uleb128 0xb
 4503 10d4 E3120000 		.4byte	.LASF605
 4504 10d8 0A       		.sleb128 10
 4505 10d9 0B       		.uleb128 0xb
 4506 10da 7C0A0000 		.4byte	.LASF606
 4507 10de 0B       		.sleb128 11
 4508 10df 0B       		.uleb128 0xb
 4509 10e0 9D1A0000 		.4byte	.LASF607
 4510 10e4 0C       		.sleb128 12
 4511 10e5 0B       		.uleb128 0xb
 4512 10e6 7C010000 		.4byte	.LASF608
 4513 10ea 0D       		.sleb128 13
 4514 10eb 0B       		.uleb128 0xb
 4515 10ec E3070000 		.4byte	.LASF609
 4516 10f0 0E       		.sleb128 14
 4517 10f1 0B       		.uleb128 0xb
 4518 10f2 B3170000 		.4byte	.LASF610
 4519 10f6 0F       		.sleb128 15
 4520 10f7 0B       		.uleb128 0xb
 4521 10f8 D62E0000 		.4byte	.LASF611
 4522 10fc 10       		.sleb128 16
 4523 10fd 0B       		.uleb128 0xb
 4524 10fe A42C0000 		.4byte	.LASF612
 4525 1102 11       		.sleb128 17
 4526 1103 0B       		.uleb128 0xb
 4527 1104 7A0C0000 		.4byte	.LASF613
 4528 1108 12       		.sleb128 18
 4529 1109 0B       		.uleb128 0xb
 4530 110a 4A250000 		.4byte	.LASF614
 4531 110e 13       		.sleb128 19
 4532 110f 0B       		.uleb128 0xb
 4533 1110 E4300000 		.4byte	.LASF615
 4534 1114 14       		.sleb128 20
 4535 1115 0B       		.uleb128 0xb
 4536 1116 920C0000 		.4byte	.LASF616
 4537 111a 15       		.sleb128 21
 4538 111b 0B       		.uleb128 0xb
 4539 111c 79190000 		.4byte	.LASF617
 4540 1120 16       		.sleb128 22
 4541 1121 0B       		.uleb128 0xb
 4542 1122 96100000 		.4byte	.LASF618
 4543 1126 17       		.sleb128 23
 4544 1127 0B       		.uleb128 0xb
 4545 1128 2A1A0000 		.4byte	.LASF619
 4546 112c 18       		.sleb128 24
 4547 112d 0B       		.uleb128 0xb
 4548 112e D4150000 		.4byte	.LASF620
 4549 1132 19       		.sleb128 25
 4550 1133 0B       		.uleb128 0xb
 4551 1134 3B060000 		.4byte	.LASF621
 4552 1138 1A       		.sleb128 26
 4553 1139 0B       		.uleb128 0xb
 4554 113a D20B0000 		.4byte	.LASF622
 4555 113e 1B       		.sleb128 27
ARM GAS  C:\Users\AHMED~1.ELE\AppData\Local\Temp\ccAhPyWN.s 			page 102


 4556 113f 0B       		.uleb128 0xb
 4557 1140 50040000 		.4byte	.LASF623
 4558 1144 1C       		.sleb128 28
 4559 1145 0B       		.uleb128 0xb
 4560 1146 602E0000 		.4byte	.LASF624
 4561 114a 1D       		.sleb128 29
 4562 114b 0B       		.uleb128 0xb
 4563 114c D10C0000 		.4byte	.LASF625
 4564 1150 1E       		.sleb128 30
 4565 1151 0B       		.uleb128 0xb
 4566 1152 65130000 		.4byte	.LASF626
 4567 1156 1F       		.sleb128 31
 4568 1157 0B       		.uleb128 0xb
 4569 1158 AE270000 		.4byte	.LASF627
 4570 115c 20       		.sleb128 32
 4571 115d 0B       		.uleb128 0xb
 4572 115e 90310000 		.4byte	.LASF628
 4573 1162 21       		.sleb128 33
 4574 1163 0B       		.uleb128 0xb
 4575 1164 D8190000 		.4byte	.LASF629
 4576 1168 22       		.sleb128 34
 4577 1169 0B       		.uleb128 0xb
 4578 116a E50D0000 		.4byte	.LASF630
 4579 116e 23       		.sleb128 35
 4580 116f 0B       		.uleb128 0xb
 4581 1170 FE2E0000 		.4byte	.LASF631
 4582 1174 24       		.sleb128 36
 4583 1175 0B       		.uleb128 0xb
 4584 1176 650B0000 		.4byte	.LASF632
 4585 117a 25       		.sleb128 37
 4586 117b 0B       		.uleb128 0xb
 4587 117c 97010000 		.4byte	.LASF633
 4588 1180 26       		.sleb128 38
 4589 1181 0B       		.uleb128 0xb
 4590 1182 F32B0000 		.4byte	.LASF634
 4591 1186 27       		.sleb128 39
 4592 1187 0B       		.uleb128 0xb
 4593 1188 F51D0000 		.4byte	.LASF635
 4594 118c 28       		.sleb128 40
 4595 118d 0B       		.uleb128 0xb
 4596 118e BD210000 		.4byte	.LASF636
 4597 1192 29       		.sleb128 41
 4598 1193 0B       		.uleb128 0xb
 4599 1194 061F0000 		.4byte	.LASF637
 4600 1198 2A       		.sleb128 42
 4601 1199 0B       		.uleb128 0xb
 4602 119a 480D0000 		.4byte	.LASF638
 4603 119e 2B       		.sleb128 43
 4604 119f 0B       		.uleb128 0xb
 4605 11a0 E5250000 		.4byte	.LASF639
 4606 11a4 2C       		.sleb128 44
 4607 11a5 0B       		.uleb128 0xb
 4608 11a6 FB090000 		.4byte	.LASF640
 4609 11aa 2D       		.sleb128 45
 4610 11ab 0B       		.uleb128 0xb
 4611 11ac B4010000 		.4byte	.LASF641
 4612 11b0 2E       		.sleb128 46
ARM GAS  C:\Users\AHMED~1.ELE\AppData\Local\Temp\ccAhPyWN.s 			page 103


 4613 11b1 0B       		.uleb128 0xb
 4614 11b2 44170000 		.4byte	.LASF642
 4615 11b6 2F       		.sleb128 47
 4616 11b7 0B       		.uleb128 0xb
 4617 11b8 211D0000 		.4byte	.LASF643
 4618 11bc 30       		.sleb128 48
 4619 11bd 0B       		.uleb128 0xb
 4620 11be D1130000 		.4byte	.LASF644
 4621 11c2 31       		.sleb128 49
 4622 11c3 0B       		.uleb128 0xb
 4623 11c4 48260000 		.4byte	.LASF645
 4624 11c8 32       		.sleb128 50
 4625 11c9 0B       		.uleb128 0xb
 4626 11ca 5D030000 		.4byte	.LASF646
 4627 11ce 33       		.sleb128 51
 4628 11cf 0B       		.uleb128 0xb
 4629 11d0 8F2D0000 		.4byte	.LASF647
 4630 11d4 34       		.sleb128 52
 4631 11d5 0B       		.uleb128 0xb
 4632 11d6 9E240000 		.4byte	.LASF648
 4633 11da 35       		.sleb128 53
 4634 11db 00       		.byte	0
 4635 11dc 0E       		.uleb128 0xe
 4636 11dd 01       		.byte	0x1
 4637 11de 06       		.byte	0x6
 4638 11df 7D       		.byte	0x7d
 4639 11e0 15120000 		.4byte	0x1215
 4640 11e4 0B       		.uleb128 0xb
 4641 11e5 44010000 		.4byte	.LASF649
 4642 11e9 00       		.sleb128 0
 4643 11ea 0B       		.uleb128 0xb
 4644 11eb EF230000 		.4byte	.LASF650
 4645 11ef 01       		.sleb128 1
 4646 11f0 0B       		.uleb128 0xb
 4647 11f1 D7250000 		.4byte	.LASF651
 4648 11f5 02       		.sleb128 2
 4649 11f6 0B       		.uleb128 0xb
 4650 11f7 C71B0000 		.4byte	.LASF652
 4651 11fb 03       		.sleb128 3
 4652 11fc 0B       		.uleb128 0xb
 4653 11fd E3030000 		.4byte	.LASF653
 4654 1201 04       		.sleb128 4
 4655 1202 0B       		.uleb128 0xb
 4656 1203 BA1B0000 		.4byte	.LASF654
 4657 1207 05       		.sleb128 5
 4658 1208 0B       		.uleb128 0xb
 4659 1209 2C0B0000 		.4byte	.LASF655
 4660 120d 06       		.sleb128 6
 4661 120e 0B       		.uleb128 0xb
 4662 120f 91300000 		.4byte	.LASF656
 4663 1213 07       		.sleb128 7
 4664 1214 00       		.byte	0
 4665 1215 08       		.uleb128 0x8
 4666 1216 A2000000 		.4byte	0xa2
 4667 121a 25120000 		.4byte	0x1225
 4668 121e 09       		.uleb128 0x9
 4669 121f 76000000 		.4byte	0x76
ARM GAS  C:\Users\AHMED~1.ELE\AppData\Local\Temp\ccAhPyWN.s 			page 104


 4670 1223 04       		.byte	0x4
 4671 1224 00       		.byte	0
 4672 1225 0E       		.uleb128 0xe
 4673 1226 01       		.byte	0x1
 4674 1227 07       		.byte	0x7
 4675 1228 2D       		.byte	0x2d
 4676 1229 58120000 		.4byte	0x1258
 4677 122d 0B       		.uleb128 0xb
 4678 122e 0C0C0000 		.4byte	.LASF657
 4679 1232 00       		.sleb128 0
 4680 1233 0B       		.uleb128 0xb
 4681 1234 A82F0000 		.4byte	.LASF658
 4682 1238 01       		.sleb128 1
 4683 1239 0B       		.uleb128 0xb
 4684 123a C82A0000 		.4byte	.LASF659
 4685 123e 02       		.sleb128 2
 4686 123f 0B       		.uleb128 0xb
 4687 1240 CC090000 		.4byte	.LASF660
 4688 1244 03       		.sleb128 3
 4689 1245 0B       		.uleb128 0xb
 4690 1246 D7170000 		.4byte	.LASF661
 4691 124a 04       		.sleb128 4
 4692 124b 0B       		.uleb128 0xb
 4693 124c 730F0000 		.4byte	.LASF662
 4694 1250 05       		.sleb128 5
 4695 1251 0B       		.uleb128 0xb
 4696 1252 1A140000 		.4byte	.LASF663
 4697 1256 06       		.sleb128 6
 4698 1257 00       		.byte	0
 4699 1258 0E       		.uleb128 0xe
 4700 1259 01       		.byte	0x1
 4701 125a 08       		.byte	0x8
 4702 125b 2E       		.byte	0x2e
 4703 125c 97120000 		.4byte	0x1297
 4704 1260 0B       		.uleb128 0xb
 4705 1261 892E0000 		.4byte	.LASF664
 4706 1265 00       		.sleb128 0
 4707 1266 0B       		.uleb128 0xb
 4708 1267 AB060000 		.4byte	.LASF665
 4709 126b 01       		.sleb128 1
 4710 126c 0B       		.uleb128 0xb
 4711 126d 3D300000 		.4byte	.LASF666
 4712 1271 02       		.sleb128 2
 4713 1272 0B       		.uleb128 0xb
 4714 1273 2C280000 		.4byte	.LASF667
 4715 1277 03       		.sleb128 3
 4716 1278 0B       		.uleb128 0xb
 4717 1279 372C0000 		.4byte	.LASF668
 4718 127d 04       		.sleb128 4
 4719 127e 0B       		.uleb128 0xb
 4720 127f B9230000 		.4byte	.LASF669
 4721 1283 05       		.sleb128 5
 4722 1284 0B       		.uleb128 0xb
 4723 1285 39080000 		.4byte	.LASF670
 4724 1289 06       		.sleb128 6
 4725 128a 0B       		.uleb128 0xb
 4726 128b 481C0000 		.4byte	.LASF671
ARM GAS  C:\Users\AHMED~1.ELE\AppData\Local\Temp\ccAhPyWN.s 			page 105


 4727 128f 07       		.sleb128 7
 4728 1290 0B       		.uleb128 0xb
 4729 1291 B60B0000 		.4byte	.LASF672
 4730 1295 08       		.sleb128 8
 4731 1296 00       		.byte	0
 4732 1297 0F       		.uleb128 0xf
 4733 1298 08       		.byte	0x8
 4734 1299 08       		.byte	0x8
 4735 129a 58       		.byte	0x58
 4736 129b B8120000 		.4byte	0x12b8
 4737 129f 10       		.uleb128 0x10
 4738 12a0 7F090000 		.4byte	.LASF673
 4739 12a4 08       		.byte	0x8
 4740 12a5 59       		.byte	0x59
 4741 12a6 AD000000 		.4byte	0xad
 4742 12aa 00       		.byte	0
 4743 12ab 10       		.uleb128 0x10
 4744 12ac 6D2E0000 		.4byte	.LASF674
 4745 12b0 08       		.byte	0x8
 4746 12b1 5A       		.byte	0x5a
 4747 12b2 CE000000 		.4byte	0xce
 4748 12b6 04       		.byte	0x4
 4749 12b7 00       		.byte	0
 4750 12b8 03       		.uleb128 0x3
 4751 12b9 0C020000 		.4byte	.LASF675
 4752 12bd 08       		.byte	0x8
 4753 12be 5B       		.byte	0x5b
 4754 12bf 97120000 		.4byte	0x1297
 4755 12c3 0F       		.uleb128 0xf
 4756 12c4 0C       		.byte	0xc
 4757 12c5 08       		.byte	0x8
 4758 12c6 C5       		.byte	0xc5
 4759 12c7 FC120000 		.4byte	0x12fc
 4760 12cb 10       		.uleb128 0x10
 4761 12cc 6A290000 		.4byte	.LASF676
 4762 12d0 08       		.byte	0x8
 4763 12d1 C6       		.byte	0xc6
 4764 12d2 A2000000 		.4byte	0xa2
 4765 12d6 00       		.byte	0
 4766 12d7 11       		.uleb128 0x11
 4767 12d8 52494400 		.ascii	"RID\000"
 4768 12dc 08       		.byte	0x8
 4769 12dd C7       		.byte	0xc7
 4770 12de 15120000 		.4byte	0x1215
 4771 12e2 01       		.byte	0x1
 4772 12e3 10       		.uleb128 0x10
 4773 12e4 6A2F0000 		.4byte	.LASF677
 4774 12e8 08       		.byte	0x8
 4775 12e9 C8       		.byte	0xc8
 4776 12ea AD000000 		.4byte	0xad
 4777 12ee 06       		.byte	0x6
 4778 12ef 10       		.uleb128 0x10
 4779 12f0 AD310000 		.4byte	.LASF678
 4780 12f4 08       		.byte	0x8
 4781 12f5 C9       		.byte	0xc9
 4782 12f6 AD000000 		.4byte	0xad
 4783 12fa 08       		.byte	0x8
ARM GAS  C:\Users\AHMED~1.ELE\AppData\Local\Temp\ccAhPyWN.s 			page 106


 4784 12fb 00       		.byte	0
 4785 12fc 03       		.uleb128 0x3
 4786 12fd BF2A0000 		.4byte	.LASF679
 4787 1301 08       		.byte	0x8
 4788 1302 CA       		.byte	0xca
 4789 1303 C3120000 		.4byte	0x12c3
 4790 1307 12       		.uleb128 0x12
 4791 1308 1702     		.2byte	0x217
 4792 130a 08       		.byte	0x8
 4793 130b ED       		.byte	0xed
 4794 130c 7D130000 		.4byte	0x137d
 4795 1310 10       		.uleb128 0x10
 4796 1311 CE150000 		.4byte	.LASF680
 4797 1315 08       		.byte	0x8
 4798 1316 EE       		.byte	0xee
 4799 1317 A2000000 		.4byte	0xa2
 4800 131b 00       		.byte	0
 4801 131c 10       		.uleb128 0x10
 4802 131d 931A0000 		.4byte	.LASF681
 4803 1321 08       		.byte	0x8
 4804 1322 EF       		.byte	0xef
 4805 1323 A2000000 		.4byte	0xa2
 4806 1327 01       		.byte	0x1
 4807 1328 10       		.uleb128 0x10
 4808 1329 E1240000 		.4byte	.LASF682
 4809 132d 08       		.byte	0x8
 4810 132e F0       		.byte	0xf0
 4811 132f B8000000 		.4byte	0xb8
 4812 1333 02       		.byte	0x2
 4813 1334 10       		.uleb128 0x10
 4814 1335 30320000 		.4byte	.LASF683
 4815 1339 08       		.byte	0x8
 4816 133a F1       		.byte	0xf1
 4817 133b A2000000 		.4byte	0xa2
 4818 133f 06       		.byte	0x6
 4819 1340 10       		.uleb128 0x10
 4820 1341 572D0000 		.4byte	.LASF684
 4821 1345 08       		.byte	0x8
 4822 1346 F2       		.byte	0xf2
 4823 1347 A2000000 		.4byte	0xa2
 4824 134b 07       		.byte	0x7
 4825 134c 10       		.uleb128 0x10
 4826 134d C10E0000 		.4byte	.LASF685
 4827 1351 08       		.byte	0x8
 4828 1352 F3       		.byte	0xf3
 4829 1353 15120000 		.4byte	0x1215
 4830 1357 08       		.byte	0x8
 4831 1358 10       		.uleb128 0x10
 4832 1359 86020000 		.4byte	.LASF686
 4833 135d 08       		.byte	0x8
 4834 135e F4       		.byte	0xf4
 4835 135f 15120000 		.4byte	0x1215
 4836 1363 0D       		.byte	0xd
 4837 1364 10       		.uleb128 0x10
 4838 1365 27240000 		.4byte	.LASF687
 4839 1369 08       		.byte	0x8
 4840 136a F5       		.byte	0xf5
ARM GAS  C:\Users\AHMED~1.ELE\AppData\Local\Temp\ccAhPyWN.s 			page 107


 4841 136b 15120000 		.4byte	0x1215
 4842 136f 12       		.byte	0x12
 4843 1370 10       		.uleb128 0x10
 4844 1371 E11E0000 		.4byte	.LASF688
 4845 1375 08       		.byte	0x8
 4846 1376 F6       		.byte	0xf6
 4847 1377 7D130000 		.4byte	0x137d
 4848 137b 17       		.byte	0x17
 4849 137c 00       		.byte	0
 4850 137d 08       		.uleb128 0x8
 4851 137e A2000000 		.4byte	0xa2
 4852 1382 8E130000 		.4byte	0x138e
 4853 1386 13       		.uleb128 0x13
 4854 1387 76000000 		.4byte	0x76
 4855 138b FF01     		.2byte	0x1ff
 4856 138d 00       		.byte	0
 4857 138e 03       		.uleb128 0x3
 4858 138f 91030000 		.4byte	.LASF689
 4859 1393 08       		.byte	0x8
 4860 1394 F7       		.byte	0xf7
 4861 1395 07130000 		.4byte	0x1307
 4862 1399 14       		.uleb128 0x14
 4863 139a DB130000 		.4byte	.LASF783
 4864 139e 0C       		.byte	0xc
 4865 139f 09       		.byte	0x9
 4866 13a0 2B       		.byte	0x2b
 4867 13a1 D6130000 		.4byte	0x13d6
 4868 13a5 10       		.uleb128 0x10
 4869 13a6 09010000 		.4byte	.LASF690
 4870 13aa 09       		.byte	0x9
 4871 13ab 2D       		.byte	0x2d
 4872 13ac A2000000 		.4byte	0xa2
 4873 13b0 00       		.byte	0
 4874 13b1 10       		.uleb128 0x10
 4875 13b2 C1280000 		.4byte	.LASF691
 4876 13b6 09       		.byte	0x9
 4877 13b7 2E       		.byte	0x2e
 4878 13b8 AD000000 		.4byte	0xad
 4879 13bc 02       		.byte	0x2
 4880 13bd 10       		.uleb128 0x10
 4881 13be 2C100000 		.4byte	.LASF692
 4882 13c2 09       		.byte	0x9
 4883 13c3 2F       		.byte	0x2f
 4884 13c4 CE000000 		.4byte	0xce
 4885 13c8 04       		.byte	0x4
 4886 13c9 10       		.uleb128 0x10
 4887 13ca 0E2D0000 		.4byte	.LASF693
 4888 13ce 09       		.byte	0x9
 4889 13cf 30       		.byte	0x30
 4890 13d0 CE000000 		.4byte	0xce
 4891 13d4 08       		.byte	0x8
 4892 13d5 00       		.byte	0
 4893 13d6 15       		.uleb128 0x15
 4894 13d7 5E300000 		.4byte	.LASF706
 4895 13db 01       		.byte	0x1
 4896 13dc D701     		.2byte	0x1d7
 4897 13de 97000000 		.4byte	0x97
ARM GAS  C:\Users\AHMED~1.ELE\AppData\Local\Temp\ccAhPyWN.s 			page 108


 4898 13e2 01       		.byte	0x1
 4899 13e3 60140000 		.4byte	0x1460
 4900 13e7 16       		.uleb128 0x16
 4901 13e8 A6270000 		.4byte	.LASF694
 4902 13ec 01       		.byte	0x1
 4903 13ed D701     		.2byte	0x1d7
 4904 13ef 8E130000 		.4byte	0x138e
 4905 13f3 16       		.uleb128 0x16
 4906 13f4 500B0000 		.4byte	.LASF695
 4907 13f8 01       		.byte	0x1
 4908 13f9 D701     		.2byte	0x1d7
 4909 13fb 97000000 		.4byte	0x97
 4910 13ff 16       		.uleb128 0x16
 4911 1400 6A030000 		.4byte	.LASF696
 4912 1404 01       		.byte	0x1
 4913 1405 D701     		.2byte	0x1d7
 4914 1407 97000000 		.4byte	0x97
 4915 140b 17       		.uleb128 0x17
 4916 140c 1C0F0000 		.4byte	.LASF697
 4917 1410 01       		.byte	0x1
 4918 1411 D901     		.2byte	0x1d9
 4919 1413 97000000 		.4byte	0x97
 4920 1417 17       		.uleb128 0x17
 4921 1418 421C0000 		.4byte	.LASF698
 4922 141c 01       		.byte	0x1
 4923 141d DA01     		.2byte	0x1da
 4924 141f 7F000000 		.4byte	0x7f
 4925 1423 18       		.uleb128 0x18
 4926 1424 62756600 		.ascii	"buf\000"
 4927 1428 01       		.byte	0x1
 4928 1429 DA01     		.2byte	0x1da
 4929 142b 55100000 		.4byte	0x1055
 4930 142f 17       		.uleb128 0x17
 4931 1430 69310000 		.4byte	.LASF699
 4932 1434 01       		.byte	0x1
 4933 1435 DA01     		.2byte	0x1da
 4934 1437 55100000 		.4byte	0x1055
 4935 143b 18       		.uleb128 0x18
 4936 143c 6C656E00 		.ascii	"len\000"
 4937 1440 01       		.byte	0x1
 4938 1441 DB01     		.2byte	0x1db
 4939 1443 AD000000 		.4byte	0xad
 4940 1447 17       		.uleb128 0x17
 4941 1448 CB0D0000 		.4byte	.LASF700
 4942 144c 01       		.byte	0x1
 4943 144d DB01     		.2byte	0x1db
 4944 144f AD000000 		.4byte	0xad
 4945 1453 17       		.uleb128 0x17
 4946 1454 35310000 		.4byte	.LASF701
 4947 1458 01       		.byte	0x1
 4948 1459 DC01     		.2byte	0x1dc
 4949 145b 99130000 		.4byte	0x1399
 4950 145f 00       		.byte	0
 4951 1460 19       		.uleb128 0x19
 4952 1461 62210000 		.4byte	.LASF702
 4953 1465 01       		.byte	0x1
 4954 1466 F9       		.byte	0xf9
ARM GAS  C:\Users\AHMED~1.ELE\AppData\Local\Temp\ccAhPyWN.s 			page 109


 4955 1467 01       		.byte	0x1
 4956 1468 1A       		.uleb128 0x1a
 4957 1469 86270000 		.4byte	.LASF703
 4958 146d 01       		.byte	0x1
 4959 146e 0C01     		.2byte	0x10c
 4960 1470 01       		.byte	0x1
 4961 1471 1B       		.uleb128 0x1b
 4962 1472 7C180000 		.4byte	.LASF756
 4963 1476 01       		.byte	0x1
 4964 1477 C101     		.2byte	0x1c1
 4965 1479 97000000 		.4byte	0x97
 4966 147d 01       		.byte	0x1
 4967 147e 9B140000 		.4byte	0x149b
 4968 1482 16       		.uleb128 0x16
 4969 1483 161C0000 		.4byte	.LASF704
 4970 1487 01       		.byte	0x1
 4971 1488 C101     		.2byte	0x1c1
 4972 148a 9B140000 		.4byte	0x149b
 4973 148e 16       		.uleb128 0x16
 4974 148f 36060000 		.4byte	.LASF705
 4975 1493 01       		.byte	0x1
 4976 1494 C101     		.2byte	0x1c1
 4977 1496 B8000000 		.4byte	0xb8
 4978 149a 00       		.byte	0
 4979 149b 06       		.uleb128 0x6
 4980 149c 04       		.byte	0x4
 4981 149d FC120000 		.4byte	0x12fc
 4982 14a1 15       		.uleb128 0x15
 4983 14a2 B6060000 		.4byte	.LASF707
 4984 14a6 01       		.byte	0x1
 4985 14a7 8602     		.2byte	0x286
 4986 14a9 97000000 		.4byte	0x97
 4987 14ad 01       		.byte	0x1
 4988 14ae 29150000 		.4byte	0x1529
 4989 14b2 16       		.uleb128 0x16
 4990 14b3 500B0000 		.4byte	.LASF695
 4991 14b7 01       		.byte	0x1
 4992 14b8 8602     		.2byte	0x286
 4993 14ba 97000000 		.4byte	0x97
 4994 14be 16       		.uleb128 0x16
 4995 14bf 6A030000 		.4byte	.LASF696
 4996 14c3 01       		.byte	0x1
 4997 14c4 8602     		.2byte	0x286
 4998 14c6 97000000 		.4byte	0x97
 4999 14ca 17       		.uleb128 0x17
 5000 14cb 1C0F0000 		.4byte	.LASF697
 5001 14cf 01       		.byte	0x1
 5002 14d0 8802     		.2byte	0x288
 5003 14d2 97000000 		.4byte	0x97
 5004 14d6 17       		.uleb128 0x17
 5005 14d7 421C0000 		.4byte	.LASF698
 5006 14db 01       		.byte	0x1
 5007 14dc 8902     		.2byte	0x289
 5008 14de 7F000000 		.4byte	0x7f
 5009 14e2 17       		.uleb128 0x17
 5010 14e3 69310000 		.4byte	.LASF699
 5011 14e7 01       		.byte	0x1
ARM GAS  C:\Users\AHMED~1.ELE\AppData\Local\Temp\ccAhPyWN.s 			page 110


 5012 14e8 8902     		.2byte	0x289
 5013 14ea 55100000 		.4byte	0x1055
 5014 14ee 18       		.uleb128 0x18
 5015 14ef 6900     		.ascii	"i\000"
 5016 14f1 01       		.byte	0x1
 5017 14f2 8A02     		.2byte	0x28a
 5018 14f4 AD000000 		.4byte	0xad
 5019 14f8 18       		.uleb128 0x18
 5020 14f9 6C656E00 		.ascii	"len\000"
 5021 14fd 01       		.byte	0x1
 5022 14fe 8A02     		.2byte	0x28a
 5023 1500 AD000000 		.4byte	0xad
 5024 1504 17       		.uleb128 0x17
 5025 1505 CB0D0000 		.4byte	.LASF700
 5026 1509 01       		.byte	0x1
 5027 150a 8A02     		.2byte	0x28a
 5028 150c AD000000 		.4byte	0xad
 5029 1510 17       		.uleb128 0x17
 5030 1511 35310000 		.4byte	.LASF701
 5031 1515 01       		.byte	0x1
 5032 1516 8B02     		.2byte	0x28b
 5033 1518 99130000 		.4byte	0x1399
 5034 151c 17       		.uleb128 0x17
 5035 151d 010F0000 		.4byte	.LASF708
 5036 1521 01       		.byte	0x1
 5037 1522 8C02     		.2byte	0x28c
 5038 1524 FC120000 		.4byte	0x12fc
 5039 1528 00       		.byte	0
 5040 1529 1C       		.uleb128 0x1c
 5041 152a A3070000 		.4byte	.LASF784
 5042 152e 01       		.byte	0x1
 5043 152f DC       		.byte	0xdc
 5044 1530 97000000 		.4byte	0x97
 5045 1534 00000000 		.4byte	.LFB6
 5046 1538 12000000 		.4byte	.LFE6-.LFB6
 5047 153c 01       		.uleb128 0x1
 5048 153d 9C       		.byte	0x9c
 5049 153e 58150000 		.4byte	0x1558
 5050 1542 1D       		.uleb128 0x1d
 5051 1543 0A000000 		.4byte	.LVL0
 5052 1547 962C0000 		.4byte	0x2c96
 5053 154b 1E       		.uleb128 0x1e
 5054 154c 01       		.uleb128 0x1
 5055 154d 51       		.byte	0x51
 5056 154e 01       		.uleb128 0x1
 5057 154f 3E       		.byte	0x3e
 5058 1550 1E       		.uleb128 0x1e
 5059 1551 01       		.uleb128 0x1
 5060 1552 50       		.byte	0x50
 5061 1553 02       		.uleb128 0x2
 5062 1554 08       		.byte	0x8
 5063 1555 8D       		.byte	0x8d
 5064 1556 00       		.byte	0
 5065 1557 00       		.byte	0
 5066 1558 1F       		.uleb128 0x1f
 5067 1559 BF260000 		.4byte	.LASF785
 5068 155d 01       		.byte	0x1
ARM GAS  C:\Users\AHMED~1.ELE\AppData\Local\Temp\ccAhPyWN.s 			page 111


 5069 155e EB       		.byte	0xeb
 5070 155f 00000000 		.4byte	.LFB7
 5071 1563 24000000 		.4byte	.LFE7-.LFB7
 5072 1567 01       		.uleb128 0x1
 5073 1568 9C       		.byte	0x9c
 5074 1569 AB150000 		.4byte	0x15ab
 5075 156d 20       		.uleb128 0x20
 5076 156e 08000000 		.4byte	.LVL1
 5077 1572 B02C0000 		.4byte	0x2cb0
 5078 1576 84150000 		.4byte	0x1584
 5079 157a 1E       		.uleb128 0x1e
 5080 157b 01       		.uleb128 0x1
 5081 157c 50       		.byte	0x50
 5082 157d 05       		.uleb128 0x5
 5083 157e 03       		.byte	0x3
 5084 157f 00000000 		.4byte	.LC0
 5085 1583 00       		.byte	0
 5086 1584 20       		.uleb128 0x20
 5087 1585 10000000 		.4byte	.LVL2
 5088 1589 C12C0000 		.4byte	0x2cc1
 5089 158d 99150000 		.4byte	0x1599
 5090 1591 1E       		.uleb128 0x1e
 5091 1592 01       		.uleb128 0x1
 5092 1593 50       		.byte	0x50
 5093 1594 03       		.uleb128 0x3
 5094 1595 0A       		.byte	0xa
 5095 1596 2823     		.2byte	0x2328
 5096 1598 00       		.byte	0
 5097 1599 21       		.uleb128 0x21
 5098 159a 20000000 		.4byte	.LVL3
 5099 159e D62C0000 		.4byte	0x2cd6
 5100 15a2 1E       		.uleb128 0x1e
 5101 15a3 01       		.uleb128 0x1
 5102 15a4 50       		.byte	0x50
 5103 15a5 03       		.uleb128 0x3
 5104 15a6 0A       		.byte	0xa
 5105 15a7 9E01     		.2byte	0x19e
 5106 15a9 00       		.byte	0
 5107 15aa 00       		.byte	0
 5108 15ab 22       		.uleb128 0x22
 5109 15ac 8B1A0000 		.4byte	.LASF709
 5110 15b0 01       		.byte	0x1
 5111 15b1 5B       		.byte	0x5b
 5112 15b2 A2000000 		.4byte	0xa2
 5113 15b6 00000000 		.4byte	.LFB0
 5114 15ba 10000000 		.4byte	.LFE0-.LFB0
 5115 15be 01       		.uleb128 0x1
 5116 15bf 9C       		.byte	0x9c
 5117 15c0 D4150000 		.4byte	0x15d4
 5118 15c4 23       		.uleb128 0x23
 5119 15c5 E40C0000 		.4byte	.LASF711
 5120 15c9 01       		.byte	0x1
 5121 15ca 5B       		.byte	0x5b
 5122 15cb CE000000 		.4byte	0xce
 5123 15cf 00000000 		.4byte	.LLST0
 5124 15d3 00       		.byte	0
 5125 15d4 22       		.uleb128 0x22
ARM GAS  C:\Users\AHMED~1.ELE\AppData\Local\Temp\ccAhPyWN.s 			page 112


 5126 15d5 06190000 		.4byte	.LASF710
 5127 15d9 01       		.byte	0x1
 5128 15da 67       		.byte	0x67
 5129 15db AD000000 		.4byte	0xad
 5130 15df 00000000 		.4byte	.LFB1
 5131 15e3 12000000 		.4byte	.LFE1-.LFB1
 5132 15e7 01       		.uleb128 0x1
 5133 15e8 9C       		.byte	0x9c
 5134 15e9 0E160000 		.4byte	0x160e
 5135 15ed 23       		.uleb128 0x23
 5136 15ee E40C0000 		.4byte	.LASF711
 5137 15f2 01       		.byte	0x1
 5138 15f3 67       		.byte	0x67
 5139 15f4 CE000000 		.4byte	0xce
 5140 15f8 21000000 		.4byte	.LLST1
 5141 15fc 21       		.uleb128 0x21
 5142 15fd 0E000000 		.4byte	.LVL7
 5143 1601 EB2C0000 		.4byte	0x2ceb
 5144 1605 1E       		.uleb128 0x1e
 5145 1606 01       		.uleb128 0x1
 5146 1607 50       		.byte	0x50
 5147 1608 03       		.uleb128 0x3
 5148 1609 F3       		.byte	0xf3
 5149 160a 01       		.uleb128 0x1
 5150 160b 50       		.byte	0x50
 5151 160c 00       		.byte	0
 5152 160d 00       		.byte	0
 5153 160e 22       		.uleb128 0x22
 5154 160f 712B0000 		.4byte	.LASF712
 5155 1613 01       		.byte	0x1
 5156 1614 75       		.byte	0x75
 5157 1615 A2000000 		.4byte	0xa2
 5158 1619 00000000 		.4byte	.LFB2
 5159 161d 10000000 		.4byte	.LFE2-.LFB2
 5160 1621 01       		.uleb128 0x1
 5161 1622 9C       		.byte	0x9c
 5162 1623 37160000 		.4byte	0x1637
 5163 1627 24       		.uleb128 0x24
 5164 1628 614C4400 		.ascii	"aLD\000"
 5165 162c 01       		.byte	0x1
 5166 162d 75       		.byte	0x75
 5167 162e CE000000 		.4byte	0xce
 5168 1632 5B000000 		.4byte	.LLST2
 5169 1636 00       		.byte	0
 5170 1637 22       		.uleb128 0x22
 5171 1638 BE200000 		.4byte	.LASF713
 5172 163c 01       		.byte	0x1
 5173 163d 84       		.byte	0x84
 5174 163e AD000000 		.4byte	0xad
 5175 1642 00000000 		.4byte	.LFB3
 5176 1646 22000000 		.4byte	.LFE3-.LFB3
 5177 164a 01       		.uleb128 0x1
 5178 164b 9C       		.byte	0x9c
 5179 164c 73160000 		.4byte	0x1673
 5180 1650 24       		.uleb128 0x24
 5181 1651 614C4400 		.ascii	"aLD\000"
 5182 1655 01       		.byte	0x1
ARM GAS  C:\Users\AHMED~1.ELE\AppData\Local\Temp\ccAhPyWN.s 			page 113


 5183 1656 84       		.byte	0x84
 5184 1657 CE000000 		.4byte	0xce
 5185 165b 7C000000 		.4byte	.LLST3
 5186 165f 21       		.uleb128 0x21
 5187 1660 1C000000 		.4byte	.LVL17
 5188 1664 EB2C0000 		.4byte	0x2ceb
 5189 1668 1E       		.uleb128 0x1e
 5190 1669 01       		.uleb128 0x1
 5191 166a 50       		.byte	0x50
 5192 166b 05       		.uleb128 0x5
 5193 166c F3       		.byte	0xf3
 5194 166d 01       		.uleb128 0x1
 5195 166e 50       		.byte	0x50
 5196 166f 23       		.byte	0x23
 5197 1670 01       		.uleb128 0x1
 5198 1671 00       		.byte	0
 5199 1672 00       		.byte	0
 5200 1673 22       		.uleb128 0x22
 5201 1674 D5230000 		.4byte	.LASF714
 5202 1678 01       		.byte	0x1
 5203 1679 9D       		.byte	0x9d
 5204 167a 97000000 		.4byte	0x97
 5205 167e 00000000 		.4byte	.LFB4
 5206 1682 50000000 		.4byte	.LFE4-.LFB4
 5207 1686 01       		.uleb128 0x1
 5208 1687 9C       		.byte	0x9c
 5209 1688 1F170000 		.4byte	0x171f
 5210 168c 23       		.uleb128 0x23
 5211 168d B0030000 		.4byte	.LASF715
 5212 1691 01       		.byte	0x1
 5213 1692 9D       		.byte	0x9d
 5214 1693 CE000000 		.4byte	0xce
 5215 1697 F5000000 		.4byte	.LLST4
 5216 169b 23       		.uleb128 0x23
 5217 169c 501E0000 		.4byte	.LASF716
 5218 16a0 01       		.byte	0x1
 5219 16a1 9D       		.byte	0x9d
 5220 16a2 CE000000 		.4byte	0xce
 5221 16a6 13010000 		.4byte	.LLST5
 5222 16aa 23       		.uleb128 0x23
 5223 16ab CD0B0000 		.4byte	.LASF717
 5224 16af 01       		.byte	0x1
 5225 16b0 9D       		.byte	0x9d
 5226 16b1 AD000000 		.4byte	0xad
 5227 16b5 68010000 		.4byte	.LLST6
 5228 16b9 25       		.uleb128 0x25
 5229 16ba D41E0000 		.4byte	.LASF718
 5230 16be 01       		.byte	0x1
 5231 16bf 9F       		.byte	0x9f
 5232 16c0 AD000000 		.4byte	0xad
 5233 16c4 89010000 		.4byte	.LLST7
 5234 16c8 25       		.uleb128 0x25
 5235 16c9 DF0C0000 		.4byte	.LASF719
 5236 16cd 01       		.byte	0x1
 5237 16ce A0       		.byte	0xa0
 5238 16cf A2000000 		.4byte	0xa2
 5239 16d3 A7010000 		.4byte	.LLST8
ARM GAS  C:\Users\AHMED~1.ELE\AppData\Local\Temp\ccAhPyWN.s 			page 114


 5240 16d7 25       		.uleb128 0x25
 5241 16d8 43260000 		.4byte	.LASF720
 5242 16dc 01       		.byte	0x1
 5243 16dd A1       		.byte	0xa1
 5244 16de A2000000 		.4byte	0xa2
 5245 16e2 EA010000 		.4byte	.LLST9
 5246 16e6 20       		.uleb128 0x20
 5247 16e7 12000000 		.4byte	.LVL21
 5248 16eb D4150000 		.4byte	0x15d4
 5249 16ef FA160000 		.4byte	0x16fa
 5250 16f3 1E       		.uleb128 0x1e
 5251 16f4 01       		.uleb128 0x1
 5252 16f5 50       		.byte	0x50
 5253 16f6 02       		.uleb128 0x2
 5254 16f7 74       		.byte	0x74
 5255 16f8 00       		.sleb128 0
 5256 16f9 00       		.byte	0
 5257 16fa 20       		.uleb128 0x20
 5258 16fb 24000000 		.4byte	.LVL26
 5259 16ff AB150000 		.4byte	0x15ab
 5260 1703 0E170000 		.4byte	0x170e
 5261 1707 1E       		.uleb128 0x1e
 5262 1708 01       		.uleb128 0x1
 5263 1709 50       		.byte	0x50
 5264 170a 02       		.uleb128 0x2
 5265 170b 74       		.byte	0x74
 5266 170c 00       		.sleb128 0
 5267 170d 00       		.byte	0
 5268 170e 1D       		.uleb128 0x1d
 5269 170f 3A000000 		.4byte	.LVL30
 5270 1713 002D0000 		.4byte	0x2d00
 5271 1717 1E       		.uleb128 0x1e
 5272 1718 01       		.uleb128 0x1
 5273 1719 50       		.byte	0x50
 5274 171a 02       		.uleb128 0x2
 5275 171b 77       		.byte	0x77
 5276 171c 00       		.sleb128 0
 5277 171d 00       		.byte	0
 5278 171e 00       		.byte	0
 5279 171f 26       		.uleb128 0x26
 5280 1720 EF090000 		.4byte	.LASF725
 5281 1724 01       		.byte	0x1
 5282 1725 BB       		.byte	0xbb
 5283 1726 00000000 		.4byte	.LFB5
 5284 172a 6C000000 		.4byte	.LFE5-.LFB5
 5285 172e 01       		.uleb128 0x1
 5286 172f 9C       		.byte	0x9c
 5287 1730 38180000 		.4byte	0x1838
 5288 1734 23       		.uleb128 0x23
 5289 1735 E40C0000 		.4byte	.LASF711
 5290 1739 01       		.byte	0x1
 5291 173a BB       		.byte	0xbb
 5292 173b CE000000 		.4byte	0xce
 5293 173f 40020000 		.4byte	.LLST10
 5294 1743 23       		.uleb128 0x23
 5295 1744 C8260000 		.4byte	.LASF721
 5296 1748 01       		.byte	0x1
ARM GAS  C:\Users\AHMED~1.ELE\AppData\Local\Temp\ccAhPyWN.s 			page 115


 5297 1749 BB       		.byte	0xbb
 5298 174a A2000000 		.4byte	0xa2
 5299 174e 5E020000 		.4byte	.LLST11
 5300 1752 27       		.uleb128 0x27
 5301 1753 64120000 		.4byte	.LASF722
 5302 1757 01       		.byte	0x1
 5303 1758 BD       		.byte	0xbd
 5304 1759 F4000000 		.4byte	0xf4
 5305 175d 02       		.uleb128 0x2
 5306 175e 91       		.byte	0x91
 5307 175f 58       		.sleb128 -40
 5308 1760 25       		.uleb128 0x25
 5309 1761 CD260000 		.4byte	.LASF723
 5310 1765 01       		.byte	0x1
 5311 1766 BE       		.byte	0xbe
 5312 1767 AD000000 		.4byte	0xad
 5313 176b 98020000 		.4byte	.LLST12
 5314 176f 28       		.uleb128 0x28
 5315 1770 746D7000 		.ascii	"tmp\000"
 5316 1774 01       		.byte	0x1
 5317 1775 BF       		.byte	0xbf
 5318 1776 B8000000 		.4byte	0xb8
 5319 177a AB020000 		.4byte	.LLST13
 5320 177e 25       		.uleb128 0x25
 5321 177f 2B2D0000 		.4byte	.LASF724
 5322 1783 01       		.byte	0x1
 5323 1784 BF       		.byte	0xbf
 5324 1785 B8000000 		.4byte	0xb8
 5325 1789 C9020000 		.4byte	.LLST14
 5326 178d 20       		.uleb128 0x20
 5327 178e 16000000 		.4byte	.LVL41
 5328 1792 1D2D0000 		.4byte	0x2d1d
 5329 1796 A1170000 		.4byte	0x17a1
 5330 179a 1E       		.uleb128 0x1e
 5331 179b 01       		.uleb128 0x1
 5332 179c 50       		.byte	0x50
 5333 179d 02       		.uleb128 0x2
 5334 179e 77       		.byte	0x77
 5335 179f 00       		.sleb128 0
 5336 17a0 00       		.byte	0
 5337 17a1 20       		.uleb128 0x20
 5338 17a2 1E000000 		.4byte	.LVL44
 5339 17a6 322D0000 		.4byte	0x2d32
 5340 17aa B5170000 		.4byte	0x17b5
 5341 17ae 1E       		.uleb128 0x1e
 5342 17af 01       		.uleb128 0x1
 5343 17b0 50       		.byte	0x50
 5344 17b1 02       		.uleb128 0x2
 5345 17b2 7D       		.byte	0x7d
 5346 17b3 00       		.sleb128 0
 5347 17b4 00       		.byte	0
 5348 17b5 29       		.uleb128 0x29
 5349 17b6 24000000 		.4byte	.LVL46
 5350 17ba EB2C0000 		.4byte	0x2ceb
 5351 17be 20       		.uleb128 0x20
 5352 17bf 2C000000 		.4byte	.LVL47
 5353 17c3 482D0000 		.4byte	0x2d48
ARM GAS  C:\Users\AHMED~1.ELE\AppData\Local\Temp\ccAhPyWN.s 			page 116


 5354 17c7 D7170000 		.4byte	0x17d7
 5355 17cb 1E       		.uleb128 0x1e
 5356 17cc 01       		.uleb128 0x1
 5357 17cd 52       		.byte	0x52
 5358 17ce 01       		.uleb128 0x1
 5359 17cf 35       		.byte	0x35
 5360 17d0 1E       		.uleb128 0x1e
 5361 17d1 01       		.uleb128 0x1
 5362 17d2 51       		.byte	0x51
 5363 17d3 02       		.uleb128 0x2
 5364 17d4 7D       		.byte	0x7d
 5365 17d5 00       		.sleb128 0
 5366 17d6 00       		.byte	0
 5367 17d7 20       		.uleb128 0x20
 5368 17d8 36000000 		.4byte	.LVL48
 5369 17dc 632D0000 		.4byte	0x2d63
 5370 17e0 F7170000 		.4byte	0x17f7
 5371 17e4 1E       		.uleb128 0x1e
 5372 17e5 01       		.uleb128 0x1
 5373 17e6 52       		.byte	0x52
 5374 17e7 02       		.uleb128 0x2
 5375 17e8 76       		.byte	0x76
 5376 17e9 00       		.sleb128 0
 5377 17ea 1E       		.uleb128 0x1e
 5378 17eb 01       		.uleb128 0x1
 5379 17ec 51       		.byte	0x51
 5380 17ed 02       		.uleb128 0x2
 5381 17ee 08       		.byte	0x8
 5382 17ef 30       		.byte	0x30
 5383 17f0 1E       		.uleb128 0x1e
 5384 17f1 01       		.uleb128 0x1
 5385 17f2 50       		.byte	0x50
 5386 17f3 02       		.uleb128 0x2
 5387 17f4 7D       		.byte	0x7d
 5388 17f5 00       		.sleb128 0
 5389 17f6 00       		.byte	0
 5390 17f7 20       		.uleb128 0x20
 5391 17f8 4A000000 		.4byte	.LVL51
 5392 17fc 002D0000 		.4byte	0x2d00
 5393 1800 11180000 		.4byte	0x1811
 5394 1804 1E       		.uleb128 0x1e
 5395 1805 01       		.uleb128 0x1
 5396 1806 52       		.byte	0x52
 5397 1807 02       		.uleb128 0x2
 5398 1808 74       		.byte	0x74
 5399 1809 00       		.sleb128 0
 5400 180a 1E       		.uleb128 0x1e
 5401 180b 01       		.uleb128 0x1
 5402 180c 50       		.byte	0x50
 5403 180d 02       		.uleb128 0x2
 5404 180e 77       		.byte	0x77
 5405 180f 00       		.sleb128 0
 5406 1810 00       		.byte	0
 5407 1811 1D       		.uleb128 0x1d
 5408 1812 62000000 		.4byte	.LVL52
 5409 1816 002D0000 		.4byte	0x2d00
 5410 181a 1E       		.uleb128 0x1e
ARM GAS  C:\Users\AHMED~1.ELE\AppData\Local\Temp\ccAhPyWN.s 			page 117


 5411 181b 01       		.uleb128 0x1
 5412 181c 52       		.byte	0x52
 5413 181d 01       		.uleb128 0x1
 5414 181e 33       		.byte	0x33
 5415 181f 1E       		.uleb128 0x1e
 5416 1820 01       		.uleb128 0x1
 5417 1821 51       		.byte	0x51
 5418 1822 08       		.uleb128 0x8
 5419 1823 91       		.byte	0x91
 5420 1824 00       		.sleb128 0
 5421 1825 76       		.byte	0x76
 5422 1826 00       		.sleb128 0
 5423 1827 22       		.byte	0x22
 5424 1828 08       		.byte	0x8
 5425 1829 28       		.byte	0x28
 5426 182a 1C       		.byte	0x1c
 5427 182b 1E       		.uleb128 0x1e
 5428 182c 01       		.uleb128 0x1
 5429 182d 50       		.byte	0x50
 5430 182e 07       		.uleb128 0x7
 5431 182f 75       		.byte	0x75
 5432 1830 00       		.sleb128 0
 5433 1831 74       		.byte	0x74
 5434 1832 00       		.sleb128 0
 5435 1833 22       		.byte	0x22
 5436 1834 23       		.byte	0x23
 5437 1835 01       		.uleb128 0x1
 5438 1836 00       		.byte	0
 5439 1837 00       		.byte	0
 5440 1838 2A       		.uleb128 0x2a
 5441 1839 60140000 		.4byte	0x1460
 5442 183d 00000000 		.4byte	.LFB8
 5443 1841 48000000 		.4byte	.LFE8-.LFB8
 5444 1845 01       		.uleb128 0x1
 5445 1846 9C       		.byte	0x9c
 5446 1847 A1180000 		.4byte	0x18a1
 5447 184b 29       		.uleb128 0x29
 5448 184c 06000000 		.4byte	.LVL53
 5449 1850 29150000 		.4byte	0x1529
 5450 1854 20       		.uleb128 0x20
 5451 1855 1E000000 		.4byte	.LVL54
 5452 1859 822D0000 		.4byte	0x2d82
 5453 185d 6D180000 		.4byte	0x186d
 5454 1861 1E       		.uleb128 0x1e
 5455 1862 01       		.uleb128 0x1
 5456 1863 52       		.byte	0x52
 5457 1864 02       		.uleb128 0x2
 5458 1865 76       		.byte	0x76
 5459 1866 00       		.sleb128 0
 5460 1867 1E       		.uleb128 0x1e
 5461 1868 01       		.uleb128 0x1
 5462 1869 51       		.byte	0x51
 5463 186a 01       		.uleb128 0x1
 5464 186b 30       		.byte	0x30
 5465 186c 00       		.byte	0
 5466 186d 20       		.uleb128 0x20
 5467 186e 2E000000 		.4byte	.LVL55
ARM GAS  C:\Users\AHMED~1.ELE\AppData\Local\Temp\ccAhPyWN.s 			page 118


 5468 1872 9F2D0000 		.4byte	0x2d9f
 5469 1876 97180000 		.4byte	0x1897
 5470 187a 1E       		.uleb128 0x1e
 5471 187b 01       		.uleb128 0x1
 5472 187c 53       		.byte	0x53
 5473 187d 02       		.uleb128 0x2
 5474 187e 74       		.byte	0x74
 5475 187f 00       		.sleb128 0
 5476 1880 1E       		.uleb128 0x1e
 5477 1881 01       		.uleb128 0x1
 5478 1882 52       		.byte	0x52
 5479 1883 01       		.uleb128 0x1
 5480 1884 32       		.byte	0x32
 5481 1885 1E       		.uleb128 0x1e
 5482 1886 01       		.uleb128 0x1
 5483 1887 51       		.byte	0x51
 5484 1888 01       		.uleb128 0x1
 5485 1889 30       		.byte	0x30
 5486 188a 1E       		.uleb128 0x1e
 5487 188b 01       		.uleb128 0x1
 5488 188c 50       		.byte	0x50
 5489 188d 01       		.uleb128 0x1
 5490 188e 3E       		.byte	0x3e
 5491 188f 1E       		.uleb128 0x1e
 5492 1890 02       		.uleb128 0x2
 5493 1891 7D       		.byte	0x7d
 5494 1892 00       		.sleb128 0
 5495 1893 02       		.uleb128 0x2
 5496 1894 75       		.byte	0x75
 5497 1895 00       		.sleb128 0
 5498 1896 00       		.byte	0
 5499 1897 2B       		.uleb128 0x2b
 5500 1898 3E000000 		.4byte	.LVL56
 5501 189c 58150000 		.4byte	0x1558
 5502 18a0 00       		.byte	0
 5503 18a1 2A       		.uleb128 0x2a
 5504 18a2 68140000 		.4byte	0x1468
 5505 18a6 00000000 		.4byte	.LFB9
 5506 18aa 54000000 		.4byte	.LFE9-.LFB9
 5507 18ae 01       		.uleb128 0x1
 5508 18af 9C       		.byte	0x9c
 5509 18b0 16190000 		.4byte	0x1916
 5510 18b4 29       		.uleb128 0x29
 5511 18b5 06000000 		.4byte	.LVL57
 5512 18b9 29150000 		.4byte	0x1529
 5513 18bd 20       		.uleb128 0x20
 5514 18be 1C000000 		.4byte	.LVL58
 5515 18c2 C82D0000 		.4byte	0x2dc8
 5516 18c6 D6180000 		.4byte	0x18d6
 5517 18ca 1E       		.uleb128 0x1e
 5518 18cb 01       		.uleb128 0x1
 5519 18cc 51       		.byte	0x51
 5520 18cd 01       		.uleb128 0x1
 5521 18ce 32       		.byte	0x32
 5522 18cf 1E       		.uleb128 0x1e
 5523 18d0 01       		.uleb128 0x1
 5524 18d1 50       		.byte	0x50
ARM GAS  C:\Users\AHMED~1.ELE\AppData\Local\Temp\ccAhPyWN.s 			page 119


 5525 18d2 02       		.uleb128 0x2
 5526 18d3 08       		.byte	0x8
 5527 18d4 B9       		.byte	0xb9
 5528 18d5 00       		.byte	0
 5529 18d6 20       		.uleb128 0x20
 5530 18d7 30000000 		.4byte	.LVL59
 5531 18db 9F2D0000 		.4byte	0x2d9f
 5532 18df F3180000 		.4byte	0x18f3
 5533 18e3 1E       		.uleb128 0x1e
 5534 18e4 01       		.uleb128 0x1
 5535 18e5 52       		.byte	0x52
 5536 18e6 01       		.uleb128 0x1
 5537 18e7 31       		.byte	0x31
 5538 18e8 1E       		.uleb128 0x1e
 5539 18e9 01       		.uleb128 0x1
 5540 18ea 51       		.byte	0x51
 5541 18eb 01       		.uleb128 0x1
 5542 18ec 30       		.byte	0x30
 5543 18ed 1E       		.uleb128 0x1e
 5544 18ee 01       		.uleb128 0x1
 5545 18ef 50       		.byte	0x50
 5546 18f0 01       		.uleb128 0x1
 5547 18f1 3E       		.byte	0x3e
 5548 18f2 00       		.byte	0
 5549 18f3 29       		.uleb128 0x29
 5550 18f4 3A000000 		.4byte	.LVL60
 5551 18f8 58150000 		.4byte	0x1558
 5552 18fc 1D       		.uleb128 0x1d
 5553 18fd 4A000000 		.4byte	.LVL61
 5554 1901 9F2D0000 		.4byte	0x2d9f
 5555 1905 1E       		.uleb128 0x1e
 5556 1906 01       		.uleb128 0x1
 5557 1907 52       		.byte	0x52
 5558 1908 01       		.uleb128 0x1
 5559 1909 33       		.byte	0x33
 5560 190a 1E       		.uleb128 0x1e
 5561 190b 01       		.uleb128 0x1
 5562 190c 51       		.byte	0x51
 5563 190d 01       		.uleb128 0x1
 5564 190e 30       		.byte	0x30
 5565 190f 1E       		.uleb128 0x1e
 5566 1910 01       		.uleb128 0x1
 5567 1911 50       		.byte	0x50
 5568 1912 01       		.uleb128 0x1
 5569 1913 3E       		.byte	0x3e
 5570 1914 00       		.byte	0
 5571 1915 00       		.byte	0
 5572 1916 2C       		.uleb128 0x2c
 5573 1917 43000000 		.4byte	.LASF726
 5574 191b 01       		.byte	0x1
 5575 191c 2301     		.2byte	0x123
 5576 191e 00000000 		.4byte	.LFB10
 5577 1922 10000000 		.4byte	.LFE10-.LFB10
 5578 1926 01       		.uleb128 0x1
 5579 1927 9C       		.byte	0x9c
 5580 1928 3D190000 		.4byte	0x193d
 5581 192c 2D       		.uleb128 0x2d
ARM GAS  C:\Users\AHMED~1.ELE\AppData\Local\Temp\ccAhPyWN.s 			page 120


 5582 192d F12D0000 		.4byte	.LASF727
 5583 1931 01       		.byte	0x1
 5584 1932 2301     		.2byte	0x123
 5585 1934 A2000000 		.4byte	0xa2
 5586 1938 DC020000 		.4byte	.LLST15
 5587 193c 00       		.byte	0
 5588 193d 2C       		.uleb128 0x2c
 5589 193e BE100000 		.4byte	.LASF728
 5590 1942 01       		.byte	0x1
 5591 1943 2F01     		.2byte	0x12f
 5592 1945 00000000 		.4byte	.LFB11
 5593 1949 68000000 		.4byte	.LFE11-.LFB11
 5594 194d 01       		.uleb128 0x1
 5595 194e 9C       		.byte	0x9c
 5596 194f F5190000 		.4byte	0x19f5
 5597 1953 2E       		.uleb128 0x2e
 5598 1954 9B0B0000 		.4byte	.LASF729
 5599 1958 01       		.byte	0x1
 5600 1959 3101     		.2byte	0x131
 5601 195b D4000000 		.4byte	0xd4
 5602 195f 02       		.uleb128 0x2
 5603 1960 91       		.byte	0x91
 5604 1961 50       		.sleb128 -48
 5605 1962 20       		.uleb128 0x20
 5606 1963 28000000 		.4byte	.LVL64
 5607 1967 9F2D0000 		.4byte	0x2d9f
 5608 196b 85190000 		.4byte	0x1985
 5609 196f 1E       		.uleb128 0x1e
 5610 1970 01       		.uleb128 0x1
 5611 1971 53       		.byte	0x53
 5612 1972 01       		.uleb128 0x1
 5613 1973 30       		.byte	0x30
 5614 1974 1E       		.uleb128 0x1e
 5615 1975 01       		.uleb128 0x1
 5616 1976 51       		.byte	0x51
 5617 1977 01       		.uleb128 0x1
 5618 1978 3E       		.byte	0x3e
 5619 1979 1E       		.uleb128 0x1e
 5620 197a 01       		.uleb128 0x1
 5621 197b 50       		.byte	0x50
 5622 197c 01       		.uleb128 0x1
 5623 197d 3F       		.byte	0x3f
 5624 197e 1E       		.uleb128 0x1e
 5625 197f 02       		.uleb128 0x2
 5626 1980 7D       		.byte	0x7d
 5627 1981 00       		.sleb128 0
 5628 1982 01       		.uleb128 0x1
 5629 1983 30       		.byte	0x30
 5630 1984 00       		.byte	0
 5631 1985 20       		.uleb128 0x20
 5632 1986 38000000 		.4byte	.LVL65
 5633 198a E72D0000 		.4byte	0x2de7
 5634 198e A2190000 		.4byte	0x19a2
 5635 1992 1E       		.uleb128 0x1e
 5636 1993 01       		.uleb128 0x1
 5637 1994 51       		.byte	0x51
 5638 1995 05       		.uleb128 0x5
ARM GAS  C:\Users\AHMED~1.ELE\AppData\Local\Temp\ccAhPyWN.s 			page 121


 5639 1996 03       		.byte	0x3
 5640 1997 00000000 		.4byte	.LANCHOR2
 5641 199b 1E       		.uleb128 0x1e
 5642 199c 01       		.uleb128 0x1
 5643 199d 50       		.byte	0x50
 5644 199e 02       		.uleb128 0x2
 5645 199f 91       		.byte	0x91
 5646 19a0 50       		.sleb128 -48
 5647 19a1 00       		.byte	0
 5648 19a2 20       		.uleb128 0x20
 5649 19a3 46000000 		.4byte	.LVL66
 5650 19a7 9F2D0000 		.4byte	0x2d9f
 5651 19ab CD190000 		.4byte	0x19cd
 5652 19af 1E       		.uleb128 0x1e
 5653 19b0 01       		.uleb128 0x1
 5654 19b1 53       		.byte	0x53
 5655 19b2 02       		.uleb128 0x2
 5656 19b3 75       		.byte	0x75
 5657 19b4 00       		.sleb128 0
 5658 19b5 1E       		.uleb128 0x1e
 5659 19b6 01       		.uleb128 0x1
 5660 19b7 52       		.byte	0x52
 5661 19b8 02       		.uleb128 0x2
 5662 19b9 91       		.byte	0x91
 5663 19ba 50       		.sleb128 -48
 5664 19bb 1E       		.uleb128 0x1e
 5665 19bc 01       		.uleb128 0x1
 5666 19bd 51       		.byte	0x51
 5667 19be 01       		.uleb128 0x1
 5668 19bf 3C       		.byte	0x3c
 5669 19c0 1E       		.uleb128 0x1e
 5670 19c1 01       		.uleb128 0x1
 5671 19c2 50       		.byte	0x50
 5672 19c3 01       		.uleb128 0x1
 5673 19c4 3F       		.byte	0x3f
 5674 19c5 1E       		.uleb128 0x1e
 5675 19c6 02       		.uleb128 0x2
 5676 19c7 7D       		.byte	0x7d
 5677 19c8 00       		.sleb128 0
 5678 19c9 02       		.uleb128 0x2
 5679 19ca 75       		.byte	0x75
 5680 19cb 00       		.sleb128 0
 5681 19cc 00       		.byte	0
 5682 19cd 1D       		.uleb128 0x1d
 5683 19ce 54000000 		.4byte	.LVL67
 5684 19d2 9F2D0000 		.4byte	0x2d9f
 5685 19d6 1E       		.uleb128 0x1e
 5686 19d7 01       		.uleb128 0x1
 5687 19d8 53       		.byte	0x53
 5688 19d9 02       		.uleb128 0x2
 5689 19da 75       		.byte	0x75
 5690 19db 00       		.sleb128 0
 5691 19dc 1E       		.uleb128 0x1e
 5692 19dd 01       		.uleb128 0x1
 5693 19de 52       		.byte	0x52
 5694 19df 02       		.uleb128 0x2
 5695 19e0 91       		.byte	0x91
ARM GAS  C:\Users\AHMED~1.ELE\AppData\Local\Temp\ccAhPyWN.s 			page 122


 5696 19e1 50       		.sleb128 -48
 5697 19e2 1E       		.uleb128 0x1e
 5698 19e3 01       		.uleb128 0x1
 5699 19e4 51       		.byte	0x51
 5700 19e5 01       		.uleb128 0x1
 5701 19e6 3B       		.byte	0x3b
 5702 19e7 1E       		.uleb128 0x1e
 5703 19e8 01       		.uleb128 0x1
 5704 19e9 50       		.byte	0x50
 5705 19ea 01       		.uleb128 0x1
 5706 19eb 3F       		.byte	0x3f
 5707 19ec 1E       		.uleb128 0x1e
 5708 19ed 02       		.uleb128 0x2
 5709 19ee 7D       		.byte	0x7d
 5710 19ef 00       		.sleb128 0
 5711 19f0 02       		.uleb128 0x2
 5712 19f1 75       		.byte	0x75
 5713 19f2 00       		.sleb128 0
 5714 19f3 00       		.byte	0
 5715 19f4 00       		.byte	0
 5716 19f5 2C       		.uleb128 0x2c
 5717 19f6 1C160000 		.4byte	.LASF730
 5718 19fa 01       		.byte	0x1
 5719 19fb 4B01     		.2byte	0x14b
 5720 19fd 00000000 		.4byte	.LFB12
 5721 1a01 40000000 		.4byte	.LFE12-.LFB12
 5722 1a05 01       		.uleb128 0x1
 5723 1a06 9C       		.byte	0x9c
 5724 1a07 801A0000 		.4byte	0x1a80
 5725 1a0b 2E       		.uleb128 0x2e
 5726 1a0c 9B0B0000 		.4byte	.LASF729
 5727 1a10 01       		.byte	0x1
 5728 1a11 4D01     		.2byte	0x14d
 5729 1a13 D4000000 		.4byte	0xd4
 5730 1a17 02       		.uleb128 0x2
 5731 1a18 91       		.byte	0x91
 5732 1a19 58       		.sleb128 -40
 5733 1a1a 20       		.uleb128 0x20
 5734 1a1b 0E000000 		.4byte	.LVL68
 5735 1a1f E72D0000 		.4byte	0x2de7
 5736 1a23 371A0000 		.4byte	0x1a37
 5737 1a27 1E       		.uleb128 0x1e
 5738 1a28 01       		.uleb128 0x1
 5739 1a29 51       		.byte	0x51
 5740 1a2a 05       		.uleb128 0x5
 5741 1a2b 03       		.byte	0x3
 5742 1a2c 00000000 		.4byte	.LANCHOR2
 5743 1a30 1E       		.uleb128 0x1e
 5744 1a31 01       		.uleb128 0x1
 5745 1a32 50       		.byte	0x50
 5746 1a33 02       		.uleb128 0x2
 5747 1a34 91       		.byte	0x91
 5748 1a35 58       		.sleb128 -40
 5749 1a36 00       		.byte	0
 5750 1a37 20       		.uleb128 0x20
 5751 1a38 20000000 		.4byte	.LVL69
 5752 1a3c 9F2D0000 		.4byte	0x2d9f
ARM GAS  C:\Users\AHMED~1.ELE\AppData\Local\Temp\ccAhPyWN.s 			page 123


 5753 1a40 5A1A0000 		.4byte	0x1a5a
 5754 1a44 1E       		.uleb128 0x1e
 5755 1a45 01       		.uleb128 0x1
 5756 1a46 53       		.byte	0x53
 5757 1a47 01       		.uleb128 0x1
 5758 1a48 30       		.byte	0x30
 5759 1a49 1E       		.uleb128 0x1e
 5760 1a4a 01       		.uleb128 0x1
 5761 1a4b 51       		.byte	0x51
 5762 1a4c 01       		.uleb128 0x1
 5763 1a4d 3E       		.byte	0x3e
 5764 1a4e 1E       		.uleb128 0x1e
 5765 1a4f 01       		.uleb128 0x1
 5766 1a50 50       		.byte	0x50
 5767 1a51 01       		.uleb128 0x1
 5768 1a52 3F       		.byte	0x3f
 5769 1a53 1E       		.uleb128 0x1e
 5770 1a54 02       		.uleb128 0x2
 5771 1a55 7D       		.byte	0x7d
 5772 1a56 00       		.sleb128 0
 5773 1a57 01       		.uleb128 0x1
 5774 1a58 30       		.byte	0x30
 5775 1a59 00       		.byte	0
 5776 1a5a 1D       		.uleb128 0x1d
 5777 1a5b 34000000 		.4byte	.LVL70
 5778 1a5f 9F2D0000 		.4byte	0x2d9f
 5779 1a63 1E       		.uleb128 0x1e
 5780 1a64 01       		.uleb128 0x1
 5781 1a65 53       		.byte	0x53
 5782 1a66 01       		.uleb128 0x1
 5783 1a67 30       		.byte	0x30
 5784 1a68 1E       		.uleb128 0x1e
 5785 1a69 01       		.uleb128 0x1
 5786 1a6a 52       		.byte	0x52
 5787 1a6b 02       		.uleb128 0x2
 5788 1a6c 91       		.byte	0x91
 5789 1a6d 58       		.sleb128 -40
 5790 1a6e 1E       		.uleb128 0x1e
 5791 1a6f 01       		.uleb128 0x1
 5792 1a70 51       		.byte	0x51
 5793 1a71 01       		.uleb128 0x1
 5794 1a72 3C       		.byte	0x3c
 5795 1a73 1E       		.uleb128 0x1e
 5796 1a74 01       		.uleb128 0x1
 5797 1a75 50       		.byte	0x50
 5798 1a76 01       		.uleb128 0x1
 5799 1a77 3F       		.byte	0x3f
 5800 1a78 1E       		.uleb128 0x1e
 5801 1a79 02       		.uleb128 0x2
 5802 1a7a 7D       		.byte	0x7d
 5803 1a7b 00       		.sleb128 0
 5804 1a7c 01       		.uleb128 0x1
 5805 1a7d 30       		.byte	0x30
 5806 1a7e 00       		.byte	0
 5807 1a7f 00       		.byte	0
 5808 1a80 2C       		.uleb128 0x2c
 5809 1a81 F0030000 		.4byte	.LASF731
ARM GAS  C:\Users\AHMED~1.ELE\AppData\Local\Temp\ccAhPyWN.s 			page 124


 5810 1a85 01       		.byte	0x1
 5811 1a86 5F01     		.2byte	0x15f
 5812 1a88 00000000 		.4byte	.LFB13
 5813 1a8c 78000000 		.4byte	.LFE13-.LFB13
 5814 1a90 01       		.uleb128 0x1
 5815 1a91 9C       		.byte	0x9c
 5816 1a92 411B0000 		.4byte	0x1b41
 5817 1a96 2D       		.uleb128 0x2d
 5818 1a97 02040000 		.4byte	.LASF732
 5819 1a9b 01       		.byte	0x1
 5820 1a9c 5F01     		.2byte	0x15f
 5821 1a9e A2000000 		.4byte	0xa2
 5822 1aa2 FD020000 		.4byte	.LLST16
 5823 1aa6 2D       		.uleb128 0x2d
 5824 1aa7 502F0000 		.4byte	.LASF733
 5825 1aab 01       		.byte	0x1
 5826 1aac 5F01     		.2byte	0x15f
 5827 1aae CE000000 		.4byte	0xce
 5828 1ab2 2D030000 		.4byte	.LLST17
 5829 1ab6 2D       		.uleb128 0x2d
 5830 1ab7 C8260000 		.4byte	.LASF721
 5831 1abb 01       		.byte	0x1
 5832 1abc 5F01     		.2byte	0x15f
 5833 1abe AD000000 		.4byte	0xad
 5834 1ac2 59030000 		.4byte	.LLST18
 5835 1ac6 2F       		.uleb128 0x2f
 5836 1ac7 DD300000 		.4byte	.LASF734
 5837 1acb 01       		.byte	0x1
 5838 1acc 6101     		.2byte	0x161
 5839 1ace AD000000 		.4byte	0xad
 5840 1ad2 90030000 		.4byte	.LLST19
 5841 1ad6 20       		.uleb128 0x20
 5842 1ad7 2A000000 		.4byte	.LVL76
 5843 1adb 002D0000 		.4byte	0x2d00
 5844 1adf FA1A0000 		.4byte	0x1afa
 5845 1ae3 1E       		.uleb128 0x1e
 5846 1ae4 01       		.uleb128 0x1
 5847 1ae5 52       		.byte	0x52
 5848 1ae6 01       		.uleb128 0x1
 5849 1ae7 32       		.byte	0x32
 5850 1ae8 1E       		.uleb128 0x1e
 5851 1ae9 01       		.uleb128 0x1
 5852 1aea 51       		.byte	0x51
 5853 1aeb 02       		.uleb128 0x2
 5854 1aec 91       		.byte	0x91
 5855 1aed 5E       		.sleb128 -34
 5856 1aee 1E       		.uleb128 0x1e
 5857 1aef 01       		.uleb128 0x1
 5858 1af0 50       		.byte	0x50
 5859 1af1 07       		.uleb128 0x7
 5860 1af2 77       		.byte	0x77
 5861 1af3 00       		.sleb128 0
 5862 1af4 75       		.byte	0x75
 5863 1af5 00       		.sleb128 0
 5864 1af6 22       		.byte	0x22
 5865 1af7 23       		.byte	0x23
 5866 1af8 01       		.uleb128 0x1
ARM GAS  C:\Users\AHMED~1.ELE\AppData\Local\Temp\ccAhPyWN.s 			page 125


 5867 1af9 00       		.byte	0
 5868 1afa 20       		.uleb128 0x20
 5869 1afb 38000000 		.4byte	.LVL77
 5870 1aff 002D0000 		.4byte	0x2d00
 5871 1b03 191B0000 		.4byte	0x1b19
 5872 1b07 1E       		.uleb128 0x1e
 5873 1b08 01       		.uleb128 0x1
 5874 1b09 51       		.byte	0x51
 5875 1b0a 02       		.uleb128 0x2
 5876 1b0b 79       		.byte	0x79
 5877 1b0c 00       		.sleb128 0
 5878 1b0d 1E       		.uleb128 0x1e
 5879 1b0e 01       		.uleb128 0x1
 5880 1b0f 50       		.byte	0x50
 5881 1b10 07       		.uleb128 0x7
 5882 1b11 77       		.byte	0x77
 5883 1b12 00       		.sleb128 0
 5884 1b13 75       		.byte	0x75
 5885 1b14 00       		.sleb128 0
 5886 1b15 22       		.byte	0x22
 5887 1b16 23       		.byte	0x23
 5888 1b17 03       		.uleb128 0x3
 5889 1b18 00       		.byte	0
 5890 1b19 1D       		.uleb128 0x1d
 5891 1b1a 58000000 		.4byte	.LVL78
 5892 1b1e 9F2D0000 		.4byte	0x2d9f
 5893 1b22 1E       		.uleb128 0x1e
 5894 1b23 01       		.uleb128 0x1
 5895 1b24 53       		.byte	0x53
 5896 1b25 02       		.uleb128 0x2
 5897 1b26 77       		.byte	0x77
 5898 1b27 00       		.sleb128 0
 5899 1b28 1E       		.uleb128 0x1e
 5900 1b29 01       		.uleb128 0x1
 5901 1b2a 51       		.byte	0x51
 5902 1b2b 01       		.uleb128 0x1
 5903 1b2c 42       		.byte	0x42
 5904 1b2d 1E       		.uleb128 0x1e
 5905 1b2e 01       		.uleb128 0x1
 5906 1b2f 50       		.byte	0x50
 5907 1b30 01       		.uleb128 0x1
 5908 1b31 3F       		.byte	0x3f
 5909 1b32 1E       		.uleb128 0x1e
 5910 1b33 02       		.uleb128 0x2
 5911 1b34 7D       		.byte	0x7d
 5912 1b35 00       		.sleb128 0
 5913 1b36 08       		.uleb128 0x8
 5914 1b37 74       		.byte	0x74
 5915 1b38 01       		.sleb128 1
 5916 1b39 08       		.byte	0x8
 5917 1b3a FF       		.byte	0xff
 5918 1b3b 1A       		.byte	0x1a
 5919 1b3c 78       		.byte	0x78
 5920 1b3d 00       		.sleb128 0
 5921 1b3e 1E       		.byte	0x1e
 5922 1b3f 00       		.byte	0
 5923 1b40 00       		.byte	0
ARM GAS  C:\Users\AHMED~1.ELE\AppData\Local\Temp\ccAhPyWN.s 			page 126


 5924 1b41 2C       		.uleb128 0x2c
 5925 1b42 12030000 		.4byte	.LASF735
 5926 1b46 01       		.byte	0x1
 5927 1b47 7601     		.2byte	0x176
 5928 1b49 00000000 		.4byte	.LFB14
 5929 1b4d 44010000 		.4byte	.LFE14-.LFB14
 5930 1b51 01       		.uleb128 0x1
 5931 1b52 9C       		.byte	0x9c
 5932 1b53 B51C0000 		.4byte	0x1cb5
 5933 1b57 2F       		.uleb128 0x2f
 5934 1b58 FC230000 		.4byte	.LASF736
 5935 1b5c 01       		.byte	0x1
 5936 1b5d 7801     		.2byte	0x178
 5937 1b5f 25000000 		.4byte	0x25
 5938 1b63 AB030000 		.4byte	.LLST20
 5939 1b67 30       		.uleb128 0x30
 5940 1b68 6C656E00 		.ascii	"len\000"
 5941 1b6c 01       		.byte	0x1
 5942 1b6d 7801     		.2byte	0x178
 5943 1b6f 25000000 		.4byte	0x25
 5944 1b73 C9030000 		.4byte	.LLST21
 5945 1b77 2E       		.uleb128 0x2e
 5946 1b78 8B040000 		.4byte	.LASF737
 5947 1b7c 01       		.byte	0x1
 5948 1b7d 7901     		.2byte	0x179
 5949 1b7f A2000000 		.4byte	0xa2
 5950 1b83 02       		.uleb128 0x2
 5951 1b84 91       		.byte	0x91
 5952 1b85 5F       		.sleb128 -33
 5953 1b86 29       		.uleb128 0x29
 5954 1b87 0A000000 		.4byte	.LVL80
 5955 1b8b 29150000 		.4byte	0x1529
 5956 1b8f 29       		.uleb128 0x29
 5957 1b90 30000000 		.4byte	.LVL81
 5958 1b94 68140000 		.4byte	0x1468
 5959 1b98 20       		.uleb128 0x20
 5960 1b99 4A000000 		.4byte	.LVL82
 5961 1b9d 9F2D0000 		.4byte	0x2d9f
 5962 1ba1 B01B0000 		.4byte	0x1bb0
 5963 1ba5 1E       		.uleb128 0x1e
 5964 1ba6 01       		.uleb128 0x1
 5965 1ba7 51       		.byte	0x51
 5966 1ba8 01       		.uleb128 0x1
 5967 1ba9 42       		.byte	0x42
 5968 1baa 1E       		.uleb128 0x1e
 5969 1bab 01       		.uleb128 0x1
 5970 1bac 50       		.byte	0x50
 5971 1bad 01       		.uleb128 0x1
 5972 1bae 3F       		.byte	0x3f
 5973 1baf 00       		.byte	0
 5974 1bb0 29       		.uleb128 0x29
 5975 1bb1 60000000 		.4byte	.LVL83
 5976 1bb5 60140000 		.4byte	0x1460
 5977 1bb9 20       		.uleb128 0x20
 5978 1bba 70000000 		.4byte	.LVL84
 5979 1bbe 9F2D0000 		.4byte	0x2d9f
 5980 1bc2 DE1B0000 		.4byte	0x1bde
ARM GAS  C:\Users\AHMED~1.ELE\AppData\Local\Temp\ccAhPyWN.s 			page 127


 5981 1bc6 1E       		.uleb128 0x1e
 5982 1bc7 01       		.uleb128 0x1
 5983 1bc8 53       		.byte	0x53
 5984 1bc9 02       		.uleb128 0x2
 5985 1bca 76       		.byte	0x76
 5986 1bcb 00       		.sleb128 0
 5987 1bcc 1E       		.uleb128 0x1e
 5988 1bcd 01       		.uleb128 0x1
 5989 1bce 51       		.byte	0x51
 5990 1bcf 01       		.uleb128 0x1
 5991 1bd0 3F       		.byte	0x3f
 5992 1bd1 1E       		.uleb128 0x1e
 5993 1bd2 01       		.uleb128 0x1
 5994 1bd3 50       		.byte	0x50
 5995 1bd4 01       		.uleb128 0x1
 5996 1bd5 3F       		.byte	0x3f
 5997 1bd6 1E       		.uleb128 0x1e
 5998 1bd7 02       		.uleb128 0x2
 5999 1bd8 7D       		.byte	0x7d
 6000 1bd9 00       		.sleb128 0
 6001 1bda 02       		.uleb128 0x2
 6002 1bdb 76       		.byte	0x76
 6003 1bdc 00       		.sleb128 0
 6004 1bdd 00       		.byte	0
 6005 1bde 20       		.uleb128 0x20
 6006 1bdf 80000000 		.4byte	.LVL87
 6007 1be3 9F2D0000 		.4byte	0x2d9f
 6008 1be7 031C0000 		.4byte	0x1c03
 6009 1beb 1E       		.uleb128 0x1e
 6010 1bec 01       		.uleb128 0x1
 6011 1bed 53       		.byte	0x53
 6012 1bee 02       		.uleb128 0x2
 6013 1bef 76       		.byte	0x76
 6014 1bf0 00       		.sleb128 0
 6015 1bf1 1E       		.uleb128 0x1e
 6016 1bf2 01       		.uleb128 0x1
 6017 1bf3 51       		.byte	0x51
 6018 1bf4 01       		.uleb128 0x1
 6019 1bf5 40       		.byte	0x40
 6020 1bf6 1E       		.uleb128 0x1e
 6021 1bf7 01       		.uleb128 0x1
 6022 1bf8 50       		.byte	0x50
 6023 1bf9 01       		.uleb128 0x1
 6024 1bfa 3F       		.byte	0x3f
 6025 1bfb 1E       		.uleb128 0x1e
 6026 1bfc 02       		.uleb128 0x2
 6027 1bfd 7D       		.byte	0x7d
 6028 1bfe 00       		.sleb128 0
 6029 1bff 02       		.uleb128 0x2
 6030 1c00 76       		.byte	0x76
 6031 1c01 00       		.sleb128 0
 6032 1c02 00       		.byte	0
 6033 1c03 20       		.uleb128 0x20
 6034 1c04 9C000000 		.4byte	.LVL89
 6035 1c08 9F2D0000 		.4byte	0x2d9f
 6036 1c0c 271C0000 		.4byte	0x1c27
 6037 1c10 1E       		.uleb128 0x1e
ARM GAS  C:\Users\AHMED~1.ELE\AppData\Local\Temp\ccAhPyWN.s 			page 128


 6038 1c11 01       		.uleb128 0x1
 6039 1c12 53       		.byte	0x53
 6040 1c13 02       		.uleb128 0x2
 6041 1c14 91       		.byte	0x91
 6042 1c15 5F       		.sleb128 -33
 6043 1c16 1E       		.uleb128 0x1e
 6044 1c17 01       		.uleb128 0x1
 6045 1c18 51       		.byte	0x51
 6046 1c19 01       		.uleb128 0x1
 6047 1c1a 41       		.byte	0x41
 6048 1c1b 1E       		.uleb128 0x1e
 6049 1c1c 01       		.uleb128 0x1
 6050 1c1d 50       		.byte	0x50
 6051 1c1e 01       		.uleb128 0x1
 6052 1c1f 3F       		.byte	0x3f
 6053 1c20 1E       		.uleb128 0x1e
 6054 1c21 02       		.uleb128 0x2
 6055 1c22 7D       		.byte	0x7d
 6056 1c23 00       		.sleb128 0
 6057 1c24 01       		.uleb128 0x1
 6058 1c25 31       		.byte	0x31
 6059 1c26 00       		.byte	0
 6060 1c27 20       		.uleb128 0x20
 6061 1c28 AC000000 		.4byte	.LVL90
 6062 1c2c 9F2D0000 		.4byte	0x2d9f
 6063 1c30 451C0000 		.4byte	0x1c45
 6064 1c34 1E       		.uleb128 0x1e
 6065 1c35 01       		.uleb128 0x1
 6066 1c36 51       		.byte	0x51
 6067 1c37 01       		.uleb128 0x1
 6068 1c38 41       		.byte	0x41
 6069 1c39 1E       		.uleb128 0x1e
 6070 1c3a 01       		.uleb128 0x1
 6071 1c3b 50       		.byte	0x50
 6072 1c3c 01       		.uleb128 0x1
 6073 1c3d 3F       		.byte	0x3f
 6074 1c3e 1E       		.uleb128 0x1e
 6075 1c3f 02       		.uleb128 0x2
 6076 1c40 7D       		.byte	0x7d
 6077 1c41 00       		.sleb128 0
 6078 1c42 01       		.uleb128 0x1
 6079 1c43 32       		.byte	0x32
 6080 1c44 00       		.byte	0
 6081 1c45 20       		.uleb128 0x20
 6082 1c46 C0000000 		.4byte	.LVL91
 6083 1c4a 9F2D0000 		.4byte	0x2d9f
 6084 1c4e 641C0000 		.4byte	0x1c64
 6085 1c52 1E       		.uleb128 0x1e
 6086 1c53 01       		.uleb128 0x1
 6087 1c54 51       		.byte	0x51
 6088 1c55 01       		.uleb128 0x1
 6089 1c56 41       		.byte	0x41
 6090 1c57 1E       		.uleb128 0x1e
 6091 1c58 01       		.uleb128 0x1
 6092 1c59 50       		.byte	0x50
 6093 1c5a 01       		.uleb128 0x1
 6094 1c5b 3F       		.byte	0x3f
ARM GAS  C:\Users\AHMED~1.ELE\AppData\Local\Temp\ccAhPyWN.s 			page 129


 6095 1c5c 1E       		.uleb128 0x1e
 6096 1c5d 02       		.uleb128 0x2
 6097 1c5e 7D       		.byte	0x7d
 6098 1c5f 00       		.sleb128 0
 6099 1c60 02       		.uleb128 0x2
 6100 1c61 79       		.byte	0x79
 6101 1c62 7E       		.sleb128 -2
 6102 1c63 00       		.byte	0
 6103 1c64 20       		.uleb128 0x20
 6104 1c65 E0000000 		.4byte	.LVL92
 6105 1c69 9F2D0000 		.4byte	0x2d9f
 6106 1c6d 7C1C0000 		.4byte	0x1c7c
 6107 1c71 1E       		.uleb128 0x1e
 6108 1c72 01       		.uleb128 0x1
 6109 1c73 51       		.byte	0x51
 6110 1c74 01       		.uleb128 0x1
 6111 1c75 30       		.byte	0x30
 6112 1c76 1E       		.uleb128 0x1e
 6113 1c77 01       		.uleb128 0x1
 6114 1c78 50       		.byte	0x50
 6115 1c79 01       		.uleb128 0x1
 6116 1c7a 3E       		.byte	0x3e
 6117 1c7b 00       		.byte	0
 6118 1c7c 20       		.uleb128 0x20
 6119 1c7d 0E010000 		.4byte	.LVL94
 6120 1c81 9F2D0000 		.4byte	0x2d9f
 6121 1c85 991C0000 		.4byte	0x1c99
 6122 1c89 1E       		.uleb128 0x1e
 6123 1c8a 01       		.uleb128 0x1
 6124 1c8b 52       		.byte	0x52
 6125 1c8c 01       		.uleb128 0x1
 6126 1c8d 35       		.byte	0x35
 6127 1c8e 1E       		.uleb128 0x1e
 6128 1c8f 01       		.uleb128 0x1
 6129 1c90 51       		.byte	0x51
 6130 1c91 01       		.uleb128 0x1
 6131 1c92 30       		.byte	0x30
 6132 1c93 1E       		.uleb128 0x1e
 6133 1c94 01       		.uleb128 0x1
 6134 1c95 50       		.byte	0x50
 6135 1c96 01       		.uleb128 0x1
 6136 1c97 3E       		.byte	0x3e
 6137 1c98 00       		.byte	0
 6138 1c99 29       		.uleb128 0x29
 6139 1c9a 2E010000 		.4byte	.LVL95
 6140 1c9e 60140000 		.4byte	0x1460
 6141 1ca2 29       		.uleb128 0x29
 6142 1ca3 32010000 		.4byte	.LVL96
 6143 1ca7 F5190000 		.4byte	0x19f5
 6144 1cab 29       		.uleb128 0x29
 6145 1cac 36010000 		.4byte	.LVL97
 6146 1cb0 58150000 		.4byte	0x1558
 6147 1cb4 00       		.byte	0
 6148 1cb5 2A       		.uleb128 0x2a
 6149 1cb6 71140000 		.4byte	0x1471
 6150 1cba 00000000 		.4byte	.LFB16
 6151 1cbe 44000000 		.4byte	.LFE16-.LFB16
ARM GAS  C:\Users\AHMED~1.ELE\AppData\Local\Temp\ccAhPyWN.s 			page 130


 6152 1cc2 01       		.uleb128 0x1
 6153 1cc3 9C       		.byte	0x9c
 6154 1cc4 251D0000 		.4byte	0x1d25
 6155 1cc8 31       		.uleb128 0x31
 6156 1cc9 82140000 		.4byte	0x1482
 6157 1ccd DC030000 		.4byte	.LLST22
 6158 1cd1 31       		.uleb128 0x31
 6159 1cd2 8E140000 		.4byte	0x148e
 6160 1cd6 08040000 		.4byte	.LLST23
 6161 1cda 32       		.uleb128 0x32
 6162 1cdb 2A000000 		.4byte	.LBB14
 6163 1cdf 12000000 		.4byte	.LBE14-.LBB14
 6164 1ce3 0B1D0000 		.4byte	0x1d0b
 6165 1ce7 33       		.uleb128 0x33
 6166 1ce8 8E140000 		.4byte	0x148e
 6167 1cec 31       		.uleb128 0x31
 6168 1ced 82140000 		.4byte	0x1482
 6169 1cf1 29040000 		.4byte	.LLST24
 6170 1cf5 1D       		.uleb128 0x1d
 6171 1cf6 3A000000 		.4byte	.LVL103
 6172 1cfa 002D0000 		.4byte	0x2d00
 6173 1cfe 1E       		.uleb128 0x1e
 6174 1cff 01       		.uleb128 0x1
 6175 1d00 52       		.byte	0x52
 6176 1d01 01       		.uleb128 0x1
 6177 1d02 3C       		.byte	0x3c
 6178 1d03 1E       		.uleb128 0x1e
 6179 1d04 01       		.uleb128 0x1
 6180 1d05 50       		.byte	0x50
 6181 1d06 02       		.uleb128 0x2
 6182 1d07 76       		.byte	0x76
 6183 1d08 00       		.sleb128 0
 6184 1d09 00       		.byte	0
 6185 1d0a 00       		.byte	0
 6186 1d0b 1D       		.uleb128 0x1d
 6187 1d0c 26000000 		.4byte	.LVL101
 6188 1d10 9F2D0000 		.4byte	0x2d9f
 6189 1d14 1E       		.uleb128 0x1e
 6190 1d15 01       		.uleb128 0x1
 6191 1d16 52       		.byte	0x52
 6192 1d17 01       		.uleb128 0x1
 6193 1d18 3A       		.byte	0x3a
 6194 1d19 1E       		.uleb128 0x1e
 6195 1d1a 01       		.uleb128 0x1
 6196 1d1b 51       		.byte	0x51
 6197 1d1c 01       		.uleb128 0x1
 6198 1d1d 30       		.byte	0x30
 6199 1d1e 1E       		.uleb128 0x1e
 6200 1d1f 01       		.uleb128 0x1
 6201 1d20 50       		.byte	0x50
 6202 1d21 01       		.uleb128 0x1
 6203 1d22 3E       		.byte	0x3e
 6204 1d23 00       		.byte	0
 6205 1d24 00       		.byte	0
 6206 1d25 15       		.uleb128 0x15
 6207 1d26 FF130000 		.4byte	.LASF738
 6208 1d2a 01       		.byte	0x1
ARM GAS  C:\Users\AHMED~1.ELE\AppData\Local\Temp\ccAhPyWN.s 			page 131


 6209 1d2b AE01     		.2byte	0x1ae
 6210 1d2d 97000000 		.4byte	0x97
 6211 1d31 01       		.byte	0x1
 6212 1d32 4F1D0000 		.4byte	0x1d4f
 6213 1d36 16       		.uleb128 0x16
 6214 1d37 9E300000 		.4byte	.LASF739
 6215 1d3b 01       		.byte	0x1
 6216 1d3c AE01     		.2byte	0x1ae
 6217 1d3e 4F1D0000 		.4byte	0x1d4f
 6218 1d42 16       		.uleb128 0x16
 6219 1d43 36060000 		.4byte	.LASF705
 6220 1d47 01       		.byte	0x1
 6221 1d48 AE01     		.2byte	0x1ae
 6222 1d4a B8000000 		.4byte	0xb8
 6223 1d4e 00       		.byte	0
 6224 1d4f 06       		.uleb128 0x6
 6225 1d50 04       		.byte	0x4
 6226 1d51 8E130000 		.4byte	0x138e
 6227 1d55 34       		.uleb128 0x34
 6228 1d56 980D0000 		.4byte	.LASF740
 6229 1d5a 01       		.byte	0x1
 6230 1d5b E702     		.2byte	0x2e7
 6231 1d5d 97000000 		.4byte	0x97
 6232 1d61 00000000 		.4byte	.LFB19
 6233 1d65 F4060000 		.4byte	.LFE19-.LFB19
 6234 1d69 01       		.uleb128 0x1
 6235 1d6a 9C       		.byte	0x9c
 6236 1d6b 572A0000 		.4byte	0x2a57
 6237 1d6f 2D       		.uleb128 0x2d
 6238 1d70 500B0000 		.4byte	.LASF695
 6239 1d74 01       		.byte	0x1
 6240 1d75 E702     		.2byte	0x2e7
 6241 1d77 97000000 		.4byte	0x97
 6242 1d7b 3C040000 		.4byte	.LLST25
 6243 1d7f 2D       		.uleb128 0x2d
 6244 1d80 6A030000 		.4byte	.LASF696
 6245 1d84 01       		.byte	0x1
 6246 1d85 E702     		.2byte	0x2e7
 6247 1d87 97000000 		.4byte	0x97
 6248 1d8b 5D040000 		.4byte	.LLST26
 6249 1d8f 2F       		.uleb128 0x2f
 6250 1d90 1C0F0000 		.4byte	.LASF697
 6251 1d94 01       		.byte	0x1
 6252 1d95 E902     		.2byte	0x2e9
 6253 1d97 97000000 		.4byte	0x97
 6254 1d9b 7E040000 		.4byte	.LLST27
 6255 1d9f 30       		.uleb128 0x30
 6256 1da0 6900     		.ascii	"i\000"
 6257 1da2 01       		.byte	0x1
 6258 1da3 EA02     		.2byte	0x2ea
 6259 1da5 25000000 		.4byte	0x25
 6260 1da9 B3040000 		.4byte	.LLST28
 6261 1dad 2F       		.uleb128 0x2f
 6262 1dae 350C0000 		.4byte	.LASF741
 6263 1db2 01       		.byte	0x1
 6264 1db3 EB02     		.2byte	0x2eb
 6265 1db5 8E130000 		.4byte	0x138e
ARM GAS  C:\Users\AHMED~1.ELE\AppData\Local\Temp\ccAhPyWN.s 			page 132


 6266 1db9 DD040000 		.4byte	.LLST29
 6267 1dbd 35       		.uleb128 0x35
 6268 1dbe D6130000 		.4byte	0x13d6
 6269 1dc2 12000000 		.4byte	.LBB22
 6270 1dc6 00000000 		.4byte	.Ldebug_ranges0+0
 6271 1dca 01       		.byte	0x1
 6272 1dcb F502     		.2byte	0x2f5
 6273 1dcd 4C270000 		.4byte	0x274c
 6274 1dd1 31       		.uleb128 0x31
 6275 1dd2 F3130000 		.4byte	0x13f3
 6276 1dd6 F5040000 		.4byte	.LLST30
 6277 1dda 33       		.uleb128 0x33
 6278 1ddb FF130000 		.4byte	0x13ff
 6279 1ddf 36       		.uleb128 0x36
 6280 1de0 E7130000 		.4byte	0x13e7
 6281 1de4 03       		.uleb128 0x3
 6282 1de5 91       		.byte	0x91
 6283 1de6 C07B     		.sleb128 -576
 6284 1de8 37       		.uleb128 0x37
 6285 1de9 00000000 		.4byte	.Ldebug_ranges0+0
 6286 1ded 38       		.uleb128 0x38
 6287 1dee 0B140000 		.4byte	0x140b
 6288 1df2 0B050000 		.4byte	.LLST31
 6289 1df6 38       		.uleb128 0x38
 6290 1df7 17140000 		.4byte	0x1417
 6291 1dfb 36050000 		.4byte	.LLST32
 6292 1dff 39       		.uleb128 0x39
 6293 1e00 23140000 		.4byte	0x1423
 6294 1e04 03       		.uleb128 0x3
 6295 1e05 91       		.byte	0x91
 6296 1e06 A876     		.sleb128 -1240
 6297 1e08 39       		.uleb128 0x39
 6298 1e09 2F140000 		.4byte	0x142f
 6299 1e0d 03       		.uleb128 0x3
 6300 1e0e 91       		.byte	0x91
 6301 1e0f E876     		.sleb128 -1176
 6302 1e11 38       		.uleb128 0x38
 6303 1e12 3B140000 		.4byte	0x143b
 6304 1e16 5F050000 		.4byte	.LLST33
 6305 1e1a 38       		.uleb128 0x38
 6306 1e1b 47140000 		.4byte	0x1447
 6307 1e1f 95050000 		.4byte	.LLST34
 6308 1e23 39       		.uleb128 0x39
 6309 1e24 53140000 		.4byte	0x1453
 6310 1e28 03       		.uleb128 0x3
 6311 1e29 91       		.byte	0x91
 6312 1e2a 9C76     		.sleb128 -1252
 6313 1e2c 20       		.uleb128 0x20
 6314 1e2d 8A000000 		.4byte	.LVL117
 6315 1e31 962C0000 		.4byte	0x2c96
 6316 1e35 471E0000 		.4byte	0x1e47
 6317 1e39 1E       		.uleb128 0x1e
 6318 1e3a 01       		.uleb128 0x1
 6319 1e3b 51       		.byte	0x51
 6320 1e3c 03       		.uleb128 0x3
 6321 1e3d 0A       		.byte	0xa
 6322 1e3e 0004     		.2byte	0x400
ARM GAS  C:\Users\AHMED~1.ELE\AppData\Local\Temp\ccAhPyWN.s 			page 133


 6323 1e40 1E       		.uleb128 0x1e
 6324 1e41 01       		.uleb128 0x1
 6325 1e42 50       		.byte	0x50
 6326 1e43 02       		.uleb128 0x2
 6327 1e44 08       		.byte	0x8
 6328 1e45 92       		.byte	0x92
 6329 1e46 00       		.byte	0
 6330 1e47 20       		.uleb128 0x20
 6331 1e48 A2000000 		.4byte	.LVL120
 6332 1e4c 73160000 		.4byte	0x1673
 6333 1e50 6A1E0000 		.4byte	0x1e6a
 6334 1e54 1E       		.uleb128 0x1e
 6335 1e55 01       		.uleb128 0x1
 6336 1e56 52       		.byte	0x52
 6337 1e57 03       		.uleb128 0x3
 6338 1e58 0B       		.byte	0xb
 6339 1e59 069F     		.2byte	0x9f06
 6340 1e5b 1E       		.uleb128 0x1e
 6341 1e5c 01       		.uleb128 0x1
 6342 1e5d 51       		.byte	0x51
 6343 1e5e 03       		.uleb128 0x3
 6344 1e5f 91       		.byte	0x91
 6345 1e60 D77B     		.sleb128 -553
 6346 1e62 1E       		.uleb128 0x1e
 6347 1e63 01       		.uleb128 0x1
 6348 1e64 50       		.byte	0x50
 6349 1e65 03       		.uleb128 0x3
 6350 1e66 91       		.byte	0x91
 6351 1e67 A876     		.sleb128 -1240
 6352 1e69 00       		.byte	0
 6353 1e6a 20       		.uleb128 0x20
 6354 1e6b AE000000 		.4byte	.LVL121
 6355 1e6f 822D0000 		.4byte	0x2d82
 6356 1e73 8A1E0000 		.4byte	0x1e8a
 6357 1e77 1E       		.uleb128 0x1e
 6358 1e78 01       		.uleb128 0x1
 6359 1e79 52       		.byte	0x52
 6360 1e7a 02       		.uleb128 0x2
 6361 1e7b 08       		.byte	0x8
 6362 1e7c 40       		.byte	0x40
 6363 1e7d 1E       		.uleb128 0x1e
 6364 1e7e 01       		.uleb128 0x1
 6365 1e7f 51       		.byte	0x51
 6366 1e80 01       		.uleb128 0x1
 6367 1e81 30       		.byte	0x30
 6368 1e82 1E       		.uleb128 0x1e
 6369 1e83 01       		.uleb128 0x1
 6370 1e84 50       		.byte	0x50
 6371 1e85 03       		.uleb128 0x3
 6372 1e86 91       		.byte	0x91
 6373 1e87 E876     		.sleb128 -1176
 6374 1e89 00       		.byte	0
 6375 1e8a 20       		.uleb128 0x20
 6376 1e8b BC000000 		.4byte	.LVL122
 6377 1e8f 012E0000 		.4byte	0x2e01
 6378 1e93 A61E0000 		.4byte	0x1ea6
 6379 1e97 1E       		.uleb128 0x1e
ARM GAS  C:\Users\AHMED~1.ELE\AppData\Local\Temp\ccAhPyWN.s 			page 134


 6380 1e98 01       		.uleb128 0x1
 6381 1e99 51       		.byte	0x51
 6382 1e9a 03       		.uleb128 0x3
 6383 1e9b 91       		.byte	0x91
 6384 1e9c A976     		.sleb128 -1239
 6385 1e9e 1E       		.uleb128 0x1e
 6386 1e9f 01       		.uleb128 0x1
 6387 1ea0 50       		.byte	0x50
 6388 1ea1 03       		.uleb128 0x3
 6389 1ea2 91       		.byte	0x91
 6390 1ea3 E876     		.sleb128 -1176
 6391 1ea5 00       		.byte	0
 6392 1ea6 20       		.uleb128 0x20
 6393 1ea7 C4000000 		.4byte	.LVL123
 6394 1eab E72D0000 		.4byte	0x2de7
 6395 1eaf C31E0000 		.4byte	0x1ec3
 6396 1eb3 1E       		.uleb128 0x1e
 6397 1eb4 01       		.uleb128 0x1
 6398 1eb5 51       		.byte	0x51
 6399 1eb6 05       		.uleb128 0x5
 6400 1eb7 03       		.byte	0x3
 6401 1eb8 22000000 		.4byte	.LC1
 6402 1ebc 1E       		.uleb128 0x1e
 6403 1ebd 01       		.uleb128 0x1
 6404 1ebe 50       		.byte	0x50
 6405 1ebf 02       		.uleb128 0x2
 6406 1ec0 75       		.byte	0x75
 6407 1ec1 00       		.sleb128 0
 6408 1ec2 00       		.byte	0
 6409 1ec3 20       		.uleb128 0x20
 6410 1ec4 CE000000 		.4byte	.LVL124
 6411 1ec8 1C2E0000 		.4byte	0x2e1c
 6412 1ecc E41E0000 		.4byte	0x1ee4
 6413 1ed0 1E       		.uleb128 0x1e
 6414 1ed1 01       		.uleb128 0x1
 6415 1ed2 52       		.byte	0x52
 6416 1ed3 02       		.uleb128 0x2
 6417 1ed4 76       		.byte	0x76
 6418 1ed5 00       		.sleb128 0
 6419 1ed6 1E       		.uleb128 0x1e
 6420 1ed7 01       		.uleb128 0x1
 6421 1ed8 51       		.byte	0x51
 6422 1ed9 03       		.uleb128 0x3
 6423 1eda 91       		.byte	0x91
 6424 1edb E876     		.sleb128 -1176
 6425 1edd 1E       		.uleb128 0x1e
 6426 1ede 01       		.uleb128 0x1
 6427 1edf 50       		.byte	0x50
 6428 1ee0 02       		.uleb128 0x2
 6429 1ee1 75       		.byte	0x75
 6430 1ee2 00       		.sleb128 0
 6431 1ee3 00       		.byte	0
 6432 1ee4 20       		.uleb128 0x20
 6433 1ee5 E8000000 		.4byte	.LVL128
 6434 1ee9 E72D0000 		.4byte	0x2de7
 6435 1eed 041F0000 		.4byte	0x1f04
 6436 1ef1 1E       		.uleb128 0x1e
ARM GAS  C:\Users\AHMED~1.ELE\AppData\Local\Temp\ccAhPyWN.s 			page 135


 6437 1ef2 01       		.uleb128 0x1
 6438 1ef3 51       		.byte	0x51
 6439 1ef4 05       		.uleb128 0x5
 6440 1ef5 03       		.byte	0x3
 6441 1ef6 28000000 		.4byte	.LC2
 6442 1efa 1E       		.uleb128 0x1e
 6443 1efb 01       		.uleb128 0x1
 6444 1efc 50       		.byte	0x50
 6445 1efd 05       		.uleb128 0x5
 6446 1efe 75       		.byte	0x75
 6447 1eff 00       		.sleb128 0
 6448 1f00 74       		.byte	0x74
 6449 1f01 00       		.sleb128 0
 6450 1f02 22       		.byte	0x22
 6451 1f03 00       		.byte	0
 6452 1f04 20       		.uleb128 0x20
 6453 1f05 08010000 		.4byte	.LVL129
 6454 1f09 1C2E0000 		.4byte	0x2e1c
 6455 1f0d 1F1F0000 		.4byte	0x1f1f
 6456 1f11 1E       		.uleb128 0x1e
 6457 1f12 01       		.uleb128 0x1
 6458 1f13 52       		.byte	0x52
 6459 1f14 02       		.uleb128 0x2
 6460 1f15 76       		.byte	0x76
 6461 1f16 00       		.sleb128 0
 6462 1f17 1E       		.uleb128 0x1e
 6463 1f18 01       		.uleb128 0x1
 6464 1f19 51       		.byte	0x51
 6465 1f1a 03       		.uleb128 0x3
 6466 1f1b 91       		.byte	0x91
 6467 1f1c E876     		.sleb128 -1176
 6468 1f1e 00       		.byte	0
 6469 1f1f 20       		.uleb128 0x20
 6470 1f20 22010000 		.4byte	.LVL132
 6471 1f24 3B2E0000 		.4byte	0x2e3b
 6472 1f28 3C1F0000 		.4byte	0x1f3c
 6473 1f2c 1E       		.uleb128 0x1e
 6474 1f2d 01       		.uleb128 0x1
 6475 1f2e 51       		.byte	0x51
 6476 1f2f 05       		.uleb128 0x5
 6477 1f30 03       		.byte	0x3
 6478 1f31 3A000000 		.4byte	.LC3
 6479 1f35 1E       		.uleb128 0x1e
 6480 1f36 01       		.uleb128 0x1
 6481 1f37 50       		.byte	0x50
 6482 1f38 02       		.uleb128 0x2
 6483 1f39 7A       		.byte	0x7a
 6484 1f3a 00       		.sleb128 0
 6485 1f3b 00       		.byte	0
 6486 1f3c 20       		.uleb128 0x20
 6487 1f3d 2C010000 		.4byte	.LVL133
 6488 1f41 822D0000 		.4byte	0x2d82
 6489 1f45 5D1F0000 		.4byte	0x1f5d
 6490 1f49 1E       		.uleb128 0x1e
 6491 1f4a 01       		.uleb128 0x1
 6492 1f4b 52       		.byte	0x52
 6493 1f4c 02       		.uleb128 0x2
ARM GAS  C:\Users\AHMED~1.ELE\AppData\Local\Temp\ccAhPyWN.s 			page 136


 6494 1f4d 08       		.byte	0x8
 6495 1f4e 40       		.byte	0x40
 6496 1f4f 1E       		.uleb128 0x1e
 6497 1f50 01       		.uleb128 0x1
 6498 1f51 51       		.byte	0x51
 6499 1f52 02       		.uleb128 0x2
 6500 1f53 7B       		.byte	0x7b
 6501 1f54 00       		.sleb128 0
 6502 1f55 1E       		.uleb128 0x1e
 6503 1f56 01       		.uleb128 0x1
 6504 1f57 50       		.byte	0x50
 6505 1f58 03       		.uleb128 0x3
 6506 1f59 91       		.byte	0x91
 6507 1f5a E876     		.sleb128 -1176
 6508 1f5c 00       		.byte	0
 6509 1f5d 20       		.uleb128 0x20
 6510 1f5e 3A010000 		.4byte	.LVL134
 6511 1f62 73160000 		.4byte	0x1673
 6512 1f66 811F0000 		.4byte	0x1f81
 6513 1f6a 1E       		.uleb128 0x1e
 6514 1f6b 01       		.uleb128 0x1
 6515 1f6c 52       		.byte	0x52
 6516 1f6d 03       		.uleb128 0x3
 6517 1f6e 0B       		.byte	0xb
 6518 1f6f 099F     		.2byte	0x9f09
 6519 1f71 1E       		.uleb128 0x1e
 6520 1f72 01       		.uleb128 0x1
 6521 1f73 51       		.byte	0x51
 6522 1f74 04       		.uleb128 0x4
 6523 1f75 91       		.byte	0x91
 6524 1f76 9076     		.sleb128 -1264
 6525 1f78 06       		.byte	0x6
 6526 1f79 1E       		.uleb128 0x1e
 6527 1f7a 01       		.uleb128 0x1
 6528 1f7b 50       		.byte	0x50
 6529 1f7c 03       		.uleb128 0x3
 6530 1f7d 91       		.byte	0x91
 6531 1f7e A876     		.sleb128 -1240
 6532 1f80 00       		.byte	0
 6533 1f81 20       		.uleb128 0x20
 6534 1f82 44010000 		.4byte	.LVL135
 6535 1f86 E72D0000 		.4byte	0x2de7
 6536 1f8a 9F1F0000 		.4byte	0x1f9f
 6537 1f8e 1E       		.uleb128 0x1e
 6538 1f8f 01       		.uleb128 0x1
 6539 1f90 51       		.byte	0x51
 6540 1f91 05       		.uleb128 0x5
 6541 1f92 03       		.byte	0x3
 6542 1f93 46000000 		.4byte	.LC4
 6543 1f97 1E       		.uleb128 0x1e
 6544 1f98 01       		.uleb128 0x1
 6545 1f99 50       		.byte	0x50
 6546 1f9a 03       		.uleb128 0x3
 6547 1f9b 91       		.byte	0x91
 6548 1f9c E876     		.sleb128 -1176
 6549 1f9e 00       		.byte	0
 6550 1f9f 20       		.uleb128 0x20
ARM GAS  C:\Users\AHMED~1.ELE\AppData\Local\Temp\ccAhPyWN.s 			page 137


 6551 1fa0 4A010000 		.4byte	.LVL136
 6552 1fa4 562E0000 		.4byte	0x2e56
 6553 1fa8 B41F0000 		.4byte	0x1fb4
 6554 1fac 1E       		.uleb128 0x1e
 6555 1fad 01       		.uleb128 0x1
 6556 1fae 50       		.byte	0x50
 6557 1faf 03       		.uleb128 0x3
 6558 1fb0 91       		.byte	0x91
 6559 1fb1 E876     		.sleb128 -1176
 6560 1fb3 00       		.byte	0
 6561 1fb4 20       		.uleb128 0x20
 6562 1fb5 5A010000 		.4byte	.LVL137
 6563 1fb9 012E0000 		.4byte	0x2e01
 6564 1fbd C91F0000 		.4byte	0x1fc9
 6565 1fc1 1E       		.uleb128 0x1e
 6566 1fc2 01       		.uleb128 0x1
 6567 1fc3 51       		.byte	0x51
 6568 1fc4 03       		.uleb128 0x3
 6569 1fc5 91       		.byte	0x91
 6570 1fc6 A976     		.sleb128 -1239
 6571 1fc8 00       		.byte	0
 6572 1fc9 20       		.uleb128 0x20
 6573 1fca 64010000 		.4byte	.LVL138
 6574 1fce 1C2E0000 		.4byte	0x2e1c
 6575 1fd2 EA1F0000 		.4byte	0x1fea
 6576 1fd6 1E       		.uleb128 0x1e
 6577 1fd7 01       		.uleb128 0x1
 6578 1fd8 52       		.byte	0x52
 6579 1fd9 02       		.uleb128 0x2
 6580 1fda 76       		.byte	0x76
 6581 1fdb 00       		.sleb128 0
 6582 1fdc 1E       		.uleb128 0x1e
 6583 1fdd 01       		.uleb128 0x1
 6584 1fde 51       		.byte	0x51
 6585 1fdf 03       		.uleb128 0x3
 6586 1fe0 91       		.byte	0x91
 6587 1fe1 E876     		.sleb128 -1176
 6588 1fe3 1E       		.uleb128 0x1e
 6589 1fe4 01       		.uleb128 0x1
 6590 1fe5 50       		.byte	0x50
 6591 1fe6 02       		.uleb128 0x2
 6592 1fe7 7A       		.byte	0x7a
 6593 1fe8 00       		.sleb128 0
 6594 1fe9 00       		.byte	0
 6595 1fea 20       		.uleb128 0x20
 6596 1feb 78010000 		.4byte	.LVL140
 6597 1fef 73160000 		.4byte	0x1673
 6598 1ff3 0E200000 		.4byte	0x200e
 6599 1ff7 1E       		.uleb128 0x1e
 6600 1ff8 01       		.uleb128 0x1
 6601 1ff9 52       		.byte	0x52
 6602 1ffa 03       		.uleb128 0x3
 6603 1ffb 0B       		.byte	0xb
 6604 1ffc 1B9F     		.2byte	0x9f1b
 6605 1ffe 1E       		.uleb128 0x1e
 6606 1fff 01       		.uleb128 0x1
 6607 2000 51       		.byte	0x51
ARM GAS  C:\Users\AHMED~1.ELE\AppData\Local\Temp\ccAhPyWN.s 			page 138


 6608 2001 04       		.uleb128 0x4
 6609 2002 91       		.byte	0x91
 6610 2003 9076     		.sleb128 -1264
 6611 2005 06       		.byte	0x6
 6612 2006 1E       		.uleb128 0x1e
 6613 2007 01       		.uleb128 0x1
 6614 2008 50       		.byte	0x50
 6615 2009 03       		.uleb128 0x3
 6616 200a 91       		.byte	0x91
 6617 200b A876     		.sleb128 -1240
 6618 200d 00       		.byte	0
 6619 200e 20       		.uleb128 0x20
 6620 200f 84010000 		.4byte	.LVL141
 6621 2013 822D0000 		.4byte	0x2d82
 6622 2017 2F200000 		.4byte	0x202f
 6623 201b 1E       		.uleb128 0x1e
 6624 201c 01       		.uleb128 0x1
 6625 201d 52       		.byte	0x52
 6626 201e 02       		.uleb128 0x2
 6627 201f 08       		.byte	0x8
 6628 2020 40       		.byte	0x40
 6629 2021 1E       		.uleb128 0x1e
 6630 2022 01       		.uleb128 0x1
 6631 2023 51       		.byte	0x51
 6632 2024 02       		.uleb128 0x2
 6633 2025 7B       		.byte	0x7b
 6634 2026 00       		.sleb128 0
 6635 2027 1E       		.uleb128 0x1e
 6636 2028 01       		.uleb128 0x1
 6637 2029 50       		.byte	0x50
 6638 202a 03       		.uleb128 0x3
 6639 202b 91       		.byte	0x91
 6640 202c E876     		.sleb128 -1176
 6641 202e 00       		.byte	0
 6642 202f 20       		.uleb128 0x20
 6643 2030 8C010000 		.4byte	.LVL142
 6644 2034 1F170000 		.4byte	0x171f
 6645 2038 49200000 		.4byte	0x2049
 6646 203c 1E       		.uleb128 0x1e
 6647 203d 01       		.uleb128 0x1
 6648 203e 51       		.byte	0x51
 6649 203f 01       		.uleb128 0x1
 6650 2040 37       		.byte	0x37
 6651 2041 1E       		.uleb128 0x1e
 6652 2042 01       		.uleb128 0x1
 6653 2043 50       		.byte	0x50
 6654 2044 03       		.uleb128 0x3
 6655 2045 91       		.byte	0x91
 6656 2046 A876     		.sleb128 -1240
 6657 2048 00       		.byte	0
 6658 2049 20       		.uleb128 0x20
 6659 204a 98010000 		.4byte	.LVL143
 6660 204e 002D0000 		.4byte	0x2d00
 6661 2052 65200000 		.4byte	0x2065
 6662 2056 1E       		.uleb128 0x1e
 6663 2057 01       		.uleb128 0x1
 6664 2058 51       		.byte	0x51
ARM GAS  C:\Users\AHMED~1.ELE\AppData\Local\Temp\ccAhPyWN.s 			page 139


 6665 2059 03       		.uleb128 0x3
 6666 205a 91       		.byte	0x91
 6667 205b A976     		.sleb128 -1239
 6668 205d 1E       		.uleb128 0x1e
 6669 205e 01       		.uleb128 0x1
 6670 205f 50       		.byte	0x50
 6671 2060 03       		.uleb128 0x3
 6672 2061 91       		.byte	0x91
 6673 2062 E876     		.sleb128 -1176
 6674 2064 00       		.byte	0
 6675 2065 20       		.uleb128 0x20
 6676 2066 A2010000 		.4byte	.LVL144
 6677 206a E72D0000 		.4byte	0x2de7
 6678 206e 85200000 		.4byte	0x2085
 6679 2072 1E       		.uleb128 0x1e
 6680 2073 01       		.uleb128 0x1
 6681 2074 51       		.byte	0x51
 6682 2075 05       		.uleb128 0x5
 6683 2076 03       		.byte	0x3
 6684 2077 4C000000 		.4byte	.LC5
 6685 207b 1E       		.uleb128 0x1e
 6686 207c 01       		.uleb128 0x1
 6687 207d 50       		.byte	0x50
 6688 207e 05       		.uleb128 0x5
 6689 207f 75       		.byte	0x75
 6690 2080 00       		.sleb128 0
 6691 2081 74       		.byte	0x74
 6692 2082 00       		.sleb128 0
 6693 2083 22       		.byte	0x22
 6694 2084 00       		.byte	0
 6695 2085 20       		.uleb128 0x20
 6696 2086 AA010000 		.4byte	.LVL145
 6697 208a 1C2E0000 		.4byte	0x2e1c
 6698 208e A0200000 		.4byte	0x20a0
 6699 2092 1E       		.uleb128 0x1e
 6700 2093 01       		.uleb128 0x1
 6701 2094 52       		.byte	0x52
 6702 2095 02       		.uleb128 0x2
 6703 2096 76       		.byte	0x76
 6704 2097 00       		.sleb128 0
 6705 2098 1E       		.uleb128 0x1e
 6706 2099 01       		.uleb128 0x1
 6707 209a 51       		.byte	0x51
 6708 209b 03       		.uleb128 0x3
 6709 209c 91       		.byte	0x91
 6710 209d E876     		.sleb128 -1176
 6711 209f 00       		.byte	0
 6712 20a0 20       		.uleb128 0x20
 6713 20a1 BE010000 		.4byte	.LVL147
 6714 20a5 73160000 		.4byte	0x1673
 6715 20a9 C4200000 		.4byte	0x20c4
 6716 20ad 1E       		.uleb128 0x1e
 6717 20ae 01       		.uleb128 0x1
 6718 20af 52       		.byte	0x52
 6719 20b0 03       		.uleb128 0x3
 6720 20b1 0B       		.byte	0xb
 6721 20b2 7FDF     		.2byte	0xdf7f
ARM GAS  C:\Users\AHMED~1.ELE\AppData\Local\Temp\ccAhPyWN.s 			page 140


 6722 20b4 1E       		.uleb128 0x1e
 6723 20b5 01       		.uleb128 0x1
 6724 20b6 51       		.byte	0x51
 6725 20b7 04       		.uleb128 0x4
 6726 20b8 91       		.byte	0x91
 6727 20b9 9076     		.sleb128 -1264
 6728 20bb 06       		.byte	0x6
 6729 20bc 1E       		.uleb128 0x1e
 6730 20bd 01       		.uleb128 0x1
 6731 20be 50       		.byte	0x50
 6732 20bf 03       		.uleb128 0x3
 6733 20c0 91       		.byte	0x91
 6734 20c1 A876     		.sleb128 -1240
 6735 20c3 00       		.byte	0
 6736 20c4 20       		.uleb128 0x20
 6737 20c5 CA010000 		.4byte	.LVL148
 6738 20c9 822D0000 		.4byte	0x2d82
 6739 20cd E5200000 		.4byte	0x20e5
 6740 20d1 1E       		.uleb128 0x1e
 6741 20d2 01       		.uleb128 0x1
 6742 20d3 52       		.byte	0x52
 6743 20d4 02       		.uleb128 0x2
 6744 20d5 08       		.byte	0x8
 6745 20d6 40       		.byte	0x40
 6746 20d7 1E       		.uleb128 0x1e
 6747 20d8 01       		.uleb128 0x1
 6748 20d9 51       		.byte	0x51
 6749 20da 02       		.uleb128 0x2
 6750 20db 7B       		.byte	0x7b
 6751 20dc 00       		.sleb128 0
 6752 20dd 1E       		.uleb128 0x1e
 6753 20de 01       		.uleb128 0x1
 6754 20df 50       		.byte	0x50
 6755 20e0 03       		.uleb128 0x3
 6756 20e1 91       		.byte	0x91
 6757 20e2 E876     		.sleb128 -1176
 6758 20e4 00       		.byte	0
 6759 20e5 20       		.uleb128 0x20
 6760 20e6 D2010000 		.4byte	.LVL149
 6761 20ea 1F170000 		.4byte	0x171f
 6762 20ee FF200000 		.4byte	0x20ff
 6763 20f2 1E       		.uleb128 0x1e
 6764 20f3 01       		.uleb128 0x1
 6765 20f4 51       		.byte	0x51
 6766 20f5 01       		.uleb128 0x1
 6767 20f6 37       		.byte	0x37
 6768 20f7 1E       		.uleb128 0x1e
 6769 20f8 01       		.uleb128 0x1
 6770 20f9 50       		.byte	0x50
 6771 20fa 03       		.uleb128 0x3
 6772 20fb 91       		.byte	0x91
 6773 20fc A876     		.sleb128 -1240
 6774 20fe 00       		.byte	0
 6775 20ff 20       		.uleb128 0x20
 6776 2100 DE010000 		.4byte	.LVL150
 6777 2104 002D0000 		.4byte	0x2d00
 6778 2108 1B210000 		.4byte	0x211b
ARM GAS  C:\Users\AHMED~1.ELE\AppData\Local\Temp\ccAhPyWN.s 			page 141


 6779 210c 1E       		.uleb128 0x1e
 6780 210d 01       		.uleb128 0x1
 6781 210e 51       		.byte	0x51
 6782 210f 03       		.uleb128 0x3
 6783 2110 91       		.byte	0x91
 6784 2111 A976     		.sleb128 -1239
 6785 2113 1E       		.uleb128 0x1e
 6786 2114 01       		.uleb128 0x1
 6787 2115 50       		.byte	0x50
 6788 2116 03       		.uleb128 0x3
 6789 2117 91       		.byte	0x91
 6790 2118 E876     		.sleb128 -1176
 6791 211a 00       		.byte	0
 6792 211b 20       		.uleb128 0x20
 6793 211c E8010000 		.4byte	.LVL151
 6794 2120 E72D0000 		.4byte	0x2de7
 6795 2124 3B210000 		.4byte	0x213b
 6796 2128 1E       		.uleb128 0x1e
 6797 2129 01       		.uleb128 0x1
 6798 212a 51       		.byte	0x51
 6799 212b 05       		.uleb128 0x5
 6800 212c 03       		.byte	0x3
 6801 212d 56000000 		.4byte	.LC6
 6802 2131 1E       		.uleb128 0x1e
 6803 2132 01       		.uleb128 0x1
 6804 2133 50       		.byte	0x50
 6805 2134 05       		.uleb128 0x5
 6806 2135 75       		.byte	0x75
 6807 2136 00       		.sleb128 0
 6808 2137 74       		.byte	0x74
 6809 2138 00       		.sleb128 0
 6810 2139 22       		.byte	0x22
 6811 213a 00       		.byte	0
 6812 213b 20       		.uleb128 0x20
 6813 213c F0010000 		.4byte	.LVL152
 6814 2140 1C2E0000 		.4byte	0x2e1c
 6815 2144 56210000 		.4byte	0x2156
 6816 2148 1E       		.uleb128 0x1e
 6817 2149 01       		.uleb128 0x1
 6818 214a 52       		.byte	0x52
 6819 214b 02       		.uleb128 0x2
 6820 214c 76       		.byte	0x76
 6821 214d 00       		.sleb128 0
 6822 214e 1E       		.uleb128 0x1e
 6823 214f 01       		.uleb128 0x1
 6824 2150 51       		.byte	0x51
 6825 2151 03       		.uleb128 0x3
 6826 2152 91       		.byte	0x91
 6827 2153 E876     		.sleb128 -1176
 6828 2155 00       		.byte	0
 6829 2156 20       		.uleb128 0x20
 6830 2157 00020000 		.4byte	.LVL154
 6831 215b E72D0000 		.4byte	0x2de7
 6832 215f 73210000 		.4byte	0x2173
 6833 2163 1E       		.uleb128 0x1e
 6834 2164 01       		.uleb128 0x1
 6835 2165 51       		.byte	0x51
ARM GAS  C:\Users\AHMED~1.ELE\AppData\Local\Temp\ccAhPyWN.s 			page 142


 6836 2166 05       		.uleb128 0x5
 6837 2167 03       		.byte	0x3
 6838 2168 63000000 		.4byte	.LC7
 6839 216c 1E       		.uleb128 0x1e
 6840 216d 01       		.uleb128 0x1
 6841 216e 50       		.byte	0x50
 6842 216f 02       		.uleb128 0x2
 6843 2170 7B       		.byte	0x7b
 6844 2171 00       		.sleb128 0
 6845 2172 00       		.byte	0
 6846 2173 20       		.uleb128 0x20
 6847 2174 2A020000 		.4byte	.LVL157
 6848 2178 3B2E0000 		.4byte	0x2e3b
 6849 217c 99210000 		.4byte	0x2199
 6850 2180 1E       		.uleb128 0x1e
 6851 2181 01       		.uleb128 0x1
 6852 2182 52       		.byte	0x52
 6853 2183 04       		.uleb128 0x4
 6854 2184 91       		.byte	0x91
 6855 2185 9076     		.sleb128 -1264
 6856 2187 06       		.byte	0x6
 6857 2188 1E       		.uleb128 0x1e
 6858 2189 01       		.uleb128 0x1
 6859 218a 51       		.byte	0x51
 6860 218b 05       		.uleb128 0x5
 6861 218c 03       		.byte	0x3
 6862 218d 72000000 		.4byte	.LC8
 6863 2191 1E       		.uleb128 0x1e
 6864 2192 01       		.uleb128 0x1
 6865 2193 50       		.byte	0x50
 6866 2194 03       		.uleb128 0x3
 6867 2195 91       		.byte	0x91
 6868 2196 E876     		.sleb128 -1176
 6869 2198 00       		.byte	0
 6870 2199 20       		.uleb128 0x20
 6871 219a 34020000 		.4byte	.LVL158
 6872 219e 1C2E0000 		.4byte	0x2e1c
 6873 21a2 BA210000 		.4byte	0x21ba
 6874 21a6 1E       		.uleb128 0x1e
 6875 21a7 01       		.uleb128 0x1
 6876 21a8 52       		.byte	0x52
 6877 21a9 02       		.uleb128 0x2
 6878 21aa 76       		.byte	0x76
 6879 21ab 00       		.sleb128 0
 6880 21ac 1E       		.uleb128 0x1e
 6881 21ad 01       		.uleb128 0x1
 6882 21ae 51       		.byte	0x51
 6883 21af 03       		.uleb128 0x3
 6884 21b0 91       		.byte	0x91
 6885 21b1 E876     		.sleb128 -1176
 6886 21b3 1E       		.uleb128 0x1e
 6887 21b4 01       		.uleb128 0x1
 6888 21b5 50       		.byte	0x50
 6889 21b6 02       		.uleb128 0x2
 6890 21b7 7B       		.byte	0x7b
 6891 21b8 00       		.sleb128 0
 6892 21b9 00       		.byte	0
ARM GAS  C:\Users\AHMED~1.ELE\AppData\Local\Temp\ccAhPyWN.s 			page 143


 6893 21ba 20       		.uleb128 0x20
 6894 21bb 44020000 		.4byte	.LVL160
 6895 21bf E72D0000 		.4byte	0x2de7
 6896 21c3 D7210000 		.4byte	0x21d7
 6897 21c7 1E       		.uleb128 0x1e
 6898 21c8 01       		.uleb128 0x1
 6899 21c9 51       		.byte	0x51
 6900 21ca 05       		.uleb128 0x5
 6901 21cb 03       		.byte	0x3
 6902 21cc 7B000000 		.4byte	.LC9
 6903 21d0 1E       		.uleb128 0x1e
 6904 21d1 01       		.uleb128 0x1
 6905 21d2 50       		.byte	0x50
 6906 21d3 02       		.uleb128 0x2
 6907 21d4 7A       		.byte	0x7a
 6908 21d5 00       		.sleb128 0
 6909 21d6 00       		.byte	0
 6910 21d7 20       		.uleb128 0x20
 6911 21d8 54020000 		.4byte	.LVL161
 6912 21dc 3B2E0000 		.4byte	0x2e3b
 6913 21e0 F5210000 		.4byte	0x21f5
 6914 21e4 1E       		.uleb128 0x1e
 6915 21e5 01       		.uleb128 0x1
 6916 21e6 51       		.byte	0x51
 6917 21e7 05       		.uleb128 0x5
 6918 21e8 03       		.byte	0x3
 6919 21e9 86000000 		.4byte	.LC10
 6920 21ed 1E       		.uleb128 0x1e
 6921 21ee 01       		.uleb128 0x1
 6922 21ef 50       		.byte	0x50
 6923 21f0 03       		.uleb128 0x3
 6924 21f1 91       		.byte	0x91
 6925 21f2 E876     		.sleb128 -1176
 6926 21f4 00       		.byte	0
 6927 21f5 20       		.uleb128 0x20
 6928 21f6 5E020000 		.4byte	.LVL162
 6929 21fa 1C2E0000 		.4byte	0x2e1c
 6930 21fe 16220000 		.4byte	0x2216
 6931 2202 1E       		.uleb128 0x1e
 6932 2203 01       		.uleb128 0x1
 6933 2204 52       		.byte	0x52
 6934 2205 02       		.uleb128 0x2
 6935 2206 76       		.byte	0x76
 6936 2207 00       		.sleb128 0
 6937 2208 1E       		.uleb128 0x1e
 6938 2209 01       		.uleb128 0x1
 6939 220a 51       		.byte	0x51
 6940 220b 03       		.uleb128 0x3
 6941 220c 91       		.byte	0x91
 6942 220d E876     		.sleb128 -1176
 6943 220f 1E       		.uleb128 0x1e
 6944 2210 01       		.uleb128 0x1
 6945 2211 50       		.byte	0x50
 6946 2212 02       		.uleb128 0x2
 6947 2213 7A       		.byte	0x7a
 6948 2214 00       		.sleb128 0
 6949 2215 00       		.byte	0
ARM GAS  C:\Users\AHMED~1.ELE\AppData\Local\Temp\ccAhPyWN.s 			page 144


 6950 2216 20       		.uleb128 0x20
 6951 2217 72020000 		.4byte	.LVL164
 6952 221b 73160000 		.4byte	0x1673
 6953 221f 3A220000 		.4byte	0x223a
 6954 2223 1E       		.uleb128 0x1e
 6955 2224 01       		.uleb128 0x1
 6956 2225 52       		.byte	0x52
 6957 2226 03       		.uleb128 0x3
 6958 2227 0B       		.byte	0xb
 6959 2228 1A9F     		.2byte	0x9f1a
 6960 222a 1E       		.uleb128 0x1e
 6961 222b 01       		.uleb128 0x1
 6962 222c 51       		.byte	0x51
 6963 222d 04       		.uleb128 0x4
 6964 222e 91       		.byte	0x91
 6965 222f 9476     		.sleb128 -1260
 6966 2231 06       		.byte	0x6
 6967 2232 1E       		.uleb128 0x1e
 6968 2233 01       		.uleb128 0x1
 6969 2234 50       		.byte	0x50
 6970 2235 03       		.uleb128 0x3
 6971 2236 91       		.byte	0x91
 6972 2237 A876     		.sleb128 -1240
 6973 2239 00       		.byte	0
 6974 223a 20       		.uleb128 0x20
 6975 223b 7E020000 		.4byte	.LVL165
 6976 223f 822D0000 		.4byte	0x2d82
 6977 2243 5A220000 		.4byte	0x225a
 6978 2247 1E       		.uleb128 0x1e
 6979 2248 01       		.uleb128 0x1
 6980 2249 52       		.byte	0x52
 6981 224a 02       		.uleb128 0x2
 6982 224b 08       		.byte	0x8
 6983 224c 40       		.byte	0x40
 6984 224d 1E       		.uleb128 0x1e
 6985 224e 01       		.uleb128 0x1
 6986 224f 51       		.byte	0x51
 6987 2250 01       		.uleb128 0x1
 6988 2251 30       		.byte	0x30
 6989 2252 1E       		.uleb128 0x1e
 6990 2253 01       		.uleb128 0x1
 6991 2254 50       		.byte	0x50
 6992 2255 03       		.uleb128 0x3
 6993 2256 91       		.byte	0x91
 6994 2257 E876     		.sleb128 -1176
 6995 2259 00       		.byte	0
 6996 225a 20       		.uleb128 0x20
 6997 225b 8C020000 		.4byte	.LVL166
 6998 225f 012E0000 		.4byte	0x2e01
 6999 2263 76220000 		.4byte	0x2276
 7000 2267 1E       		.uleb128 0x1e
 7001 2268 01       		.uleb128 0x1
 7002 2269 51       		.byte	0x51
 7003 226a 03       		.uleb128 0x3
 7004 226b 91       		.byte	0x91
 7005 226c A976     		.sleb128 -1239
 7006 226e 1E       		.uleb128 0x1e
ARM GAS  C:\Users\AHMED~1.ELE\AppData\Local\Temp\ccAhPyWN.s 			page 145


 7007 226f 01       		.uleb128 0x1
 7008 2270 50       		.byte	0x50
 7009 2271 03       		.uleb128 0x3
 7010 2272 91       		.byte	0x91
 7011 2273 E876     		.sleb128 -1176
 7012 2275 00       		.byte	0
 7013 2276 20       		.uleb128 0x20
 7014 2277 96020000 		.4byte	.LVL167
 7015 227b E72D0000 		.4byte	0x2de7
 7016 227f 96220000 		.4byte	0x2296
 7017 2283 1E       		.uleb128 0x1e
 7018 2284 01       		.uleb128 0x1
 7019 2285 51       		.byte	0x51
 7020 2286 05       		.uleb128 0x5
 7021 2287 03       		.byte	0x3
 7022 2288 90000000 		.4byte	.LC11
 7023 228c 1E       		.uleb128 0x1e
 7024 228d 01       		.uleb128 0x1
 7025 228e 50       		.byte	0x50
 7026 228f 05       		.uleb128 0x5
 7027 2290 75       		.byte	0x75
 7028 2291 00       		.sleb128 0
 7029 2292 74       		.byte	0x74
 7030 2293 00       		.sleb128 0
 7031 2294 22       		.byte	0x22
 7032 2295 00       		.byte	0
 7033 2296 20       		.uleb128 0x20
 7034 2297 A0020000 		.4byte	.LVL168
 7035 229b 1C2E0000 		.4byte	0x2e1c
 7036 229f B1220000 		.4byte	0x22b1
 7037 22a3 1E       		.uleb128 0x1e
 7038 22a4 01       		.uleb128 0x1
 7039 22a5 52       		.byte	0x52
 7040 22a6 02       		.uleb128 0x2
 7041 22a7 76       		.byte	0x76
 7042 22a8 00       		.sleb128 0
 7043 22a9 1E       		.uleb128 0x1e
 7044 22aa 01       		.uleb128 0x1
 7045 22ab 51       		.byte	0x51
 7046 22ac 03       		.uleb128 0x3
 7047 22ad 91       		.byte	0x91
 7048 22ae E976     		.sleb128 -1175
 7049 22b0 00       		.byte	0
 7050 22b1 20       		.uleb128 0x20
 7051 22b2 B4020000 		.4byte	.LVL170
 7052 22b6 73160000 		.4byte	0x1673
 7053 22ba D5220000 		.4byte	0x22d5
 7054 22be 1E       		.uleb128 0x1e
 7055 22bf 01       		.uleb128 0x1
 7056 22c0 52       		.byte	0x52
 7057 22c1 03       		.uleb128 0x3
 7058 22c2 0A       		.byte	0xa
 7059 22c3 2A5F     		.2byte	0x5f2a
 7060 22c5 1E       		.uleb128 0x1e
 7061 22c6 01       		.uleb128 0x1
 7062 22c7 51       		.byte	0x51
 7063 22c8 04       		.uleb128 0x4
ARM GAS  C:\Users\AHMED~1.ELE\AppData\Local\Temp\ccAhPyWN.s 			page 146


 7064 22c9 91       		.byte	0x91
 7065 22ca 9476     		.sleb128 -1260
 7066 22cc 06       		.byte	0x6
 7067 22cd 1E       		.uleb128 0x1e
 7068 22ce 01       		.uleb128 0x1
 7069 22cf 50       		.byte	0x50
 7070 22d0 03       		.uleb128 0x3
 7071 22d1 91       		.byte	0x91
 7072 22d2 A876     		.sleb128 -1240
 7073 22d4 00       		.byte	0
 7074 22d5 20       		.uleb128 0x20
 7075 22d6 C0020000 		.4byte	.LVL171
 7076 22da 822D0000 		.4byte	0x2d82
 7077 22de F5220000 		.4byte	0x22f5
 7078 22e2 1E       		.uleb128 0x1e
 7079 22e3 01       		.uleb128 0x1
 7080 22e4 52       		.byte	0x52
 7081 22e5 02       		.uleb128 0x2
 7082 22e6 08       		.byte	0x8
 7083 22e7 40       		.byte	0x40
 7084 22e8 1E       		.uleb128 0x1e
 7085 22e9 01       		.uleb128 0x1
 7086 22ea 51       		.byte	0x51
 7087 22eb 01       		.uleb128 0x1
 7088 22ec 30       		.byte	0x30
 7089 22ed 1E       		.uleb128 0x1e
 7090 22ee 01       		.uleb128 0x1
 7091 22ef 50       		.byte	0x50
 7092 22f0 03       		.uleb128 0x3
 7093 22f1 91       		.byte	0x91
 7094 22f2 E876     		.sleb128 -1176
 7095 22f4 00       		.byte	0
 7096 22f5 20       		.uleb128 0x20
 7097 22f6 CE020000 		.4byte	.LVL172
 7098 22fa 012E0000 		.4byte	0x2e01
 7099 22fe 11230000 		.4byte	0x2311
 7100 2302 1E       		.uleb128 0x1e
 7101 2303 01       		.uleb128 0x1
 7102 2304 51       		.byte	0x51
 7103 2305 03       		.uleb128 0x3
 7104 2306 91       		.byte	0x91
 7105 2307 A976     		.sleb128 -1239
 7106 2309 1E       		.uleb128 0x1e
 7107 230a 01       		.uleb128 0x1
 7108 230b 50       		.byte	0x50
 7109 230c 03       		.uleb128 0x3
 7110 230d 91       		.byte	0x91
 7111 230e E876     		.sleb128 -1176
 7112 2310 00       		.byte	0
 7113 2311 20       		.uleb128 0x20
 7114 2312 D8020000 		.4byte	.LVL173
 7115 2316 E72D0000 		.4byte	0x2de7
 7116 231a 31230000 		.4byte	0x2331
 7117 231e 1E       		.uleb128 0x1e
 7118 231f 01       		.uleb128 0x1
 7119 2320 51       		.byte	0x51
 7120 2321 05       		.uleb128 0x5
ARM GAS  C:\Users\AHMED~1.ELE\AppData\Local\Temp\ccAhPyWN.s 			page 147


 7121 2322 03       		.byte	0x3
 7122 2323 9A000000 		.4byte	.LC12
 7123 2327 1E       		.uleb128 0x1e
 7124 2328 01       		.uleb128 0x1
 7125 2329 50       		.byte	0x50
 7126 232a 05       		.uleb128 0x5
 7127 232b 75       		.byte	0x75
 7128 232c 00       		.sleb128 0
 7129 232d 74       		.byte	0x74
 7130 232e 00       		.sleb128 0
 7131 232f 22       		.byte	0x22
 7132 2330 00       		.byte	0
 7133 2331 20       		.uleb128 0x20
 7134 2332 E2020000 		.4byte	.LVL174
 7135 2336 1C2E0000 		.4byte	0x2e1c
 7136 233a 4C230000 		.4byte	0x234c
 7137 233e 1E       		.uleb128 0x1e
 7138 233f 01       		.uleb128 0x1
 7139 2340 52       		.byte	0x52
 7140 2341 02       		.uleb128 0x2
 7141 2342 76       		.byte	0x76
 7142 2343 00       		.sleb128 0
 7143 2344 1E       		.uleb128 0x1e
 7144 2345 01       		.uleb128 0x1
 7145 2346 51       		.byte	0x51
 7146 2347 03       		.uleb128 0x3
 7147 2348 91       		.byte	0x91
 7148 2349 E976     		.sleb128 -1175
 7149 234b 00       		.byte	0
 7150 234c 20       		.uleb128 0x20
 7151 234d F0020000 		.4byte	.LVL176
 7152 2351 1C2E0000 		.4byte	0x2e1c
 7153 2355 72230000 		.4byte	0x2372
 7154 2359 1E       		.uleb128 0x1e
 7155 235a 01       		.uleb128 0x1
 7156 235b 52       		.byte	0x52
 7157 235c 02       		.uleb128 0x2
 7158 235d 76       		.byte	0x76
 7159 235e 00       		.sleb128 0
 7160 235f 1E       		.uleb128 0x1e
 7161 2360 01       		.uleb128 0x1
 7162 2361 51       		.byte	0x51
 7163 2362 05       		.uleb128 0x5
 7164 2363 03       		.byte	0x3
 7165 2364 A5000000 		.4byte	.LC13
 7166 2368 1E       		.uleb128 0x1e
 7167 2369 01       		.uleb128 0x1
 7168 236a 50       		.byte	0x50
 7169 236b 05       		.uleb128 0x5
 7170 236c 75       		.byte	0x75
 7171 236d 00       		.sleb128 0
 7172 236e 74       		.byte	0x74
 7173 236f 00       		.sleb128 0
 7174 2370 22       		.byte	0x22
 7175 2371 00       		.byte	0
 7176 2372 20       		.uleb128 0x20
 7177 2373 02030000 		.4byte	.LVL178
ARM GAS  C:\Users\AHMED~1.ELE\AppData\Local\Temp\ccAhPyWN.s 			page 148


 7178 2377 E72D0000 		.4byte	0x2de7
 7179 237b 92230000 		.4byte	0x2392
 7180 237f 1E       		.uleb128 0x1e
 7181 2380 01       		.uleb128 0x1
 7182 2381 51       		.byte	0x51
 7183 2382 05       		.uleb128 0x5
 7184 2383 03       		.byte	0x3
 7185 2384 A6000000 		.4byte	.LC14
 7186 2388 1E       		.uleb128 0x1e
 7187 2389 01       		.uleb128 0x1
 7188 238a 50       		.byte	0x50
 7189 238b 05       		.uleb128 0x5
 7190 238c 75       		.byte	0x75
 7191 238d 00       		.sleb128 0
 7192 238e 74       		.byte	0x74
 7193 238f 00       		.sleb128 0
 7194 2390 22       		.byte	0x22
 7195 2391 00       		.byte	0
 7196 2392 20       		.uleb128 0x20
 7197 2393 20030000 		.4byte	.LVL179
 7198 2397 1C2E0000 		.4byte	0x2e1c
 7199 239b AD230000 		.4byte	0x23ad
 7200 239f 1E       		.uleb128 0x1e
 7201 23a0 01       		.uleb128 0x1
 7202 23a1 52       		.byte	0x52
 7203 23a2 02       		.uleb128 0x2
 7204 23a3 76       		.byte	0x76
 7205 23a4 00       		.sleb128 0
 7206 23a5 1E       		.uleb128 0x1e
 7207 23a6 01       		.uleb128 0x1
 7208 23a7 51       		.byte	0x51
 7209 23a8 03       		.uleb128 0x3
 7210 23a9 91       		.byte	0x91
 7211 23aa E876     		.sleb128 -1176
 7212 23ac 00       		.byte	0
 7213 23ad 20       		.uleb128 0x20
 7214 23ae 2E030000 		.4byte	.LVL181
 7215 23b2 E72D0000 		.4byte	0x2de7
 7216 23b6 CD230000 		.4byte	0x23cd
 7217 23ba 1E       		.uleb128 0x1e
 7218 23bb 01       		.uleb128 0x1
 7219 23bc 51       		.byte	0x51
 7220 23bd 05       		.uleb128 0x5
 7221 23be 03       		.byte	0x3
 7222 23bf BA000000 		.4byte	.LC15
 7223 23c3 1E       		.uleb128 0x1e
 7224 23c4 01       		.uleb128 0x1
 7225 23c5 50       		.byte	0x50
 7226 23c6 05       		.uleb128 0x5
 7227 23c7 75       		.byte	0x75
 7228 23c8 00       		.sleb128 0
 7229 23c9 74       		.byte	0x74
 7230 23ca 00       		.sleb128 0
 7231 23cb 22       		.byte	0x22
 7232 23cc 00       		.byte	0
 7233 23cd 20       		.uleb128 0x20
 7234 23ce 4C030000 		.4byte	.LVL182
ARM GAS  C:\Users\AHMED~1.ELE\AppData\Local\Temp\ccAhPyWN.s 			page 149


 7235 23d2 1C2E0000 		.4byte	0x2e1c
 7236 23d6 E8230000 		.4byte	0x23e8
 7237 23da 1E       		.uleb128 0x1e
 7238 23db 01       		.uleb128 0x1
 7239 23dc 52       		.byte	0x52
 7240 23dd 02       		.uleb128 0x2
 7241 23de 76       		.byte	0x76
 7242 23df 00       		.sleb128 0
 7243 23e0 1E       		.uleb128 0x1e
 7244 23e1 01       		.uleb128 0x1
 7245 23e2 51       		.byte	0x51
 7246 23e3 03       		.uleb128 0x3
 7247 23e4 91       		.byte	0x91
 7248 23e5 E876     		.sleb128 -1176
 7249 23e7 00       		.byte	0
 7250 23e8 20       		.uleb128 0x20
 7251 23e9 5A030000 		.4byte	.LVL184
 7252 23ed E72D0000 		.4byte	0x2de7
 7253 23f1 08240000 		.4byte	0x2408
 7254 23f5 1E       		.uleb128 0x1e
 7255 23f6 01       		.uleb128 0x1
 7256 23f7 51       		.byte	0x51
 7257 23f8 05       		.uleb128 0x5
 7258 23f9 03       		.byte	0x3
 7259 23fa CC000000 		.4byte	.LC16
 7260 23fe 1E       		.uleb128 0x1e
 7261 23ff 01       		.uleb128 0x1
 7262 2400 50       		.byte	0x50
 7263 2401 05       		.uleb128 0x5
 7264 2402 75       		.byte	0x75
 7265 2403 00       		.sleb128 0
 7266 2404 74       		.byte	0x74
 7267 2405 00       		.sleb128 0
 7268 2406 22       		.byte	0x22
 7269 2407 00       		.byte	0
 7270 2408 20       		.uleb128 0x20
 7271 2409 78030000 		.4byte	.LVL185
 7272 240d 1C2E0000 		.4byte	0x2e1c
 7273 2411 23240000 		.4byte	0x2423
 7274 2415 1E       		.uleb128 0x1e
 7275 2416 01       		.uleb128 0x1
 7276 2417 52       		.byte	0x52
 7277 2418 02       		.uleb128 0x2
 7278 2419 76       		.byte	0x76
 7279 241a 00       		.sleb128 0
 7280 241b 1E       		.uleb128 0x1e
 7281 241c 01       		.uleb128 0x1
 7282 241d 51       		.byte	0x51
 7283 241e 03       		.uleb128 0x3
 7284 241f 91       		.byte	0x91
 7285 2420 E876     		.sleb128 -1176
 7286 2422 00       		.byte	0
 7287 2423 20       		.uleb128 0x20
 7288 2424 86030000 		.4byte	.LVL187
 7289 2428 E72D0000 		.4byte	0x2de7
 7290 242c 43240000 		.4byte	0x2443
 7291 2430 1E       		.uleb128 0x1e
ARM GAS  C:\Users\AHMED~1.ELE\AppData\Local\Temp\ccAhPyWN.s 			page 150


 7292 2431 01       		.uleb128 0x1
 7293 2432 51       		.byte	0x51
 7294 2433 05       		.uleb128 0x5
 7295 2434 03       		.byte	0x3
 7296 2435 E0000000 		.4byte	.LC17
 7297 2439 1E       		.uleb128 0x1e
 7298 243a 01       		.uleb128 0x1
 7299 243b 50       		.byte	0x50
 7300 243c 05       		.uleb128 0x5
 7301 243d 75       		.byte	0x75
 7302 243e 00       		.sleb128 0
 7303 243f 74       		.byte	0x74
 7304 2440 00       		.sleb128 0
 7305 2441 22       		.byte	0x22
 7306 2442 00       		.byte	0
 7307 2443 20       		.uleb128 0x20
 7308 2444 A4030000 		.4byte	.LVL188
 7309 2448 1C2E0000 		.4byte	0x2e1c
 7310 244c 5E240000 		.4byte	0x245e
 7311 2450 1E       		.uleb128 0x1e
 7312 2451 01       		.uleb128 0x1
 7313 2452 52       		.byte	0x52
 7314 2453 02       		.uleb128 0x2
 7315 2454 76       		.byte	0x76
 7316 2455 00       		.sleb128 0
 7317 2456 1E       		.uleb128 0x1e
 7318 2457 01       		.uleb128 0x1
 7319 2458 51       		.byte	0x51
 7320 2459 03       		.uleb128 0x3
 7321 245a 91       		.byte	0x91
 7322 245b E876     		.sleb128 -1176
 7323 245d 00       		.byte	0
 7324 245e 20       		.uleb128 0x20
 7325 245f B4030000 		.4byte	.LVL190
 7326 2463 E72D0000 		.4byte	0x2de7
 7327 2467 7B240000 		.4byte	0x247b
 7328 246b 1E       		.uleb128 0x1e
 7329 246c 01       		.uleb128 0x1
 7330 246d 51       		.byte	0x51
 7331 246e 05       		.uleb128 0x5
 7332 246f 03       		.byte	0x3
 7333 2470 EC000000 		.4byte	.LC18
 7334 2474 1E       		.uleb128 0x1e
 7335 2475 01       		.uleb128 0x1
 7336 2476 50       		.byte	0x50
 7337 2477 02       		.uleb128 0x2
 7338 2478 7B       		.byte	0x7b
 7339 2479 00       		.sleb128 0
 7340 247a 00       		.byte	0
 7341 247b 20       		.uleb128 0x20
 7342 247c BE030000 		.4byte	.LVL191
 7343 2480 012E0000 		.4byte	0x2e01
 7344 2484 9C240000 		.4byte	0x249c
 7345 2488 1E       		.uleb128 0x1e
 7346 2489 01       		.uleb128 0x1
 7347 248a 52       		.byte	0x52
 7348 248b 01       		.uleb128 0x1
ARM GAS  C:\Users\AHMED~1.ELE\AppData\Local\Temp\ccAhPyWN.s 			page 151


 7349 248c 35       		.byte	0x35
 7350 248d 1E       		.uleb128 0x1e
 7351 248e 01       		.uleb128 0x1
 7352 248f 51       		.byte	0x51
 7353 2490 03       		.uleb128 0x3
 7354 2491 91       		.byte	0x91
 7355 2492 C87B     		.sleb128 -568
 7356 2494 1E       		.uleb128 0x1e
 7357 2495 01       		.uleb128 0x1
 7358 2496 50       		.byte	0x50
 7359 2497 03       		.uleb128 0x3
 7360 2498 91       		.byte	0x91
 7361 2499 E876     		.sleb128 -1176
 7362 249b 00       		.byte	0
 7363 249c 20       		.uleb128 0x20
 7364 249d CC030000 		.4byte	.LVL192
 7365 24a1 1C2E0000 		.4byte	0x2e1c
 7366 24a5 BD240000 		.4byte	0x24bd
 7367 24a9 1E       		.uleb128 0x1e
 7368 24aa 01       		.uleb128 0x1
 7369 24ab 52       		.byte	0x52
 7370 24ac 02       		.uleb128 0x2
 7371 24ad 76       		.byte	0x76
 7372 24ae 00       		.sleb128 0
 7373 24af 1E       		.uleb128 0x1e
 7374 24b0 01       		.uleb128 0x1
 7375 24b1 51       		.byte	0x51
 7376 24b2 03       		.uleb128 0x3
 7377 24b3 91       		.byte	0x91
 7378 24b4 E876     		.sleb128 -1176
 7379 24b6 1E       		.uleb128 0x1e
 7380 24b7 01       		.uleb128 0x1
 7381 24b8 50       		.byte	0x50
 7382 24b9 02       		.uleb128 0x2
 7383 24ba 7B       		.byte	0x7b
 7384 24bb 00       		.sleb128 0
 7385 24bc 00       		.byte	0
 7386 24bd 20       		.uleb128 0x20
 7387 24be DC030000 		.4byte	.LVL194
 7388 24c2 E72D0000 		.4byte	0x2de7
 7389 24c6 DA240000 		.4byte	0x24da
 7390 24ca 1E       		.uleb128 0x1e
 7391 24cb 01       		.uleb128 0x1
 7392 24cc 51       		.byte	0x51
 7393 24cd 05       		.uleb128 0x5
 7394 24ce 03       		.byte	0x3
 7395 24cf F9000000 		.4byte	.LC19
 7396 24d3 1E       		.uleb128 0x1e
 7397 24d4 01       		.uleb128 0x1
 7398 24d5 50       		.byte	0x50
 7399 24d6 02       		.uleb128 0x2
 7400 24d7 7B       		.byte	0x7b
 7401 24d8 00       		.sleb128 0
 7402 24d9 00       		.byte	0
 7403 24da 20       		.uleb128 0x20
 7404 24db EA030000 		.4byte	.LVL195
 7405 24df 012E0000 		.4byte	0x2e01
ARM GAS  C:\Users\AHMED~1.ELE\AppData\Local\Temp\ccAhPyWN.s 			page 152


 7406 24e3 FE240000 		.4byte	0x24fe
 7407 24e7 1E       		.uleb128 0x1e
 7408 24e8 01       		.uleb128 0x1
 7409 24e9 52       		.byte	0x52
 7410 24ea 01       		.uleb128 0x1
 7411 24eb 35       		.byte	0x35
 7412 24ec 1E       		.uleb128 0x1e
 7413 24ed 01       		.uleb128 0x1
 7414 24ee 51       		.byte	0x51
 7415 24ef 06       		.uleb128 0x6
 7416 24f0 91       		.byte	0x91
 7417 24f1 9476     		.sleb128 -1260
 7418 24f3 06       		.byte	0x6
 7419 24f4 3A       		.byte	0x3a
 7420 24f5 1C       		.byte	0x1c
 7421 24f6 1E       		.uleb128 0x1e
 7422 24f7 01       		.uleb128 0x1
 7423 24f8 50       		.byte	0x50
 7424 24f9 03       		.uleb128 0x3
 7425 24fa 91       		.byte	0x91
 7426 24fb E876     		.sleb128 -1176
 7427 24fd 00       		.byte	0
 7428 24fe 20       		.uleb128 0x20
 7429 24ff F8030000 		.4byte	.LVL196
 7430 2503 1C2E0000 		.4byte	0x2e1c
 7431 2507 1F250000 		.4byte	0x251f
 7432 250b 1E       		.uleb128 0x1e
 7433 250c 01       		.uleb128 0x1
 7434 250d 52       		.byte	0x52
 7435 250e 02       		.uleb128 0x2
 7436 250f 76       		.byte	0x76
 7437 2510 00       		.sleb128 0
 7438 2511 1E       		.uleb128 0x1e
 7439 2512 01       		.uleb128 0x1
 7440 2513 51       		.byte	0x51
 7441 2514 03       		.uleb128 0x3
 7442 2515 91       		.byte	0x91
 7443 2516 E876     		.sleb128 -1176
 7444 2518 1E       		.uleb128 0x1e
 7445 2519 01       		.uleb128 0x1
 7446 251a 50       		.byte	0x50
 7447 251b 02       		.uleb128 0x2
 7448 251c 7B       		.byte	0x7b
 7449 251d 00       		.sleb128 0
 7450 251e 00       		.byte	0
 7451 251f 20       		.uleb128 0x20
 7452 2520 54040000 		.4byte	.LVL198
 7453 2524 E72D0000 		.4byte	0x2de7
 7454 2528 3C250000 		.4byte	0x253c
 7455 252c 1E       		.uleb128 0x1e
 7456 252d 01       		.uleb128 0x1
 7457 252e 51       		.byte	0x51
 7458 252f 05       		.uleb128 0x5
 7459 2530 03       		.byte	0x3
 7460 2531 EC000000 		.4byte	.LC18
 7461 2535 1E       		.uleb128 0x1e
 7462 2536 01       		.uleb128 0x1
ARM GAS  C:\Users\AHMED~1.ELE\AppData\Local\Temp\ccAhPyWN.s 			page 153


 7463 2537 50       		.byte	0x50
 7464 2538 02       		.uleb128 0x2
 7465 2539 7B       		.byte	0x7b
 7466 253a 00       		.sleb128 0
 7467 253b 00       		.byte	0
 7468 253c 20       		.uleb128 0x20
 7469 253d 62040000 		.4byte	.LVL199
 7470 2541 012E0000 		.4byte	0x2e01
 7471 2545 60250000 		.4byte	0x2560
 7472 2549 1E       		.uleb128 0x1e
 7473 254a 01       		.uleb128 0x1
 7474 254b 52       		.byte	0x52
 7475 254c 01       		.uleb128 0x1
 7476 254d 35       		.byte	0x35
 7477 254e 1E       		.uleb128 0x1e
 7478 254f 01       		.uleb128 0x1
 7479 2550 51       		.byte	0x51
 7480 2551 06       		.uleb128 0x6
 7481 2552 91       		.byte	0x91
 7482 2553 9476     		.sleb128 -1260
 7483 2555 06       		.byte	0x6
 7484 2556 35       		.byte	0x35
 7485 2557 1C       		.byte	0x1c
 7486 2558 1E       		.uleb128 0x1e
 7487 2559 01       		.uleb128 0x1
 7488 255a 50       		.byte	0x50
 7489 255b 03       		.uleb128 0x3
 7490 255c 91       		.byte	0x91
 7491 255d E876     		.sleb128 -1176
 7492 255f 00       		.byte	0
 7493 2560 20       		.uleb128 0x20
 7494 2561 70040000 		.4byte	.LVL200
 7495 2565 1C2E0000 		.4byte	0x2e1c
 7496 2569 81250000 		.4byte	0x2581
 7497 256d 1E       		.uleb128 0x1e
 7498 256e 01       		.uleb128 0x1
 7499 256f 52       		.byte	0x52
 7500 2570 02       		.uleb128 0x2
 7501 2571 76       		.byte	0x76
 7502 2572 00       		.sleb128 0
 7503 2573 1E       		.uleb128 0x1e
 7504 2574 01       		.uleb128 0x1
 7505 2575 51       		.byte	0x51
 7506 2576 03       		.uleb128 0x3
 7507 2577 91       		.byte	0x91
 7508 2578 E876     		.sleb128 -1176
 7509 257a 1E       		.uleb128 0x1e
 7510 257b 01       		.uleb128 0x1
 7511 257c 50       		.byte	0x50
 7512 257d 02       		.uleb128 0x2
 7513 257e 7B       		.byte	0x7b
 7514 257f 00       		.sleb128 0
 7515 2580 00       		.byte	0
 7516 2581 20       		.uleb128 0x20
 7517 2582 84040000 		.4byte	.LVL202
 7518 2586 73160000 		.4byte	0x1673
 7519 258a A5250000 		.4byte	0x25a5
ARM GAS  C:\Users\AHMED~1.ELE\AppData\Local\Temp\ccAhPyWN.s 			page 154


 7520 258e 1E       		.uleb128 0x1e
 7521 258f 01       		.uleb128 0x1
 7522 2590 52       		.byte	0x52
 7523 2591 03       		.uleb128 0x3
 7524 2592 0B       		.byte	0xb
 7525 2593 339F     		.2byte	0x9f33
 7526 2595 1E       		.uleb128 0x1e
 7527 2596 01       		.uleb128 0x1
 7528 2597 51       		.byte	0x51
 7529 2598 04       		.uleb128 0x4
 7530 2599 91       		.byte	0x91
 7531 259a 9476     		.sleb128 -1260
 7532 259c 06       		.byte	0x6
 7533 259d 1E       		.uleb128 0x1e
 7534 259e 01       		.uleb128 0x1
 7535 259f 50       		.byte	0x50
 7536 25a0 03       		.uleb128 0x3
 7537 25a1 91       		.byte	0x91
 7538 25a2 A876     		.sleb128 -1240
 7539 25a4 00       		.byte	0
 7540 25a5 20       		.uleb128 0x20
 7541 25a6 90040000 		.4byte	.LVL203
 7542 25aa 822D0000 		.4byte	0x2d82
 7543 25ae C6250000 		.4byte	0x25c6
 7544 25b2 1E       		.uleb128 0x1e
 7545 25b3 01       		.uleb128 0x1
 7546 25b4 52       		.byte	0x52
 7547 25b5 02       		.uleb128 0x2
 7548 25b6 08       		.byte	0x8
 7549 25b7 40       		.byte	0x40
 7550 25b8 1E       		.uleb128 0x1e
 7551 25b9 01       		.uleb128 0x1
 7552 25ba 51       		.byte	0x51
 7553 25bb 02       		.uleb128 0x2
 7554 25bc 7A       		.byte	0x7a
 7555 25bd 00       		.sleb128 0
 7556 25be 1E       		.uleb128 0x1e
 7557 25bf 01       		.uleb128 0x1
 7558 25c0 50       		.byte	0x50
 7559 25c1 03       		.uleb128 0x3
 7560 25c2 91       		.byte	0x91
 7561 25c3 E876     		.sleb128 -1176
 7562 25c5 00       		.byte	0
 7563 25c6 20       		.uleb128 0x20
 7564 25c7 9E040000 		.4byte	.LVL204
 7565 25cb 012E0000 		.4byte	0x2e01
 7566 25cf E2250000 		.4byte	0x25e2
 7567 25d3 1E       		.uleb128 0x1e
 7568 25d4 01       		.uleb128 0x1
 7569 25d5 51       		.byte	0x51
 7570 25d6 03       		.uleb128 0x3
 7571 25d7 91       		.byte	0x91
 7572 25d8 A976     		.sleb128 -1239
 7573 25da 1E       		.uleb128 0x1e
 7574 25db 01       		.uleb128 0x1
 7575 25dc 50       		.byte	0x50
 7576 25dd 03       		.uleb128 0x3
ARM GAS  C:\Users\AHMED~1.ELE\AppData\Local\Temp\ccAhPyWN.s 			page 155


 7577 25de 91       		.byte	0x91
 7578 25df E876     		.sleb128 -1176
 7579 25e1 00       		.byte	0
 7580 25e2 20       		.uleb128 0x20
 7581 25e3 A8040000 		.4byte	.LVL205
 7582 25e7 E72D0000 		.4byte	0x2de7
 7583 25eb 02260000 		.4byte	0x2602
 7584 25ef 1E       		.uleb128 0x1e
 7585 25f0 01       		.uleb128 0x1
 7586 25f1 51       		.byte	0x51
 7587 25f2 05       		.uleb128 0x5
 7588 25f3 03       		.byte	0x3
 7589 25f4 06010000 		.4byte	.LC20
 7590 25f8 1E       		.uleb128 0x1e
 7591 25f9 01       		.uleb128 0x1
 7592 25fa 50       		.byte	0x50
 7593 25fb 05       		.uleb128 0x5
 7594 25fc 75       		.byte	0x75
 7595 25fd 00       		.sleb128 0
 7596 25fe 74       		.byte	0x74
 7597 25ff 00       		.sleb128 0
 7598 2600 22       		.byte	0x22
 7599 2601 00       		.byte	0
 7600 2602 20       		.uleb128 0x20
 7601 2603 B0040000 		.4byte	.LVL206
 7602 2607 1C2E0000 		.4byte	0x2e1c
 7603 260b 1D260000 		.4byte	0x261d
 7604 260f 1E       		.uleb128 0x1e
 7605 2610 01       		.uleb128 0x1
 7606 2611 52       		.byte	0x52
 7607 2612 02       		.uleb128 0x2
 7608 2613 76       		.byte	0x76
 7609 2614 00       		.sleb128 0
 7610 2615 1E       		.uleb128 0x1e
 7611 2616 01       		.uleb128 0x1
 7612 2617 51       		.byte	0x51
 7613 2618 03       		.uleb128 0x3
 7614 2619 91       		.byte	0x91
 7615 261a E876     		.sleb128 -1176
 7616 261c 00       		.byte	0
 7617 261d 20       		.uleb128 0x20
 7618 261e C4040000 		.4byte	.LVL208
 7619 2622 73160000 		.4byte	0x1673
 7620 2626 41260000 		.4byte	0x2641
 7621 262a 1E       		.uleb128 0x1e
 7622 262b 01       		.uleb128 0x1
 7623 262c 52       		.byte	0x52
 7624 262d 03       		.uleb128 0x3
 7625 262e 0B       		.byte	0xb
 7626 262f 409F     		.2byte	0x9f40
 7627 2631 1E       		.uleb128 0x1e
 7628 2632 01       		.uleb128 0x1
 7629 2633 51       		.byte	0x51
 7630 2634 04       		.uleb128 0x4
 7631 2635 91       		.byte	0x91
 7632 2636 9476     		.sleb128 -1260
 7633 2638 06       		.byte	0x6
ARM GAS  C:\Users\AHMED~1.ELE\AppData\Local\Temp\ccAhPyWN.s 			page 156


 7634 2639 1E       		.uleb128 0x1e
 7635 263a 01       		.uleb128 0x1
 7636 263b 50       		.byte	0x50
 7637 263c 03       		.uleb128 0x3
 7638 263d 91       		.byte	0x91
 7639 263e A876     		.sleb128 -1240
 7640 2640 00       		.byte	0
 7641 2641 20       		.uleb128 0x20
 7642 2642 D4040000 		.4byte	.LVL209
 7643 2646 822D0000 		.4byte	0x2d82
 7644 264a 60260000 		.4byte	0x2660
 7645 264e 1E       		.uleb128 0x1e
 7646 264f 01       		.uleb128 0x1
 7647 2650 52       		.byte	0x52
 7648 2651 02       		.uleb128 0x2
 7649 2652 08       		.byte	0x8
 7650 2653 40       		.byte	0x40
 7651 2654 1E       		.uleb128 0x1e
 7652 2655 01       		.uleb128 0x1
 7653 2656 51       		.byte	0x51
 7654 2657 01       		.uleb128 0x1
 7655 2658 30       		.byte	0x30
 7656 2659 1E       		.uleb128 0x1e
 7657 265a 01       		.uleb128 0x1
 7658 265b 50       		.byte	0x50
 7659 265c 02       		.uleb128 0x2
 7660 265d 7A       		.byte	0x7a
 7661 265e 00       		.sleb128 0
 7662 265f 00       		.byte	0
 7663 2660 20       		.uleb128 0x20
 7664 2661 E2040000 		.4byte	.LVL210
 7665 2665 012E0000 		.4byte	0x2e01
 7666 2669 7B260000 		.4byte	0x267b
 7667 266d 1E       		.uleb128 0x1e
 7668 266e 01       		.uleb128 0x1
 7669 266f 51       		.byte	0x51
 7670 2670 03       		.uleb128 0x3
 7671 2671 91       		.byte	0x91
 7672 2672 A976     		.sleb128 -1239
 7673 2674 1E       		.uleb128 0x1e
 7674 2675 01       		.uleb128 0x1
 7675 2676 50       		.byte	0x50
 7676 2677 02       		.uleb128 0x2
 7677 2678 7A       		.byte	0x7a
 7678 2679 00       		.sleb128 0
 7679 267a 00       		.byte	0
 7680 267b 20       		.uleb128 0x20
 7681 267c EC040000 		.4byte	.LVL211
 7682 2680 E72D0000 		.4byte	0x2de7
 7683 2684 9B260000 		.4byte	0x269b
 7684 2688 1E       		.uleb128 0x1e
 7685 2689 01       		.uleb128 0x1
 7686 268a 51       		.byte	0x51
 7687 268b 05       		.uleb128 0x5
 7688 268c 03       		.byte	0x3
 7689 268d 11010000 		.4byte	.LC21
 7690 2691 1E       		.uleb128 0x1e
ARM GAS  C:\Users\AHMED~1.ELE\AppData\Local\Temp\ccAhPyWN.s 			page 157


 7691 2692 01       		.uleb128 0x1
 7692 2693 50       		.byte	0x50
 7693 2694 05       		.uleb128 0x5
 7694 2695 75       		.byte	0x75
 7695 2696 00       		.sleb128 0
 7696 2697 74       		.byte	0x74
 7697 2698 00       		.sleb128 0
 7698 2699 22       		.byte	0x22
 7699 269a 00       		.byte	0
 7700 269b 20       		.uleb128 0x20
 7701 269c F4040000 		.4byte	.LVL212
 7702 26a0 1C2E0000 		.4byte	0x2e1c
 7703 26a4 B5260000 		.4byte	0x26b5
 7704 26a8 1E       		.uleb128 0x1e
 7705 26a9 01       		.uleb128 0x1
 7706 26aa 52       		.byte	0x52
 7707 26ab 02       		.uleb128 0x2
 7708 26ac 76       		.byte	0x76
 7709 26ad 00       		.sleb128 0
 7710 26ae 1E       		.uleb128 0x1e
 7711 26af 01       		.uleb128 0x1
 7712 26b0 51       		.byte	0x51
 7713 26b1 02       		.uleb128 0x2
 7714 26b2 7A       		.byte	0x7a
 7715 26b3 00       		.sleb128 0
 7716 26b4 00       		.byte	0
 7717 26b5 20       		.uleb128 0x20
 7718 26b6 00050000 		.4byte	.LVL214
 7719 26ba 6B2E0000 		.4byte	0x2e6b
 7720 26be D2260000 		.4byte	0x26d2
 7721 26c2 1E       		.uleb128 0x1e
 7722 26c3 01       		.uleb128 0x1
 7723 26c4 51       		.byte	0x51
 7724 26c5 05       		.uleb128 0x5
 7725 26c6 03       		.byte	0x3
 7726 26c7 1B010000 		.4byte	.LC22
 7727 26cb 1E       		.uleb128 0x1e
 7728 26cc 01       		.uleb128 0x1
 7729 26cd 50       		.byte	0x50
 7730 26ce 02       		.uleb128 0x2
 7731 26cf 7A       		.byte	0x7a
 7732 26d0 00       		.sleb128 0
 7733 26d1 00       		.byte	0
 7734 26d2 29       		.uleb128 0x29
 7735 26d3 1A050000 		.4byte	.LVL217
 7736 26d7 892E0000 		.4byte	0x2e89
 7737 26db 20       		.uleb128 0x20
 7738 26dc 2C050000 		.4byte	.LVL218
 7739 26e0 9E2E0000 		.4byte	0x2e9e
 7740 26e4 EE260000 		.4byte	0x26ee
 7741 26e8 1E       		.uleb128 0x1e
 7742 26e9 01       		.uleb128 0x1
 7743 26ea 50       		.byte	0x50
 7744 26eb 01       		.uleb128 0x1
 7745 26ec 32       		.byte	0x32
 7746 26ed 00       		.byte	0
 7747 26ee 20       		.uleb128 0x20
ARM GAS  C:\Users\AHMED~1.ELE\AppData\Local\Temp\ccAhPyWN.s 			page 158


 7748 26ef 34050000 		.4byte	.LVL219
 7749 26f3 AF2E0000 		.4byte	0x2eaf
 7750 26f7 02270000 		.4byte	0x2702
 7751 26fb 1E       		.uleb128 0x1e
 7752 26fc 01       		.uleb128 0x1
 7753 26fd 50       		.byte	0x50
 7754 26fe 02       		.uleb128 0x2
 7755 26ff 7A       		.byte	0x7a
 7756 2700 01       		.sleb128 1
 7757 2701 00       		.byte	0
 7758 2702 20       		.uleb128 0x20
 7759 2703 3A050000 		.4byte	.LVL220
 7760 2707 9E2E0000 		.4byte	0x2e9e
 7761 270b 15270000 		.4byte	0x2715
 7762 270f 1E       		.uleb128 0x1e
 7763 2710 01       		.uleb128 0x1
 7764 2711 50       		.byte	0x50
 7765 2712 01       		.uleb128 0x1
 7766 2713 31       		.byte	0x31
 7767 2714 00       		.byte	0
 7768 2715 20       		.uleb128 0x20
 7769 2716 44050000 		.4byte	.LVL221
 7770 271a C42E0000 		.4byte	0x2ec4
 7771 271e 34270000 		.4byte	0x2734
 7772 2722 1E       		.uleb128 0x1e
 7773 2723 01       		.uleb128 0x1
 7774 2724 52       		.byte	0x52
 7775 2725 01       		.uleb128 0x1
 7776 2726 31       		.byte	0x31
 7777 2727 1E       		.uleb128 0x1e
 7778 2728 01       		.uleb128 0x1
 7779 2729 51       		.byte	0x51
 7780 272a 02       		.uleb128 0x2
 7781 272b 74       		.byte	0x74
 7782 272c 00       		.sleb128 0
 7783 272d 1E       		.uleb128 0x1e
 7784 272e 01       		.uleb128 0x1
 7785 272f 50       		.byte	0x50
 7786 2730 02       		.uleb128 0x2
 7787 2731 75       		.byte	0x75
 7788 2732 00       		.sleb128 0
 7789 2733 00       		.byte	0
 7790 2734 1D       		.uleb128 0x1d
 7791 2735 4E050000 		.4byte	.LVL223
 7792 2739 962C0000 		.4byte	0x2c96
 7793 273d 1E       		.uleb128 0x1e
 7794 273e 01       		.uleb128 0x1
 7795 273f 51       		.byte	0x51
 7796 2740 02       		.uleb128 0x2
 7797 2741 75       		.byte	0x75
 7798 2742 00       		.sleb128 0
 7799 2743 1E       		.uleb128 0x1e
 7800 2744 01       		.uleb128 0x1
 7801 2745 50       		.byte	0x50
 7802 2746 02       		.uleb128 0x2
 7803 2747 08       		.byte	0x8
 7804 2748 94       		.byte	0x94
ARM GAS  C:\Users\AHMED~1.ELE\AppData\Local\Temp\ccAhPyWN.s 			page 159


 7805 2749 00       		.byte	0
 7806 274a 00       		.byte	0
 7807 274b 00       		.byte	0
 7808 274c 35       		.uleb128 0x35
 7809 274d 251D0000 		.4byte	0x1d25
 7810 2751 1E000000 		.4byte	.LBB25
 7811 2755 18000000 		.4byte	.Ldebug_ranges0+0x18
 7812 2759 01       		.byte	0x1
 7813 275a EF02     		.2byte	0x2ef
 7814 275c AE270000 		.4byte	0x27ae
 7815 2760 31       		.uleb128 0x31
 7816 2761 421D0000 		.4byte	0x1d42
 7817 2765 B4050000 		.4byte	.LLST35
 7818 2769 31       		.uleb128 0x31
 7819 276a 361D0000 		.4byte	0x1d36
 7820 276e DF050000 		.4byte	.LLST36
 7821 2772 20       		.uleb128 0x20
 7822 2773 3E000000 		.4byte	.LVL108
 7823 2777 9F2D0000 		.4byte	0x2d9f
 7824 277b 8F270000 		.4byte	0x278f
 7825 277f 1E       		.uleb128 0x1e
 7826 2780 01       		.uleb128 0x1
 7827 2781 52       		.byte	0x52
 7828 2782 01       		.uleb128 0x1
 7829 2783 39       		.byte	0x39
 7830 2784 1E       		.uleb128 0x1e
 7831 2785 01       		.uleb128 0x1
 7832 2786 51       		.byte	0x51
 7833 2787 01       		.uleb128 0x1
 7834 2788 30       		.byte	0x30
 7835 2789 1E       		.uleb128 0x1e
 7836 278a 01       		.uleb128 0x1
 7837 278b 50       		.byte	0x50
 7838 278c 01       		.uleb128 0x1
 7839 278d 3E       		.byte	0x3e
 7840 278e 00       		.byte	0
 7841 278f 1D       		.uleb128 0x1d
 7842 2790 68000000 		.4byte	.LVL113
 7843 2794 002D0000 		.4byte	0x2d00
 7844 2798 1E       		.uleb128 0x1e
 7845 2799 01       		.uleb128 0x1
 7846 279a 52       		.byte	0x52
 7847 279b 03       		.uleb128 0x3
 7848 279c 0A       		.byte	0xa
 7849 279d 1702     		.2byte	0x217
 7850 279f 1E       		.uleb128 0x1e
 7851 27a0 01       		.uleb128 0x1
 7852 27a1 51       		.byte	0x51
 7853 27a2 02       		.uleb128 0x2
 7854 27a3 74       		.byte	0x74
 7855 27a4 00       		.sleb128 0
 7856 27a5 1E       		.uleb128 0x1e
 7857 27a6 01       		.uleb128 0x1
 7858 27a7 50       		.byte	0x50
 7859 27a8 03       		.uleb128 0x3
 7860 27a9 91       		.byte	0x91
 7861 27aa A877     		.sleb128 -1112
ARM GAS  C:\Users\AHMED~1.ELE\AppData\Local\Temp\ccAhPyWN.s 			page 160


 7862 27ac 00       		.byte	0
 7863 27ad 00       		.byte	0
 7864 27ae 35       		.uleb128 0x35
 7865 27af A1140000 		.4byte	0x14a1
 7866 27b3 44000000 		.4byte	.LBB28
 7867 27b7 30000000 		.4byte	.Ldebug_ranges0+0x30
 7868 27bb 01       		.byte	0x1
 7869 27bc FA02     		.2byte	0x2fa
 7870 27be 372A0000 		.4byte	0x2a37
 7871 27c2 31       		.uleb128 0x31
 7872 27c3 B2140000 		.4byte	0x14b2
 7873 27c7 35060000 		.4byte	.LLST37
 7874 27cb 31       		.uleb128 0x31
 7875 27cc BE140000 		.4byte	0x14be
 7876 27d0 59060000 		.4byte	.LLST38
 7877 27d4 37       		.uleb128 0x37
 7878 27d5 30000000 		.4byte	.Ldebug_ranges0+0x30
 7879 27d9 38       		.uleb128 0x38
 7880 27da CA140000 		.4byte	0x14ca
 7881 27de 77060000 		.4byte	.LLST39
 7882 27e2 38       		.uleb128 0x38
 7883 27e3 D6140000 		.4byte	0x14d6
 7884 27e7 B9060000 		.4byte	.LLST40
 7885 27eb 39       		.uleb128 0x39
 7886 27ec E2140000 		.4byte	0x14e2
 7887 27f0 03       		.uleb128 0x3
 7888 27f1 91       		.byte	0x91
 7889 27f2 E876     		.sleb128 -1176
 7890 27f4 38       		.uleb128 0x38
 7891 27f5 EE140000 		.4byte	0x14ee
 7892 27f9 F8060000 		.4byte	.LLST41
 7893 27fd 38       		.uleb128 0x38
 7894 27fe F8140000 		.4byte	0x14f8
 7895 2802 2F070000 		.4byte	.LLST42
 7896 2806 38       		.uleb128 0x38
 7897 2807 04150000 		.4byte	0x1504
 7898 280b 88070000 		.4byte	.LLST43
 7899 280f 39       		.uleb128 0x39
 7900 2810 10150000 		.4byte	0x1510
 7901 2814 03       		.uleb128 0x3
 7902 2815 91       		.byte	0x91
 7903 2816 9C76     		.sleb128 -1252
 7904 2818 39       		.uleb128 0x39
 7905 2819 1C150000 		.4byte	0x151c
 7906 281d 03       		.uleb128 0x3
 7907 281e 91       		.byte	0x91
 7908 281f A876     		.sleb128 -1240
 7909 2821 20       		.uleb128 0x20
 7910 2822 4E000000 		.4byte	.LVL110
 7911 2826 962C0000 		.4byte	0x2c96
 7912 282a 3C280000 		.4byte	0x283c
 7913 282e 1E       		.uleb128 0x1e
 7914 282f 01       		.uleb128 0x1
 7915 2830 51       		.byte	0x51
 7916 2831 03       		.uleb128 0x3
 7917 2832 0A       		.byte	0xa
 7918 2833 0004     		.2byte	0x400
ARM GAS  C:\Users\AHMED~1.ELE\AppData\Local\Temp\ccAhPyWN.s 			page 161


 7919 2835 1E       		.uleb128 0x1e
 7920 2836 01       		.uleb128 0x1
 7921 2837 50       		.byte	0x50
 7922 2838 02       		.uleb128 0x2
 7923 2839 08       		.byte	0x8
 7924 283a 92       		.byte	0x92
 7925 283b 00       		.byte	0
 7926 283c 20       		.uleb128 0x20
 7927 283d 8E050000 		.4byte	.LVL231
 7928 2841 71140000 		.4byte	0x1471
 7929 2845 57280000 		.4byte	0x2857
 7930 2849 1E       		.uleb128 0x1e
 7931 284a 01       		.uleb128 0x1
 7932 284b 51       		.byte	0x51
 7933 284c 02       		.uleb128 0x2
 7934 284d 79       		.byte	0x79
 7935 284e 00       		.sleb128 0
 7936 284f 1E       		.uleb128 0x1e
 7937 2850 01       		.uleb128 0x1
 7938 2851 50       		.byte	0x50
 7939 2852 03       		.uleb128 0x3
 7940 2853 91       		.byte	0x91
 7941 2854 A876     		.sleb128 -1240
 7942 2856 00       		.byte	0
 7943 2857 20       		.uleb128 0x20
 7944 2858 A6050000 		.4byte	.LVL232
 7945 285c E72D0000 		.4byte	0x2de7
 7946 2860 77280000 		.4byte	0x2877
 7947 2864 1E       		.uleb128 0x1e
 7948 2865 01       		.uleb128 0x1
 7949 2866 51       		.byte	0x51
 7950 2867 05       		.uleb128 0x5
 7951 2868 03       		.byte	0x3
 7952 2869 28010000 		.4byte	.LC23
 7953 286d 1E       		.uleb128 0x1e
 7954 286e 01       		.uleb128 0x1
 7955 286f 50       		.byte	0x50
 7956 2870 05       		.uleb128 0x5
 7957 2871 76       		.byte	0x76
 7958 2872 00       		.sleb128 0
 7959 2873 74       		.byte	0x74
 7960 2874 00       		.sleb128 0
 7961 2875 22       		.byte	0x22
 7962 2876 00       		.byte	0
 7963 2877 20       		.uleb128 0x20
 7964 2878 AE050000 		.4byte	.LVL233
 7965 287c 1C2E0000 		.4byte	0x2e1c
 7966 2880 94280000 		.4byte	0x2894
 7967 2884 1E       		.uleb128 0x1e
 7968 2885 01       		.uleb128 0x1
 7969 2886 52       		.byte	0x52
 7970 2887 02       		.uleb128 0x2
 7971 2888 78       		.byte	0x78
 7972 2889 00       		.sleb128 0
 7973 288a 1E       		.uleb128 0x1e
 7974 288b 01       		.uleb128 0x1
 7975 288c 51       		.byte	0x51
ARM GAS  C:\Users\AHMED~1.ELE\AppData\Local\Temp\ccAhPyWN.s 			page 162


 7976 288d 05       		.uleb128 0x5
 7977 288e 03       		.byte	0x3
 7978 288f 36010000 		.4byte	.LC24
 7979 2893 00       		.byte	0
 7980 2894 20       		.uleb128 0x20
 7981 2895 C2050000 		.4byte	.LVL235
 7982 2899 012E0000 		.4byte	0x2e01
 7983 289d B4280000 		.4byte	0x28b4
 7984 28a1 1E       		.uleb128 0x1e
 7985 28a2 01       		.uleb128 0x1
 7986 28a3 52       		.byte	0x52
 7987 28a4 01       		.uleb128 0x1
 7988 28a5 35       		.byte	0x35
 7989 28a6 1E       		.uleb128 0x1e
 7990 28a7 01       		.uleb128 0x1
 7991 28a8 51       		.byte	0x51
 7992 28a9 03       		.uleb128 0x3
 7993 28aa 91       		.byte	0x91
 7994 28ab A976     		.sleb128 -1239
 7995 28ad 1E       		.uleb128 0x1e
 7996 28ae 01       		.uleb128 0x1
 7997 28af 50       		.byte	0x50
 7998 28b0 02       		.uleb128 0x2
 7999 28b1 7B       		.byte	0x7b
 8000 28b2 00       		.sleb128 0
 8001 28b3 00       		.byte	0
 8002 28b4 20       		.uleb128 0x20
 8003 28b5 D8050000 		.4byte	.LVL236
 8004 28b9 3B2E0000 		.4byte	0x2e3b
 8005 28bd D6280000 		.4byte	0x28d6
 8006 28c1 1E       		.uleb128 0x1e
 8007 28c2 01       		.uleb128 0x1
 8008 28c3 51       		.byte	0x51
 8009 28c4 05       		.uleb128 0x5
 8010 28c5 03       		.byte	0x3
 8011 28c6 42010000 		.4byte	.LC25
 8012 28ca 1E       		.uleb128 0x1e
 8013 28cb 01       		.uleb128 0x1
 8014 28cc 50       		.byte	0x50
 8015 28cd 07       		.uleb128 0x7
 8016 28ce 74       		.byte	0x74
 8017 28cf 00       		.sleb128 0
 8018 28d0 76       		.byte	0x76
 8019 28d1 00       		.sleb128 0
 8020 28d2 22       		.byte	0x22
 8021 28d3 23       		.byte	0x23
 8022 28d4 0B       		.uleb128 0xb
 8023 28d5 00       		.byte	0
 8024 28d6 20       		.uleb128 0x20
 8025 28d7 E8050000 		.4byte	.LVL237
 8026 28db 3B2E0000 		.4byte	0x2e3b
 8027 28df F3280000 		.4byte	0x28f3
 8028 28e3 1E       		.uleb128 0x1e
 8029 28e4 01       		.uleb128 0x1
 8030 28e5 51       		.byte	0x51
 8031 28e6 05       		.uleb128 0x5
 8032 28e7 03       		.byte	0x3
ARM GAS  C:\Users\AHMED~1.ELE\AppData\Local\Temp\ccAhPyWN.s 			page 163


 8033 28e8 47010000 		.4byte	.LC26
 8034 28ec 1E       		.uleb128 0x1e
 8035 28ed 01       		.uleb128 0x1
 8036 28ee 50       		.byte	0x50
 8037 28ef 02       		.uleb128 0x2
 8038 28f0 75       		.byte	0x75
 8039 28f1 00       		.sleb128 0
 8040 28f2 00       		.byte	0
 8041 28f3 20       		.uleb128 0x20
 8042 28f4 EE050000 		.4byte	.LVL238
 8043 28f8 562E0000 		.4byte	0x2e56
 8044 28fc 07290000 		.4byte	0x2907
 8045 2900 1E       		.uleb128 0x1e
 8046 2901 01       		.uleb128 0x1
 8047 2902 50       		.byte	0x50
 8048 2903 02       		.uleb128 0x2
 8049 2904 75       		.byte	0x75
 8050 2905 00       		.sleb128 0
 8051 2906 00       		.byte	0
 8052 2907 20       		.uleb128 0x20
 8053 2908 FE050000 		.4byte	.LVL239
 8054 290c 3B2E0000 		.4byte	0x2e3b
 8055 2910 1E290000 		.4byte	0x291e
 8056 2914 1E       		.uleb128 0x1e
 8057 2915 01       		.uleb128 0x1
 8058 2916 51       		.byte	0x51
 8059 2917 05       		.uleb128 0x5
 8060 2918 03       		.byte	0x3
 8061 2919 47010000 		.4byte	.LC26
 8062 291d 00       		.byte	0
 8063 291e 20       		.uleb128 0x20
 8064 291f 08060000 		.4byte	.LVL240
 8065 2923 1C2E0000 		.4byte	0x2e1c
 8066 2927 3E290000 		.4byte	0x293e
 8067 292b 1E       		.uleb128 0x1e
 8068 292c 01       		.uleb128 0x1
 8069 292d 52       		.byte	0x52
 8070 292e 02       		.uleb128 0x2
 8071 292f 78       		.byte	0x78
 8072 2930 00       		.sleb128 0
 8073 2931 1E       		.uleb128 0x1e
 8074 2932 01       		.uleb128 0x1
 8075 2933 51       		.byte	0x51
 8076 2934 02       		.uleb128 0x2
 8077 2935 75       		.byte	0x75
 8078 2936 00       		.sleb128 0
 8079 2937 1E       		.uleb128 0x1e
 8080 2938 01       		.uleb128 0x1
 8081 2939 50       		.byte	0x50
 8082 293a 02       		.uleb128 0x2
 8083 293b 7B       		.byte	0x7b
 8084 293c 00       		.sleb128 0
 8085 293d 00       		.byte	0
 8086 293e 20       		.uleb128 0x20
 8087 293f 1A060000 		.4byte	.LVL242
 8088 2943 6B2E0000 		.4byte	0x2e6b
 8089 2947 5B290000 		.4byte	0x295b
ARM GAS  C:\Users\AHMED~1.ELE\AppData\Local\Temp\ccAhPyWN.s 			page 164


 8090 294b 1E       		.uleb128 0x1e
 8091 294c 01       		.uleb128 0x1
 8092 294d 51       		.byte	0x51
 8093 294e 05       		.uleb128 0x5
 8094 294f 03       		.byte	0x3
 8095 2950 52010000 		.4byte	.LC27
 8096 2954 1E       		.uleb128 0x1e
 8097 2955 01       		.uleb128 0x1
 8098 2956 50       		.byte	0x50
 8099 2957 02       		.uleb128 0x2
 8100 2958 75       		.byte	0x75
 8101 2959 00       		.sleb128 0
 8102 295a 00       		.byte	0
 8103 295b 29       		.uleb128 0x29
 8104 295c 32060000 		.4byte	.LVL245
 8105 2960 892E0000 		.4byte	0x2e89
 8106 2964 20       		.uleb128 0x20
 8107 2965 44060000 		.4byte	.LVL248
 8108 2969 C42E0000 		.4byte	0x2ec4
 8109 296d 83290000 		.4byte	0x2983
 8110 2971 1E       		.uleb128 0x1e
 8111 2972 01       		.uleb128 0x1
 8112 2973 52       		.byte	0x52
 8113 2974 01       		.uleb128 0x1
 8114 2975 31       		.byte	0x31
 8115 2976 1E       		.uleb128 0x1e
 8116 2977 01       		.uleb128 0x1
 8117 2978 51       		.byte	0x51
 8118 2979 02       		.uleb128 0x2
 8119 297a 74       		.byte	0x74
 8120 297b 00       		.sleb128 0
 8121 297c 1E       		.uleb128 0x1e
 8122 297d 01       		.uleb128 0x1
 8123 297e 50       		.byte	0x50
 8124 297f 02       		.uleb128 0x2
 8125 2980 76       		.byte	0x76
 8126 2981 00       		.sleb128 0
 8127 2982 00       		.byte	0
 8128 2983 20       		.uleb128 0x20
 8129 2984 5E060000 		.4byte	.LVL254
 8130 2988 6B2E0000 		.4byte	0x2e6b
 8131 298c A0290000 		.4byte	0x29a0
 8132 2990 1E       		.uleb128 0x1e
 8133 2991 01       		.uleb128 0x1
 8134 2992 51       		.byte	0x51
 8135 2993 05       		.uleb128 0x5
 8136 2994 03       		.byte	0x3
 8137 2995 52010000 		.4byte	.LC27
 8138 2999 1E       		.uleb128 0x1e
 8139 299a 01       		.uleb128 0x1
 8140 299b 50       		.byte	0x50
 8141 299c 02       		.uleb128 0x2
 8142 299d 75       		.byte	0x75
 8143 299e 00       		.sleb128 0
 8144 299f 00       		.byte	0
 8145 29a0 29       		.uleb128 0x29
 8146 29a1 7E060000 		.4byte	.LVL257
ARM GAS  C:\Users\AHMED~1.ELE\AppData\Local\Temp\ccAhPyWN.s 			page 165


 8147 29a5 892E0000 		.4byte	0x2e89
 8148 29a9 20       		.uleb128 0x20
 8149 29aa 92060000 		.4byte	.LVL260
 8150 29ae C42E0000 		.4byte	0x2ec4
 8151 29b2 C8290000 		.4byte	0x29c8
 8152 29b6 1E       		.uleb128 0x1e
 8153 29b7 01       		.uleb128 0x1
 8154 29b8 52       		.byte	0x52
 8155 29b9 01       		.uleb128 0x1
 8156 29ba 31       		.byte	0x31
 8157 29bb 1E       		.uleb128 0x1e
 8158 29bc 01       		.uleb128 0x1
 8159 29bd 51       		.byte	0x51
 8160 29be 02       		.uleb128 0x2
 8161 29bf 74       		.byte	0x74
 8162 29c0 00       		.sleb128 0
 8163 29c1 1E       		.uleb128 0x1e
 8164 29c2 01       		.uleb128 0x1
 8165 29c3 50       		.byte	0x50
 8166 29c4 02       		.uleb128 0x2
 8167 29c5 76       		.byte	0x76
 8168 29c6 00       		.sleb128 0
 8169 29c7 00       		.byte	0
 8170 29c8 20       		.uleb128 0x20
 8171 29c9 9C060000 		.4byte	.LVL262
 8172 29cd 962C0000 		.4byte	0x2c96
 8173 29d1 E2290000 		.4byte	0x29e2
 8174 29d5 1E       		.uleb128 0x1e
 8175 29d6 01       		.uleb128 0x1
 8176 29d7 51       		.byte	0x51
 8177 29d8 02       		.uleb128 0x2
 8178 29d9 76       		.byte	0x76
 8179 29da 00       		.sleb128 0
 8180 29db 1E       		.uleb128 0x1e
 8181 29dc 01       		.uleb128 0x1
 8182 29dd 50       		.byte	0x50
 8183 29de 02       		.uleb128 0x2
 8184 29df 08       		.byte	0x8
 8185 29e0 94       		.byte	0x94
 8186 29e1 00       		.byte	0
 8187 29e2 20       		.uleb128 0x20
 8188 29e3 A8060000 		.4byte	.LVL267
 8189 29e7 9E2E0000 		.4byte	0x2e9e
 8190 29eb F5290000 		.4byte	0x29f5
 8191 29ef 1E       		.uleb128 0x1e
 8192 29f0 01       		.uleb128 0x1
 8193 29f1 50       		.byte	0x50
 8194 29f2 01       		.uleb128 0x1
 8195 29f3 32       		.byte	0x32
 8196 29f4 00       		.byte	0
 8197 29f5 20       		.uleb128 0x20
 8198 29f6 B0060000 		.4byte	.LVL268
 8199 29fa E72D0000 		.4byte	0x2de7
 8200 29fe 122A0000 		.4byte	0x2a12
 8201 2a02 1E       		.uleb128 0x1e
 8202 2a03 01       		.uleb128 0x1
 8203 2a04 51       		.byte	0x51
ARM GAS  C:\Users\AHMED~1.ELE\AppData\Local\Temp\ccAhPyWN.s 			page 166


 8204 2a05 05       		.uleb128 0x5
 8205 2a06 03       		.byte	0x3
 8206 2a07 60010000 		.4byte	.LC28
 8207 2a0b 1E       		.uleb128 0x1e
 8208 2a0c 01       		.uleb128 0x1
 8209 2a0d 50       		.byte	0x50
 8210 2a0e 02       		.uleb128 0x2
 8211 2a0f 75       		.byte	0x75
 8212 2a10 00       		.sleb128 0
 8213 2a11 00       		.byte	0
 8214 2a12 20       		.uleb128 0x20
 8215 2a13 B6060000 		.4byte	.LVL269
 8216 2a17 AF2E0000 		.4byte	0x2eaf
 8217 2a1b 262A0000 		.4byte	0x2a26
 8218 2a1f 1E       		.uleb128 0x1e
 8219 2a20 01       		.uleb128 0x1
 8220 2a21 50       		.byte	0x50
 8221 2a22 02       		.uleb128 0x2
 8222 2a23 75       		.byte	0x75
 8223 2a24 00       		.sleb128 0
 8224 2a25 00       		.byte	0
 8225 2a26 1D       		.uleb128 0x1d
 8226 2a27 BC060000 		.4byte	.LVL270
 8227 2a2b 9E2E0000 		.4byte	0x2e9e
 8228 2a2f 1E       		.uleb128 0x1e
 8229 2a30 01       		.uleb128 0x1
 8230 2a31 50       		.byte	0x50
 8231 2a32 01       		.uleb128 0x1
 8232 2a33 31       		.byte	0x31
 8233 2a34 00       		.byte	0
 8234 2a35 00       		.byte	0
 8235 2a36 00       		.byte	0
 8236 2a37 1D       		.uleb128 0x1d
 8237 2a38 80000000 		.4byte	.LVL116
 8238 2a3c 002D0000 		.4byte	0x2d00
 8239 2a40 1E       		.uleb128 0x1e
 8240 2a41 01       		.uleb128 0x1
 8241 2a42 52       		.byte	0x52
 8242 2a43 03       		.uleb128 0x3
 8243 2a44 0A       		.byte	0xa
 8244 2a45 1702     		.2byte	0x217
 8245 2a47 1E       		.uleb128 0x1e
 8246 2a48 01       		.uleb128 0x1
 8247 2a49 51       		.byte	0x51
 8248 2a4a 03       		.uleb128 0x3
 8249 2a4b 91       		.byte	0x91
 8250 2a4c A877     		.sleb128 -1112
 8251 2a4e 1E       		.uleb128 0x1e
 8252 2a4f 01       		.uleb128 0x1
 8253 2a50 50       		.byte	0x50
 8254 2a51 03       		.uleb128 0x3
 8255 2a52 91       		.byte	0x91
 8256 2a53 C07B     		.sleb128 -576
 8257 2a55 00       		.byte	0
 8258 2a56 00       		.byte	0
 8259 2a57 3A       		.uleb128 0x3a
 8260 2a58 6F080000 		.4byte	.LASF742
ARM GAS  C:\Users\AHMED~1.ELE\AppData\Local\Temp\ccAhPyWN.s 			page 167


 8261 2a5c 01       		.byte	0x1
 8262 2a5d 0703     		.2byte	0x307
 8263 2a5f 97000000 		.4byte	0x97
 8264 2a63 00000000 		.4byte	.LFB20
 8265 2a67 40000000 		.4byte	.LFE20-.LFB20
 8266 2a6b 01       		.uleb128 0x1
 8267 2a6c 9C       		.byte	0x9c
 8268 2a6d DA2A0000 		.4byte	0x2ada
 8269 2a71 20       		.uleb128 0x20
 8270 2a72 0C000000 		.4byte	.LVL274
 8271 2a76 962C0000 		.4byte	0x2c96
 8272 2a7a 8C2A0000 		.4byte	0x2a8c
 8273 2a7e 1E       		.uleb128 0x1e
 8274 2a7f 01       		.uleb128 0x1
 8275 2a80 51       		.byte	0x51
 8276 2a81 03       		.uleb128 0x3
 8277 2a82 0A       		.byte	0xa
 8278 2a83 DC05     		.2byte	0x5dc
 8279 2a85 1E       		.uleb128 0x1e
 8280 2a86 01       		.uleb128 0x1
 8281 2a87 50       		.byte	0x50
 8282 2a88 02       		.uleb128 0x2
 8283 2a89 08       		.byte	0x8
 8284 2a8a 92       		.byte	0x92
 8285 2a8b 00       		.byte	0
 8286 2a8c 20       		.uleb128 0x20
 8287 2a8d 18000000 		.4byte	.LVL275
 8288 2a91 962C0000 		.4byte	0x2c96
 8289 2a95 A52A0000 		.4byte	0x2aa5
 8290 2a99 1E       		.uleb128 0x1e
 8291 2a9a 01       		.uleb128 0x1
 8292 2a9b 51       		.byte	0x51
 8293 2a9c 01       		.uleb128 0x1
 8294 2a9d 38       		.byte	0x38
 8295 2a9e 1E       		.uleb128 0x1e
 8296 2a9f 01       		.uleb128 0x1
 8297 2aa0 50       		.byte	0x50
 8298 2aa1 02       		.uleb128 0x2
 8299 2aa2 08       		.byte	0x8
 8300 2aa3 92       		.byte	0x92
 8301 2aa4 00       		.byte	0
 8302 2aa5 20       		.uleb128 0x20
 8303 2aa6 22000000 		.4byte	.LVL276
 8304 2aaa 962C0000 		.4byte	0x2c96
 8305 2aae BE2A0000 		.4byte	0x2abe
 8306 2ab2 1E       		.uleb128 0x1e
 8307 2ab3 01       		.uleb128 0x1
 8308 2ab4 51       		.byte	0x51
 8309 2ab5 01       		.uleb128 0x1
 8310 2ab6 38       		.byte	0x38
 8311 2ab7 1E       		.uleb128 0x1e
 8312 2ab8 01       		.uleb128 0x1
 8313 2ab9 50       		.byte	0x50
 8314 2aba 02       		.uleb128 0x2
 8315 2abb 08       		.byte	0x8
 8316 2abc 92       		.byte	0x92
 8317 2abd 00       		.byte	0
ARM GAS  C:\Users\AHMED~1.ELE\AppData\Local\Temp\ccAhPyWN.s 			page 168


 8318 2abe 29       		.uleb128 0x29
 8319 2abf 2A000000 		.4byte	.LVL277
 8320 2ac3 E32E0000 		.4byte	0x2ee3
 8321 2ac7 29       		.uleb128 0x29
 8322 2ac8 30000000 		.4byte	.LVL278
 8323 2acc E32E0000 		.4byte	0x2ee3
 8324 2ad0 29       		.uleb128 0x29
 8325 2ad1 36000000 		.4byte	.LVL279
 8326 2ad5 E32E0000 		.4byte	0x2ee3
 8327 2ad9 00       		.byte	0
 8328 2ada 2C       		.uleb128 0x2c
 8329 2adb 072E0000 		.4byte	.LASF743
 8330 2adf 01       		.byte	0x1
 8331 2ae0 1A03     		.2byte	0x31a
 8332 2ae2 00000000 		.4byte	.LFB21
 8333 2ae6 78000000 		.4byte	.LFE21-.LFB21
 8334 2aea 01       		.uleb128 0x1
 8335 2aeb 9C       		.byte	0x9c
 8336 2aec 9A2B0000 		.4byte	0x2b9a
 8337 2af0 2F       		.uleb128 0x2f
 8338 2af1 301C0000 		.4byte	.LASF744
 8339 2af5 01       		.byte	0x1
 8340 2af6 1C03     		.2byte	0x31c
 8341 2af8 A2000000 		.4byte	0xa2
 8342 2afc 9D070000 		.4byte	.LLST44
 8343 2b00 20       		.uleb128 0x20
 8344 2b01 16000000 		.4byte	.LVL281
 8345 2b05 C82D0000 		.4byte	0x2dc8
 8346 2b09 192B0000 		.4byte	0x2b19
 8347 2b0d 1E       		.uleb128 0x1e
 8348 2b0e 01       		.uleb128 0x1
 8349 2b0f 51       		.byte	0x51
 8350 2b10 01       		.uleb128 0x1
 8351 2b11 32       		.byte	0x32
 8352 2b12 1E       		.uleb128 0x1e
 8353 2b13 01       		.uleb128 0x1
 8354 2b14 50       		.byte	0x50
 8355 2b15 02       		.uleb128 0x2
 8356 2b16 08       		.byte	0x8
 8357 2b17 B9       		.byte	0xb9
 8358 2b18 00       		.byte	0
 8359 2b19 20       		.uleb128 0x20
 8360 2b1a 2A000000 		.4byte	.LVL282
 8361 2b1e 9F2D0000 		.4byte	0x2d9f
 8362 2b22 362B0000 		.4byte	0x2b36
 8363 2b26 1E       		.uleb128 0x1e
 8364 2b27 01       		.uleb128 0x1
 8365 2b28 52       		.byte	0x52
 8366 2b29 01       		.uleb128 0x1
 8367 2b2a 31       		.byte	0x31
 8368 2b2b 1E       		.uleb128 0x1e
 8369 2b2c 01       		.uleb128 0x1
 8370 2b2d 51       		.byte	0x51
 8371 2b2e 01       		.uleb128 0x1
 8372 2b2f 30       		.byte	0x30
 8373 2b30 1E       		.uleb128 0x1e
 8374 2b31 01       		.uleb128 0x1
ARM GAS  C:\Users\AHMED~1.ELE\AppData\Local\Temp\ccAhPyWN.s 			page 169


 8375 2b32 50       		.byte	0x50
 8376 2b33 01       		.uleb128 0x1
 8377 2b34 3E       		.byte	0x3e
 8378 2b35 00       		.byte	0
 8379 2b36 29       		.uleb128 0x29
 8380 2b37 34000000 		.4byte	.LVL283
 8381 2b3b 58150000 		.4byte	0x1558
 8382 2b3f 20       		.uleb128 0x20
 8383 2b40 42000000 		.4byte	.LVL284
 8384 2b44 002D0000 		.4byte	0x2d00
 8385 2b48 5C2B0000 		.4byte	0x2b5c
 8386 2b4c 1E       		.uleb128 0x1e
 8387 2b4d 01       		.uleb128 0x1
 8388 2b4e 52       		.byte	0x52
 8389 2b4f 02       		.uleb128 0x2
 8390 2b50 76       		.byte	0x76
 8391 2b51 00       		.sleb128 0
 8392 2b52 1E       		.uleb128 0x1e
 8393 2b53 01       		.uleb128 0x1
 8394 2b54 51       		.byte	0x51
 8395 2b55 05       		.uleb128 0x5
 8396 2b56 03       		.byte	0x3
 8397 2b57 08000000 		.4byte	.LANCHOR2+8
 8398 2b5b 00       		.byte	0
 8399 2b5c 20       		.uleb128 0x20
 8400 2b5d 50000000 		.4byte	.LVL285
 8401 2b61 002D0000 		.4byte	0x2d00
 8402 2b65 792B0000 		.4byte	0x2b79
 8403 2b69 1E       		.uleb128 0x1e
 8404 2b6a 01       		.uleb128 0x1
 8405 2b6b 52       		.byte	0x52
 8406 2b6c 02       		.uleb128 0x2
 8407 2b6d 08       		.byte	0x8
 8408 2b6e 42       		.byte	0x42
 8409 2b6f 1E       		.uleb128 0x1e
 8410 2b70 01       		.uleb128 0x1
 8411 2b71 51       		.byte	0x51
 8412 2b72 05       		.uleb128 0x5
 8413 2b73 03       		.byte	0x3
 8414 2b74 48000000 		.4byte	.LANCHOR2+72
 8415 2b78 00       		.byte	0
 8416 2b79 1D       		.uleb128 0x1d
 8417 2b7a 66000000 		.4byte	.LVL287
 8418 2b7e 9F2D0000 		.4byte	0x2d9f
 8419 2b82 1E       		.uleb128 0x1e
 8420 2b83 01       		.uleb128 0x1
 8421 2b84 53       		.byte	0x53
 8422 2b85 02       		.uleb128 0x2
 8423 2b86 75       		.byte	0x75
 8424 2b87 00       		.sleb128 0
 8425 2b88 1E       		.uleb128 0x1e
 8426 2b89 01       		.uleb128 0x1
 8427 2b8a 52       		.byte	0x52
 8428 2b8b 02       		.uleb128 0x2
 8429 2b8c 08       		.byte	0x8
 8430 2b8d 80       		.byte	0x80
 8431 2b8e 1E       		.uleb128 0x1e
ARM GAS  C:\Users\AHMED~1.ELE\AppData\Local\Temp\ccAhPyWN.s 			page 170


 8432 2b8f 01       		.uleb128 0x1
 8433 2b90 51       		.byte	0x51
 8434 2b91 01       		.uleb128 0x1
 8435 2b92 31       		.byte	0x31
 8436 2b93 1E       		.uleb128 0x1e
 8437 2b94 01       		.uleb128 0x1
 8438 2b95 50       		.byte	0x50
 8439 2b96 01       		.uleb128 0x1
 8440 2b97 3E       		.byte	0x3e
 8441 2b98 00       		.byte	0
 8442 2b99 00       		.byte	0
 8443 2b9a 27       		.uleb128 0x27
 8444 2b9b 2A2F0000 		.4byte	.LASF745
 8445 2b9f 01       		.byte	0x1
 8446 2ba0 48       		.byte	0x48
 8447 2ba1 CE000000 		.4byte	0xce
 8448 2ba5 05       		.uleb128 0x5
 8449 2ba6 03       		.byte	0x3
 8450 2ba7 08000000 		.4byte	sbIOBuf
 8451 2bab 27       		.uleb128 0x27
 8452 2bac 15060000 		.4byte	.LASF746
 8453 2bb0 01       		.byte	0x1
 8454 2bb1 49       		.byte	0x49
 8455 2bb2 BC2B0000 		.4byte	0x2bbc
 8456 2bb6 05       		.uleb128 0x5
 8457 2bb7 03       		.byte	0x3
 8458 2bb8 00000000 		.4byte	sEMVIn
 8459 2bbc 06       		.uleb128 0x6
 8460 2bbd 04       		.byte	0x4
 8461 2bbe B8120000 		.4byte	0x12b8
 8462 2bc2 27       		.uleb128 0x27
 8463 2bc3 96240000 		.4byte	.LASF747
 8464 2bc7 01       		.byte	0x1
 8465 2bc8 4A       		.byte	0x4a
 8466 2bc9 BC2B0000 		.4byte	0x2bbc
 8467 2bcd 05       		.uleb128 0x5
 8468 2bce 03       		.byte	0x3
 8469 2bcf 04000000 		.4byte	sEMVOut
 8470 2bd3 27       		.uleb128 0x27
 8471 2bd4 5D1C0000 		.4byte	.LASF748
 8472 2bd8 01       		.byte	0x1
 8473 2bd9 4B       		.byte	0x4b
 8474 2bda A2000000 		.4byte	0xa2
 8475 2bde 05       		.uleb128 0x5
 8476 2bdf 03       		.byte	0x3
 8477 2be0 0C000000 		.4byte	bEmvLoaded
 8478 2be4 27       		.uleb128 0x27
 8479 2be5 000B0000 		.4byte	.LASF749
 8480 2be9 01       		.byte	0x1
 8481 2bea 4C       		.byte	0x4c
 8482 2beb A2000000 		.4byte	0xa2
 8483 2bef 05       		.uleb128 0x5
 8484 2bf0 03       		.byte	0x3
 8485 2bf1 10000000 		.4byte	bMaxNumBlk
 8486 2bf5 27       		.uleb128 0x27
 8487 2bf6 F70F0000 		.4byte	.LASF750
 8488 2bfa 01       		.byte	0x1
ARM GAS  C:\Users\AHMED~1.ELE\AppData\Local\Temp\ccAhPyWN.s 			page 171


 8489 2bfb 4C       		.byte	0x4c
 8490 2bfc A2000000 		.4byte	0xa2
 8491 2c00 05       		.uleb128 0x5
 8492 2c01 03       		.byte	0x3
 8493 2c02 11000000 		.4byte	bDnloadBlk
 8494 2c06 27       		.uleb128 0x27
 8495 2c07 A72B0000 		.4byte	.LASF751
 8496 2c0b 01       		.byte	0x1
 8497 2c0c 4D       		.byte	0x4d
 8498 2c0d AD000000 		.4byte	0xad
 8499 2c11 05       		.uleb128 0x5
 8500 2c12 03       		.byte	0x3
 8501 2c13 0E000000 		.4byte	wChunkSize
 8502 2c17 27       		.uleb128 0x27
 8503 2c18 39130000 		.4byte	.LASF752
 8504 2c1c 01       		.byte	0x1
 8505 2c1d 4E       		.byte	0x4e
 8506 2c1e 25000000 		.4byte	0x25
 8507 2c22 05       		.uleb128 0x5
 8508 2c23 03       		.byte	0x3
 8509 2c24 00000000 		.4byte	iDnloadFile
 8510 2c28 27       		.uleb128 0x27
 8511 2c29 330F0000 		.4byte	.LASF753
 8512 2c2d 01       		.byte	0x1
 8513 2c2e 50       		.byte	0x50
 8514 2c2f 392C0000 		.4byte	0x2c39
 8515 2c33 05       		.uleb128 0x5
 8516 2c34 03       		.byte	0x3
 8517 2c35 00000000 		.4byte	KEMVTemp
 8518 2c39 07       		.uleb128 0x7
 8519 2c3a E4000000 		.4byte	0xe4
 8520 2c3e 08       		.uleb128 0x8
 8521 2c3f A2000000 		.4byte	0xa2
 8522 2c43 542C0000 		.4byte	0x2c54
 8523 2c47 09       		.uleb128 0x9
 8524 2c48 76000000 		.4byte	0x76
 8525 2c4c 03       		.byte	0x3
 8526 2c4d 09       		.uleb128 0x9
 8527 2c4e 76000000 		.4byte	0x76
 8528 2c52 0F       		.byte	0xf
 8529 2c53 00       		.byte	0
 8530 2c54 3B       		.uleb128 0x3b
 8531 2c55 61310000 		.4byte	.LASF754
 8532 2c59 01       		.byte	0x1
 8533 2c5a 36       		.byte	0x36
 8534 2c5b 652C0000 		.4byte	0x2c65
 8535 2c5f 05       		.uleb128 0x5
 8536 2c60 03       		.byte	0x3
 8537 2c61 00000000 		.4byte	KPinMsg
 8538 2c65 07       		.uleb128 0x7
 8539 2c66 3E2C0000 		.4byte	0x2c3e
 8540 2c6a 08       		.uleb128 0x8
 8541 2c6b A2000000 		.4byte	0xa2
 8542 2c6f 802C0000 		.4byte	0x2c80
 8543 2c73 09       		.uleb128 0x9
 8544 2c74 76000000 		.4byte	0x76
 8545 2c78 05       		.byte	0x5
ARM GAS  C:\Users\AHMED~1.ELE\AppData\Local\Temp\ccAhPyWN.s 			page 172


 8546 2c79 09       		.uleb128 0x9
 8547 2c7a 76000000 		.4byte	0x76
 8548 2c7e 0A       		.byte	0xa
 8549 2c7f 00       		.byte	0
 8550 2c80 3B       		.uleb128 0x3b
 8551 2c81 1E320000 		.4byte	.LASF755
 8552 2c85 01       		.byte	0x1
 8553 2c86 3C       		.byte	0x3c
 8554 2c87 912C0000 		.4byte	0x2c91
 8555 2c8b 05       		.uleb128 0x5
 8556 2c8c 03       		.byte	0x3
 8557 2c8d 00000000 		.4byte	KCardholderIDName
 8558 2c91 07       		.uleb128 0x7
 8559 2c92 6A2C0000 		.4byte	0x2c6a
 8560 2c96 3C       		.uleb128 0x3c
 8561 2c97 771D0000 		.4byte	.LASF757
 8562 2c9b 04       		.byte	0x4
 8563 2c9c A2       		.byte	0xa2
 8564 2c9d B8000000 		.4byte	0xb8
 8565 2ca1 B02C0000 		.4byte	0x2cb0
 8566 2ca5 3D       		.uleb128 0x3d
 8567 2ca6 B8000000 		.4byte	0xb8
 8568 2caa 3D       		.uleb128 0x3d
 8569 2cab B8000000 		.4byte	0xb8
 8570 2caf 00       		.byte	0
 8571 2cb0 3E       		.uleb128 0x3e
 8572 2cb1 F1280000 		.4byte	.LASF761
 8573 2cb5 0B       		.byte	0xb
 8574 2cb6 4E       		.byte	0x4e
 8575 2cb7 C12C0000 		.4byte	0x2cc1
 8576 2cbb 3D       		.uleb128 0x3d
 8577 2cbc 8C000000 		.4byte	0x8c
 8578 2cc0 00       		.byte	0
 8579 2cc1 3C       		.uleb128 0x3c
 8580 2cc2 F90E0000 		.4byte	.LASF758
 8581 2cc6 0A       		.byte	0xa
 8582 2cc7 39       		.byte	0x39
 8583 2cc8 B8000000 		.4byte	0xb8
 8584 2ccc D62C0000 		.4byte	0x2cd6
 8585 2cd0 3D       		.uleb128 0x3d
 8586 2cd1 B8000000 		.4byte	0xb8
 8587 2cd5 00       		.byte	0
 8588 2cd6 3C       		.uleb128 0x3c
 8589 2cd7 6D1D0000 		.4byte	.LASF759
 8590 2cdb 04       		.byte	0x4
 8591 2cdc A1       		.byte	0xa1
 8592 2cdd B8000000 		.4byte	0xb8
 8593 2ce1 EB2C0000 		.4byte	0x2ceb
 8594 2ce5 3D       		.uleb128 0x3d
 8595 2ce6 B8000000 		.4byte	0xb8
 8596 2cea 00       		.byte	0
 8597 2ceb 3C       		.uleb128 0x3c
 8598 2cec CF220000 		.4byte	.LASF760
 8599 2cf0 0B       		.byte	0xb
 8600 2cf1 8E       		.byte	0x8e
 8601 2cf2 AD000000 		.4byte	0xad
 8602 2cf6 002D0000 		.4byte	0x2d00
ARM GAS  C:\Users\AHMED~1.ELE\AppData\Local\Temp\ccAhPyWN.s 			page 173


 8603 2cfa 3D       		.uleb128 0x3d
 8604 2cfb 7D000000 		.4byte	0x7d
 8605 2cff 00       		.byte	0
 8606 2d00 3F       		.uleb128 0x3f
 8607 2d01 162D0000 		.4byte	.LASF762
 8608 2d05 7D000000 		.4byte	0x7d
 8609 2d09 1D2D0000 		.4byte	0x2d1d
 8610 2d0d 3D       		.uleb128 0x3d
 8611 2d0e 7D000000 		.4byte	0x7d
 8612 2d12 3D       		.uleb128 0x3d
 8613 2d13 4E100000 		.4byte	0x104e
 8614 2d17 3D       		.uleb128 0x3d
 8615 2d18 76000000 		.4byte	0x76
 8616 2d1c 00       		.byte	0
 8617 2d1d 3C       		.uleb128 0x3c
 8618 2d1e A5220000 		.4byte	.LASF763
 8619 2d22 0B       		.byte	0xb
 8620 2d23 8F       		.byte	0x8f
 8621 2d24 B8000000 		.4byte	0xb8
 8622 2d28 322D0000 		.4byte	0x2d32
 8623 2d2c 3D       		.uleb128 0x3d
 8624 2d2d 7D000000 		.4byte	0x7d
 8625 2d31 00       		.byte	0
 8626 2d32 3E       		.uleb128 0x3e
 8627 2d33 87200000 		.4byte	.LASF764
 8628 2d37 0C       		.byte	0xc
 8629 2d38 52       		.byte	0x52
 8630 2d39 482D0000 		.4byte	0x2d48
 8631 2d3d 3D       		.uleb128 0x3d
 8632 2d3e CE000000 		.4byte	0xce
 8633 2d42 3D       		.uleb128 0x3d
 8634 2d43 61000000 		.4byte	0x61
 8635 2d47 00       		.byte	0
 8636 2d48 3E       		.uleb128 0x3e
 8637 2d49 D91E0000 		.4byte	.LASF765
 8638 2d4d 0C       		.byte	0xc
 8639 2d4e 54       		.byte	0x54
 8640 2d4f 632D0000 		.4byte	0x2d63
 8641 2d53 3D       		.uleb128 0x3d
 8642 2d54 B8000000 		.4byte	0xb8
 8643 2d58 3D       		.uleb128 0x3d
 8644 2d59 CE000000 		.4byte	0xce
 8645 2d5d 3D       		.uleb128 0x3d
 8646 2d5e B8000000 		.4byte	0xb8
 8647 2d62 00       		.byte	0
 8648 2d63 3C       		.uleb128 0x3c
 8649 2d64 A1270000 		.4byte	.LASF766
 8650 2d68 0C       		.byte	0xc
 8651 2d69 26       		.byte	0x26
 8652 2d6a B8000000 		.4byte	0xb8
 8653 2d6e 822D0000 		.4byte	0x2d82
 8654 2d72 3D       		.uleb128 0x3d
 8655 2d73 CE000000 		.4byte	0xce
 8656 2d77 3D       		.uleb128 0x3d
 8657 2d78 B8000000 		.4byte	0xb8
 8658 2d7c 3D       		.uleb128 0x3d
 8659 2d7d B8000000 		.4byte	0xb8
ARM GAS  C:\Users\AHMED~1.ELE\AppData\Local\Temp\ccAhPyWN.s 			page 174


 8660 2d81 00       		.byte	0
 8661 2d82 3F       		.uleb128 0x3f
 8662 2d83 B8260000 		.4byte	.LASF767
 8663 2d87 7D000000 		.4byte	0x7d
 8664 2d8b 9F2D0000 		.4byte	0x2d9f
 8665 2d8f 3D       		.uleb128 0x3d
 8666 2d90 7D000000 		.4byte	0x7d
 8667 2d94 3D       		.uleb128 0x3d
 8668 2d95 25000000 		.4byte	0x25
 8669 2d99 3D       		.uleb128 0x3d
 8670 2d9a 76000000 		.4byte	0x76
 8671 2d9e 00       		.byte	0
 8672 2d9f 3C       		.uleb128 0x3c
 8673 2da0 280C0000 		.4byte	.LASF768
 8674 2da4 04       		.byte	0x4
 8675 2da5 A0       		.byte	0xa0
 8676 2da6 B8000000 		.4byte	0xb8
 8677 2daa C82D0000 		.4byte	0x2dc8
 8678 2dae 3D       		.uleb128 0x3d
 8679 2daf B8000000 		.4byte	0xb8
 8680 2db3 3D       		.uleb128 0x3d
 8681 2db4 B8000000 		.4byte	0xb8
 8682 2db8 3D       		.uleb128 0x3d
 8683 2db9 B8000000 		.4byte	0xb8
 8684 2dbd 3D       		.uleb128 0x3d
 8685 2dbe B8000000 		.4byte	0xb8
 8686 2dc2 3D       		.uleb128 0x3d
 8687 2dc3 B8000000 		.4byte	0xb8
 8688 2dc7 00       		.byte	0
 8689 2dc8 3C       		.uleb128 0x3c
 8690 2dc9 811D0000 		.4byte	.LASF769
 8691 2dcd 04       		.byte	0x4
 8692 2dce A3       		.byte	0xa3
 8693 2dcf B8000000 		.4byte	0xb8
 8694 2dd3 E72D0000 		.4byte	0x2de7
 8695 2dd7 3D       		.uleb128 0x3d
 8696 2dd8 B8000000 		.4byte	0xb8
 8697 2ddc 3D       		.uleb128 0x3d
 8698 2ddd B8000000 		.4byte	0xb8
 8699 2de1 3D       		.uleb128 0x3d
 8700 2de2 B8000000 		.4byte	0xb8
 8701 2de6 00       		.byte	0
 8702 2de7 3C       		.uleb128 0x3c
 8703 2de8 C7150000 		.4byte	.LASF770
 8704 2dec 0D       		.byte	0xd
 8705 2ded 1E       		.byte	0x1e
 8706 2dee 7F000000 		.4byte	0x7f
 8707 2df2 012E0000 		.4byte	0x2e01
 8708 2df6 3D       		.uleb128 0x3d
 8709 2df7 7F000000 		.4byte	0x7f
 8710 2dfb 3D       		.uleb128 0x3d
 8711 2dfc 8C000000 		.4byte	0x8c
 8712 2e00 00       		.byte	0
 8713 2e01 3E       		.uleb128 0x3e
 8714 2e02 B82E0000 		.4byte	.LASF771
 8715 2e06 0C       		.byte	0xc
 8716 2e07 29       		.byte	0x29
ARM GAS  C:\Users\AHMED~1.ELE\AppData\Local\Temp\ccAhPyWN.s 			page 175


 8717 2e08 1C2E0000 		.4byte	0x2e1c
 8718 2e0c 3D       		.uleb128 0x3d
 8719 2e0d CE000000 		.4byte	0xce
 8720 2e11 3D       		.uleb128 0x3d
 8721 2e12 CE000000 		.4byte	0xce
 8722 2e16 3D       		.uleb128 0x3d
 8723 2e17 B8000000 		.4byte	0xb8
 8724 2e1b 00       		.byte	0
 8725 2e1c 3C       		.uleb128 0x3c
 8726 2e1d 4D140000 		.4byte	.LASF772
 8727 2e21 09       		.byte	0x9
 8728 2e22 36       		.byte	0x36
 8729 2e23 25000000 		.4byte	0x25
 8730 2e27 3B2E0000 		.4byte	0x2e3b
 8731 2e2b 3D       		.uleb128 0x3d
 8732 2e2c 7F000000 		.4byte	0x7f
 8733 2e30 3D       		.uleb128 0x3d
 8734 2e31 7F000000 		.4byte	0x7f
 8735 2e35 3D       		.uleb128 0x3d
 8736 2e36 25000000 		.4byte	0x25
 8737 2e3a 00       		.byte	0
 8738 2e3b 3C       		.uleb128 0x3c
 8739 2e3c CF170000 		.4byte	.LASF773
 8740 2e40 0E       		.byte	0xe
 8741 2e41 DD       		.byte	0xdd
 8742 2e42 25000000 		.4byte	0x25
 8743 2e46 562E0000 		.4byte	0x2e56
 8744 2e4a 3D       		.uleb128 0x3d
 8745 2e4b 7F000000 		.4byte	0x7f
 8746 2e4f 3D       		.uleb128 0x3d
 8747 2e50 8C000000 		.4byte	0x8c
 8748 2e54 40       		.uleb128 0x40
 8749 2e55 00       		.byte	0
 8750 2e56 3C       		.uleb128 0x3c
 8751 2e57 AC2C0000 		.4byte	.LASF774
 8752 2e5b 0D       		.byte	0xd
 8753 2e5c 21       		.byte	0x21
 8754 2e5d 2C000000 		.4byte	0x2c
 8755 2e61 6B2E0000 		.4byte	0x2e6b
 8756 2e65 3D       		.uleb128 0x3d
 8757 2e66 8C000000 		.4byte	0x8c
 8758 2e6a 00       		.byte	0
 8759 2e6b 41       		.uleb128 0x41
 8760 2e6c 7A1A0000 		.4byte	.LASF786
 8761 2e70 10       		.byte	0x10
 8762 2e71 00       		.byte	0
 8763 2e72 C7150000 		.4byte	.LASF770
 8764 2e76 7F000000 		.4byte	0x7f
 8765 2e7a 892E0000 		.4byte	0x2e89
 8766 2e7e 3D       		.uleb128 0x3d
 8767 2e7f 7F000000 		.4byte	0x7f
 8768 2e83 3D       		.uleb128 0x3d
 8769 2e84 8C000000 		.4byte	0x8c
 8770 2e88 00       		.byte	0
 8771 2e89 3C       		.uleb128 0x3c
 8772 2e8a 13260000 		.4byte	.LASF775
 8773 2e8e 09       		.byte	0x9
ARM GAS  C:\Users\AHMED~1.ELE\AppData\Local\Temp\ccAhPyWN.s 			page 176


 8774 2e8f 37       		.byte	0x37
 8775 2e90 B8000000 		.4byte	0xb8
 8776 2e94 9E2E0000 		.4byte	0x2e9e
 8777 2e98 3D       		.uleb128 0x3d
 8778 2e99 99130000 		.4byte	0x1399
 8779 2e9d 00       		.byte	0
 8780 2e9e 3E       		.uleb128 0x3e
 8781 2e9f 70060000 		.4byte	.LASF776
 8782 2ea3 0F       		.byte	0xf
 8783 2ea4 3B       		.byte	0x3b
 8784 2ea5 AF2E0000 		.4byte	0x2eaf
 8785 2ea9 3D       		.uleb128 0x3d
 8786 2eaa B8000000 		.4byte	0xb8
 8787 2eae 00       		.byte	0
 8788 2eaf 3C       		.uleb128 0x3c
 8789 2eb0 79100000 		.4byte	.LASF777
 8790 2eb4 0F       		.byte	0xf
 8791 2eb5 36       		.byte	0x36
 8792 2eb6 B8000000 		.4byte	0xb8
 8793 2eba C42E0000 		.4byte	0x2ec4
 8794 2ebe 3D       		.uleb128 0x3d
 8795 2ebf C3000000 		.4byte	0xc3
 8796 2ec3 00       		.byte	0
 8797 2ec4 3C       		.uleb128 0x3c
 8798 2ec5 F5190000 		.4byte	.LASF778
 8799 2ec9 0F       		.byte	0xf
 8800 2eca 3A       		.byte	0x3a
 8801 2ecb 97000000 		.4byte	0x97
 8802 2ecf E32E0000 		.4byte	0x2ee3
 8803 2ed3 3D       		.uleb128 0x3d
 8804 2ed4 CE000000 		.4byte	0xce
 8805 2ed8 3D       		.uleb128 0x3d
 8806 2ed9 B8000000 		.4byte	0xb8
 8807 2edd 3D       		.uleb128 0x3d
 8808 2ede 97000000 		.4byte	0x97
 8809 2ee2 00       		.byte	0
 8810 2ee3 42       		.uleb128 0x42
 8811 2ee4 6C210000 		.4byte	.LASF787
 8812 2ee8 0B       		.byte	0xb
 8813 2ee9 7F       		.byte	0x7f
 8814 2eea 3D       		.uleb128 0x3d
 8815 2eeb 7D000000 		.4byte	0x7d
 8816 2eef 00       		.byte	0
 8817 2ef0 00       		.byte	0
 8818              		.section	.debug_abbrev,"",%progbits
 8819              	.Ldebug_abbrev0:
 8820 0000 01       		.uleb128 0x1
 8821 0001 11       		.uleb128 0x11
 8822 0002 01       		.byte	0x1
 8823 0003 25       		.uleb128 0x25
 8824 0004 0E       		.uleb128 0xe
 8825 0005 13       		.uleb128 0x13
 8826 0006 0B       		.uleb128 0xb
 8827 0007 03       		.uleb128 0x3
 8828 0008 0E       		.uleb128 0xe
 8829 0009 1B       		.uleb128 0x1b
 8830 000a 0E       		.uleb128 0xe
ARM GAS  C:\Users\AHMED~1.ELE\AppData\Local\Temp\ccAhPyWN.s 			page 177


 8831 000b 55       		.uleb128 0x55
 8832 000c 17       		.uleb128 0x17
 8833 000d 11       		.uleb128 0x11
 8834 000e 01       		.uleb128 0x1
 8835 000f 10       		.uleb128 0x10
 8836 0010 17       		.uleb128 0x17
 8837 0011 00       		.byte	0
 8838 0012 00       		.byte	0
 8839 0013 02       		.uleb128 0x2
 8840 0014 24       		.uleb128 0x24
 8841 0015 00       		.byte	0
 8842 0016 0B       		.uleb128 0xb
 8843 0017 0B       		.uleb128 0xb
 8844 0018 3E       		.uleb128 0x3e
 8845 0019 0B       		.uleb128 0xb
 8846 001a 03       		.uleb128 0x3
 8847 001b 08       		.uleb128 0x8
 8848 001c 00       		.byte	0
 8849 001d 00       		.byte	0
 8850 001e 03       		.uleb128 0x3
 8851 001f 16       		.uleb128 0x16
 8852 0020 00       		.byte	0
 8853 0021 03       		.uleb128 0x3
 8854 0022 0E       		.uleb128 0xe
 8855 0023 3A       		.uleb128 0x3a
 8856 0024 0B       		.uleb128 0xb
 8857 0025 3B       		.uleb128 0x3b
 8858 0026 0B       		.uleb128 0xb
 8859 0027 49       		.uleb128 0x49
 8860 0028 13       		.uleb128 0x13
 8861 0029 00       		.byte	0
 8862 002a 00       		.byte	0
 8863 002b 04       		.uleb128 0x4
 8864 002c 24       		.uleb128 0x24
 8865 002d 00       		.byte	0
 8866 002e 0B       		.uleb128 0xb
 8867 002f 0B       		.uleb128 0xb
 8868 0030 3E       		.uleb128 0x3e
 8869 0031 0B       		.uleb128 0xb
 8870 0032 03       		.uleb128 0x3
 8871 0033 0E       		.uleb128 0xe
 8872 0034 00       		.byte	0
 8873 0035 00       		.byte	0
 8874 0036 05       		.uleb128 0x5
 8875 0037 0F       		.uleb128 0xf
 8876 0038 00       		.byte	0
 8877 0039 0B       		.uleb128 0xb
 8878 003a 0B       		.uleb128 0xb
 8879 003b 00       		.byte	0
 8880 003c 00       		.byte	0
 8881 003d 06       		.uleb128 0x6
 8882 003e 0F       		.uleb128 0xf
 8883 003f 00       		.byte	0
 8884 0040 0B       		.uleb128 0xb
 8885 0041 0B       		.uleb128 0xb
 8886 0042 49       		.uleb128 0x49
 8887 0043 13       		.uleb128 0x13
ARM GAS  C:\Users\AHMED~1.ELE\AppData\Local\Temp\ccAhPyWN.s 			page 178


 8888 0044 00       		.byte	0
 8889 0045 00       		.byte	0
 8890 0046 07       		.uleb128 0x7
 8891 0047 26       		.uleb128 0x26
 8892 0048 00       		.byte	0
 8893 0049 49       		.uleb128 0x49
 8894 004a 13       		.uleb128 0x13
 8895 004b 00       		.byte	0
 8896 004c 00       		.byte	0
 8897 004d 08       		.uleb128 0x8
 8898 004e 01       		.uleb128 0x1
 8899 004f 01       		.byte	0x1
 8900 0050 49       		.uleb128 0x49
 8901 0051 13       		.uleb128 0x13
 8902 0052 01       		.uleb128 0x1
 8903 0053 13       		.uleb128 0x13
 8904 0054 00       		.byte	0
 8905 0055 00       		.byte	0
 8906 0056 09       		.uleb128 0x9
 8907 0057 21       		.uleb128 0x21
 8908 0058 00       		.byte	0
 8909 0059 49       		.uleb128 0x49
 8910 005a 13       		.uleb128 0x13
 8911 005b 2F       		.uleb128 0x2f
 8912 005c 0B       		.uleb128 0xb
 8913 005d 00       		.byte	0
 8914 005e 00       		.byte	0
 8915 005f 0A       		.uleb128 0xa
 8916 0060 04       		.uleb128 0x4
 8917 0061 01       		.byte	0x1
 8918 0062 03       		.uleb128 0x3
 8919 0063 0E       		.uleb128 0xe
 8920 0064 0B       		.uleb128 0xb
 8921 0065 0B       		.uleb128 0xb
 8922 0066 3A       		.uleb128 0x3a
 8923 0067 0B       		.uleb128 0xb
 8924 0068 3B       		.uleb128 0x3b
 8925 0069 05       		.uleb128 0x5
 8926 006a 01       		.uleb128 0x1
 8927 006b 13       		.uleb128 0x13
 8928 006c 00       		.byte	0
 8929 006d 00       		.byte	0
 8930 006e 0B       		.uleb128 0xb
 8931 006f 28       		.uleb128 0x28
 8932 0070 00       		.byte	0
 8933 0071 03       		.uleb128 0x3
 8934 0072 0E       		.uleb128 0xe
 8935 0073 1C       		.uleb128 0x1c
 8936 0074 0D       		.uleb128 0xd
 8937 0075 00       		.byte	0
 8938 0076 00       		.byte	0
 8939 0077 0C       		.uleb128 0xc
 8940 0078 04       		.uleb128 0x4
 8941 0079 01       		.byte	0x1
 8942 007a 0B       		.uleb128 0xb
 8943 007b 0B       		.uleb128 0xb
 8944 007c 3A       		.uleb128 0x3a
ARM GAS  C:\Users\AHMED~1.ELE\AppData\Local\Temp\ccAhPyWN.s 			page 179


 8945 007d 0B       		.uleb128 0xb
 8946 007e 3B       		.uleb128 0x3b
 8947 007f 05       		.uleb128 0x5
 8948 0080 01       		.uleb128 0x1
 8949 0081 13       		.uleb128 0x13
 8950 0082 00       		.byte	0
 8951 0083 00       		.byte	0
 8952 0084 0D       		.uleb128 0xd
 8953 0085 26       		.uleb128 0x26
 8954 0086 00       		.byte	0
 8955 0087 00       		.byte	0
 8956 0088 00       		.byte	0
 8957 0089 0E       		.uleb128 0xe
 8958 008a 04       		.uleb128 0x4
 8959 008b 01       		.byte	0x1
 8960 008c 0B       		.uleb128 0xb
 8961 008d 0B       		.uleb128 0xb
 8962 008e 3A       		.uleb128 0x3a
 8963 008f 0B       		.uleb128 0xb
 8964 0090 3B       		.uleb128 0x3b
 8965 0091 0B       		.uleb128 0xb
 8966 0092 01       		.uleb128 0x1
 8967 0093 13       		.uleb128 0x13
 8968 0094 00       		.byte	0
 8969 0095 00       		.byte	0
 8970 0096 0F       		.uleb128 0xf
 8971 0097 13       		.uleb128 0x13
 8972 0098 01       		.byte	0x1
 8973 0099 0B       		.uleb128 0xb
 8974 009a 0B       		.uleb128 0xb
 8975 009b 3A       		.uleb128 0x3a
 8976 009c 0B       		.uleb128 0xb
 8977 009d 3B       		.uleb128 0x3b
 8978 009e 0B       		.uleb128 0xb
 8979 009f 01       		.uleb128 0x1
 8980 00a0 13       		.uleb128 0x13
 8981 00a1 00       		.byte	0
 8982 00a2 00       		.byte	0
 8983 00a3 10       		.uleb128 0x10
 8984 00a4 0D       		.uleb128 0xd
 8985 00a5 00       		.byte	0
 8986 00a6 03       		.uleb128 0x3
 8987 00a7 0E       		.uleb128 0xe
 8988 00a8 3A       		.uleb128 0x3a
 8989 00a9 0B       		.uleb128 0xb
 8990 00aa 3B       		.uleb128 0x3b
 8991 00ab 0B       		.uleb128 0xb
 8992 00ac 49       		.uleb128 0x49
 8993 00ad 13       		.uleb128 0x13
 8994 00ae 38       		.uleb128 0x38
 8995 00af 0B       		.uleb128 0xb
 8996 00b0 00       		.byte	0
 8997 00b1 00       		.byte	0
 8998 00b2 11       		.uleb128 0x11
 8999 00b3 0D       		.uleb128 0xd
 9000 00b4 00       		.byte	0
 9001 00b5 03       		.uleb128 0x3
ARM GAS  C:\Users\AHMED~1.ELE\AppData\Local\Temp\ccAhPyWN.s 			page 180


 9002 00b6 08       		.uleb128 0x8
 9003 00b7 3A       		.uleb128 0x3a
 9004 00b8 0B       		.uleb128 0xb
 9005 00b9 3B       		.uleb128 0x3b
 9006 00ba 0B       		.uleb128 0xb
 9007 00bb 49       		.uleb128 0x49
 9008 00bc 13       		.uleb128 0x13
 9009 00bd 38       		.uleb128 0x38
 9010 00be 0B       		.uleb128 0xb
 9011 00bf 00       		.byte	0
 9012 00c0 00       		.byte	0
 9013 00c1 12       		.uleb128 0x12
 9014 00c2 13       		.uleb128 0x13
 9015 00c3 01       		.byte	0x1
 9016 00c4 0B       		.uleb128 0xb
 9017 00c5 05       		.uleb128 0x5
 9018 00c6 3A       		.uleb128 0x3a
 9019 00c7 0B       		.uleb128 0xb
 9020 00c8 3B       		.uleb128 0x3b
 9021 00c9 0B       		.uleb128 0xb
 9022 00ca 01       		.uleb128 0x1
 9023 00cb 13       		.uleb128 0x13
 9024 00cc 00       		.byte	0
 9025 00cd 00       		.byte	0
 9026 00ce 13       		.uleb128 0x13
 9027 00cf 21       		.uleb128 0x21
 9028 00d0 00       		.byte	0
 9029 00d1 49       		.uleb128 0x49
 9030 00d2 13       		.uleb128 0x13
 9031 00d3 2F       		.uleb128 0x2f
 9032 00d4 05       		.uleb128 0x5
 9033 00d5 00       		.byte	0
 9034 00d6 00       		.byte	0
 9035 00d7 14       		.uleb128 0x14
 9036 00d8 13       		.uleb128 0x13
 9037 00d9 01       		.byte	0x1
 9038 00da 03       		.uleb128 0x3
 9039 00db 0E       		.uleb128 0xe
 9040 00dc 0B       		.uleb128 0xb
 9041 00dd 0B       		.uleb128 0xb
 9042 00de 3A       		.uleb128 0x3a
 9043 00df 0B       		.uleb128 0xb
 9044 00e0 3B       		.uleb128 0x3b
 9045 00e1 0B       		.uleb128 0xb
 9046 00e2 01       		.uleb128 0x1
 9047 00e3 13       		.uleb128 0x13
 9048 00e4 00       		.byte	0
 9049 00e5 00       		.byte	0
 9050 00e6 15       		.uleb128 0x15
 9051 00e7 2E       		.uleb128 0x2e
 9052 00e8 01       		.byte	0x1
 9053 00e9 03       		.uleb128 0x3
 9054 00ea 0E       		.uleb128 0xe
 9055 00eb 3A       		.uleb128 0x3a
 9056 00ec 0B       		.uleb128 0xb
 9057 00ed 3B       		.uleb128 0x3b
 9058 00ee 05       		.uleb128 0x5
ARM GAS  C:\Users\AHMED~1.ELE\AppData\Local\Temp\ccAhPyWN.s 			page 181


 9059 00ef 27       		.uleb128 0x27
 9060 00f0 19       		.uleb128 0x19
 9061 00f1 49       		.uleb128 0x49
 9062 00f2 13       		.uleb128 0x13
 9063 00f3 20       		.uleb128 0x20
 9064 00f4 0B       		.uleb128 0xb
 9065 00f5 01       		.uleb128 0x1
 9066 00f6 13       		.uleb128 0x13
 9067 00f7 00       		.byte	0
 9068 00f8 00       		.byte	0
 9069 00f9 16       		.uleb128 0x16
 9070 00fa 05       		.uleb128 0x5
 9071 00fb 00       		.byte	0
 9072 00fc 03       		.uleb128 0x3
 9073 00fd 0E       		.uleb128 0xe
 9074 00fe 3A       		.uleb128 0x3a
 9075 00ff 0B       		.uleb128 0xb
 9076 0100 3B       		.uleb128 0x3b
 9077 0101 05       		.uleb128 0x5
 9078 0102 49       		.uleb128 0x49
 9079 0103 13       		.uleb128 0x13
 9080 0104 00       		.byte	0
 9081 0105 00       		.byte	0
 9082 0106 17       		.uleb128 0x17
 9083 0107 34       		.uleb128 0x34
 9084 0108 00       		.byte	0
 9085 0109 03       		.uleb128 0x3
 9086 010a 0E       		.uleb128 0xe
 9087 010b 3A       		.uleb128 0x3a
 9088 010c 0B       		.uleb128 0xb
 9089 010d 3B       		.uleb128 0x3b
 9090 010e 05       		.uleb128 0x5
 9091 010f 49       		.uleb128 0x49
 9092 0110 13       		.uleb128 0x13
 9093 0111 00       		.byte	0
 9094 0112 00       		.byte	0
 9095 0113 18       		.uleb128 0x18
 9096 0114 34       		.uleb128 0x34
 9097 0115 00       		.byte	0
 9098 0116 03       		.uleb128 0x3
 9099 0117 08       		.uleb128 0x8
 9100 0118 3A       		.uleb128 0x3a
 9101 0119 0B       		.uleb128 0xb
 9102 011a 3B       		.uleb128 0x3b
 9103 011b 05       		.uleb128 0x5
 9104 011c 49       		.uleb128 0x49
 9105 011d 13       		.uleb128 0x13
 9106 011e 00       		.byte	0
 9107 011f 00       		.byte	0
 9108 0120 19       		.uleb128 0x19
 9109 0121 2E       		.uleb128 0x2e
 9110 0122 00       		.byte	0
 9111 0123 3F       		.uleb128 0x3f
 9112 0124 19       		.uleb128 0x19
 9113 0125 03       		.uleb128 0x3
 9114 0126 0E       		.uleb128 0xe
 9115 0127 3A       		.uleb128 0x3a
ARM GAS  C:\Users\AHMED~1.ELE\AppData\Local\Temp\ccAhPyWN.s 			page 182


 9116 0128 0B       		.uleb128 0xb
 9117 0129 3B       		.uleb128 0x3b
 9118 012a 0B       		.uleb128 0xb
 9119 012b 27       		.uleb128 0x27
 9120 012c 19       		.uleb128 0x19
 9121 012d 20       		.uleb128 0x20
 9122 012e 0B       		.uleb128 0xb
 9123 012f 00       		.byte	0
 9124 0130 00       		.byte	0
 9125 0131 1A       		.uleb128 0x1a
 9126 0132 2E       		.uleb128 0x2e
 9127 0133 00       		.byte	0
 9128 0134 3F       		.uleb128 0x3f
 9129 0135 19       		.uleb128 0x19
 9130 0136 03       		.uleb128 0x3
 9131 0137 0E       		.uleb128 0xe
 9132 0138 3A       		.uleb128 0x3a
 9133 0139 0B       		.uleb128 0xb
 9134 013a 3B       		.uleb128 0x3b
 9135 013b 05       		.uleb128 0x5
 9136 013c 27       		.uleb128 0x27
 9137 013d 19       		.uleb128 0x19
 9138 013e 20       		.uleb128 0x20
 9139 013f 0B       		.uleb128 0xb
 9140 0140 00       		.byte	0
 9141 0141 00       		.byte	0
 9142 0142 1B       		.uleb128 0x1b
 9143 0143 2E       		.uleb128 0x2e
 9144 0144 01       		.byte	0x1
 9145 0145 3F       		.uleb128 0x3f
 9146 0146 19       		.uleb128 0x19
 9147 0147 03       		.uleb128 0x3
 9148 0148 0E       		.uleb128 0xe
 9149 0149 3A       		.uleb128 0x3a
 9150 014a 0B       		.uleb128 0xb
 9151 014b 3B       		.uleb128 0x3b
 9152 014c 05       		.uleb128 0x5
 9153 014d 27       		.uleb128 0x27
 9154 014e 19       		.uleb128 0x19
 9155 014f 49       		.uleb128 0x49
 9156 0150 13       		.uleb128 0x13
 9157 0151 20       		.uleb128 0x20
 9158 0152 0B       		.uleb128 0xb
 9159 0153 01       		.uleb128 0x1
 9160 0154 13       		.uleb128 0x13
 9161 0155 00       		.byte	0
 9162 0156 00       		.byte	0
 9163 0157 1C       		.uleb128 0x1c
 9164 0158 2E       		.uleb128 0x2e
 9165 0159 01       		.byte	0x1
 9166 015a 03       		.uleb128 0x3
 9167 015b 0E       		.uleb128 0xe
 9168 015c 3A       		.uleb128 0x3a
 9169 015d 0B       		.uleb128 0xb
 9170 015e 3B       		.uleb128 0x3b
 9171 015f 0B       		.uleb128 0xb
 9172 0160 27       		.uleb128 0x27
ARM GAS  C:\Users\AHMED~1.ELE\AppData\Local\Temp\ccAhPyWN.s 			page 183


 9173 0161 19       		.uleb128 0x19
 9174 0162 49       		.uleb128 0x49
 9175 0163 13       		.uleb128 0x13
 9176 0164 11       		.uleb128 0x11
 9177 0165 01       		.uleb128 0x1
 9178 0166 12       		.uleb128 0x12
 9179 0167 06       		.uleb128 0x6
 9180 0168 40       		.uleb128 0x40
 9181 0169 18       		.uleb128 0x18
 9182 016a 9742     		.uleb128 0x2117
 9183 016c 19       		.uleb128 0x19
 9184 016d 01       		.uleb128 0x1
 9185 016e 13       		.uleb128 0x13
 9186 016f 00       		.byte	0
 9187 0170 00       		.byte	0
 9188 0171 1D       		.uleb128 0x1d
 9189 0172 898201   		.uleb128 0x4109
 9190 0175 01       		.byte	0x1
 9191 0176 11       		.uleb128 0x11
 9192 0177 01       		.uleb128 0x1
 9193 0178 31       		.uleb128 0x31
 9194 0179 13       		.uleb128 0x13
 9195 017a 00       		.byte	0
 9196 017b 00       		.byte	0
 9197 017c 1E       		.uleb128 0x1e
 9198 017d 8A8201   		.uleb128 0x410a
 9199 0180 00       		.byte	0
 9200 0181 02       		.uleb128 0x2
 9201 0182 18       		.uleb128 0x18
 9202 0183 9142     		.uleb128 0x2111
 9203 0185 18       		.uleb128 0x18
 9204 0186 00       		.byte	0
 9205 0187 00       		.byte	0
 9206 0188 1F       		.uleb128 0x1f
 9207 0189 2E       		.uleb128 0x2e
 9208 018a 01       		.byte	0x1
 9209 018b 03       		.uleb128 0x3
 9210 018c 0E       		.uleb128 0xe
 9211 018d 3A       		.uleb128 0x3a
 9212 018e 0B       		.uleb128 0xb
 9213 018f 3B       		.uleb128 0x3b
 9214 0190 0B       		.uleb128 0xb
 9215 0191 27       		.uleb128 0x27
 9216 0192 19       		.uleb128 0x19
 9217 0193 11       		.uleb128 0x11
 9218 0194 01       		.uleb128 0x1
 9219 0195 12       		.uleb128 0x12
 9220 0196 06       		.uleb128 0x6
 9221 0197 40       		.uleb128 0x40
 9222 0198 18       		.uleb128 0x18
 9223 0199 9742     		.uleb128 0x2117
 9224 019b 19       		.uleb128 0x19
 9225 019c 01       		.uleb128 0x1
 9226 019d 13       		.uleb128 0x13
 9227 019e 00       		.byte	0
 9228 019f 00       		.byte	0
 9229 01a0 20       		.uleb128 0x20
ARM GAS  C:\Users\AHMED~1.ELE\AppData\Local\Temp\ccAhPyWN.s 			page 184


 9230 01a1 898201   		.uleb128 0x4109
 9231 01a4 01       		.byte	0x1
 9232 01a5 11       		.uleb128 0x11
 9233 01a6 01       		.uleb128 0x1
 9234 01a7 31       		.uleb128 0x31
 9235 01a8 13       		.uleb128 0x13
 9236 01a9 01       		.uleb128 0x1
 9237 01aa 13       		.uleb128 0x13
 9238 01ab 00       		.byte	0
 9239 01ac 00       		.byte	0
 9240 01ad 21       		.uleb128 0x21
 9241 01ae 898201   		.uleb128 0x4109
 9242 01b1 01       		.byte	0x1
 9243 01b2 11       		.uleb128 0x11
 9244 01b3 01       		.uleb128 0x1
 9245 01b4 9542     		.uleb128 0x2115
 9246 01b6 19       		.uleb128 0x19
 9247 01b7 31       		.uleb128 0x31
 9248 01b8 13       		.uleb128 0x13
 9249 01b9 00       		.byte	0
 9250 01ba 00       		.byte	0
 9251 01bb 22       		.uleb128 0x22
 9252 01bc 2E       		.uleb128 0x2e
 9253 01bd 01       		.byte	0x1
 9254 01be 3F       		.uleb128 0x3f
 9255 01bf 19       		.uleb128 0x19
 9256 01c0 03       		.uleb128 0x3
 9257 01c1 0E       		.uleb128 0xe
 9258 01c2 3A       		.uleb128 0x3a
 9259 01c3 0B       		.uleb128 0xb
 9260 01c4 3B       		.uleb128 0x3b
 9261 01c5 0B       		.uleb128 0xb
 9262 01c6 27       		.uleb128 0x27
 9263 01c7 19       		.uleb128 0x19
 9264 01c8 49       		.uleb128 0x49
 9265 01c9 13       		.uleb128 0x13
 9266 01ca 11       		.uleb128 0x11
 9267 01cb 01       		.uleb128 0x1
 9268 01cc 12       		.uleb128 0x12
 9269 01cd 06       		.uleb128 0x6
 9270 01ce 40       		.uleb128 0x40
 9271 01cf 18       		.uleb128 0x18
 9272 01d0 9742     		.uleb128 0x2117
 9273 01d2 19       		.uleb128 0x19
 9274 01d3 01       		.uleb128 0x1
 9275 01d4 13       		.uleb128 0x13
 9276 01d5 00       		.byte	0
 9277 01d6 00       		.byte	0
 9278 01d7 23       		.uleb128 0x23
 9279 01d8 05       		.uleb128 0x5
 9280 01d9 00       		.byte	0
 9281 01da 03       		.uleb128 0x3
 9282 01db 0E       		.uleb128 0xe
 9283 01dc 3A       		.uleb128 0x3a
 9284 01dd 0B       		.uleb128 0xb
 9285 01de 3B       		.uleb128 0x3b
 9286 01df 0B       		.uleb128 0xb
ARM GAS  C:\Users\AHMED~1.ELE\AppData\Local\Temp\ccAhPyWN.s 			page 185


 9287 01e0 49       		.uleb128 0x49
 9288 01e1 13       		.uleb128 0x13
 9289 01e2 02       		.uleb128 0x2
 9290 01e3 17       		.uleb128 0x17
 9291 01e4 00       		.byte	0
 9292 01e5 00       		.byte	0
 9293 01e6 24       		.uleb128 0x24
 9294 01e7 05       		.uleb128 0x5
 9295 01e8 00       		.byte	0
 9296 01e9 03       		.uleb128 0x3
 9297 01ea 08       		.uleb128 0x8
 9298 01eb 3A       		.uleb128 0x3a
 9299 01ec 0B       		.uleb128 0xb
 9300 01ed 3B       		.uleb128 0x3b
 9301 01ee 0B       		.uleb128 0xb
 9302 01ef 49       		.uleb128 0x49
 9303 01f0 13       		.uleb128 0x13
 9304 01f1 02       		.uleb128 0x2
 9305 01f2 17       		.uleb128 0x17
 9306 01f3 00       		.byte	0
 9307 01f4 00       		.byte	0
 9308 01f5 25       		.uleb128 0x25
 9309 01f6 34       		.uleb128 0x34
 9310 01f7 00       		.byte	0
 9311 01f8 03       		.uleb128 0x3
 9312 01f9 0E       		.uleb128 0xe
 9313 01fa 3A       		.uleb128 0x3a
 9314 01fb 0B       		.uleb128 0xb
 9315 01fc 3B       		.uleb128 0x3b
 9316 01fd 0B       		.uleb128 0xb
 9317 01fe 49       		.uleb128 0x49
 9318 01ff 13       		.uleb128 0x13
 9319 0200 02       		.uleb128 0x2
 9320 0201 17       		.uleb128 0x17
 9321 0202 00       		.byte	0
 9322 0203 00       		.byte	0
 9323 0204 26       		.uleb128 0x26
 9324 0205 2E       		.uleb128 0x2e
 9325 0206 01       		.byte	0x1
 9326 0207 3F       		.uleb128 0x3f
 9327 0208 19       		.uleb128 0x19
 9328 0209 03       		.uleb128 0x3
 9329 020a 0E       		.uleb128 0xe
 9330 020b 3A       		.uleb128 0x3a
 9331 020c 0B       		.uleb128 0xb
 9332 020d 3B       		.uleb128 0x3b
 9333 020e 0B       		.uleb128 0xb
 9334 020f 27       		.uleb128 0x27
 9335 0210 19       		.uleb128 0x19
 9336 0211 11       		.uleb128 0x11
 9337 0212 01       		.uleb128 0x1
 9338 0213 12       		.uleb128 0x12
 9339 0214 06       		.uleb128 0x6
 9340 0215 40       		.uleb128 0x40
 9341 0216 18       		.uleb128 0x18
 9342 0217 9742     		.uleb128 0x2117
 9343 0219 19       		.uleb128 0x19
ARM GAS  C:\Users\AHMED~1.ELE\AppData\Local\Temp\ccAhPyWN.s 			page 186


 9344 021a 01       		.uleb128 0x1
 9345 021b 13       		.uleb128 0x13
 9346 021c 00       		.byte	0
 9347 021d 00       		.byte	0
 9348 021e 27       		.uleb128 0x27
 9349 021f 34       		.uleb128 0x34
 9350 0220 00       		.byte	0
 9351 0221 03       		.uleb128 0x3
 9352 0222 0E       		.uleb128 0xe
 9353 0223 3A       		.uleb128 0x3a
 9354 0224 0B       		.uleb128 0xb
 9355 0225 3B       		.uleb128 0x3b
 9356 0226 0B       		.uleb128 0xb
 9357 0227 49       		.uleb128 0x49
 9358 0228 13       		.uleb128 0x13
 9359 0229 02       		.uleb128 0x2
 9360 022a 18       		.uleb128 0x18
 9361 022b 00       		.byte	0
 9362 022c 00       		.byte	0
 9363 022d 28       		.uleb128 0x28
 9364 022e 34       		.uleb128 0x34
 9365 022f 00       		.byte	0
 9366 0230 03       		.uleb128 0x3
 9367 0231 08       		.uleb128 0x8
 9368 0232 3A       		.uleb128 0x3a
 9369 0233 0B       		.uleb128 0xb
 9370 0234 3B       		.uleb128 0x3b
 9371 0235 0B       		.uleb128 0xb
 9372 0236 49       		.uleb128 0x49
 9373 0237 13       		.uleb128 0x13
 9374 0238 02       		.uleb128 0x2
 9375 0239 17       		.uleb128 0x17
 9376 023a 00       		.byte	0
 9377 023b 00       		.byte	0
 9378 023c 29       		.uleb128 0x29
 9379 023d 898201   		.uleb128 0x4109
 9380 0240 00       		.byte	0
 9381 0241 11       		.uleb128 0x11
 9382 0242 01       		.uleb128 0x1
 9383 0243 31       		.uleb128 0x31
 9384 0244 13       		.uleb128 0x13
 9385 0245 00       		.byte	0
 9386 0246 00       		.byte	0
 9387 0247 2A       		.uleb128 0x2a
 9388 0248 2E       		.uleb128 0x2e
 9389 0249 01       		.byte	0x1
 9390 024a 31       		.uleb128 0x31
 9391 024b 13       		.uleb128 0x13
 9392 024c 11       		.uleb128 0x11
 9393 024d 01       		.uleb128 0x1
 9394 024e 12       		.uleb128 0x12
 9395 024f 06       		.uleb128 0x6
 9396 0250 40       		.uleb128 0x40
 9397 0251 18       		.uleb128 0x18
 9398 0252 9742     		.uleb128 0x2117
 9399 0254 19       		.uleb128 0x19
 9400 0255 01       		.uleb128 0x1
ARM GAS  C:\Users\AHMED~1.ELE\AppData\Local\Temp\ccAhPyWN.s 			page 187


 9401 0256 13       		.uleb128 0x13
 9402 0257 00       		.byte	0
 9403 0258 00       		.byte	0
 9404 0259 2B       		.uleb128 0x2b
 9405 025a 898201   		.uleb128 0x4109
 9406 025d 00       		.byte	0
 9407 025e 11       		.uleb128 0x11
 9408 025f 01       		.uleb128 0x1
 9409 0260 9542     		.uleb128 0x2115
 9410 0262 19       		.uleb128 0x19
 9411 0263 31       		.uleb128 0x31
 9412 0264 13       		.uleb128 0x13
 9413 0265 00       		.byte	0
 9414 0266 00       		.byte	0
 9415 0267 2C       		.uleb128 0x2c
 9416 0268 2E       		.uleb128 0x2e
 9417 0269 01       		.byte	0x1
 9418 026a 3F       		.uleb128 0x3f
 9419 026b 19       		.uleb128 0x19
 9420 026c 03       		.uleb128 0x3
 9421 026d 0E       		.uleb128 0xe
 9422 026e 3A       		.uleb128 0x3a
 9423 026f 0B       		.uleb128 0xb
 9424 0270 3B       		.uleb128 0x3b
 9425 0271 05       		.uleb128 0x5
 9426 0272 27       		.uleb128 0x27
 9427 0273 19       		.uleb128 0x19
 9428 0274 11       		.uleb128 0x11
 9429 0275 01       		.uleb128 0x1
 9430 0276 12       		.uleb128 0x12
 9431 0277 06       		.uleb128 0x6
 9432 0278 40       		.uleb128 0x40
 9433 0279 18       		.uleb128 0x18
 9434 027a 9742     		.uleb128 0x2117
 9435 027c 19       		.uleb128 0x19
 9436 027d 01       		.uleb128 0x1
 9437 027e 13       		.uleb128 0x13
 9438 027f 00       		.byte	0
 9439 0280 00       		.byte	0
 9440 0281 2D       		.uleb128 0x2d
 9441 0282 05       		.uleb128 0x5
 9442 0283 00       		.byte	0
 9443 0284 03       		.uleb128 0x3
 9444 0285 0E       		.uleb128 0xe
 9445 0286 3A       		.uleb128 0x3a
 9446 0287 0B       		.uleb128 0xb
 9447 0288 3B       		.uleb128 0x3b
 9448 0289 05       		.uleb128 0x5
 9449 028a 49       		.uleb128 0x49
 9450 028b 13       		.uleb128 0x13
 9451 028c 02       		.uleb128 0x2
 9452 028d 17       		.uleb128 0x17
 9453 028e 00       		.byte	0
 9454 028f 00       		.byte	0
 9455 0290 2E       		.uleb128 0x2e
 9456 0291 34       		.uleb128 0x34
 9457 0292 00       		.byte	0
ARM GAS  C:\Users\AHMED~1.ELE\AppData\Local\Temp\ccAhPyWN.s 			page 188


 9458 0293 03       		.uleb128 0x3
 9459 0294 0E       		.uleb128 0xe
 9460 0295 3A       		.uleb128 0x3a
 9461 0296 0B       		.uleb128 0xb
 9462 0297 3B       		.uleb128 0x3b
 9463 0298 05       		.uleb128 0x5
 9464 0299 49       		.uleb128 0x49
 9465 029a 13       		.uleb128 0x13
 9466 029b 02       		.uleb128 0x2
 9467 029c 18       		.uleb128 0x18
 9468 029d 00       		.byte	0
 9469 029e 00       		.byte	0
 9470 029f 2F       		.uleb128 0x2f
 9471 02a0 34       		.uleb128 0x34
 9472 02a1 00       		.byte	0
 9473 02a2 03       		.uleb128 0x3
 9474 02a3 0E       		.uleb128 0xe
 9475 02a4 3A       		.uleb128 0x3a
 9476 02a5 0B       		.uleb128 0xb
 9477 02a6 3B       		.uleb128 0x3b
 9478 02a7 05       		.uleb128 0x5
 9479 02a8 49       		.uleb128 0x49
 9480 02a9 13       		.uleb128 0x13
 9481 02aa 02       		.uleb128 0x2
 9482 02ab 17       		.uleb128 0x17
 9483 02ac 00       		.byte	0
 9484 02ad 00       		.byte	0
 9485 02ae 30       		.uleb128 0x30
 9486 02af 34       		.uleb128 0x34
 9487 02b0 00       		.byte	0
 9488 02b1 03       		.uleb128 0x3
 9489 02b2 08       		.uleb128 0x8
 9490 02b3 3A       		.uleb128 0x3a
 9491 02b4 0B       		.uleb128 0xb
 9492 02b5 3B       		.uleb128 0x3b
 9493 02b6 05       		.uleb128 0x5
 9494 02b7 49       		.uleb128 0x49
 9495 02b8 13       		.uleb128 0x13
 9496 02b9 02       		.uleb128 0x2
 9497 02ba 17       		.uleb128 0x17
 9498 02bb 00       		.byte	0
 9499 02bc 00       		.byte	0
 9500 02bd 31       		.uleb128 0x31
 9501 02be 05       		.uleb128 0x5
 9502 02bf 00       		.byte	0
 9503 02c0 31       		.uleb128 0x31
 9504 02c1 13       		.uleb128 0x13
 9505 02c2 02       		.uleb128 0x2
 9506 02c3 17       		.uleb128 0x17
 9507 02c4 00       		.byte	0
 9508 02c5 00       		.byte	0
 9509 02c6 32       		.uleb128 0x32
 9510 02c7 0B       		.uleb128 0xb
 9511 02c8 01       		.byte	0x1
 9512 02c9 11       		.uleb128 0x11
 9513 02ca 01       		.uleb128 0x1
 9514 02cb 12       		.uleb128 0x12
ARM GAS  C:\Users\AHMED~1.ELE\AppData\Local\Temp\ccAhPyWN.s 			page 189


 9515 02cc 06       		.uleb128 0x6
 9516 02cd 01       		.uleb128 0x1
 9517 02ce 13       		.uleb128 0x13
 9518 02cf 00       		.byte	0
 9519 02d0 00       		.byte	0
 9520 02d1 33       		.uleb128 0x33
 9521 02d2 05       		.uleb128 0x5
 9522 02d3 00       		.byte	0
 9523 02d4 31       		.uleb128 0x31
 9524 02d5 13       		.uleb128 0x13
 9525 02d6 00       		.byte	0
 9526 02d7 00       		.byte	0
 9527 02d8 34       		.uleb128 0x34
 9528 02d9 2E       		.uleb128 0x2e
 9529 02da 01       		.byte	0x1
 9530 02db 3F       		.uleb128 0x3f
 9531 02dc 19       		.uleb128 0x19
 9532 02dd 03       		.uleb128 0x3
 9533 02de 0E       		.uleb128 0xe
 9534 02df 3A       		.uleb128 0x3a
 9535 02e0 0B       		.uleb128 0xb
 9536 02e1 3B       		.uleb128 0x3b
 9537 02e2 05       		.uleb128 0x5
 9538 02e3 27       		.uleb128 0x27
 9539 02e4 19       		.uleb128 0x19
 9540 02e5 49       		.uleb128 0x49
 9541 02e6 13       		.uleb128 0x13
 9542 02e7 11       		.uleb128 0x11
 9543 02e8 01       		.uleb128 0x1
 9544 02e9 12       		.uleb128 0x12
 9545 02ea 06       		.uleb128 0x6
 9546 02eb 40       		.uleb128 0x40
 9547 02ec 18       		.uleb128 0x18
 9548 02ed 9642     		.uleb128 0x2116
 9549 02ef 19       		.uleb128 0x19
 9550 02f0 01       		.uleb128 0x1
 9551 02f1 13       		.uleb128 0x13
 9552 02f2 00       		.byte	0
 9553 02f3 00       		.byte	0
 9554 02f4 35       		.uleb128 0x35
 9555 02f5 1D       		.uleb128 0x1d
 9556 02f6 01       		.byte	0x1
 9557 02f7 31       		.uleb128 0x31
 9558 02f8 13       		.uleb128 0x13
 9559 02f9 52       		.uleb128 0x52
 9560 02fa 01       		.uleb128 0x1
 9561 02fb 55       		.uleb128 0x55
 9562 02fc 17       		.uleb128 0x17
 9563 02fd 58       		.uleb128 0x58
 9564 02fe 0B       		.uleb128 0xb
 9565 02ff 59       		.uleb128 0x59
 9566 0300 05       		.uleb128 0x5
 9567 0301 01       		.uleb128 0x1
 9568 0302 13       		.uleb128 0x13
 9569 0303 00       		.byte	0
 9570 0304 00       		.byte	0
 9571 0305 36       		.uleb128 0x36
ARM GAS  C:\Users\AHMED~1.ELE\AppData\Local\Temp\ccAhPyWN.s 			page 190


 9572 0306 05       		.uleb128 0x5
 9573 0307 00       		.byte	0
 9574 0308 31       		.uleb128 0x31
 9575 0309 13       		.uleb128 0x13
 9576 030a 02       		.uleb128 0x2
 9577 030b 18       		.uleb128 0x18
 9578 030c 00       		.byte	0
 9579 030d 00       		.byte	0
 9580 030e 37       		.uleb128 0x37
 9581 030f 0B       		.uleb128 0xb
 9582 0310 01       		.byte	0x1
 9583 0311 55       		.uleb128 0x55
 9584 0312 17       		.uleb128 0x17
 9585 0313 00       		.byte	0
 9586 0314 00       		.byte	0
 9587 0315 38       		.uleb128 0x38
 9588 0316 34       		.uleb128 0x34
 9589 0317 00       		.byte	0
 9590 0318 31       		.uleb128 0x31
 9591 0319 13       		.uleb128 0x13
 9592 031a 02       		.uleb128 0x2
 9593 031b 17       		.uleb128 0x17
 9594 031c 00       		.byte	0
 9595 031d 00       		.byte	0
 9596 031e 39       		.uleb128 0x39
 9597 031f 34       		.uleb128 0x34
 9598 0320 00       		.byte	0
 9599 0321 31       		.uleb128 0x31
 9600 0322 13       		.uleb128 0x13
 9601 0323 02       		.uleb128 0x2
 9602 0324 18       		.uleb128 0x18
 9603 0325 00       		.byte	0
 9604 0326 00       		.byte	0
 9605 0327 3A       		.uleb128 0x3a
 9606 0328 2E       		.uleb128 0x2e
 9607 0329 01       		.byte	0x1
 9608 032a 3F       		.uleb128 0x3f
 9609 032b 19       		.uleb128 0x19
 9610 032c 03       		.uleb128 0x3
 9611 032d 0E       		.uleb128 0xe
 9612 032e 3A       		.uleb128 0x3a
 9613 032f 0B       		.uleb128 0xb
 9614 0330 3B       		.uleb128 0x3b
 9615 0331 05       		.uleb128 0x5
 9616 0332 27       		.uleb128 0x27
 9617 0333 19       		.uleb128 0x19
 9618 0334 49       		.uleb128 0x49
 9619 0335 13       		.uleb128 0x13
 9620 0336 11       		.uleb128 0x11
 9621 0337 01       		.uleb128 0x1
 9622 0338 12       		.uleb128 0x12
 9623 0339 06       		.uleb128 0x6
 9624 033a 40       		.uleb128 0x40
 9625 033b 18       		.uleb128 0x18
 9626 033c 9742     		.uleb128 0x2117
 9627 033e 19       		.uleb128 0x19
 9628 033f 01       		.uleb128 0x1
ARM GAS  C:\Users\AHMED~1.ELE\AppData\Local\Temp\ccAhPyWN.s 			page 191


 9629 0340 13       		.uleb128 0x13
 9630 0341 00       		.byte	0
 9631 0342 00       		.byte	0
 9632 0343 3B       		.uleb128 0x3b
 9633 0344 34       		.uleb128 0x34
 9634 0345 00       		.byte	0
 9635 0346 03       		.uleb128 0x3
 9636 0347 0E       		.uleb128 0xe
 9637 0348 3A       		.uleb128 0x3a
 9638 0349 0B       		.uleb128 0xb
 9639 034a 3B       		.uleb128 0x3b
 9640 034b 0B       		.uleb128 0xb
 9641 034c 49       		.uleb128 0x49
 9642 034d 13       		.uleb128 0x13
 9643 034e 3F       		.uleb128 0x3f
 9644 034f 19       		.uleb128 0x19
 9645 0350 02       		.uleb128 0x2
 9646 0351 18       		.uleb128 0x18
 9647 0352 00       		.byte	0
 9648 0353 00       		.byte	0
 9649 0354 3C       		.uleb128 0x3c
 9650 0355 2E       		.uleb128 0x2e
 9651 0356 01       		.byte	0x1
 9652 0357 3F       		.uleb128 0x3f
 9653 0358 19       		.uleb128 0x19
 9654 0359 03       		.uleb128 0x3
 9655 035a 0E       		.uleb128 0xe
 9656 035b 3A       		.uleb128 0x3a
 9657 035c 0B       		.uleb128 0xb
 9658 035d 3B       		.uleb128 0x3b
 9659 035e 0B       		.uleb128 0xb
 9660 035f 27       		.uleb128 0x27
 9661 0360 19       		.uleb128 0x19
 9662 0361 49       		.uleb128 0x49
 9663 0362 13       		.uleb128 0x13
 9664 0363 3C       		.uleb128 0x3c
 9665 0364 19       		.uleb128 0x19
 9666 0365 01       		.uleb128 0x1
 9667 0366 13       		.uleb128 0x13
 9668 0367 00       		.byte	0
 9669 0368 00       		.byte	0
 9670 0369 3D       		.uleb128 0x3d
 9671 036a 05       		.uleb128 0x5
 9672 036b 00       		.byte	0
 9673 036c 49       		.uleb128 0x49
 9674 036d 13       		.uleb128 0x13
 9675 036e 00       		.byte	0
 9676 036f 00       		.byte	0
 9677 0370 3E       		.uleb128 0x3e
 9678 0371 2E       		.uleb128 0x2e
 9679 0372 01       		.byte	0x1
 9680 0373 3F       		.uleb128 0x3f
 9681 0374 19       		.uleb128 0x19
 9682 0375 03       		.uleb128 0x3
 9683 0376 0E       		.uleb128 0xe
 9684 0377 3A       		.uleb128 0x3a
 9685 0378 0B       		.uleb128 0xb
ARM GAS  C:\Users\AHMED~1.ELE\AppData\Local\Temp\ccAhPyWN.s 			page 192


 9686 0379 3B       		.uleb128 0x3b
 9687 037a 0B       		.uleb128 0xb
 9688 037b 27       		.uleb128 0x27
 9689 037c 19       		.uleb128 0x19
 9690 037d 3C       		.uleb128 0x3c
 9691 037e 19       		.uleb128 0x19
 9692 037f 01       		.uleb128 0x1
 9693 0380 13       		.uleb128 0x13
 9694 0381 00       		.byte	0
 9695 0382 00       		.byte	0
 9696 0383 3F       		.uleb128 0x3f
 9697 0384 2E       		.uleb128 0x2e
 9698 0385 01       		.byte	0x1
 9699 0386 3F       		.uleb128 0x3f
 9700 0387 19       		.uleb128 0x19
 9701 0388 03       		.uleb128 0x3
 9702 0389 0E       		.uleb128 0xe
 9703 038a 27       		.uleb128 0x27
 9704 038b 19       		.uleb128 0x19
 9705 038c 49       		.uleb128 0x49
 9706 038d 13       		.uleb128 0x13
 9707 038e 34       		.uleb128 0x34
 9708 038f 19       		.uleb128 0x19
 9709 0390 3C       		.uleb128 0x3c
 9710 0391 19       		.uleb128 0x19
 9711 0392 01       		.uleb128 0x1
 9712 0393 13       		.uleb128 0x13
 9713 0394 00       		.byte	0
 9714 0395 00       		.byte	0
 9715 0396 40       		.uleb128 0x40
 9716 0397 18       		.uleb128 0x18
 9717 0398 00       		.byte	0
 9718 0399 00       		.byte	0
 9719 039a 00       		.byte	0
 9720 039b 41       		.uleb128 0x41
 9721 039c 2E       		.uleb128 0x2e
 9722 039d 01       		.byte	0x1
 9723 039e 3F       		.uleb128 0x3f
 9724 039f 19       		.uleb128 0x19
 9725 03a0 03       		.uleb128 0x3
 9726 03a1 0E       		.uleb128 0xe
 9727 03a2 3A       		.uleb128 0x3a
 9728 03a3 0B       		.uleb128 0xb
 9729 03a4 3B       		.uleb128 0x3b
 9730 03a5 0B       		.uleb128 0xb
 9731 03a6 6E       		.uleb128 0x6e
 9732 03a7 0E       		.uleb128 0xe
 9733 03a8 27       		.uleb128 0x27
 9734 03a9 19       		.uleb128 0x19
 9735 03aa 49       		.uleb128 0x49
 9736 03ab 13       		.uleb128 0x13
 9737 03ac 3C       		.uleb128 0x3c
 9738 03ad 19       		.uleb128 0x19
 9739 03ae 01       		.uleb128 0x1
 9740 03af 13       		.uleb128 0x13
 9741 03b0 00       		.byte	0
 9742 03b1 00       		.byte	0
ARM GAS  C:\Users\AHMED~1.ELE\AppData\Local\Temp\ccAhPyWN.s 			page 193


 9743 03b2 42       		.uleb128 0x42
 9744 03b3 2E       		.uleb128 0x2e
 9745 03b4 01       		.byte	0x1
 9746 03b5 3F       		.uleb128 0x3f
 9747 03b6 19       		.uleb128 0x19
 9748 03b7 03       		.uleb128 0x3
 9749 03b8 0E       		.uleb128 0xe
 9750 03b9 3A       		.uleb128 0x3a
 9751 03ba 0B       		.uleb128 0xb
 9752 03bb 3B       		.uleb128 0x3b
 9753 03bc 0B       		.uleb128 0xb
 9754 03bd 27       		.uleb128 0x27
 9755 03be 19       		.uleb128 0x19
 9756 03bf 3C       		.uleb128 0x3c
 9757 03c0 19       		.uleb128 0x19
 9758 03c1 00       		.byte	0
 9759 03c2 00       		.byte	0
 9760 03c3 00       		.byte	0
 9761              		.section	.debug_loc,"",%progbits
 9762              	.Ldebug_loc0:
 9763              	.LLST0:
 9764 0000 00000000 		.4byte	.LVL4
 9765 0004 02000000 		.4byte	.LVL5
 9766 0008 0100     		.2byte	0x1
 9767 000a 50       		.byte	0x50
 9768 000b 02000000 		.4byte	.LVL5
 9769 000f 10000000 		.4byte	.LFE0
 9770 0013 0400     		.2byte	0x4
 9771 0015 F3       		.byte	0xf3
 9772 0016 01       		.uleb128 0x1
 9773 0017 50       		.byte	0x50
 9774 0018 9F       		.byte	0x9f
 9775 0019 00000000 		.4byte	0
 9776 001d 00000000 		.4byte	0
 9777              	.LLST1:
 9778 0021 00000000 		.4byte	.LVL6
 9779 0025 0D000000 		.4byte	.LVL7-1
 9780 0029 0100     		.2byte	0x1
 9781 002b 50       		.byte	0x50
 9782 002c 0D000000 		.4byte	.LVL7-1
 9783 0030 0E000000 		.4byte	.LVL7
 9784 0034 0400     		.2byte	0x4
 9785 0036 F3       		.byte	0xf3
 9786 0037 01       		.uleb128 0x1
 9787 0038 50       		.byte	0x50
 9788 0039 9F       		.byte	0x9f
 9789 003a 0E000000 		.4byte	.LVL7
 9790 003e 10000000 		.4byte	.LVL8
 9791 0042 0100     		.2byte	0x1
 9792 0044 50       		.byte	0x50
 9793 0045 10000000 		.4byte	.LVL8
 9794 0049 12000000 		.4byte	.LFE1
 9795 004d 0400     		.2byte	0x4
 9796 004f F3       		.byte	0xf3
 9797 0050 01       		.uleb128 0x1
 9798 0051 50       		.byte	0x50
 9799 0052 9F       		.byte	0x9f
ARM GAS  C:\Users\AHMED~1.ELE\AppData\Local\Temp\ccAhPyWN.s 			page 194


 9800 0053 00000000 		.4byte	0
 9801 0057 00000000 		.4byte	0
 9802              	.LLST2:
 9803 005b 00000000 		.4byte	.LVL9
 9804 005f 02000000 		.4byte	.LVL10
 9805 0063 0100     		.2byte	0x1
 9806 0065 50       		.byte	0x50
 9807 0066 02000000 		.4byte	.LVL10
 9808 006a 10000000 		.4byte	.LFE2
 9809 006e 0400     		.2byte	0x4
 9810 0070 F3       		.byte	0xf3
 9811 0071 01       		.uleb128 0x1
 9812 0072 50       		.byte	0x50
 9813 0073 9F       		.byte	0x9f
 9814 0074 00000000 		.4byte	0
 9815 0078 00000000 		.4byte	0
 9816              	.LLST3:
 9817 007c 00000000 		.4byte	.LVL11
 9818 0080 08000000 		.4byte	.LVL12
 9819 0084 0100     		.2byte	0x1
 9820 0086 50       		.byte	0x50
 9821 0087 08000000 		.4byte	.LVL12
 9822 008b 0A000000 		.4byte	.LVL13
 9823 008f 0400     		.2byte	0x4
 9824 0091 F3       		.byte	0xf3
 9825 0092 01       		.uleb128 0x1
 9826 0093 50       		.byte	0x50
 9827 0094 9F       		.byte	0x9f
 9828 0095 0A000000 		.4byte	.LVL13
 9829 0099 10000000 		.4byte	.LVL14
 9830 009d 0100     		.2byte	0x1
 9831 009f 50       		.byte	0x50
 9832 00a0 10000000 		.4byte	.LVL14
 9833 00a4 12000000 		.4byte	.LVL15
 9834 00a8 0400     		.2byte	0x4
 9835 00aa F3       		.byte	0xf3
 9836 00ab 01       		.uleb128 0x1
 9837 00ac 50       		.byte	0x50
 9838 00ad 9F       		.byte	0x9f
 9839 00ae 12000000 		.4byte	.LVL15
 9840 00b2 18000000 		.4byte	.LVL16
 9841 00b6 0100     		.2byte	0x1
 9842 00b8 50       		.byte	0x50
 9843 00b9 18000000 		.4byte	.LVL16
 9844 00bd 1B000000 		.4byte	.LVL17-1
 9845 00c1 0300     		.2byte	0x3
 9846 00c3 70       		.byte	0x70
 9847 00c4 7F       		.sleb128 -1
 9848 00c5 9F       		.byte	0x9f
 9849 00c6 1B000000 		.4byte	.LVL17-1
 9850 00ca 1C000000 		.4byte	.LVL17
 9851 00ce 0400     		.2byte	0x4
 9852 00d0 F3       		.byte	0xf3
 9853 00d1 01       		.uleb128 0x1
 9854 00d2 50       		.byte	0x50
 9855 00d3 9F       		.byte	0x9f
 9856 00d4 1C000000 		.4byte	.LVL17
ARM GAS  C:\Users\AHMED~1.ELE\AppData\Local\Temp\ccAhPyWN.s 			page 195


 9857 00d8 20000000 		.4byte	.LVL18
 9858 00dc 0100     		.2byte	0x1
 9859 00de 50       		.byte	0x50
 9860 00df 20000000 		.4byte	.LVL18
 9861 00e3 22000000 		.4byte	.LFE3
 9862 00e7 0400     		.2byte	0x4
 9863 00e9 F3       		.byte	0xf3
 9864 00ea 01       		.uleb128 0x1
 9865 00eb 50       		.byte	0x50
 9866 00ec 9F       		.byte	0x9f
 9867 00ed 00000000 		.4byte	0
 9868 00f1 00000000 		.4byte	0
 9869              	.LLST4:
 9870 00f5 00000000 		.4byte	.LVL19
 9871 00f9 0C000000 		.4byte	.LVL20
 9872 00fd 0100     		.2byte	0x1
 9873 00ff 50       		.byte	0x50
 9874 0100 0C000000 		.4byte	.LVL20
 9875 0104 50000000 		.4byte	.LFE4
 9876 0108 0100     		.2byte	0x1
 9877 010a 57       		.byte	0x57
 9878 010b 00000000 		.4byte	0
 9879 010f 00000000 		.4byte	0
 9880              	.LLST5:
 9881 0113 00000000 		.4byte	.LVL19
 9882 0117 0C000000 		.4byte	.LVL20
 9883 011b 0100     		.2byte	0x1
 9884 011d 51       		.byte	0x51
 9885 011e 0C000000 		.4byte	.LVL20
 9886 0122 2A000000 		.4byte	.LVL27
 9887 0126 0100     		.2byte	0x1
 9888 0128 54       		.byte	0x54
 9889 0129 2A000000 		.4byte	.LVL27
 9890 012d 39000000 		.4byte	.LVL30-1
 9891 0131 0100     		.2byte	0x1
 9892 0133 51       		.byte	0x51
 9893 0134 3E000000 		.4byte	.LVL32
 9894 0138 42000000 		.4byte	.LVL34
 9895 013c 0100     		.2byte	0x1
 9896 013e 51       		.byte	0x51
 9897 013f 42000000 		.4byte	.LVL34
 9898 0143 44000000 		.4byte	.LVL35
 9899 0147 0100     		.2byte	0x1
 9900 0149 54       		.byte	0x54
 9901 014a 44000000 		.4byte	.LVL35
 9902 014e 48000000 		.4byte	.LVL37
 9903 0152 0100     		.2byte	0x1
 9904 0154 51       		.byte	0x51
 9905 0155 48000000 		.4byte	.LVL37
 9906 0159 4A000000 		.4byte	.LVL38
 9907 015d 0100     		.2byte	0x1
 9908 015f 54       		.byte	0x54
 9909 0160 00000000 		.4byte	0
 9910 0164 00000000 		.4byte	0
 9911              	.LLST6:
 9912 0168 00000000 		.4byte	.LVL19
 9913 016c 0C000000 		.4byte	.LVL20
ARM GAS  C:\Users\AHMED~1.ELE\AppData\Local\Temp\ccAhPyWN.s 			page 196


 9914 0170 0100     		.2byte	0x1
 9915 0172 52       		.byte	0x52
 9916 0173 0C000000 		.4byte	.LVL20
 9917 0177 50000000 		.4byte	.LFE4
 9918 017b 0400     		.2byte	0x4
 9919 017d F3       		.byte	0xf3
 9920 017e 01       		.uleb128 0x1
 9921 017f 52       		.byte	0x52
 9922 0180 9F       		.byte	0x9f
 9923 0181 00000000 		.4byte	0
 9924 0185 00000000 		.4byte	0
 9925              	.LLST7:
 9926 0189 12000000 		.4byte	.LVL21
 9927 018d 20000000 		.4byte	.LVL25
 9928 0191 0100     		.2byte	0x1
 9929 0193 50       		.byte	0x50
 9930 0194 48000000 		.4byte	.LVL37
 9931 0198 4A000000 		.4byte	.LVL38
 9932 019c 0100     		.2byte	0x1
 9933 019e 50       		.byte	0x50
 9934 019f 00000000 		.4byte	0
 9935 01a3 00000000 		.4byte	0
 9936              	.LLST8:
 9937 01a7 2C000000 		.4byte	.LVL28
 9938 01ab 36000000 		.4byte	.LVL29
 9939 01af 0100     		.2byte	0x1
 9940 01b1 52       		.byte	0x52
 9941 01b2 36000000 		.4byte	.LVL29
 9942 01b6 39000000 		.4byte	.LVL30-1
 9943 01ba 0300     		.2byte	0x3
 9944 01bc 72       		.byte	0x72
 9945 01bd 7F       		.sleb128 -1
 9946 01be 9F       		.byte	0x9f
 9947 01bf 3E000000 		.4byte	.LVL32
 9948 01c3 40000000 		.4byte	.LVL33
 9949 01c7 0100     		.2byte	0x1
 9950 01c9 52       		.byte	0x52
 9951 01ca 40000000 		.4byte	.LVL33
 9952 01ce 44000000 		.4byte	.LVL35
 9953 01d2 0300     		.2byte	0x3
 9954 01d4 72       		.byte	0x72
 9955 01d5 7F       		.sleb128 -1
 9956 01d6 9F       		.byte	0x9f
 9957 01d7 44000000 		.4byte	.LVL35
 9958 01db 48000000 		.4byte	.LVL37
 9959 01df 0100     		.2byte	0x1
 9960 01e1 52       		.byte	0x52
 9961 01e2 00000000 		.4byte	0
 9962 01e6 00000000 		.4byte	0
 9963              	.LLST9:
 9964 01ea 00000000 		.4byte	.LVL19
 9965 01ee 0C000000 		.4byte	.LVL20
 9966 01f2 0300     		.2byte	0x3
 9967 01f4 08       		.byte	0x8
 9968 01f5 64       		.byte	0x64
 9969 01f6 9F       		.byte	0x9f
 9970 01f7 0C000000 		.4byte	.LVL20
ARM GAS  C:\Users\AHMED~1.ELE\AppData\Local\Temp\ccAhPyWN.s 			page 197


 9971 01fb 16000000 		.4byte	.LVL22
 9972 01ff 0300     		.2byte	0x3
 9973 0201 75       		.byte	0x75
 9974 0202 7F       		.sleb128 -1
 9975 0203 9F       		.byte	0x9f
 9976 0204 16000000 		.4byte	.LVL22
 9977 0208 18000000 		.4byte	.LVL23
 9978 020c 0300     		.2byte	0x3
 9979 020e 75       		.byte	0x75
 9980 020f 7E       		.sleb128 -2
 9981 0210 9F       		.byte	0x9f
 9982 0211 1E000000 		.4byte	.LVL24
 9983 0215 3C000000 		.4byte	.LVL31
 9984 0219 0300     		.2byte	0x3
 9985 021b 75       		.byte	0x75
 9986 021c 7E       		.sleb128 -2
 9987 021d 9F       		.byte	0x9f
 9988 021e 3E000000 		.4byte	.LVL32
 9989 0222 46000000 		.4byte	.LVL36
 9990 0226 0300     		.2byte	0x3
 9991 0228 75       		.byte	0x75
 9992 0229 7E       		.sleb128 -2
 9993 022a 9F       		.byte	0x9f
 9994 022b 48000000 		.4byte	.LVL37
 9995 022f 4A000000 		.4byte	.LVL38
 9996 0233 0300     		.2byte	0x3
 9997 0235 75       		.byte	0x75
 9998 0236 7F       		.sleb128 -1
 9999 0237 9F       		.byte	0x9f
 10000 0238 00000000 		.4byte	0
 10001 023c 00000000 		.4byte	0
 10002              	.LLST10:
 10003 0240 00000000 		.4byte	.LVL39
 10004 0244 10000000 		.4byte	.LVL40
 10005 0248 0100     		.2byte	0x1
 10006 024a 50       		.byte	0x50
 10007 024b 10000000 		.4byte	.LVL40
 10008 024f 6C000000 		.4byte	.LFE5
 10009 0253 0100     		.2byte	0x1
 10010 0255 55       		.byte	0x55
 10011 0256 00000000 		.4byte	0
 10012 025a 00000000 		.4byte	0
 10013              	.LLST11:
 10014 025e 00000000 		.4byte	.LVL39
 10015 0262 15000000 		.4byte	.LVL41-1
 10016 0266 0100     		.2byte	0x1
 10017 0268 51       		.byte	0x51
 10018 0269 15000000 		.4byte	.LVL41-1
 10019 026d 20000000 		.4byte	.LVL45
 10020 0271 0400     		.2byte	0x4
 10021 0273 F3       		.byte	0xf3
 10022 0274 01       		.uleb128 0x1
 10023 0275 51       		.byte	0x51
 10024 0276 9F       		.byte	0x9f
 10025 0277 20000000 		.4byte	.LVL45
 10026 027b 23000000 		.4byte	.LVL46-1
 10027 027f 0100     		.2byte	0x1
ARM GAS  C:\Users\AHMED~1.ELE\AppData\Local\Temp\ccAhPyWN.s 			page 198


 10028 0281 51       		.byte	0x51
 10029 0282 23000000 		.4byte	.LVL46-1
 10030 0286 6C000000 		.4byte	.LFE5
 10031 028a 0400     		.2byte	0x4
 10032 028c F3       		.byte	0xf3
 10033 028d 01       		.uleb128 0x1
 10034 028e 51       		.byte	0x51
 10035 028f 9F       		.byte	0x9f
 10036 0290 00000000 		.4byte	0
 10037 0294 00000000 		.4byte	0
 10038              	.LLST12:
 10039 0298 24000000 		.4byte	.LVL46
 10040 029c 2B000000 		.4byte	.LVL47-1
 10041 02a0 0100     		.2byte	0x1
 10042 02a2 50       		.byte	0x50
 10043 02a3 00000000 		.4byte	0
 10044 02a7 00000000 		.4byte	0
 10045              	.LLST13:
 10046 02ab 18000000 		.4byte	.LVL42
 10047 02af 1A000000 		.4byte	.LVL43
 10048 02b3 0100     		.2byte	0x1
 10049 02b5 50       		.byte	0x50
 10050 02b6 1A000000 		.4byte	.LVL43
 10051 02ba 1D000000 		.4byte	.LVL44-1
 10052 02be 0100     		.2byte	0x1
 10053 02c0 51       		.byte	0x51
 10054 02c1 00000000 		.4byte	0
 10055 02c5 00000000 		.4byte	0
 10056              	.LLST14:
 10057 02c9 3C000000 		.4byte	.LVL49
 10058 02cd 46000000 		.4byte	.LVL50
 10059 02d1 0100     		.2byte	0x1
 10060 02d3 50       		.byte	0x50
 10061 02d4 00000000 		.4byte	0
 10062 02d8 00000000 		.4byte	0
 10063              	.LLST15:
 10064 02dc 00000000 		.4byte	.LVL62
 10065 02e0 06000000 		.4byte	.LVL63
 10066 02e4 0100     		.2byte	0x1
 10067 02e6 50       		.byte	0x50
 10068 02e7 06000000 		.4byte	.LVL63
 10069 02eb 10000000 		.4byte	.LFE10
 10070 02ef 0400     		.2byte	0x4
 10071 02f1 F3       		.byte	0xf3
 10072 02f2 01       		.uleb128 0x1
 10073 02f3 50       		.byte	0x50
 10074 02f4 9F       		.byte	0x9f
 10075 02f5 00000000 		.4byte	0
 10076 02f9 00000000 		.4byte	0
 10077              	.LLST16:
 10078 02fd 00000000 		.4byte	.LVL71
 10079 0301 1E000000 		.4byte	.LVL74
 10080 0305 0100     		.2byte	0x1
 10081 0307 50       		.byte	0x50
 10082 0308 1E000000 		.4byte	.LVL74
 10083 030c 29000000 		.4byte	.LVL76-1
 10084 0310 0500     		.2byte	0x5
ARM GAS  C:\Users\AHMED~1.ELE\AppData\Local\Temp\ccAhPyWN.s 			page 199


 10085 0312 77       		.byte	0x77
 10086 0313 00       		.sleb128 0
 10087 0314 75       		.byte	0x75
 10088 0315 00       		.sleb128 0
 10089 0316 22       		.byte	0x22
 10090 0317 29000000 		.4byte	.LVL76-1
 10091 031b 78000000 		.4byte	.LFE13
 10092 031f 0400     		.2byte	0x4
 10093 0321 F3       		.byte	0xf3
 10094 0322 01       		.uleb128 0x1
 10095 0323 50       		.byte	0x50
 10096 0324 9F       		.byte	0x9f
 10097 0325 00000000 		.4byte	0
 10098 0329 00000000 		.4byte	0
 10099              	.LLST17:
 10100 032d 00000000 		.4byte	.LVL71
 10101 0331 1A000000 		.4byte	.LVL73
 10102 0335 0100     		.2byte	0x1
 10103 0337 51       		.byte	0x51
 10104 0338 1A000000 		.4byte	.LVL73
 10105 033c 70000000 		.4byte	.LVL79
 10106 0340 0100     		.2byte	0x1
 10107 0342 59       		.byte	0x59
 10108 0343 70000000 		.4byte	.LVL79
 10109 0347 78000000 		.4byte	.LFE13
 10110 034b 0400     		.2byte	0x4
 10111 034d F3       		.byte	0xf3
 10112 034e 01       		.uleb128 0x1
 10113 034f 51       		.byte	0x51
 10114 0350 9F       		.byte	0x9f
 10115 0351 00000000 		.4byte	0
 10116 0355 00000000 		.4byte	0
 10117              	.LLST18:
 10118 0359 00000000 		.4byte	.LVL71
 10119 035d 26000000 		.4byte	.LVL75
 10120 0361 0100     		.2byte	0x1
 10121 0363 52       		.byte	0x52
 10122 0364 26000000 		.4byte	.LVL75
 10123 0368 29000000 		.4byte	.LVL76-1
 10124 036c 0200     		.2byte	0x2
 10125 036e 71       		.byte	0x71
 10126 036f 00       		.sleb128 0
 10127 0370 29000000 		.4byte	.LVL76-1
 10128 0374 70000000 		.4byte	.LVL79
 10129 0378 0200     		.2byte	0x2
 10130 037a 91       		.byte	0x91
 10131 037b 5E       		.sleb128 -34
 10132 037c 70000000 		.4byte	.LVL79
 10133 0380 78000000 		.4byte	.LFE13
 10134 0384 0200     		.2byte	0x2
 10135 0386 7D       		.byte	0x7d
 10136 0387 5E       		.sleb128 -34
 10137 0388 00000000 		.4byte	0
 10138 038c 00000000 		.4byte	0
 10139              	.LLST19:
 10140 0390 0E000000 		.4byte	.LVL72
 10141 0394 70000000 		.4byte	.LVL79
ARM GAS  C:\Users\AHMED~1.ELE\AppData\Local\Temp\ccAhPyWN.s 			page 200


 10142 0398 0900     		.2byte	0x9
 10143 039a 74       		.byte	0x74
 10144 039b 00       		.sleb128 0
 10145 039c 08       		.byte	0x8
 10146 039d FF       		.byte	0xff
 10147 039e 1A       		.byte	0x1a
 10148 039f 78       		.byte	0x78
 10149 03a0 00       		.sleb128 0
 10150 03a1 1E       		.byte	0x1e
 10151 03a2 9F       		.byte	0x9f
 10152 03a3 00000000 		.4byte	0
 10153 03a7 00000000 		.4byte	0
 10154              	.LLST20:
 10155 03ab 78000000 		.4byte	.LVL85
 10156 03af 7C000000 		.4byte	.LVL86
 10157 03b3 0100     		.2byte	0x1
 10158 03b5 50       		.byte	0x50
 10159 03b6 7C000000 		.4byte	.LVL86
 10160 03ba 36010000 		.4byte	.LVL97
 10161 03be 0100     		.2byte	0x1
 10162 03c0 57       		.byte	0x57
 10163 03c1 00000000 		.4byte	0
 10164 03c5 00000000 		.4byte	0
 10165              	.LLST21:
 10166 03c9 86000000 		.4byte	.LVL88
 10167 03cd 36010000 		.4byte	.LVL97
 10168 03d1 0100     		.2byte	0x1
 10169 03d3 59       		.byte	0x59
 10170 03d4 00000000 		.4byte	0
 10171 03d8 00000000 		.4byte	0
 10172              	.LLST22:
 10173 03dc 00000000 		.4byte	.LVL98
 10174 03e0 12000000 		.4byte	.LVL100
 10175 03e4 0100     		.2byte	0x1
 10176 03e6 50       		.byte	0x50
 10177 03e7 12000000 		.4byte	.LVL100
 10178 03eb 40000000 		.4byte	.LVL105
 10179 03ef 0100     		.2byte	0x1
 10180 03f1 56       		.byte	0x56
 10181 03f2 40000000 		.4byte	.LVL105
 10182 03f6 44000000 		.4byte	.LFE16
 10183 03fa 0400     		.2byte	0x4
 10184 03fc F3       		.byte	0xf3
 10185 03fd 01       		.uleb128 0x1
 10186 03fe 50       		.byte	0x50
 10187 03ff 9F       		.byte	0x9f
 10188 0400 00000000 		.4byte	0
 10189 0404 00000000 		.4byte	0
 10190              	.LLST23:
 10191 0408 00000000 		.4byte	.LVL98
 10192 040c 08000000 		.4byte	.LVL99
 10193 0410 0100     		.2byte	0x1
 10194 0412 51       		.byte	0x51
 10195 0413 08000000 		.4byte	.LVL99
 10196 0417 44000000 		.4byte	.LFE16
 10197 041b 0400     		.2byte	0x4
 10198 041d F3       		.byte	0xf3
ARM GAS  C:\Users\AHMED~1.ELE\AppData\Local\Temp\ccAhPyWN.s 			page 201


 10199 041e 01       		.uleb128 0x1
 10200 041f 51       		.byte	0x51
 10201 0420 9F       		.byte	0x9f
 10202 0421 00000000 		.4byte	0
 10203 0425 00000000 		.4byte	0
 10204              	.LLST24:
 10205 0429 2A000000 		.4byte	.LVL102
 10206 042d 3C000000 		.4byte	.LVL104
 10207 0431 0100     		.2byte	0x1
 10208 0433 56       		.byte	0x56
 10209 0434 00000000 		.4byte	0
 10210 0438 00000000 		.4byte	0
 10211              	.LLST25:
 10212 043c 00000000 		.4byte	.LVL106
 10213 0440 1E000000 		.4byte	.LVL107
 10214 0444 0100     		.2byte	0x1
 10215 0446 50       		.byte	0x50
 10216 0447 1E000000 		.4byte	.LVL107
 10217 044b F4060000 		.4byte	.LFE19
 10218 044f 0400     		.2byte	0x4
 10219 0451 F3       		.byte	0xf3
 10220 0452 01       		.uleb128 0x1
 10221 0453 50       		.byte	0x50
 10222 0454 9F       		.byte	0x9f
 10223 0455 00000000 		.4byte	0
 10224 0459 00000000 		.4byte	0
 10225              	.LLST26:
 10226 045d 00000000 		.4byte	.LVL106
 10227 0461 1E000000 		.4byte	.LVL107
 10228 0465 0100     		.2byte	0x1
 10229 0467 51       		.byte	0x51
 10230 0468 1E000000 		.4byte	.LVL107
 10231 046c F4060000 		.4byte	.LFE19
 10232 0470 0400     		.2byte	0x4
 10233 0472 F3       		.byte	0xf3
 10234 0473 01       		.uleb128 0x1
 10235 0474 51       		.byte	0x51
 10236 0475 9F       		.byte	0x9f
 10237 0476 00000000 		.4byte	0
 10238 047a 00000000 		.4byte	0
 10239              	.LLST27:
 10240 047e 00000000 		.4byte	.LVL106
 10241 0482 1E000000 		.4byte	.LVL107
 10242 0486 0200     		.2byte	0x2
 10243 0488 31       		.byte	0x31
 10244 0489 9F       		.byte	0x9f
 10245 048a 1E000000 		.4byte	.LVL107
 10246 048e 18010000 		.4byte	.LVL131
 10247 0492 0100     		.2byte	0x1
 10248 0494 5A       		.byte	0x5a
 10249 0495 50050000 		.4byte	.LVL224
 10250 0499 84050000 		.4byte	.LVL229
 10251 049d 0100     		.2byte	0x1
 10252 049f 5A       		.byte	0x5a
 10253 04a0 9E060000 		.4byte	.LVL263
 10254 04a4 C2060000 		.4byte	.LVL272
 10255 04a8 0100     		.2byte	0x1
ARM GAS  C:\Users\AHMED~1.ELE\AppData\Local\Temp\ccAhPyWN.s 			page 202


 10256 04aa 5A       		.byte	0x5a
 10257 04ab 00000000 		.4byte	0
 10258 04af 00000000 		.4byte	0
 10259              	.LLST28:
 10260 04b3 00000000 		.4byte	.LVL106
 10261 04b7 1E000000 		.4byte	.LVL107
 10262 04bb 0200     		.2byte	0x2
 10263 04bd 30       		.byte	0x30
 10264 04be 9F       		.byte	0x9f
 10265 04bf 1E000000 		.4byte	.LVL107
 10266 04c3 7C050000 		.4byte	.LVL228
 10267 04c7 0100     		.2byte	0x1
 10268 04c9 58       		.byte	0x58
 10269 04ca 9E060000 		.4byte	.LVL263
 10270 04ce C0060000 		.4byte	.LVL271
 10271 04d2 0100     		.2byte	0x1
 10272 04d4 58       		.byte	0x58
 10273 04d5 00000000 		.4byte	0
 10274 04d9 00000000 		.4byte	0
 10275              	.LLST29:
 10276 04dd 6A000000 		.4byte	.LVL114
 10277 04e1 7F000000 		.4byte	.LVL116-1
 10278 04e5 0600     		.2byte	0x6
 10279 04e7 53       		.byte	0x53
 10280 04e8 93       		.byte	0x93
 10281 04e9 01       		.uleb128 0x1
 10282 04ea 93       		.byte	0x93
 10283 04eb 9604     		.uleb128 0x216
 10284 04ed 00000000 		.4byte	0
 10285 04f1 00000000 		.4byte	0
 10286              	.LLST30:
 10287 04f5 80000000 		.4byte	.LVL116
 10288 04f9 52050000 		.4byte	.LVL225
 10289 04fd 0400     		.2byte	0x4
 10290 04ff F3       		.byte	0xf3
 10291 0500 01       		.uleb128 0x1
 10292 0501 50       		.byte	0x50
 10293 0502 9F       		.byte	0x9f
 10294 0503 00000000 		.4byte	0
 10295 0507 00000000 		.4byte	0
 10296              	.LLST31:
 10297 050b 80000000 		.4byte	.LVL116
 10298 050f 46050000 		.4byte	.LVL222
 10299 0513 0200     		.2byte	0x2
 10300 0515 31       		.byte	0x31
 10301 0516 9F       		.byte	0x9f
 10302 0517 46050000 		.4byte	.LVL222
 10303 051b 50050000 		.4byte	.LVL224
 10304 051f 0100     		.2byte	0x1
 10305 0521 5A       		.byte	0x5a
 10306 0522 50050000 		.4byte	.LVL224
 10307 0526 52050000 		.4byte	.LVL225
 10308 052a 0200     		.2byte	0x2
 10309 052c 31       		.byte	0x31
 10310 052d 9F       		.byte	0x9f
 10311 052e 00000000 		.4byte	0
 10312 0532 00000000 		.4byte	0
ARM GAS  C:\Users\AHMED~1.ELE\AppData\Local\Temp\ccAhPyWN.s 			page 203


 10313              	.LLST32:
 10314 0536 8A000000 		.4byte	.LVL117
 10315 053a 96000000 		.4byte	.LVL119
 10316 053e 0100     		.2byte	0x1
 10317 0540 50       		.byte	0x50
 10318 0541 96000000 		.4byte	.LVL119
 10319 0545 50050000 		.4byte	.LVL224
 10320 0549 0100     		.2byte	0x1
 10321 054b 55       		.byte	0x55
 10322 054c 50050000 		.4byte	.LVL224
 10323 0550 52050000 		.4byte	.LVL225
 10324 0554 0100     		.2byte	0x1
 10325 0556 50       		.byte	0x50
 10326 0557 00000000 		.4byte	0
 10327 055b 00000000 		.4byte	0
 10328              	.LLST33:
 10329 055f 92000000 		.4byte	.LVL118
 10330 0563 D0000000 		.4byte	.LVL125
 10331 0567 0200     		.2byte	0x2
 10332 0569 30       		.byte	0x30
 10333 056a 9F       		.byte	0x9f
 10334 056b D0000000 		.4byte	.LVL125
 10335 056f DC000000 		.4byte	.LVL126
 10336 0573 0100     		.2byte	0x1
 10337 0575 54       		.byte	0x54
 10338 0576 DC000000 		.4byte	.LVL126
 10339 057a DE000000 		.4byte	.LVL127
 10340 057e 0200     		.2byte	0x2
 10341 0580 30       		.byte	0x30
 10342 0581 9F       		.byte	0x9f
 10343 0582 DE000000 		.4byte	.LVL127
 10344 0586 50050000 		.4byte	.LVL224
 10345 058a 0100     		.2byte	0x1
 10346 058c 54       		.byte	0x54
 10347 058d 00000000 		.4byte	0
 10348 0591 00000000 		.4byte	0
 10349              	.LLST34:
 10350 0595 92000000 		.4byte	.LVL118
 10351 0599 50050000 		.4byte	.LVL224
 10352 059d 0D00     		.2byte	0xd
 10353 059f 4A       		.byte	0x4a
 10354 05a0 08       		.byte	0x8
 10355 05a1 20       		.byte	0x20
 10356 05a2 77       		.byte	0x77
 10357 05a3 00       		.sleb128 0
 10358 05a4 30       		.byte	0x30
 10359 05a5 2E       		.byte	0x2e
 10360 05a6 28       		.byte	0x28
 10361 05a7 0100     		.2byte	0x1
 10362 05a9 16       		.byte	0x16
 10363 05aa 13       		.byte	0x13
 10364 05ab 9F       		.byte	0x9f
 10365 05ac 00000000 		.4byte	0
 10366 05b0 00000000 		.4byte	0
 10367              	.LLST35:
 10368 05b4 1E000000 		.4byte	.LVL107
 10369 05b8 44000000 		.4byte	.LVL109
ARM GAS  C:\Users\AHMED~1.ELE\AppData\Local\Temp\ccAhPyWN.s 			page 204


 10370 05bc 0100     		.2byte	0x1
 10371 05be 58       		.byte	0x58
 10372 05bf 58000000 		.4byte	.LVL111
 10373 05c3 56050000 		.4byte	.LVL226
 10374 05c7 0100     		.2byte	0x1
 10375 05c9 58       		.byte	0x58
 10376 05ca 56050000 		.4byte	.LVL226
 10377 05ce 70050000 		.4byte	.LVL227
 10378 05d2 0300     		.2byte	0x3
 10379 05d4 78       		.byte	0x78
 10380 05d5 7F       		.sleb128 -1
 10381 05d6 9F       		.byte	0x9f
 10382 05d7 00000000 		.4byte	0
 10383 05db 00000000 		.4byte	0
 10384              	.LLST36:
 10385 05df 1E000000 		.4byte	.LVL107
 10386 05e3 5C000000 		.4byte	.LVL112
 10387 05e7 0400     		.2byte	0x4
 10388 05e9 91       		.byte	0x91
 10389 05ea A877     		.sleb128 -1112
 10390 05ec 9F       		.byte	0x9f
 10391 05ed 5C000000 		.4byte	.LVL112
 10392 05f1 67000000 		.4byte	.LVL113-1
 10393 05f5 0100     		.2byte	0x1
 10394 05f7 50       		.byte	0x50
 10395 05f8 67000000 		.4byte	.LVL113-1
 10396 05fc 72000000 		.4byte	.LVL115
 10397 0600 0400     		.2byte	0x4
 10398 0602 91       		.byte	0x91
 10399 0603 A877     		.sleb128 -1112
 10400 0605 9F       		.byte	0x9f
 10401 0606 72000000 		.4byte	.LVL115
 10402 060a 7F000000 		.4byte	.LVL116-1
 10403 060e 0100     		.2byte	0x1
 10404 0610 51       		.byte	0x51
 10405 0611 7F000000 		.4byte	.LVL116-1
 10406 0615 CC060000 		.4byte	.LVL273
 10407 0619 0400     		.2byte	0x4
 10408 061b 91       		.byte	0x91
 10409 061c A877     		.sleb128 -1112
 10410 061e 9F       		.byte	0x9f
 10411 061f CC060000 		.4byte	.LVL273
 10412 0623 F4060000 		.4byte	.LFE19
 10413 0627 0400     		.2byte	0x4
 10414 0629 7D       		.byte	0x7d
 10415 062a A877     		.sleb128 -1112
 10416 062c 9F       		.byte	0x9f
 10417 062d 00000000 		.4byte	0
 10418 0631 00000000 		.4byte	0
 10419              	.LLST37:
 10420 0635 44000000 		.4byte	.LVL109
 10421 0639 58000000 		.4byte	.LVL111
 10422 063d 0400     		.2byte	0x4
 10423 063f F3       		.byte	0xf3
 10424 0640 01       		.uleb128 0x1
 10425 0641 50       		.byte	0x50
 10426 0642 9F       		.byte	0x9f
ARM GAS  C:\Users\AHMED~1.ELE\AppData\Local\Temp\ccAhPyWN.s 			page 205


 10427 0643 70050000 		.4byte	.LVL227
 10428 0647 C2060000 		.4byte	.LVL272
 10429 064b 0400     		.2byte	0x4
 10430 064d F3       		.byte	0xf3
 10431 064e 01       		.uleb128 0x1
 10432 064f 50       		.byte	0x50
 10433 0650 9F       		.byte	0x9f
 10434 0651 00000000 		.4byte	0
 10435 0655 00000000 		.4byte	0
 10436              	.LLST38:
 10437 0659 44000000 		.4byte	.LVL109
 10438 065d 58000000 		.4byte	.LVL111
 10439 0661 0100     		.2byte	0x1
 10440 0663 57       		.byte	0x57
 10441 0664 70050000 		.4byte	.LVL227
 10442 0668 C2060000 		.4byte	.LVL272
 10443 066c 0100     		.2byte	0x1
 10444 066e 57       		.byte	0x57
 10445 066f 00000000 		.4byte	0
 10446 0673 00000000 		.4byte	0
 10447              	.LLST39:
 10448 0677 44000000 		.4byte	.LVL109
 10449 067b 58000000 		.4byte	.LVL111
 10450 067f 0200     		.2byte	0x2
 10451 0681 31       		.byte	0x31
 10452 0682 9F       		.byte	0x9f
 10453 0683 70050000 		.4byte	.LVL227
 10454 0687 86050000 		.4byte	.LVL230
 10455 068b 0200     		.2byte	0x2
 10456 068d 31       		.byte	0x31
 10457 068e 9F       		.byte	0x9f
 10458 068f 56060000 		.4byte	.LVL253
 10459 0693 86060000 		.4byte	.LVL258
 10460 0697 0100     		.2byte	0x1
 10461 0699 5A       		.byte	0x5a
 10462 069a 88060000 		.4byte	.LVL259
 10463 069e 9E060000 		.4byte	.LVL263
 10464 06a2 0100     		.2byte	0x1
 10465 06a4 5A       		.byte	0x5a
 10466 06a5 9E060000 		.4byte	.LVL263
 10467 06a9 C2060000 		.4byte	.LVL272
 10468 06ad 0200     		.2byte	0x2
 10469 06af 31       		.byte	0x31
 10470 06b0 9F       		.byte	0x9f
 10471 06b1 00000000 		.4byte	0
 10472 06b5 00000000 		.4byte	0
 10473              	.LLST40:
 10474 06b9 4E000000 		.4byte	.LVL110
 10475 06bd 58000000 		.4byte	.LVL111
 10476 06c1 0100     		.2byte	0x1
 10477 06c3 50       		.byte	0x50
 10478 06c4 70050000 		.4byte	.LVL227
 10479 06c8 7C050000 		.4byte	.LVL228
 10480 06cc 0100     		.2byte	0x1
 10481 06ce 50       		.byte	0x50
 10482 06cf 7C050000 		.4byte	.LVL228
 10483 06d3 9E060000 		.4byte	.LVL263
ARM GAS  C:\Users\AHMED~1.ELE\AppData\Local\Temp\ccAhPyWN.s 			page 206


 10484 06d7 0100     		.2byte	0x1
 10485 06d9 56       		.byte	0x56
 10486 06da 9E060000 		.4byte	.LVL263
 10487 06de A4060000 		.4byte	.LVL266
 10488 06e2 0100     		.2byte	0x1
 10489 06e4 50       		.byte	0x50
 10490 06e5 A4060000 		.4byte	.LVL266
 10491 06e9 C2060000 		.4byte	.LVL272
 10492 06ed 0100     		.2byte	0x1
 10493 06ef 56       		.byte	0x56
 10494 06f0 00000000 		.4byte	0
 10495 06f4 00000000 		.4byte	0
 10496              	.LLST41:
 10497 06f8 7C050000 		.4byte	.LVL228
 10498 06fc 86050000 		.4byte	.LVL230
 10499 0700 0200     		.2byte	0x2
 10500 0702 30       		.byte	0x30
 10501 0703 9F       		.byte	0x9f
 10502 0704 86050000 		.4byte	.LVL230
 10503 0708 48060000 		.4byte	.LVL250
 10504 070c 0100     		.2byte	0x1
 10505 070e 59       		.byte	0x59
 10506 070f 48060000 		.4byte	.LVL250
 10507 0713 4C060000 		.4byte	.LVL251
 10508 0717 0300     		.2byte	0x3
 10509 0719 79       		.byte	0x79
 10510 071a 01       		.sleb128 1
 10511 071b 9F       		.byte	0x9f
 10512 071c 54060000 		.4byte	.LVL252
 10513 0720 56060000 		.4byte	.LVL253
 10514 0724 0100     		.2byte	0x1
 10515 0726 59       		.byte	0x59
 10516 0727 00000000 		.4byte	0
 10517 072b 00000000 		.4byte	0
 10518              	.LLST42:
 10519 072f 70050000 		.4byte	.LVL227
 10520 0733 86050000 		.4byte	.LVL230
 10521 0737 0200     		.2byte	0x2
 10522 0739 30       		.byte	0x30
 10523 073a 9F       		.byte	0x9f
 10524 073b 86050000 		.4byte	.LVL230
 10525 073f 22060000 		.4byte	.LVL244
 10526 0743 0100     		.2byte	0x1
 10527 0745 54       		.byte	0x54
 10528 0746 22060000 		.4byte	.LVL244
 10529 074a 48060000 		.4byte	.LVL250
 10530 074e 0200     		.2byte	0x2
 10531 0750 30       		.byte	0x30
 10532 0751 9F       		.byte	0x9f
 10533 0752 48060000 		.4byte	.LVL250
 10534 0756 54060000 		.4byte	.LVL252
 10535 075a 0100     		.2byte	0x1
 10536 075c 54       		.byte	0x54
 10537 075d 54060000 		.4byte	.LVL252
 10538 0761 56060000 		.4byte	.LVL253
 10539 0765 0200     		.2byte	0x2
 10540 0767 30       		.byte	0x30
ARM GAS  C:\Users\AHMED~1.ELE\AppData\Local\Temp\ccAhPyWN.s 			page 207


 10541 0768 9F       		.byte	0x9f
 10542 0769 56060000 		.4byte	.LVL253
 10543 076d 9E060000 		.4byte	.LVL263
 10544 0771 0100     		.2byte	0x1
 10545 0773 54       		.byte	0x54
 10546 0774 A2060000 		.4byte	.LVL265
 10547 0778 C2060000 		.4byte	.LVL272
 10548 077c 0200     		.2byte	0x2
 10549 077e 30       		.byte	0x30
 10550 077f 9F       		.byte	0x9f
 10551 0780 00000000 		.4byte	0
 10552 0784 00000000 		.4byte	0
 10553              	.LLST43:
 10554 0788 A2060000 		.4byte	.LVL265
 10555 078c C2060000 		.4byte	.LVL272
 10556 0790 0300     		.2byte	0x3
 10557 0792 08       		.byte	0x8
 10558 0793 20       		.byte	0x20
 10559 0794 9F       		.byte	0x9f
 10560 0795 00000000 		.4byte	0
 10561 0799 00000000 		.4byte	0
 10562              	.LLST44:
 10563 079d 00000000 		.4byte	.LVL280
 10564 07a1 5A000000 		.4byte	.LVL286
 10565 07a5 0200     		.2byte	0x2
 10566 07a7 30       		.byte	0x30
 10567 07a8 9F       		.byte	0x9f
 10568 07a9 5A000000 		.4byte	.LVL286
 10569 07ad 78000000 		.4byte	.LFE21
 10570 07b1 0300     		.2byte	0x3
 10571 07b3 09       		.byte	0x9
 10572 07b4 80       		.byte	0x80
 10573 07b5 9F       		.byte	0x9f
 10574 07b6 00000000 		.4byte	0
 10575 07ba 00000000 		.4byte	0
 10576              		.section	.debug_aranges,"",%progbits
 10577 0000 AC000000 		.4byte	0xac
 10578 0004 0200     		.2byte	0x2
 10579 0006 00000000 		.4byte	.Ldebug_info0
 10580 000a 04       		.byte	0x4
 10581 000b 00       		.byte	0
 10582 000c 0000     		.2byte	0
 10583 000e 0000     		.2byte	0
 10584 0010 00000000 		.4byte	.LFB6
 10585 0014 12000000 		.4byte	.LFE6-.LFB6
 10586 0018 00000000 		.4byte	.LFB7
 10587 001c 24000000 		.4byte	.LFE7-.LFB7
 10588 0020 00000000 		.4byte	.LFB0
 10589 0024 10000000 		.4byte	.LFE0-.LFB0
 10590 0028 00000000 		.4byte	.LFB1
 10591 002c 12000000 		.4byte	.LFE1-.LFB1
 10592 0030 00000000 		.4byte	.LFB2
 10593 0034 10000000 		.4byte	.LFE2-.LFB2
 10594 0038 00000000 		.4byte	.LFB3
 10595 003c 22000000 		.4byte	.LFE3-.LFB3
 10596 0040 00000000 		.4byte	.LFB4
 10597 0044 50000000 		.4byte	.LFE4-.LFB4
ARM GAS  C:\Users\AHMED~1.ELE\AppData\Local\Temp\ccAhPyWN.s 			page 208


 10598 0048 00000000 		.4byte	.LFB5
 10599 004c 6C000000 		.4byte	.LFE5-.LFB5
 10600 0050 00000000 		.4byte	.LFB8
 10601 0054 48000000 		.4byte	.LFE8-.LFB8
 10602 0058 00000000 		.4byte	.LFB9
 10603 005c 54000000 		.4byte	.LFE9-.LFB9
 10604 0060 00000000 		.4byte	.LFB10
 10605 0064 10000000 		.4byte	.LFE10-.LFB10
 10606 0068 00000000 		.4byte	.LFB11
 10607 006c 68000000 		.4byte	.LFE11-.LFB11
 10608 0070 00000000 		.4byte	.LFB12
 10609 0074 40000000 		.4byte	.LFE12-.LFB12
 10610 0078 00000000 		.4byte	.LFB13
 10611 007c 78000000 		.4byte	.LFE13-.LFB13
 10612 0080 00000000 		.4byte	.LFB14
 10613 0084 44010000 		.4byte	.LFE14-.LFB14
 10614 0088 00000000 		.4byte	.LFB16
 10615 008c 44000000 		.4byte	.LFE16-.LFB16
 10616 0090 00000000 		.4byte	.LFB19
 10617 0094 F4060000 		.4byte	.LFE19-.LFB19
 10618 0098 00000000 		.4byte	.LFB20
 10619 009c 40000000 		.4byte	.LFE20-.LFB20
 10620 00a0 00000000 		.4byte	.LFB21
 10621 00a4 78000000 		.4byte	.LFE21-.LFB21
 10622 00a8 00000000 		.4byte	0
 10623 00ac 00000000 		.4byte	0
 10624              		.section	.debug_ranges,"",%progbits
 10625              	.Ldebug_ranges0:
 10626 0000 12000000 		.4byte	.LBB22
 10627 0004 16000000 		.4byte	.LBE22
 10628 0008 80000000 		.4byte	.LBB32
 10629 000c 52050000 		.4byte	.LBE32
 10630 0010 00000000 		.4byte	0
 10631 0014 00000000 		.4byte	0
 10632 0018 1E000000 		.4byte	.LBB25
 10633 001c 44000000 		.4byte	.LBE25
 10634 0020 58000000 		.4byte	.LBB31
 10635 0024 6A000000 		.4byte	.LBE31
 10636 0028 00000000 		.4byte	0
 10637 002c 00000000 		.4byte	0
 10638 0030 44000000 		.4byte	.LBB28
 10639 0034 58000000 		.4byte	.LBE28
 10640 0038 72050000 		.4byte	.LBB33
 10641 003c C2060000 		.4byte	.LBE33
 10642 0040 00000000 		.4byte	0
 10643 0044 00000000 		.4byte	0
 10644 0048 00000000 		.4byte	.LFB6
 10645 004c 12000000 		.4byte	.LFE6
 10646 0050 00000000 		.4byte	.LFB7
 10647 0054 24000000 		.4byte	.LFE7
 10648 0058 00000000 		.4byte	.LFB0
 10649 005c 10000000 		.4byte	.LFE0
 10650 0060 00000000 		.4byte	.LFB1
 10651 0064 12000000 		.4byte	.LFE1
 10652 0068 00000000 		.4byte	.LFB2
 10653 006c 10000000 		.4byte	.LFE2
 10654 0070 00000000 		.4byte	.LFB3
ARM GAS  C:\Users\AHMED~1.ELE\AppData\Local\Temp\ccAhPyWN.s 			page 209


 10655 0074 22000000 		.4byte	.LFE3
 10656 0078 00000000 		.4byte	.LFB4
 10657 007c 50000000 		.4byte	.LFE4
 10658 0080 00000000 		.4byte	.LFB5
 10659 0084 6C000000 		.4byte	.LFE5
 10660 0088 00000000 		.4byte	.LFB8
 10661 008c 48000000 		.4byte	.LFE8
 10662 0090 00000000 		.4byte	.LFB9
 10663 0094 54000000 		.4byte	.LFE9
 10664 0098 00000000 		.4byte	.LFB10
 10665 009c 10000000 		.4byte	.LFE10
 10666 00a0 00000000 		.4byte	.LFB11
 10667 00a4 68000000 		.4byte	.LFE11
 10668 00a8 00000000 		.4byte	.LFB12
 10669 00ac 40000000 		.4byte	.LFE12
 10670 00b0 00000000 		.4byte	.LFB13
 10671 00b4 78000000 		.4byte	.LFE13
 10672 00b8 00000000 		.4byte	.LFB14
 10673 00bc 44010000 		.4byte	.LFE14
 10674 00c0 00000000 		.4byte	.LFB16
 10675 00c4 44000000 		.4byte	.LFE16
 10676 00c8 00000000 		.4byte	.LFB19
 10677 00cc F4060000 		.4byte	.LFE19
 10678 00d0 00000000 		.4byte	.LFB20
 10679 00d4 40000000 		.4byte	.LFE20
 10680 00d8 00000000 		.4byte	.LFB21
 10681 00dc 78000000 		.4byte	.LFE21
 10682 00e0 00000000 		.4byte	0
 10683 00e4 00000000 		.4byte	0
 10684              		.section	.debug_line,"",%progbits
 10685              	.Ldebug_line0:
 10686 0000 8C040000 		.section	.debug_str,"MS",%progbits,1
 10686      02005C01 
 10686      00000201 
 10686      FB0E0D00 
 10686      01010101 
 10687              	.LASF556:
 10688 0000 4B5F4346 		.ascii	"K_CF_NotDelAppData\000"
 10688      5F4E6F74 
 10688      44656C41 
 10688      70704461 
 10688      746100
 10689              	.LASF327:
 10690 0013 4F535F46 		.ascii	"OS_FN_CLICC_LED_OPEN\000"
 10690      4E5F434C 
 10690      4943435F 
 10690      4C45445F 
 10690      4F50454E 
 10691              	.LASF340:
 10692 0028 4F535F46 		.ascii	"OS_FN_DRIVER_REGISTER\000"
 10692      4E5F4452 
 10692      49564552 
 10692      5F524547 
 10692      49535445 
 10693              	.LASF10:
 10694 003e 63686172 		.ascii	"char\000"
 10694      00
ARM GAS  C:\Users\AHMED~1.ELE\AppData\Local\Temp\ccAhPyWN.s 			page 210


 10695              	.LASF726:
 10696 0043 53657445 		.ascii	"SetEMVLoaded\000"
 10696      4D564C6F 
 10696      61646564 
 10696      00
 10697              	.LASF315:
 10698 0050 4F535F46 		.ascii	"OS_FN_CODEC_CLOSE\000"
 10698      4E5F434F 
 10698      4445435F 
 10698      434C4F53 
 10698      4500
 10699              	.LASF427:
 10700 0062 4F535F46 		.ascii	"OS_FN_GET_CALLID\000"
 10700      4E5F4745 
 10700      545F4341 
 10700      4C4C4944 
 10700      00
 10701              	.LASF528:
 10702 0073 4B5F4346 		.ascii	"K_CF_MdmHandshakeDelay\000"
 10702      5F4D646D 
 10702      48616E64 
 10702      7368616B 
 10702      6544656C 
 10703              	.LASF193:
 10704 008a 4F535F46 		.ascii	"OS_FN_FILE_INIT_SEARCH\000"
 10704      4E5F4649 
 10704      4C455F49 
 10704      4E49545F 
 10704      53454152 
 10705              	.LASF11:
 10706 00a1 73697A65 		.ascii	"size_t\000"
 10706      5F7400
 10707              	.LASF173:
 10708 00a8 4F535F46 		.ascii	"OS_FN_FILE_SEEK\000"
 10708      4E5F4649 
 10708      4C455F53 
 10708      45454B00 
 10709              	.LASF9:
 10710 00b8 73697A65 		.ascii	"sizetype\000"
 10710      74797065 
 10710      00
 10711              	.LASF414:
 10712 00c1 4F535F46 		.ascii	"OS_FN_NFC_IC_REG_DIRECT_WRITE\000"
 10712      4E5F4E46 
 10712      435F4943 
 10712      5F524547 
 10712      5F444952 
 10713              	.LASF165:
 10714 00df 4F535F46 		.ascii	"OS_FN_FILE_CREATE_OWNER\000"
 10714      4E5F4649 
 10714      4C455F43 
 10714      52454154 
 10714      455F4F57 
 10715              	.LASF576:
 10716 00f7 4B5F4346 		.ascii	"K_CF_WIFI_GATEWAY\000"
 10716      5F574946 
 10716      495F4741 
ARM GAS  C:\Users\AHMED~1.ELE\AppData\Local\Temp\ccAhPyWN.s 			page 211


 10716      54455741 
 10716      5900
 10717              	.LASF690:
 10718 0109 625F6C69 		.ascii	"b_line_width\000"
 10718      6E655F77 
 10718      69647468 
 10718      00
 10719              	.LASF303:
 10720 0116 4F535F46 		.ascii	"OS_FN_GPRS_SMS_SEND\000"
 10720      4E5F4750 
 10720      52535F53 
 10720      4D535F53 
 10720      454E4400 
 10721              	.LASF550:
 10722 012a 4B5F4346 		.ascii	"K_CF_LptStamp\000"
 10722      5F4C7074 
 10722      5374616D 
 10722      7000
 10723              	.LASF545:
 10724 0138 4B5F4346 		.ascii	"K_CF_ARPMac\000"
 10724      5F415250 
 10724      4D616300 
 10725              	.LASF649:
 10726 0144 41504D5F 		.ascii	"APM_SDEV_MSR\000"
 10726      53444556 
 10726      5F4D5352 
 10726      00
 10727              	.LASF332:
 10728 0151 4F535F46 		.ascii	"OS_FN_CLICC_LED_ON\000"
 10728      4E5F434C 
 10728      4943435F 
 10728      4C45445F 
 10728      4F4E00
 10729              	.LASF339:
 10730 0164 4F535F46 		.ascii	"OS_FN_USBHOST_DEVICEMAP\000"
 10730      4E5F5553 
 10730      42484F53 
 10730      545F4445 
 10730      56494345 
 10731              	.LASF608:
 10732 017c 464F5045 		.ascii	"FOPENMW\000"
 10732      4E4D5700 
 10733              	.LASF457:
 10734 0184 4F535F46 		.ascii	"OS_FN_GCM_AES_OPEN\000"
 10734      4E5F4743 
 10734      4D5F4145 
 10734      535F4F50 
 10734      454E00
 10735              	.LASF633:
 10736 0197 44495350 		.ascii	"DISP_SETPMW\000"
 10736      5F534554 
 10736      504D5700 
 10737              	.LASF314:
 10738 01a3 4F535F46 		.ascii	"OS_FN_CODEC_OPEN\000"
 10738      4E5F434F 
 10738      4445435F 
 10738      4F50454E 
ARM GAS  C:\Users\AHMED~1.ELE\AppData\Local\Temp\ccAhPyWN.s 			page 212


 10738      00
 10739              	.LASF641:
 10740 01b4 534D535F 		.ascii	"SMS_TX_MW\000"
 10740      54585F4D 
 10740      5700
 10741              	.LASF81:
 10742 01be 4F535F46 		.ascii	"OS_FN_COM3_SREAD\000"
 10742      4E5F434F 
 10742      4D335F53 
 10742      52454144 
 10742      00
 10743              	.LASF169:
 10744 01cf 4F535F46 		.ascii	"OS_FN_FILE_EXIST\000"
 10744      4E5F4649 
 10744      4C455F45 
 10744      58495354 
 10744      00
 10745              	.LASF479:
 10746 01e0 4F535F46 		.ascii	"OS_FN_IMG_SENSOR_LED_OPEN\000"
 10746      4E5F494D 
 10746      475F5345 
 10746      4E534F52 
 10746      5F4C4544 
 10747              	.LASF118:
 10748 01fa 4F535F46 		.ascii	"OS_FN_SM4_DECRYPT\000"
 10748      4E5F534D 
 10748      345F4445 
 10748      43525950 
 10748      5400
 10749              	.LASF675:
 10750 020c 73494F5F 		.ascii	"sIO_t\000"
 10750      7400
 10751              	.LASF505:
 10752 0212 4B5F4346 		.ascii	"K_CF_UDPPort\000"
 10752      5F554450 
 10752      506F7274 
 10752      00
 10753              	.LASF487:
 10754 021f 4F535F46 		.ascii	"OS_FN_GPS_GET_DETAIL_INFO\000"
 10754      4E5F4750 
 10754      535F4745 
 10754      545F4445 
 10754      5441494C 
 10755              	.LASF572:
 10756 0239 4B5F4346 		.ascii	"K_CF_GPS_PowerOnOff\000"
 10756      5F475053 
 10756      5F506F77 
 10756      65724F6E 
 10756      4F666600 
 10757              	.LASF299:
 10758 024d 4F535F46 		.ascii	"OS_FN_GPRS_GET_CID\000"
 10758      4E5F4750 
 10758      52535F47 
 10758      45545F43 
 10758      494400
 10759              	.LASF368:
 10760 0260 4F535F46 		.ascii	"OS_FN_TAMPER_RESET_STATUS\000"
ARM GAS  C:\Users\AHMED~1.ELE\AppData\Local\Temp\ccAhPyWN.s 			page 213


 10760      4E5F5441 
 10760      4D504552 
 10760      5F524553 
 10760      45545F53 
 10761              	.LASF441:
 10762 027a 4F535F46 		.ascii	"OS_FN_POWER\000"
 10762      4E5F504F 
 10762      57455200 
 10763              	.LASF686:
 10764 0286 65544143 		.ascii	"eTACOnline\000"
 10764      4F6E6C69 
 10764      6E6500
 10765              	.LASF289:
 10766 0291 4F535F46 		.ascii	"OS_FN_ADC_CH_DISABLE\000"
 10766      4E5F4144 
 10766      435F4348 
 10766      5F444953 
 10766      41424C45 
 10767              	.LASF215:
 10768 02a6 4F535F46 		.ascii	"OS_FN_MMC_SIZE\000"
 10768      4E5F4D4D 
 10768      435F5349 
 10768      5A4500
 10769              	.LASF484:
 10770 02b5 4F535F46 		.ascii	"OS_FN_TAMPER_UNLOCK\000"
 10770      4E5F5441 
 10770      4D504552 
 10770      5F554E4C 
 10770      4F434B00 
 10771              	.LASF182:
 10772 02c9 4F535F46 		.ascii	"OS_FN_FILE_DSEARCH_ALL\000"
 10772      4E5F4649 
 10772      4C455F44 
 10772      53454152 
 10772      43485F41 
 10773              	.LASF436:
 10774 02e0 4F535F46 		.ascii	"OS_FN_DMK_KVC_READ\000"
 10774      4E5F444D 
 10774      4B5F4B56 
 10774      435F5245 
 10774      414400
 10775              	.LASF28:
 10776 02f3 4F535F46 		.ascii	"OS_FN_TIMER_SET\000"
 10776      4E5F5449 
 10776      4D45525F 
 10776      53455400 
 10777              	.LASF522:
 10778 0303 4B5F4346 		.ascii	"K_CF_SimSelect\000"
 10778      5F53696D 
 10778      53656C65 
 10778      637400
 10779              	.LASF735:
 10780 0312 454D5644 		.ascii	"EMVDataUpdate\000"
 10780      61746155 
 10780      70646174 
 10780      6500
 10781              	.LASF463:
ARM GAS  C:\Users\AHMED~1.ELE\AppData\Local\Temp\ccAhPyWN.s 			page 214


 10782 0320 4F535F46 		.ascii	"OS_FN_SYS_THREAD_CREATE\000"
 10782      4E5F5359 
 10782      535F5448 
 10782      52454144 
 10782      5F435245 
 10783              	.LASF146:
 10784 0338 4F535F46 		.ascii	"OS_FN_BUFMAN_FREE\000"
 10784      4E5F4255 
 10784      464D414E 
 10784      5F465245 
 10784      4500
 10785              	.LASF294:
 10786 034a 4F535F46 		.ascii	"OS_FN_GPRS_AT_RESP\000"
 10786      4E5F4750 
 10786      52535F41 
 10786      545F5245 
 10786      535000
 10787              	.LASF646:
 10788 035d 46465452 		.ascii	"FFTRUNCATEMW\000"
 10788      554E4341 
 10788      54454D57 
 10788      00
 10789              	.LASF696:
 10790 036a 61546F44 		.ascii	"aToDisplay\000"
 10790      6973706C 
 10790      617900
 10791              	.LASF489:
 10792 0375 4B5F4346 		.ascii	"K_CF_Version\000"
 10792      5F566572 
 10792      73696F6E 
 10792      00
 10793              	.LASF490:
 10794 0382 4B5F4346 		.ascii	"K_CF_DebugMode\000"
 10794      5F446562 
 10794      75674D6F 
 10794      646500
 10795              	.LASF689:
 10796 0391 4150505F 		.ascii	"APP_CFG\000"
 10796      43464700 
 10797              	.LASF356:
 10798 0399 4F535F46 		.ascii	"OS_FN_USBOTG_GET_STATE\000"
 10798      4E5F5553 
 10798      424F5447 
 10798      5F474554 
 10798      5F535441 
 10799              	.LASF715:
 10800 03b0 61446573 		.ascii	"aDest\000"
 10800      7400
 10801              	.LASF477:
 10802 03b6 4F535F46 		.ascii	"OS_FN_GPRS_IS_HL6RD_OLD_FRM\000"
 10802      4E5F4750 
 10802      52535F49 
 10802      535F484C 
 10802      3652445F 
 10803              	.LASF278:
 10804 03d2 4F535F46 		.ascii	"OS_FN_MCOM_TXRDY\000"
 10804      4E5F4D43 
ARM GAS  C:\Users\AHMED~1.ELE\AppData\Local\Temp\ccAhPyWN.s 			page 215


 10804      4F4D5F54 
 10804      58524459 
 10804      00
 10805              	.LASF653:
 10806 03e3 41504D5F 		.ascii	"APM_SDEV_CDC\000"
 10806      53444556 
 10806      5F434443 
 10806      00
 10807              	.LASF731:
 10808 03f0 454D5644 		.ascii	"EMVData2DnloadBuf\000"
 10808      61746132 
 10808      446E6C6F 
 10808      61644275 
 10808      6600
 10809              	.LASF732:
 10810 0402 61547970 		.ascii	"aType\000"
 10810      6500
 10811              	.LASF516:
 10812 0408 4B5F4346 		.ascii	"K_CF_TimeStamp\000"
 10812      5F54696D 
 10812      65537461 
 10812      6D7000
 10813              	.LASF222:
 10814 0417 4F535F46 		.ascii	"OS_FN_SLE_OPEN\000"
 10814      4E5F534C 
 10814      455F4F50 
 10814      454E00
 10815              	.LASF49:
 10816 0426 4F535F46 		.ascii	"OS_FN_DISP_BRIGHTNESS\000"
 10816      4E5F4449 
 10816      53505F42 
 10816      52494748 
 10816      544E4553 
 10817              	.LASF305:
 10818 043c 4F535F46 		.ascii	"OS_FN_GPRS_SMS_READ\000"
 10818      4E5F4750 
 10818      52535F53 
 10818      4D535F52 
 10818      45414400 
 10819              	.LASF623:
 10820 0450 49434349 		.ascii	"ICCINSERTEDMW\000"
 10820      4E534552 
 10820      5445444D 
 10820      5700
 10821              	.LASF296:
 10822 045e 4F535F46 		.ascii	"OS_FN_GPRS_READ\000"
 10822      4E5F4750 
 10822      52535F52 
 10822      45414400 
 10823              	.LASF593:
 10824 046e 55534246 		.ascii	"USBFPRT_GENERAL_INFO_IMG_BPP\000"
 10824      5052545F 
 10824      47454E45 
 10824      52414C5F 
 10824      494E464F 
 10825              	.LASF737:
 10826 048b 74797065 		.ascii	"type\000"
ARM GAS  C:\Users\AHMED~1.ELE\AppData\Local\Temp\ccAhPyWN.s 			page 216


 10826      00
 10827              	.LASF189:
 10828 0490 4F535F46 		.ascii	"OS_FN_FILE_GET_FREE_SPACE\000"
 10828      4E5F4649 
 10828      4C455F47 
 10828      45545F46 
 10828      5245455F 
 10829              	.LASF129:
 10830 04aa 4F535F46 		.ascii	"OS_FN_KEY_SAVE_NC\000"
 10830      4E5F4B45 
 10830      595F5341 
 10830      56455F4E 
 10830      4300
 10831              	.LASF468:
 10832 04bc 4F535F46 		.ascii	"OS_FN_WIFI_SOCKET_SEND_UDP\000"
 10832      4E5F5749 
 10832      46495F53 
 10832      4F434B45 
 10832      545F5345 
 10833              	.LASF439:
 10834 04d7 4F535F46 		.ascii	"OS_FN_RMB_CONTROL\000"
 10834      4E5F524D 
 10834      425F434F 
 10834      4E54524F 
 10834      4C00
 10835              	.LASF109:
 10836 04e9 4F535F46 		.ascii	"OS_FN_SM2_GET_SIGNATURE\000"
 10836      4E5F534D 
 10836      325F4745 
 10836      545F5349 
 10836      474E4154 
 10837              	.LASF75:
 10838 0501 4F535F46 		.ascii	"OS_FN_COM3_CLOSE\000"
 10838      4E5F434F 
 10838      4D335F43 
 10838      4C4F5345 
 10838      00
 10839              	.LASF470:
 10840 0512 4F535F46 		.ascii	"OS_FN_WIFI_SOCKET_GET_STATUS\000"
 10840      4E5F5749 
 10840      46495F53 
 10840      4F434B45 
 10840      545F4745 
 10841              	.LASF65:
 10842 052f 4F535F46 		.ascii	"OS_FN_COM2_OPEN\000"
 10842      4E5F434F 
 10842      4D325F4F 
 10842      50454E00 
 10843              	.LASF338:
 10844 053f 4F535F46 		.ascii	"OS_FN_USBHOST_DEVINFO\000"
 10844      4E5F5553 
 10844      42484F53 
 10844      545F4445 
 10844      56494E46 
 10845              	.LASF235:
 10846 0555 4F535F46 		.ascii	"OS_FN_MSR_RXLEN\000"
 10846      4E5F4D53 
ARM GAS  C:\Users\AHMED~1.ELE\AppData\Local\Temp\ccAhPyWN.s 			page 217


 10846      525F5258 
 10846      4C454E00 
 10847              	.LASF348:
 10848 0565 4F535F46 		.ascii	"OS_FN_DEVICE_SEARCH_NEXT\000"
 10848      4E5F4445 
 10848      56494345 
 10848      5F534541 
 10848      5243485F 
 10849              	.LASF94:
 10850 057e 4F535F46 		.ascii	"OS_FN_AES_ENCRYPT_BLOCK\000"
 10850      4E5F4145 
 10850      535F454E 
 10850      43525950 
 10850      545F424C 
 10851              	.LASF179:
 10852 0596 4F535F46 		.ascii	"OS_FN_FILE_END\000"
 10852      4E5F4649 
 10852      4C455F45 
 10852      4E4400
 10853              	.LASF515:
 10854 05a5 4B5F4346 		.ascii	"K_CF_DMK\000"
 10854      5F444D4B 
 10854      00
 10855              	.LASF206:
 10856 05ae 4F535F46 		.ascii	"OS_FN_SAM_SELECT\000"
 10856      4E5F5341 
 10856      4D5F5345 
 10856      4C454354 
 10856      00
 10857              	.LASF423:
 10858 05bf 4F535F46 		.ascii	"OS_FN_GPS_ENABLED\000"
 10858      4E5F4750 
 10858      535F454E 
 10858      41424C45 
 10858      4400
 10859              	.LASF399:
 10860 05d1 4F535F46 		.ascii	"OS_FN_BARCODE_STATUS\000"
 10860      4E5F4241 
 10860      52434F44 
 10860      455F5354 
 10860      41545553 
 10861              	.LASF526:
 10862 05e6 4B5F4346 		.ascii	"K_CF_MdmCountry\000"
 10862      5F4D646D 
 10862      436F756E 
 10862      74727900 
 10863              	.LASF70:
 10864 05f6 4F535F46 		.ascii	"OS_FN_COM2_SEND\000"
 10864      4E5F434F 
 10864      4D325F53 
 10864      454E4400 
 10865              	.LASF204:
 10866 0606 4F535F46 		.ascii	"OS_FN_SAM_OPEN\000"
 10866      4E5F5341 
 10866      4D5F4F50 
 10866      454E00
 10867              	.LASF746:
ARM GAS  C:\Users\AHMED~1.ELE\AppData\Local\Temp\ccAhPyWN.s 			page 218


 10868 0615 73454D56 		.ascii	"sEMVIn\000"
 10868      496E00
 10869              	.LASF558:
 10870 061c 4B5F4346 		.ascii	"K_CF_MdmHypercomAnsToneTo\000"
 10870      5F4D646D 
 10870      48797065 
 10870      72636F6D 
 10870      416E7354 
 10871              	.LASF705:
 10872 0636 61496478 		.ascii	"aIdx\000"
 10872      00
 10873              	.LASF621:
 10874 063b 44455332 		.ascii	"DES2MW\000"
 10874      4D5700
 10875              	.LASF102:
 10876 0642 4F535F46 		.ascii	"OS_FN_SHA_FINISH\000"
 10876      4E5F5348 
 10876      415F4649 
 10876      4E495348 
 10876      00
 10877              	.LASF383:
 10878 0653 4F535F46 		.ascii	"OS_FN_MIF_INC\000"
 10878      4E5F4D49 
 10878      465F494E 
 10878      4300
 10879              	.LASF421:
 10880 0661 4F535F46 		.ascii	"OS_FN_GPS_RESP\000"
 10880      4E5F4750 
 10880      535F5245 
 10880      535000
 10881              	.LASF776:
 10882 0670 5072696E 		.ascii	"PrintRcptLF\000"
 10882      74526370 
 10882      744C4600 
 10883              	.LASF185:
 10884 067c 4F535F46 		.ascii	"OS_FN_FILE_GET_NAME\000"
 10884      4E5F4649 
 10884      4C455F47 
 10884      45545F4E 
 10884      414D4500 
 10885              	.LASF110:
 10886 0690 4F535F46 		.ascii	"OS_FN_SM2_VERIFY_SIGNATURE\000"
 10886      4E5F534D 
 10886      325F5645 
 10886      52494659 
 10886      5F534947 
 10887              	.LASF665:
 10888 06ab 454D565F 		.ascii	"EMV_DLLMSG\000"
 10888      444C4C4D 
 10888      534700
 10889              	.LASF707:
 10890 06b6 5072696E 		.ascii	"PrintEMVKeyInfo\000"
 10890      74454D56 
 10890      4B657949 
 10890      6E666F00 
 10891              	.LASF95:
 10892 06c6 4F535F46 		.ascii	"OS_FN_AES_DECRYPT_BLOCK\000"
ARM GAS  C:\Users\AHMED~1.ELE\AppData\Local\Temp\ccAhPyWN.s 			page 219


 10892      4E5F4145 
 10892      535F4445 
 10892      43525950 
 10892      545F424C 
 10893              	.LASF121:
 10894 06de 4F535F46 		.ascii	"OS_FN_KEY_DES\000"
 10894      4E5F4B45 
 10894      595F4445 
 10894      5300
 10895              	.LASF26:
 10896 06ec 4F535F46 		.ascii	"OS_FN_TIMER_OPEN\000"
 10896      4E5F5449 
 10896      4D45525F 
 10896      4F50454E 
 10896      00
 10897              	.LASF13:
 10898 06fd 42595445 		.ascii	"BYTE\000"
 10898      00
 10899              	.LASF406:
 10900 0702 4F535F46 		.ascii	"OS_FN_WIFI_PROFILES_WRITE\000"
 10900      4E5F5749 
 10900      46495F50 
 10900      524F4649 
 10900      4C45535F 
 10901              	.LASF119:
 10902 071c 4F535F46 		.ascii	"OS_FN_KEY_SAVE\000"
 10902      4E5F4B45 
 10902      595F5341 
 10902      564500
 10903              	.LASF92:
 10904 072b 4F535F46 		.ascii	"OS_FN_RSA_PRIVATE\000"
 10904      4E5F5253 
 10904      415F5052 
 10904      49564154 
 10904      4500
 10905              	.LASF254:
 10906 073d 4F535F46 		.ascii	"OS_FN_FL_PGM\000"
 10906      4E5F464C 
 10906      5F50474D 
 10906      00
 10907              	.LASF196:
 10908 074a 4F535F46 		.ascii	"OS_FN_FILE_RMDIR\000"
 10908      4E5F4649 
 10908      4C455F52 
 10908      4D444952 
 10908      00
 10909              	.LASF442:
 10910 075b 4F535F46 		.ascii	"OS_FN_CLICC_DEBUG\000"
 10910      4E5F434C 
 10910      4943435F 
 10910      44454255 
 10910      4700
 10911              	.LASF385:
 10912 076d 4F535F46 		.ascii	"OS_FN_MIF_RESTORE\000"
 10912      4E5F4D49 
 10912      465F5245 
 10912      53544F52 
ARM GAS  C:\Users\AHMED~1.ELE\AppData\Local\Temp\ccAhPyWN.s 			page 220


 10912      4500
 10913              	.LASF280:
 10914 077f 4F535F46 		.ascii	"OS_FN_MCOM_SSEND\000"
 10914      4E5F4D43 
 10914      4F4D5F53 
 10914      53454E44 
 10914      00
 10915              	.LASF342:
 10916 0790 4F535F46 		.ascii	"OS_FN_DEVICE_ALLOC\000"
 10916      4E5F4445 
 10916      56494345 
 10916      5F414C4C 
 10916      4F4300
 10917              	.LASF784:
 10918 07a3 4B65726E 		.ascii	"KernelReady\000"
 10918      656C5265 
 10918      61647900 
 10919              	.LASF453:
 10920 07af 4F535F46 		.ascii	"OS_FN_FPRT_INFO_GET\000"
 10920      4E5F4650 
 10920      52545F49 
 10920      4E464F5F 
 10920      47455400 
 10921              	.LASF198:
 10922 07c3 4F535F46 		.ascii	"OS_FN_FILE_SYNC\000"
 10922      4E5F4649 
 10922      4C455F53 
 10922      594E4300 
 10923              	.LASF449:
 10924 07d3 4F535F46 		.ascii	"OS_FN_FPRT_OPEN\000"
 10924      4E5F4650 
 10924      52545F4F 
 10924      50454E00 
 10925              	.LASF609:
 10926 07e3 46434C4F 		.ascii	"FCLOSEMW\000"
 10926      53454D57 
 10926      00
 10927              	.LASF604:
 10928 07ec 4745544C 		.ascii	"GETLASTERRMW\000"
 10928      41535445 
 10928      52524D57 
 10928      00
 10929              	.LASF236:
 10930 07f9 4F535F46 		.ascii	"OS_FN_MSR_GETC\000"
 10930      4E5F4D53 
 10930      525F4745 
 10930      544300
 10931              	.LASF597:
 10932 0808 4F50454E 		.ascii	"OPENMW\000"
 10932      4D5700
 10933              	.LASF287:
 10934 080f 4F535F46 		.ascii	"OS_FN_BATT_CHARGE_MODE\000"
 10934      4E5F4241 
 10934      54545F43 
 10934      48415247 
 10934      455F4D4F 
 10935              	.LASF391:
ARM GAS  C:\Users\AHMED~1.ELE\AppData\Local\Temp\ccAhPyWN.s 			page 221


 10936 0826 4F535F46 		.ascii	"OS_FN_MIF_INFO_SET\000"
 10936      4E5F4D49 
 10936      465F494E 
 10936      464F5F53 
 10936      455400
 10937              	.LASF670:
 10938 0839 454D565F 		.ascii	"EMV_ICC_CMD\000"
 10938      4943435F 
 10938      434D4400 
 10939              	.LASF567:
 10940 0845 4B5F4346 		.ascii	"K_CF_ArpAlways\000"
 10940      5F417270 
 10940      416C7761 
 10940      797300
 10941              	.LASF5:
 10942 0854 6C6F6E67 		.ascii	"long int\000"
 10942      20696E74 
 10942      00
 10943              	.LASF27:
 10944 085d 4F535F46 		.ascii	"OS_FN_TIMER_CLOSE\000"
 10944      4E5F5449 
 10944      4D45525F 
 10944      434C4F53 
 10944      4500
 10945              	.LASF742:
 10946 086f 454D5655 		.ascii	"EMVUtilStart\000"
 10946      74696C53 
 10946      74617274 
 10946      00
 10947              	.LASF145:
 10948 087c 4F535F46 		.ascii	"OS_FN_BUFMAN_ALLOC\000"
 10948      4E5F4255 
 10948      464D414E 
 10948      5F414C4C 
 10948      4F4300
 10949              	.LASF573:
 10950 088f 4B5F4346 		.ascii	"K_CF_WIFI_IP_CONFIG\000"
 10950      5F574946 
 10950      495F4950 
 10950      5F434F4E 
 10950      46494700 
 10951              	.LASF56:
 10952 08a3 4F535F46 		.ascii	"OS_FN_COM1_OPEN\000"
 10952      4E5F434F 
 10952      4D315F4F 
 10952      50454E00 
 10953              	.LASF300:
 10954 08b3 4F535F46 		.ascii	"OS_FN_GPRS_READ_USSD\000"
 10954      4E5F4750 
 10954      52535F52 
 10954      4541445F 
 10954      55535344 
 10955              	.LASF111:
 10956 08c8 4F535F46 		.ascii	"OS_FN_SM2_ENCRYPT\000"
 10956      4E5F534D 
 10956      325F454E 
 10956      43525950 
ARM GAS  C:\Users\AHMED~1.ELE\AppData\Local\Temp\ccAhPyWN.s 			page 222


 10956      5400
 10957              	.LASF460:
 10958 08da 4F535F46 		.ascii	"OS_FN_GCM_AES_PROCESS\000"
 10958      4E5F4743 
 10958      4D5F4145 
 10958      535F5052 
 10958      4F434553 
 10959              	.LASF344:
 10960 08f0 4F535F46 		.ascii	"OS_FN_DEVICE_UNREGISTER\000"
 10960      4E5F4445 
 10960      56494345 
 10960      5F554E52 
 10960      45474953 
 10961              	.LASF587:
 10962 0908 4B5F4346 		.ascii	"K_CF_WIFI_SCAN_REGION\000"
 10962      5F574946 
 10962      495F5343 
 10962      414E5F52 
 10962      4547494F 
 10963              	.LASF108:
 10964 091e 4F535F46 		.ascii	"OS_FN_SM2_FREE_CURVE\000"
 10964      4E5F534D 
 10964      325F4652 
 10964      45455F43 
 10964      55525645 
 10965              	.LASF485:
 10966 0933 4F535F46 		.ascii	"OS_FN_BATT_LEVEL2\000"
 10966      4E5F4241 
 10966      54545F4C 
 10966      4556454C 
 10966      3200
 10967              	.LASF288:
 10968 0945 4F535F46 		.ascii	"OS_FN_ADC_CH_ENABLE\000"
 10968      4E5F4144 
 10968      435F4348 
 10968      5F454E41 
 10968      424C4500 
 10969              	.LASF260:
 10970 0959 4F535F46 		.ascii	"OS_FN_FL_COPYB_START\000"
 10970      4E5F464C 
 10970      5F434F50 
 10970      59425F53 
 10970      54415254 
 10971              	.LASF47:
 10972 096e 4F535F46 		.ascii	"OS_FN_DISP_TEXTC\000"
 10972      4E5F4449 
 10972      53505F54 
 10972      45585443 
 10972      00
 10973              	.LASF673:
 10974 097f 774C656E 		.ascii	"wLen\000"
 10974      00
 10975              	.LASF143:
 10976 0984 4F535F46 		.ascii	"OS_FN_THREAD_POP\000"
 10976      4E5F5448 
 10976      52454144 
 10976      5F504F50 
ARM GAS  C:\Users\AHMED~1.ELE\AppData\Local\Temp\ccAhPyWN.s 			page 223


 10976      00
 10977              	.LASF319:
 10978 0995 4F535F46 		.ascii	"OS_FN_CODEC_STATUS\000"
 10978      4E5F434F 
 10978      4445435F 
 10978      53544154 
 10978      555300
 10979              	.LASF181:
 10980 09a8 4F535F46 		.ascii	"OS_FN_FILE_DSEARCH\000"
 10980      4E5F4649 
 10980      4C455F44 
 10980      53454152 
 10980      434800
 10981              	.LASF564:
 10982 09bb 4B5F4346 		.ascii	"K_CF_AbecsEnable\000"
 10982      5F416265 
 10982      6373456E 
 10982      61626C65 
 10982      00
 10983              	.LASF660:
 10984 09cc 54494D45 		.ascii	"TIMER_DEFAULTAPP\000"
 10984      525F4445 
 10984      4641554C 
 10984      54415050 
 10984      00
 10985              	.LASF404:
 10986 09dd 4F535F46 		.ascii	"OS_FN_WIFI_STATUS\000"
 10986      4E5F5749 
 10986      46495F53 
 10986      54415455 
 10986      5300
 10987              	.LASF725:
 10988 09ef 436F6E76 		.ascii	"ConvDecimal\000"
 10988      44656369 
 10988      6D616C00 
 10989              	.LASF640:
 10990 09fb 534D535F 		.ascii	"SMS_RX_MW\000"
 10990      52585F4D 
 10990      5700
 10991              	.LASF594:
 10992 0a05 55534246 		.ascii	"USBFPRT_GENERAL_INFO_END\000"
 10992      5052545F 
 10992      47454E45 
 10992      52414C5F 
 10992      494E464F 
 10993              	.LASF36:
 10994 0a1e 4F535F46 		.ascii	"OS_FN_DISP_OPEN\000"
 10994      4E5F4449 
 10994      53505F4F 
 10994      50454E00 
 10995              	.LASF38:
 10996 0a2e 4F535F46 		.ascii	"OS_FN_DISP_PUTC\000"
 10996      4E5F4449 
 10996      53505F50 
 10996      55544300 
 10997              	.LASF326:
 10998 0a3e 4F535F46 		.ascii	"OS_FN_CLICC_EMV_LV1\000"
ARM GAS  C:\Users\AHMED~1.ELE\AppData\Local\Temp\ccAhPyWN.s 			page 224


 10998      4E5F434C 
 10998      4943435F 
 10998      454D565F 
 10998      4C563100 
 10999              	.LASF42:
 11000 0a52 4F535F46 		.ascii	"OS_FN_DISP_PUTG\000"
 11000      4E5F4449 
 11000      53505F50 
 11000      55544700 
 11001              	.LASF132:
 11002 0a62 4F535F46 		.ascii	"OS_FN_KEY_SAVE_TMK_CBC_NC\000"
 11002      4E5F4B45 
 11002      595F5341 
 11002      56455F54 
 11002      4D4B5F43 
 11003              	.LASF606:
 11004 0a7c 46435245 		.ascii	"FCREATEMW\000"
 11004      4154454D 
 11004      5700
 11005              	.LASF40:
 11006 0a86 4F535F46 		.ascii	"OS_FN_DISP_PUTN\000"
 11006      4E5F4449 
 11006      53505F50 
 11006      55544E00 
 11007              	.LASF473:
 11008 0a96 4F535F46 		.ascii	"OS_FN_IMG_SENSOR_GET_FRAME\000"
 11008      4E5F494D 
 11008      475F5345 
 11008      4E534F52 
 11008      5F474554 
 11009              	.LASF43:
 11010 0ab1 4F535F46 		.ascii	"OS_FN_DISP_PUTP\000"
 11010      4E5F4449 
 11010      53505F50 
 11010      55545000 
 11011              	.LASF434:
 11012 0ac1 4F535F46 		.ascii	"OS_FN_DUMMY\000"
 11012      4E5F4455 
 11012      4D4D5900 
 11013              	.LASF318:
 11014 0acd 4F535F46 		.ascii	"OS_FN_CODEC_STOP\000"
 11014      4E5F434F 
 11014      4445435F 
 11014      53544F50 
 11014      00
 11015              	.LASF39:
 11016 0ade 4F535F46 		.ascii	"OS_FN_DISP_PUTS\000"
 11016      4E5F4449 
 11016      53505F50 
 11016      55545300 
 11017              	.LASF201:
 11018 0aee 4F535F46 		.ascii	"OS_FN_CONFIG_READ\000"
 11018      4E5F434F 
 11018      4E464947 
 11018      5F524541 
 11018      4400
 11019              	.LASF749:
ARM GAS  C:\Users\AHMED~1.ELE\AppData\Local\Temp\ccAhPyWN.s 			page 225


 11020 0b00 624D6178 		.ascii	"bMaxNumBlk\000"
 11020      4E756D42 
 11020      6C6B00
 11021              	.LASF502:
 11022 0b0b 4B5F4346 		.ascii	"K_CF_Gateway\000"
 11022      5F476174 
 11022      65776179 
 11022      00
 11023              	.LASF248:
 11024 0b18 4F535F46 		.ascii	"OS_FN_USBSER_STATUS\000"
 11024      4E5F5553 
 11024      42534552 
 11024      5F535441 
 11024      54555300 
 11025              	.LASF655:
 11026 0b2c 41504D5F 		.ascii	"APM_SDEV_WIFI\000"
 11026      53444556 
 11026      5F574946 
 11026      4900
 11027              	.LASF407:
 11028 0b3a 4F535F46 		.ascii	"OS_FN_NFC_OPEN_FELICA\000"
 11028      4E5F4E46 
 11028      435F4F50 
 11028      454E5F46 
 11028      454C4943 
 11029              	.LASF695:
 11030 0b50 61446574 		.ascii	"aDetail\000"
 11030      61696C00 
 11031              	.LASF154:
 11032 0b58 4F535F46 		.ascii	"OS_FN_LED_ON\000"
 11032      4E5F4C45 
 11032      445F4F4E 
 11032      00
 11033              	.LASF632:
 11034 0b65 44495350 		.ascii	"DISP_LINEMW\000"
 11034      5F4C494E 
 11034      454D5700 
 11035              	.LASF503:
 11036 0b71 4B5F4346 		.ascii	"K_CF_DNS1\000"
 11036      5F444E53 
 11036      3100
 11037              	.LASF166:
 11038 0b7b 4F535F46 		.ascii	"OS_FN_FILE_OPEN\000"
 11038      4E5F4649 
 11038      4C455F4F 
 11038      50454E00 
 11039              	.LASF176:
 11040 0b8b 4F535F46 		.ascii	"OS_FN_FILE_PUTC\000"
 11040      4E5F4649 
 11040      4C455F50 
 11040      55544300 
 11041              	.LASF729:
 11042 0b9b 66696C65 		.ascii	"filename\000"
 11042      6E616D65 
 11042      00
 11043              	.LASF142:
 11044 0ba4 4F535F46 		.ascii	"OS_FN_THREAD_PUSH\000"
ARM GAS  C:\Users\AHMED~1.ELE\AppData\Local\Temp\ccAhPyWN.s 			page 226


 11044      4E5F5448 
 11044      52454144 
 11044      5F505553 
 11044      4800
 11045              	.LASF672:
 11046 0bb6 454D565F 		.ascii	"EMV_FUNC_COUNT\000"
 11046      46554E43 
 11046      5F434F55 
 11046      4E5400
 11047              	.LASF600:
 11048 0bc5 57524954 		.ascii	"WRITEMW\000"
 11048      454D5700 
 11049              	.LASF717:
 11050 0bcd 61546167 		.ascii	"aTag\000"
 11050      00
 11051              	.LASF622:
 11052 0bd2 44495350 		.ascii	"DISPLOGOMW\000"
 11052      4C4F474F 
 11052      4D5700
 11053              	.LASF435:
 11054 0bdd 4F535F46 		.ascii	"OS_FN_OFF\000"
 11054      4E5F4F46 
 11054      4600
 11055              	.LASF524:
 11056 0be7 4B5F4346 		.ascii	"K_CF_SmsEnable\000"
 11056      5F536D73 
 11056      456E6162 
 11056      6C6500
 11057              	.LASF603:
 11058 0bf6 53544154 		.ascii	"STATMW\000"
 11058      4D5700
 11059              	.LASF19:
 11060 0bfd 4F535F46 		.ascii	"OS_FN_KBD_OPEN\000"
 11060      4E5F4B42 
 11060      445F4F50 
 11060      454E00
 11061              	.LASF657:
 11062 0c0c 54494D45 		.ascii	"TIMER_GEN\000"
 11062      525F4745 
 11062      4E00
 11063              	.LASF126:
 11064 0c16 4F535F46 		.ascii	"OS_FN_KEY_CUP_MAC\000"
 11064      4E5F4B45 
 11064      595F4355 
 11064      505F4D41 
 11064      4300
 11065              	.LASF768:
 11066 0c28 6C69625F 		.ascii	"lib_app_call\000"
 11066      6170705F 
 11066      63616C6C 
 11066      00
 11067              	.LASF741:
 11068 0c35 656D765F 		.ascii	"emv_cfg\000"
 11068      63666700 
 11069              	.LASF52:
 11070 0c3d 4F535F46 		.ascii	"OS_FN_DISP_ICON_PUTC\000"
 11070      4E5F4449 
ARM GAS  C:\Users\AHMED~1.ELE\AppData\Local\Temp\ccAhPyWN.s 			page 227


 11070      53505F49 
 11070      434F4E5F 
 11070      50555443 
 11071              	.LASF200:
 11072 0c52 4F535F46 		.ascii	"OS_FN_CONFIG_LENGTH\000"
 11072      4E5F434F 
 11072      4E464947 
 11072      5F4C454E 
 11072      47544800 
 11073              	.LASF263:
 11074 0c66 4F535F46 		.ascii	"OS_FN_FL_CREAD_RAND\000"
 11074      4E5F464C 
 11074      5F435245 
 11074      41445F52 
 11074      414E4400 
 11075              	.LASF613:
 11076 0c7a 46575249 		.ascii	"FWRITEMW\000"
 11076      54454D57 
 11076      00
 11077              	.LASF579:
 11078 0c83 4B5F4346 		.ascii	"K_CF_CLICC_CFG\000"
 11078      5F434C49 
 11078      43435F43 
 11078      464700
 11079              	.LASF616:
 11080 0c92 46445345 		.ascii	"FDSEARCHMW\000"
 11080      41524348 
 11080      4D5700
 11081              	.LASF136:
 11082 0c9d 4F535F46 		.ascii	"OS_FN_THREAD_OPEN\000"
 11082      4E5F5448 
 11082      52454144 
 11082      5F4F5045 
 11082      4E00
 11083              	.LASF175:
 11084 0caf 4F535F46 		.ascii	"OS_FN_FILE_WRITE\000"
 11084      4E5F4649 
 11084      4C455F57 
 11084      52495445 
 11084      00
 11085              	.LASF409:
 11086 0cc0 4F535F46 		.ascii	"OS_FN_NFC_CANCEL\000"
 11086      4E5F4E46 
 11086      435F4341 
 11086      4E43454C 
 11086      00
 11087              	.LASF625:
 11088 0cd1 5343484E 		.ascii	"SCHNLGETPINMW\000"
 11088      4C474554 
 11088      50494E4D 
 11088      5700
 11089              	.LASF719:
 11090 0cdf 624C656E 		.ascii	"bLen\000"
 11090      00
 11091              	.LASF711:
 11092 0ce4 61427566 		.ascii	"aBuf\000"
 11092      00
ARM GAS  C:\Users\AHMED~1.ELE\AppData\Local\Temp\ccAhPyWN.s 			page 228


 11093              	.LASF469:
 11094 0ce9 4F535F46 		.ascii	"OS_FN_WIFI_GET_DEVICE_STATE\000"
 11094      4E5F5749 
 11094      46495F47 
 11094      45545F44 
 11094      45564943 
 11095              	.LASF61:
 11096 0d05 4F535F46 		.ascii	"OS_FN_COM1_SEND\000"
 11096      4E5F434F 
 11096      4D315F53 
 11096      454E4400 
 11097              	.LASF135:
 11098 0d15 4F535F46 		.ascii	"OS_FN_PCI_DSS\000"
 11098      4E5F5043 
 11098      495F4453 
 11098      5300
 11099              	.LASF781:
 11100 0d23 433A5C54 		.ascii	"C:\\T1000-A5\\Projects\\APM\\apm_v3.0s03\000"
 11100      31303030 
 11100      2D41355C 
 11100      50726F6A 
 11100      65637473 
 11101              	.LASF638:
 11102 0d48 42535F43 		.ascii	"BS_CALL_MW\000"
 11102      414C4C5F 
 11102      4D5700
 11103              	.LASF353:
 11104 0d53 4F535F46 		.ascii	"OS_FN_INTERRUPT_UNREGISTER\000"
 11104      4E5F494E 
 11104      54455252 
 11104      5550545F 
 11104      554E5245 
 11105              	.LASF151:
 11106 0d6e 4F535F46 		.ascii	"OS_FN_LED_STATUS\000"
 11106      4E5F4C45 
 11106      445F5354 
 11106      41545553 
 11106      00
 11107              	.LASF69:
 11108 0d7f 4F535F46 		.ascii	"OS_FN_COM2_READ\000"
 11108      4E5F434F 
 11108      4D325F52 
 11108      45414400 
 11109              	.LASF492:
 11110 0d8f 4B5F4346 		.ascii	"K_CF_Tid\000"
 11110      5F546964 
 11110      00
 11111              	.LASF740:
 11112 0d98 5072696E 		.ascii	"PrintEMVParam\000"
 11112      74454D56 
 11112      50617261 
 11112      6D00
 11113              	.LASF30:
 11114 0da6 4F535F46 		.ascii	"OS_FN_BUZ_OPEN\000"
 11114      4E5F4255 
 11114      5A5F4F50 
 11114      454E00
ARM GAS  C:\Users\AHMED~1.ELE\AppData\Local\Temp\ccAhPyWN.s 			page 229


 11115              	.LASF328:
 11116 0db5 4F535F46 		.ascii	"OS_FN_CLICC_LED_CLOSE\000"
 11116      4E5F434C 
 11116      4943435F 
 11116      4C45445F 
 11116      434C4F53 
 11117              	.LASF700:
 11118 0dcb 7061636B 		.ascii	"pack_width\000"
 11118      5F776964 
 11118      746800
 11119              	.LASF226:
 11120 0dd6 4F535F46 		.ascii	"OS_FN_LAN_OPEN\000"
 11120      4E5F4C41 
 11120      4E5F4F50 
 11120      454E00
 11121              	.LASF630:
 11122 0de5 44495350 		.ascii	"DISP_CLRBELOWMW\000"
 11122      5F434C52 
 11122      42454C4F 
 11122      574D5700 
 11123              	.LASF448:
 11124 0df5 4F535F46 		.ascii	"OS_FN_LPT_GET_COUNT\000"
 11124      4E5F4C50 
 11124      545F4745 
 11124      545F434F 
 11124      554E5400 
 11125              	.LASF284:
 11126 0e09 4F535F46 		.ascii	"OS_FN_BATT_LEVEL\000"
 11126      4E5F4241 
 11126      54545F4C 
 11126      4556454C 
 11126      00
 11127              	.LASF432:
 11128 0e1a 4F535F46 		.ascii	"OS_FN_HD_CONFIG\000"
 11128      4E5F4844 
 11128      5F434F4E 
 11128      46494700 
 11129              	.LASF192:
 11130 0e2a 4F535F46 		.ascii	"OS_FN_FILE_FTRUNCATE\000"
 11130      4E5F4649 
 11130      4C455F46 
 11130      5452554E 
 11130      43415445 
 11131              	.LASF577:
 11132 0e3f 4B5F4346 		.ascii	"K_CF_WIFI_DNS1\000"
 11132      5F574946 
 11132      495F444E 
 11132      533100
 11133              	.LASF578:
 11134 0e4e 4B5F4346 		.ascii	"K_CF_WIFI_DNS2\000"
 11134      5F574946 
 11134      495F444E 
 11134      533200
 11135              	.LASF229:
 11136 0e5d 4F535F46 		.ascii	"OS_FN_LAN_TXRDY\000"
 11136      4E5F4C41 
 11136      4E5F5458 
ARM GAS  C:\Users\AHMED~1.ELE\AppData\Local\Temp\ccAhPyWN.s 			page 230


 11136      52445900 
 11137              	.LASF137:
 11138 0e6d 4F535F46 		.ascii	"OS_FN_THREAD_CLOSE\000"
 11138      4E5F5448 
 11138      52454144 
 11138      5F434C4F 
 11138      534500
 11139              	.LASF286:
 11140 0e80 4F535F46 		.ascii	"OS_FN_BATT_CONTROL\000"
 11140      4E5F4241 
 11140      54545F43 
 11140      4F4E5452 
 11140      4F4C00
 11141              	.LASF373:
 11142 0e93 4F535F46 		.ascii	"OS_FN_MIF_CARD_TYPE\000"
 11142      4E5F4D49 
 11142      465F4341 
 11142      52445F54 
 11142      59504500 
 11143              	.LASF220:
 11144 0ea7 4F535F46 		.ascii	"OS_FN_MMC_WRITE\000"
 11144      4E5F4D4D 
 11144      435F5752 
 11144      49544500 
 11145              	.LASF115:
 11146 0eb7 4F535F46 		.ascii	"OS_FN_SM3\000"
 11146      4E5F534D 
 11146      3300
 11147              	.LASF685:
 11148 0ec1 65544143 		.ascii	"eTACDenial\000"
 11148      44656E69 
 11148      616C00
 11149              	.LASF454:
 11150 0ecc 4F535F46 		.ascii	"OS_FN_ECC_KEYPAIR_GENERATE\000"
 11150      4E5F4543 
 11150      435F4B45 
 11150      59504149 
 11150      525F4745 
 11151              	.LASF276:
 11152 0ee7 4F535F46 		.ascii	"OS_FN_MCOM_PERMIT\000"
 11152      4E5F4D43 
 11152      4F4D5F50 
 11152      45524D49 
 11152      5400
 11153              	.LASF758:
 11154 0ef9 57616974 		.ascii	"WaitKey\000"
 11154      4B657900 
 11155              	.LASF708:
 11156 0f01 6B65795F 		.ascii	"key_info\000"
 11156      696E666F 
 11156      00
 11157              	.LASF389:
 11158 0f0a 4F535F46 		.ascii	"OS_FN_MIF_SENDCMD\000"
 11158      4E5F4D49 
 11158      465F5345 
 11158      4E44434D 
 11158      4400
ARM GAS  C:\Users\AHMED~1.ELE\AppData\Local\Temp\ccAhPyWN.s 			page 231


 11159              	.LASF697:
 11160 0f1c 7265745F 		.ascii	"ret_ok\000"
 11160      6F6B00
 11161              	.LASF22:
 11162 0f23 4F535F46 		.ascii	"OS_FN_KBD_SCODE\000"
 11162      4E5F4B42 
 11162      445F5343 
 11162      4F444500 
 11163              	.LASF753:
 11164 0f33 4B454D56 		.ascii	"KEMVTemp\000"
 11164      54656D70 
 11164      00
 11165              	.LASF529:
 11166 0f3c 4B5F4346 		.ascii	"K_CF_HwConfig\000"
 11166      5F487743 
 11166      6F6E6669 
 11166      6700
 11167              	.LASF519:
 11168 0f4a 4B5F4346 		.ascii	"K_CF_BattError\000"
 11168      5F426174 
 11168      74457272 
 11168      6F7200
 11169              	.LASF464:
 11170 0f59 4F535F46 		.ascii	"OS_FN_WIFI_SOCKET_CONNECT\000"
 11170      4E5F5749 
 11170      46495F53 
 11170      4F434B45 
 11170      545F434F 
 11171              	.LASF662:
 11172 0f73 54494D45 		.ascii	"TIMER_REMOTEDL\000"
 11172      525F5245 
 11172      4D4F5445 
 11172      444C00
 11173              	.LASF456:
 11174 0f82 4F535F46 		.ascii	"OS_FN_ECC_SCALAR_MULTIPLY\000"
 11174      4E5F4543 
 11174      435F5343 
 11174      414C4152 
 11174      5F4D554C 
 11175              	.LASF362:
 11176 0f9c 4F535F46 		.ascii	"OS_FN_USBKBD_OPEN\000"
 11176      4E5F5553 
 11176      424B4244 
 11176      5F4F5045 
 11176      4E00
 11177              	.LASF563:
 11178 0fae 4B5F4346 		.ascii	"K_CF_MdmMinAnsToneDur\000"
 11178      5F4D646D 
 11178      4D696E41 
 11178      6E73546F 
 11178      6E654475 
 11179              	.LASF379:
 11180 0fc4 4F535F46 		.ascii	"OS_FN_MIF_AUTH1\000"
 11180      4E5F4D49 
 11180      465F4155 
 11180      54483100 
 11181              	.LASF380:
ARM GAS  C:\Users\AHMED~1.ELE\AppData\Local\Temp\ccAhPyWN.s 			page 232


 11182 0fd4 4F535F46 		.ascii	"OS_FN_MIF_AUTH2\000"
 11182      4E5F4D49 
 11182      465F4155 
 11182      54483200 
 11183              	.LASF12:
 11184 0fe4 424F4F4C 		.ascii	"BOOLEAN\000"
 11184      45414E00 
 11185              	.LASF85:
 11186 0fec 4F535F46 		.ascii	"OS_FN_DES2\000"
 11186      4E5F4445 
 11186      533200
 11187              	.LASF750:
 11188 0ff7 62446E6C 		.ascii	"bDnloadBlk\000"
 11188      6F616442 
 11188      6C6B00
 11189              	.LASF387:
 11190 1002 4F535F46 		.ascii	"OS_FN_MIF_DEC_TRANS\000"
 11190      4E5F4D49 
 11190      465F4445 
 11190      435F5452 
 11190      414E5300 
 11191              	.LASF343:
 11192 1016 4F535F46 		.ascii	"OS_FN_DEVICE_REGISTER\000"
 11192      4E5F4445 
 11192      56494345 
 11192      5F524547 
 11192      49535445 
 11193              	.LASF692:
 11194 102c 70625F68 		.ascii	"pb_header\000"
 11194      65616465 
 11194      7200
 11195              	.LASF60:
 11196 1036 4F535F46 		.ascii	"OS_FN_COM1_READ\000"
 11196      4E5F434F 
 11196      4D315F52 
 11196      45414400 
 11197              	.LASF223:
 11198 1046 4F535F46 		.ascii	"OS_FN_SLE_CLOSE\000"
 11198      4E5F534C 
 11198      455F434C 
 11198      4F534500 
 11199              	.LASF491:
 11200 1056 4B5F4346 		.ascii	"K_CF_SerialNo\000"
 11200      5F536572 
 11200      69616C4E 
 11200      6F00
 11201              	.LASF160:
 11202 1064 4F535F46 		.ascii	"OS_FN_APP_CLR_VIRGIN\000"
 11202      4E5F4150 
 11202      505F434C 
 11202      525F5649 
 11202      5247494E 
 11203              	.LASF777:
 11204 1079 4C707450 		.ascii	"LptPutS\000"
 11204      75745300 
 11205              	.LASF159:
 11206 1081 4F535F46 		.ascii	"OS_FN_APP_GET_VIRGIN\000"
ARM GAS  C:\Users\AHMED~1.ELE\AppData\Local\Temp\ccAhPyWN.s 			page 233


 11206      4E5F4150 
 11206      505F4745 
 11206      545F5649 
 11206      5247494E 
 11207              	.LASF618:
 11208 1096 4B424453 		.ascii	"KBDSCODEMW\000"
 11208      434F4445 
 11208      4D5700
 11209              	.LASF208:
 11210 10a1 4F535F46 		.ascii	"OS_FN_SAM_ON\000"
 11210      4E5F5341 
 11210      4D5F4F4E 
 11210      00
 11211              	.LASF283:
 11212 10ae 4F535F46 		.ascii	"OS_FN_MCOM_SEND\000"
 11212      4E5F4D43 
 11212      4F4D5F53 
 11212      454E4400 
 11213              	.LASF728:
 11214 10be 454D5643 		.ascii	"EMVClrDnloadBuf\000"
 11214      6C72446E 
 11214      6C6F6164 
 11214      42756600 
 11215              	.LASF369:
 11216 10ce 4F535F46 		.ascii	"OS_FN_MIF_OPEN\000"
 11216      4E5F4D49 
 11216      465F4F50 
 11216      454E00
 11217              	.LASF245:
 11218 10dd 4F535F46 		.ascii	"OS_FN_USBSER_CLOSE\000"
 11218      4E5F5553 
 11218      42534552 
 11218      5F434C4F 
 11218      534500
 11219              	.LASF418:
 11220 10f0 4F535F46 		.ascii	"OS_FN_GPS_GET_INFO\000"
 11220      4E5F4750 
 11220      535F4745 
 11220      545F494E 
 11220      464F00
 11221              	.LASF532:
 11222 1103 4B5F4346 		.ascii	"K_CF_SNControlOff\000"
 11222      5F534E43 
 11222      6F6E7472 
 11222      6F6C4F66 
 11222      6600
 11223              	.LASF269:
 11224 1115 4F535F46 		.ascii	"OS_FN_MDM_DIAL\000"
 11224      4E5F4D44 
 11224      4D5F4449 
 11224      414C00
 11225              	.LASF139:
 11226 1124 4F535F46 		.ascii	"OS_FN_THREAD_DELETE\000"
 11226      4E5F5448 
 11226      52454144 
 11226      5F44454C 
 11226      45544500 
ARM GAS  C:\Users\AHMED~1.ELE\AppData\Local\Temp\ccAhPyWN.s 			page 234


 11227              	.LASF514:
 11228 1138 4B5F4346 		.ascii	"K_CF_EnforcePsw\000"
 11228      5F456E66 
 11228      6F726365 
 11228      50737700 
 11229              	.LASF149:
 11230 1148 4F535F46 		.ascii	"OS_FN_LED_OPEN\000"
 11230      4E5F4C45 
 11230      445F4F50 
 11230      454E00
 11231              	.LASF34:
 11232 1157 4F535F46 		.ascii	"OS_FN_RTC_GET\000"
 11232      4E5F5254 
 11232      435F4745 
 11232      5400
 11233              	.LASF401:
 11234 1165 4F535F46 		.ascii	"OS_FN_WIFI_CONTROL\000"
 11234      4E5F5749 
 11234      46495F43 
 11234      4F4E5452 
 11234      4F4C00
 11235              	.LASF153:
 11236 1178 4F535F46 		.ascii	"OS_FN_LED_CLEAR\000"
 11236      4E5F4C45 
 11236      445F434C 
 11236      45415200 
 11237              	.LASF445:
 11238 1188 4F535F46 		.ascii	"OS_FN_DTIMER_LATCH_STOP\000"
 11238      4E5F4454 
 11238      494D4552 
 11238      5F4C4154 
 11238      43485F53 
 11239              	.LASF354:
 11240 11a0 4F535F46 		.ascii	"OS_FN_BUS_START\000"
 11240      4E5F4255 
 11240      535F5354 
 11240      41525400 
 11241              	.LASF99:
 11242 11b0 4F535F46 		.ascii	"OS_FN_MD5_FINISH\000"
 11242      4E5F4D44 
 11242      355F4649 
 11242      4E495348 
 11242      00
 11243              	.LASF590:
 11244 11c1 55534246 		.ascii	"USBFPRT_GENERAL_INFO_MODEL\000"
 11244      5052545F 
 11244      47454E45 
 11244      52414C5F 
 11244      494E464F 
 11245              	.LASF416:
 11246 11dc 4F535F46 		.ascii	"OS_FN_GPS_ON\000"
 11246      4E5F4750 
 11246      535F4F4E 
 11246      00
 11247              	.LASF88:
 11248 11e9 4F535F46 		.ascii	"OS_FN_COM_DES2\000"
 11248      4E5F434F 
ARM GAS  C:\Users\AHMED~1.ELE\AppData\Local\Temp\ccAhPyWN.s 			page 235


 11248      4D5F4445 
 11248      533200
 11249              	.LASF317:
 11250 11f8 4F535F46 		.ascii	"OS_FN_CODEC_PLAY_RAM\000"
 11250      4E5F434F 
 11250      4445435F 
 11250      504C4159 
 11250      5F52414D 
 11251              	.LASF281:
 11252 120d 4F535F46 		.ascii	"OS_FN_MCOM_STATUS\000"
 11252      4E5F4D43 
 11252      4F4D5F53 
 11252      54415455 
 11252      5300
 11253              	.LASF580:
 11254 121f 4B5F4346 		.ascii	"K_CF_MIF_CFG\000"
 11254      5F4D4946 
 11254      5F434647 
 11254      00
 11255              	.LASF534:
 11256 122c 4B5F4346 		.ascii	"K_CF_LcdBOffset\000"
 11256      5F4C6364 
 11256      424F6666 
 11256      73657400 
 11257              	.LASF53:
 11258 123c 4F535F46 		.ascii	"OS_FN_DISP_ICON_TEXTC\000"
 11258      4E5F4449 
 11258      53505F49 
 11258      434F4E5F 
 11258      54455854 
 11259              	.LASF429:
 11260 1252 4F535F46 		.ascii	"OS_FN_POWER_SLEEP\000"
 11260      4E5F504F 
 11260      5745525F 
 11260      534C4545 
 11260      5000
 11261              	.LASF722:
 11262 1264 62756666 		.ascii	"buffer\000"
 11262      657200
 11263              	.LASF167:
 11264 126b 4F535F46 		.ascii	"OS_FN_FILE_CREATE\000"
 11264      4E5F4649 
 11264      4C455F43 
 11264      52454154 
 11264      4500
 11265              	.LASF239:
 11266 127d 4F535F46 		.ascii	"OS_FN_LPT_OPEN\000"
 11266      4E5F4C50 
 11266      545F4F50 
 11266      454E00
 11267              	.LASF241:
 11268 128c 4F535F46 		.ascii	"OS_FN_LPT_PUTC\000"
 11268      4E5F4C50 
 11268      545F5055 
 11268      544300
 11269              	.LASF231:
 11270 129b 4F535F46 		.ascii	"OS_FN_LAN_SEND\000"
ARM GAS  C:\Users\AHMED~1.ELE\AppData\Local\Temp\ccAhPyWN.s 			page 236


 11270      4E5F4C41 
 11270      4E5F5345 
 11270      4E4400
 11271              	.LASF547:
 11272 12aa 4B5F4346 		.ascii	"K_CF_BattStatData\000"
 11272      5F426174 
 11272      74537461 
 11272      74446174 
 11272      6100
 11273              	.LASF451:
 11274 12bc 4F535F46 		.ascii	"OS_FN_FPRT_SCAN_IMG\000"
 11274      4E5F4650 
 11274      52545F53 
 11274      43414E5F 
 11274      494D4700 
 11275              	.LASF309:
 11276 12d0 4F535F46 		.ascii	"OS_FN_TPAD_DEL_OBJ\000"
 11276      4E5F5450 
 11276      41445F44 
 11276      454C5F4F 
 11276      424A00
 11277              	.LASF605:
 11278 12e3 46535953 		.ascii	"FSYSINITMW\000"
 11278      494E4954 
 11278      4D5700
 11279              	.LASF602:
 11280 12ee 494F4354 		.ascii	"IOCTLMW\000"
 11280      4C4D5700 
 11281              	.LASF395:
 11282 12f6 4F535F46 		.ascii	"OS_FN_BARCODE_CMD\000"
 11282      4E5F4241 
 11282      52434F44 
 11282      455F434D 
 11282      4400
 11283              	.LASF244:
 11284 1308 4F535F46 		.ascii	"OS_FN_USBSER_OPEN\000"
 11284      4E5F5553 
 11284      42534552 
 11284      5F4F5045 
 11284      4E00
 11285              	.LASF433:
 11286 131a 4F535F46 		.ascii	"OS_FN_RDLL_APP\000"
 11286      4E5F5244 
 11286      4C4C5F41 
 11286      505000
 11287              	.LASF174:
 11288 1329 4F535F46 		.ascii	"OS_FN_FILE_READ\000"
 11288      4E5F4649 
 11288      4C455F52 
 11288      45414400 
 11289              	.LASF752:
 11290 1339 69446E6C 		.ascii	"iDnloadFile\000"
 11290      6F616446 
 11290      696C6500 
 11291              	.LASF544:
 11292 1345 4B5F4346 		.ascii	"K_CF_TcpHostEnable\000"
 11292      5F546370 
ARM GAS  C:\Users\AHMED~1.ELE\AppData\Local\Temp\ccAhPyWN.s 			page 237


 11292      486F7374 
 11292      456E6162 
 11292      6C6500
 11293              	.LASF506:
 11294 1358 4B5F4346 		.ascii	"K_CF_TCPPort\000"
 11294      5F544350 
 11294      506F7274 
 11294      00
 11295              	.LASF626:
 11296 1365 4C4C5345 		.ascii	"LLSEEKMW\000"
 11296      454B4D57 
 11296      00
 11297              	.LASF323:
 11298 136e 4F535F46 		.ascii	"OS_FN_CLICC_CLOSE\000"
 11298      4E5F434C 
 11298      4943435F 
 11298      434C4F53 
 11298      4500
 11299              	.LASF336:
 11300 1380 4F535F46 		.ascii	"OS_FN_USBHOST_STATUS\000"
 11300      4E5F5553 
 11300      42484F53 
 11300      545F5354 
 11300      41545553 
 11301              	.LASF552:
 11302 1395 4B5F4346 		.ascii	"K_CF_ReqSettleMsg\000"
 11302      5F526571 
 11302      53657474 
 11302      6C654D73 
 11302      6700
 11303              	.LASF480:
 11304 13a7 4F535F46 		.ascii	"OS_FN_DISP_PUTS_ANYWHERE\000"
 11304      4E5F4449 
 11304      53505F50 
 11304      5554535F 
 11304      414E5957 
 11305              	.LASF782:
 11306 13c0 73797374 		.ascii	"system_call_list\000"
 11306      656D5F63 
 11306      616C6C5F 
 11306      6C697374 
 11306      00
 11307              	.LASF644:
 11308 13d1 4652454E 		.ascii	"FRENAMEMW\000"
 11308      414D454D 
 11308      5700
 11309              	.LASF783:
 11310 13db 494E464F 		.ascii	"INFO_DATA\000"
 11310      5F444154 
 11310      4100
 11311              	.LASF225:
 11312 13e5 4F535F46 		.ascii	"OS_FN_SLE_IO\000"
 11312      4E5F534C 
 11312      455F494F 
 11312      00
 11313              	.LASF551:
 11314 13f2 4B5F4346 		.ascii	"K_CF_Settled\000"
ARM GAS  C:\Users\AHMED~1.ELE\AppData\Local\Temp\ccAhPyWN.s 			page 238


 11314      5F536574 
 11314      746C6564 
 11314      00
 11315              	.LASF738:
 11316 13ff 47657445 		.ascii	"GetEMVAppCfg\000"
 11316      4D564170 
 11316      70436667 
 11316      00
 11317              	.LASF271:
 11318 140c 4F535F46 		.ascii	"OS_FN_MDM_CID\000"
 11318      4E5F4D44 
 11318      4D5F4349 
 11318      4400
 11319              	.LASF663:
 11320 141a 4D41585F 		.ascii	"MAX_TIMER_SUPPORT\000"
 11320      54494D45 
 11320      525F5355 
 11320      50504F52 
 11320      5400
 11321              	.LASF277:
 11322 142c 4F535F46 		.ascii	"OS_FN_MCOM_RXRDY\000"
 11322      4E5F4D43 
 11322      4F4D5F52 
 11322      58524459 
 11322      00
 11323              	.LASF240:
 11324 143d 4F535F46 		.ascii	"OS_FN_LPT_CLOSE\000"
 11324      4E5F4C50 
 11324      545F434C 
 11324      4F534500 
 11325              	.LASF772:
 11326 144d 5061636B 		.ascii	"PackInfoData\000"
 11326      496E666F 
 11326      44617461 
 11326      00
 11327              	.LASF122:
 11328 145a 4F535F46 		.ascii	"OS_FN_KEY_RSA\000"
 11328      4E5F4B45 
 11328      595F5253 
 11328      4100
 11329              	.LASF205:
 11330 1468 4F535F46 		.ascii	"OS_FN_SAM_CLOSE\000"
 11330      4E5F5341 
 11330      4D5F434C 
 11330      4F534500 
 11331              	.LASF86:
 11332 1478 4F535F46 		.ascii	"OS_FN_COM_DESKEY\000"
 11332      4E5F434F 
 11332      4D5F4445 
 11332      534B4559 
 11332      00
 11333              	.LASF504:
 11334 1489 4B5F4346 		.ascii	"K_CF_DNS2\000"
 11334      5F444E53 
 11334      3200
 11335              	.LASF293:
 11336 1493 4F535F46 		.ascii	"OS_FN_GPRS_AT_CMD\000"
ARM GAS  C:\Users\AHMED~1.ELE\AppData\Local\Temp\ccAhPyWN.s 			page 239


 11336      4E5F4750 
 11336      52535F41 
 11336      545F434D 
 11336      4400
 11337              	.LASF481:
 11338 14a5 4F535F46 		.ascii	"OS_FN_BATT_CHARGE_NOW\000"
 11338      4E5F4241 
 11338      54545F43 
 11338      48415247 
 11338      455F4E4F 
 11339              	.LASF197:
 11340 14bb 4F535F46 		.ascii	"OS_FN_FILE_GET_LONGNAME\000"
 11340      4E5F4649 
 11340      4C455F47 
 11340      45545F4C 
 11340      4F4E474E 
 11341              	.LASF372:
 11342 14d3 4F535F46 		.ascii	"OS_FN_MIF_HALT\000"
 11342      4E5F4D49 
 11342      465F4841 
 11342      4C5400
 11343              	.LASF265:
 11344 14e2 4F535F46 		.ascii	"OS_FN_FL_CREAD_END\000"
 11344      4E5F464C 
 11344      5F435245 
 11344      41445F45 
 11344      4E4400
 11345              	.LASF238:
 11346 14f5 4F535F46 		.ascii	"OS_FN_MSR_STATUS\000"
 11346      4E5F4D53 
 11346      525F5354 
 11346      41545553 
 11346      00
 11347              	.LASF393:
 11348 1506 4F535F46 		.ascii	"OS_FN_BARCODE_OPEN\000"
 11348      4E5F4241 
 11348      52434F44 
 11348      455F4F50 
 11348      454E00
 11349              	.LASF471:
 11350 1519 4F535F46 		.ascii	"OS_FN_WIFI_SOCKET_LISTEN\000"
 11350      4E5F5749 
 11350      46495F53 
 11350      4F434B45 
 11350      545F4C49 
 11351              	.LASF247:
 11352 1532 4F535F46 		.ascii	"OS_FN_USBSER_WRITE\000"
 11352      4E5F5553 
 11352      42534552 
 11352      5F575249 
 11352      544500
 11353              	.LASF371:
 11354 1545 4F535F46 		.ascii	"OS_FN_MIF_CANCEL\000"
 11354      4E5F4D49 
 11354      465F4341 
 11354      4E43454C 
 11354      00
ARM GAS  C:\Users\AHMED~1.ELE\AppData\Local\Temp\ccAhPyWN.s 			page 240


 11355              	.LASF6:
 11356 1556 6C6F6E67 		.ascii	"long unsigned int\000"
 11356      20756E73 
 11356      69676E65 
 11356      6420696E 
 11356      7400
 11357              	.LASF48:
 11358 1568 4F535F46 		.ascii	"OS_FN_DISP_BACKC\000"
 11358      4E5F4449 
 11358      53505F42 
 11358      41434B43 
 11358      00
 11359              	.LASF44:
 11360 1579 4F535F46 		.ascii	"OS_FN_DISP_GETP\000"
 11360      4E5F4449 
 11360      53505F47 
 11360      45545000 
 11361              	.LASF424:
 11362 1589 4F535F46 		.ascii	"OS_FN_BREG_READ\000"
 11362      4E5F4252 
 11362      45475F52 
 11362      45414400 
 11363              	.LASF302:
 11364 1599 4F535F46 		.ascii	"OS_FN_GPRS_SMS_ACK\000"
 11364      4E5F4750 
 11364      52535F53 
 11364      4D535F41 
 11364      434B00
 11365              	.LASF17:
 11366 15ac 4F535F46 		.ascii	"OS_FN_RAND\000"
 11366      4E5F5241 
 11366      4E4400
 11367              	.LASF234:
 11368 15b7 4F535F46 		.ascii	"OS_FN_MSR_CLOSE\000"
 11368      4E5F4D53 
 11368      525F434C 
 11368      4F534500 
 11369              	.LASF770:
 11370 15c7 73747263 		.ascii	"strcpy\000"
 11370      707900
 11371              	.LASF680:
 11372 15ce 65547970 		.ascii	"eType\000"
 11372      6500
 11373              	.LASF620:
 11374 15d4 4445534D 		.ascii	"DESMW\000"
 11374      5700
 11375              	.LASF403:
 11376 15da 4F535F46 		.ascii	"OS_FN_WIFI_RECV_RESPONSE\000"
 11376      4E5F5749 
 11376      46495F52 
 11376      4543565F 
 11376      52455350 
 11377              	.LASF230:
 11378 15f3 4F535F46 		.ascii	"OS_FN_LAN_READ\000"
 11378      4E5F4C41 
 11378      4E5F5245 
 11378      414400
ARM GAS  C:\Users\AHMED~1.ELE\AppData\Local\Temp\ccAhPyWN.s 			page 241


 11379              	.LASF507:
 11380 1602 4B5F4346 		.ascii	"K_CF_DHCPEnable\000"
 11380      5F444843 
 11380      50456E61 
 11380      626C6500 
 11381              	.LASF595:
 11382 1612 53544152 		.ascii	"STARTUPMW\000"
 11382      5455504D 
 11382      5700
 11383              	.LASF730:
 11384 161c 454D564B 		.ascii	"EMVKillDnloadBuf\000"
 11384      696C6C44 
 11384      6E6C6F61 
 11384      64427566 
 11384      00
 11385              	.LASF779:
 11386 162d 474E5520 		.ascii	"GNU C 4.9.3 20141119 (release) [ARM/embedded-4_9-br"
 11386      4320342E 
 11386      392E3320 
 11386      32303134 
 11386      31313139 
 11387 1660 616E6368 		.ascii	"anch revision 218278] -mthumb -mcpu=cortex-a5 -mthu"
 11387      20726576 
 11387      6973696F 
 11387      6E203231 
 11387      38323738 
 11388 1693 6D622D69 		.ascii	"mb-interwork -mstructure-size-boundary=32 -mno-unal"
 11388      6E746572 
 11388      776F726B 
 11388      202D6D73 
 11388      74727563 
 11389 16c6 69676E65 		.ascii	"igned-access -g -Os -ffunction-sections -fsigned-ch"
 11389      642D6163 
 11389      63657373 
 11389      202D6720 
 11389      2D4F7320 
 11390 16f9 617200   		.ascii	"ar\000"
 11391              	.LASF462:
 11392 16fc 4F535F46 		.ascii	"OS_FN_GCM_AES_CLOSE\000"
 11392      4E5F4743 
 11392      4D5F4145 
 11392      535F434C 
 11392      4F534500 
 11393              	.LASF267:
 11394 1710 4F535F46 		.ascii	"OS_FN_MDM_OPEN\000"
 11394      4E5F4D44 
 11394      4D5F4F50 
 11394      454E00
 11395              	.LASF273:
 11396 171f 4F535F46 		.ascii	"OS_FN_MDM_LAST_CONN_STAT\000"
 11396      4E5F4D44 
 11396      4D5F4C41 
 11396      53545F43 
 11396      4F4E4E5F 
 11397              	.LASF428:
 11398 1738 4F535F46 		.ascii	"OS_FN_SLEEP\000"
 11398      4E5F534C 
ARM GAS  C:\Users\AHMED~1.ELE\AppData\Local\Temp\ccAhPyWN.s 			page 242


 11398      45455000 
 11399              	.LASF642:
 11400 1744 534D535F 		.ascii	"SMS_COUNT_MW\000"
 11400      434F554E 
 11400      545F4D57 
 11400      00
 11401              	.LASF242:
 11402 1751 4F535F46 		.ascii	"OS_FN_LPT_PUTDW\000"
 11402      4E5F4C50 
 11402      545F5055 
 11402      54445700 
 11403              	.LASF257:
 11404 1761 4F535F46 		.ascii	"OS_FN_FL_PGM_END\000"
 11404      4E5F464C 
 11404      5F50474D 
 11404      5F454E44 
 11404      00
 11405              	.LASF24:
 11406 1772 4F535F46 		.ascii	"OS_FN_KBD_LOCK\000"
 11406      4E5F4B42 
 11406      445F4C4F 
 11406      434B00
 11407              	.LASF476:
 11408 1781 4F535F46 		.ascii	"OS_FN_GPRS_IS_HL6RD\000"
 11408      4E5F4750 
 11408      52535F49 
 11408      535F484C 
 11408      36524400 
 11409              	.LASF538:
 11410 1795 4B5F4346 		.ascii	"K_CF_SysRdllInf\000"
 11410      5F537973 
 11410      52646C6C 
 11410      496E6600 
 11411              	.LASF152:
 11412 17a5 4F535F46 		.ascii	"OS_FN_LED_SET\000"
 11412      4E5F4C45 
 11412      445F5345 
 11412      5400
 11413              	.LASF610:
 11414 17b3 464C454E 		.ascii	"FLENGTHMW\000"
 11414      4754484D 
 11414      5700
 11415              	.LASF575:
 11416 17bd 4B5F4346 		.ascii	"K_CF_WIFI_IP_MASK\000"
 11416      5F574946 
 11416      495F4950 
 11416      5F4D4153 
 11416      4B00
 11417              	.LASF773:
 11418 17cf 73707269 		.ascii	"sprintf\000"
 11418      6E746600 
 11419              	.LASF661:
 11420 17d7 54494D45 		.ascii	"TIMER_WIFI\000"
 11420      525F5749 
 11420      464900
 11421              	.LASF455:
 11422 17e2 4F535F46 		.ascii	"OS_FN_ECC_PUBKEY_VERIFY\000"
ARM GAS  C:\Users\AHMED~1.ELE\AppData\Local\Temp\ccAhPyWN.s 			page 243


 11422      4E5F4543 
 11422      435F5055 
 11422      424B4559 
 11422      5F564552 
 11423              	.LASF364:
 11424 17fa 4F535F46 		.ascii	"OS_FN_USBKBD_INKEY\000"
 11424      4E5F5553 
 11424      424B4244 
 11424      5F494E4B 
 11424      455900
 11425              	.LASF68:
 11426 180d 4F535F46 		.ascii	"OS_FN_COM2_TXRDY\000"
 11426      4E5F434F 
 11426      4D325F54 
 11426      58524459 
 11426      00
 11427              	.LASF140:
 11428 181e 4F535F46 		.ascii	"OS_FN_THREAD_LOCK\000"
 11428      4E5F5448 
 11428      52454144 
 11428      5F4C4F43 
 11428      4B00
 11429              	.LASF557:
 11430 1830 4B5F4346 		.ascii	"K_CF_MirrorApp\000"
 11430      5F4D6972 
 11430      726F7241 
 11430      707000
 11431              	.LASF355:
 11432 183f 4F535F46 		.ascii	"OS_FN_BUS_STOP\000"
 11432      4E5F4255 
 11432      535F5354 
 11432      4F5000
 11433              	.LASF780:
 11434 184e 7372632F 		.ascii	"src/emvtrans.c\000"
 11434      656D7674 
 11434      72616E73 
 11434      2E6300
 11435              	.LASF513:
 11436 185d 4B5F4346 		.ascii	"K_CF_TamperPsw\000"
 11436      5F54616D 
 11436      70657250 
 11436      737700
 11437              	.LASF561:
 11438 186c 4B5F4346 		.ascii	"K_CF_MdmDTMFPwr\000"
 11438      5F4D646D 
 11438      44544D46 
 11438      50777200 
 11439              	.LASF756:
 11440 187c 47657445 		.ascii	"GetEMVKeyInfo\000"
 11440      4D564B65 
 11440      79496E66 
 11440      6F00
 11441              	.LASF554:
 11442 188a 4B5F4346 		.ascii	"K_CF_UserSignKeyLimit\000"
 11442      5F557365 
 11442      72536967 
 11442      6E4B6579 
ARM GAS  C:\Users\AHMED~1.ELE\AppData\Local\Temp\ccAhPyWN.s 			page 244


 11442      4C696D69 
 11443              	.LASF500:
 11444 18a0 4B5F4346 		.ascii	"K_CF_SnPrefix\000"
 11444      5F536E50 
 11444      72656669 
 11444      7800
 11445              	.LASF301:
 11446 18ae 4F535F46 		.ascii	"OS_FN_GPRS_SMS_DECODE\000"
 11446      4E5F4750 
 11446      52535F53 
 11446      4D535F44 
 11446      45434F44 
 11447              	.LASF279:
 11448 18c4 4F535F46 		.ascii	"OS_FN_MCOM_SREAD\000"
 11448      4E5F4D43 
 11448      4F4D5F53 
 11448      52454144 
 11448      00
 11449              	.LASF128:
 11450 18d5 4F535F46 		.ascii	"OS_FN_KEY_HASH\000"
 11450      4E5F4B45 
 11450      595F4841 
 11450      534800
 11451              	.LASF190:
 11452 18e4 4F535F46 		.ascii	"OS_FN_FILE_FREESPACE\000"
 11452      4E5F4649 
 11452      4C455F46 
 11452      52454553 
 11452      50414345 
 11453              	.LASF210:
 11454 18f9 4F535F46 		.ascii	"OS_FN_SAM_T1\000"
 11454      4E5F5341 
 11454      4D5F5431 
 11454      00
 11455              	.LASF710:
 11456 1906 54616747 		.ascii	"TagGet\000"
 11456      657400
 11457              	.LASF194:
 11458 190d 4F535F46 		.ascii	"OS_FN_FILE_READDIR\000"
 11458      4E5F4649 
 11458      4C455F52 
 11458      45414444 
 11458      495200
 11459              	.LASF32:
 11460 1920 4F535F46 		.ascii	"OS_FN_BUZ_BEEP\000"
 11460      4E5F4255 
 11460      5A5F4245 
 11460      455000
 11461              	.LASF440:
 11462 192f 4F535F46 		.ascii	"OS_FN_APPCALL_RETURN\000"
 11462      4E5F4150 
 11462      5043414C 
 11462      4C5F5245 
 11462      5455524E 
 11463              	.LASF120:
 11464 1944 4F535F46 		.ascii	"OS_FN_KEY_SAVE_TMK\000"
 11464      4E5F4B45 
ARM GAS  C:\Users\AHMED~1.ELE\AppData\Local\Temp\ccAhPyWN.s 			page 245


 11464      595F5341 
 11464      56455F54 
 11464      4D4B00
 11465              	.LASF493:
 11466 1957 4B5F4346 		.ascii	"K_CF_AppKekKvc\000"
 11466      5F417070 
 11466      4B656B4B 
 11466      766300
 11467              	.LASF520:
 11468 1966 4B5F4346 		.ascii	"K_CF_LcdBrightness\000"
 11468      5F4C6364 
 11468      42726967 
 11468      68746E65 
 11468      737300
 11469              	.LASF617:
 11470 1979 47455443 		.ascii	"GETCHARMW\000"
 11470      4841524D 
 11470      5700
 11471              	.LASF18:
 11472 1983 4F535F46 		.ascii	"OS_FN_RAND_UPDATE\000"
 11472      4E5F5241 
 11472      4E445F55 
 11472      50444154 
 11472      4500
 11473              	.LASF405:
 11474 1995 4F535F46 		.ascii	"OS_FN_WIFI_PROFILES_READ\000"
 11474      4E5F5749 
 11474      46495F50 
 11474      524F4649 
 11474      4C45535F 
 11475              	.LASF168:
 11476 19ae 4F535F46 		.ascii	"OS_FN_FILE_CLOSE\000"
 11476      4E5F4649 
 11476      4C455F43 
 11476      4C4F5345 
 11476      00
 11477              	.LASF164:
 11478 19bf 4F535F46 		.ascii	"OS_FN_FREE\000"
 11478      4E5F4652 
 11478      454500
 11479              	.LASF509:
 11480 19ca 4B5F4346 		.ascii	"K_CF_Tampered\000"
 11480      5F54616D 
 11480      70657265 
 11480      6400
 11481              	.LASF629:
 11482 19d8 44495350 		.ascii	"DISP_CLRLINEMW\000"
 11482      5F434C52 
 11482      4C494E45 
 11482      4D5700
 11483              	.LASF384:
 11484 19e7 4F535F46 		.ascii	"OS_FN_MIF_DEC\000"
 11484      4E5F4D49 
 11484      465F4445 
 11484      4300
 11485              	.LASF778:
 11486 19f5 5072696E 		.ascii	"PrintBuf\000"
ARM GAS  C:\Users\AHMED~1.ELE\AppData\Local\Temp\ccAhPyWN.s 			page 246


 11486      74427566 
 11486      00
 11487              	.LASF7:
 11488 19fe 6C6F6E67 		.ascii	"long long int\000"
 11488      206C6F6E 
 11488      6720696E 
 11488      7400
 11489              	.LASF37:
 11490 1a0c 4F535F46 		.ascii	"OS_FN_DISP_CLOSE\000"
 11490      4E5F4449 
 11490      53505F43 
 11490      4C4F5345 
 11490      00
 11491              	.LASF581:
 11492 1a1d 4B5F4346 		.ascii	"K_CF_NFC_CFG\000"
 11492      5F4E4643 
 11492      5F434647 
 11492      00
 11493              	.LASF619:
 11494 1a2a 4445534B 		.ascii	"DESKEYMW\000"
 11494      45594D57 
 11494      00
 11495              	.LASF360:
 11496 1a33 4F535F46 		.ascii	"OS_FN_NETDEV_EVENT\000"
 11496      4E5F4E45 
 11496      54444556 
 11496      5F455645 
 11496      4E5400
 11497              	.LASF71:
 11498 1a46 4F535F46 		.ascii	"OS_FN_COM2_STATUS\000"
 11498      4E5F434F 
 11498      4D325F53 
 11498      54415455 
 11498      5300
 11499              	.LASF574:
 11500 1a58 4B5F4346 		.ascii	"K_CF_WIFI_IP_ADDR\000"
 11500      5F574946 
 11500      495F4950 
 11500      5F414444 
 11500      5200
 11501              	.LASF366:
 11502 1a6a 4F535F46 		.ascii	"OS_FN_TAMPER_ON\000"
 11502      4E5F5441 
 11502      4D504552 
 11502      5F4F4E00 
 11503              	.LASF786:
 11504 1a7a 5F5F6275 		.ascii	"__builtin_strcpy\000"
 11504      696C7469 
 11504      6E5F7374 
 11504      72637079 
 11504      00
 11505              	.LASF709:
 11506 1a8b 54616753 		.ascii	"TagSize\000"
 11506      697A6500 
 11507              	.LASF681:
 11508 1a93 65426974 		.ascii	"eBitField\000"
 11508      4669656C 
ARM GAS  C:\Users\AHMED~1.ELE\AppData\Local\Temp\ccAhPyWN.s 			page 247


 11508      6400
 11509              	.LASF607:
 11510 1a9d 4644454C 		.ascii	"FDELETEMW\000"
 11510      4554454D 
 11510      5700
 11511              	.LASF297:
 11512 1aa7 4F535F46 		.ascii	"OS_FN_GPRS_RESET\000"
 11512      4E5F4750 
 11512      52535F52 
 11512      45534554 
 11512      00
 11513              	.LASF586:
 11514 1ab8 4B5F4346 		.ascii	"K_CF_WIFI_DEFAULT_AP\000"
 11514      5F574946 
 11514      495F4445 
 11514      4641554C 
 11514      545F4150 
 11515              	.LASF394:
 11516 1acd 4F535F46 		.ascii	"OS_FN_BARCODE_CLOSE\000"
 11516      4E5F4241 
 11516      52434F44 
 11516      455F434C 
 11516      4F534500 
 11517              	.LASF112:
 11518 1ae1 4F535F46 		.ascii	"OS_FN_SM2_DECRYPT\000"
 11518      4E5F534D 
 11518      325F4445 
 11518      43525950 
 11518      5400
 11519              	.LASF259:
 11520 1af3 4F535F46 		.ascii	"OS_FN_FL_ERASE_END\000"
 11520      4E5F464C 
 11520      5F455241 
 11520      53455F45 
 11520      4E4400
 11521              	.LASF295:
 11522 1b06 4F535F46 		.ascii	"OS_FN_GPRS_SEND\000"
 11522      4E5F4750 
 11522      52535F53 
 11522      454E4400 
 11523              	.LASF243:
 11524 1b16 4F535F46 		.ascii	"OS_FN_LPT_STATUS\000"
 11524      4E5F4C50 
 11524      545F5354 
 11524      41545553 
 11524      00
 11525              	.LASF51:
 11526 1b27 4F535F46 		.ascii	"OS_FN_DISP_ICON_COLOR\000"
 11526      4E5F4449 
 11526      53505F49 
 11526      434F4E5F 
 11526      434F4C4F 
 11527              	.LASF592:
 11528 1b3d 55534246 		.ascii	"USBFPRT_GENERAL_INFO_IMG_HEIGHT\000"
 11528      5052545F 
 11528      47454E45 
 11528      52414C5F 
ARM GAS  C:\Users\AHMED~1.ELE\AppData\Local\Temp\ccAhPyWN.s 			page 248


 11528      494E464F 
 11529              	.LASF157:
 11530 1b5d 4F535F46 		.ascii	"OS_FN_APP_SEARCH_ID\000"
 11530      4E5F4150 
 11530      505F5345 
 11530      41524348 
 11530      5F494400 
 11531              	.LASF349:
 11532 1b71 4F535F46 		.ascii	"OS_FN_DEVICE_OPEN\000"
 11532      4E5F4445 
 11532      56494345 
 11532      5F4F5045 
 11532      4E00
 11533              	.LASF55:
 11534 1b83 4F535F46 		.ascii	"OS_FN_DISP_OVERLAY\000"
 11534      4E5F4449 
 11534      53505F4F 
 11534      5645524C 
 11534      415900
 11535              	.LASF313:
 11536 1b96 4F535F46 		.ascii	"OS_FN_TPAD_RAW_POS\000"
 11536      4E5F5450 
 11536      41445F52 
 11536      41575F50 
 11536      4F5300
 11537              	.LASF518:
 11538 1ba9 4B5F4346 		.ascii	"K_CF_BattChgMode\000"
 11538      5F426174 
 11538      74436867 
 11538      4D6F6465 
 11538      00
 11539              	.LASF654:
 11540 1bba 41504D5F 		.ascii	"APM_SDEV_MDM\000"
 11540      53444556 
 11540      5F4D444D 
 11540      00
 11541              	.LASF652:
 11542 1bc7 41504D5F 		.ascii	"APM_SDEV_PPP\000"
 11542      53444556 
 11542      5F505050 
 11542      00
 11543              	.LASF83:
 11544 1bd4 4F535F46 		.ascii	"OS_FN_DESKEY\000"
 11544      4E5F4445 
 11544      534B4559 
 11544      00
 11545              	.LASF58:
 11546 1be1 4F535F46 		.ascii	"OS_FN_COM1_RXRDY\000"
 11546      4E5F434F 
 11546      4D315F52 
 11546      58524459 
 11546      00
 11547              	.LASF246:
 11548 1bf2 4F535F46 		.ascii	"OS_FN_USBSER_READ\000"
 11548      4E5F5553 
 11548      42534552 
 11548      5F524541 
ARM GAS  C:\Users\AHMED~1.ELE\AppData\Local\Temp\ccAhPyWN.s 			page 249


 11548      4400
 11549              	.LASF98:
 11550 1c04 4F535F46 		.ascii	"OS_FN_MD5_PROCESS\000"
 11550      4E5F4D44 
 11550      355F5052 
 11550      4F434553 
 11550      5300
 11551              	.LASF704:
 11552 1c16 614B6579 		.ascii	"aKeyInfo\000"
 11552      496E666F 
 11552      00
 11553              	.LASF377:
 11554 1c1f 4F535F46 		.ascii	"OS_FN_MIF_SELECT\000"
 11554      4E5F4D49 
 11554      465F5345 
 11554      4C454354 
 11554      00
 11555              	.LASF744:
 11556 1c30 696E6974 		.ascii	"init_mode\000"
 11556      5F6D6F64 
 11556      6500
 11557              	.LASF601:
 11558 1c3a 4C534545 		.ascii	"LSEEKMW\000"
 11558      4B4D5700 
 11559              	.LASF698:
 11560 1c42 705F6D65 		.ascii	"p_mem\000"
 11560      6D00
 11561              	.LASF671:
 11562 1c48 454D565F 		.ascii	"EMV_OSF_OWNER_EXPORT\000"
 11562      4F53465F 
 11562      4F574E45 
 11562      525F4558 
 11562      504F5254 
 11563              	.LASF748:
 11564 1c5d 62456D76 		.ascii	"bEmvLoaded\000"
 11564      4C6F6164 
 11564      656400
 11565              	.LASF569:
 11566 1c68 4B5F4346 		.ascii	"K_CF_SysRebootEnable\000"
 11566      5F537973 
 11566      5265626F 
 11566      6F74456E 
 11566      61626C65 
 11567              	.LASF59:
 11568 1c7d 4F535F46 		.ascii	"OS_FN_COM1_TXRDY\000"
 11568      4E5F434F 
 11568      4D315F54 
 11568      58524459 
 11568      00
 11569              	.LASF170:
 11570 1c8e 4F535F46 		.ascii	"OS_FN_FILE_RENAME\000"
 11570      4E5F4649 
 11570      4C455F52 
 11570      454E414D 
 11570      4500
 11571              	.LASF450:
 11572 1ca0 4F535F46 		.ascii	"OS_FN_FPRT_CLOSE\000"
ARM GAS  C:\Users\AHMED~1.ELE\AppData\Local\Temp\ccAhPyWN.s 			page 250


 11572      4E5F4650 
 11572      52545F43 
 11572      4C4F5345 
 11572      00
 11573              	.LASF125:
 11574 1cb1 4F535F46 		.ascii	"OS_FN_KEY_DUKPT_MAC_CAL\000"
 11574      4E5F4B45 
 11574      595F4455 
 11574      4B50545F 
 11574      4D41435F 
 11575              	.LASF352:
 11576 1cc9 4F535F46 		.ascii	"OS_FN_INTERRUPT_REGISTER\000"
 11576      4E5F494E 
 11576      54455252 
 11576      5550545F 
 11576      52454749 
 11577              	.LASF211:
 11578 1ce2 4F535F46 		.ascii	"OS_FN_SAM_CHANGE\000"
 11578      4E5F5341 
 11578      4D5F4348 
 11578      414E4745 
 11578      00
 11579              	.LASF598:
 11580 1cf3 434C4F53 		.ascii	"CLOSEMW\000"
 11580      454D5700 
 11581              	.LASF184:
 11582 1cfb 4F535F46 		.ascii	"OS_FN_FILE_ACTIVATE\000"
 11582      4E5F4649 
 11582      4C455F41 
 11582      43544956 
 11582      41544500 
 11583              	.LASF45:
 11584 1d0f 4F535F46 		.ascii	"OS_FN_DISP_LENGTH\000"
 11584      4E5F4449 
 11584      53505F4C 
 11584      454E4754 
 11584      4800
 11585              	.LASF643:
 11586 1d21 534D535F 		.ascii	"SMS_CLEAR_ALL_MW\000"
 11586      434C4541 
 11586      525F414C 
 11586      4C5F4D57 
 11586      00
 11587              	.LASF452:
 11588 1d32 4F535F46 		.ascii	"OS_FN_FPRT_INFO_SET\000"
 11588      4E5F4650 
 11588      52545F49 
 11588      4E464F5F 
 11588      53455400 
 11589              	.LASF523:
 11590 1d46 4B5F4346 		.ascii	"K_CF_IncomingCall\000"
 11590      5F496E63 
 11590      6F6D696E 
 11590      6743616C 
 11590      6C00
 11591              	.LASF0:
 11592 1d58 756E7369 		.ascii	"unsigned int\000"
ARM GAS  C:\Users\AHMED~1.ELE\AppData\Local\Temp\ccAhPyWN.s 			page 251


 11592      676E6564 
 11592      20696E74 
 11592      00
 11593              	.LASF496:
 11594 1d65 4B5F4346 		.ascii	"K_CF_IP\000"
 11594      5F495000 
 11595              	.LASF759:
 11596 1d6d 7379735F 		.ascii	"sys_func0\000"
 11596      66756E63 
 11596      3000
 11597              	.LASF757:
 11598 1d77 7379735F 		.ascii	"sys_func1\000"
 11598      66756E63 
 11598      3100
 11599              	.LASF769:
 11600 1d81 7379735F 		.ascii	"sys_func2\000"
 11600      66756E63 
 11600      3200
 11601              	.LASF446:
 11602 1d8b 4F535F46 		.ascii	"OS_FN_DTIMER_LATCH_TIME\000"
 11602      4E5F4454 
 11602      494D4552 
 11602      5F4C4154 
 11602      43485F54 
 11603              	.LASF96:
 11604 1da3 4F535F46 		.ascii	"OS_FN_SHA1\000"
 11604      4E5F5348 
 11604      413100
 11605              	.LASF324:
 11606 1dae 4F535F46 		.ascii	"OS_FN_CLICC_SENDCOMMAND\000"
 11606      4E5F434C 
 11606      4943435F 
 11606      53454E44 
 11606      434F4D4D 
 11607              	.LASF437:
 11608 1dc6 4F535F46 		.ascii	"OS_FN_DLL_REQ\000"
 11608      4E5F444C 
 11608      4C5F5245 
 11608      5100
 11609              	.LASF553:
 11610 1dd4 4B5F4346 		.ascii	"K_CF_FreqBand\000"
 11610      5F467265 
 11610      7142616E 
 11610      6400
 11611              	.LASF397:
 11612 1de2 4F535F46 		.ascii	"OS_FN_BARCODE_READ\000"
 11612      4E5F4241 
 11612      52434F44 
 11612      455F5245 
 11612      414400
 11613              	.LASF635:
 11614 1df5 44495350 		.ascii	"DISP_PUTGMW\000"
 11614      5F505554 
 11614      474D5700 
 11615              	.LASF474:
 11616 1e01 4F535F46 		.ascii	"OS_FN_IMG_SENSOR_GET_FRAME_COMPLETE\000"
 11616      4E5F494D 
ARM GAS  C:\Users\AHMED~1.ELE\AppData\Local\Temp\ccAhPyWN.s 			page 252


 11616      475F5345 
 11616      4E534F52 
 11616      5F474554 
 11617              	.LASF298:
 11618 1e25 4F535F46 		.ascii	"OS_FN_GPRS_CONTROL\000"
 11618      4E5F4750 
 11618      52535F43 
 11618      4F4E5452 
 11618      4F4C00
 11619              	.LASF419:
 11620 1e38 4F535F46 		.ascii	"OS_FN_GPRS_GET_GPS_INFO\000"
 11620      4E5F4750 
 11620      52535F47 
 11620      45545F47 
 11620      50535F49 
 11621              	.LASF716:
 11622 1e50 61537263 		.ascii	"aSrc\000"
 11622      00
 11623              	.LASF127:
 11624 1e55 4F535F46 		.ascii	"OS_FN_KEY_CBC_MAC\000"
 11624      4E5F4B45 
 11624      595F4342 
 11624      435F4D41 
 11624      4300
 11625              	.LASF93:
 11626 1e67 4F535F46 		.ascii	"OS_FN_AES_SETUP_KEY\000"
 11626      4E5F4145 
 11626      535F5345 
 11626      5455505F 
 11626      4B455900 
 11627              	.LASF350:
 11628 1e7b 4F535F46 		.ascii	"OS_FN_DEVICE_MOUNT\000"
 11628      4E5F4445 
 11628      56494345 
 11628      5F4D4F55 
 11628      4E5400
 11629              	.LASF89:
 11630 1e8e 4F535F46 		.ascii	"OS_FN_NEW_DES\000"
 11630      4E5F4E45 
 11630      575F4445 
 11630      5300
 11631              	.LASF232:
 11632 1e9c 4F535F46 		.ascii	"OS_FN_LAN_STATUS\000"
 11632      4E5F4C41 
 11632      4E5F5354 
 11632      41545553 
 11632      00
 11633              	.LASF183:
 11634 1ead 4F535F46 		.ascii	"OS_FN_FILE_DEACTIVATE\000"
 11634      4E5F4649 
 11634      4C455F44 
 11634      45414354 
 11634      49564154 
 11635              	.LASF566:
 11636 1ec3 4B5F4346 		.ascii	"K_CF_AgentLogged\000"
 11636      5F416765 
 11636      6E744C6F 
ARM GAS  C:\Users\AHMED~1.ELE\AppData\Local\Temp\ccAhPyWN.s 			page 253


 11636      67676564 
 11636      00
 11637              	.LASF718:
 11638 1ed4 774E6577 		.ascii	"wNew\000"
 11638      00
 11639              	.LASF765:
 11640 1ed9 62696E32 		.ascii	"bin2dec\000"
 11640      64656300 
 11641              	.LASF688:
 11642 1ee1 65414346 		.ascii	"eACFG\000"
 11642      4700
 11643              	.LASF537:
 11644 1ee7 4B5F4346 		.ascii	"K_CF_CurRdllInf\000"
 11644      5F437572 
 11644      52646C6C 
 11644      496E6600 
 11645              	.LASF264:
 11646 1ef7 4F535F46 		.ascii	"OS_FN_FL_CREAD\000"
 11646      4E5F464C 
 11646      5F435245 
 11646      414400
 11647              	.LASF637:
 11648 1f06 4F535F43 		.ascii	"OS_CALL_MW\000"
 11648      414C4C5F 
 11648      4D5700
 11649              	.LASF415:
 11650 1f11 4F535F46 		.ascii	"OS_FN_NFC_IC_REG_DIRECT_READ\000"
 11650      4E5F4E46 
 11650      435F4943 
 11650      5F524547 
 11650      5F444952 
 11651              	.LASF535:
 11652 1f2e 4B5F4346 		.ascii	"K_CF_Logo\000"
 11652      5F4C6F67 
 11652      6F00
 11653              	.LASF540:
 11654 1f38 4B5F4346 		.ascii	"K_CF_SensitiveBlock\000"
 11654      5F53656E 
 11654      73697469 
 11654      7665426C 
 11654      6F636B00 
 11655              	.LASF388:
 11656 1f4c 4F535F46 		.ascii	"OS_FN_MIF_SNO\000"
 11656      4E5F4D49 
 11656      465F534E 
 11656      4F00
 11657              	.LASF130:
 11658 1f5a 4F535F46 		.ascii	"OS_FN_KEY_SAVE_TMK_NC\000"
 11658      4E5F4B45 
 11658      595F5341 
 11658      56455F54 
 11658      4D4B5F4E 
 11659              	.LASF251:
 11660 1f70 4F535F46 		.ascii	"OS_FN_FL_STATUS\000"
 11660      4E5F464C 
 11660      5F535441 
 11660      54555300 
ARM GAS  C:\Users\AHMED~1.ELE\AppData\Local\Temp\ccAhPyWN.s 			page 254


 11661              	.LASF306:
 11662 1f80 4F535F46 		.ascii	"OS_FN_TPAD_OPEN\000"
 11662      4E5F5450 
 11662      41445F4F 
 11662      50454E00 
 11663              	.LASF584:
 11664 1f90 4B5F4346 		.ascii	"K_CF_LogoDeactivate\000"
 11664      5F4C6F67 
 11664      6F446561 
 11664      63746976 
 11664      61746500 
 11665              	.LASF589:
 11666 1fa4 4B5F4346 		.ascii	"K_CF_Max\000"
 11666      5F4D6178 
 11666      00
 11667              	.LASF224:
 11668 1fad 4F535F46 		.ascii	"OS_FN_SLE_HIST\000"
 11668      4E5F534C 
 11668      455F4849 
 11668      535400
 11669              	.LASF425:
 11670 1fbc 4F535F46 		.ascii	"OS_FN_BREG_WRITE\000"
 11670      4E5F4252 
 11670      45475F57 
 11670      52495445 
 11670      00
 11671              	.LASF117:
 11672 1fcd 4F535F46 		.ascii	"OS_FN_SM4_ENCRYPT\000"
 11672      4E5F534D 
 11672      345F454E 
 11672      43525950 
 11672      5400
 11673              	.LASF216:
 11674 1fdf 4F535F46 		.ascii	"OS_FN_MMC_PSTATUS\000"
 11674      4E5F4D4D 
 11674      435F5053 
 11674      54415455 
 11674      5300
 11675              	.LASF430:
 11676 1ff1 4F535F46 		.ascii	"OS_FN_RESET\000"
 11676      4E5F5245 
 11676      53455400 
 11677              	.LASF258:
 11678 1ffd 4F535F46 		.ascii	"OS_FN_FL_ERASE_START\000"
 11678      4E5F464C 
 11678      5F455241 
 11678      53455F53 
 11678      54415254 
 11679              	.LASF316:
 11680 2012 4F535F46 		.ascii	"OS_FN_CODEC_PLAY\000"
 11680      4E5F434F 
 11680      4445435F 
 11680      504C4159 
 11680      00
 11681              	.LASF50:
 11682 2023 4F535F46 		.ascii	"OS_FN_DISP_BL_CONTROL\000"
 11682      4E5F4449 
ARM GAS  C:\Users\AHMED~1.ELE\AppData\Local\Temp\ccAhPyWN.s 			page 255


 11682      53505F42 
 11682      4C5F434F 
 11682      4E54524F 
 11683              	.LASF14:
 11684 2039 574F5244 		.ascii	"WORD\000"
 11684      00
 11685              	.LASF357:
 11686 203e 4F535F46 		.ascii	"OS_FN_NETDEV_OPEN\000"
 11686      4E5F4E45 
 11686      54444556 
 11686      5F4F5045 
 11686      4E00
 11687              	.LASF461:
 11688 2050 4F535F46 		.ascii	"OS_FN_GCM_AES_FINISH\000"
 11688      4E5F4743 
 11688      4D5F4145 
 11688      535F4649 
 11688      4E495348 
 11689              	.LASF2:
 11690 2065 756E7369 		.ascii	"unsigned char\000"
 11690      676E6564 
 11690      20636861 
 11690      7200
 11691              	.LASF330:
 11692 2073 4F535F46 		.ascii	"OS_FN_CLICC_LED_SET\000"
 11692      4E5F434C 
 11692      4943435F 
 11692      4C45445F 
 11692      53455400 
 11693              	.LASF764:
 11694 2087 6C62696E 		.ascii	"lbin2asc\000"
 11694      32617363 
 11694      00
 11695              	.LASF408:
 11696 2090 4F535F46 		.ascii	"OS_FN_NFC_SEND_FELICA_COMMAND\000"
 11696      4E5F4E46 
 11696      435F5345 
 11696      4E445F46 
 11696      454C4943 
 11697              	.LASF41:
 11698 20ae 4F535F46 		.ascii	"OS_FN_DISP_GETG\000"
 11698      4E5F4449 
 11698      53505F47 
 11698      45544700 
 11699              	.LASF713:
 11700 20be 544C4765 		.ascii	"TLGet\000"
 11700      7400
 11701              	.LASF325:
 11702 20c4 4F535F46 		.ascii	"OS_FN_CLICC_CTRL\000"
 11702      4E5F434C 
 11702      4943435F 
 11702      4354524C 
 11702      00
 11703              	.LASF546:
 11704 20d5 4B5F4346 		.ascii	"K_CF_ARPIp\000"
 11704      5F415250 
 11704      497000
ARM GAS  C:\Users\AHMED~1.ELE\AppData\Local\Temp\ccAhPyWN.s 			page 256


 11705              	.LASF521:
 11706 20e0 4B5F4346 		.ascii	"K_CF_LcdTimeout\000"
 11706      5F4C6364 
 11706      54696D65 
 11706      6F757400 
 11707              	.LASF498:
 11708 20f0 4B5F4346 		.ascii	"K_CF_Tpad\000"
 11708      5F547061 
 11708      6400
 11709              	.LASF218:
 11710 20fa 4F535F46 		.ascii	"OS_FN_MMC_BLK_WRITE\000"
 11710      4E5F4D4D 
 11710      435F424C 
 11710      4B5F5752 
 11710      49544500 
 11711              	.LASF536:
 11712 210e 4B5F4346 		.ascii	"K_CF_PublicKey\000"
 11712      5F507562 
 11712      6C69634B 
 11712      657900
 11713              	.LASF363:
 11714 211d 4F535F46 		.ascii	"OS_FN_USBKBD_CLOSE\000"
 11714      4E5F5553 
 11714      424B4244 
 11714      5F434C4F 
 11714      534500
 11715              	.LASF187:
 11716 2130 4F535F46 		.ascii	"OS_FN_FILE_AUTH\000"
 11716      4E5F4649 
 11716      4C455F41 
 11716      55544800 
 11717              	.LASF266:
 11718 2140 4F535F46 		.ascii	"OS_FN_FL_COPYBACK\000"
 11718      4E5F464C 
 11718      5F434F50 
 11718      59424143 
 11718      4B00
 11719              	.LASF21:
 11720 2152 4F535F46 		.ascii	"OS_FN_KBD_INKEY\000"
 11720      4E5F4B42 
 11720      445F494E 
 11720      4B455900 
 11721              	.LASF702:
 11722 2162 436C7245 		.ascii	"ClrEMVKey\000"
 11722      4D564B65 
 11722      7900
 11723              	.LASF787:
 11724 216c 4D656D46 		.ascii	"MemFatalErr\000"
 11724      6174616C 
 11724      45727200 
 11725              	.LASF29:
 11726 2178 4F535F46 		.ascii	"OS_FN_TIMER_GET\000"
 11726      4E5F5449 
 11726      4D45525F 
 11726      47455400 
 11727              	.LASF77:
 11728 2188 4F535F46 		.ascii	"OS_FN_COM3_TXRDY\000"
ARM GAS  C:\Users\AHMED~1.ELE\AppData\Local\Temp\ccAhPyWN.s 			page 257


 11728      4E5F434F 
 11728      4D335F54 
 11728      58524459 
 11728      00
 11729              	.LASF178:
 11730 2199 4F535F46 		.ascii	"OS_FN_FILE_LENGTH\000"
 11730      4E5F4649 
 11730      4C455F4C 
 11730      454E4754 
 11730      4800
 11731              	.LASF488:
 11732 21ab 454E445F 		.ascii	"END_OF_OS_FN_LIST\000"
 11732      4F465F4F 
 11732      535F464E 
 11732      5F4C4953 
 11732      5400
 11733              	.LASF636:
 11734 21bd 4745545F 		.ascii	"GET_LCD_TYPEMW\000"
 11734      4C43445F 
 11734      54595045 
 11734      4D5700
 11735              	.LASF162:
 11736 21cc 4F535F46 		.ascii	"OS_FN_MALLOC\000"
 11736      4E5F4D41 
 11736      4C4C4F43 
 11736      00
 11737              	.LASF365:
 11738 21d9 4F535F46 		.ascii	"OS_FN_USBKBD_GETKEY\000"
 11738      4E5F5553 
 11738      424B4244 
 11738      5F474554 
 11738      4B455900 
 11739              	.LASF583:
 11740 21ed 4B5F4346 		.ascii	"K_CF_Bc2DSensitivity\000"
 11740      5F426332 
 11740      4453656E 
 11740      73697469 
 11740      76697479 
 11741              	.LASF444:
 11742 2202 4F535F46 		.ascii	"OS_FN_DTIMER_LATCH_START\000"
 11742      4E5F4454 
 11742      494D4552 
 11742      5F4C4154 
 11742      43485F53 
 11743              	.LASF420:
 11744 221b 4F535F46 		.ascii	"OS_FN_GPS_CMD\000"
 11744      4E5F4750 
 11744      535F434D 
 11744      4400
 11745              	.LASF585:
 11746 2229 4B5F4346 		.ascii	"K_CF_WIFI_AP_PROFILE\000"
 11746      5F574946 
 11746      495F4150 
 11746      5F50524F 
 11746      46494C45 
 11747              	.LASF400:
 11748 223e 4F535F46 		.ascii	"OS_FN_BARCODE_ENABLED\000"
ARM GAS  C:\Users\AHMED~1.ELE\AppData\Local\Temp\ccAhPyWN.s 			page 258


 11748      4E5F4241 
 11748      52434F44 
 11748      455F454E 
 11748      41424C45 
 11749              	.LASF171:
 11750 2254 4F535F46 		.ascii	"OS_FN_FILE_DELETE\000"
 11750      4E5F4649 
 11750      4C455F44 
 11750      454C4554 
 11750      4500
 11751              	.LASF147:
 11752 2266 4F535F46 		.ascii	"OS_FN_BUFMAN_REALLOC\000"
 11752      4E5F4255 
 11752      464D414E 
 11752      5F524541 
 11752      4C4C4F43 
 11753              	.LASF312:
 11754 227b 4F535F46 		.ascii	"OS_FN_TPAD_CALIBRATE\000"
 11754      4E5F5450 
 11754      41445F43 
 11754      414C4942 
 11754      52415445 
 11755              	.LASF359:
 11756 2290 4F535F46 		.ascii	"OS_FN_NETDEV_GETLINK\000"
 11756      4E5F4E45 
 11756      54444556 
 11756      5F474554 
 11756      4C494E4B 
 11757              	.LASF763:
 11758 22a5 44574765 		.ascii	"DWGet\000"
 11758      7400
 11759              	.LASF107:
 11760 22ab 4F535F46 		.ascii	"OS_FN_SM2_SET_CURVE\000"
 11760      4E5F534D 
 11760      325F5345 
 11760      545F4355 
 11760      52564500 
 11761              	.LASF274:
 11762 22bf 4F535F46 		.ascii	"OS_FN_MCOM_OPEN\000"
 11762      4E5F4D43 
 11762      4F4D5F4F 
 11762      50454E00 
 11763              	.LASF760:
 11764 22cf 57476574 		.ascii	"WGet\000"
 11764      00
 11765              	.LASF331:
 11766 22d4 4F535F46 		.ascii	"OS_FN_CLICC_LED_CLEAR\000"
 11766      4E5F434C 
 11766      4943435F 
 11766      4C45445F 
 11766      434C4541 
 11767              	.LASF548:
 11768 22ea 4B5F4346 		.ascii	"K_CF_BattStatCount\000"
 11768      5F426174 
 11768      74537461 
 11768      74436F75 
 11768      6E7400
ARM GAS  C:\Users\AHMED~1.ELE\AppData\Local\Temp\ccAhPyWN.s 			page 259


 11769              	.LASF158:
 11770 22fd 4F535F46 		.ascii	"OS_FN_APP_SEARCH_NAME\000"
 11770      4E5F4150 
 11770      505F5345 
 11770      41524348 
 11770      5F4E414D 
 11771              	.LASF101:
 11772 2313 4F535F46 		.ascii	"OS_FN_SHA_PROCESS\000"
 11772      4E5F5348 
 11772      415F5052 
 11772      4F434553 
 11772      5300
 11773              	.LASF361:
 11774 2325 4F535F46 		.ascii	"OS_FN_NETDEV_IOCTL\000"
 11774      4E5F4E45 
 11774      54444556 
 11774      5F494F43 
 11774      544C00
 11775              	.LASF84:
 11776 2338 4F535F46 		.ascii	"OS_FN_DES\000"
 11776      4E5F4445 
 11776      5300
 11777              	.LASF475:
 11778 2342 4F535F46 		.ascii	"OS_FN_IMG_SENSOR_CLOSE\000"
 11778      4E5F494D 
 11778      475F5345 
 11778      4E534F52 
 11778      5F434C4F 
 11779              	.LASF57:
 11780 2359 4F535F46 		.ascii	"OS_FN_COM1_CLOSE\000"
 11780      4E5F434F 
 11780      4D315F43 
 11780      4C4F5345 
 11780      00
 11781              	.LASF543:
 11782 236a 4B5F4346 		.ascii	"K_CF_PingEnable\000"
 11782      5F50696E 
 11782      67456E61 
 11782      626C6500 
 11783              	.LASF396:
 11784 237a 4F535F46 		.ascii	"OS_FN_BARCODE_SCAN\000"
 11784      4E5F4241 
 11784      52434F44 
 11784      455F5343 
 11784      414E00
 11785              	.LASF23:
 11786 238d 4F535F46 		.ascii	"OS_FN_KBD_GETKEY\000"
 11786      4E5F4B42 
 11786      445F4745 
 11786      544B4559 
 11786      00
 11787              	.LASF335:
 11788 239e 4F535F46 		.ascii	"OS_FN_USBHOST_RESET_DEVICE\000"
 11788      4E5F5553 
 11788      42484F53 
 11788      545F5245 
 11788      5345545F 
ARM GAS  C:\Users\AHMED~1.ELE\AppData\Local\Temp\ccAhPyWN.s 			page 260


 11789              	.LASF669:
 11790 23b9 454D565F 		.ascii	"EMV_ICC_OFF\000"
 11790      4943435F 
 11790      4F464600 
 11791              	.LASF213:
 11792 23c5 4F535F46 		.ascii	"OS_FN_MMC_CLOSE\000"
 11792      4E5F4D4D 
 11792      435F434C 
 11792      4F534500 
 11793              	.LASF714:
 11794 23d5 4C444C6F 		.ascii	"LDLoad\000"
 11794      616400
 11795              	.LASF308:
 11796 23dc 4F535F46 		.ascii	"OS_FN_TPAD_ADD_OBJ\000"
 11796      4E5F5450 
 11796      41445F41 
 11796      44445F4F 
 11796      424A00
 11797              	.LASF650:
 11798 23ef 41504D5F 		.ascii	"APM_SDEV_ICC\000"
 11798      53444556 
 11798      5F494343 
 11798      00
 11799              	.LASF736:
 11800 23fc 73697A65 		.ascii	"size\000"
 11800      00
 11801              	.LASF549:
 11802 2401 4B5F4346 		.ascii	"K_CF_BattStatValid\000"
 11802      5F426174 
 11802      74537461 
 11802      7456616C 
 11802      696400
 11803              	.LASF571:
 11804 2414 4B5F4346 		.ascii	"K_CF_BUpDllControl\000"
 11804      5F425570 
 11804      446C6C43 
 11804      6F6E7472 
 11804      6F6C00
 11805              	.LASF687:
 11806 2427 65544143 		.ascii	"eTACDefault\000"
 11806      44656661 
 11806      756C7400 
 11807              	.LASF8:
 11808 2433 6C6F6E67 		.ascii	"long long unsigned int\000"
 11808      206C6F6E 
 11808      6720756E 
 11808      7369676E 
 11808      65642069 
 11809              	.LASF199:
 11810 244a 4F535F46 		.ascii	"OS_FN_FILE_IOCTL\000"
 11810      4E5F4649 
 11810      4C455F49 
 11810      4F43544C 
 11810      00
 11811              	.LASF180:
 11812 245b 4F535F46 		.ascii	"OS_FN_FILE_SEARCH\000"
 11812      4E5F4649 
ARM GAS  C:\Users\AHMED~1.ELE\AppData\Local\Temp\ccAhPyWN.s 			page 261


 11812      4C455F53 
 11812      45415243 
 11812      4800
 11813              	.LASF411:
 11814 246d 4F535F46 		.ascii	"OS_FN_NFC_GET_VALID_RESP\000"
 11814      4E5F4E46 
 11814      435F4745 
 11814      545F5641 
 11814      4C49445F 
 11815              	.LASF177:
 11816 2486 4F535F46 		.ascii	"OS_FN_FILE_GETC\000"
 11816      4E5F4649 
 11816      4C455F47 
 11816      45544300 
 11817              	.LASF747:
 11818 2496 73454D56 		.ascii	"sEMVOut\000"
 11818      4F757400 
 11819              	.LASF648:
 11820 249e 4D575F46 		.ascii	"MW_FUNC_COUNT\000"
 11820      554E435F 
 11820      434F554E 
 11820      5400
 11821              	.LASF341:
 11822 24ac 4F535F46 		.ascii	"OS_FN_DRIVER_UNREGISTER\000"
 11822      4E5F4452 
 11822      49564552 
 11822      5F554E52 
 11822      45474953 
 11823              	.LASF465:
 11824 24c4 4F535F46 		.ascii	"OS_FN_WIFI_SOCKET_DISCONNECT\000"
 11824      4E5F5749 
 11824      46495F53 
 11824      4F434B45 
 11824      545F4449 
 11825              	.LASF682:
 11826 24e1 65525342 		.ascii	"eRSBThresh\000"
 11826      54687265 
 11826      736800
 11827              	.LASF311:
 11828 24ec 4F535F46 		.ascii	"OS_FN_TPAD_ALERT_RETURN\000"
 11828      4E5F5450 
 11828      41445F41 
 11828      4C455254 
 11828      5F524554 
 11829              	.LASF131:
 11830 2504 4F535F46 		.ascii	"OS_FN_KEY_SAVE_TMK_CBC\000"
 11830      4E5F4B45 
 11830      595F5341 
 11830      56455F54 
 11830      4D4B5F43 
 11831              	.LASF87:
 11832 251b 4F535F46 		.ascii	"OS_FN_COM_DES\000"
 11832      4E5F434F 
 11832      4D5F4445 
 11832      5300
 11833              	.LASF106:
 11834 2529 4F535F46 		.ascii	"OS_FN_MD4_FINISH\000"
ARM GAS  C:\Users\AHMED~1.ELE\AppData\Local\Temp\ccAhPyWN.s 			page 262


 11834      4E5F4D44 
 11834      345F4649 
 11834      4E495348 
 11834      00
 11835              	.LASF74:
 11836 253a 4F535F46 		.ascii	"OS_FN_COM3_OPEN\000"
 11836      4E5F434F 
 11836      4D335F4F 
 11836      50454E00 
 11837              	.LASF614:
 11838 254a 46434F4D 		.ascii	"FCOMMITALLMW\000"
 11838      4D495441 
 11838      4C4C4D57 
 11838      00
 11839              	.LASF261:
 11840 2557 4F535F46 		.ascii	"OS_FN_FL_COPYB_PGM\000"
 11840      4E5F464C 
 11840      5F434F50 
 11840      59425F50 
 11840      474D00
 11841              	.LASF486:
 11842 256a 4F535F46 		.ascii	"OS_FN_IMG_SENSOR_SET_MODE\000"
 11842      4E5F494D 
 11842      475F5345 
 11842      4E534F52 
 11842      5F534554 
 11843              	.LASF568:
 11844 2584 4B5F4346 		.ascii	"K_CF_LCDC_ALWAYS_ON\000"
 11844      5F4C4344 
 11844      435F414C 
 11844      57415953 
 11844      5F4F4E00 
 11845              	.LASF374:
 11846 2598 4F535F46 		.ascii	"OS_FN_MIF_TAG\000"
 11846      4E5F4D49 
 11846      465F5441 
 11846      4700
 11847              	.LASF262:
 11848 25a6 4F535F46 		.ascii	"OS_FN_FL_COPYB_END\000"
 11848      4E5F464C 
 11848      5F434F50 
 11848      59425F45 
 11848      4E4400
 11849              	.LASF582:
 11850 25b9 4B5F4346 		.ascii	"K_CF_Barcode\000"
 11850      5F426172 
 11850      636F6465 
 11850      00
 11851              	.LASF66:
 11852 25c6 4F535F46 		.ascii	"OS_FN_COM2_CLOSE\000"
 11852      4E5F434F 
 11852      4D325F43 
 11852      4C4F5345 
 11852      00
 11853              	.LASF651:
 11854 25d7 41504D5F 		.ascii	"APM_SDEV_GPRS\000"
 11854      53444556 
ARM GAS  C:\Users\AHMED~1.ELE\AppData\Local\Temp\ccAhPyWN.s 			page 263


 11854      5F475052 
 11854      5300
 11855              	.LASF639:
 11856 25e5 534D535F 		.ascii	"SMS_ENB_MW\000"
 11856      454E425F 
 11856      4D5700
 11857              	.LASF221:
 11858 25f0 4F535F46 		.ascii	"OS_FN_MMC_INSERTED\000"
 11858      4E5F4D4D 
 11858      435F494E 
 11858      53455254 
 11858      454400
 11859              	.LASF422:
 11860 2603 4F535F46 		.ascii	"OS_FN_GPS_RESET\000"
 11860      4E5F4750 
 11860      535F5245 
 11860      53455400 
 11861              	.LASF775:
 11862 2613 44697370 		.ascii	"DispInfoData\000"
 11862      496E666F 
 11862      44617461 
 11862      00
 11863              	.LASF533:
 11864 2620 4B5F4346 		.ascii	"K_CF_LcdBannerEnable\000"
 11864      5F4C6364 
 11864      42616E6E 
 11864      6572456E 
 11864      61626C65 
 11865              	.LASF512:
 11866 2635 4B5F4346 		.ascii	"K_CF_SetupPsw\000"
 11866      5F536574 
 11866      75705073 
 11866      7700
 11867              	.LASF720:
 11868 2643 62436E74 		.ascii	"bCnt\000"
 11868      00
 11869              	.LASF645:
 11870 2648 46545255 		.ascii	"FTRUNCATEMW\000"
 11870      4E434154 
 11870      454D5700 
 11871              	.LASF458:
 11872 2654 4F535F46 		.ascii	"OS_FN_GCM_AES_INIT\000"
 11872      4E5F4743 
 11872      4D5F4145 
 11872      535F494E 
 11872      495400
 11873              	.LASF483:
 11874 2667 4F535F46 		.ascii	"OS_FN_WIFI_SET_REGULATORY_DOMAIN\000"
 11874      4E5F5749 
 11874      46495F53 
 11874      45545F52 
 11874      4547554C 
 11875              	.LASF510:
 11876 2688 4B5F4346 		.ascii	"K_CF_BSysPsw\000"
 11876      5F425379 
 11876      73507377 
 11876      00
ARM GAS  C:\Users\AHMED~1.ELE\AppData\Local\Temp\ccAhPyWN.s 			page 264


 11877              	.LASF285:
 11878 2695 4F535F46 		.ascii	"OS_FN_BATT_TEMP\000"
 11878      4E5F4241 
 11878      54545F54 
 11878      454D5000 
 11879              	.LASF386:
 11880 26a5 4F535F46 		.ascii	"OS_FN_MIF_TRANSFER\000"
 11880      4E5F4D49 
 11880      465F5452 
 11880      414E5346 
 11880      455200
 11881              	.LASF767:
 11882 26b8 6D656D73 		.ascii	"memset\000"
 11882      657400
 11883              	.LASF785:
 11884 26bf 454D5646 		.ascii	"EMVFatal\000"
 11884      6174616C 
 11884      00
 11885              	.LASF721:
 11886 26c8 614C656E 		.ascii	"aLen\000"
 11886      00
 11887              	.LASF723:
 11888 26cd 76657273 		.ascii	"version\000"
 11888      696F6E00 
 11889              	.LASF148:
 11890 26d5 4F535F46 		.ascii	"OS_FN_BUFMAN_SHRINK\000"
 11890      4E5F4255 
 11890      464D414E 
 11890      5F534852 
 11890      494E4B00 
 11891              	.LASF275:
 11892 26e9 4F535F46 		.ascii	"OS_FN_MCOM_CLOSE\000"
 11892      4E5F4D43 
 11892      4F4D5F43 
 11892      4C4F5345 
 11892      00
 11893              	.LASF104:
 11894 26fa 4F535F46 		.ascii	"OS_FN_RC4_ENCRYPT\000"
 11894      4E5F5243 
 11894      345F454E 
 11894      43525950 
 11894      5400
 11895              	.LASF398:
 11896 270c 4F535F46 		.ascii	"OS_FN_BARCODE_ABORT\000"
 11896      4E5F4241 
 11896      52434F44 
 11896      455F4142 
 11896      4F525400 
 11897              	.LASF565:
 11898 2720 4B5F4346 		.ascii	"K_CF_DllControlEnable\000"
 11898      5F446C6C 
 11898      436F6E74 
 11898      726F6C45 
 11898      6E61626C 
 11899              	.LASF596:
 11900 2736 53485554 		.ascii	"SHUTDOWNMW\000"
 11900      444F574E 
ARM GAS  C:\Users\AHMED~1.ELE\AppData\Local\Temp\ccAhPyWN.s 			page 265


 11900      4D5700
 11901              	.LASF33:
 11902 2741 4F535F46 		.ascii	"OS_FN_BUZ_STATE\000"
 11902      4E5F4255 
 11902      5A5F5354 
 11902      41544500 
 11903              	.LASF304:
 11904 2751 4F535F46 		.ascii	"OS_FN_GPRS_SMS_CONTROL\000"
 11904      4E5F4750 
 11904      52535F53 
 11904      4D535F43 
 11904      4F4E5452 
 11905              	.LASF228:
 11906 2768 4F535F46 		.ascii	"OS_FN_LAN_RXRDY\000"
 11906      4E5F4C41 
 11906      4E5F5258 
 11906      52445900 
 11907              	.LASF35:
 11908 2778 4F535F46 		.ascii	"OS_FN_RTC_SET\000"
 11908      4E5F5254 
 11908      435F5345 
 11908      5400
 11909              	.LASF703:
 11910 2786 436C7245 		.ascii	"ClrEMVParam\000"
 11910      4D565061 
 11910      72616D00 
 11911              	.LASF212:
 11912 2792 4F535F46 		.ascii	"OS_FN_MMC_OPEN\000"
 11912      4E5F4D4D 
 11912      435F4F50 
 11912      454E00
 11913              	.LASF766:
 11914 27a1 736B7062 		.ascii	"skpb\000"
 11914      00
 11915              	.LASF694:
 11916 27a6 61456D76 		.ascii	"aEmvCfg\000"
 11916      43666700 
 11917              	.LASF627:
 11918 27ae 44495350 		.ascii	"DISP_PUTCMW\000"
 11918      5F505554 
 11918      434D5700 
 11919              	.LASF346:
 11920 27ba 4F535F46 		.ascii	"OS_FN_DEVICE_IOCTL\000"
 11920      4E5F4445 
 11920      56494345 
 11920      5F494F43 
 11920      544C00
 11921              	.LASF155:
 11922 27cd 4F535F46 		.ascii	"OS_FN_GET_CHALLENGE\000"
 11922      4E5F4745 
 11922      545F4348 
 11922      414C4C45 
 11922      4E474500 
 11923              	.LASF217:
 11924 27e1 4F535F46 		.ascii	"OS_FN_MMC_BLK_READ\000"
 11924      4E5F4D4D 
 11924      435F424C 
ARM GAS  C:\Users\AHMED~1.ELE\AppData\Local\Temp\ccAhPyWN.s 			page 266


 11924      4B5F5245 
 11924      414400
 11925              	.LASF508:
 11926 27f4 4B5F4346 		.ascii	"K_CF_TamperOn\000"
 11926      5F54616D 
 11926      7065724F 
 11926      6E00
 11927              	.LASF97:
 11928 2802 4F535F46 		.ascii	"OS_FN_MD5_INIT\000"
 11928      4E5F4D44 
 11928      355F494E 
 11928      495400
 11929              	.LASF494:
 11930 2811 4B5F4346 		.ascii	"K_CF_EtherID\000"
 11930      5F457468 
 11930      65724944 
 11930      00
 11931              	.LASF253:
 11932 281e 4F535F46 		.ascii	"OS_FN_FL_PAGE\000"
 11932      4E5F464C 
 11932      5F504147 
 11932      4500
 11933              	.LASF667:
 11934 282c 454D565F 		.ascii	"EMV_FINDREC\000"
 11934      46494E44 
 11934      52454300 
 11935              	.LASF144:
 11936 2838 4F535F46 		.ascii	"OS_FN_THREAD_RETURN\000"
 11936      4E5F5448 
 11936      52454144 
 11936      5F524554 
 11936      55524E00 
 11937              	.LASF203:
 11938 284c 4F535F46 		.ascii	"OS_FN_CONFIG_UPDATE\000"
 11938      4E5F434F 
 11938      4E464947 
 11938      5F555044 
 11938      41544500 
 11939              	.LASF412:
 11940 2860 4F535F46 		.ascii	"OS_FN_NFC_INFO_GET\000"
 11940      4E5F4E46 
 11940      435F494E 
 11940      464F5F47 
 11940      455400
 11941              	.LASF559:
 11942 2873 4B5F4346 		.ascii	"K_CF_MdmAutoTxPwr\000"
 11942      5F4D646D 
 11942      4175746F 
 11942      54785077 
 11942      7200
 11943              	.LASF191:
 11944 2885 4F535F46 		.ascii	"OS_FN_FILE_GET_SYSTEMINFO\000"
 11944      4E5F4649 
 11944      4C455F47 
 11944      45545F53 
 11944      59535445 
 11945              	.LASF378:
ARM GAS  C:\Users\AHMED~1.ELE\AppData\Local\Temp\ccAhPyWN.s 			page 267


 11946 289f 4F535F46 		.ascii	"OS_FN_MIF_LOAD_KEY\000"
 11946      4E5F4D49 
 11946      465F4C4F 
 11946      41445F4B 
 11946      455900
 11947              	.LASF100:
 11948 28b2 4F535F46 		.ascii	"OS_FN_SHA_INIT\000"
 11948      4E5F5348 
 11948      415F494E 
 11948      495400
 11949              	.LASF691:
 11950 28c1 775F696E 		.ascii	"w_info_len\000"
 11950      666F5F6C 
 11950      656E00
 11951              	.LASF345:
 11952 28cc 4F535F46 		.ascii	"OS_FN_DEVICE_ALLOC_MEDIA\000"
 11952      4E5F4445 
 11952      56494345 
 11952      5F414C4C 
 11952      4F435F4D 
 11953              	.LASF562:
 11954 28e5 4B5F4346 		.ascii	"K_CF_MdmU80\000"
 11954      5F4D646D 
 11954      55383000 
 11955              	.LASF761:
 11956 28f1 44697370 		.ascii	"DispPutStr\000"
 11956      50757453 
 11956      747200
 11957              	.LASF459:
 11958 28fc 4F535F46 		.ascii	"OS_FN_GCM_AES_PROCESS_AAD\000"
 11958      4E5F4743 
 11958      4D5F4145 
 11958      535F5052 
 11958      4F434553 
 11959              	.LASF367:
 11960 2916 4F535F46 		.ascii	"OS_FN_TAMPER_GET_STATUS\000"
 11960      4E5F5441 
 11960      4D504552 
 11960      5F474554 
 11960      5F535441 
 11961              	.LASF79:
 11962 292e 4F535F46 		.ascii	"OS_FN_COM3_SEND\000"
 11962      4E5F434F 
 11962      4D335F53 
 11962      454E4400 
 11963              	.LASF124:
 11964 293e 4F535F46 		.ascii	"OS_FN_KEY_DUKPT_ENCRYPT\000"
 11964      4E5F4B45 
 11964      595F4455 
 11964      4B50545F 
 11964      454E4352 
 11965              	.LASF141:
 11966 2956 4F535F46 		.ascii	"OS_FN_THREAD_UNLOCK\000"
 11966      4E5F5448 
 11966      52454144 
 11966      5F554E4C 
 11966      4F434B00 
ARM GAS  C:\Users\AHMED~1.ELE\AppData\Local\Temp\ccAhPyWN.s 			page 268


 11967              	.LASF676:
 11968 296a 4B657949 		.ascii	"KeyIdx\000"
 11968      647800
 11969              	.LASF370:
 11970 2971 4F535F46 		.ascii	"OS_FN_MIF_CLOSE\000"
 11970      4E5F4D49 
 11970      465F434C 
 11970      4F534500 
 11971              	.LASF80:
 11972 2981 4F535F46 		.ascii	"OS_FN_COM3_STATUS\000"
 11972      4E5F434F 
 11972      4D335F53 
 11972      54415455 
 11972      5300
 11973              	.LASF116:
 11974 2993 4F535F46 		.ascii	"OS_FN_SM4_SET_KEY\000"
 11974      4E5F534D 
 11974      345F5345 
 11974      545F4B45 
 11974      5900
 11975              	.LASF307:
 11976 29a5 4F535F46 		.ascii	"OS_FN_TPAD_CLOSE\000"
 11976      4E5F5450 
 11976      41445F43 
 11976      4C4F5345 
 11976      00
 11977              	.LASF3:
 11978 29b6 73686F72 		.ascii	"short int\000"
 11978      7420696E 
 11978      7400
 11979              	.LASF105:
 11980 29c0 4F535F46 		.ascii	"OS_FN_MD4_PROCESS\000"
 11980      4E5F4D44 
 11980      345F5052 
 11980      4F434553 
 11980      5300
 11981              	.LASF207:
 11982 29d2 4F535F46 		.ascii	"OS_FN_SAM_INSERTED\000"
 11982      4E5F5341 
 11982      4D5F494E 
 11982      53455254 
 11982      454400
 11983              	.LASF591:
 11984 29e5 55534246 		.ascii	"USBFPRT_GENERAL_INFO_IMG_WIDTH\000"
 11984      5052545F 
 11984      47454E45 
 11984      52414C5F 
 11984      494E464F 
 11985              	.LASF329:
 11986 2a04 4F535F46 		.ascii	"OS_FN_CLICC_LED_STATUS\000"
 11986      4E5F434C 
 11986      4943435F 
 11986      4C45445F 
 11986      53544154 
 11987              	.LASF320:
 11988 2a1b 4F535F46 		.ascii	"OS_FN_CLICC_OPEN\000"
 11988      4E5F434C 
ARM GAS  C:\Users\AHMED~1.ELE\AppData\Local\Temp\ccAhPyWN.s 			page 269


 11988      4943435F 
 11988      4F50454E 
 11988      00
 11989              	.LASF64:
 11990 2a2c 4F535F46 		.ascii	"OS_FN_COM1_SSEND\000"
 11990      4E5F434F 
 11990      4D315F53 
 11990      53454E44 
 11990      00
 11991              	.LASF347:
 11992 2a3d 4F535F46 		.ascii	"OS_FN_DEVICE_SEARCH_INIT\000"
 11992      4E5F4445 
 11992      56494345 
 11992      5F534541 
 11992      5243485F 
 11993              	.LASF282:
 11994 2a56 4F535F46 		.ascii	"OS_FN_MCOM_READ\000"
 11994      4E5F4D43 
 11994      4F4D5F52 
 11994      45414400 
 11995              	.LASF431:
 11996 2a66 4F535F46 		.ascii	"OS_FN_FREE_RUN\000"
 11996      4E5F4652 
 11996      45455F52 
 11996      554E00
 11997              	.LASF291:
 11998 2a75 4F535F46 		.ascii	"OS_FN_GPRS_SIGNAL\000"
 11998      4E5F4750 
 11998      52535F53 
 11998      49474E41 
 11998      4C00
 11999              	.LASF250:
 12000 2a87 4F535F46 		.ascii	"OS_FN_FL_INFO\000"
 12000      4E5F464C 
 12000      5F494E46 
 12000      4F00
 12001              	.LASF478:
 12002 2a95 4F535F46 		.ascii	"OS_FN_GPRS_SET_PIN_STATUS\000"
 12002      4E5F4750 
 12002      52535F53 
 12002      45545F50 
 12002      494E5F53 
 12003              	.LASF114:
 12004 2aaf 4F535F46 		.ascii	"OS_FN_SM3_ASCII\000"
 12004      4E5F534D 
 12004      335F4153 
 12004      43494900 
 12005              	.LASF679:
 12006 2abf 4B45595F 		.ascii	"KEY_INFO\000"
 12006      494E464F 
 12006      00
 12007              	.LASF659:
 12008 2ac8 54494D45 		.ascii	"TIMER_COMM\000"
 12008      525F434F 
 12008      4D4D00
 12009              	.LASF209:
 12010 2ad3 4F535F46 		.ascii	"OS_FN_SAM_OFF\000"
ARM GAS  C:\Users\AHMED~1.ELE\AppData\Local\Temp\ccAhPyWN.s 			page 270


 12010      4E5F5341 
 12010      4D5F4F46 
 12010      4600
 12011              	.LASF539:
 12012 2ae1 4B5F4346 		.ascii	"K_CF_RdllInf\000"
 12012      5F52646C 
 12012      6C496E66 
 12012      00
 12013              	.LASF560:
 12014 2aee 4B5F4346 		.ascii	"K_CF_MdmDTPwr\000"
 12014      5F4D646D 
 12014      44545077 
 12014      7200
 12015              	.LASF417:
 12016 2afc 4F535F46 		.ascii	"OS_FN_GPS_OFF\000"
 12016      4E5F4750 
 12016      535F4F46 
 12016      4600
 12017              	.LASF123:
 12018 2b0a 4F535F46 		.ascii	"OS_FN_KEY_FLUSH\000"
 12018      4E5F4B45 
 12018      595F464C 
 12018      55534800 
 12019              	.LASF113:
 12020 2b1a 4F535F46 		.ascii	"OS_FN_SM2_GET_MESS\000"
 12020      4E5F534D 
 12020      325F4745 
 12020      545F4D45 
 12020      535300
 12021              	.LASF588:
 12022 2b2d 4B5F4346 		.ascii	"K_CF_TermIDControlOff\000"
 12022      5F546572 
 12022      6D494443 
 12022      6F6E7472 
 12022      6F6C4F66 
 12023              	.LASF501:
 12024 2b43 4B5F4346 		.ascii	"K_CF_Netmask\000"
 12024      5F4E6574 
 12024      6D61736B 
 12024      00
 12025              	.LASF252:
 12026 2b50 4F535F46 		.ascii	"OS_FN_FL_PAGE_READ\000"
 12026      4E5F464C 
 12026      5F504147 
 12026      455F5245 
 12026      414400
 12027              	.LASF163:
 12028 2b63 4F535F46 		.ascii	"OS_FN_REALLOC\000"
 12028      4E5F5245 
 12028      414C4C4F 
 12028      4300
 12029              	.LASF712:
 12030 2b71 544C5369 		.ascii	"TLSize\000"
 12030      7A6500
 12031              	.LASF466:
 12032 2b78 4F535F46 		.ascii	"OS_FN_WIFI_SOCKET_GET_STATE\000"
 12032      4E5F5749 
ARM GAS  C:\Users\AHMED~1.ELE\AppData\Local\Temp\ccAhPyWN.s 			page 271


 12032      46495F53 
 12032      4F434B45 
 12032      545F4745 
 12033              	.LASF376:
 12034 2b94 4F535F46 		.ascii	"OS_FN_MIF_ANTICOLL\000"
 12034      4E5F4D49 
 12034      465F414E 
 12034      5449434F 
 12034      4C4C00
 12035              	.LASF751:
 12036 2ba7 77436875 		.ascii	"wChunkSize\000"
 12036      6E6B5369 
 12036      7A6500
 12037              	.LASF255:
 12038 2bb2 4F535F46 		.ascii	"OS_FN_FL_PGM_START\000"
 12038      4E5F464C 
 12038      5F50474D 
 12038      5F535441 
 12038      525400
 12039              	.LASF413:
 12040 2bc5 4F535F46 		.ascii	"OS_FN_NFC_INFO_SET\000"
 12040      4E5F4E46 
 12040      435F494E 
 12040      464F5F53 
 12040      455400
 12041              	.LASF467:
 12042 2bd8 4F535F46 		.ascii	"OS_FN_WIFI_SOCKET_SEND_TCP\000"
 12042      4E5F5749 
 12042      46495F53 
 12042      4F434B45 
 12042      545F5345 
 12043              	.LASF634:
 12044 2bf3 44495350 		.ascii	"DISP_GETGMW\000"
 12044      5F474554 
 12044      474D5700 
 12045              	.LASF133:
 12046 2bff 4F535F46 		.ascii	"OS_FN_PCI_DSS_GET_KVC\000"
 12046      4E5F5043 
 12046      495F4453 
 12046      535F4745 
 12046      545F4B56 
 12047              	.LASF541:
 12048 2c15 4B5F4346 		.ascii	"K_CF_PswError\000"
 12048      5F507377 
 12048      4572726F 
 12048      7200
 12049              	.LASF555:
 12050 2c23 4B5F4346 		.ascii	"K_CF_ParamTerm2Term\000"
 12050      5F506172 
 12050      616D5465 
 12050      726D3254 
 12050      65726D00 
 12051              	.LASF668:
 12052 2c37 454D565F 		.ascii	"EMV_ICC_ON\000"
 12052      4943435F 
 12052      4F4E00
 12053              	.LASF54:
ARM GAS  C:\Users\AHMED~1.ELE\AppData\Local\Temp\ccAhPyWN.s 			page 272


 12054 2c42 4F535F46 		.ascii	"OS_FN_DISP_ICON_SET_SIGNAL_TYPE\000"
 12054      4E5F4449 
 12054      53505F49 
 12054      434F4E5F 
 12054      5345545F 
 12055              	.LASF310:
 12056 2c62 4F535F46 		.ascii	"OS_FN_TPAD_CPOS\000"
 12056      4E5F5450 
 12056      41445F43 
 12056      504F5300 
 12057              	.LASF1:
 12058 2c72 7369676E 		.ascii	"signed char\000"
 12058      65642063 
 12058      68617200 
 12059              	.LASF402:
 12060 2c7e 4F535F46 		.ascii	"OS_FN_WIFI_SEND_COMMAND\000"
 12060      4E5F5749 
 12060      46495F53 
 12060      454E445F 
 12060      434F4D4D 
 12061              	.LASF527:
 12062 2c96 4B5F4346 		.ascii	"K_CF_MdmTxPwr\000"
 12062      5F4D646D 
 12062      54785077 
 12062      7200
 12063              	.LASF612:
 12064 2ca4 46524541 		.ascii	"FREADMW\000"
 12064      444D5700 
 12065              	.LASF774:
 12066 2cac 7374726C 		.ascii	"strlen\000"
 12066      656E00
 12067              	.LASF62:
 12068 2cb3 4F535F46 		.ascii	"OS_FN_COM1_STATUS\000"
 12068      4E5F434F 
 12068      4D315F53 
 12068      54415455 
 12068      5300
 12069              	.LASF134:
 12070 2cc5 4F535F46 		.ascii	"OS_FN_PCI_DSS_REGEN_KEY\000"
 12070      4E5F5043 
 12070      495F4453 
 12070      535F5245 
 12070      47454E5F 
 12071              	.LASF78:
 12072 2cdd 4F535F46 		.ascii	"OS_FN_COM3_READ\000"
 12072      4E5F434F 
 12072      4D335F52 
 12072      45414400 
 12073              	.LASF482:
 12074 2ced 4F535F46 		.ascii	"OS_FN_WIFI_GET_REGULATORY_DOMAIN\000"
 12074      4E5F5749 
 12074      46495F47 
 12074      45545F52 
 12074      4547554C 
 12075              	.LASF693:
 12076 2d0e 70625F69 		.ascii	"pb_info\000"
 12076      6E666F00 
ARM GAS  C:\Users\AHMED~1.ELE\AppData\Local\Temp\ccAhPyWN.s 			page 273


 12077              	.LASF762:
 12078 2d16 6D656D63 		.ascii	"memcpy\000"
 12078      707900
 12079              	.LASF390:
 12080 2d1d 4F535F46 		.ascii	"OS_FN_MIF_GET\000"
 12080      4E5F4D49 
 12080      465F4745 
 12080      5400
 12081              	.LASF724:
 12082 2d2b 6C656164 		.ascii	"lead0len\000"
 12082      306C656E 
 12082      00
 12083              	.LASF188:
 12084 2d34 4F535F46 		.ascii	"OS_FN_FILE_SET_LOCK\000"
 12084      4E5F4649 
 12084      4C455F53 
 12084      45545F4C 
 12084      4F434B00 
 12085              	.LASF161:
 12086 2d48 4F535F46 		.ascii	"OS_FN_APP_INFO\000"
 12086      4E5F4150 
 12086      505F494E 
 12086      464F00
 12087              	.LASF684:
 12088 2d57 65525342 		.ascii	"eRSBMax\000"
 12088      4D617800 
 12089              	.LASF237:
 12090 2d5f 4F535F46 		.ascii	"OS_FN_MSR_READ\000"
 12090      4E5F4D53 
 12090      525F5245 
 12090      414400
 12091              	.LASF382:
 12092 2d6e 4F535F46 		.ascii	"OS_FN_MIF_WRITE\000"
 12092      4E5F4D49 
 12092      465F5752 
 12092      49544500 
 12093              	.LASF25:
 12094 2d7e 4F535F46 		.ascii	"OS_FN_KBD_UNLOCK\000"
 12094      4E5F4B42 
 12094      445F554E 
 12094      4C4F434B 
 12094      00
 12095              	.LASF647:
 12096 2d8f 41505049 		.ascii	"APPINFO_GETMW\000"
 12096      4E464F5F 
 12096      4745544D 
 12096      5700
 12097              	.LASF531:
 12098 2d9d 4B5F4346 		.ascii	"K_CF_RtcControlOff\000"
 12098      5F527463 
 12098      436F6E74 
 12098      726F6C4F 
 12098      666600
 12099              	.LASF381:
 12100 2db0 4F535F46 		.ascii	"OS_FN_MIF_READ\000"
 12100      4E5F4D49 
 12100      465F5245 
ARM GAS  C:\Users\AHMED~1.ELE\AppData\Local\Temp\ccAhPyWN.s 			page 274


 12100      414400
 12101              	.LASF426:
 12102 2dbf 4F535F46 		.ascii	"OS_FN_APPDL_WRITE_APP\000"
 12102      4E5F4150 
 12102      50444C5F 
 12102      57524954 
 12102      455F4150 
 12103              	.LASF195:
 12104 2dd5 4F535F46 		.ascii	"OS_FN_FILE_MKDIR\000"
 12104      4E5F4649 
 12104      4C455F4D 
 12104      4B444952 
 12104      00
 12105              	.LASF156:
 12106 2de6 4F535F46 		.ascii	"OS_FN_AUTH\000"
 12106      4E5F4155 
 12106      544800
 12107              	.LASF727:
 12108 2df1 61466C61 		.ascii	"aFlag\000"
 12108      6700
 12109              	.LASF227:
 12110 2df7 4F535F46 		.ascii	"OS_FN_LAN_CLOSE\000"
 12110      4E5F4C41 
 12110      4E5F434C 
 12110      4F534500 
 12111              	.LASF743:
 12112 2e07 454D5649 		.ascii	"EMVInit\000"
 12112      6E697400 
 12113              	.LASF497:
 12114 2e0f 4B5F4346 		.ascii	"K_CF_DssMkKvc\000"
 12114      5F447373 
 12114      4D6B4B76 
 12114      6300
 12115              	.LASF499:
 12116 2e1d 4B5F4346 		.ascii	"K_CF_TpadOffset\000"
 12116      5F547061 
 12116      644F6666 
 12116      73657400 
 12117              	.LASF214:
 12118 2e2d 4F535F46 		.ascii	"OS_FN_MMC_BLK_SIZE\000"
 12118      4E5F4D4D 
 12118      435F424C 
 12118      4B5F5349 
 12118      5A4500
 12119              	.LASF67:
 12120 2e40 4F535F46 		.ascii	"OS_FN_COM2_RXRDY\000"
 12120      4E5F434F 
 12120      4D325F52 
 12120      58524459 
 12120      00
 12121              	.LASF438:
 12122 2e51 4F535F46 		.ascii	"OS_FN_GET_MCLK\000"
 12122      4E5F4745 
 12122      545F4D43 
 12122      4C4B00
 12123              	.LASF624:
 12124 2e60 5343484E 		.ascii	"SCHNLSETUPMW\000"
ARM GAS  C:\Users\AHMED~1.ELE\AppData\Local\Temp\ccAhPyWN.s 			page 275


 12124      4C534554 
 12124      55504D57 
 12124      00
 12125              	.LASF674:
 12126 2e6d 624D7367 		.ascii	"bMsg\000"
 12126      00
 12127              	.LASF272:
 12128 2e72 4F535F46 		.ascii	"OS_FN_MDM_STATUS\000"
 12128      4E5F4D44 
 12128      4D5F5354 
 12128      41545553 
 12128      00
 12129              	.LASF15:
 12130 2e83 44574F52 		.ascii	"DWORD\000"
 12130      4400
 12131              	.LASF664:
 12132 2e89 454D565F 		.ascii	"EMV_DLLSETUP\000"
 12132      444C4C53 
 12132      45545550 
 12132      00
 12133              	.LASF233:
 12134 2e96 4F535F46 		.ascii	"OS_FN_MSR_OPEN\000"
 12134      4E5F4D53 
 12134      525F4F50 
 12134      454E00
 12135              	.LASF322:
 12136 2ea5 4F535F46 		.ascii	"OS_FN_CLICC_REMOVE\000"
 12136      4E5F434C 
 12136      4943435F 
 12136      52454D4F 
 12136      564500
 12137              	.LASF771:
 12138 2eb8 73706C69 		.ascii	"split\000"
 12138      7400
 12139              	.LASF570:
 12140 2ebe 4B5F4346 		.ascii	"K_CF_GPRS_StkiRespMsgOn\000"
 12140      5F475052 
 12140      535F5374 
 12140      6B695265 
 12140      73704D73 
 12141              	.LASF611:
 12142 2ed6 46534545 		.ascii	"FSEEKMW\000"
 12142      4B4D5700 
 12143              	.LASF256:
 12144 2ede 4F535F46 		.ascii	"OS_FN_FL_WRITE\000"
 12144      4E5F464C 
 12144      5F575249 
 12144      544500
 12145              	.LASF73:
 12146 2eed 4F535F46 		.ascii	"OS_FN_COM2_SSEND\000"
 12146      4E5F434F 
 12146      4D325F53 
 12146      53454E44 
 12146      00
 12147              	.LASF631:
 12148 2efe 44495350 		.ascii	"DISP_GOTOMW\000"
 12148      5F474F54 
ARM GAS  C:\Users\AHMED~1.ELE\AppData\Local\Temp\ccAhPyWN.s 			page 276


 12148      4F4D5700 
 12149              	.LASF219:
 12150 2f0a 4F535F46 		.ascii	"OS_FN_MMC_READ\000"
 12150      4E5F4D4D 
 12150      435F5245 
 12150      414400
 12151              	.LASF542:
 12152 2f19 4B5F4346 		.ascii	"K_CF_LandingZone\000"
 12152      5F4C616E 
 12152      64696E67 
 12152      5A6F6E65 
 12152      00
 12153              	.LASF745:
 12154 2f2a 7362494F 		.ascii	"sbIOBuf\000"
 12154      42756600 
 12155              	.LASF270:
 12156 2f32 4F535F46 		.ascii	"OS_FN_MDM_DISC\000"
 12156      4E5F4D44 
 12156      4D5F4449 
 12156      534300
 12157              	.LASF90:
 12158 2f41 4F535F46 		.ascii	"OS_FN_NEW_DES2\000"
 12158      4E5F4E45 
 12158      575F4445 
 12158      533200
 12159              	.LASF733:
 12160 2f50 61446174 		.ascii	"aData\000"
 12160      6100
 12161              	.LASF186:
 12162 2f56 4F535F46 		.ascii	"OS_FN_FILE_TRUNCATE\000"
 12162      4E5F4649 
 12162      4C455F54 
 12162      52554E43 
 12162      41544500 
 12163              	.LASF677:
 12164 2f6a 45787069 		.ascii	"ExpiryDate\000"
 12164      72794461 
 12164      746500
 12165              	.LASF4:
 12166 2f75 73686F72 		.ascii	"short unsigned int\000"
 12166      7420756E 
 12166      7369676E 
 12166      65642069 
 12166      6E7400
 12167              	.LASF138:
 12168 2f88 4F535F46 		.ascii	"OS_FN_THREAD_CREATE\000"
 12168      4E5F5448 
 12168      52454144 
 12168      5F435245 
 12168      41544500 
 12169              	.LASF511:
 12170 2f9c 4B5F4346 		.ascii	"K_CF_DllPsw\000"
 12170      5F446C6C 
 12170      50737700 
 12171              	.LASF658:
 12172 2fa8 54494D45 		.ascii	"TIMER_KBD\000"
 12172      525F4B42 
ARM GAS  C:\Users\AHMED~1.ELE\AppData\Local\Temp\ccAhPyWN.s 			page 277


 12172      4400
 12173              	.LASF358:
 12174 2fb2 4F535F46 		.ascii	"OS_FN_NETDEV_CLOSE\000"
 12174      4E5F4E45 
 12174      54444556 
 12174      5F434C4F 
 12174      534500
 12175              	.LASF472:
 12176 2fc5 4F535F46 		.ascii	"OS_FN_IMG_SENSOR_OPEN\000"
 12176      4E5F494D 
 12176      475F5345 
 12176      4E534F52 
 12176      5F4F5045 
 12177              	.LASF63:
 12178 2fdb 4F535F46 		.ascii	"OS_FN_COM1_SREAD\000"
 12178      4E5F434F 
 12178      4D315F53 
 12178      52454144 
 12178      00
 12179              	.LASF103:
 12180 2fec 4F535F46 		.ascii	"OS_FN_RC4_SETUP\000"
 12180      4E5F5243 
 12180      345F5345 
 12180      54555000 
 12181              	.LASF530:
 12182 2ffc 4B5F4346 		.ascii	"K_CF_KbdBL\000"
 12182      5F4B6264 
 12182      424C00
 12183              	.LASF91:
 12184 3007 4F535F46 		.ascii	"OS_FN_RSA\000"
 12184      4E5F5253 
 12184      4100
 12185              	.LASF337:
 12186 3011 4F535F46 		.ascii	"OS_FN_USBHOST_RHPORT_STATUS\000"
 12186      4E5F5553 
 12186      42484F53 
 12186      545F5248 
 12186      504F5254 
 12187              	.LASF150:
 12188 302d 4F535F46 		.ascii	"OS_FN_LED_CLOSE\000"
 12188      4E5F4C45 
 12188      445F434C 
 12188      4F534500 
 12189              	.LASF666:
 12190 303d 454D565F 		.ascii	"EMV_PACKREC\000"
 12190      5041434B 
 12190      52454300 
 12191              	.LASF351:
 12192 3049 4F535F46 		.ascii	"OS_FN_DEVICE_UNMOUNT\000"
 12192      4E5F4445 
 12192      56494345 
 12192      5F554E4D 
 12192      4F554E54 
 12193              	.LASF706:
 12194 305e 5072696E 		.ascii	"PrintEMVAppCfg\000"
 12194      74454D56 
 12194      41707043 
ARM GAS  C:\Users\AHMED~1.ELE\AppData\Local\Temp\ccAhPyWN.s 			page 278


 12194      666700
 12195              	.LASF76:
 12196 306d 4F535F46 		.ascii	"OS_FN_COM3_RXRDY\000"
 12196      4E5F434F 
 12196      4D335F52 
 12196      58524459 
 12196      00
 12197              	.LASF392:
 12198 307e 4F535F46 		.ascii	"OS_FN_MIF_INFO_GET\000"
 12198      4E5F4D49 
 12198      465F494E 
 12198      464F5F47 
 12198      455400
 12199              	.LASF656:
 12200 3091 41504D5F 		.ascii	"APM_SDEV_MAX\000"
 12200      53444556 
 12200      5F4D4158 
 12200      00
 12201              	.LASF739:
 12202 309e 61436667 		.ascii	"aCfg\000"
 12202      00
 12203              	.LASF249:
 12204 30a3 4F535F46 		.ascii	"OS_FN_USBSER_ENABLE\000"
 12204      4E5F5553 
 12204      42534552 
 12204      5F454E41 
 12204      424C4500 
 12205              	.LASF447:
 12206 30b7 4F535F46 		.ascii	"OS_FN_LPT_RESET_COUNT\000"
 12206      4E5F4C50 
 12206      545F5245 
 12206      5345545F 
 12206      434F554E 
 12207              	.LASF20:
 12208 30cd 4F535F46 		.ascii	"OS_FN_KBD_CLOSE\000"
 12208      4E5F4B42 
 12208      445F434C 
 12208      4F534500 
 12209              	.LASF734:
 12210 30dd 6F666673 		.ascii	"offset\000"
 12210      657400
 12211              	.LASF615:
 12212 30e4 46464C55 		.ascii	"FFLUSHMW\000"
 12212      53484D57 
 12212      00
 12213              	.LASF517:
 12214 30ed 4B5F4346 		.ascii	"K_CF_ParsePhrase\000"
 12214      5F506172 
 12214      73655068 
 12214      72617365 
 12214      00
 12215              	.LASF292:
 12216 30fe 4F535F46 		.ascii	"OS_FN_GPRS_STATUS\000"
 12216      4E5F4750 
 12216      52535F53 
 12216      54415455 
 12216      5300
ARM GAS  C:\Users\AHMED~1.ELE\AppData\Local\Temp\ccAhPyWN.s 			page 279


 12217              	.LASF525:
 12218 3110 4B5F4346 		.ascii	"K_CF_GprsPowerOnOff\000"
 12218      5F477072 
 12218      73506F77 
 12218      65724F6E 
 12218      4F666600 
 12219              	.LASF82:
 12220 3124 4F535F46 		.ascii	"OS_FN_COM3_SSEND\000"
 12220      4E5F434F 
 12220      4D335F53 
 12220      53454E44 
 12220      00
 12221              	.LASF701:
 12222 3135 696E666F 		.ascii	"info_data\000"
 12222      5F646174 
 12222      6100
 12223              	.LASF410:
 12224 313f 4F535F46 		.ascii	"OS_FN_NFC_CLOSE\000"
 12224      4E5F4E46 
 12224      435F434C 
 12224      4F534500 
 12225              	.LASF16:
 12226 314f 4F535F46 		.ascii	"OS_FN_GET_VERSION\000"
 12226      4E5F4745 
 12226      545F5645 
 12226      5253494F 
 12226      4E00
 12227              	.LASF754:
 12228 3161 4B50696E 		.ascii	"KPinMsg\000"
 12228      4D736700 
 12229              	.LASF699:
 12230 3169 64617461 		.ascii	"data\000"
 12230      00
 12231              	.LASF290:
 12232 316e 4F535F46 		.ascii	"OS_FN_ADC_CH_READ\000"
 12232      4E5F4144 
 12232      435F4348 
 12232      5F524541 
 12232      4400
 12233              	.LASF268:
 12234 3180 4F535F46 		.ascii	"OS_FN_MDM_CLOSE\000"
 12234      4E5F4D44 
 12234      4D5F434C 
 12234      4F534500 
 12235              	.LASF628:
 12236 3190 44495350 		.ascii	"DISP_PUTNMW\000"
 12236      5F505554 
 12236      4E4D5700 
 12237              	.LASF443:
 12238 319c 4F535F46 		.ascii	"OS_FN_DMK_INJECT\000"
 12238      4E5F444D 
 12238      4B5F494E 
 12238      4A454354 
 12238      00
 12239              	.LASF678:
 12240 31ad 45666665 		.ascii	"EffectDate\000"
 12240      63744461 
ARM GAS  C:\Users\AHMED~1.ELE\AppData\Local\Temp\ccAhPyWN.s 			page 280


 12240      746500
 12241              	.LASF599:
 12242 31b8 52454144 		.ascii	"READMW\000"
 12242      4D5700
 12243              	.LASF31:
 12244 31bf 4F535F46 		.ascii	"OS_FN_BUZ_CLOSE\000"
 12244      4E5F4255 
 12244      5A5F434C 
 12244      4F534500 
 12245              	.LASF172:
 12246 31cf 4F535F46 		.ascii	"OS_FN_FILE_FLUSHED\000"
 12246      4E5F4649 
 12246      4C455F46 
 12246      4C555348 
 12246      454400
 12247              	.LASF46:
 12248 31e2 4F535F46 		.ascii	"OS_FN_DISP_GET_LCD_BUFFER\000"
 12248      4E5F4449 
 12248      53505F47 
 12248      45545F4C 
 12248      43445F42 
 12249              	.LASF321:
 12250 31fc 4F535F46 		.ascii	"OS_FN_CLICC_POLL\000"
 12250      4E5F434C 
 12250      4943435F 
 12250      504F4C4C 
 12250      00
 12251              	.LASF72:
 12252 320d 4F535F46 		.ascii	"OS_FN_COM2_SREAD\000"
 12252      4E5F434F 
 12252      4D325F53 
 12252      52454144 
 12252      00
 12253              	.LASF755:
 12254 321e 4B436172 		.ascii	"KCardholderIDName\000"
 12254      64686F6C 
 12254      64657249 
 12254      444E616D 
 12254      6500
 12255              	.LASF683:
 12256 3230 65525354 		.ascii	"eRSTarget\000"
 12256      61726765 
 12256      7400
 12257              	.LASF375:
 12258 323a 4F535F46 		.ascii	"OS_FN_MIF_STATUS\000"
 12258      4E5F4D49 
 12258      465F5354 
 12258      41545553 
 12258      00
 12259              	.LASF333:
 12260 324b 4F535F46 		.ascii	"OS_FN_USBHOST_SUBMIT_BUFFER\000"
 12260      4E5F5553 
 12260      42484F53 
 12260      545F5355 
 12260      424D4954 
 12261              	.LASF495:
 12262 3267 4B5F4346 		.ascii	"K_CF_PppFixIP\000"
ARM GAS  C:\Users\AHMED~1.ELE\AppData\Local\Temp\ccAhPyWN.s 			page 281


 12262      5F507070 
 12262      46697849 
 12262      5000
 12263              	.LASF202:
 12264 3275 4F535F46 		.ascii	"OS_FN_CONFIG_WRITE\000"
 12264      4E5F434F 
 12264      4E464947 
 12264      5F575249 
 12264      544500
 12265              	.LASF334:
 12266 3288 4F535F46 		.ascii	"OS_FN_USBHOST_UNLINK_BUFFER\000"
 12266      4E5F5553 
 12266      42484F53 
 12266      545F554E 
 12266      4C494E4B 
 12267              		.ident	"GCC: (GNU Tools for ARM Embedded Processors) 4.9.3 20141119 (release) [ARM/embedded-4_9-br
ARM GAS  C:\Users\AHMED~1.ELE\AppData\Local\Temp\ccAhPyWN.s 			page 282


DEFINED SYMBOLS
                            *ABS*:00000000 emvtrans.c
C:\Users\AHMED~1.ELE\AppData\Local\Temp\ccAhPyWN.s:19     .text.KernelReady:00000000 $t
C:\Users\AHMED~1.ELE\AppData\Local\Temp\ccAhPyWN.s:23     .text.KernelReady:00000000 KernelReady
C:\Users\AHMED~1.ELE\AppData\Local\Temp\ccAhPyWN.s:48     .text.EMVFatal:00000000 $t
C:\Users\AHMED~1.ELE\AppData\Local\Temp\ccAhPyWN.s:52     .text.EMVFatal:00000000 EMVFatal
C:\Users\AHMED~1.ELE\AppData\Local\Temp\ccAhPyWN.s:86     .text.EMVFatal:00000020 $d
C:\Users\AHMED~1.ELE\AppData\Local\Temp\ccAhPyWN.s:91     .text.TagSize:00000000 $t
C:\Users\AHMED~1.ELE\AppData\Local\Temp\ccAhPyWN.s:96     .text.TagSize:00000000 TagSize
C:\Users\AHMED~1.ELE\AppData\Local\Temp\ccAhPyWN.s:118    .text.TagGet:00000000 $t
C:\Users\AHMED~1.ELE\AppData\Local\Temp\ccAhPyWN.s:123    .text.TagGet:00000000 TagGet
C:\Users\AHMED~1.ELE\AppData\Local\Temp\ccAhPyWN.s:149    .text.TLSize:00000000 $t
C:\Users\AHMED~1.ELE\AppData\Local\Temp\ccAhPyWN.s:154    .text.TLSize:00000000 TLSize
C:\Users\AHMED~1.ELE\AppData\Local\Temp\ccAhPyWN.s:178    .text.TLGet:00000000 $t
C:\Users\AHMED~1.ELE\AppData\Local\Temp\ccAhPyWN.s:183    .text.TLGet:00000000 TLGet
C:\Users\AHMED~1.ELE\AppData\Local\Temp\ccAhPyWN.s:228    .text.LDLoad:00000000 $t
C:\Users\AHMED~1.ELE\AppData\Local\Temp\ccAhPyWN.s:233    .text.LDLoad:00000000 LDLoad
C:\Users\AHMED~1.ELE\AppData\Local\Temp\ccAhPyWN.s:322    .text.ConvDecimal:00000000 $t
C:\Users\AHMED~1.ELE\AppData\Local\Temp\ccAhPyWN.s:327    .text.ConvDecimal:00000000 ConvDecimal
C:\Users\AHMED~1.ELE\AppData\Local\Temp\ccAhPyWN.s:428    .text.ClrEMVKey:00000000 $t
C:\Users\AHMED~1.ELE\AppData\Local\Temp\ccAhPyWN.s:433    .text.ClrEMVKey:00000000 ClrEMVKey
C:\Users\AHMED~1.ELE\AppData\Local\Temp\ccAhPyWN.s:511    .text.ClrEMVKey:00000044 $d
C:\Users\AHMED~1.ELE\AppData\Local\Temp\ccAhPyWN.s:516    .text.ClrEMVParam:00000000 $t
C:\Users\AHMED~1.ELE\AppData\Local\Temp\ccAhPyWN.s:521    .text.ClrEMVParam:00000000 ClrEMVParam
C:\Users\AHMED~1.ELE\AppData\Local\Temp\ccAhPyWN.s:591    .text.ClrEMVParam:00000050 $d
C:\Users\AHMED~1.ELE\AppData\Local\Temp\ccAhPyWN.s:596    .text.SetEMVLoaded:00000000 $t
C:\Users\AHMED~1.ELE\AppData\Local\Temp\ccAhPyWN.s:601    .text.SetEMVLoaded:00000000 SetEMVLoaded
C:\Users\AHMED~1.ELE\AppData\Local\Temp\ccAhPyWN.s:619    .text.SetEMVLoaded:0000000c $d
C:\Users\AHMED~1.ELE\AppData\Local\Temp\ccAhPyWN.s:624    .text.EMVClrDnloadBuf:00000000 $t
C:\Users\AHMED~1.ELE\AppData\Local\Temp\ccAhPyWN.s:629    .text.EMVClrDnloadBuf:00000000 EMVClrDnloadBuf
C:\Users\AHMED~1.ELE\AppData\Local\Temp\ccAhPyWN.s:706    .text.EMVClrDnloadBuf:0000005c $d
C:\Users\AHMED~1.ELE\AppData\Local\Temp\ccAhPyWN.s:713    .text.EMVKillDnloadBuf:00000000 $t
C:\Users\AHMED~1.ELE\AppData\Local\Temp\ccAhPyWN.s:718    .text.EMVKillDnloadBuf:00000000 EMVKillDnloadBuf
C:\Users\AHMED~1.ELE\AppData\Local\Temp\ccAhPyWN.s:769    .text.EMVKillDnloadBuf:00000038 $d
C:\Users\AHMED~1.ELE\AppData\Local\Temp\ccAhPyWN.s:775    .text.EMVData2DnloadBuf:00000000 $t
C:\Users\AHMED~1.ELE\AppData\Local\Temp\ccAhPyWN.s:780    .text.EMVData2DnloadBuf:00000000 EMVData2DnloadBuf
C:\Users\AHMED~1.ELE\AppData\Local\Temp\ccAhPyWN.s:874    .text.EMVData2DnloadBuf:00000070 $d
C:\Users\AHMED~1.ELE\AppData\Local\Temp\ccAhPyWN.s:880    .text.EMVDataUpdate:00000000 $t
C:\Users\AHMED~1.ELE\AppData\Local\Temp\ccAhPyWN.s:885    .text.EMVDataUpdate:00000000 EMVDataUpdate
C:\Users\AHMED~1.ELE\AppData\Local\Temp\ccAhPyWN.s:1091   .text.EMVDataUpdate:0000013c $d
C:\Users\AHMED~1.ELE\AppData\Local\Temp\ccAhPyWN.s:1097   .text.GetEMVKeyInfo:00000000 $t
C:\Users\AHMED~1.ELE\AppData\Local\Temp\ccAhPyWN.s:1102   .text.GetEMVKeyInfo:00000000 GetEMVKeyInfo
C:\Users\AHMED~1.ELE\AppData\Local\Temp\ccAhPyWN.s:1172   .text.GetEMVKeyInfo:00000040 $d
C:\Users\AHMED~1.ELE\AppData\Local\Temp\ccAhPyWN.s:1179   .text.PrintEMVParam:00000000 $t
C:\Users\AHMED~1.ELE\AppData\Local\Temp\ccAhPyWN.s:1184   .text.PrintEMVParam:00000000 PrintEMVParam
C:\Users\AHMED~1.ELE\AppData\Local\Temp\ccAhPyWN.s:1339   .text.PrintEMVParam:000000d4 $d
C:\Users\AHMED~1.ELE\AppData\Local\Temp\ccAhPyWN.s:1344   .text.PrintEMVParam:000000dc $t
C:\Users\AHMED~1.ELE\AppData\Local\Temp\ccAhPyWN.s:1818   .text.PrintEMVParam:000003fc $d
C:\Users\AHMED~1.ELE\AppData\Local\Temp\ccAhPyWN.s:1838   .text.PrintEMVParam:00000444 $t
C:\Users\AHMED~1.ELE\AppData\Local\Temp\ccAhPyWN.s:2257   .text.PrintEMVParam:000006cc $d
C:\Users\AHMED~1.ELE\AppData\Local\Temp\ccAhPyWN.s:2271   .text.EMVUtilStart:00000000 $t
C:\Users\AHMED~1.ELE\AppData\Local\Temp\ccAhPyWN.s:2276   .text.EMVUtilStart:00000000 EMVUtilStart
C:\Users\AHMED~1.ELE\AppData\Local\Temp\ccAhPyWN.s:2327   .text.EMVUtilStart:0000003c $d
C:\Users\AHMED~1.ELE\AppData\Local\Temp\ccAhPyWN.s:2332   .text.EMVInit:00000000 $t
C:\Users\AHMED~1.ELE\AppData\Local\Temp\ccAhPyWN.s:2337   .text.EMVInit:00000000 EMVInit
C:\Users\AHMED~1.ELE\AppData\Local\Temp\ccAhPyWN.s:2428   .text.EMVInit:0000006c $d
C:\Users\AHMED~1.ELE\AppData\Local\Temp\ccAhPyWN.s:2452   .rodata:00000048 KCardholderIDName
ARM GAS  C:\Users\AHMED~1.ELE\AppData\Local\Temp\ccAhPyWN.s 			page 283


C:\Users\AHMED~1.ELE\AppData\Local\Temp\ccAhPyWN.s:2444   .rodata:00000008 KPinMsg
C:\Users\AHMED~1.ELE\AppData\Local\Temp\ccAhPyWN.s:2440   .rodata:00000000 KEMVTemp
C:\Users\AHMED~1.ELE\AppData\Local\Temp\ccAhPyWN.s:2519   .data:00000000 $d
C:\Users\AHMED~1.ELE\AppData\Local\Temp\ccAhPyWN.s:2523   .data:00000000 iDnloadFile
C:\Users\AHMED~1.ELE\AppData\Local\Temp\ccAhPyWN.s:2526   .bss:00000000 $d
C:\Users\AHMED~1.ELE\AppData\Local\Temp\ccAhPyWN.s:2530   .bss:00000000 sEMVIn
C:\Users\AHMED~1.ELE\AppData\Local\Temp\ccAhPyWN.s:2534   .bss:00000004 sEMVOut
C:\Users\AHMED~1.ELE\AppData\Local\Temp\ccAhPyWN.s:2538   .bss:00000008 sbIOBuf
C:\Users\AHMED~1.ELE\AppData\Local\Temp\ccAhPyWN.s:2542   .bss:0000000c bEmvLoaded
C:\Users\AHMED~1.ELE\AppData\Local\Temp\ccAhPyWN.s:2547   .bss:0000000e wChunkSize
C:\Users\AHMED~1.ELE\AppData\Local\Temp\ccAhPyWN.s:2551   .bss:00000010 bMaxNumBlk
C:\Users\AHMED~1.ELE\AppData\Local\Temp\ccAhPyWN.s:2555   .bss:00000011 bDnloadBlk
                     .debug_frame:00000010 $d

UNDEFINED SYMBOLS
sys_func1
DispPutStr
WaitKey
sys_func0
WGet
memcpy
DWGet
lbin2asc
bin2dec
skpb
memset
lib_app_call
sys_func2
strcpy
__aeabi_uidiv
__aeabi_uidivmod
split
PackInfoData
sprintf
strlen
DispInfoData
PrintRcptLF
LptPutS
PrintBuf
MemFatalErr
