ARM GAS  C:\Users\AHMED~1.ELE\AppData\Local\Temp\ccAhPyWN.s 			page 1


   1              		.syntax unified
   2              		.cpu cortex-a5
   3              		.fpu softvfp
   4              		.eabi_attribute 20, 1
   5              		.eabi_attribute 21, 1
   6              		.eabi_attribute 23, 3
   7              		.eabi_attribute 24, 1
   8              		.eabi_attribute 25, 1
   9              		.eabi_attribute 26, 1
  10              		.eabi_attribute 30, 4
  11              		.eabi_attribute 34, 0
  12              		.eabi_attribute 18, 4
  13              		.thumb
  14              		.file	"emvtrans.c"
  15              		.text
  16              	.Ltext0:
  17              		.cfi_sections	.debug_frame
  18              		.section	.text.KernelReady,"ax",%progbits
  19              		.align	1
  20              		.thumb
  21              		.thumb_func
  22              		.type	KernelReady, %function
  23              	KernelReady:
  24              	.LFB6:
  25              		.file 1 "src/emvtrans.c"
   1:src/emvtrans.c **** //-----------------------------------------------------------------------------
   2:src/emvtrans.c **** //  File          : EMVTrans.c
   3:src/emvtrans.c **** //  Module        :
   4:src/emvtrans.c **** //  Description   : EMV Transactions Process.
   5:src/emvtrans.c **** //  Author        : Lewis
   6:src/emvtrans.c **** //  Notes         :
   7:src/emvtrans.c **** //
   8:src/emvtrans.c **** // ============================================================================
   9:src/emvtrans.c **** // | Naming conventions                                                       |
  10:src/emvtrans.c **** // | ~~~~~~~~~~~~~~~~~~                                                       |
  11:src/emvtrans.c **** // |        Struct define : Leading T                                         |
  12:src/emvtrans.c **** // |         Struct/Array : Leading s                                         |
  13:src/emvtrans.c **** // |             Constant : Leading K                                         |
  14:src/emvtrans.c **** // |      Global Variable : Leading g  (variable use outside one C file)      |
  15:src/emvtrans.c **** // |                                                                          |
  16:src/emvtrans.c **** // |   BYTE( 8 Bits) size : Leading b                                         |
  17:src/emvtrans.c **** // |   CHAR( 8 Bits) size : Leading c                                         |
  18:src/emvtrans.c **** // |   WORD(16 Bits) size : Leading w                                         |
  19:src/emvtrans.c **** // |  DWORD(32 Bits) size : Leading d                                         |
  20:src/emvtrans.c **** // |    int(32 Bits) size : Leading i                                         |
  21:src/emvtrans.c **** // | DDWORD(64 Bits) size : Leading dd                                        |
  22:src/emvtrans.c **** // |              Pointer : Leading p                                         |
  23:src/emvtrans.c **** // |                                                                          |
  24:src/emvtrans.c **** // |    Function argument : Leading a                                         |
  25:src/emvtrans.c **** // |       Local Variable : All lower case                                    |
  26:src/emvtrans.c **** // |                                                                          |
  27:src/emvtrans.c **** // | Examples:                                                                |
  28:src/emvtrans.c **** // |                Array : Leading s, (sb = arrary of byte, etc)             |
  29:src/emvtrans.c **** // |              Pointer : Leading p, (pb = pointer of byte, etc)            |
  30:src/emvtrans.c **** // ============================================================================
  31:src/emvtrans.c **** //
  32:src/emvtrans.c **** //  Date          Who         Action
ARM GAS  C:\Users\AHMED~1.ELE\AppData\Local\Temp\ccAhPyWN.s 			page 2


  33:src/emvtrans.c **** //  ------------  ----------- -------------------------------------------------
  34:src/emvtrans.c **** //  29 Sept 2008  Lewis       Initial Version.
  35:src/emvtrans.c **** //-----------------------------------------------------------------------------
  36:src/emvtrans.c **** #include <string.h>
  37:src/emvtrans.c **** #include "midware.h"
  38:src/emvtrans.c **** #include "util.h"
  39:src/emvtrans.c **** #include "hardware.h"
  40:src/emvtrans.c **** #include "emv2dll.h"
  41:src/emvtrans.c **** #include "sysutil.h"
  42:src/emvtrans.c **** #include "kbdutil.h"
  43:src/emvtrans.c **** #include "infodata.h"
  44:src/emvtrans.c **** #include "lptutil.h"
  45:src/emvtrans.c **** #include "emvtrans.h"
  46:src/emvtrans.c **** 
  47:src/emvtrans.c **** //-----------------------------------------------------------------------------
  48:src/emvtrans.c **** //      Common Defines
  49:src/emvtrans.c **** //-----------------------------------------------------------------------------
  50:src/emvtrans.c **** 
  51:src/emvtrans.c **** //-----------------------------------------------------------------------------
  52:src/emvtrans.c **** //    Constant Message
  53:src/emvtrans.c **** //-----------------------------------------------------------------------------
  54:src/emvtrans.c **** const BYTE KPinMsg[4][16] = {     /* PIN related message */
  55:src/emvtrans.c ****   " 请 输 入 密 码 ",                   /*   1. Enter PIN      */
  56:src/emvtrans.c ****   " 密  码  正  确 ",                   /*   2. PIN OK         */
  57:src/emvtrans.c ****   " 密  码  错  误 ",                   /*   3. Incorrect PIN  */
  58:src/emvtrans.c ****   "  最后一次密码  "                    /*   4. Last PIN Try   */
  59:src/emvtrans.c **** };
  60:src/emvtrans.c **** const BYTE KCardholderIDName[6][11] = {
  61:src/emvtrans.c ****   "身份证    ",
  62:src/emvtrans.c ****   "军官证    ",
  63:src/emvtrans.c ****   "护照      ",
  64:src/emvtrans.c ****   "入境证    ",
  65:src/emvtrans.c ****   "临时身份证",
  66:src/emvtrans.c ****   "其他      ",
  67:src/emvtrans.c **** };
  68:src/emvtrans.c **** 
  69:src/emvtrans.c **** //-----------------------------------------------------------------------------
  70:src/emvtrans.c **** //    Global Variables
  71:src/emvtrans.c **** //-----------------------------------------------------------------------------
  72:src/emvtrans.c **** static BYTE    *sbIOBuf;
  73:src/emvtrans.c **** static sIO_t   *sEMVIn;
  74:src/emvtrans.c **** static sIO_t   *sEMVOut;
  75:src/emvtrans.c **** static BYTE   bEmvLoaded;
  76:src/emvtrans.c **** static BYTE   bMaxNumBlk, bDnloadBlk;
  77:src/emvtrans.c **** static WORD   wChunkSize;
  78:src/emvtrans.c **** static int    iDnloadFile = -1;
  79:src/emvtrans.c **** 
  80:src/emvtrans.c **** static const BYTE KEMVTemp[] = {"emv_tmp"};
  81:src/emvtrans.c **** 
  82:src/emvtrans.c **** 
  83:src/emvtrans.c **** //*****************************************************************************
  84:src/emvtrans.c **** //  Function        : TagSize
  85:src/emvtrans.c **** //  Description     : Retrieve Tag Size from input buffer.
  86:src/emvtrans.c **** //  Input           : aBuf;     // Data buffer
  87:src/emvtrans.c **** //  Return          : Tag Size;
  88:src/emvtrans.c **** //  Note            : N/A
  89:src/emvtrans.c **** //  Globals Changed : N/A
ARM GAS  C:\Users\AHMED~1.ELE\AppData\Local\Temp\ccAhPyWN.s 			page 3


  90:src/emvtrans.c **** //*****************************************************************************
  91:src/emvtrans.c **** BYTE TagSize(BYTE *aBuf)
  92:src/emvtrans.c **** {
  93:src/emvtrans.c ****   return ((*aBuf & 0x1F) == 0x1F) ? 2 : 1;
  94:src/emvtrans.c **** }
  95:src/emvtrans.c **** //*****************************************************************************
  96:src/emvtrans.c **** //  Function        : TagGet
  97:src/emvtrans.c **** //  Description     : Retrieve Tag value from input buffer.
  98:src/emvtrans.c **** //  Input           : aBuf;     // Data buffer
  99:src/emvtrans.c **** //  Return          : Tag Size/Orignal Tag Value
 100:src/emvtrans.c **** //  Note            : N/A
 101:src/emvtrans.c **** //  Globals Changed : N/A
 102:src/emvtrans.c **** //*****************************************************************************
 103:src/emvtrans.c **** WORD TagGet(BYTE *aBuf)
 104:src/emvtrans.c **** {
 105:src/emvtrans.c ****   if ((*aBuf & 0x1F) != 0x1F)
 106:src/emvtrans.c ****     return *aBuf;
 107:src/emvtrans.c ****   return WGet(aBuf);
 108:src/emvtrans.c **** }
 109:src/emvtrans.c **** //*****************************************************************************
 110:src/emvtrans.c **** //  Function        : TLSize
 111:src/emvtrans.c **** //  Description     : Get L size
 112:src/emvtrans.c **** //  Input           : *aLD;   // LD pointer
 113:src/emvtrans.c **** //  Return          : L Size
 114:src/emvtrans.c **** //  Note            : N/A
 115:src/emvtrans.c **** //  Globals Changed : N/A
 116:src/emvtrans.c **** //*****************************************************************************
 117:src/emvtrans.c **** BYTE TLSize(BYTE *aLD)
 118:src/emvtrans.c **** {
 119:src/emvtrans.c ****   //bit 8 is 1, Lenght size if bit 7 to bit 1 plus one
 120:src/emvtrans.c ****   if (*aLD & 0x80)
 121:src/emvtrans.c ****     return (*aLD & 0x7F) + 1;
 122:src/emvtrans.c ****   return 1;
 123:src/emvtrans.c **** }
 124:src/emvtrans.c **** //*****************************************************************************
 125:src/emvtrans.c **** //  Function        : TLGet
 126:src/emvtrans.c **** //  Description     : Get L value
 127:src/emvtrans.c **** //  Input           : *aLD;   // LD pointer
 128:src/emvtrans.c **** //  Return          : Length value
 129:src/emvtrans.c **** //  Note            : N/A
 130:src/emvtrans.c **** //  Globals Changed : N/A
 131:src/emvtrans.c **** //*****************************************************************************
 132:src/emvtrans.c **** WORD TLGet(BYTE *aLD)
 133:src/emvtrans.c **** {
 134:src/emvtrans.c ****   //if bit 8 = 0, one byte length field
 135:src/emvtrans.c ****   if ((*aLD & 0x80) == 0)
 136:src/emvtrans.c ****     return *aLD;
 137:src/emvtrans.c **** 
 138:src/emvtrans.c ****   //Otherwise, no. of lenght field depends on value of bit 7 to bit 1
 139:src/emvtrans.c ****   if (*aLD == 0x81)
 140:src/emvtrans.c ****     return *(aLD + 1);
 141:src/emvtrans.c **** 
 142:src/emvtrans.c ****   if (*aLD == 0x82)
 143:src/emvtrans.c ****     return WGet(aLD + 1);
 144:src/emvtrans.c **** 
 145:src/emvtrans.c ****   return 0xFFFF;
 146:src/emvtrans.c **** }
ARM GAS  C:\Users\AHMED~1.ELE\AppData\Local\Temp\ccAhPyWN.s 			page 4


 147:src/emvtrans.c **** //*****************************************************************************
 148:src/emvtrans.c **** //  Function        : LDLoad
 149:src/emvtrans.c **** //  Description     : Retrieve Tag value from TLD buffer (record) to abKbd
 150:src/emvtrans.c **** //  Input           : aBuf;     // Data buffer
 151:src/emvtrans.c **** //                    aTag;     // require tag Value
 152:src/emvtrans.c **** //  Return          : TRUE/FALSE;
 153:src/emvtrans.c **** //  Note            : Data length in record < 128 for each tag value
 154:src/emvtrans.c **** //  Globals Changed : N/A
 155:src/emvtrans.c **** //*****************************************************************************
 156:src/emvtrans.c **** #define MAX_OUT_SIZE      50
 157:src/emvtrans.c **** BOOLEAN LDLoad(BYTE *aDest, BYTE *aSrc, WORD aTag)
 158:src/emvtrans.c **** {
 159:src/emvtrans.c ****   WORD wNew;
 160:src/emvtrans.c ****   BYTE bLen;
 161:src/emvtrans.c ****   BYTE bCnt;
 162:src/emvtrans.c **** 
 163:src/emvtrans.c ****   bCnt = 100;                           /* safety limit */
 164:src/emvtrans.c ****   while ((wNew = TagGet(aSrc)) != 0 && bCnt-- != 0) {
 165:src/emvtrans.c ****     aSrc += TagSize(aSrc);
 166:src/emvtrans.c ****     bLen = *aSrc;
 167:src/emvtrans.c ****     if (aTag == wNew) {
 168:src/emvtrans.c ****       if (bLen >= MAX_OUT_SIZE)
 169:src/emvtrans.c ****         break;
 170:src/emvtrans.c ****       memcpy(aDest, aSrc, bLen + 1);
 171:src/emvtrans.c ****       return TRUE;
 172:src/emvtrans.c ****     }
 173:src/emvtrans.c ****     aSrc += bLen + 1;
 174:src/emvtrans.c ****   }
 175:src/emvtrans.c ****   return FALSE;
 176:src/emvtrans.c **** }
 177:src/emvtrans.c **** //*****************************************************************************
 178:src/emvtrans.c **** //  Function        : ConvDecimal
 179:src/emvtrans.c **** //  Description     : Convert the value in aBuf to decimal and insert
 180:src/emvtrans.c **** //                    decimal point.
 181:src/emvtrans.c **** //  Input           : aBuf;         // Input Buffer.
 182:src/emvtrans.c **** //                    var_i;        // Len of result
 183:src/emvtrans.c **** //  Return          : N/A
 184:src/emvtrans.c **** //  Note            : N/A
 185:src/emvtrans.c **** //  Globals Changed : N/A
 186:src/emvtrans.c **** //*****************************************************************************
 187:src/emvtrans.c **** void ConvDecimal(BYTE *aBuf, BYTE aLen)
 188:src/emvtrans.c **** {
 189:src/emvtrans.c ****   BYTE buffer[13];
 190:src/emvtrans.c ****   WORD version;
 191:src/emvtrans.c ****   DWORD tmp, lead0len;
 192:src/emvtrans.c **** 
 193:src/emvtrans.c ****   if (aLen > 5){
 194:src/emvtrans.c ****     tmp = DWGet(&aBuf[1]);
 195:src/emvtrans.c ****     lbin2asc(buffer, tmp);
 196:src/emvtrans.c ****   }
 197:src/emvtrans.c ****   else {
 198:src/emvtrans.c ****     version = WGet(&aBuf[1]);
 199:src/emvtrans.c ****     bin2dec(version, buffer, 5);
 200:src/emvtrans.c ****   }
 201:src/emvtrans.c **** 
 202:src/emvtrans.c ****   if ((lead0len = skpb(buffer, '0', aLen)) == aLen)   /* leading zero count */
 203:src/emvtrans.c ****     lead0len = aLen;    /* max leading zeros to ignore */
ARM GAS  C:\Users\AHMED~1.ELE\AppData\Local\Temp\ccAhPyWN.s 			page 5


 204:src/emvtrans.c **** 
 205:src/emvtrans.c ****   aBuf[0] = (BYTE)(aLen+1-lead0len);   /* excluding decimal digits */
 206:src/emvtrans.c ****   memcpy(&aBuf[1], &buffer[lead0len], aBuf[0]);
 207:src/emvtrans.c ****   buffer[aLen] = '.';
 208:src/emvtrans.c ****   memcpy(&aBuf[aBuf[0]+1], &buffer[aLen], 3);
 209:src/emvtrans.c ****   aBuf[0] += 3;
 210:src/emvtrans.c **** 
 211:src/emvtrans.c **** }
 212:src/emvtrans.c **** //*****************************************************************************
 213:src/emvtrans.c **** //  Function        : KernelReady
 214:src/emvtrans.c **** //  Description     : Check Whether EMV Kernel exist
 215:src/emvtrans.c **** //  Input           : N/A
 216:src/emvtrans.c **** //  Return          : N/A
 217:src/emvtrans.c **** //  Note            : N/A
 218:src/emvtrans.c **** //  Globals Changed : N/A
 219:src/emvtrans.c **** //*****************************************************************************
 220:src/emvtrans.c **** static BOOLEAN KernelReady(void)
 221:src/emvtrans.c **** {
  26              		.loc 1 221 0
  27              		.cfi_startproc
  28              		@ args = 0, pretend = 0, frame = 0
  29              		@ frame_needed = 0, uses_anonymous_args = 0
  30 0000 08B5     		push	{r3, lr}
  31              		.cfi_def_cfa_offset 8
  32              		.cfi_offset 3, -8
  33              		.cfi_offset 14, -4
 222:src/emvtrans.c ****   if (!IsAppIdExistMW(EMVDLL_ID))
  34              		.loc 1 222 0
  35 0002 0E21     		movs	r1, #14
  36 0004 8D20     		movs	r0, #141
  37 0006 FFF7FEFF 		bl	sys_func1
  38              	.LVL0:
 223:src/emvtrans.c ****     return FALSE;
 224:src/emvtrans.c **** 
 225:src/emvtrans.c ****   return TRUE;
 226:src/emvtrans.c **** }
  39              		.loc 1 226 0
  40 000a 0030     		adds	r0, r0, #0
  41 000c 18BF     		it	ne
  42 000e 0120     		movne	r0, #1
  43 0010 08BD     		pop	{r3, pc}
  44              		.cfi_endproc
  45              	.LFE6:
  46              		.size	KernelReady, .-KernelReady
  47              		.section	.text.EMVFatal,"ax",%progbits
  48              		.align	1
  49              		.thumb
  50              		.thumb_func
  51              		.type	EMVFatal, %function
  52              	EMVFatal:
  53              	.LFB7:
 227:src/emvtrans.c **** //*****************************************************************************
 228:src/emvtrans.c **** //  Function        : EMVFatal
 229:src/emvtrans.c **** //  Description     : EMV Fatal Error.
 230:src/emvtrans.c **** //  Input           : N/A
 231:src/emvtrans.c **** //  Return          : N/A
 232:src/emvtrans.c **** //  Note            : N/A
ARM GAS  C:\Users\AHMED~1.ELE\AppData\Local\Temp\ccAhPyWN.s 			page 6


 233:src/emvtrans.c **** //  Globals Changed : N/A
 234:src/emvtrans.c **** //*****************************************************************************
 235:src/emvtrans.c **** static void EMVFatal(void)
 236:src/emvtrans.c **** {
  54              		.loc 1 236 0
  55              		.cfi_startproc
  56              		@ args = 0, pretend = 0, frame = 0
  57              		@ frame_needed = 0, uses_anonymous_args = 0
  58 0000 08B5     		push	{r3, lr}
  59              		.cfi_def_cfa_offset 8
  60              		.cfi_offset 3, -8
  61              		.cfi_offset 14, -4
 237:src/emvtrans.c ****   DispPutStr("\f\nEMV2 FATAL ERR\nPLS CALL SERVICE");
  62              		.loc 1 237 0
  63 0002 0748     		ldr	r0, .L6
  64 0004 FFF7FEFF 		bl	DispPutStr
  65              	.LVL1:
  66              	.L3:
 238:src/emvtrans.c ****   while (WaitKey(KBD_TIMEOUT) != MWKEY_CANCL);
  67              		.loc 1 238 0 discriminator 1
  68 0008 42F22830 		movw	r0, #9000
  69 000c FFF7FEFF 		bl	WaitKey
  70              	.LVL2:
  71 0010 1128     		cmp	r0, #17
  72 0012 F9D1     		bne	.L3
 239:src/emvtrans.c ****   ResetMW();
  73              		.loc 1 239 0
  74 0014 4FF4CF70 		mov	r0, #414
 240:src/emvtrans.c **** }
  75              		.loc 1 240 0
  76 0018 BDE80840 		pop	{r3, lr}
  77              		.cfi_restore 14
  78              		.cfi_restore 3
  79              		.cfi_def_cfa_offset 0
 239:src/emvtrans.c ****   ResetMW();
  80              		.loc 1 239 0
  81 001c FFF7FEBF 		b	sys_func0
  82              	.LVL3:
  83              	.L7:
  84              		.align	2
  85              	.L6:
  86 0020 00000000 		.word	.LC0
  87              		.cfi_endproc
  88              	.LFE7:
  89              		.size	EMVFatal, .-EMVFatal
  90              		.section	.text.TagSize,"ax",%progbits
  91              		.align	1
  92              		.global	TagSize
  93              		.thumb
  94              		.thumb_func
  95              		.type	TagSize, %function
  96              	TagSize:
  97              	.LFB0:
  92:src/emvtrans.c ****   return ((*aBuf & 0x1F) == 0x1F) ? 2 : 1;
  98              		.loc 1 92 0
  99              		.cfi_startproc
 100              		@ args = 0, pretend = 0, frame = 0
ARM GAS  C:\Users\AHMED~1.ELE\AppData\Local\Temp\ccAhPyWN.s 			page 7


 101              		@ frame_needed = 0, uses_anonymous_args = 0
 102              		@ link register save eliminated.
 103              	.LVL4:
  93:src/emvtrans.c **** }
 104              		.loc 1 93 0
 105 0000 0078     		ldrb	r0, [r0]	@ zero_extendqisi2
 106              	.LVL5:
 107 0002 00F01F00 		and	r0, r0, #31
  94:src/emvtrans.c **** //*****************************************************************************
 108              		.loc 1 94 0
 109 0006 1F28     		cmp	r0, #31
 110 0008 0CBF     		ite	eq
 111 000a 0220     		moveq	r0, #2
 112 000c 0120     		movne	r0, #1
 113 000e 7047     		bx	lr
 114              		.cfi_endproc
 115              	.LFE0:
 116              		.size	TagSize, .-TagSize
 117              		.section	.text.TagGet,"ax",%progbits
 118              		.align	1
 119              		.global	TagGet
 120              		.thumb
 121              		.thumb_func
 122              		.type	TagGet, %function
 123              	TagGet:
 124              	.LFB1:
 104:src/emvtrans.c ****   if ((*aBuf & 0x1F) != 0x1F)
 125              		.loc 1 104 0
 126              		.cfi_startproc
 127              		@ args = 0, pretend = 0, frame = 0
 128              		@ frame_needed = 0, uses_anonymous_args = 0
 129              		@ link register save eliminated.
 130              	.LVL6:
 105:src/emvtrans.c ****     return *aBuf;
 131              		.loc 1 105 0
 132 0000 0378     		ldrb	r3, [r0]	@ zero_extendqisi2
 133 0002 03F01F02 		and	r2, r3, #31
 134 0006 1F2A     		cmp	r2, #31
 135 0008 01D1     		bne	.L15
 107:src/emvtrans.c **** }
 136              		.loc 1 107 0
 137 000a FFF7FEBF 		b	WGet
 138              	.LVL7:
 139              	.L15:
 106:src/emvtrans.c ****   return WGet(aBuf);
 140              		.loc 1 106 0
 141 000e 98B2     		uxth	r0, r3
 142              	.LVL8:
 108:src/emvtrans.c **** //*****************************************************************************
 143              		.loc 1 108 0
 144 0010 7047     		bx	lr
 145              		.cfi_endproc
 146              	.LFE1:
 147              		.size	TagGet, .-TagGet
 148              		.section	.text.TLSize,"ax",%progbits
 149              		.align	1
 150              		.global	TLSize
ARM GAS  C:\Users\AHMED~1.ELE\AppData\Local\Temp\ccAhPyWN.s 			page 8


 151              		.thumb
 152              		.thumb_func
 153              		.type	TLSize, %function
 154              	TLSize:
 155              	.LFB2:
 118:src/emvtrans.c ****   //bit 8 is 1, Lenght size if bit 7 to bit 1 plus one
 156              		.loc 1 118 0
 157              		.cfi_startproc
 158              		@ args = 0, pretend = 0, frame = 0
 159              		@ frame_needed = 0, uses_anonymous_args = 0
 160              		@ link register save eliminated.
 161              	.LVL9:
 120:src/emvtrans.c ****     return (*aLD & 0x7F) + 1;
 162              		.loc 1 120 0
 163 0000 0078     		ldrb	r0, [r0]	@ zero_extendqisi2
 164              	.LVL10:
 165 0002 0306     		lsls	r3, r0, #24
 121:src/emvtrans.c ****   return 1;
 166              		.loc 1 121 0
 167 0004 46BF     		itte	mi
 168 0006 00F07F00 		andmi	r0, r0, #127
 169 000a 0130     		addmi	r0, r0, #1
 122:src/emvtrans.c **** }
 170              		.loc 1 122 0
 171 000c 0120     		movpl	r0, #1
 123:src/emvtrans.c **** //*****************************************************************************
 172              		.loc 1 123 0
 173 000e 7047     		bx	lr
 174              		.cfi_endproc
 175              	.LFE2:
 176              		.size	TLSize, .-TLSize
 177              		.section	.text.TLGet,"ax",%progbits
 178              		.align	1
 179              		.global	TLGet
 180              		.thumb
 181              		.thumb_func
 182              		.type	TLGet, %function
 183              	TLGet:
 184              	.LFB3:
 133:src/emvtrans.c ****   //if bit 8 = 0, one byte length field
 185              		.loc 1 133 0
 186              		.cfi_startproc
 187              		@ args = 0, pretend = 0, frame = 0
 188              		@ frame_needed = 0, uses_anonymous_args = 0
 189              		@ link register save eliminated.
 190              	.LVL11:
 135:src/emvtrans.c ****     return *aLD;
 191              		.loc 1 135 0
 192 0000 0378     		ldrb	r3, [r0]	@ zero_extendqisi2
 193 0002 1A06     		lsls	r2, r3, #24
 194 0004 01D4     		bmi	.L20
 136:src/emvtrans.c **** 
 195              		.loc 1 136 0
 196 0006 98B2     		uxth	r0, r3
 197              	.LVL12:
 198 0008 7047     		bx	lr
 199              	.LVL13:
ARM GAS  C:\Users\AHMED~1.ELE\AppData\Local\Temp\ccAhPyWN.s 			page 9


 200              	.L20:
 139:src/emvtrans.c ****     return *(aLD + 1);
 201              		.loc 1 139 0
 202 000a 812B     		cmp	r3, #129
 203 000c 01D1     		bne	.L22
 140:src/emvtrans.c **** 
 204              		.loc 1 140 0
 205 000e 4078     		ldrb	r0, [r0, #1]	@ zero_extendqisi2
 206              	.LVL14:
 207 0010 7047     		bx	lr
 208              	.LVL15:
 209              	.L22:
 142:src/emvtrans.c ****     return WGet(aLD + 1);
 210              		.loc 1 142 0
 211 0012 822B     		cmp	r3, #130
 212 0014 02D1     		bne	.L23
 143:src/emvtrans.c **** 
 213              		.loc 1 143 0
 214 0016 0130     		adds	r0, r0, #1
 215              	.LVL16:
 216 0018 FFF7FEBF 		b	WGet
 217              	.LVL17:
 218              	.L23:
 145:src/emvtrans.c **** }
 219              		.loc 1 145 0
 220 001c 4FF6FF70 		movw	r0, #65535
 221              	.LVL18:
 146:src/emvtrans.c **** //*****************************************************************************
 222              		.loc 1 146 0
 223 0020 7047     		bx	lr
 224              		.cfi_endproc
 225              	.LFE3:
 226              		.size	TLGet, .-TLGet
 227              		.section	.text.LDLoad,"ax",%progbits
 228              		.align	1
 229              		.global	LDLoad
 230              		.thumb
 231              		.thumb_func
 232              		.type	LDLoad, %function
 233              	LDLoad:
 234              	.LFB4:
 158:src/emvtrans.c ****   WORD wNew;
 235              		.loc 1 158 0
 236              		.cfi_startproc
 237              		@ args = 0, pretend = 0, frame = 0
 238              		@ frame_needed = 0, uses_anonymous_args = 0
 239              	.LVL19:
 240 0000 2DE9F041 		push	{r4, r5, r6, r7, r8, lr}
 241              		.cfi_def_cfa_offset 24
 242              		.cfi_offset 4, -24
 243              		.cfi_offset 5, -20
 244              		.cfi_offset 6, -16
 245              		.cfi_offset 7, -12
 246              		.cfi_offset 8, -8
 247              		.cfi_offset 14, -4
 158:src/emvtrans.c ****   WORD wNew;
 248              		.loc 1 158 0
ARM GAS  C:\Users\AHMED~1.ELE\AppData\Local\Temp\ccAhPyWN.s 			page 10


 249 0004 0746     		mov	r7, r0
 250 0006 0C46     		mov	r4, r1
 251 0008 9046     		mov	r8, r2
 164:src/emvtrans.c ****     aSrc += TagSize(aSrc);
 252              		.loc 1 164 0
 253 000a 6525     		movs	r5, #101
 254              	.LVL20:
 255              	.L25:
 256 000c 2046     		mov	r0, r4
 257 000e FFF7FEFF 		bl	TagGet
 258              	.LVL21:
 259 0012 0646     		mov	r6, r0
 260 0014 C0B1     		cbz	r0, .L30
 261              	.LVL22:
 262 0016 013D     		subs	r5, r5, #1
 263              	.LVL23:
 164:src/emvtrans.c ****     aSrc += TagSize(aSrc);
 264              		.loc 1 164 0 is_stmt 0 discriminator 1
 265 0018 15F0FF05 		ands	r5, r5, #255
 266 001c 15D0     		beq	.L27
 267              	.LVL24:
 165:src/emvtrans.c ****     bLen = *aSrc;
 268              		.loc 1 165 0 is_stmt 1
 269 001e 2046     		mov	r0, r4
 270              	.LVL25:
 271 0020 FFF7FEFF 		bl	TagSize
 272              	.LVL26:
 167:src/emvtrans.c ****       if (bLen >= MAX_OUT_SIZE)
 273              		.loc 1 167 0
 274 0024 B045     		cmp	r8, r6
 165:src/emvtrans.c ****     bLen = *aSrc;
 275              		.loc 1 165 0
 276 0026 04EB0001 		add	r1, r4, r0
 277              	.LVL27:
 166:src/emvtrans.c ****     if (aTag == wNew) {
 278              		.loc 1 166 0
 279 002a 225C     		ldrb	r2, [r4, r0]	@ zero_extendqisi2
 280              	.LVL28:
 167:src/emvtrans.c ****       if (bLen >= MAX_OUT_SIZE)
 281              		.loc 1 167 0
 282 002c 07D1     		bne	.L26
 168:src/emvtrans.c ****         break;
 283              		.loc 1 168 0
 284 002e 312A     		cmp	r2, #49
 285 0030 08D8     		bhi	.L29
 170:src/emvtrans.c ****       return TRUE;
 286              		.loc 1 170 0
 287 0032 3846     		mov	r0, r7
 288 0034 0132     		adds	r2, r2, #1
 289              	.LVL29:
 290 0036 FFF7FEFF 		bl	memcpy
 291              	.LVL30:
 171:src/emvtrans.c ****     }
 292              		.loc 1 171 0
 293 003a 0125     		movs	r5, #1
 294              	.LVL31:
 295 003c 05E0     		b	.L27
ARM GAS  C:\Users\AHMED~1.ELE\AppData\Local\Temp\ccAhPyWN.s 			page 11


 296              	.LVL32:
 297              	.L26:
 173:src/emvtrans.c ****   }
 298              		.loc 1 173 0
 299 003e 0132     		adds	r2, r2, #1
 300              	.LVL33:
 301 0040 8C18     		adds	r4, r1, r2
 302              	.LVL34:
 303 0042 E3E7     		b	.L25
 304              	.LVL35:
 305              	.L29:
 175:src/emvtrans.c **** }
 306              		.loc 1 175 0
 307 0044 0025     		movs	r5, #0
 308              	.LVL36:
 309 0046 00E0     		b	.L27
 310              	.LVL37:
 311              	.L30:
 312 0048 0546     		mov	r5, r0
 313              	.LVL38:
 314              	.L27:
 176:src/emvtrans.c **** //*****************************************************************************
 315              		.loc 1 176 0
 316 004a 2846     		mov	r0, r5
 317 004c BDE8F081 		pop	{r4, r5, r6, r7, r8, pc}
 318              		.cfi_endproc
 319              	.LFE4:
 320              		.size	LDLoad, .-LDLoad
 321              		.section	.text.ConvDecimal,"ax",%progbits
 322              		.align	1
 323              		.global	ConvDecimal
 324              		.thumb
 325              		.thumb_func
 326              		.type	ConvDecimal, %function
 327              	ConvDecimal:
 328              	.LFB5:
 188:src/emvtrans.c ****   BYTE buffer[13];
 329              		.loc 1 188 0
 330              		.cfi_startproc
 331              		@ args = 0, pretend = 0, frame = 16
 332              		@ frame_needed = 0, uses_anonymous_args = 0
 333              	.LVL39:
 193:src/emvtrans.c ****     tmp = DWGet(&aBuf[1]);
 334              		.loc 1 193 0
 335 0000 0529     		cmp	r1, #5
 188:src/emvtrans.c ****   BYTE buffer[13];
 336              		.loc 1 188 0
 337 0002 F0B5     		push	{r4, r5, r6, r7, lr}
 338              		.cfi_def_cfa_offset 20
 339              		.cfi_offset 4, -20
 340              		.cfi_offset 5, -16
 341              		.cfi_offset 6, -12
 342              		.cfi_offset 7, -8
 343              		.cfi_offset 14, -4
 344 0004 00F10107 		add	r7, r0, #1
 345 0008 0546     		mov	r5, r0
 346 000a 85B0     		sub	sp, sp, #20
ARM GAS  C:\Users\AHMED~1.ELE\AppData\Local\Temp\ccAhPyWN.s 			page 12


 347              		.cfi_def_cfa_offset 40
 188:src/emvtrans.c ****   BYTE buffer[13];
 348              		.loc 1 188 0
 349 000c 0E46     		mov	r6, r1
 194:src/emvtrans.c ****     lbin2asc(buffer, tmp);
 350              		.loc 1 194 0
 351 000e 3846     		mov	r0, r7
 352              	.LVL40:
 193:src/emvtrans.c ****     tmp = DWGet(&aBuf[1]);
 353              		.loc 1 193 0
 354 0010 06D9     		bls	.L32
 194:src/emvtrans.c ****     lbin2asc(buffer, tmp);
 355              		.loc 1 194 0
 356 0012 FFF7FEFF 		bl	DWGet
 357              	.LVL41:
 358 0016 0146     		mov	r1, r0
 359              	.LVL42:
 195:src/emvtrans.c ****   }
 360              		.loc 1 195 0
 361 0018 6846     		mov	r0, sp
 362              	.LVL43:
 363 001a FFF7FEFF 		bl	lbin2asc
 364              	.LVL44:
 365 001e 05E0     		b	.L33
 366              	.LVL45:
 367              	.L32:
 198:src/emvtrans.c ****     bin2dec(version, buffer, 5);
 368              		.loc 1 198 0
 369 0020 FFF7FEFF 		bl	WGet
 370              	.LVL46:
 199:src/emvtrans.c ****   }
 371              		.loc 1 199 0
 372 0024 6946     		mov	r1, sp
 373 0026 0522     		movs	r2, #5
 374 0028 FFF7FEFF 		bl	bin2dec
 375              	.LVL47:
 376              	.L33:
 202:src/emvtrans.c ****     lead0len = aLen;    /* max leading zeros to ignore */
 377              		.loc 1 202 0
 378 002c 3246     		mov	r2, r6
 379 002e 6846     		mov	r0, sp
 380 0030 3021     		movs	r1, #48
 381 0032 FFF7FEFF 		bl	skpb
 382              	.LVL48:
 383 0036 741C     		adds	r4, r6, #1
 205:src/emvtrans.c ****   memcpy(&aBuf[1], &buffer[lead0len], aBuf[0]);
 384              		.loc 1 205 0
 385 0038 241A     		subs	r4, r4, r0
 202:src/emvtrans.c ****     lead0len = aLen;    /* max leading zeros to ignore */
 386              		.loc 1 202 0
 387 003a 0146     		mov	r1, r0
 388              	.LVL49:
 205:src/emvtrans.c ****   memcpy(&aBuf[1], &buffer[lead0len], aBuf[0]);
 389              		.loc 1 205 0
 390 003c E4B2     		uxtb	r4, r4
 206:src/emvtrans.c ****   buffer[aLen] = '.';
 391              		.loc 1 206 0
ARM GAS  C:\Users\AHMED~1.ELE\AppData\Local\Temp\ccAhPyWN.s 			page 13


 392 003e 6944     		add	r1, r1, sp
 393 0040 2246     		mov	r2, r4
 205:src/emvtrans.c ****   memcpy(&aBuf[1], &buffer[lead0len], aBuf[0]);
 394              		.loc 1 205 0
 395 0042 2C70     		strb	r4, [r5]
 206:src/emvtrans.c ****   buffer[aLen] = '.';
 396              		.loc 1 206 0
 397 0044 3846     		mov	r0, r7
 398              	.LVL50:
 399 0046 FFF7FEFF 		bl	memcpy
 400              	.LVL51:
 207:src/emvtrans.c ****   memcpy(&aBuf[aBuf[0]+1], &buffer[aLen], 3);
 401              		.loc 1 207 0
 402 004a 04AB     		add	r3, sp, #16
 403 004c 3344     		add	r3, r3, r6
 404 004e 2E22     		movs	r2, #46
 208:src/emvtrans.c ****   aBuf[0] += 3;
 405              		.loc 1 208 0
 406 0050 601C     		adds	r0, r4, #1
 207:src/emvtrans.c ****   memcpy(&aBuf[aBuf[0]+1], &buffer[aLen], 3);
 407              		.loc 1 207 0
 408 0052 03F8102C 		strb	r2, [r3, #-16]
 208:src/emvtrans.c ****   aBuf[0] += 3;
 409              		.loc 1 208 0
 410 0056 2844     		add	r0, r0, r5
 411 0058 0DEB0601 		add	r1, sp, r6
 412 005c 0322     		movs	r2, #3
 413 005e FFF7FEFF 		bl	memcpy
 414              	.LVL52:
 209:src/emvtrans.c **** 
 415              		.loc 1 209 0
 416 0062 2B78     		ldrb	r3, [r5]	@ zero_extendqisi2
 417 0064 0333     		adds	r3, r3, #3
 418 0066 2B70     		strb	r3, [r5]
 211:src/emvtrans.c **** //*****************************************************************************
 419              		.loc 1 211 0
 420 0068 05B0     		add	sp, sp, #20
 421              		.cfi_def_cfa_offset 20
 422              		@ sp needed
 423 006a F0BD     		pop	{r4, r5, r6, r7, pc}
 424              		.cfi_endproc
 425              	.LFE5:
 426              		.size	ConvDecimal, .-ConvDecimal
 427              		.section	.text.ClrEMVKey,"ax",%progbits
 428              		.align	1
 429              		.global	ClrEMVKey
 430              		.thumb
 431              		.thumb_func
 432              		.type	ClrEMVKey, %function
 433              	ClrEMVKey:
 434              	.LFB8:
 241:src/emvtrans.c **** //*****************************************************************************
 242:src/emvtrans.c **** //  Function        : ClrEMVKey
 243:src/emvtrans.c **** //  Description     : Clear All EMV Keys.
 244:src/emvtrans.c **** //  Input           : N/A
 245:src/emvtrans.c **** //  Return          : N/A
 246:src/emvtrans.c **** //  Note            : N/A
ARM GAS  C:\Users\AHMED~1.ELE\AppData\Local\Temp\ccAhPyWN.s 			page 14


 247:src/emvtrans.c **** //  Globals Changed : N/A
 248:src/emvtrans.c **** //*****************************************************************************
 249:src/emvtrans.c **** void ClrEMVKey(void)
 250:src/emvtrans.c **** {
 435              		.loc 1 250 0
 436              		.cfi_startproc
 437              		@ args = 0, pretend = 0, frame = 0
 438              		@ frame_needed = 0, uses_anonymous_args = 0
 439 0000 73B5     		push	{r0, r1, r4, r5, r6, lr}
 440              		.cfi_def_cfa_offset 24
 441              		.cfi_offset 4, -16
 442              		.cfi_offset 5, -12
 443              		.cfi_offset 6, -8
 444              		.cfi_offset 14, -4
 251:src/emvtrans.c ****   if (!KernelReady())
 445              		.loc 1 251 0
 446 0002 FFF7FEFF 		bl	KernelReady
 447              	.LVL53:
 448 0006 D0B1     		cbz	r0, .L34
 449              	.LBB4:
 450              	.LBB5:
 252:src/emvtrans.c ****     return;
 253:src/emvtrans.c **** 
 254:src/emvtrans.c ****   sEMVIn->bMsg = sEMVOut->bMsg = sbIOBuf;
 451              		.loc 1 254 0
 452 0008 0E4B     		ldr	r3, .L38
 255:src/emvtrans.c ****   memset(sEMVIn->bMsg, 0, 6);
 453              		.loc 1 255 0
 454 000a 0626     		movs	r6, #6
 254:src/emvtrans.c ****   memset(sEMVIn->bMsg, 0, 6);
 455              		.loc 1 254 0
 456 000c 93E83000 		ldmia	r3, {r4, r5}
 457 0010 9868     		ldr	r0, [r3, #8]
 458              		.loc 1 255 0
 459 0012 0021     		movs	r1, #0
 254:src/emvtrans.c ****   memset(sEMVIn->bMsg, 0, 6);
 460              		.loc 1 254 0
 461 0014 6860     		str	r0, [r5, #4]
 462              		.loc 1 255 0
 463 0016 3246     		mov	r2, r6
 254:src/emvtrans.c ****   memset(sEMVIn->bMsg, 0, 6);
 464              		.loc 1 254 0
 465 0018 6060     		str	r0, [r4, #4]
 466              		.loc 1 255 0
 467 001a FFF7FEFF 		bl	memset
 468              	.LVL54:
 256:src/emvtrans.c ****   sEMVIn->wLen = 6;
 469              		.loc 1 256 0
 470 001e 2680     		strh	r6, [r4]	@ movhi
 257:src/emvtrans.c ****   if (EMV_DllSetup(IOCMD_KEY_LOADING,sEMVIn,sEMVOut) == FALSE)     // clear all key
 471              		.loc 1 257 0
 472 0020 0E20     		movs	r0, #14
 473 0022 0095     		str	r5, [sp]
 474 0024 0021     		movs	r1, #0
 475 0026 0222     		movs	r2, #2
 476 0028 2346     		mov	r3, r4
 477 002a FFF7FEFF 		bl	lib_app_call
ARM GAS  C:\Users\AHMED~1.ELE\AppData\Local\Temp\ccAhPyWN.s 			page 15


 478              	.LVL55:
 479 002e 10F0FF0F 		tst	r0, #255
 480 0032 04D1     		bne	.L34
 481              	.LBE5:
 482              	.LBE4:
 258:src/emvtrans.c ****     EMVFatal();
 259:src/emvtrans.c **** }
 483              		.loc 1 259 0
 484 0034 02B0     		add	sp, sp, #8
 485              		.cfi_remember_state
 486              		.cfi_def_cfa_offset 16
 487              		@ sp needed
 488 0036 BDE87040 		pop	{r4, r5, r6, lr}
 489              		.cfi_restore 14
 490              		.cfi_restore 6
 491              		.cfi_restore 5
 492              		.cfi_restore 4
 493              		.cfi_def_cfa_offset 0
 494              	.LBB7:
 495              	.LBB6:
 258:src/emvtrans.c ****     EMVFatal();
 496              		.loc 1 258 0
 497 003a FFF7FEBF 		b	EMVFatal
 498              	.LVL56:
 499              	.L34:
 500              		.cfi_restore_state
 501              	.LBE6:
 502              	.LBE7:
 503              		.loc 1 259 0
 504 003e 02B0     		add	sp, sp, #8
 505              		.cfi_def_cfa_offset 16
 506              		@ sp needed
 507 0040 70BD     		pop	{r4, r5, r6, pc}
 508              	.L39:
 509 0042 00BF     		.align	2
 510              	.L38:
 511 0044 00000000 		.word	.LANCHOR0
 512              		.cfi_endproc
 513              	.LFE8:
 514              		.size	ClrEMVKey, .-ClrEMVKey
 515              		.section	.text.ClrEMVParam,"ax",%progbits
 516              		.align	1
 517              		.global	ClrEMVParam
 518              		.thumb
 519              		.thumb_func
 520              		.type	ClrEMVParam, %function
 521              	ClrEMVParam:
 522              	.LFB9:
 260:src/emvtrans.c **** //*****************************************************************************
 261:src/emvtrans.c **** //  Function        : ClrEMVParam
 262:src/emvtrans.c **** //  Description     : Clear all EMV dll's parameters.
 263:src/emvtrans.c **** //  Input           : N/A
 264:src/emvtrans.c **** //  Return          : N/A
 265:src/emvtrans.c **** //  Note            : N/A
 266:src/emvtrans.c **** //  Globals Changed : N/A
 267:src/emvtrans.c **** //*****************************************************************************
 268:src/emvtrans.c **** void ClrEMVParam(void)
ARM GAS  C:\Users\AHMED~1.ELE\AppData\Local\Temp\ccAhPyWN.s 			page 16


 269:src/emvtrans.c **** {
 523              		.loc 1 269 0
 524              		.cfi_startproc
 525              		@ args = 0, pretend = 0, frame = 0
 526              		@ frame_needed = 0, uses_anonymous_args = 0
 527 0000 13B5     		push	{r0, r1, r4, lr}
 528              		.cfi_def_cfa_offset 16
 529              		.cfi_offset 4, -8
 530              		.cfi_offset 14, -4
 270:src/emvtrans.c ****   if (!KernelReady())
 531              		.loc 1 270 0
 532 0002 FFF7FEFF 		bl	KernelReady
 533              	.LVL57:
 534 0006 00B3     		cbz	r0, .L40
 535              	.LBB10:
 536              	.LBB11:
 271:src/emvtrans.c ****     return;
 272:src/emvtrans.c **** 
 273:src/emvtrans.c ****   sEMVIn->bMsg = sEMVOut->bMsg = sbIOBuf;
 537              		.loc 1 273 0
 538 0008 114C     		ldr	r4, .L46
 274:src/emvtrans.c **** 
 275:src/emvtrans.c ****   GetSysCfgMW(K_CF_SerialNo, sEMVIn->bMsg);
 539              		.loc 1 275 0
 540 000a B920     		movs	r0, #185
 273:src/emvtrans.c **** 
 541              		.loc 1 273 0
 542 000c A268     		ldr	r2, [r4, #8]
 543 000e 2368     		ldr	r3, [r4]
 544 0010 6168     		ldr	r1, [r4, #4]
 545 0012 4A60     		str	r2, [r1, #4]
 546 0014 5A60     		str	r2, [r3, #4]
 547              		.loc 1 275 0
 548 0016 0221     		movs	r1, #2
 549 0018 FFF7FEFF 		bl	sys_func2
 550              	.LVL58:
 276:src/emvtrans.c ****   sEMVIn->wLen = 8;
 551              		.loc 1 276 0
 552 001c 2368     		ldr	r3, [r4]
 553 001e 0822     		movs	r2, #8
 277:src/emvtrans.c **** 
 278:src/emvtrans.c ****   if (EMV_DllSetup(IOCMD_IFDSN_RW,sEMVIn,sEMVOut) == FALSE)     // set IFDSN
 554              		.loc 1 278 0
 555 0020 0E20     		movs	r0, #14
 276:src/emvtrans.c ****   sEMVIn->wLen = 8;
 556              		.loc 1 276 0
 557 0022 1A80     		strh	r2, [r3]	@ movhi
 558              		.loc 1 278 0
 559 0024 6268     		ldr	r2, [r4, #4]
 560 0026 0021     		movs	r1, #0
 561 0028 0092     		str	r2, [sp]
 562 002a 0122     		movs	r2, #1
 563 002c FFF7FEFF 		bl	lib_app_call
 564              	.LVL59:
 565 0030 10F0FF0F 		tst	r0, #255
 566 0034 01D1     		bne	.L42
 279:src/emvtrans.c ****     EMVFatal();
ARM GAS  C:\Users\AHMED~1.ELE\AppData\Local\Temp\ccAhPyWN.s 			page 17


 567              		.loc 1 279 0
 568 0036 FFF7FEFF 		bl	EMVFatal
 569              	.LVL60:
 570              	.L42:
 280:src/emvtrans.c **** 
 281:src/emvtrans.c ****   EMV_DllSetup(IOCMD_CLR_AID,sEMVIn,sEMVOut);              // clear AID parameters
 571              		.loc 1 281 0
 572 003a 6368     		ldr	r3, [r4, #4]
 573 003c 0E20     		movs	r0, #14
 574 003e 0093     		str	r3, [sp]
 575 0040 0021     		movs	r1, #0
 576 0042 0322     		movs	r2, #3
 577 0044 2368     		ldr	r3, [r4]
 578 0046 FFF7FEFF 		bl	lib_app_call
 579              	.LVL61:
 580              	.L40:
 581              	.LBE11:
 582              	.LBE10:
 282:src/emvtrans.c **** }
 583              		.loc 1 282 0
 584 004a 02B0     		add	sp, sp, #8
 585              		.cfi_def_cfa_offset 8
 586              		@ sp needed
 587 004c 10BD     		pop	{r4, pc}
 588              	.L47:
 589 004e 00BF     		.align	2
 590              	.L46:
 591 0050 00000000 		.word	.LANCHOR0
 592              		.cfi_endproc
 593              	.LFE9:
 594              		.size	ClrEMVParam, .-ClrEMVParam
 595              		.section	.text.SetEMVLoaded,"ax",%progbits
 596              		.align	1
 597              		.global	SetEMVLoaded
 598              		.thumb
 599              		.thumb_func
 600              		.type	SetEMVLoaded, %function
 601              	SetEMVLoaded:
 602              	.LFB10:
 283:src/emvtrans.c **** //*****************************************************************************
 284:src/emvtrans.c **** //  Function        : SetEMVLoaded
 285:src/emvtrans.c **** //  Description     : set emv loaded flag
 286:src/emvtrans.c **** //  Input           : aFlag
 287:src/emvtrans.c **** //  Return          : N/A
 288:src/emvtrans.c **** //  Note            : N/A
 289:src/emvtrans.c **** //  Globals Changed : N/A
 290:src/emvtrans.c **** //*****************************************************************************
 291:src/emvtrans.c **** void SetEMVLoaded(BYTE aFlag)
 292:src/emvtrans.c **** {
 603              		.loc 1 292 0
 604              		.cfi_startproc
 605              		@ args = 0, pretend = 0, frame = 0
 606              		@ frame_needed = 0, uses_anonymous_args = 0
 607              		@ link register save eliminated.
 608              	.LVL62:
 293:src/emvtrans.c ****   bEmvLoaded |= aFlag;
 609              		.loc 1 293 0
ARM GAS  C:\Users\AHMED~1.ELE\AppData\Local\Temp\ccAhPyWN.s 			page 18


 610 0000 024A     		ldr	r2, .L49
 611 0002 137B     		ldrb	r3, [r2, #12]	@ zero_extendqisi2
 612 0004 1843     		orrs	r0, r0, r3
 613              	.LVL63:
 614 0006 1073     		strb	r0, [r2, #12]
 615 0008 7047     		bx	lr
 616              	.L50:
 617 000a 00BF     		.align	2
 618              	.L49:
 619 000c 00000000 		.word	.LANCHOR0
 620              		.cfi_endproc
 621              	.LFE10:
 622              		.size	SetEMVLoaded, .-SetEMVLoaded
 623              		.section	.text.EMVClrDnloadBuf,"ax",%progbits
 624              		.align	1
 625              		.global	EMVClrDnloadBuf
 626              		.thumb
 627              		.thumb_func
 628              		.type	EMVClrDnloadBuf, %function
 629              	EMVClrDnloadBuf:
 630              	.LFB11:
 294:src/emvtrans.c **** }
 295:src/emvtrans.c **** //*****************************************************************************
 296:src/emvtrans.c **** //  Function        : EMVClrDnloadBuf
 297:src/emvtrans.c **** //  Description     : Prepare download buffer for EMV data download.
 298:src/emvtrans.c **** //  Input           : N/A
 299:src/emvtrans.c **** //  Return          : N/A
 300:src/emvtrans.c **** //  Note            : N/A
 301:src/emvtrans.c **** //  Globals Changed : N/A
 302:src/emvtrans.c **** //*****************************************************************************
 303:src/emvtrans.c **** void EMVClrDnloadBuf (void)
 304:src/emvtrans.c **** {
 631              		.loc 1 304 0
 632              		.cfi_startproc
 633              		@ args = 0, pretend = 0, frame = 32
 634              		@ frame_needed = 0, uses_anonymous_args = 0
 305:src/emvtrans.c ****   BYTE filename[32];
 306:src/emvtrans.c ****   if (sizeof(APP_CFG) < sizeof(KEY_ROOM))
 307:src/emvtrans.c ****     wChunkSize = sizeof(KEY_ROOM)+3;  // 3B for type and len
 308:src/emvtrans.c ****   else
 309:src/emvtrans.c ****     wChunkSize = sizeof(APP_CFG)+3;   // 3B for type and len
 635              		.loc 1 309 0
 636 0000 164A     		ldr	r2, .L53
 304:src/emvtrans.c ****   BYTE filename[32];
 637              		.loc 1 304 0
 638 0002 30B5     		push	{r4, r5, lr}
 639              		.cfi_def_cfa_offset 12
 640              		.cfi_offset 4, -12
 641              		.cfi_offset 5, -8
 642              		.cfi_offset 14, -4
 643              		.loc 1 309 0
 644 0004 40F21A23 		movw	r3, #538
 310:src/emvtrans.c ****   //bMaxNumBlk = sizeof(sbIOBuf)/wChunkSize;          //29-09-16 JC ++
 311:src/emvtrans.c ****   bMaxNumBlk = 1500/wChunkSize;
 312:src/emvtrans.c ****   bDnloadBlk = bEmvLoaded = 0;
 313:src/emvtrans.c **** 
 314:src/emvtrans.c ****   if (iDnloadFile >= 0) {
ARM GAS  C:\Users\AHMED~1.ELE\AppData\Local\Temp\ccAhPyWN.s 			page 19


 645              		.loc 1 314 0
 646 0008 154C     		ldr	r4, .L53+4
 309:src/emvtrans.c ****   //bMaxNumBlk = sizeof(sbIOBuf)/wChunkSize;          //29-09-16 JC ++
 647              		.loc 1 309 0
 648 000a D381     		strh	r3, [r2, #14]	@ movhi
 311:src/emvtrans.c ****   bDnloadBlk = bEmvLoaded = 0;
 649              		.loc 1 311 0
 650 000c 0223     		movs	r3, #2
 304:src/emvtrans.c ****   BYTE filename[32];
 651              		.loc 1 304 0
 652 000e 8BB0     		sub	sp, sp, #44
 653              		.cfi_def_cfa_offset 56
 311:src/emvtrans.c ****   bDnloadBlk = bEmvLoaded = 0;
 654              		.loc 1 311 0
 655 0010 1374     		strb	r3, [r2, #16]
 312:src/emvtrans.c **** 
 656              		.loc 1 312 0
 657 0012 0023     		movs	r3, #0
 658 0014 1373     		strb	r3, [r2, #12]
 659 0016 5374     		strb	r3, [r2, #17]
 660              		.loc 1 314 0
 661 0018 2268     		ldr	r2, [r4]
 662 001a 9A42     		cmp	r2, r3
 663 001c 07DB     		blt	.L52
 315:src/emvtrans.c ****     fCloseMW(iDnloadFile);
 664              		.loc 1 315 0
 665 001e 0093     		str	r3, [sp]
 666 0020 0F20     		movs	r0, #15
 667 0022 0E21     		movs	r1, #14
 668 0024 FFF7FEFF 		bl	lib_app_call
 669              	.LVL64:
 316:src/emvtrans.c ****     iDnloadFile = -1;
 670              		.loc 1 316 0
 671 0028 4FF0FF33 		mov	r3, #-1
 672 002c 2360     		str	r3, [r4]
 673              	.L52:
 317:src/emvtrans.c ****   }
 318:src/emvtrans.c **** 
 319:src/emvtrans.c ****   strcpy(filename, KEMVTemp);
 320:src/emvtrans.c ****   fDeleteMW(filename);
 674              		.loc 1 320 0
 675 002e 0025     		movs	r5, #0
 319:src/emvtrans.c ****   fDeleteMW(filename);
 676              		.loc 1 319 0
 677 0030 02A8     		add	r0, sp, #8
 678 0032 0C49     		ldr	r1, .L53+8
 679 0034 FFF7FEFF 		bl	strcpy
 680              	.LVL65:
 681              		.loc 1 320 0
 682 0038 02AA     		add	r2, sp, #8
 683 003a 2B46     		mov	r3, r5
 684 003c 0095     		str	r5, [sp]
 685 003e 0C21     		movs	r1, #12
 686 0040 0F20     		movs	r0, #15
 687 0042 FFF7FEFF 		bl	lib_app_call
 688              	.LVL66:
 321:src/emvtrans.c ****   iDnloadFile = fCreateMW(filename, 0);
ARM GAS  C:\Users\AHMED~1.ELE\AppData\Local\Temp\ccAhPyWN.s 			page 20


 689              		.loc 1 321 0
 690 0046 0095     		str	r5, [sp]
 691 0048 0B21     		movs	r1, #11
 692 004a 02AA     		add	r2, sp, #8
 693 004c 2B46     		mov	r3, r5
 694 004e 0F20     		movs	r0, #15
 695 0050 FFF7FEFF 		bl	lib_app_call
 696              	.LVL67:
 697 0054 2060     		str	r0, [r4]
 322:src/emvtrans.c **** }
 698              		.loc 1 322 0
 699 0056 0BB0     		add	sp, sp, #44
 700              		.cfi_def_cfa_offset 12
 701              		@ sp needed
 702 0058 30BD     		pop	{r4, r5, pc}
 703              	.L54:
 704 005a 00BF     		.align	2
 705              	.L53:
 706 005c 00000000 		.word	.LANCHOR0
 707 0060 00000000 		.word	.LANCHOR1
 708 0064 00000000 		.word	.LANCHOR2
 709              		.cfi_endproc
 710              	.LFE11:
 711              		.size	EMVClrDnloadBuf, .-EMVClrDnloadBuf
 712              		.section	.text.EMVKillDnloadBuf,"ax",%progbits
 713              		.align	1
 714              		.global	EMVKillDnloadBuf
 715              		.thumb
 716              		.thumb_func
 717              		.type	EMVKillDnloadBuf, %function
 718              	EMVKillDnloadBuf:
 719              	.LFB12:
 323:src/emvtrans.c **** //*****************************************************************************
 324:src/emvtrans.c **** //  Function        : EMVKillDnloadBuf
 325:src/emvtrans.c **** //  Description     : Kill EMV data download buffer.
 326:src/emvtrans.c **** //  Input           : N/A
 327:src/emvtrans.c **** //  Return          : N/A
 328:src/emvtrans.c **** //  Note            : N/A
 329:src/emvtrans.c **** //  Globals Changed : N/A
 330:src/emvtrans.c **** //*****************************************************************************
 331:src/emvtrans.c **** void EMVKillDnloadBuf (void)
 332:src/emvtrans.c **** {
 720              		.loc 1 332 0
 721              		.cfi_startproc
 722              		@ args = 0, pretend = 0, frame = 32
 723              		@ frame_needed = 0, uses_anonymous_args = 0
 724 0000 10B5     		push	{r4, lr}
 725              		.cfi_def_cfa_offset 8
 726              		.cfi_offset 4, -8
 727              		.cfi_offset 14, -4
 333:src/emvtrans.c ****   BYTE filename[32];
 334:src/emvtrans.c ****   strcpy(filename, KEMVTemp);
 335:src/emvtrans.c ****   if (iDnloadFile >= 0) {
 728              		.loc 1 335 0
 729 0002 0D4C     		ldr	r4, .L57
 332:src/emvtrans.c ****   BYTE filename[32];
 730              		.loc 1 332 0
ARM GAS  C:\Users\AHMED~1.ELE\AppData\Local\Temp\ccAhPyWN.s 			page 21


 731 0004 8AB0     		sub	sp, sp, #40
 732              		.cfi_def_cfa_offset 48
 334:src/emvtrans.c ****   if (iDnloadFile >= 0) {
 733              		.loc 1 334 0
 734 0006 02A8     		add	r0, sp, #8
 735 0008 0C49     		ldr	r1, .L57+4
 736 000a FFF7FEFF 		bl	strcpy
 737              	.LVL68:
 738              		.loc 1 335 0
 739 000e 2268     		ldr	r2, [r4]
 740 0010 002A     		cmp	r2, #0
 741 0012 08DB     		blt	.L56
 336:src/emvtrans.c ****     fCloseMW(iDnloadFile);
 742              		.loc 1 336 0
 743 0014 0023     		movs	r3, #0
 744 0016 0F20     		movs	r0, #15
 745 0018 0093     		str	r3, [sp]
 746 001a 0E21     		movs	r1, #14
 747 001c FFF7FEFF 		bl	lib_app_call
 748              	.LVL69:
 337:src/emvtrans.c ****     iDnloadFile = -1;
 749              		.loc 1 337 0
 750 0020 4FF0FF33 		mov	r3, #-1
 751 0024 2360     		str	r3, [r4]
 752              	.L56:
 338:src/emvtrans.c ****   }
 339:src/emvtrans.c ****   fDeleteMW(filename);
 753              		.loc 1 339 0
 754 0026 0023     		movs	r3, #0
 755 0028 0C21     		movs	r1, #12
 756 002a 0093     		str	r3, [sp]
 757 002c 02AA     		add	r2, sp, #8
 758 002e 0F20     		movs	r0, #15
 759 0030 FFF7FEFF 		bl	lib_app_call
 760              	.LVL70:
 340:src/emvtrans.c **** }
 761              		.loc 1 340 0
 762 0034 0AB0     		add	sp, sp, #40
 763              		.cfi_def_cfa_offset 8
 764              		@ sp needed
 765 0036 10BD     		pop	{r4, pc}
 766              	.L58:
 767              		.align	2
 768              	.L57:
 769 0038 00000000 		.word	.LANCHOR1
 770 003c 00000000 		.word	.LANCHOR2
 771              		.cfi_endproc
 772              	.LFE12:
 773              		.size	EMVKillDnloadBuf, .-EMVKillDnloadBuf
 774              		.section	.text.EMVData2DnloadBuf,"ax",%progbits
 775              		.align	1
 776              		.global	EMVData2DnloadBuf
 777              		.thumb
 778              		.thumb_func
 779              		.type	EMVData2DnloadBuf, %function
 780              	EMVData2DnloadBuf:
 781              	.LFB13:
ARM GAS  C:\Users\AHMED~1.ELE\AppData\Local\Temp\ccAhPyWN.s 			page 22


 341:src/emvtrans.c **** //*****************************************************************************
 342:src/emvtrans.c **** //  Function        : EMVData2DnloadBuf
 343:src/emvtrans.c **** //  Description     : Store EMV param/key to download buffer in file system.
 344:src/emvtrans.c **** //  Input           : aType;        // EMV param or key
 345:src/emvtrans.c **** //                    aData;        // pointer to EMV param or key
 346:src/emvtrans.c **** //                    aLen;         // length of EMV param or key
 347:src/emvtrans.c **** //  Return          : N/A
 348:src/emvtrans.c **** //  Note            : N/A
 349:src/emvtrans.c **** //  Globals Changed : N/A
 350:src/emvtrans.c **** //*****************************************************************************
 351:src/emvtrans.c **** void EMVData2DnloadBuf (BYTE aType, BYTE *aData, WORD aLen)
 352:src/emvtrans.c **** {
 782              		.loc 1 352 0
 783              		.cfi_startproc
 784              		@ args = 0, pretend = 0, frame = 8
 785              		@ frame_needed = 0, uses_anonymous_args = 0
 786              	.LVL71:
 787 0000 2DE9F043 		push	{r4, r5, r6, r7, r8, r9, lr}
 788              		.cfi_def_cfa_offset 28
 789              		.cfi_offset 4, -28
 790              		.cfi_offset 5, -24
 791              		.cfi_offset 6, -20
 792              		.cfi_offset 7, -16
 793              		.cfi_offset 8, -12
 794              		.cfi_offset 9, -8
 795              		.cfi_offset 14, -4
 353:src/emvtrans.c ****   WORD offset;
 354:src/emvtrans.c **** 
 355:src/emvtrans.c ****   offset = wChunkSize*bDnloadBlk;
 796              		.loc 1 355 0
 797 0004 1A4E     		ldr	r6, .L62
 352:src/emvtrans.c ****   WORD offset;
 798              		.loc 1 352 0
 799 0006 85B0     		sub	sp, sp, #20
 800              		.cfi_def_cfa_offset 48
 801              		.loc 1 355 0
 802 0008 747C     		ldrb	r4, [r6, #17]	@ zero_extendqisi2
 803 000a B6F80E80 		ldrh	r8, [r6, #14]
 804              	.LVL72:
 356:src/emvtrans.c ****   sbIOBuf[offset] = aType;
 805              		.loc 1 356 0
 806 000e B768     		ldr	r7, [r6, #8]
 355:src/emvtrans.c ****   sbIOBuf[offset] = aType;
 807              		.loc 1 355 0
 808 0010 14FB08F5 		smulbb	r5, r4, r8
 352:src/emvtrans.c ****   WORD offset;
 809              		.loc 1 352 0
 810 0014 8946     		mov	r9, r1
 811              		.loc 1 356 0
 812 0016 ADB2     		uxth	r5, r5
 352:src/emvtrans.c ****   WORD offset;
 813              		.loc 1 352 0
 814 0018 04A9     		add	r1, sp, #16
 815              	.LVL73:
 816              		.loc 1 356 0
 817 001a 7855     		strb	r0, [r7, r5]
 357:src/emvtrans.c ****   memcpy(&sbIOBuf[offset+1], &aLen, 2);
ARM GAS  C:\Users\AHMED~1.ELE\AppData\Local\Temp\ccAhPyWN.s 			page 23


 818              		.loc 1 357 0
 819 001c 681C     		adds	r0, r5, #1
 820              	.LVL74:
 352:src/emvtrans.c ****   WORD offset;
 821              		.loc 1 352 0
 822 001e 21F8022D 		strh	r2, [r1, #-2]!	@ movhi
 823              		.loc 1 357 0
 824 0022 3844     		add	r0, r0, r7
 825 0024 0222     		movs	r2, #2
 826              	.LVL75:
 827 0026 FFF7FEFF 		bl	memcpy
 828              	.LVL76:
 358:src/emvtrans.c ****   memcpy(&sbIOBuf[offset+3], aData, aLen);
 829              		.loc 1 358 0
 830 002a E81C     		adds	r0, r5, #3
 831 002c BDF80E20 		ldrh	r2, [sp, #14]
 832 0030 3844     		add	r0, r0, r7
 833 0032 4946     		mov	r1, r9
 834 0034 FFF7FEFF 		bl	memcpy
 835              	.LVL77:
 359:src/emvtrans.c **** 
 360:src/emvtrans.c ****   if (++bDnloadBlk >= bMaxNumBlk) {
 836              		.loc 1 360 0
 837 0038 621C     		adds	r2, r4, #1
 838 003a 337C     		ldrb	r3, [r6, #16]	@ zero_extendqisi2
 839 003c D2B2     		uxtb	r2, r2
 840 003e 9342     		cmp	r3, r2
 841 0040 7274     		strb	r2, [r6, #17]
 842 0042 12D8     		bhi	.L59
 361:src/emvtrans.c ****     if (fWriteMW(iDnloadFile, sbIOBuf, wChunkSize*bDnloadBlk) != (wChunkSize*bDnloadBlk))
 843              		.loc 1 361 0
 844 0044 08FB02F2 		mul	r2, r8, r2
 845 0048 0A4B     		ldr	r3, .L62+4
 846 004a 0092     		str	r2, [sp]
 847 004c 0F20     		movs	r0, #15
 848 004e 1A68     		ldr	r2, [r3]
 849 0050 1221     		movs	r1, #18
 850 0052 3B46     		mov	r3, r7
 851 0054 FFF7FEFF 		bl	lib_app_call
 852              	.LVL78:
 853 0058 737C     		ldrb	r3, [r6, #17]	@ zero_extendqisi2
 854 005a F289     		ldrh	r2, [r6, #14]
 855 005c 5343     		muls	r3, r2, r3
 856 005e 9842     		cmp	r0, r3
 362:src/emvtrans.c ****       bEmvLoaded = 0xFF;  // indicate fail
 857              		.loc 1 362 0
 858 0060 1CBF     		itt	ne
 859 0062 FF23     		movne	r3, #255
 860 0064 3373     		strbne	r3, [r6, #12]
 363:src/emvtrans.c ****     bDnloadBlk = 0;
 861              		.loc 1 363 0
 862 0066 0023     		movs	r3, #0
 863 0068 7374     		strb	r3, [r6, #17]
 864              	.L59:
 364:src/emvtrans.c ****   }
 365:src/emvtrans.c **** }
 865              		.loc 1 365 0
ARM GAS  C:\Users\AHMED~1.ELE\AppData\Local\Temp\ccAhPyWN.s 			page 24


 866 006a 05B0     		add	sp, sp, #20
 867              		.cfi_def_cfa_offset 28
 868              		@ sp needed
 869 006c BDE8F083 		pop	{r4, r5, r6, r7, r8, r9, pc}
 870              	.LVL79:
 871              	.L63:
 872              		.align	2
 873              	.L62:
 874 0070 00000000 		.word	.LANCHOR0
 875 0074 00000000 		.word	.LANCHOR1
 876              		.cfi_endproc
 877              	.LFE13:
 878              		.size	EMVData2DnloadBuf, .-EMVData2DnloadBuf
 879              		.section	.text.EMVDataUpdate,"ax",%progbits
 880              		.align	1
 881              		.global	EMVDataUpdate
 882              		.thumb
 883              		.thumb_func
 884              		.type	EMVDataUpdate, %function
 885              	EMVDataUpdate:
 886              	.LFB14:
 366:src/emvtrans.c **** //*****************************************************************************
 367:src/emvtrans.c **** //  Function        : EMVDataUpdate
 368:src/emvtrans.c **** //  Description     : Clear/Store param/key to EMVDLL.
 369:src/emvtrans.c **** //  Input           : N/A
 370:src/emvtrans.c **** //  Return          : N/A
 371:src/emvtrans.c **** //  Note            : N/A
 372:src/emvtrans.c **** //  Globals Changed : N/A
 373:src/emvtrans.c **** //*****************************************************************************
 374:src/emvtrans.c **** void EMVDataUpdate (void)
 375:src/emvtrans.c **** {
 887              		.loc 1 375 0
 888              		.cfi_startproc
 889              		@ args = 0, pretend = 0, frame = 8
 890              		@ frame_needed = 0, uses_anonymous_args = 0
 891 0000 2DE9F043 		push	{r4, r5, r6, r7, r8, r9, lr}
 892              		.cfi_def_cfa_offset 28
 893              		.cfi_offset 4, -28
 894              		.cfi_offset 5, -24
 895              		.cfi_offset 6, -20
 896              		.cfi_offset 7, -16
 897              		.cfi_offset 8, -12
 898              		.cfi_offset 9, -8
 899              		.cfi_offset 14, -4
 900 0004 85B0     		sub	sp, sp, #20
 901              		.cfi_def_cfa_offset 48
 376:src/emvtrans.c ****   int size, len;
 377:src/emvtrans.c ****   BYTE type;
 378:src/emvtrans.c **** 
 379:src/emvtrans.c ****   if (!KernelReady() || (bEmvLoaded == 0xFF) || (bEmvLoaded == 0x00))
 902              		.loc 1 379 0
 903 0006 FFF7FEFF 		bl	KernelReady
 904              	.LVL80:
 905 000a 0028     		cmp	r0, #0
 906 000c 00F09380 		beq	.L64
 907              		.loc 1 379 0 is_stmt 0 discriminator 1
 908 0010 4A4C     		ldr	r4, .L93
ARM GAS  C:\Users\AHMED~1.ELE\AppData\Local\Temp\ccAhPyWN.s 			page 25


 909 0012 237B     		ldrb	r3, [r4, #12]	@ zero_extendqisi2
 910 0014 013B     		subs	r3, r3, #1
 911 0016 DBB2     		uxtb	r3, r3
 912 0018 FD2B     		cmp	r3, #253
 913 001a 00F28C80 		bhi	.L64
 380:src/emvtrans.c ****     return;
 381:src/emvtrans.c **** 
 382:src/emvtrans.c ****   if ((bDnloadBlk != 0) && (bDnloadBlk < bMaxNumBlk)) { // store remaining data chunk
 914              		.loc 1 382 0 is_stmt 1
 915 001e 627C     		ldrb	r2, [r4, #17]	@ zero_extendqisi2
 916 0020 474D     		ldr	r5, .L93+4
 917 0022 32B9     		cbnz	r2, .L66
 918              	.L69:
 383:src/emvtrans.c ****     if (fWriteMW(iDnloadFile, sbIOBuf, wChunkSize*bDnloadBlk) != (wChunkSize*bDnloadBlk))
 384:src/emvtrans.c ****       return;
 385:src/emvtrans.c ****   }
 386:src/emvtrans.c **** 
 387:src/emvtrans.c ****   if (bEmvLoaded & 0x80)
 919              		.loc 1 387 0
 920 0024 94F90C30 		ldrsb	r3, [r4, #12]
 921 0028 002B     		cmp	r3, #0
 922 002a 14DA     		bge	.L68
 388:src/emvtrans.c ****     ClrEMVParam();
 923              		.loc 1 388 0
 924 002c FFF7FEFF 		bl	ClrEMVParam
 925              	.LVL81:
 926 0030 11E0     		b	.L68
 927              	.L66:
 382:src/emvtrans.c ****     if (fWriteMW(iDnloadFile, sbIOBuf, wChunkSize*bDnloadBlk) != (wChunkSize*bDnloadBlk))
 928              		.loc 1 382 0 discriminator 1
 929 0032 237C     		ldrb	r3, [r4, #16]	@ zero_extendqisi2
 930 0034 9342     		cmp	r3, r2
 931 0036 F5D9     		bls	.L69
 383:src/emvtrans.c ****     if (fWriteMW(iDnloadFile, sbIOBuf, wChunkSize*bDnloadBlk) != (wChunkSize*bDnloadBlk))
 932              		.loc 1 383 0
 933 0038 E389     		ldrh	r3, [r4, #14]
 934 003a 0F20     		movs	r0, #15
 935 003c 5343     		muls	r3, r2, r3
 936 003e 1221     		movs	r1, #18
 937 0040 0093     		str	r3, [sp]
 938 0042 A368     		ldr	r3, [r4, #8]
 939 0044 2A68     		ldr	r2, [r5]
 940 0046 FFF7FEFF 		bl	lib_app_call
 941              	.LVL82:
 942 004a E289     		ldrh	r2, [r4, #14]
 943 004c 637C     		ldrb	r3, [r4, #17]	@ zero_extendqisi2
 944 004e 5343     		muls	r3, r2, r3
 945 0050 9842     		cmp	r0, r3
 946 0052 70D1     		bne	.L64
 947 0054 E6E7     		b	.L69
 948              	.L68:
 389:src/emvtrans.c ****   if (bEmvLoaded & 0x40)
 949              		.loc 1 389 0
 950 0056 237B     		ldrb	r3, [r4, #12]	@ zero_extendqisi2
 951 0058 5A06     		lsls	r2, r3, #25
 952 005a 01D5     		bpl	.L70
 390:src/emvtrans.c ****     ClrEMVKey();
ARM GAS  C:\Users\AHMED~1.ELE\AppData\Local\Temp\ccAhPyWN.s 			page 26


 953              		.loc 1 390 0
 954 005c FFF7FEFF 		bl	ClrEMVKey
 955              	.LVL83:
 956              	.L70:
 391:src/emvtrans.c **** 
 392:src/emvtrans.c ****   //fFlushMW(iDnloadFile);
 393:src/emvtrans.c ****   size = fLengthMW(iDnloadFile);
 957              		.loc 1 393 0
 958 0060 0026     		movs	r6, #0
 959 0062 0F20     		movs	r0, #15
 960 0064 0096     		str	r6, [sp]
 961 0066 3346     		mov	r3, r6
 962 0068 0146     		mov	r1, r0
 963 006a 2A68     		ldr	r2, [r5]
 964 006c FFF7FEFF 		bl	lib_app_call
 965              	.LVL84:
 394:src/emvtrans.c ****   fSeekMW(iDnloadFile, 0);
 966              		.loc 1 394 0
 967 0070 0096     		str	r6, [sp]
 968 0072 3346     		mov	r3, r6
 969 0074 1021     		movs	r1, #16
 393:src/emvtrans.c ****   fSeekMW(iDnloadFile, 0);
 970              		.loc 1 393 0
 971 0076 0746     		mov	r7, r0
 972              	.LVL85:
 973              		.loc 1 394 0
 974 0078 2A68     		ldr	r2, [r5]
 975 007a 0F20     		movs	r0, #15
 976              	.LVL86:
 977 007c FFF7FEFF 		bl	lib_app_call
 978              	.LVL87:
 395:src/emvtrans.c ****   len = wChunkSize-1;
 979              		.loc 1 395 0
 980 0080 E689     		ldrh	r6, [r4, #14]
 981 0082 06F1FF39 		add	r9, r6, #-1
 982              	.LVL88:
 983              	.L71:
 396:src/emvtrans.c ****   while (size > 0) {
 984              		.loc 1 396 0
 985 0086 002F     		cmp	r7, #0
 986 0088 33DD     		ble	.L73
 397:src/emvtrans.c ****     fReadMW(iDnloadFile, &type, 1);
 987              		.loc 1 397 0
 988 008a 0123     		movs	r3, #1
 989 008c 0F20     		movs	r0, #15
 990 008e 0093     		str	r3, [sp]
 991 0090 1121     		movs	r1, #17
 992 0092 2A68     		ldr	r2, [r5]
 993 0094 0DEB0003 		add	r3, sp, r0
 994 0098 FFF7FEFF 		bl	lib_app_call
 995              	.LVL89:
 398:src/emvtrans.c ****     fReadMW(iDnloadFile, &sEMVIn->wLen, 2);
 996              		.loc 1 398 0
 997 009c 0223     		movs	r3, #2
 998 009e 1121     		movs	r1, #17
 999 00a0 0093     		str	r3, [sp]
 1000 00a2 0F20     		movs	r0, #15
ARM GAS  C:\Users\AHMED~1.ELE\AppData\Local\Temp\ccAhPyWN.s 			page 27


 1001 00a4 2A68     		ldr	r2, [r5]
 1002 00a6 2368     		ldr	r3, [r4]
 1003 00a8 FFF7FEFF 		bl	lib_app_call
 1004              	.LVL90:
 399:src/emvtrans.c ****     if (fReadMW(iDnloadFile, sEMVIn->bMsg, len-2) == (len-2)) {
 1005              		.loc 1 399 0
 1006 00ac 2368     		ldr	r3, [r4]
 1007 00ae A9F10202 		sub	r2, r9, #2
 1008 00b2 0F20     		movs	r0, #15
 1009 00b4 0092     		str	r2, [sp]
 1010 00b6 1121     		movs	r1, #17
 1011 00b8 5B68     		ldr	r3, [r3, #4]
 1012 00ba 2A68     		ldr	r2, [r5]
 1013 00bc FFF7FEFF 		bl	lib_app_call
 1014              	.LVL91:
 1015 00c0 F31E     		subs	r3, r6, #3
 398:src/emvtrans.c ****     fReadMW(iDnloadFile, &sEMVIn->wLen, 2);
 1016              		.loc 1 398 0
 1017 00c2 DFF87880 		ldr	r8, .L93
 1018              		.loc 1 399 0
 1019 00c6 9842     		cmp	r0, r3
 1020 00c8 0FD1     		bne	.L72
 400:src/emvtrans.c ****       if (EMV_DllSetup(type, sEMVIn, sEMVOut)) {
 1021              		.loc 1 400 0
 1022 00ca D8F80430 		ldr	r3, [r8, #4]
 1023 00ce 9DF80F20 		ldrb	r2, [sp, #15]	@ zero_extendqisi2
 1024 00d2 0093     		str	r3, [sp]
 1025 00d4 0E20     		movs	r0, #14
 1026 00d6 0021     		movs	r1, #0
 1027 00d8 D8F80030 		ldr	r3, [r8]
 1028 00dc FFF7FEFF 		bl	lib_app_call
 1029              	.LVL92:
 1030 00e0 10F0FF0F 		tst	r0, #255
 1031 00e4 01D0     		beq	.L72
 1032 00e6 BF1B     		subs	r7, r7, r6
 1033              	.LVL93:
 401:src/emvtrans.c ****         size -= (len+1);
 402:src/emvtrans.c ****         continue;
 1034              		.loc 1 402 0
 1035 00e8 CDE7     		b	.L71
 1036              	.L72:
 403:src/emvtrans.c ****       }
 404:src/emvtrans.c ****     }
 405:src/emvtrans.c ****     bEmvLoaded |= 0x0F;   // indicate fail
 1037              		.loc 1 405 0
 1038 00ea 237B     		ldrb	r3, [r4, #12]	@ zero_extendqisi2
 1039 00ec 43F00F03 		orr	r3, r3, #15
 1040 00f0 2373     		strb	r3, [r4, #12]
 1041              	.L73:
 406:src/emvtrans.c ****     break;
 407:src/emvtrans.c ****   }
 408:src/emvtrans.c ****   if ((bEmvLoaded & 0x0F) == 0x01) {
 1042              		.loc 1 408 0
 1043 00f2 237B     		ldrb	r3, [r4, #12]	@ zero_extendqisi2
 1044 00f4 114D     		ldr	r5, .L93
 1045 00f6 03F00F03 		and	r3, r3, #15
 1046 00fa 012B     		cmp	r3, #1
ARM GAS  C:\Users\AHMED~1.ELE\AppData\Local\Temp\ccAhPyWN.s 			page 28


 1047 00fc 0ED1     		bne	.L76
 409:src/emvtrans.c ****     if (EMV_DllSetup(IOCMD_CLOSE_LOAD, sEMVIn, sEMVOut) == FALSE) // close AID loading
 1048              		.loc 1 409 0
 1049 00fe 6B68     		ldr	r3, [r5, #4]
 1050 0100 0E20     		movs	r0, #14
 1051 0102 0093     		str	r3, [sp]
 1052 0104 0021     		movs	r1, #0
 1053 0106 2B68     		ldr	r3, [r5]
 1054 0108 0522     		movs	r2, #5
 1055 010a FFF7FEFF 		bl	lib_app_call
 1056              	.LVL94:
 1057 010e 10F0FF0F 		tst	r0, #255
 410:src/emvtrans.c ****       bEmvLoaded |= 0x0F; // indicate fail
 1058              		.loc 1 410 0
 1059 0112 02BF     		ittt	eq
 1060 0114 2B7B     		ldrbeq	r3, [r5, #12]	@ zero_extendqisi2
 1061 0116 43F00F03 		orreq	r3, r3, #15
 1062 011a 2B73     		strbeq	r3, [r5, #12]
 1063              	.L76:
 411:src/emvtrans.c ****   }
 412:src/emvtrans.c ****   if ((bEmvLoaded & 0x0F) == 0x0F) {
 1064              		.loc 1 412 0
 1065 011c 237B     		ldrb	r3, [r4, #12]	@ zero_extendqisi2
 1066 011e 03F00F02 		and	r2, r3, #15
 1067 0122 0F2A     		cmp	r2, #15
 1068 0124 07D1     		bne	.L64
 413:src/emvtrans.c ****     //if (bEmvLoaded & 0x80)
 414:src/emvtrans.c ****     //  ClrAllParam();
 415:src/emvtrans.c ****     if (bEmvLoaded & 0x40)
 1069              		.loc 1 415 0
 1070 0126 5B06     		lsls	r3, r3, #25
 1071 0128 01D5     		bpl	.L79
 416:src/emvtrans.c ****       ClrEMVKey();
 1072              		.loc 1 416 0
 1073 012a FFF7FEFF 		bl	ClrEMVKey
 1074              	.LVL95:
 1075              	.L79:
 417:src/emvtrans.c ****     EMVKillDnloadBuf();
 1076              		.loc 1 417 0
 1077 012e FFF7FEFF 		bl	EMVKillDnloadBuf
 1078              	.LVL96:
 418:src/emvtrans.c ****     EMVFatal();
 1079              		.loc 1 418 0
 1080 0132 FFF7FEFF 		bl	EMVFatal
 1081              	.LVL97:
 1082              	.L64:
 419:src/emvtrans.c ****   }
 420:src/emvtrans.c **** }
 1083              		.loc 1 420 0
 1084 0136 05B0     		add	sp, sp, #20
 1085              		.cfi_def_cfa_offset 28
 1086              		@ sp needed
 1087 0138 BDE8F083 		pop	{r4, r5, r6, r7, r8, r9, pc}
 1088              	.L94:
 1089              		.align	2
 1090              	.L93:
 1091 013c 00000000 		.word	.LANCHOR0
ARM GAS  C:\Users\AHMED~1.ELE\AppData\Local\Temp\ccAhPyWN.s 			page 29


 1092 0140 00000000 		.word	.LANCHOR1
 1093              		.cfi_endproc
 1094              	.LFE14:
 1095              		.size	EMVDataUpdate, .-EMVDataUpdate
 1096              		.section	.text.GetEMVKeyInfo,"ax",%progbits
 1097              		.align	1
 1098              		.global	GetEMVKeyInfo
 1099              		.thumb
 1100              		.thumb_func
 1101              		.type	GetEMVKeyInfo, %function
 1102              	GetEMVKeyInfo:
 1103              	.LFB16:
 421:src/emvtrans.c **** //*****************************************************************************
 422:src/emvtrans.c **** //  Function        : GetAppCfg
 423:src/emvtrans.c **** //  Description     : Retrieve Configuration from EMV KERNEL.
 424:src/emvtrans.c **** //  Input           : aCfg;     // pointer to buffer
 425:src/emvtrans.c **** //                    aIdx;     // config index.
 426:src/emvtrans.c **** //  Return          : N/A
 427:src/emvtrans.c **** //  Note            : N/A
 428:src/emvtrans.c **** //  Globals Changed : N/A
 429:src/emvtrans.c **** //*****************************************************************************
 430:src/emvtrans.c **** static BOOLEAN GetEMVAppCfg(APP_CFG *aCfg, DWORD aIdx)
 431:src/emvtrans.c **** {
 432:src/emvtrans.c ****   sEMVIn->bMsg = sEMVOut->bMsg = sbIOBuf;
 433:src/emvtrans.c ****   sEMVIn->bMsg[0] = (BYTE) aIdx;
 434:src/emvtrans.c ****   sEMVIn->wLen = 1;
 435:src/emvtrans.c ****   if (EMV_DllSetup(IOCMD_READ_AIDIDX,sEMVIn,sEMVOut) == FALSE)     // load APP parameters
 436:src/emvtrans.c ****     return FALSE;
 437:src/emvtrans.c ****   memcpy(aCfg, sEMVOut->bMsg, sizeof(APP_CFG));
 438:src/emvtrans.c ****   return TRUE;
 439:src/emvtrans.c **** }
 440:src/emvtrans.c **** //*****************************************************************************
 441:src/emvtrans.c **** //  Function        : GetEMVKeyInfo
 442:src/emvtrans.c **** //  Description     : Retrieve Key info. from EMV KERNEL.
 443:src/emvtrans.c **** //  Input           : aKeyInfo;     // pointer to buffer
 444:src/emvtrans.c **** //                    aIdx;         // config index.
 445:src/emvtrans.c **** //  Return          : N/A
 446:src/emvtrans.c **** //  Note            : N/A
 447:src/emvtrans.c **** //  Globals Changed : N/A
 448:src/emvtrans.c **** //*****************************************************************************
 449:src/emvtrans.c **** BOOLEAN GetEMVKeyInfo(KEY_INFO *aKeyInfo, DWORD aIdx)
 450:src/emvtrans.c **** {
 1104              		.loc 1 450 0
 1105              		.cfi_startproc
 1106              		@ args = 0, pretend = 0, frame = 0
 1107              		@ frame_needed = 0, uses_anonymous_args = 0
 1108              	.LVL98:
 1109 0000 73B5     		push	{r0, r1, r4, r5, r6, lr}
 1110              		.cfi_def_cfa_offset 24
 1111              		.cfi_offset 4, -16
 1112              		.cfi_offset 5, -12
 1113              		.cfi_offset 6, -8
 1114              		.cfi_offset 14, -4
 451:src/emvtrans.c ****   sEMVIn->bMsg = sEMVOut->bMsg = sbIOBuf;
 1115              		.loc 1 451 0
 1116 0002 0F4C     		ldr	r4, .L101
 452:src/emvtrans.c ****   sEMVIn->bMsg[0] = (BYTE) aIdx|0x80;
ARM GAS  C:\Users\AHMED~1.ELE\AppData\Local\Temp\ccAhPyWN.s 			page 30


 1117              		.loc 1 452 0
 1118 0004 61F07F01 		orn	r1, r1, #127
 1119              	.LVL99:
 451:src/emvtrans.c ****   sEMVIn->bMsg = sEMVOut->bMsg = sbIOBuf;
 1120              		.loc 1 451 0
 1121 0008 A268     		ldr	r2, [r4, #8]
 1122 000a 2368     		ldr	r3, [r4]
 450:src/emvtrans.c ****   sEMVIn->bMsg = sEMVOut->bMsg = sbIOBuf;
 1123              		.loc 1 450 0
 1124 000c 0646     		mov	r6, r0
 453:src/emvtrans.c ****   sEMVIn->wLen = 1;
 1125              		.loc 1 453 0
 1126 000e 0125     		movs	r5, #1
 451:src/emvtrans.c ****   sEMVIn->bMsg[0] = (BYTE) aIdx|0x80;
 1127              		.loc 1 451 0
 1128 0010 6068     		ldr	r0, [r4, #4]
 1129              	.LVL100:
 1130 0012 4260     		str	r2, [r0, #4]
 1131 0014 5A60     		str	r2, [r3, #4]
 452:src/emvtrans.c ****   sEMVIn->wLen = 1;
 1132              		.loc 1 452 0
 1133 0016 1170     		strb	r1, [r2]
 1134              		.loc 1 453 0
 1135 0018 1D80     		strh	r5, [r3]	@ movhi
 454:src/emvtrans.c **** 
 455:src/emvtrans.c ****   if ((EMV_DllSetup(IOCMD_READ_KEY,sEMVIn,sEMVOut) == FALSE) || (sEMVOut->wLen == 0))     // Read K
 1136              		.loc 1 455 0
 1137 001a 0021     		movs	r1, #0
 1138 001c 0090     		str	r0, [sp]
 1139 001e 0A22     		movs	r2, #10
 1140 0020 0E20     		movs	r0, #14
 1141 0022 FFF7FEFF 		bl	lib_app_call
 1142              	.LVL101:
 1143 0026 C0B2     		uxtb	r0, r0
 1144 0028 40B1     		cbz	r0, .L96
 1145              	.LVL102:
 1146              	.LBB14:
 1147              	.LBB15:
 1148 002a 6368     		ldr	r3, [r4, #4]
 1149 002c 1888     		ldrh	r0, [r3]
 1150 002e 28B1     		cbz	r0, .L96
 456:src/emvtrans.c ****     return FALSE;
 457:src/emvtrans.c **** 
 458:src/emvtrans.c ****   memcpy(aKeyInfo, sEMVOut->bMsg, sizeof(KEY_INFO));
 1151              		.loc 1 458 0
 1152 0030 3046     		mov	r0, r6
 1153 0032 5968     		ldr	r1, [r3, #4]
 1154 0034 0C22     		movs	r2, #12
 1155 0036 FFF7FEFF 		bl	memcpy
 1156              	.LVL103:
 459:src/emvtrans.c ****   return TRUE;
 1157              		.loc 1 459 0
 1158 003a 2846     		mov	r0, r5
 1159              	.LVL104:
 1160              	.L96:
 1161              	.LBE15:
 1162              	.LBE14:
ARM GAS  C:\Users\AHMED~1.ELE\AppData\Local\Temp\ccAhPyWN.s 			page 31


 460:src/emvtrans.c **** }
 1163              		.loc 1 460 0
 1164 003c 02B0     		add	sp, sp, #8
 1165              		.cfi_def_cfa_offset 16
 1166              		@ sp needed
 1167 003e 70BD     		pop	{r4, r5, r6, pc}
 1168              	.LVL105:
 1169              	.L102:
 1170              		.align	2
 1171              	.L101:
 1172 0040 00000000 		.word	.LANCHOR0
 1173              		.cfi_endproc
 1174              	.LFE16:
 1175              		.size	GetEMVKeyInfo, .-GetEMVKeyInfo
 1176              		.global	__aeabi_uidiv
 1177              		.global	__aeabi_uidivmod
 1178              		.section	.text.PrintEMVParam,"ax",%progbits
 1179              		.align	1
 1180              		.global	PrintEMVParam
 1181              		.thumb
 1182              		.thumb_func
 1183              		.type	PrintEMVParam, %function
 1184              	PrintEMVParam:
 1185              	.LFB19:
 461:src/emvtrans.c **** //*****************************************************************************
 462:src/emvtrans.c **** //  Function        : PrintEMVParam
 463:src/emvtrans.c **** //  Description     : print or display EMV parameter report.
 464:src/emvtrans.c **** //  Input           : aEmvCfg
 465:src/emvtrans.c **** //                    aDetail
 466:src/emvtrans.c **** //                    aToDisplay
 467:src/emvtrans.c **** //  Return          : TRUE / FALSE
 468:src/emvtrans.c **** //  Note            : N/A
 469:src/emvtrans.c **** //  Globals Changed : N/A
 470:src/emvtrans.c **** //*****************************************************************************
 471:src/emvtrans.c **** static BOOLEAN PrintEMVAppCfg(APP_CFG aEmvCfg, BOOLEAN aDetail, BOOLEAN aToDisplay)
 472:src/emvtrans.c **** {
 473:src/emvtrans.c ****   BOOLEAN ret_ok = TRUE;
 474:src/emvtrans.c ****   char *p_mem, buf[64], data[64];
 475:src/emvtrans.c ****   WORD len, pack_width;
 476:src/emvtrans.c ****   struct INFO_DATA info_data;
 477:src/emvtrans.c **** 
 478:src/emvtrans.c ****   // allocate large memory
 479:src/emvtrans.c ****   if ((p_mem = MallocMW(1024)) == NULL) {
 480:src/emvtrans.c ****     return FALSE;
 481:src/emvtrans.c ****   }
 482:src/emvtrans.c **** 
 483:src/emvtrans.c ****   // init
 484:src/emvtrans.c ****   len = 0;
 485:src/emvtrans.c ****   pack_width = (aToDisplay)? MW_MAX_LINESIZE : PRINT_WIDTH;
 486:src/emvtrans.c **** 
 487:src/emvtrans.c ****   // AID
 488:src/emvtrans.c ****   if (LDLoad(buf, aEmvCfg.eACFG, 0x9F06)) {
 489:src/emvtrans.c ****     memset(data, 0x00, sizeof(data));
 490:src/emvtrans.c ****     split(data, buf+1, buf[0]);
 491:src/emvtrans.c ****     strcpy(p_mem+len, "AID: ");
 492:src/emvtrans.c ****     len += PackInfoData(p_mem+len, data, pack_width);
 493:src/emvtrans.c ****   }
ARM GAS  C:\Users\AHMED~1.ELE\AppData\Local\Temp\ccAhPyWN.s 			page 32


 494:src/emvtrans.c **** 
 495:src/emvtrans.c ****   // ACQ
 496:src/emvtrans.c ****   strcpy(p_mem+len, "Def ACQ Profile: ");
 497:src/emvtrans.c ****   data[0] = (!(aEmvCfg.eBitField&eMULTI_ACQ))? 'Y' : 'N';
 498:src/emvtrans.c ****   data[1] = 0x00;
 499:src/emvtrans.c ****   len += PackInfoData(p_mem+len, data, pack_width);
 500:src/emvtrans.c **** 
 501:src/emvtrans.c ****   // type & ver
 502:src/emvtrans.c ****   SprintfMW(p_mem+len, "Type: %02X ", aEmvCfg.eType);
 503:src/emvtrans.c ****   memset(data, 0x00, sizeof(data));
 504:src/emvtrans.c ****   if (LDLoad(buf, aEmvCfg.eACFG, 0x9F09)) {
 505:src/emvtrans.c ****     strcpy(data, "Ver: ");
 506:src/emvtrans.c ****     split(data+strlen(data), buf+1, buf[0]);
 507:src/emvtrans.c ****   }
 508:src/emvtrans.c ****   len += PackInfoData(p_mem+len, data, pack_width);
 509:src/emvtrans.c **** 
 510:src/emvtrans.c ****   // floor limit
 511:src/emvtrans.c ****   if (LDLoad(buf, aEmvCfg.eACFG, 0x9F1B)) {
 512:src/emvtrans.c ****     memset(data, 0x00, sizeof(data));
 513:src/emvtrans.c ****     ConvDecimal(buf, 7);
 514:src/emvtrans.c ****     memcpy(data, buf+1, buf[0]);
 515:src/emvtrans.c ****     strcpy(p_mem+len, "FLR LMT: ");
 516:src/emvtrans.c ****     len += PackInfoData(p_mem+len, data, pack_width);
 517:src/emvtrans.c ****   }
 518:src/emvtrans.c **** 
 519:src/emvtrans.c ****   // oversea floor limit
 520:src/emvtrans.c ****   if (LDLoad(buf, aEmvCfg.eACFG, 0xDF7F)) {
 521:src/emvtrans.c ****     memset(data, 0x00, sizeof(data));
 522:src/emvtrans.c ****     ConvDecimal(buf, 7);
 523:src/emvtrans.c ****     memcpy(data, buf+1, buf[0]);
 524:src/emvtrans.c ****     strcpy(p_mem+len, "FLR LMT(O): ");
 525:src/emvtrans.c ****     len += PackInfoData(p_mem+len, data, pack_width);
 526:src/emvtrans.c ****   }
 527:src/emvtrans.c **** 
 528:src/emvtrans.c ****   // basic random
 529:src/emvtrans.c ****   strcpy(p_mem+len, "Basic Random: ");
 530:src/emvtrans.c ****   SprintfMW(data, "%0d.%02d", aEmvCfg.eRSBThresh/100, aEmvCfg.eRSBThresh%100);
 531:src/emvtrans.c ****   len += PackInfoData(p_mem+len, data, pack_width);
 532:src/emvtrans.c **** 
 533:src/emvtrans.c ****   // target & max target
 534:src/emvtrans.c ****   strcpy(p_mem+len, "Target %: ");
 535:src/emvtrans.c ****   SprintfMW(data, "%02d-%02d", aEmvCfg.eRSTarget, aEmvCfg.eRSBMax);
 536:src/emvtrans.c ****   len += PackInfoData(p_mem+len, data, pack_width);
 537:src/emvtrans.c **** 
 538:src/emvtrans.c ****   // country
 539:src/emvtrans.c ****   if (LDLoad(buf, aEmvCfg.eACFG, 0x9F1A)) {
 540:src/emvtrans.c ****     memset(data, 0x00, sizeof(data));
 541:src/emvtrans.c ****     split(data, buf+1, buf[0]);
 542:src/emvtrans.c ****     strcpy(p_mem+len, "Country: ");
 543:src/emvtrans.c ****     len += PackInfoData(p_mem+len, data+1, pack_width);
 544:src/emvtrans.c ****   }
 545:src/emvtrans.c **** 
 546:src/emvtrans.c ****   //currency
 547:src/emvtrans.c ****   if (LDLoad(buf, aEmvCfg.eACFG, 0x5F2A)) {
 548:src/emvtrans.c ****     memset(data, 0x00, sizeof(data));
 549:src/emvtrans.c ****     split(data, buf+1, buf[0]);
 550:src/emvtrans.c ****     strcpy(p_mem+len, "Currency: ");
ARM GAS  C:\Users\AHMED~1.ELE\AppData\Local\Temp\ccAhPyWN.s 			page 33


 551:src/emvtrans.c ****     len += PackInfoData(p_mem+len, data+1, pack_width);
 552:src/emvtrans.c ****   }
 553:src/emvtrans.c **** 
 554:src/emvtrans.c ****   // blank line
 555:src/emvtrans.c ****   len += PackInfoData(p_mem+len, "", pack_width);
 556:src/emvtrans.c **** 
 557:src/emvtrans.c ****   // allow partial AID
 558:src/emvtrans.c ****   strcpy(p_mem+len, "Allow Partial AID: ");
 559:src/emvtrans.c ****   data[0] = (!(aEmvCfg.eBitField&eNO_PARTIAL_AID))? 'Y':'N';
 560:src/emvtrans.c ****   data[1] = 0x00;
 561:src/emvtrans.c ****   len += PackInfoData(p_mem+len, data, pack_width);
 562:src/emvtrans.c **** 
 563:src/emvtrans.c ****   // referral enable
 564:src/emvtrans.c ****   strcpy(p_mem+len, "Referral Enable: ");
 565:src/emvtrans.c ****   data[0] = (!(aEmvCfg.eBitField&eNO_REFERRAL))? 'Y':'N';
 566:src/emvtrans.c ****   data[1] = 0x00;
 567:src/emvtrans.c ****   len += PackInfoData(p_mem+len, data, pack_width);
 568:src/emvtrans.c **** 
 569:src/emvtrans.c ****   // PIN bypass enable
 570:src/emvtrans.c ****   strcpy(p_mem+len, "PIN Bypass Enable: ");
 571:src/emvtrans.c ****   data[0] = (aEmvCfg.eBitField&eENB_PIN_BYPASS)? 'Y':'N';
 572:src/emvtrans.c ****   data[1] = 0x00;
 573:src/emvtrans.c ****   len += PackInfoData(p_mem+len, data, pack_width);
 574:src/emvtrans.c **** 
 575:src/emvtrans.c ****   // Force TRM
 576:src/emvtrans.c ****   strcpy(p_mem+len, "Force TRM: ");
 577:src/emvtrans.c ****   data[0] = (aEmvCfg.eBitField&eFORCE_TRM)? 'Y':'N';
 578:src/emvtrans.c ****   data[1] = 0x00;
 579:src/emvtrans.c ****   len += PackInfoData(p_mem+len, data, pack_width);
 580:src/emvtrans.c **** 
 581:src/emvtrans.c ****   // TAC denial
 582:src/emvtrans.c ****   strcpy(p_mem+len, "TAC Denial: ");
 583:src/emvtrans.c ****   split(data, aEmvCfg.eTACDenial, 5);
 584:src/emvtrans.c ****   data[5*2] = 0x00;
 585:src/emvtrans.c ****   len += PackInfoData(p_mem+len, data, pack_width);
 586:src/emvtrans.c **** 
 587:src/emvtrans.c ****   // TAC Online
 588:src/emvtrans.c ****   strcpy(p_mem+len, "TAC Online: ");
 589:src/emvtrans.c ****   split(data, aEmvCfg.eTACOnline, 5);
 590:src/emvtrans.c ****   data[5*2] = 0x00;
 591:src/emvtrans.c ****   len += PackInfoData(p_mem+len, data, pack_width);
 592:src/emvtrans.c **** 
 593:src/emvtrans.c ****   // TAC Default
 594:src/emvtrans.c ****   strcpy(p_mem+len, "TAC Denial: ");
 595:src/emvtrans.c ****   split(data, aEmvCfg.eTACDefault, 5);
 596:src/emvtrans.c ****   data[5*2] = 0x00;
 597:src/emvtrans.c ****   len += PackInfoData(p_mem+len, data, pack_width);
 598:src/emvtrans.c **** 
 599:src/emvtrans.c ****   // Term Cap
 600:src/emvtrans.c ****   if (LDLoad(buf, aEmvCfg.eACFG, 0x9F33)) {
 601:src/emvtrans.c ****     memset(data, 0x00, sizeof(data));
 602:src/emvtrans.c ****     split(data, buf+1, buf[0]);
 603:src/emvtrans.c ****     strcpy(p_mem+len, "Term Cap: ");
 604:src/emvtrans.c ****     len += PackInfoData(p_mem+len, data, pack_width);
 605:src/emvtrans.c ****   }
 606:src/emvtrans.c **** 
 607:src/emvtrans.c ****   // Add Cap
ARM GAS  C:\Users\AHMED~1.ELE\AppData\Local\Temp\ccAhPyWN.s 			page 34


 608:src/emvtrans.c ****   if (LDLoad(buf, aEmvCfg.eACFG, 0x9F40)) {
 609:src/emvtrans.c ****     memset(data, 0x00, sizeof(data));
 610:src/emvtrans.c ****     split(data, buf+1, buf[0]);
 611:src/emvtrans.c ****     strcpy(p_mem+len, "Add Cap: ");
 612:src/emvtrans.c ****     len += PackInfoData(p_mem+len, data, pack_width);
 613:src/emvtrans.c ****   }
 614:src/emvtrans.c **** 
 615:src/emvtrans.c ****   // setup data info
 616:src/emvtrans.c ****   SprintfMW(data, " EMV APP CFG");
 617:src/emvtrans.c ****   info_data.b_line_width  = (unsigned char)pack_width;
 618:src/emvtrans.c ****   info_data.w_info_len    = len;
 619:src/emvtrans.c ****   info_data.pb_header     = data;
 620:src/emvtrans.c ****   info_data.pb_info       = p_mem;
 621:src/emvtrans.c **** 
 622:src/emvtrans.c ****   if (aToDisplay) {
 623:src/emvtrans.c ****     if (DispInfoData(info_data) == MWKEY_CANCL) {
 624:src/emvtrans.c ****       ret_ok = FALSE;
 625:src/emvtrans.c ****     }
 626:src/emvtrans.c ****   }
 627:src/emvtrans.c ****   else  {
 628:src/emvtrans.c ****     PrintRcptLF(2);
 629:src/emvtrans.c ****     LptPutS(&data[1]);
 630:src/emvtrans.c ****     PrintRcptLF(1);
 631:src/emvtrans.c ****     ret_ok = PrintBuf(info_data.pb_info, info_data.w_info_len, TRUE);
 632:src/emvtrans.c ****   }
 633:src/emvtrans.c **** 
 634:src/emvtrans.c ****   FreeMW(p_mem);
 635:src/emvtrans.c ****   return ret_ok;
 636:src/emvtrans.c **** }
 637:src/emvtrans.c **** //*****************************************************************************
 638:src/emvtrans.c **** //  Function        : PrintEMVKeyInfo
 639:src/emvtrans.c **** //  Description     : print or display EMV key info.
 640:src/emvtrans.c **** //  Input           : aDetail
 641:src/emvtrans.c **** //                    aToDisplay
 642:src/emvtrans.c **** //  Return          : TRUE / FALSE
 643:src/emvtrans.c **** //  Note            : N/A
 644:src/emvtrans.c **** //  Globals Changed : N/A
 645:src/emvtrans.c **** //*****************************************************************************
 646:src/emvtrans.c **** static BOOLEAN PrintEMVKeyInfo(BOOLEAN aDetail, BOOLEAN aToDisplay)
 647:src/emvtrans.c **** {
 648:src/emvtrans.c ****   BOOLEAN ret_ok = TRUE;
 649:src/emvtrans.c ****   char *p_mem, data[64];
 650:src/emvtrans.c ****   WORD i, len, pack_width;
 651:src/emvtrans.c ****   struct INFO_DATA info_data;
 652:src/emvtrans.c ****   KEY_INFO key_info;
 653:src/emvtrans.c **** 
 654:src/emvtrans.c ****   // allocate large memory
 655:src/emvtrans.c ****   if ((p_mem = MallocMW(1024)) == NULL) {
 656:src/emvtrans.c ****     return FALSE;
 657:src/emvtrans.c ****   }
 658:src/emvtrans.c **** 
 659:src/emvtrans.c ****   // init
 660:src/emvtrans.c ****   len = 0;
 661:src/emvtrans.c ****   pack_width = (aToDisplay)? MW_MAX_LINESIZE : PRINT_WIDTH;
 662:src/emvtrans.c **** 
 663:src/emvtrans.c ****   if (!aToDisplay) {
 664:src/emvtrans.c ****     PrintRcptLF(2);
ARM GAS  C:\Users\AHMED~1.ELE\AppData\Local\Temp\ccAhPyWN.s 			page 35


 665:src/emvtrans.c ****     strcpy(data, "EMV KEY INFO");
 666:src/emvtrans.c ****     LptPutS(data);
 667:src/emvtrans.c ****     PrintRcptLF(1);
 668:src/emvtrans.c ****   }
 669:src/emvtrans.c **** 
 670:src/emvtrans.c ****   // get key info one by one
 671:src/emvtrans.c ****   for (i=0; i<MAX_APPL*6; i++) {
 672:src/emvtrans.c ****     // get key info
 673:src/emvtrans.c ****     if (!GetEMVKeyInfo(&key_info, i)) {
 674:src/emvtrans.c ****       break;
 675:src/emvtrans.c ****     }
 676:src/emvtrans.c **** 
 677:src/emvtrans.c ****     // set description
 678:src/emvtrans.c ****     if ((i==0) || ((len==0)&&(aToDisplay))) {
 679:src/emvtrans.c ****       strcpy(p_mem+len, "Public Key-ID");
 680:src/emvtrans.c ****       len += PackInfoData(p_mem+len, "Eff   Exp  ", pack_width);
 681:src/emvtrans.c ****     }
 682:src/emvtrans.c **** 
 683:src/emvtrans.c ****     // set key info
 684:src/emvtrans.c ****     split(p_mem+len, key_info.RID, 5);
 685:src/emvtrans.c ****     p_mem[len+10] = '-';
 686:src/emvtrans.c ****     SprintfMW(p_mem+len+11, "%02X", key_info.KeyIdx);
 687:src/emvtrans.c ****     SprintfMW(data, "%02X/%02X ", key_info.EffectDate/256, key_info.EffectDate%256);
 688:src/emvtrans.c ****     SprintfMW(data+strlen(data), "%02X/%02X ", key_info.ExpiryDate/256, key_info.ExpiryDate%256);
 689:src/emvtrans.c ****     len += PackInfoData(p_mem+len, data, pack_width);
 690:src/emvtrans.c **** 
 691:src/emvtrans.c ****     // print first to prevent overfall
 692:src/emvtrans.c **** 
 693:src/emvtrans.c **** 
 694:src/emvtrans.c ****     if (len > 960) {
 695:src/emvtrans.c ****       SprintfMW(data, " EMV KEY INFO");
 696:src/emvtrans.c ****       info_data.b_line_width  = (unsigned char)pack_width;
 697:src/emvtrans.c ****       info_data.w_info_len    = len;
 698:src/emvtrans.c ****       info_data.pb_header     = data;
 699:src/emvtrans.c ****       info_data.pb_info       = p_mem;
 700:src/emvtrans.c ****       len = 0;
 701:src/emvtrans.c ****       if (aToDisplay) {
 702:src/emvtrans.c ****         if (DispInfoData(info_data) == MWKEY_CANCL) {
 703:src/emvtrans.c ****           ret_ok = FALSE;
 704:src/emvtrans.c ****           break;
 705:src/emvtrans.c ****         }
 706:src/emvtrans.c ****       }
 707:src/emvtrans.c ****       else  {
 708:src/emvtrans.c ****         ret_ok = PrintBuf(info_data.pb_info, info_data.w_info_len, TRUE);
 709:src/emvtrans.c ****       }
 710:src/emvtrans.c ****     }
 711:src/emvtrans.c ****   }
 712:src/emvtrans.c **** 
 713:src/emvtrans.c ****   // setup data info
 714:src/emvtrans.c ****   SprintfMW(data, " EMV KEY INFO");
 715:src/emvtrans.c ****   info_data.b_line_width  = (unsigned char)pack_width;
 716:src/emvtrans.c ****   info_data.w_info_len    = len;
 717:src/emvtrans.c ****   info_data.pb_header     = data;
 718:src/emvtrans.c ****   info_data.pb_info       = p_mem;
 719:src/emvtrans.c **** 
 720:src/emvtrans.c ****   if (len && ret_ok) {
 721:src/emvtrans.c ****     if (aToDisplay) {
ARM GAS  C:\Users\AHMED~1.ELE\AppData\Local\Temp\ccAhPyWN.s 			page 36


 722:src/emvtrans.c ****       if (DispInfoData(info_data) == MWKEY_CANCL) {
 723:src/emvtrans.c ****         ret_ok = FALSE;
 724:src/emvtrans.c ****       }
 725:src/emvtrans.c ****     }
 726:src/emvtrans.c ****     else  {
 727:src/emvtrans.c ****       ret_ok = PrintBuf(info_data.pb_info, info_data.w_info_len, TRUE);
 728:src/emvtrans.c ****     }
 729:src/emvtrans.c ****   }
 730:src/emvtrans.c **** 
 731:src/emvtrans.c ****   FreeMW(p_mem);
 732:src/emvtrans.c ****   return ret_ok;
 733:src/emvtrans.c **** }
 734:src/emvtrans.c **** //*****************************************************************************
 735:src/emvtrans.c **** //  Function        : PrintEMVParam
 736:src/emvtrans.c **** //  Description     : print or display EMV parameter report.
 737:src/emvtrans.c **** //  Input           : aDetail
 738:src/emvtrans.c **** //                    aToDisplay
 739:src/emvtrans.c **** //  Return          : TRUE / FALSE
 740:src/emvtrans.c **** //  Note            : N/A
 741:src/emvtrans.c **** //  Globals Changed : N/A
 742:src/emvtrans.c **** //*****************************************************************************
 743:src/emvtrans.c **** BOOLEAN PrintEMVParam(BOOLEAN aDetail, BOOLEAN aToDisplay)
 744:src/emvtrans.c **** {
 1186              		.loc 1 744 0
 1187              		.cfi_startproc
 1188              		@ args = 0, pretend = 0, frame = 1224
 1189              		@ frame_needed = 0, uses_anonymous_args = 0
 1190              	.LVL106:
 1191 0000 2DE9F04F 		push	{r4, r5, r6, r7, r8, r9, r10, fp, lr}
 1192              		.cfi_def_cfa_offset 36
 1193              		.cfi_offset 4, -36
 1194              		.cfi_offset 5, -32
 1195              		.cfi_offset 6, -28
 1196              		.cfi_offset 7, -24
 1197              		.cfi_offset 8, -20
 1198              		.cfi_offset 9, -16
 1199              		.cfi_offset 10, -12
 1200              		.cfi_offset 11, -8
 1201              		.cfi_offset 14, -4
 1202 0004 0029     		cmp	r1, #0
 1203 0006 14BF     		ite	ne
 1204 0008 1A26     		movne	r6, #26
 1205 000a 2026     		moveq	r6, #32
 1206 000c ADF2D44D 		subw	sp, sp, #1236
 1207              		.cfi_def_cfa_offset 1272
 1208 0010 0F46     		mov	r7, r1
 1209              	.LBB22:
 1210              	.LBB23:
 617:src/emvtrans.c ****   info_data.w_info_len    = len;
 1211              		.loc 1 617 0
 1212 0012 5FFA86F9 		uxtb	r9, r6
 1213              	.LBE23:
 1214              	.LBE22:
 745:src/emvtrans.c ****   BOOLEAN ret_ok = TRUE;
 746:src/emvtrans.c ****   int i;
 747:src/emvtrans.c ****   APP_CFG emv_cfg;
 748:src/emvtrans.c **** 
ARM GAS  C:\Users\AHMED~1.ELE\AppData\Local\Temp\ccAhPyWN.s 			page 37


 749:src/emvtrans.c ****   // EMV app cfg
 750:src/emvtrans.c ****   for (i=0; i<MAX_APPL && ret_ok; i++) {
 1215              		.loc 1 750 0
 1216 0016 4FF00008 		mov	r8, #0
 745:src/emvtrans.c ****   BOOLEAN ret_ok = TRUE;
 1217              		.loc 1 745 0
 1218 001a 4FF0010A 		mov	r10, #1
 1219              	.LVL107:
 1220              	.L125:
 1221              	.LBB25:
 1222              	.LBB26:
 432:src/emvtrans.c ****   sEMVIn->bMsg[0] = (BYTE) aIdx;
 1223              		.loc 1 432 0
 1224 001e 2D4C     		ldr	r4, .L191
 435:src/emvtrans.c ****     return FALSE;
 1225              		.loc 1 435 0
 1226 0020 0E20     		movs	r0, #14
 432:src/emvtrans.c ****   sEMVIn->bMsg[0] = (BYTE) aIdx;
 1227              		.loc 1 432 0
 1228 0022 A268     		ldr	r2, [r4, #8]
 1229 0024 2368     		ldr	r3, [r4]
 1230 0026 6168     		ldr	r1, [r4, #4]
 1231 0028 4A60     		str	r2, [r1, #4]
 1232 002a 5A60     		str	r2, [r3, #4]
 433:src/emvtrans.c ****   sEMVIn->wLen = 1;
 1233              		.loc 1 433 0
 1234 002c 82F80080 		strb	r8, [r2]
 434:src/emvtrans.c ****   if (EMV_DllSetup(IOCMD_READ_AIDIDX,sEMVIn,sEMVOut) == FALSE)     // load APP parameters
 1235              		.loc 1 434 0
 1236 0030 0122     		movs	r2, #1
 1237 0032 1A80     		strh	r2, [r3]	@ movhi
 435:src/emvtrans.c ****     return FALSE;
 1238              		.loc 1 435 0
 1239 0034 0091     		str	r1, [sp]
 1240 0036 0922     		movs	r2, #9
 1241 0038 0021     		movs	r1, #0
 1242 003a FFF7FEFF 		bl	lib_app_call
 1243              	.LVL108:
 1244 003e 10F0FF0F 		tst	r0, #255
 1245 0042 09D1     		bne	.L104
 1246              	.LVL109:
 1247              	.L127:
 1248              	.LBE26:
 1249              	.LBE25:
 1250              	.LBB28:
 1251              	.LBB29:
 655:src/emvtrans.c ****     return FALSE;
 1252              		.loc 1 655 0
 1253 0044 9220     		movs	r0, #146
 1254 0046 4FF48061 		mov	r1, #1024
 1255 004a FFF7FEFF 		bl	sys_func1
 1256              	.LVL110:
 1257 004e 0646     		mov	r6, r0
 1258 0050 0028     		cmp	r0, #0
 1259 0052 40F08D82 		bne	.L188
 1260 0056 22E3     		b	.L190
 1261              	.LVL111:
ARM GAS  C:\Users\AHMED~1.ELE\AppData\Local\Temp\ccAhPyWN.s 			page 38


 1262              	.L104:
 1263              	.LBE29:
 1264              	.LBE28:
 1265              	.LBB31:
 1266              	.LBB27:
 437:src/emvtrans.c ****   return TRUE;
 1267              		.loc 1 437 0
 1268 0058 6368     		ldr	r3, [r4, #4]
 1269 005a 28A8     		add	r0, sp, #160
 1270              	.LVL112:
 1271 005c 5C68     		ldr	r4, [r3, #4]
 1272 005e 40F21722 		movw	r2, #535
 1273 0062 2146     		mov	r1, r4
 1274 0064 FFF7FEFF 		bl	memcpy
 1275              	.LVL113:
 1276 0068 2378     		ldrb	r3, [r4]	@ zero_extendqisi2
 1277              	.LVL114:
 1278              	.LBE27:
 1279              	.LBE31:
 751:src/emvtrans.c ****     if (!GetEMVAppCfg(&emv_cfg, i)) {
 752:src/emvtrans.c ****       break;
 753:src/emvtrans.c ****     }
 754:src/emvtrans.c ****     if (emv_cfg.eType == 0) {
 1280              		.loc 1 754 0
 1281 006a 002B     		cmp	r3, #0
 1282 006c 00F07182 		beq	.L107
 1283 0070 28A9     		add	r1, sp, #160
 1284              	.LVL115:
 1285 0072 40F21722 		movw	r2, #535
 1286 0076 AEA8     		add	r0, sp, #696
 1287 0078 8DF8A030 		strb	r3, [sp, #160]
 1288 007c FFF7FEFF 		bl	memcpy
 1289              	.LVL116:
 1290              	.LBB32:
 1291              	.LBB24:
 479:src/emvtrans.c ****     return FALSE;
 1292              		.loc 1 479 0
 1293 0080 9220     		movs	r0, #146
 1294 0082 4FF48061 		mov	r1, #1024
 1295 0086 FFF7FEFF 		bl	sys_func1
 1296              	.LVL117:
 1297 008a 0546     		mov	r5, r0
 1298 008c 0028     		cmp	r0, #0
 1299 008e 00F05F82 		beq	.L139
 1300              	.LVL118:
 488:src/emvtrans.c ****     memset(data, 0x00, sizeof(data));
 1301              		.loc 1 488 0
 1302 0092 AEAB     		add	r3, sp, #696
 1303 0094 08A8     		add	r0, sp, #32
 1304              	.LVL119:
 1305 0096 03F11701 		add	r1, r3, #23
 1306 009a 49F60672 		movw	r2, #40710
 1307 009e FFF7FEFF 		bl	LDLoad
 1308              	.LVL120:
 1309 00a2 D8B1     		cbz	r0, .L140
 489:src/emvtrans.c ****     split(data, buf+1, buf[0]);
 1310              		.loc 1 489 0
ARM GAS  C:\Users\AHMED~1.ELE\AppData\Local\Temp\ccAhPyWN.s 			page 39


 1311 00a4 0021     		movs	r1, #0
 1312 00a6 4022     		movs	r2, #64
 1313 00a8 18A8     		add	r0, sp, #96
 1314 00aa FFF7FEFF 		bl	memset
 1315              	.LVL121:
 490:src/emvtrans.c ****     strcpy(p_mem+len, "AID: ");
 1316              		.loc 1 490 0
 1317 00ae 9DF92020 		ldrsb	r2, [sp, #32]
 1318 00b2 18A8     		add	r0, sp, #96
 1319 00b4 0DF12101 		add	r1, sp, #33
 1320 00b8 FFF7FEFF 		bl	split
 1321              	.LVL122:
 491:src/emvtrans.c ****     len += PackInfoData(p_mem+len, data, pack_width);
 1322              		.loc 1 491 0
 1323 00bc 0649     		ldr	r1, .L191+4
 1324 00be 2846     		mov	r0, r5
 1325 00c0 FFF7FEFF 		bl	strcpy
 1326              	.LVL123:
 492:src/emvtrans.c ****   }
 1327              		.loc 1 492 0
 1328 00c4 2846     		mov	r0, r5
 1329 00c6 18A9     		add	r1, sp, #96
 1330 00c8 3246     		mov	r2, r6
 1331 00ca FFF7FEFF 		bl	PackInfoData
 1332              	.LVL124:
 1333 00ce 84B2     		uxth	r4, r0
 1334              	.LVL125:
 1335 00d0 05E0     		b	.L109
 1336              	.L192:
 1337 00d2 00BF     		.align	2
 1338              	.L191:
 1339 00d4 00000000 		.word	.LANCHOR0
 1340 00d8 22000000 		.word	.LC1
 1341              	.LVL126:
 1342              	.L140:
 484:src/emvtrans.c ****   pack_width = (aToDisplay)? MW_MAX_LINESIZE : PRINT_WIDTH;
 1343              		.loc 1 484 0
 1344 00dc 0446     		mov	r4, r0
 1345              	.LVL127:
 1346              	.L109:
 496:src/emvtrans.c ****   data[0] = (!(aEmvCfg.eBitField&eMULTI_ACQ))? 'Y' : 'N';
 1347              		.loc 1 496 0
 1348 00de 2A19     		adds	r2, r5, r4
 1349 00e0 1046     		mov	r0, r2
 1350 00e2 C649     		ldr	r1, .L193
 1351 00e4 FFF7FEFF 		bl	strcpy
 1352              	.LVL128:
 497:src/emvtrans.c ****   data[1] = 0x00;
 1353              		.loc 1 497 0
 1354 00e8 9DF9B932 		ldrsb	r3, [sp, #697]
 498:src/emvtrans.c ****   len += PackInfoData(p_mem+len, data, pack_width);
 1355              		.loc 1 498 0
 1356 00ec 4FF0000B 		mov	fp, #0
 497:src/emvtrans.c ****   data[1] = 0x00;
 1357              		.loc 1 497 0
 1358 00f0 002B     		cmp	r3, #0
 1359 00f2 ACBF     		ite	ge
ARM GAS  C:\Users\AHMED~1.ELE\AppData\Local\Temp\ccAhPyWN.s 			page 40


 1360 00f4 5923     		movge	r3, #89
 1361 00f6 4E23     		movlt	r3, #78
 499:src/emvtrans.c **** 
 1362              		.loc 1 499 0
 1363 00f8 18A9     		add	r1, sp, #96
 1364 00fa 3246     		mov	r2, r6
 497:src/emvtrans.c ****   data[1] = 0x00;
 1365              		.loc 1 497 0
 1366 00fc 8DF86030 		strb	r3, [sp, #96]
 498:src/emvtrans.c ****   len += PackInfoData(p_mem+len, data, pack_width);
 1367              		.loc 1 498 0
 1368 0100 8DF861B0 		strb	fp, [sp, #97]
 499:src/emvtrans.c **** 
 1369              		.loc 1 499 0
 1370 0104 FFF7FEFF 		bl	PackInfoData
 1371              	.LVL129:
 502:src/emvtrans.c ****   memset(data, 0x00, sizeof(data));
 1372              		.loc 1 502 0
 1373 0108 AEAB     		add	r3, sp, #696
 1374 010a BD49     		ldr	r1, .L193+4
 499:src/emvtrans.c **** 
 1375              		.loc 1 499 0
 1376 010c 2044     		add	r0, r0, r4
 502:src/emvtrans.c ****   memset(data, 0x00, sizeof(data));
 1377              		.loc 1 502 0
 1378 010e 13F8172B 		ldrb	r2, [r3], #23	@ zero_extendqisi2
 499:src/emvtrans.c **** 
 1379              		.loc 1 499 0
 1380 0112 84B2     		uxth	r4, r0
 1381              	.LVL130:
 502:src/emvtrans.c ****   memset(data, 0x00, sizeof(data));
 1382              		.loc 1 502 0
 1383 0114 05EB040A 		add	r10, r5, r4
 1384              	.LVL131:
 1385 0118 5046     		mov	r0, r10
 1386 011a 0293     		str	r3, [sp, #8]
 1387 011c 0393     		str	r3, [sp, #12]
 1388 011e FFF7FEFF 		bl	sprintf
 1389              	.LVL132:
 503:src/emvtrans.c ****   if (LDLoad(buf, aEmvCfg.eACFG, 0x9F09)) {
 1390              		.loc 1 503 0
 1391 0122 5946     		mov	r1, fp
 1392 0124 4022     		movs	r2, #64
 1393 0126 18A8     		add	r0, sp, #96
 1394 0128 FFF7FEFF 		bl	memset
 1395              	.LVL133:
 504:src/emvtrans.c ****     strcpy(data, "Ver: ");
 1396              		.loc 1 504 0
 1397 012c 029B     		ldr	r3, [sp, #8]
 1398 012e 08A8     		add	r0, sp, #32
 1399 0130 1946     		mov	r1, r3
 1400 0132 49F60972 		movw	r2, #40713
 1401 0136 FFF7FEFF 		bl	LDLoad
 1402              	.LVL134:
 1403 013a 70B1     		cbz	r0, .L111
 505:src/emvtrans.c ****     split(data+strlen(data), buf+1, buf[0]);
 1404              		.loc 1 505 0
ARM GAS  C:\Users\AHMED~1.ELE\AppData\Local\Temp\ccAhPyWN.s 			page 41


 1405 013c B149     		ldr	r1, .L193+8
 1406 013e 18A8     		add	r0, sp, #96
 1407 0140 FFF7FEFF 		bl	strcpy
 1408              	.LVL135:
 506:src/emvtrans.c ****   }
 1409              		.loc 1 506 0
 1410 0144 18A8     		add	r0, sp, #96
 1411 0146 FFF7FEFF 		bl	strlen
 1412              	.LVL136:
 1413 014a 18AB     		add	r3, sp, #96
 1414 014c 0DF12101 		add	r1, sp, #33
 1415 0150 9DF92020 		ldrsb	r2, [sp, #32]
 1416 0154 1844     		add	r0, r0, r3
 1417 0156 FFF7FEFF 		bl	split
 1418              	.LVL137:
 1419              	.L111:
 508:src/emvtrans.c **** 
 1420              		.loc 1 508 0
 1421 015a 18A9     		add	r1, sp, #96
 1422 015c 3246     		mov	r2, r6
 1423 015e 5046     		mov	r0, r10
 1424 0160 FFF7FEFF 		bl	PackInfoData
 1425              	.LVL138:
 511:src/emvtrans.c ****     memset(data, 0x00, sizeof(data));
 1426              		.loc 1 511 0
 1427 0164 AEAB     		add	r3, sp, #696
 1428 0166 03F11701 		add	r1, r3, #23
 1429 016a 49F61B72 		movw	r2, #40731
 508:src/emvtrans.c **** 
 1430              		.loc 1 508 0
 1431 016e 2044     		add	r0, r0, r4
 1432 0170 84B2     		uxth	r4, r0
 1433              	.LVL139:
 511:src/emvtrans.c ****     memset(data, 0x00, sizeof(data));
 1434              		.loc 1 511 0
 1435 0172 08A8     		add	r0, sp, #32
 1436 0174 FFF7FEFF 		bl	LDLoad
 1437              	.LVL140:
 1438 0178 C8B1     		cbz	r0, .L112
 512:src/emvtrans.c ****     ConvDecimal(buf, 7);
 1439              		.loc 1 512 0
 1440 017a 4022     		movs	r2, #64
 1441 017c 0021     		movs	r1, #0
 1442 017e 18A8     		add	r0, sp, #96
 1443 0180 FFF7FEFF 		bl	memset
 1444              	.LVL141:
 513:src/emvtrans.c ****     memcpy(data, buf+1, buf[0]);
 1445              		.loc 1 513 0
 1446 0184 08A8     		add	r0, sp, #32
 1447 0186 0721     		movs	r1, #7
 1448 0188 FFF7FEFF 		bl	ConvDecimal
 1449              	.LVL142:
 514:src/emvtrans.c ****     strcpy(p_mem+len, "FLR LMT: ");
 1450              		.loc 1 514 0
 1451 018c 08A9     		add	r1, sp, #32
 1452 018e 18A8     		add	r0, sp, #96
 1453 0190 11F9012B 		ldrsb	r2, [r1], #1
ARM GAS  C:\Users\AHMED~1.ELE\AppData\Local\Temp\ccAhPyWN.s 			page 42


 1454 0194 FFF7FEFF 		bl	memcpy
 1455              	.LVL143:
 515:src/emvtrans.c ****     len += PackInfoData(p_mem+len, data, pack_width);
 1456              		.loc 1 515 0
 1457 0198 2B19     		adds	r3, r5, r4
 1458 019a 1846     		mov	r0, r3
 1459 019c 9A49     		ldr	r1, .L193+12
 1460 019e FFF7FEFF 		bl	strcpy
 1461              	.LVL144:
 516:src/emvtrans.c ****   }
 1462              		.loc 1 516 0
 1463 01a2 18A9     		add	r1, sp, #96
 1464 01a4 3246     		mov	r2, r6
 1465 01a6 FFF7FEFF 		bl	PackInfoData
 1466              	.LVL145:
 1467 01aa 2044     		add	r0, r0, r4
 1468 01ac 84B2     		uxth	r4, r0
 1469              	.LVL146:
 1470              	.L112:
 520:src/emvtrans.c ****     memset(data, 0x00, sizeof(data));
 1471              		.loc 1 520 0
 1472 01ae AEAB     		add	r3, sp, #696
 1473 01b0 08A8     		add	r0, sp, #32
 1474 01b2 03F11701 		add	r1, r3, #23
 1475 01b6 4DF67F72 		movw	r2, #57215
 1476 01ba FFF7FEFF 		bl	LDLoad
 1477              	.LVL147:
 1478 01be C8B1     		cbz	r0, .L113
 521:src/emvtrans.c ****     ConvDecimal(buf, 7);
 1479              		.loc 1 521 0
 1480 01c0 4022     		movs	r2, #64
 1481 01c2 0021     		movs	r1, #0
 1482 01c4 18A8     		add	r0, sp, #96
 1483 01c6 FFF7FEFF 		bl	memset
 1484              	.LVL148:
 522:src/emvtrans.c ****     memcpy(data, buf+1, buf[0]);
 1485              		.loc 1 522 0
 1486 01ca 08A8     		add	r0, sp, #32
 1487 01cc 0721     		movs	r1, #7
 1488 01ce FFF7FEFF 		bl	ConvDecimal
 1489              	.LVL149:
 523:src/emvtrans.c ****     strcpy(p_mem+len, "FLR LMT(O): ");
 1490              		.loc 1 523 0
 1491 01d2 08A9     		add	r1, sp, #32
 1492 01d4 18A8     		add	r0, sp, #96
 1493 01d6 11F9012B 		ldrsb	r2, [r1], #1
 1494 01da FFF7FEFF 		bl	memcpy
 1495              	.LVL150:
 524:src/emvtrans.c ****     len += PackInfoData(p_mem+len, data, pack_width);
 1496              		.loc 1 524 0
 1497 01de 2B19     		adds	r3, r5, r4
 1498 01e0 1846     		mov	r0, r3
 1499 01e2 8A49     		ldr	r1, .L193+16
 1500 01e4 FFF7FEFF 		bl	strcpy
 1501              	.LVL151:
 525:src/emvtrans.c ****   }
 1502              		.loc 1 525 0
ARM GAS  C:\Users\AHMED~1.ELE\AppData\Local\Temp\ccAhPyWN.s 			page 43


 1503 01e8 18A9     		add	r1, sp, #96
 1504 01ea 3246     		mov	r2, r6
 1505 01ec FFF7FEFF 		bl	PackInfoData
 1506              	.LVL152:
 1507 01f0 2044     		add	r0, r0, r4
 1508 01f2 84B2     		uxth	r4, r0
 1509              	.LVL153:
 1510              	.L113:
 529:src/emvtrans.c ****   SprintfMW(data, "%0d.%02d", aEmvCfg.eRSBThresh/100, aEmvCfg.eRSBThresh%100);
 1511              		.loc 1 529 0
 1512 01f4 05EB040B 		add	fp, r5, r4
 1513 01f8 8549     		ldr	r1, .L193+20
 1514 01fa 5846     		mov	r0, fp
 1515 01fc FFF7FEFF 		bl	strcpy
 1516              	.LVL154:
 530:src/emvtrans.c ****   len += PackInfoData(p_mem+len, data, pack_width);
 1517              		.loc 1 530 0
 1518 0200 BDF8BA32 		ldrh	r3, [sp, #698]
 1519 0204 BDF8BCA2 		ldrh	r10, [sp, #700]
 1520 0208 6421     		movs	r1, #100
 1521 020a 43EA0A4A 		orr	r10, r3, r10, lsl #16
 1522 020e 5046     		mov	r0, r10
 1523 0210 FFF7FEFF 		bl	__aeabi_uidiv
 1524              	.LVL155:
 1525 0214 6421     		movs	r1, #100
 1526 0216 0290     		str	r0, [sp, #8]
 1527 0218 5046     		mov	r0, r10
 1528 021a FFF7FEFF 		bl	__aeabi_uidivmod
 1529              	.LVL156:
 1530 021e 029A     		ldr	r2, [sp, #8]
 1531 0220 18A8     		add	r0, sp, #96
 1532 0222 0B46     		mov	r3, r1
 1533 0224 7B49     		ldr	r1, .L193+24
 1534 0226 FFF7FEFF 		bl	sprintf
 1535              	.LVL157:
 531:src/emvtrans.c **** 
 1536              		.loc 1 531 0
 1537 022a 3246     		mov	r2, r6
 1538 022c 18A9     		add	r1, sp, #96
 1539 022e 5846     		mov	r0, fp
 1540 0230 FFF7FEFF 		bl	PackInfoData
 1541              	.LVL158:
 534:src/emvtrans.c ****   SprintfMW(data, "%02d-%02d", aEmvCfg.eRSTarget, aEmvCfg.eRSBMax);
 1542              		.loc 1 534 0
 1543 0234 7849     		ldr	r1, .L193+28
 531:src/emvtrans.c **** 
 1544              		.loc 1 531 0
 1545 0236 2044     		add	r0, r0, r4
 1546 0238 84B2     		uxth	r4, r0
 1547              	.LVL159:
 534:src/emvtrans.c ****   SprintfMW(data, "%02d-%02d", aEmvCfg.eRSTarget, aEmvCfg.eRSBMax);
 1548              		.loc 1 534 0
 1549 023a 05EB040A 		add	r10, r5, r4
 1550 023e 5046     		mov	r0, r10
 1551 0240 FFF7FEFF 		bl	strcpy
 1552              	.LVL160:
 535:src/emvtrans.c ****   len += PackInfoData(p_mem+len, data, pack_width);
ARM GAS  C:\Users\AHMED~1.ELE\AppData\Local\Temp\ccAhPyWN.s 			page 44


 1553              		.loc 1 535 0
 1554 0244 9DF8BF32 		ldrb	r3, [sp, #703]	@ zero_extendqisi2
 1555 0248 7449     		ldr	r1, .L193+32
 1556 024a 9DF8BE22 		ldrb	r2, [sp, #702]	@ zero_extendqisi2
 1557 024e 18A8     		add	r0, sp, #96
 1558 0250 FFF7FEFF 		bl	sprintf
 1559              	.LVL161:
 536:src/emvtrans.c **** 
 1560              		.loc 1 536 0
 1561 0254 18A9     		add	r1, sp, #96
 1562 0256 3246     		mov	r2, r6
 1563 0258 5046     		mov	r0, r10
 1564 025a FFF7FEFF 		bl	PackInfoData
 1565              	.LVL162:
 539:src/emvtrans.c ****     memset(data, 0x00, sizeof(data));
 1566              		.loc 1 539 0
 1567 025e AEAB     		add	r3, sp, #696
 1568 0260 03F11701 		add	r1, r3, #23
 1569 0264 49F61A72 		movw	r2, #40730
 536:src/emvtrans.c **** 
 1570              		.loc 1 536 0
 1571 0268 2044     		add	r0, r0, r4
 1572 026a 84B2     		uxth	r4, r0
 1573              	.LVL163:
 539:src/emvtrans.c ****     memset(data, 0x00, sizeof(data));
 1574              		.loc 1 539 0
 1575 026c 08A8     		add	r0, sp, #32
 1576 026e FFF7FEFF 		bl	LDLoad
 1577              	.LVL164:
 1578 0272 B8B1     		cbz	r0, .L114
 540:src/emvtrans.c ****     split(data, buf+1, buf[0]);
 1579              		.loc 1 540 0
 1580 0274 0021     		movs	r1, #0
 1581 0276 4022     		movs	r2, #64
 1582 0278 18A8     		add	r0, sp, #96
 1583 027a FFF7FEFF 		bl	memset
 1584              	.LVL165:
 541:src/emvtrans.c ****     strcpy(p_mem+len, "Country: ");
 1585              		.loc 1 541 0
 1586 027e 9DF92020 		ldrsb	r2, [sp, #32]
 1587 0282 18A8     		add	r0, sp, #96
 1588 0284 0DF12101 		add	r1, sp, #33
 1589 0288 FFF7FEFF 		bl	split
 1590              	.LVL166:
 542:src/emvtrans.c ****     len += PackInfoData(p_mem+len, data+1, pack_width);
 1591              		.loc 1 542 0
 1592 028c 2B19     		adds	r3, r5, r4
 1593 028e 1846     		mov	r0, r3
 1594 0290 6349     		ldr	r1, .L193+36
 1595 0292 FFF7FEFF 		bl	strcpy
 1596              	.LVL167:
 543:src/emvtrans.c ****   }
 1597              		.loc 1 543 0
 1598 0296 0DF16101 		add	r1, sp, #97
 1599 029a 3246     		mov	r2, r6
 1600 029c FFF7FEFF 		bl	PackInfoData
 1601              	.LVL168:
ARM GAS  C:\Users\AHMED~1.ELE\AppData\Local\Temp\ccAhPyWN.s 			page 45


 1602 02a0 2044     		add	r0, r0, r4
 1603 02a2 84B2     		uxth	r4, r0
 1604              	.LVL169:
 1605              	.L114:
 547:src/emvtrans.c ****     memset(data, 0x00, sizeof(data));
 1606              		.loc 1 547 0
 1607 02a4 AEAB     		add	r3, sp, #696
 1608 02a6 08A8     		add	r0, sp, #32
 1609 02a8 03F11701 		add	r1, r3, #23
 1610 02ac 45F62A72 		movw	r2, #24362
 1611 02b0 FFF7FEFF 		bl	LDLoad
 1612              	.LVL170:
 1613 02b4 B8B1     		cbz	r0, .L115
 548:src/emvtrans.c ****     split(data, buf+1, buf[0]);
 1614              		.loc 1 548 0
 1615 02b6 0021     		movs	r1, #0
 1616 02b8 4022     		movs	r2, #64
 1617 02ba 18A8     		add	r0, sp, #96
 1618 02bc FFF7FEFF 		bl	memset
 1619              	.LVL171:
 549:src/emvtrans.c ****     strcpy(p_mem+len, "Currency: ");
 1620              		.loc 1 549 0
 1621 02c0 9DF92020 		ldrsb	r2, [sp, #32]
 1622 02c4 18A8     		add	r0, sp, #96
 1623 02c6 0DF12101 		add	r1, sp, #33
 1624 02ca FFF7FEFF 		bl	split
 1625              	.LVL172:
 550:src/emvtrans.c ****     len += PackInfoData(p_mem+len, data+1, pack_width);
 1626              		.loc 1 550 0
 1627 02ce 2B19     		adds	r3, r5, r4
 1628 02d0 1846     		mov	r0, r3
 1629 02d2 5449     		ldr	r1, .L193+40
 1630 02d4 FFF7FEFF 		bl	strcpy
 1631              	.LVL173:
 551:src/emvtrans.c ****   }
 1632              		.loc 1 551 0
 1633 02d8 0DF16101 		add	r1, sp, #97
 1634 02dc 3246     		mov	r2, r6
 1635 02de FFF7FEFF 		bl	PackInfoData
 1636              	.LVL174:
 1637 02e2 2044     		add	r0, r0, r4
 1638 02e4 84B2     		uxth	r4, r0
 1639              	.LVL175:
 1640              	.L115:
 555:src/emvtrans.c **** 
 1641              		.loc 1 555 0
 1642 02e6 3246     		mov	r2, r6
 1643 02e8 2819     		adds	r0, r5, r4
 1644 02ea 4F49     		ldr	r1, .L193+44
 1645 02ec FFF7FEFF 		bl	PackInfoData
 1646              	.LVL176:
 558:src/emvtrans.c ****   data[0] = (!(aEmvCfg.eBitField&eNO_PARTIAL_AID))? 'Y':'N';
 1647              		.loc 1 558 0
 1648 02f0 4E49     		ldr	r1, .L193+48
 560:src/emvtrans.c ****   len += PackInfoData(p_mem+len, data, pack_width);
 1649              		.loc 1 560 0
 1650 02f2 4FF0000A 		mov	r10, #0
ARM GAS  C:\Users\AHMED~1.ELE\AppData\Local\Temp\ccAhPyWN.s 			page 46


 555:src/emvtrans.c **** 
 1651              		.loc 1 555 0
 1652 02f6 2044     		add	r0, r0, r4
 1653 02f8 84B2     		uxth	r4, r0
 1654              	.LVL177:
 558:src/emvtrans.c ****   data[0] = (!(aEmvCfg.eBitField&eNO_PARTIAL_AID))? 'Y':'N';
 1655              		.loc 1 558 0
 1656 02fa 2B19     		adds	r3, r5, r4
 1657 02fc 1846     		mov	r0, r3
 1658 02fe FFF7FEFF 		bl	strcpy
 1659              	.LVL178:
 559:src/emvtrans.c ****   data[1] = 0x00;
 1660              		.loc 1 559 0
 1661 0302 9DF8B922 		ldrb	r2, [sp, #697]	@ zero_extendqisi2
 561:src/emvtrans.c **** 
 1662              		.loc 1 561 0
 1663 0306 18A9     		add	r1, sp, #96
 559:src/emvtrans.c ****   data[1] = 0x00;
 1664              		.loc 1 559 0
 1665 0308 12F0010F 		tst	r2, #1
 1666 030c 0CBF     		ite	eq
 1667 030e 5922     		moveq	r2, #89
 1668 0310 4E22     		movne	r2, #78
 560:src/emvtrans.c ****   len += PackInfoData(p_mem+len, data, pack_width);
 1669              		.loc 1 560 0
 1670 0312 8DF861A0 		strb	r10, [sp, #97]
 559:src/emvtrans.c ****   data[1] = 0x00;
 1671              		.loc 1 559 0
 1672 0316 8DF86020 		strb	r2, [sp, #96]
 561:src/emvtrans.c **** 
 1673              		.loc 1 561 0
 1674 031a 3246     		mov	r2, r6
 1675 031c FFF7FEFF 		bl	PackInfoData
 1676              	.LVL179:
 564:src/emvtrans.c ****   data[0] = (!(aEmvCfg.eBitField&eNO_REFERRAL))? 'Y':'N';
 1677              		.loc 1 564 0
 1678 0320 4349     		ldr	r1, .L193+52
 561:src/emvtrans.c **** 
 1679              		.loc 1 561 0
 1680 0322 2044     		add	r0, r0, r4
 1681 0324 84B2     		uxth	r4, r0
 1682              	.LVL180:
 564:src/emvtrans.c ****   data[0] = (!(aEmvCfg.eBitField&eNO_REFERRAL))? 'Y':'N';
 1683              		.loc 1 564 0
 1684 0326 2B19     		adds	r3, r5, r4
 1685 0328 1846     		mov	r0, r3
 1686 032a FFF7FEFF 		bl	strcpy
 1687              	.LVL181:
 565:src/emvtrans.c ****   data[1] = 0x00;
 1688              		.loc 1 565 0
 1689 032e 9DF8B922 		ldrb	r2, [sp, #697]	@ zero_extendqisi2
 567:src/emvtrans.c **** 
 1690              		.loc 1 567 0
 1691 0332 18A9     		add	r1, sp, #96
 565:src/emvtrans.c ****   data[1] = 0x00;
 1692              		.loc 1 565 0
 1693 0334 12F0020F 		tst	r2, #2
ARM GAS  C:\Users\AHMED~1.ELE\AppData\Local\Temp\ccAhPyWN.s 			page 47


 1694 0338 0CBF     		ite	eq
 1695 033a 5922     		moveq	r2, #89
 1696 033c 4E22     		movne	r2, #78
 566:src/emvtrans.c ****   len += PackInfoData(p_mem+len, data, pack_width);
 1697              		.loc 1 566 0
 1698 033e 8DF861A0 		strb	r10, [sp, #97]
 565:src/emvtrans.c ****   data[1] = 0x00;
 1699              		.loc 1 565 0
 1700 0342 8DF86020 		strb	r2, [sp, #96]
 567:src/emvtrans.c **** 
 1701              		.loc 1 567 0
 1702 0346 3246     		mov	r2, r6
 1703 0348 FFF7FEFF 		bl	PackInfoData
 1704              	.LVL182:
 570:src/emvtrans.c ****   data[0] = (aEmvCfg.eBitField&eENB_PIN_BYPASS)? 'Y':'N';
 1705              		.loc 1 570 0
 1706 034c 3949     		ldr	r1, .L193+56
 567:src/emvtrans.c **** 
 1707              		.loc 1 567 0
 1708 034e 2044     		add	r0, r0, r4
 1709 0350 84B2     		uxth	r4, r0
 1710              	.LVL183:
 570:src/emvtrans.c ****   data[0] = (aEmvCfg.eBitField&eENB_PIN_BYPASS)? 'Y':'N';
 1711              		.loc 1 570 0
 1712 0352 2B19     		adds	r3, r5, r4
 1713 0354 1846     		mov	r0, r3
 1714 0356 FFF7FEFF 		bl	strcpy
 1715              	.LVL184:
 571:src/emvtrans.c ****   data[1] = 0x00;
 1716              		.loc 1 571 0
 1717 035a 9DF8B922 		ldrb	r2, [sp, #697]	@ zero_extendqisi2
 573:src/emvtrans.c **** 
 1718              		.loc 1 573 0
 1719 035e 18A9     		add	r1, sp, #96
 571:src/emvtrans.c ****   data[1] = 0x00;
 1720              		.loc 1 571 0
 1721 0360 12F0040F 		tst	r2, #4
 1722 0364 14BF     		ite	ne
 1723 0366 5922     		movne	r2, #89
 1724 0368 4E22     		moveq	r2, #78
 572:src/emvtrans.c ****   len += PackInfoData(p_mem+len, data, pack_width);
 1725              		.loc 1 572 0
 1726 036a 8DF861A0 		strb	r10, [sp, #97]
 571:src/emvtrans.c ****   data[1] = 0x00;
 1727              		.loc 1 571 0
 1728 036e 8DF86020 		strb	r2, [sp, #96]
 573:src/emvtrans.c **** 
 1729              		.loc 1 573 0
 1730 0372 3246     		mov	r2, r6
 1731 0374 FFF7FEFF 		bl	PackInfoData
 1732              	.LVL185:
 576:src/emvtrans.c ****   data[0] = (aEmvCfg.eBitField&eFORCE_TRM)? 'Y':'N';
 1733              		.loc 1 576 0
 1734 0378 2F49     		ldr	r1, .L193+60
 573:src/emvtrans.c **** 
 1735              		.loc 1 573 0
 1736 037a 2044     		add	r0, r0, r4
ARM GAS  C:\Users\AHMED~1.ELE\AppData\Local\Temp\ccAhPyWN.s 			page 48


 1737 037c 84B2     		uxth	r4, r0
 1738              	.LVL186:
 576:src/emvtrans.c ****   data[0] = (aEmvCfg.eBitField&eFORCE_TRM)? 'Y':'N';
 1739              		.loc 1 576 0
 1740 037e 2B19     		adds	r3, r5, r4
 1741 0380 1846     		mov	r0, r3
 1742 0382 FFF7FEFF 		bl	strcpy
 1743              	.LVL187:
 577:src/emvtrans.c ****   data[1] = 0x00;
 1744              		.loc 1 577 0
 1745 0386 9DF8B922 		ldrb	r2, [sp, #697]	@ zero_extendqisi2
 579:src/emvtrans.c **** 
 1746              		.loc 1 579 0
 1747 038a 18A9     		add	r1, sp, #96
 577:src/emvtrans.c ****   data[1] = 0x00;
 1748              		.loc 1 577 0
 1749 038c 12F0080F 		tst	r2, #8
 1750 0390 14BF     		ite	ne
 1751 0392 5922     		movne	r2, #89
 1752 0394 4E22     		moveq	r2, #78
 578:src/emvtrans.c ****   len += PackInfoData(p_mem+len, data, pack_width);
 1753              		.loc 1 578 0
 1754 0396 8DF861A0 		strb	r10, [sp, #97]
 577:src/emvtrans.c ****   data[1] = 0x00;
 1755              		.loc 1 577 0
 1756 039a 8DF86020 		strb	r2, [sp, #96]
 579:src/emvtrans.c **** 
 1757              		.loc 1 579 0
 1758 039e 3246     		mov	r2, r6
 1759 03a0 FFF7FEFF 		bl	PackInfoData
 1760              	.LVL188:
 582:src/emvtrans.c ****   split(data, aEmvCfg.eTACDenial, 5);
 1761              		.loc 1 582 0
 1762 03a4 2549     		ldr	r1, .L193+64
 579:src/emvtrans.c **** 
 1763              		.loc 1 579 0
 1764 03a6 2044     		add	r0, r0, r4
 1765 03a8 84B2     		uxth	r4, r0
 1766              	.LVL189:
 582:src/emvtrans.c ****   split(data, aEmvCfg.eTACDenial, 5);
 1767              		.loc 1 582 0
 1768 03aa 05EB040B 		add	fp, r5, r4
 1769 03ae 5846     		mov	r0, fp
 1770 03b0 FFF7FEFF 		bl	strcpy
 1771              	.LVL190:
 583:src/emvtrans.c ****   data[5*2] = 0x00;
 1772              		.loc 1 583 0
 1773 03b4 18A8     		add	r0, sp, #96
 1774 03b6 B0A9     		add	r1, sp, #704
 1775 03b8 0522     		movs	r2, #5
 1776 03ba FFF7FEFF 		bl	split
 1777              	.LVL191:
 585:src/emvtrans.c **** 
 1778              		.loc 1 585 0
 1779 03be 3246     		mov	r2, r6
 1780 03c0 5846     		mov	r0, fp
 1781 03c2 18A9     		add	r1, sp, #96
ARM GAS  C:\Users\AHMED~1.ELE\AppData\Local\Temp\ccAhPyWN.s 			page 49


 584:src/emvtrans.c ****   len += PackInfoData(p_mem+len, data, pack_width);
 1782              		.loc 1 584 0
 1783 03c4 8DF86AA0 		strb	r10, [sp, #106]
 585:src/emvtrans.c **** 
 1784              		.loc 1 585 0
 1785 03c8 FFF7FEFF 		bl	PackInfoData
 1786              	.LVL192:
 588:src/emvtrans.c ****   split(data, aEmvCfg.eTACOnline, 5);
 1787              		.loc 1 588 0
 1788 03cc 1C49     		ldr	r1, .L193+68
 585:src/emvtrans.c **** 
 1789              		.loc 1 585 0
 1790 03ce 2044     		add	r0, r0, r4
 1791 03d0 84B2     		uxth	r4, r0
 1792              	.LVL193:
 588:src/emvtrans.c ****   split(data, aEmvCfg.eTACOnline, 5);
 1793              		.loc 1 588 0
 1794 03d2 05EB040B 		add	fp, r5, r4
 1795 03d6 5846     		mov	r0, fp
 1796 03d8 FFF7FEFF 		bl	strcpy
 1797              	.LVL194:
 589:src/emvtrans.c ****   data[5*2] = 0x00;
 1798              		.loc 1 589 0
 1799 03dc AEAB     		add	r3, sp, #696
 1800 03de 03F10D01 		add	r1, r3, #13
 1801 03e2 18A8     		add	r0, sp, #96
 1802 03e4 0522     		movs	r2, #5
 1803 03e6 FFF7FEFF 		bl	split
 1804              	.LVL195:
 591:src/emvtrans.c **** 
 1805              		.loc 1 591 0
 1806 03ea 3246     		mov	r2, r6
 1807 03ec 5846     		mov	r0, fp
 1808 03ee 18A9     		add	r1, sp, #96
 590:src/emvtrans.c ****   len += PackInfoData(p_mem+len, data, pack_width);
 1809              		.loc 1 590 0
 1810 03f0 8DF86AA0 		strb	r10, [sp, #106]
 591:src/emvtrans.c **** 
 1811              		.loc 1 591 0
 1812 03f4 FFF7FEFF 		bl	PackInfoData
 1813              	.LVL196:
 1814 03f8 24E0     		b	.L194
 1815              	.L195:
 1816 03fa 00BF     		.align	2
 1817              	.L193:
 1818 03fc 28000000 		.word	.LC2
 1819 0400 3A000000 		.word	.LC3
 1820 0404 46000000 		.word	.LC4
 1821 0408 4C000000 		.word	.LC5
 1822 040c 56000000 		.word	.LC6
 1823 0410 63000000 		.word	.LC7
 1824 0414 72000000 		.word	.LC8
 1825 0418 7B000000 		.word	.LC9
 1826 041c 86000000 		.word	.LC10
 1827 0420 90000000 		.word	.LC11
 1828 0424 9A000000 		.word	.LC12
 1829 0428 A5000000 		.word	.LC13
ARM GAS  C:\Users\AHMED~1.ELE\AppData\Local\Temp\ccAhPyWN.s 			page 50


 1830 042c A6000000 		.word	.LC14
 1831 0430 BA000000 		.word	.LC15
 1832 0434 CC000000 		.word	.LC16
 1833 0438 E0000000 		.word	.LC17
 1834 043c EC000000 		.word	.LC18
 1835 0440 F9000000 		.word	.LC19
 1836              	.L194:
 594:src/emvtrans.c ****   split(data, aEmvCfg.eTACDefault, 5);
 1837              		.loc 1 594 0
 1838 0444 A149     		ldr	r1, .L196
 591:src/emvtrans.c **** 
 1839              		.loc 1 591 0
 1840 0446 2044     		add	r0, r0, r4
 1841 0448 84B2     		uxth	r4, r0
 1842              	.LVL197:
 594:src/emvtrans.c ****   split(data, aEmvCfg.eTACDefault, 5);
 1843              		.loc 1 594 0
 1844 044a 05EB040B 		add	fp, r5, r4
 1845 044e 5846     		mov	r0, fp
 1846 0450 FFF7FEFF 		bl	strcpy
 1847              	.LVL198:
 595:src/emvtrans.c ****   data[5*2] = 0x00;
 1848              		.loc 1 595 0
 1849 0454 AEAB     		add	r3, sp, #696
 1850 0456 03F11201 		add	r1, r3, #18
 1851 045a 18A8     		add	r0, sp, #96
 1852 045c 0522     		movs	r2, #5
 1853 045e FFF7FEFF 		bl	split
 1854              	.LVL199:
 597:src/emvtrans.c **** 
 1855              		.loc 1 597 0
 1856 0462 18A9     		add	r1, sp, #96
 1857 0464 3246     		mov	r2, r6
 1858 0466 5846     		mov	r0, fp
 596:src/emvtrans.c ****   len += PackInfoData(p_mem+len, data, pack_width);
 1859              		.loc 1 596 0
 1860 0468 8DF86AA0 		strb	r10, [sp, #106]
 597:src/emvtrans.c **** 
 1861              		.loc 1 597 0
 1862 046c FFF7FEFF 		bl	PackInfoData
 1863              	.LVL200:
 600:src/emvtrans.c ****     memset(data, 0x00, sizeof(data));
 1864              		.loc 1 600 0
 1865 0470 AEAB     		add	r3, sp, #696
 1866 0472 03F11701 		add	r1, r3, #23
 597:src/emvtrans.c **** 
 1867              		.loc 1 597 0
 1868 0476 2044     		add	r0, r0, r4
 600:src/emvtrans.c ****     memset(data, 0x00, sizeof(data));
 1869              		.loc 1 600 0
 1870 0478 49F63372 		movw	r2, #40755
 597:src/emvtrans.c **** 
 1871              		.loc 1 597 0
 1872 047c 84B2     		uxth	r4, r0
 1873              	.LVL201:
 600:src/emvtrans.c ****     memset(data, 0x00, sizeof(data));
 1874              		.loc 1 600 0
ARM GAS  C:\Users\AHMED~1.ELE\AppData\Local\Temp\ccAhPyWN.s 			page 51


 1875 047e 08A8     		add	r0, sp, #32
 1876 0480 FFF7FEFF 		bl	LDLoad
 1877              	.LVL202:
 1878 0484 B0B1     		cbz	r0, .L120
 601:src/emvtrans.c ****     split(data, buf+1, buf[0]);
 1879              		.loc 1 601 0
 1880 0486 5146     		mov	r1, r10
 1881 0488 4022     		movs	r2, #64
 1882 048a 18A8     		add	r0, sp, #96
 1883 048c FFF7FEFF 		bl	memset
 1884              	.LVL203:
 602:src/emvtrans.c ****     strcpy(p_mem+len, "Term Cap: ");
 1885              		.loc 1 602 0
 1886 0490 9DF92020 		ldrsb	r2, [sp, #32]
 1887 0494 18A8     		add	r0, sp, #96
 1888 0496 0DF12101 		add	r1, sp, #33
 1889 049a FFF7FEFF 		bl	split
 1890              	.LVL204:
 603:src/emvtrans.c ****     len += PackInfoData(p_mem+len, data, pack_width);
 1891              		.loc 1 603 0
 1892 049e 2B19     		adds	r3, r5, r4
 1893 04a0 1846     		mov	r0, r3
 1894 04a2 8B49     		ldr	r1, .L196+4
 1895 04a4 FFF7FEFF 		bl	strcpy
 1896              	.LVL205:
 604:src/emvtrans.c ****   }
 1897              		.loc 1 604 0
 1898 04a8 18A9     		add	r1, sp, #96
 1899 04aa 3246     		mov	r2, r6
 1900 04ac FFF7FEFF 		bl	PackInfoData
 1901              	.LVL206:
 1902 04b0 2044     		add	r0, r0, r4
 1903 04b2 84B2     		uxth	r4, r0
 1904              	.LVL207:
 1905              	.L120:
 608:src/emvtrans.c ****     memset(data, 0x00, sizeof(data));
 1906              		.loc 1 608 0
 1907 04b4 AEAB     		add	r3, sp, #696
 1908 04b6 08A8     		add	r0, sp, #32
 1909 04b8 03F11701 		add	r1, r3, #23
 1910 04bc 49F64072 		movw	r2, #40768
 1911 04c0 FFF7FEFF 		bl	LDLoad
 1912              	.LVL208:
 1913 04c4 0DF1600A 		add	r10, sp, #96
 1914 04c8 B0B1     		cbz	r0, .L121
 609:src/emvtrans.c ****     split(data, buf+1, buf[0]);
 1915              		.loc 1 609 0
 1916 04ca 0021     		movs	r1, #0
 1917 04cc 4022     		movs	r2, #64
 1918 04ce 5046     		mov	r0, r10
 1919 04d0 FFF7FEFF 		bl	memset
 1920              	.LVL209:
 610:src/emvtrans.c ****     strcpy(p_mem+len, "Add Cap: ");
 1921              		.loc 1 610 0
 1922 04d4 9DF92020 		ldrsb	r2, [sp, #32]
 1923 04d8 5046     		mov	r0, r10
 1924 04da 0DF12101 		add	r1, sp, #33
ARM GAS  C:\Users\AHMED~1.ELE\AppData\Local\Temp\ccAhPyWN.s 			page 52


 1925 04de FFF7FEFF 		bl	split
 1926              	.LVL210:
 611:src/emvtrans.c ****     len += PackInfoData(p_mem+len, data, pack_width);
 1927              		.loc 1 611 0
 1928 04e2 2B19     		adds	r3, r5, r4
 1929 04e4 1846     		mov	r0, r3
 1930 04e6 7B49     		ldr	r1, .L196+8
 1931 04e8 FFF7FEFF 		bl	strcpy
 1932              	.LVL211:
 612:src/emvtrans.c ****   }
 1933              		.loc 1 612 0
 1934 04ec 5146     		mov	r1, r10
 1935 04ee 3246     		mov	r2, r6
 1936 04f0 FFF7FEFF 		bl	PackInfoData
 1937              	.LVL212:
 1938 04f4 2044     		add	r0, r0, r4
 1939 04f6 84B2     		uxth	r4, r0
 1940              	.LVL213:
 1941              	.L121:
 616:src/emvtrans.c ****   info_data.b_line_width  = (unsigned char)pack_width;
 1942              		.loc 1 616 0
 1943 04f8 5046     		mov	r0, r10
 1944 04fa 7749     		ldr	r1, .L196+12
 1945 04fc FFF7FEFF 		bl	strcpy
 1946              	.LVL214:
 617:src/emvtrans.c ****   info_data.w_info_len    = len;
 1947              		.loc 1 617 0
 1948 0500 05AB     		add	r3, sp, #20
 1949 0502 8DF81490 		strb	r9, [sp, #20]
 1950              	.LVL215:
 619:src/emvtrans.c ****   info_data.pb_info       = p_mem;
 1951              		.loc 1 619 0
 1952 0506 CDF818A0 		str	r10, [sp, #24]
 1953              	.LVL216:
 622:src/emvtrans.c ****     if (DispInfoData(info_data) == MWKEY_CANCL) {
 1954              		.loc 1 622 0
 1955 050a 67B1     		cbz	r7, .L122
 623:src/emvtrans.c ****       ret_ok = FALSE;
 1956              		.loc 1 623 0
 1957 050c ADF81640 		strh	r4, [sp, #22]	@ movhi
 1958 0510 0795     		str	r5, [sp, #28]
 1959 0512 93E80700 		ldmia	r3, {r0, r1, r2}
 1960 0516 FFF7FEFF 		bl	DispInfoData
 1961              	.LVL217:
 473:src/emvtrans.c ****   char *p_mem, buf[64], data[64];
 1962              		.loc 1 473 0
 1963 051a B0F1110A 		subs	r10, r0, #17
 1964 051e 18BF     		it	ne
 1965 0520 4FF0010A 		movne	r10, #1
 1966 0524 0FE0     		b	.L123
 1967              	.L122:
 628:src/emvtrans.c ****     LptPutS(&data[1]);
 1968              		.loc 1 628 0
 1969 0526 0220     		movs	r0, #2
 1970 0528 FFF7FEFF 		bl	PrintRcptLF
 1971              	.LVL218:
 629:src/emvtrans.c ****     PrintRcptLF(1);
ARM GAS  C:\Users\AHMED~1.ELE\AppData\Local\Temp\ccAhPyWN.s 			page 53


 1972              		.loc 1 629 0
 1973 052c 0AF10100 		add	r0, r10, #1
 1974 0530 FFF7FEFF 		bl	LptPutS
 1975              	.LVL219:
 630:src/emvtrans.c ****     ret_ok = PrintBuf(info_data.pb_info, info_data.w_info_len, TRUE);
 1976              		.loc 1 630 0
 1977 0534 0120     		movs	r0, #1
 1978 0536 FFF7FEFF 		bl	PrintRcptLF
 1979              	.LVL220:
 631:src/emvtrans.c ****   }
 1980              		.loc 1 631 0
 1981 053a 2846     		mov	r0, r5
 1982 053c 2146     		mov	r1, r4
 1983 053e 0122     		movs	r2, #1
 1984 0540 FFF7FEFF 		bl	PrintBuf
 1985              	.LVL221:
 1986 0544 8246     		mov	r10, r0
 1987              	.LVL222:
 1988              	.L123:
 634:src/emvtrans.c ****   return ret_ok;
 1989              		.loc 1 634 0
 1990 0546 2946     		mov	r1, r5
 1991 0548 9420     		movs	r0, #148
 1992 054a FFF7FEFF 		bl	sys_func1
 1993              	.LVL223:
 1994 054e 00E0     		b	.L107
 1995              	.LVL224:
 1996              	.L139:
 480:src/emvtrans.c ****   }
 1997              		.loc 1 480 0
 1998 0550 8246     		mov	r10, r0
 1999              	.LVL225:
 2000              	.L107:
 2001              	.LBE24:
 2002              	.LBE32:
 750:src/emvtrans.c ****     if (!GetEMVAppCfg(&emv_cfg, i)) {
 2003              		.loc 1 750 0 discriminator 2
 2004 0552 08F10108 		add	r8, r8, #1
 2005              	.LVL226:
 2006 0556 B8F1800F 		cmp	r8, #128
 2007 055a 04D0     		beq	.L124
 750:src/emvtrans.c ****     if (!GetEMVAppCfg(&emv_cfg, i)) {
 2008              		.loc 1 750 0 is_stmt 0 discriminator 3
 2009 055c BAF1000F 		cmp	r10, #0
 2010 0560 7FF45DAD 		bne	.L125
 2011 0564 ADE0     		b	.L189
 2012              	.L124:
 755:src/emvtrans.c ****       continue;
 756:src/emvtrans.c ****     }
 757:src/emvtrans.c ****     ret_ok = PrintEMVAppCfg(emv_cfg, aDetail, aToDisplay);
 758:src/emvtrans.c ****   }
 759:src/emvtrans.c **** 
 760:src/emvtrans.c ****   //EMV key info
 761:src/emvtrans.c ****   if (ret_ok) {
 2013              		.loc 1 761 0 is_stmt 1
 2014 0566 BAF1000F 		cmp	r10, #0
 2015 056a 00F0AA80 		beq	.L189
ARM GAS  C:\Users\AHMED~1.ELE\AppData\Local\Temp\ccAhPyWN.s 			page 54


 2016 056e 69E5     		b	.L127
 2017              	.LVL227:
 2018              	.L188:
 2019 0570 18AD     		add	r5, sp, #96
 2020              	.LBB33:
 2021              	.LBB30:
 661:src/emvtrans.c **** 
 2022              		.loc 1 661 0
 2023 0572 002F     		cmp	r7, #0
 2024 0574 00F09580 		beq	.L128
 2025 0578 4FF01A08 		mov	r8, #26
 2026              	.LVL228:
 2027              	.L137:
 2028 057c 4FF00009 		mov	r9, #0
 2029 0580 4FF0010A 		mov	r10, #1
 2030              	.LVL229:
 2031 0584 4C46     		mov	r4, r9
 2032              	.LVL230:
 2033              	.L134:
 673:src/emvtrans.c ****       break;
 2034              		.loc 1 673 0
 2035 0586 08A8     		add	r0, sp, #32
 2036 0588 4946     		mov	r1, r9
 2037 058a FFF7FEFF 		bl	GetEMVKeyInfo
 2038              	.LVL231:
 2039 058e 0028     		cmp	r0, #0
 2040 0590 61D0     		beq	.L129
 678:src/emvtrans.c ****       strcpy(p_mem+len, "Public Key-ID");
 2041              		.loc 1 678 0
 2042 0592 B9F1000F 		cmp	r9, #0
 2043 0596 01D0     		beq	.L130
 2044 0598 5CB9     		cbnz	r4, .L131
 2045 059a 57B1     		cbz	r7, .L131
 2046              	.L130:
 679:src/emvtrans.c ****       len += PackInfoData(p_mem+len, "Eff   Exp  ", pack_width);
 2047              		.loc 1 679 0
 2048 059c 3319     		adds	r3, r6, r4
 2049 059e 1846     		mov	r0, r3
 2050 05a0 4E49     		ldr	r1, .L196+16
 2051 05a2 FFF7FEFF 		bl	strcpy
 2052              	.LVL232:
 680:src/emvtrans.c ****     }
 2053              		.loc 1 680 0
 2054 05a6 4E49     		ldr	r1, .L196+20
 2055 05a8 4246     		mov	r2, r8
 2056 05aa FFF7FEFF 		bl	PackInfoData
 2057              	.LVL233:
 2058 05ae 2044     		add	r0, r0, r4
 2059 05b0 84B2     		uxth	r4, r0
 2060              	.LVL234:
 2061              	.L131:
 684:src/emvtrans.c ****     p_mem[len+10] = '-';
 2062              		.loc 1 684 0
 2063 05b2 06EB040B 		add	fp, r6, r4
 2064 05b6 5846     		mov	r0, fp
 2065 05b8 0DF12101 		add	r1, sp, #33
 2066 05bc 0522     		movs	r2, #5
ARM GAS  C:\Users\AHMED~1.ELE\AppData\Local\Temp\ccAhPyWN.s 			page 55


 2067 05be FFF7FEFF 		bl	split
 2068              	.LVL235:
 685:src/emvtrans.c ****     SprintfMW(p_mem+len+11, "%02X", key_info.KeyIdx);
 2069              		.loc 1 685 0
 2070 05c2 2D23     		movs	r3, #45
 686:src/emvtrans.c ****     SprintfMW(data, "%02X/%02X ", key_info.EffectDate/256, key_info.EffectDate%256);
 2071              		.loc 1 686 0
 2072 05c4 04F10B00 		add	r0, r4, #11
 685:src/emvtrans.c ****     SprintfMW(p_mem+len+11, "%02X", key_info.KeyIdx);
 2073              		.loc 1 685 0
 2074 05c8 8BF80A30 		strb	r3, [fp, #10]
 686:src/emvtrans.c ****     SprintfMW(data, "%02X/%02X ", key_info.EffectDate/256, key_info.EffectDate%256);
 2075              		.loc 1 686 0
 2076 05cc 4549     		ldr	r1, .L196+24
 2077 05ce 9DF82020 		ldrb	r2, [sp, #32]	@ zero_extendqisi2
 2078 05d2 3044     		add	r0, r0, r6
 2079 05d4 FFF7FEFF 		bl	sprintf
 2080              	.LVL236:
 687:src/emvtrans.c ****     SprintfMW(data+strlen(data), "%02X/%02X ", key_info.ExpiryDate/256, key_info.ExpiryDate%256);
 2081              		.loc 1 687 0
 2082 05d8 BDF82830 		ldrh	r3, [sp, #40]
 2083 05dc 4249     		ldr	r1, .L196+28
 2084 05de 1A0A     		lsrs	r2, r3, #8
 2085 05e0 2846     		mov	r0, r5
 2086 05e2 DBB2     		uxtb	r3, r3
 2087 05e4 FFF7FEFF 		bl	sprintf
 2088              	.LVL237:
 688:src/emvtrans.c ****     len += PackInfoData(p_mem+len, data, pack_width);
 2089              		.loc 1 688 0
 2090 05e8 2846     		mov	r0, r5
 2091 05ea FFF7FEFF 		bl	strlen
 2092              	.LVL238:
 2093 05ee BDF82630 		ldrh	r3, [sp, #38]
 2094 05f2 3D49     		ldr	r1, .L196+28
 2095 05f4 1A0A     		lsrs	r2, r3, #8
 2096 05f6 2844     		add	r0, r0, r5
 2097 05f8 DBB2     		uxtb	r3, r3
 2098 05fa FFF7FEFF 		bl	sprintf
 2099              	.LVL239:
 689:src/emvtrans.c **** 
 2100              		.loc 1 689 0
 2101 05fe 5846     		mov	r0, fp
 2102 0600 2946     		mov	r1, r5
 2103 0602 4246     		mov	r2, r8
 2104 0604 FFF7FEFF 		bl	PackInfoData
 2105              	.LVL240:
 2106 0608 2044     		add	r0, r0, r4
 2107 060a 84B2     		uxth	r4, r0
 2108              	.LVL241:
 694:src/emvtrans.c ****       SprintfMW(data, " EMV KEY INFO");
 2109              		.loc 1 694 0
 2110 060c B4F5707F 		cmp	r4, #960
 2111 0610 1AD9     		bls	.L132
 695:src/emvtrans.c ****       info_data.b_line_width  = (unsigned char)pack_width;
 2112              		.loc 1 695 0
 2113 0612 2846     		mov	r0, r5
 2114 0614 3549     		ldr	r1, .L196+32
ARM GAS  C:\Users\AHMED~1.ELE\AppData\Local\Temp\ccAhPyWN.s 			page 56


 2115 0616 FFF7FEFF 		bl	strcpy
 2116              	.LVL242:
 696:src/emvtrans.c ****       info_data.w_info_len    = len;
 2117              		.loc 1 696 0
 2118 061a 05AB     		add	r3, sp, #20
 2119 061c 8DF81480 		strb	r8, [sp, #20]
 2120              	.LVL243:
 698:src/emvtrans.c ****       info_data.pb_info       = p_mem;
 2121              		.loc 1 698 0
 2122 0620 0695     		str	r5, [sp, #24]
 2123              	.LVL244:
 701:src/emvtrans.c ****         if (DispInfoData(info_data) == MWKEY_CANCL) {
 2124              		.loc 1 701 0
 2125 0622 57B1     		cbz	r7, .L133
 702:src/emvtrans.c ****           ret_ok = FALSE;
 2126              		.loc 1 702 0
 2127 0624 ADF81640 		strh	r4, [sp, #22]	@ movhi
 2128 0628 0796     		str	r6, [sp, #28]
 2129 062a 93E80700 		ldmia	r3, {r0, r1, r2}
 2130 062e FFF7FEFF 		bl	DispInfoData
 2131              	.LVL245:
 700:src/emvtrans.c ****       if (aToDisplay) {
 2132              		.loc 1 700 0
 2133 0632 0024     		movs	r4, #0
 2134              	.LVL246:
 702:src/emvtrans.c ****           ret_ok = FALSE;
 2135              		.loc 1 702 0
 2136 0634 1128     		cmp	r0, #17
 2137 0636 07D1     		bne	.L132
 2138 0638 0CE0     		b	.L146
 2139              	.LVL247:
 2140              	.L133:
 708:src/emvtrans.c ****       }
 2141              		.loc 1 708 0
 2142 063a 2146     		mov	r1, r4
 2143 063c 3046     		mov	r0, r6
 2144 063e 0122     		movs	r2, #1
 2145 0640 FFF7FEFF 		bl	PrintBuf
 2146              	.LVL248:
 700:src/emvtrans.c ****       if (aToDisplay) {
 2147              		.loc 1 700 0
 2148 0644 3C46     		mov	r4, r7
 2149              	.LVL249:
 708:src/emvtrans.c ****       }
 2150              		.loc 1 708 0
 2151 0646 8246     		mov	r10, r0
 2152              	.LVL250:
 2153              	.L132:
 2154 0648 09F10109 		add	r9, r9, #1
 2155              	.LVL251:
 671:src/emvtrans.c ****     // get key info
 2156              		.loc 1 671 0
 2157 064c B9F5407F 		cmp	r9, #768
 2158 0650 99D1     		bne	.L134
 2159 0652 00E0     		b	.L129
 2160              	.LVL252:
 2161              	.L146:
ARM GAS  C:\Users\AHMED~1.ELE\AppData\Local\Temp\ccAhPyWN.s 			page 57


 703:src/emvtrans.c ****           break;
 2162              		.loc 1 703 0
 2163 0654 A246     		mov	r10, r4
 2164              	.LVL253:
 2165              	.L129:
 714:src/emvtrans.c ****   info_data.b_line_width  = (unsigned char)pack_width;
 2166              		.loc 1 714 0
 2167 0656 2846     		mov	r0, r5
 2168 0658 2449     		ldr	r1, .L196+32
 2169 065a FFF7FEFF 		bl	strcpy
 2170              	.LVL254:
 715:src/emvtrans.c ****   info_data.w_info_len    = len;
 2171              		.loc 1 715 0
 2172 065e 05AB     		add	r3, sp, #20
 2173 0660 8DF81480 		strb	r8, [sp, #20]
 2174              	.LVL255:
 717:src/emvtrans.c ****   info_data.pb_info       = p_mem;
 2175              		.loc 1 717 0
 2176 0664 0695     		str	r5, [sp, #24]
 2177              	.LVL256:
 720:src/emvtrans.c ****     if (aToDisplay) {
 2178              		.loc 1 720 0
 2179 0666 ACB1     		cbz	r4, .L135
 2180 0668 BAF1000F 		cmp	r10, #0
 2181 066c 12D0     		beq	.L135
 721:src/emvtrans.c ****       if (DispInfoData(info_data) == MWKEY_CANCL) {
 2182              		.loc 1 721 0
 2183 066e 5FB1     		cbz	r7, .L136
 722:src/emvtrans.c ****         ret_ok = FALSE;
 2184              		.loc 1 722 0
 2185 0670 ADF81640 		strh	r4, [sp, #22]	@ movhi
 2186 0674 0796     		str	r6, [sp, #28]
 2187 0676 93E80700 		ldmia	r3, {r0, r1, r2}
 2188 067a FFF7FEFF 		bl	DispInfoData
 2189              	.LVL257:
 723:src/emvtrans.c ****       }
 2190              		.loc 1 723 0
 2191 067e 1128     		cmp	r0, #17
 2192 0680 08BF     		it	eq
 2193 0682 4FF0000A 		moveq	r10, #0
 2194              	.LVL258:
 2195 0686 05E0     		b	.L135
 2196              	.LVL259:
 2197              	.L136:
 727:src/emvtrans.c ****     }
 2198              		.loc 1 727 0
 2199 0688 3046     		mov	r0, r6
 2200 068a 2146     		mov	r1, r4
 2201 068c 0122     		movs	r2, #1
 2202 068e FFF7FEFF 		bl	PrintBuf
 2203              	.LVL260:
 2204 0692 8246     		mov	r10, r0
 2205              	.LVL261:
 2206              	.L135:
 731:src/emvtrans.c ****   return ret_ok;
 2207              		.loc 1 731 0
 2208 0694 3146     		mov	r1, r6
ARM GAS  C:\Users\AHMED~1.ELE\AppData\Local\Temp\ccAhPyWN.s 			page 58


 2209 0696 9420     		movs	r0, #148
 2210 0698 FFF7FEFF 		bl	sys_func1
 2211              	.LVL262:
 2212 069c 11E0     		b	.L189
 2213              	.LVL263:
 2214              	.L190:
 656:src/emvtrans.c ****   }
 2215              		.loc 1 656 0
 2216 069e 8246     		mov	r10, r0
 2217              	.LVL264:
 2218 06a0 0FE0     		b	.L189
 2219              	.LVL265:
 2220              	.L128:
 664:src/emvtrans.c ****     strcpy(data, "EMV KEY INFO");
 2221              		.loc 1 664 0
 2222 06a2 0220     		movs	r0, #2
 2223              	.LVL266:
 2224 06a4 FFF7FEFF 		bl	PrintRcptLF
 2225              	.LVL267:
 665:src/emvtrans.c ****     LptPutS(data);
 2226              		.loc 1 665 0
 2227 06a8 1149     		ldr	r1, .L196+36
 2228 06aa 2846     		mov	r0, r5
 2229 06ac FFF7FEFF 		bl	strcpy
 2230              	.LVL268:
 666:src/emvtrans.c ****     PrintRcptLF(1);
 2231              		.loc 1 666 0
 2232 06b0 2846     		mov	r0, r5
 2233 06b2 FFF7FEFF 		bl	LptPutS
 2234              	.LVL269:
 667:src/emvtrans.c ****   }
 2235              		.loc 1 667 0
 2236 06b6 0120     		movs	r0, #1
 2237 06b8 FFF7FEFF 		bl	PrintRcptLF
 2238              	.LVL270:
 661:src/emvtrans.c **** 
 2239              		.loc 1 661 0
 2240 06bc 4FF02008 		mov	r8, #32
 2241              	.LVL271:
 2242 06c0 5CE7     		b	.L137
 2243              	.LVL272:
 2244              	.L189:
 2245              	.LBE30:
 2246              	.LBE33:
 762:src/emvtrans.c ****     ret_ok = PrintEMVKeyInfo(aDetail, aToDisplay);
 763:src/emvtrans.c ****   }
 764:src/emvtrans.c **** 
 765:src/emvtrans.c ****   return ret_ok;
 766:src/emvtrans.c **** }
 2247              		.loc 1 766 0
 2248 06c2 5046     		mov	r0, r10
 2249 06c4 0DF2D44D 		addw	sp, sp, #1236
 2250              		.cfi_def_cfa_offset 36
 2251              		@ sp needed
 2252 06c8 BDE8F08F 		pop	{r4, r5, r6, r7, r8, r9, r10, fp, pc}
 2253              	.LVL273:
 2254              	.L197:
ARM GAS  C:\Users\AHMED~1.ELE\AppData\Local\Temp\ccAhPyWN.s 			page 59


 2255              		.align	2
 2256              	.L196:
 2257 06cc EC000000 		.word	.LC18
 2258 06d0 06010000 		.word	.LC20
 2259 06d4 11010000 		.word	.LC21
 2260 06d8 1B010000 		.word	.LC22
 2261 06dc 28010000 		.word	.LC23
 2262 06e0 36010000 		.word	.LC24
 2263 06e4 42010000 		.word	.LC25
 2264 06e8 47010000 		.word	.LC26
 2265 06ec 52010000 		.word	.LC27
 2266 06f0 60010000 		.word	.LC28
 2267              		.cfi_endproc
 2268              	.LFE19:
 2269              		.size	PrintEMVParam, .-PrintEMVParam
 2270              		.section	.text.EMVUtilStart,"ax",%progbits
 2271              		.align	1
 2272              		.global	EMVUtilStart
 2273              		.thumb
 2274              		.thumb_func
 2275              		.type	EMVUtilStart, %function
 2276              	EMVUtilStart:
 2277              	.LFB20:
 767:src/emvtrans.c **** //*****************************************************************************
 768:src/emvtrans.c **** //  Function        : EMVUtilStart
 769:src/emvtrans.c **** //  Description     : Initialize all Globals variable for parameters passing.
 770:src/emvtrans.c **** //  Input           : N/A
 771:src/emvtrans.c **** //  Return          : N/A
 772:src/emvtrans.c **** //  Note            : N/A
 773:src/emvtrans.c **** //  Globals Changed : N/A
 774:src/emvtrans.c **** //*****************************************************************************
 775:src/emvtrans.c **** BOOLEAN EMVUtilStart(void)
 776:src/emvtrans.c **** {
 2278              		.loc 1 776 0
 2279              		.cfi_startproc
 2280              		@ args = 0, pretend = 0, frame = 0
 2281              		@ frame_needed = 0, uses_anonymous_args = 0
 2282 0000 10B5     		push	{r4, lr}
 2283              		.cfi_def_cfa_offset 8
 2284              		.cfi_offset 4, -8
 2285              		.cfi_offset 14, -4
 777:src/emvtrans.c ****   sbIOBuf  = (BYTE *)  MallocMW(1500);
 2286              		.loc 1 777 0
 2287 0002 40F2DC51 		movw	r1, #1500
 2288 0006 9220     		movs	r0, #146
 2289 0008 FFF7FEFF 		bl	sys_func1
 2290              	.LVL274:
 2291 000c 0B4C     		ldr	r4, .L199
 778:src/emvtrans.c ****   sEMVIn  = (sIO_t *) MallocMW(sizeof(sIO_t));
 2292              		.loc 1 778 0
 2293 000e 0821     		movs	r1, #8
 777:src/emvtrans.c ****   sbIOBuf  = (BYTE *)  MallocMW(1500);
 2294              		.loc 1 777 0
 2295 0010 A060     		str	r0, [r4, #8]
 2296              		.loc 1 778 0
 2297 0012 9220     		movs	r0, #146
 2298 0014 FFF7FEFF 		bl	sys_func1
ARM GAS  C:\Users\AHMED~1.ELE\AppData\Local\Temp\ccAhPyWN.s 			page 60


 2299              	.LVL275:
 779:src/emvtrans.c ****   sEMVOut = (sIO_t *) MallocMW(sizeof(sIO_t));
 2300              		.loc 1 779 0
 2301 0018 0821     		movs	r1, #8
 778:src/emvtrans.c ****   sEMVIn  = (sIO_t *) MallocMW(sizeof(sIO_t));
 2302              		.loc 1 778 0
 2303 001a 2060     		str	r0, [r4]
 2304              		.loc 1 779 0
 2305 001c 9220     		movs	r0, #146
 2306 001e FFF7FEFF 		bl	sys_func1
 2307              	.LVL276:
 2308 0022 6060     		str	r0, [r4, #4]
 780:src/emvtrans.c **** 
 781:src/emvtrans.c ****   MemFatalErr(sbIOBuf);  // Check Memory Pointer
 2309              		.loc 1 781 0
 2310 0024 A068     		ldr	r0, [r4, #8]
 2311 0026 FFF7FEFF 		bl	MemFatalErr
 2312              	.LVL277:
 782:src/emvtrans.c ****   MemFatalErr(sEMVIn);  // Check Memory Pointer
 2313              		.loc 1 782 0
 2314 002a 2068     		ldr	r0, [r4]
 2315 002c FFF7FEFF 		bl	MemFatalErr
 2316              	.LVL278:
 783:src/emvtrans.c ****   MemFatalErr(sEMVOut);  // Check Memory Pointer
 2317              		.loc 1 783 0
 2318 0030 6068     		ldr	r0, [r4, #4]
 2319 0032 FFF7FEFF 		bl	MemFatalErr
 2320              	.LVL279:
 784:src/emvtrans.c ****   return TRUE;
 785:src/emvtrans.c **** }
 2321              		.loc 1 785 0
 2322 0036 0120     		movs	r0, #1
 2323 0038 10BD     		pop	{r4, pc}
 2324              	.L200:
 2325 003a 00BF     		.align	2
 2326              	.L199:
 2327 003c 00000000 		.word	.LANCHOR0
 2328              		.cfi_endproc
 2329              	.LFE20:
 2330              		.size	EMVUtilStart, .-EMVUtilStart
 2331              		.section	.text.EMVInit,"ax",%progbits
 2332              		.align	1
 2333              		.global	EMVInit
 2334              		.thumb
 2335              		.thumb_func
 2336              		.type	EMVInit, %function
 2337              	EMVInit:
 2338              	.LFB21:
 786:src/emvtrans.c **** //*****************************************************************************
 787:src/emvtrans.c **** //  Function        : EMVInit
 788:src/emvtrans.c **** //  Description     : Kernel initialization.
 789:src/emvtrans.c **** //  Input           : N/A
 790:src/emvtrans.c **** //  Return          : N/A
 791:src/emvtrans.c **** //  Note            : N/A
 792:src/emvtrans.c **** //  Globals Changed : N/A
 793:src/emvtrans.c **** //*****************************************************************************
 794:src/emvtrans.c **** void EMVInit(void)
ARM GAS  C:\Users\AHMED~1.ELE\AppData\Local\Temp\ccAhPyWN.s 			page 61


 795:src/emvtrans.c **** {
 2339              		.loc 1 795 0
 2340              		.cfi_startproc
 2341              		@ args = 0, pretend = 0, frame = 0
 2342              		@ frame_needed = 0, uses_anonymous_args = 0
 2343              	.LVL280:
 2344 0000 73B5     		push	{r0, r1, r4, r5, r6, lr}
 2345              		.cfi_def_cfa_offset 24
 2346              		.cfi_offset 4, -16
 2347              		.cfi_offset 5, -12
 2348              		.cfi_offset 6, -8
 2349              		.cfi_offset 14, -4
 796:src/emvtrans.c ****   BYTE init_mode;
 797:src/emvtrans.c **** 
 798:src/emvtrans.c ****   init_mode = 0;
 799:src/emvtrans.c **** 
 800:src/emvtrans.c ****   sEMVIn->bMsg = sEMVOut->bMsg = sbIOBuf;
 2350              		.loc 1 800 0
 2351 0002 1A4C     		ldr	r4, .L203
 801:src/emvtrans.c ****   GetSysCfgMW(K_CF_SerialNo, sEMVIn->bMsg);
 2352              		.loc 1 801 0
 2353 0004 B920     		movs	r0, #185
 800:src/emvtrans.c ****   GetSysCfgMW(K_CF_SerialNo, sEMVIn->bMsg);
 2354              		.loc 1 800 0
 2355 0006 A268     		ldr	r2, [r4, #8]
 2356 0008 2368     		ldr	r3, [r4]
 2357 000a 6168     		ldr	r1, [r4, #4]
 2358 000c 4A60     		str	r2, [r1, #4]
 2359 000e 5A60     		str	r2, [r3, #4]
 2360              		.loc 1 801 0
 2361 0010 0221     		movs	r1, #2
 2362 0012 FFF7FEFF 		bl	sys_func2
 2363              	.LVL281:
 802:src/emvtrans.c ****   sEMVIn->wLen = 8;
 2364              		.loc 1 802 0
 2365 0016 2368     		ldr	r3, [r4]
 2366 0018 0822     		movs	r2, #8
 803:src/emvtrans.c **** 
 804:src/emvtrans.c ****   if (EMV_DllSetup(IOCMD_IFDSN_RW, sEMVIn, sEMVOut) == FALSE) // set IFDSN
 2367              		.loc 1 804 0
 2368 001a 0E20     		movs	r0, #14
 802:src/emvtrans.c ****   sEMVIn->wLen = 8;
 2369              		.loc 1 802 0
 2370 001c 1A80     		strh	r2, [r3]	@ movhi
 2371              		.loc 1 804 0
 2372 001e 6268     		ldr	r2, [r4, #4]
 2373 0020 0021     		movs	r1, #0
 2374 0022 0092     		str	r2, [sp]
 2375 0024 0122     		movs	r2, #1
 2376 0026 FFF7FEFF 		bl	lib_app_call
 2377              	.LVL282:
 2378 002a 10F0FF0F 		tst	r0, #255
 2379 002e 01D1     		bne	.L202
 805:src/emvtrans.c ****     EMVFatal();
 2380              		.loc 1 805 0
 2381 0030 FFF7FEFF 		bl	EMVFatal
 2382              	.LVL283:
ARM GAS  C:\Users\AHMED~1.ELE\AppData\Local\Temp\ccAhPyWN.s 			page 62


 2383              	.L202:
 806:src/emvtrans.c **** 
 807:src/emvtrans.c ****   memcpy(sEMVIn->bMsg, KPinMsg, sizeof(KPinMsg));
 2384              		.loc 1 807 0
 2385 0034 2568     		ldr	r5, [r4]
 2386 0036 4026     		movs	r6, #64
 2387 0038 3246     		mov	r2, r6
 2388 003a 6868     		ldr	r0, [r5, #4]
 2389 003c 0C49     		ldr	r1, .L203+4
 2390 003e FFF7FEFF 		bl	memcpy
 2391              	.LVL284:
 808:src/emvtrans.c ****   sEMVIn->wLen = sizeof(KPinMsg);
 809:src/emvtrans.c ****   memcpy(sEMVIn->bMsg+sEMVIn->wLen, KCardholderIDName, sizeof(KCardholderIDName));
 2392              		.loc 1 809 0
 2393 0042 6868     		ldr	r0, [r5, #4]
 808:src/emvtrans.c ****   sEMVIn->wLen = sizeof(KPinMsg);
 2394              		.loc 1 808 0
 2395 0044 2E80     		strh	r6, [r5]	@ movhi
 2396              		.loc 1 809 0
 2397 0046 3044     		add	r0, r0, r6
 2398 0048 0A49     		ldr	r1, .L203+8
 2399 004a 4222     		movs	r2, #66
 2400 004c FFF7FEFF 		bl	memcpy
 2401              	.LVL285:
 810:src/emvtrans.c ****   sEMVIn->wLen+=sizeof(KCardholderIDName);
 2402              		.loc 1 810 0
 2403 0050 2B88     		ldrh	r3, [r5]
 811:src/emvtrans.c ****   init_mode |= BIT_PSE_SUPPORT;
 812:src/emvtrans.c ****   EMV_DllMsg(init_mode,  sEMVIn, sEMVOut);
 2404              		.loc 1 812 0
 2405 0052 0121     		movs	r1, #1
 810:src/emvtrans.c ****   sEMVIn->wLen+=sizeof(KCardholderIDName);
 2406              		.loc 1 810 0
 2407 0054 4233     		adds	r3, r3, #66
 2408              		.loc 1 812 0
 2409 0056 8022     		movs	r2, #128
 810:src/emvtrans.c ****   sEMVIn->wLen+=sizeof(KCardholderIDName);
 2410              		.loc 1 810 0
 2411 0058 2B80     		strh	r3, [r5]	@ movhi
 2412              	.LVL286:
 2413              		.loc 1 812 0
 2414 005a 6368     		ldr	r3, [r4, #4]
 2415 005c 0E20     		movs	r0, #14
 2416 005e 0093     		str	r3, [sp]
 2417 0060 2B46     		mov	r3, r5
 2418 0062 FFF7FEFF 		bl	lib_app_call
 2419              	.LVL287:
 813:src/emvtrans.c **** }
 2420              		.loc 1 813 0
 2421 0066 02B0     		add	sp, sp, #8
 2422              		.cfi_def_cfa_offset 16
 2423              		@ sp needed
 2424 0068 70BD     		pop	{r4, r5, r6, pc}
 2425              	.L204:
 2426 006a 00BF     		.align	2
 2427              	.L203:
 2428 006c 00000000 		.word	.LANCHOR0
ARM GAS  C:\Users\AHMED~1.ELE\AppData\Local\Temp\ccAhPyWN.s 			page 63


 2429 0070 08000000 		.word	.LANCHOR2+8
 2430 0074 48000000 		.word	.LANCHOR2+72
 2431              		.cfi_endproc
 2432              	.LFE21:
 2433              		.size	EMVInit, .-EMVInit
 2434              		.global	KCardholderIDName
 2435              		.global	KPinMsg
 2436              		.section	.rodata
 2437              		.set	.LANCHOR2,. + 0
 2438              		.type	KEMVTemp, %object
 2439              		.size	KEMVTemp, 8
 2440              	KEMVTemp:
 2441 0000 656D765F 		.ascii	"emv_tmp\000"
 2441      746D7000 
 2442              		.type	KPinMsg, %object
 2443              		.size	KPinMsg, 64
 2444              	KPinMsg:
 2445 0008 20C7EB20 		.ascii	" \307\353 \312\344 \310\353 \303\334 \302\353 "
 2445      CAE420C8 
 2445      EB20C3DC 
 2445      20C2EB20 
 2446 0018 20C3DC20 		.ascii	" \303\334  \302\353  \325\375  \310\267 "
 2446      20C2EB20 
 2446      20D5FD20 
 2446      20C8B720 
 2447 0028 20C3DC20 		.ascii	" \303\334  \302\353  \264\355  \316\363 "
 2447      20C2EB20 
 2447      20B4ED20 
 2447      20CEF320 
 2448 0038 2020D7EE 		.ascii	"  \327\356\272\363\322\273\264\316\303\334\302\353 "
 2448      BAF3D2BB 
 2448      B4CEC3DC 
 2448      C2EB20
 2449 0047 20       		.ascii	" "
 2450              		.type	KCardholderIDName, %object
 2451              		.size	KCardholderIDName, 66
 2452              	KCardholderIDName:
 2453 0048 C9EDB7DD 		.ascii	"\311\355\267\335\326\244    \000"
 2453      D6A42020 
 2453      202000
 2454 0053 BEFCB9D9 		.ascii	"\276\374\271\331\326\244    \000"
 2454      D6A42020 
 2454      202000
 2455 005e BBA4D5D5 		.ascii	"\273\244\325\325      \000"
 2455      20202020 
 2455      202000
 2456 0069 C8EBBEB3 		.ascii	"\310\353\276\263\326\244    \000"
 2456      D6A42020 
 2456      202000
 2457 0074 C1D9CAB1 		.ascii	"\301\331\312\261\311\355\267\335\326\244\000"
 2457      C9EDB7DD 
 2457      D6A400
 2458 007f C6E4CBFB 		.ascii	"\306\344\313\373      \000"
 2458      20202020 
 2458      202000
 2459              		.section	.rodata.str1.1,"aMS",%progbits,1
 2460              	.LC0:
ARM GAS  C:\Users\AHMED~1.ELE\AppData\Local\Temp\ccAhPyWN.s 			page 64


 2461 0000 0C0A454D 		.ascii	"\014\012EMV2 FATAL ERR\012PLS CALL SERVICE\000"
 2461      56322046 
 2461      4154414C 
 2461      20455252 
 2461      0A504C53 
 2462              	.LC1:
 2463 0022 4149443A 		.ascii	"AID: \000"
 2463      2000
 2464              	.LC2:
 2465 0028 44656620 		.ascii	"Def ACQ Profile: \000"
 2465      41435120 
 2465      50726F66 
 2465      696C653A 
 2465      2000
 2466              	.LC3:
 2467 003a 54797065 		.ascii	"Type: %02X \000"
 2467      3A202530 
 2467      32582000 
 2468              	.LC4:
 2469 0046 5665723A 		.ascii	"Ver: \000"
 2469      2000
 2470              	.LC5:
 2471 004c 464C5220 		.ascii	"FLR LMT: \000"
 2471      4C4D543A 
 2471      2000
 2472              	.LC6:
 2473 0056 464C5220 		.ascii	"FLR LMT(O): \000"
 2473      4C4D5428 
 2473      4F293A20 
 2473      00
 2474              	.LC7:
 2475 0063 42617369 		.ascii	"Basic Random: \000"
 2475      63205261 
 2475      6E646F6D 
 2475      3A2000
 2476              	.LC8:
 2477 0072 2530642E 		.ascii	"%0d.%02d\000"
 2477      25303264 
 2477      00
 2478              	.LC9:
 2479 007b 54617267 		.ascii	"Target %: \000"
 2479      65742025 
 2479      3A2000
 2480              	.LC10:
 2481 0086 25303264 		.ascii	"%02d-%02d\000"
 2481      2D253032 
 2481      6400
 2482              	.LC11:
 2483 0090 436F756E 		.ascii	"Country: \000"
 2483      7472793A 
 2483      2000
 2484              	.LC12:
 2485 009a 43757272 		.ascii	"Currency: \000"
 2485      656E6379 
 2485      3A2000
 2486              	.LC13:
 2487 00a5 00       		.ascii	"\000"
ARM GAS  C:\Users\AHMED~1.ELE\AppData\Local\Temp\ccAhPyWN.s 			page 65


 2488              	.LC14:
 2489 00a6 416C6C6F 		.ascii	"Allow Partial AID: \000"
 2489      77205061 
 2489      72746961 
 2489      6C204149 
 2489      443A2000 
 2490              	.LC15:
 2491 00ba 52656665 		.ascii	"Referral Enable: \000"
 2491      7272616C 
 2491      20456E61 
 2491      626C653A 
 2491      2000
 2492              	.LC16:
 2493 00cc 50494E20 		.ascii	"PIN Bypass Enable: \000"
 2493      42797061 
 2493      73732045 
 2493      6E61626C 
 2493      653A2000 
 2494              	.LC17:
 2495 00e0 466F7263 		.ascii	"Force TRM: \000"
 2495      65205452 
 2495      4D3A2000 
 2496              	.LC18:
 2497 00ec 54414320 		.ascii	"TAC Denial: \000"
 2497      44656E69 
 2497      616C3A20 
 2497      00
 2498              	.LC19:
 2499 00f9 54414320 		.ascii	"TAC Online: \000"
 2499      4F6E6C69 
 2499      6E653A20 
 2499      00
 2500              	.LC20:
 2501 0106 5465726D 		.ascii	"Term Cap: \000"
 2501      20436170 
 2501      3A2000
 2502              	.LC21:
 2503 0111 41646420 		.ascii	"Add Cap: \000"
 2503      4361703A 
 2503      2000
 2504              	.LC22:
 2505 011b 20454D56 		.ascii	" EMV APP CFG\000"
 2505      20415050 
 2505      20434647 
 2505      00
 2506              	.LC23:
 2507 0128 5075626C 		.ascii	"Public Key-ID\000"
 2507      6963204B 
 2507      65792D49 
 2507      4400
 2508              	.LC24:
 2509 0136 45666620 		.ascii	"Eff   Exp  \000"
 2509      20204578 
 2509      70202000 
 2510              	.LC25:
 2511 0142 25303258 		.ascii	"%02X\000"
 2511      00
ARM GAS  C:\Users\AHMED~1.ELE\AppData\Local\Temp\ccAhPyWN.s 			page 66


 2512              	.LC26:
 2513 0147 25303258 		.ascii	"%02X/%02X \000"
 2513      2F253032 
 2513      582000
 2514              	.LC27:
 2515 0152 20454D56 		.ascii	" EMV KEY INFO\000"
 2515      204B4559 
 2515      20494E46 
 2515      4F00
 2516              	.LC28:
 2517 0160 454D5620 		.ascii	"EMV KEY INFO\000"
 2517      4B455920 
 2517      494E464F 
 2517      00
 2518              		.data
 2519              		.align	2
 2520              		.set	.LANCHOR1,. + 0
 2521              		.type	iDnloadFile, %object
 2522              		.size	iDnloadFile, 4
 2523              	iDnloadFile:
 2524 0000 FFFFFFFF 		.word	-1
 2525              		.bss
 2526              		.align	2
 2527              		.set	.LANCHOR0,. + 0
 2528              		.type	sEMVIn, %object
 2529              		.size	sEMVIn, 4
 2530              	sEMVIn:
 2531 0000 00000000 		.space	4
 2532              		.type	sEMVOut, %object
 2533              		.size	sEMVOut, 4
 2534              	sEMVOut:
 2535 0004 00000000 		.space	4
 2536              		.type	sbIOBuf, %object
 2537              		.size	sbIOBuf, 4
 2538              	sbIOBuf:
 2539 0008 00000000 		.space	4
 2540              		.type	bEmvLoaded, %object
 2541              		.size	bEmvLoaded, 1
 2542              	bEmvLoaded:
 2543 000c 00       		.space	1
 2544 000d 00       		.space	1
 2545              		.type	wChunkSize, %object
 2546              		.size	wChunkSize, 2
 2547              	wChunkSize:
 2548 000e 0000     		.space	2
 2549              		.type	bMaxNumBlk, %object
 2550              		.size	bMaxNumBlk, 1
 2551              	bMaxNumBlk:
 2552 0010 00       		.space	1
 2553              		.type	bDnloadBlk, %object
 2554              		.size	bDnloadBlk, 1
 2555              	bDnloadBlk:
 2556 0011 00       		.space	1
 2557 0012 0000     		.text
 2558              	.Letext0:
 2559              		.file 2 "c:\\devtools\\gcc_v49_2014q4\\lib\\gcc\\arm-none-eabi\\4.9.3\\include\\stddef.h"
 2560              		.file 3 "../LibA5T1000/common.h"
ARM GAS  C:\Users\AHMED~1.ELE\AppData\Local\Temp\ccAhPyWN.s 			page 67


 2561              		.file 4 "../LibA5T1000/system.h"
 2562              		.file 5 "../LibA5T1000/midware.h"
 2563              		.file 6 "../LibA5T1000/apm.h"
 2564              		.file 7 "src/hardware.h"
 2565              		.file 8 "../LibA5T1000/emv2dll.h"
 2566              		.file 9 "src/infodata.h"
 2567              		.file 10 "src/kbdutil.h"
 2568              		.file 11 "src/sysutil.h"
 2569              		.file 12 "../LibA5T1000/util.h"
 2570              		.file 13 "c:\\devtools\\gcc_v49_2014q4\\arm-none-eabi\\include\\string.h"
 2571              		.file 14 "c:\\devtools\\gcc_v49_2014q4\\arm-none-eabi\\include\\stdio.h"
 2572              		.file 15 "src/lptutil.h"
 2573              		.file 16 "<built-in>"