ARM GAS  C:\Users\AHMED~1.ELE\AppData\Local\Temp\cc5xo6of.s 			page 1


   1              		.syntax unified
   2              		.cpu cortex-a5
   3              		.fpu softvfp
   4              		.eabi_attribute 20, 1
   5              		.eabi_attribute 21, 1
   6              		.eabi_attribute 23, 3
   7              		.eabi_attribute 24, 1
   8              		.eabi_attribute 25, 1
   9              		.eabi_attribute 26, 1
  10              		.eabi_attribute 30, 4
  11              		.eabi_attribute 34, 0
  12              		.eabi_attribute 18, 4
  13              		.thumb
  14              		.file	"GetCert.c"
  15              		.text
  16              	.Ltext0:
  17              		.cfi_sections	.debug_frame
  18              		.section	.text.Str2hex,"ax",%progbits
  19              		.align	1
  20              		.global	Str2hex
  21              		.thumb
  22              		.thumb_func
  23              		.type	Str2hex, %function
  24              	Str2hex:
  25              	.LFB0:
  26              		.file 1 "src/GetCert.c"
   1:src/GetCert.c **** //-----------------------------------------------------------------------------
   2:src/GetCert.c **** //  File          : GetCert.c
   3:src/GetCert.c **** //  Module        :
   4:src/GetCert.c **** //  Description   : Get Cert/key from file.
   5:src/GetCert.c **** //  Author        : Kenneth Chan
   6:src/GetCert.c **** //  Notes         :
   7:src/GetCert.c **** //
   8:src/GetCert.c **** // ============================================================================
   9:src/GetCert.c **** // | Naming conventions                                                       |
  10:src/GetCert.c **** // | ~~~~~~~~~~~~~~~~~~                                                       |
  11:src/GetCert.c **** // |         Struct/Array : Leading s                                         |
  12:src/GetCert.c **** // |             Constant : Leading K                                         |
  13:src/GetCert.c **** // |      Global Variable : Leading g  (variable use outside one C file)      |
  14:src/GetCert.c **** // |                                                                          |
  15:src/GetCert.c **** // |   BYTE( 8 Bits) size : Leading b                                         |
  16:src/GetCert.c **** // |   CHAR( 8 Bits) size : Leading c                                         |
  17:src/GetCert.c **** // |   WORD(16 Bits) size : Leading w                                         |
  18:src/GetCert.c **** // |  DWORD(32 Bits) size : Leading d                                         |
  19:src/GetCert.c **** // |    int(32 Bits) size : Leading i                                         |
  20:src/GetCert.c **** // | DDWORD(64 Bits) size : Leading dd                                        |
  21:src/GetCert.c **** // |              Pointer : Leading p                                         |
  22:src/GetCert.c **** // |                                                                          |
  23:src/GetCert.c **** // |    Function argument : Leading a                                         |
  24:src/GetCert.c **** // |       Local Variable : All lower case                                    |
  25:src/GetCert.c **** // |                                                                          |
  26:src/GetCert.c **** // | Examples:                                                                |
  27:src/GetCert.c **** // |                Array : Leading s, (sb = arrary of byte, etc)             |
  28:src/GetCert.c **** // |              Pointer : Leading p, (pb = pointer of byte, etc)            |
  29:src/GetCert.c **** // ============================================================================
  30:src/GetCert.c **** //
  31:src/GetCert.c **** //  Date          Who         Action
ARM GAS  C:\Users\AHMED~1.ELE\AppData\Local\Temp\cc5xo6of.s 			page 2


  32:src/GetCert.c **** //  ------------  ----------- -------------------------------------------------
  33:src/GetCert.c **** //  10 Jul  2012  Kenneth     Initial Version.
  34:src/GetCert.c **** //-----------------------------------------------------------------------------
  35:src/GetCert.c **** #include <stdio.h>
  36:src/GetCert.c **** #include <string.h>
  37:src/GetCert.c **** #include "system.h"
  38:src/GetCert.c **** #include "midware.h"
  39:src/GetCert.c **** #include "apm.h"
  40:src/GetCert.c **** #include "sysutil.h"
  41:src/GetCert.c **** #include "kbdutil.h"
  42:src/GetCert.c **** #include "util.h"
  43:src/GetCert.c **** #include "GetCert.h"
  44:src/GetCert.c **** #include "x509.h"
  45:src/GetCert.c **** #include "pkcs.h"
  46:src/GetCert.c **** 
  47:src/GetCert.c **** //-----------------------------------------------------------------------------
  48:src/GetCert.c **** // Defines
  49:src/GetCert.c **** //-----------------------------------------------------------------------------
  50:src/GetCert.c **** 
  51:src/GetCert.c **** //-----------------------------------------------------------------------------
  52:src/GetCert.c **** // Constant
  53:src/GetCert.c **** //-----------------------------------------------------------------------------
  54:src/GetCert.c **** const BYTE CAKeyEcr[] = "PARAM0";      // define CA parameter file name for Web-TMS
  55:src/GetCert.c **** const BYTE CAKeyHost[] = "PARAM1";      // define CA parameter file name for Web-TMS
  56:src/GetCert.c **** const BYTE ClientCert[] = "PARAM2";    // define client cert parameter file name
  57:src/GetCert.c **** const BYTE ClientPriKey[] = "PARAM3";  // define client private key parameter file name
  58:src/GetCert.c **** const BYTE CAKeyTMS[] = "PARAM9";      // define CA parameter file name for Web-TMS
  59:src/GetCert.c **** 
  60:src/GetCert.c **** //-----------------------------------------------------------------------------
  61:src/GetCert.c **** // Globals
  62:src/GetCert.c **** //-----------------------------------------------------------------------------
  63:src/GetCert.c **** 
  64:src/GetCert.c **** //*****************************************************************************
  65:src/GetCert.c **** //  Function        : Str2hex
  66:src/GetCert.c **** //  Description     : Convert ASCII into DWORD
  67:src/GetCert.c **** //  Input           : source: ASCII string
  68:src/GetCert.c **** //                    len: length of string
  69:src/GetCert.c **** //  Return          : DWORD value
  70:src/GetCert.c **** //  Note            : N/A
  71:src/GetCert.c **** //  Globals Changed : N/A
  72:src/GetCert.c **** //*****************************************************************************
  73:src/GetCert.c **** DWORD Str2hex(BYTE * source, DWORD len)
  74:src/GetCert.c **** {
  27              		.loc 1 74 0
  28              		.cfi_startproc
  29              		@ args = 0, pretend = 0, frame = 0
  30              		@ frame_needed = 0, uses_anonymous_args = 0
  31              	.LVL0:
  32 0000 F8B5     		push	{r3, r4, r5, r6, r7, lr}
  33              		.cfi_def_cfa_offset 24
  34              		.cfi_offset 3, -24
  35              		.cfi_offset 4, -20
  36              		.cfi_offset 5, -16
  37              		.cfi_offset 6, -12
  38              		.cfi_offset 7, -8
  39              		.cfi_offset 14, -4
  75:src/GetCert.c ****   int i = 0;
ARM GAS  C:\Users\AHMED~1.ELE\AppData\Local\Temp\cc5xo6of.s 			page 3


  76:src/GetCert.c ****   DWORD val=0;
  40              		.loc 1 76 0
  41 0002 0024     		movs	r4, #0
  74:src/GetCert.c ****   int i = 0;
  42              		.loc 1 74 0
  43 0004 0746     		mov	r7, r0
  44 0006 0E46     		mov	r6, r1
  77:src/GetCert.c ****   BYTE tmp[8];
  78:src/GetCert.c ****   for (i=0; i<len; i++)
  45              		.loc 1 78 0
  46 0008 2546     		mov	r5, r4
  47              	.LVL1:
  48              	.L2:
  49              		.loc 1 78 0 is_stmt 0 discriminator 1
  50 000a B542     		cmp	r5, r6
  51 000c 0CD0     		beq	.L6
  79:src/GetCert.c ****   {
  80:src/GetCert.c ****     tmp[i] = hex_value(source[i]);
  52              		.loc 1 80 0 is_stmt 1
  53 000e 785D     		ldrb	r0, [r7, r5]	@ zero_extendqisi2
  54 0010 FFF7FEFF 		bl	hex_value
  55              	.LVL2:
  81:src/GetCert.c ****     val |= tmp[i];
  82:src/GetCert.c ****     if (i < len-1)
  56              		.loc 1 82 0
  57 0014 731E     		subs	r3, r6, #1
  58 0016 9D42     		cmp	r5, r3
  78:src/GetCert.c ****   {
  59              		.loc 1 78 0
  60 0018 05F10105 		add	r5, r5, #1
  61              	.LVL3:
  81:src/GetCert.c ****     val |= tmp[i];
  62              		.loc 1 81 0
  63 001c C0B2     		uxtb	r0, r0
  64 001e 44EA0004 		orr	r4, r4, r0
  65              	.LVL4:
  83:src/GetCert.c ****       val <<= 4;
  66              		.loc 1 83 0
  67 0022 38BF     		it	cc
  68 0024 2401     		lslcc	r4, r4, #4
  69              	.LVL5:
  70 0026 F0E7     		b	.L2
  71              	.L6:
  84:src/GetCert.c ****   }
  85:src/GetCert.c ****   return val;
  86:src/GetCert.c **** }
  72              		.loc 1 86 0
  73 0028 2046     		mov	r0, r4
  74 002a F8BD     		pop	{r3, r4, r5, r6, r7, pc}
  75              		.cfi_endproc
  76              	.LFE0:
  77              		.size	Str2hex, .-Str2hex
  78              		.section	.text.GetKey,"ax",%progbits
  79              		.align	1
  80              		.global	GetKey
  81              		.thumb
  82              		.thumb_func
ARM GAS  C:\Users\AHMED~1.ELE\AppData\Local\Temp\cc5xo6of.s 			page 4


  83              		.type	GetKey, %function
  84              	GetKey:
  85              	.LFB1:
  87:src/GetCert.c **** 
  88:src/GetCert.c **** //*****************************************************************************
  89:src/GetCert.c **** //  Function        : GetKey
  90:src/GetCert.c **** //  Description     : Get key from file
  91:src/GetCert.c **** //  Input           : aptr:       CA key pointer
  92:src/GetCert.c **** //                    aCAKeyID:   CA key ID
  93:src/GetCert.c **** //  Return          : N/A
  94:src/GetCert.c **** //  Note            : N/A
  95:src/GetCert.c **** //  Globals Changed : N/A
  96:src/GetCert.c **** //*****************************************************************************
  97:src/GetCert.c **** BOOLEAN GetKey(struct MW_KEY *aptr, BYTE aCAKeyID)
  98:src/GetCert.c **** {
  86              		.loc 1 98 0
  87              		.cfi_startproc
  88              		@ args = 0, pretend = 0, frame = 4120
  89              		@ frame_needed = 0, uses_anonymous_args = 0
  90              	.LVL6:
  91 0000 2DE9F041 		push	{r4, r5, r6, r7, r8, lr}
  92              		.cfi_def_cfa_offset 24
  93              		.cfi_offset 4, -24
  94              		.cfi_offset 5, -20
  95              		.cfi_offset 6, -16
  96              		.cfi_offset 7, -12
  97              		.cfi_offset 8, -8
  98              		.cfi_offset 14, -4
  99:src/GetCert.c ****   T_Dir dirLink;
 100:src/GetCert.c ****   T_DirEntry *entry;
 101:src/GetCert.c ****   struct FILELIST list[10];
 102:src/GetCert.c ****   char dirname[] = "/";
  99              		.loc 1 102 0
 100 0004 2F23     		movs	r3, #47
  98:src/GetCert.c ****   T_Dir dirLink;
 101              		.loc 1 98 0
 102 0006 ADF5815D 		sub	sp, sp, #4128
 103              		.cfi_def_cfa_offset 4152
 103:src/GetCert.c ****   
 104:src/GetCert.c ****   int result;
 105:src/GetCert.c ****   BYTE *content;
 106:src/GetCert.c ****   BYTE filename[20];        // stored filename to be read locally
 107:src/GetCert.c ****   int pfile_num = 0;
 108:src/GetCert.c ****   int filesize = 0;
 109:src/GetCert.c ****   int readlen = 0;
 110:src/GetCert.c ****   int read_filehdr = -1;
 111:src/GetCert.c ****   T_X509_CERT_INFO cert;
 112:src/GetCert.c ****   BYTE buf[32];
 113:src/GetCert.c ****   
 114:src/GetCert.c ****   if (aCAKeyID >= MAX_CA)
 104              		.loc 1 114 0
 105 000a 0229     		cmp	r1, #2
  98:src/GetCert.c ****   T_Dir dirLink;
 106              		.loc 1 98 0
 107 000c 0646     		mov	r6, r0
 102:src/GetCert.c ****   
 108              		.loc 1 102 0
ARM GAS  C:\Users\AHMED~1.ELE\AppData\Local\Temp\cc5xo6of.s 			page 5


 109 000e ADF80830 		strh	r3, [sp, #8]	@ movhi
 110              	.LVL7:
 111              		.loc 1 114 0
 112 0012 00F29E80 		bhi	.L34
 115:src/GetCert.c ****     return FALSE;
 116:src/GetCert.c ****   
 117:src/GetCert.c ****   switch (aCAKeyID)
 113              		.loc 1 117 0
 114 0016 0129     		cmp	r1, #1
 118:src/GetCert.c ****   {
 119:src/GetCert.c ****     case CA_ECR:
 120:src/GetCert.c ****       strcpy(filename, CAKeyEcr);
 121:src/GetCert.c ****       break;
 122:src/GetCert.c ****     case CA_HOST:
 123:src/GetCert.c ****       strcpy(filename, CAKeyHost);
 115              		.loc 1 123 0
 116 0018 03A8     		add	r0, sp, #12
 117              	.LVL8:
 117:src/GetCert.c ****   {
 118              		.loc 1 117 0
 119 001a 03D0     		beq	.L11
 120 001c 0229     		cmp	r1, #2
 121 001e 03D0     		beq	.L12
 120:src/GetCert.c ****       break;
 122              		.loc 1 120 0
 123 0020 5D49     		ldr	r1, .L36
 124              	.LVL9:
 125 0022 02E0     		b	.L32
 126              	.LVL10:
 127              	.L11:
 128              		.loc 1 123 0
 129 0024 5D49     		ldr	r1, .L36+4
 130              	.LVL11:
 131 0026 00E0     		b	.L32
 132              	.LVL12:
 133              	.L12:
 124:src/GetCert.c ****       break;
 125:src/GetCert.c ****     case CA_TMS:
 126:src/GetCert.c ****       strcpy(filename, CAKeyTMS);
 134              		.loc 1 126 0
 135 0028 5D49     		ldr	r1, .L36+8
 136              	.LVL13:
 137              	.L32:
 138 002a FFF7FEFF 		bl	strcpy
 139              	.LVL14:
 127:src/GetCert.c ****       break;
 128:src/GetCert.c ****   }
 129:src/GetCert.c ****   
 130:src/GetCert.c ****   if (os_file_init_search(dirname, &dirLink) < 0)        // read number of files
 140              		.loc 1 130 0
 141 002e 08AB     		add	r3, sp, #32
 142 0030 B120     		movs	r0, #177
 143 0032 02A9     		add	r1, sp, #8
 144 0034 1A46     		mov	r2, r3
 145 0036 FFF7FEFF 		bl	sys_func2
 146              	.LVL15:
 147 003a 0028     		cmp	r0, #0
ARM GAS  C:\Users\AHMED~1.ELE\AppData\Local\Temp\cc5xo6of.s 			page 6


 148 003c C0F28980 		blt	.L34
 149              	.L28:
 131:src/GetCert.c ****     return FALSE;
 132:src/GetCert.c **** 
 133:src/GetCert.c ****   do {
 134:src/GetCert.c ****     entry = (T_DirEntry *)os_file_readdir(&dirLink);    // read files one by one
 150              		.loc 1 134 0
 151 0040 B220     		movs	r0, #178
 152 0042 08A9     		add	r1, sp, #32
 153 0044 FFF7FEFF 		bl	sys_func1
 154              	.LVL16:
 135:src/GetCert.c ****     if (entry != NULL) {
 155              		.loc 1 135 0
 156 0048 0446     		mov	r4, r0
 157 004a 90B1     		cbz	r0, .L15
 136:src/GetCert.c ****       if (!memcmp((char const *)entry->s_name, filename, 6)) {  // read para files only
 158              		.loc 1 136 0
 159 004c 03A9     		add	r1, sp, #12
 160 004e 0622     		movs	r2, #6
 161 0050 FFF7FEFF 		bl	memcmp
 162              	.LVL17:
 163 0054 0028     		cmp	r0, #0
 164 0056 F3D1     		bne	.L28
 137:src/GetCert.c ****         memcpy(list[pfile_num].filename, entry->s_name, sizeof(list[pfile_num].filename));
 165              		.loc 1 137 0
 166 0058 0DF5BF63 		add	r3, sp, #1528
 167 005c 181D     		adds	r0, r3, #4
 168 005e 2146     		mov	r1, r4
 169 0060 4FF48072 		mov	r2, #256
 170 0064 FFF7FEFF 		bl	memcpy
 171              	.LVL18:
 138:src/GetCert.c ****         list[pfile_num].len = entry->d_filelen;
 172              		.loc 1 138 0
 173 0068 D4F81431 		ldr	r3, [r4, #276]
 139:src/GetCert.c ****         pfile_num++;
 174              		.loc 1 139 0
 175 006c 0124     		movs	r4, #1
 176              	.LVL19:
 138:src/GetCert.c ****         list[pfile_num].len = entry->d_filelen;
 177              		.loc 1 138 0
 178 006e CDF8F835 		str	r3, [sp, #1528]
 179              	.LVL20:
 180              	.L15:
 140:src/GetCert.c ****         break;
 141:src/GetCert.c ****       }
 142:src/GetCert.c ****     }
 143:src/GetCert.c ****   } while (entry != NULL);
 144:src/GetCert.c **** 
 145:src/GetCert.c ****   memset(filename, 0, sizeof(filename));
 181              		.loc 1 145 0
 182 0072 03A8     		add	r0, sp, #12
 183 0074 0021     		movs	r1, #0
 184 0076 1422     		movs	r2, #20
 185 0078 FFF7FEFF 		bl	memset
 186              	.LVL21:
 146:src/GetCert.c ****   if (pfile_num) {
 187              		.loc 1 146 0
ARM GAS  C:\Users\AHMED~1.ELE\AppData\Local\Temp\cc5xo6of.s 			page 7


 188 007c 002C     		cmp	r4, #0
 189 007e 68D0     		beq	.L34
 190              	.LVL22:
 147:src/GetCert.c ****     pfile_num--;
 148:src/GetCert.c ****     memcpy(filename, dirname, 1);
 191              		.loc 1 148 0
 192 0080 9DF80830 		ldrb	r3, [sp, #8]	@ zero_extendqisi2
 149:src/GetCert.c ****     strcat(filename, list[pfile_num].filename);
 193              		.loc 1 149 0
 194 0084 0DF2FC51 		addw	r1, sp, #1532
 195 0088 03A8     		add	r0, sp, #12
 148:src/GetCert.c ****     strcat(filename, list[pfile_num].filename);
 196              		.loc 1 148 0
 197 008a 8DF80C30 		strb	r3, [sp, #12]
 198              		.loc 1 149 0
 199 008e FFF7FEFF 		bl	strcat
 200              	.LVL23:
 150:src/GetCert.c ****     if ((read_filehdr = os_file_open(filename, K_O_RDONLY)) < 0) {
 201              		.loc 1 150 0
 202 0092 9620     		movs	r0, #150
 203 0094 03A9     		add	r1, sp, #12
 204 0096 0022     		movs	r2, #0
 205 0098 FFF7FEFF 		bl	sys_func2
 206              	.LVL24:
 207 009c 041E     		subs	r4, r0, #0
 208 009e 32DA     		bge	.L17
 151:src/GetCert.c ****       LongBeep();
 209              		.loc 1 151 0
 210 00a0 FFF7FEFF 		bl	LongBeep
 211              	.LVL25:
 152:src/GetCert.c ****       SprintfMW(buf, "Open %s fail!", list[pfile_num].filename);
 212              		.loc 1 152 0
 213 00a4 3F49     		ldr	r1, .L36+12
 214 00a6 0DF2FC52 		addw	r2, sp, #1532
 215 00aa 59A8     		add	r0, sp, #356
 216 00ac FFF7FEFF 		bl	sprintf
 217              	.LVL26:
 218              	.LBB2:
 153:src/GetCert.c ****       DispLineMW(buf, MW_LINE2, MW_LEFT|MW_SMFONT|MW_CLRDISP);
 219              		.loc 1 153 0
 220 00b0 59A8     		add	r0, sp, #356
 221 00b2 FFF7FEFF 		bl	strlen
 222              	.LVL27:
 223 00b6 0646     		mov	r6, r0
 224              	.LVL28:
 225 00b8 711C     		adds	r1, r6, #1
 226 00ba 9220     		movs	r0, #146
 227              	.LVL29:
 228 00bc FFF7FEFF 		bl	sys_func1
 229              	.LVL30:
 230 00c0 0546     		mov	r5, r0
 231 00c2 90B1     		cbz	r0, .L18
 232              		.loc 1 153 0 is_stmt 0 discriminator 1
 233 00c4 59A9     		add	r1, sp, #356
 234 00c6 3246     		mov	r2, r6
 235 00c8 FFF7FEFF 		bl	memcpy
 236              	.LVL31:
ARM GAS  C:\Users\AHMED~1.ELE\AppData\Local\Temp\cc5xo6of.s 			page 8


 237 00cc 0023     		movs	r3, #0
 238 00ce 2521     		movs	r1, #37
 239 00d0 AB55     		strb	r3, [r5, r6]
 240 00d2 8023     		movs	r3, #128
 241 00d4 0F20     		movs	r0, #15
 242 00d6 0093     		str	r3, [sp]
 243 00d8 2A46     		mov	r2, r5
 244 00da 4FF40073 		mov	r3, #512
 245 00de FFF7FEFF 		bl	lib_app_call
 246              	.LVL32:
 247 00e2 9420     		movs	r0, #148
 248 00e4 2946     		mov	r1, r5
 249 00e6 FFF7FEFF 		bl	sys_func1
 250              	.LVL33:
 251              	.L18:
 252              	.LBE2:
 154:src/GetCert.c ****       os_file_close(read_filehdr);
 253              		.loc 1 154 0 is_stmt 1
 254 00ea 2146     		mov	r1, r4
 155:src/GetCert.c ****       APM_WaitKey(300, 0);
 255              		.loc 1 155 0
 256 00ec 0024     		movs	r4, #0
 257              	.LVL34:
 154:src/GetCert.c ****       os_file_close(read_filehdr);
 258              		.loc 1 154 0
 259 00ee 9820     		movs	r0, #152
 260 00f0 FFF7FEFF 		bl	sys_func1
 261              	.LVL35:
 262              		.loc 1 155 0
 263 00f4 0094     		str	r4, [sp]
 264 00f6 0321     		movs	r1, #3
 265 00f8 4FF49672 		mov	r2, #300
 266 00fc 2346     		mov	r3, r4
 267 00fe 1020     		movs	r0, #16
 268 0100 FFF7FEFF 		bl	lib_app_call
 269              	.LVL36:
 270 0104 25E0     		b	.L34
 271              	.LVL37:
 272              	.L17:
 156:src/GetCert.c ****       return FALSE;
 157:src/GetCert.c ****     }
 158:src/GetCert.c ****     else {
 159:src/GetCert.c ****       /* getting file content */
 160:src/GetCert.c ****       filesize = os_file_length(read_filehdr);
 273              		.loc 1 160 0
 274 0106 2146     		mov	r1, r4
 275 0108 A220     		movs	r0, #162
 276              	.LVL38:
 277 010a FFF7FEFF 		bl	sys_func1
 278              	.LVL39:
 279 010e 0746     		mov	r7, r0
 280              	.LVL40:
 161:src/GetCert.c ****       content = (BYTE*) MallocMW(filesize);
 281              		.loc 1 161 0
 282 0110 3946     		mov	r1, r7
 283 0112 9220     		movs	r0, #146
 284              	.LVL41:
ARM GAS  C:\Users\AHMED~1.ELE\AppData\Local\Temp\cc5xo6of.s 			page 9


 285 0114 FFF7FEFF 		bl	sys_func1
 286              	.LVL42:
 162:src/GetCert.c ****       if (content == NULL) {
 287              		.loc 1 162 0
 288 0118 0546     		mov	r5, r0
 289 011a 10B9     		cbnz	r0, .L19
 163:src/GetCert.c ****         os_file_close(read_filehdr);
 290              		.loc 1 163 0
 291 011c 9820     		movs	r0, #152
 292              	.LVL43:
 293 011e 2146     		mov	r1, r4
 294 0120 15E0     		b	.L35
 295              	.LVL44:
 296              	.L19:
 164:src/GetCert.c ****         return FALSE;
 165:src/GetCert.c ****       }
 166:src/GetCert.c ****       readlen = os_file_read(read_filehdr, content, filesize);
 297              		.loc 1 166 0
 298 0122 2146     		mov	r1, r4
 299 0124 2A46     		mov	r2, r5
 300 0126 3B46     		mov	r3, r7
 301 0128 9E20     		movs	r0, #158
 302              	.LVL45:
 303 012a FFF7FEFF 		bl	sys_func3
 304              	.LVL46:
 167:src/GetCert.c ****       os_file_close(read_filehdr);
 305              		.loc 1 167 0
 306 012e 2146     		mov	r1, r4
 166:src/GetCert.c ****       os_file_close(read_filehdr);
 307              		.loc 1 166 0
 308 0130 8046     		mov	r8, r0
 309              	.LVL47:
 310              		.loc 1 167 0
 311 0132 9820     		movs	r0, #152
 312              	.LVL48:
 313 0134 FFF7FEFF 		bl	sys_func1
 314              	.LVL49:
 168:src/GetCert.c ****     }
 169:src/GetCert.c ****     
 170:src/GetCert.c ****     if (readlen != filesize) {
 315              		.loc 1 170 0
 316 0138 B845     		cmp	r8, r7
 317 013a 06D1     		bne	.L33
 171:src/GetCert.c ****       FreeMW(content);
 172:src/GetCert.c ****       return FALSE;
 173:src/GetCert.c ****     }
 174:src/GetCert.c ****     
 175:src/GetCert.c ****     //21-04-17 JC ++
 176:src/GetCert.c ****     //make sure parameter file in cert format before loading
 177:src/GetCert.c ****     if (memcmp(content, "\x30\x82", 2)) {
 318              		.loc 1 177 0
 319 013c 2846     		mov	r0, r5
 320 013e 1A49     		ldr	r1, .L36+16
 321 0140 0222     		movs	r2, #2
 322 0142 FFF7FEFF 		bl	memcmp
 323              	.LVL50:
 324 0146 0446     		mov	r4, r0
ARM GAS  C:\Users\AHMED~1.ELE\AppData\Local\Temp\cc5xo6of.s 			page 10


 325              	.LVL51:
 326 0148 28B1     		cbz	r0, .L21
 327              	.L33:
 178:src/GetCert.c ****       FreeMW(content);
 328              		.loc 1 178 0
 329 014a 9420     		movs	r0, #148
 330 014c 2946     		mov	r1, r5
 331              	.LVL52:
 332              	.L35:
 333 014e FFF7FEFF 		bl	sys_func1
 334              	.LVL53:
 335              	.L34:
 179:src/GetCert.c ****       return FALSE;
 336              		.loc 1 179 0
 337 0152 0020     		movs	r0, #0
 338 0154 1CE0     		b	.L9
 339              	.LVL54:
 340              	.L21:
 180:src/GetCert.c ****     }
 181:src/GetCert.c ****     //21-04-17 JC --
 182:src/GetCert.c **** 
 183:src/GetCert.c ****     memset(aptr, 0, sizeof(struct MW_KEY));
 341              		.loc 1 183 0
 342 0156 2146     		mov	r1, r4
 343 0158 4FF40372 		mov	r2, #524
 344 015c 3046     		mov	r0, r6
 345 015e FFF7FEFF 		bl	memset
 346              	.LVL55:
 184:src/GetCert.c ****     aptr->d_key_idx = 0xFF;              // extract cert index
 347              		.loc 1 184 0
 348 0162 FF23     		movs	r3, #255
 185:src/GetCert.c ****     result = x509_parse_cert(content, filesize, &cert);
 349              		.loc 1 185 0
 350 0164 2846     		mov	r0, r5
 184:src/GetCert.c ****     aptr->d_key_idx = 0xFF;              // extract cert index
 351              		.loc 1 184 0
 352 0166 C6F80832 		str	r3, [r6, #520]
 353              		.loc 1 185 0
 354 016a 4146     		mov	r1, r8
 355 016c 59AA     		add	r2, sp, #356
 356 016e FFF7FEFF 		bl	x509_parse_cert
 357              	.LVL56:
 186:src/GetCert.c ****     if (result != K_X509Ok) {
 358              		.loc 1 186 0
 359 0172 10B1     		cbz	r0, .L22
 187:src/GetCert.c ****       LongBeep();
 360              		.loc 1 187 0
 361 0174 FFF7FEFF 		bl	LongBeep
 362              	.LVL57:
 363 0178 E7E7     		b	.L33
 364              	.LVL58:
 365              	.L22:
 188:src/GetCert.c ****       //SprintfMW(buf, "X509 Key Parse Err: %d", result);
 189:src/GetCert.c ****       //DispLineMW(buf, MW_LINE2, MW_LEFT|MW_SMFONT|MW_CLRDISP);
 190:src/GetCert.c ****       FreeMW(content);
 191:src/GetCert.c ****       return FALSE;
 192:src/GetCert.c ****     }
ARM GAS  C:\Users\AHMED~1.ELE\AppData\Local\Temp\cc5xo6of.s 			page 11


 193:src/GetCert.c ****     memcpy((T_KEY *)aptr, &cert.s_public_key, sizeof(T_KEY));
 366              		.loc 1 193 0
 367 017a FBA9     		add	r1, sp, #1004
 368 017c 4FF40372 		mov	r2, #524
 369 0180 3046     		mov	r0, r6
 370              	.LVL59:
 371 0182 FFF7FEFF 		bl	memcpy
 372              	.LVL60:
 194:src/GetCert.c ****     FreeMW(content);
 373              		.loc 1 194 0
 374 0186 9420     		movs	r0, #148
 375 0188 2946     		mov	r1, r5
 376 018a FFF7FEFF 		bl	sys_func1
 377              	.LVL61:
 195:src/GetCert.c ****     return TRUE;
 378              		.loc 1 195 0
 379 018e 0120     		movs	r0, #1
 380              	.LVL62:
 381              	.L9:
 196:src/GetCert.c ****   }
 197:src/GetCert.c ****   return FALSE;
 198:src/GetCert.c **** }
 382              		.loc 1 198 0
 383 0190 0DF5815D 		add	sp, sp, #4128
 384              		.cfi_def_cfa_offset 24
 385              		@ sp needed
 386 0194 BDE8F081 		pop	{r4, r5, r6, r7, r8, pc}
 387              	.L37:
 388              		.align	2
 389              	.L36:
 390 0198 00000000 		.word	.LANCHOR0
 391 019c 07000000 		.word	.LANCHOR0+7
 392 01a0 0E000000 		.word	.LANCHOR0+14
 393 01a4 00000000 		.word	.LC0
 394 01a8 0E000000 		.word	.LC1
 395              		.cfi_endproc
 396              	.LFE1:
 397              		.size	GetKey, .-GetKey
 398              		.section	.text.GetClientCert,"ax",%progbits
 399              		.align	1
 400              		.global	GetClientCert
 401              		.thumb
 402              		.thumb_func
 403              		.type	GetClientCert, %function
 404              	GetClientCert:
 405              	.LFB2:
 199:src/GetCert.c **** 
 200:src/GetCert.c **** //*****************************************************************************
 201:src/GetCert.c **** //  Function        : GetClientCert
 202:src/GetCert.c **** //  Description     : Get ClientCert from file
 203:src/GetCert.c **** //  Input           : aptr:  Client Cert pointer
 204:src/GetCert.c **** //  Return          : N/A
 205:src/GetCert.c **** //  Note            : N/A
 206:src/GetCert.c **** //  Globals Changed : N/A
 207:src/GetCert.c **** //*****************************************************************************
 208:src/GetCert.c **** BOOLEAN GetClientCert(T_CLIENT_CERT *aptr)
 209:src/GetCert.c **** {
ARM GAS  C:\Users\AHMED~1.ELE\AppData\Local\Temp\cc5xo6of.s 			page 12


 406              		.loc 1 209 0
 407              		.cfi_startproc
 408              		@ args = 0, pretend = 0, frame = 2984
 409              		@ frame_needed = 0, uses_anonymous_args = 0
 410              	.LVL63:
 411 0000 2DE9F043 		push	{r4, r5, r6, r7, r8, r9, lr}
 412              		.cfi_def_cfa_offset 28
 413              		.cfi_offset 4, -28
 414              		.cfi_offset 5, -24
 415              		.cfi_offset 6, -20
 416              		.cfi_offset 7, -16
 417              		.cfi_offset 8, -12
 418              		.cfi_offset 9, -8
 419              		.cfi_offset 14, -4
 210:src/GetCert.c ****   T_Dir dirLink;
 211:src/GetCert.c ****   T_DirEntry *entry;
 212:src/GetCert.c ****   struct FILELIST list[10];
 213:src/GetCert.c ****   BYTE dirname[] = "/";
 420              		.loc 1 213 0
 421 0004 2F23     		movs	r3, #47
 209:src/GetCert.c ****   T_Dir dirLink;
 422              		.loc 1 209 0
 423 0006 ADF6B43D 		subw	sp, sp, #2996
 424              		.cfi_def_cfa_offset 3024
 214:src/GetCert.c ****   BYTE buf[32];
 215:src/GetCert.c ****   
 216:src/GetCert.c ****   int i;
 217:src/GetCert.c ****   BYTE *content;
 218:src/GetCert.c ****   BYTE filename[20];        // stored filename to be read locally
 219:src/GetCert.c ****   int pfile_num = 0;
 220:src/GetCert.c ****   int filesize = 0;
 221:src/GetCert.c ****   int readlen = 0;
 222:src/GetCert.c ****   int read_filehdr = -1;
 223:src/GetCert.c ****   
 224:src/GetCert.c ****   memset(filename, 0, sizeof(filename));
 425              		.loc 1 224 0
 426 000a 0021     		movs	r1, #0
 427 000c 1422     		movs	r2, #20
 209:src/GetCert.c ****   T_Dir dirLink;
 428              		.loc 1 209 0
 429 000e 0646     		mov	r6, r0
 430              		.loc 1 224 0
 431 0010 04A8     		add	r0, sp, #16
 432              	.LVL64:
 213:src/GetCert.c ****   BYTE buf[32];
 433              		.loc 1 213 0
 434 0012 ADF80C30 		strh	r3, [sp, #12]	@ movhi
 435              	.LVL65:
 436              		.loc 1 224 0
 437 0016 FFF7FEFF 		bl	memset
 438              	.LVL66:
 225:src/GetCert.c ****   
 226:src/GetCert.c ****   if (os_file_init_search(dirname, &dirLink) < 0)        // read number of files
 439              		.loc 1 226 0
 440 001a B120     		movs	r0, #177
 441 001c 03A9     		add	r1, sp, #12
 442 001e 11AA     		add	r2, sp, #68
ARM GAS  C:\Users\AHMED~1.ELE\AppData\Local\Temp\cc5xo6of.s 			page 13


 443 0020 FFF7FEFF 		bl	sys_func2
 444              	.LVL67:
 445 0024 0028     		cmp	r0, #0
 446 0026 51DB     		blt	.L58
 447              	.L54:
 227:src/GetCert.c ****     return FALSE;
 228:src/GetCert.c **** 
 229:src/GetCert.c ****   do {
 230:src/GetCert.c ****     entry = (T_DirEntry *)os_file_readdir(&dirLink);    // read files one by one
 448              		.loc 1 230 0
 449 0028 B220     		movs	r0, #178
 450 002a 11A9     		add	r1, sp, #68
 451 002c FFF7FEFF 		bl	sys_func1
 452              	.LVL68:
 231:src/GetCert.c ****     if (entry != NULL) {
 453              		.loc 1 231 0
 454 0030 0446     		mov	r4, r0
 455 0032 0028     		cmp	r0, #0
 456 0034 4AD0     		beq	.L58
 232:src/GetCert.c ****       if (!memcmp((char const *)entry->s_name, ClientCert, 6)) {  // read para files only
 457              		.loc 1 232 0
 458 0036 4649     		ldr	r1, .L62
 459 0038 0622     		movs	r2, #6
 460 003a FFF7FEFF 		bl	memcmp
 461              	.LVL69:
 462 003e 0746     		mov	r7, r0
 463 0040 0028     		cmp	r0, #0
 464 0042 F1D1     		bne	.L54
 233:src/GetCert.c ****         memcpy(list[pfile_num].filename, entry->s_name, sizeof(list[pfile_num].filename));
 465              		.loc 1 233 0
 466 0044 63AB     		add	r3, sp, #396
 467 0046 2146     		mov	r1, r4
 468 0048 1846     		mov	r0, r3
 469 004a 4FF48072 		mov	r2, #256
 470 004e FFF7FEFF 		bl	memcpy
 471              	.LVL70:
 234:src/GetCert.c ****         list[pfile_num].len = entry->d_filelen;
 472              		.loc 1 234 0
 473 0052 D4F81421 		ldr	r2, [r4, #276]
 474 0056 6292     		str	r2, [sp, #392]
 233:src/GetCert.c ****         memcpy(list[pfile_num].filename, entry->s_name, sizeof(list[pfile_num].filename));
 475              		.loc 1 233 0
 476 0058 0346     		mov	r3, r0
 235:src/GetCert.c ****         pfile_num++;
 236:src/GetCert.c ****         break;
 237:src/GetCert.c ****       }
 238:src/GetCert.c ****     }
 239:src/GetCert.c ****   } while (entry != NULL);
 240:src/GetCert.c **** 
 241:src/GetCert.c ****   if (pfile_num)
 242:src/GetCert.c ****   {
 243:src/GetCert.c ****     pfile_num--;
 244:src/GetCert.c ****     memcpy(filename, dirname, 1);
 477              		.loc 1 244 0
 478 005a 9DF80C20 		ldrb	r2, [sp, #12]	@ zero_extendqisi2
 245:src/GetCert.c ****     strcat(filename, list[pfile_num].filename);
 479              		.loc 1 245 0
ARM GAS  C:\Users\AHMED~1.ELE\AppData\Local\Temp\cc5xo6of.s 			page 14


 480 005e 1946     		mov	r1, r3
 481 0060 04A8     		add	r0, sp, #16
 244:src/GetCert.c ****     strcat(filename, list[pfile_num].filename);
 482              		.loc 1 244 0
 483 0062 8DF81020 		strb	r2, [sp, #16]
 484              		.loc 1 245 0
 485 0066 FFF7FEFF 		bl	strcat
 486              	.LVL71:
 246:src/GetCert.c ****     if ((read_filehdr = os_file_open(filename, K_O_RDONLY)) < 0)
 487              		.loc 1 246 0
 488 006a 9620     		movs	r0, #150
 489 006c 04A9     		add	r1, sp, #16
 490 006e 3A46     		mov	r2, r7
 491 0070 FFF7FEFF 		bl	sys_func2
 492              	.LVL72:
 493 0074 041E     		subs	r4, r0, #0
 494              	.LVL73:
 495 0076 2BDA     		bge	.L42
 247:src/GetCert.c ****     {
 248:src/GetCert.c ****       SprintfMW(buf, "%s open fail!", ClientCert);
 496              		.loc 1 248 0
 497 0078 3649     		ldr	r1, .L62+4
 498 007a 354A     		ldr	r2, .L62
 499 007c 09A8     		add	r0, sp, #36
 500              	.LVL74:
 501 007e FFF7FEFF 		bl	sprintf
 502              	.LVL75:
 503              	.LBB3:
 249:src/GetCert.c ****       DispLineMW(buf, MW_LINE5, MW_CLRDISP|MW_CENTER|MW_SPFONT);
 504              		.loc 1 249 0
 505 0082 09A8     		add	r0, sp, #36
 506 0084 FFF7FEFF 		bl	strlen
 507              	.LVL76:
 508 0088 0646     		mov	r6, r0
 509              	.LVL77:
 510 008a 711C     		adds	r1, r6, #1
 511 008c 9220     		movs	r0, #146
 512              	.LVL78:
 513 008e FFF7FEFF 		bl	sys_func1
 514              	.LVL79:
 515 0092 0546     		mov	r5, r0
 516 0094 90B1     		cbz	r0, .L43
 517              		.loc 1 249 0 is_stmt 0 discriminator 1
 518 0096 09A9     		add	r1, sp, #36
 519 0098 3246     		mov	r2, r6
 520 009a FFF7FEFF 		bl	memcpy
 521              	.LVL80:
 522 009e 42F28203 		movw	r3, #8322
 523 00a2 AF55     		strb	r7, [r5, r6]
 524 00a4 2521     		movs	r1, #37
 525 00a6 0093     		str	r3, [sp]
 526 00a8 0F20     		movs	r0, #15
 527 00aa 2A46     		mov	r2, r5
 528 00ac 4FF4A063 		mov	r3, #1280
 529 00b0 FFF7FEFF 		bl	lib_app_call
 530              	.LVL81:
 531 00b4 9420     		movs	r0, #148
ARM GAS  C:\Users\AHMED~1.ELE\AppData\Local\Temp\cc5xo6of.s 			page 15


 532 00b6 2946     		mov	r1, r5
 533 00b8 FFF7FEFF 		bl	sys_func1
 534              	.LVL82:
 535              	.L43:
 536              	.LBE3:
 250:src/GetCert.c ****       os_file_close(read_filehdr);
 537              		.loc 1 250 0 is_stmt 1
 538 00bc 9820     		movs	r0, #152
 539 00be 2146     		mov	r1, r4
 540 00c0 FFF7FEFF 		bl	sys_func1
 541              	.LVL83:
 251:src/GetCert.c ****       WaitKey(KBD_TIMEOUT);
 542              		.loc 1 251 0
 543 00c4 42F22830 		movw	r0, #9000
 544 00c8 FFF7FEFF 		bl	WaitKey
 545              	.LVL84:
 546              	.L58:
 252:src/GetCert.c ****       return FALSE;
 547              		.loc 1 252 0
 548 00cc 0020     		movs	r0, #0
 549 00ce 3AE0     		b	.L40
 550              	.LVL85:
 551              	.L42:
 253:src/GetCert.c ****     }
 254:src/GetCert.c ****     else
 255:src/GetCert.c ****     {
 256:src/GetCert.c ****       /* getting file content */
 257:src/GetCert.c ****       filesize = os_file_length(read_filehdr);
 552              		.loc 1 257 0
 553 00d0 2146     		mov	r1, r4
 554 00d2 A220     		movs	r0, #162
 555              	.LVL86:
 556 00d4 FFF7FEFF 		bl	sys_func1
 557              	.LVL87:
 558 00d8 8146     		mov	r9, r0
 559              	.LVL88:
 258:src/GetCert.c ****       content = (BYTE*) MallocMW(filesize);
 560              		.loc 1 258 0
 561 00da 4946     		mov	r1, r9
 562 00dc 9220     		movs	r0, #146
 563              	.LVL89:
 564 00de FFF7FEFF 		bl	sys_func1
 565              	.LVL90:
 259:src/GetCert.c ****       if (content == NULL) {
 566              		.loc 1 259 0
 567 00e2 0546     		mov	r5, r0
 568 00e4 10B9     		cbnz	r0, .L44
 260:src/GetCert.c ****         os_file_close(read_filehdr);
 569              		.loc 1 260 0
 570 00e6 9820     		movs	r0, #152
 571              	.LVL91:
 572 00e8 2146     		mov	r1, r4
 573 00ea 17E0     		b	.L60
 574              	.LVL92:
 575              	.L44:
 261:src/GetCert.c ****         return FALSE;
 262:src/GetCert.c ****       }
ARM GAS  C:\Users\AHMED~1.ELE\AppData\Local\Temp\cc5xo6of.s 			page 16


 263:src/GetCert.c ****       readlen = os_file_read(read_filehdr, content, filesize);
 576              		.loc 1 263 0
 577 00ec 2146     		mov	r1, r4
 578 00ee 2A46     		mov	r2, r5
 579 00f0 4B46     		mov	r3, r9
 580 00f2 9E20     		movs	r0, #158
 581              	.LVL93:
 582 00f4 FFF7FEFF 		bl	sys_func3
 583              	.LVL94:
 264:src/GetCert.c ****       os_file_close(read_filehdr);
 584              		.loc 1 264 0
 585 00f8 2146     		mov	r1, r4
 263:src/GetCert.c ****       os_file_close(read_filehdr);
 586              		.loc 1 263 0
 587 00fa 8046     		mov	r8, r0
 588              	.LVL95:
 589              		.loc 1 264 0
 590 00fc 9820     		movs	r0, #152
 591              	.LVL96:
 592 00fe FFF7FEFF 		bl	sys_func1
 593              	.LVL97:
 265:src/GetCert.c ****     }
 266:src/GetCert.c ****     
 267:src/GetCert.c ****     if (readlen != filesize) {
 594              		.loc 1 267 0
 595 0102 C845     		cmp	r8, r9
 596 0104 08D1     		bne	.L59
 268:src/GetCert.c ****       FreeMW(content);
 269:src/GetCert.c ****       return FALSE;
 270:src/GetCert.c ****     }
 271:src/GetCert.c ****     
 272:src/GetCert.c ****     //21-04-17 JC ++
 273:src/GetCert.c ****     //make sure parameter file in cert format before loading
 274:src/GetCert.c ****     if (memcmp(content, "\x30\x82", 2)) {
 597              		.loc 1 274 0
 598 0106 2846     		mov	r0, r5
 599 0108 1349     		ldr	r1, .L62+8
 600 010a 0222     		movs	r2, #2
 601 010c FFF7FEFF 		bl	memcmp
 602              	.LVL98:
 603 0110 10B9     		cbnz	r0, .L59
 275:src/GetCert.c ****       FreeMW(content);
 276:src/GetCert.c ****       return FALSE;
 277:src/GetCert.c ****     }
 278:src/GetCert.c ****     
 279:src/GetCert.c ****     //prevent client cert buffer overflow
 280:src/GetCert.c ****     if (filesize > K_MaxClientCertSize) {
 604              		.loc 1 280 0
 605 0112 B8F5C05F 		cmp	r8, #6144
 606 0116 04DD     		ble	.L47
 607              	.L59:
 281:src/GetCert.c ****       FreeMW(content);
 608              		.loc 1 281 0
 609 0118 9420     		movs	r0, #148
 610 011a 2946     		mov	r1, r5
 611              	.LVL99:
 612              	.L60:
ARM GAS  C:\Users\AHMED~1.ELE\AppData\Local\Temp\cc5xo6of.s 			page 17


 613 011c FFF7FEFF 		bl	sys_func1
 614              	.LVL100:
 615 0120 D4E7     		b	.L58
 616              	.LVL101:
 617              	.L47:
 282:src/GetCert.c ****       return FALSE;
 283:src/GetCert.c ****     }
 284:src/GetCert.c ****     //21-04-17 JC --
 285:src/GetCert.c ****     
 286:src/GetCert.c ****     /* getting data */
 287:src/GetCert.c ****     aptr->d_cert_idx = 0xFF;             // extract cert index
 618              		.loc 1 287 0
 619 0122 FF23     		movs	r3, #255
 288:src/GetCert.c ****     aptr->d_size = filesize;             // extract cert size
 620              		.loc 1 288 0
 621 0124 86E80801 		stmia	r6, {r3, r8}
 622              	.LVL102:
 623 0128 0736     		adds	r6, r6, #7
 624              	.LVL103:
 289:src/GetCert.c ****     for (i=0; i<filesize; i++)           // extract cert content
 625              		.loc 1 289 0
 626 012a 2B46     		mov	r3, r5
 627              	.LVL104:
 628              	.L48:
 629 012c 5A1B     		subs	r2, r3, r5
 630              	.LVL105:
 631              		.loc 1 289 0 is_stmt 0 discriminator 1
 632 012e 4245     		cmp	r2, r8
 633 0130 04DA     		bge	.L61
 290:src/GetCert.c ****     {
 291:src/GetCert.c ****       aptr->s_cert[i] = content[i];
 634              		.loc 1 291 0 is_stmt 1 discriminator 3
 635 0132 13F8012B 		ldrb	r2, [r3], #1	@ zero_extendqisi2
 636              	.LVL106:
 637 0136 06F8012F 		strb	r2, [r6, #1]!
 638              	.LVL107:
 639 013a F7E7     		b	.L48
 640              	.LVL108:
 641              	.L61:
 292:src/GetCert.c ****     }
 293:src/GetCert.c ****     
 294:src/GetCert.c ****     FreeMW(content);
 642              		.loc 1 294 0
 643 013c 9420     		movs	r0, #148
 644 013e 2946     		mov	r1, r5
 645 0140 FFF7FEFF 		bl	sys_func1
 646              	.LVL109:
 295:src/GetCert.c ****     return TRUE;
 647              		.loc 1 295 0
 648 0144 0120     		movs	r0, #1
 649              	.LVL110:
 650              	.L40:
 296:src/GetCert.c ****   }
 297:src/GetCert.c ****   return FALSE;
 298:src/GetCert.c **** }
 651              		.loc 1 298 0
 652 0146 0DF6B43D 		addw	sp, sp, #2996
ARM GAS  C:\Users\AHMED~1.ELE\AppData\Local\Temp\cc5xo6of.s 			page 18


 653              		.cfi_def_cfa_offset 28
 654              		@ sp needed
 655 014a BDE8F083 		pop	{r4, r5, r6, r7, r8, r9, pc}
 656              	.L63:
 657 014e 00BF     		.align	2
 658              	.L62:
 659 0150 15000000 		.word	.LANCHOR0+21
 660 0154 11000000 		.word	.LC2
 661 0158 0E000000 		.word	.LC1
 662              		.cfi_endproc
 663              	.LFE2:
 664              		.size	GetClientCert, .-GetClientCert
 665              		.section	.text.GetClientPriKey,"ax",%progbits
 666              		.align	1
 667              		.global	GetClientPriKey
 668              		.thumb
 669              		.thumb_func
 670              		.type	GetClientPriKey, %function
 671              	GetClientPriKey:
 672              	.LFB3:
 299:src/GetCert.c **** 
 300:src/GetCert.c **** //*****************************************************************************
 301:src/GetCert.c **** //  Function        : GetClientPriKey
 302:src/GetCert.c **** //  Description     : Get Client Private Key from file
 303:src/GetCert.c **** //  Input           : aptr:  Private Key pointer
 304:src/GetCert.c **** //  Return          : N/A
 305:src/GetCert.c **** //  Note            : N/A
 306:src/GetCert.c **** //  Globals Changed : N/A
 307:src/GetCert.c **** //*****************************************************************************
 308:src/GetCert.c **** BOOLEAN GetClientPriKey(T_RSA_PRIVATE_KEY *aptr)
 309:src/GetCert.c **** {
 673              		.loc 1 309 0
 674              		.cfi_startproc
 675              		@ args = 0, pretend = 0, frame = 3472
 676              		@ frame_needed = 0, uses_anonymous_args = 0
 677              	.LVL111:
 678 0000 2DE9F043 		push	{r4, r5, r6, r7, r8, r9, lr}
 679              		.cfi_def_cfa_offset 28
 680              		.cfi_offset 4, -28
 681              		.cfi_offset 5, -24
 682              		.cfi_offset 6, -20
 683              		.cfi_offset 7, -16
 684              		.cfi_offset 8, -12
 685              		.cfi_offset 9, -8
 686              		.cfi_offset 14, -4
 310:src/GetCert.c ****   T_Dir dirLink;
 311:src/GetCert.c ****   T_DirEntry *entry;
 312:src/GetCert.c ****   struct FILELIST list[10];
 313:src/GetCert.c ****   BYTE dirname[] = "/";
 687              		.loc 1 313 0
 688 0004 2F23     		movs	r3, #47
 309:src/GetCert.c ****   T_Dir dirLink;
 689              		.loc 1 309 0
 690 0006 ADF69C5D 		subw	sp, sp, #3484
 691              		.cfi_def_cfa_offset 3512
 314:src/GetCert.c ****   BYTE buf[32];
 315:src/GetCert.c ****   
ARM GAS  C:\Users\AHMED~1.ELE\AppData\Local\Temp\cc5xo6of.s 			page 19


 316:src/GetCert.c ****   T_KEY pubKey;
 317:src/GetCert.c ****   int result;
 318:src/GetCert.c ****   BYTE *content;
 319:src/GetCert.c ****   BYTE filename[20];        // stored filename to be read locally
 320:src/GetCert.c ****   int pfile_num = 0;
 321:src/GetCert.c ****   int filesize = 0;
 322:src/GetCert.c ****   int readlen = 0;
 323:src/GetCert.c ****   int read_filehdr = -1;
 324:src/GetCert.c ****   
 325:src/GetCert.c ****   memset(filename, 0, sizeof(filename));
 692              		.loc 1 325 0
 693 000a 0021     		movs	r1, #0
 694 000c 1422     		movs	r2, #20
 309:src/GetCert.c ****   T_Dir dirLink;
 695              		.loc 1 309 0
 696 000e 8046     		mov	r8, r0
 697              		.loc 1 325 0
 698 0010 03A8     		add	r0, sp, #12
 699              	.LVL112:
 313:src/GetCert.c ****   BYTE buf[32];
 700              		.loc 1 313 0
 701 0012 ADF80830 		strh	r3, [sp, #8]	@ movhi
 702              	.LVL113:
 703              		.loc 1 325 0
 704 0016 FFF7FEFF 		bl	memset
 705              	.LVL114:
 326:src/GetCert.c ****   
 327:src/GetCert.c ****   if (os_file_init_search(dirname, &dirLink) < 0)        // read number of files
 706              		.loc 1 327 0
 707 001a B120     		movs	r0, #177
 708 001c 02A9     		add	r1, sp, #8
 709 001e 08AA     		add	r2, sp, #32
 710 0020 FFF7FEFF 		bl	sys_func2
 711              	.LVL115:
 712 0024 0028     		cmp	r0, #0
 713 0026 51DB     		blt	.L82
 714              	.L78:
 328:src/GetCert.c ****     return FALSE;
 329:src/GetCert.c **** 
 330:src/GetCert.c ****   do {
 331:src/GetCert.c ****     entry = (T_DirEntry *)os_file_readdir(&dirLink);    // read files one by one
 715              		.loc 1 331 0
 716 0028 B220     		movs	r0, #178
 717 002a 08A9     		add	r1, sp, #32
 718 002c FFF7FEFF 		bl	sys_func1
 719              	.LVL116:
 332:src/GetCert.c ****     if (entry != NULL) {
 720              		.loc 1 332 0
 721 0030 0446     		mov	r4, r0
 722 0032 0028     		cmp	r0, #0
 723 0034 4AD0     		beq	.L82
 333:src/GetCert.c ****       if (!memcmp((char const *)entry->s_name, ClientPriKey, 6)) {  // read para files only
 724              		.loc 1 333 0
 725 0036 4349     		ldr	r1, .L85
 726 0038 0622     		movs	r2, #6
 727 003a FFF7FEFF 		bl	memcmp
 728              	.LVL117:
ARM GAS  C:\Users\AHMED~1.ELE\AppData\Local\Temp\cc5xo6of.s 			page 20


 729 003e 0646     		mov	r6, r0
 730 0040 0028     		cmp	r0, #0
 731 0042 F1D1     		bne	.L78
 334:src/GetCert.c ****         memcpy(list[pfile_num].filename, entry->s_name, sizeof(list[pfile_num].filename));
 732              		.loc 1 334 0
 733 0044 DDAB     		add	r3, sp, #884
 734 0046 2146     		mov	r1, r4
 735 0048 1846     		mov	r0, r3
 736 004a 4FF48072 		mov	r2, #256
 737 004e FFF7FEFF 		bl	memcpy
 738              	.LVL118:
 335:src/GetCert.c ****         list[pfile_num].len = entry->d_filelen;
 739              		.loc 1 335 0
 740 0052 D4F81421 		ldr	r2, [r4, #276]
 741 0056 DC92     		str	r2, [sp, #880]
 334:src/GetCert.c ****         memcpy(list[pfile_num].filename, entry->s_name, sizeof(list[pfile_num].filename));
 742              		.loc 1 334 0
 743 0058 0346     		mov	r3, r0
 336:src/GetCert.c ****         pfile_num++;
 337:src/GetCert.c ****         break;
 338:src/GetCert.c ****       }
 339:src/GetCert.c ****     }
 340:src/GetCert.c ****   } while (entry != NULL);
 341:src/GetCert.c **** 
 342:src/GetCert.c ****   if (pfile_num)
 343:src/GetCert.c ****   {
 344:src/GetCert.c ****     pfile_num--;
 345:src/GetCert.c ****     memcpy(filename, dirname, 1);
 744              		.loc 1 345 0
 745 005a 9DF80820 		ldrb	r2, [sp, #8]	@ zero_extendqisi2
 346:src/GetCert.c ****     strcat(filename, list[pfile_num].filename);
 746              		.loc 1 346 0
 747 005e 1946     		mov	r1, r3
 748 0060 03A8     		add	r0, sp, #12
 345:src/GetCert.c ****     strcat(filename, list[pfile_num].filename);
 749              		.loc 1 345 0
 750 0062 8DF80C20 		strb	r2, [sp, #12]
 751              		.loc 1 346 0
 752 0066 FFF7FEFF 		bl	strcat
 753              	.LVL119:
 347:src/GetCert.c ****     if ((read_filehdr = os_file_open(filename, K_O_RDONLY)) < 0)
 754              		.loc 1 347 0
 755 006a 9620     		movs	r0, #150
 756 006c 03A9     		add	r1, sp, #12
 757 006e 3246     		mov	r2, r6
 758 0070 FFF7FEFF 		bl	sys_func2
 759              	.LVL120:
 760 0074 041E     		subs	r4, r0, #0
 761              	.LVL121:
 762 0076 2BDA     		bge	.L68
 348:src/GetCert.c ****     {
 349:src/GetCert.c ****       SprintfMW(buf, "%s open fail!", ClientPriKey);
 763              		.loc 1 349 0
 764 0078 3349     		ldr	r1, .L85+4
 765 007a 324A     		ldr	r2, .L85
 766 007c 59A8     		add	r0, sp, #356
 767              	.LVL122:
ARM GAS  C:\Users\AHMED~1.ELE\AppData\Local\Temp\cc5xo6of.s 			page 21


 768 007e FFF7FEFF 		bl	sprintf
 769              	.LVL123:
 770              	.LBB4:
 350:src/GetCert.c ****       DispLineMW(buf, MW_LINE5, MW_CLRDISP|MW_CENTER|MW_SPFONT);
 771              		.loc 1 350 0
 772 0082 59A8     		add	r0, sp, #356
 773 0084 FFF7FEFF 		bl	strlen
 774              	.LVL124:
 775 0088 0746     		mov	r7, r0
 776              	.LVL125:
 777 008a 791C     		adds	r1, r7, #1
 778 008c 9220     		movs	r0, #146
 779              	.LVL126:
 780 008e FFF7FEFF 		bl	sys_func1
 781              	.LVL127:
 782 0092 0546     		mov	r5, r0
 783 0094 90B1     		cbz	r0, .L69
 784              		.loc 1 350 0 is_stmt 0 discriminator 1
 785 0096 59A9     		add	r1, sp, #356
 786 0098 3A46     		mov	r2, r7
 787 009a FFF7FEFF 		bl	memcpy
 788              	.LVL128:
 789 009e 42F28203 		movw	r3, #8322
 790 00a2 EE55     		strb	r6, [r5, r7]
 791 00a4 2521     		movs	r1, #37
 792 00a6 0093     		str	r3, [sp]
 793 00a8 0F20     		movs	r0, #15
 794 00aa 2A46     		mov	r2, r5
 795 00ac 4FF4A063 		mov	r3, #1280
 796 00b0 FFF7FEFF 		bl	lib_app_call
 797              	.LVL129:
 798 00b4 9420     		movs	r0, #148
 799 00b6 2946     		mov	r1, r5
 800 00b8 FFF7FEFF 		bl	sys_func1
 801              	.LVL130:
 802              	.L69:
 803              	.LBE4:
 351:src/GetCert.c ****       os_file_close(read_filehdr);
 804              		.loc 1 351 0 is_stmt 1
 805 00bc 9820     		movs	r0, #152
 806 00be 2146     		mov	r1, r4
 807 00c0 FFF7FEFF 		bl	sys_func1
 808              	.LVL131:
 352:src/GetCert.c ****       WaitKey(KBD_TIMEOUT);
 809              		.loc 1 352 0
 810 00c4 42F22830 		movw	r0, #9000
 811 00c8 FFF7FEFF 		bl	WaitKey
 812              	.LVL132:
 813              	.L82:
 353:src/GetCert.c ****       return FALSE;
 814              		.loc 1 353 0
 815 00cc 0020     		movs	r0, #0
 816 00ce 34E0     		b	.L66
 817              	.LVL133:
 818              	.L68:
 354:src/GetCert.c ****     }
 355:src/GetCert.c ****     else
ARM GAS  C:\Users\AHMED~1.ELE\AppData\Local\Temp\cc5xo6of.s 			page 22


 356:src/GetCert.c ****     {
 357:src/GetCert.c ****       /* getting file content */
 358:src/GetCert.c ****       filesize = os_file_length(read_filehdr);
 819              		.loc 1 358 0
 820 00d0 2146     		mov	r1, r4
 821 00d2 A220     		movs	r0, #162
 822              	.LVL134:
 823 00d4 FFF7FEFF 		bl	sys_func1
 824              	.LVL135:
 825 00d8 0746     		mov	r7, r0
 826              	.LVL136:
 359:src/GetCert.c ****       content = (BYTE*) MallocMW(filesize);
 827              		.loc 1 359 0
 828 00da 3946     		mov	r1, r7
 829 00dc 9220     		movs	r0, #146
 830              	.LVL137:
 831 00de FFF7FEFF 		bl	sys_func1
 832              	.LVL138:
 360:src/GetCert.c ****       if (content == NULL) {
 833              		.loc 1 360 0
 834 00e2 0546     		mov	r5, r0
 835 00e4 10B9     		cbnz	r0, .L70
 361:src/GetCert.c ****         os_file_close(read_filehdr);
 836              		.loc 1 361 0
 837 00e6 9820     		movs	r0, #152
 838              	.LVL139:
 839 00e8 2146     		mov	r1, r4
 840 00ea 1EE0     		b	.L84
 841              	.LVL140:
 842              	.L70:
 362:src/GetCert.c ****         return FALSE;
 363:src/GetCert.c ****       }
 364:src/GetCert.c ****       readlen = os_file_read(read_filehdr, content, filesize);
 843              		.loc 1 364 0
 844 00ec 2146     		mov	r1, r4
 845 00ee 2A46     		mov	r2, r5
 846 00f0 3B46     		mov	r3, r7
 847 00f2 9E20     		movs	r0, #158
 848              	.LVL141:
 849 00f4 FFF7FEFF 		bl	sys_func3
 850              	.LVL142:
 365:src/GetCert.c ****       os_file_close(read_filehdr);
 851              		.loc 1 365 0
 852 00f8 2146     		mov	r1, r4
 364:src/GetCert.c ****       os_file_close(read_filehdr);
 853              		.loc 1 364 0
 854 00fa 8146     		mov	r9, r0
 855              	.LVL143:
 856              		.loc 1 365 0
 857 00fc 9820     		movs	r0, #152
 858              	.LVL144:
 859 00fe FFF7FEFF 		bl	sys_func1
 860              	.LVL145:
 366:src/GetCert.c ****     }
 367:src/GetCert.c ****     
 368:src/GetCert.c ****     if (readlen != filesize) {
 861              		.loc 1 368 0
ARM GAS  C:\Users\AHMED~1.ELE\AppData\Local\Temp\cc5xo6of.s 			page 23


 862 0102 B945     		cmp	r9, r7
 863 0104 0FD1     		bne	.L83
 369:src/GetCert.c ****       FreeMW(content);
 370:src/GetCert.c ****       return FALSE;
 371:src/GetCert.c ****     }
 372:src/GetCert.c ****     
 373:src/GetCert.c ****     //21-04-17 JC ++
 374:src/GetCert.c ****     //make sure parameter file in cert format before loading
 375:src/GetCert.c ****     if (memcmp(content, "\x30\x82", 2)) {
 864              		.loc 1 375 0
 865 0106 2846     		mov	r0, r5
 866 0108 1049     		ldr	r1, .L85+8
 867 010a 0222     		movs	r2, #2
 868 010c FFF7FEFF 		bl	memcmp
 869              	.LVL146:
 870 0110 48B9     		cbnz	r0, .L83
 376:src/GetCert.c ****       FreeMW(content);
 377:src/GetCert.c ****       return FALSE;
 378:src/GetCert.c ****     }
 379:src/GetCert.c ****     //21-04-17 JC --
 380:src/GetCert.c ****     
 381:src/GetCert.c ****     /* getting data */
 382:src/GetCert.c ****     aptr->d_key_idx = 0xFF;              // extract cert index
 871              		.loc 1 382 0
 872 0112 FF23     		movs	r3, #255
 383:src/GetCert.c ****     result = x509ParseKey(content, filesize, &pubKey, aptr);
 873              		.loc 1 383 0
 874 0114 2846     		mov	r0, r5
 382:src/GetCert.c ****     result = x509ParseKey(content, filesize, &pubKey, aptr);
 875              		.loc 1 382 0
 876 0116 C8F80030 		str	r3, [r8]
 877              		.loc 1 383 0
 878 011a 4946     		mov	r1, r9
 879 011c 59AA     		add	r2, sp, #356
 880 011e 4346     		mov	r3, r8
 881 0120 FFF7FEFF 		bl	x509ParseKey
 882              	.LVL147:
 384:src/GetCert.c ****     if (result != PKCS_OK)
 883              		.loc 1 384 0
 884 0124 20B1     		cbz	r0, .L73
 885              	.LVL148:
 886              	.L83:
 385:src/GetCert.c ****     {
 386:src/GetCert.c ****       //sprintf(buf, "PKCS Parsing Err: %d", result);
 387:src/GetCert.c ****       //DispLineMW(buf, MW_LINE3, MW_CENTER|MW_CLREOL|MW_SPFONT);
 388:src/GetCert.c ****       FreeMW(content);
 887              		.loc 1 388 0
 888 0126 9420     		movs	r0, #148
 889 0128 2946     		mov	r1, r5
 890              	.LVL149:
 891              	.L84:
 892 012a FFF7FEFF 		bl	sys_func1
 893              	.LVL150:
 894 012e CDE7     		b	.L82
 895              	.LVL151:
 896              	.L73:
 389:src/GetCert.c ****       return FALSE;
ARM GAS  C:\Users\AHMED~1.ELE\AppData\Local\Temp\cc5xo6of.s 			page 24


 390:src/GetCert.c ****     }
 391:src/GetCert.c ****     
 392:src/GetCert.c ****     FreeMW(content);
 897              		.loc 1 392 0
 898 0130 9420     		movs	r0, #148
 899              	.LVL152:
 900 0132 2946     		mov	r1, r5
 901 0134 FFF7FEFF 		bl	sys_func1
 902              	.LVL153:
 393:src/GetCert.c ****     return TRUE;
 903              		.loc 1 393 0
 904 0138 0120     		movs	r0, #1
 905              	.LVL154:
 906              	.L66:
 394:src/GetCert.c ****   }
 395:src/GetCert.c ****   return FALSE;
 396:src/GetCert.c **** }
 907              		.loc 1 396 0
 908 013a 0DF69C5D 		addw	sp, sp, #3484
 909              		.cfi_def_cfa_offset 28
 910              		@ sp needed
 911 013e BDE8F083 		pop	{r4, r5, r6, r7, r8, r9, pc}
 912              	.LVL155:
 913              	.L86:
 914 0142 00BF     		.align	2
 915              	.L85:
 916 0144 1C000000 		.word	.LANCHOR0+28
 917 0148 11000000 		.word	.LC2
 918 014c 0E000000 		.word	.LC1
 919              		.cfi_endproc
 920              	.LFE3:
 921              		.size	GetClientPriKey, .-GetClientPriKey
 922              		.global	CAKeyTMS
 923              		.global	ClientPriKey
 924              		.global	ClientCert
 925              		.global	CAKeyHost
 926              		.global	CAKeyEcr
 927              		.section	.rodata
 928              		.set	.LANCHOR0,. + 0
 929              		.type	CAKeyEcr, %object
 930              		.size	CAKeyEcr, 7
 931              	CAKeyEcr:
 932 0000 50415241 		.ascii	"PARAM0\000"
 932      4D3000
 933              		.type	CAKeyHost, %object
 934              		.size	CAKeyHost, 7
 935              	CAKeyHost:
 936 0007 50415241 		.ascii	"PARAM1\000"
 936      4D3100
 937              		.type	CAKeyTMS, %object
 938              		.size	CAKeyTMS, 7
 939              	CAKeyTMS:
 940 000e 50415241 		.ascii	"PARAM9\000"
 940      4D3900
 941              		.type	ClientCert, %object
 942              		.size	ClientCert, 7
 943              	ClientCert:
ARM GAS  C:\Users\AHMED~1.ELE\AppData\Local\Temp\cc5xo6of.s 			page 25


 944 0015 50415241 		.ascii	"PARAM2\000"
 944      4D3200
 945              		.type	ClientPriKey, %object
 946              		.size	ClientPriKey, 7
 947              	ClientPriKey:
 948 001c 50415241 		.ascii	"PARAM3\000"
 948      4D3300
 949              		.section	.rodata.str1.1,"aMS",%progbits,1
 950              	.LC0:
 951 0000 4F70656E 		.ascii	"Open %s fail!\000"
 951      20257320 
 951      6661696C 
 951      2100
 952              	.LC1:
 953 000e 308200   		.ascii	"0\202\000"
 954              	.LC2:
 955 0011 2573206F 		.ascii	"%s open fail!\000"
 955      70656E20 
 955      6661696C 
 955      2100
 956              		.text
 957              	.Letext0:
 958              		.file 2 "c:\\devtools\\gcc_v49_2014q4\\lib\\gcc\\arm-none-eabi\\4.9.3\\include\\stddef.h"
 959              		.file 3 "../LibA5T1000/common.h"
 960              		.file 4 "../LibA5T1000/system.h"
 961              		.file 5 "../LibA5T1000/basecall.h"
 962              		.file 6 "../LibA5T1000/midware.h"
 963              		.file 7 "../LibA5T1000/apm.h"
 964              		.file 8 "src/GetCert.h"
 965              		.file 9 "src/x509.h"
 966              		.file 10 "../LibA5T1000/util.h"
 967              		.file 11 "c:\\devtools\\gcc_v49_2014q4\\arm-none-eabi\\include\\string.h"
 968              		.file 12 "c:\\devtools\\gcc_v49_2014q4\\arm-none-eabi\\include\\stdio.h"
 969              		.file 13 "src/kbdutil.h"
 970              		.file 14 "src/pkcs.h"
 971              		.file 15 "src/sysutil.h"