ARM GAS  C:\Users\AHMED~1.ELE\AppData\Local\Temp\ccs0eGNj.s 			page 1


   1              		.syntax unified
   2              		.cpu cortex-a5
   3              		.fpu softvfp
   4              		.eabi_attribute 20, 1
   5              		.eabi_attribute 21, 1
   6              		.eabi_attribute 23, 3
   7              		.eabi_attribute 24, 1
   8              		.eabi_attribute 25, 1
   9              		.eabi_attribute 26, 1
  10              		.eabi_attribute 30, 4
  11              		.eabi_attribute 34, 0
  12              		.eabi_attribute 18, 4
  13              		.thumb
  14              		.file	"hardware.c"
  15              		.text
  16              	.Ltext0:
  17              		.cfi_sections	.debug_frame
  18              		.section	.text.InitEcrDll.part.1,"ax",%progbits
  19              		.align	1
  20              		.thumb
  21              		.thumb_func
  22              		.type	InitEcrDll.part.1, %function
  23              	InitEcrDll.part.1:
  24              	.LFB7:
  25              		.file 1 "src/hardware.c"
   1:src/hardware.c **** //-----------------------------------------------------------------------------
   2:src/hardware.c **** //  File          : hardware.c
   3:src/hardware.c **** //  Module        :
   4:src/hardware.c **** //  Description   : Include hardware handle routines.
   5:src/hardware.c **** //  Author        : Lewis
   6:src/hardware.c **** //  Notes         : N/A
   7:src/hardware.c **** //
   8:src/hardware.c **** // ============================================================================
   9:src/hardware.c **** // | Naming conventions                                                       |
  10:src/hardware.c **** // | ~~~~~~~~~~~~~~~~~~                                                       |
  11:src/hardware.c **** // |         Struct/Array : Leading s                                         |
  12:src/hardware.c **** // |             Constant : Leading K                                         |
  13:src/hardware.c **** // |      Global Variable : Leading g  (variable use outside one C file)      |
  14:src/hardware.c **** // |                                                                          |
  15:src/hardware.c **** // |   BYTE( 8 Bits) size : Leading b                                         |
  16:src/hardware.c **** // |   CHAR( 8 Bits) size : Leading c                                         |
  17:src/hardware.c **** // |   WORD(16 Bits) size : Leading w                                         |
  18:src/hardware.c **** // |  DWORD(32 Bits) size : Leading d                                         |
  19:src/hardware.c **** // |    int(32 Bits) size : Leading i                                         |
  20:src/hardware.c **** // | DDWORD(64 Bits) size : Leading dd                                        |
  21:src/hardware.c **** // |              Pointer : Leading p                                         |
  22:src/hardware.c **** // |                                                                          |
  23:src/hardware.c **** // |    Function argument : Leading a                                         |
  24:src/hardware.c **** // |       Local Variable : All lower case                                    |
  25:src/hardware.c **** // |                                                                          |
  26:src/hardware.c **** // | Examples:                                                                |
  27:src/hardware.c **** // |                Array : Leading s, (sb = arrary of byte, etc)             |
  28:src/hardware.c **** // |              Pointer : Leading p, (pb = pointer of byte, etc)            |
  29:src/hardware.c **** // ============================================================================
  30:src/hardware.c **** //
  31:src/hardware.c **** //  Date          Who         Action
  32:src/hardware.c **** //  ------------  ----------- -------------------------------------------------
ARM GAS  C:\Users\AHMED~1.ELE\AppData\Local\Temp\ccs0eGNj.s 			page 2


  33:src/hardware.c **** //  01 Apr  2009  Lewis       Initial Version.
  34:src/hardware.c **** //-----------------------------------------------------------------------------
  35:src/hardware.c **** #include <string.h>
  36:src/hardware.c **** #include "hwdef.h"
  37:src/hardware.c **** #include "midware.h"
  38:src/hardware.c **** #include "sysutil.h"
  39:src/hardware.c **** #include "kbdutil.h"
  40:src/hardware.c **** #include "wifi.h"
  41:src/hardware.c **** #include "mcp.h"
  42:src/hardware.c **** #include "comm.h"
  43:src/hardware.c **** #include "toggle.h"
  44:src/hardware.c **** #include "ecrdll.h"
  45:src/hardware.c **** #include "termdata.h"
  46:src/hardware.c **** #include "hardware.h"
  47:src/hardware.c **** 
  48:src/hardware.c **** //-----------------------------------------------------------------------------
  49:src/hardware.c **** //      Defines
  50:src/hardware.c **** //-----------------------------------------------------------------------------
  51:src/hardware.c **** //-----------------------------------------------------------------------------
  52:src/hardware.c **** //      Globals
  53:src/hardware.c **** //-----------------------------------------------------------------------------
  54:src/hardware.c **** // Device Handle
  55:src/hardware.c **** int    gDevHandle[APM_SDEV_MAX];
  56:src/hardware.c **** int    gTimerHdl[MAX_TIMER_SUPPORT];
  57:src/hardware.c **** 
  58:src/hardware.c **** //-----------------------------------------------------------------------------
  59:src/hardware.c **** //      Constants
  60:src/hardware.c **** //-----------------------------------------------------------------------------
  61:src/hardware.c **** 
  62:src/hardware.c **** //*****************************************************************************
  63:src/hardware.c **** //  Function        : InitAllHw
  64:src/hardware.c **** //  Description     : Initialize all hardware drivers.
  65:src/hardware.c **** //  Input           : N/A
  66:src/hardware.c **** //  Return          : N/A
  67:src/hardware.c **** //  Note            : N/A
  68:src/hardware.c **** //  Globals Changed : N/A
  69:src/hardware.c **** //*****************************************************************************
  70:src/hardware.c **** void InitAllHw(void)
  71:src/hardware.c **** {
  72:src/hardware.c ****   BYTE filename[32];
  73:src/hardware.c ****   int i;
  74:src/hardware.c **** 
  75:src/hardware.c ****   for (i=0; i < APM_SDEV_MAX; i++) {
  76:src/hardware.c ****     gDevHandle[i] = -1;
  77:src/hardware.c ****   }
  78:src/hardware.c **** 
  79:src/hardware.c ****   //25-07-17 JC ++
  80:src/hardware.c **** #if 0
  81:src/hardware.c ****   strcpy(filename, DEV_MSR1);
  82:src/hardware.c ****   gDevHandle[APM_SDEV_MSR] = OpenMW(filename, MW_RDONLY);
  83:src/hardware.c ****   strcpy(filename, DEV_ICC1);
  84:src/hardware.c ****   gDevHandle[APM_SDEV_ICC] = OpenMW(filename, MW_RDWR);
  85:src/hardware.c **** #endif
  86:src/hardware.c ****   //25-07-17 JC --
  87:src/hardware.c ****   strcpy(filename, DEV_GPRS);
  88:src/hardware.c ****   gDevHandle[APM_SDEV_GPRS] = OpenMW(filename, MW_RDWR);
  89:src/hardware.c ****   strcpy(filename, DEV_PPP1);
ARM GAS  C:\Users\AHMED~1.ELE\AppData\Local\Temp\ccs0eGNj.s 			page 3


  90:src/hardware.c ****   gDevHandle[APM_SDEV_PPP] = OpenMW(filename, MW_RDWR);
  91:src/hardware.c ****   //25-07-17 JC ++
  92:src/hardware.c **** #if 0
  93:src/hardware.c ****   #if (CDC_SUPPORT)
  94:src/hardware.c ****   strcpy(filename, DEV_CDC1);
  95:src/hardware.c ****   gDevHandle[APM_SDEV_CDC] = OpenMW(filename, MW_WRONLY);
  96:src/hardware.c ****   #endif
  97:src/hardware.c ****   //07-12-16 JC ++
  98:src/hardware.c ****   if ((os_hd_config() & K_HdModem) != K_HdNoModem) {
  99:src/hardware.c ****     strcpy(filename, DEV_MDM1);
 100:src/hardware.c ****     gDevHandle[APM_SDEV_MDM] = OpenMW(filename, MW_RDWR);
 101:src/hardware.c ****   }
 102:src/hardware.c ****   //07-12-16 JC --
 103:src/hardware.c **** #endif
 104:src/hardware.c ****   //25-07-17 JC --
 105:src/hardware.c ****   //05-09-14 JC ++
 106:src/hardware.c ****   if (os_hd_config_extend() & K_XHdWifi) {
 107:src/hardware.c ****     strcpy(filename, DEV_WIFI);
 108:src/hardware.c ****     gDevHandle[APM_SDEV_WIFI] = OpenMW(filename, MW_RDWR);
 109:src/hardware.c ****     WifiOn();
 110:src/hardware.c ****   }
 111:src/hardware.c ****   //05-09-14 JC --
 112:src/hardware.c **** 
 113:src/hardware.c ****   for (i=0; i < MAX_TIMER_SUPPORT; i++) {
 114:src/hardware.c ****     gTimerHdl[i] = TimerOpenMW();
 115:src/hardware.c ****   }
 116:src/hardware.c ****   //#if (CLCD_SUPPORT)  
 117:src/hardware.c ****   if (GetLcdTypeMW() == MW_DISP_COLOR)
 118:src/hardware.c ****     os_disp_backc(COLOR_BACKGR);
 119:src/hardware.c ****   //#endif
 120:src/hardware.c **** 
 121:src/hardware.c ****   //25-07-17 JC ++
 122:src/hardware.c ****   os_clicc_close();           // Already open by emvcldll
 123:src/hardware.c ****   //#ifdef bs_lan_open
 124:src/hardware.c ****   //bs_lan_open();            // Enable LAN support, should be off if not use.
 125:src/hardware.c ****   //#endif
 126:src/hardware.c ****   //25-07-17 JC --
 127:src/hardware.c **** }
 128:src/hardware.c **** //*****************************************************************************
 129:src/hardware.c **** //  Function        : CloseAllHw
 130:src/hardware.c **** //  Description     : Close All hardware driver.
 131:src/hardware.c **** //  Input           : N/A
 132:src/hardware.c **** //  Return          : N/A
 133:src/hardware.c **** //  Note            : N/A
 134:src/hardware.c **** //  Globals Changed : N/A
 135:src/hardware.c **** //*****************************************************************************
 136:src/hardware.c **** void CloseAllHw(void)
 137:src/hardware.c **** {
 138:src/hardware.c ****   int i;
 139:src/hardware.c **** 
 140:src/hardware.c ****   for (i=0; i < APM_SDEV_MAX; i++) {
 141:src/hardware.c ****     if (gDevHandle[i] >= 0)
 142:src/hardware.c ****       CloseMW(gDevHandle[i]);
 143:src/hardware.c ****   }
 144:src/hardware.c **** 
 145:src/hardware.c ****   for (i=0; i < MAX_TIMER_SUPPORT; i++) {
 146:src/hardware.c ****     if (gTimerHdl[i] >=0)
ARM GAS  C:\Users\AHMED~1.ELE\AppData\Local\Temp\ccs0eGNj.s 			page 4


 147:src/hardware.c ****       CloseMW(gTimerHdl[i]);
 148:src/hardware.c ****   }
 149:src/hardware.c **** }
 150:src/hardware.c **** //*****************************************************************************
 151:src/hardware.c **** //  Function        : GetHwHandle
 152:src/hardware.c **** //  Description     : Return hardware handle id.
 153:src/hardware.c **** //  Input           : aHwId;
 154:src/hardware.c **** //                    aClose;       // 1=> CLOSE handle
 155:src/hardware.c **** //  Return          : handle;
 156:src/hardware.c **** //  Note            : //25-07-17 JC ++
 157:src/hardware.c **** //  Globals Changed : N/A
 158:src/hardware.c **** //*****************************************************************************
 159:src/hardware.c **** int GetHwHandle(DWORD aHwId, DWORD aClose)
 160:src/hardware.c **** {
 161:src/hardware.c ****   BYTE filename[32];
 162:src/hardware.c **** 
 163:src/hardware.c ****   if (aHwId >= APM_SDEV_MAX)
 164:src/hardware.c ****     return -1;
 165:src/hardware.c **** 
 166:src/hardware.c ****   if (aClose==1) {
 167:src/hardware.c ****     if (gDevHandle[aHwId] != -1) {
 168:src/hardware.c ****       CloseMW(gDevHandle[aHwId]);
 169:src/hardware.c ****       gDevHandle[aHwId] = -1;
 170:src/hardware.c ****     }
 171:src/hardware.c ****     return -1;
 172:src/hardware.c ****   }
 173:src/hardware.c **** 
 174:src/hardware.c ****   if (gDevHandle[aHwId] == -1) {
 175:src/hardware.c ****     switch (aHwId) {
 176:src/hardware.c ****       case APM_SDEV_MSR:
 177:src/hardware.c ****         strcpy(filename, DEV_MSR1);
 178:src/hardware.c ****         gDevHandle[APM_SDEV_MSR] = OpenMW(filename, MW_RDONLY);
 179:src/hardware.c ****         break;
 180:src/hardware.c ****       case APM_SDEV_GPRS:
 181:src/hardware.c ****         strcpy(filename, DEV_GPRS);
 182:src/hardware.c ****         gDevHandle[APM_SDEV_GPRS] = OpenMW(filename, MW_RDWR);
 183:src/hardware.c ****         break;
 184:src/hardware.c ****       case APM_SDEV_PPP:
 185:src/hardware.c ****         strcpy(filename, DEV_PPP1);
 186:src/hardware.c ****         gDevHandle[APM_SDEV_PPP] = OpenMW(filename, MW_RDWR);
 187:src/hardware.c ****       case APM_SDEV_CDC:
 188:src/hardware.c ****         #if (CDC_SUPPORT)
 189:src/hardware.c ****         strcpy(filename, DEV_CDC1);
 190:src/hardware.c ****         gDevHandle[APM_SDEV_CDC] = OpenMW(filename, MW_WRONLY);
 191:src/hardware.c ****         #endif
 192:src/hardware.c ****         break;
 193:src/hardware.c ****       case APM_SDEV_MDM:
 194:src/hardware.c ****         #if (MDM_SUPPORT)
 195:src/hardware.c ****         strcpy(filename, DEV_MDM1);
 196:src/hardware.c ****         gDevHandle[APM_SDEV_MDM] = OpenMW(filename, MW_RDWR);
 197:src/hardware.c ****         #endif
 198:src/hardware.c ****         break;
 199:src/hardware.c ****       case APM_SDEV_WIFI:
 200:src/hardware.c ****         #if defined(os_hd_config_extend) && defined(K_XHdWifi)
 201:src/hardware.c ****         if (os_hd_config_extend() & K_XHdWifi) {
 202:src/hardware.c ****           strcpy(filename, DEV_WIFI);
 203:src/hardware.c ****           gDevHandle[APM_SDEV_WIFI] = OpenMW(filename, MW_RDWR);
ARM GAS  C:\Users\AHMED~1.ELE\AppData\Local\Temp\ccs0eGNj.s 			page 5


 204:src/hardware.c ****           WifiOn();
 205:src/hardware.c ****         }
 206:src/hardware.c ****         #endif
 207:src/hardware.c ****         break;
 208:src/hardware.c ****     }
 209:src/hardware.c ****   }
 210:src/hardware.c **** 
 211:src/hardware.c ****   return gDevHandle[aHwId];
 212:src/hardware.c **** }
 213:src/hardware.c **** 
 214:src/hardware.c **** //*****************************************************************************
 215:src/hardware.c **** //  Function        : StopEcrDll
 216:src/hardware.c **** //  Description     : Stop EcrDll process.
 217:src/hardware.c **** //  Input           : N/A
 218:src/hardware.c **** //  Return          : N/A
 219:src/hardware.c **** //  Note            : //25-07-17 JC ++
 220:src/hardware.c **** //  Globals Changed : N/A
 221:src/hardware.c **** //*****************************************************************************
 222:src/hardware.c **** void StopEcrDll(void)
 223:src/hardware.c **** {
 224:src/hardware.c ****   ECR_Stop();
 225:src/hardware.c **** }
 226:src/hardware.c **** //*****************************************************************************
 227:src/hardware.c **** //  Function        : InitEcrDll
 228:src/hardware.c **** //  Description     : Start EcrDll process.
 229:src/hardware.c **** //  Input           : N/A
 230:src/hardware.c **** //  Return          : N/A
 231:src/hardware.c **** //  Note            : //25-07-17 JC ++
 232:src/hardware.c **** //  Globals Changed : N/A
 233:src/hardware.c **** //*****************************************************************************
 234:src/hardware.c **** BOOLEAN InitEcrDll(void)
  26              		.loc 1 234 0
  27              		.cfi_startproc
  28              		@ args = 0, pretend = 0, frame = 368
  29              		@ frame_needed = 0, uses_anonymous_args = 0
  30 0000 00B5     		push	{lr}
  31              		.cfi_def_cfa_offset 4
  32              		.cfi_offset 14, -4
  33 0002 DFB0     		sub	sp, sp, #380
  34              		.cfi_def_cfa_offset 384
 235:src/hardware.c **** {
 236:src/hardware.c ****   DWORD   keyin;
 237:src/hardware.c ****   T_APP_INFO app_info;
 238:src/hardware.c ****   struct TERM_DATA term_data;
 239:src/hardware.c **** 
 240:src/hardware.c ****   // Resume ECR communication
 241:src/hardware.c ****   if (os_app_info(ECRDLL_ID, &app_info)) {
 242:src/hardware.c ****     if (GetTermData(&term_data)) {
  35              		.loc 1 242 0
  36 0004 02A8     		add	r0, sp, #8
  37 0006 FFF7FEFF 		bl	GetTermData
  38              	.LVL0:
  39 000a 08B3     		cbz	r0, .L2
 243:src/hardware.c ****       if ((term_data.b_ecr_port&0x3F) != 0) {
  40              		.loc 1 243 0
  41 000c 9DF85930 		ldrb	r3, [sp, #89]	@ zero_extendqisi2
  42 0010 13F03F00 		ands	r0, r3, #63
ARM GAS  C:\Users\AHMED~1.ELE\AppData\Local\Temp\ccs0eGNj.s 			page 6


  43 0014 1CD0     		beq	.L2
  44 0016 0238     		subs	r0, r0, #2
 244:src/hardware.c ****         switch (term_data.b_ecr_port&0x3F)  {
 245:src/hardware.c ****         case TOG_AUXD:
 246:src/hardware.c ****           keyin = ECR_AUXD;
 247:src/hardware.c ****           break;
 248:src/hardware.c ****         case TOG_AUX2:
 249:src/hardware.c ****           keyin = ECR_AUX2;
 250:src/hardware.c ****           break;
 251:src/hardware.c ****         case TOG_USBS:
 252:src/hardware.c ****           keyin = ECR_USBS;
 253:src/hardware.c ****           break;
 254:src/hardware.c ****         case TOG_LAN:
 255:src/hardware.c ****           keyin = ECR_LAN;
 256:src/hardware.c ****           break;
 257:src/hardware.c ****         case TOG_WIFI:
 258:src/hardware.c ****           keyin = ECR_WIFI;
 259:src/hardware.c ****           break;
 260:src/hardware.c ****         case TOG_BT:
 261:src/hardware.c ****           keyin = ECR_BT;
 262:src/hardware.c ****           break;
 263:src/hardware.c ****         default:
 264:src/hardware.c ****         case TOG_AUX1:
 265:src/hardware.c ****           keyin = ECR_AUX1;
 266:src/hardware.c ****           break;
 267:src/hardware.c ****         }
 268:src/hardware.c ****         keyin |= (term_data.b_ecr_port & 0xC0);
  45              		.loc 1 268 0
  46 0018 03F0C003 		and	r3, r3, #192
  47 001c C0B2     		uxtb	r0, r0
  48 001e 0528     		cmp	r0, #5
 243:src/hardware.c ****       if ((term_data.b_ecr_port&0x3F) != 0) {
  49              		.loc 1 243 0
  50 0020 8EBF     		itee	hi
  51 0022 0122     		movhi	r2, #1
  52 0024 0C4A     		ldrls	r2, .L14
  53 0026 32F81020 		ldrhls	r2, [r2, r0, lsl #1]
  54              	.LVL1:
  55              		.loc 1 268 0
  56 002a 1A43     		orrs	r2, r2, r3
  57              	.LVL2:
 269:src/hardware.c ****         if (term_data.b_ecr_ssl == 1) {
  58              		.loc 1 269 0
  59 002c 9DF85A30 		ldrb	r3, [sp, #90]	@ zero_extendqisi2
  60 0030 012B     		cmp	r3, #1
  61 0032 02D1     		bne	.L4
 270:src/hardware.c ****           keyin |= ECR_SSL_SVR_AUTH;
  62              		.loc 1 270 0
  63 0034 42F40042 		orr	r2, r2, #32768
  64              	.LVL3:
  65 0038 03E0     		b	.L5
  66              	.L4:
 271:src/hardware.c ****         }
 272:src/hardware.c ****         else if (term_data.b_ecr_ssl == 2) {
  67              		.loc 1 272 0
  68 003a 022B     		cmp	r3, #2
 273:src/hardware.c ****           keyin |= ECR_SSL_CLN_AUTH;
ARM GAS  C:\Users\AHMED~1.ELE\AppData\Local\Temp\ccs0eGNj.s 			page 7


  69              		.loc 1 273 0
  70 003c 08BF     		it	eq
  71 003e 42F48042 		orreq	r2, r2, #16384
  72              	.LVL4:
  73              	.L5:
 274:src/hardware.c ****         }
 275:src/hardware.c ****         ECR_Start(keyin);
  74              		.loc 1 275 0
  75 0042 0021     		movs	r1, #0
  76 0044 7D20     		movs	r0, #125
  77 0046 0091     		str	r1, [sp]
  78 0048 0B46     		mov	r3, r1
  79 004a FFF7FEFF 		bl	lib_app_call
  80              	.LVL5:
 276:src/hardware.c ****         return TRUE;
  81              		.loc 1 276 0
  82 004e 0120     		movs	r0, #1
  83              	.L2:
 277:src/hardware.c ****       }
 278:src/hardware.c ****     }
 279:src/hardware.c ****   }
 280:src/hardware.c ****   return FALSE;
 281:src/hardware.c **** }
  84              		.loc 1 281 0
  85 0050 5FB0     		add	sp, sp, #380
  86              		.cfi_def_cfa_offset 4
  87              		@ sp needed
  88 0052 5DF804FB 		ldr	pc, [sp], #4
  89              	.L15:
  90 0056 00BF     		.align	2
  91              	.L14:
  92 0058 00000000 		.word	.LANCHOR0
  93              		.cfi_endproc
  94              	.LFE7:
  95              		.size	InitEcrDll.part.1, .-InitEcrDll.part.1
  96              		.section	.text.InitAllHw,"ax",%progbits
  97              		.align	1
  98              		.global	InitAllHw
  99              		.thumb
 100              		.thumb_func
 101              		.type	InitAllHw, %function
 102              	InitAllHw:
 103              	.LFB0:
  71:src/hardware.c ****   BYTE filename[32];
 104              		.loc 1 71 0
 105              		.cfi_startproc
 106              		@ args = 0, pretend = 0, frame = 32
 107              		@ frame_needed = 0, uses_anonymous_args = 0
 108              	.LVL6:
 109 0000 30B5     		push	{r4, r5, lr}
 110              		.cfi_def_cfa_offset 12
 111              		.cfi_offset 4, -12
 112              		.cfi_offset 5, -8
 113              		.cfi_offset 14, -4
  75:src/hardware.c ****     gDevHandle[i] = -1;
 114              		.loc 1 75 0
 115 0002 0023     		movs	r3, #0
ARM GAS  C:\Users\AHMED~1.ELE\AppData\Local\Temp\ccs0eGNj.s 			page 8


  71:src/hardware.c ****   BYTE filename[32];
 116              		.loc 1 71 0
 117 0004 8BB0     		sub	sp, sp, #44
 118              		.cfi_def_cfa_offset 56
 119              	.LVL7:
 120              	.L17:
  76:src/hardware.c ****   }
 121              		.loc 1 76 0 discriminator 3
 122 0006 2A4C     		ldr	r4, .L26
 123 0008 4FF0FF32 		mov	r2, #-1
 124 000c 44F82320 		str	r2, [r4, r3, lsl #2]
  75:src/hardware.c ****     gDevHandle[i] = -1;
 125              		.loc 1 75 0 discriminator 3
 126 0010 0133     		adds	r3, r3, #1
 127              	.LVL8:
 128 0012 072B     		cmp	r3, #7
 129 0014 F7D1     		bne	.L17
  88:src/hardware.c ****   strcpy(filename, DEV_PPP1);
 130              		.loc 1 88 0
 131 0016 0025     		movs	r5, #0
  87:src/hardware.c ****   gDevHandle[APM_SDEV_GPRS] = OpenMW(filename, MW_RDWR);
 132              		.loc 1 87 0
 133 0018 2649     		ldr	r1, .L26+4
 134 001a 02A8     		add	r0, sp, #8
 135 001c FFF7FEFF 		bl	strcpy
 136              	.LVL9:
  88:src/hardware.c ****   strcpy(filename, DEV_PPP1);
 137              		.loc 1 88 0
 138 0020 02AA     		add	r2, sp, #8
 139 0022 0623     		movs	r3, #6
 140 0024 0221     		movs	r1, #2
 141 0026 0095     		str	r5, [sp]
 142 0028 0F20     		movs	r0, #15
 143 002a FFF7FEFF 		bl	lib_app_call
 144              	.LVL10:
  89:src/hardware.c ****   gDevHandle[APM_SDEV_PPP] = OpenMW(filename, MW_RDWR);
 145              		.loc 1 89 0
 146 002e 2249     		ldr	r1, .L26+8
  88:src/hardware.c ****   strcpy(filename, DEV_PPP1);
 147              		.loc 1 88 0
 148 0030 A060     		str	r0, [r4, #8]
  89:src/hardware.c ****   gDevHandle[APM_SDEV_PPP] = OpenMW(filename, MW_RDWR);
 149              		.loc 1 89 0
 150 0032 02A8     		add	r0, sp, #8
 151 0034 FFF7FEFF 		bl	strcpy
 152              	.LVL11:
  90:src/hardware.c ****   //25-07-17 JC ++
 153              		.loc 1 90 0
 154 0038 0623     		movs	r3, #6
 155 003a 0221     		movs	r1, #2
 156 003c 02AA     		add	r2, sp, #8
 157 003e 0095     		str	r5, [sp]
 158 0040 0F20     		movs	r0, #15
 159 0042 FFF7FEFF 		bl	lib_app_call
 160              	.LVL12:
 106:src/hardware.c ****     strcpy(filename, DEV_WIFI);
 161              		.loc 1 106 0
ARM GAS  C:\Users\AHMED~1.ELE\AppData\Local\Temp\ccs0eGNj.s 			page 9


 162 0046 0121     		movs	r1, #1
  90:src/hardware.c ****   //25-07-17 JC ++
 163              		.loc 1 90 0
 164 0048 E060     		str	r0, [r4, #12]
 106:src/hardware.c ****     strcpy(filename, DEV_WIFI);
 165              		.loc 1 106 0
 166 004a 4FF4D070 		mov	r0, #416
 167 004e FFF7FEFF 		bl	sys_func1
 168              	.LVL13:
 169 0052 0307     		lsls	r3, r0, #28
 170 0054 0DD5     		bpl	.L18
 107:src/hardware.c ****     gDevHandle[APM_SDEV_WIFI] = OpenMW(filename, MW_RDWR);
 171              		.loc 1 107 0
 172 0056 1949     		ldr	r1, .L26+12
 173 0058 02A8     		add	r0, sp, #8
 174 005a FFF7FEFF 		bl	strcpy
 175              	.LVL14:
 108:src/hardware.c ****     WifiOn();
 176              		.loc 1 108 0
 177 005e 0095     		str	r5, [sp]
 178 0060 0F20     		movs	r0, #15
 179 0062 0221     		movs	r1, #2
 180 0064 02AA     		add	r2, sp, #8
 181 0066 0623     		movs	r3, #6
 182 0068 FFF7FEFF 		bl	lib_app_call
 183              	.LVL15:
 184 006c A061     		str	r0, [r4, #24]
 109:src/hardware.c ****   }
 185              		.loc 1 109 0
 186 006e FFF7FEFF 		bl	WifiOn
 187              	.LVL16:
 188              	.L18:
  75:src/hardware.c ****     gDevHandle[i] = -1;
 189              		.loc 1 75 0 discriminator 1
 190 0072 0024     		movs	r4, #0
 191              	.LVL17:
 192              	.L19:
 114:src/hardware.c ****   }
 193              		.loc 1 114 0 discriminator 3
 194 0074 0A20     		movs	r0, #10
 195 0076 FFF7FEFF 		bl	sys_func0
 196              	.LVL18:
 197 007a 114B     		ldr	r3, .L26+16
 198 007c 43F82400 		str	r0, [r3, r4, lsl #2]
 113:src/hardware.c ****     gTimerHdl[i] = TimerOpenMW();
 199              		.loc 1 113 0 discriminator 3
 200 0080 0134     		adds	r4, r4, #1
 201              	.LVL19:
 202 0082 062C     		cmp	r4, #6
 203 0084 F6D1     		bne	.L19
 117:src/hardware.c ****     os_disp_backc(COLOR_BACKGR);
 204              		.loc 1 117 0
 205 0086 0022     		movs	r2, #0
 206 0088 0F20     		movs	r0, #15
 207 008a 0092     		str	r2, [sp]
 208 008c 2921     		movs	r1, #41
 209 008e 1346     		mov	r3, r2
ARM GAS  C:\Users\AHMED~1.ELE\AppData\Local\Temp\ccs0eGNj.s 			page 10


 210 0090 FFF7FEFF 		bl	lib_app_call
 211              	.LVL20:
 212 0094 0128     		cmp	r0, #1
 213 0096 04D1     		bne	.L20
 118:src/hardware.c ****   //#endif
 214              		.loc 1 118 0
 215 0098 2020     		movs	r0, #32
 216 009a 4BF21E61 		movw	r1, #46622
 217 009e FFF7FEFF 		bl	sys_func1
 218              	.LVL21:
 219              	.L20:
 122:src/hardware.c ****   //#ifdef bs_lan_open
 220              		.loc 1 122 0
 221 00a2 40F23310 		movw	r0, #307
 222 00a6 FFF7FEFF 		bl	sys_func0
 223              	.LVL22:
 127:src/hardware.c **** //*****************************************************************************
 224              		.loc 1 127 0
 225 00aa 0BB0     		add	sp, sp, #44
 226              		.cfi_def_cfa_offset 12
 227              		@ sp needed
 228 00ac 30BD     		pop	{r4, r5, pc}
 229              	.LVL23:
 230              	.L27:
 231 00ae 00BF     		.align	2
 232              	.L26:
 233 00b0 00000000 		.word	gDevHandle
 234 00b4 00000000 		.word	.LC0
 235 00b8 0A000000 		.word	.LC1
 236 00bc 14000000 		.word	.LC2
 237 00c0 00000000 		.word	gTimerHdl
 238              		.cfi_endproc
 239              	.LFE0:
 240              		.size	InitAllHw, .-InitAllHw
 241              		.section	.text.CloseAllHw,"ax",%progbits
 242              		.align	1
 243              		.global	CloseAllHw
 244              		.thumb
 245              		.thumb_func
 246              		.type	CloseAllHw, %function
 247              	CloseAllHw:
 248              	.LFB1:
 137:src/hardware.c ****   int i;
 249              		.loc 1 137 0
 250              		.cfi_startproc
 251              		@ args = 0, pretend = 0, frame = 0
 252              		@ frame_needed = 0, uses_anonymous_args = 0
 253              	.LVL24:
 254 0000 13B5     		push	{r0, r1, r4, lr}
 255              		.cfi_def_cfa_offset 16
 256              		.cfi_offset 4, -8
 257              		.cfi_offset 14, -4
 140:src/hardware.c ****     if (gDevHandle[i] >= 0)
 258              		.loc 1 140 0
 259 0002 0024     		movs	r4, #0
 260              	.LVL25:
 261              	.L30:
ARM GAS  C:\Users\AHMED~1.ELE\AppData\Local\Temp\ccs0eGNj.s 			page 11


 141:src/hardware.c ****       CloseMW(gDevHandle[i]);
 262              		.loc 1 141 0
 263 0004 0F4B     		ldr	r3, .L35
 264 0006 53F82420 		ldr	r2, [r3, r4, lsl #2]
 265 000a 002A     		cmp	r2, #0
 266 000c 05DB     		blt	.L29
 142:src/hardware.c ****   }
 267              		.loc 1 142 0
 268 000e 0023     		movs	r3, #0
 269 0010 0F20     		movs	r0, #15
 270 0012 0093     		str	r3, [sp]
 271 0014 0321     		movs	r1, #3
 272 0016 FFF7FEFF 		bl	lib_app_call
 273              	.LVL26:
 274              	.L29:
 140:src/hardware.c ****     if (gDevHandle[i] >= 0)
 275              		.loc 1 140 0 discriminator 2
 276 001a 0134     		adds	r4, r4, #1
 277              	.LVL27:
 278 001c 072C     		cmp	r4, #7
 279 001e F1D1     		bne	.L30
 280 0020 0024     		movs	r4, #0
 281              	.LVL28:
 282              	.L32:
 146:src/hardware.c ****       CloseMW(gTimerHdl[i]);
 283              		.loc 1 146 0
 284 0022 094B     		ldr	r3, .L35+4
 285 0024 53F82420 		ldr	r2, [r3, r4, lsl #2]
 286 0028 002A     		cmp	r2, #0
 287 002a 05DB     		blt	.L31
 147:src/hardware.c ****   }
 288              		.loc 1 147 0
 289 002c 0023     		movs	r3, #0
 290 002e 0F20     		movs	r0, #15
 291 0030 0093     		str	r3, [sp]
 292 0032 0321     		movs	r1, #3
 293 0034 FFF7FEFF 		bl	lib_app_call
 294              	.LVL29:
 295              	.L31:
 145:src/hardware.c ****     if (gTimerHdl[i] >=0)
 296              		.loc 1 145 0 discriminator 2
 297 0038 0134     		adds	r4, r4, #1
 298              	.LVL30:
 299 003a 062C     		cmp	r4, #6
 300 003c F1D1     		bne	.L32
 149:src/hardware.c **** //*****************************************************************************
 301              		.loc 1 149 0
 302 003e 02B0     		add	sp, sp, #8
 303              		.cfi_def_cfa_offset 8
 304              		@ sp needed
 305 0040 10BD     		pop	{r4, pc}
 306              	.LVL31:
 307              	.L36:
 308 0042 00BF     		.align	2
 309              	.L35:
 310 0044 00000000 		.word	gDevHandle
 311 0048 00000000 		.word	gTimerHdl
ARM GAS  C:\Users\AHMED~1.ELE\AppData\Local\Temp\ccs0eGNj.s 			page 12


 312              		.cfi_endproc
 313              	.LFE1:
 314              		.size	CloseAllHw, .-CloseAllHw
 315              		.section	.text.GetHwHandle,"ax",%progbits
 316              		.align	1
 317              		.global	GetHwHandle
 318              		.thumb
 319              		.thumb_func
 320              		.type	GetHwHandle, %function
 321              	GetHwHandle:
 322              	.LFB2:
 160:src/hardware.c ****   BYTE filename[32];
 323              		.loc 1 160 0
 324              		.cfi_startproc
 325              		@ args = 0, pretend = 0, frame = 32
 326              		@ frame_needed = 0, uses_anonymous_args = 0
 327              	.LVL32:
 163:src/hardware.c ****     return -1;
 328              		.loc 1 163 0
 329 0000 0628     		cmp	r0, #6
 160:src/hardware.c ****   BYTE filename[32];
 330              		.loc 1 160 0
 331 0002 30B5     		push	{r4, r5, lr}
 332              		.cfi_def_cfa_offset 12
 333              		.cfi_offset 4, -12
 334              		.cfi_offset 5, -8
 335              		.cfi_offset 14, -4
 336 0004 0546     		mov	r5, r0
 337 0006 8BB0     		sub	sp, sp, #44
 338              		.cfi_def_cfa_offset 56
 163:src/hardware.c ****     return -1;
 339              		.loc 1 163 0
 340 0008 7BD8     		bhi	.L50
 166:src/hardware.c ****     if (gDevHandle[aHwId] != -1) {
 341              		.loc 1 166 0
 342 000a 0129     		cmp	r1, #1
 343 000c 3F4C     		ldr	r4, .L57
 344 000e 0ED1     		bne	.L39
 167:src/hardware.c ****       CloseMW(gDevHandle[aHwId]);
 345              		.loc 1 167 0
 346 0010 54F82020 		ldr	r2, [r4, r0, lsl #2]
 347 0014 511C     		adds	r1, r2, #1
 348              	.LVL33:
 349 0016 76D0     		beq	.L38
 168:src/hardware.c ****       gDevHandle[aHwId] = -1;
 350              		.loc 1 168 0
 351 0018 0023     		movs	r3, #0
 352 001a 0F20     		movs	r0, #15
 353              	.LVL34:
 354 001c 0093     		str	r3, [sp]
 355 001e 0321     		movs	r1, #3
 356 0020 FFF7FEFF 		bl	lib_app_call
 357              	.LVL35:
 169:src/hardware.c ****     }
 358              		.loc 1 169 0
 359 0024 4FF0FF32 		mov	r2, #-1
 360 0028 44F82520 		str	r2, [r4, r5, lsl #2]
ARM GAS  C:\Users\AHMED~1.ELE\AppData\Local\Temp\ccs0eGNj.s 			page 13


 361 002c 6BE0     		b	.L38
 362              	.LVL36:
 363              	.L39:
 364              	.LBB4:
 365              	.LBB5:
 174:src/hardware.c ****     switch (aHwId) {
 366              		.loc 1 174 0
 367 002e 54F82030 		ldr	r3, [r4, r0, lsl #2]
 368 0032 0133     		adds	r3, r3, #1
 369 0034 62D1     		bne	.L41
 175:src/hardware.c ****       case APM_SDEV_MSR:
 370              		.loc 1 175 0
 371 0036 0628     		cmp	r0, #6
 372 0038 60D8     		bhi	.L41
 373 003a DFE800F0 		tbb	[pc, r0]
 374              	.L43:
 375 003e 04       		.byte	(.L42-.L43)/2
 376 003f 5F       		.byte	(.L41-.L43)/2
 377 0040 12       		.byte	(.L44-.L43)/2
 378 0041 20       		.byte	(.L45-.L43)/2
 379 0042 2D       		.byte	(.L46-.L43)/2
 380 0043 3B       		.byte	(.L47-.L43)/2
 381 0044 49       		.byte	(.L48-.L43)/2
 382 0045 00       		.p2align 1
 383              	.L42:
 177:src/hardware.c ****         gDevHandle[APM_SDEV_MSR] = OpenMW(filename, MW_RDONLY);
 384              		.loc 1 177 0
 385 0046 3249     		ldr	r1, .L57+4
 386              	.LVL37:
 387 0048 02A8     		add	r0, sp, #8
 388              	.LVL38:
 389 004a FFF7FEFF 		bl	strcpy
 390              	.LVL39:
 178:src/hardware.c ****         break;
 391              		.loc 1 178 0
 392 004e 0023     		movs	r3, #0
 393 0050 0221     		movs	r1, #2
 394 0052 0093     		str	r3, [sp]
 395 0054 0F20     		movs	r0, #15
 396 0056 02AA     		add	r2, sp, #8
 397 0058 0B46     		mov	r3, r1
 398 005a FFF7FEFF 		bl	lib_app_call
 399              	.LVL40:
 400 005e 2060     		str	r0, [r4]
 401 0060 4CE0     		b	.L41
 402              	.LVL41:
 403              	.L44:
 181:src/hardware.c ****         gDevHandle[APM_SDEV_GPRS] = OpenMW(filename, MW_RDWR);
 404              		.loc 1 181 0
 405 0062 2C49     		ldr	r1, .L57+8
 406              	.LVL42:
 407 0064 02A8     		add	r0, sp, #8
 408              	.LVL43:
 409 0066 FFF7FEFF 		bl	strcpy
 410              	.LVL44:
 182:src/hardware.c ****         break;
 411              		.loc 1 182 0
ARM GAS  C:\Users\AHMED~1.ELE\AppData\Local\Temp\ccs0eGNj.s 			page 14


 412 006a 0023     		movs	r3, #0
 413 006c 0F20     		movs	r0, #15
 414 006e 0093     		str	r3, [sp]
 415 0070 0221     		movs	r1, #2
 416 0072 02AA     		add	r2, sp, #8
 417 0074 0623     		movs	r3, #6
 418 0076 FFF7FEFF 		bl	lib_app_call
 419              	.LVL45:
 420 007a A060     		str	r0, [r4, #8]
 421 007c 3EE0     		b	.L41
 422              	.LVL46:
 423              	.L45:
 185:src/hardware.c ****         gDevHandle[APM_SDEV_PPP] = OpenMW(filename, MW_RDWR);
 424              		.loc 1 185 0
 425 007e 2649     		ldr	r1, .L57+12
 426              	.LVL47:
 427 0080 02A8     		add	r0, sp, #8
 428              	.LVL48:
 429 0082 FFF7FEFF 		bl	strcpy
 430              	.LVL49:
 186:src/hardware.c ****       case APM_SDEV_CDC:
 431              		.loc 1 186 0
 432 0086 0023     		movs	r3, #0
 433 0088 0F20     		movs	r0, #15
 434 008a 0093     		str	r3, [sp]
 435 008c 0221     		movs	r1, #2
 436 008e 02AA     		add	r2, sp, #8
 437 0090 0623     		movs	r3, #6
 438 0092 FFF7FEFF 		bl	lib_app_call
 439              	.LVL50:
 440 0096 E060     		str	r0, [r4, #12]
 441              	.L46:
 189:src/hardware.c ****         gDevHandle[APM_SDEV_CDC] = OpenMW(filename, MW_WRONLY);
 442              		.loc 1 189 0
 443 0098 2049     		ldr	r1, .L57+16
 444 009a 02A8     		add	r0, sp, #8
 445 009c FFF7FEFF 		bl	strcpy
 446              	.LVL51:
 190:src/hardware.c ****         #endif
 447              		.loc 1 190 0
 448 00a0 0023     		movs	r3, #0
 449 00a2 0F20     		movs	r0, #15
 450 00a4 0093     		str	r3, [sp]
 451 00a6 0221     		movs	r1, #2
 452 00a8 02AA     		add	r2, sp, #8
 453 00aa 0423     		movs	r3, #4
 454 00ac FFF7FEFF 		bl	lib_app_call
 455              	.LVL52:
 456 00b0 2061     		str	r0, [r4, #16]
 457 00b2 23E0     		b	.L41
 458              	.LVL53:
 459              	.L47:
 195:src/hardware.c ****         gDevHandle[APM_SDEV_MDM] = OpenMW(filename, MW_RDWR);
 460              		.loc 1 195 0
 461 00b4 1A49     		ldr	r1, .L57+20
 462              	.LVL54:
 463 00b6 02A8     		add	r0, sp, #8
ARM GAS  C:\Users\AHMED~1.ELE\AppData\Local\Temp\ccs0eGNj.s 			page 15


 464              	.LVL55:
 465 00b8 FFF7FEFF 		bl	strcpy
 466              	.LVL56:
 196:src/hardware.c ****         #endif
 467              		.loc 1 196 0
 468 00bc 0023     		movs	r3, #0
 469 00be 0F20     		movs	r0, #15
 470 00c0 0093     		str	r3, [sp]
 471 00c2 0221     		movs	r1, #2
 472 00c4 02AA     		add	r2, sp, #8
 473 00c6 0623     		movs	r3, #6
 474 00c8 FFF7FEFF 		bl	lib_app_call
 475              	.LVL57:
 476 00cc 6061     		str	r0, [r4, #20]
 477 00ce 15E0     		b	.L41
 478              	.LVL58:
 479              	.L48:
 201:src/hardware.c ****           strcpy(filename, DEV_WIFI);
 480              		.loc 1 201 0
 481 00d0 4FF4D070 		mov	r0, #416
 482              	.LVL59:
 483 00d4 0121     		movs	r1, #1
 484              	.LVL60:
 485 00d6 FFF7FEFF 		bl	sys_func1
 486              	.LVL61:
 487 00da 0307     		lsls	r3, r0, #28
 488 00dc 0ED5     		bpl	.L41
 202:src/hardware.c ****           gDevHandle[APM_SDEV_WIFI] = OpenMW(filename, MW_RDWR);
 489              		.loc 1 202 0
 490 00de 1149     		ldr	r1, .L57+24
 491 00e0 02A8     		add	r0, sp, #8
 492 00e2 FFF7FEFF 		bl	strcpy
 493              	.LVL62:
 203:src/hardware.c ****           WifiOn();
 494              		.loc 1 203 0
 495 00e6 0023     		movs	r3, #0
 496 00e8 0F20     		movs	r0, #15
 497 00ea 0093     		str	r3, [sp]
 498 00ec 0221     		movs	r1, #2
 499 00ee 02AA     		add	r2, sp, #8
 500 00f0 0623     		movs	r3, #6
 501 00f2 FFF7FEFF 		bl	lib_app_call
 502              	.LVL63:
 503 00f6 A061     		str	r0, [r4, #24]
 204:src/hardware.c ****         }
 504              		.loc 1 204 0
 505 00f8 FFF7FEFF 		bl	WifiOn
 506              	.LVL64:
 507              	.L41:
 211:src/hardware.c **** }
 508              		.loc 1 211 0
 509 00fc 54F82520 		ldr	r2, [r4, r5, lsl #2]
 510 0100 01E0     		b	.L38
 511              	.LVL65:
 512              	.L50:
 513              	.LBE5:
 514              	.LBE4:
ARM GAS  C:\Users\AHMED~1.ELE\AppData\Local\Temp\ccs0eGNj.s 			page 16


 164:src/hardware.c **** 
 515              		.loc 1 164 0
 516 0102 4FF0FF32 		mov	r2, #-1
 517              	.LVL66:
 518              	.L38:
 212:src/hardware.c **** 
 519              		.loc 1 212 0
 520 0106 1046     		mov	r0, r2
 521 0108 0BB0     		add	sp, sp, #44
 522              		.cfi_def_cfa_offset 12
 523              		@ sp needed
 524 010a 30BD     		pop	{r4, r5, pc}
 525              	.LVL67:
 526              	.L58:
 527              		.align	2
 528              	.L57:
 529 010c 00000000 		.word	gDevHandle
 530 0110 1E000000 		.word	.LC3
 531 0114 00000000 		.word	.LC0
 532 0118 0A000000 		.word	.LC1
 533 011c 28000000 		.word	.LC4
 534 0120 32000000 		.word	.LC5
 535 0124 14000000 		.word	.LC2
 536              		.cfi_endproc
 537              	.LFE2:
 538              		.size	GetHwHandle, .-GetHwHandle
 539              		.section	.text.StopEcrDll,"ax",%progbits
 540              		.align	1
 541              		.global	StopEcrDll
 542              		.thumb
 543              		.thumb_func
 544              		.type	StopEcrDll, %function
 545              	StopEcrDll:
 546              	.LFB3:
 223:src/hardware.c ****   ECR_Stop();
 547              		.loc 1 223 0
 548              		.cfi_startproc
 549              		@ args = 0, pretend = 0, frame = 0
 550              		@ frame_needed = 0, uses_anonymous_args = 0
 551 0000 07B5     		push	{r0, r1, r2, lr}
 552              		.cfi_def_cfa_offset 16
 553              		.cfi_offset 14, -4
 224:src/hardware.c **** }
 554              		.loc 1 224 0
 555 0002 0022     		movs	r2, #0
 556 0004 0121     		movs	r1, #1
 557 0006 0092     		str	r2, [sp]
 558 0008 1346     		mov	r3, r2
 559 000a 7D20     		movs	r0, #125
 560 000c FFF7FEFF 		bl	lib_app_call
 561              	.LVL68:
 225:src/hardware.c **** //*****************************************************************************
 562              		.loc 1 225 0
 563 0010 03B0     		add	sp, sp, #12
 564              		.cfi_def_cfa_offset 4
 565              		@ sp needed
 566 0012 5DF804FB 		ldr	pc, [sp], #4
ARM GAS  C:\Users\AHMED~1.ELE\AppData\Local\Temp\ccs0eGNj.s 			page 17


 567              		.cfi_endproc
 568              	.LFE3:
 569              		.size	StopEcrDll, .-StopEcrDll
 570              		.section	.text.InitEcrDll,"ax",%progbits
 571              		.align	1
 572              		.global	InitEcrDll
 573              		.thumb
 574              		.thumb_func
 575              		.type	InitEcrDll, %function
 576              	InitEcrDll:
 577              	.LFB4:
 235:src/hardware.c ****   DWORD   keyin;
 578              		.loc 1 235 0
 579              		.cfi_startproc
 580              		@ args = 0, pretend = 0, frame = 40
 581              		@ frame_needed = 0, uses_anonymous_args = 0
 582 0000 00B5     		push	{lr}
 583              		.cfi_def_cfa_offset 4
 584              		.cfi_offset 14, -4
 585 0002 8BB0     		sub	sp, sp, #44
 586              		.cfi_def_cfa_offset 48
 241:src/hardware.c ****     if (GetTermData(&term_data)) {
 587              		.loc 1 241 0
 588 0004 9120     		movs	r0, #145
 589 0006 7D21     		movs	r1, #125
 590 0008 01AA     		add	r2, sp, #4
 591 000a FFF7FEFF 		bl	sys_func2
 592              	.LVL69:
 593 000e 08B1     		cbz	r0, .L61
 594 0010 FFF7FEFF 		bl	InitEcrDll.part.1
 595              	.LVL70:
 596              	.L61:
 597              		.loc 1 281 0
 598 0014 0BB0     		add	sp, sp, #44
 599              		.cfi_def_cfa_offset 4
 600              		@ sp needed
 601 0016 5DF804FB 		ldr	pc, [sp], #4
 602              		.cfi_endproc
 603              	.LFE4:
 604              		.size	InitEcrDll, .-InitEcrDll
 605              		.section	.text.PwrSleep,"ax",%progbits
 606              		.align	1
 607              		.global	PwrSleep
 608              		.thumb
 609              		.thumb_func
 610              		.type	PwrSleep, %function
 611              	PwrSleep:
 612              	.LFB5:
 282:src/hardware.c **** //*****************************************************************************
 283:src/hardware.c **** //  Function        : PwrSleep
 284:src/hardware.c **** //  Description     : Enter power sleep to save battery power.
 285:src/hardware.c **** //  Input           : aSec;         // seconds to sleep before wake up
 286:src/hardware.c **** //  Return          : N/A
 287:src/hardware.c **** //  Note            : //25-07-17 JC ++
 288:src/hardware.c **** //  Globals Changed : N/A
 289:src/hardware.c **** //*****************************************************************************
 290:src/hardware.c **** int PwrSleep(DWORD aSec)
ARM GAS  C:\Users\AHMED~1.ELE\AppData\Local\Temp\ccs0eGNj.s 			page 18


 291:src/hardware.c **** {
 613              		.loc 1 291 0
 614              		.cfi_startproc
 615              		@ args = 0, pretend = 0, frame = 0
 616              		@ frame_needed = 0, uses_anonymous_args = 0
 617              	.LVL71:
 618 0000 F7B5     		push	{r0, r1, r2, r4, r5, r6, r7, lr}
 619              		.cfi_def_cfa_offset 32
 620              		.cfi_offset 4, -20
 621              		.cfi_offset 5, -16
 622              		.cfi_offset 6, -12
 623              		.cfi_offset 7, -8
 624              		.cfi_offset 14, -4
 625              		.loc 1 291 0
 626 0002 0646     		mov	r6, r0
 292:src/hardware.c **** #if (MCP_SUPPORT)
 293:src/hardware.c **** 
 294:src/hardware.c ****   struct TERM_DATA term_data;
 295:src/hardware.c **** #endif
 296:src/hardware.c ****   int i, ret = 0;
 297:src/hardware.c ****   DWORD   ppp_phase;
 298:src/hardware.c ****   BOOLEAN ppp_reqd = FALSE;
 299:src/hardware.c ****  
 300:src/hardware.c ****   #ifdef os_batt_level
 301:src/hardware.c ****   #ifdef K_PowerPluggedIn
 302:src/hardware.c ****   if (os_batt_level()&K_PowerPluggedIn)
 627              		.loc 1 302 0
 628 0004 4FF48670 		mov	r0, #268
 629              	.LVL72:
 630 0008 FFF7FEFF 		bl	sys_func0
 631              	.LVL73:
 632 000c 4700     		lsls	r7, r0, #1
 633 000e 71D4     		bmi	.L76
 303:src/hardware.c ****     #ifdef K_PowerSleepPowerPluggedIn
 304:src/hardware.c ****     return K_PowerSleepPowerPluggedIn;
 305:src/hardware.c ****     #else
 306:src/hardware.c ****     return 0;
 307:src/hardware.c ****     #endif
 308:src/hardware.c ****   #else
 309:src/hardware.c ****   if (os_batt_level()&K_BatteryCharging)
 310:src/hardware.c ****     return 0;
 311:src/hardware.c ****   #endif
 312:src/hardware.c ****   #endif
 313:src/hardware.c **** 
 314:src/hardware.c ****   // Close all current connection
 315:src/hardware.c ****   ResetComm();
 634              		.loc 1 315 0
 635 0010 FFF7FEFF 		bl	ResetComm
 636              	.LVL74:
 316:src/hardware.c **** 
 317:src/hardware.c ****   if (os_hd_config()&K_HdLanInstalled) {
 637              		.loc 1 317 0
 638 0014 4FF4D070 		mov	r0, #416
 639 0018 FFF7FEFF 		bl	sys_func0
 640              	.LVL75:
 641 001c 8506     		lsls	r5, r0, #26
 642 001e 06D5     		bpl	.L65
ARM GAS  C:\Users\AHMED~1.ELE\AppData\Local\Temp\ccs0eGNj.s 			page 19


 318:src/hardware.c ****     ThreadDeleteMW(HotPlug);
 643              		.loc 1 318 0
 644 0020 7B20     		movs	r0, #123
 645 0022 3749     		ldr	r1, .L101
 646 0024 FFF7FEFF 		bl	sys_func1
 647              	.LVL76:
 319:src/hardware.c ****     #ifdef bs_lan_close
 320:src/hardware.c ****     bs_lan_close();
 648              		.loc 1 320 0
 649 0028 4120     		movs	r0, #65
 650 002a FFF7FEFF 		bl	base_func0
 651              	.LVL77:
 652              	.L65:
 321:src/hardware.c ****     #endif
 322:src/hardware.c ****   }
 323:src/hardware.c **** 
 324:src/hardware.c ****   // Handle PPP
 325:src/hardware.c ****   ppp_phase = IOCtlMW(gDevHandle[APM_SDEV_PPP], IO_PPP_GET_PHASE, NULL);
 653              		.loc 1 325 0
 654 002e 0025     		movs	r5, #0
 655 0030 344F     		ldr	r7, .L101+4
 656 0032 0095     		str	r5, [sp]
 657 0034 0F20     		movs	r0, #15
 658 0036 0721     		movs	r1, #7
 659 0038 FA68     		ldr	r2, [r7, #12]
 660 003a 0523     		movs	r3, #5
 661 003c FFF7FEFF 		bl	lib_app_call
 662              	.LVL78:
 326:src/hardware.c ****   switch (ppp_phase) {
 663              		.loc 1 326 0
 664 0040 0528     		cmp	r0, #5
 665 0042 03D0     		beq	.L67
 666 0044 441C     		adds	r4, r0, #1
 667 0046 05D0     		beq	.L78
 668 0048 08B9     		cbnz	r0, .L66
 669 004a 03E0     		b	.L78
 670              	.L67:
 327:src/hardware.c ****     case MW_PPP_PHASE_IDLE:
 328:src/hardware.c ****     case MW_PPP_PHASE_DEAD:
 329:src/hardware.c ****        break;
 330:src/hardware.c ****     case MW_PPP_PHASE_READY:
 331:src/hardware.c ****        ppp_reqd = TRUE;
 671              		.loc 1 331 0
 672 004c 0125     		movs	r5, #1
 673              	.L66:
 674              	.LVL79:
 332:src/hardware.c ****        // fall thru
 333:src/hardware.c ****     default:
 334:src/hardware.c ****        DisconnectPPP();
 675              		.loc 1 334 0
 676 004e FFF7FEFF 		bl	DisconnectPPP
 677              	.LVL80:
 678 0052 00E0     		b	.L68
 679              	.LVL81:
 680              	.L78:
 298:src/hardware.c ****  
 681              		.loc 1 298 0
ARM GAS  C:\Users\AHMED~1.ELE\AppData\Local\Temp\ccs0eGNj.s 			page 20


 682 0054 0025     		movs	r5, #0
 683              	.LVL82:
 684              	.L68:
 335:src/hardware.c ****   }
 336:src/hardware.c **** 
 337:src/hardware.c ****   if (os_hd_config_extend() & K_XHdWifi)
 685              		.loc 1 337 0
 686 0056 0121     		movs	r1, #1
 687 0058 4FF4D070 		mov	r0, #416
 688 005c FFF7FEFF 		bl	sys_func1
 689              	.LVL83:
 690 0060 0107     		lsls	r1, r0, #28
 691 0062 01D5     		bpl	.L69
 338:src/hardware.c ****     WifiOff();
 692              		.loc 1 338 0
 693 0064 FFF7FEFF 		bl	WifiOff
 694              	.LVL84:
 695              	.L69:
 339:src/hardware.c ****   
 340:src/hardware.c ****   //08-01-18 JC ++
 341:src/hardware.c **** #if (MCP_SUPPORT)
 342:src/hardware.c **** 
 343:src/hardware.c ****   GetTermData(&term_data);
 344:src/hardware.c ****   if (((term_data.b_ecr_port&0x3F) != TOG_BT) || (GetMCPStatus() != K_MCP_PHASE_CONNECTED))
 345:src/hardware.c **** #endif
 346:src/hardware.c ****     StopEcrDll();
 696              		.loc 1 346 0
 697 0068 FFF7FEFF 		bl	StopEcrDll
 698              	.LVL85:
 347:src/hardware.c ****   //08-01-18 JC --
 348:src/hardware.c **** 
 349:src/hardware.c ****   for (i=0; i < APM_SDEV_MAX; i++) {
 699              		.loc 1 349 0
 700 006c 0024     		movs	r4, #0
 701              	.LVL86:
 702              	.L71:
 350:src/hardware.c ****     if (gDevHandle[i] < 0)
 703              		.loc 1 350 0
 704 006e 57F82420 		ldr	r2, [r7, r4, lsl #2]
 705 0072 002A     		cmp	r2, #0
 706 0074 05DB     		blt	.L70
 351:src/hardware.c ****       continue;
 352:src/hardware.c ****     CloseMW(gDevHandle[i]);
 707              		.loc 1 352 0
 708 0076 0023     		movs	r3, #0
 709 0078 0F20     		movs	r0, #15
 710 007a 0093     		str	r3, [sp]
 711 007c 0321     		movs	r1, #3
 712 007e FFF7FEFF 		bl	lib_app_call
 713              	.LVL87:
 714              	.L70:
 349:src/hardware.c ****     if (gDevHandle[i] < 0)
 715              		.loc 1 349 0 discriminator 2
 716 0082 0134     		adds	r4, r4, #1
 717              	.LVL88:
 718 0084 072C     		cmp	r4, #7
 719 0086 F2D1     		bne	.L71
ARM GAS  C:\Users\AHMED~1.ELE\AppData\Local\Temp\ccs0eGNj.s 			page 21


 353:src/hardware.c ****   }
 354:src/hardware.c **** 
 355:src/hardware.c ****   Delay1Sec(1, 0);
 720              		.loc 1 355 0
 721 0088 0120     		movs	r0, #1
 722 008a 0021     		movs	r1, #0
 723 008c FFF7FEFF 		bl	Delay1Sec
 724              	.LVL89:
 356:src/hardware.c **** #ifdef os_power_sleep_ak_pwake_wto_bt
 357:src/hardware.c ****   ret = os_power_sleep_ak_pwake_wto_bt(aSec); // with BT handling       //08-01-18 JC ++
 358:src/hardware.c **** #elif defined os_power_sleep_ak_pwake_wto
 359:src/hardware.c ****   ret = os_power_sleep_ak_pwake_wto(aSec);    // shorter wake up time
 725              		.loc 1 359 0
 726 0090 3246     		mov	r2, r6
 727 0092 40F29D10 		movw	r0, #413
 728 0096 0421     		movs	r1, #4
 729 0098 FFF7FEFF 		bl	sys_func2
 730              	.LVL90:
 360:src/hardware.c **** #elif defined os_power_sleep_awake_wto
 361:src/hardware.c ****   ret = os_power_sleep_awake_wto(aSec);
 362:src/hardware.c **** #elif defined os_power_sleep_wto
 363:src/hardware.c ****   ret = os_power_sleep_wto(aSec);
 364:src/hardware.c **** #else
 365:src/hardware.c ****   ret = os_power_sleep();
 366:src/hardware.c **** #endif
 367:src/hardware.c **** 
 368:src/hardware.c ****   // reopen or init if done before
 369:src/hardware.c ****   for (i=0; i < APM_SDEV_MAX; i++) {
 731              		.loc 1 369 0
 732 009c 0026     		movs	r6, #0
 733              	.LVL91:
 359:src/hardware.c **** #elif defined os_power_sleep_awake_wto
 734              		.loc 1 359 0
 735 009e 0446     		mov	r4, r0
 736              	.LVL92:
 737              	.L73:
 370:src/hardware.c ****     if (gDevHandle[i] < 0)
 738              		.loc 1 370 0
 739 00a0 57F82630 		ldr	r3, [r7, r6, lsl #2]
 740 00a4 002B     		cmp	r3, #0
 741 00a6 07DB     		blt	.L72
 371:src/hardware.c ****       continue;
 372:src/hardware.c ****     // reopen or init;
 373:src/hardware.c ****     gDevHandle[i] = -1;
 742              		.loc 1 373 0
 743 00a8 4FF0FF33 		mov	r3, #-1
 374:src/hardware.c ****     GetHwHandle(i, 0);  
 744              		.loc 1 374 0
 745 00ac 3046     		mov	r0, r6
 373:src/hardware.c ****     GetHwHandle(i, 0);  
 746              		.loc 1 373 0
 747 00ae 47F82630 		str	r3, [r7, r6, lsl #2]
 748              		.loc 1 374 0
 749 00b2 0021     		movs	r1, #0
 750 00b4 FFF7FEFF 		bl	GetHwHandle
 751              	.LVL93:
 752              	.L72:
ARM GAS  C:\Users\AHMED~1.ELE\AppData\Local\Temp\ccs0eGNj.s 			page 22


 369:src/hardware.c ****     if (gDevHandle[i] < 0)
 753              		.loc 1 369 0 discriminator 2
 754 00b8 0136     		adds	r6, r6, #1
 755              	.LVL94:
 756 00ba 072E     		cmp	r6, #7
 757 00bc F0D1     		bne	.L73
 375:src/hardware.c ****   }
 376:src/hardware.c **** 
 377:src/hardware.c ****   //08-01-18 JC ++
 378:src/hardware.c **** #if (MCP_SUPPORT)
 379:src/hardware.c **** 
 380:src/hardware.c ****   if (((term_data.b_ecr_port&0x3F) != TOG_BT) || (GetMCPStatus() != K_MCP_PHASE_CONNECTED))
 381:src/hardware.c **** #endif
 382:src/hardware.c **** 
 383:src/hardware.c ****     InitEcrDll();
 758              		.loc 1 383 0
 759 00be FFF7FEFF 		bl	InitEcrDll
 760              	.LVL95:
 384:src/hardware.c ****   //08-01-18 JC --
 385:src/hardware.c ****   if (os_hd_config_extend() & K_XHdWifi)
 761              		.loc 1 385 0
 762 00c2 4FF4D070 		mov	r0, #416
 763 00c6 0121     		movs	r1, #1
 764 00c8 FFF7FEFF 		bl	sys_func1
 765              	.LVL96:
 766 00cc 0207     		lsls	r2, r0, #28
 767 00ce 01D5     		bpl	.L74
 386:src/hardware.c ****     WifiOn();
 768              		.loc 1 386 0
 769 00d0 FFF7FEFF 		bl	WifiOn
 770              	.LVL97:
 771              	.L74:
 387:src/hardware.c ****   // re-connect ppp 
 388:src/hardware.c ****   if (ppp_reqd) {
 772              		.loc 1 388 0
 773 00d4 15B1     		cbz	r5, .L75
 389:src/hardware.c ****     ConnectPPP(FALSE);
 774              		.loc 1 389 0
 775 00d6 0020     		movs	r0, #0
 776 00d8 FFF7FEFF 		bl	ConnectPPP
 777              	.LVL98:
 778              	.L75:
 390:src/hardware.c ****   }
 391:src/hardware.c ****   if (os_hd_config()&K_HdLanInstalled) {
 779              		.loc 1 391 0
 780 00dc 4FF4D070 		mov	r0, #416
 781 00e0 FFF7FEFF 		bl	sys_func0
 782              	.LVL99:
 783 00e4 8306     		lsls	r3, r0, #26
 784 00e6 07D5     		bpl	.L79
 392:src/hardware.c ****     ThreadCreateMW(HotPlug, 100);
 785              		.loc 1 392 0
 786 00e8 0549     		ldr	r1, .L101
 787 00ea 6422     		movs	r2, #100
 788 00ec 7A20     		movs	r0, #122
 789 00ee FFF7FEFF 		bl	sys_func2
 790              	.LVL100:
ARM GAS  C:\Users\AHMED~1.ELE\AppData\Local\Temp\ccs0eGNj.s 			page 23


 791 00f2 01E0     		b	.L79
 792              	.LVL101:
 793              	.L76:
 304:src/hardware.c ****   if (os_batt_level()&K_PowerPluggedIn)
 794              		.loc 1 304 0
 795 00f4 0320     		movs	r0, #3
 796 00f6 00E0     		b	.L64
 797              	.LVL102:
 798              	.L79:
 393:src/hardware.c ****   }
 394:src/hardware.c **** 
 395:src/hardware.c ****   return ret;
 799              		.loc 1 395 0
 800 00f8 2046     		mov	r0, r4
 801              	.LVL103:
 802              	.L64:
 396:src/hardware.c **** }
 803              		.loc 1 396 0
 804 00fa 03B0     		add	sp, sp, #12
 805              		.cfi_def_cfa_offset 20
 806              		@ sp needed
 807 00fc F0BD     		pop	{r4, r5, r6, r7, pc}
 808              	.L102:
 809 00fe 00BF     		.align	2
 810              	.L101:
 811 0100 00000000 		.word	HotPlug
 812 0104 00000000 		.word	gDevHandle
 813              		.cfi_endproc
 814              	.LFE5:
 815              		.size	PwrSleep, .-PwrSleep
 816              		.comm	gTimerHdl,24,4
 817              		.comm	gDevHandle,28,4
 818              		.section	.rodata
 819              		.align	1
 820              		.set	.LANCHOR0,. + 0
 821              		.type	CSWTCH.10, %object
 822              		.size	CSWTCH.10, 12
 823              	CSWTCH.10:
 824 0000 0800     		.short	8
 825 0002 0400     		.short	4
 826 0004 1000     		.short	16
 827 0006 2000     		.short	32
 828 0008 0001     		.short	256
 829 000a 0200     		.short	2
 830              		.section	.rodata.str1.1,"aMS",%progbits,1
 831              	.LC0:
 832 0000 2F646576 		.ascii	"/dev/gprs\000"
 832      2F677072 
 832      7300
 833              	.LC1:
 834 000a 2F646576 		.ascii	"/dev/ppp1\000"
 834      2F707070 
 834      3100
 835              	.LC2:
 836 0014 2F646576 		.ascii	"/dev/wifi\000"
 836      2F776966 
 836      6900
ARM GAS  C:\Users\AHMED~1.ELE\AppData\Local\Temp\ccs0eGNj.s 			page 24


 837              	.LC3:
 838 001e 2F646576 		.ascii	"/dev/msr1\000"
 838      2F6D7372 
 838      3100
 839              	.LC4:
 840 0028 2F646576 		.ascii	"/dev/cdc1\000"
 840      2F636463 
 840      3100
 841              	.LC5:
 842 0032 2F646576 		.ascii	"/dev/mdm1\000"
 842      2F6D646D 
 842      3100
 843              		.text
 844              	.Letext0:
 845              		.file 2 "../LibA5T1000/common.h"
 846              		.file 3 "../LibA5T1000/system.h"
 847              		.file 4 "../LibA5T1000/basecall.h"
 848              		.file 5 "../LibA5T1000/midware.h"
 849              		.file 6 "../LibA5T1000/apm.h"
 850              		.file 7 "src/toggle.h"
 851              		.file 8 "../LibA5T1000/ecrdll.h"
 852              		.file 9 "src/hardware.h"
 853              		.file 10 "src/termdata.h"
 854              		.file 11 "c:\\devtools\\gcc_v49_2014q4\\arm-none-eabi\\include\\string.h"
 855              		.file 12 "src/comm.h"
 856              		.file 13 "src/wifi.h"
 857              		.file 14 "src/sysutil.h"