ARM GAS  C:\Users\AHMED~1.ELE\AppData\Local\Temp\ccnlbneC.s 			page 1


   1              		.syntax unified
   2              		.cpu cortex-a5
   3              		.fpu softvfp
   4              		.eabi_attribute 20, 1
   5              		.eabi_attribute 21, 1
   6              		.eabi_attribute 23, 3
   7              		.eabi_attribute 24, 1
   8              		.eabi_attribute 25, 1
   9              		.eabi_attribute 26, 1
  10              		.eabi_attribute 30, 4
  11              		.eabi_attribute 34, 0
  12              		.eabi_attribute 18, 4
  13              		.thumb
  14              		.file	"hashops.c"
  15              		.text
  16              	.Ltext0:
  17              		.cfi_sections	.debug_frame
  18              		.section	.text.hashops_finish_sha512,"ax",%progbits
  19              		.align	1
  20              		.thumb
  21              		.thumb_func
  22              		.type	hashops_finish_sha512, %function
  23              	hashops_finish_sha512:
  24              	.LFB17:
  25              		.file 1 "src/hashops.c"
   1:src/hashops.c **** #include "system.h"
   2:src/hashops.c **** #include "x509.h"
   3:src/hashops.c **** #include "hashops.h"
   4:src/hashops.c **** 
   5:src/hashops.c **** #define EXEC_MD5_INIT(x)          os_md5_init((x))
   6:src/hashops.c **** #define EXEC_MD5_UPDATE(c,p,l)    os_md5_process((c),(p),(l))
   7:src/hashops.c **** #define EXEC_MD5_FINISH(c,d)      os_md5_finish((c),(d))
   8:src/hashops.c **** 
   9:src/hashops.c **** #define EXEC_SHA1_INIT(x)         os_sha1_init((x))
  10:src/hashops.c **** #define EXEC_SHA1_UPDATE(c,p,l)   os_sha1_process((c),(p),(l))
  11:src/hashops.c **** #define EXEC_SHA1_FINISH(c,d)     os_sha1_finish((c),(d))
  12:src/hashops.c **** 
  13:src/hashops.c **** #define EXEC_SHA224_INIT(x)       os_sha224_init((x))
  14:src/hashops.c **** #define EXEC_SHA224_UPDATE(c,p,l) os_sha224_process((c),(p),(l))
  15:src/hashops.c **** #define EXEC_SHA224_FINISH(c,d)   os_sha224_finish((c),(d))
  16:src/hashops.c **** 
  17:src/hashops.c **** #define EXEC_SHA256_INIT(x)       os_sha256_init((x))
  18:src/hashops.c **** #define EXEC_SHA256_UPDATE(c,p,l) os_sha256_process((c),(p),(l))
  19:src/hashops.c **** #define EXEC_SHA256_FINISH(c,d)   os_sha256_finish((c),(d))
  20:src/hashops.c **** 
  21:src/hashops.c **** #define EXEC_SHA384_INIT(x)       os_sha384_init((x))
  22:src/hashops.c **** #define EXEC_SHA384_UPDATE(c,p,l) os_sha384_process((c),(p),(l))
  23:src/hashops.c **** #define EXEC_SHA384_FINISH(c,d)   os_sha384_finish((c),(d))
  24:src/hashops.c **** 
  25:src/hashops.c **** #define EXEC_SHA512_INIT(x)       os_sha512_init((x))
  26:src/hashops.c **** #define EXEC_SHA512_UPDATE(c,p,l) os_sha512_process((c),(p),(l))
  27:src/hashops.c **** #define EXEC_SHA512_FINISH(c,d)   os_sha512_finish((c),(d))
  28:src/hashops.c **** 
  29:src/hashops.c **** static void hashops_init_md5(T_HASH_OPS_CTX *ctx);
  30:src/hashops.c **** static void hashops_update_md5(T_HASH_OPS_CTX *ctx, BYTE *data, DWORD len);
  31:src/hashops.c **** static void hashops_finish_md5(T_HASH_OPS_CTX *ctx, BYTE *digest);
  32:src/hashops.c **** 
ARM GAS  C:\Users\AHMED~1.ELE\AppData\Local\Temp\ccnlbneC.s 			page 2


  33:src/hashops.c **** static void hashops_init_sha1(T_HASH_OPS_CTX *ctx);
  34:src/hashops.c **** static void hashops_update_sha1(T_HASH_OPS_CTX *ctx, BYTE *data, DWORD len);
  35:src/hashops.c **** static void hashops_finish_sha1(T_HASH_OPS_CTX *ctx, BYTE *digest);
  36:src/hashops.c **** 
  37:src/hashops.c **** static void hashops_init_sha224(T_HASH_OPS_CTX *ctx);
  38:src/hashops.c **** static void hashops_update_sha224(T_HASH_OPS_CTX *ctx, BYTE *data, DWORD len);
  39:src/hashops.c **** static void hashops_finish_sha224(T_HASH_OPS_CTX *ctx, BYTE *digest);
  40:src/hashops.c **** 
  41:src/hashops.c **** static void hashops_init_sha256(T_HASH_OPS_CTX *ctx);
  42:src/hashops.c **** static void hashops_update_sha256(T_HASH_OPS_CTX *ctx, BYTE *data, DWORD len);
  43:src/hashops.c **** static void hashops_finish_sha256(T_HASH_OPS_CTX *ctx, BYTE *digest);
  44:src/hashops.c **** 
  45:src/hashops.c **** static void hashops_init_sha384(T_HASH_OPS_CTX *ctx);
  46:src/hashops.c **** static void hashops_update_sha384(T_HASH_OPS_CTX *ctx, BYTE *data, DWORD len);
  47:src/hashops.c **** static void hashops_finish_sha384(T_HASH_OPS_CTX *ctx, BYTE *digest);
  48:src/hashops.c **** 
  49:src/hashops.c **** static void hashops_init_sha512(T_HASH_OPS_CTX *ctx);
  50:src/hashops.c **** static void hashops_update_sha512(T_HASH_OPS_CTX *ctx, BYTE *data, DWORD len);
  51:src/hashops.c **** static void hashops_finish_sha512(T_HASH_OPS_CTX *ctx, BYTE *digest);
  52:src/hashops.c **** 
  53:src/hashops.c **** static T_HASH_OPS s_hash_ops_table[E_HashOps_AlgoId_MAX] = {
  54:src/hashops.c ****   {				/* E_HashOps_AlgoId_MIN */
  55:src/hashops.c ****     .dgst_len = 0,
  56:src/hashops.c ****     .init     = 0,
  57:src/hashops.c ****     .update   = 0,
  58:src/hashops.c ****     .finish   = 0,
  59:src/hashops.c ****     .algo_type_id = 0
  60:src/hashops.c ****   },
  61:src/hashops.c ****   {				/* E_HashOps_AlgoId_md5 */
  62:src/hashops.c ****     .dgst_len = K_X509_MacLen_Md5,
  63:src/hashops.c ****     .init     = hashops_init_md5,
  64:src/hashops.c ****     .update   = hashops_update_md5,
  65:src/hashops.c ****     .finish   = hashops_finish_md5,
  66:src/hashops.c ****     .algo_type_id = E_HashOps_AlgoId_md5
  67:src/hashops.c ****   },
  68:src/hashops.c ****   {				/* E_HashOps_AlgoId_sha1 */
  69:src/hashops.c ****     .dgst_len = K_X509_MacLen_Sha1,
  70:src/hashops.c ****     .init     = hashops_init_sha1,
  71:src/hashops.c ****     .update   = hashops_update_sha1,
  72:src/hashops.c ****     .finish   = hashops_finish_sha1,
  73:src/hashops.c ****     .algo_type_id = E_HashOps_AlgoId_sha1
  74:src/hashops.c ****   },
  75:src/hashops.c ****   {				/* E_HashOps_AlgoId_sha224 */
  76:src/hashops.c ****     .dgst_len = K_X509_MacLen_Sha224,
  77:src/hashops.c ****     .init     = hashops_init_sha224,
  78:src/hashops.c ****     .update   = hashops_update_sha224,
  79:src/hashops.c ****     .finish   = hashops_finish_sha224,
  80:src/hashops.c ****     .algo_type_id = E_HashOps_AlgoId_sha224
  81:src/hashops.c ****   },
  82:src/hashops.c ****   {				/* E_HashOps_AlgoId_sha256 */
  83:src/hashops.c ****     .dgst_len = K_X509_MacLen_Sha256,
  84:src/hashops.c ****     .init     = hashops_init_sha256,
  85:src/hashops.c ****     .update   = hashops_update_sha256,
  86:src/hashops.c ****     .finish   = hashops_finish_sha256,
  87:src/hashops.c ****     .algo_type_id = E_HashOps_AlgoId_sha256
  88:src/hashops.c ****   },
  89:src/hashops.c ****   {				/* E_HashOps_AlgoId_sha384 */
ARM GAS  C:\Users\AHMED~1.ELE\AppData\Local\Temp\ccnlbneC.s 			page 3


  90:src/hashops.c ****     .dgst_len = K_X509_MacLen_Sha384,
  91:src/hashops.c ****     .init     = hashops_init_sha384,
  92:src/hashops.c ****     .update   = hashops_update_sha384,
  93:src/hashops.c ****     .finish   = hashops_finish_sha384,
  94:src/hashops.c ****     .algo_type_id = E_HashOps_AlgoId_sha384
  95:src/hashops.c ****   },
  96:src/hashops.c ****   {				/* E_HashOps_AlgoId_sha512 */
  97:src/hashops.c ****     .dgst_len = K_X509_MacLen_Sha512,
  98:src/hashops.c ****     .init     = hashops_init_sha512,
  99:src/hashops.c ****     .update   = hashops_update_sha512,
 100:src/hashops.c ****     .finish   = hashops_finish_sha512,
 101:src/hashops.c ****     .algo_type_id = E_HashOps_AlgoId_sha512
 102:src/hashops.c ****   }
 103:src/hashops.c **** };
 104:src/hashops.c **** 
 105:src/hashops.c **** static void hashops_init_md5(T_HASH_OPS_CTX *ctx)
 106:src/hashops.c **** {
 107:src/hashops.c ****   EXEC_MD5_INIT(&ctx->s_md5);
 108:src/hashops.c **** }
 109:src/hashops.c **** 
 110:src/hashops.c **** static void hashops_update_md5(T_HASH_OPS_CTX *ctx, BYTE *data, DWORD len)
 111:src/hashops.c **** {
 112:src/hashops.c ****   EXEC_MD5_UPDATE(&ctx->s_md5,data,len);
 113:src/hashops.c **** }
 114:src/hashops.c **** 
 115:src/hashops.c **** static void hashops_finish_md5(T_HASH_OPS_CTX *ctx, BYTE *digest)
 116:src/hashops.c **** {
 117:src/hashops.c ****   EXEC_MD5_FINISH(&ctx->s_md5,digest);
 118:src/hashops.c **** }
 119:src/hashops.c **** 
 120:src/hashops.c **** static void hashops_init_sha1(T_HASH_OPS_CTX *ctx)
 121:src/hashops.c **** {
 122:src/hashops.c ****   EXEC_SHA1_INIT(&ctx->s_sha1);
 123:src/hashops.c **** }
 124:src/hashops.c **** 
 125:src/hashops.c **** static void hashops_update_sha1(T_HASH_OPS_CTX *ctx, BYTE *data, DWORD len)
 126:src/hashops.c **** {
 127:src/hashops.c ****   EXEC_SHA1_UPDATE(&ctx->s_sha1,data,len);
 128:src/hashops.c **** }
 129:src/hashops.c **** 
 130:src/hashops.c **** static void hashops_finish_sha1(T_HASH_OPS_CTX *ctx, BYTE *digest)
 131:src/hashops.c **** {
 132:src/hashops.c ****   EXEC_SHA1_FINISH(&ctx->s_sha1,digest);
 133:src/hashops.c **** }
 134:src/hashops.c **** 
 135:src/hashops.c **** static void hashops_init_sha224(T_HASH_OPS_CTX *ctx)
 136:src/hashops.c **** {
 137:src/hashops.c ****   EXEC_SHA224_INIT(&ctx->s_sha224);
 138:src/hashops.c **** }
 139:src/hashops.c **** 
 140:src/hashops.c **** static void hashops_update_sha224(T_HASH_OPS_CTX *ctx, BYTE *data, DWORD len)
 141:src/hashops.c **** {
 142:src/hashops.c ****   EXEC_SHA224_UPDATE(&ctx->s_sha224,data,len);
 143:src/hashops.c **** }
 144:src/hashops.c **** 
 145:src/hashops.c **** static void hashops_finish_sha224(T_HASH_OPS_CTX *ctx, BYTE *digest)
 146:src/hashops.c **** {
ARM GAS  C:\Users\AHMED~1.ELE\AppData\Local\Temp\ccnlbneC.s 			page 4


 147:src/hashops.c ****   EXEC_SHA224_FINISH(&ctx->s_sha224,digest);
 148:src/hashops.c **** }
 149:src/hashops.c **** 
 150:src/hashops.c **** static void hashops_init_sha256(T_HASH_OPS_CTX *ctx)
 151:src/hashops.c **** {
 152:src/hashops.c ****   EXEC_SHA256_INIT(&ctx->s_sha256);
 153:src/hashops.c **** }
 154:src/hashops.c **** 
 155:src/hashops.c **** static void hashops_update_sha256(T_HASH_OPS_CTX *ctx, BYTE *data, DWORD len)
 156:src/hashops.c **** {
 157:src/hashops.c ****   EXEC_SHA256_UPDATE(&ctx->s_sha256,data,len);
 158:src/hashops.c **** }
 159:src/hashops.c **** 
 160:src/hashops.c **** static void hashops_finish_sha256(T_HASH_OPS_CTX *ctx, BYTE *digest)
 161:src/hashops.c **** {
 162:src/hashops.c ****   EXEC_SHA256_FINISH(&ctx->s_sha256,digest);
 163:src/hashops.c **** }
 164:src/hashops.c **** 
 165:src/hashops.c **** static void hashops_init_sha384(T_HASH_OPS_CTX *ctx)
 166:src/hashops.c **** {
 167:src/hashops.c ****   EXEC_SHA384_INIT(&ctx->s_sha384);
 168:src/hashops.c **** }
 169:src/hashops.c **** 
 170:src/hashops.c **** static void hashops_update_sha384(T_HASH_OPS_CTX *ctx, BYTE *data, DWORD len)
 171:src/hashops.c **** {
 172:src/hashops.c ****   EXEC_SHA384_UPDATE(&ctx->s_sha384,data,len);
 173:src/hashops.c **** }
 174:src/hashops.c **** 
 175:src/hashops.c **** static void hashops_finish_sha384(T_HASH_OPS_CTX *ctx, BYTE *digest)
 176:src/hashops.c **** {
 177:src/hashops.c ****   EXEC_SHA384_FINISH(&ctx->s_sha384,digest);
 178:src/hashops.c **** }
 179:src/hashops.c **** 
 180:src/hashops.c **** static void hashops_init_sha512(T_HASH_OPS_CTX *ctx)
 181:src/hashops.c **** {
 182:src/hashops.c ****   EXEC_SHA512_INIT(&ctx->s_sha512);
 183:src/hashops.c **** }
 184:src/hashops.c **** 
 185:src/hashops.c **** static void hashops_update_sha512(T_HASH_OPS_CTX *ctx, BYTE *data, DWORD len)
 186:src/hashops.c **** {
 187:src/hashops.c ****   EXEC_SHA512_UPDATE(&ctx->s_sha512,data,len);
 188:src/hashops.c **** }
 189:src/hashops.c **** 
 190:src/hashops.c **** static void hashops_finish_sha512(T_HASH_OPS_CTX *ctx, BYTE *digest)
 191:src/hashops.c **** {
  26              		.loc 1 191 0
  27              		.cfi_startproc
  28              		@ args = 0, pretend = 0, frame = 0
  29              		@ frame_needed = 0, uses_anonymous_args = 0
  30              		@ link register save eliminated.
  31              	.LVL0:
  32              		.loc 1 191 0
  33 0000 0346     		mov	r3, r0
  34 0002 0A46     		mov	r2, r1
 192:src/hashops.c ****   EXEC_SHA512_FINISH(&ctx->s_sha512,digest);
  35              		.loc 1 192 0
  36 0004 5620     		movs	r0, #86
ARM GAS  C:\Users\AHMED~1.ELE\AppData\Local\Temp\ccnlbneC.s 			page 5


  37              	.LVL1:
  38 0006 1946     		mov	r1, r3
  39              	.LVL2:
  40 0008 FFF7FEBF 		b	sys_func2
  41              	.LVL3:
  42              		.cfi_endproc
  43              	.LFE17:
  44              		.size	hashops_finish_sha512, .-hashops_finish_sha512
  45              		.section	.text.hashops_finish_sha384,"ax",%progbits
  46              		.align	1
  47              		.thumb
  48              		.thumb_func
  49              		.type	hashops_finish_sha384, %function
  50              	hashops_finish_sha384:
  51              	.LFB14:
 176:src/hashops.c ****   EXEC_SHA384_FINISH(&ctx->s_sha384,digest);
  52              		.loc 1 176 0
  53              		.cfi_startproc
  54              		@ args = 0, pretend = 0, frame = 0
  55              		@ frame_needed = 0, uses_anonymous_args = 0
  56              		@ link register save eliminated.
  57              	.LVL4:
 176:src/hashops.c ****   EXEC_SHA384_FINISH(&ctx->s_sha384,digest);
  58              		.loc 1 176 0
  59 0000 0346     		mov	r3, r0
  60 0002 0A46     		mov	r2, r1
 177:src/hashops.c **** }
  61              		.loc 1 177 0
  62 0004 5620     		movs	r0, #86
  63              	.LVL5:
  64 0006 1946     		mov	r1, r3
  65              	.LVL6:
  66 0008 FFF7FEBF 		b	sys_func2
  67              	.LVL7:
  68              		.cfi_endproc
  69              	.LFE14:
  70              		.size	hashops_finish_sha384, .-hashops_finish_sha384
  71              		.section	.text.hashops_finish_sha256,"ax",%progbits
  72              		.align	1
  73              		.thumb
  74              		.thumb_func
  75              		.type	hashops_finish_sha256, %function
  76              	hashops_finish_sha256:
  77              	.LFB11:
 161:src/hashops.c ****   EXEC_SHA256_FINISH(&ctx->s_sha256,digest);
  78              		.loc 1 161 0
  79              		.cfi_startproc
  80              		@ args = 0, pretend = 0, frame = 0
  81              		@ frame_needed = 0, uses_anonymous_args = 0
  82              		@ link register save eliminated.
  83              	.LVL8:
 161:src/hashops.c ****   EXEC_SHA256_FINISH(&ctx->s_sha256,digest);
  84              		.loc 1 161 0
  85 0000 0346     		mov	r3, r0
  86 0002 0A46     		mov	r2, r1
 162:src/hashops.c **** }
  87              		.loc 1 162 0
ARM GAS  C:\Users\AHMED~1.ELE\AppData\Local\Temp\ccnlbneC.s 			page 6


  88 0004 5620     		movs	r0, #86
  89              	.LVL9:
  90 0006 1946     		mov	r1, r3
  91              	.LVL10:
  92 0008 FFF7FEBF 		b	sys_func2
  93              	.LVL11:
  94              		.cfi_endproc
  95              	.LFE11:
  96              		.size	hashops_finish_sha256, .-hashops_finish_sha256
  97              		.section	.text.hashops_finish_sha224,"ax",%progbits
  98              		.align	1
  99              		.thumb
 100              		.thumb_func
 101              		.type	hashops_finish_sha224, %function
 102              	hashops_finish_sha224:
 103              	.LFB8:
 146:src/hashops.c ****   EXEC_SHA224_FINISH(&ctx->s_sha224,digest);
 104              		.loc 1 146 0
 105              		.cfi_startproc
 106              		@ args = 0, pretend = 0, frame = 0
 107              		@ frame_needed = 0, uses_anonymous_args = 0
 108              		@ link register save eliminated.
 109              	.LVL12:
 146:src/hashops.c ****   EXEC_SHA224_FINISH(&ctx->s_sha224,digest);
 110              		.loc 1 146 0
 111 0000 0346     		mov	r3, r0
 112 0002 0A46     		mov	r2, r1
 147:src/hashops.c **** }
 113              		.loc 1 147 0
 114 0004 5620     		movs	r0, #86
 115              	.LVL13:
 116 0006 1946     		mov	r1, r3
 117              	.LVL14:
 118 0008 FFF7FEBF 		b	sys_func2
 119              	.LVL15:
 120              		.cfi_endproc
 121              	.LFE8:
 122              		.size	hashops_finish_sha224, .-hashops_finish_sha224
 123              		.section	.text.hashops_finish_sha1,"ax",%progbits
 124              		.align	1
 125              		.thumb
 126              		.thumb_func
 127              		.type	hashops_finish_sha1, %function
 128              	hashops_finish_sha1:
 129              	.LFB5:
 131:src/hashops.c ****   EXEC_SHA1_FINISH(&ctx->s_sha1,digest);
 130              		.loc 1 131 0
 131              		.cfi_startproc
 132              		@ args = 0, pretend = 0, frame = 0
 133              		@ frame_needed = 0, uses_anonymous_args = 0
 134              		@ link register save eliminated.
 135              	.LVL16:
 131:src/hashops.c ****   EXEC_SHA1_FINISH(&ctx->s_sha1,digest);
 136              		.loc 1 131 0
 137 0000 0346     		mov	r3, r0
 138 0002 0A46     		mov	r2, r1
 132:src/hashops.c **** }
ARM GAS  C:\Users\AHMED~1.ELE\AppData\Local\Temp\ccnlbneC.s 			page 7


 139              		.loc 1 132 0
 140 0004 5620     		movs	r0, #86
 141              	.LVL17:
 142 0006 1946     		mov	r1, r3
 143              	.LVL18:
 144 0008 FFF7FEBF 		b	sys_func2
 145              	.LVL19:
 146              		.cfi_endproc
 147              	.LFE5:
 148              		.size	hashops_finish_sha1, .-hashops_finish_sha1
 149              		.section	.text.hashops_finish_md5,"ax",%progbits
 150              		.align	1
 151              		.thumb
 152              		.thumb_func
 153              		.type	hashops_finish_md5, %function
 154              	hashops_finish_md5:
 155              	.LFB2:
 116:src/hashops.c ****   EXEC_MD5_FINISH(&ctx->s_md5,digest);
 156              		.loc 1 116 0
 157              		.cfi_startproc
 158              		@ args = 0, pretend = 0, frame = 0
 159              		@ frame_needed = 0, uses_anonymous_args = 0
 160              		@ link register save eliminated.
 161              	.LVL20:
 116:src/hashops.c ****   EXEC_MD5_FINISH(&ctx->s_md5,digest);
 162              		.loc 1 116 0
 163 0000 0346     		mov	r3, r0
 164 0002 0A46     		mov	r2, r1
 117:src/hashops.c **** }
 165              		.loc 1 117 0
 166 0004 5320     		movs	r0, #83
 167              	.LVL21:
 168 0006 1946     		mov	r1, r3
 169              	.LVL22:
 170 0008 FFF7FEBF 		b	sys_func2
 171              	.LVL23:
 172              		.cfi_endproc
 173              	.LFE2:
 174              		.size	hashops_finish_md5, .-hashops_finish_md5
 175              		.section	.text.hashops_update_sha512,"ax",%progbits
 176              		.align	1
 177              		.thumb
 178              		.thumb_func
 179              		.type	hashops_update_sha512, %function
 180              	hashops_update_sha512:
 181              	.LFB16:
 186:src/hashops.c ****   EXEC_SHA512_UPDATE(&ctx->s_sha512,data,len);
 182              		.loc 1 186 0
 183              		.cfi_startproc
 184              		@ args = 0, pretend = 0, frame = 0
 185              		@ frame_needed = 0, uses_anonymous_args = 0
 186              	.LVL24:
 187 0000 30B5     		push	{r4, r5, lr}
 188              		.cfi_def_cfa_offset 12
 189              		.cfi_offset 4, -12
 190              		.cfi_offset 5, -8
 191              		.cfi_offset 14, -4
ARM GAS  C:\Users\AHMED~1.ELE\AppData\Local\Temp\ccnlbneC.s 			page 8


 186:src/hashops.c ****   EXEC_SHA512_UPDATE(&ctx->s_sha512,data,len);
 192              		.loc 1 186 0
 193 0002 0546     		mov	r5, r0
 194 0004 0C46     		mov	r4, r1
 195 0006 1346     		mov	r3, r2
 187:src/hashops.c **** }
 196              		.loc 1 187 0
 197 0008 2946     		mov	r1, r5
 198              	.LVL25:
 199 000a 2246     		mov	r2, r4
 200              	.LVL26:
 188:src/hashops.c **** 
 201              		.loc 1 188 0
 202 000c BDE83040 		pop	{r4, r5, lr}
 203              		.cfi_restore 14
 204              		.cfi_restore 5
 205              		.cfi_restore 4
 206              		.cfi_def_cfa_offset 0
 207              	.LVL27:
 187:src/hashops.c **** }
 208              		.loc 1 187 0
 209 0010 5520     		movs	r0, #85
 210              	.LVL28:
 211 0012 FFF7FEBF 		b	sys_func3
 212              	.LVL29:
 213              		.cfi_endproc
 214              	.LFE16:
 215              		.size	hashops_update_sha512, .-hashops_update_sha512
 216              		.section	.text.hashops_init_sha512,"ax",%progbits
 217              		.align	1
 218              		.thumb
 219              		.thumb_func
 220              		.type	hashops_init_sha512, %function
 221              	hashops_init_sha512:
 222              	.LFB15:
 181:src/hashops.c ****   EXEC_SHA512_INIT(&ctx->s_sha512);
 223              		.loc 1 181 0
 224              		.cfi_startproc
 225              		@ args = 0, pretend = 0, frame = 0
 226              		@ frame_needed = 0, uses_anonymous_args = 0
 227              		@ link register save eliminated.
 228              	.LVL30:
 181:src/hashops.c ****   EXEC_SHA512_INIT(&ctx->s_sha512);
 229              		.loc 1 181 0
 230 0000 0146     		mov	r1, r0
 182:src/hashops.c **** }
 231              		.loc 1 182 0
 232 0002 0322     		movs	r2, #3
 233 0004 5420     		movs	r0, #84
 234              	.LVL31:
 235 0006 0023     		movs	r3, #0
 236 0008 FFF7FEBF 		b	sys_func3
 237              	.LVL32:
 238              		.cfi_endproc
 239              	.LFE15:
 240              		.size	hashops_init_sha512, .-hashops_init_sha512
 241              		.section	.text.hashops_update_sha384,"ax",%progbits
ARM GAS  C:\Users\AHMED~1.ELE\AppData\Local\Temp\ccnlbneC.s 			page 9


 242              		.align	1
 243              		.thumb
 244              		.thumb_func
 245              		.type	hashops_update_sha384, %function
 246              	hashops_update_sha384:
 247              	.LFB13:
 171:src/hashops.c ****   EXEC_SHA384_UPDATE(&ctx->s_sha384,data,len);
 248              		.loc 1 171 0
 249              		.cfi_startproc
 250              		@ args = 0, pretend = 0, frame = 0
 251              		@ frame_needed = 0, uses_anonymous_args = 0
 252              	.LVL33:
 253 0000 30B5     		push	{r4, r5, lr}
 254              		.cfi_def_cfa_offset 12
 255              		.cfi_offset 4, -12
 256              		.cfi_offset 5, -8
 257              		.cfi_offset 14, -4
 171:src/hashops.c ****   EXEC_SHA384_UPDATE(&ctx->s_sha384,data,len);
 258              		.loc 1 171 0
 259 0002 0546     		mov	r5, r0
 260 0004 0C46     		mov	r4, r1
 261 0006 1346     		mov	r3, r2
 172:src/hashops.c **** }
 262              		.loc 1 172 0
 263 0008 2946     		mov	r1, r5
 264              	.LVL34:
 265 000a 2246     		mov	r2, r4
 266              	.LVL35:
 173:src/hashops.c **** 
 267              		.loc 1 173 0
 268 000c BDE83040 		pop	{r4, r5, lr}
 269              		.cfi_restore 14
 270              		.cfi_restore 5
 271              		.cfi_restore 4
 272              		.cfi_def_cfa_offset 0
 273              	.LVL36:
 172:src/hashops.c **** }
 274              		.loc 1 172 0
 275 0010 5520     		movs	r0, #85
 276              	.LVL37:
 277 0012 FFF7FEBF 		b	sys_func3
 278              	.LVL38:
 279              		.cfi_endproc
 280              	.LFE13:
 281              		.size	hashops_update_sha384, .-hashops_update_sha384
 282              		.section	.text.hashops_init_sha384,"ax",%progbits
 283              		.align	1
 284              		.thumb
 285              		.thumb_func
 286              		.type	hashops_init_sha384, %function
 287              	hashops_init_sha384:
 288              	.LFB12:
 166:src/hashops.c ****   EXEC_SHA384_INIT(&ctx->s_sha384);
 289              		.loc 1 166 0
 290              		.cfi_startproc
 291              		@ args = 0, pretend = 0, frame = 0
 292              		@ frame_needed = 0, uses_anonymous_args = 0
ARM GAS  C:\Users\AHMED~1.ELE\AppData\Local\Temp\ccnlbneC.s 			page 10


 293              		@ link register save eliminated.
 294              	.LVL39:
 166:src/hashops.c ****   EXEC_SHA384_INIT(&ctx->s_sha384);
 295              		.loc 1 166 0
 296 0000 0146     		mov	r1, r0
 167:src/hashops.c **** }
 297              		.loc 1 167 0
 298 0002 0222     		movs	r2, #2
 299 0004 5420     		movs	r0, #84
 300              	.LVL40:
 301 0006 0023     		movs	r3, #0
 302 0008 FFF7FEBF 		b	sys_func3
 303              	.LVL41:
 304              		.cfi_endproc
 305              	.LFE12:
 306              		.size	hashops_init_sha384, .-hashops_init_sha384
 307              		.section	.text.hashops_update_sha256,"ax",%progbits
 308              		.align	1
 309              		.thumb
 310              		.thumb_func
 311              		.type	hashops_update_sha256, %function
 312              	hashops_update_sha256:
 313              	.LFB10:
 156:src/hashops.c ****   EXEC_SHA256_UPDATE(&ctx->s_sha256,data,len);
 314              		.loc 1 156 0
 315              		.cfi_startproc
 316              		@ args = 0, pretend = 0, frame = 0
 317              		@ frame_needed = 0, uses_anonymous_args = 0
 318              	.LVL42:
 319 0000 30B5     		push	{r4, r5, lr}
 320              		.cfi_def_cfa_offset 12
 321              		.cfi_offset 4, -12
 322              		.cfi_offset 5, -8
 323              		.cfi_offset 14, -4
 156:src/hashops.c ****   EXEC_SHA256_UPDATE(&ctx->s_sha256,data,len);
 324              		.loc 1 156 0
 325 0002 0546     		mov	r5, r0
 326 0004 0C46     		mov	r4, r1
 327 0006 1346     		mov	r3, r2
 157:src/hashops.c **** }
 328              		.loc 1 157 0
 329 0008 2946     		mov	r1, r5
 330              	.LVL43:
 331 000a 2246     		mov	r2, r4
 332              	.LVL44:
 158:src/hashops.c **** 
 333              		.loc 1 158 0
 334 000c BDE83040 		pop	{r4, r5, lr}
 335              		.cfi_restore 14
 336              		.cfi_restore 5
 337              		.cfi_restore 4
 338              		.cfi_def_cfa_offset 0
 339              	.LVL45:
 157:src/hashops.c **** }
 340              		.loc 1 157 0
 341 0010 5520     		movs	r0, #85
 342              	.LVL46:
ARM GAS  C:\Users\AHMED~1.ELE\AppData\Local\Temp\ccnlbneC.s 			page 11


 343 0012 FFF7FEBF 		b	sys_func3
 344              	.LVL47:
 345              		.cfi_endproc
 346              	.LFE10:
 347              		.size	hashops_update_sha256, .-hashops_update_sha256
 348              		.section	.text.hashops_init_sha256,"ax",%progbits
 349              		.align	1
 350              		.thumb
 351              		.thumb_func
 352              		.type	hashops_init_sha256, %function
 353              	hashops_init_sha256:
 354              	.LFB9:
 151:src/hashops.c ****   EXEC_SHA256_INIT(&ctx->s_sha256);
 355              		.loc 1 151 0
 356              		.cfi_startproc
 357              		@ args = 0, pretend = 0, frame = 0
 358              		@ frame_needed = 0, uses_anonymous_args = 0
 359              		@ link register save eliminated.
 360              	.LVL48:
 151:src/hashops.c ****   EXEC_SHA256_INIT(&ctx->s_sha256);
 361              		.loc 1 151 0
 362 0000 0146     		mov	r1, r0
 152:src/hashops.c **** }
 363              		.loc 1 152 0
 364 0002 0122     		movs	r2, #1
 365 0004 5420     		movs	r0, #84
 366              	.LVL49:
 367 0006 0023     		movs	r3, #0
 368 0008 FFF7FEBF 		b	sys_func3
 369              	.LVL50:
 370              		.cfi_endproc
 371              	.LFE9:
 372              		.size	hashops_init_sha256, .-hashops_init_sha256
 373              		.section	.text.hashops_update_sha224,"ax",%progbits
 374              		.align	1
 375              		.thumb
 376              		.thumb_func
 377              		.type	hashops_update_sha224, %function
 378              	hashops_update_sha224:
 379              	.LFB7:
 141:src/hashops.c ****   EXEC_SHA224_UPDATE(&ctx->s_sha224,data,len);
 380              		.loc 1 141 0
 381              		.cfi_startproc
 382              		@ args = 0, pretend = 0, frame = 0
 383              		@ frame_needed = 0, uses_anonymous_args = 0
 384              	.LVL51:
 385 0000 30B5     		push	{r4, r5, lr}
 386              		.cfi_def_cfa_offset 12
 387              		.cfi_offset 4, -12
 388              		.cfi_offset 5, -8
 389              		.cfi_offset 14, -4
 141:src/hashops.c ****   EXEC_SHA224_UPDATE(&ctx->s_sha224,data,len);
 390              		.loc 1 141 0
 391 0002 0546     		mov	r5, r0
 392 0004 0C46     		mov	r4, r1
 393 0006 1346     		mov	r3, r2
 142:src/hashops.c **** }
ARM GAS  C:\Users\AHMED~1.ELE\AppData\Local\Temp\ccnlbneC.s 			page 12


 394              		.loc 1 142 0
 395 0008 2946     		mov	r1, r5
 396              	.LVL52:
 397 000a 2246     		mov	r2, r4
 398              	.LVL53:
 143:src/hashops.c **** 
 399              		.loc 1 143 0
 400 000c BDE83040 		pop	{r4, r5, lr}
 401              		.cfi_restore 14
 402              		.cfi_restore 5
 403              		.cfi_restore 4
 404              		.cfi_def_cfa_offset 0
 405              	.LVL54:
 142:src/hashops.c **** }
 406              		.loc 1 142 0
 407 0010 5520     		movs	r0, #85
 408              	.LVL55:
 409 0012 FFF7FEBF 		b	sys_func3
 410              	.LVL56:
 411              		.cfi_endproc
 412              	.LFE7:
 413              		.size	hashops_update_sha224, .-hashops_update_sha224
 414              		.section	.text.hashops_init_sha224,"ax",%progbits
 415              		.align	1
 416              		.thumb
 417              		.thumb_func
 418              		.type	hashops_init_sha224, %function
 419              	hashops_init_sha224:
 420              	.LFB6:
 136:src/hashops.c ****   EXEC_SHA224_INIT(&ctx->s_sha224);
 421              		.loc 1 136 0
 422              		.cfi_startproc
 423              		@ args = 0, pretend = 0, frame = 0
 424              		@ frame_needed = 0, uses_anonymous_args = 0
 425              		@ link register save eliminated.
 426              	.LVL57:
 136:src/hashops.c ****   EXEC_SHA224_INIT(&ctx->s_sha224);
 427              		.loc 1 136 0
 428 0000 0146     		mov	r1, r0
 137:src/hashops.c **** }
 429              		.loc 1 137 0
 430 0002 0422     		movs	r2, #4
 431 0004 5420     		movs	r0, #84
 432              	.LVL58:
 433 0006 0023     		movs	r3, #0
 434 0008 FFF7FEBF 		b	sys_func3
 435              	.LVL59:
 436              		.cfi_endproc
 437              	.LFE6:
 438              		.size	hashops_init_sha224, .-hashops_init_sha224
 439              		.section	.text.hashops_update_sha1,"ax",%progbits
 440              		.align	1
 441              		.thumb
 442              		.thumb_func
 443              		.type	hashops_update_sha1, %function
 444              	hashops_update_sha1:
 445              	.LFB4:
ARM GAS  C:\Users\AHMED~1.ELE\AppData\Local\Temp\ccnlbneC.s 			page 13


 126:src/hashops.c ****   EXEC_SHA1_UPDATE(&ctx->s_sha1,data,len);
 446              		.loc 1 126 0
 447              		.cfi_startproc
 448              		@ args = 0, pretend = 0, frame = 0
 449              		@ frame_needed = 0, uses_anonymous_args = 0
 450              	.LVL60:
 451 0000 30B5     		push	{r4, r5, lr}
 452              		.cfi_def_cfa_offset 12
 453              		.cfi_offset 4, -12
 454              		.cfi_offset 5, -8
 455              		.cfi_offset 14, -4
 126:src/hashops.c ****   EXEC_SHA1_UPDATE(&ctx->s_sha1,data,len);
 456              		.loc 1 126 0
 457 0002 0546     		mov	r5, r0
 458 0004 0C46     		mov	r4, r1
 459 0006 1346     		mov	r3, r2
 127:src/hashops.c **** }
 460              		.loc 1 127 0
 461 0008 2946     		mov	r1, r5
 462              	.LVL61:
 463 000a 2246     		mov	r2, r4
 464              	.LVL62:
 128:src/hashops.c **** 
 465              		.loc 1 128 0
 466 000c BDE83040 		pop	{r4, r5, lr}
 467              		.cfi_restore 14
 468              		.cfi_restore 5
 469              		.cfi_restore 4
 470              		.cfi_def_cfa_offset 0
 471              	.LVL63:
 127:src/hashops.c **** }
 472              		.loc 1 127 0
 473 0010 5520     		movs	r0, #85
 474              	.LVL64:
 475 0012 FFF7FEBF 		b	sys_func3
 476              	.LVL65:
 477              		.cfi_endproc
 478              	.LFE4:
 479              		.size	hashops_update_sha1, .-hashops_update_sha1
 480              		.section	.text.hashops_init_sha1,"ax",%progbits
 481              		.align	1
 482              		.thumb
 483              		.thumb_func
 484              		.type	hashops_init_sha1, %function
 485              	hashops_init_sha1:
 486              	.LFB3:
 121:src/hashops.c ****   EXEC_SHA1_INIT(&ctx->s_sha1);
 487              		.loc 1 121 0
 488              		.cfi_startproc
 489              		@ args = 0, pretend = 0, frame = 0
 490              		@ frame_needed = 0, uses_anonymous_args = 0
 491              		@ link register save eliminated.
 492              	.LVL66:
 122:src/hashops.c **** }
 493              		.loc 1 122 0
 494 0000 0022     		movs	r2, #0
 121:src/hashops.c ****   EXEC_SHA1_INIT(&ctx->s_sha1);
ARM GAS  C:\Users\AHMED~1.ELE\AppData\Local\Temp\ccnlbneC.s 			page 14


 495              		.loc 1 121 0
 496 0002 0146     		mov	r1, r0
 122:src/hashops.c **** }
 497              		.loc 1 122 0
 498 0004 1346     		mov	r3, r2
 499 0006 5420     		movs	r0, #84
 500              	.LVL67:
 501 0008 FFF7FEBF 		b	sys_func3
 502              	.LVL68:
 503              		.cfi_endproc
 504              	.LFE3:
 505              		.size	hashops_init_sha1, .-hashops_init_sha1
 506              		.section	.text.hashops_update_md5,"ax",%progbits
 507              		.align	1
 508              		.thumb
 509              		.thumb_func
 510              		.type	hashops_update_md5, %function
 511              	hashops_update_md5:
 512              	.LFB1:
 111:src/hashops.c ****   EXEC_MD5_UPDATE(&ctx->s_md5,data,len);
 513              		.loc 1 111 0
 514              		.cfi_startproc
 515              		@ args = 0, pretend = 0, frame = 0
 516              		@ frame_needed = 0, uses_anonymous_args = 0
 517              	.LVL69:
 518 0000 30B5     		push	{r4, r5, lr}
 519              		.cfi_def_cfa_offset 12
 520              		.cfi_offset 4, -12
 521              		.cfi_offset 5, -8
 522              		.cfi_offset 14, -4
 111:src/hashops.c ****   EXEC_MD5_UPDATE(&ctx->s_md5,data,len);
 523              		.loc 1 111 0
 524 0002 0546     		mov	r5, r0
 525 0004 0C46     		mov	r4, r1
 526 0006 1346     		mov	r3, r2
 112:src/hashops.c **** }
 527              		.loc 1 112 0
 528 0008 2946     		mov	r1, r5
 529              	.LVL70:
 530 000a 2246     		mov	r2, r4
 531              	.LVL71:
 113:src/hashops.c **** 
 532              		.loc 1 113 0
 533 000c BDE83040 		pop	{r4, r5, lr}
 534              		.cfi_restore 14
 535              		.cfi_restore 5
 536              		.cfi_restore 4
 537              		.cfi_def_cfa_offset 0
 538              	.LVL72:
 112:src/hashops.c **** }
 539              		.loc 1 112 0
 540 0010 5220     		movs	r0, #82
 541              	.LVL73:
 542 0012 FFF7FEBF 		b	sys_func3
 543              	.LVL74:
 544              		.cfi_endproc
 545              	.LFE1:
ARM GAS  C:\Users\AHMED~1.ELE\AppData\Local\Temp\ccnlbneC.s 			page 15


 546              		.size	hashops_update_md5, .-hashops_update_md5
 547              		.section	.text.hashops_init_md5,"ax",%progbits
 548              		.align	1
 549              		.thumb
 550              		.thumb_func
 551              		.type	hashops_init_md5, %function
 552              	hashops_init_md5:
 553              	.LFB0:
 106:src/hashops.c ****   EXEC_MD5_INIT(&ctx->s_md5);
 554              		.loc 1 106 0
 555              		.cfi_startproc
 556              		@ args = 0, pretend = 0, frame = 0
 557              		@ frame_needed = 0, uses_anonymous_args = 0
 558              		@ link register save eliminated.
 559              	.LVL75:
 106:src/hashops.c ****   EXEC_MD5_INIT(&ctx->s_md5);
 560              		.loc 1 106 0
 561 0000 0146     		mov	r1, r0
 107:src/hashops.c **** }
 562              		.loc 1 107 0
 563 0002 5120     		movs	r0, #81
 564              	.LVL76:
 565 0004 FFF7FEBF 		b	sys_func1
 566              	.LVL77:
 567              		.cfi_endproc
 568              	.LFE0:
 569              		.size	hashops_init_md5, .-hashops_init_md5
 570              		.section	.text.hashops_get,"ax",%progbits
 571              		.align	1
 572              		.global	hashops_get
 573              		.thumb
 574              		.thumb_func
 575              		.type	hashops_get, %function
 576              	hashops_get:
 577              	.LFB18:
 193:src/hashops.c **** }
 194:src/hashops.c **** 
 195:src/hashops.c **** BOOLEAN hashops_get(T_HASH_OPS *ops, E_HashOps_AlgoId algo_id)
 196:src/hashops.c **** {
 578              		.loc 1 196 0
 579              		.cfi_startproc
 580              		@ args = 0, pretend = 0, frame = 0
 581              		@ frame_needed = 0, uses_anonymous_args = 0
 582              	.LVL78:
 583 0000 30B5     		push	{r4, r5, lr}
 584              		.cfi_def_cfa_offset 12
 585              		.cfi_offset 4, -12
 586              		.cfi_offset 5, -8
 587              		.cfi_offset 14, -4
 197:src/hashops.c ****   if ( (ops == NULL) && (algo_id > E_HashOps_AlgoId_MIN) && (algo_id < E_HashOps_AlgoId_MAX) )
 588              		.loc 1 197 0
 589 0002 10B9     		cbnz	r0, .L20
 590              		.loc 1 197 0 is_stmt 0 discriminator 1
 591 0004 4B1E     		subs	r3, r1, #1
 592 0006 052B     		cmp	r3, #5
 593 0008 0BD9     		bls	.L21
 594              	.L20:
ARM GAS  C:\Users\AHMED~1.ELE\AppData\Local\Temp\ccnlbneC.s 			page 16


 198:src/hashops.c ****   {
 199:src/hashops.c ****     if ( ops != NULL )
 200:src/hashops.c ****       ops->dgst_len = 0;
 201:src/hashops.c ****     return FALSE;
 202:src/hashops.c ****   } else {
 203:src/hashops.c ****     *ops = s_hash_ops_table[algo_id];
 595              		.loc 1 203 0 is_stmt 1
 596 000a 064B     		ldr	r3, .L24
 597 000c 1825     		movs	r5, #24
 598 000e 0446     		mov	r4, r0
 599 0010 05FB0135 		mla	r5, r5, r1, r3
 600 0014 0FCD     		ldmia	r5!, {r0, r1, r2, r3}
 601              	.LVL79:
 602 0016 0FC4     		stmia	r4!, {r0, r1, r2, r3}
 603              	.LVL80:
 604 0018 95E80300 		ldmia	r5, {r0, r1}
 605 001c 84E80300 		stmia	r4, {r0, r1}
 204:src/hashops.c ****     return TRUE;
 606              		.loc 1 204 0
 607 0020 0120     		movs	r0, #1
 608              	.LVL81:
 609              	.L21:
 205:src/hashops.c ****   }
 206:src/hashops.c **** }
 610              		.loc 1 206 0
 611 0022 30BD     		pop	{r4, r5, pc}
 612              	.L25:
 613              		.align	2
 614              	.L24:
 615 0024 00000000 		.word	.LANCHOR0
 616              		.cfi_endproc
 617              	.LFE18:
 618              		.size	hashops_get, .-hashops_get
 619              		.section	.rodata
 620              		.align	2
 621              		.set	.LANCHOR0,. + 0
 622              		.type	s_hash_ops_table, %object
 623              		.size	s_hash_ops_table, 168
 624              	s_hash_ops_table:
 625 0000 0000     		.short	0
 626 0002 0000     		.short	0
 627 0004 00000000 		.space	8
 627      00000000 
 628 000c 00000000 		.word	0
 629 0010 00000000 		.word	0
 630 0014 00000000 		.word	0
 631 0018 1000     		.short	16
 632 001a 0100     		.short	1
 633 001c 00000000 		.space	8
 633      00000000 
 634 0024 00000000 		.word	hashops_init_md5
 635 0028 00000000 		.word	hashops_update_md5
 636 002c 00000000 		.word	hashops_finish_md5
 637 0030 1400     		.short	20
 638 0032 0200     		.short	2
 639 0034 00000000 		.space	8
 639      00000000 
ARM GAS  C:\Users\AHMED~1.ELE\AppData\Local\Temp\ccnlbneC.s 			page 17


 640 003c 00000000 		.word	hashops_init_sha1
 641 0040 00000000 		.word	hashops_update_sha1
 642 0044 00000000 		.word	hashops_finish_sha1
 643 0048 1C00     		.short	28
 644 004a 0300     		.short	3
 645 004c 00000000 		.space	8
 645      00000000 
 646 0054 00000000 		.word	hashops_init_sha224
 647 0058 00000000 		.word	hashops_update_sha224
 648 005c 00000000 		.word	hashops_finish_sha224
 649 0060 2000     		.short	32
 650 0062 0400     		.short	4
 651 0064 00000000 		.space	8
 651      00000000 
 652 006c 00000000 		.word	hashops_init_sha256
 653 0070 00000000 		.word	hashops_update_sha256
 654 0074 00000000 		.word	hashops_finish_sha256
 655 0078 3000     		.short	48
 656 007a 0500     		.short	5
 657 007c 00000000 		.space	8
 657      00000000 
 658 0084 00000000 		.word	hashops_init_sha384
 659 0088 00000000 		.word	hashops_update_sha384
 660 008c 00000000 		.word	hashops_finish_sha384
 661 0090 4000     		.short	64
 662 0092 0600     		.short	6
 663 0094 00000000 		.space	8
 663      00000000 
 664 009c 00000000 		.word	hashops_init_sha512
 665 00a0 00000000 		.word	hashops_update_sha512
 666 00a4 00000000 		.word	hashops_finish_sha512
 667              		.text
 668              	.Letext0:
 669              		.file 2 "../LibA5T1000/common.h"
 670              		.file 3 "../LibA5T1000/system.h"
 671              		.file 4 "src/hashops.h"