ARM GAS  C:\Users\AHMED~1.ELE\AppData\Local\Temp\ccxE6mIW.s 			page 1


   1              		.syntax unified
   2              		.cpu cortex-a5
   3              		.fpu softvfp
   4              		.eabi_attribute 20, 1
   5              		.eabi_attribute 21, 1
   6              		.eabi_attribute 23, 3
   7              		.eabi_attribute 24, 1
   8              		.eabi_attribute 25, 1
   9              		.eabi_attribute 26, 1
  10              		.eabi_attribute 30, 4
  11              		.eabi_attribute 34, 0
  12              		.eabi_attribute 18, 4
  13              		.thumb
  14              		.file	"infodata.c"
  15              		.text
  16              	.Ltext0:
  17              		.cfi_sections	.debug_frame
  18              		.global	__aeabi_idivmod
  19              		.section	.text.PackInfoData,"ax",%progbits
  20              		.align	1
  21              		.global	PackInfoData
  22              		.thumb
  23              		.thumb_func
  24              		.type	PackInfoData, %function
  25              	PackInfoData:
  26              	.LFB0:
  27              		.file 1 "src/infodata.c"
   1:src/infodata.c **** //-----------------------------------------------------------------------------
   2:src/infodata.c **** //  File          : infodata.c
   3:src/infodata.c **** //  Module        :
   4:src/infodata.c **** //  Description   : Generic infodata handling routines.
   5:src/infodata.c **** //  Author        : Pody
   6:src/infodata.c **** //  Notes         :
   7:src/infodata.c **** //
   8:src/infodata.c **** // ============================================================================
   9:src/infodata.c **** // | Naming conventions                                                       |
  10:src/infodata.c **** // | ~~~~~~~~~~~~~~~~~~                                                       |
  11:src/infodata.c **** // |        Struct define : Leading T                                         |
  12:src/infodata.c **** // |         Struct/Array : Leading s                                         |
  13:src/infodata.c **** // |             Constant : Leading K                                         |
  14:src/infodata.c **** // |      Global Variable : Leading g  (variable use outside one C file)      |
  15:src/infodata.c **** // |                                                                          |
  16:src/infodata.c **** // |   BYTE( 8 Bits) size : Leading b                                         |
  17:src/infodata.c **** // |   CHAR( 8 Bits) size : Leading c                                         |
  18:src/infodata.c **** // |   WORD(16 Bits) size : Leading w                                         |
  19:src/infodata.c **** // |  DWORD(32 Bits) size : Leading d                                         |
  20:src/infodata.c **** // |    int(32 Bits) size : Leading i                                         |
  21:src/infodata.c **** // | DDWORD(64 Bits) size : Leading dd                                        |
  22:src/infodata.c **** // |              Pointer : Leading p                                         |
  23:src/infodata.c **** // |                                                                          |
  24:src/infodata.c **** // |    Function argument : Leading a                                         |
  25:src/infodata.c **** // |       Local Variable : All lower case                                    |
  26:src/infodata.c **** // |                                                                          |
  27:src/infodata.c **** // | Examples:                                                                |
  28:src/infodata.c **** // |                Array : Leading s, (sb = arrary of byte, etc)             |
  29:src/infodata.c **** // |              Pointer : Leading p, (pb = pointer of byte, etc)            |
  30:src/infodata.c **** // ============================================================================
ARM GAS  C:\Users\AHMED~1.ELE\AppData\Local\Temp\ccxE6mIW.s 			page 2


  31:src/infodata.c **** //
  32:src/infodata.c **** //  Date          Who         Action
  33:src/infodata.c **** //  ------------  ----------- -------------------------------------------------
  34:src/infodata.c **** //  Jan 2008      Pody        Initial Version.
  35:src/infodata.c **** //-----------------------------------------------------------------------------
  36:src/infodata.c **** #include <string.h>
  37:src/infodata.c **** #include "hwdef.h"
  38:src/infodata.c **** #include "midware.h"
  39:src/infodata.c **** #include "util.h"
  40:src/infodata.c **** #include "sysutil.h"
  41:src/infodata.c **** #include "kbdutil.h"
  42:src/infodata.c **** #include "infodata.h"
  43:src/infodata.c **** 
  44:src/infodata.c **** //-----------------------------------------------------------------------------
  45:src/infodata.c **** //  Constants
  46:src/infodata.c **** //-----------------------------------------------------------------------------
  47:src/infodata.c **** 
  48:src/infodata.c **** 
  49:src/infodata.c **** //*****************************************************************************
  50:src/infodata.c **** //  Function        : PackInfoData
  51:src/infodata.c **** //  Description     : pack info data fix to line width
  52:src/infodata.c **** //  Input           : aInOut    - left data and output string
  53:src/infodata.c **** //                    aRData    - right adjust data string
  54:src/infodata.c **** //                    aWidth    - line width
  55:src/infodata.c **** //  Return          : output string length
  56:src/infodata.c **** //  Note            : N/A
  57:src/infodata.c **** //  Globals Changed : N/A
  58:src/infodata.c **** //*****************************************************************************
  59:src/infodata.c **** int PackInfoData(char *aInOut, char *aRData, int aWidth)
  60:src/infodata.c **** {
  28              		.loc 1 60 0
  29              		.cfi_startproc
  30              		@ args = 0, pretend = 0, frame = 0
  31              		@ frame_needed = 0, uses_anonymous_args = 0
  32              	.LVL0:
  33 0000 2DE9F041 		push	{r4, r5, r6, r7, r8, lr}
  34              		.cfi_def_cfa_offset 24
  35              		.cfi_offset 4, -24
  36              		.cfi_offset 5, -20
  37              		.cfi_offset 6, -16
  38              		.cfi_offset 7, -12
  39              		.cfi_offset 8, -8
  40              		.cfi_offset 14, -4
  41              		.loc 1 60 0
  42 0004 1746     		mov	r7, r2
  43 0006 0E46     		mov	r6, r1
  44 0008 8046     		mov	r8, r0
  61:src/infodata.c ****   WORD len, data_len, pack_len;
  62:src/infodata.c **** 
  63:src/infodata.c ****   len = strlen(aInOut);
  45              		.loc 1 63 0
  46 000a FFF7FEFF 		bl	strlen
  47              	.LVL1:
  48 000e 84B2     		uxth	r4, r0
  49              	.LVL2:
  64:src/infodata.c ****   data_len = strlen(aRData);
  50              		.loc 1 64 0
ARM GAS  C:\Users\AHMED~1.ELE\AppData\Local\Temp\ccxE6mIW.s 			page 3


  51 0010 3046     		mov	r0, r6
  52 0012 FFF7FEFF 		bl	strlen
  53              	.LVL3:
  65:src/infodata.c ****   pack_len = (aWidth - ((len + data_len) % aWidth)) % aWidth;
  54              		.loc 1 65 0
  55 0016 3946     		mov	r1, r7
  56 0018 85B2     		uxth	r5, r0
  57 001a 6019     		adds	r0, r4, r5
  58              	.LVL4:
  59 001c FFF7FEFF 		bl	__aeabi_idivmod
  60              	.LVL5:
  61 0020 781A     		subs	r0, r7, r1
  62 0022 3946     		mov	r1, r7
  63 0024 FFF7FEFF 		bl	__aeabi_idivmod
  64              	.LVL6:
  63:src/infodata.c ****   data_len = strlen(aRData);
  65              		.loc 1 63 0
  66 0028 2246     		mov	r2, r4
  67              		.loc 1 65 0
  68 002a 89B2     		uxth	r1, r1
  69              	.LVL7:
  70 002c 0B46     		mov	r3, r1
  71              	.LVL8:
  72              	.L2:
  66:src/infodata.c **** 
  67:src/infodata.c ****   while (pack_len > 0) {
  73              		.loc 1 67 0
  74 002e 3BB1     		cbz	r3, .L5
  68:src/infodata.c ****     aInOut[len++] = ' ';
  75              		.loc 1 68 0
  76 0030 501C     		adds	r0, r2, #1
  77              	.LVL9:
  78 0032 2027     		movs	r7, #32
  69:src/infodata.c ****     pack_len--;
  79              		.loc 1 69 0
  80 0034 013B     		subs	r3, r3, #1
  81              	.LVL10:
  68:src/infodata.c ****     aInOut[len++] = ' ';
  82              		.loc 1 68 0
  83 0036 08F80270 		strb	r7, [r8, r2]
  84              		.loc 1 69 0
  85 003a 9BB2     		uxth	r3, r3
  86              	.LVL11:
  68:src/infodata.c ****     aInOut[len++] = ' ';
  87              		.loc 1 68 0
  88 003c 82B2     		uxth	r2, r0
  89 003e F6E7     		b	.L2
  90              	.LVL12:
  91              	.L5:
  92 0040 0C44     		add	r4, r4, r1
  70:src/infodata.c ****   }
  71:src/infodata.c **** 
  72:src/infodata.c ****   strcpy(aInOut+len, aRData);
  93              		.loc 1 72 0
  94 0042 3146     		mov	r1, r6
  95 0044 A4B2     		uxth	r4, r4
  96 0046 08EB0400 		add	r0, r8, r4
ARM GAS  C:\Users\AHMED~1.ELE\AppData\Local\Temp\ccxE6mIW.s 			page 4


  97 004a FFF7FEFF 		bl	strcpy
  98              	.LVL13:
  73:src/infodata.c ****   return (len + data_len);
  74:src/infodata.c **** }
  99              		.loc 1 74 0
 100 004e 6019     		adds	r0, r4, r5
 101 0050 BDE8F081 		pop	{r4, r5, r6, r7, r8, pc}
 102              		.cfi_endproc
 103              	.LFE0:
 104              		.size	PackInfoData, .-PackInfoData
 105              		.global	__aeabi_idiv
 106              		.section	.text.DispInfoData,"ax",%progbits
 107              		.align	1
 108              		.global	DispInfoData
 109              		.thumb
 110              		.thumb_func
 111              		.type	DispInfoData, %function
 112              	DispInfoData:
 113              	.LFB1:
  75:src/infodata.c **** //*****************************************************************************
  76:src/infodata.c **** //  Function        : DispInfoData
  77:src/infodata.c **** //  Description     : display information data page by page
  78:src/infodata.c **** //  Input           : aInfoData   // infodata to display
  79:src/infodata.c **** //                    aBigFont    // 4 or 8 lines per page
  80:src/infodata.c **** //  Return          : last input key
  81:src/infodata.c **** //  Note            : N/A
  82:src/infodata.c **** //  Globals Changed : N/A
  83:src/infodata.c **** //*****************************************************************************
  84:src/infodata.c **** DWORD DispInfoData(struct INFO_DATA aInfoData)
  85:src/infodata.c **** {
 114              		.loc 1 85 0
 115              		.cfi_startproc
 116              		@ args = 0, pretend = 0, frame = 56
 117              		@ frame_needed = 0, uses_anonymous_args = 0
 118 0000 2DE9F04F 		push	{r4, r5, r6, r7, r8, r9, r10, fp, lr}
 119              		.cfi_def_cfa_offset 36
 120              		.cfi_offset 4, -36
 121              		.cfi_offset 5, -32
 122              		.cfi_offset 6, -28
 123              		.cfi_offset 7, -24
 124              		.cfi_offset 8, -20
 125              		.cfi_offset 9, -16
 126              		.cfi_offset 10, -12
 127              		.cfi_offset 11, -8
 128              		.cfi_offset 14, -4
 129 0004 91B0     		sub	sp, sp, #68
 130              		.cfi_def_cfa_offset 104
 131              		.loc 1 85 0
 132 0006 05AB     		add	r3, sp, #20
  86:src/infodata.c ****   WORD line_per_page, char_per_page, cur_page, page_len;
  87:src/infodata.c ****   WORD tot_line, tot_page;
  88:src/infodata.c ****   DWORD keyin;
  89:src/infodata.c ****   BYTE header[MW_MAX_LINESIZE +1];
  90:src/infodata.c **** 
  91:src/infodata.c ****   line_per_page = 7;
  92:src/infodata.c ****   cur_page = 0;
  93:src/infodata.c ****   char_per_page = line_per_page * (WORD)aInfoData.b_line_width;
ARM GAS  C:\Users\AHMED~1.ELE\AppData\Local\Temp\ccxE6mIW.s 			page 5


 133              		.loc 1 93 0
 134 0008 0724     		movs	r4, #7
  85:src/infodata.c ****   WORD line_per_page, char_per_page, cur_page, page_len;
 135              		.loc 1 85 0
 136 000a 83E80700 		stmia	r3, {r0, r1, r2}
 137 000e 9DF81460 		ldrb	r6, [sp, #20]	@ zero_extendqisi2
 138              	.LVL14:
 139 0012 BDF81690 		ldrh	r9, [sp, #22]
 140              	.LVL15:
  94:src/infodata.c ****   tot_line = (aInfoData.w_info_len + aInfoData.b_line_width - 1) / aInfoData.b_line_width;
 141              		.loc 1 94 0
 142 0016 3146     		mov	r1, r6
 143 0018 09EB0600 		add	r0, r9, r6
 144 001c 0138     		subs	r0, r0, #1
 145 001e FFF7FEFF 		bl	__aeabi_idiv
 146              	.LVL16:
  95:src/infodata.c ****   tot_page = (tot_line + line_per_page - 1) / line_per_page;
 147              		.loc 1 95 0
 148 0022 2146     		mov	r1, r4
  93:src/infodata.c ****   tot_line = (aInfoData.w_info_len + aInfoData.b_line_width - 1) / aInfoData.b_line_width;
 149              		.loc 1 93 0
 150 0024 06FB04F7 		mul	r7, r6, r4
 151              	.LVL17:
 152              		.loc 1 95 0
 153 0028 80B2     		uxth	r0, r0
 154 002a 0630     		adds	r0, r0, #6
 155 002c FFF7FEFF 		bl	__aeabi_idiv
 156              	.LVL18:
  96:src/infodata.c **** 
  97:src/infodata.c ****   // copy header
  98:src/infodata.c ****   memset(header, ' ', sizeof(header));
 157              		.loc 1 98 0
 158 0030 2021     		movs	r1, #32
 159 0032 1B22     		movs	r2, #27
  95:src/infodata.c **** 
 160              		.loc 1 95 0
 161 0034 83B2     		uxth	r3, r0
 162 0036 0546     		mov	r5, r0
 163              		.loc 1 98 0
 164 0038 09A8     		add	r0, sp, #36
  95:src/infodata.c **** 
 165              		.loc 1 95 0
 166 003a 0393     		str	r3, [sp, #12]
 167              	.LVL19:
 168              		.loc 1 98 0
 169 003c FFF7FEFF 		bl	memset
 170              	.LVL20:
  99:src/infodata.c ****   memcpy(header, aInfoData.pb_header, strlen(aInfoData.pb_header));
 171              		.loc 1 99 0
 172 0040 069C     		ldr	r4, [sp, #24]
 173 0042 2046     		mov	r0, r4
 174 0044 FFF7FEFF 		bl	strlen
 175              	.LVL21:
 176 0048 2146     		mov	r1, r4
 177 004a 0246     		mov	r2, r0
 178 004c 09A8     		add	r0, sp, #36
 179 004e FFF7FEFF 		bl	memcpy
ARM GAS  C:\Users\AHMED~1.ELE\AppData\Local\Temp\ccxE6mIW.s 			page 6


 180              	.LVL22:
 181              	.L40:
  92:src/infodata.c ****   char_per_page = line_per_page * (WORD)aInfoData.b_line_width;
 182              		.loc 1 92 0
 183 0052 0024     		movs	r4, #0
 184              	.L7:
 185              	.LVL23:
 100:src/infodata.c **** 
 101:src/infodata.c ****   while (1) {
 102:src/infodata.c ****     // show header
 103:src/infodata.c ****     SprintfMW(header+aInfoData.b_line_width-5, "%02d/%02d", cur_page+1, tot_page);
 186              		.loc 1 103 0
 187 0054 09AB     		add	r3, sp, #36
 188 0056 04F10108 		add	r8, r4, #1
 189 005a 701F     		subs	r0, r6, #5
 190 005c 3549     		ldr	r1, .L43
 191 005e 4246     		mov	r2, r8
 192 0060 1844     		add	r0, r0, r3
 193 0062 2B46     		mov	r3, r5
 194 0064 FFF7FEFF 		bl	sprintf
 195              	.LVL24:
 196              	.LBB2:
 104:src/infodata.c ****     DispLineMW(header, MW_LINE1, MW_CLRDISP|MW_REVERSE|MW_CENTER|MW_CLREOL|MW_SPFONT);
 197              		.loc 1 104 0
 198 0068 09A8     		add	r0, sp, #36
 199 006a FFF7FEFF 		bl	strlen
 200              	.LVL25:
 201 006e 8246     		mov	r10, r0
 202              	.LVL26:
 203 0070 0AF10101 		add	r1, r10, #1
 204 0074 9220     		movs	r0, #146
 205              	.LVL27:
 206 0076 FFF7FEFF 		bl	sys_func1
 207              	.LVL28:
 208 007a 8346     		mov	fp, r0
 209 007c A0B1     		cbz	r0, .L9
 210              		.loc 1 104 0 is_stmt 0 discriminator 1
 211 007e 09A9     		add	r1, sp, #36
 212 0080 5246     		mov	r2, r10
 213 0082 FFF7FEFF 		bl	memcpy
 214              	.LVL29:
 215 0086 0022     		movs	r2, #0
 216 0088 42F2B203 		movw	r3, #8370
 217 008c 0BF80A20 		strb	r2, [fp, r10]
 218 0090 2521     		movs	r1, #37
 219 0092 0093     		str	r3, [sp]
 220 0094 0F20     		movs	r0, #15
 221 0096 5A46     		mov	r2, fp
 222 0098 4FF48073 		mov	r3, #256
 223 009c FFF7FEFF 		bl	lib_app_call
 224              	.LVL30:
 225 00a0 9420     		movs	r0, #148
 226 00a2 5946     		mov	r1, fp
 227 00a4 FFF7FEFF 		bl	sys_func1
 228              	.LVL31:
 229              	.L9:
 230              	.LBE2:
ARM GAS  C:\Users\AHMED~1.ELE\AppData\Local\Temp\ccxE6mIW.s 			page 7


 105:src/infodata.c **** 
 106:src/infodata.c ****     // show info data
 107:src/infodata.c ****     if (cur_page+1 == tot_page)
 231              		.loc 1 107 0 is_stmt 1
 232 00a8 A845     		cmp	r8, r5
 108:src/infodata.c ****       page_len = aInfoData.w_info_len - (cur_page * char_per_page);
 109:src/infodata.c ****     else
 110:src/infodata.c ****       page_len = char_per_page;
 111:src/infodata.c ****     DispGotoMW(MW_LINE2, MW_SPFONT); 
 233              		.loc 1 111 0
 234 00aa 4FF0000B 		mov	fp, #0
 235              	.LVL32:
 108:src/infodata.c ****       page_len = aInfoData.w_info_len - (cur_page * char_per_page);
 236              		.loc 1 108 0
 237 00ae 0ABF     		itet	eq
 238 00b0 14FB07FC 		smulbbeq	ip, r4, r7
 110:src/infodata.c ****     DispGotoMW(MW_LINE2, MW_SPFONT); 
 239              		.loc 1 110 0
 240 00b4 BC46     		movne	ip, r7
 108:src/infodata.c ****       page_len = aInfoData.w_info_len - (cur_page * char_per_page);
 241              		.loc 1 108 0
 242 00b6 CCEB090C 		rsbeq	ip, ip, r9
 243              		.loc 1 111 0
 244 00ba 4FF40053 		mov	r3, #8192
 108:src/infodata.c ****       page_len = aInfoData.w_info_len - (cur_page * char_per_page);
 245              		.loc 1 108 0
 246 00be 08BF     		it	eq
 247 00c0 1FFA8CFC 		uxtheq	ip, ip
 248              		.loc 1 111 0
 249 00c4 2421     		movs	r1, #36
 250 00c6 4FF40072 		mov	r2, #512
 251 00ca CDF800B0 		str	fp, [sp]
 252 00ce 0F20     		movs	r0, #15
 253 00d0 CDF810C0 		str	ip, [sp, #16]
 254              	.LVL33:
 255 00d4 FFF7FEFF 		bl	lib_app_call
 256              	.LVL34:
 112:src/infodata.c ****     DispPutNCMW(aInfoData.pb_info+cur_page*char_per_page, page_len);
 257              		.loc 1 112 0
 258 00d8 DDF810C0 		ldr	ip, [sp, #16]
 259 00dc 0799     		ldr	r1, [sp, #28]
 260 00de 6246     		mov	r2, ip
 261 00e0 07FB0411 		mla	r1, r7, r4, r1
 262 00e4 1820     		movs	r0, #24
 263 00e6 FFF7FEFF 		bl	sys_func2
 264              	.LVL35:
 113:src/infodata.c ****     
 114:src/infodata.c **** 
 115:src/infodata.c ****     // keybd input handle
 116:src/infodata.c ****     keyin = WaitKey(KBD_TIMEOUT);
 265              		.loc 1 116 0
 266 00ea 42F22830 		movw	r0, #9000
 267 00ee FFF7FEFF 		bl	WaitKey
 268              	.LVL36:
 117:src/infodata.c ****     switch (keyin) {
 269              		.loc 1 117 0
 270 00f2 4128     		cmp	r0, #65
ARM GAS  C:\Users\AHMED~1.ELE\AppData\Local\Temp\ccxE6mIW.s 			page 8


 271 00f4 13D0     		beq	.L11
 272 00f6 05D8     		bhi	.L12
 273 00f8 1128     		cmp	r0, #17
 274 00fa 18D0     		beq	.L13
 275 00fc 1228     		cmp	r0, #18
 276 00fe 0ED0     		beq	.L11
 277 0100 1028     		cmp	r0, #16
 278 0102 05E0     		b	.L42
 279              	.L12:
 280 0104 4328     		cmp	r0, #67
 281 0106 A4D0     		beq	.L40
 282 0108 03D3     		bcc	.L14
 283 010a 4428     		cmp	r0, #68
 284 010c 0BD0     		beq	.L16
 285 010e 4D28     		cmp	r0, #77
 286              	.L42:
 287 0110 A0D1     		bne	.L7
 288              	.L14:
 118:src/infodata.c ****       case MWKEY_CANCL:
 119:src/infodata.c ****         return keyin;
 120:src/infodata.c ****       case MWKEY_ENTER:
 121:src/infodata.c ****       case MWKEY_DN:
 122:src/infodata.c ****       case MWKEY_SELECT:
 123:src/infodata.c ****         if (cur_page < tot_page-1)
 289              		.loc 1 123 0
 290 0112 6B1E     		subs	r3, r5, #1
 291 0114 9C42     		cmp	r4, r3
 292 0116 0ADA     		bge	.L13
 124:src/infodata.c ****           cur_page++;
 293              		.loc 1 124 0
 294 0118 1FFA88F4 		uxth	r4, r8
 295              	.LVL37:
 125:src/infodata.c ****         else
 126:src/infodata.c ****           return keyin;
 127:src/infodata.c ****         break;
 296              		.loc 1 127 0
 297 011c 9AE7     		b	.L7
 298              	.L11:
 128:src/infodata.c ****       case MWKEY_UP:
 129:src/infodata.c ****       case MWKEY_CLR:
 130:src/infodata.c ****         if (cur_page > 0)
 299              		.loc 1 130 0
 300 011e 002C     		cmp	r4, #0
 301 0120 98D0     		beq	.L7
 131:src/infodata.c ****           cur_page--;
 302              		.loc 1 131 0
 303 0122 013C     		subs	r4, r4, #1
 304              	.LVL38:
 305 0124 01E0     		b	.L39
 306              	.LVL39:
 307              	.L16:
 132:src/infodata.c ****         break;
 133:src/infodata.c ****       case MWKEY_LEFT:
 134:src/infodata.c ****         cur_page = 0;
 135:src/infodata.c ****         break;
 136:src/infodata.c ****       case MWKEY_RIGHT:
 137:src/infodata.c ****         cur_page = tot_page-1;
ARM GAS  C:\Users\AHMED~1.ELE\AppData\Local\Temp\ccxE6mIW.s 			page 9


 308              		.loc 1 137 0
 309 0126 039B     		ldr	r3, [sp, #12]
 310 0128 5C1E     		subs	r4, r3, #1
 311              	.LVL40:
 312              	.L39:
 313 012a A4B2     		uxth	r4, r4
 314              	.LVL41:
 138:src/infodata.c ****         break;
 315              		.loc 1 138 0
 316 012c 92E7     		b	.L7
 317              	.L13:
 139:src/infodata.c ****       default:
 140:src/infodata.c ****         break;
 141:src/infodata.c ****     }
 142:src/infodata.c ****   }
 143:src/infodata.c **** }
 318              		.loc 1 143 0
 319 012e 11B0     		add	sp, sp, #68
 320              		.cfi_def_cfa_offset 36
 321              		@ sp needed
 322 0130 BDE8F08F 		pop	{r4, r5, r6, r7, r8, r9, r10, fp, pc}
 323              	.LVL42:
 324              	.L44:
 325              		.align	2
 326              	.L43:
 327 0134 00000000 		.word	.LC0
 328              		.cfi_endproc
 329              	.LFE1:
 330              		.size	DispInfoData, .-DispInfoData
 331              		.section	.rodata.str1.1,"aMS",%progbits,1
 332              	.LC0:
 333 0000 25303264 		.ascii	"%02d/%02d\000"
 333      2F253032 
 333      6400
 334              		.text
 335              	.Letext0:
 336              		.file 2 "c:\\devtools\\gcc_v49_2014q4\\lib\\gcc\\arm-none-eabi\\4.9.3\\include\\stddef.h"
 337              		.file 3 "../LibA5T1000/common.h"
 338              		.file 4 "src/infodata.h"
 339              		.file 5 "c:\\devtools\\gcc_v49_2014q4\\arm-none-eabi\\include\\string.h"
 340              		.file 6 "../LibA5T1000/system.h"
 341              		.file 7 "c:\\devtools\\gcc_v49_2014q4\\arm-none-eabi\\include\\stdio.h"
 342              		.file 8 "../LibA5T1000/midware.h"
 343              		.file 9 "src/kbdutil.h"