ARM GAS  C:\Users\AHMED~1.ELE\AppData\Local\Temp\ccFUpfoi.s 			page 1


   1              		.syntax unified
   2              		.cpu cortex-a5
   3              		.fpu softvfp
   4              		.eabi_attribute 20, 1
   5              		.eabi_attribute 21, 1
   6              		.eabi_attribute 23, 3
   7              		.eabi_attribute 24, 1
   8              		.eabi_attribute 25, 1
   9              		.eabi_attribute 26, 1
  10              		.eabi_attribute 30, 4
  11              		.eabi_attribute 34, 0
  12              		.eabi_attribute 18, 4
  13              		.thumb
  14              		.file	"inittran.c"
  15              		.text
  16              	.Ltext0:
  17              		.cfi_sections	.debug_frame
  18              		.section	.text.PackHostMsg,"ax",%progbits
  19              		.align	1
  20              		.global	PackHostMsg
  21              		.thumb
  22              		.thumb_func
  23              		.type	PackHostMsg, %function
  24              	PackHostMsg:
  25              	.LFB0:
  26              		.file 1 "src/inittran.c"
   1:src/inittran.c **** //-----------------------------------------------------------------------------
   2:src/inittran.c **** //  File          : InitTran.c
   3:src/inittran.c **** //  Module        :
   4:src/inittran.c **** //  Description   : STIS Init Transactions..
   5:src/inittran.c **** //  Author        : Lewis
   6:src/inittran.c **** //  Notes         :
   7:src/inittran.c **** //
   8:src/inittran.c **** // ============================================================================
   9:src/inittran.c **** // | Naming conventions                                                       |
  10:src/inittran.c **** // | ~~~~~~~~~~~~~~~~~~                                                       |
  11:src/inittran.c **** // |         Struct/Array : Leading s                                         |
  12:src/inittran.c **** // |             Constant : Leading K                                         |
  13:src/inittran.c **** // |      Global Variable : Leading g  (variable use outside one C file)      |
  14:src/inittran.c **** // |                                                                          |
  15:src/inittran.c **** // |   BYTE( 8 Bits) size : Leading b                                         |
  16:src/inittran.c **** // |   CHAR( 8 Bits) size : Leading c                                         |
  17:src/inittran.c **** // |   WORD(16 Bits) size : Leading w                                         |
  18:src/inittran.c **** // |  DWORD(32 Bits) size : Leading d                                         |
  19:src/inittran.c **** // |    int(32 Bits) size : Leading i                                         |
  20:src/inittran.c **** // | DDWORD(64 Bits) size : Leading dd                                        |
  21:src/inittran.c **** // |              Pointer : Leading p                                         |
  22:src/inittran.c **** // |                                                                          |
  23:src/inittran.c **** // |    Function argument : Leading a                                         |
  24:src/inittran.c **** // |       Local Variable : All lower case                                    |
  25:src/inittran.c **** // |                                                                          |
  26:src/inittran.c **** // | Examples:                                                                |
  27:src/inittran.c **** // |                Array : Leading s, (sb = arrary of byte, etc)             |
  28:src/inittran.c **** // |              Pointer : Leading p, (pb = pointer of byte, etc)            |
  29:src/inittran.c **** // ============================================================================
  30:src/inittran.c **** //
  31:src/inittran.c **** //  Date          Who         Action
ARM GAS  C:\Users\AHMED~1.ELE\AppData\Local\Temp\ccFUpfoi.s 			page 2


  32:src/inittran.c **** //  ------------  ----------- -------------------------------------------------
  33:src/inittran.c **** //  29 Sept 2008  Lewis       Initial Version.
  34:src/inittran.c **** //-----------------------------------------------------------------------------
  35:src/inittran.c **** #include "midware.h"
  36:src/inittran.c **** #include "emv2dll.h"
  37:src/inittran.c **** #include "util.h"
  38:src/inittran.c **** #include "sysutil.h"
  39:src/inittran.c **** #include "menu.h"
  40:src/inittran.c **** #include "termdata.h"
  41:src/inittran.c **** #include "stis.h"
  42:src/inittran.c **** #include "tranutil.h"
  43:src/inittran.c **** #include "comm.h"
  44:src/inittran.c **** #include "constant.h"
  45:src/inittran.c **** #include "emvtrans.h"
  46:src/inittran.c **** #include "batchsys.h"
  47:src/inittran.c **** #include "coremain.h"
  48:src/inittran.c **** #include "message.h"
  49:src/inittran.c **** #include "inittran.h"
  50:src/inittran.c **** 
  51:src/inittran.c **** //-----------------------------------------------------------------------------
  52:src/inittran.c **** //      Defines
  53:src/inittran.c **** //-----------------------------------------------------------------------------
  54:src/inittran.c **** 
  55:src/inittran.c **** //-----------------------------------------------------------------------------
  56:src/inittran.c **** //    Global Variables
  57:src/inittran.c **** //-----------------------------------------------------------------------------
  58:src/inittran.c **** static struct COMMBUF *psTxBuf;
  59:src/inittran.c **** static struct COMMBUF *psRxBuf;
  60:src/inittran.c **** struct BATCH_NO {
  61:src/inittran.c ****   BYTE sb_curr[3];
  62:src/inittran.c ****   BYTE sb_next[3];
  63:src/inittran.c **** };
  64:src/inittran.c **** static struct BATCH_NO *psBatchNo=NULL;
  65:src/inittran.c **** static int    iSaveAcqCount=0;
  66:src/inittran.c **** static int    iExParamCount=0;
  67:src/inittran.c **** 
  68:src/inittran.c **** //-----------------------------------------------------------------------------
  69:src/inittran.c **** //    Constants
  70:src/inittran.c **** //-----------------------------------------------------------------------------
  71:src/inittran.c **** // Default Init Selection Menu
  72:src/inittran.c **** const struct MENU_ITEM KInitItem [] =
  73:src/inittran.c **** {
  74:src/inittran.c ****   {  MODE_ALL_PARAM,       "All Parameters"},
  75:src/inittran.c ****   {  MODE_EMV_PARAM_ONLY,  "EMV Param Only"},
  76:src/inittran.c ****   {  MODE_EMV_KEY_ONLY,    "EMV Keys Only"},
  77:src/inittran.c ****   {  MODE_EMV_PARAM_KEY,   "EMV Param & Key"},
  78:src/inittran.c ****   {  MODE_EXTRA_PARAM,     "Extra Parameters"},
  79:src/inittran.c ****   { -1, NULL},
  80:src/inittran.c **** };
  81:src/inittran.c **** 
  82:src/inittran.c **** const struct MENU_DAT KInitMenu  = {
  83:src/inittran.c ****   "STIS Init.",
  84:src/inittran.c ****   KInitItem,
  85:src/inittran.c **** };
  86:src/inittran.c **** 
  87:src/inittran.c **** //*****************************************************************************
  88:src/inittran.c **** //  Function        : PackHostMsg
ARM GAS  C:\Users\AHMED~1.ELE\AppData\Local\Temp\ccFUpfoi.s 			page 3


  89:src/inittran.c **** //  Description     : Pack Host Message Base on global input.
  90:src/inittran.c **** //  Input           : N/A
  91:src/inittran.c **** //  Return          : N/A
  92:src/inittran.c **** //  Note            : N/A
  93:src/inittran.c **** //  Globals Changed : N/A
  94:src/inittran.c **** //*****************************************************************************
  95:src/inittran.c **** void PackHostMsg(void)
  96:src/inittran.c **** {
  27              		.loc 1 96 0
  28              		.cfi_startproc
  29              		@ args = 0, pretend = 0, frame = 8
  30              		@ frame_needed = 0, uses_anonymous_args = 0
  31              	.LVL0:
  32 0000 2DE9F74F 		push	{r0, r1, r2, r4, r5, r6, r7, r8, r9, r10, fp, lr}
  33              		.cfi_def_cfa_offset 48
  34              		.cfi_offset 4, -36
  35              		.cfi_offset 5, -32
  36              		.cfi_offset 6, -28
  37              		.cfi_offset 7, -24
  38              		.cfi_offset 8, -20
  39              		.cfi_offset 9, -16
  40              		.cfi_offset 10, -12
  41              		.cfi_offset 11, -8
  42              		.cfi_offset 14, -4
  97:src/inittran.c ****   BYTE txtrans;
  98:src/inittran.c ****   BYTE tx_bitmap[8];
  99:src/inittran.c ****   BYTE *spptr = NULL;
 100:src/inittran.c ****   BYTE *epptr;
 101:src/inittran.c ****   BYTE tmplrc;
 102:src/inittran.c ****   WORD tmplen;
 103:src/inittran.c **** 
 104:src/inittran.c ****   // set pointer
 105:src/inittran.c ****   set_pptr(psTxBuf->sbContent, COMMBUF_SIZE);
  43              		.loc 1 105 0
  44 0004 5C4E     		ldr	r6, .L37
 106:src/inittran.c **** 
 107:src/inittran.c ****   // reserve for 2 bytes len
 108:src/inittran.c ****   if (((gCommParam.bCommMode==APM_COMM_GPRS)||(gCommParam.bCommMode == APM_COMM_TCPIP)||(gCommParam
  45              		.loc 1 108 0
  46 0006 5D4C     		ldr	r4, .L37+4
 105:src/inittran.c **** 
  47              		.loc 1 105 0
  48 0008 3068     		ldr	r0, [r6]
  49 000a 4FF44061 		mov	r1, #3072
  50 000e 0230     		adds	r0, r0, #2
  51 0010 FFF7FEFF 		bl	set_pptr
  52              	.LVL1:
  53              		.loc 1 108 0
  54 0014 A378     		ldrb	r3, [r4, #2]	@ zero_extendqisi2
  55 0016 9A1E     		subs	r2, r3, #2
  56 0018 012A     		cmp	r2, #1
  57 001a 02D9     		bls	.L2
  58              		.loc 1 108 0 is_stmt 0 discriminator 2
  59 001c 053B     		subs	r3, r3, #5
  60 001e 012B     		cmp	r3, #1
  61 0020 05D8     		bhi	.L3
  62              	.L2:
ARM GAS  C:\Users\AHMED~1.ELE\AppData\Local\Temp\ccFUpfoi.s 			page 4


  63              		.loc 1 108 0 discriminator 5
  64 0022 94F86530 		ldrb	r3, [r4, #101]	@ zero_extendqisi2
  65 0026 13B1     		cbz	r3, .L3
 109:src/inittran.c ****       (gCommParam.sTcp.bAdd2ByteLen)) {
 110:src/inittran.c ****     inc_pptr(2);
  66              		.loc 1 110 0 is_stmt 1
  67 0028 0220     		movs	r0, #2
  68 002a FFF7FEFF 		bl	inc_pptr
  69              	.LVL2:
  70              	.L3:
 111:src/inittran.c ****   }
 112:src/inittran.c **** 
 113:src/inittran.c ****   // STX LEN or TPDU
 114:src/inittran.c ****   if (gCommParam.bCommMode == APM_COMM_ASYNC) {  // pack stx & len
  71              		.loc 1 114 0
  72 002e A378     		ldrb	r3, [r4, #2]	@ zero_extendqisi2
  73 0030 012B     		cmp	r3, #1
  74 0032 0CD1     		bne	.L4
 115:src/inittran.c ****     pack_byte(0x02);
  75              		.loc 1 115 0
  76 0034 0220     		movs	r0, #2
  77 0036 FFF7FEFF 		bl	pack_byte
  78              	.LVL3:
 116:src/inittran.c ****     pack_byte(0x00);
  79              		.loc 1 116 0
  80 003a 0020     		movs	r0, #0
  81 003c FFF7FEFF 		bl	pack_byte
  82              	.LVL4:
 117:src/inittran.c ****     pack_byte(0x00);
  83              		.loc 1 117 0
  84 0040 0020     		movs	r0, #0
  85 0042 FFF7FEFF 		bl	pack_byte
  86              	.LVL5:
 118:src/inittran.c ****     spptr = get_pptr();
  87              		.loc 1 118 0
  88 0046 FFF7FEFF 		bl	get_pptr
  89              	.LVL6:
  90 004a 0746     		mov	r7, r0
  91              	.LVL7:
  92 004c 0AE0     		b	.L5
  93              	.LVL8:
  94              	.L4:
 119:src/inittran.c ****   }
 120:src/inittran.c ****   else {
 121:src/inittran.c ****     pack_byte(0x60); // TPDU header
  95              		.loc 1 121 0
  96 004e 6020     		movs	r0, #96
  97 0050 FFF7FEFF 		bl	pack_byte
  98              	.LVL9:
 122:src/inittran.c ****     pack_mem(gsTransData.s_input.sb_nii, 2);
  99              		.loc 1 122 0
 100 0054 4A48     		ldr	r0, .L37+8
 101 0056 0221     		movs	r1, #2
 102 0058 FFF7FEFF 		bl	pack_mem
 103              	.LVL10:
 123:src/inittran.c ****     pack_null(2);
 104              		.loc 1 123 0
ARM GAS  C:\Users\AHMED~1.ELE\AppData\Local\Temp\ccFUpfoi.s 			page 5


 105 005c 0220     		movs	r0, #2
 106 005e FFF7FEFF 		bl	pack_null
 107              	.LVL11:
  99:src/inittran.c ****   BYTE *epptr;
 108              		.loc 1 99 0
 109 0062 0027     		movs	r7, #0
 110              	.LVL12:
 111              	.L5:
 124:src/inittran.c ****   }
 125:src/inittran.c **** 
 126:src/inittran.c ****   // msg type id, bit map
 127:src/inittran.c ****   pack_word(KTransBitmap[txtrans=gsTransData.s_input.b_trans].w_txmsg_id);
 112              		.loc 1 127 0
 113 0064 474D     		ldr	r5, .L37+12
 114 0066 0C23     		movs	r3, #12
 115 0068 2A79     		ldrb	r2, [r5, #4]	@ zero_extendqisi2
 116 006a 4749     		ldr	r1, .L37+16
 117 006c 5343     		muls	r3, r2, r3
 118 006e 01EB0309 		add	r9, r1, r3
 119 0072 C85A     		ldrh	r0, [r1, r3]
 128:src/inittran.c ****   pack_mem((BYTE *)KTransBitmap[txtrans].sb_txbitmap, 8);
 120              		.loc 1 128 0
 121 0074 09F10208 		add	r8, r9, #2
 127:src/inittran.c ****   pack_mem((BYTE *)KTransBitmap[txtrans].sb_txbitmap, 8);
 122              		.loc 1 127 0
 123 0078 FFF7FEFF 		bl	pack_word
 124              	.LVL13:
 125              		.loc 1 128 0
 126 007c 4046     		mov	r0, r8
 127 007e 0821     		movs	r1, #8
 128 0080 FFF7FEFF 		bl	pack_mem
 129              	.LVL14:
 129:src/inittran.c ****   memcpy(tx_bitmap, KTransBitmap[txtrans].sb_txbitmap, 8);
 130              		.loc 1 129 0
 131 0084 99F80730 		ldrb	r3, [r9, #7]	@ zero_extendqisi2
 132 0088 99F803B0 		ldrb	fp, [r9, #3]	@ zero_extendqisi2
 133              	.LVL15:
 134 008c 0193     		str	r3, [sp, #4]
 130:src/inittran.c **** 
 131:src/inittran.c ****   // 03. processing code
 132:src/inittran.c ****   if ((tx_bitmap[0] & 0x20) != 0) {
 135              		.loc 1 132 0
 136 008e 99F80230 		ldrb	r3, [r9, #2]	@ zero_extendqisi2
 129:src/inittran.c ****   memcpy(tx_bitmap, KTransBitmap[txtrans].sb_txbitmap, 8);
 137              		.loc 1 129 0
 138 0092 99F804A0 		ldrb	r10, [r9, #4]	@ zero_extendqisi2
 139              	.LVL16:
 140              		.loc 1 132 0
 141 0096 9A06     		lsls	r2, r3, #26
 129:src/inittran.c ****   memcpy(tx_bitmap, KTransBitmap[txtrans].sb_txbitmap, 8);
 142              		.loc 1 129 0
 143 0098 99F80980 		ldrb	r8, [r9, #9]	@ zero_extendqisi2
 144              	.LVL17:
 145              		.loc 1 132 0
 146 009c 0DD5     		bpl	.L6
 133:src/inittran.c ****     pack_byte(KTransBitmap[txtrans].b_proc_code);
 147              		.loc 1 133 0
ARM GAS  C:\Users\AHMED~1.ELE\AppData\Local\Temp\ccFUpfoi.s 			page 6


 148 009e 99F80A00 		ldrb	r0, [r9, #10]	@ zero_extendqisi2
 149 00a2 FFF7FEFF 		bl	pack_byte
 150              	.LVL18:
 134:src/inittran.c ****     if (gsTransData.s_input.b_trans==EDC_INIT)
 151              		.loc 1 134 0
 152 00a6 2B79     		ldrb	r3, [r5, #4]	@ zero_extendqisi2
 153 00a8 0BB9     		cbnz	r3, .L7
 135:src/inittran.c ****       pack_byte(gsTransData.s_input.b_stis_init_mode);
 154              		.loc 1 135 0
 155 00aa 6879     		ldrb	r0, [r5, #5]	@ zero_extendqisi2
 156 00ac 00E0     		b	.L35
 157              	.L7:
 136:src/inittran.c ****     else
 137:src/inittran.c ****       pack_byte(0x00);
 158              		.loc 1 137 0
 159 00ae 0020     		movs	r0, #0
 160              	.L35:
 161 00b0 FFF7FEFF 		bl	pack_byte
 162              	.LVL19:
 138:src/inittran.c ****     pack_byte(gsTransData.s_input.b_proc_code2);
 163              		.loc 1 138 0
 164 00b4 A879     		ldrb	r0, [r5, #6]	@ zero_extendqisi2
 165 00b6 FFF7FEFF 		bl	pack_byte
 166              	.LVL20:
 167              	.L6:
 139:src/inittran.c ****   }
 140:src/inittran.c **** 
 141:src/inittran.c ****   // 11. systems trace audit number
 142:src/inittran.c ****   if ((tx_bitmap[1] & 0x20) != 0) {
 168              		.loc 1 142 0
 169 00ba 1BF0200F 		tst	fp, #32
 170 00be 03D0     		beq	.L9
 143:src/inittran.c ****     pack_mem(gsTransData.s_input.sb_trace_no, 3);
 171              		.loc 1 143 0
 172 00c0 3248     		ldr	r0, .L37+20
 173 00c2 0321     		movs	r1, #3
 174 00c4 FFF7FEFF 		bl	pack_mem
 175              	.LVL21:
 176              	.L9:
 144:src/inittran.c ****   }
 145:src/inittran.c **** 
 146:src/inittran.c ****   // 24. network international identifier
 147:src/inittran.c ****   if ((tx_bitmap[2] & 0x01) != 0){
 177              		.loc 1 147 0
 178 00c8 1AF0010F 		tst	r10, #1
 179 00cc 03D0     		beq	.L10
 148:src/inittran.c ****     pack_mem(gsTransData.s_input.sb_nii, 2);
 180              		.loc 1 148 0
 181 00ce 2C48     		ldr	r0, .L37+8
 182 00d0 0221     		movs	r1, #2
 183 00d2 FFF7FEFF 		bl	pack_mem
 184              	.LVL22:
 185              	.L10:
 149:src/inittran.c ****   }
 150:src/inittran.c **** 
 151:src/inittran.c ****   // 41. terminal identification
 152:src/inittran.c ****   if ((tx_bitmap[5] & 0x80) != 0) {
ARM GAS  C:\Users\AHMED~1.ELE\AppData\Local\Temp\ccFUpfoi.s 			page 7


 186              		.loc 1 152 0
 187 00d6 019B     		ldr	r3, [sp, #4]
 188 00d8 1B06     		lsls	r3, r3, #24
 189 00da 03D5     		bpl	.L11
 153:src/inittran.c ****     pack_mem(gsTransData.s_input.sb_term_id, 8);
 190              		.loc 1 153 0
 191 00dc 2C48     		ldr	r0, .L37+24
 192 00de 0821     		movs	r1, #8
 193 00e0 FFF7FEFF 		bl	pack_mem
 194              	.LVL23:
 195              	.L11:
 154:src/inittran.c ****   }
 155:src/inittran.c **** 
 156:src/inittran.c ****   // 60. reserved private
 157:src/inittran.c ****   if ((tx_bitmap[7] & 0x10) != 0) {
 196              		.loc 1 157 0
 197 00e4 18F0100F 		tst	r8, #16
 198 00e8 16D0     		beq	.L12
 158:src/inittran.c ****     if ((gsTransData.s_input.b_trans==EDC_INIT)&&(gsTransData.s_rsp_data.w_rspcode == 'Z'*256+'1'))
 199              		.loc 1 158 0
 200 00ea 2B79     		ldrb	r3, [r5, #4]	@ zero_extendqisi2
 201 00ec 6BB9     		cbnz	r3, .L13
 202              		.loc 1 158 0 is_stmt 0 discriminator 1
 203 00ee 254B     		ldr	r3, .L37+12
 204 00f0 B3F87620 		ldrh	r2, [r3, #118]
 205 00f4 45F63123 		movw	r3, #23089
 206 00f8 9A42     		cmp	r2, r3
 207 00fa 06D1     		bne	.L13
 159:src/inittran.c ****       pack_word(0x0001); /* length */
 208              		.loc 1 159 0 is_stmt 1
 209 00fc 0120     		movs	r0, #1
 210 00fe FFF7FEFF 		bl	pack_word
 211              	.LVL24:
 160:src/inittran.c ****       pack_byte('Y');
 212              		.loc 1 160 0
 213 0102 5920     		movs	r0, #89
 214 0104 FFF7FEFF 		bl	pack_byte
 215              	.LVL25:
 216 0108 06E0     		b	.L12
 217              	.L13:
 161:src/inittran.c ****     }
 162:src/inittran.c ****     else {
 163:src/inittran.c ****       pack_word(0x0010); /* length */
 218              		.loc 1 163 0
 219 010a 1020     		movs	r0, #16
 220 010c FFF7FEFF 		bl	pack_word
 221              	.LVL26:
 164:src/inittran.c ****       pack_mem((BYTE *)KSoftName,10);   //N2C check this or KVersion
 222              		.loc 1 164 0
 223 0110 2048     		ldr	r0, .L37+28
 224 0112 0A21     		movs	r1, #10
 225 0114 FFF7FEFF 		bl	pack_mem
 226              	.LVL27:
 227              	.L12:
 165:src/inittran.c ****     }
 166:src/inittran.c ****   }
 167:src/inittran.c **** 
ARM GAS  C:\Users\AHMED~1.ELE\AppData\Local\Temp\ccFUpfoi.s 			page 8


 168:src/inittran.c ****   // pack etx & lrc
 169:src/inittran.c ****   if (gCommParam.bCommMode == APM_COMM_ASYNC) {
 228              		.loc 1 169 0
 229 0118 A378     		ldrb	r3, [r4, #2]	@ zero_extendqisi2
 230 011a 012B     		cmp	r3, #1
 231 011c 14D1     		bne	.L14
 170:src/inittran.c ****     epptr = get_pptr();
 232              		.loc 1 170 0
 233 011e FFF7FEFF 		bl	get_pptr
 234              	.LVL28:
 171:src/inittran.c ****     tmplen = epptr-spptr;
 235              		.loc 1 171 0
 236 0122 C7EB0008 		rsb	r8, r7, r0
 237              	.LVL29:
 172:src/inittran.c ****     tmplrc = (BYTE)lrc(spptr, tmplen);
 238              		.loc 1 172 0
 239 0126 3846     		mov	r0, r7
 240              	.LVL30:
 241 0128 1FFA88F5 		uxth	r5, r8
 242 012c 2946     		mov	r1, r5
 243 012e FFF7FEFF 		bl	lrc
 244              	.LVL31:
 173:src/inittran.c ****     pack_byte(tmplrc);
 174:src/inittran.c ****     pack_byte(0x03);
 175:src/inittran.c ****     *(spptr-2) = tmplen/256;
 245              		.loc 1 175 0
 246 0132 2D0A     		lsrs	r5, r5, #8
 173:src/inittran.c ****     pack_byte(tmplrc);
 247              		.loc 1 173 0
 248 0134 C0B2     		uxtb	r0, r0
 249 0136 FFF7FEFF 		bl	pack_byte
 250              	.LVL32:
 174:src/inittran.c ****     *(spptr-2) = tmplen/256;
 251              		.loc 1 174 0
 252 013a 0320     		movs	r0, #3
 253 013c FFF7FEFF 		bl	pack_byte
 254              	.LVL33:
 255              		.loc 1 175 0
 256 0140 07F8025C 		strb	r5, [r7, #-2]
 176:src/inittran.c ****     *(spptr-1) = tmplen%256;
 257              		.loc 1 176 0
 258 0144 07F8018C 		strb	r8, [r7, #-1]
 259              	.LVL34:
 260              	.L14:
 177:src/inittran.c ****   }
 178:src/inittran.c **** 
 179:src/inittran.c ****   // set total length
 180:src/inittran.c ****   psTxBuf->wLen = (WORD)get_distance();
 261              		.loc 1 180 0
 262 0148 3568     		ldr	r5, [r6]
 263 014a FFF7FEFF 		bl	get_distance
 264              	.LVL35:
 265 014e 2880     		strh	r0, [r5]	@ movhi
 181:src/inittran.c **** 
 182:src/inittran.c ****   // pack 2 bytes len
 183:src/inittran.c ****   if (((gCommParam.bCommMode==APM_COMM_GPRS)||(gCommParam.bCommMode == APM_COMM_TCPIP)||(gCommParam
 266              		.loc 1 183 0
ARM GAS  C:\Users\AHMED~1.ELE\AppData\Local\Temp\ccFUpfoi.s 			page 9


 267 0150 A378     		ldrb	r3, [r4, #2]	@ zero_extendqisi2
 268 0152 9A1E     		subs	r2, r3, #2
 269 0154 012A     		cmp	r2, #1
 270 0156 02D9     		bls	.L15
 271              		.loc 1 183 0 is_stmt 0 discriminator 2
 272 0158 053B     		subs	r3, r3, #5
 273 015a 012B     		cmp	r3, #1
 274 015c 09D8     		bhi	.L1
 275              	.L15:
 276              		.loc 1 183 0 discriminator 5
 277 015e 94F86530 		ldrb	r3, [r4, #101]	@ zero_extendqisi2
 278 0162 33B1     		cbz	r3, .L1
 184:src/inittran.c ****     tmplen = psTxBuf->wLen - 2;
 279              		.loc 1 184 0 is_stmt 1
 280 0164 3268     		ldr	r2, [r6]
 281 0166 1388     		ldrh	r3, [r2]
 282 0168 023B     		subs	r3, r3, #2
 283 016a 9BB2     		uxth	r3, r3
 284              	.LVL36:
 185:src/inittran.c ****     psTxBuf->sbContent[0] = (BYTE)((tmplen >> 8) & 0xFF);
 285              		.loc 1 185 0
 286 016c 190A     		lsrs	r1, r3, #8
 186:src/inittran.c ****     psTxBuf->sbContent[1] = (BYTE)(tmplen & 0xFF);
 287              		.loc 1 186 0
 288 016e D370     		strb	r3, [r2, #3]
 185:src/inittran.c ****     psTxBuf->sbContent[0] = (BYTE)((tmplen >> 8) & 0xFF);
 289              		.loc 1 185 0
 290 0170 9170     		strb	r1, [r2, #2]
 291              	.LVL37:
 292              	.L1:
 187:src/inittran.c ****   }
 188:src/inittran.c **** }
 293              		.loc 1 188 0
 294 0172 03B0     		add	sp, sp, #12
 295              		.cfi_def_cfa_offset 36
 296              		@ sp needed
 297 0174 BDE8F08F 		pop	{r4, r5, r6, r7, r8, r9, r10, fp, pc}
 298              	.LVL38:
 299              	.L38:
 300              		.align	2
 301              	.L37:
 302 0178 00000000 		.word	.LANCHOR0
 303 017c 00000000 		.word	gCommParam
 304 0180 07000000 		.word	gsTransData+7
 305 0184 00000000 		.word	gsTransData
 306 0188 00000000 		.word	KTransBitmap
 307 018c 09000000 		.word	gsTransData+9
 308 0190 0C000000 		.word	gsTransData+12
 309 0194 00000000 		.word	KSoftName
 310              		.cfi_endproc
 311              	.LFE0:
 312              		.size	PackHostMsg, .-PackHostMsg
 313              		.section	.text.CheckHostRsp,"ax",%progbits
 314              		.align	1
 315              		.global	CheckHostRsp
 316              		.thumb
 317              		.thumb_func
ARM GAS  C:\Users\AHMED~1.ELE\AppData\Local\Temp\ccFUpfoi.s 			page 10


 318              		.type	CheckHostRsp, %function
 319              	CheckHostRsp:
 320              	.LFB1:
 189:src/inittran.c **** //*****************************************************************************
 190:src/inittran.c **** //  Function        : CheckHostRsp
 191:src/inittran.c **** //  Description     : UnPack Host Message to rsp_data.
 192:src/inittran.c **** //  Input           : N/A
 193:src/inittran.c **** //  Return          : N/A
 194:src/inittran.c **** //  Note            : N/A
 195:src/inittran.c **** //  Globals Changed : N/A
 196:src/inittran.c **** //*****************************************************************************
 197:src/inittran.c **** BYTE CheckHostRsp(void)
 198:src/inittran.c **** {
 321              		.loc 1 198 0
 322              		.cfi_startproc
 323              		@ args = 0, pretend = 0, frame = 832
 324              		@ frame_needed = 0, uses_anonymous_args = 0
 325              	.LVL39:
 326 0000 2DE9F04F 		push	{r4, r5, r6, r7, r8, r9, r10, fp, lr}
 327              		.cfi_def_cfa_offset 36
 328              		.cfi_offset 4, -36
 329              		.cfi_offset 5, -32
 330              		.cfi_offset 6, -28
 331              		.cfi_offset 7, -24
 332              		.cfi_offset 8, -20
 333              		.cfi_offset 9, -16
 334              		.cfi_offset 10, -12
 335              		.cfi_offset 11, -8
 336              		.cfi_offset 14, -4
 199:src/inittran.c ****   int i;
 200:src/inittran.c ****   WORD sub_field_len;
 201:src/inittran.c ****   BYTE sub_type;
 202:src/inittran.c ****   DWORD logo_index;
 203:src/inittran.c ****   DWORD card_index;
 204:src/inittran.c ****   DWORD more_msg;
 205:src/inittran.c ****   APP_CFG app_cfg;
 206:src/inittran.c ****   KEY_ROOM key_room;
 207:src/inittran.c ****   BYTE *pDat;
 208:src/inittran.c ****   struct DATETIME dtg;
 209:src/inittran.c ****   WORD msg_id;
 210:src/inittran.c ****   BYTE bitmap[8];
 211:src/inittran.c ****   BYTE tmp;
 212:src/inittran.c ****   BYTE *ptr_end;
 213:src/inittran.c ****   void *p_mem;
 214:src/inittran.c **** 
 215:src/inittran.c ****   more_msg = 0;
 216:src/inittran.c ****   set_pptr(psRxBuf->sbContent, COMMBUF_SIZE);
 337              		.loc 1 216 0
 338 0004 BB4E     		ldr	r6, .L204
 217:src/inittran.c **** 
 218:src/inittran.c ****   // pack additonal 2 byte msg len
 219:src/inittran.c ****   if (((gCommParam.bCommMode==APM_COMM_GPRS)||(gCommParam.bCommMode == APM_COMM_TCPIP)||(gCommParam
 339              		.loc 1 219 0
 340 0006 BC4C     		ldr	r4, .L204+4
 216:src/inittran.c **** 
 341              		.loc 1 216 0
 342 0008 7068     		ldr	r0, [r6, #4]
ARM GAS  C:\Users\AHMED~1.ELE\AppData\Local\Temp\ccFUpfoi.s 			page 11


 198:src/inittran.c ****   int i;
 343              		.loc 1 198 0
 344 000a ADF5537D 		sub	sp, sp, #844
 345              		.cfi_def_cfa_offset 880
 216:src/inittran.c **** 
 346              		.loc 1 216 0
 347 000e 0230     		adds	r0, r0, #2
 348 0010 4FF44061 		mov	r1, #3072
 349 0014 FFF7FEFF 		bl	set_pptr
 350              	.LVL40:
 351              		.loc 1 219 0
 352 0018 A378     		ldrb	r3, [r4, #2]	@ zero_extendqisi2
 353 001a 9A1E     		subs	r2, r3, #2
 354 001c 012A     		cmp	r2, #1
 355 001e 02D9     		bls	.L40
 356              		.loc 1 219 0 is_stmt 0 discriminator 2
 357 0020 053B     		subs	r3, r3, #5
 358 0022 012B     		cmp	r3, #1
 359 0024 05D8     		bhi	.L41
 360              	.L40:
 361              		.loc 1 219 0 discriminator 5
 362 0026 94F86530 		ldrb	r3, [r4, #101]	@ zero_extendqisi2
 363 002a 13B1     		cbz	r3, .L41
 220:src/inittran.c ****       (gCommParam.sTcp.bAdd2ByteLen))
 221:src/inittran.c ****     inc_pptr(2);
 364              		.loc 1 221 0 is_stmt 1
 365 002c 0220     		movs	r0, #2
 366 002e FFF7FEFF 		bl	inc_pptr
 367              	.LVL41:
 368              	.L41:
 222:src/inittran.c **** 
 223:src/inittran.c ****   // LRC or TPDU
 224:src/inittran.c ****   if (gCommParam.bCommMode == APM_COMM_ASYNC) { // verify LRC
 369              		.loc 1 224 0
 370 0032 A078     		ldrb	r0, [r4, #2]	@ zero_extendqisi2
 371 0034 0128     		cmp	r0, #1
 372 0036 0DD1     		bne	.L42
 225:src/inittran.c ****     inc_pptr(1); // skip STX
 373              		.loc 1 225 0
 374 0038 FFF7FEFF 		bl	inc_pptr
 375              	.LVL42:
 226:src/inittran.c ****     i = get_word();
 376              		.loc 1 226 0
 377 003c FFF7FEFF 		bl	get_word
 378              	.LVL43:
 379 0040 0446     		mov	r4, r0
 380              	.LVL44:
 227:src/inittran.c ****     pDat = get_pptr();
 381              		.loc 1 227 0
 382 0042 FFF7FEFF 		bl	get_pptr
 383              	.LVL45:
 228:src/inittran.c ****     if (lrc(pDat, i+1)!=0) { // include LRC
 384              		.loc 1 228 0
 385 0046 611C     		adds	r1, r4, #1
 386 0048 FFF7FEFF 		bl	lrc
 387              	.LVL46:
 388 004c 28B1     		cbz	r0, .L43
ARM GAS  C:\Users\AHMED~1.ELE\AppData\Local\Temp\ccFUpfoi.s 			page 12


 389              	.LVL47:
 390              	.L45:
 229:src/inittran.c ****       SetRspCode('I'*256+'R', FALSE);
 391              		.loc 1 229 0
 392 004e 44F65210 		movw	r0, #18770
 393 0052 25E0     		b	.L202
 394              	.L42:
 230:src/inittran.c ****       return TRANS_FAIL;
 231:src/inittran.c ****     }
 232:src/inittran.c ****   }
 233:src/inittran.c ****   else {
 234:src/inittran.c ****     inc_pptr(5); // 5 bytes tpdu_header;
 395              		.loc 1 234 0
 396 0054 0520     		movs	r0, #5
 397 0056 FFF7FEFF 		bl	inc_pptr
 398              	.LVL48:
 399              	.L43:
 235:src/inittran.c ****   }
 236:src/inittran.c **** 
 237:src/inittran.c ****   // Msg ID
 238:src/inittran.c ****   if ((msg_id=(WORD)get_word()) == 0x0820)
 400              		.loc 1 238 0
 401 005a FFF7FEFF 		bl	get_word
 402              	.LVL49:
 403 005e 80B2     		uxth	r0, r0
 404 0060 B0F5026F 		cmp	r0, #2080
 405 0064 00F09683 		beq	.L103
 239:src/inittran.c ****     return 0xff; /// please wait message
 240:src/inittran.c ****   if ((KTransBitmap[gsTransData.s_input.b_trans].w_txmsg_id + 0x10) != msg_id) {
 406              		.loc 1 240 0
 407 0068 A44C     		ldr	r4, .L204+8
 408 006a 0C27     		movs	r7, #12
 409 006c 2379     		ldrb	r3, [r4, #4]	@ zero_extendqisi2
 410 006e A44D     		ldr	r5, .L204+12
 411 0070 7B43     		muls	r3, r7, r3
 412 0072 EB5A     		ldrh	r3, [r5, r3]
 413 0074 1033     		adds	r3, r3, #16
 414 0076 8342     		cmp	r3, r0
 415 0078 E9D1     		bne	.L45
 241:src/inittran.c ****     SetRspCode('I'*256+'R', FALSE);
 242:src/inittran.c ****     return TRANS_FAIL;
 243:src/inittran.c ****   }
 244:src/inittran.c **** 
 245:src/inittran.c ****   get_mem(bitmap, 8);
 416              		.loc 1 245 0
 417 007a 04A8     		add	r0, sp, #16
 418              	.LVL50:
 419 007c 0821     		movs	r1, #8
 420 007e FFF7FEFF 		bl	get_mem
 421              	.LVL51:
 246:src/inittran.c **** 
 247:src/inittran.c ****   // 03. processing code
 248:src/inittran.c ****   if (bitmap[0] & 0x20) {
 422              		.loc 1 248 0
 423 0082 9DF81030 		ldrb	r3, [sp, #16]	@ zero_extendqisi2
 424 0086 9A06     		lsls	r2, r3, #26
 425 0088 1AD5     		bpl	.L46
ARM GAS  C:\Users\AHMED~1.ELE\AppData\Local\Temp\ccFUpfoi.s 			page 13


 249:src/inittran.c ****     tmp = (BYTE)get_byte();
 426              		.loc 1 249 0
 427 008a FFF7FEFF 		bl	get_byte
 428              	.LVL52:
 250:src/inittran.c ****     if (tmp != KTransBitmap[gsTransData.s_input.b_trans].b_proc_code) {
 429              		.loc 1 250 0
 430 008e 2379     		ldrb	r3, [r4, #4]	@ zero_extendqisi2
 431 0090 07FB0353 		mla	r3, r7, r3, r5
 432 0094 C0B2     		uxtb	r0, r0
 433 0096 9B7A     		ldrb	r3, [r3, #10]	@ zero_extendqisi2
 434 0098 8342     		cmp	r3, r0
 435 009a 05D0     		beq	.L47
 436              	.LVL53:
 437              	.L50:
 251:src/inittran.c ****       SetRspCode('I'*256+'P', FALSE);
 438              		.loc 1 251 0
 439 009c 44F65010 		movw	r0, #18768
 440              	.LVL54:
 441              	.L202:
 442 00a0 0021     		movs	r1, #0
 443 00a2 FFF7FEFF 		bl	SetRspCode
 444              	.LVL55:
 445 00a6 A7E0     		b	.L201
 446              	.LVL56:
 447              	.L47:
 252:src/inittran.c ****       return TRANS_FAIL;
 253:src/inittran.c ****     }
 254:src/inittran.c ****     inc_pptr(1);
 448              		.loc 1 254 0
 449 00a8 0120     		movs	r0, #1
 450              	.LVL57:
 451 00aa FFF7FEFF 		bl	inc_pptr
 452              	.LVL58:
 255:src/inittran.c ****     tmp = (BYTE)get_byte();
 453              		.loc 1 255 0
 454 00ae FFF7FEFF 		bl	get_byte
 455              	.LVL59:
 256:src/inittran.c ****     if ((gsTransData.s_input.b_trans == EDC_INIT)&&(tmp == 0x01))
 456              		.loc 1 256 0
 457 00b2 2379     		ldrb	r3, [r4, #4]	@ zero_extendqisi2
 255:src/inittran.c ****     tmp = (BYTE)get_byte();
 458              		.loc 1 255 0
 459 00b4 C0B2     		uxtb	r0, r0
 460              	.LVL60:
 461              		.loc 1 256 0
 462 00b6 0BB9     		cbnz	r3, .L48
 463              		.loc 1 256 0 is_stmt 0 discriminator 1
 464 00b8 0128     		cmp	r0, #1
 465 00ba 03D0     		beq	.L104
 466              	.L48:
 257:src/inittran.c ****       more_msg = 1;
 258:src/inittran.c ****     else
 259:src/inittran.c ****       if (tmp != 0x00) {
 467              		.loc 1 259 0 is_stmt 1
 468 00bc 0028     		cmp	r0, #0
 469 00be EDD1     		bne	.L50
 470              	.LVL61:
ARM GAS  C:\Users\AHMED~1.ELE\AppData\Local\Temp\ccFUpfoi.s 			page 14


 471              	.L46:
 215:src/inittran.c ****   set_pptr(psRxBuf->sbContent, COMMBUF_SIZE);
 472              		.loc 1 215 0
 473 00c0 0027     		movs	r7, #0
 474 00c2 00E0     		b	.L49
 475              	.LVL62:
 476              	.L104:
 257:src/inittran.c ****       more_msg = 1;
 477              		.loc 1 257 0
 478 00c4 0746     		mov	r7, r0
 479              	.LVL63:
 480              	.L49:
 260:src/inittran.c ****         SetRspCode('I'*256+'P', FALSE);
 261:src/inittran.c ****         return TRANS_FAIL;
 262:src/inittran.c ****       }
 263:src/inittran.c ****   }
 264:src/inittran.c **** 
 265:src/inittran.c ****   // 11. check system trace no
 266:src/inittran.c ****   if (bitmap[1] & 0x20) {
 481              		.loc 1 266 0
 482 00c6 9DF81130 		ldrb	r3, [sp, #17]	@ zero_extendqisi2
 483 00ca 9B06     		lsls	r3, r3, #26
 484 00cc 0CD5     		bpl	.L51
 267:src/inittran.c ****     if (memcmp(get_pptr(), gsTransData.s_input.sb_trace_no, 3)) {
 485              		.loc 1 267 0
 486 00ce FFF7FEFF 		bl	get_pptr
 487              	.LVL64:
 488 00d2 8C49     		ldr	r1, .L204+16
 489 00d4 0322     		movs	r2, #3
 490 00d6 FFF7FEFF 		bl	memcmp
 491              	.LVL65:
 492 00da 10B1     		cbz	r0, .L52
 268:src/inittran.c ****       SetRspCode('I'*256+'S', FALSE);
 493              		.loc 1 268 0
 494 00dc 44F65310 		movw	r0, #18771
 495 00e0 DEE7     		b	.L202
 496              	.L52:
 269:src/inittran.c ****       return TRANS_FAIL;
 270:src/inittran.c ****     }
 271:src/inittran.c ****     inc_pptr(3);
 497              		.loc 1 271 0
 498 00e2 0320     		movs	r0, #3
 499 00e4 FFF7FEFF 		bl	inc_pptr
 500              	.LVL66:
 501              	.L51:
 272:src/inittran.c ****   }
 273:src/inittran.c **** 
 274:src/inittran.c ****   // 12. trans time
 275:src/inittran.c ****   if (bitmap[1] & 0x10)
 502              		.loc 1 275 0
 503 00e8 9DF81130 		ldrb	r3, [sp, #17]	@ zero_extendqisi2
 504 00ec DD06     		lsls	r5, r3, #27
 505 00ee 03D5     		bpl	.L53
 276:src/inittran.c ****     get_mem(gsTransData.s_rsp_data.sb_time, 3);
 506              		.loc 1 276 0
 507 00f0 8548     		ldr	r0, .L204+20
 508 00f2 0321     		movs	r1, #3
ARM GAS  C:\Users\AHMED~1.ELE\AppData\Local\Temp\ccFUpfoi.s 			page 15


 509 00f4 FFF7FEFF 		bl	get_mem
 510              	.LVL67:
 511              	.L53:
 277:src/inittran.c **** 
 278:src/inittran.c ****   // 13. trans date
 279:src/inittran.c ****   if (bitmap[1] & 0x08)
 512              		.loc 1 279 0
 513 00f8 9DF81130 		ldrb	r3, [sp, #17]	@ zero_extendqisi2
 514 00fc 1807     		lsls	r0, r3, #28
 515 00fe 03D5     		bpl	.L54
 280:src/inittran.c ****     get_mem(gsTransData.s_rsp_data.sb_date, 2);
 516              		.loc 1 280 0
 517 0100 8248     		ldr	r0, .L204+24
 518 0102 0221     		movs	r1, #2
 519 0104 FFF7FEFF 		bl	get_mem
 520              	.LVL68:
 521              	.L54:
 281:src/inittran.c **** 
 282:src/inittran.c **** 
 283:src/inittran.c ****   // 24. bypass netword id
 284:src/inittran.c ****   if (bitmap[2] & 0x01)
 522              		.loc 1 284 0
 523 0108 9DF81230 		ldrb	r3, [sp, #18]	@ zero_extendqisi2
 524 010c D907     		lsls	r1, r3, #31
 525 010e 02D5     		bpl	.L55
 285:src/inittran.c ****     inc_pptr(2);
 526              		.loc 1 285 0
 527 0110 0220     		movs	r0, #2
 528 0112 FFF7FEFF 		bl	inc_pptr
 529              	.LVL69:
 530              	.L55:
 286:src/inittran.c **** 
 287:src/inittran.c ****   // 25. pos condition code
 288:src/inittran.c ****   if (bitmap[3] & 0x80)
 531              		.loc 1 288 0
 532 0116 9DF91330 		ldrsb	r3, [sp, #19]
 533 011a 002B     		cmp	r3, #0
 534 011c 02DA     		bge	.L56
 289:src/inittran.c ****     inc_pptr(1);
 535              		.loc 1 289 0
 536 011e 0120     		movs	r0, #1
 537 0120 FFF7FEFF 		bl	inc_pptr
 538              	.LVL70:
 539              	.L56:
 290:src/inittran.c **** 
 291:src/inittran.c ****   // 32.
 292:src/inittran.c ****   if (bitmap[3] & 0x01)
 540              		.loc 1 292 0
 541 0124 9DF81330 		ldrb	r3, [sp, #19]	@ zero_extendqisi2
 542 0128 DA07     		lsls	r2, r3, #31
 543 012a 09D5     		bpl	.L57
 293:src/inittran.c ****     inc_pptr((BYTE)((bcd2bin(peek_byte()) + 1)/2 + 1));
 544              		.loc 1 293 0
 545 012c FFF7FEFF 		bl	peek_byte
 546              	.LVL71:
 547 0130 FFF7FEFF 		bl	bcd2bin
 548              	.LVL72:
ARM GAS  C:\Users\AHMED~1.ELE\AppData\Local\Temp\ccFUpfoi.s 			page 16


 549 0134 0130     		adds	r0, r0, #1
 550 0136 4008     		lsrs	r0, r0, #1
 551 0138 0130     		adds	r0, r0, #1
 552 013a C0B2     		uxtb	r0, r0
 553 013c FFF7FEFF 		bl	inc_pptr
 554              	.LVL73:
 555              	.L57:
 294:src/inittran.c **** 
 295:src/inittran.c ****   // 37. ret. ref. no.
 296:src/inittran.c ****   if (bitmap[4] & 0x08)
 556              		.loc 1 296 0
 557 0140 9DF81430 		ldrb	r3, [sp, #20]	@ zero_extendqisi2
 558 0144 1B07     		lsls	r3, r3, #28
 559 0146 03D5     		bpl	.L58
 297:src/inittran.c ****     get_mem(gsTransData.s_rsp_data.sb_rrn, 12);
 560              		.loc 1 297 0
 561 0148 7148     		ldr	r0, .L204+28
 562 014a 0C21     		movs	r1, #12
 563 014c FFF7FEFF 		bl	get_mem
 564              	.LVL74:
 565              	.L58:
 298:src/inittran.c **** 
 299:src/inittran.c ****   // 38. auth code
 300:src/inittran.c ****   memset(gsTransData.s_rsp_data.sb_auth_code, ' ', 6);
 566              		.loc 1 300 0
 567 0150 7048     		ldr	r0, .L204+32
 568 0152 2021     		movs	r1, #32
 569 0154 0622     		movs	r2, #6
 570 0156 FFF7FEFF 		bl	memset
 571              	.LVL75:
 301:src/inittran.c ****   if (bitmap[4] & 0x04)
 572              		.loc 1 301 0
 573 015a 9DF81430 		ldrb	r3, [sp, #20]	@ zero_extendqisi2
 574 015e 5D07     		lsls	r5, r3, #29
 575 0160 03D5     		bpl	.L59
 302:src/inittran.c ****     get_mem(gsTransData.s_rsp_data.sb_auth_code, 6);
 576              		.loc 1 302 0
 577 0162 6C48     		ldr	r0, .L204+32
 578 0164 0621     		movs	r1, #6
 579 0166 FFF7FEFF 		bl	get_mem
 580              	.LVL76:
 581              	.L59:
 303:src/inittran.c **** 
 304:src/inittran.c ****   // 39. response code
 305:src/inittran.c ****   gsTransData.s_rsp_data.w_rspcode = '0'*256+'0'; // upload response does not have response code
 582              		.loc 1 305 0
 583 016a 43F23003 		movw	r3, #12336
 584 016e A4F87630 		strh	r3, [r4, #118]	@ movhi
 306:src/inittran.c ****   if (bitmap[4] & 0x02) {
 585              		.loc 1 306 0
 586 0172 9DF81430 		ldrb	r3, [sp, #20]	@ zero_extendqisi2
 587 0176 9807     		lsls	r0, r3, #30
 588 0178 04D5     		bpl	.L60
 307:src/inittran.c ****     gsTransData.s_rsp_data.w_rspcode = (WORD)get_word();
 589              		.loc 1 307 0
 590 017a FFF7FEFF 		bl	get_word
 591              	.LVL77:
ARM GAS  C:\Users\AHMED~1.ELE\AppData\Local\Temp\ccFUpfoi.s 			page 17


 592 017e 5F4B     		ldr	r3, .L204+8
 593 0180 A3F87600 		strh	r0, [r3, #118]	@ movhi
 594              	.L60:
 308:src/inittran.c ****   }
 309:src/inittran.c **** 
 310:src/inittran.c ****   // 41. term id
 311:src/inittran.c ****   if (bitmap[5] & 0x80) {
 595              		.loc 1 311 0
 596 0184 9DF91530 		ldrsb	r3, [sp, #21]
 597 0188 002B     		cmp	r3, #0
 598 018a 0DDA     		bge	.L61
 312:src/inittran.c ****     if (memcmp(gsTransData.s_input.sb_term_id, get_pptr(), 8)) {
 599              		.loc 1 312 0
 600 018c FFF7FEFF 		bl	get_pptr
 601              	.LVL78:
 602 0190 0822     		movs	r2, #8
 603 0192 0146     		mov	r1, r0
 604 0194 6048     		ldr	r0, .L204+36
 605 0196 FFF7FEFF 		bl	memcmp
 606              	.LVL79:
 607 019a 10B1     		cbz	r0, .L62
 313:src/inittran.c ****       SetRspCode('I'*256+'T', FALSE);
 608              		.loc 1 313 0
 609 019c 44F65410 		movw	r0, #18772
 610 01a0 7EE7     		b	.L202
 611              	.L62:
 314:src/inittran.c ****       return TRANS_FAIL;
 315:src/inittran.c ****     }
 316:src/inittran.c ****     inc_pptr(8);
 612              		.loc 1 316 0
 613 01a2 0820     		movs	r0, #8
 614 01a4 FFF7FEFF 		bl	inc_pptr
 615              	.LVL80:
 616              	.L61:
 317:src/inittran.c ****   }
 318:src/inittran.c **** 
 319:src/inittran.c ****   // 60. private field
 320:src/inittran.c ****   if (bitmap[7] & 0x10)
 617              		.loc 1 320 0
 618 01a8 9DF81730 		ldrb	r3, [sp, #23]	@ zero_extendqisi2
 619 01ac D906     		lsls	r1, r3, #27
 620 01ae 0AD4     		bmi	.L63
 621              	.L66:
 321:src/inittran.c ****     if (gsTransData.s_input.b_trans == EDC_INIT) { // initialization parameter
 322:src/inittran.c ****       ptr_end = get_pptr() + bcd2bin(get_word());
 323:src/inittran.c ****       while (get_pptr() < ptr_end) {
 324:src/inittran.c ****         sub_type = (BYTE)get_byte(); // sub-type
 325:src/inittran.c ****         sub_field_len = (WORD)bcd2bin(get_word());
 326:src/inittran.c ****         i = (BYTE)bcd2bin(peek_byte());
 327:src/inittran.c ****         switch (sub_type) {
 328:src/inittran.c ****           case 0:
 329:src/inittran.c ****             if (psBatchNo != NULL) {
 330:src/inittran.c ****               FreeMW(psBatchNo);
 331:src/inittran.c ****               psBatchNo = NULL;
 332:src/inittran.c ****             }
 333:src/inittran.c ****             iSaveAcqCount = GetAcqCount();
 334:src/inittran.c ****             if (iSaveAcqCount > 0) {
ARM GAS  C:\Users\AHMED~1.ELE\AppData\Local\Temp\ccFUpfoi.s 			page 18


 335:src/inittran.c ****               psBatchNo = (struct BATCH_NO *) MallocMW(sizeof(struct BATCH_NO)*iSaveAcqCount);
 336:src/inittran.c ****               for (i = 0; i < iSaveAcqCount; i++) {
 337:src/inittran.c ****                 GetBatchNo(i, psBatchNo[i].sb_curr);
 338:src/inittran.c ****               }
 339:src/inittran.c ****             }
 340:src/inittran.c ****             fCommitAllMW();
 341:src/inittran.c ****             CloseSTISFiles();
 342:src/inittran.c ****             CreateSTISFiles();
 343:src/inittran.c ****             SetSTISMode(INIT_MODE);
 344:src/inittran.c ****             fCommitAllMW();
 345:src/inittran.c ****             break;
 346:src/inittran.c ****           case 1:
 347:src/inittran.c ****             if ((p_mem = (void *)MallocMW(sizeof(struct TERM_CFG))) == NULL) {
 348:src/inittran.c ****               gsTransData.s_rsp_data.w_rspcode = 'D'*256+'E';
 349:src/inittran.c ****               return TRANS_FAIL;
 350:src/inittran.c ****             }
 351:src/inittran.c ****             memcpy(p_mem, get_pptr(), sizeof(struct TERM_CFG));
 352:src/inittran.c ****             memcpy(&gsTransData.s_rsp_data.b_year, ((struct TERM_CFG*)p_mem)->sb_date_time, 6);
 353:src/inittran.c ****             ReadRTC(&dtg);
 354:src/inittran.c ****             memcpy(&dtg.bYear, &gsTransData.s_rsp_data.b_year, 6);
 355:src/inittran.c ****             SetRTC(&dtg);
 356:src/inittran.c ****             ((struct TERM_CFG*)p_mem)->b_trans_amount_len = (BYTE)bcd2bin(((struct TERM_CFG*)p_mem)
 357:src/inittran.c ****             ((struct TERM_CFG*)p_mem)->b_settle_amount_len = (BYTE)bcd2bin(((struct TERM_CFG*)p_mem
 358:src/inittran.c ****             UpdTermCfg((struct TERM_CFG*)p_mem);
 359:src/inittran.c ****             FreeMW(p_mem);
 360:src/inittran.c ****             break;
 361:src/inittran.c ****           case 2:
 362:src/inittran.c ****             if ((p_mem = (void *)MallocMW(sizeof(struct CARD_TBL))) == NULL) {
 363:src/inittran.c ****               gsTransData.s_rsp_data.w_rspcode = 'D'*256+'E';
 364:src/inittran.c ****               return TRANS_FAIL;
 365:src/inittran.c ****             }
 366:src/inittran.c ****             memcpy(p_mem, get_pptr()+1, sizeof(struct CARD_TBL));
 367:src/inittran.c ****             // convert idx into HEX for storage
 368:src/inittran.c ****             ((struct CARD_TBL*)p_mem)->b_acquirer_id = (BYTE)bcd2bin(((struct CARD_TBL*)p_mem)->b_a
 369:src/inittran.c ****             ((struct CARD_TBL*)p_mem)->b_issuer_id = (BYTE)bcd2bin(((struct CARD_TBL*)p_mem)->b_iss
 370:src/inittran.c ****             //26-08-14 JC ++
 371:src/inittran.c ****             //fix bug if more than 99 card tables
 372:src/inittran.c ****             //UpdCardTbl(i-1, (struct CARD_TBL*)p_mem);
 373:src/inittran.c ****             card_index = GetCardCount();
 374:src/inittran.c ****             UpdCardTbl(card_index, (struct CARD_TBL*)p_mem);
 375:src/inittran.c ****             //26-08-14 JC --
 376:src/inittran.c ****             FreeMW(p_mem);
 377:src/inittran.c ****             break;
 378:src/inittran.c ****           case 3:
 379:src/inittran.c ****             i--;
 380:src/inittran.c ****             if ((p_mem = (void *)MallocMW(sizeof(struct ISSUER_TBL))) == NULL) {
 381:src/inittran.c ****               gsTransData.s_rsp_data.w_rspcode = 'D'*256+'E';
 382:src/inittran.c ****               return TRANS_FAIL;
 383:src/inittran.c ****             }
 384:src/inittran.c ****             memcpy(p_mem, get_pptr()+1, sizeof(struct ISSUER_TBL));
 385:src/inittran.c ****             // convert idx into HEX for storage
 386:src/inittran.c ****             ((struct ISSUER_TBL*)p_mem)->b_id = (BYTE)bcd2bin(((struct ISSUER_TBL*)p_mem)->b_id);
 387:src/inittran.c ****             UpdIssuerTbl(i, (struct ISSUER_TBL*)p_mem);
 388:src/inittran.c ****             FreeMW(p_mem);
 389:src/inittran.c ****             break;
 390:src/inittran.c ****           case 4:
 391:src/inittran.c ****             i--;
ARM GAS  C:\Users\AHMED~1.ELE\AppData\Local\Temp\ccFUpfoi.s 			page 19


 392:src/inittran.c ****             if ((p_mem = (void *)MallocMW(sizeof(struct ACQUIRER_TBL))) == NULL) {
 393:src/inittran.c ****               gsTransData.s_rsp_data.w_rspcode = 'D'*256+'E';
 394:src/inittran.c ****               return TRANS_FAIL;
 395:src/inittran.c ****             }
 396:src/inittran.c ****             memcpy(p_mem, get_pptr()+1, sizeof(struct ACQUIRER_TBL));
 397:src/inittran.c ****             // convert idx into HEX for storage
 398:src/inittran.c ****             ((struct ACQUIRER_TBL*)p_mem)->b_id = (BYTE)bcd2bin(((struct ACQUIRER_TBL*)p_mem)->b_id
 399:src/inittran.c ****             if ((skpb(((struct ACQUIRER_TBL*)p_mem)->sb_curr_batch_no, 0, 3) == 3) && (i < iSaveAcq
 400:src/inittran.c ****               memcpy(((struct ACQUIRER_TBL*)p_mem)->sb_curr_batch_no, (BYTE *)&psBatchNo[i].sb_curr
 401:src/inittran.c ****             if ((skpb(((struct ACQUIRER_TBL*)p_mem)->sb_next_batch_no, 0, 3) == 3) && (i < iSaveAcq
 402:src/inittran.c ****               memcpy(((struct ACQUIRER_TBL*)p_mem)->sb_next_batch_no, (BYTE *)&psBatchNo[i].sb_next
 403:src/inittran.c ****             ((struct ACQUIRER_TBL*)p_mem)->b_status=UP;
 404:src/inittran.c ****             ((struct ACQUIRER_TBL*)p_mem)->b_pending=NO_PENDING;
 405:src/inittran.c ****             UpdAcqTbl(i, (struct ACQUIRER_TBL*)p_mem);
 406:src/inittran.c ****             FreeMW(p_mem);
 407:src/inittran.c ****             break;
 408:src/inittran.c ****           case 5:
 409:src/inittran.c ****             i--;
 410:src/inittran.c ****             if ((p_mem = (void *)MallocMW(sizeof(struct DESC_TBL))) == NULL) {
 411:src/inittran.c ****               gsTransData.s_rsp_data.w_rspcode = 'D'*256+'E';
 412:src/inittran.c ****               return TRANS_FAIL;
 413:src/inittran.c ****             }
 414:src/inittran.c ****             memcpy(p_mem, get_pptr()+1, sizeof(struct DESC_TBL));
 415:src/inittran.c ****             UpdDescTbl(i, (struct DESC_TBL*)p_mem);
 416:src/inittran.c ****             FreeMW(p_mem);
 417:src/inittran.c ****             break;
 418:src/inittran.c ****           case 6:
 419:src/inittran.c ****             if (sub_field_len != 143) {
 420:src/inittran.c ****               if ((p_mem = (void *)MallocMW(sizeof(struct LOGO_TBL))) == NULL) {
 421:src/inittran.c ****                 gsTransData.s_rsp_data.w_rspcode = 'D'*256+'E';
 422:src/inittran.c ****                 return TRANS_FAIL;
 423:src/inittran.c ****               }
 424:src/inittran.c ****               logo_index = *get_pptr();
 425:src/inittran.c ****               ((struct LOGO_TBL*)p_mem)->b_flag = 0x01;
 426:src/inittran.c ****               ((struct LOGO_TBL*)p_mem)->b_type = *(get_pptr()+1);
 427:src/inittran.c ****               memcpy(((struct LOGO_TBL*)p_mem)->sb_image, get_pptr()+2, sub_field_len-2);
 428:src/inittran.c ****               UpdLogoTbl(logo_index, (struct LOGO_TBL*)p_mem);
 429:src/inittran.c ****               FreeMW(p_mem);
 430:src/inittran.c ****             }
 431:src/inittran.c ****             break;
 432:src/inittran.c ****           case 7: // clear all EMVL2 table
 433:src/inittran.c ****             if (((gsTransData.s_input.b_stis_init_mode!=MODE_ALL_PARAM)&&(gsTransData.s_input.b_sti
 434:src/inittran.c ****                 (gsTransData.s_rsp_data.w_rspcode!=('0'*256+'0')))
 435:src/inittran.c ****               break;
 436:src/inittran.c ****             SetEMVLoaded(0x80|0x40);  // clear both EMV param & key
 437:src/inittran.c ****             break;
 438:src/inittran.c ****           case 8: // AID TABLE
 439:src/inittran.c ****             if ((gsTransData.s_input.b_stis_init_mode == MODE_EXTRA_PARAM) || (gsTransData.s_input.
 440:src/inittran.c ****                 (gsTransData.s_rsp_data.w_rspcode!=('0'*256+'0')))
 441:src/inittran.c ****               break;
 442:src/inittran.c ****             if (sub_field_len == 223) {
 443:src/inittran.c ****               pDat = get_pptr();
 444:src/inittran.c ****               app_cfg.eType = *pDat++;
 445:src/inittran.c ****               tmp = *pDat++;
 446:src/inittran.c ****               app_cfg.eBitField = tmp;
 447:src/inittran.c ****               app_cfg.eRSBThresh = DWGet(pDat);
 448:src/inittran.c ****               pDat+= 4;
ARM GAS  C:\Users\AHMED~1.ELE\AppData\Local\Temp\ccFUpfoi.s 			page 20


 449:src/inittran.c ****               app_cfg.eRSTarget = *pDat++;
 450:src/inittran.c ****               app_cfg.eRSBMax = *pDat++;
 451:src/inittran.c ****               memcpy(app_cfg.eTACDenial, pDat, 5);
 452:src/inittran.c ****               pDat += 5;
 453:src/inittran.c ****               memcpy(app_cfg.eTACOnline, pDat, 5);
 454:src/inittran.c ****               pDat += 5;
 455:src/inittran.c ****               memcpy(app_cfg.eTACDefault, pDat, 5);
 456:src/inittran.c ****               pDat += 5;
 457:src/inittran.c ****               memcpy(app_cfg.eACFG, pDat, 200);
 458:src/inittran.c ****               EMVData2DnloadBuf(IOCMD_LOAD_AID, (BYTE *)&app_cfg, sizeof(APP_CFG));
 459:src/inittran.c ****               SetEMVLoaded(0x01); // lower nibble for status
 460:src/inittran.c ****             }
 461:src/inittran.c ****             else {
 462:src/inittran.c ****               gsTransData.s_rsp_data.w_rspcode = 'D'*256+'E';
 463:src/inittran.c ****               return TRANS_FAIL;
 464:src/inittran.c ****             }
 465:src/inittran.c ****             break;
 466:src/inittran.c ****           case 9:// KEY TABLE
 467:src/inittran.c ****             if ((gsTransData.s_input.b_stis_init_mode==MODE_EXTRA_PARAM)||
 468:src/inittran.c ****                 ((gsTransData.s_rsp_data.w_rspcode!='0'*256+'0')&&(gsTransData.s_rsp_data.w_rspcode
 469:src/inittran.c ****               break;
 470:src/inittran.c ****             if (sub_field_len == 275) {
 471:src/inittran.c ****               pDat = get_pptr();
 472:src/inittran.c ****               key_room.KeyIdx = *pDat++;
 473:src/inittran.c ****               memcpy(key_room.RID, pDat, 5);
 474:src/inittran.c ****               pDat += 5;
 475:src/inittran.c ****               key_room.CAKey.Exponent = DWGet(pDat);
 476:src/inittran.c ****               pDat += 4;
 477:src/inittran.c ****               key_room.CAKey.KeySize = WGet(pDat);
 478:src/inittran.c ****               pDat += 2;
 479:src/inittran.c ****               memcpy(key_room.CAKey.Key, pDat, 256);
 480:src/inittran.c ****               pDat += 256;
 481:src/inittran.c ****               pDat++; // skip CC
 482:src/inittran.c ****               key_room.ExpiryDate = pDat[1]*256+pDat[0];  // CC to be ignore
 483:src/inittran.c ****               pDat += 2;
 484:src/inittran.c ****               pDat++; // skip CC
 485:src/inittran.c ****               key_room.EffectDate = pDat[1]*256+pDat[0];  // CC to be ignore
 486:src/inittran.c ****               pDat += 2;
 487:src/inittran.c ****               key_room.Chksum = *pDat++;
 488:src/inittran.c ****               EMVData2DnloadBuf(IOCMD_KEY_LOADING, (BYTE *)&key_room, sizeof(KEY_ROOM));
 489:src/inittran.c ****             }
 490:src/inittran.c ****             else {
 491:src/inittran.c ****               gsTransData.s_rsp_data.w_rspcode = 'D'*256+'E';
 492:src/inittran.c ****               return TRANS_FAIL;
 493:src/inittran.c ****             }
 494:src/inittran.c ****             break;
 495:src/inittran.c ****           case 0x10: // Clear AID Table
 496:src/inittran.c ****             if ((gsTransData.s_input.b_stis_init_mode==MODE_EXTRA_PARAM) || (gsTransData.s_input.b_
 497:src/inittran.c ****               break;
 498:src/inittran.c ****             SetEMVLoaded(0x80);
 499:src/inittran.c ****             break;
 500:src/inittran.c ****           case 0x11: // Clear Key Table
 501:src/inittran.c ****             if (gsTransData.s_input.b_stis_init_mode==MODE_EXTRA_PARAM)
 502:src/inittran.c ****               break;
 503:src/inittran.c ****             SetEMVLoaded(0x40);
 504:src/inittran.c ****             break;
 505:src/inittran.c ****           case 0x12: // Clear all extra param
ARM GAS  C:\Users\AHMED~1.ELE\AppData\Local\Temp\ccFUpfoi.s 			page 21


 506:src/inittran.c ****             if ((gsTransData.s_input.b_stis_init_mode!=MODE_ALL_PARAM) && (gsTransData.s_input.b_st
 507:src/inittran.c ****               break;
 508:src/inittran.c ****             iExParamCount = 0;
 509:src/inittran.c ****             CloseExParamFiles();
 510:src/inittran.c ****             CreateExParamFiles();
 511:src/inittran.c ****             break;
 512:src/inittran.c ****           case 0x13:
 513:src/inittran.c ****             if (((gsTransData.s_input.b_stis_init_mode!=MODE_ALL_PARAM)&&(gsTransData.s_input.b_sti
 514:src/inittran.c ****                 (gsTransData.s_rsp_data.w_rspcode!=('0'*256+'0')))
 515:src/inittran.c ****               break;
 516:src/inittran.c ****             if (sub_field_len > 53) {
 517:src/inittran.c ****               gsTransData.s_rsp_data.w_rspcode = 'I'*256+'T';
 518:src/inittran.c ****               return TRANS_FAIL;
 519:src/inittran.c ****             }
 520:src/inittran.c ****             if ((p_mem = (void *)MallocMW(sizeof(struct EXTRA_PARAM))) == NULL) {
 521:src/inittran.c ****               gsTransData.s_rsp_data.w_rspcode = 'D'*256+'E';
 522:src/inittran.c ****               return TRANS_FAIL;
 523:src/inittran.c ****             }
 524:src/inittran.c ****             pDat = get_pptr();
 525:src/inittran.c ****             ((struct EXTRA_PARAM*)p_mem)->b_app_id = *pDat++;
 526:src/inittran.c ****             ((struct EXTRA_PARAM*)p_mem)->b_seq_no = *pDat++;
 527:src/inittran.c ****             ((struct EXTRA_PARAM*)p_mem)->b_len = (BYTE)bcd2bin(WGet(pDat));
 528:src/inittran.c ****             pDat += 2;
 529:src/inittran.c ****             // Check if there is prefix.
 530:src/inittran.c ****             if ((sub_field_len - (((struct EXTRA_PARAM*)p_mem)->b_len+4)) > 0)
 531:src/inittran.c ****               ((struct EXTRA_PARAM*)p_mem)->b_prefix = *pDat++;
 532:src/inittran.c ****             else
 533:src/inittran.c ****               ((struct EXTRA_PARAM*)p_mem)->b_prefix = 0;
 534:src/inittran.c ****             memcpy(((struct EXTRA_PARAM*)p_mem)->sb_content, pDat, ((struct EXTRA_PARAM*)p_mem)->b_
 535:src/inittran.c ****             UpdExtraParam(iExParamCount++, (struct EXTRA_PARAM*)p_mem);
 536:src/inittran.c ****             FreeMW(p_mem);
 537:src/inittran.c ****             break;
 538:src/inittran.c ****         }
 539:src/inittran.c ****         inc_pptr(sub_field_len);
 540:src/inittran.c ****       }
 541:src/inittran.c ****     }
 542:src/inittran.c **** 
 543:src/inittran.c ****   // 62. private field
 544:src/inittran.c ****   if (bitmap[7] & 0x04) {
 622              		.loc 1 544 0
 623 01b0 9DF81730 		ldrb	r3, [sp, #23]	@ zero_extendqisi2
 624 01b4 5A07     		lsls	r2, r3, #29
 625 01b6 40F1AB82 		bpl	.L65
 545:src/inittran.c ****     i = (BYTE)get_word();
 626              		.loc 1 545 0
 627 01ba FFF7FEFF 		bl	get_word
 628              	.LVL81:
 546:src/inittran.c ****     inc_pptr(i);
 629              		.loc 1 546 0
 630 01be C0B2     		uxtb	r0, r0
 631              	.LVL82:
 632 01c0 FFF7FEFF 		bl	inc_pptr
 633              	.LVL83:
 634 01c4 A4E2     		b	.L65
 635              	.L63:
 321:src/inittran.c ****     if (gsTransData.s_input.b_trans == EDC_INIT) { // initialization parameter
 636              		.loc 1 321 0
ARM GAS  C:\Users\AHMED~1.ELE\AppData\Local\Temp\ccFUpfoi.s 			page 22


 637 01c6 2379     		ldrb	r3, [r4, #4]	@ zero_extendqisi2
 638 01c8 002B     		cmp	r3, #0
 639 01ca F1D1     		bne	.L66
 322:src/inittran.c ****       while (get_pptr() < ptr_end) {
 640              		.loc 1 322 0
 641 01cc FFF7FEFF 		bl	get_pptr
 642              	.LVL84:
 643 01d0 8146     		mov	r9, r0
 644 01d2 FFF7FEFF 		bl	get_word
 645              	.LVL85:
 646 01d6 FFF7FEFF 		bl	bcd2bin
 647              	.LVL86:
 648 01da 8144     		add	r9, r9, r0
 649              	.LVL87:
 323:src/inittran.c ****         sub_type = (BYTE)get_byte(); // sub-type
 650              		.loc 1 323 0
 651 01dc 35E0     		b	.L67
 652              	.LVL88:
 653              	.L71:
 347:src/inittran.c ****               gsTransData.s_rsp_data.w_rspcode = 'D'*256+'E';
 654              		.loc 1 347 0
 655 01de 9220     		movs	r0, #146
 656              	.LVL89:
 657 01e0 4FF4C471 		mov	r1, #392
 658 01e4 FFF7FEFF 		bl	sys_func1
 659              	.LVL90:
 660 01e8 0546     		mov	r5, r0
 661              	.LVL91:
 662 01ea 0028     		cmp	r0, #0
 663 01ec 40F09680 		bne	.L89
 664              	.LVL92:
 665              	.L90:
 348:src/inittran.c ****               return TRANS_FAIL;
 666              		.loc 1 348 0
 667 01f0 44F24543 		movw	r3, #17477
 668 01f4 A4F87630 		strh	r3, [r4, #118]	@ movhi
 669              	.LVL93:
 670              	.L201:
 518:src/inittran.c ****             }
 671              		.loc 1 518 0
 672 01f8 0220     		movs	r0, #2
 673 01fa CEE2     		b	.L44
 674              	.LVL94:
 675              	.L69:
 329:src/inittran.c ****               FreeMW(psBatchNo);
 676              		.loc 1 329 0
 677 01fc B168     		ldr	r1, [r6, #8]
 678 01fe 29B1     		cbz	r1, .L84
 330:src/inittran.c ****               psBatchNo = NULL;
 679              		.loc 1 330 0
 680 0200 9420     		movs	r0, #148
 681              	.LVL95:
 682 0202 FFF7FEFF 		bl	sys_func1
 683              	.LVL96:
 331:src/inittran.c ****             }
 684              		.loc 1 331 0
 685 0206 0022     		movs	r2, #0
ARM GAS  C:\Users\AHMED~1.ELE\AppData\Local\Temp\ccFUpfoi.s 			page 23


 686 0208 3A4B     		ldr	r3, .L204
 687 020a 9A60     		str	r2, [r3, #8]
 688              	.L84:
 333:src/inittran.c ****             if (iSaveAcqCount > 0) {
 689              		.loc 1 333 0
 690 020c FFF7FEFF 		bl	GetAcqCount
 691              	.LVL97:
 334:src/inittran.c ****               psBatchNo = (struct BATCH_NO *) MallocMW(sizeof(struct BATCH_NO)*iSaveAcqCount);
 692              		.loc 1 334 0
 693 0210 0028     		cmp	r0, #0
 333:src/inittran.c ****             if (iSaveAcqCount > 0) {
 694              		.loc 1 333 0
 695 0212 0146     		mov	r1, r0
 696 0214 F060     		str	r0, [r6, #12]
 334:src/inittran.c ****               psBatchNo = (struct BATCH_NO *) MallocMW(sizeof(struct BATCH_NO)*iSaveAcqCount);
 697              		.loc 1 334 0
 698 0216 59DC     		bgt	.L85
 699              	.LVL98:
 700              	.L88:
 340:src/inittran.c ****             CloseSTISFiles();
 701              		.loc 1 340 0
 702 0218 0025     		movs	r5, #0
 703 021a 1321     		movs	r1, #19
 704 021c 2A46     		mov	r2, r5
 705 021e 2B46     		mov	r3, r5
 706 0220 0095     		str	r5, [sp]
 707 0222 0F20     		movs	r0, #15
 708 0224 FFF7FEFF 		bl	lib_app_call
 709              	.LVL99:
 341:src/inittran.c ****             CreateSTISFiles();
 710              		.loc 1 341 0
 711 0228 FFF7FEFF 		bl	CloseSTISFiles
 712              	.LVL100:
 342:src/inittran.c ****             SetSTISMode(INIT_MODE);
 713              		.loc 1 342 0
 714 022c FFF7FEFF 		bl	CreateSTISFiles
 715              	.LVL101:
 343:src/inittran.c ****             fCommitAllMW();
 716              		.loc 1 343 0
 717 0230 0120     		movs	r0, #1
 718 0232 FFF7FEFF 		bl	SetSTISMode
 719              	.LVL102:
 344:src/inittran.c ****             break;
 720              		.loc 1 344 0
 721 0236 0095     		str	r5, [sp]
 722 0238 0F20     		movs	r0, #15
 723 023a 1321     		movs	r1, #19
 724 023c 2A46     		mov	r2, r5
 725 023e 2B46     		mov	r3, r5
 726 0240 FFF7FEFF 		bl	lib_app_call
 727              	.LVL103:
 728              	.L68:
 539:src/inittran.c ****       }
 729              		.loc 1 539 0
 730 0244 4046     		mov	r0, r8
 731 0246 FFF7FEFF 		bl	inc_pptr
 732              	.LVL104:
ARM GAS  C:\Users\AHMED~1.ELE\AppData\Local\Temp\ccFUpfoi.s 			page 24


 733              	.L67:
 323:src/inittran.c ****         sub_type = (BYTE)get_byte(); // sub-type
 734              		.loc 1 323 0
 735 024a FFF7FEFF 		bl	get_pptr
 736              	.LVL105:
 737 024e 8145     		cmp	r9, r0
 738 0250 AED9     		bls	.L66
 324:src/inittran.c ****         sub_field_len = (WORD)bcd2bin(get_word());
 739              		.loc 1 324 0
 740 0252 FFF7FEFF 		bl	get_byte
 741              	.LVL106:
 742 0256 0546     		mov	r5, r0
 743              	.LVL107:
 325:src/inittran.c ****         i = (BYTE)bcd2bin(peek_byte());
 744              		.loc 1 325 0
 745 0258 FFF7FEFF 		bl	get_word
 746              	.LVL108:
 747 025c FFF7FEFF 		bl	bcd2bin
 748              	.LVL109:
 749 0260 1FFA80F8 		uxth	r8, r0
 750              	.LVL110:
 326:src/inittran.c ****         switch (sub_type) {
 751              		.loc 1 326 0
 752 0264 FFF7FEFF 		bl	peek_byte
 753              	.LVL111:
 754 0268 FFF7FEFF 		bl	bcd2bin
 755              	.LVL112:
 756 026c EBB2     		uxtb	r3, r5
 757 026e C0B2     		uxtb	r0, r0
 758              	.LVL113:
 327:src/inittran.c ****           case 0:
 759              		.loc 1 327 0
 760 0270 132B     		cmp	r3, #19
 761 0272 E7D8     		bhi	.L68
 762 0274 01A2     		adr	r2, .L70
 763 0276 52F823F0 		ldr	pc, [r2, r3, lsl #2]
 764 027a 00BF     		.p2align 2
 765              	.L70:
 766 027c FD010000 		.word	.L69+1
 767 0280 DF010000 		.word	.L71+1
 768 0284 6F030000 		.word	.L72+1
 769 0288 A9030000 		.word	.L73+1
 770 028c DF030000 		.word	.L74+1
 771 0290 73040000 		.word	.L75+1
 772 0294 9D040000 		.word	.L76+1
 773 0298 E5040000 		.word	.L77+1
 774 029c 03050000 		.word	.L78+1
 775 02a0 A1050000 		.word	.L79+1
 776 02a4 45020000 		.word	.L68+1
 777 02a8 45020000 		.word	.L68+1
 778 02ac 45020000 		.word	.L68+1
 779 02b0 45020000 		.word	.L68+1
 780 02b4 45020000 		.word	.L68+1
 781 02b8 45020000 		.word	.L68+1
 782 02bc 39060000 		.word	.L80+1
 783 02c0 4B060000 		.word	.L81+1
 784 02c4 5B060000 		.word	.L82+1
ARM GAS  C:\Users\AHMED~1.ELE\AppData\Local\Temp\ccFUpfoi.s 			page 25


 785 02c8 75060000 		.word	.L83+1
 786              	.LVL114:
 787              		.p2align 1
 788              	.L85:
 335:src/inittran.c ****               for (i = 0; i < iSaveAcqCount; i++) {
 789              		.loc 1 335 0
 790 02cc 9220     		movs	r0, #146
 791 02ce C900     		lsls	r1, r1, #3
 792 02d0 FFF7FEFF 		bl	sys_func1
 793              	.LVL115:
 336:src/inittran.c ****                 GetBatchNo(i, psBatchNo[i].sb_curr);
 794              		.loc 1 336 0
 795 02d4 0025     		movs	r5, #0
 796              	.LVL116:
 335:src/inittran.c ****               for (i = 0; i < iSaveAcqCount; i++) {
 797              		.loc 1 335 0
 798 02d6 074B     		ldr	r3, .L204
 799 02d8 9860     		str	r0, [r3, #8]
 800              	.LVL117:
 801              	.L86:
 336:src/inittran.c ****                 GetBatchNo(i, psBatchNo[i].sb_curr);
 802              		.loc 1 336 0 discriminator 1
 803 02da F368     		ldr	r3, [r6, #12]
 804 02dc 9D42     		cmp	r5, r3
 805 02de 9BDA     		bge	.L88
 337:src/inittran.c ****               }
 806              		.loc 1 337 0 discriminator 3
 807 02e0 044B     		ldr	r3, .L204
 808 02e2 2846     		mov	r0, r5
 809 02e4 9968     		ldr	r1, [r3, #8]
 810 02e6 01EBC501 		add	r1, r1, r5, lsl #3
 811 02ea FFF7FEFF 		bl	GetBatchNo
 812              	.LVL118:
 336:src/inittran.c ****                 GetBatchNo(i, psBatchNo[i].sb_curr);
 813              		.loc 1 336 0 discriminator 3
 814 02ee 0135     		adds	r5, r5, #1
 815              	.LVL119:
 816 02f0 F3E7     		b	.L86
 817              	.L205:
 818 02f2 00BF     		.align	2
 819              	.L204:
 820 02f4 00000000 		.word	.LANCHOR0
 821 02f8 00000000 		.word	gCommParam
 822 02fc 00000000 		.word	gsTransData
 823 0300 00000000 		.word	KTransBitmap
 824 0304 09000000 		.word	gsTransData+9
 825 0308 1B000000 		.word	gsTransData+27
 826 030c 19000000 		.word	gsTransData+25
 827 0310 24000000 		.word	gsTransData+36
 828 0314 1E000000 		.word	gsTransData+30
 829 0318 0C000000 		.word	gsTransData+12
 830              	.LVL120:
 831              	.L89:
 351:src/inittran.c ****             memcpy(&gsTransData.s_rsp_data.b_year, ((struct TERM_CFG*)p_mem)->sb_date_time, 6);
 832              		.loc 1 351 0
 833 031c FFF7FEFF 		bl	get_pptr
 834              	.LVL121:
ARM GAS  C:\Users\AHMED~1.ELE\AppData\Local\Temp\ccFUpfoi.s 			page 26


 835 0320 4FF4C472 		mov	r2, #392
 836 0324 0146     		mov	r1, r0
 837 0326 2846     		mov	r0, r5
 838 0328 FFF7FEFF 		bl	memcpy
 839              	.LVL122:
 352:src/inittran.c ****             ReadRTC(&dtg);
 840              		.loc 1 352 0
 841 032c 291D     		adds	r1, r5, #4
 842 032e 0622     		movs	r2, #6
 843 0330 DB48     		ldr	r0, .L206
 844 0332 FFF7FEFF 		bl	memcpy
 845              	.LVL123:
 353:src/inittran.c ****             memcpy(&dtg.bYear, &gsTransData.s_rsp_data.b_year, 6);
 846              		.loc 1 353 0
 847 0336 02A8     		add	r0, sp, #8
 848 0338 FFF7FEFF 		bl	ReadRTC
 849              	.LVL124:
 354:src/inittran.c ****             SetRTC(&dtg);
 850              		.loc 1 354 0
 851 033c D849     		ldr	r1, .L206
 852 033e 0622     		movs	r2, #6
 853 0340 0DF10900 		add	r0, sp, #9
 854 0344 FFF7FEFF 		bl	memcpy
 855              	.LVL125:
 355:src/inittran.c ****             ((struct TERM_CFG*)p_mem)->b_trans_amount_len = (BYTE)bcd2bin(((struct TERM_CFG*)p_mem)
 856              		.loc 1 355 0
 857 0348 02A8     		add	r0, sp, #8
 858 034a FFF7FEFF 		bl	SetRTC
 859              	.LVL126:
 356:src/inittran.c ****             ((struct TERM_CFG*)p_mem)->b_settle_amount_len = (BYTE)bcd2bin(((struct TERM_CFG*)p_mem
 860              		.loc 1 356 0
 861 034e 95F86300 		ldrb	r0, [r5, #99]	@ zero_extendqisi2
 862 0352 FFF7FEFF 		bl	bcd2bin
 863              	.LVL127:
 864 0356 85F86300 		strb	r0, [r5, #99]
 357:src/inittran.c ****             UpdTermCfg((struct TERM_CFG*)p_mem);
 865              		.loc 1 357 0
 866 035a 95F86600 		ldrb	r0, [r5, #102]	@ zero_extendqisi2
 867 035e FFF7FEFF 		bl	bcd2bin
 868              	.LVL128:
 869 0362 85F86600 		strb	r0, [r5, #102]
 358:src/inittran.c ****             FreeMW(p_mem);
 870              		.loc 1 358 0
 871 0366 2846     		mov	r0, r5
 872 0368 FFF7FEFF 		bl	UpdTermCfg
 873              	.LVL129:
 874 036c CBE1     		b	.L197
 875              	.LVL130:
 876              	.L72:
 362:src/inittran.c ****               gsTransData.s_rsp_data.w_rspcode = 'D'*256+'E';
 877              		.loc 1 362 0
 878 036e 9220     		movs	r0, #146
 879              	.LVL131:
 880 0370 2421     		movs	r1, #36
 881 0372 FFF7FEFF 		bl	sys_func1
 882              	.LVL132:
 883 0376 0546     		mov	r5, r0
ARM GAS  C:\Users\AHMED~1.ELE\AppData\Local\Temp\ccFUpfoi.s 			page 27


 884              	.LVL133:
 885 0378 0028     		cmp	r0, #0
 886 037a 3FF439AF 		beq	.L90
 366:src/inittran.c ****             // convert idx into HEX for storage
 887              		.loc 1 366 0
 888 037e FFF7FEFF 		bl	get_pptr
 889              	.LVL134:
 890 0382 2422     		movs	r2, #36
 891 0384 411C     		adds	r1, r0, #1
 892 0386 2846     		mov	r0, r5
 893 0388 FFF7FEFF 		bl	memcpy
 894              	.LVL135:
 368:src/inittran.c ****             ((struct CARD_TBL*)p_mem)->b_issuer_id = (BYTE)bcd2bin(((struct CARD_TBL*)p_mem)->b_iss
 895              		.loc 1 368 0
 896 038c E87A     		ldrb	r0, [r5, #11]	@ zero_extendqisi2
 897 038e FFF7FEFF 		bl	bcd2bin
 898              	.LVL136:
 899 0392 E872     		strb	r0, [r5, #11]
 369:src/inittran.c ****             //26-08-14 JC ++
 900              		.loc 1 369 0
 901 0394 A87A     		ldrb	r0, [r5, #10]	@ zero_extendqisi2
 902 0396 FFF7FEFF 		bl	bcd2bin
 903              	.LVL137:
 904 039a A872     		strb	r0, [r5, #10]
 373:src/inittran.c ****             UpdCardTbl(card_index, (struct CARD_TBL*)p_mem);
 905              		.loc 1 373 0
 906 039c FFF7FEFF 		bl	GetCardCount
 907              	.LVL138:
 374:src/inittran.c ****             //26-08-14 JC --
 908              		.loc 1 374 0
 909 03a0 2946     		mov	r1, r5
 910 03a2 FFF7FEFF 		bl	UpdCardTbl
 911              	.LVL139:
 912 03a6 AEE1     		b	.L197
 913              	.LVL140:
 914              	.L73:
 379:src/inittran.c ****             if ((p_mem = (void *)MallocMW(sizeof(struct ISSUER_TBL))) == NULL) {
 915              		.loc 1 379 0
 916 03a8 451E     		subs	r5, r0, #1
 917              	.LVL141:
 380:src/inittran.c ****               gsTransData.s_rsp_data.w_rspcode = 'D'*256+'E';
 918              		.loc 1 380 0
 919 03aa 3821     		movs	r1, #56
 920 03ac 9220     		movs	r0, #146
 921 03ae FFF7FEFF 		bl	sys_func1
 922              	.LVL142:
 923 03b2 8246     		mov	r10, r0
 924 03b4 0028     		cmp	r0, #0
 925 03b6 3FF41BAF 		beq	.L90
 384:src/inittran.c ****             // convert idx into HEX for storage
 926              		.loc 1 384 0
 927 03ba FFF7FEFF 		bl	get_pptr
 928              	.LVL143:
 929 03be 3822     		movs	r2, #56
 930 03c0 411C     		adds	r1, r0, #1
 931 03c2 5046     		mov	r0, r10
 932 03c4 FFF7FEFF 		bl	memcpy
ARM GAS  C:\Users\AHMED~1.ELE\AppData\Local\Temp\ccFUpfoi.s 			page 28


 933              	.LVL144:
 386:src/inittran.c ****             UpdIssuerTbl(i, (struct ISSUER_TBL*)p_mem);
 934              		.loc 1 386 0
 935 03c8 9AF80000 		ldrb	r0, [r10]	@ zero_extendqisi2
 936 03cc FFF7FEFF 		bl	bcd2bin
 937              	.LVL145:
 387:src/inittran.c ****             FreeMW(p_mem);
 938              		.loc 1 387 0
 939 03d0 5146     		mov	r1, r10
 386:src/inittran.c ****             UpdIssuerTbl(i, (struct ISSUER_TBL*)p_mem);
 940              		.loc 1 386 0
 941 03d2 8AF80000 		strb	r0, [r10]
 387:src/inittran.c ****             FreeMW(p_mem);
 942              		.loc 1 387 0
 943 03d6 2846     		mov	r0, r5
 944 03d8 FFF7FEFF 		bl	UpdIssuerTbl
 945              	.LVL146:
 946 03dc 46E0     		b	.L203
 947              	.LVL147:
 948              	.L74:
 391:src/inittran.c ****             if ((p_mem = (void *)MallocMW(sizeof(struct ACQUIRER_TBL))) == NULL) {
 949              		.loc 1 391 0
 950 03de 451E     		subs	r5, r0, #1
 951              	.LVL148:
 392:src/inittran.c ****               gsTransData.s_rsp_data.w_rspcode = 'D'*256+'E';
 952              		.loc 1 392 0
 953 03e0 AC21     		movs	r1, #172
 954 03e2 9220     		movs	r0, #146
 955 03e4 FFF7FEFF 		bl	sys_func1
 956              	.LVL149:
 957 03e8 8246     		mov	r10, r0
 958 03ea 0028     		cmp	r0, #0
 959 03ec 3FF400AF 		beq	.L90
 396:src/inittran.c ****             // convert idx into HEX for storage
 960              		.loc 1 396 0
 961 03f0 FFF7FEFF 		bl	get_pptr
 962              	.LVL150:
 963 03f4 AC22     		movs	r2, #172
 398:src/inittran.c ****             if ((skpb(((struct ACQUIRER_TBL*)p_mem)->sb_curr_batch_no, 0, 3) == 3) && (i < iSaveAcq
 964              		.loc 1 398 0
 965 03f6 D346     		mov	fp, r10
 396:src/inittran.c ****             // convert idx into HEX for storage
 966              		.loc 1 396 0
 967 03f8 411C     		adds	r1, r0, #1
 968 03fa 5046     		mov	r0, r10
 969 03fc FFF7FEFF 		bl	memcpy
 970              	.LVL151:
 398:src/inittran.c ****             if ((skpb(((struct ACQUIRER_TBL*)p_mem)->sb_curr_batch_no, 0, 3) == 3) && (i < iSaveAcq
 971              		.loc 1 398 0
 972 0400 9AF80000 		ldrb	r0, [r10]	@ zero_extendqisi2
 973 0404 FFF7FEFF 		bl	bcd2bin
 974              	.LVL152:
 399:src/inittran.c ****               memcpy(((struct ACQUIRER_TBL*)p_mem)->sb_curr_batch_no, (BYTE *)&psBatchNo[i].sb_curr
 975              		.loc 1 399 0
 976 0408 0322     		movs	r2, #3
 977 040a 0021     		movs	r1, #0
 398:src/inittran.c ****             if ((skpb(((struct ACQUIRER_TBL*)p_mem)->sb_curr_batch_no, 0, 3) == 3) && (i < iSaveAcq
ARM GAS  C:\Users\AHMED~1.ELE\AppData\Local\Temp\ccFUpfoi.s 			page 29


 978              		.loc 1 398 0
 979 040c 0BF86C0B 		strb	r0, [fp], #108
 399:src/inittran.c ****               memcpy(((struct ACQUIRER_TBL*)p_mem)->sb_curr_batch_no, (BYTE *)&psBatchNo[i].sb_curr
 980              		.loc 1 399 0
 981 0410 5846     		mov	r0, fp
 982 0412 FFF7FEFF 		bl	skpb
 983              	.LVL153:
 984 0416 0328     		cmp	r0, #3
 985 0418 0246     		mov	r2, r0
 986 041a 09D1     		bne	.L91
 399:src/inittran.c ****               memcpy(((struct ACQUIRER_TBL*)p_mem)->sb_curr_batch_no, (BYTE *)&psBatchNo[i].sb_curr
 987              		.loc 1 399 0 is_stmt 0 discriminator 1
 988 041c F368     		ldr	r3, [r6, #12]
 989 041e 9D42     		cmp	r5, r3
 990 0420 06DA     		bge	.L91
 400:src/inittran.c ****             if ((skpb(((struct ACQUIRER_TBL*)p_mem)->sb_next_batch_no, 0, 3) == 3) && (i < iSaveAcq
 991              		.loc 1 400 0 is_stmt 1
 992 0422 A04B     		ldr	r3, .L206+4
 993 0424 5846     		mov	r0, fp
 994 0426 9968     		ldr	r1, [r3, #8]
 995 0428 01EBC501 		add	r1, r1, r5, lsl #3
 996 042c FFF7FEFF 		bl	memcpy
 997              	.LVL154:
 998              	.L91:
 401:src/inittran.c ****               memcpy(((struct ACQUIRER_TBL*)p_mem)->sb_next_batch_no, (BYTE *)&psBatchNo[i].sb_next
 999              		.loc 1 401 0
 1000 0430 0AF16F0B 		add	fp, r10, #111
 1001 0434 0322     		movs	r2, #3
 1002 0436 5846     		mov	r0, fp
 1003 0438 0021     		movs	r1, #0
 1004 043a FFF7FEFF 		bl	skpb
 1005              	.LVL155:
 1006 043e 0328     		cmp	r0, #3
 1007 0440 0246     		mov	r2, r0
 1008 0442 0AD1     		bne	.L92
 401:src/inittran.c ****               memcpy(((struct ACQUIRER_TBL*)p_mem)->sb_next_batch_no, (BYTE *)&psBatchNo[i].sb_next
 1009              		.loc 1 401 0 is_stmt 0 discriminator 1
 1010 0444 F368     		ldr	r3, [r6, #12]
 1011 0446 9D42     		cmp	r5, r3
 1012 0448 07DA     		bge	.L92
 402:src/inittran.c ****             ((struct ACQUIRER_TBL*)p_mem)->b_status=UP;
 1013              		.loc 1 402 0 is_stmt 1
 1014 044a 964B     		ldr	r3, .L206+4
 1015 044c 5846     		mov	r0, fp
 1016 044e 9968     		ldr	r1, [r3, #8]
 1017 0450 01EBC501 		add	r1, r1, r5, lsl #3
 1018 0454 0331     		adds	r1, r1, #3
 1019 0456 FFF7FEFF 		bl	memcpy
 1020              	.LVL156:
 1021              	.L92:
 403:src/inittran.c ****             ((struct ACQUIRER_TBL*)p_mem)->b_pending=NO_PENDING;
 1022              		.loc 1 403 0
 1023 045a 0023     		movs	r3, #0
 405:src/inittran.c ****             FreeMW(p_mem);
 1024              		.loc 1 405 0
 1025 045c 2846     		mov	r0, r5
 403:src/inittran.c ****             ((struct ACQUIRER_TBL*)p_mem)->b_pending=NO_PENDING;
ARM GAS  C:\Users\AHMED~1.ELE\AppData\Local\Temp\ccFUpfoi.s 			page 30


 1026              		.loc 1 403 0
 1027 045e 8AF8A830 		strb	r3, [r10, #168]
 404:src/inittran.c ****             UpdAcqTbl(i, (struct ACQUIRER_TBL*)p_mem);
 1028              		.loc 1 404 0
 1029 0462 8AF8A930 		strb	r3, [r10, #169]
 405:src/inittran.c ****             FreeMW(p_mem);
 1030              		.loc 1 405 0
 1031 0466 5146     		mov	r1, r10
 1032 0468 FFF7FEFF 		bl	UpdAcqTbl
 1033              	.LVL157:
 1034              	.L203:
 406:src/inittran.c ****             break;
 1035              		.loc 1 406 0
 1036 046c 9420     		movs	r0, #148
 1037 046e 5146     		mov	r1, r10
 1038 0470 4BE1     		b	.L198
 1039              	.LVL158:
 1040              	.L75:
 409:src/inittran.c ****             if ((p_mem = (void *)MallocMW(sizeof(struct DESC_TBL))) == NULL) {
 1041              		.loc 1 409 0
 1042 0472 451E     		subs	r5, r0, #1
 1043              	.LVL159:
 410:src/inittran.c ****               gsTransData.s_rsp_data.w_rspcode = 'D'*256+'E';
 1044              		.loc 1 410 0
 1045 0474 1C21     		movs	r1, #28
 1046 0476 9220     		movs	r0, #146
 1047 0478 FFF7FEFF 		bl	sys_func1
 1048              	.LVL160:
 1049 047c 8246     		mov	r10, r0
 1050 047e 0028     		cmp	r0, #0
 1051 0480 3FF4B6AE 		beq	.L90
 414:src/inittran.c ****             UpdDescTbl(i, (struct DESC_TBL*)p_mem);
 1052              		.loc 1 414 0
 1053 0484 FFF7FEFF 		bl	get_pptr
 1054              	.LVL161:
 1055 0488 1C22     		movs	r2, #28
 1056 048a 411C     		adds	r1, r0, #1
 1057 048c 5046     		mov	r0, r10
 1058 048e FFF7FEFF 		bl	memcpy
 1059              	.LVL162:
 415:src/inittran.c ****             FreeMW(p_mem);
 1060              		.loc 1 415 0
 1061 0492 2846     		mov	r0, r5
 1062 0494 5146     		mov	r1, r10
 1063 0496 FFF7FEFF 		bl	UpdDescTbl
 1064              	.LVL163:
 1065 049a E7E7     		b	.L203
 1066              	.LVL164:
 1067              	.L76:
 419:src/inittran.c ****               if ((p_mem = (void *)MallocMW(sizeof(struct LOGO_TBL))) == NULL) {
 1068              		.loc 1 419 0
 1069 049c B8F18F0F 		cmp	r8, #143
 1070 04a0 3FF4D0AE 		beq	.L68
 420:src/inittran.c ****                 gsTransData.s_rsp_data.w_rspcode = 'D'*256+'E';
 1071              		.loc 1 420 0
 1072 04a4 9220     		movs	r0, #146
 1073              	.LVL165:
ARM GAS  C:\Users\AHMED~1.ELE\AppData\Local\Temp\ccFUpfoi.s 			page 31


 1074 04a6 4FF4C271 		mov	r1, #388
 1075 04aa FFF7FEFF 		bl	sys_func1
 1076              	.LVL166:
 1077 04ae 0546     		mov	r5, r0
 1078              	.LVL167:
 1079 04b0 0028     		cmp	r0, #0
 1080 04b2 3FF49DAE 		beq	.L90
 424:src/inittran.c ****               ((struct LOGO_TBL*)p_mem)->b_flag = 0x01;
 1081              		.loc 1 424 0
 1082 04b6 FFF7FEFF 		bl	get_pptr
 1083              	.LVL168:
 425:src/inittran.c ****               ((struct LOGO_TBL*)p_mem)->b_type = *(get_pptr()+1);
 1084              		.loc 1 425 0
 1085 04ba 0123     		movs	r3, #1
 424:src/inittran.c ****               ((struct LOGO_TBL*)p_mem)->b_flag = 0x01;
 1086              		.loc 1 424 0
 1087 04bc 90F800A0 		ldrb	r10, [r0]	@ zero_extendqisi2
 1088              	.LVL169:
 425:src/inittran.c ****               ((struct LOGO_TBL*)p_mem)->b_type = *(get_pptr()+1);
 1089              		.loc 1 425 0
 1090 04c0 2B70     		strb	r3, [r5]
 426:src/inittran.c ****               memcpy(((struct LOGO_TBL*)p_mem)->sb_image, get_pptr()+2, sub_field_len-2);
 1091              		.loc 1 426 0
 1092 04c2 FFF7FEFF 		bl	get_pptr
 1093              	.LVL170:
 1094 04c6 4378     		ldrb	r3, [r0, #1]	@ zero_extendqisi2
 1095 04c8 6B70     		strb	r3, [r5, #1]
 427:src/inittran.c ****               UpdLogoTbl(logo_index, (struct LOGO_TBL*)p_mem);
 1096              		.loc 1 427 0
 1097 04ca FFF7FEFF 		bl	get_pptr
 1098              	.LVL171:
 1099 04ce A8F10202 		sub	r2, r8, #2
 1100 04d2 811C     		adds	r1, r0, #2
 1101 04d4 A81C     		adds	r0, r5, #2
 1102 04d6 FFF7FEFF 		bl	memcpy
 1103              	.LVL172:
 428:src/inittran.c ****               FreeMW(p_mem);
 1104              		.loc 1 428 0
 1105 04da 5046     		mov	r0, r10
 1106 04dc 2946     		mov	r1, r5
 1107 04de FFF7FEFF 		bl	UpdLogoTbl
 1108              	.LVL173:
 1109 04e2 10E1     		b	.L197
 1110              	.LVL174:
 1111              	.L77:
 433:src/inittran.c ****                 (gsTransData.s_rsp_data.w_rspcode!=('0'*256+'0')))
 1112              		.loc 1 433 0
 1113 04e4 6379     		ldrb	r3, [r4, #5]	@ zero_extendqisi2
 1114 04e6 012B     		cmp	r3, #1
 1115 04e8 02D0     		beq	.L93
 433:src/inittran.c ****                 (gsTransData.s_rsp_data.w_rspcode!=('0'*256+'0')))
 1116              		.loc 1 433 0 is_stmt 0 discriminator 1
 1117 04ea 042B     		cmp	r3, #4
 1118 04ec 7FF4AAAE 		bne	.L68
 1119              	.L93:
 433:src/inittran.c ****                 (gsTransData.s_rsp_data.w_rspcode!=('0'*256+'0')))
 1120              		.loc 1 433 0 discriminator 3
ARM GAS  C:\Users\AHMED~1.ELE\AppData\Local\Temp\ccFUpfoi.s 			page 32


 1121 04f0 B4F87620 		ldrh	r2, [r4, #118]
 1122 04f4 43F23003 		movw	r3, #12336
 1123 04f8 9A42     		cmp	r2, r3
 1124 04fa 7FF4A3AE 		bne	.L68
 436:src/inittran.c ****             break;
 1125              		.loc 1 436 0 is_stmt 1
 1126 04fe C020     		movs	r0, #192
 1127              	.LVL175:
 1128 0500 A8E0     		b	.L199
 1129              	.LVL176:
 1130              	.L78:
 439:src/inittran.c ****                 (gsTransData.s_rsp_data.w_rspcode!=('0'*256+'0')))
 1131              		.loc 1 439 0
 1132 0502 6379     		ldrb	r3, [r4, #5]	@ zero_extendqisi2
 1133 0504 052B     		cmp	r3, #5
 1134 0506 3FF49DAE 		beq	.L68
 439:src/inittran.c ****                 (gsTransData.s_rsp_data.w_rspcode!=('0'*256+'0')))
 1135              		.loc 1 439 0 is_stmt 0 discriminator 1
 1136 050a 032B     		cmp	r3, #3
 1137 050c 3FF49AAE 		beq	.L68
 439:src/inittran.c ****                 (gsTransData.s_rsp_data.w_rspcode!=('0'*256+'0')))
 1138              		.loc 1 439 0 discriminator 2
 1139 0510 654B     		ldr	r3, .L206+8
 1140 0512 B3F87620 		ldrh	r2, [r3, #118]
 1141 0516 43F23003 		movw	r3, #12336
 1142 051a 9A42     		cmp	r2, r3
 1143 051c 7FF492AE 		bne	.L68
 442:src/inittran.c ****               pDat = get_pptr();
 1144              		.loc 1 442 0 is_stmt 1
 1145 0520 B8F1DF0F 		cmp	r8, #223
 1146 0524 7FF464AE 		bne	.L90
 443:src/inittran.c ****               app_cfg.eType = *pDat++;
 1147              		.loc 1 443 0
 1148 0528 FFF7FEFF 		bl	get_pptr
 1149              	.LVL177:
 444:src/inittran.c ****               tmp = *pDat++;
 1150              		.loc 1 444 0
 1151 052c 0378     		ldrb	r3, [r0]	@ zero_extendqisi2
 443:src/inittran.c ****               app_cfg.eType = *pDat++;
 1152              		.loc 1 443 0
 1153 052e 0546     		mov	r5, r0
 1154              	.LVL178:
 444:src/inittran.c ****               tmp = *pDat++;
 1155              		.loc 1 444 0
 1156 0530 8DF83031 		strb	r3, [sp, #304]
 1157              	.LVL179:
 445:src/inittran.c ****               app_cfg.eBitField = tmp;
 1158              		.loc 1 445 0
 1159 0534 4378     		ldrb	r3, [r0, #1]	@ zero_extendqisi2
 1160              	.LVL180:
 447:src/inittran.c ****               pDat+= 4;
 1161              		.loc 1 447 0
 1162 0536 0230     		adds	r0, r0, #2
 1163              	.LVL181:
 446:src/inittran.c ****               app_cfg.eRSBThresh = DWGet(pDat);
 1164              		.loc 1 446 0
 1165 0538 8DF83131 		strb	r3, [sp, #305]
ARM GAS  C:\Users\AHMED~1.ELE\AppData\Local\Temp\ccFUpfoi.s 			page 33


 447:src/inittran.c ****               pDat+= 4;
 1166              		.loc 1 447 0
 1167 053c FFF7FEFF 		bl	DWGet
 1168              	.LVL182:
 451:src/inittran.c ****               pDat += 5;
 1169              		.loc 1 451 0
 1170 0540 05F10801 		add	r1, r5, #8
 1171 0544 0522     		movs	r2, #5
 447:src/inittran.c ****               pDat+= 4;
 1172              		.loc 1 447 0
 1173 0546 ADF83201 		strh	r0, [sp, #306]	@ movhi
 1174 054a 000C     		lsrs	r0, r0, #16
 1175 054c ADF83401 		strh	r0, [sp, #308]	@ movhi
 1176              	.LVL183:
 449:src/inittran.c ****               app_cfg.eRSBMax = *pDat++;
 1177              		.loc 1 449 0
 1178 0550 AB79     		ldrb	r3, [r5, #6]	@ zero_extendqisi2
 451:src/inittran.c ****               pDat += 5;
 1179              		.loc 1 451 0
 1180 0552 4EA8     		add	r0, sp, #312
 449:src/inittran.c ****               app_cfg.eRSBMax = *pDat++;
 1181              		.loc 1 449 0
 1182 0554 8DF83631 		strb	r3, [sp, #310]
 450:src/inittran.c ****               memcpy(app_cfg.eTACDenial, pDat, 5);
 1183              		.loc 1 450 0
 1184 0558 EB79     		ldrb	r3, [r5, #7]	@ zero_extendqisi2
 1185 055a 8DF83731 		strb	r3, [sp, #311]
 451:src/inittran.c ****               pDat += 5;
 1186              		.loc 1 451 0
 1187 055e FFF7FEFF 		bl	memcpy
 1188              	.LVL184:
 453:src/inittran.c ****               pDat += 5;
 1189              		.loc 1 453 0
 1190 0562 4CAB     		add	r3, sp, #304
 1191 0564 03F10D00 		add	r0, r3, #13
 1192 0568 05F10D01 		add	r1, r5, #13
 1193 056c 0522     		movs	r2, #5
 1194 056e FFF7FEFF 		bl	memcpy
 1195              	.LVL185:
 455:src/inittran.c ****               pDat += 5;
 1196              		.loc 1 455 0
 1197 0572 05F11201 		add	r1, r5, #18
 1198 0576 0522     		movs	r2, #5
 1199 0578 0DF5A170 		add	r0, sp, #322
 1200 057c FFF7FEFF 		bl	memcpy
 1201              	.LVL186:
 457:src/inittran.c ****               EMVData2DnloadBuf(IOCMD_LOAD_AID, (BYTE *)&app_cfg, sizeof(APP_CFG));
 1202              		.loc 1 457 0
 1203 0580 4CAB     		add	r3, sp, #304
 1204 0582 03F11700 		add	r0, r3, #23
 1205 0586 05F11701 		add	r1, r5, #23
 1206              	.LVL187:
 1207 058a C822     		movs	r2, #200
 1208 058c FFF7FEFF 		bl	memcpy
 1209              	.LVL188:
 458:src/inittran.c ****               SetEMVLoaded(0x01); // lower nibble for status
 1210              		.loc 1 458 0
ARM GAS  C:\Users\AHMED~1.ELE\AppData\Local\Temp\ccFUpfoi.s 			page 34


 1211 0590 0420     		movs	r0, #4
 1212 0592 4CA9     		add	r1, sp, #304
 1213 0594 40F21722 		movw	r2, #535
 1214 0598 FFF7FEFF 		bl	EMVData2DnloadBuf
 1215              	.LVL189:
 459:src/inittran.c ****             }
 1216              		.loc 1 459 0
 1217 059c 0120     		movs	r0, #1
 1218 059e 59E0     		b	.L199
 1219              	.LVL190:
 1220              	.L79:
 467:src/inittran.c ****                 ((gsTransData.s_rsp_data.w_rspcode!='0'*256+'0')&&(gsTransData.s_rsp_data.w_rspcode
 1221              		.loc 1 467 0
 1222 05a0 6379     		ldrb	r3, [r4, #5]	@ zero_extendqisi2
 1223 05a2 052B     		cmp	r3, #5
 1224 05a4 3FF44EAE 		beq	.L68
 468:src/inittran.c ****               break;
 1225              		.loc 1 468 0 discriminator 1
 1226 05a8 3F4B     		ldr	r3, .L206+8
 467:src/inittran.c ****                 ((gsTransData.s_rsp_data.w_rspcode!='0'*256+'0')&&(gsTransData.s_rsp_data.w_rspcode
 1227              		.loc 1 467 0 discriminator 1
 1228 05aa 43F23002 		movw	r2, #12336
 468:src/inittran.c ****               break;
 1229              		.loc 1 468 0 discriminator 1
 1230 05ae B3F87630 		ldrh	r3, [r3, #118]
 467:src/inittran.c ****                 ((gsTransData.s_rsp_data.w_rspcode!='0'*256+'0')&&(gsTransData.s_rsp_data.w_rspcode
 1231              		.loc 1 467 0 discriminator 1
 1232 05b2 9342     		cmp	r3, r2
 1233 05b4 04D0     		beq	.L94
 468:src/inittran.c ****               break;
 1234              		.loc 1 468 0
 1235 05b6 45F63122 		movw	r2, #23089
 1236 05ba 9342     		cmp	r3, r2
 1237 05bc 7FF442AE 		bne	.L68
 1238              	.L94:
 470:src/inittran.c ****               pDat = get_pptr();
 1239              		.loc 1 470 0
 1240 05c0 40F21313 		movw	r3, #275
 1241 05c4 9845     		cmp	r8, r3
 1242 05c6 7FF413AE 		bne	.L90
 471:src/inittran.c ****               key_room.KeyIdx = *pDat++;
 1243              		.loc 1 471 0
 1244 05ca FFF7FEFF 		bl	get_pptr
 1245              	.LVL191:
 473:src/inittran.c ****               pDat += 5;
 1246              		.loc 1 473 0
 1247 05ce 0522     		movs	r2, #5
 472:src/inittran.c ****               memcpy(key_room.RID, pDat, 5);
 1248              		.loc 1 472 0
 1249 05d0 0146     		mov	r1, r0
 471:src/inittran.c ****               key_room.KeyIdx = *pDat++;
 1250              		.loc 1 471 0
 1251 05d2 0546     		mov	r5, r0
 1252              	.LVL192:
 472:src/inittran.c ****               memcpy(key_room.RID, pDat, 5);
 1253              		.loc 1 472 0
 1254 05d4 11F8013B 		ldrb	r3, [r1], #1	@ zero_extendqisi2
ARM GAS  C:\Users\AHMED~1.ELE\AppData\Local\Temp\ccFUpfoi.s 			page 35


 1255              	.LVL193:
 1256 05d8 06A8     		add	r0, sp, #24
 1257 05da 00F8013B 		strb	r3, [r0], #1
 473:src/inittran.c ****               pDat += 5;
 1258              		.loc 1 473 0
 1259 05de FFF7FEFF 		bl	memcpy
 1260              	.LVL194:
 475:src/inittran.c ****               pDat += 4;
 1261              		.loc 1 475 0
 1262 05e2 A81D     		adds	r0, r5, #6
 1263              	.LVL195:
 1264 05e4 FFF7FEFF 		bl	DWGet
 1265              	.LVL196:
 1266 05e8 0890     		str	r0, [sp, #32]
 1267              	.LVL197:
 477:src/inittran.c ****               pDat += 2;
 1268              		.loc 1 477 0
 1269 05ea 05F10A00 		add	r0, r5, #10
 1270              	.LVL198:
 1271 05ee FFF7FEFF 		bl	WGet
 1272              	.LVL199:
 479:src/inittran.c ****               pDat += 256;
 1273              		.loc 1 479 0
 1274 05f2 05F10C01 		add	r1, r5, #12
 1275 05f6 4FF48072 		mov	r2, #256
 477:src/inittran.c ****               pDat += 2;
 1276              		.loc 1 477 0
 1277 05fa 0990     		str	r0, [sp, #36]
 1278              	.LVL200:
 479:src/inittran.c ****               pDat += 256;
 1279              		.loc 1 479 0
 1280 05fc 0AA8     		add	r0, sp, #40
 1281 05fe FFF7FEFF 		bl	memcpy
 1282              	.LVL201:
 482:src/inittran.c ****               pDat += 2;
 1283              		.loc 1 482 0
 1284 0602 95F80E21 		ldrb	r2, [r5, #270]	@ zero_extendqisi2
 1285 0606 95F80D31 		ldrb	r3, [r5, #269]	@ zero_extendqisi2
 488:src/inittran.c ****             }
 1286              		.loc 1 488 0
 1287 060a 0220     		movs	r0, #2
 482:src/inittran.c ****               pDat += 2;
 1288              		.loc 1 482 0
 1289 060c 03EB0223 		add	r3, r3, r2, lsl #8
 488:src/inittran.c ****             }
 1290              		.loc 1 488 0
 1291 0610 06A9     		add	r1, sp, #24
 482:src/inittran.c ****               pDat += 2;
 1292              		.loc 1 482 0
 1293 0612 ADF82831 		strh	r3, [sp, #296]	@ movhi
 1294              	.LVL202:
 485:src/inittran.c ****               pDat += 2;
 1295              		.loc 1 485 0
 1296 0616 95F81121 		ldrb	r2, [r5, #273]	@ zero_extendqisi2
 1297 061a 95F81031 		ldrb	r3, [r5, #272]	@ zero_extendqisi2
 1298 061e 03EB0223 		add	r3, r3, r2, lsl #8
 488:src/inittran.c ****             }
ARM GAS  C:\Users\AHMED~1.ELE\AppData\Local\Temp\ccFUpfoi.s 			page 36


 1299              		.loc 1 488 0
 1300 0622 4FF48C72 		mov	r2, #280
 485:src/inittran.c ****               pDat += 2;
 1301              		.loc 1 485 0
 1302 0626 ADF82A31 		strh	r3, [sp, #298]	@ movhi
 1303              	.LVL203:
 487:src/inittran.c ****               EMVData2DnloadBuf(IOCMD_KEY_LOADING, (BYTE *)&key_room, sizeof(KEY_ROOM));
 1304              		.loc 1 487 0
 1305 062a 95F81231 		ldrb	r3, [r5, #274]	@ zero_extendqisi2
 1306 062e ADF82C31 		strh	r3, [sp, #300]	@ movhi
 488:src/inittran.c ****             }
 1307              		.loc 1 488 0
 1308 0632 FFF7FEFF 		bl	EMVData2DnloadBuf
 1309              	.LVL204:
 494:src/inittran.c ****           case 0x10: // Clear AID Table
 1310              		.loc 1 494 0
 1311 0636 05E6     		b	.L68
 1312              	.LVL205:
 1313              	.L80:
 496:src/inittran.c ****               break;
 1314              		.loc 1 496 0
 1315 0638 6379     		ldrb	r3, [r4, #5]	@ zero_extendqisi2
 1316 063a 052B     		cmp	r3, #5
 1317 063c 3FF402AE 		beq	.L68
 496:src/inittran.c ****               break;
 1318              		.loc 1 496 0 is_stmt 0 discriminator 1
 1319 0640 032B     		cmp	r3, #3
 1320 0642 3FF4FFAD 		beq	.L68
 498:src/inittran.c ****             break;
 1321              		.loc 1 498 0 is_stmt 1
 1322 0646 8020     		movs	r0, #128
 1323              	.LVL206:
 1324 0648 04E0     		b	.L199
 1325              	.LVL207:
 1326              	.L81:
 501:src/inittran.c ****               break;
 1327              		.loc 1 501 0
 1328 064a 6379     		ldrb	r3, [r4, #5]	@ zero_extendqisi2
 1329 064c 052B     		cmp	r3, #5
 1330 064e 3FF4F9AD 		beq	.L68
 503:src/inittran.c ****             break;
 1331              		.loc 1 503 0
 1332 0652 4020     		movs	r0, #64
 1333              	.LVL208:
 1334              	.L199:
 1335 0654 FFF7FEFF 		bl	SetEMVLoaded
 1336              	.LVL209:
 504:src/inittran.c ****           case 0x12: // Clear all extra param
 1337              		.loc 1 504 0
 1338 0658 F4E5     		b	.L68
 1339              	.LVL210:
 1340              	.L82:
 506:src/inittran.c ****               break;
 1341              		.loc 1 506 0
 1342 065a 6379     		ldrb	r3, [r4, #5]	@ zero_extendqisi2
 1343 065c 03F0FB03 		and	r3, r3, #251
 1344 0660 012B     		cmp	r3, #1
ARM GAS  C:\Users\AHMED~1.ELE\AppData\Local\Temp\ccFUpfoi.s 			page 37


 1345 0662 7FF4EFAD 		bne	.L68
 508:src/inittran.c ****             CloseExParamFiles();
 1346              		.loc 1 508 0
 1347 0666 0023     		movs	r3, #0
 1348 0668 3361     		str	r3, [r6, #16]
 509:src/inittran.c ****             CreateExParamFiles();
 1349              		.loc 1 509 0
 1350 066a FFF7FEFF 		bl	CloseExParamFiles
 1351              	.LVL211:
 510:src/inittran.c ****             break;
 1352              		.loc 1 510 0
 1353 066e FFF7FEFF 		bl	CreateExParamFiles
 1354              	.LVL212:
 511:src/inittran.c ****           case 0x13:
 1355              		.loc 1 511 0
 1356 0672 E7E5     		b	.L68
 1357              	.LVL213:
 1358              	.L83:
 513:src/inittran.c ****                 (gsTransData.s_rsp_data.w_rspcode!=('0'*256+'0')))
 1359              		.loc 1 513 0
 1360 0674 6379     		ldrb	r3, [r4, #5]	@ zero_extendqisi2
 1361 0676 0C4A     		ldr	r2, .L206+8
 1362 0678 03F0FB03 		and	r3, r3, #251
 1363 067c 012B     		cmp	r3, #1
 1364 067e 7FF4E1AD 		bne	.L68
 513:src/inittran.c ****                 (gsTransData.s_rsp_data.w_rspcode!=('0'*256+'0')))
 1365              		.loc 1 513 0 is_stmt 0 discriminator 3
 1366 0682 B2F87610 		ldrh	r1, [r2, #118]
 1367 0686 43F23003 		movw	r3, #12336
 1368 068a 9942     		cmp	r1, r3
 1369 068c 7FF4DAAD 		bne	.L68
 516:src/inittran.c ****               gsTransData.s_rsp_data.w_rspcode = 'I'*256+'T';
 1370              		.loc 1 516 0 is_stmt 1
 1371 0690 B8F1350F 		cmp	r8, #53
 1372 0694 0AD9     		bls	.L95
 517:src/inittran.c ****               return TRANS_FAIL;
 1373              		.loc 1 517 0
 1374 0696 44F65413 		movw	r3, #18772
 1375 069a A2F87630 		strh	r3, [r2, #118]	@ movhi
 1376 069e ABE5     		b	.L201
 1377              	.L207:
 1378              		.align	2
 1379              	.L206:
 1380 06a0 18000000 		.word	gsTransData+24
 1381 06a4 00000000 		.word	.LANCHOR0
 1382 06a8 00000000 		.word	gsTransData
 1383              	.L95:
 520:src/inittran.c ****               gsTransData.s_rsp_data.w_rspcode = 'D'*256+'E';
 1384              		.loc 1 520 0
 1385 06ac 9220     		movs	r0, #146
 1386              	.LVL214:
 1387 06ae 1C21     		movs	r1, #28
 1388 06b0 FFF7FEFF 		bl	sys_func1
 1389              	.LVL215:
 1390 06b4 0546     		mov	r5, r0
 1391              	.LVL216:
 1392 06b6 0028     		cmp	r0, #0
ARM GAS  C:\Users\AHMED~1.ELE\AppData\Local\Temp\ccFUpfoi.s 			page 38


 1393 06b8 3FF49AAD 		beq	.L90
 524:src/inittran.c ****             ((struct EXTRA_PARAM*)p_mem)->b_app_id = *pDat++;
 1394              		.loc 1 524 0
 1395 06bc FFF7FEFF 		bl	get_pptr
 1396              	.LVL217:
 525:src/inittran.c ****             ((struct EXTRA_PARAM*)p_mem)->b_seq_no = *pDat++;
 1397              		.loc 1 525 0
 1398 06c0 0378     		ldrb	r3, [r0]	@ zero_extendqisi2
 524:src/inittran.c ****             ((struct EXTRA_PARAM*)p_mem)->b_app_id = *pDat++;
 1399              		.loc 1 524 0
 1400 06c2 8246     		mov	r10, r0
 1401              	.LVL218:
 525:src/inittran.c ****             ((struct EXTRA_PARAM*)p_mem)->b_seq_no = *pDat++;
 1402              		.loc 1 525 0
 1403 06c4 2B70     		strb	r3, [r5]
 1404              	.LVL219:
 526:src/inittran.c ****             ((struct EXTRA_PARAM*)p_mem)->b_len = (BYTE)bcd2bin(WGet(pDat));
 1405              		.loc 1 526 0
 1406 06c6 4378     		ldrb	r3, [r0, #1]	@ zero_extendqisi2
 527:src/inittran.c ****             pDat += 2;
 1407              		.loc 1 527 0
 1408 06c8 0230     		adds	r0, r0, #2
 1409              	.LVL220:
 526:src/inittran.c ****             ((struct EXTRA_PARAM*)p_mem)->b_len = (BYTE)bcd2bin(WGet(pDat));
 1410              		.loc 1 526 0
 1411 06ca 6B70     		strb	r3, [r5, #1]
 527:src/inittran.c ****             pDat += 2;
 1412              		.loc 1 527 0
 1413 06cc FFF7FEFF 		bl	WGet
 1414              	.LVL221:
 1415 06d0 FFF7FEFF 		bl	bcd2bin
 1416              	.LVL222:
 530:src/inittran.c ****               ((struct EXTRA_PARAM*)p_mem)->b_prefix = *pDat++;
 1417              		.loc 1 530 0
 1418 06d4 6FF00303 		mvn	r3, #3
 1419 06d8 C2B2     		uxtb	r2, r0
 1420 06da 9B1A     		subs	r3, r3, r2
 1421 06dc 4344     		add	r3, r3, r8
 1422 06de 002B     		cmp	r3, #0
 527:src/inittran.c ****             pDat += 2;
 1423              		.loc 1 527 0
 1424 06e0 A870     		strb	r0, [r5, #2]
 1425              	.LVL223:
 533:src/inittran.c ****             memcpy(((struct EXTRA_PARAM*)p_mem)->sb_content, pDat, ((struct EXTRA_PARAM*)p_mem)->b_
 1426              		.loc 1 533 0
 1427 06e2 D3BF     		iteet	le
 1428 06e4 0023     		movle	r3, #0
 531:src/inittran.c ****             else
 1429              		.loc 1 531 0
 1430 06e6 9AF80430 		ldrbgt	r3, [r10, #4]	@ zero_extendqisi2
 1431 06ea 0AF10501 		addgt	r1, r10, #5
 1432              	.LVL224:
 528:src/inittran.c ****             // Check if there is prefix.
 1433              		.loc 1 528 0
 1434 06ee 0AF10401 		addle	r1, r10, #4
 1435              	.LVL225:
 533:src/inittran.c ****             memcpy(((struct EXTRA_PARAM*)p_mem)->sb_content, pDat, ((struct EXTRA_PARAM*)p_mem)->b_
ARM GAS  C:\Users\AHMED~1.ELE\AppData\Local\Temp\ccFUpfoi.s 			page 39


 1436              		.loc 1 533 0
 1437 06f2 EB70     		strb	r3, [r5, #3]
 1438              	.LVL226:
 534:src/inittran.c ****             UpdExtraParam(iExParamCount++, (struct EXTRA_PARAM*)p_mem);
 1439              		.loc 1 534 0
 1440 06f4 281D     		adds	r0, r5, #4
 1441 06f6 FFF7FEFF 		bl	memcpy
 1442              	.LVL227:
 535:src/inittran.c ****             FreeMW(p_mem);
 1443              		.loc 1 535 0
 1444 06fa 3069     		ldr	r0, [r6, #16]
 1445 06fc 2946     		mov	r1, r5
 1446 06fe 431C     		adds	r3, r0, #1
 1447 0700 3361     		str	r3, [r6, #16]
 1448 0702 FFF7FEFF 		bl	UpdExtraParam
 1449              	.LVL228:
 1450              	.L197:
 536:src/inittran.c ****             break;
 1451              		.loc 1 536 0
 1452 0706 9420     		movs	r0, #148
 1453 0708 2946     		mov	r1, r5
 1454              	.LVL229:
 1455              	.L198:
 1456 070a FFF7FEFF 		bl	sys_func1
 1457              	.LVL230:
 537:src/inittran.c ****         }
 1458              		.loc 1 537 0
 1459 070e 99E5     		b	.L68
 1460              	.LVL231:
 1461              	.L65:
 547:src/inittran.c ****   }
 548:src/inittran.c **** 
 549:src/inittran.c ****   // 63. private field
 550:src/inittran.c ****   if (bitmap[7] & 0x02) {
 1462              		.loc 1 550 0
 1463 0710 9DF81730 		ldrb	r3, [sp, #23]	@ zero_extendqisi2
 1464 0714 9B07     		lsls	r3, r3, #30
 1465 0716 07D5     		bpl	.L99
 551:src/inittran.c ****     gsTransData.s_rsp_data.sb_text[0] = (BYTE)get_word();
 1466              		.loc 1 551 0
 1467 0718 FFF7FEFF 		bl	get_word
 1468              	.LVL232:
 552:src/inittran.c ****     get_mem(&gsTransData.s_rsp_data.sb_text[1], 69);
 1469              		.loc 1 552 0
 1470 071c 4521     		movs	r1, #69
 551:src/inittran.c ****     gsTransData.s_rsp_data.sb_text[0] = (BYTE)get_word();
 1471              		.loc 1 551 0
 1472 071e 84F83000 		strb	r0, [r4, #48]
 1473              		.loc 1 552 0
 1474 0722 2048     		ldr	r0, .L208
 1475 0724 FFF7FEFF 		bl	get_mem
 1476              	.LVL233:
 1477              	.L99:
 553:src/inittran.c ****   }
 554:src/inittran.c **** 
 555:src/inittran.c ****   // avoid year = 00 if only download EMV or EXTRA param
 556:src/inittran.c ****   if ((p_mem = (void *)MallocMW(sizeof(struct TERM_CFG))) == NULL) {
ARM GAS  C:\Users\AHMED~1.ELE\AppData\Local\Temp\ccFUpfoi.s 			page 40


 1478              		.loc 1 556 0
 1479 0728 9220     		movs	r0, #146
 1480 072a 4FF4C471 		mov	r1, #392
 1481 072e FFF7FEFF 		bl	sys_func1
 1482              	.LVL234:
 1483 0732 0546     		mov	r5, r0
 1484 0734 0028     		cmp	r0, #0
 1485 0736 3FF45BAD 		beq	.L90
 557:src/inittran.c ****     gsTransData.s_rsp_data.w_rspcode = 'D'*256+'E';
 558:src/inittran.c ****     return TRANS_FAIL;
 559:src/inittran.c ****   }
 560:src/inittran.c ****   GetTermCfg((struct TERM_CFG*)p_mem);
 1486              		.loc 1 560 0
 1487 073a FFF7FEFF 		bl	GetTermCfg
 1488              	.LVL235:
 561:src/inittran.c ****   memcpy(&gsTransData.s_rsp_data.b_year, ((struct TERM_CFG*)p_mem)->sb_date_time, 6);
 1489              		.loc 1 561 0
 1490 073e 291D     		adds	r1, r5, #4
 1491 0740 0622     		movs	r2, #6
 1492 0742 1948     		ldr	r0, .L208+4
 1493 0744 FFF7FEFF 		bl	memcpy
 1494              	.LVL236:
 562:src/inittran.c ****   gsTransData.s_rsp_data.b_year=SetDTG(&gsTransData.s_rsp_data.b_year);
 1495              		.loc 1 562 0
 1496 0748 1748     		ldr	r0, .L208+4
 1497 074a FFF7FEFF 		bl	SetDTG
 1498              	.LVL237:
 563:src/inittran.c ****   FreeMW(p_mem);
 1499              		.loc 1 563 0
 1500 074e 2946     		mov	r1, r5
 562:src/inittran.c ****   gsTransData.s_rsp_data.b_year=SetDTG(&gsTransData.s_rsp_data.b_year);
 1501              		.loc 1 562 0
 1502 0750 2076     		strb	r0, [r4, #24]
 1503              		.loc 1 563 0
 1504 0752 9420     		movs	r0, #148
 1505 0754 FFF7FEFF 		bl	sys_func1
 1506              	.LVL238:
 564:src/inittran.c **** 
 565:src/inittran.c ****   if (more_msg==0) {
 1507              		.loc 1 565 0
 1508 0758 37B9     		cbnz	r7, .L100
 566:src/inittran.c ****     if (psBatchNo != NULL) {
 1509              		.loc 1 566 0
 1510 075a B168     		ldr	r1, [r6, #8]
 1511 075c 21B1     		cbz	r1, .L100
 567:src/inittran.c ****       FreeMW(psBatchNo);
 1512              		.loc 1 567 0
 1513 075e 9420     		movs	r0, #148
 1514 0760 FFF7FEFF 		bl	sys_func1
 1515              	.LVL239:
 568:src/inittran.c ****       psBatchNo = NULL;
 1516              		.loc 1 568 0
 1517 0764 114B     		ldr	r3, .L208+8
 1518 0766 9F60     		str	r7, [r3, #8]
 1519              	.L100:
 569:src/inittran.c ****     }
 570:src/inittran.c ****   }
ARM GAS  C:\Users\AHMED~1.ELE\AppData\Local\Temp\ccFUpfoi.s 			page 41


 571:src/inittran.c **** 
 572:src/inittran.c ****   if (gsTransData.s_rsp_data.w_rspcode == '0'*256+'0') {
 1520              		.loc 1 572 0
 1521 0768 B4F87610 		ldrh	r1, [r4, #118]
 1522 076c 43F23002 		movw	r2, #12336
 1523 0770 9142     		cmp	r1, r2
 1524 0772 0F4B     		ldr	r3, .L208+12
 1525 0774 05D0     		beq	.L200
 573:src/inittran.c ****     if (more_msg)
 574:src/inittran.c ****       return MORE_RSP;
 575:src/inittran.c ****     return TRANS_ACP;
 576:src/inittran.c ****   }
 577:src/inittran.c ****   else if (gsTransData.s_rsp_data.w_rspcode == 'Z'*256+'1') {
 1526              		.loc 1 577 0
 1527 0776 45F63120 		movw	r0, #23089
 1528 077a 8142     		cmp	r1, r0
 1529 077c 0CD1     		bne	.L106
 578:src/inittran.c ****     if (gsTransData.s_input.b_trans==EDC_INIT)
 1530              		.loc 1 578 0
 1531 077e 1879     		ldrb	r0, [r3, #4]	@ zero_extendqisi2
 1532 0780 20B9     		cbnz	r0, .L102
 1533              	.L200:
 574:src/inittran.c ****     return TRANS_ACP;
 1534              		.loc 1 574 0
 1535 0782 002F     		cmp	r7, #0
 1536 0784 14BF     		ite	ne
 1537 0786 0420     		movne	r0, #4
 1538 0788 0020     		moveq	r0, #0
 1539 078a 06E0     		b	.L44
 1540              	.L102:
 579:src/inittran.c ****     {
 580:src/inittran.c ****       if (more_msg)
 581:src/inittran.c ****         return(MORE_RSP);
 582:src/inittran.c ****       else
 583:src/inittran.c ****         return(TRANS_ACP);
 584:src/inittran.c ****     }
 585:src/inittran.c ****     gsTransData.s_rsp_data.w_rspcode = '0'*256+'0';
 1541              		.loc 1 585 0
 1542 078c A3F87620 		strh	r2, [r3, #118]	@ movhi
 586:src/inittran.c ****     return TRANS_ACP;
 1543              		.loc 1 586 0
 1544 0790 0020     		movs	r0, #0
 1545 0792 02E0     		b	.L44
 1546              	.LVL240:
 1547              	.L103:
 239:src/inittran.c ****   if ((KTransBitmap[gsTransData.s_input.b_trans].w_txmsg_id + 0x10) != msg_id) {
 1548              		.loc 1 239 0
 1549 0794 FF20     		movs	r0, #255
 1550              	.LVL241:
 1551 0796 00E0     		b	.L44
 1552              	.LVL242:
 1553              	.L106:
 587:src/inittran.c ****   }
 588:src/inittran.c ****   else
 589:src/inittran.c ****     return TRANS_REJ;
 1554              		.loc 1 589 0
 1555 0798 0120     		movs	r0, #1
ARM GAS  C:\Users\AHMED~1.ELE\AppData\Local\Temp\ccFUpfoi.s 			page 42


 1556              	.LVL243:
 1557              	.L44:
 590:src/inittran.c **** 
 591:src/inittran.c **** }
 1558              		.loc 1 591 0
 1559 079a 0DF5537D 		add	sp, sp, #844
 1560              		.cfi_def_cfa_offset 36
 1561              		@ sp needed
 1562 079e BDE8F08F 		pop	{r4, r5, r6, r7, r8, r9, r10, fp, pc}
 1563              	.L209:
 1564 07a2 00BF     		.align	2
 1565              	.L208:
 1566 07a4 31000000 		.word	gsTransData+49
 1567 07a8 18000000 		.word	gsTransData+24
 1568 07ac 00000000 		.word	.LANCHOR0
 1569 07b0 00000000 		.word	gsTransData
 1570              		.cfi_endproc
 1571              	.LFE1:
 1572              		.size	CheckHostRsp, .-CheckHostRsp
 1573              		.section	.text.InitTrans,"ax",%progbits
 1574              		.align	1
 1575              		.global	InitTrans
 1576              		.thumb
 1577              		.thumb_func
 1578              		.type	InitTrans, %function
 1579              	InitTrans:
 1580              	.LFB2:
 592:src/inittran.c **** //*****************************************************************************
 593:src/inittran.c **** //  Function        : InitTrans
 594:src/inittran.c **** //  Description     : Download parameters from STIS.
 595:src/inittran.c **** //  Input           : N/A
 596:src/inittran.c **** //  Return          : response (result)
 597:src/inittran.c **** //  Note            : N/A
 598:src/inittran.c **** //  Globals Changed : N/A
 599:src/inittran.c **** //*****************************************************************************
 600:src/inittran.c **** DWORD InitTrans(void)
 601:src/inittran.c **** {
 1581              		.loc 1 601 0
 1582              		.cfi_startproc
 1583              		@ args = 0, pretend = 0, frame = 544
 1584              		@ frame_needed = 0, uses_anonymous_args = 0
 1585              	.LVL244:
 1586 0000 2DE9F041 		push	{r4, r5, r6, r7, r8, lr}
 1587              		.cfi_def_cfa_offset 24
 1588              		.cfi_offset 4, -24
 1589              		.cfi_offset 5, -20
 1590              		.cfi_offset 6, -16
 1591              		.cfi_offset 7, -12
 1592              		.cfi_offset 8, -8
 1593              		.cfi_offset 14, -4
 1594 0004 ADF50A7D 		sub	sp, sp, #552
 1595              		.cfi_def_cfa_offset 576
 602:src/inittran.c ****   int i, func_sel, acq_count;
 603:src/inittran.c ****   struct TERM_DATA term_data;
 604:src/inittran.c ****   struct ACQUIRER_TBL acq_tbl;
 605:src/inittran.c ****   DWORD response = TRANS_FAIL;
 606:src/inittran.c ****   BYTE trace_no[3];
ARM GAS  C:\Users\AHMED~1.ELE\AppData\Local\Temp\ccFUpfoi.s 			page 43


 607:src/inittran.c **** 
 608:src/inittran.c ****   if (GetSTISMode() == SETUP_MODE)
 1596              		.loc 1 608 0
 1597 0008 FFF7FEFF 		bl	GetSTISMode
 1598              	.LVL245:
 1599 000c 08B9     		cbnz	r0, .L211
 1600              	.L213:
 609:src/inittran.c ****     return response;
 1601              		.loc 1 609 0
 1602 000e 0220     		movs	r0, #2
 1603 0010 EFE0     		b	.L212
 1604              	.L211:
 610:src/inittran.c **** 
 611:src/inittran.c ****   if ((func_sel = MenuSelect(&KInitMenu, 0)) == -1)
 1605              		.loc 1 611 0
 1606 0012 7A48     		ldr	r0, .L246
 1607 0014 0021     		movs	r1, #0
 1608 0016 FFF7FEFF 		bl	MenuSelect
 1609              	.LVL246:
 1610 001a 431C     		adds	r3, r0, #1
 1611 001c 0646     		mov	r6, r0
 1612              	.LVL247:
 1613 001e F6D0     		beq	.L213
 612:src/inittran.c ****     return response;
 613:src/inittran.c **** 
 614:src/inittran.c ****   DispCtrlMW(MW_CLR_DISP);
 1614              		.loc 1 614 0
 1615 0020 0C21     		movs	r1, #12
 1616 0022 1620     		movs	r0, #22
 1617              	.LVL248:
 1618 0024 FFF7FEFF 		bl	sys_func1
 1619              	.LVL249:
 615:src/inittran.c ****   DispHeader();
 1620              		.loc 1 615 0
 1621 0028 FFF7FEFF 		bl	DispHeader
 1622              	.LVL250:
 616:src/inittran.c ****   if (DebugModeON()&&TrainingModeON()) {
 1623              		.loc 1 616 0
 1624 002c FFF7FEFF 		bl	DebugModeON
 1625              	.LVL251:
 1626 0030 90B1     		cbz	r0, .L214
 1627              		.loc 1 616 0 is_stmt 0 discriminator 1
 1628 0032 FFF7FEFF 		bl	TrainingModeON
 1629              	.LVL252:
 1630 0036 78B1     		cbz	r0, .L214
 617:src/inittran.c ****     SetSTISMode(TRANS_MODE);
 1631              		.loc 1 617 0 is_stmt 1
 1632 0038 0220     		movs	r0, #2
 1633 003a FFF7FEFF 		bl	SetSTISMode
 1634              	.LVL253:
 618:src/inittran.c ****     SetRspCode('0'*256+'0', TRUE);
 1635              		.loc 1 618 0
 1636 003e 43F23000 		movw	r0, #12336
 1637 0042 0121     		movs	r1, #1
 1638 0044 FFF7FEFF 		bl	SetRspCode
 1639              	.LVL254:
 619:src/inittran.c ****     TransEnd();
ARM GAS  C:\Users\AHMED~1.ELE\AppData\Local\Temp\ccFUpfoi.s 			page 44


 1640              		.loc 1 619 0
 1641 0048 FFF7FEFF 		bl	TransEnd
 1642              	.LVL255:
 620:src/inittran.c ****     Delay1Sec(10, 0);
 1643              		.loc 1 620 0
 1644 004c 0A20     		movs	r0, #10
 1645 004e 0021     		movs	r1, #0
 1646 0050 FFF7FEFF 		bl	Delay1Sec
 1647              	.LVL256:
 621:src/inittran.c ****     return TRANS_ACP;
 1648              		.loc 1 621 0
 1649 0054 0020     		movs	r0, #0
 1650 0056 CCE0     		b	.L212
 1651              	.L214:
 622:src/inittran.c ****   }
 623:src/inittran.c **** 
 624:src/inittran.c ****   gsTransData.s_input.b_trans = EDC_INIT;
 1652              		.loc 1 624 0
 1653 0058 694D     		ldr	r5, .L246+4
 1654 005a 0024     		movs	r4, #0
 625:src/inittran.c ****   gsTransData.s_input.b_stis_init_mode = func_sel;
 626:src/inittran.c ****   if (!GetTermData(&term_data))
 1655              		.loc 1 626 0
 1656 005c 2EA8     		add	r0, sp, #184
 624:src/inittran.c ****   gsTransData.s_input.b_stis_init_mode = func_sel;
 1657              		.loc 1 624 0
 1658 005e 2C71     		strb	r4, [r5, #4]
 625:src/inittran.c ****   gsTransData.s_input.b_stis_init_mode = func_sel;
 1659              		.loc 1 625 0
 1660 0060 6E71     		strb	r6, [r5, #5]
 1661              		.loc 1 626 0
 1662 0062 FFF7FEFF 		bl	GetTermData
 1663              	.LVL257:
 1664 0066 0028     		cmp	r0, #0
 1665 0068 D1D0     		beq	.L213
 627:src/inittran.c ****     return response;
 628:src/inittran.c **** 
 629:src/inittran.c ****   memcpy(gsTransData.s_input.sb_term_id,term_data.sb_term_id, 8);
 1666              		.loc 1 629 0
 1667 006a 0DF1BA01 		add	r1, sp, #186
 1668 006e 0822     		movs	r2, #8
 1669 0070 05F10C00 		add	r0, r5, #12
 1670 0074 FFF7FEFF 		bl	memcpy
 1671              	.LVL258:
 630:src/inittran.c **** 
 631:src/inittran.c ****   PackInitComm();
 1672              		.loc 1 631 0
 1673 0078 FFF7FEFF 		bl	PackInitComm
 1674              	.LVL259:
 632:src/inittran.c ****   gsTransData.s_input.b_proc_code2 = 0;
 1675              		.loc 1 632 0
 1676 007c AC71     		strb	r4, [r5, #6]
 633:src/inittran.c ****   ClearResponse();
 1677              		.loc 1 633 0
 1678 007e FFF7FEFF 		bl	ClearResponse
 1679              	.LVL260:
 634:src/inittran.c **** 
ARM GAS  C:\Users\AHMED~1.ELE\AppData\Local\Temp\ccFUpfoi.s 			page 45


 635:src/inittran.c ****   if ((gsTransData.s_rsp_data.w_rspcode=ConnectOK(FALSE)) == COMM_OK) {
 1680              		.loc 1 635 0
 1681 0082 2046     		mov	r0, r4
 1682 0084 FFF7FEFF 		bl	ConnectOK
 1683              	.LVL261:
 1684 0088 43F23003 		movw	r3, #12336
 1685 008c 80B2     		uxth	r0, r0
 1686 008e 9842     		cmp	r0, r3
 1687 0090 A5F87600 		strh	r0, [r5, #118]	@ movhi
 1688 0094 40F0A380 		bne	.L226
 636:src/inittran.c ****     EMVClrDnloadBuf();
 1689              		.loc 1 636 0
 1690 0098 FFF7FEFF 		bl	EMVClrDnloadBuf
 1691              	.LVL262:
 637:src/inittran.c ****     // Clear STIS data 1st;
 638:src/inittran.c ****     psTxBuf  = (struct COMMBUF *) MallocMW(sizeof(struct COMMBUF));
 1692              		.loc 1 638 0
 1693 009c 40F60441 		movw	r1, #3076
 1694 00a0 9220     		movs	r0, #146
 1695 00a2 FFF7FEFF 		bl	sys_func1
 1696              	.LVL263:
 1697 00a6 574C     		ldr	r4, .L246+8
 639:src/inittran.c ****     psRxBuf  = (struct COMMBUF *) MallocMW(sizeof(struct COMMBUF));
 1698              		.loc 1 639 0
 1699 00a8 40F60441 		movw	r1, #3076
 1700 00ac 2746     		mov	r7, r4
 638:src/inittran.c ****     psRxBuf  = (struct COMMBUF *) MallocMW(sizeof(struct COMMBUF));
 1701              		.loc 1 638 0
 1702 00ae 2060     		str	r0, [r4]
 1703              		.loc 1 639 0
 1704 00b0 9220     		movs	r0, #146
 1705 00b2 FFF7FEFF 		bl	sys_func1
 1706              	.LVL264:
 1707 00b6 6060     		str	r0, [r4, #4]
 640:src/inittran.c ****     MemFatalErr(psTxBuf);
 1708              		.loc 1 640 0
 1709 00b8 2068     		ldr	r0, [r4]
 1710 00ba FFF7FEFF 		bl	MemFatalErr
 1711              	.LVL265:
 641:src/inittran.c ****     MemFatalErr(psRxBuf);
 1712              		.loc 1 641 0
 1713 00be 6068     		ldr	r0, [r4, #4]
 1714 00c0 FFF7FEFF 		bl	MemFatalErr
 1715              	.LVL266:
 1716              	.L224:
 642:src/inittran.c ****     while (TRUE) {
 643:src/inittran.c ****       GetTrace(trace_no);
 644:src/inittran.c ****       memcpy(gsTransData.s_input.sb_trace_no, trace_no, 3);
 1717              		.loc 1 644 0
 1718 00c4 4E4E     		ldr	r6, .L246+4
 643:src/inittran.c ****       memcpy(gsTransData.s_input.sb_trace_no, trace_no, 3);
 1719              		.loc 1 643 0
 1720 00c6 02A8     		add	r0, sp, #8
 1721 00c8 FFF7FEFF 		bl	GetTrace
 1722              	.LVL267:
 1723              		.loc 1 644 0
 1724 00cc 02A9     		add	r1, sp, #8
ARM GAS  C:\Users\AHMED~1.ELE\AppData\Local\Temp\ccFUpfoi.s 			page 46


 1725 00ce 0322     		movs	r2, #3
 1726 00d0 06F10900 		add	r0, r6, #9
 1727 00d4 FFF7FEFF 		bl	memcpy
 1728              	.LVL268:
 645:src/inittran.c ****       PackHostMsg();
 1729              		.loc 1 645 0
 1730 00d8 FFF7FEFF 		bl	PackHostMsg
 1731              	.LVL269:
 646:src/inittran.c ****       if ((gsTransData.s_rsp_data.w_rspcode=SendRcvd(psTxBuf,psRxBuf))==COMM_OK) {
 1732              		.loc 1 646 0
 1733 00dc 97E80300 		ldmia	r7, {r0, r1}
 1734 00e0 FFF7FEFF 		bl	SendRcvd
 1735              	.LVL270:
 1736 00e4 43F23003 		movw	r3, #12336
 1737 00e8 80B2     		uxth	r0, r0
 1738 00ea 9842     		cmp	r0, r3
 1739 00ec A5F87600 		strh	r0, [r5, #118]	@ movhi
 1740 00f0 09D1     		bne	.L216
 647:src/inittran.c ****         IncTrace();
 1741              		.loc 1 647 0
 1742 00f2 FFF7FEFF 		bl	IncTrace
 1743              	.LVL271:
 648:src/inittran.c ****         response = gsTransData.b_response = CheckHostRsp();
 1744              		.loc 1 648 0
 1745 00f6 FFF7FEFF 		bl	CheckHostRsp
 1746              	.LVL272:
 649:src/inittran.c ****       }
 650:src/inittran.c ****       else {
 651:src/inittran.c ****         if (GetSTISMode() == INIT_MODE) {
 652:src/inittran.c ****           fCommitAllMW();
 653:src/inittran.c ****           CloseSTISFiles();
 654:src/inittran.c ****           CreateSTISFiles();
 655:src/inittran.c ****           CloseSTISFiles();
 656:src/inittran.c ****           STISInit();
 657:src/inittran.c ****           SetSTISMode(INIT_MODE);
 658:src/inittran.c ****           fCommitAllMW();
 659:src/inittran.c ****         }
 660:src/inittran.c ****         response = gsTransData.b_response = TRANS_FAIL;
 661:src/inittran.c ****         break;
 662:src/inittran.c ****       }
 663:src/inittran.c ****       if ((gsTransData.s_input.b_stis_init_mode == MODE_ALL_PARAM) && (gsTransData.b_response == TR
 1747              		.loc 1 663 0
 1748 00fa 7379     		ldrb	r3, [r6, #5]	@ zero_extendqisi2
 1749 00fc 012B     		cmp	r3, #1
 648:src/inittran.c ****         response = gsTransData.b_response = CheckHostRsp();
 1750              		.loc 1 648 0
 1751 00fe 3070     		strb	r0, [r6]
 1752 0100 0446     		mov	r4, r0
 1753              	.LVL273:
 1754              		.loc 1 663 0
 1755 0102 38D1     		bne	.L218
 1756 0104 21E0     		b	.L245
 1757              	.LVL274:
 1758              	.L216:
 651:src/inittran.c ****           fCommitAllMW();
 1759              		.loc 1 651 0
 1760 0106 FFF7FEFF 		bl	GetSTISMode
ARM GAS  C:\Users\AHMED~1.ELE\AppData\Local\Temp\ccFUpfoi.s 			page 47


 1761              	.LVL275:
 1762 010a 0128     		cmp	r0, #1
 1763 010c 0646     		mov	r6, r0
 1764 010e 19D1     		bne	.L219
 652:src/inittran.c ****           CloseSTISFiles();
 1765              		.loc 1 652 0
 1766 0110 0024     		movs	r4, #0
 1767 0112 1321     		movs	r1, #19
 1768 0114 2246     		mov	r2, r4
 1769 0116 2346     		mov	r3, r4
 1770 0118 0094     		str	r4, [sp]
 1771 011a 0F20     		movs	r0, #15
 1772 011c FFF7FEFF 		bl	lib_app_call
 1773              	.LVL276:
 653:src/inittran.c ****           CreateSTISFiles();
 1774              		.loc 1 653 0
 1775 0120 FFF7FEFF 		bl	CloseSTISFiles
 1776              	.LVL277:
 654:src/inittran.c ****           CloseSTISFiles();
 1777              		.loc 1 654 0
 1778 0124 FFF7FEFF 		bl	CreateSTISFiles
 1779              	.LVL278:
 655:src/inittran.c ****           STISInit();
 1780              		.loc 1 655 0
 1781 0128 FFF7FEFF 		bl	CloseSTISFiles
 1782              	.LVL279:
 656:src/inittran.c ****           SetSTISMode(INIT_MODE);
 1783              		.loc 1 656 0
 1784 012c FFF7FEFF 		bl	STISInit
 1785              	.LVL280:
 657:src/inittran.c ****           fCommitAllMW();
 1786              		.loc 1 657 0
 1787 0130 3046     		mov	r0, r6
 1788 0132 FFF7FEFF 		bl	SetSTISMode
 1789              	.LVL281:
 658:src/inittran.c ****         }
 1790              		.loc 1 658 0
 1791 0136 0094     		str	r4, [sp]
 1792 0138 0F20     		movs	r0, #15
 1793 013a 1321     		movs	r1, #19
 1794 013c 2246     		mov	r2, r4
 1795 013e 2346     		mov	r3, r4
 1796 0140 FFF7FEFF 		bl	lib_app_call
 1797              	.LVL282:
 1798              	.L219:
 660:src/inittran.c ****         break;
 1799              		.loc 1 660 0
 1800 0144 0224     		movs	r4, #2
 1801 0146 2C70     		strb	r4, [r5]
 1802              	.LVL283:
 661:src/inittran.c ****       }
 1803              		.loc 1 661 0
 1804 0148 1AE0     		b	.L220
 1805              	.LVL284:
 1806              	.L245:
 1807              		.loc 1 663 0 discriminator 1
 1808 014a A0B9     		cbnz	r0, .L218
ARM GAS  C:\Users\AHMED~1.ELE\AppData\Local\Temp\ccFUpfoi.s 			page 48


 664:src/inittran.c ****         acq_count = GetAcqCount();
 1809              		.loc 1 664 0
 1810 014c FFF7FEFF 		bl	GetAcqCount
 1811              	.LVL285:
 665:src/inittran.c ****         for (i=0; i < acq_count; i++) {
 1812              		.loc 1 665 0
 1813 0150 2646     		mov	r6, r4
 664:src/inittran.c ****         acq_count = GetAcqCount();
 1814              		.loc 1 664 0
 1815 0152 8046     		mov	r8, r0
 1816              	.LVL286:
 1817              	.L221:
 1818              		.loc 1 665 0 discriminator 1
 1819 0154 4645     		cmp	r6, r8
 1820 0156 13DA     		bge	.L220
 666:src/inittran.c ****           if (GetAcqTbl(i, &acq_tbl)) {
 1821              		.loc 1 666 0
 1822 0158 3046     		mov	r0, r6
 1823 015a 03A9     		add	r1, sp, #12
 1824 015c FFF7FEFF 		bl	GetAcqTbl
 1825              	.LVL287:
 1826 0160 38B1     		cbz	r0, .L222
 667:src/inittran.c ****             if (acq_tbl.b_status != NOT_LOADED) {
 1827              		.loc 1 667 0
 1828 0162 9DF8B430 		ldrb	r3, [sp, #180]	@ zero_extendqisi2
 1829 0166 FF2B     		cmp	r3, #255
 1830 0168 03D0     		beq	.L222
 668:src/inittran.c ****               SetSTISMode(TRANS_MODE);
 1831              		.loc 1 668 0
 1832 016a 0220     		movs	r0, #2
 1833 016c FFF7FEFF 		bl	SetSTISMode
 1834              	.LVL288:
 669:src/inittran.c ****               // N2C not support VBin yet
 670:src/inittran.c ****               //VBinAllowed();
 671:src/inittran.c ****               break;
 1835              		.loc 1 671 0
 1836 0170 06E0     		b	.L220
 1837              	.L222:
 665:src/inittran.c ****           if (GetAcqTbl(i, &acq_tbl)) {
 1838              		.loc 1 665 0 discriminator 2
 1839 0172 0136     		adds	r6, r6, #1
 1840              	.LVL289:
 1841 0174 EEE7     		b	.L221
 1842              	.LVL290:
 1843              	.L218:
 672:src/inittran.c ****             }
 673:src/inittran.c ****           }
 674:src/inittran.c ****         }
 675:src/inittran.c ****       }
 676:src/inittran.c ****       else if (gsTransData.b_response == MORE_RSP) {
 1844              		.loc 1 676 0
 1845 0176 0428     		cmp	r0, #4
 1846 0178 02D1     		bne	.L220
 677:src/inittran.c ****         gsTransData.s_input.b_proc_code2 = 0x01;
 1847              		.loc 1 677 0
 1848 017a 0123     		movs	r3, #1
 1849 017c AB71     		strb	r3, [r5, #6]
ARM GAS  C:\Users\AHMED~1.ELE\AppData\Local\Temp\ccFUpfoi.s 			page 49


 678:src/inittran.c ****         continue; /* more msg to receive */
 679:src/inittran.c ****       }
 680:src/inittran.c ****       break;
 681:src/inittran.c ****     }
 1850              		.loc 1 681 0
 1851 017e A1E7     		b	.L224
 1852              	.LVL291:
 1853              	.L220:
 682:src/inittran.c **** 
 683:src/inittran.c ****     DispClrBelowMW(MW_LINE3);
 1854              		.loc 1 683 0
 1855 0180 0026     		movs	r6, #0
 1856 0182 3346     		mov	r3, r6
 1857 0184 2321     		movs	r1, #35
 1858 0186 4FF44072 		mov	r2, #768
 1859 018a 0096     		str	r6, [sp]
 1860 018c 0F20     		movs	r0, #15
 1861 018e FFF7FEFF 		bl	lib_app_call
 1862              	.LVL292:
 684:src/inittran.c ****     Disp2x16Msg(KProcessing, MW_LINE5, MW_CENTER|MW_BIGFONT);
 1863              		.loc 1 684 0
 1864 0192 1D48     		ldr	r0, .L246+12
 1865 0194 4FF4A061 		mov	r1, #1280
 1866 0198 41F20202 		movw	r2, #4098
 1867 019c FFF7FEFF 		bl	Disp2x16Msg
 1868              	.LVL293:
 685:src/inittran.c ****     fCommitAllMW();  // Commit All save data.
 1869              		.loc 1 685 0
 1870 01a0 3346     		mov	r3, r6
 1871 01a2 0096     		str	r6, [sp]
 1872 01a4 0F20     		movs	r0, #15
 1873 01a6 1321     		movs	r1, #19
 1874 01a8 3246     		mov	r2, r6
 1875 01aa FFF7FEFF 		bl	lib_app_call
 1876              	.LVL294:
 686:src/inittran.c ****     if (gsTransData.b_response == TRANS_ACP) {
 1877              		.loc 1 686 0
 1878 01ae 2B78     		ldrb	r3, [r5]	@ zero_extendqisi2
 1879 01b0 1BB9     		cbnz	r3, .L225
 687:src/inittran.c ****       EMVDataUpdate();
 1880              		.loc 1 687 0
 1881 01b2 FFF7FEFF 		bl	EMVDataUpdate
 1882              	.LVL295:
 688:src/inittran.c ****       EMVInit();
 1883              		.loc 1 688 0
 1884 01b6 FFF7FEFF 		bl	EMVInit
 1885              	.LVL296:
 1886              	.L225:
 689:src/inittran.c ****     }
 690:src/inittran.c ****     EMVKillDnloadBuf();
 1887              		.loc 1 690 0
 1888 01ba FFF7FEFF 		bl	EMVKillDnloadBuf
 1889              	.LVL297:
 691:src/inittran.c ****     fCommitAllMW();  // Commit All save data.
 1890              		.loc 1 691 0
 1891 01be 0022     		movs	r2, #0
 1892 01c0 1346     		mov	r3, r2
ARM GAS  C:\Users\AHMED~1.ELE\AppData\Local\Temp\ccFUpfoi.s 			page 50


 1893 01c2 0096     		str	r6, [sp]
 1894 01c4 1321     		movs	r1, #19
 1895 01c6 0F20     		movs	r0, #15
 1896 01c8 FFF7FEFF 		bl	lib_app_call
 1897              	.LVL298:
 692:src/inittran.c **** 
 693:src/inittran.c ****     FreeMW(psTxBuf);
 1898              		.loc 1 693 0
 1899 01cc 3968     		ldr	r1, [r7]
 1900 01ce 9420     		movs	r0, #148
 1901 01d0 FFF7FEFF 		bl	sys_func1
 1902              	.LVL299:
 694:src/inittran.c ****     FreeMW(psRxBuf);
 1903              		.loc 1 694 0
 1904 01d4 7968     		ldr	r1, [r7, #4]
 1905 01d6 9420     		movs	r0, #148
 1906 01d8 FFF7FEFF 		bl	sys_func1
 1907              	.LVL300:
 1908 01dc 00E0     		b	.L215
 1909              	.LVL301:
 1910              	.L226:
 605:src/inittran.c ****   BYTE trace_no[3];
 1911              		.loc 1 605 0
 1912 01de 0224     		movs	r4, #2
 1913              	.LVL302:
 1914              	.L215:
 695:src/inittran.c ****   }
 696:src/inittran.c ****   ResetComm();
 1915              		.loc 1 696 0
 1916 01e0 FFF7FEFF 		bl	ResetComm
 1917              	.LVL303:
 697:src/inittran.c ****   BatSysInit(GetAcqCount());
 1918              		.loc 1 697 0
 1919 01e4 FFF7FEFF 		bl	GetAcqCount
 1920              	.LVL304:
 1921 01e8 FFF7FEFF 		bl	BatSysInit
 1922              	.LVL305:
 698:src/inittran.c ****   TransEnd();
 1923              		.loc 1 698 0
 1924 01ec FFF7FEFF 		bl	TransEnd
 1925              	.LVL306:
 699:src/inittran.c ****   return response;
 1926              		.loc 1 699 0
 1927 01f0 2046     		mov	r0, r4
 1928              	.LVL307:
 1929              	.L212:
 700:src/inittran.c **** }
 1930              		.loc 1 700 0
 1931 01f2 0DF50A7D 		add	sp, sp, #552
 1932              		.cfi_def_cfa_offset 24
 1933              		@ sp needed
 1934 01f6 BDE8F081 		pop	{r4, r5, r6, r7, r8, pc}
 1935              	.L247:
 1936 01fa 00BF     		.align	2
 1937              	.L246:
 1938 01fc 00000000 		.word	.LANCHOR1
 1939 0200 00000000 		.word	gsTransData
ARM GAS  C:\Users\AHMED~1.ELE\AppData\Local\Temp\ccFUpfoi.s 			page 51


 1940 0204 00000000 		.word	.LANCHOR0
 1941 0208 00000000 		.word	KProcessing
 1942              		.cfi_endproc
 1943              	.LFE2:
 1944              		.size	InitTrans, .-InitTrans
 1945              		.global	KInitMenu
 1946              		.global	KInitItem
 1947              		.section	.rodata
 1948              		.align	2
 1949              		.set	.LANCHOR1,. + 0
 1950              		.type	KInitMenu, %object
 1951              		.size	KInitMenu, 28
 1952              	KInitMenu:
 1953 0000 53544953 		.ascii	"STIS Init.\000"
 1953      20496E69 
 1953      742E00
 1954 000b 00000000 		.space	12
 1954      00000000 
 1954      00000000 
 1955 0017 00       		.space	1
 1956 0018 00000000 		.word	KInitItem
 1957              		.type	KInitItem, %object
 1958              		.size	KInitItem, 192
 1959              	KInitItem:
 1960 001c 01000000 		.word	1
 1961 0020 00000000 		.word	.LC0
 1962 0024 00000000 		.space	24
 1962      00000000 
 1962      00000000 
 1962      00000000 
 1962      00000000 
 1963 003c 02000000 		.word	2
 1964 0040 0F000000 		.word	.LC1
 1965 0044 00000000 		.space	24
 1965      00000000 
 1965      00000000 
 1965      00000000 
 1965      00000000 
 1966 005c 03000000 		.word	3
 1967 0060 1E000000 		.word	.LC2
 1968 0064 00000000 		.space	24
 1968      00000000 
 1968      00000000 
 1968      00000000 
 1968      00000000 
 1969 007c 04000000 		.word	4
 1970 0080 2C000000 		.word	.LC3
 1971 0084 00000000 		.space	24
 1971      00000000 
 1971      00000000 
 1971      00000000 
 1971      00000000 
 1972 009c 05000000 		.word	5
 1973 00a0 3C000000 		.word	.LC4
 1974 00a4 00000000 		.space	24
 1974      00000000 
 1974      00000000 
ARM GAS  C:\Users\AHMED~1.ELE\AppData\Local\Temp\ccFUpfoi.s 			page 52


 1974      00000000 
 1974      00000000 
 1975 00bc FFFFFFFF 		.word	-1
 1976 00c0 00000000 		.word	0
 1977 00c4 00000000 		.space	24
 1977      00000000 
 1977      00000000 
 1977      00000000 
 1977      00000000 
 1978              		.section	.rodata.str1.1,"aMS",%progbits,1
 1979              	.LC0:
 1980 0000 416C6C20 		.ascii	"All Parameters\000"
 1980      50617261 
 1980      6D657465 
 1980      727300
 1981              	.LC1:
 1982 000f 454D5620 		.ascii	"EMV Param Only\000"
 1982      50617261 
 1982      6D204F6E 
 1982      6C7900
 1983              	.LC2:
 1984 001e 454D5620 		.ascii	"EMV Keys Only\000"
 1984      4B657973 
 1984      204F6E6C 
 1984      7900
 1985              	.LC3:
 1986 002c 454D5620 		.ascii	"EMV Param & Key\000"
 1986      50617261 
 1986      6D202620 
 1986      4B657900 
 1987              	.LC4:
 1988 003c 45787472 		.ascii	"Extra Parameters\000"
 1988      61205061 
 1988      72616D65 
 1988      74657273 
 1988      00
 1989              		.bss
 1990              		.align	2
 1991              		.set	.LANCHOR0,. + 0
 1992              		.type	psTxBuf, %object
 1993              		.size	psTxBuf, 4
 1994              	psTxBuf:
 1995 0000 00000000 		.space	4
 1996              		.type	psRxBuf, %object
 1997              		.size	psRxBuf, 4
 1998              	psRxBuf:
 1999 0004 00000000 		.space	4
 2000              		.type	psBatchNo, %object
 2001              		.size	psBatchNo, 4
 2002              	psBatchNo:
 2003 0008 00000000 		.space	4
 2004              		.type	iSaveAcqCount, %object
 2005              		.size	iSaveAcqCount, 4
 2006              	iSaveAcqCount:
 2007 000c 00000000 		.space	4
 2008              		.type	iExParamCount, %object
 2009              		.size	iExParamCount, 4
ARM GAS  C:\Users\AHMED~1.ELE\AppData\Local\Temp\ccFUpfoi.s 			page 53


 2010              	iExParamCount:
 2011 0010 00000000 		.space	4
 2012              		.text
 2013              	.Letext0:
 2014              		.file 2 "c:\\devtools\\gcc_v49_2014q4\\lib\\gcc\\arm-none-eabi\\4.9.3\\include\\stddef.h"
 2015              		.file 3 "../LibA5T1000/common.h"
 2016              		.file 4 "../LibA5T1000/midware.h"
 2017              		.file 5 "../LibA5T1000/system.h"
 2018              		.file 6 "../LibA5T1000/emv2dll.h"
 2019              		.file 7 "src/sysutil.h"
 2020              		.file 8 "src/menu.h"
 2021              		.file 9 "../LibA5T1000/apm.h"
 2022              		.file 10 "src/tranutil.h"
 2023              		.file 11 "src/constant.h"
 2024              		.file 12 "src/comm.h"
 2025              		.file 13 "src/coremain.h"
 2026              		.file 14 "src/message.h"
 2027              		.file 15 "../LibA5T1000/util.h"
 2028              		.file 16 "c:\\devtools\\gcc_v49_2014q4\\arm-none-eabi\\include\\string.h"
 2029              		.file 17 "src/stis.h"
 2030              		.file 18 "src/termdata.h"
 2031              		.file 19 "src/emvtrans.h"
 2032              		.file 20 "src/batchsys.h"
 2033              		.section	.debug_info,"",%progbits
 2034              	.Ldebug_info0:
 2035 0000 C6360000 		.4byte	0x36c6
 2036 0004 0400     		.2byte	0x4
 2037 0006 00000000 		.4byte	.Ldebug_abbrev0
 2038 000a 04       		.byte	0x4
 2039 000b 01       		.uleb128 0x1
 2040 000c D7190000 		.4byte	.LASF937
 2041 0010 01       		.byte	0x1
 2042 0011 95170000 		.4byte	.LASF938
 2043 0015 7E0F0000 		.4byte	.LASF939
 2044 0019 00000000 		.4byte	.Ldebug_ranges0+0
 2045 001d 00000000 		.4byte	0
 2046 0021 00000000 		.4byte	.Ldebug_line0
 2047 0025 02       		.uleb128 0x2
 2048 0026 04       		.byte	0x4
 2049 0027 05       		.byte	0x5
 2050 0028 696E7400 		.ascii	"int\000"
 2051 002c 03       		.uleb128 0x3
 2052 002d A6000000 		.4byte	.LASF11
 2053 0031 02       		.byte	0x2
 2054 0032 D4       		.byte	0xd4
 2055 0033 37000000 		.4byte	0x37
 2056 0037 04       		.uleb128 0x4
 2057 0038 04       		.byte	0x4
 2058 0039 07       		.byte	0x7
 2059 003a E9200000 		.4byte	.LASF0
 2060 003e 04       		.uleb128 0x4
 2061 003f 01       		.byte	0x1
 2062 0040 06       		.byte	0x6
 2063 0041 83280000 		.4byte	.LASF1
 2064 0045 04       		.uleb128 0x4
 2065 0046 01       		.byte	0x1
 2066 0047 08       		.byte	0x8
ARM GAS  C:\Users\AHMED~1.ELE\AppData\Local\Temp\ccFUpfoi.s 			page 54


 2067 0048 18240000 		.4byte	.LASF2
 2068 004c 04       		.uleb128 0x4
 2069 004d 02       		.byte	0x2
 2070 004e 05       		.byte	0x5
 2071 004f 942E0000 		.4byte	.LASF3
 2072 0053 04       		.uleb128 0x4
 2073 0054 02       		.byte	0x2
 2074 0055 07       		.byte	0x7
 2075 0056 58340000 		.4byte	.LASF4
 2076 005a 04       		.uleb128 0x4
 2077 005b 04       		.byte	0x4
 2078 005c 05       		.byte	0x5
 2079 005d BE230000 		.4byte	.LASF5
 2080 0061 04       		.uleb128 0x4
 2081 0062 04       		.byte	0x4
 2082 0063 07       		.byte	0x7
 2083 0064 AC180000 		.4byte	.LASF6
 2084 0068 04       		.uleb128 0x4
 2085 0069 08       		.byte	0x8
 2086 006a 05       		.byte	0x5
 2087 006b 9F1D0000 		.4byte	.LASF7
 2088 006f 04       		.uleb128 0x4
 2089 0070 08       		.byte	0x8
 2090 0071 07       		.byte	0x7
 2091 0072 30280000 		.4byte	.LASF8
 2092 0076 04       		.uleb128 0x4
 2093 0077 04       		.byte	0x4
 2094 0078 07       		.byte	0x7
 2095 0079 BD000000 		.4byte	.LASF9
 2096 007d 05       		.uleb128 0x5
 2097 007e 04       		.byte	0x4
 2098 007f 06       		.uleb128 0x6
 2099 0080 04       		.byte	0x4
 2100 0081 85000000 		.4byte	0x85
 2101 0085 04       		.uleb128 0x4
 2102 0086 01       		.byte	0x1
 2103 0087 06       		.byte	0x6
 2104 0088 B1160000 		.4byte	.LASF10
 2105 008c 07       		.uleb128 0x7
 2106 008d 85000000 		.4byte	0x85
 2107 0091 9C000000 		.4byte	0x9c
 2108 0095 08       		.uleb128 0x8
 2109 0096 76000000 		.4byte	0x76
 2110 009a 17       		.byte	0x17
 2111 009b 00       		.byte	0
 2112 009c 03       		.uleb128 0x3
 2113 009d 92120000 		.4byte	.LASF12
 2114 00a1 03       		.byte	0x3
 2115 00a2 0D       		.byte	0xd
 2116 00a3 45000000 		.4byte	0x45
 2117 00a7 03       		.uleb128 0x3
 2118 00a8 CE070000 		.4byte	.LASF13
 2119 00ac 03       		.byte	0x3
 2120 00ad 0E       		.byte	0xe
 2121 00ae 45000000 		.4byte	0x45
 2122 00b2 03       		.uleb128 0x3
 2123 00b3 DD230000 		.4byte	.LASF14
ARM GAS  C:\Users\AHMED~1.ELE\AppData\Local\Temp\ccFUpfoi.s 			page 55


 2124 00b7 03       		.byte	0x3
 2125 00b8 0F       		.byte	0xf
 2126 00b9 53000000 		.4byte	0x53
 2127 00bd 03       		.uleb128 0x3
 2128 00be 90330000 		.4byte	.LASF15
 2129 00c2 03       		.byte	0x3
 2130 00c3 10       		.byte	0x10
 2131 00c4 37000000 		.4byte	0x37
 2132 00c8 03       		.uleb128 0x3
 2133 00c9 74170000 		.4byte	.LASF16
 2134 00cd 03       		.byte	0x3
 2135 00ce 11       		.byte	0x11
 2136 00cf 6F000000 		.4byte	0x6f
 2137 00d3 06       		.uleb128 0x6
 2138 00d4 04       		.byte	0x4
 2139 00d5 D9000000 		.4byte	0xd9
 2140 00d9 09       		.uleb128 0x9
 2141 00da A7000000 		.4byte	0xa7
 2142 00de 07       		.uleb128 0x7
 2143 00df A7000000 		.4byte	0xa7
 2144 00e3 EE000000 		.4byte	0xee
 2145 00e7 08       		.uleb128 0x8
 2146 00e8 76000000 		.4byte	0x76
 2147 00ec 01       		.byte	0x1
 2148 00ed 00       		.byte	0
 2149 00ee 06       		.uleb128 0x6
 2150 00ef 04       		.byte	0x4
 2151 00f0 A7000000 		.4byte	0xa7
 2152 00f4 07       		.uleb128 0x7
 2153 00f5 A7000000 		.4byte	0xa7
 2154 00f9 04010000 		.4byte	0x104
 2155 00fd 08       		.uleb128 0x8
 2156 00fe 76000000 		.4byte	0x76
 2157 0102 03       		.byte	0x3
 2158 0103 00       		.byte	0
 2159 0104 07       		.uleb128 0x7
 2160 0105 A7000000 		.4byte	0xa7
 2161 0109 14010000 		.4byte	0x114
 2162 010d 08       		.uleb128 0x8
 2163 010e 76000000 		.4byte	0x76
 2164 0112 FF       		.byte	0xff
 2165 0113 00       		.byte	0
 2166 0114 07       		.uleb128 0x7
 2167 0115 A7000000 		.4byte	0xa7
 2168 0119 24010000 		.4byte	0x124
 2169 011d 08       		.uleb128 0x8
 2170 011e 76000000 		.4byte	0x76
 2171 0122 09       		.byte	0x9
 2172 0123 00       		.byte	0
 2173 0124 07       		.uleb128 0x7
 2174 0125 A7000000 		.4byte	0xa7
 2175 0129 34010000 		.4byte	0x134
 2176 012d 08       		.uleb128 0x8
 2177 012e 76000000 		.4byte	0x76
 2178 0132 1F       		.byte	0x1f
 2179 0133 00       		.byte	0
 2180 0134 07       		.uleb128 0x7
ARM GAS  C:\Users\AHMED~1.ELE\AppData\Local\Temp\ccFUpfoi.s 			page 56


 2181 0135 A7000000 		.4byte	0xa7
 2182 0139 44010000 		.4byte	0x144
 2183 013d 08       		.uleb128 0x8
 2184 013e 76000000 		.4byte	0x76
 2185 0142 0F       		.byte	0xf
 2186 0143 00       		.byte	0
 2187 0144 07       		.uleb128 0x7
 2188 0145 A7000000 		.4byte	0xa7
 2189 0149 54010000 		.4byte	0x154
 2190 014d 08       		.uleb128 0x8
 2191 014e 76000000 		.4byte	0x76
 2192 0152 07       		.byte	0x7
 2193 0153 00       		.byte	0
 2194 0154 07       		.uleb128 0x7
 2195 0155 A7000000 		.4byte	0xa7
 2196 0159 64010000 		.4byte	0x164
 2197 015d 08       		.uleb128 0x8
 2198 015e 76000000 		.4byte	0x76
 2199 0162 13       		.byte	0x13
 2200 0163 00       		.byte	0
 2201 0164 07       		.uleb128 0x7
 2202 0165 A7000000 		.4byte	0xa7
 2203 0169 74010000 		.4byte	0x174
 2204 016d 08       		.uleb128 0x8
 2205 016e 76000000 		.4byte	0x76
 2206 0172 00       		.byte	0
 2207 0173 00       		.byte	0
 2208 0174 0A       		.uleb128 0xa
 2209 0175 34170000 		.4byte	.LASF940
 2210 0179 02       		.byte	0x2
 2211 017a 05       		.byte	0x5
 2212 017b 9A04     		.2byte	0x49a
 2213 017d 310E0000 		.4byte	0xe31
 2214 0181 0B       		.uleb128 0xb
 2215 0182 56150000 		.4byte	.LASF17
 2216 0186 00       		.sleb128 0
 2217 0187 0B       		.uleb128 0xb
 2218 0188 21190000 		.4byte	.LASF18
 2219 018c 01       		.sleb128 1
 2220 018d 0B       		.uleb128 0xb
 2221 018e 2F1D0000 		.4byte	.LASF19
 2222 0192 02       		.sleb128 2
 2223 0193 0B       		.uleb128 0xb
 2224 0194 3D0E0000 		.4byte	.LASF20
 2225 0198 03       		.sleb128 3
 2226 0199 0B       		.uleb128 0xb
 2227 019a 070E0000 		.4byte	.LASF21
 2228 019e 04       		.sleb128 4
 2229 019f 0B       		.uleb128 0xb
 2230 01a0 43250000 		.4byte	.LASF22
 2231 01a4 05       		.sleb128 5
 2232 01a5 0B       		.uleb128 0xb
 2233 01a6 F3110000 		.4byte	.LASF23
 2234 01aa 06       		.sleb128 6
 2235 01ab 0B       		.uleb128 0xb
 2236 01ac B9270000 		.4byte	.LASF24
 2237 01b0 07       		.sleb128 7
ARM GAS  C:\Users\AHMED~1.ELE\AppData\Local\Temp\ccFUpfoi.s 			page 57


 2238 01b1 0B       		.uleb128 0xb
 2239 01b2 4C1B0000 		.4byte	.LASF25
 2240 01b6 08       		.sleb128 8
 2241 01b7 0B       		.uleb128 0xb
 2242 01b8 2A290000 		.4byte	.LASF26
 2243 01bc 09       		.sleb128 9
 2244 01bd 0B       		.uleb128 0xb
 2245 01be 18330000 		.4byte	.LASF27
 2246 01c2 0A       		.sleb128 10
 2247 01c3 0B       		.uleb128 0xb
 2248 01c4 162B0000 		.4byte	.LASF28
 2249 01c8 0B       		.sleb128 11
 2250 01c9 0B       		.uleb128 0xb
 2251 01ca B3030000 		.4byte	.LASF29
 2252 01ce 0C       		.sleb128 12
 2253 01cf 0B       		.uleb128 0xb
 2254 01d0 A62C0000 		.4byte	.LASF30
 2255 01d4 0D       		.sleb128 13
 2256 01d5 0B       		.uleb128 0xb
 2257 01d6 F90F0000 		.4byte	.LASF31
 2258 01da 0E       		.sleb128 14
 2259 01db 0B       		.uleb128 0xb
 2260 01dc 41370000 		.4byte	.LASF32
 2261 01e0 0F       		.sleb128 15
 2262 01e1 0B       		.uleb128 0xb
 2263 01e2 E51C0000 		.4byte	.LASF33
 2264 01e6 10       		.sleb128 16
 2265 01e7 0B       		.uleb128 0xb
 2266 01e8 4E320000 		.4byte	.LASF34
 2267 01ec 11       		.sleb128 17
 2268 01ed 0B       		.uleb128 0xb
 2269 01ee 92140000 		.4byte	.LASF35
 2270 01f2 12       		.sleb128 18
 2271 01f3 0B       		.uleb128 0xb
 2272 01f4 012C0000 		.4byte	.LASF36
 2273 01f8 13       		.sleb128 19
 2274 01f9 0B       		.uleb128 0xb
 2275 01fa 870B0000 		.4byte	.LASF37
 2276 01fe 14       		.sleb128 20
 2277 01ff 0B       		.uleb128 0xb
 2278 0200 CB1D0000 		.4byte	.LASF38
 2279 0204 15       		.sleb128 21
 2280 0205 0B       		.uleb128 0xb
 2281 0206 970B0000 		.4byte	.LASF39
 2282 020a 16       		.sleb128 22
 2283 020b 0B       		.uleb128 0xb
 2284 020c 440C0000 		.4byte	.LASF40
 2285 0210 17       		.sleb128 23
 2286 0211 0B       		.uleb128 0xb
 2287 0212 EF0B0000 		.4byte	.LASF41
 2288 0216 18       		.sleb128 24
 2289 0217 0B       		.uleb128 0xb
 2290 0218 84240000 		.4byte	.LASF42
 2291 021c 19       		.sleb128 25
 2292 021d 0B       		.uleb128 0xb
 2293 021e BB0B0000 		.4byte	.LASF43
 2294 0222 1A       		.sleb128 26
ARM GAS  C:\Users\AHMED~1.ELE\AppData\Local\Temp\ccFUpfoi.s 			page 58


 2295 0223 0B       		.uleb128 0xb
 2296 0224 761E0000 		.4byte	.LASF44
 2297 0228 1B       		.sleb128 27
 2298 0229 0B       		.uleb128 0xb
 2299 022a DD180000 		.4byte	.LASF45
 2300 022e 1C       		.sleb128 28
 2301 022f 0B       		.uleb128 0xb
 2302 0230 B2200000 		.4byte	.LASF46
 2303 0234 1D       		.sleb128 29
 2304 0235 0B       		.uleb128 0xb
 2305 0236 6E370000 		.4byte	.LASF47
 2306 023a 1E       		.sleb128 30
 2307 023b 0B       		.uleb128 0xb
 2308 023c F00A0000 		.4byte	.LASF48
 2309 0240 1F       		.sleb128 31
 2310 0241 0B       		.uleb128 0xb
 2311 0242 BE180000 		.4byte	.LASF49
 2312 0246 20       		.sleb128 32
 2313 0247 0B       		.uleb128 0xb
 2314 0248 EF040000 		.4byte	.LASF50
 2315 024c 21       		.sleb128 33
 2316 024d 0B       		.uleb128 0xb
 2317 024e C7230000 		.4byte	.LASF51
 2318 0252 22       		.sleb128 34
 2319 0253 0B       		.uleb128 0xb
 2320 0254 E11E0000 		.4byte	.LASF52
 2321 0258 23       		.sleb128 35
 2322 0259 0B       		.uleb128 0xb
 2323 025a 6B0E0000 		.4byte	.LASF53
 2324 025e 24       		.sleb128 36
 2325 025f 0B       		.uleb128 0xb
 2326 0260 C4150000 		.4byte	.LASF54
 2327 0264 25       		.sleb128 37
 2328 0265 0B       		.uleb128 0xb
 2329 0266 0C310000 		.4byte	.LASF55
 2330 026a 26       		.sleb128 38
 2331 026b 0B       		.uleb128 0xb
 2332 026c 291F0000 		.4byte	.LASF56
 2333 0270 27       		.sleb128 39
 2334 0271 0B       		.uleb128 0xb
 2335 0272 19030000 		.4byte	.LASF57
 2336 0276 28       		.sleb128 40
 2337 0277 0B       		.uleb128 0xb
 2338 0278 69270000 		.4byte	.LASF58
 2339 027c 29       		.sleb128 41
 2340 027d 0B       		.uleb128 0xb
 2341 027e CC140000 		.4byte	.LASF59
 2342 0282 2A       		.sleb128 42
 2343 0283 0B       		.uleb128 0xb
 2344 0284 03200000 		.4byte	.LASF60
 2345 0288 2B       		.sleb128 43
 2346 0289 0B       		.uleb128 0xb
 2347 028a 36130000 		.4byte	.LASF61
 2348 028e 2C       		.sleb128 44
 2349 028f 0B       		.uleb128 0xb
 2350 0290 600F0000 		.4byte	.LASF62
 2351 0294 2D       		.sleb128 45
ARM GAS  C:\Users\AHMED~1.ELE\AppData\Local\Temp\ccFUpfoi.s 			page 59


 2352 0295 0B       		.uleb128 0xb
 2353 0296 FB1B0000 		.4byte	.LASF63
 2354 029a 2E       		.sleb128 46
 2355 029b 0B       		.uleb128 0xb
 2356 029c F5340000 		.4byte	.LASF64
 2357 02a0 2F       		.sleb128 47
 2358 02a1 0B       		.uleb128 0xb
 2359 02a2 FE2E0000 		.4byte	.LASF65
 2360 02a6 30       		.sleb128 48
 2361 02a7 0B       		.uleb128 0xb
 2362 02a8 FC050000 		.4byte	.LASF66
 2363 02ac 31       		.sleb128 49
 2364 02ad 0B       		.uleb128 0xb
 2365 02ae 3B2A0000 		.4byte	.LASF67
 2366 02b2 32       		.sleb128 50
 2367 02b3 0B       		.uleb128 0xb
 2368 02b4 4C330000 		.4byte	.LASF68
 2369 02b8 33       		.sleb128 51
 2370 02b9 0B       		.uleb128 0xb
 2371 02ba E21B0000 		.4byte	.LASF69
 2372 02be 34       		.sleb128 52
 2373 02bf 0B       		.uleb128 0xb
 2374 02c0 53250000 		.4byte	.LASF70
 2375 02c4 35       		.sleb128 53
 2376 02c5 0B       		.uleb128 0xb
 2377 02c6 C7060000 		.4byte	.LASF71
 2378 02ca 36       		.sleb128 54
 2379 02cb 0B       		.uleb128 0xb
 2380 02cc 1B1E0000 		.4byte	.LASF72
 2381 02d0 37       		.sleb128 55
 2382 02d1 0B       		.uleb128 0xb
 2383 02d2 99370000 		.4byte	.LASF73
 2384 02d6 38       		.sleb128 56
 2385 02d7 0B       		.uleb128 0xb
 2386 02d8 E1330000 		.4byte	.LASF74
 2387 02dc 39       		.sleb128 57
 2388 02dd 0B       		.uleb128 0xb
 2389 02de CC290000 		.4byte	.LASF75
 2390 02e2 3A       		.sleb128 58
 2391 02e3 0B       		.uleb128 0xb
 2392 02e4 E3050000 		.4byte	.LASF76
 2393 02e8 3B       		.sleb128 59
 2394 02e9 0B       		.uleb128 0xb
 2395 02ea 9E350000 		.4byte	.LASF77
 2396 02ee 3C       		.sleb128 60
 2397 02ef 0B       		.uleb128 0xb
 2398 02f0 81250000 		.4byte	.LASF78
 2399 02f4 3D       		.sleb128 61
 2400 02f5 0B       		.uleb128 0xb
 2401 02f6 B7310000 		.4byte	.LASF79
 2402 02fa 3E       		.sleb128 62
 2403 02fb 0B       		.uleb128 0xb
 2404 02fc 082E0000 		.4byte	.LASF80
 2405 0300 3F       		.sleb128 63
 2406 0301 0B       		.uleb128 0xb
 2407 0302 131D0000 		.4byte	.LASF81
 2408 0306 C000     		.sleb128 64
ARM GAS  C:\Users\AHMED~1.ELE\AppData\Local\Temp\ccFUpfoi.s 			page 60


 2409 0308 0B       		.uleb128 0xb
 2410 0309 23020000 		.4byte	.LASF82
 2411 030d C100     		.sleb128 65
 2412 030f 0B       		.uleb128 0xb
 2413 0310 84360000 		.4byte	.LASF83
 2414 0314 C200     		.sleb128 66
 2415 0316 0B       		.uleb128 0xb
 2416 0317 811F0000 		.4byte	.LASF84
 2417 031b C300     		.sleb128 67
 2418 031d 0B       		.uleb128 0xb
 2419 031e 3F270000 		.4byte	.LASF85
 2420 0322 C400     		.sleb128 68
 2421 0324 0B       		.uleb128 0xb
 2422 0325 BF120000 		.4byte	.LASF86
 2423 0329 C500     		.sleb128 69
 2424 032b 0B       		.uleb128 0xb
 2425 032c 182E0000 		.4byte	.LASF87
 2426 0330 C600     		.sleb128 70
 2427 0332 0B       		.uleb128 0xb
 2428 0333 A2290000 		.4byte	.LASF88
 2429 0337 C700     		.sleb128 71
 2430 0339 0B       		.uleb128 0xb
 2431 033a 8E150000 		.4byte	.LASF89
 2432 033e C800     		.sleb128 72
 2433 0340 0B       		.uleb128 0xb
 2434 0341 45220000 		.4byte	.LASF90
 2435 0345 C900     		.sleb128 73
 2436 0347 0B       		.uleb128 0xb
 2437 0348 2A340000 		.4byte	.LASF91
 2438 034c CA00     		.sleb128 74
 2439 034e 0B       		.uleb128 0xb
 2440 034f 3B350000 		.4byte	.LASF92
 2441 0353 CB00     		.sleb128 75
 2442 0355 0B       		.uleb128 0xb
 2443 0356 19080000 		.4byte	.LASF93
 2444 035a CC00     		.sleb128 76
 2445 035c 0B       		.uleb128 0xb
 2446 035d 89040000 		.4byte	.LASF94
 2447 0361 CD00     		.sleb128 77
 2448 0363 0B       		.uleb128 0xb
 2449 0364 55060000 		.4byte	.LASF95
 2450 0368 CE00     		.sleb128 78
 2451 036a 0B       		.uleb128 0xb
 2452 036b 8E270000 		.4byte	.LASF96
 2453 036f CF00     		.sleb128 79
 2454 0371 0B       		.uleb128 0xb
 2455 0372 0D330000 		.4byte	.LASF97
 2456 0376 D000     		.sleb128 80
 2457 0378 0B       		.uleb128 0xb
 2458 0379 B62C0000 		.4byte	.LASF98
 2459 037d D100     		.sleb128 81
 2460 037f 0B       		.uleb128 0xb
 2461 0380 AD1F0000 		.4byte	.LASF99
 2462 0384 D200     		.sleb128 82
 2463 0386 0B       		.uleb128 0xb
 2464 0387 2A150000 		.4byte	.LASF100
 2465 038b D300     		.sleb128 83
ARM GAS  C:\Users\AHMED~1.ELE\AppData\Local\Temp\ccFUpfoi.s 			page 61


 2466 038d 0B       		.uleb128 0xb
 2467 038e 8A2D0000 		.4byte	.LASF101
 2468 0392 D400     		.sleb128 84
 2469 0394 0B       		.uleb128 0xb
 2470 0395 1A270000 		.4byte	.LASF102
 2471 0399 D500     		.sleb128 85
 2472 039b 0B       		.uleb128 0xb
 2473 039c 1C070000 		.4byte	.LASF103
 2474 03a0 D600     		.sleb128 86
 2475 03a2 0B       		.uleb128 0xb
 2476 03a3 23350000 		.4byte	.LASF104
 2477 03a7 D700     		.sleb128 87
 2478 03a9 0B       		.uleb128 0xb
 2479 03aa 712B0000 		.4byte	.LASF105
 2480 03ae D800     		.sleb128 88
 2481 03b0 0B       		.uleb128 0xb
 2482 03b1 D0120000 		.4byte	.LASF106
 2483 03b5 D900     		.sleb128 89
 2484 03b7 0B       		.uleb128 0xb
 2485 03b8 BB290000 		.4byte	.LASF107
 2486 03bc DA00     		.sleb128 90
 2487 03be 0B       		.uleb128 0xb
 2488 03bf 9B260000 		.4byte	.LASF108
 2489 03c3 DB00     		.sleb128 91
 2490 03c5 0B       		.uleb128 0xb
 2491 03c6 850A0000 		.4byte	.LASF109
 2492 03ca DC00     		.sleb128 92
 2493 03cc 0B       		.uleb128 0xb
 2494 03cd CB050000 		.4byte	.LASF110
 2495 03d1 DD00     		.sleb128 93
 2496 03d3 0B       		.uleb128 0xb
 2497 03d4 81070000 		.4byte	.LASF111
 2498 03d8 DE00     		.sleb128 94
 2499 03da 0B       		.uleb128 0xb
 2500 03db F8090000 		.4byte	.LASF112
 2501 03df DF00     		.sleb128 95
 2502 03e1 0B       		.uleb128 0xb
 2503 03e2 45230000 		.4byte	.LASF113
 2504 03e6 E000     		.sleb128 96
 2505 03e8 0B       		.uleb128 0xb
 2506 03e9 10300000 		.4byte	.LASF114
 2507 03ed E100     		.sleb128 97
 2508 03ef 0B       		.uleb128 0xb
 2509 03f0 C52F0000 		.4byte	.LASF115
 2510 03f4 E200     		.sleb128 98
 2511 03f6 0B       		.uleb128 0xb
 2512 03f7 69110000 		.4byte	.LASF116
 2513 03fb E300     		.sleb128 99
 2514 03fd 0B       		.uleb128 0xb
 2515 03fe FA300000 		.4byte	.LASF117
 2516 0402 E400     		.sleb128 100
 2517 0404 0B       		.uleb128 0xb
 2518 0405 77230000 		.4byte	.LASF118
 2519 0409 E500     		.sleb128 101
 2520 040b 0B       		.uleb128 0xb
 2521 040c 6B020000 		.4byte	.LASF119
 2522 0410 E600     		.sleb128 102
ARM GAS  C:\Users\AHMED~1.ELE\AppData\Local\Temp\ccFUpfoi.s 			page 62


 2523 0412 0B       		.uleb128 0xb
 2524 0413 0A080000 		.4byte	.LASF120
 2525 0417 E700     		.sleb128 103
 2526 0419 0B       		.uleb128 0xb
 2527 041a 7C060000 		.4byte	.LASF121
 2528 041e E800     		.sleb128 104
 2529 0420 0B       		.uleb128 0xb
 2530 0421 AF070000 		.4byte	.LASF122
 2531 0425 E900     		.sleb128 105
 2532 0427 0B       		.uleb128 0xb
 2533 0428 CB170000 		.4byte	.LASF123
 2534 042c EA00     		.sleb128 106
 2535 042e 0B       		.uleb128 0xb
 2536 042f 00300000 		.4byte	.LASF124
 2537 0433 EB00     		.sleb128 107
 2538 0435 0B       		.uleb128 0xb
 2539 0436 382E0000 		.4byte	.LASF125
 2540 043a EC00     		.sleb128 108
 2541 043c 0B       		.uleb128 0xb
 2542 043d 26240000 		.4byte	.LASF126
 2543 0441 ED00     		.sleb128 109
 2544 0443 0B       		.uleb128 0xb
 2545 0444 4C0E0000 		.4byte	.LASF127
 2546 0448 EE00     		.sleb128 110
 2547 044a 0B       		.uleb128 0xb
 2548 044b F8210000 		.4byte	.LASF128
 2549 044f EF00     		.sleb128 111
 2550 0451 0B       		.uleb128 0xb
 2551 0452 671C0000 		.4byte	.LASF129
 2552 0456 F000     		.sleb128 112
 2553 0458 0B       		.uleb128 0xb
 2554 0459 7E050000 		.4byte	.LASF130
 2555 045d F100     		.sleb128 113
 2556 045f 0B       		.uleb128 0xb
 2557 0460 E3220000 		.4byte	.LASF131
 2558 0464 F200     		.sleb128 114
 2559 0466 0B       		.uleb128 0xb
 2560 0467 8B290000 		.4byte	.LASF132
 2561 046b F300     		.sleb128 115
 2562 046d 0B       		.uleb128 0xb
 2563 046e CB0B0000 		.4byte	.LASF133
 2564 0472 F400     		.sleb128 116
 2565 0474 0B       		.uleb128 0xb
 2566 0475 B5300000 		.4byte	.LASF134
 2567 0479 F500     		.sleb128 117
 2568 047b 0B       		.uleb128 0xb
 2569 047c 9F310000 		.4byte	.LASF135
 2570 0480 F600     		.sleb128 118
 2571 0482 0B       		.uleb128 0xb
 2572 0483 700F0000 		.4byte	.LASF136
 2573 0487 F700     		.sleb128 119
 2574 0489 0B       		.uleb128 0xb
 2575 048a C90E0000 		.4byte	.LASF137
 2576 048e F800     		.sleb128 120
 2577 0490 0B       		.uleb128 0xb
 2578 0491 0A110000 		.4byte	.LASF138
 2579 0495 F900     		.sleb128 121
ARM GAS  C:\Users\AHMED~1.ELE\AppData\Local\Temp\ccFUpfoi.s 			page 63


 2580 0497 0B       		.uleb128 0xb
 2581 0498 71340000 		.4byte	.LASF139
 2582 049c FA00     		.sleb128 122
 2583 049e 0B       		.uleb128 0xb
 2584 049f 16320000 		.4byte	.LASF140
 2585 04a3 FB00     		.sleb128 123
 2586 04a5 0B       		.uleb128 0xb
 2587 04a6 20220000 		.4byte	.LASF141
 2588 04aa FC00     		.sleb128 124
 2589 04ac 0B       		.uleb128 0xb
 2590 04ad 502E0000 		.4byte	.LASF142
 2591 04b1 FD00     		.sleb128 125
 2592 04b3 0B       		.uleb128 0xb
 2593 04b4 510D0000 		.4byte	.LASF143
 2594 04b8 FE00     		.sleb128 126
 2595 04ba 0B       		.uleb128 0xb
 2596 04bb 160B0000 		.4byte	.LASF144
 2597 04bf FF00     		.sleb128 127
 2598 04c1 0B       		.uleb128 0xb
 2599 04c2 F1060000 		.4byte	.LASF145
 2600 04c6 8001     		.sleb128 128
 2601 04c8 0B       		.uleb128 0xb
 2602 04c9 C7090000 		.4byte	.LASF146
 2603 04cd 8101     		.sleb128 129
 2604 04cf 0B       		.uleb128 0xb
 2605 04d0 E9030000 		.4byte	.LASF147
 2606 04d4 8201     		.sleb128 130
 2607 04d6 0B       		.uleb128 0xb
 2608 04d7 63260000 		.4byte	.LASF148
 2609 04db 8301     		.sleb128 131
 2610 04dd 0B       		.uleb128 0xb
 2611 04de 282B0000 		.4byte	.LASF149
 2612 04e2 8401     		.sleb128 132
 2613 04e4 0B       		.uleb128 0xb
 2614 04e5 83140000 		.4byte	.LASF150
 2615 04e9 8501     		.sleb128 133
 2616 04eb 0B       		.uleb128 0xb
 2617 04ec 61350000 		.4byte	.LASF151
 2618 04f0 8601     		.sleb128 134
 2619 04f2 0B       		.uleb128 0xb
 2620 04f3 CC0F0000 		.4byte	.LASF152
 2621 04f7 8701     		.sleb128 135
 2622 04f9 0B       		.uleb128 0xb
 2623 04fa 7C1B0000 		.4byte	.LASF153
 2624 04fe 8801     		.sleb128 136
 2625 0500 0B       		.uleb128 0xb
 2626 0501 E4140000 		.4byte	.LASF154
 2627 0505 8901     		.sleb128 137
 2628 0507 0B       		.uleb128 0xb
 2629 0508 1D290000 		.4byte	.LASF155
 2630 050c 8A01     		.sleb128 138
 2631 050e 0B       		.uleb128 0xb
 2632 050f 7F2C0000 		.4byte	.LASF156
 2633 0513 8B01     		.sleb128 139
 2634 0515 0B       		.uleb128 0xb
 2635 0516 D7320000 		.4byte	.LASF157
 2636 051a 8C01     		.sleb128 140
ARM GAS  C:\Users\AHMED~1.ELE\AppData\Local\Temp\ccFUpfoi.s 			page 64


 2637 051c 0B       		.uleb128 0xb
 2638 051d 031F0000 		.4byte	.LASF158
 2639 0521 8D01     		.sleb128 141
 2640 0523 0B       		.uleb128 0xb
 2641 0524 E0260000 		.4byte	.LASF159
 2642 0528 8E01     		.sleb128 142
 2643 052a 0B       		.uleb128 0xb
 2644 052b A0130000 		.4byte	.LASF160
 2645 052f 8F01     		.sleb128 143
 2646 0531 0B       		.uleb128 0xb
 2647 0532 71130000 		.4byte	.LASF161
 2648 0536 9001     		.sleb128 144
 2649 0538 0B       		.uleb128 0xb
 2650 0539 37320000 		.4byte	.LASF162
 2651 053d 9101     		.sleb128 145
 2652 053f 0B       		.uleb128 0xb
 2653 0540 C5250000 		.4byte	.LASF163
 2654 0544 9201     		.sleb128 146
 2655 0546 0B       		.uleb128 0xb
 2656 0547 2E300000 		.4byte	.LASF164
 2657 054b 9301     		.sleb128 147
 2658 054d 0B       		.uleb128 0xb
 2659 054e 6E1D0000 		.4byte	.LASF165
 2660 0552 9401     		.sleb128 148
 2661 0554 0B       		.uleb128 0xb
 2662 0555 E4000000 		.4byte	.LASF166
 2663 0559 9501     		.sleb128 149
 2664 055b 0B       		.uleb128 0xb
 2665 055c 190D0000 		.4byte	.LASF167
 2666 0560 9601     		.sleb128 150
 2667 0562 0B       		.uleb128 0xb
 2668 0563 EC150000 		.4byte	.LASF168
 2669 0567 9701     		.sleb128 151
 2670 0569 0B       		.uleb128 0xb
 2671 056a C6320000 		.4byte	.LASF169
 2672 056e 9801     		.sleb128 152
 2673 0570 0B       		.uleb128 0xb
 2674 0571 40020000 		.4byte	.LASF170
 2675 0575 9901     		.sleb128 153
 2676 0577 0B       		.uleb128 0xb
 2677 0578 21200000 		.4byte	.LASF171
 2678 057c 9A01     		.sleb128 154
 2679 057e 0B       		.uleb128 0xb
 2680 057f 51260000 		.4byte	.LASF172
 2681 0583 9B01     		.sleb128 155
 2682 0585 0B       		.uleb128 0xb
 2683 0586 51370000 		.4byte	.LASF173
 2684 058a 9C01     		.sleb128 156
 2685 058c 0B       		.uleb128 0xb
 2686 058d AD000000 		.4byte	.LASF174
 2687 0591 9D01     		.sleb128 157
 2688 0593 0B       		.uleb128 0xb
 2689 0594 B6160000 		.4byte	.LASF175
 2690 0598 9E01     		.sleb128 158
 2691 059a 0B       		.uleb128 0xb
 2692 059b DB0E0000 		.4byte	.LASF176
 2693 059f 9F01     		.sleb128 159
ARM GAS  C:\Users\AHMED~1.ELE\AppData\Local\Temp\ccFUpfoi.s 			page 65


 2694 05a1 0B       		.uleb128 0xb
 2695 05a2 290D0000 		.4byte	.LASF177
 2696 05a6 A001     		.sleb128 160
 2697 05a8 0B       		.uleb128 0xb
 2698 05a9 5A210000 		.4byte	.LASF178
 2699 05ad A101     		.sleb128 161
 2700 05af 0B       		.uleb128 0xb
 2701 05b0 92250000 		.4byte	.LASF179
 2702 05b4 A201     		.sleb128 162
 2703 05b6 0B       		.uleb128 0xb
 2704 05b7 6D060000 		.4byte	.LASF180
 2705 05bb A301     		.sleb128 163
 2706 05bd 0B       		.uleb128 0xb
 2707 05be 58280000 		.4byte	.LASF181
 2708 05c2 A401     		.sleb128 164
 2709 05c4 0B       		.uleb128 0xb
 2710 05c5 4E0B0000 		.4byte	.LASF182
 2711 05c9 A501     		.sleb128 165
 2712 05cb 0B       		.uleb128 0xb
 2713 05cc 7A030000 		.4byte	.LASF183
 2714 05d0 A601     		.sleb128 166
 2715 05d2 0B       		.uleb128 0xb
 2716 05d3 53220000 		.4byte	.LASF184
 2717 05d7 A701     		.sleb128 167
 2718 05d9 0B       		.uleb128 0xb
 2719 05da 9E200000 		.4byte	.LASF185
 2720 05de A801     		.sleb128 168
 2721 05e0 0B       		.uleb128 0xb
 2722 05e1 57070000 		.4byte	.LASF186
 2723 05e5 A901     		.sleb128 169
 2724 05e7 0B       		.uleb128 0xb
 2725 05e8 39340000 		.4byte	.LASF187
 2726 05ec AA01     		.sleb128 170
 2727 05ee 0B       		.uleb128 0xb
 2728 05ef 1B250000 		.4byte	.LASF188
 2729 05f3 AB01     		.sleb128 171
 2730 05f5 0B       		.uleb128 0xb
 2731 05f6 D2250000 		.4byte	.LASF189
 2732 05fa AC01     		.sleb128 172
 2733 05fc 0B       		.uleb128 0xb
 2734 05fd 64050000 		.4byte	.LASF190
 2735 0601 AD01     		.sleb128 173
 2736 0603 0B       		.uleb128 0xb
 2737 0604 761C0000 		.4byte	.LASF191
 2738 0608 AE01     		.sleb128 174
 2739 060a 0B       		.uleb128 0xb
 2740 060b 5D2D0000 		.4byte	.LASF192
 2741 060f AF01     		.sleb128 175
 2742 0611 0B       		.uleb128 0xb
 2743 0612 BD100000 		.4byte	.LASF193
 2744 0616 B001     		.sleb128 176
 2745 0618 0B       		.uleb128 0xb
 2746 0619 86000000 		.4byte	.LASF194
 2747 061d B101     		.sleb128 177
 2748 061f 0B       		.uleb128 0xb
 2749 0620 D21C0000 		.4byte	.LASF195
 2750 0624 B201     		.sleb128 178
ARM GAS  C:\Users\AHMED~1.ELE\AppData\Local\Temp\ccFUpfoi.s 			page 66


 2751 0626 0B       		.uleb128 0xb
 2752 0627 0B0F0000 		.4byte	.LASF196
 2753 062b B301     		.sleb128 179
 2754 062d 0B       		.uleb128 0xb
 2755 062e 38080000 		.4byte	.LASF197
 2756 0632 B401     		.sleb128 180
 2757 0634 0B       		.uleb128 0xb
 2758 0635 1C180000 		.4byte	.LASF198
 2759 0639 B501     		.sleb128 181
 2760 063b 0B       		.uleb128 0xb
 2761 063c CF080000 		.4byte	.LASF199
 2762 0640 B601     		.sleb128 182
 2763 0642 0B       		.uleb128 0xb
 2764 0643 47280000 		.4byte	.LASF200
 2765 0647 B701     		.sleb128 183
 2766 0649 0B       		.uleb128 0xb
 2767 064a 800E0000 		.4byte	.LASF201
 2768 064e B801     		.sleb128 184
 2769 0650 0B       		.uleb128 0xb
 2770 0651 540C0000 		.4byte	.LASF202
 2771 0655 B901     		.sleb128 185
 2772 0657 0B       		.uleb128 0xb
 2773 0658 18380000 		.4byte	.LASF203
 2774 065c BA01     		.sleb128 186
 2775 065e 0B       		.uleb128 0xb
 2776 065f F42C0000 		.4byte	.LASF204
 2777 0663 BB01     		.sleb128 187
 2778 0665 0B       		.uleb128 0xb
 2779 0666 D7060000 		.4byte	.LASF205
 2780 066a BC01     		.sleb128 188
 2781 066c 0B       		.uleb128 0xb
 2782 066d D9170000 		.4byte	.LASF206
 2783 0671 BD01     		.sleb128 189
 2784 0673 0B       		.uleb128 0xb
 2785 0674 8F060000 		.4byte	.LASF207
 2786 0678 BE01     		.sleb128 190
 2787 067a 0B       		.uleb128 0xb
 2788 067b 9E2E0000 		.4byte	.LASF208
 2789 067f BF01     		.sleb128 191
 2790 0681 0B       		.uleb128 0xb
 2791 0682 DB130000 		.4byte	.LASF209
 2792 0686 C001     		.sleb128 192
 2793 0688 0B       		.uleb128 0xb
 2794 0689 DE2F0000 		.4byte	.LASF210
 2795 068d C101     		.sleb128 193
 2796 068f 0B       		.uleb128 0xb
 2797 0690 A51C0000 		.4byte	.LASF211
 2798 0694 C201     		.sleb128 194
 2799 0696 0B       		.uleb128 0xb
 2800 0697 8D200000 		.4byte	.LASF212
 2801 069b C301     		.sleb128 195
 2802 069d 0B       		.uleb128 0xb
 2803 069e 0F2C0000 		.4byte	.LASF213
 2804 06a2 C401     		.sleb128 196
 2805 06a4 0B       		.uleb128 0xb
 2806 06a5 5C1F0000 		.4byte	.LASF214
 2807 06a9 C501     		.sleb128 197
ARM GAS  C:\Users\AHMED~1.ELE\AppData\Local\Temp\ccFUpfoi.s 			page 67


 2808 06ab 0B       		.uleb128 0xb
 2809 06ac 39330000 		.4byte	.LASF215
 2810 06b0 C601     		.sleb128 198
 2811 06b2 0B       		.uleb128 0xb
 2812 06b3 3E030000 		.4byte	.LASF216
 2813 06b7 C701     		.sleb128 199
 2814 06b9 0B       		.uleb128 0xb
 2815 06ba 89230000 		.4byte	.LASF217
 2816 06be C801     		.sleb128 200
 2817 06c0 0B       		.uleb128 0xb
 2818 06c1 932C0000 		.4byte	.LASF218
 2819 06c5 C901     		.sleb128 201
 2820 06c7 0B       		.uleb128 0xb
 2821 06c8 B4240000 		.4byte	.LASF219
 2822 06cc CA01     		.sleb128 202
 2823 06ce 0B       		.uleb128 0xb
 2824 06cf FE330000 		.4byte	.LASF220
 2825 06d3 CB01     		.sleb128 203
 2826 06d5 0B       		.uleb128 0xb
 2827 06d6 4F110000 		.4byte	.LASF221
 2828 06da CC01     		.sleb128 204
 2829 06dc 0B       		.uleb128 0xb
 2830 06dd 5E2A0000 		.4byte	.LASF222
 2831 06e1 CD01     		.sleb128 205
 2832 06e3 0B       		.uleb128 0xb
 2833 06e4 292E0000 		.4byte	.LASF223
 2834 06e8 CE01     		.sleb128 206
 2835 06ea 0B       		.uleb128 0xb
 2836 06eb 46130000 		.4byte	.LASF224
 2837 06ef CF01     		.sleb128 207
 2838 06f1 0B       		.uleb128 0xb
 2839 06f2 57230000 		.4byte	.LASF225
 2840 06f6 D001     		.sleb128 208
 2841 06f8 0B       		.uleb128 0xb
 2842 06f9 67170000 		.4byte	.LASF226
 2843 06fd D101     		.sleb128 209
 2844 06ff 0B       		.uleb128 0xb
 2845 0700 34100000 		.4byte	.LASF227
 2846 0704 D201     		.sleb128 210
 2847 0706 0B       		.uleb128 0xb
 2848 0707 EC320000 		.4byte	.LASF228
 2849 070b D301     		.sleb128 211
 2850 070d 0B       		.uleb128 0xb
 2851 070e F12B0000 		.4byte	.LASF229
 2852 0712 D401     		.sleb128 212
 2853 0714 0B       		.uleb128 0xb
 2854 0715 FA100000 		.4byte	.LASF230
 2855 0719 D501     		.sleb128 213
 2856 071b 0B       		.uleb128 0xb
 2857 071c 8B190000 		.4byte	.LASF231
 2858 0720 D601     		.sleb128 214
 2859 0722 0B       		.uleb128 0xb
 2860 0723 27160000 		.4byte	.LASF232
 2861 0727 D701     		.sleb128 215
 2862 0729 0B       		.uleb128 0xb
 2863 072a 56130000 		.4byte	.LASF233
 2864 072e D801     		.sleb128 216
ARM GAS  C:\Users\AHMED~1.ELE\AppData\Local\Temp\ccFUpfoi.s 			page 68


 2865 0730 0B       		.uleb128 0xb
 2866 0731 BC170000 		.4byte	.LASF234
 2867 0735 D901     		.sleb128 217
 2868 0737 0B       		.uleb128 0xb
 2869 0738 2C190000 		.4byte	.LASF235
 2870 073c DA01     		.sleb128 218
 2871 073e 0B       		.uleb128 0xb
 2872 073f 22060000 		.4byte	.LASF236
 2873 0743 DB01     		.sleb128 219
 2874 0745 0B       		.uleb128 0xb
 2875 0746 05090000 		.4byte	.LASF237
 2876 074a DC01     		.sleb128 220
 2877 074c 0B       		.uleb128 0xb
 2878 074d BA280000 		.4byte	.LASF238
 2879 0751 DD01     		.sleb128 221
 2880 0753 0B       		.uleb128 0xb
 2881 0754 56180000 		.4byte	.LASF239
 2882 0758 DE01     		.sleb128 222
 2883 075a 0B       		.uleb128 0xb
 2884 075b FE150000 		.4byte	.LASF240
 2885 075f DF01     		.sleb128 223
 2886 0761 0B       		.uleb128 0xb
 2887 0762 A4170000 		.4byte	.LASF241
 2888 0766 E001     		.sleb128 224
 2889 0768 0B       		.uleb128 0xb
 2890 0769 0D160000 		.4byte	.LASF242
 2891 076d E101     		.sleb128 225
 2892 076f 0B       		.uleb128 0xb
 2893 0770 2B1B0000 		.4byte	.LASF243
 2894 0774 E201     		.sleb128 226
 2895 0776 0B       		.uleb128 0xb
 2896 0777 D01E0000 		.4byte	.LASF244
 2897 077b E301     		.sleb128 227
 2898 077d 0B       		.uleb128 0xb
 2899 077e 9F160000 		.4byte	.LASF245
 2900 0782 E401     		.sleb128 228
 2901 0784 0B       		.uleb128 0xb
 2902 0785 14140000 		.4byte	.LASF246
 2903 0789 E501     		.sleb128 229
 2904 078b 0B       		.uleb128 0xb
 2905 078c 9B1F0000 		.4byte	.LASF247
 2906 0790 E601     		.sleb128 230
 2907 0792 0B       		.uleb128 0xb
 2908 0793 88180000 		.4byte	.LASF248
 2909 0797 E701     		.sleb128 231
 2910 0799 0B       		.uleb128 0xb
 2911 079a B21C0000 		.4byte	.LASF249
 2912 079e E801     		.sleb128 232
 2913 07a0 0B       		.uleb128 0xb
 2914 07a1 DF350000 		.4byte	.LASF250
 2915 07a5 E901     		.sleb128 233
 2916 07a7 0B       		.uleb128 0xb
 2917 07a8 922F0000 		.4byte	.LASF251
 2918 07ac EA01     		.sleb128 234
 2919 07ae 0B       		.uleb128 0xb
 2920 07af 1A230000 		.4byte	.LASF252
 2921 07b3 EB01     		.sleb128 235
ARM GAS  C:\Users\AHMED~1.ELE\AppData\Local\Temp\ccFUpfoi.s 			page 69


 2922 07b5 0B       		.uleb128 0xb
 2923 07b6 B3190000 		.4byte	.LASF253
 2924 07ba EC01     		.sleb128 236
 2925 07bc 0B       		.uleb128 0xb
 2926 07bd 9B230000 		.4byte	.LASF254
 2927 07c1 ED01     		.sleb128 237
 2928 07c3 0B       		.uleb128 0xb
 2929 07c4 2B080000 		.4byte	.LASF255
 2930 07c8 EE01     		.sleb128 238
 2931 07ca 0B       		.uleb128 0xb
 2932 07cb 9A1E0000 		.4byte	.LASF256
 2933 07cf EF01     		.sleb128 239
 2934 07d1 0B       		.uleb128 0xb
 2935 07d2 C0330000 		.4byte	.LASF257
 2936 07d6 F001     		.sleb128 240
 2937 07d8 0B       		.uleb128 0xb
 2938 07d9 3B1B0000 		.4byte	.LASF258
 2939 07dd F101     		.sleb128 241
 2940 07df 0B       		.uleb128 0xb
 2941 07e0 A9230000 		.4byte	.LASF259
 2942 07e4 F201     		.sleb128 242
 2943 07e6 0B       		.uleb128 0xb
 2944 07e7 AD1E0000 		.4byte	.LASF260
 2945 07eb F301     		.sleb128 243
 2946 07ed 0B       		.uleb128 0xb
 2947 07ee DB0A0000 		.4byte	.LASF261
 2948 07f2 F401     		.sleb128 244
 2949 07f4 0B       		.uleb128 0xb
 2950 07f5 E9290000 		.4byte	.LASF262
 2951 07f9 F501     		.sleb128 245
 2952 07fb 0B       		.uleb128 0xb
 2953 07fc 282A0000 		.4byte	.LASF263
 2954 0800 F601     		.sleb128 246
 2955 0802 0B       		.uleb128 0xb
 2956 0803 7A270000 		.4byte	.LASF264
 2957 0807 F701     		.sleb128 247
 2958 0809 0B       		.uleb128 0xb
 2959 080a 7F220000 		.4byte	.LASF265
 2960 080e F801     		.sleb128 248
 2961 0810 0B       		.uleb128 0xb
 2962 0811 43180000 		.4byte	.LASF266
 2963 0815 F901     		.sleb128 249
 2964 0817 0B       		.uleb128 0xb
 2965 0818 2B250000 		.4byte	.LASF267
 2966 081c FA01     		.sleb128 250
 2967 081e 0B       		.uleb128 0xb
 2968 081f C61A0000 		.4byte	.LASF268
 2969 0823 FB01     		.sleb128 251
 2970 0825 0B       		.uleb128 0xb
 2971 0826 F3360000 		.4byte	.LASF269
 2972 082a FC01     		.sleb128 252
 2973 082c 0B       		.uleb128 0xb
 2974 082d 62140000 		.4byte	.LASF270
 2975 0831 FD01     		.sleb128 253
 2976 0833 0B       		.uleb128 0xb
 2977 0834 1B340000 		.4byte	.LASF271
 2978 0838 FE01     		.sleb128 254
ARM GAS  C:\Users\AHMED~1.ELE\AppData\Local\Temp\ccFUpfoi.s 			page 70


 2979 083a 0B       		.uleb128 0xb
 2980 083b 27140000 		.4byte	.LASF272
 2981 083f FF01     		.sleb128 255
 2982 0841 0B       		.uleb128 0xb
 2983 0842 7F330000 		.4byte	.LASF273
 2984 0846 8002     		.sleb128 256
 2985 0848 0B       		.uleb128 0xb
 2986 0849 D51A0000 		.4byte	.LASF274
 2987 084d 8102     		.sleb128 257
 2988 084f 0B       		.uleb128 0xb
 2989 0850 AF260000 		.4byte	.LASF275
 2990 0854 8202     		.sleb128 258
 2991 0856 0B       		.uleb128 0xb
 2992 0857 602B0000 		.4byte	.LASF276
 2993 085b 8302     		.sleb128 259
 2994 085d 0B       		.uleb128 0xb
 2995 085e C3110000 		.4byte	.LASF277
 2996 0862 8402     		.sleb128 260
 2997 0864 0B       		.uleb128 0xb
 2998 0865 84170000 		.4byte	.LASF278
 2999 0869 8502     		.sleb128 261
 3000 086b 0B       		.uleb128 0xb
 3001 086c 9D040000 		.4byte	.LASF279
 3002 0870 8602     		.sleb128 262
 3003 0872 0B       		.uleb128 0xb
 3004 0873 ED070000 		.4byte	.LASF280
 3005 0877 8702     		.sleb128 263
 3006 0879 0B       		.uleb128 0xb
 3007 087a 89080000 		.4byte	.LASF281
 3008 087e 8802     		.sleb128 264
 3009 0880 0B       		.uleb128 0xb
 3010 0881 B2150000 		.4byte	.LASF282
 3011 0885 8902     		.sleb128 265
 3012 0887 0B       		.uleb128 0xb
 3013 0888 282F0000 		.4byte	.LASF283
 3014 088c 8A02     		.sleb128 266
 3015 088e 0B       		.uleb128 0xb
 3016 088f F0130000 		.4byte	.LASF284
 3017 0893 8B02     		.sleb128 267
 3018 0895 0B       		.uleb128 0xb
 3019 0896 6F100000 		.4byte	.LASF285
 3020 089a 8C02     		.sleb128 268
 3021 089c 0B       		.uleb128 0xb
 3022 089d E02A0000 		.4byte	.LASF286
 3023 08a1 8D02     		.sleb128 269
 3024 08a3 0B       		.uleb128 0xb
 3025 08a4 1D110000 		.4byte	.LASF287
 3026 08a8 8E02     		.sleb128 270
 3027 08aa 0B       		.uleb128 0xb
 3028 08ab 1B090000 		.4byte	.LASF288
 3029 08af 8F02     		.sleb128 271
 3030 08b1 0B       		.uleb128 0xb
 3031 08b2 B00A0000 		.4byte	.LASF289
 3032 08b6 9002     		.sleb128 272
 3033 08b8 0B       		.uleb128 0xb
 3034 08b9 29030000 		.4byte	.LASF290
 3035 08bd 9102     		.sleb128 273
ARM GAS  C:\Users\AHMED~1.ELE\AppData\Local\Temp\ccFUpfoi.s 			page 71


 3036 08bf 0B       		.uleb128 0xb
 3037 08c0 E1360000 		.4byte	.LASF291
 3038 08c4 9202     		.sleb128 274
 3039 08c6 0B       		.uleb128 0xb
 3040 08c7 802F0000 		.4byte	.LASF292
 3041 08cb 9302     		.sleb128 275
 3042 08cd 0B       		.uleb128 0xb
 3043 08ce 4A360000 		.4byte	.LASF293
 3044 08d2 9402     		.sleb128 276
 3045 08d4 0B       		.uleb128 0xb
 3046 08d5 F4170000 		.4byte	.LASF294
 3047 08d9 9502     		.sleb128 277
 3048 08db 0B       		.uleb128 0xb
 3049 08dc FB030000 		.4byte	.LASF295
 3050 08e0 9602     		.sleb128 278
 3051 08e2 0B       		.uleb128 0xb
 3052 08e3 C01E0000 		.4byte	.LASF296
 3053 08e7 9702     		.sleb128 279
 3054 08e9 0B       		.uleb128 0xb
 3055 08ea 37050000 		.4byte	.LASF297
 3056 08ee 9802     		.sleb128 280
 3057 08f0 0B       		.uleb128 0xb
 3058 08f1 651E0000 		.4byte	.LASF298
 3059 08f5 9902     		.sleb128 281
 3060 08f7 0B       		.uleb128 0xb
 3061 08f8 C8240000 		.4byte	.LASF299
 3062 08fc 9A02     		.sleb128 282
 3063 08fe 0B       		.uleb128 0xb
 3064 08ff B9020000 		.4byte	.LASF300
 3065 0903 9B02     		.sleb128 283
 3066 0905 0B       		.uleb128 0xb
 3067 0906 E3090000 		.4byte	.LASF301
 3068 090a 9C02     		.sleb128 284
 3069 090c 0B       		.uleb128 0xb
 3070 090d 3F1C0000 		.4byte	.LASF302
 3071 0911 9D02     		.sleb128 285
 3072 0913 0B       		.uleb128 0xb
 3073 0914 0E190000 		.4byte	.LASF303
 3074 0918 9E02     		.sleb128 286
 3075 091a 0B       		.uleb128 0xb
 3076 091b 32090000 		.4byte	.LASF304
 3077 091f 9F02     		.sleb128 287
 3078 0921 0B       		.uleb128 0xb
 3079 0922 DA2B0000 		.4byte	.LASF305
 3080 0926 A002     		.sleb128 288
 3081 0928 0B       		.uleb128 0xb
 3082 0929 15050000 		.4byte	.LASF306
 3083 092d A102     		.sleb128 289
 3084 092f 0B       		.uleb128 0xb
 3085 0930 2A230000 		.4byte	.LASF307
 3086 0934 A202     		.sleb128 290
 3087 0936 0B       		.uleb128 0xb
 3088 0937 832E0000 		.4byte	.LASF308
 3089 093b A302     		.sleb128 291
 3090 093d 0B       		.uleb128 0xb
 3091 093e F9270000 		.4byte	.LASF309
 3092 0942 A402     		.sleb128 292
ARM GAS  C:\Users\AHMED~1.ELE\AppData\Local\Temp\ccFUpfoi.s 			page 72


 3093 0944 0B       		.uleb128 0xb
 3094 0945 8A1B0000 		.4byte	.LASF310
 3095 0949 A502     		.sleb128 293
 3096 094b 0B       		.uleb128 0xb
 3097 094c 2C310000 		.4byte	.LASF311
 3098 0950 A602     		.sleb128 294
 3099 0952 0B       		.uleb128 0xb
 3100 0953 5F290000 		.4byte	.LASF312
 3101 0957 A702     		.sleb128 295
 3102 0959 0B       		.uleb128 0xb
 3103 095a 78260000 		.4byte	.LASF313
 3104 095e A802     		.sleb128 296
 3105 0960 0B       		.uleb128 0xb
 3106 0961 3C1F0000 		.4byte	.LASF314
 3107 0965 A902     		.sleb128 297
 3108 0967 0B       		.uleb128 0xb
 3109 0968 DF010000 		.4byte	.LASF315
 3110 096c AA02     		.sleb128 298
 3111 096e 0B       		.uleb128 0xb
 3112 096f 46000000 		.4byte	.LASF316
 3113 0973 AB02     		.sleb128 299
 3114 0975 0B       		.uleb128 0xb
 3115 0976 660C0000 		.4byte	.LASF317
 3116 097a AC02     		.sleb128 300
 3117 097c 0B       		.uleb128 0xb
 3118 097d 9D150000 		.4byte	.LASF318
 3119 0981 AD02     		.sleb128 301
 3120 0983 0B       		.uleb128 0xb
 3121 0984 330C0000 		.4byte	.LASF319
 3122 0988 AE02     		.sleb128 302
 3123 098a 0B       		.uleb128 0xb
 3124 098b 3B0B0000 		.4byte	.LASF320
 3125 098f AF02     		.sleb128 303
 3126 0991 0B       		.uleb128 0xb
 3127 0992 A71B0000 		.4byte	.LASF321
 3128 0996 B002     		.sleb128 304
 3129 0998 0B       		.uleb128 0xb
 3130 0999 88370000 		.4byte	.LASF322
 3131 099d B102     		.sleb128 305
 3132 099f 0B       		.uleb128 0xb
 3133 09a0 E2120000 		.4byte	.LASF323
 3134 09a4 B202     		.sleb128 306
 3135 09a6 0B       		.uleb128 0xb
 3136 09a7 EB160000 		.4byte	.LASF324
 3137 09ab B302     		.sleb128 307
 3138 09ad 0B       		.uleb128 0xb
 3139 09ae 34210000 		.4byte	.LASF325
 3140 09b2 B402     		.sleb128 308
 3141 09b4 0B       		.uleb128 0xb
 3142 09b5 9B240000 		.4byte	.LASF326
 3143 09b9 B502     		.sleb128 309
 3144 09bb 0B       		.uleb128 0xb
 3145 09bc A70B0000 		.4byte	.LASF327
 3146 09c0 B602     		.sleb128 310
 3147 09c2 0B       		.uleb128 0xb
 3148 09c3 00000000 		.4byte	.LASF328
 3149 09c7 B702     		.sleb128 311
ARM GAS  C:\Users\AHMED~1.ELE\AppData\Local\Temp\ccFUpfoi.s 			page 73


 3150 09c9 0B       		.uleb128 0xb
 3151 09ca 08100000 		.4byte	.LASF329
 3152 09ce B802     		.sleb128 312
 3153 09d0 0B       		.uleb128 0xb
 3154 09d1 D02E0000 		.4byte	.LASF330
 3155 09d5 B902     		.sleb128 313
 3156 09d7 0B       		.uleb128 0xb
 3157 09d8 3E240000 		.4byte	.LASF331
 3158 09dc BA02     		.sleb128 314
 3159 09de 0B       		.uleb128 0xb
 3160 09df CA260000 		.4byte	.LASF332
 3161 09e3 BB02     		.sleb128 315
 3162 09e5 0B       		.uleb128 0xb
 3163 09e6 46010000 		.4byte	.LASF333
 3164 09ea BC02     		.sleb128 316
 3165 09ec 0B       		.uleb128 0xb
 3166 09ed F3370000 		.4byte	.LASF334
 3167 09f1 BD02     		.sleb128 317
 3168 09f3 0B       		.uleb128 0xb
 3169 09f4 35380000 		.4byte	.LASF335
 3170 09f8 BE02     		.sleb128 318
 3171 09fa 0B       		.uleb128 0xb
 3172 09fb CA270000 		.4byte	.LASF336
 3173 09ff BF02     		.sleb128 319
 3174 0a01 0B       		.uleb128 0xb
 3175 0a02 FD160000 		.4byte	.LASF337
 3176 0a06 C002     		.sleb128 320
 3177 0a08 0B       		.uleb128 0xb
 3178 0a09 45350000 		.4byte	.LASF338
 3179 0a0d C102     		.sleb128 321
 3180 0a0f 0B       		.uleb128 0xb
 3181 0a10 0C060000 		.4byte	.LASF339
 3182 0a14 C202     		.sleb128 322
 3183 0a16 0B       		.uleb128 0xb
 3184 0a17 63010000 		.4byte	.LASF340
 3185 0a1b C302     		.sleb128 323
 3186 0a1d 0B       		.uleb128 0xb
 3187 0a1e 15000000 		.4byte	.LASF341
 3188 0a22 C402     		.sleb128 324
 3189 0a24 0B       		.uleb128 0xb
 3190 0a25 E8280000 		.4byte	.LASF342
 3191 0a29 C502     		.sleb128 325
 3192 0a2b 0B       		.uleb128 0xb
 3193 0a2c 9A080000 		.4byte	.LASF343
 3194 0a30 C602     		.sleb128 326
 3195 0a32 0B       		.uleb128 0xb
 3196 0a33 20130000 		.4byte	.LASF344
 3197 0a37 C702     		.sleb128 327
 3198 0a39 0B       		.uleb128 0xb
 3199 0a3a 490A0000 		.4byte	.LASF345
 3200 0a3e C802     		.sleb128 328
 3201 0a40 0B       		.uleb128 0xb
 3202 0a41 B52D0000 		.4byte	.LASF346
 3203 0a45 C902     		.sleb128 329
 3204 0a47 0B       		.uleb128 0xb
 3205 0a48 552C0000 		.4byte	.LASF347
 3206 0a4c CA02     		.sleb128 330
ARM GAS  C:\Users\AHMED~1.ELE\AppData\Local\Temp\ccFUpfoi.s 			page 74


 3207 0a4e 0B       		.uleb128 0xb
 3208 0a4f 0F2F0000 		.4byte	.LASF348
 3209 0a53 CB02     		.sleb128 331
 3210 0a55 0B       		.uleb128 0xb
 3211 0a56 3C060000 		.4byte	.LASF349
 3212 0a5a CC02     		.sleb128 332
 3213 0a5c 0B       		.uleb128 0xb
 3214 0a5d 171F0000 		.4byte	.LASF350
 3215 0a61 CD02     		.sleb128 333
 3216 0a63 0B       		.uleb128 0xb
 3217 0a64 32220000 		.4byte	.LASF351
 3218 0a68 CE02     		.sleb128 334
 3219 0a6a 0B       		.uleb128 0xb
 3220 0a6b 77350000 		.4byte	.LASF352
 3221 0a6f CF02     		.sleb128 335
 3222 0a71 0B       		.uleb128 0xb
 3223 0a72 65200000 		.4byte	.LASF353
 3224 0a76 D002     		.sleb128 336
 3225 0a78 0B       		.uleb128 0xb
 3226 0a79 B10F0000 		.4byte	.LASF354
 3227 0a7d D102     		.sleb128 337
 3228 0a7f 0B       		.uleb128 0xb
 3229 0a80 0C150000 		.4byte	.LASF355
 3230 0a84 D202     		.sleb128 338
 3231 0a86 0B       		.uleb128 0xb
 3232 0a87 0D1C0000 		.4byte	.LASF356
 3233 0a8b D302     		.sleb128 339
 3234 0a8d 0B       		.uleb128 0xb
 3235 0a8e 59090000 		.4byte	.LASF357
 3236 0a92 D402     		.sleb128 340
 3237 0a94 0B       		.uleb128 0xb
 3238 0a95 F1230000 		.4byte	.LASF358
 3239 0a99 D502     		.sleb128 341
 3240 0a9b 0B       		.uleb128 0xb
 3241 0a9c CC340000 		.4byte	.LASF359
 3242 0aa0 D602     		.sleb128 342
 3243 0aa2 0B       		.uleb128 0xb
 3244 0aa3 6C1F0000 		.4byte	.LASF360
 3245 0aa7 D702     		.sleb128 343
 3246 0aa9 0B       		.uleb128 0xb
 3247 0aaa 081E0000 		.4byte	.LASF361
 3248 0aae D802     		.sleb128 344
 3249 0ab0 0B       		.uleb128 0xb
 3250 0ab1 2C270000 		.4byte	.LASF362
 3251 0ab5 D902     		.sleb128 345
 3252 0ab7 0B       		.uleb128 0xb
 3253 0ab8 4D120000 		.4byte	.LASF363
 3254 0abc DA02     		.sleb128 346
 3255 0abe 0B       		.uleb128 0xb
 3256 0abf F4240000 		.4byte	.LASF364
 3257 0ac3 DB02     		.sleb128 347
 3258 0ac5 0B       		.uleb128 0xb
 3259 0ac6 1C360000 		.4byte	.LASF365
 3260 0aca DC02     		.sleb128 348
 3261 0acc 0B       		.uleb128 0xb
 3262 0acd 51190000 		.4byte	.LASF366
 3263 0ad1 DD02     		.sleb128 349
ARM GAS  C:\Users\AHMED~1.ELE\AppData\Local\Temp\ccFUpfoi.s 			page 75


 3264 0ad3 0B       		.uleb128 0xb
 3265 0ad4 69220000 		.4byte	.LASF367
 3266 0ad8 DE02     		.sleb128 350
 3267 0ada 0B       		.uleb128 0xb
 3268 0adb F02D0000 		.4byte	.LASF368
 3269 0adf DF02     		.sleb128 351
 3270 0ae1 0B       		.uleb128 0xb
 3271 0ae2 D5020000 		.4byte	.LASF369
 3272 0ae6 E002     		.sleb128 352
 3273 0ae8 0B       		.uleb128 0xb
 3274 0ae9 A22A0000 		.4byte	.LASF370
 3275 0aed E102     		.sleb128 353
 3276 0aef 0B       		.uleb128 0xb
 3277 0af0 6B2E0000 		.4byte	.LASF371
 3278 0af4 E202     		.sleb128 354
 3279 0af6 0B       		.uleb128 0xb
 3280 0af7 9B180000 		.4byte	.LASF372
 3281 0afb E302     		.sleb128 355
 3282 0afd 0B       		.uleb128 0xb
 3283 0afe 07250000 		.4byte	.LASF373
 3284 0b02 E402     		.sleb128 356
 3285 0b04 0B       		.uleb128 0xb
 3286 0b05 3B110000 		.4byte	.LASF374
 3287 0b09 E502     		.sleb128 357
 3288 0b0b 0B       		.uleb128 0xb
 3289 0b0c 36160000 		.4byte	.LASF375
 3290 0b10 E602     		.sleb128 358
 3291 0b12 0B       		.uleb128 0xb
 3292 0b13 CD370000 		.4byte	.LASF376
 3293 0b17 E702     		.sleb128 359
 3294 0b19 0B       		.uleb128 0xb
 3295 0b1a 4F300000 		.4byte	.LASF377
 3296 0b1e E802     		.sleb128 360
 3297 0b20 0B       		.uleb128 0xb
 3298 0b21 BF1F0000 		.4byte	.LASF378
 3299 0b25 E902     		.sleb128 361
 3300 0b27 0B       		.uleb128 0xb
 3301 0b28 772D0000 		.4byte	.LASF379
 3302 0b2c EA02     		.sleb128 362
 3303 0b2e 0B       		.uleb128 0xb
 3304 0b2f 72120000 		.4byte	.LASF380
 3305 0b33 EB02     		.sleb128 363
 3306 0b35 0B       		.uleb128 0xb
 3307 0b36 82120000 		.4byte	.LASF381
 3308 0b3a EC02     		.sleb128 364
 3309 0b3c 0B       		.uleb128 0xb
 3310 0b3d 3C040000 		.4byte	.LASF382
 3311 0b41 ED02     		.sleb128 365
 3312 0b43 0B       		.uleb128 0xb
 3313 0b44 5E320000 		.4byte	.LASF383
 3314 0b48 EE02     		.sleb128 366
 3315 0b4a 0B       		.uleb128 0xb
 3316 0b4b 2D070000 		.4byte	.LASF384
 3317 0b4f EF02     		.sleb128 367
 3318 0b51 0B       		.uleb128 0xb
 3319 0b52 881D0000 		.4byte	.LASF385
 3320 0b56 F002     		.sleb128 368
ARM GAS  C:\Users\AHMED~1.ELE\AppData\Local\Temp\ccFUpfoi.s 			page 76


 3321 0b58 0B       		.uleb128 0xb
 3322 0b59 77080000 		.4byte	.LASF386
 3323 0b5d F102     		.sleb128 369
 3324 0b5f 0B       		.uleb128 0xb
 3325 0b60 F02A0000 		.4byte	.LASF387
 3326 0b64 F202     		.sleb128 370
 3327 0b66 0B       		.uleb128 0xb
 3328 0b67 FF120000 		.4byte	.LASF388
 3329 0b6b F302     		.sleb128 371
 3330 0b6d 0B       		.uleb128 0xb
 3331 0b6e D5220000 		.4byte	.LASF389
 3332 0b72 F402     		.sleb128 372
 3333 0b74 0B       		.uleb128 0xb
 3334 0b75 D5110000 		.4byte	.LASF390
 3335 0b79 F502     		.sleb128 373
 3336 0b7b 0B       		.uleb128 0xb
 3337 0b7c 08320000 		.4byte	.LASF391
 3338 0b80 F602     		.sleb128 374
 3339 0b82 0B       		.uleb128 0xb
 3340 0b83 46090000 		.4byte	.LASF392
 3341 0b87 F702     		.sleb128 375
 3342 0b89 0B       		.uleb128 0xb
 3343 0b8a BA350000 		.4byte	.LASF393
 3344 0b8e F802     		.sleb128 376
 3345 0b90 0B       		.uleb128 0xb
 3346 0b91 09360000 		.4byte	.LASF394
 3347 0b95 F902     		.sleb128 377
 3348 0b97 0B       		.uleb128 0xb
 3349 0b98 861E0000 		.4byte	.LASF395
 3350 0b9c FA02     		.sleb128 378
 3351 0b9e 0B       		.uleb128 0xb
 3352 0b9f A82B0000 		.4byte	.LASF396
 3353 0ba3 FB02     		.sleb128 379
 3354 0ba5 0B       		.uleb128 0xb
 3355 0ba6 A6270000 		.4byte	.LASF397
 3356 0baa FC02     		.sleb128 380
 3357 0bac 0B       		.uleb128 0xb
 3358 0bad 8F280000 		.4byte	.LASF398
 3359 0bb1 FD02     		.sleb128 381
 3360 0bb3 0B       		.uleb128 0xb
 3361 0bb4 832B0000 		.4byte	.LASF399
 3362 0bb8 FE02     		.sleb128 382
 3363 0bba 0B       		.uleb128 0xb
 3364 0bbb B2060000 		.4byte	.LASF400
 3365 0bbf FF02     		.sleb128 383
 3366 0bc1 0B       		.uleb128 0xb
 3367 0bc2 31260000 		.4byte	.LASF401
 3368 0bc6 8003     		.sleb128 384
 3369 0bc8 0B       		.uleb128 0xb
 3370 0bc9 8C310000 		.4byte	.LASF402
 3371 0bcd 8103     		.sleb128 385
 3372 0bcf 0B       		.uleb128 0xb
 3373 0bd0 44310000 		.4byte	.LASF403
 3374 0bd4 8203     		.sleb128 386
 3375 0bd6 0B       		.uleb128 0xb
 3376 0bd7 72190000 		.4byte	.LASF404
 3377 0bdb 8303     		.sleb128 387
ARM GAS  C:\Users\AHMED~1.ELE\AppData\Local\Temp\ccFUpfoi.s 			page 77


 3378 0bdd 0B       		.uleb128 0xb
 3379 0bde 610B0000 		.4byte	.LASF405
 3380 0be2 8403     		.sleb128 388
 3381 0be4 0B       		.uleb128 0xb
 3382 0be5 4D1D0000 		.4byte	.LASF406
 3383 0be9 8503     		.sleb128 389
 3384 0beb 0B       		.uleb128 0xb
 3385 0bec D3070000 		.4byte	.LASF407
 3386 0bf0 8603     		.sleb128 390
 3387 0bf2 0B       		.uleb128 0xb
 3388 0bf3 AA0C0000 		.4byte	.LASF408
 3389 0bf7 8703     		.sleb128 391
 3390 0bf9 0B       		.uleb128 0xb
 3391 0bfa 66240000 		.4byte	.LASF409
 3392 0bfe 8803     		.sleb128 392
 3393 0c00 0B       		.uleb128 0xb
 3394 0c01 EC0E0000 		.4byte	.LASF410
 3395 0c05 8903     		.sleb128 393
 3396 0c07 0B       		.uleb128 0xb
 3397 0c08 B5360000 		.4byte	.LASF411
 3398 0c0c 8A03     		.sleb128 394
 3399 0c0e 0B       		.uleb128 0xb
 3400 0c0f 6A280000 		.4byte	.LASF412
 3401 0c13 8B03     		.sleb128 395
 3402 0c15 0B       		.uleb128 0xb
 3403 0c16 142D0000 		.4byte	.LASF413
 3404 0c1a 8C03     		.sleb128 396
 3405 0c1c 0B       		.uleb128 0xb
 3406 0c1d 74300000 		.4byte	.LASF414
 3407 0c21 8D03     		.sleb128 397
 3408 0c23 0B       		.uleb128 0xb
 3409 0c24 C6000000 		.4byte	.LASF415
 3410 0c28 8E03     		.sleb128 398
 3411 0c2a 0B       		.uleb128 0xb
 3412 0c2b 9F220000 		.4byte	.LASF416
 3413 0c2f 8F03     		.sleb128 399
 3414 0c31 0B       		.uleb128 0xb
 3415 0c32 76150000 		.4byte	.LASF417
 3416 0c36 9003     		.sleb128 400
 3417 0c38 0B       		.uleb128 0xb
 3418 0c39 EC2F0000 		.4byte	.LASF418
 3419 0c3d 9103     		.sleb128 401
 3420 0c3f 0B       		.uleb128 0xb
 3421 0c40 47140000 		.4byte	.LASF419
 3422 0c44 9203     		.sleb128 402
 3423 0c46 0B       		.uleb128 0xb
 3424 0c47 C7210000 		.4byte	.LASF420
 3425 0c4b 9303     		.sleb128 403
 3426 0c4d 0B       		.uleb128 0xb
 3427 0c4e 0E260000 		.4byte	.LASF421
 3428 0c52 9403     		.sleb128 404
 3429 0c54 0B       		.uleb128 0xb
 3430 0c55 48070000 		.4byte	.LASF422
 3431 0c59 9503     		.sleb128 405
 3432 0c5b 0B       		.uleb128 0xb
 3433 0c5c 712A0000 		.4byte	.LASF423
 3434 0c60 9603     		.sleb128 406
ARM GAS  C:\Users\AHMED~1.ELE\AppData\Local\Temp\ccFUpfoi.s 			page 78


 3435 0c62 0B       		.uleb128 0xb
 3436 0c63 A0060000 		.4byte	.LASF424
 3437 0c67 9703     		.sleb128 407
 3438 0c69 0B       		.uleb128 0xb
 3439 0c6a FE180000 		.4byte	.LASF425
 3440 0c6e 9803     		.sleb128 408
 3441 0c70 0B       		.uleb128 0xb
 3442 0c71 66230000 		.4byte	.LASF426
 3443 0c75 9903     		.sleb128 409
 3444 0c77 0B       		.uleb128 0xb
 3445 0c78 A4320000 		.4byte	.LASF427
 3446 0c7c 9A03     		.sleb128 410
 3447 0c7e 0B       		.uleb128 0xb
 3448 0c7f 810D0000 		.4byte	.LASF428
 3449 0c83 9B03     		.sleb128 411
 3450 0c85 0B       		.uleb128 0xb
 3451 0c86 F41A0000 		.4byte	.LASF429
 3452 0c8a 9C03     		.sleb128 412
 3453 0c8c 0B       		.uleb128 0xb
 3454 0c8d DA150000 		.4byte	.LASF430
 3455 0c91 9D03     		.sleb128 413
 3456 0c93 0B       		.uleb128 0xb
 3457 0c94 35360000 		.4byte	.LASF431
 3458 0c98 9E03     		.sleb128 414
 3459 0c9a 0B       		.uleb128 0xb
 3460 0c9b 5B2F0000 		.4byte	.LASF432
 3461 0c9f 9F03     		.sleb128 415
 3462 0ca1 0B       		.uleb128 0xb
 3463 0ca2 80100000 		.4byte	.LASF433
 3464 0ca6 A003     		.sleb128 416
 3465 0ca8 0B       		.uleb128 0xb
 3466 0ca9 A4030000 		.4byte	.LASF434
 3467 0cad A103     		.sleb128 417
 3468 0caf 0B       		.uleb128 0xb
 3469 0cb0 270C0000 		.4byte	.LASF435
 3470 0cb4 A203     		.sleb128 418
 3471 0cb6 0B       		.uleb128 0xb
 3472 0cb7 C40D0000 		.4byte	.LASF436
 3473 0cbb A303     		.sleb128 419
 3474 0cbd 0B       		.uleb128 0xb
 3475 0cbe 91030000 		.4byte	.LASF437
 3476 0cc2 A403     		.sleb128 420
 3477 0cc4 0B       		.uleb128 0xb
 3478 0cc5 4C210000 		.4byte	.LASF438
 3479 0cc9 A503     		.sleb128 421
 3480 0ccb 0B       		.uleb128 0xb
 3481 0ccc 5D330000 		.4byte	.LASF439
 3482 0cd0 A603     		.sleb128 422
 3483 0cd2 0B       		.uleb128 0xb
 3484 0cd3 B9050000 		.4byte	.LASF440
 3485 0cd7 A703     		.sleb128 423
 3486 0cd9 0B       		.uleb128 0xb
 3487 0cda F0010000 		.4byte	.LASF441
 3488 0cde A803     		.sleb128 424
 3489 0ce0 0B       		.uleb128 0xb
 3490 0ce1 EF020000 		.4byte	.LASF442
 3491 0ce5 A903     		.sleb128 425
ARM GAS  C:\Users\AHMED~1.ELE\AppData\Local\Temp\ccFUpfoi.s 			page 79


 3492 0ce7 0B       		.uleb128 0xb
 3493 0ce8 5B080000 		.4byte	.LASF443
 3494 0cec AA03     		.sleb128 426
 3495 0cee 0B       		.uleb128 0xb
 3496 0cef 1E370000 		.4byte	.LASF444
 3497 0cf3 AB03     		.sleb128 427
 3498 0cf5 0B       		.uleb128 0xb
 3499 0cf6 E6250000 		.4byte	.LASF445
 3500 0cfa AC03     		.sleb128 428
 3501 0cfc 0B       		.uleb128 0xb
 3502 0cfd F4140000 		.4byte	.LASF446
 3503 0d01 AD03     		.sleb128 429
 3504 0d03 0B       		.uleb128 0xb
 3505 0d04 1C210000 		.4byte	.LASF447
 3506 0d08 AE03     		.sleb128 430
 3507 0d0a 0B       		.uleb128 0xb
 3508 0d0b F3350000 		.4byte	.LASF448
 3509 0d0f AF03     		.sleb128 431
 3510 0d11 0B       		.uleb128 0xb
 3511 0d12 5B100000 		.4byte	.LASF449
 3512 0d16 B003     		.sleb128 432
 3513 0d18 0B       		.uleb128 0xb
 3514 0d19 DF080000 		.4byte	.LASF450
 3515 0d1d B103     		.sleb128 433
 3516 0d1f 0B       		.uleb128 0xb
 3517 0d20 4B200000 		.4byte	.LASF451
 3518 0d24 B203     		.sleb128 434
 3519 0d26 0B       		.uleb128 0xb
 3520 0d27 4C160000 		.4byte	.LASF452
 3521 0d2b B303     		.sleb128 435
 3522 0d2d 0B       		.uleb128 0xb
 3523 0d2e D5200000 		.4byte	.LASF453
 3524 0d32 B403     		.sleb128 436
 3525 0d34 0B       		.uleb128 0xb
 3526 0d35 AD080000 		.4byte	.LASF454
 3527 0d39 B503     		.sleb128 437
 3528 0d3b 0B       		.uleb128 0xb
 3529 0d3c A8110000 		.4byte	.LASF455
 3530 0d40 B603     		.sleb128 438
 3531 0d42 0B       		.uleb128 0xb
 3532 0d43 EF0D0000 		.4byte	.LASF456
 3533 0d47 B703     		.sleb128 439
 3534 0d49 0B       		.uleb128 0xb
 3535 0d4a 33120000 		.4byte	.LASF457
 3536 0d4e B803     		.sleb128 440
 3537 0d50 0B       		.uleb128 0xb
 3538 0d51 B9010000 		.4byte	.LASF458
 3539 0d55 B903     		.sleb128 441
 3540 0d57 0B       		.uleb128 0xb
 3541 0d58 C52A0000 		.4byte	.LASF459
 3542 0d5c BA03     		.sleb128 442
 3543 0d5e 0B       		.uleb128 0xb
 3544 0d5f D62D0000 		.4byte	.LASF460
 3545 0d63 BB03     		.sleb128 443
 3546 0d65 0B       		.uleb128 0xb
 3547 0d66 330A0000 		.4byte	.LASF461
 3548 0d6a BC03     		.sleb128 444
ARM GAS  C:\Users\AHMED~1.ELE\AppData\Local\Temp\ccFUpfoi.s 			page 80


 3549 0d6c 0B       		.uleb128 0xb
 3550 0d6d 03240000 		.4byte	.LASF462
 3551 0d71 BD03     		.sleb128 445
 3552 0d73 0B       		.uleb128 0xb
 3553 0d74 A61A0000 		.4byte	.LASF463
 3554 0d78 BE03     		.sleb128 446
 3555 0d7a 0B       		.uleb128 0xb
 3556 0d7b D1030000 		.4byte	.LASF464
 3557 0d7f BF03     		.sleb128 447
 3558 0d81 0B       		.uleb128 0xb
 3559 0d82 0D120000 		.4byte	.LASF465
 3560 0d86 C003     		.sleb128 448
 3561 0d88 0B       		.uleb128 0xb
 3562 0d89 00290000 		.4byte	.LASF466
 3563 0d8d C103     		.sleb128 449
 3564 0d8f 0B       		.uleb128 0xb
 3565 0d90 A0140000 		.4byte	.LASF467
 3566 0d94 C203     		.sleb128 450
 3567 0d96 0B       		.uleb128 0xb
 3568 0d97 8E300000 		.4byte	.LASF468
 3569 0d9b C303     		.sleb128 451
 3570 0d9d 0B       		.uleb128 0xb
 3571 0d9e 90050000 		.4byte	.LASF469
 3572 0da2 C403     		.sleb128 452
 3573 0da4 0B       		.uleb128 0xb
 3574 0da5 380F0000 		.4byte	.LASF470
 3575 0da9 C503     		.sleb128 453
 3576 0dab 0B       		.uleb128 0xb
 3577 0dac DD300000 		.4byte	.LASF471
 3578 0db0 C603     		.sleb128 454
 3579 0db2 0B       		.uleb128 0xb
 3580 0db3 6F180000 		.4byte	.LASF472
 3581 0db7 C703     		.sleb128 455
 3582 0db9 0B       		.uleb128 0xb
 3583 0dba DF340000 		.4byte	.LASF473
 3584 0dbe C803     		.sleb128 456
 3585 0dc0 0B       		.uleb128 0xb
 3586 0dc1 FF0B0000 		.4byte	.LASF474
 3587 0dc5 C903     		.sleb128 457
 3588 0dc7 0B       		.uleb128 0xb
 3589 0dc8 92210000 		.4byte	.LASF475
 3590 0dcc CA03     		.sleb128 458
 3591 0dce 0B       		.uleb128 0xb
 3592 0dcf 52270000 		.4byte	.LASF476
 3593 0dd3 CB03     		.sleb128 459
 3594 0dd5 0B       		.uleb128 0xb
 3595 0dd6 5B1B0000 		.4byte	.LASF477
 3596 0dda CC03     		.sleb128 460
 3597 0ddc 0B       		.uleb128 0xb
 3598 0ddd 6D040000 		.4byte	.LASF478
 3599 0de1 CD03     		.sleb128 461
 3600 0de3 0B       		.uleb128 0xb
 3601 0de4 AB2F0000 		.4byte	.LASF479
 3602 0de8 CE03     		.sleb128 462
 3603 0dea 0B       		.uleb128 0xb
 3604 0deb 51020000 		.4byte	.LASF480
 3605 0def CF03     		.sleb128 463
ARM GAS  C:\Users\AHMED~1.ELE\AppData\Local\Temp\ccFUpfoi.s 			page 81


 3606 0df1 0B       		.uleb128 0xb
 3607 0df2 1B170000 		.4byte	.LASF481
 3608 0df6 D003     		.sleb128 464
 3609 0df8 0B       		.uleb128 0xb
 3610 0df9 06180000 		.4byte	.LASF482
 3611 0dfd D103     		.sleb128 465
 3612 0dff 0B       		.uleb128 0xb
 3613 0e00 E0310000 		.4byte	.LASF483
 3614 0e04 D203     		.sleb128 466
 3615 0e06 0B       		.uleb128 0xb
 3616 0e07 EC0C0000 		.4byte	.LASF484
 3617 0e0b D303     		.sleb128 467
 3618 0e0d 0B       		.uleb128 0xb
 3619 0e0e 66030000 		.4byte	.LASF485
 3620 0e12 D403     		.sleb128 468
 3621 0e14 0B       		.uleb128 0xb
 3622 0e15 551C0000 		.4byte	.LASF486
 3623 0e19 D503     		.sleb128 469
 3624 0e1b 0B       		.uleb128 0xb
 3625 0e1c FC290000 		.4byte	.LASF487
 3626 0e20 D603     		.sleb128 470
 3627 0e22 0B       		.uleb128 0xb
 3628 0e23 93020000 		.4byte	.LASF488
 3629 0e27 D703     		.sleb128 471
 3630 0e29 0B       		.uleb128 0xb
 3631 0e2a A4250000 		.4byte	.LASF489
 3632 0e2e D803     		.sleb128 472
 3633 0e30 00       		.byte	0
 3634 0e31 06       		.uleb128 0x6
 3635 0e32 04       		.byte	0x4
 3636 0e33 370E0000 		.4byte	0xe37
 3637 0e37 0C       		.uleb128 0xc
 3638 0e38 07       		.uleb128 0x7
 3639 0e39 A7000000 		.4byte	0xa7
 3640 0e3d 480E0000 		.4byte	0xe48
 3641 0e41 08       		.uleb128 0x8
 3642 0e42 76000000 		.4byte	0x76
 3643 0e46 05       		.byte	0x5
 3644 0e47 00       		.byte	0
 3645 0e48 0D       		.uleb128 0xd
 3646 0e49 02       		.byte	0x2
 3647 0e4a 05       		.byte	0x5
 3648 0e4b DD18     		.2byte	0x18dd
 3649 0e4d 710E0000 		.4byte	0xe71
 3650 0e51 0B       		.uleb128 0xb
 3651 0e52 3B150000 		.4byte	.LASF490
 3652 0e56 00       		.sleb128 0
 3653 0e57 0B       		.uleb128 0xb
 3654 0e58 B12E0000 		.4byte	.LASF491
 3655 0e5c 01       		.sleb128 1
 3656 0e5d 0B       		.uleb128 0xb
 3657 0e5e 98340000 		.4byte	.LASF492
 3658 0e62 02       		.sleb128 2
 3659 0e63 0B       		.uleb128 0xb
 3660 0e64 47050000 		.4byte	.LASF493
 3661 0e68 03       		.sleb128 3
 3662 0e69 0B       		.uleb128 0xb
ARM GAS  C:\Users\AHMED~1.ELE\AppData\Local\Temp\ccFUpfoi.s 			page 82


 3663 0e6a A4100000 		.4byte	.LASF494
 3664 0e6e 8002     		.sleb128 256
 3665 0e70 00       		.byte	0
 3666 0e71 06       		.uleb128 0x6
 3667 0e72 04       		.byte	0x4
 3668 0e73 7F000000 		.4byte	0x7f
 3669 0e77 06       		.uleb128 0x6
 3670 0e78 04       		.byte	0x4
 3671 0e79 3E000000 		.4byte	0x3e
 3672 0e7d 0E       		.uleb128 0xe
 3673 0e7e A4070000 		.4byte	.LASF502
 3674 0e82 08       		.byte	0x8
 3675 0e83 04       		.byte	0x4
 3676 0e84 1403     		.2byte	0x314
 3677 0e86 E60E0000 		.4byte	0xee6
 3678 0e8a 0F       		.uleb128 0xf
 3679 0e8b 2D1E0000 		.4byte	.LASF495
 3680 0e8f 04       		.byte	0x4
 3681 0e90 1503     		.2byte	0x315
 3682 0e92 A7000000 		.4byte	0xa7
 3683 0e96 00       		.byte	0
 3684 0e97 0F       		.uleb128 0xf
 3685 0e98 AE040000 		.4byte	.LASF496
 3686 0e9c 04       		.byte	0x4
 3687 0e9d 1603     		.2byte	0x316
 3688 0e9f A7000000 		.4byte	0xa7
 3689 0ea3 01       		.byte	0x1
 3690 0ea4 0F       		.uleb128 0xf
 3691 0ea5 53100000 		.4byte	.LASF497
 3692 0ea9 04       		.byte	0x4
 3693 0eaa 1703     		.2byte	0x317
 3694 0eac A7000000 		.4byte	0xa7
 3695 0eb0 02       		.byte	0x2
 3696 0eb1 0F       		.uleb128 0xf
 3697 0eb2 0A1D0000 		.4byte	.LASF498
 3698 0eb6 04       		.byte	0x4
 3699 0eb7 1803     		.2byte	0x318
 3700 0eb9 A7000000 		.4byte	0xa7
 3701 0ebd 03       		.byte	0x3
 3702 0ebe 0F       		.uleb128 0xf
 3703 0ebf 64370000 		.4byte	.LASF499
 3704 0ec3 04       		.byte	0x4
 3705 0ec4 1903     		.2byte	0x319
 3706 0ec6 A7000000 		.4byte	0xa7
 3707 0eca 04       		.byte	0x4
 3708 0ecb 0F       		.uleb128 0xf
 3709 0ecc E0100000 		.4byte	.LASF500
 3710 0ed0 04       		.byte	0x4
 3711 0ed1 1A03     		.2byte	0x31a
 3712 0ed3 A7000000 		.4byte	0xa7
 3713 0ed7 05       		.byte	0x5
 3714 0ed8 0F       		.uleb128 0xf
 3715 0ed9 F4050000 		.4byte	.LASF501
 3716 0edd 04       		.byte	0x4
 3717 0ede 1B03     		.2byte	0x31b
 3718 0ee0 A7000000 		.4byte	0xa7
 3719 0ee4 06       		.byte	0x6
ARM GAS  C:\Users\AHMED~1.ELE\AppData\Local\Temp\ccFUpfoi.s 			page 83


 3720 0ee5 00       		.byte	0
 3721 0ee6 0E       		.uleb128 0xe
 3722 0ee7 9A120000 		.4byte	.LASF503
 3723 0eeb 14       		.byte	0x14
 3724 0eec 04       		.byte	0x4
 3725 0eed 5003     		.2byte	0x350
 3726 0eef 760F0000 		.4byte	0xf76
 3727 0ef3 0F       		.uleb128 0xf
 3728 0ef4 87300000 		.4byte	.LASF504
 3729 0ef8 04       		.byte	0x4
 3730 0ef9 5103     		.2byte	0x351
 3731 0efb BD000000 		.4byte	0xbd
 3732 0eff 00       		.byte	0
 3733 0f00 0F       		.uleb128 0xf
 3734 0f01 F41C0000 		.4byte	.LASF505
 3735 0f05 04       		.byte	0x4
 3736 0f06 5203     		.2byte	0x352
 3737 0f08 BD000000 		.4byte	0xbd
 3738 0f0c 04       		.byte	0x4
 3739 0f0d 0F       		.uleb128 0xf
 3740 0f0e 9A0D0000 		.4byte	.LASF506
 3741 0f12 04       		.byte	0x4
 3742 0f13 5303     		.2byte	0x353
 3743 0f15 BD000000 		.4byte	0xbd
 3744 0f19 08       		.byte	0x8
 3745 0f1a 0F       		.uleb128 0xf
 3746 0f1b CF160000 		.4byte	.LASF507
 3747 0f1f 04       		.byte	0x4
 3748 0f20 5403     		.2byte	0x354
 3749 0f22 B2000000 		.4byte	0xb2
 3750 0f26 0C       		.byte	0xc
 3751 0f27 0F       		.uleb128 0xf
 3752 0f28 8C350000 		.4byte	.LASF508
 3753 0f2c 04       		.byte	0x4
 3754 0f2d 5503     		.2byte	0x355
 3755 0f2f A7000000 		.4byte	0xa7
 3756 0f33 0E       		.byte	0xe
 3757 0f34 0F       		.uleb128 0xf
 3758 0f35 36010000 		.4byte	.LASF509
 3759 0f39 04       		.byte	0x4
 3760 0f3a 5603     		.2byte	0x356
 3761 0f3c A7000000 		.4byte	0xa7
 3762 0f40 0F       		.byte	0xf
 3763 0f41 0F       		.uleb128 0xf
 3764 0f42 A00C0000 		.4byte	.LASF510
 3765 0f46 04       		.byte	0x4
 3766 0f47 5703     		.2byte	0x357
 3767 0f49 A7000000 		.4byte	0xa7
 3768 0f4d 10       		.byte	0x10
 3769 0f4e 0F       		.uleb128 0xf
 3770 0f4f CD360000 		.4byte	.LASF511
 3771 0f53 04       		.byte	0x4
 3772 0f54 5803     		.2byte	0x358
 3773 0f56 A7000000 		.4byte	0xa7
 3774 0f5a 11       		.byte	0x11
 3775 0f5b 0F       		.uleb128 0xf
 3776 0f5c 4B040000 		.4byte	.LASF512
ARM GAS  C:\Users\AHMED~1.ELE\AppData\Local\Temp\ccFUpfoi.s 			page 84


 3777 0f60 04       		.byte	0x4
 3778 0f61 5903     		.2byte	0x359
 3779 0f63 A7000000 		.4byte	0xa7
 3780 0f67 12       		.byte	0x12
 3781 0f68 0F       		.uleb128 0xf
 3782 0f69 EE1A0000 		.4byte	.LASF513
 3783 0f6d 04       		.byte	0x4
 3784 0f6e 5A03     		.2byte	0x35a
 3785 0f70 64010000 		.4byte	0x164
 3786 0f74 13       		.byte	0x13
 3787 0f75 00       		.byte	0
 3788 0f76 0E       		.uleb128 0xe
 3789 0f77 E7110000 		.4byte	.LASF514
 3790 0f7b 58       		.byte	0x58
 3791 0f7c 04       		.byte	0x4
 3792 0f7d 1B04     		.2byte	0x41b
 3793 0f7f 88100000 		.4byte	0x1088
 3794 0f83 0F       		.uleb128 0xf
 3795 0f84 F81F0000 		.4byte	.LASF515
 3796 0f88 04       		.byte	0x4
 3797 0f89 1C04     		.2byte	0x41c
 3798 0f8b A7000000 		.4byte	0xa7
 3799 0f8f 00       		.byte	0
 3800 0f90 0F       		.uleb128 0xf
 3801 0f91 661D0000 		.4byte	.LASF516
 3802 0f95 04       		.byte	0x4
 3803 0f96 2004     		.2byte	0x420
 3804 0f98 A7000000 		.4byte	0xa7
 3805 0f9c 01       		.byte	0x1
 3806 0f9d 0F       		.uleb128 0xf
 3807 0f9e 53100000 		.4byte	.LASF497
 3808 0fa2 04       		.byte	0x4
 3809 0fa3 2204     		.2byte	0x422
 3810 0fa5 A7000000 		.4byte	0xa7
 3811 0fa9 02       		.byte	0x2
 3812 0faa 0F       		.uleb128 0xf
 3813 0fab DD0D0000 		.4byte	.LASF517
 3814 0faf 04       		.byte	0x4
 3815 0fb0 2D04     		.2byte	0x42d
 3816 0fb2 A7000000 		.4byte	0xa7
 3817 0fb6 03       		.byte	0x3
 3818 0fb7 0F       		.uleb128 0xf
 3819 0fb8 270B0000 		.4byte	.LASF518
 3820 0fbc 04       		.byte	0x4
 3821 0fbd 2E04     		.2byte	0x42e
 3822 0fbf A7000000 		.4byte	0xa7
 3823 0fc3 04       		.byte	0x4
 3824 0fc4 0F       		.uleb128 0xf
 3825 0fc5 B6090000 		.4byte	.LASF519
 3826 0fc9 04       		.byte	0x4
 3827 0fca 2F04     		.2byte	0x42f
 3828 0fcc A7000000 		.4byte	0xa7
 3829 0fd0 05       		.byte	0x5
 3830 0fd1 0F       		.uleb128 0xf
 3831 0fd2 4C2A0000 		.4byte	.LASF520
 3832 0fd6 04       		.byte	0x4
 3833 0fd7 3004     		.2byte	0x430
ARM GAS  C:\Users\AHMED~1.ELE\AppData\Local\Temp\ccFUpfoi.s 			page 85


 3834 0fd9 88100000 		.4byte	0x1088
 3835 0fdd 06       		.byte	0x6
 3836 0fde 0F       		.uleb128 0xf
 3837 0fdf B5370000 		.4byte	.LASF521
 3838 0fe3 04       		.byte	0x4
 3839 0fe4 3104     		.2byte	0x431
 3840 0fe6 A7000000 		.4byte	0xa7
 3841 0fea 28       		.byte	0x28
 3842 0feb 0F       		.uleb128 0xf
 3843 0fec 1A0C0000 		.4byte	.LASF522
 3844 0ff0 04       		.byte	0x4
 3845 0ff1 3204     		.2byte	0x432
 3846 0ff3 A7000000 		.4byte	0xa7
 3847 0ff7 29       		.byte	0x29
 3848 0ff8 0F       		.uleb128 0xf
 3849 0ff9 2A040000 		.4byte	.LASF523
 3850 0ffd 04       		.byte	0x4
 3851 0ffe 3304     		.2byte	0x433
 3852 1000 A7000000 		.4byte	0xa7
 3853 1004 2A       		.byte	0x2a
 3854 1005 0F       		.uleb128 0xf
 3855 1006 B70E0000 		.4byte	.LASF524
 3856 100a 04       		.byte	0x4
 3857 100b 3404     		.2byte	0x434
 3858 100d 88100000 		.4byte	0x1088
 3859 1011 2B       		.byte	0x2b
 3860 1012 0F       		.uleb128 0xf
 3861 1013 A30F0000 		.4byte	.LASF525
 3862 1017 04       		.byte	0x4
 3863 1018 3504     		.2byte	0x435
 3864 101a A7000000 		.4byte	0xa7
 3865 101e 4D       		.byte	0x4d
 3866 101f 0F       		.uleb128 0xf
 3867 1020 CE130000 		.4byte	.LASF526
 3868 1024 04       		.byte	0x4
 3869 1025 3604     		.2byte	0x436
 3870 1027 A7000000 		.4byte	0xa7
 3871 102b 4E       		.byte	0x4e
 3872 102c 0F       		.uleb128 0xf
 3873 102d AD1D0000 		.4byte	.LASF527
 3874 1031 04       		.byte	0x4
 3875 1032 3704     		.2byte	0x437
 3876 1034 A7000000 		.4byte	0xa7
 3877 1038 4F       		.byte	0x4f
 3878 1039 0F       		.uleb128 0xf
 3879 103a 9A0A0000 		.4byte	.LASF528
 3880 103e 04       		.byte	0x4
 3881 103f 3804     		.2byte	0x438
 3882 1041 A7000000 		.4byte	0xa7
 3883 1045 50       		.byte	0x50
 3884 1046 0F       		.uleb128 0xf
 3885 1047 682C0000 		.4byte	.LASF529
 3886 104b 04       		.byte	0x4
 3887 104c 3904     		.2byte	0x439
 3888 104e A7000000 		.4byte	0xa7
 3889 1052 51       		.byte	0x51
 3890 1053 0F       		.uleb128 0xf
ARM GAS  C:\Users\AHMED~1.ELE\AppData\Local\Temp\ccFUpfoi.s 			page 86


 3891 1054 85340000 		.4byte	.LASF530
 3892 1058 04       		.byte	0x4
 3893 1059 3A04     		.2byte	0x43a
 3894 105b A7000000 		.4byte	0xa7
 3895 105f 52       		.byte	0x52
 3896 1060 0F       		.uleb128 0xf
 3897 1061 05070000 		.4byte	.LASF531
 3898 1065 04       		.byte	0x4
 3899 1066 3B04     		.2byte	0x43b
 3900 1068 A7000000 		.4byte	0xa7
 3901 106c 53       		.byte	0x53
 3902 106d 0F       		.uleb128 0xf
 3903 106e E8210000 		.4byte	.LASF532
 3904 1072 04       		.byte	0x4
 3905 1073 3C04     		.2byte	0x43c
 3906 1075 A7000000 		.4byte	0xa7
 3907 1079 54       		.byte	0x54
 3908 107a 0F       		.uleb128 0xf
 3909 107b 170E0000 		.4byte	.LASF533
 3910 107f 04       		.byte	0x4
 3911 1080 3D04     		.2byte	0x43d
 3912 1082 A7000000 		.4byte	0xa7
 3913 1086 55       		.byte	0x55
 3914 1087 00       		.byte	0
 3915 1088 07       		.uleb128 0x7
 3916 1089 A7000000 		.4byte	0xa7
 3917 108d 98100000 		.4byte	0x1098
 3918 1091 08       		.uleb128 0x8
 3919 1092 76000000 		.4byte	0x76
 3920 1096 21       		.byte	0x21
 3921 1097 00       		.byte	0
 3922 1098 0E       		.uleb128 0xe
 3923 1099 4D030000 		.4byte	.LASF534
 3924 109d 14       		.byte	0x14
 3925 109e 04       		.byte	0x4
 3926 109f DB04     		.2byte	0x4db
 3927 10a1 0E110000 		.4byte	0x110e
 3928 10a5 0F       		.uleb128 0xf
 3929 10a6 DE370000 		.4byte	.LASF535
 3930 10aa 04       		.byte	0x4
 3931 10ab DC04     		.2byte	0x4dc
 3932 10ad 710E0000 		.4byte	0xe71
 3933 10b1 00       		.byte	0
 3934 10b2 0F       		.uleb128 0xf
 3935 10b3 32060000 		.4byte	.LASF536
 3936 10b7 04       		.byte	0x4
 3937 10b8 DD04     		.2byte	0x4dd
 3938 10ba B2000000 		.4byte	0xb2
 3939 10be 04       		.byte	0x4
 3940 10bf 0F       		.uleb128 0xf
 3941 10c0 47260000 		.4byte	.LASF537
 3942 10c4 04       		.byte	0x4
 3943 10c5 DE04     		.2byte	0x4de
 3944 10c7 B2000000 		.4byte	0xb2
 3945 10cb 06       		.byte	0x6
 3946 10cc 0F       		.uleb128 0xf
 3947 10cd 6B120000 		.4byte	.LASF538
ARM GAS  C:\Users\AHMED~1.ELE\AppData\Local\Temp\ccFUpfoi.s 			page 87


 3948 10d1 04       		.byte	0x4
 3949 10d2 DF04     		.2byte	0x4df
 3950 10d4 770E0000 		.4byte	0xe77
 3951 10d8 08       		.byte	0x8
 3952 10d9 0F       		.uleb128 0xf
 3953 10da F31B0000 		.4byte	.LASF539
 3954 10de 04       		.byte	0x4
 3955 10df E004     		.2byte	0x4e0
 3956 10e1 7F000000 		.4byte	0x7f
 3957 10e5 0C       		.byte	0xc
 3958 10e6 0F       		.uleb128 0xf
 3959 10e7 CC0C0000 		.4byte	.LASF540
 3960 10eb 04       		.byte	0x4
 3961 10ec E104     		.2byte	0x4e1
 3962 10ee 4C000000 		.4byte	0x4c
 3963 10f2 10       		.byte	0x10
 3964 10f3 0F       		.uleb128 0xf
 3965 10f4 F4050000 		.4byte	.LASF501
 3966 10f8 04       		.byte	0x4
 3967 10f9 E204     		.2byte	0x4e2
 3968 10fb A7000000 		.4byte	0xa7
 3969 10ff 12       		.byte	0x12
 3970 1100 0F       		.uleb128 0xf
 3971 1101 A7010000 		.4byte	.LASF541
 3972 1105 04       		.byte	0x4
 3973 1106 E304     		.2byte	0x4e3
 3974 1108 85000000 		.4byte	0x85
 3975 110c 13       		.byte	0x13
 3976 110d 00       		.byte	0
 3977 110e 06       		.uleb128 0x6
 3978 110f 04       		.byte	0x4
 3979 1110 98100000 		.4byte	0x1098
 3980 1114 0D       		.uleb128 0xd
 3981 1115 01       		.byte	0x1
 3982 1116 04       		.byte	0x4
 3983 1117 DC07     		.2byte	0x7dc
 3984 1119 62120000 		.4byte	0x1262
 3985 111d 0B       		.uleb128 0xb
 3986 111e 9A190000 		.4byte	.LASF542
 3987 1122 00       		.sleb128 0
 3988 1123 0B       		.uleb128 0xb
 3989 1124 BA2B0000 		.4byte	.LASF543
 3990 1128 01       		.sleb128 1
 3991 1129 0B       		.uleb128 0xb
 3992 112a 14090000 		.4byte	.LASF544
 3993 112e 02       		.sleb128 2
 3994 112f 0B       		.uleb128 0xb
 3995 1130 9C070000 		.4byte	.LASF545
 3996 1134 03       		.sleb128 3
 3997 1135 0B       		.uleb128 0xb
 3998 1136 3A370000 		.4byte	.LASF546
 3999 113a 04       		.sleb128 4
 4000 113b 0B       		.uleb128 0xb
 4001 113c 920D0000 		.4byte	.LASF547
 4002 1140 05       		.sleb128 5
 4003 1141 0B       		.uleb128 0xb
 4004 1142 DA1F0000 		.4byte	.LASF548
ARM GAS  C:\Users\AHMED~1.ELE\AppData\Local\Temp\ccFUpfoi.s 			page 88


 4005 1146 06       		.sleb128 6
 4006 1147 0B       		.uleb128 0xb
 4007 1148 7B160000 		.4byte	.LASF549
 4008 114c 07       		.sleb128 7
 4009 114d 0B       		.uleb128 0xb
 4010 114e 360E0000 		.4byte	.LASF550
 4011 1152 08       		.sleb128 8
 4012 1153 0B       		.uleb128 0xb
 4013 1154 F8080000 		.4byte	.LASF551
 4014 1158 09       		.sleb128 9
 4015 1159 0B       		.uleb128 0xb
 4016 115a 70160000 		.4byte	.LASF552
 4017 115e 0A       		.sleb128 10
 4018 115f 0B       		.uleb128 0xb
 4019 1160 E50B0000 		.4byte	.LASF553
 4020 1164 0B       		.sleb128 11
 4021 1165 0B       		.uleb128 0xb
 4022 1166 5B1E0000 		.4byte	.LASF554
 4023 116a 0C       		.sleb128 12
 4024 116b 0B       		.uleb128 0xb
 4025 116c 7B010000 		.4byte	.LASF555
 4026 1170 0D       		.sleb128 13
 4027 1171 0B       		.uleb128 0xb
 4028 1172 EF080000 		.4byte	.LASF556
 4029 1176 0E       		.sleb128 14
 4030 1177 0B       		.uleb128 0xb
 4031 1178 9D1B0000 		.4byte	.LASF557
 4032 117c 0F       		.sleb128 15
 4033 117d 0B       		.uleb128 0xb
 4034 117e AD330000 		.4byte	.LASF558
 4035 1182 10       		.sleb128 16
 4036 1183 0B       		.uleb128 0xb
 4037 1184 69310000 		.4byte	.LASF559
 4038 1188 11       		.sleb128 17
 4039 1189 0B       		.uleb128 0xb
 4040 118a 992D0000 		.4byte	.LASF560
 4041 118e 12       		.sleb128 18
 4042 118f 0B       		.uleb128 0xb
 4043 1190 DC290000 		.4byte	.LASF561
 4044 1194 13       		.sleb128 19
 4045 1195 0B       		.uleb128 0xb
 4046 1196 41360000 		.4byte	.LASF562
 4047 119a 14       		.sleb128 20
 4048 119b 0B       		.uleb128 0xb
 4049 119c BE0E0000 		.4byte	.LASF563
 4050 11a0 15       		.sleb128 21
 4051 11a1 0B       		.uleb128 0xb
 4052 11a2 251D0000 		.4byte	.LASF564
 4053 11a6 16       		.sleb128 22
 4054 11a7 0B       		.uleb128 0xb
 4055 11a8 B5130000 		.4byte	.LASF565
 4056 11ac 17       		.sleb128 23
 4057 11ad 0B       		.uleb128 0xb
 4058 11ae FF1D0000 		.4byte	.LASF566
 4059 11b2 18       		.sleb128 24
 4060 11b3 0B       		.uleb128 0xb
 4061 11b4 4B190000 		.4byte	.LASF567
ARM GAS  C:\Users\AHMED~1.ELE\AppData\Local\Temp\ccFUpfoi.s 			page 89


 4062 11b8 19       		.sleb128 25
 4063 11b9 0B       		.uleb128 0xb
 4064 11ba 15070000 		.4byte	.LASF568
 4065 11be 1A       		.sleb128 26
 4066 11bf 0B       		.uleb128 0xb
 4067 11c0 B90D0000 		.4byte	.LASF569
 4068 11c4 1B       		.sleb128 27
 4069 11c5 0B       		.uleb128 0xb
 4070 11c6 29050000 		.4byte	.LASF570
 4071 11ca 1C       		.sleb128 28
 4072 11cb 0B       		.uleb128 0xb
 4073 11cc 6C330000 		.4byte	.LASF571
 4074 11d0 1D       		.sleb128 29
 4075 11d1 0B       		.uleb128 0xb
 4076 11d2 FD0E0000 		.4byte	.LASF572
 4077 11d6 1E       		.sleb128 30
 4078 11d7 0B       		.uleb128 0xb
 4079 11d8 E2160000 		.4byte	.LASF573
 4080 11dc 1F       		.sleb128 31
 4081 11dd 0B       		.uleb128 0xb
 4082 11de AE280000 		.4byte	.LASF574
 4083 11e2 20       		.sleb128 32
 4084 11e3 0B       		.uleb128 0xb
 4085 11e4 12370000 		.4byte	.LASF575
 4086 11e8 21       		.sleb128 33
 4087 11e9 0B       		.uleb128 0xb
 4088 11ea 791D0000 		.4byte	.LASF576
 4089 11ee 22       		.sleb128 34
 4090 11ef 0B       		.uleb128 0xb
 4091 11f0 43100000 		.4byte	.LASF577
 4092 11f4 23       		.sleb128 35
 4093 11f5 0B       		.uleb128 0xb
 4094 11f6 F2330000 		.4byte	.LASF578
 4095 11fa 24       		.sleb128 36
 4096 11fb 0B       		.uleb128 0xb
 4097 11fc 0D0D0000 		.4byte	.LASF579
 4098 1200 25       		.sleb128 37
 4099 1201 0B       		.uleb128 0xb
 4100 1202 D3010000 		.4byte	.LASF580
 4101 1206 26       		.sleb128 38
 4102 1207 0B       		.uleb128 0xb
 4103 1208 A9300000 		.4byte	.LASF581
 4104 120c 27       		.sleb128 39
 4105 120d 0B       		.uleb128 0xb
 4106 120e 86210000 		.4byte	.LASF582
 4107 1212 28       		.sleb128 40
 4108 1213 0B       		.uleb128 0xb
 4109 1214 B6250000 		.4byte	.LASF583
 4110 1218 29       		.sleb128 41
 4111 1219 0B       		.uleb128 0xb
 4112 121a 8E220000 		.4byte	.LASF584
 4113 121e 2A       		.sleb128 42
 4114 121f 0B       		.uleb128 0xb
 4115 1220 94110000 		.4byte	.LASF585
 4116 1224 2B       		.sleb128 43
 4117 1225 0B       		.uleb128 0xb
 4118 1226 532A0000 		.4byte	.LASF586
ARM GAS  C:\Users\AHMED~1.ELE\AppData\Local\Temp\ccFUpfoi.s 			page 90


 4119 122a 2C       		.sleb128 44
 4120 122b 0B       		.uleb128 0xb
 4121 122c 730B0000 		.4byte	.LASF587
 4122 1230 2D       		.sleb128 45
 4123 1231 0B       		.uleb128 0xb
 4124 1232 0D020000 		.4byte	.LASF588
 4125 1236 2E       		.sleb128 46
 4126 1237 0B       		.uleb128 0xb
 4127 1238 0C1B0000 		.4byte	.LASF589
 4128 123c 2F       		.sleb128 47
 4129 123d 0B       		.uleb128 0xb
 4130 123e C4200000 		.4byte	.LASF590
 4131 1242 30       		.sleb128 48
 4132 1243 0B       		.uleb128 0xb
 4133 1244 45170000 		.4byte	.LASF591
 4134 1248 31       		.sleb128 49
 4135 1249 0B       		.uleb128 0xb
 4136 124a B92A0000 		.4byte	.LASF592
 4137 124e 32       		.sleb128 50
 4138 124f 0B       		.uleb128 0xb
 4139 1250 1D040000 		.4byte	.LASF593
 4140 1254 33       		.sleb128 51
 4141 1255 0B       		.uleb128 0xb
 4142 1256 89320000 		.4byte	.LASF594
 4143 125a 34       		.sleb128 52
 4144 125b 0B       		.uleb128 0xb
 4145 125c C9280000 		.4byte	.LASF595
 4146 1260 35       		.sleb128 53
 4147 1261 00       		.byte	0
 4148 1262 10       		.uleb128 0x10
 4149 1263 0801     		.2byte	0x108
 4150 1265 06       		.byte	0x6
 4151 1266 B6       		.byte	0xb6
 4152 1267 90120000 		.4byte	0x1290
 4153 126b 11       		.uleb128 0x11
 4154 126c C6160000 		.4byte	.LASF596
 4155 1270 06       		.byte	0x6
 4156 1271 B7       		.byte	0xb7
 4157 1272 BD000000 		.4byte	0xbd
 4158 1276 00       		.byte	0
 4159 1277 11       		.uleb128 0x11
 4160 1278 33350000 		.4byte	.LASF597
 4161 127c 06       		.byte	0x6
 4162 127d B8       		.byte	0xb8
 4163 127e BD000000 		.4byte	0xbd
 4164 1282 04       		.byte	0x4
 4165 1283 12       		.uleb128 0x12
 4166 1284 4B657900 		.ascii	"Key\000"
 4167 1288 06       		.byte	0x6
 4168 1289 B9       		.byte	0xb9
 4169 128a 04010000 		.4byte	0x104
 4170 128e 08       		.byte	0x8
 4171 128f 00       		.byte	0
 4172 1290 03       		.uleb128 0x3
 4173 1291 E8130000 		.4byte	.LASF598
 4174 1295 06       		.byte	0x6
 4175 1296 BA       		.byte	0xba
ARM GAS  C:\Users\AHMED~1.ELE\AppData\Local\Temp\ccFUpfoi.s 			page 91


 4176 1297 62120000 		.4byte	0x1262
 4177 129b 10       		.uleb128 0x10
 4178 129c 1801     		.2byte	0x118
 4179 129e 06       		.byte	0x6
 4180 129f BC       		.byte	0xbc
 4181 12a0 F0120000 		.4byte	0x12f0
 4182 12a4 11       		.uleb128 0x11
 4183 12a5 642E0000 		.4byte	.LASF599
 4184 12a9 06       		.byte	0x6
 4185 12aa BD       		.byte	0xbd
 4186 12ab A7000000 		.4byte	0xa7
 4187 12af 00       		.byte	0
 4188 12b0 12       		.uleb128 0x12
 4189 12b1 52494400 		.ascii	"RID\000"
 4190 12b5 06       		.byte	0x6
 4191 12b6 BE       		.byte	0xbe
 4192 12b7 F0120000 		.4byte	0x12f0
 4193 12bb 01       		.byte	0x1
 4194 12bc 11       		.uleb128 0x11
 4195 12bd 13030000 		.4byte	.LASF600
 4196 12c1 06       		.byte	0x6
 4197 12c2 BF       		.byte	0xbf
 4198 12c3 90120000 		.4byte	0x1290
 4199 12c7 08       		.byte	0x8
 4200 12c8 13       		.uleb128 0x13
 4201 12c9 4D340000 		.4byte	.LASF601
 4202 12cd 06       		.byte	0x6
 4203 12ce C0       		.byte	0xc0
 4204 12cf B2000000 		.4byte	0xb2
 4205 12d3 1001     		.2byte	0x110
 4206 12d5 13       		.uleb128 0x13
 4207 12d6 2F370000 		.4byte	.LASF602
 4208 12da 06       		.byte	0x6
 4209 12db C1       		.byte	0xc1
 4210 12dc B2000000 		.4byte	0xb2
 4211 12e0 1201     		.2byte	0x112
 4212 12e2 13       		.uleb128 0x13
 4213 12e3 212A0000 		.4byte	.LASF603
 4214 12e7 06       		.byte	0x6
 4215 12e8 C2       		.byte	0xc2
 4216 12e9 B2000000 		.4byte	0xb2
 4217 12ed 1401     		.2byte	0x114
 4218 12ef 00       		.byte	0
 4219 12f0 07       		.uleb128 0x7
 4220 12f1 A7000000 		.4byte	0xa7
 4221 12f5 00130000 		.4byte	0x1300
 4222 12f9 08       		.uleb128 0x8
 4223 12fa 76000000 		.4byte	0x76
 4224 12fe 04       		.byte	0x4
 4225 12ff 00       		.byte	0
 4226 1300 03       		.uleb128 0x3
 4227 1301 0F380000 		.4byte	.LASF604
 4228 1305 06       		.byte	0x6
 4229 1306 C3       		.byte	0xc3
 4230 1307 9B120000 		.4byte	0x129b
 4231 130b 10       		.uleb128 0x10
 4232 130c 1702     		.2byte	0x217
ARM GAS  C:\Users\AHMED~1.ELE\AppData\Local\Temp\ccFUpfoi.s 			page 92


 4233 130e 06       		.byte	0x6
 4234 130f ED       		.byte	0xed
 4235 1310 81130000 		.4byte	0x1381
 4236 1314 11       		.uleb128 0x11
 4237 1315 45190000 		.4byte	.LASF605
 4238 1319 06       		.byte	0x6
 4239 131a EE       		.byte	0xee
 4240 131b A7000000 		.4byte	0xa7
 4241 131f 00       		.byte	0
 4242 1320 11       		.uleb128 0x11
 4243 1321 511E0000 		.4byte	.LASF606
 4244 1325 06       		.byte	0x6
 4245 1326 EF       		.byte	0xef
 4246 1327 A7000000 		.4byte	0xa7
 4247 132b 01       		.byte	0x1
 4248 132c 11       		.uleb128 0x11
 4249 132d 3B290000 		.4byte	.LASF607
 4250 1331 06       		.byte	0x6
 4251 1332 F0       		.byte	0xf0
 4252 1333 BD000000 		.4byte	0xbd
 4253 1337 02       		.byte	0x2
 4254 1338 11       		.uleb128 0x11
 4255 1339 C3370000 		.4byte	.LASF608
 4256 133d 06       		.byte	0x6
 4257 133e F1       		.byte	0xf1
 4258 133f A7000000 		.4byte	0xa7
 4259 1343 06       		.byte	0x6
 4260 1344 11       		.uleb128 0x11
 4261 1345 46320000 		.4byte	.LASF609
 4262 1349 06       		.byte	0x6
 4263 134a F2       		.byte	0xf2
 4264 134b A7000000 		.4byte	0xa7
 4265 134f 07       		.byte	0x7
 4266 1350 11       		.uleb128 0x11
 4267 1351 89110000 		.4byte	.LASF610
 4268 1355 06       		.byte	0x6
 4269 1356 F3       		.byte	0xf3
 4270 1357 F0120000 		.4byte	0x12f0
 4271 135b 08       		.byte	0x8
 4272 135c 11       		.uleb128 0x11
 4273 135d 08030000 		.4byte	.LASF611
 4274 1361 06       		.byte	0x6
 4275 1362 F4       		.byte	0xf4
 4276 1363 F0120000 		.4byte	0x12f0
 4277 1367 0D       		.byte	0xd
 4278 1368 11       		.uleb128 0x11
 4279 1369 1C280000 		.4byte	.LASF612
 4280 136d 06       		.byte	0x6
 4281 136e F5       		.byte	0xf5
 4282 136f F0120000 		.4byte	0x12f0
 4283 1373 12       		.byte	0x12
 4284 1374 11       		.uleb128 0x11
 4285 1375 79220000 		.4byte	.LASF613
 4286 1379 06       		.byte	0x6
 4287 137a F6       		.byte	0xf6
 4288 137b 81130000 		.4byte	0x1381
 4289 137f 17       		.byte	0x17
ARM GAS  C:\Users\AHMED~1.ELE\AppData\Local\Temp\ccFUpfoi.s 			page 93


 4290 1380 00       		.byte	0
 4291 1381 07       		.uleb128 0x7
 4292 1382 A7000000 		.4byte	0xa7
 4293 1386 92130000 		.4byte	0x1392
 4294 138a 14       		.uleb128 0x14
 4295 138b 76000000 		.4byte	0x76
 4296 138f FF01     		.2byte	0x1ff
 4297 1391 00       		.byte	0
 4298 1392 03       		.uleb128 0x3
 4299 1393 55040000 		.4byte	.LASF614
 4300 1397 06       		.byte	0x6
 4301 1398 F7       		.byte	0xf7
 4302 1399 0B130000 		.4byte	0x130b
 4303 139d 07       		.uleb128 0x7
 4304 139e A7000000 		.4byte	0xa7
 4305 13a2 AD130000 		.4byte	0x13ad
 4306 13a6 08       		.uleb128 0x8
 4307 13a7 76000000 		.4byte	0x76
 4308 13ab 02       		.byte	0x2
 4309 13ac 00       		.byte	0
 4310 13ad 15       		.uleb128 0x15
 4311 13ae CC020000 		.4byte	.LASF615
 4312 13b2 08       		.byte	0x8
 4313 13b3 07       		.byte	0x7
 4314 13b4 5C       		.byte	0x5c
 4315 13b5 0E140000 		.4byte	0x140e
 4316 13b9 11       		.uleb128 0x11
 4317 13ba F0270000 		.4byte	.LASF616
 4318 13be 07       		.byte	0x7
 4319 13bf 5D       		.byte	0x5d
 4320 13c0 A7000000 		.4byte	0xa7
 4321 13c4 00       		.byte	0
 4322 13c5 11       		.uleb128 0x11
 4323 13c6 5C360000 		.4byte	.LASF617
 4324 13ca 07       		.byte	0x7
 4325 13cb 5E       		.byte	0x5e
 4326 13cc A7000000 		.4byte	0xa7
 4327 13d0 01       		.byte	0x1
 4328 13d1 11       		.uleb128 0x11
 4329 13d2 C50C0000 		.4byte	.LASF618
 4330 13d6 07       		.byte	0x7
 4331 13d7 5F       		.byte	0x5f
 4332 13d8 A7000000 		.4byte	0xa7
 4333 13dc 02       		.byte	0x2
 4334 13dd 11       		.uleb128 0x11
 4335 13de 4C1E0000 		.4byte	.LASF619
 4336 13e2 07       		.byte	0x7
 4337 13e3 60       		.byte	0x60
 4338 13e4 A7000000 		.4byte	0xa7
 4339 13e8 03       		.byte	0x3
 4340 13e9 11       		.uleb128 0x11
 4341 13ea 1D010000 		.4byte	.LASF620
 4342 13ee 07       		.byte	0x7
 4343 13ef 61       		.byte	0x61
 4344 13f0 A7000000 		.4byte	0xa7
 4345 13f4 04       		.byte	0x4
 4346 13f5 11       		.uleb128 0x11
ARM GAS  C:\Users\AHMED~1.ELE\AppData\Local\Temp\ccFUpfoi.s 			page 94


 4347 13f6 EE1D0000 		.4byte	.LASF621
 4348 13fa 07       		.byte	0x7
 4349 13fb 62       		.byte	0x62
 4350 13fc A7000000 		.4byte	0xa7
 4351 1400 05       		.byte	0x5
 4352 1401 11       		.uleb128 0x11
 4353 1402 DC1D0000 		.4byte	.LASF622
 4354 1406 07       		.byte	0x7
 4355 1407 63       		.byte	0x63
 4356 1408 A7000000 		.4byte	0xa7
 4357 140c 06       		.byte	0x6
 4358 140d 00       		.byte	0
 4359 140e 15       		.uleb128 0x15
 4360 140f 6A2F0000 		.4byte	.LASF623
 4361 1413 20       		.byte	0x20
 4362 1414 08       		.byte	0x8
 4363 1415 2C       		.byte	0x2c
 4364 1416 3F140000 		.4byte	0x143f
 4365 141a 12       		.uleb128 0x12
 4366 141b 69494400 		.ascii	"iID\000"
 4367 141f 08       		.byte	0x8
 4368 1420 2D       		.byte	0x2d
 4369 1421 25000000 		.4byte	0x25
 4370 1425 00       		.byte	0
 4371 1426 11       		.uleb128 0x11
 4372 1427 A6330000 		.4byte	.LASF624
 4373 142b 08       		.byte	0x8
 4374 142c 2E       		.byte	0x2e
 4375 142d 7F000000 		.4byte	0x7f
 4376 1431 04       		.byte	0x4
 4377 1432 11       		.uleb128 0x11
 4378 1433 390D0000 		.4byte	.LASF625
 4379 1437 08       		.byte	0x8
 4380 1438 2F       		.byte	0x2f
 4381 1439 8C000000 		.4byte	0x8c
 4382 143d 08       		.byte	0x8
 4383 143e 00       		.byte	0
 4384 143f 15       		.uleb128 0x15
 4385 1440 272D0000 		.4byte	.LASF626
 4386 1444 1C       		.byte	0x1c
 4387 1445 08       		.byte	0x8
 4388 1446 32       		.byte	0x32
 4389 1447 64140000 		.4byte	0x1464
 4390 144b 11       		.uleb128 0x11
 4391 144c 7B360000 		.4byte	.LASF627
 4392 1450 08       		.byte	0x8
 4393 1451 34       		.byte	0x34
 4394 1452 64140000 		.4byte	0x1464
 4395 1456 00       		.byte	0
 4396 1457 11       		.uleb128 0x11
 4397 1458 B0290000 		.4byte	.LASF628
 4398 145c 08       		.byte	0x8
 4399 145d 35       		.byte	0x35
 4400 145e 74140000 		.4byte	0x1474
 4401 1462 18       		.byte	0x18
 4402 1463 00       		.byte	0
 4403 1464 07       		.uleb128 0x7
ARM GAS  C:\Users\AHMED~1.ELE\AppData\Local\Temp\ccFUpfoi.s 			page 95


 4404 1465 85000000 		.4byte	0x85
 4405 1469 74140000 		.4byte	0x1474
 4406 146d 08       		.uleb128 0x8
 4407 146e 76000000 		.4byte	0x76
 4408 1472 16       		.byte	0x16
 4409 1473 00       		.byte	0
 4410 1474 06       		.uleb128 0x6
 4411 1475 04       		.byte	0x4
 4412 1476 7A140000 		.4byte	0x147a
 4413 147a 09       		.uleb128 0x9
 4414 147b 0E140000 		.4byte	0x140e
 4415 147f 15       		.uleb128 0x15
 4416 1480 58000000 		.4byte	.LASF629
 4417 1484 5C       		.byte	0x5c
 4418 1485 09       		.byte	0x9
 4419 1486 EC       		.byte	0xec
 4420 1487 A4140000 		.4byte	0x14a4
 4421 148b 11       		.uleb128 0x11
 4422 148c 1C0F0000 		.4byte	.LASF630
 4423 1490 09       		.byte	0x9
 4424 1491 ED       		.byte	0xed
 4425 1492 A7000000 		.4byte	0xa7
 4426 1496 00       		.byte	0
 4427 1497 11       		.uleb128 0x11
 4428 1498 67180000 		.4byte	.LASF631
 4429 149c 09       		.byte	0x9
 4430 149d EE       		.byte	0xee
 4431 149e 760F0000 		.4byte	0xf76
 4432 14a2 04       		.byte	0x4
 4433 14a3 00       		.byte	0
 4434 14a4 15       		.uleb128 0x15
 4435 14a5 C5360000 		.4byte	.LASF632
 4436 14a9 18       		.byte	0x18
 4437 14aa 09       		.byte	0x9
 4438 14ab F1       		.byte	0xf1
 4439 14ac D5140000 		.4byte	0x14d5
 4440 14b0 11       		.uleb128 0x11
 4441 14b1 1C0F0000 		.4byte	.LASF630
 4442 14b5 09       		.byte	0x9
 4443 14b6 F2       		.byte	0xf2
 4444 14b7 A7000000 		.4byte	0xa7
 4445 14bb 00       		.byte	0
 4446 14bc 11       		.uleb128 0x11
 4447 14bd C7310000 		.4byte	.LASF633
 4448 14c1 09       		.byte	0x9
 4449 14c2 F3       		.byte	0xf3
 4450 14c3 A7000000 		.4byte	0xa7
 4451 14c7 01       		.byte	0x1
 4452 14c8 11       		.uleb128 0x11
 4453 14c9 05020000 		.4byte	.LASF634
 4454 14cd 09       		.byte	0x9
 4455 14ce F4       		.byte	0xf4
 4456 14cf E60E0000 		.4byte	0xee6
 4457 14d3 04       		.byte	0x4
 4458 14d4 00       		.byte	0
 4459 14d5 15       		.uleb128 0x15
 4460 14d6 65040000 		.4byte	.LASF635
ARM GAS  C:\Users\AHMED~1.ELE\AppData\Local\Temp\ccFUpfoi.s 			page 96


 4461 14da 0C       		.byte	0xc
 4462 14db 09       		.byte	0x9
 4463 14dc F7       		.byte	0xf7
 4464 14dd 06150000 		.4byte	0x1506
 4465 14e1 11       		.uleb128 0x11
 4466 14e2 1C0F0000 		.4byte	.LASF630
 4467 14e6 09       		.byte	0x9
 4468 14e7 F8       		.byte	0xf8
 4469 14e8 A7000000 		.4byte	0xa7
 4470 14ec 00       		.byte	0
 4471 14ed 11       		.uleb128 0x11
 4472 14ee 2F360000 		.4byte	.LASF636
 4473 14f2 09       		.byte	0x9
 4474 14f3 F9       		.byte	0xf9
 4475 14f4 A7000000 		.4byte	0xa7
 4476 14f8 01       		.byte	0x1
 4477 14f9 11       		.uleb128 0x11
 4478 14fa 62360000 		.4byte	.LASF637
 4479 14fe 09       		.byte	0x9
 4480 14ff FA       		.byte	0xfa
 4481 1500 7D0E0000 		.4byte	0xe7d
 4482 1504 04       		.byte	0x4
 4483 1505 00       		.byte	0
 4484 1506 16       		.uleb128 0x16
 4485 1507 01       		.byte	0x1
 4486 1508 09       		.byte	0x9
 4487 1509 FC       		.byte	0xfc
 4488 150a 21150000 		.4byte	0x1521
 4489 150e 0B       		.uleb128 0xb
 4490 150f A20E0000 		.4byte	.LASF638
 4491 1513 00       		.sleb128 0
 4492 1514 0B       		.uleb128 0xb
 4493 1515 B00D0000 		.4byte	.LASF639
 4494 1519 01       		.sleb128 1
 4495 151a 0B       		.uleb128 0xb
 4496 151b FE070000 		.4byte	.LASF640
 4497 151f 02       		.sleb128 2
 4498 1520 00       		.byte	0
 4499 1521 17       		.uleb128 0x17
 4500 1522 5D040000 		.4byte	.LASF641
 4501 1526 A401     		.2byte	0x1a4
 4502 1528 09       		.byte	0x9
 4503 1529 0201     		.2byte	0x102
 4504 152b D2150000 		.4byte	0x15d2
 4505 152f 0F       		.uleb128 0xf
 4506 1530 341C0000 		.4byte	.LASF642
 4507 1534 09       		.byte	0x9
 4508 1535 0301     		.2byte	0x103
 4509 1537 A7000000 		.4byte	0xa7
 4510 153b 00       		.byte	0
 4511 153c 0F       		.uleb128 0xf
 4512 153d D42C0000 		.4byte	.LASF643
 4513 1541 09       		.byte	0x9
 4514 1542 0401     		.2byte	0x104
 4515 1544 BD000000 		.4byte	0xbd
 4516 1548 04       		.byte	0x4
 4517 1549 0F       		.uleb128 0xf
ARM GAS  C:\Users\AHMED~1.ELE\AppData\Local\Temp\ccFUpfoi.s 			page 97


 4518 154a 90100000 		.4byte	.LASF644
 4519 154e 09       		.byte	0x9
 4520 154f 0501     		.2byte	0x105
 4521 1551 BD000000 		.4byte	0xbd
 4522 1555 08       		.byte	0x8
 4523 1556 0F       		.uleb128 0xf
 4524 1557 99220000 		.4byte	.LASF645
 4525 155b 09       		.byte	0x9
 4526 155c 0601     		.2byte	0x106
 4527 155e BD000000 		.4byte	0xbd
 4528 1562 0C       		.byte	0xc
 4529 1563 0F       		.uleb128 0xf
 4530 1564 FA2F0000 		.4byte	.LASF646
 4531 1568 09       		.byte	0x9
 4532 1569 0701     		.2byte	0x107
 4533 156b D2150000 		.4byte	0x15d2
 4534 156f 10       		.byte	0x10
 4535 1570 0F       		.uleb128 0xf
 4536 1571 961D0000 		.4byte	.LASF647
 4537 1575 09       		.byte	0x9
 4538 1576 0801     		.2byte	0x108
 4539 1578 D2150000 		.4byte	0x15d2
 4540 157c 90       		.byte	0x90
 4541 157d 18       		.uleb128 0x18
 4542 157e C1090000 		.4byte	.LASF648
 4543 1582 09       		.byte	0x9
 4544 1583 0901     		.2byte	0x109
 4545 1585 D2150000 		.4byte	0x15d2
 4546 1589 1001     		.2byte	0x110
 4547 158b 18       		.uleb128 0x18
 4548 158c AC240000 		.4byte	.LASF649
 4549 1590 09       		.byte	0x9
 4550 1591 0A01     		.2byte	0x10a
 4551 1593 0E110000 		.4byte	0x110e
 4552 1597 9001     		.2byte	0x190
 4553 1599 18       		.uleb128 0x18
 4554 159a A22D0000 		.4byte	.LASF650
 4555 159e 09       		.byte	0x9
 4556 159f 0B01     		.2byte	0x10b
 4557 15a1 BD000000 		.4byte	0xbd
 4558 15a5 9401     		.2byte	0x194
 4559 15a7 18       		.uleb128 0x18
 4560 15a8 7B170000 		.4byte	.LASF651
 4561 15ac 09       		.byte	0x9
 4562 15ad 0C01     		.2byte	0x10c
 4563 15af 0E110000 		.4byte	0x110e
 4564 15b3 9801     		.2byte	0x198
 4565 15b5 18       		.uleb128 0x18
 4566 15b6 E7370000 		.4byte	.LASF652
 4567 15ba 09       		.byte	0x9
 4568 15bb 0D01     		.2byte	0x10d
 4569 15bd BD000000 		.4byte	0xbd
 4570 15c1 9C01     		.2byte	0x19c
 4571 15c3 18       		.uleb128 0x18
 4572 15c4 742F0000 		.4byte	.LASF653
 4573 15c8 09       		.byte	0x9
 4574 15c9 0E01     		.2byte	0x10e
ARM GAS  C:\Users\AHMED~1.ELE\AppData\Local\Temp\ccFUpfoi.s 			page 98


 4575 15cb E2150000 		.4byte	0x15e2
 4576 15cf A001     		.2byte	0x1a0
 4577 15d1 00       		.byte	0
 4578 15d2 07       		.uleb128 0x7
 4579 15d3 85000000 		.4byte	0x85
 4580 15d7 E2150000 		.4byte	0x15e2
 4581 15db 08       		.uleb128 0x8
 4582 15dc 76000000 		.4byte	0x76
 4583 15e0 7F       		.byte	0x7f
 4584 15e1 00       		.byte	0
 4585 15e2 06       		.uleb128 0x6
 4586 15e3 04       		.byte	0x4
 4587 15e4 760F0000 		.4byte	0xf76
 4588 15e8 17       		.uleb128 0x17
 4589 15e9 5C030000 		.4byte	.LASF654
 4590 15ed 2C02     		.2byte	0x22c
 4591 15ef 09       		.byte	0x9
 4592 15f0 1101     		.2byte	0x111
 4593 15f2 6C160000 		.4byte	0x166c
 4594 15f6 0F       		.uleb128 0xf
 4595 15f7 110B0000 		.4byte	.LASF655
 4596 15fb 09       		.byte	0x9
 4597 15fc 1201     		.2byte	0x112
 4598 15fe B2000000 		.4byte	0xb2
 4599 1602 00       		.byte	0
 4600 1603 0F       		.uleb128 0xf
 4601 1604 7D0B0000 		.4byte	.LASF656
 4602 1608 09       		.byte	0x9
 4603 1609 1301     		.2byte	0x113
 4604 160b A7000000 		.4byte	0xa7
 4605 160f 02       		.byte	0x2
 4606 1610 0F       		.uleb128 0xf
 4607 1611 C7220000 		.4byte	.LASF657
 4608 1615 09       		.byte	0x9
 4609 1616 1401     		.2byte	0x114
 4610 1618 A7000000 		.4byte	0xa7
 4611 161c 03       		.byte	0x3
 4612 161d 0F       		.uleb128 0xf
 4613 161e A2280000 		.4byte	.LASF658
 4614 1622 09       		.byte	0x9
 4615 1623 1501     		.2byte	0x115
 4616 1625 A7000000 		.4byte	0xa7
 4617 1629 04       		.byte	0x4
 4618 162a 0F       		.uleb128 0xf
 4619 162b 411D0000 		.4byte	.LASF659
 4620 162f 09       		.byte	0x9
 4621 1630 1601     		.2byte	0x116
 4622 1632 A7000000 		.4byte	0xa7
 4623 1636 05       		.byte	0x5
 4624 1637 0F       		.uleb128 0xf
 4625 1638 9B130000 		.4byte	.LASF660
 4626 163c 09       		.byte	0x9
 4627 163d 1701     		.2byte	0x117
 4628 163f 7F140000 		.4byte	0x147f
 4629 1643 08       		.byte	0x8
 4630 1644 0F       		.uleb128 0xf
 4631 1645 16250000 		.4byte	.LASF661
ARM GAS  C:\Users\AHMED~1.ELE\AppData\Local\Temp\ccFUpfoi.s 			page 99


 4632 1649 09       		.byte	0x9
 4633 164a 1801     		.2byte	0x118
 4634 164c A4140000 		.4byte	0x14a4
 4635 1650 64       		.byte	0x64
 4636 1651 0F       		.uleb128 0xf
 4637 1652 2F1C0000 		.4byte	.LASF662
 4638 1656 09       		.byte	0x9
 4639 1657 1901     		.2byte	0x119
 4640 1659 D5140000 		.4byte	0x14d5
 4641 165d 7C       		.byte	0x7c
 4642 165e 0F       		.uleb128 0xf
 4643 165f DD0F0000 		.4byte	.LASF663
 4644 1663 09       		.byte	0x9
 4645 1664 1A01     		.2byte	0x11a
 4646 1666 21150000 		.4byte	0x1521
 4647 166a 88       		.byte	0x88
 4648 166b 00       		.byte	0
 4649 166c 17       		.uleb128 0x17
 4650 166d 9D1C0000 		.4byte	.LASF664
 4651 1671 040C     		.2byte	0xc04
 4652 1673 09       		.byte	0x9
 4653 1674 1E01     		.2byte	0x11e
 4654 1676 95160000 		.4byte	0x1695
 4655 167a 0F       		.uleb128 0xf
 4656 167b 110B0000 		.4byte	.LASF655
 4657 167f 09       		.byte	0x9
 4658 1680 1F01     		.2byte	0x11f
 4659 1682 B2000000 		.4byte	0xb2
 4660 1686 00       		.byte	0
 4661 1687 0F       		.uleb128 0xf
 4662 1688 E2320000 		.4byte	.LASF665
 4663 168c 09       		.byte	0x9
 4664 168d 2001     		.2byte	0x120
 4665 168f 95160000 		.4byte	0x1695
 4666 1693 02       		.byte	0x2
 4667 1694 00       		.byte	0
 4668 1695 07       		.uleb128 0x7
 4669 1696 A7000000 		.4byte	0xa7
 4670 169a A6160000 		.4byte	0x16a6
 4671 169e 14       		.uleb128 0x14
 4672 169f 76000000 		.4byte	0x76
 4673 16a3 FF0B     		.2byte	0xbff
 4674 16a5 00       		.byte	0
 4675 16a6 17       		.uleb128 0x17
 4676 16a7 6D080000 		.4byte	.LASF666
 4677 16ab 7001     		.2byte	0x170
 4678 16ad 09       		.byte	0x9
 4679 16ae 6401     		.2byte	0x164
 4680 16b0 C2190000 		.4byte	0x19c2
 4681 16b4 0F       		.uleb128 0xf
 4682 16b5 AB0E0000 		.4byte	.LASF667
 4683 16b9 09       		.byte	0x9
 4684 16ba 6501     		.2byte	0x165
 4685 16bc A7000000 		.4byte	0xa7
 4686 16c0 00       		.byte	0
 4687 16c1 0F       		.uleb128 0xf
 4688 16c2 95360000 		.4byte	.LASF668
ARM GAS  C:\Users\AHMED~1.ELE\AppData\Local\Temp\ccFUpfoi.s 			page 100


 4689 16c6 09       		.byte	0x9
 4690 16c7 6601     		.2byte	0x166
 4691 16c9 A7000000 		.4byte	0xa7
 4692 16cd 01       		.byte	0x1
 4693 16ce 0F       		.uleb128 0xf
 4694 16cf AA370000 		.4byte	.LASF669
 4695 16d3 09       		.byte	0x9
 4696 16d4 6701     		.2byte	0x167
 4697 16d6 C2190000 		.4byte	0x19c2
 4698 16da 02       		.byte	0x2
 4699 16db 0F       		.uleb128 0xf
 4700 16dc 4F2F0000 		.4byte	.LASF670
 4701 16e0 09       		.byte	0x9
 4702 16e1 6801     		.2byte	0x168
 4703 16e3 A7000000 		.4byte	0xa7
 4704 16e7 0B       		.byte	0xb
 4705 16e8 0F       		.uleb128 0xf
 4706 16e9 610A0000 		.4byte	.LASF671
 4707 16ed 09       		.byte	0x9
 4708 16ee 6901     		.2byte	0x169
 4709 16f0 D2190000 		.4byte	0x19d2
 4710 16f4 0C       		.byte	0xc
 4711 16f5 0F       		.uleb128 0xf
 4712 16f6 83010000 		.4byte	.LASF672
 4713 16fa 09       		.byte	0x9
 4714 16fb 6A01     		.2byte	0x16a
 4715 16fd A7000000 		.4byte	0xa7
 4716 1701 18       		.byte	0x18
 4717 1702 0F       		.uleb128 0xf
 4718 1703 6F1B0000 		.4byte	.LASF673
 4719 1707 09       		.byte	0x9
 4720 1708 6B01     		.2byte	0x16b
 4721 170a A7000000 		.4byte	0xa7
 4722 170e 19       		.byte	0x19
 4723 170f 0F       		.uleb128 0xf
 4724 1710 67130000 		.4byte	.LASF674
 4725 1714 09       		.byte	0x9
 4726 1715 6C01     		.2byte	0x16c
 4727 1717 D2190000 		.4byte	0x19d2
 4728 171b 1A       		.byte	0x1a
 4729 171c 0F       		.uleb128 0xf
 4730 171d BC140000 		.4byte	.LASF675
 4731 1721 09       		.byte	0x9
 4732 1722 6D01     		.2byte	0x16d
 4733 1724 A7000000 		.4byte	0xa7
 4734 1728 26       		.byte	0x26
 4735 1729 0F       		.uleb128 0xf
 4736 172a 97320000 		.4byte	.LASF676
 4737 172e 09       		.byte	0x9
 4738 172f 6E01     		.2byte	0x16e
 4739 1731 A7000000 		.4byte	0xa7
 4740 1735 27       		.byte	0x27
 4741 1736 0F       		.uleb128 0xf
 4742 1737 7B320000 		.4byte	.LASF677
 4743 173b 09       		.byte	0x9
 4744 173c 6F01     		.2byte	0x16f
 4745 173e A7000000 		.4byte	0xa7
ARM GAS  C:\Users\AHMED~1.ELE\AppData\Local\Temp\ccFUpfoi.s 			page 101


 4746 1742 28       		.byte	0x28
 4747 1743 0F       		.uleb128 0xf
 4748 1744 D6160000 		.4byte	.LASF678
 4749 1748 09       		.byte	0x9
 4750 1749 7001     		.2byte	0x170
 4751 174b A7000000 		.4byte	0xa7
 4752 174f 29       		.byte	0x29
 4753 1750 0F       		.uleb128 0xf
 4754 1751 090B0000 		.4byte	.LASF679
 4755 1755 09       		.byte	0x9
 4756 1756 7101     		.2byte	0x171
 4757 1758 F4000000 		.4byte	0xf4
 4758 175c 2A       		.byte	0x2a
 4759 175d 0F       		.uleb128 0xf
 4760 175e 940C0000 		.4byte	.LASF680
 4761 1762 09       		.byte	0x9
 4762 1763 7201     		.2byte	0x172
 4763 1765 9D130000 		.4byte	0x139d
 4764 1769 2E       		.byte	0x2e
 4765 176a 0F       		.uleb128 0xf
 4766 176b AC090000 		.4byte	.LASF681
 4767 176f 09       		.byte	0x9
 4768 1770 7301     		.2byte	0x173
 4769 1772 9D130000 		.4byte	0x139d
 4770 1776 31       		.byte	0x31
 4771 1777 0F       		.uleb128 0xf
 4772 1778 3D250000 		.4byte	.LASF682
 4773 177c 09       		.byte	0x9
 4774 177d 7401     		.2byte	0x174
 4775 177f F4000000 		.4byte	0xf4
 4776 1783 34       		.byte	0x34
 4777 1784 0F       		.uleb128 0xf
 4778 1785 140A0000 		.4byte	.LASF683
 4779 1789 09       		.byte	0x9
 4780 178a 7501     		.2byte	0x175
 4781 178c DE000000 		.4byte	0xde
 4782 1790 38       		.byte	0x38
 4783 1791 0F       		.uleb128 0xf
 4784 1792 001B0000 		.4byte	.LASF684
 4785 1796 09       		.byte	0x9
 4786 1797 7601     		.2byte	0x176
 4787 1799 DE000000 		.4byte	0xde
 4788 179d 3A       		.byte	0x3a
 4789 179e 0F       		.uleb128 0xf
 4790 179f 9F090000 		.4byte	.LASF685
 4791 17a3 09       		.byte	0x9
 4792 17a4 7701     		.2byte	0x177
 4793 17a6 A7000000 		.4byte	0xa7
 4794 17aa 3C       		.byte	0x3c
 4795 17ab 0F       		.uleb128 0xf
 4796 17ac FC1C0000 		.4byte	.LASF686
 4797 17b0 09       		.byte	0x9
 4798 17b1 7801     		.2byte	0x178
 4799 17b3 A7000000 		.4byte	0xa7
 4800 17b7 3D       		.byte	0x3d
 4801 17b8 0F       		.uleb128 0xf
 4802 17b9 6A360000 		.4byte	.LASF687
ARM GAS  C:\Users\AHMED~1.ELE\AppData\Local\Temp\ccFUpfoi.s 			page 102


 4803 17bd 09       		.byte	0x9
 4804 17be 7901     		.2byte	0x179
 4805 17c0 A7000000 		.4byte	0xa7
 4806 17c4 3E       		.byte	0x3e
 4807 17c5 0F       		.uleb128 0xf
 4808 17c6 49080000 		.4byte	.LASF688
 4809 17ca 09       		.byte	0x9
 4810 17cb 7A01     		.2byte	0x17a
 4811 17cd B2000000 		.4byte	0xb2
 4812 17d1 40       		.byte	0x40
 4813 17d2 0F       		.uleb128 0xf
 4814 17d3 60000000 		.4byte	.LASF689
 4815 17d7 09       		.byte	0x9
 4816 17d8 7B01     		.2byte	0x17b
 4817 17da B2000000 		.4byte	0xb2
 4818 17de 42       		.byte	0x42
 4819 17df 0F       		.uleb128 0xf
 4820 17e0 191B0000 		.4byte	.LASF690
 4821 17e4 09       		.byte	0x9
 4822 17e5 7C01     		.2byte	0x17c
 4823 17e7 C8000000 		.4byte	0xc8
 4824 17eb 48       		.byte	0x48
 4825 17ec 0F       		.uleb128 0xf
 4826 17ed BA320000 		.4byte	.LASF691
 4827 17f1 09       		.byte	0x9
 4828 17f2 7D01     		.2byte	0x17d
 4829 17f4 A7000000 		.4byte	0xa7
 4830 17f8 50       		.byte	0x50
 4831 17f9 0F       		.uleb128 0xf
 4832 17fa 3A230000 		.4byte	.LASF692
 4833 17fe 09       		.byte	0x9
 4834 17ff 7E01     		.2byte	0x17e
 4835 1801 A7000000 		.4byte	0xa7
 4836 1805 51       		.byte	0x51
 4837 1806 0F       		.uleb128 0xf
 4838 1807 6B070000 		.4byte	.LASF693
 4839 180b 09       		.byte	0x9
 4840 180c 8001     		.2byte	0x180
 4841 180e A7000000 		.4byte	0xa7
 4842 1812 52       		.byte	0x52
 4843 1813 0F       		.uleb128 0xf
 4844 1814 78210000 		.4byte	.LASF694
 4845 1818 09       		.byte	0x9
 4846 1819 8101     		.2byte	0x181
 4847 181b DE000000 		.4byte	0xde
 4848 181f 53       		.byte	0x53
 4849 1820 0F       		.uleb128 0xf
 4850 1821 540F0000 		.4byte	.LASF695
 4851 1825 09       		.byte	0x9
 4852 1826 8201     		.2byte	0x182
 4853 1828 F4000000 		.4byte	0xf4
 4854 182c 55       		.byte	0x55
 4855 182d 0F       		.uleb128 0xf
 4856 182e 27120000 		.4byte	.LASF696
 4857 1832 09       		.byte	0x9
 4858 1833 8301     		.2byte	0x183
 4859 1835 C8000000 		.4byte	0xc8
ARM GAS  C:\Users\AHMED~1.ELE\AppData\Local\Temp\ccFUpfoi.s 			page 103


 4860 1839 60       		.byte	0x60
 4861 183a 0F       		.uleb128 0xf
 4862 183b B5040000 		.4byte	.LASF697
 4863 183f 09       		.byte	0x9
 4864 1840 8401     		.2byte	0x184
 4865 1842 DE000000 		.4byte	0xde
 4866 1846 68       		.byte	0x68
 4867 1847 0F       		.uleb128 0xf
 4868 1848 CE0D0000 		.4byte	.LASF698
 4869 184c 09       		.byte	0x9
 4870 184d 8501     		.2byte	0x185
 4871 184f F4000000 		.4byte	0xf4
 4872 1853 6A       		.byte	0x6a
 4873 1854 0F       		.uleb128 0xf
 4874 1855 E2230000 		.4byte	.LASF699
 4875 1859 09       		.byte	0x9
 4876 185a 8601     		.2byte	0x186
 4877 185c C8000000 		.4byte	0xc8
 4878 1860 70       		.byte	0x70
 4879 1861 0F       		.uleb128 0xf
 4880 1862 B6210000 		.4byte	.LASF700
 4881 1866 09       		.byte	0x9
 4882 1867 8701     		.2byte	0x187
 4883 1869 DE000000 		.4byte	0xde
 4884 186d 78       		.byte	0x78
 4885 186e 0F       		.uleb128 0xf
 4886 186f 7E200000 		.4byte	.LASF701
 4887 1873 09       		.byte	0x9
 4888 1874 8801     		.2byte	0x188
 4889 1876 F4000000 		.4byte	0xf4
 4890 187a 7A       		.byte	0x7a
 4891 187b 0F       		.uleb128 0xf
 4892 187c 06350000 		.4byte	.LASF702
 4893 1880 09       		.byte	0x9
 4894 1881 8901     		.2byte	0x189
 4895 1883 C8000000 		.4byte	0xc8
 4896 1887 80       		.byte	0x80
 4897 1888 0F       		.uleb128 0xf
 4898 1889 A4190000 		.4byte	.LASF703
 4899 188d 09       		.byte	0x9
 4900 188e 8A01     		.2byte	0x18a
 4901 1890 DE000000 		.4byte	0xde
 4902 1894 88       		.byte	0x88
 4903 1895 0F       		.uleb128 0xf
 4904 1896 1E100000 		.4byte	.LASF704
 4905 189a 09       		.byte	0x9
 4906 189b 8B01     		.2byte	0x18b
 4907 189d F4000000 		.4byte	0xf4
 4908 18a1 8A       		.byte	0x8a
 4909 18a2 0F       		.uleb128 0xf
 4910 18a3 24260000 		.4byte	.LASF705
 4911 18a7 09       		.byte	0x9
 4912 18a8 8C01     		.2byte	0x18c
 4913 18aa C8000000 		.4byte	0xc8
 4914 18ae 90       		.byte	0x90
 4915 18af 0F       		.uleb128 0xf
 4916 18b0 05050000 		.4byte	.LASF706
ARM GAS  C:\Users\AHMED~1.ELE\AppData\Local\Temp\ccFUpfoi.s 			page 104


 4917 18b4 09       		.byte	0x9
 4918 18b5 8D01     		.2byte	0x18d
 4919 18b7 DE000000 		.4byte	0xde
 4920 18bb 98       		.byte	0x98
 4921 18bc 0F       		.uleb128 0xf
 4922 18bd C0130000 		.4byte	.LASF707
 4923 18c1 09       		.byte	0x9
 4924 18c2 8E01     		.2byte	0x18e
 4925 18c4 F4000000 		.4byte	0xf4
 4926 18c8 9A       		.byte	0x9a
 4927 18c9 0F       		.uleb128 0xf
 4928 18ca 331E0000 		.4byte	.LASF708
 4929 18ce 09       		.byte	0x9
 4930 18cf 8F01     		.2byte	0x18f
 4931 18d1 C8000000 		.4byte	0xc8
 4932 18d5 A0       		.byte	0xa0
 4933 18d6 0F       		.uleb128 0xf
 4934 18d7 17020000 		.4byte	.LASF709
 4935 18db 09       		.byte	0x9
 4936 18dc 9001     		.2byte	0x190
 4937 18de 24010000 		.4byte	0x124
 4938 18e2 A8       		.byte	0xa8
 4939 18e3 0F       		.uleb128 0xf
 4940 18e4 2D0F0000 		.4byte	.LASF710
 4941 18e8 09       		.byte	0x9
 4942 18e9 9101     		.2byte	0x191
 4943 18eb 24010000 		.4byte	0x124
 4944 18ef C8       		.byte	0xc8
 4945 18f0 0F       		.uleb128 0xf
 4946 18f1 F71E0000 		.4byte	.LASF711
 4947 18f5 09       		.byte	0x9
 4948 18f6 9201     		.2byte	0x192
 4949 18f8 24010000 		.4byte	0x124
 4950 18fc E8       		.byte	0xe8
 4951 18fd 18       		.uleb128 0x18
 4952 18fe 30110000 		.4byte	.LASF712
 4953 1902 09       		.byte	0x9
 4954 1903 9301     		.2byte	0x193
 4955 1905 24010000 		.4byte	0x124
 4956 1909 0801     		.2byte	0x108
 4957 190b 18       		.uleb128 0x18
 4958 190c 3C300000 		.4byte	.LASF713
 4959 1910 09       		.byte	0x9
 4960 1911 9401     		.2byte	0x194
 4961 1913 F4000000 		.4byte	0xf4
 4962 1917 2801     		.2byte	0x128
 4963 1919 18       		.uleb128 0x18
 4964 191a 52240000 		.4byte	.LASF714
 4965 191e 09       		.byte	0x9
 4966 191f 9501     		.2byte	0x195
 4967 1921 DE000000 		.4byte	0xde
 4968 1925 2C01     		.2byte	0x12c
 4969 1927 18       		.uleb128 0x18
 4970 1928 CF180000 		.4byte	.LASF715
 4971 192c 09       		.byte	0x9
 4972 192d 9601     		.2byte	0x196
 4973 192f E2190000 		.4byte	0x19e2
ARM GAS  C:\Users\AHMED~1.ELE\AppData\Local\Temp\ccFUpfoi.s 			page 105


 4974 1933 2E01     		.2byte	0x12e
 4975 1935 18       		.uleb128 0x18
 4976 1936 08230000 		.4byte	.LASF716
 4977 193a 09       		.byte	0x9
 4978 193b 9701     		.2byte	0x197
 4979 193d D2190000 		.4byte	0x19d2
 4980 1941 4701     		.2byte	0x147
 4981 1943 18       		.uleb128 0x18
 4982 1944 4F170000 		.4byte	.LASF717
 4983 1948 09       		.byte	0x9
 4984 1949 9801     		.2byte	0x198
 4985 194b A7000000 		.4byte	0xa7
 4986 194f 5301     		.2byte	0x153
 4987 1951 18       		.uleb128 0x18
 4988 1952 86130000 		.4byte	.LASF718
 4989 1956 09       		.byte	0x9
 4990 1957 9901     		.2byte	0x199
 4991 1959 A7000000 		.4byte	0xa7
 4992 195d 5401     		.2byte	0x154
 4993 195f 18       		.uleb128 0x18
 4994 1960 71140000 		.4byte	.LASF719
 4995 1964 09       		.byte	0x9
 4996 1965 9A01     		.2byte	0x19a
 4997 1967 D2190000 		.4byte	0x19d2
 4998 196b 5501     		.2byte	0x155
 4999 196d 18       		.uleb128 0x18
 5000 196e 302D0000 		.4byte	.LASF720
 5001 1972 09       		.byte	0x9
 5002 1973 9B01     		.2byte	0x19b
 5003 1975 A7000000 		.4byte	0xa7
 5004 1979 6101     		.2byte	0x161
 5005 197b 18       		.uleb128 0x18
 5006 197c 402C0000 		.4byte	.LASF721
 5007 1980 09       		.byte	0x9
 5008 1981 9C01     		.2byte	0x19c
 5009 1983 A7000000 		.4byte	0xa7
 5010 1987 6201     		.2byte	0x162
 5011 1989 18       		.uleb128 0x18
 5012 198a 0D010000 		.4byte	.LASF722
 5013 198e 09       		.byte	0x9
 5014 198f 9D01     		.2byte	0x19d
 5015 1991 A7000000 		.4byte	0xa7
 5016 1995 6301     		.2byte	0x163
 5017 1997 18       		.uleb128 0x18
 5018 1998 CF330000 		.4byte	.LASF723
 5019 199c 09       		.byte	0x9
 5020 199d 9E01     		.2byte	0x19e
 5021 199f B2000000 		.4byte	0xb2
 5022 19a3 6401     		.2byte	0x164
 5023 19a5 18       		.uleb128 0x18
 5024 19a6 83160000 		.4byte	.LASF724
 5025 19aa 09       		.byte	0x9
 5026 19ab 9F01     		.2byte	0x19f
 5027 19ad A7000000 		.4byte	0xa7
 5028 19b1 6601     		.2byte	0x166
 5029 19b3 18       		.uleb128 0x18
 5030 19b4 71350000 		.4byte	.LASF725
ARM GAS  C:\Users\AHMED~1.ELE\AppData\Local\Temp\ccFUpfoi.s 			page 106


 5031 19b8 09       		.byte	0x9
 5032 19b9 A101     		.2byte	0x1a1
 5033 19bb BD000000 		.4byte	0xbd
 5034 19bf 6801     		.2byte	0x168
 5035 19c1 00       		.byte	0
 5036 19c2 07       		.uleb128 0x7
 5037 19c3 A7000000 		.4byte	0xa7
 5038 19c7 D2190000 		.4byte	0x19d2
 5039 19cb 08       		.uleb128 0x8
 5040 19cc 76000000 		.4byte	0x76
 5041 19d0 08       		.byte	0x8
 5042 19d1 00       		.byte	0
 5043 19d2 07       		.uleb128 0x7
 5044 19d3 A7000000 		.4byte	0xa7
 5045 19d7 E2190000 		.4byte	0x19e2
 5046 19db 08       		.uleb128 0x8
 5047 19dc 76000000 		.4byte	0x76
 5048 19e0 0B       		.byte	0xb
 5049 19e1 00       		.byte	0
 5050 19e2 07       		.uleb128 0x7
 5051 19e3 A7000000 		.4byte	0xa7
 5052 19e7 F2190000 		.4byte	0x19f2
 5053 19eb 08       		.uleb128 0x8
 5054 19ec 76000000 		.4byte	0x76
 5055 19f0 18       		.byte	0x18
 5056 19f1 00       		.byte	0
 5057 19f2 17       		.uleb128 0x17
 5058 19f3 5C200000 		.4byte	.LASF726
 5059 19f7 8801     		.2byte	0x188
 5060 19f9 09       		.byte	0x9
 5061 19fa AC01     		.2byte	0x1ac
 5062 19fc 9A1B0000 		.4byte	0x1b9a
 5063 1a00 0F       		.uleb128 0xf
 5064 1a01 BD070000 		.4byte	.LASF727
 5065 1a05 09       		.byte	0x9
 5066 1a06 AD01     		.2byte	0x1ad
 5067 1a08 A7000000 		.4byte	0xa7
 5068 1a0c 00       		.byte	0
 5069 1a0d 0F       		.uleb128 0xf
 5070 1a0e 34180000 		.4byte	.LASF728
 5071 1a12 09       		.byte	0x9
 5072 1a13 AE01     		.2byte	0x1ae
 5073 1a15 A7000000 		.4byte	0xa7
 5074 1a19 01       		.byte	0x1
 5075 1a1a 0F       		.uleb128 0xf
 5076 1a1b A7120000 		.4byte	.LASF729
 5077 1a1f 09       		.byte	0x9
 5078 1a20 AF01     		.2byte	0x1af
 5079 1a22 A7000000 		.4byte	0xa7
 5080 1a26 02       		.byte	0x2
 5081 1a27 0F       		.uleb128 0xf
 5082 1a28 AF120000 		.4byte	.LASF730
 5083 1a2c 09       		.byte	0x9
 5084 1a2d B001     		.2byte	0x1b0
 5085 1a2f A7000000 		.4byte	0xa7
 5086 1a33 03       		.byte	0x3
 5087 1a34 0F       		.uleb128 0xf
ARM GAS  C:\Users\AHMED~1.ELE\AppData\Local\Temp\ccFUpfoi.s 			page 107


 5088 1a35 8E1F0000 		.4byte	.LASF731
 5089 1a39 09       		.byte	0x9
 5090 1a3a B101     		.2byte	0x1b1
 5091 1a3c 380E0000 		.4byte	0xe38
 5092 1a40 04       		.byte	0x4
 5093 1a41 0F       		.uleb128 0xf
 5094 1a42 430D0000 		.4byte	.LASF732
 5095 1a46 09       		.byte	0x9
 5096 1a47 B201     		.2byte	0x1b2
 5097 1a49 A7000000 		.4byte	0xa7
 5098 1a4d 0A       		.byte	0xa
 5099 1a4e 0F       		.uleb128 0xf
 5100 1a4f 70090000 		.4byte	.LASF733
 5101 1a53 09       		.byte	0x9
 5102 1a54 B301     		.2byte	0x1b3
 5103 1a56 DE000000 		.4byte	0xde
 5104 1a5a 0B       		.byte	0xb
 5105 1a5b 0F       		.uleb128 0xf
 5106 1a5c 00140000 		.4byte	.LASF734
 5107 1a60 09       		.byte	0x9
 5108 1a61 B401     		.2byte	0x1b4
 5109 1a63 D2190000 		.4byte	0x19d2
 5110 1a67 0D       		.byte	0xd
 5111 1a68 0F       		.uleb128 0xf
 5112 1a69 AF350000 		.4byte	.LASF735
 5113 1a6d 09       		.byte	0x9
 5114 1a6e B501     		.2byte	0x1b5
 5115 1a70 F4000000 		.4byte	0xf4
 5116 1a74 19       		.byte	0x19
 5117 1a75 0F       		.uleb128 0xf
 5118 1a76 D4310000 		.4byte	.LASF736
 5119 1a7a 09       		.byte	0x9
 5120 1a7b B601     		.2byte	0x1b6
 5121 1a7d 9A1B0000 		.4byte	0x1b9a
 5122 1a81 1D       		.byte	0x1d
 5123 1a82 0F       		.uleb128 0xf
 5124 1a83 79000000 		.4byte	.LASF737
 5125 1a87 09       		.byte	0x9
 5126 1a88 B701     		.2byte	0x1b7
 5127 1a8a AA1B0000 		.4byte	0x1baa
 5128 1a8e 4B       		.byte	0x4b
 5129 1a8f 0F       		.uleb128 0xf
 5130 1a90 83150000 		.4byte	.LASF738
 5131 1a94 09       		.byte	0x9
 5132 1a95 B801     		.2byte	0x1b8
 5133 1a97 A7000000 		.4byte	0xa7
 5134 1a9b 62       		.byte	0x62
 5135 1a9c 0F       		.uleb128 0xf
 5136 1a9d 23010000 		.4byte	.LASF739
 5137 1aa1 09       		.byte	0x9
 5138 1aa2 B901     		.2byte	0x1b9
 5139 1aa4 A7000000 		.4byte	0xa7
 5140 1aa8 63       		.byte	0x63
 5141 1aa9 0F       		.uleb128 0xf
 5142 1aaa 51380000 		.4byte	.LASF740
 5143 1aae 09       		.byte	0x9
 5144 1aaf BA01     		.2byte	0x1ba
ARM GAS  C:\Users\AHMED~1.ELE\AppData\Local\Temp\ccFUpfoi.s 			page 108


 5145 1ab1 A7000000 		.4byte	0xa7
 5146 1ab5 64       		.byte	0x64
 5147 1ab6 0F       		.uleb128 0xf
 5148 1ab7 B7120000 		.4byte	.LASF741
 5149 1abb 09       		.byte	0x9
 5150 1abc BB01     		.2byte	0x1bb
 5151 1abe A7000000 		.4byte	0xa7
 5152 1ac2 65       		.byte	0x65
 5153 1ac3 0F       		.uleb128 0xf
 5154 1ac4 800C0000 		.4byte	.LASF742
 5155 1ac8 09       		.byte	0x9
 5156 1ac9 BC01     		.2byte	0x1bc
 5157 1acb A7000000 		.4byte	0xa7
 5158 1acf 66       		.byte	0x66
 5159 1ad0 0F       		.uleb128 0xf
 5160 1ad1 ED180000 		.4byte	.LASF743
 5161 1ad5 09       		.byte	0x9
 5162 1ad6 BD01     		.2byte	0x1bd
 5163 1ad8 9D130000 		.4byte	0x139d
 5164 1adc 67       		.byte	0x67
 5165 1add 0F       		.uleb128 0xf
 5166 1ade 402F0000 		.4byte	.LASF744
 5167 1ae2 09       		.byte	0x9
 5168 1ae3 BE01     		.2byte	0x1be
 5169 1ae5 A7000000 		.4byte	0xa7
 5170 1ae9 6A       		.byte	0x6a
 5171 1aea 0F       		.uleb128 0xf
 5172 1aeb 6C0D0000 		.4byte	.LASF745
 5173 1aef 09       		.byte	0x9
 5174 1af0 BF01     		.2byte	0x1bf
 5175 1af2 54010000 		.4byte	0x154
 5176 1af6 6B       		.byte	0x6b
 5177 1af7 0F       		.uleb128 0xf
 5178 1af8 210F0000 		.4byte	.LASF746
 5179 1afc 09       		.byte	0x9
 5180 1afd C001     		.2byte	0x1c0
 5181 1aff BA1B0000 		.4byte	0x1bba
 5182 1b03 7F       		.byte	0x7f
 5183 1b04 0F       		.uleb128 0xf
 5184 1b05 940E0000 		.4byte	.LASF747
 5185 1b09 09       		.byte	0x9
 5186 1b0a C101     		.2byte	0x1c1
 5187 1b0c 34010000 		.4byte	0x134
 5188 1b10 9D       		.byte	0x9d
 5189 1b11 0F       		.uleb128 0xf
 5190 1b12 B81B0000 		.4byte	.LASF748
 5191 1b16 09       		.byte	0x9
 5192 1b17 C201     		.2byte	0x1c2
 5193 1b19 34010000 		.4byte	0x134
 5194 1b1d AD       		.byte	0xad
 5195 1b1e 0F       		.uleb128 0xf
 5196 1b1f 6E320000 		.4byte	.LASF749
 5197 1b23 09       		.byte	0x9
 5198 1b24 C301     		.2byte	0x1c3
 5199 1b26 24010000 		.4byte	0x124
 5200 1b2a BD       		.byte	0xbd
 5201 1b2b 0F       		.uleb128 0xf
ARM GAS  C:\Users\AHMED~1.ELE\AppData\Local\Temp\ccFUpfoi.s 			page 109


 5202 1b2c C41B0000 		.4byte	.LASF750
 5203 1b30 09       		.byte	0x9
 5204 1b31 C401     		.2byte	0x1c4
 5205 1b33 24010000 		.4byte	0x124
 5206 1b37 DD       		.byte	0xdd
 5207 1b38 0F       		.uleb128 0xf
 5208 1b39 0D340000 		.4byte	.LASF751
 5209 1b3d 09       		.byte	0x9
 5210 1b3e C501     		.2byte	0x1c5
 5211 1b40 24010000 		.4byte	0x124
 5212 1b44 FD       		.byte	0xfd
 5213 1b45 18       		.uleb128 0x18
 5214 1b46 15350000 		.4byte	.LASF752
 5215 1b4a 09       		.byte	0x9
 5216 1b4b C601     		.2byte	0x1c6
 5217 1b4d 24010000 		.4byte	0x124
 5218 1b51 1D01     		.2byte	0x11d
 5219 1b53 18       		.uleb128 0x18
 5220 1b54 562B0000 		.4byte	.LASF753
 5221 1b58 09       		.byte	0x9
 5222 1b59 C701     		.2byte	0x1c7
 5223 1b5b 24010000 		.4byte	0x124
 5224 1b5f 3D01     		.2byte	0x13d
 5225 1b61 18       		.uleb128 0x18
 5226 1b62 482D0000 		.4byte	.LASF754
 5227 1b66 09       		.byte	0x9
 5228 1b67 C801     		.2byte	0x1c8
 5229 1b69 24010000 		.4byte	0x124
 5230 1b6d 5D01     		.2byte	0x15d
 5231 1b6f 18       		.uleb128 0x18
 5232 1b70 28280000 		.4byte	.LASF755
 5233 1b74 09       		.byte	0x9
 5234 1b75 C901     		.2byte	0x1c9
 5235 1b77 F4000000 		.4byte	0xf4
 5236 1b7b 7D01     		.2byte	0x17d
 5237 1b7d 18       		.uleb128 0x18
 5238 1b7e 6F000000 		.4byte	.LASF756
 5239 1b82 09       		.byte	0x9
 5240 1b83 CA01     		.2byte	0x1ca
 5241 1b85 DE000000 		.4byte	0xde
 5242 1b89 8101     		.2byte	0x181
 5243 1b8b 18       		.uleb128 0x18
 5244 1b8c 71350000 		.4byte	.LASF725
 5245 1b90 09       		.byte	0x9
 5246 1b91 CB01     		.2byte	0x1cb
 5247 1b93 B2000000 		.4byte	0xb2
 5248 1b97 8401     		.2byte	0x184
 5249 1b99 00       		.byte	0
 5250 1b9a 07       		.uleb128 0x7
 5251 1b9b A7000000 		.4byte	0xa7
 5252 1b9f AA1B0000 		.4byte	0x1baa
 5253 1ba3 08       		.uleb128 0x8
 5254 1ba4 76000000 		.4byte	0x76
 5255 1ba8 2D       		.byte	0x2d
 5256 1ba9 00       		.byte	0
 5257 1baa 07       		.uleb128 0x7
 5258 1bab A7000000 		.4byte	0xa7
ARM GAS  C:\Users\AHMED~1.ELE\AppData\Local\Temp\ccFUpfoi.s 			page 110


 5259 1baf BA1B0000 		.4byte	0x1bba
 5260 1bb3 08       		.uleb128 0x8
 5261 1bb4 76000000 		.4byte	0x76
 5262 1bb8 16       		.byte	0x16
 5263 1bb9 00       		.byte	0
 5264 1bba 07       		.uleb128 0x7
 5265 1bbb A7000000 		.4byte	0xa7
 5266 1bbf CA1B0000 		.4byte	0x1bca
 5267 1bc3 08       		.uleb128 0x8
 5268 1bc4 76000000 		.4byte	0x76
 5269 1bc8 1D       		.byte	0x1d
 5270 1bc9 00       		.byte	0
 5271 1bca 0E       		.uleb128 0xe
 5272 1bcb DF210000 		.4byte	.LASF757
 5273 1bcf 24       		.byte	0x24
 5274 1bd0 09       		.byte	0x9
 5275 1bd1 CE01     		.2byte	0x1ce
 5276 1bd3 331C0000 		.4byte	0x1c33
 5277 1bd7 0F       		.uleb128 0xf
 5278 1bd8 9F0D0000 		.4byte	.LASF758
 5279 1bdc 09       		.byte	0x9
 5280 1bdd CF01     		.2byte	0x1cf
 5281 1bdf F0120000 		.4byte	0x12f0
 5282 1be3 00       		.byte	0
 5283 1be4 0F       		.uleb128 0xf
 5284 1be5 8B1C0000 		.4byte	.LASF759
 5285 1be9 09       		.byte	0x9
 5286 1bea D001     		.2byte	0x1d0
 5287 1bec F0120000 		.4byte	0x12f0
 5288 1bf0 05       		.byte	0x5
 5289 1bf1 0F       		.uleb128 0xf
 5290 1bf2 BA1A0000 		.4byte	.LASF760
 5291 1bf6 09       		.byte	0x9
 5292 1bf7 D101     		.2byte	0x1d1
 5293 1bf9 A7000000 		.4byte	0xa7
 5294 1bfd 0A       		.byte	0xa
 5295 1bfe 0F       		.uleb128 0xf
 5296 1bff AB050000 		.4byte	.LASF761
 5297 1c03 09       		.byte	0x9
 5298 1c04 D201     		.2byte	0x1d2
 5299 1c06 A7000000 		.4byte	0xa7
 5300 1c0a 0B       		.byte	0xb
 5301 1c0b 0F       		.uleb128 0xf
 5302 1c0c 532D0000 		.4byte	.LASF762
 5303 1c10 09       		.byte	0x9
 5304 1c11 D301     		.2byte	0x1d3
 5305 1c13 A7000000 		.4byte	0xa7
 5306 1c17 0C       		.byte	0xc
 5307 1c18 0F       		.uleb128 0xf
 5308 1c19 210F0000 		.4byte	.LASF746
 5309 1c1d 09       		.byte	0x9
 5310 1c1e D401     		.2byte	0x1d4
 5311 1c20 54010000 		.4byte	0x154
 5312 1c24 0D       		.byte	0xd
 5313 1c25 0F       		.uleb128 0xf
 5314 1c26 71350000 		.4byte	.LASF725
 5315 1c2a 09       		.byte	0x9
ARM GAS  C:\Users\AHMED~1.ELE\AppData\Local\Temp\ccFUpfoi.s 			page 111


 5316 1c2b D501     		.2byte	0x1d5
 5317 1c2d B2000000 		.4byte	0xb2
 5318 1c31 22       		.byte	0x22
 5319 1c32 00       		.byte	0
 5320 1c33 0E       		.uleb128 0xe
 5321 1c34 C3070000 		.4byte	.LASF763
 5322 1c38 38       		.byte	0x38
 5323 1c39 09       		.byte	0x9
 5324 1c3a D801     		.2byte	0x1d8
 5325 1c3c B61C0000 		.4byte	0x1cb6
 5326 1c40 0F       		.uleb128 0xf
 5327 1c41 C00C0000 		.4byte	.LASF764
 5328 1c45 09       		.byte	0x9
 5329 1c46 D901     		.2byte	0x1d9
 5330 1c48 A7000000 		.4byte	0xa7
 5331 1c4c 00       		.byte	0
 5332 1c4d 0F       		.uleb128 0xf
 5333 1c4e F6260000 		.4byte	.LASF765
 5334 1c52 09       		.byte	0x9
 5335 1c53 DA01     		.2byte	0x1da
 5336 1c55 14010000 		.4byte	0x114
 5337 1c59 01       		.byte	0x1
 5338 1c5a 0F       		.uleb128 0xf
 5339 1c5b 87090000 		.4byte	.LASF766
 5340 1c5f 09       		.byte	0x9
 5341 1c60 DB01     		.2byte	0x1db
 5342 1c62 D2190000 		.4byte	0x19d2
 5343 1c66 0B       		.byte	0xb
 5344 1c67 0F       		.uleb128 0xf
 5345 1c68 AF350000 		.4byte	.LASF735
 5346 1c6c 09       		.byte	0x9
 5347 1c6d DC01     		.2byte	0x1dc
 5348 1c6f F4000000 		.4byte	0xf4
 5349 1c73 17       		.byte	0x17
 5350 1c74 0F       		.uleb128 0xf
 5351 1c75 D2100000 		.4byte	.LASF767
 5352 1c79 09       		.byte	0x9
 5353 1c7a DD01     		.2byte	0x1dd
 5354 1c7c A7000000 		.4byte	0xa7
 5355 1c80 1B       		.byte	0x1b
 5356 1c81 0F       		.uleb128 0xf
 5357 1c82 2B000000 		.4byte	.LASF768
 5358 1c86 09       		.byte	0x9
 5359 1c87 DE01     		.2byte	0x1de
 5360 1c89 DE000000 		.4byte	0xde
 5361 1c8d 1C       		.byte	0x1c
 5362 1c8e 0F       		.uleb128 0xf
 5363 1c8f 03370000 		.4byte	.LASF769
 5364 1c93 09       		.byte	0x9
 5365 1c94 DF01     		.2byte	0x1df
 5366 1c96 DE000000 		.4byte	0xde
 5367 1c9a 1E       		.byte	0x1e
 5368 1c9b 0F       		.uleb128 0xf
 5369 1c9c 210F0000 		.4byte	.LASF746
 5370 1ca0 09       		.byte	0x9
 5371 1ca1 E001     		.2byte	0x1e0
 5372 1ca3 54010000 		.4byte	0x154
ARM GAS  C:\Users\AHMED~1.ELE\AppData\Local\Temp\ccFUpfoi.s 			page 112


 5373 1ca7 20       		.byte	0x20
 5374 1ca8 0F       		.uleb128 0xf
 5375 1ca9 71350000 		.4byte	.LASF725
 5376 1cad 09       		.byte	0x9
 5377 1cae E101     		.2byte	0x1e1
 5378 1cb0 B2000000 		.4byte	0xb2
 5379 1cb4 34       		.byte	0x34
 5380 1cb5 00       		.byte	0
 5381 1cb6 0E       		.uleb128 0xe
 5382 1cb7 33200000 		.4byte	.LASF770
 5383 1cbb AC       		.byte	0xac
 5384 1cbc 09       		.byte	0x9
 5385 1cbd EC01     		.2byte	0x1ec
 5386 1cbf 7E1E0000 		.4byte	0x1e7e
 5387 1cc3 0F       		.uleb128 0xf
 5388 1cc4 C00C0000 		.4byte	.LASF764
 5389 1cc8 09       		.byte	0x9
 5390 1cc9 ED01     		.2byte	0x1ed
 5391 1ccb A7000000 		.4byte	0xa7
 5392 1ccf 00       		.byte	0
 5393 1cd0 0F       		.uleb128 0xf
 5394 1cd1 E9170000 		.4byte	.LASF771
 5395 1cd5 09       		.byte	0x9
 5396 1cd6 EE01     		.2byte	0x1ee
 5397 1cd8 14010000 		.4byte	0x114
 5398 1cdc 01       		.byte	0x1
 5399 1cdd 0F       		.uleb128 0xf
 5400 1cde B4170000 		.4byte	.LASF772
 5401 1ce2 09       		.byte	0x9
 5402 1ce3 EF01     		.2byte	0x1ef
 5403 1ce5 14010000 		.4byte	0x114
 5404 1ce9 0B       		.byte	0xb
 5405 1cea 0F       		.uleb128 0xf
 5406 1ceb D7280000 		.4byte	.LASF773
 5407 1cef 09       		.byte	0x9
 5408 1cf0 F001     		.2byte	0x1f0
 5409 1cf2 D2190000 		.4byte	0x19d2
 5410 1cf6 15       		.byte	0x15
 5411 1cf7 0F       		.uleb128 0xf
 5412 1cf8 73110000 		.4byte	.LASF774
 5413 1cfc 09       		.byte	0x9
 5414 1cfd F101     		.2byte	0x1f1
 5415 1cff A7000000 		.4byte	0xa7
 5416 1d03 21       		.byte	0x21
 5417 1d04 0F       		.uleb128 0xf
 5418 1d05 09210000 		.4byte	.LASF775
 5419 1d09 09       		.byte	0x9
 5420 1d0a F201     		.2byte	0x1f2
 5421 1d0c A7000000 		.4byte	0xa7
 5422 1d10 22       		.byte	0x22
 5423 1d11 0F       		.uleb128 0xf
 5424 1d12 D11B0000 		.4byte	.LASF776
 5425 1d16 09       		.byte	0x9
 5426 1d17 F301     		.2byte	0x1f3
 5427 1d19 D2190000 		.4byte	0x19d2
 5428 1d1d 23       		.byte	0x23
 5429 1d1e 0F       		.uleb128 0xf
ARM GAS  C:\Users\AHMED~1.ELE\AppData\Local\Temp\ccFUpfoi.s 			page 113


 5430 1d1f D60C0000 		.4byte	.LASF777
 5431 1d23 09       		.byte	0x9
 5432 1d24 F401     		.2byte	0x1f4
 5433 1d26 A7000000 		.4byte	0xa7
 5434 1d2a 2F       		.byte	0x2f
 5435 1d2b 0F       		.uleb128 0xf
 5436 1d2c 232C0000 		.4byte	.LASF778
 5437 1d30 09       		.byte	0x9
 5438 1d31 F501     		.2byte	0x1f5
 5439 1d33 A7000000 		.4byte	0xa7
 5440 1d37 30       		.byte	0x30
 5441 1d38 0F       		.uleb128 0xf
 5442 1d39 CB300000 		.4byte	.LASF779
 5443 1d3d 09       		.byte	0x9
 5444 1d3e F601     		.2byte	0x1f6
 5445 1d40 D2190000 		.4byte	0x19d2
 5446 1d44 31       		.byte	0x31
 5447 1d45 0F       		.uleb128 0xf
 5448 1d46 03270000 		.4byte	.LASF780
 5449 1d4a 09       		.byte	0x9
 5450 1d4b F701     		.2byte	0x1f7
 5451 1d4d A7000000 		.4byte	0xa7
 5452 1d51 3D       		.byte	0x3d
 5453 1d52 0F       		.uleb128 0xf
 5454 1d53 B8340000 		.4byte	.LASF781
 5455 1d57 09       		.byte	0x9
 5456 1d58 F801     		.2byte	0x1f8
 5457 1d5a A7000000 		.4byte	0xa7
 5458 1d5e 3E       		.byte	0x3e
 5459 1d5f 0F       		.uleb128 0xf
 5460 1d60 62300000 		.4byte	.LASF782
 5461 1d64 09       		.byte	0x9
 5462 1d65 F901     		.2byte	0x1f9
 5463 1d67 D2190000 		.4byte	0x19d2
 5464 1d6b 3F       		.byte	0x3f
 5465 1d6c 0F       		.uleb128 0xf
 5466 1d6d E20F0000 		.4byte	.LASF783
 5467 1d71 09       		.byte	0x9
 5468 1d72 FA01     		.2byte	0x1fa
 5469 1d74 A7000000 		.4byte	0xa7
 5470 1d78 4B       		.byte	0x4b
 5471 1d79 0F       		.uleb128 0xf
 5472 1d7a 77290000 		.4byte	.LASF784
 5473 1d7e 09       		.byte	0x9
 5474 1d7f FB01     		.2byte	0x1fb
 5475 1d81 A7000000 		.4byte	0xa7
 5476 1d85 4C       		.byte	0x4c
 5477 1d86 0F       		.uleb128 0xf
 5478 1d87 250E0000 		.4byte	.LASF785
 5479 1d8b 09       		.byte	0x9
 5480 1d8c FC01     		.2byte	0x1fc
 5481 1d8e A7000000 		.4byte	0xa7
 5482 1d92 4D       		.byte	0x4d
 5483 1d93 0F       		.uleb128 0xf
 5484 1d94 AF350000 		.4byte	.LASF735
 5485 1d98 09       		.byte	0x9
 5486 1d99 FD01     		.2byte	0x1fd
ARM GAS  C:\Users\AHMED~1.ELE\AppData\Local\Temp\ccFUpfoi.s 			page 114


 5487 1d9b F4000000 		.4byte	0xf4
 5488 1d9f 4E       		.byte	0x4e
 5489 1da0 0F       		.uleb128 0xf
 5490 1da1 F9220000 		.4byte	.LASF786
 5491 1da5 09       		.byte	0x9
 5492 1da6 FE01     		.2byte	0x1fe
 5493 1da8 DE000000 		.4byte	0xde
 5494 1dac 52       		.byte	0x52
 5495 1dad 0F       		.uleb128 0xf
 5496 1dae AA370000 		.4byte	.LASF669
 5497 1db2 09       		.byte	0x9
 5498 1db3 FF01     		.2byte	0x1ff
 5499 1db5 44010000 		.4byte	0x144
 5500 1db9 54       		.byte	0x54
 5501 1dba 0F       		.uleb128 0xf
 5502 1dbb 0E040000 		.4byte	.LASF787
 5503 1dbf 09       		.byte	0x9
 5504 1dc0 0002     		.2byte	0x200
 5505 1dc2 7E1E0000 		.4byte	0x1e7e
 5506 1dc6 5C       		.byte	0x5c
 5507 1dc7 0F       		.uleb128 0xf
 5508 1dc8 DC2C0000 		.4byte	.LASF788
 5509 1dcc 09       		.byte	0x9
 5510 1dcd 0102     		.2byte	0x201
 5511 1dcf A7000000 		.4byte	0xa7
 5512 1dd3 6B       		.byte	0x6b
 5513 1dd4 0F       		.uleb128 0xf
 5514 1dd5 0A220000 		.4byte	.LASF789
 5515 1dd9 09       		.byte	0x9
 5516 1dda 0202     		.2byte	0x202
 5517 1ddc 9D130000 		.4byte	0x139d
 5518 1de0 6C       		.byte	0x6c
 5519 1de1 0F       		.uleb128 0xf
 5520 1de2 DE040000 		.4byte	.LASF790
 5521 1de6 09       		.byte	0x9
 5522 1de7 0302     		.2byte	0x203
 5523 1de9 9D130000 		.4byte	0x139d
 5524 1ded 6F       		.byte	0x6f
 5525 1dee 0F       		.uleb128 0xf
 5526 1def FC000000 		.4byte	.LASF791
 5527 1df3 09       		.byte	0x9
 5528 1df4 0402     		.2byte	0x204
 5529 1df6 AA1B0000 		.4byte	0x1baa
 5530 1dfa 72       		.byte	0x72
 5531 1dfb 0F       		.uleb128 0xf
 5532 1dfc 902A0000 		.4byte	.LASF792
 5533 1e00 09       		.byte	0x9
 5534 1e01 0502     		.2byte	0x205
 5535 1e03 A7000000 		.4byte	0xa7
 5536 1e07 89       		.byte	0x89
 5537 1e08 0F       		.uleb128 0xf
 5538 1e09 210F0000 		.4byte	.LASF746
 5539 1e0d 09       		.byte	0x9
 5540 1e0e 0602     		.2byte	0x206
 5541 1e10 8E1E0000 		.4byte	0x1e8e
 5542 1e14 8A       		.byte	0x8a
 5543 1e15 0F       		.uleb128 0xf
ARM GAS  C:\Users\AHMED~1.ELE\AppData\Local\Temp\ccFUpfoi.s 			page 115


 5544 1e16 CF0A0000 		.4byte	.LASF793
 5545 1e1a 09       		.byte	0x9
 5546 1e1b 0702     		.2byte	0x207
 5547 1e1d A7000000 		.4byte	0xa7
 5548 1e21 9F       		.byte	0x9f
 5549 1e22 0F       		.uleb128 0xf
 5550 1e23 F6200000 		.4byte	.LASF794
 5551 1e27 09       		.byte	0x9
 5552 1e28 0802     		.2byte	0x208
 5553 1e2a A7000000 		.4byte	0xa7
 5554 1e2e A0       		.byte	0xa0
 5555 1e2f 0F       		.uleb128 0xf
 5556 1e30 1C150000 		.4byte	.LASF795
 5557 1e34 09       		.byte	0x9
 5558 1e35 0902     		.2byte	0x209
 5559 1e37 A7000000 		.4byte	0xa7
 5560 1e3b A1       		.byte	0xa1
 5561 1e3c 0F       		.uleb128 0xf
 5562 1e3d 3D250000 		.4byte	.LASF682
 5563 1e41 09       		.byte	0x9
 5564 1e42 0A02     		.2byte	0x20a
 5565 1e44 F4000000 		.4byte	0xf4
 5566 1e48 A2       		.byte	0xa2
 5567 1e49 0F       		.uleb128 0xf
 5568 1e4a 140A0000 		.4byte	.LASF683
 5569 1e4e 09       		.byte	0x9
 5570 1e4f 0B02     		.2byte	0x20b
 5571 1e51 DE000000 		.4byte	0xde
 5572 1e55 A6       		.byte	0xa6
 5573 1e56 0F       		.uleb128 0xf
 5574 1e57 9D000000 		.4byte	.LASF796
 5575 1e5b 09       		.byte	0x9
 5576 1e5c 0C02     		.2byte	0x20c
 5577 1e5e A7000000 		.4byte	0xa7
 5578 1e62 A8       		.byte	0xa8
 5579 1e63 0F       		.uleb128 0xf
 5580 1e64 9D010000 		.4byte	.LASF797
 5581 1e68 09       		.byte	0x9
 5582 1e69 0D02     		.2byte	0x20d
 5583 1e6b A7000000 		.4byte	0xa7
 5584 1e6f A9       		.byte	0xa9
 5585 1e70 0F       		.uleb128 0xf
 5586 1e71 71350000 		.4byte	.LASF725
 5587 1e75 09       		.byte	0x9
 5588 1e76 0E02     		.2byte	0x20e
 5589 1e78 B2000000 		.4byte	0xb2
 5590 1e7c AA       		.byte	0xaa
 5591 1e7d 00       		.byte	0
 5592 1e7e 07       		.uleb128 0x7
 5593 1e7f A7000000 		.4byte	0xa7
 5594 1e83 8E1E0000 		.4byte	0x1e8e
 5595 1e87 08       		.uleb128 0x8
 5596 1e88 76000000 		.4byte	0x76
 5597 1e8c 0E       		.byte	0xe
 5598 1e8d 00       		.byte	0
 5599 1e8e 07       		.uleb128 0x7
 5600 1e8f A7000000 		.4byte	0xa7
ARM GAS  C:\Users\AHMED~1.ELE\AppData\Local\Temp\ccFUpfoi.s 			page 116


 5601 1e93 9E1E0000 		.4byte	0x1e9e
 5602 1e97 08       		.uleb128 0x8
 5603 1e98 76000000 		.4byte	0x76
 5604 1e9c 14       		.byte	0x14
 5605 1e9d 00       		.byte	0
 5606 1e9e 0E       		.uleb128 0xe
 5607 1e9f F61D0000 		.4byte	.LASF798
 5608 1ea3 1C       		.byte	0x1c
 5609 1ea4 09       		.byte	0x9
 5610 1ea5 1102     		.2byte	0x211
 5611 1ea7 E01E0000 		.4byte	0x1ee0
 5612 1eab 0F       		.uleb128 0xf
 5613 1eac CA120000 		.4byte	.LASF799
 5614 1eb0 09       		.byte	0x9
 5615 1eb1 1202     		.2byte	0x212
 5616 1eb3 A7000000 		.4byte	0xa7
 5617 1eb7 00       		.byte	0
 5618 1eb8 0F       		.uleb128 0xf
 5619 1eb9 A5360000 		.4byte	.LASF800
 5620 1ebd 09       		.byte	0x9
 5621 1ebe 1302     		.2byte	0x213
 5622 1ec0 DE000000 		.4byte	0xde
 5623 1ec4 01       		.byte	0x1
 5624 1ec5 0F       		.uleb128 0xf
 5625 1ec6 44160000 		.4byte	.LASF801
 5626 1eca 09       		.byte	0x9
 5627 1ecb 1402     		.2byte	0x214
 5628 1ecd 54010000 		.4byte	0x154
 5629 1ed1 03       		.byte	0x3
 5630 1ed2 0F       		.uleb128 0xf
 5631 1ed3 71350000 		.4byte	.LASF725
 5632 1ed7 09       		.byte	0x9
 5633 1ed8 1502     		.2byte	0x215
 5634 1eda B2000000 		.4byte	0xb2
 5635 1ede 18       		.byte	0x18
 5636 1edf 00       		.byte	0
 5637 1ee0 17       		.uleb128 0x17
 5638 1ee1 770C0000 		.4byte	.LASF802
 5639 1ee5 8401     		.2byte	0x184
 5640 1ee7 09       		.byte	0x9
 5641 1ee8 1802     		.2byte	0x218
 5642 1eea 241F0000 		.4byte	0x1f24
 5643 1eee 0F       		.uleb128 0xf
 5644 1eef C52C0000 		.4byte	.LASF803
 5645 1ef3 09       		.byte	0x9
 5646 1ef4 1902     		.2byte	0x219
 5647 1ef6 A7000000 		.4byte	0xa7
 5648 1efa 00       		.byte	0
 5649 1efb 0F       		.uleb128 0xf
 5650 1efc 3F010000 		.4byte	.LASF804
 5651 1f00 09       		.byte	0x9
 5652 1f01 1A02     		.2byte	0x21a
 5653 1f03 A7000000 		.4byte	0xa7
 5654 1f07 01       		.byte	0x1
 5655 1f08 0F       		.uleb128 0xf
 5656 1f09 D52F0000 		.4byte	.LASF805
 5657 1f0d 09       		.byte	0x9
ARM GAS  C:\Users\AHMED~1.ELE\AppData\Local\Temp\ccFUpfoi.s 			page 117


 5658 1f0e 1B02     		.2byte	0x21b
 5659 1f10 241F0000 		.4byte	0x1f24
 5660 1f14 02       		.byte	0x2
 5661 1f15 18       		.uleb128 0x18
 5662 1f16 71350000 		.4byte	.LASF725
 5663 1f1a 09       		.byte	0x9
 5664 1f1b 1C02     		.2byte	0x21c
 5665 1f1d B2000000 		.4byte	0xb2
 5666 1f21 8201     		.2byte	0x182
 5667 1f23 00       		.byte	0
 5668 1f24 07       		.uleb128 0x7
 5669 1f25 A7000000 		.4byte	0xa7
 5670 1f29 351F0000 		.4byte	0x1f35
 5671 1f2d 14       		.uleb128 0x14
 5672 1f2e 76000000 		.4byte	0x76
 5673 1f32 7F01     		.2byte	0x17f
 5674 1f34 00       		.byte	0
 5675 1f35 0E       		.uleb128 0xe
 5676 1f36 87020000 		.4byte	.LASF806
 5677 1f3a 1C       		.byte	0x1c
 5678 1f3b 09       		.byte	0x9
 5679 1f3c 1F02     		.2byte	0x21f
 5680 1f3e 911F0000 		.4byte	0x1f91
 5681 1f42 0F       		.uleb128 0xf
 5682 1f43 7A310000 		.4byte	.LASF807
 5683 1f47 09       		.byte	0x9
 5684 1f48 2002     		.2byte	0x220
 5685 1f4a A7000000 		.4byte	0xa7
 5686 1f4e 00       		.byte	0
 5687 1f4f 0F       		.uleb128 0xf
 5688 1f50 95350000 		.4byte	.LASF808
 5689 1f54 09       		.byte	0x9
 5690 1f55 2102     		.2byte	0x221
 5691 1f57 A7000000 		.4byte	0xa7
 5692 1f5b 01       		.byte	0x1
 5693 1f5c 0F       		.uleb128 0xf
 5694 1f5d 2D1E0000 		.4byte	.LASF495
 5695 1f61 09       		.byte	0x9
 5696 1f62 2202     		.2byte	0x222
 5697 1f64 A7000000 		.4byte	0xa7
 5698 1f68 02       		.byte	0x2
 5699 1f69 0F       		.uleb128 0xf
 5700 1f6a CD350000 		.4byte	.LASF809
 5701 1f6e 09       		.byte	0x9
 5702 1f6f 2302     		.2byte	0x223
 5703 1f71 A7000000 		.4byte	0xa7
 5704 1f75 03       		.byte	0x3
 5705 1f76 0F       		.uleb128 0xf
 5706 1f77 E6060000 		.4byte	.LASF810
 5707 1f7b 09       		.byte	0x9
 5708 1f7c 2402     		.2byte	0x224
 5709 1f7e 54010000 		.4byte	0x154
 5710 1f82 04       		.byte	0x4
 5711 1f83 0F       		.uleb128 0xf
 5712 1f84 71350000 		.4byte	.LASF725
 5713 1f88 09       		.byte	0x9
 5714 1f89 2502     		.2byte	0x225
ARM GAS  C:\Users\AHMED~1.ELE\AppData\Local\Temp\ccFUpfoi.s 			page 118


 5715 1f8b B2000000 		.4byte	0xb2
 5716 1f8f 18       		.byte	0x18
 5717 1f90 00       		.byte	0
 5718 1f91 15       		.uleb128 0x15
 5719 1f92 D6360000 		.4byte	.LASF811
 5720 1f96 10       		.byte	0x10
 5721 1f97 0A       		.byte	0xa
 5722 1f98 38       		.byte	0x38
 5723 1f99 E61F0000 		.4byte	0x1fe6
 5724 1f9d 11       		.uleb128 0x11
 5725 1f9e 5E240000 		.4byte	.LASF812
 5726 1fa2 0A       		.byte	0xa
 5727 1fa3 39       		.byte	0x39
 5728 1fa4 A7000000 		.4byte	0xa7
 5729 1fa8 00       		.byte	0
 5730 1fa9 11       		.uleb128 0x11
 5731 1faa E9100000 		.4byte	.LASF813
 5732 1fae 0A       		.byte	0xa
 5733 1faf 3A       		.byte	0x3a
 5734 1fb0 A7000000 		.4byte	0xa7
 5735 1fb4 01       		.byte	0x1
 5736 1fb5 11       		.uleb128 0x11
 5737 1fb6 3B070000 		.4byte	.LASF814
 5738 1fba 0A       		.byte	0xa
 5739 1fbb 3B       		.byte	0x3b
 5740 1fbc A7000000 		.4byte	0xa7
 5741 1fc0 02       		.byte	0x2
 5742 1fc1 11       		.uleb128 0x11
 5743 1fc2 F9220000 		.4byte	.LASF786
 5744 1fc6 0A       		.byte	0xa
 5745 1fc7 3C       		.byte	0x3c
 5746 1fc8 DE000000 		.4byte	0xde
 5747 1fcc 03       		.byte	0x3
 5748 1fcd 11       		.uleb128 0x11
 5749 1fce 940C0000 		.4byte	.LASF680
 5750 1fd2 0A       		.byte	0xa
 5751 1fd3 3D       		.byte	0x3d
 5752 1fd4 9D130000 		.4byte	0x139d
 5753 1fd8 05       		.byte	0x5
 5754 1fd9 11       		.uleb128 0x11
 5755 1fda AA370000 		.4byte	.LASF669
 5756 1fde 0A       		.byte	0xa
 5757 1fdf 3E       		.byte	0x3e
 5758 1fe0 44010000 		.4byte	0x144
 5759 1fe4 08       		.byte	0x8
 5760 1fe5 00       		.byte	0
 5761 1fe6 15       		.uleb128 0x15
 5762 1fe7 67160000 		.4byte	.LASF815
 5763 1feb 64       		.byte	0x64
 5764 1fec 0A       		.byte	0xa
 5765 1fed 41       		.byte	0x41
 5766 1fee 5F200000 		.4byte	0x205f
 5767 1ff2 11       		.uleb128 0x11
 5768 1ff3 5E240000 		.4byte	.LASF812
 5769 1ff7 0A       		.byte	0xa
 5770 1ff8 42       		.byte	0x42
 5771 1ff9 A7000000 		.4byte	0xa7
ARM GAS  C:\Users\AHMED~1.ELE\AppData\Local\Temp\ccFUpfoi.s 			page 119


 5772 1ffd 00       		.byte	0
 5773 1ffe 11       		.uleb128 0x11
 5774 1fff 940C0000 		.4byte	.LASF680
 5775 2003 0A       		.byte	0xa
 5776 2004 43       		.byte	0x43
 5777 2005 9D130000 		.4byte	0x139d
 5778 2009 01       		.byte	0x1
 5779 200a 11       		.uleb128 0x11
 5780 200b CC010000 		.4byte	.LASF816
 5781 200f 0A       		.byte	0xa
 5782 2010 44       		.byte	0x44
 5783 2011 A7000000 		.4byte	0xa7
 5784 2015 04       		.byte	0x4
 5785 2016 11       		.uleb128 0x11
 5786 2017 5A140000 		.4byte	.LASF817
 5787 201b 0A       		.byte	0xa
 5788 201c 45       		.byte	0x45
 5789 201d DE000000 		.4byte	0xde
 5790 2021 05       		.byte	0x5
 5791 2022 11       		.uleb128 0x11
 5792 2023 AD2D0000 		.4byte	.LASF818
 5793 2027 0A       		.byte	0xa
 5794 2028 46       		.byte	0x46
 5795 2029 9D130000 		.4byte	0x139d
 5796 202d 07       		.byte	0x7
 5797 202e 11       		.uleb128 0x11
 5798 202f 4F1F0000 		.4byte	.LASF819
 5799 2033 0A       		.byte	0xa
 5800 2034 47       		.byte	0x47
 5801 2035 380E0000 		.4byte	0xe38
 5802 2039 0A       		.byte	0xa
 5803 203a 11       		.uleb128 0x11
 5804 203b 35040000 		.4byte	.LASF820
 5805 203f 0A       		.byte	0xa
 5806 2040 48       		.byte	0x48
 5807 2041 D2190000 		.4byte	0x19d2
 5808 2045 10       		.byte	0x10
 5809 2046 11       		.uleb128 0x11
 5810 2047 44160000 		.4byte	.LASF801
 5811 204b 0A       		.byte	0xa
 5812 204c 49       		.byte	0x49
 5813 204d 5F200000 		.4byte	0x205f
 5814 2051 1C       		.byte	0x1c
 5815 2052 11       		.uleb128 0x11
 5816 2053 D02B0000 		.4byte	.LASF821
 5817 2057 0A       		.byte	0xa
 5818 2058 4A       		.byte	0x4a
 5819 2059 B2000000 		.4byte	0xb2
 5820 205d 62       		.byte	0x62
 5821 205e 00       		.byte	0
 5822 205f 07       		.uleb128 0x7
 5823 2060 A7000000 		.4byte	0xa7
 5824 2064 6F200000 		.4byte	0x206f
 5825 2068 08       		.uleb128 0x8
 5826 2069 76000000 		.4byte	0x76
 5827 206d 45       		.byte	0x45
 5828 206e 00       		.byte	0
ARM GAS  C:\Users\AHMED~1.ELE\AppData\Local\Temp\ccFUpfoi.s 			page 120


 5829 206f 15       		.uleb128 0x15
 5830 2070 1C0A0000 		.4byte	.LASF822
 5831 2074 78       		.byte	0x78
 5832 2075 0A       		.byte	0xa
 5833 2076 53       		.byte	0x53
 5834 2077 A0200000 		.4byte	0x20a0
 5835 207b 11       		.uleb128 0x11
 5836 207c B5330000 		.4byte	.LASF823
 5837 2080 0A       		.byte	0xa
 5838 2081 54       		.byte	0x54
 5839 2082 A7000000 		.4byte	0xa7
 5840 2086 00       		.byte	0
 5841 2087 11       		.uleb128 0x11
 5842 2088 B12A0000 		.4byte	.LASF824
 5843 208c 0A       		.byte	0xa
 5844 208d 55       		.byte	0x55
 5845 208e 911F0000 		.4byte	0x1f91
 5846 2092 04       		.byte	0x4
 5847 2093 11       		.uleb128 0x11
 5848 2094 40200000 		.4byte	.LASF825
 5849 2098 0A       		.byte	0xa
 5850 2099 56       		.byte	0x56
 5851 209a E61F0000 		.4byte	0x1fe6
 5852 209e 14       		.byte	0x14
 5853 209f 00       		.byte	0
 5854 20a0 15       		.uleb128 0x15
 5855 20a1 13130000 		.4byte	.LASF826
 5856 20a5 0C       		.byte	0xc
 5857 20a6 0B       		.byte	0xb
 5858 20a7 37       		.byte	0x37
 5859 20a8 D1200000 		.4byte	0x20d1
 5860 20ac 11       		.uleb128 0x11
 5861 20ad 7C090000 		.4byte	.LASF827
 5862 20b1 0B       		.byte	0xb
 5863 20b2 38       		.byte	0x38
 5864 20b3 B2000000 		.4byte	0xb2
 5865 20b7 00       		.byte	0
 5866 20b8 11       		.uleb128 0x11
 5867 20b9 082D0000 		.4byte	.LASF828
 5868 20bd 0B       		.byte	0xb
 5869 20be 39       		.byte	0x39
 5870 20bf 44010000 		.4byte	0x144
 5871 20c3 02       		.byte	0x2
 5872 20c4 11       		.uleb128 0x11
 5873 20c5 EC1F0000 		.4byte	.LASF829
 5874 20c9 0B       		.byte	0xb
 5875 20ca 3A       		.byte	0x3a
 5876 20cb A7000000 		.4byte	0xa7
 5877 20cf 0A       		.byte	0xa
 5878 20d0 00       		.byte	0
 5879 20d1 15       		.uleb128 0x15
 5880 20d2 78250000 		.4byte	.LASF830
 5881 20d6 08       		.byte	0x8
 5882 20d7 01       		.byte	0x1
 5883 20d8 3C       		.byte	0x3c
 5884 20d9 F6200000 		.4byte	0x20f6
 5885 20dd 11       		.uleb128 0x11
ARM GAS  C:\Users\AHMED~1.ELE\AppData\Local\Temp\ccFUpfoi.s 			page 121


 5886 20de CE2D0000 		.4byte	.LASF831
 5887 20e2 01       		.byte	0x1
 5888 20e3 3D       		.byte	0x3d
 5889 20e4 9D130000 		.4byte	0x139d
 5890 20e8 00       		.byte	0
 5891 20e9 11       		.uleb128 0x11
 5892 20ea 0C140000 		.4byte	.LASF832
 5893 20ee 01       		.byte	0x1
 5894 20ef 3E       		.byte	0x3e
 5895 20f0 9D130000 		.4byte	0x139d
 5896 20f4 03       		.byte	0x3
 5897 20f5 00       		.byte	0
 5898 20f6 19       		.uleb128 0x19
 5899 20f7 790A0000 		.4byte	.LASF941
 5900 20fb 01       		.byte	0x1
 5901 20fc 5F       		.byte	0x5f
 5902 20fd 00000000 		.4byte	.LFB0
 5903 2101 98010000 		.4byte	.LFE0-.LFB0
 5904 2105 01       		.uleb128 0x1
 5905 2106 9C       		.byte	0x9c
 5906 2107 32230000 		.4byte	0x2332
 5907 210b 1A       		.uleb128 0x1a
 5908 210c 382F0000 		.4byte	.LASF942
 5909 2110 01       		.byte	0x1
 5910 2111 61       		.byte	0x61
 5911 2112 A7000000 		.4byte	0xa7
 5912 2116 1B       		.uleb128 0x1b
 5913 2117 1C1C0000 		.4byte	.LASF833
 5914 211b 01       		.byte	0x1
 5915 211c 62       		.byte	0x62
 5916 211d 44010000 		.4byte	0x144
 5917 2121 00000000 		.4byte	.LLST0
 5918 2125 1B       		.uleb128 0x1b
 5919 2126 D8040000 		.4byte	.LASF834
 5920 212a 01       		.byte	0x1
 5921 212b 63       		.byte	0x63
 5922 212c EE000000 		.4byte	0xee
 5923 2130 AF000000 		.4byte	.LLST1
 5924 2134 1B       		.uleb128 0x1b
 5925 2135 6B340000 		.4byte	.LASF835
 5926 2139 01       		.byte	0x1
 5927 213a 64       		.byte	0x64
 5928 213b EE000000 		.4byte	0xee
 5929 213f E5000000 		.4byte	.LLST2
 5930 2143 1B       		.uleb128 0x1b
 5931 2144 972B0000 		.4byte	.LASF836
 5932 2148 01       		.byte	0x1
 5933 2149 65       		.byte	0x65
 5934 214a A7000000 		.4byte	0xa7
 5935 214e F8000000 		.4byte	.LLST3
 5936 2152 1B       		.uleb128 0x1b
 5937 2153 02210000 		.4byte	.LASF837
 5938 2157 01       		.byte	0x1
 5939 2158 66       		.byte	0x66
 5940 2159 B2000000 		.4byte	0xb2
 5941 215d 0B010000 		.4byte	.LLST4
 5942 2161 1C       		.uleb128 0x1c
ARM GAS  C:\Users\AHMED~1.ELE\AppData\Local\Temp\ccFUpfoi.s 			page 122


 5943 2162 14000000 		.4byte	.LVL1
 5944 2166 BC310000 		.4byte	0x31bc
 5945 216a 76210000 		.4byte	0x2176
 5946 216e 1D       		.uleb128 0x1d
 5947 216f 01       		.uleb128 0x1
 5948 2170 51       		.byte	0x51
 5949 2171 03       		.uleb128 0x3
 5950 2172 0A       		.byte	0xa
 5951 2173 000C     		.2byte	0xc00
 5952 2175 00       		.byte	0
 5953 2176 1C       		.uleb128 0x1c
 5954 2177 2E000000 		.4byte	.LVL2
 5955 217b D6310000 		.4byte	0x31d6
 5956 217f 89210000 		.4byte	0x2189
 5957 2183 1D       		.uleb128 0x1d
 5958 2184 01       		.uleb128 0x1
 5959 2185 50       		.byte	0x50
 5960 2186 01       		.uleb128 0x1
 5961 2187 32       		.byte	0x32
 5962 2188 00       		.byte	0
 5963 2189 1C       		.uleb128 0x1c
 5964 218a 3A000000 		.4byte	.LVL3
 5965 218e EB310000 		.4byte	0x31eb
 5966 2192 9C210000 		.4byte	0x219c
 5967 2196 1D       		.uleb128 0x1d
 5968 2197 01       		.uleb128 0x1
 5969 2198 50       		.byte	0x50
 5970 2199 01       		.uleb128 0x1
 5971 219a 32       		.byte	0x32
 5972 219b 00       		.byte	0
 5973 219c 1C       		.uleb128 0x1c
 5974 219d 40000000 		.4byte	.LVL4
 5975 21a1 EB310000 		.4byte	0x31eb
 5976 21a5 AF210000 		.4byte	0x21af
 5977 21a9 1D       		.uleb128 0x1d
 5978 21aa 01       		.uleb128 0x1
 5979 21ab 50       		.byte	0x50
 5980 21ac 01       		.uleb128 0x1
 5981 21ad 30       		.byte	0x30
 5982 21ae 00       		.byte	0
 5983 21af 1C       		.uleb128 0x1c
 5984 21b0 46000000 		.4byte	.LVL5
 5985 21b4 EB310000 		.4byte	0x31eb
 5986 21b8 C2210000 		.4byte	0x21c2
 5987 21bc 1D       		.uleb128 0x1d
 5988 21bd 01       		.uleb128 0x1
 5989 21be 50       		.byte	0x50
 5990 21bf 01       		.uleb128 0x1
 5991 21c0 30       		.byte	0x30
 5992 21c1 00       		.byte	0
 5993 21c2 1E       		.uleb128 0x1e
 5994 21c3 4A000000 		.4byte	.LVL6
 5995 21c7 00320000 		.4byte	0x3200
 5996 21cb 1C       		.uleb128 0x1c
 5997 21cc 54000000 		.4byte	.LVL9
 5998 21d0 EB310000 		.4byte	0x31eb
 5999 21d4 DF210000 		.4byte	0x21df
ARM GAS  C:\Users\AHMED~1.ELE\AppData\Local\Temp\ccFUpfoi.s 			page 123


 6000 21d8 1D       		.uleb128 0x1d
 6001 21d9 01       		.uleb128 0x1
 6002 21da 50       		.byte	0x50
 6003 21db 02       		.uleb128 0x2
 6004 21dc 08       		.byte	0x8
 6005 21dd 60       		.byte	0x60
 6006 21de 00       		.byte	0
 6007 21df 1C       		.uleb128 0x1c
 6008 21e0 5C000000 		.4byte	.LVL10
 6009 21e4 0B320000 		.4byte	0x320b
 6010 21e8 F2210000 		.4byte	0x21f2
 6011 21ec 1D       		.uleb128 0x1d
 6012 21ed 01       		.uleb128 0x1
 6013 21ee 51       		.byte	0x51
 6014 21ef 01       		.uleb128 0x1
 6015 21f0 32       		.byte	0x32
 6016 21f1 00       		.byte	0
 6017 21f2 1C       		.uleb128 0x1c
 6018 21f3 62000000 		.4byte	.LVL11
 6019 21f7 21320000 		.4byte	0x3221
 6020 21fb 05220000 		.4byte	0x2205
 6021 21ff 1D       		.uleb128 0x1d
 6022 2200 01       		.uleb128 0x1
 6023 2201 50       		.byte	0x50
 6024 2202 01       		.uleb128 0x1
 6025 2203 32       		.byte	0x32
 6026 2204 00       		.byte	0
 6027 2205 1C       		.uleb128 0x1c
 6028 2206 7C000000 		.4byte	.LVL13
 6029 220a 32320000 		.4byte	0x3232
 6030 220e 1F220000 		.4byte	0x221f
 6031 2212 1D       		.uleb128 0x1d
 6032 2213 01       		.uleb128 0x1
 6033 2214 50       		.byte	0x50
 6034 2215 08       		.uleb128 0x8
 6035 2216 79       		.byte	0x79
 6036 2217 00       		.sleb128 0
 6037 2218 94       		.byte	0x94
 6038 2219 02       		.byte	0x2
 6039 221a 0A       		.byte	0xa
 6040 221b FFFF     		.2byte	0xffff
 6041 221d 1A       		.byte	0x1a
 6042 221e 00       		.byte	0
 6043 221f 1C       		.uleb128 0x1c
 6044 2220 84000000 		.4byte	.LVL14
 6045 2224 0B320000 		.4byte	0x320b
 6046 2228 38220000 		.4byte	0x2238
 6047 222c 1D       		.uleb128 0x1d
 6048 222d 01       		.uleb128 0x1
 6049 222e 51       		.byte	0x51
 6050 222f 01       		.uleb128 0x1
 6051 2230 38       		.byte	0x38
 6052 2231 1D       		.uleb128 0x1d
 6053 2232 01       		.uleb128 0x1
 6054 2233 50       		.byte	0x50
 6055 2234 02       		.uleb128 0x2
 6056 2235 78       		.byte	0x78
ARM GAS  C:\Users\AHMED~1.ELE\AppData\Local\Temp\ccFUpfoi.s 			page 124


 6057 2236 00       		.sleb128 0
 6058 2237 00       		.byte	0
 6059 2238 1C       		.uleb128 0x1c
 6060 2239 A6000000 		.4byte	.LVL18
 6061 223d EB310000 		.4byte	0x31eb
 6062 2241 51220000 		.4byte	0x2251
 6063 2245 1D       		.uleb128 0x1d
 6064 2246 01       		.uleb128 0x1
 6065 2247 50       		.byte	0x50
 6066 2248 07       		.uleb128 0x7
 6067 2249 79       		.byte	0x79
 6068 224a 0A       		.sleb128 10
 6069 224b 94       		.byte	0x94
 6070 224c 01       		.byte	0x1
 6071 224d 08       		.byte	0x8
 6072 224e FF       		.byte	0xff
 6073 224f 1A       		.byte	0x1a
 6074 2250 00       		.byte	0
 6075 2251 1E       		.uleb128 0x1e
 6076 2252 B4000000 		.4byte	.LVL19
 6077 2256 EB310000 		.4byte	0x31eb
 6078 225a 1E       		.uleb128 0x1e
 6079 225b BA000000 		.4byte	.LVL20
 6080 225f EB310000 		.4byte	0x31eb
 6081 2263 1C       		.uleb128 0x1c
 6082 2264 C8000000 		.4byte	.LVL21
 6083 2268 0B320000 		.4byte	0x320b
 6084 226c 76220000 		.4byte	0x2276
 6085 2270 1D       		.uleb128 0x1d
 6086 2271 01       		.uleb128 0x1
 6087 2272 51       		.byte	0x51
 6088 2273 01       		.uleb128 0x1
 6089 2274 33       		.byte	0x33
 6090 2275 00       		.byte	0
 6091 2276 1C       		.uleb128 0x1c
 6092 2277 D6000000 		.4byte	.LVL22
 6093 227b 0B320000 		.4byte	0x320b
 6094 227f 89220000 		.4byte	0x2289
 6095 2283 1D       		.uleb128 0x1d
 6096 2284 01       		.uleb128 0x1
 6097 2285 51       		.byte	0x51
 6098 2286 01       		.uleb128 0x1
 6099 2287 32       		.byte	0x32
 6100 2288 00       		.byte	0
 6101 2289 1C       		.uleb128 0x1c
 6102 228a E4000000 		.4byte	.LVL23
 6103 228e 0B320000 		.4byte	0x320b
 6104 2292 9C220000 		.4byte	0x229c
 6105 2296 1D       		.uleb128 0x1d
 6106 2297 01       		.uleb128 0x1
 6107 2298 51       		.byte	0x51
 6108 2299 01       		.uleb128 0x1
 6109 229a 38       		.byte	0x38
 6110 229b 00       		.byte	0
 6111 229c 1C       		.uleb128 0x1c
 6112 229d 02010000 		.4byte	.LVL24
 6113 22a1 32320000 		.4byte	0x3232
ARM GAS  C:\Users\AHMED~1.ELE\AppData\Local\Temp\ccFUpfoi.s 			page 125


 6114 22a5 AF220000 		.4byte	0x22af
 6115 22a9 1D       		.uleb128 0x1d
 6116 22aa 01       		.uleb128 0x1
 6117 22ab 50       		.byte	0x50
 6118 22ac 01       		.uleb128 0x1
 6119 22ad 31       		.byte	0x31
 6120 22ae 00       		.byte	0
 6121 22af 1C       		.uleb128 0x1c
 6122 22b0 08010000 		.4byte	.LVL25
 6123 22b4 EB310000 		.4byte	0x31eb
 6124 22b8 C3220000 		.4byte	0x22c3
 6125 22bc 1D       		.uleb128 0x1d
 6126 22bd 01       		.uleb128 0x1
 6127 22be 50       		.byte	0x50
 6128 22bf 02       		.uleb128 0x2
 6129 22c0 08       		.byte	0x8
 6130 22c1 59       		.byte	0x59
 6131 22c2 00       		.byte	0
 6132 22c3 1C       		.uleb128 0x1c
 6133 22c4 10010000 		.4byte	.LVL26
 6134 22c8 32320000 		.4byte	0x3232
 6135 22cc D6220000 		.4byte	0x22d6
 6136 22d0 1D       		.uleb128 0x1d
 6137 22d1 01       		.uleb128 0x1
 6138 22d2 50       		.byte	0x50
 6139 22d3 01       		.uleb128 0x1
 6140 22d4 40       		.byte	0x40
 6141 22d5 00       		.byte	0
 6142 22d6 1C       		.uleb128 0x1c
 6143 22d7 18010000 		.4byte	.LVL27
 6144 22db 0B320000 		.4byte	0x320b
 6145 22df E9220000 		.4byte	0x22e9
 6146 22e3 1D       		.uleb128 0x1d
 6147 22e4 01       		.uleb128 0x1
 6148 22e5 51       		.byte	0x51
 6149 22e6 01       		.uleb128 0x1
 6150 22e7 3A       		.byte	0x3a
 6151 22e8 00       		.byte	0
 6152 22e9 1E       		.uleb128 0x1e
 6153 22ea 22010000 		.4byte	.LVL28
 6154 22ee 00320000 		.4byte	0x3200
 6155 22f2 1C       		.uleb128 0x1c
 6156 22f3 32010000 		.4byte	.LVL31
 6157 22f7 47320000 		.4byte	0x3247
 6158 22fb 0C230000 		.4byte	0x230c
 6159 22ff 1D       		.uleb128 0x1d
 6160 2300 01       		.uleb128 0x1
 6161 2301 51       		.byte	0x51
 6162 2302 02       		.uleb128 0x2
 6163 2303 75       		.byte	0x75
 6164 2304 00       		.sleb128 0
 6165 2305 1D       		.uleb128 0x1d
 6166 2306 01       		.uleb128 0x1
 6167 2307 50       		.byte	0x50
 6168 2308 02       		.uleb128 0x2
 6169 2309 77       		.byte	0x77
 6170 230a 00       		.sleb128 0
ARM GAS  C:\Users\AHMED~1.ELE\AppData\Local\Temp\ccFUpfoi.s 			page 126


 6171 230b 00       		.byte	0
 6172 230c 1E       		.uleb128 0x1e
 6173 230d 3A010000 		.4byte	.LVL32
 6174 2311 EB310000 		.4byte	0x31eb
 6175 2315 1C       		.uleb128 0x1c
 6176 2316 40010000 		.4byte	.LVL33
 6177 231a EB310000 		.4byte	0x31eb
 6178 231e 28230000 		.4byte	0x2328
 6179 2322 1D       		.uleb128 0x1d
 6180 2323 01       		.uleb128 0x1
 6181 2324 50       		.byte	0x50
 6182 2325 01       		.uleb128 0x1
 6183 2326 33       		.byte	0x33
 6184 2327 00       		.byte	0
 6185 2328 1E       		.uleb128 0x1e
 6186 2329 4E010000 		.4byte	.LVL35
 6187 232d 61320000 		.4byte	0x3261
 6188 2331 00       		.byte	0
 6189 2332 1F       		.uleb128 0x1f
 6190 2333 97100000 		.4byte	.LASF850
 6191 2337 01       		.byte	0x1
 6192 2338 C5       		.byte	0xc5
 6193 2339 A7000000 		.4byte	0xa7
 6194 233d 00000000 		.4byte	.LFB1
 6195 2341 B4070000 		.4byte	.LFE1-.LFB1
 6196 2345 01       		.uleb128 0x1
 6197 2346 9C       		.byte	0x9c
 6198 2347 BB2C0000 		.4byte	0x2cbb
 6199 234b 20       		.uleb128 0x20
 6200 234c 6900     		.ascii	"i\000"
 6201 234e 01       		.byte	0x1
 6202 234f C7       		.byte	0xc7
 6203 2350 25000000 		.4byte	0x25
 6204 2354 29010000 		.4byte	.LLST5
 6205 2358 1B       		.uleb128 0x1b
 6206 2359 6B0A0000 		.4byte	.LASF838
 6207 235d 01       		.byte	0x1
 6208 235e C8       		.byte	0xc8
 6209 235f B2000000 		.4byte	0xb2
 6210 2363 28020000 		.4byte	.LLST6
 6211 2367 1B       		.uleb128 0x1b
 6212 2368 C21D0000 		.4byte	.LASF839
 6213 236c 01       		.byte	0x1
 6214 236d C9       		.byte	0xc9
 6215 236e A7000000 		.4byte	0xa7
 6216 2372 51020000 		.4byte	.LLST7
 6217 2376 1B       		.uleb128 0x1b
 6218 2377 1C160000 		.4byte	.LASF840
 6219 237b 01       		.byte	0x1
 6220 237c CA       		.byte	0xca
 6221 237d BD000000 		.4byte	0xbd
 6222 2381 FE020000 		.4byte	.LLST8
 6223 2385 1B       		.uleb128 0x1b
 6224 2386 BF260000 		.4byte	.LASF841
 6225 238a 01       		.byte	0x1
 6226 238b CB       		.byte	0xcb
 6227 238c BD000000 		.4byte	0xbd
ARM GAS  C:\Users\AHMED~1.ELE\AppData\Local\Temp\ccFUpfoi.s 			page 127


 6228 2390 11030000 		.4byte	.LLST9
 6229 2394 1B       		.uleb128 0x1b
 6230 2395 49270000 		.4byte	.LASF842
 6231 2399 01       		.byte	0x1
 6232 239a CC       		.byte	0xcc
 6233 239b BD000000 		.4byte	0xbd
 6234 239f 24030000 		.4byte	.LLST10
 6235 23a3 21       		.uleb128 0x21
 6236 23a4 7B2E0000 		.4byte	.LASF843
 6237 23a8 01       		.byte	0x1
 6238 23a9 CD       		.byte	0xcd
 6239 23aa 92130000 		.4byte	0x1392
 6240 23ae 03       		.uleb128 0x3
 6241 23af 91       		.byte	0x91
 6242 23b0 C07B     		.sleb128 -576
 6243 23b2 21       		.uleb128 0x21
 6244 23b3 3E140000 		.4byte	.LASF844
 6245 23b7 01       		.byte	0x1
 6246 23b8 CE       		.byte	0xce
 6247 23b9 00130000 		.4byte	0x1300
 6248 23bd 03       		.uleb128 0x3
 6249 23be 91       		.byte	0x91
 6250 23bf A879     		.sleb128 -856
 6251 23c1 1B       		.uleb128 0x1b
 6252 23c2 1B220000 		.4byte	.LASF845
 6253 23c6 01       		.byte	0x1
 6254 23c7 CF       		.byte	0xcf
 6255 23c8 EE000000 		.4byte	0xee
 6256 23cc 71030000 		.4byte	.LLST11
 6257 23d0 22       		.uleb128 0x22
 6258 23d1 64746700 		.ascii	"dtg\000"
 6259 23d5 01       		.byte	0x1
 6260 23d6 D0       		.byte	0xd0
 6261 23d7 AD130000 		.4byte	0x13ad
 6262 23db 03       		.uleb128 0x3
 6263 23dc 91       		.byte	0x91
 6264 23dd 9879     		.sleb128 -872
 6265 23df 1B       		.uleb128 0x1b
 6266 23e0 DB240000 		.4byte	.LASF846
 6267 23e4 01       		.byte	0x1
 6268 23e5 D1       		.byte	0xd1
 6269 23e6 B2000000 		.4byte	0xb2
 6270 23ea D6040000 		.4byte	.LLST12
 6271 23ee 21       		.uleb128 0x21
 6272 23ef DD140000 		.4byte	.LASF847
 6273 23f3 01       		.byte	0x1
 6274 23f4 D2       		.byte	0xd2
 6275 23f5 44010000 		.4byte	0x144
 6276 23f9 03       		.uleb128 0x3
 6277 23fa 91       		.byte	0x91
 6278 23fb A079     		.sleb128 -864
 6279 23fd 20       		.uleb128 0x20
 6280 23fe 746D7000 		.ascii	"tmp\000"
 6281 2402 01       		.byte	0x1
 6282 2403 D3       		.byte	0xd3
 6283 2404 A7000000 		.4byte	0xa7
 6284 2408 F4040000 		.4byte	.LLST13
ARM GAS  C:\Users\AHMED~1.ELE\AppData\Local\Temp\ccFUpfoi.s 			page 128


 6285 240c 1B       		.uleb128 0x1b
 6286 240d 1C260000 		.4byte	.LASF848
 6287 2411 01       		.byte	0x1
 6288 2412 D4       		.byte	0xd4
 6289 2413 EE000000 		.4byte	0xee
 6290 2417 33050000 		.4byte	.LLST14
 6291 241b 1B       		.uleb128 0x1b
 6292 241c 79330000 		.4byte	.LASF849
 6293 2420 01       		.byte	0x1
 6294 2421 D5       		.byte	0xd5
 6295 2422 7D000000 		.4byte	0x7d
 6296 2426 51050000 		.4byte	.LLST15
 6297 242a 1C       		.uleb128 0x1c
 6298 242b 18000000 		.4byte	.LVL40
 6299 242f BC310000 		.4byte	0x31bc
 6300 2433 3F240000 		.4byte	0x243f
 6301 2437 1D       		.uleb128 0x1d
 6302 2438 01       		.uleb128 0x1
 6303 2439 51       		.byte	0x51
 6304 243a 03       		.uleb128 0x3
 6305 243b 0A       		.byte	0xa
 6306 243c 000C     		.2byte	0xc00
 6307 243e 00       		.byte	0
 6308 243f 1C       		.uleb128 0x1c
 6309 2440 32000000 		.4byte	.LVL41
 6310 2444 D6310000 		.4byte	0x31d6
 6311 2448 52240000 		.4byte	0x2452
 6312 244c 1D       		.uleb128 0x1d
 6313 244d 01       		.uleb128 0x1
 6314 244e 50       		.byte	0x50
 6315 244f 01       		.uleb128 0x1
 6316 2450 32       		.byte	0x32
 6317 2451 00       		.byte	0
 6318 2452 1E       		.uleb128 0x1e
 6319 2453 3C000000 		.4byte	.LVL42
 6320 2457 D6310000 		.4byte	0x31d6
 6321 245b 1E       		.uleb128 0x1e
 6322 245c 40000000 		.4byte	.LVL43
 6323 2460 6C320000 		.4byte	0x326c
 6324 2464 1E       		.uleb128 0x1e
 6325 2465 46000000 		.4byte	.LVL45
 6326 2469 00320000 		.4byte	0x3200
 6327 246d 1C       		.uleb128 0x1c
 6328 246e 4C000000 		.4byte	.LVL46
 6329 2472 47320000 		.4byte	0x3247
 6330 2476 81240000 		.4byte	0x2481
 6331 247a 1D       		.uleb128 0x1d
 6332 247b 01       		.uleb128 0x1
 6333 247c 51       		.byte	0x51
 6334 247d 02       		.uleb128 0x2
 6335 247e 74       		.byte	0x74
 6336 247f 01       		.sleb128 1
 6337 2480 00       		.byte	0
 6338 2481 1C       		.uleb128 0x1c
 6339 2482 5A000000 		.4byte	.LVL48
 6340 2486 D6310000 		.4byte	0x31d6
 6341 248a 94240000 		.4byte	0x2494
ARM GAS  C:\Users\AHMED~1.ELE\AppData\Local\Temp\ccFUpfoi.s 			page 129


 6342 248e 1D       		.uleb128 0x1d
 6343 248f 01       		.uleb128 0x1
 6344 2490 50       		.byte	0x50
 6345 2491 01       		.uleb128 0x1
 6346 2492 35       		.byte	0x35
 6347 2493 00       		.byte	0
 6348 2494 1E       		.uleb128 0x1e
 6349 2495 5E000000 		.4byte	.LVL49
 6350 2499 6C320000 		.4byte	0x326c
 6351 249d 1C       		.uleb128 0x1c
 6352 249e 82000000 		.4byte	.LVL51
 6353 24a2 77320000 		.4byte	0x3277
 6354 24a6 B7240000 		.4byte	0x24b7
 6355 24aa 1D       		.uleb128 0x1d
 6356 24ab 01       		.uleb128 0x1
 6357 24ac 51       		.byte	0x51
 6358 24ad 01       		.uleb128 0x1
 6359 24ae 38       		.byte	0x38
 6360 24af 1D       		.uleb128 0x1d
 6361 24b0 01       		.uleb128 0x1
 6362 24b1 50       		.byte	0x50
 6363 24b2 03       		.uleb128 0x3
 6364 24b3 91       		.byte	0x91
 6365 24b4 A079     		.sleb128 -864
 6366 24b6 00       		.byte	0
 6367 24b7 1E       		.uleb128 0x1e
 6368 24b8 8E000000 		.4byte	.LVL52
 6369 24bc 91320000 		.4byte	0x3291
 6370 24c0 1C       		.uleb128 0x1c
 6371 24c1 A6000000 		.4byte	.LVL55
 6372 24c5 9C320000 		.4byte	0x329c
 6373 24c9 D3240000 		.4byte	0x24d3
 6374 24cd 1D       		.uleb128 0x1d
 6375 24ce 01       		.uleb128 0x1
 6376 24cf 51       		.byte	0x51
 6377 24d0 01       		.uleb128 0x1
 6378 24d1 30       		.byte	0x30
 6379 24d2 00       		.byte	0
 6380 24d3 1C       		.uleb128 0x1c
 6381 24d4 AE000000 		.4byte	.LVL58
 6382 24d8 D6310000 		.4byte	0x31d6
 6383 24dc E6240000 		.4byte	0x24e6
 6384 24e0 1D       		.uleb128 0x1d
 6385 24e1 01       		.uleb128 0x1
 6386 24e2 50       		.byte	0x50
 6387 24e3 01       		.uleb128 0x1
 6388 24e4 31       		.byte	0x31
 6389 24e5 00       		.byte	0
 6390 24e6 1E       		.uleb128 0x1e
 6391 24e7 B2000000 		.4byte	.LVL59
 6392 24eb 91320000 		.4byte	0x3291
 6393 24ef 1E       		.uleb128 0x1e
 6394 24f0 D2000000 		.4byte	.LVL64
 6395 24f4 00320000 		.4byte	0x3200
 6396 24f8 1C       		.uleb128 0x1c
 6397 24f9 DA000000 		.4byte	.LVL65
 6398 24fd B2320000 		.4byte	0x32b2
ARM GAS  C:\Users\AHMED~1.ELE\AppData\Local\Temp\ccFUpfoi.s 			page 130


 6399 2501 0B250000 		.4byte	0x250b
 6400 2505 1D       		.uleb128 0x1d
 6401 2506 01       		.uleb128 0x1
 6402 2507 52       		.byte	0x52
 6403 2508 01       		.uleb128 0x1
 6404 2509 33       		.byte	0x33
 6405 250a 00       		.byte	0
 6406 250b 1C       		.uleb128 0x1c
 6407 250c E8000000 		.4byte	.LVL66
 6408 2510 D6310000 		.4byte	0x31d6
 6409 2514 1E250000 		.4byte	0x251e
 6410 2518 1D       		.uleb128 0x1d
 6411 2519 01       		.uleb128 0x1
 6412 251a 50       		.byte	0x50
 6413 251b 01       		.uleb128 0x1
 6414 251c 33       		.byte	0x33
 6415 251d 00       		.byte	0
 6416 251e 1C       		.uleb128 0x1c
 6417 251f F8000000 		.4byte	.LVL67
 6418 2523 77320000 		.4byte	0x3277
 6419 2527 31250000 		.4byte	0x2531
 6420 252b 1D       		.uleb128 0x1d
 6421 252c 01       		.uleb128 0x1
 6422 252d 51       		.byte	0x51
 6423 252e 01       		.uleb128 0x1
 6424 252f 33       		.byte	0x33
 6425 2530 00       		.byte	0
 6426 2531 1C       		.uleb128 0x1c
 6427 2532 08010000 		.4byte	.LVL68
 6428 2536 77320000 		.4byte	0x3277
 6429 253a 44250000 		.4byte	0x2544
 6430 253e 1D       		.uleb128 0x1d
 6431 253f 01       		.uleb128 0x1
 6432 2540 51       		.byte	0x51
 6433 2541 01       		.uleb128 0x1
 6434 2542 32       		.byte	0x32
 6435 2543 00       		.byte	0
 6436 2544 1C       		.uleb128 0x1c
 6437 2545 16010000 		.4byte	.LVL69
 6438 2549 D6310000 		.4byte	0x31d6
 6439 254d 57250000 		.4byte	0x2557
 6440 2551 1D       		.uleb128 0x1d
 6441 2552 01       		.uleb128 0x1
 6442 2553 50       		.byte	0x50
 6443 2554 01       		.uleb128 0x1
 6444 2555 32       		.byte	0x32
 6445 2556 00       		.byte	0
 6446 2557 1C       		.uleb128 0x1c
 6447 2558 24010000 		.4byte	.LVL70
 6448 255c D6310000 		.4byte	0x31d6
 6449 2560 6A250000 		.4byte	0x256a
 6450 2564 1D       		.uleb128 0x1d
 6451 2565 01       		.uleb128 0x1
 6452 2566 50       		.byte	0x50
 6453 2567 01       		.uleb128 0x1
 6454 2568 31       		.byte	0x31
 6455 2569 00       		.byte	0
ARM GAS  C:\Users\AHMED~1.ELE\AppData\Local\Temp\ccFUpfoi.s 			page 131


 6456 256a 1E       		.uleb128 0x1e
 6457 256b 30010000 		.4byte	.LVL71
 6458 256f D1320000 		.4byte	0x32d1
 6459 2573 1E       		.uleb128 0x1e
 6460 2574 34010000 		.4byte	.LVL72
 6461 2578 DC320000 		.4byte	0x32dc
 6462 257c 1E       		.uleb128 0x1e
 6463 257d 40010000 		.4byte	.LVL73
 6464 2581 D6310000 		.4byte	0x31d6
 6465 2585 1C       		.uleb128 0x1c
 6466 2586 50010000 		.4byte	.LVL74
 6467 258a 77320000 		.4byte	0x3277
 6468 258e 98250000 		.4byte	0x2598
 6469 2592 1D       		.uleb128 0x1d
 6470 2593 01       		.uleb128 0x1
 6471 2594 51       		.byte	0x51
 6472 2595 01       		.uleb128 0x1
 6473 2596 3C       		.byte	0x3c
 6474 2597 00       		.byte	0
 6475 2598 1C       		.uleb128 0x1c
 6476 2599 5A010000 		.4byte	.LVL75
 6477 259d F1320000 		.4byte	0x32f1
 6478 25a1 B1250000 		.4byte	0x25b1
 6479 25a5 1D       		.uleb128 0x1d
 6480 25a6 01       		.uleb128 0x1
 6481 25a7 52       		.byte	0x52
 6482 25a8 01       		.uleb128 0x1
 6483 25a9 36       		.byte	0x36
 6484 25aa 1D       		.uleb128 0x1d
 6485 25ab 01       		.uleb128 0x1
 6486 25ac 51       		.byte	0x51
 6487 25ad 02       		.uleb128 0x2
 6488 25ae 08       		.byte	0x8
 6489 25af 20       		.byte	0x20
 6490 25b0 00       		.byte	0
 6491 25b1 1C       		.uleb128 0x1c
 6492 25b2 6A010000 		.4byte	.LVL76
 6493 25b6 77320000 		.4byte	0x3277
 6494 25ba C4250000 		.4byte	0x25c4
 6495 25be 1D       		.uleb128 0x1d
 6496 25bf 01       		.uleb128 0x1
 6497 25c0 51       		.byte	0x51
 6498 25c1 01       		.uleb128 0x1
 6499 25c2 36       		.byte	0x36
 6500 25c3 00       		.byte	0
 6501 25c4 1E       		.uleb128 0x1e
 6502 25c5 7E010000 		.4byte	.LVL77
 6503 25c9 6C320000 		.4byte	0x326c
 6504 25cd 1E       		.uleb128 0x1e
 6505 25ce 90010000 		.4byte	.LVL78
 6506 25d2 00320000 		.4byte	0x3200
 6507 25d6 1C       		.uleb128 0x1c
 6508 25d7 9A010000 		.4byte	.LVL79
 6509 25db B2320000 		.4byte	0x32b2
 6510 25df E9250000 		.4byte	0x25e9
 6511 25e3 1D       		.uleb128 0x1d
 6512 25e4 01       		.uleb128 0x1
ARM GAS  C:\Users\AHMED~1.ELE\AppData\Local\Temp\ccFUpfoi.s 			page 132


 6513 25e5 52       		.byte	0x52
 6514 25e6 01       		.uleb128 0x1
 6515 25e7 38       		.byte	0x38
 6516 25e8 00       		.byte	0
 6517 25e9 1C       		.uleb128 0x1c
 6518 25ea A8010000 		.4byte	.LVL80
 6519 25ee D6310000 		.4byte	0x31d6
 6520 25f2 FC250000 		.4byte	0x25fc
 6521 25f6 1D       		.uleb128 0x1d
 6522 25f7 01       		.uleb128 0x1
 6523 25f8 50       		.byte	0x50
 6524 25f9 01       		.uleb128 0x1
 6525 25fa 38       		.byte	0x38
 6526 25fb 00       		.byte	0
 6527 25fc 1E       		.uleb128 0x1e
 6528 25fd BE010000 		.4byte	.LVL81
 6529 2601 6C320000 		.4byte	0x326c
 6530 2605 1E       		.uleb128 0x1e
 6531 2606 C4010000 		.4byte	.LVL83
 6532 260a D6310000 		.4byte	0x31d6
 6533 260e 1E       		.uleb128 0x1e
 6534 260f D0010000 		.4byte	.LVL84
 6535 2613 00320000 		.4byte	0x3200
 6536 2617 1E       		.uleb128 0x1e
 6537 2618 D6010000 		.4byte	.LVL85
 6538 261c 6C320000 		.4byte	0x326c
 6539 2620 1E       		.uleb128 0x1e
 6540 2621 DA010000 		.4byte	.LVL86
 6541 2625 DC320000 		.4byte	0x32dc
 6542 2629 1C       		.uleb128 0x1c
 6543 262a E8010000 		.4byte	.LVL90
 6544 262e 10330000 		.4byte	0x3310
 6545 2632 44260000 		.4byte	0x2644
 6546 2636 1D       		.uleb128 0x1d
 6547 2637 01       		.uleb128 0x1
 6548 2638 51       		.byte	0x51
 6549 2639 03       		.uleb128 0x3
 6550 263a 0A       		.byte	0xa
 6551 263b 8801     		.2byte	0x188
 6552 263d 1D       		.uleb128 0x1d
 6553 263e 01       		.uleb128 0x1
 6554 263f 50       		.byte	0x50
 6555 2640 02       		.uleb128 0x2
 6556 2641 08       		.byte	0x8
 6557 2642 92       		.byte	0x92
 6558 2643 00       		.byte	0
 6559 2644 1C       		.uleb128 0x1c
 6560 2645 06020000 		.4byte	.LVL96
 6561 2649 10330000 		.4byte	0x3310
 6562 264d 58260000 		.4byte	0x2658
 6563 2651 1D       		.uleb128 0x1d
 6564 2652 01       		.uleb128 0x1
 6565 2653 50       		.byte	0x50
 6566 2654 02       		.uleb128 0x2
 6567 2655 08       		.byte	0x8
 6568 2656 94       		.byte	0x94
 6569 2657 00       		.byte	0
ARM GAS  C:\Users\AHMED~1.ELE\AppData\Local\Temp\ccFUpfoi.s 			page 133


 6570 2658 1E       		.uleb128 0x1e
 6571 2659 10020000 		.4byte	.LVL97
 6572 265d 2A330000 		.4byte	0x332a
 6573 2661 1C       		.uleb128 0x1c
 6574 2662 28020000 		.4byte	.LVL99
 6575 2666 35330000 		.4byte	0x3335
 6576 266a 8C260000 		.4byte	0x268c
 6577 266e 1D       		.uleb128 0x1d
 6578 266f 01       		.uleb128 0x1
 6579 2670 53       		.byte	0x53
 6580 2671 02       		.uleb128 0x2
 6581 2672 75       		.byte	0x75
 6582 2673 00       		.sleb128 0
 6583 2674 1D       		.uleb128 0x1d
 6584 2675 01       		.uleb128 0x1
 6585 2676 52       		.byte	0x52
 6586 2677 02       		.uleb128 0x2
 6587 2678 75       		.byte	0x75
 6588 2679 00       		.sleb128 0
 6589 267a 1D       		.uleb128 0x1d
 6590 267b 01       		.uleb128 0x1
 6591 267c 51       		.byte	0x51
 6592 267d 01       		.uleb128 0x1
 6593 267e 43       		.byte	0x43
 6594 267f 1D       		.uleb128 0x1d
 6595 2680 01       		.uleb128 0x1
 6596 2681 50       		.byte	0x50
 6597 2682 01       		.uleb128 0x1
 6598 2683 3F       		.byte	0x3f
 6599 2684 1D       		.uleb128 0x1d
 6600 2685 02       		.uleb128 0x2
 6601 2686 7D       		.byte	0x7d
 6602 2687 00       		.sleb128 0
 6603 2688 02       		.uleb128 0x2
 6604 2689 75       		.byte	0x75
 6605 268a 00       		.sleb128 0
 6606 268b 00       		.byte	0
 6607 268c 1E       		.uleb128 0x1e
 6608 268d 2C020000 		.4byte	.LVL100
 6609 2691 5E330000 		.4byte	0x335e
 6610 2695 1E       		.uleb128 0x1e
 6611 2696 30020000 		.4byte	.LVL101
 6612 269a 65330000 		.4byte	0x3365
 6613 269e 1C       		.uleb128 0x1c
 6614 269f 36020000 		.4byte	.LVL102
 6615 26a3 6C330000 		.4byte	0x336c
 6616 26a7 B1260000 		.4byte	0x26b1
 6617 26ab 1D       		.uleb128 0x1d
 6618 26ac 01       		.uleb128 0x1
 6619 26ad 50       		.byte	0x50
 6620 26ae 01       		.uleb128 0x1
 6621 26af 31       		.byte	0x31
 6622 26b0 00       		.byte	0
 6623 26b1 1C       		.uleb128 0x1c
 6624 26b2 44020000 		.4byte	.LVL103
 6625 26b6 35330000 		.4byte	0x3335
 6626 26ba DC260000 		.4byte	0x26dc
ARM GAS  C:\Users\AHMED~1.ELE\AppData\Local\Temp\ccFUpfoi.s 			page 134


 6627 26be 1D       		.uleb128 0x1d
 6628 26bf 01       		.uleb128 0x1
 6629 26c0 53       		.byte	0x53
 6630 26c1 02       		.uleb128 0x2
 6631 26c2 75       		.byte	0x75
 6632 26c3 00       		.sleb128 0
 6633 26c4 1D       		.uleb128 0x1d
 6634 26c5 01       		.uleb128 0x1
 6635 26c6 52       		.byte	0x52
 6636 26c7 02       		.uleb128 0x2
 6637 26c8 75       		.byte	0x75
 6638 26c9 00       		.sleb128 0
 6639 26ca 1D       		.uleb128 0x1d
 6640 26cb 01       		.uleb128 0x1
 6641 26cc 51       		.byte	0x51
 6642 26cd 01       		.uleb128 0x1
 6643 26ce 43       		.byte	0x43
 6644 26cf 1D       		.uleb128 0x1d
 6645 26d0 01       		.uleb128 0x1
 6646 26d1 50       		.byte	0x50
 6647 26d2 01       		.uleb128 0x1
 6648 26d3 3F       		.byte	0x3f
 6649 26d4 1D       		.uleb128 0x1d
 6650 26d5 02       		.uleb128 0x2
 6651 26d6 7D       		.byte	0x7d
 6652 26d7 00       		.sleb128 0
 6653 26d8 02       		.uleb128 0x2
 6654 26d9 75       		.byte	0x75
 6655 26da 00       		.sleb128 0
 6656 26db 00       		.byte	0
 6657 26dc 1C       		.uleb128 0x1c
 6658 26dd 4A020000 		.4byte	.LVL104
 6659 26e1 D6310000 		.4byte	0x31d6
 6660 26e5 F0260000 		.4byte	0x26f0
 6661 26e9 1D       		.uleb128 0x1d
 6662 26ea 01       		.uleb128 0x1
 6663 26eb 50       		.byte	0x50
 6664 26ec 02       		.uleb128 0x2
 6665 26ed 78       		.byte	0x78
 6666 26ee 00       		.sleb128 0
 6667 26ef 00       		.byte	0
 6668 26f0 1E       		.uleb128 0x1e
 6669 26f1 4E020000 		.4byte	.LVL105
 6670 26f5 00320000 		.4byte	0x3200
 6671 26f9 1E       		.uleb128 0x1e
 6672 26fa 56020000 		.4byte	.LVL106
 6673 26fe 91320000 		.4byte	0x3291
 6674 2702 1E       		.uleb128 0x1e
 6675 2703 5C020000 		.4byte	.LVL108
 6676 2707 6C320000 		.4byte	0x326c
 6677 270b 1E       		.uleb128 0x1e
 6678 270c 60020000 		.4byte	.LVL109
 6679 2710 DC320000 		.4byte	0x32dc
 6680 2714 1E       		.uleb128 0x1e
 6681 2715 68020000 		.4byte	.LVL111
 6682 2719 D1320000 		.4byte	0x32d1
 6683 271d 1E       		.uleb128 0x1e
ARM GAS  C:\Users\AHMED~1.ELE\AppData\Local\Temp\ccFUpfoi.s 			page 135


 6684 271e 6C020000 		.4byte	.LVL112
 6685 2722 DC320000 		.4byte	0x32dc
 6686 2726 1C       		.uleb128 0x1c
 6687 2727 D4020000 		.4byte	.LVL115
 6688 272b 10330000 		.4byte	0x3310
 6689 272f 3A270000 		.4byte	0x273a
 6690 2733 1D       		.uleb128 0x1d
 6691 2734 01       		.uleb128 0x1
 6692 2735 50       		.byte	0x50
 6693 2736 02       		.uleb128 0x2
 6694 2737 08       		.byte	0x8
 6695 2738 92       		.byte	0x92
 6696 2739 00       		.byte	0
 6697 273a 1C       		.uleb128 0x1c
 6698 273b EE020000 		.4byte	.LVL118
 6699 273f 7D330000 		.4byte	0x337d
 6700 2743 4E270000 		.4byte	0x274e
 6701 2747 1D       		.uleb128 0x1d
 6702 2748 01       		.uleb128 0x1
 6703 2749 50       		.byte	0x50
 6704 274a 02       		.uleb128 0x2
 6705 274b 75       		.byte	0x75
 6706 274c 00       		.sleb128 0
 6707 274d 00       		.byte	0
 6708 274e 1E       		.uleb128 0x1e
 6709 274f 20030000 		.4byte	.LVL121
 6710 2753 00320000 		.4byte	0x3200
 6711 2757 1C       		.uleb128 0x1c
 6712 2758 2C030000 		.4byte	.LVL122
 6713 275c 97330000 		.4byte	0x3397
 6714 2760 72270000 		.4byte	0x2772
 6715 2764 1D       		.uleb128 0x1d
 6716 2765 01       		.uleb128 0x1
 6717 2766 52       		.byte	0x52
 6718 2767 03       		.uleb128 0x3
 6719 2768 0A       		.byte	0xa
 6720 2769 8801     		.2byte	0x188
 6721 276b 1D       		.uleb128 0x1d
 6722 276c 01       		.uleb128 0x1
 6723 276d 50       		.byte	0x50
 6724 276e 02       		.uleb128 0x2
 6725 276f 75       		.byte	0x75
 6726 2770 00       		.sleb128 0
 6727 2771 00       		.byte	0
 6728 2772 1C       		.uleb128 0x1c
 6729 2773 36030000 		.4byte	.LVL123
 6730 2777 97330000 		.4byte	0x3397
 6731 277b 8B270000 		.4byte	0x278b
 6732 277f 1D       		.uleb128 0x1d
 6733 2780 01       		.uleb128 0x1
 6734 2781 52       		.byte	0x52
 6735 2782 01       		.uleb128 0x1
 6736 2783 36       		.byte	0x36
 6737 2784 1D       		.uleb128 0x1d
 6738 2785 01       		.uleb128 0x1
 6739 2786 51       		.byte	0x51
 6740 2787 02       		.uleb128 0x2
ARM GAS  C:\Users\AHMED~1.ELE\AppData\Local\Temp\ccFUpfoi.s 			page 136


 6741 2788 75       		.byte	0x75
 6742 2789 04       		.sleb128 4
 6743 278a 00       		.byte	0
 6744 278b 1C       		.uleb128 0x1c
 6745 278c 3C030000 		.4byte	.LVL124
 6746 2790 B4330000 		.4byte	0x33b4
 6747 2794 A0270000 		.4byte	0x27a0
 6748 2798 1D       		.uleb128 0x1d
 6749 2799 01       		.uleb128 0x1
 6750 279a 50       		.byte	0x50
 6751 279b 03       		.uleb128 0x3
 6752 279c 91       		.byte	0x91
 6753 279d 9879     		.sleb128 -872
 6754 279f 00       		.byte	0
 6755 27a0 1C       		.uleb128 0x1c
 6756 27a1 48030000 		.4byte	.LVL125
 6757 27a5 97330000 		.4byte	0x3397
 6758 27a9 BA270000 		.4byte	0x27ba
 6759 27ad 1D       		.uleb128 0x1d
 6760 27ae 01       		.uleb128 0x1
 6761 27af 52       		.byte	0x52
 6762 27b0 01       		.uleb128 0x1
 6763 27b1 36       		.byte	0x36
 6764 27b2 1D       		.uleb128 0x1d
 6765 27b3 01       		.uleb128 0x1
 6766 27b4 50       		.byte	0x50
 6767 27b5 03       		.uleb128 0x3
 6768 27b6 91       		.byte	0x91
 6769 27b7 9979     		.sleb128 -871
 6770 27b9 00       		.byte	0
 6771 27ba 1C       		.uleb128 0x1c
 6772 27bb 4E030000 		.4byte	.LVL126
 6773 27bf CB330000 		.4byte	0x33cb
 6774 27c3 CF270000 		.4byte	0x27cf
 6775 27c7 1D       		.uleb128 0x1d
 6776 27c8 01       		.uleb128 0x1
 6777 27c9 50       		.byte	0x50
 6778 27ca 03       		.uleb128 0x3
 6779 27cb 91       		.byte	0x91
 6780 27cc 9879     		.sleb128 -872
 6781 27ce 00       		.byte	0
 6782 27cf 1E       		.uleb128 0x1e
 6783 27d0 56030000 		.4byte	.LVL127
 6784 27d4 DC320000 		.4byte	0x32dc
 6785 27d8 1E       		.uleb128 0x1e
 6786 27d9 62030000 		.4byte	.LVL128
 6787 27dd DC320000 		.4byte	0x32dc
 6788 27e1 1C       		.uleb128 0x1c
 6789 27e2 6C030000 		.4byte	.LVL129
 6790 27e6 DC330000 		.4byte	0x33dc
 6791 27ea F5270000 		.4byte	0x27f5
 6792 27ee 1D       		.uleb128 0x1d
 6793 27ef 01       		.uleb128 0x1
 6794 27f0 50       		.byte	0x50
 6795 27f1 02       		.uleb128 0x2
 6796 27f2 75       		.byte	0x75
 6797 27f3 00       		.sleb128 0
ARM GAS  C:\Users\AHMED~1.ELE\AppData\Local\Temp\ccFUpfoi.s 			page 137


 6798 27f4 00       		.byte	0
 6799 27f5 1C       		.uleb128 0x1c
 6800 27f6 76030000 		.4byte	.LVL132
 6801 27fa 10330000 		.4byte	0x3310
 6802 27fe 0F280000 		.4byte	0x280f
 6803 2802 1D       		.uleb128 0x1d
 6804 2803 01       		.uleb128 0x1
 6805 2804 51       		.byte	0x51
 6806 2805 02       		.uleb128 0x2
 6807 2806 08       		.byte	0x8
 6808 2807 24       		.byte	0x24
 6809 2808 1D       		.uleb128 0x1d
 6810 2809 01       		.uleb128 0x1
 6811 280a 50       		.byte	0x50
 6812 280b 02       		.uleb128 0x2
 6813 280c 08       		.byte	0x8
 6814 280d 92       		.byte	0x92
 6815 280e 00       		.byte	0
 6816 280f 1E       		.uleb128 0x1e
 6817 2810 82030000 		.4byte	.LVL134
 6818 2814 00320000 		.4byte	0x3200
 6819 2818 1C       		.uleb128 0x1c
 6820 2819 8C030000 		.4byte	.LVL135
 6821 281d 97330000 		.4byte	0x3397
 6822 2821 32280000 		.4byte	0x2832
 6823 2825 1D       		.uleb128 0x1d
 6824 2826 01       		.uleb128 0x1
 6825 2827 52       		.byte	0x52
 6826 2828 02       		.uleb128 0x2
 6827 2829 08       		.byte	0x8
 6828 282a 24       		.byte	0x24
 6829 282b 1D       		.uleb128 0x1d
 6830 282c 01       		.uleb128 0x1
 6831 282d 50       		.byte	0x50
 6832 282e 02       		.uleb128 0x2
 6833 282f 75       		.byte	0x75
 6834 2830 00       		.sleb128 0
 6835 2831 00       		.byte	0
 6836 2832 1E       		.uleb128 0x1e
 6837 2833 92030000 		.4byte	.LVL136
 6838 2837 DC320000 		.4byte	0x32dc
 6839 283b 1E       		.uleb128 0x1e
 6840 283c 9A030000 		.4byte	.LVL137
 6841 2840 DC320000 		.4byte	0x32dc
 6842 2844 1E       		.uleb128 0x1e
 6843 2845 A0030000 		.4byte	.LVL138
 6844 2849 F7330000 		.4byte	0x33f7
 6845 284d 1C       		.uleb128 0x1c
 6846 284e A6030000 		.4byte	.LVL139
 6847 2852 02340000 		.4byte	0x3402
 6848 2856 61280000 		.4byte	0x2861
 6849 285a 1D       		.uleb128 0x1d
 6850 285b 01       		.uleb128 0x1
 6851 285c 51       		.byte	0x51
 6852 285d 02       		.uleb128 0x2
 6853 285e 75       		.byte	0x75
 6854 285f 00       		.sleb128 0
ARM GAS  C:\Users\AHMED~1.ELE\AppData\Local\Temp\ccFUpfoi.s 			page 138


 6855 2860 00       		.byte	0
 6856 2861 1C       		.uleb128 0x1c
 6857 2862 B2030000 		.4byte	.LVL142
 6858 2866 10330000 		.4byte	0x3310
 6859 286a 7B280000 		.4byte	0x287b
 6860 286e 1D       		.uleb128 0x1d
 6861 286f 01       		.uleb128 0x1
 6862 2870 51       		.byte	0x51
 6863 2871 02       		.uleb128 0x2
 6864 2872 08       		.byte	0x8
 6865 2873 38       		.byte	0x38
 6866 2874 1D       		.uleb128 0x1d
 6867 2875 01       		.uleb128 0x1
 6868 2876 50       		.byte	0x50
 6869 2877 02       		.uleb128 0x2
 6870 2878 08       		.byte	0x8
 6871 2879 92       		.byte	0x92
 6872 287a 00       		.byte	0
 6873 287b 1E       		.uleb128 0x1e
 6874 287c BE030000 		.4byte	.LVL143
 6875 2880 00320000 		.4byte	0x3200
 6876 2884 1C       		.uleb128 0x1c
 6877 2885 C8030000 		.4byte	.LVL144
 6878 2889 97330000 		.4byte	0x3397
 6879 288d 9E280000 		.4byte	0x289e
 6880 2891 1D       		.uleb128 0x1d
 6881 2892 01       		.uleb128 0x1
 6882 2893 52       		.byte	0x52
 6883 2894 02       		.uleb128 0x2
 6884 2895 08       		.byte	0x8
 6885 2896 38       		.byte	0x38
 6886 2897 1D       		.uleb128 0x1d
 6887 2898 01       		.uleb128 0x1
 6888 2899 50       		.byte	0x50
 6889 289a 02       		.uleb128 0x2
 6890 289b 7A       		.byte	0x7a
 6891 289c 00       		.sleb128 0
 6892 289d 00       		.byte	0
 6893 289e 1E       		.uleb128 0x1e
 6894 289f D0030000 		.4byte	.LVL145
 6895 28a3 DC320000 		.4byte	0x32dc
 6896 28a7 1C       		.uleb128 0x1c
 6897 28a8 DC030000 		.4byte	.LVL146
 6898 28ac 22340000 		.4byte	0x3422
 6899 28b0 C1280000 		.4byte	0x28c1
 6900 28b4 1D       		.uleb128 0x1d
 6901 28b5 01       		.uleb128 0x1
 6902 28b6 51       		.byte	0x51
 6903 28b7 02       		.uleb128 0x2
 6904 28b8 7A       		.byte	0x7a
 6905 28b9 00       		.sleb128 0
 6906 28ba 1D       		.uleb128 0x1d
 6907 28bb 01       		.uleb128 0x1
 6908 28bc 50       		.byte	0x50
 6909 28bd 02       		.uleb128 0x2
 6910 28be 75       		.byte	0x75
 6911 28bf 00       		.sleb128 0
ARM GAS  C:\Users\AHMED~1.ELE\AppData\Local\Temp\ccFUpfoi.s 			page 139


 6912 28c0 00       		.byte	0
 6913 28c1 1C       		.uleb128 0x1c
 6914 28c2 E8030000 		.4byte	.LVL149
 6915 28c6 10330000 		.4byte	0x3310
 6916 28ca DB280000 		.4byte	0x28db
 6917 28ce 1D       		.uleb128 0x1d
 6918 28cf 01       		.uleb128 0x1
 6919 28d0 51       		.byte	0x51
 6920 28d1 02       		.uleb128 0x2
 6921 28d2 08       		.byte	0x8
 6922 28d3 AC       		.byte	0xac
 6923 28d4 1D       		.uleb128 0x1d
 6924 28d5 01       		.uleb128 0x1
 6925 28d6 50       		.byte	0x50
 6926 28d7 02       		.uleb128 0x2
 6927 28d8 08       		.byte	0x8
 6928 28d9 92       		.byte	0x92
 6929 28da 00       		.byte	0
 6930 28db 1E       		.uleb128 0x1e
 6931 28dc F4030000 		.4byte	.LVL150
 6932 28e0 00320000 		.4byte	0x3200
 6933 28e4 1C       		.uleb128 0x1c
 6934 28e5 00040000 		.4byte	.LVL151
 6935 28e9 97330000 		.4byte	0x3397
 6936 28ed FE280000 		.4byte	0x28fe
 6937 28f1 1D       		.uleb128 0x1d
 6938 28f2 01       		.uleb128 0x1
 6939 28f3 52       		.byte	0x52
 6940 28f4 02       		.uleb128 0x2
 6941 28f5 08       		.byte	0x8
 6942 28f6 AC       		.byte	0xac
 6943 28f7 1D       		.uleb128 0x1d
 6944 28f8 01       		.uleb128 0x1
 6945 28f9 50       		.byte	0x50
 6946 28fa 02       		.uleb128 0x2
 6947 28fb 7A       		.byte	0x7a
 6948 28fc 00       		.sleb128 0
 6949 28fd 00       		.byte	0
 6950 28fe 1E       		.uleb128 0x1e
 6951 28ff 08040000 		.4byte	.LVL152
 6952 2903 DC320000 		.4byte	0x32dc
 6953 2907 1C       		.uleb128 0x1c
 6954 2908 16040000 		.4byte	.LVL153
 6955 290c 42340000 		.4byte	0x3442
 6956 2910 25290000 		.4byte	0x2925
 6957 2914 1D       		.uleb128 0x1d
 6958 2915 01       		.uleb128 0x1
 6959 2916 52       		.byte	0x52
 6960 2917 01       		.uleb128 0x1
 6961 2918 33       		.byte	0x33
 6962 2919 1D       		.uleb128 0x1d
 6963 291a 01       		.uleb128 0x1
 6964 291b 51       		.byte	0x51
 6965 291c 01       		.uleb128 0x1
 6966 291d 30       		.byte	0x30
 6967 291e 1D       		.uleb128 0x1d
 6968 291f 01       		.uleb128 0x1
ARM GAS  C:\Users\AHMED~1.ELE\AppData\Local\Temp\ccFUpfoi.s 			page 140


 6969 2920 50       		.byte	0x50
 6970 2921 02       		.uleb128 0x2
 6971 2922 7B       		.byte	0x7b
 6972 2923 00       		.sleb128 0
 6973 2924 00       		.byte	0
 6974 2925 1C       		.uleb128 0x1c
 6975 2926 30040000 		.4byte	.LVL154
 6976 292a 97330000 		.4byte	0x3397
 6977 292e 39290000 		.4byte	0x2939
 6978 2932 1D       		.uleb128 0x1d
 6979 2933 01       		.uleb128 0x1
 6980 2934 50       		.byte	0x50
 6981 2935 02       		.uleb128 0x2
 6982 2936 7B       		.byte	0x7b
 6983 2937 00       		.sleb128 0
 6984 2938 00       		.byte	0
 6985 2939 1C       		.uleb128 0x1c
 6986 293a 3E040000 		.4byte	.LVL155
 6987 293e 42340000 		.4byte	0x3442
 6988 2942 57290000 		.4byte	0x2957
 6989 2946 1D       		.uleb128 0x1d
 6990 2947 01       		.uleb128 0x1
 6991 2948 52       		.byte	0x52
 6992 2949 01       		.uleb128 0x1
 6993 294a 33       		.byte	0x33
 6994 294b 1D       		.uleb128 0x1d
 6995 294c 01       		.uleb128 0x1
 6996 294d 51       		.byte	0x51
 6997 294e 01       		.uleb128 0x1
 6998 294f 30       		.byte	0x30
 6999 2950 1D       		.uleb128 0x1d
 7000 2951 01       		.uleb128 0x1
 7001 2952 50       		.byte	0x50
 7002 2953 02       		.uleb128 0x2
 7003 2954 7B       		.byte	0x7b
 7004 2955 00       		.sleb128 0
 7005 2956 00       		.byte	0
 7006 2957 1C       		.uleb128 0x1c
 7007 2958 5A040000 		.4byte	.LVL156
 7008 295c 97330000 		.4byte	0x3397
 7009 2960 6B290000 		.4byte	0x296b
 7010 2964 1D       		.uleb128 0x1d
 7011 2965 01       		.uleb128 0x1
 7012 2966 50       		.byte	0x50
 7013 2967 02       		.uleb128 0x2
 7014 2968 7B       		.byte	0x7b
 7015 2969 00       		.sleb128 0
 7016 296a 00       		.byte	0
 7017 296b 1C       		.uleb128 0x1c
 7018 296c 6C040000 		.4byte	.LVL157
 7019 2970 61340000 		.4byte	0x3461
 7020 2974 85290000 		.4byte	0x2985
 7021 2978 1D       		.uleb128 0x1d
 7022 2979 01       		.uleb128 0x1
 7023 297a 51       		.byte	0x51
 7024 297b 02       		.uleb128 0x2
 7025 297c 7A       		.byte	0x7a
ARM GAS  C:\Users\AHMED~1.ELE\AppData\Local\Temp\ccFUpfoi.s 			page 141


 7026 297d 00       		.sleb128 0
 7027 297e 1D       		.uleb128 0x1d
 7028 297f 01       		.uleb128 0x1
 7029 2980 50       		.byte	0x50
 7030 2981 02       		.uleb128 0x2
 7031 2982 75       		.byte	0x75
 7032 2983 00       		.sleb128 0
 7033 2984 00       		.byte	0
 7034 2985 1C       		.uleb128 0x1c
 7035 2986 7C040000 		.4byte	.LVL160
 7036 298a 10330000 		.4byte	0x3310
 7037 298e 9E290000 		.4byte	0x299e
 7038 2992 1D       		.uleb128 0x1d
 7039 2993 01       		.uleb128 0x1
 7040 2994 51       		.byte	0x51
 7041 2995 01       		.uleb128 0x1
 7042 2996 4C       		.byte	0x4c
 7043 2997 1D       		.uleb128 0x1d
 7044 2998 01       		.uleb128 0x1
 7045 2999 50       		.byte	0x50
 7046 299a 02       		.uleb128 0x2
 7047 299b 08       		.byte	0x8
 7048 299c 92       		.byte	0x92
 7049 299d 00       		.byte	0
 7050 299e 1E       		.uleb128 0x1e
 7051 299f 88040000 		.4byte	.LVL161
 7052 29a3 00320000 		.4byte	0x3200
 7053 29a7 1C       		.uleb128 0x1c
 7054 29a8 92040000 		.4byte	.LVL162
 7055 29ac 97330000 		.4byte	0x3397
 7056 29b0 C0290000 		.4byte	0x29c0
 7057 29b4 1D       		.uleb128 0x1d
 7058 29b5 01       		.uleb128 0x1
 7059 29b6 52       		.byte	0x52
 7060 29b7 01       		.uleb128 0x1
 7061 29b8 4C       		.byte	0x4c
 7062 29b9 1D       		.uleb128 0x1d
 7063 29ba 01       		.uleb128 0x1
 7064 29bb 50       		.byte	0x50
 7065 29bc 02       		.uleb128 0x2
 7066 29bd 7A       		.byte	0x7a
 7067 29be 00       		.sleb128 0
 7068 29bf 00       		.byte	0
 7069 29c0 1C       		.uleb128 0x1c
 7070 29c1 9A040000 		.4byte	.LVL163
 7071 29c5 81340000 		.4byte	0x3481
 7072 29c9 DA290000 		.4byte	0x29da
 7073 29cd 1D       		.uleb128 0x1d
 7074 29ce 01       		.uleb128 0x1
 7075 29cf 51       		.byte	0x51
 7076 29d0 02       		.uleb128 0x2
 7077 29d1 7A       		.byte	0x7a
 7078 29d2 00       		.sleb128 0
 7079 29d3 1D       		.uleb128 0x1d
 7080 29d4 01       		.uleb128 0x1
 7081 29d5 50       		.byte	0x50
 7082 29d6 02       		.uleb128 0x2
ARM GAS  C:\Users\AHMED~1.ELE\AppData\Local\Temp\ccFUpfoi.s 			page 142


 7083 29d7 75       		.byte	0x75
 7084 29d8 00       		.sleb128 0
 7085 29d9 00       		.byte	0
 7086 29da 1C       		.uleb128 0x1c
 7087 29db AE040000 		.4byte	.LVL166
 7088 29df 10330000 		.4byte	0x3310
 7089 29e3 F5290000 		.4byte	0x29f5
 7090 29e7 1D       		.uleb128 0x1d
 7091 29e8 01       		.uleb128 0x1
 7092 29e9 51       		.byte	0x51
 7093 29ea 03       		.uleb128 0x3
 7094 29eb 0A       		.byte	0xa
 7095 29ec 8401     		.2byte	0x184
 7096 29ee 1D       		.uleb128 0x1d
 7097 29ef 01       		.uleb128 0x1
 7098 29f0 50       		.byte	0x50
 7099 29f1 02       		.uleb128 0x2
 7100 29f2 08       		.byte	0x8
 7101 29f3 92       		.byte	0x92
 7102 29f4 00       		.byte	0
 7103 29f5 1E       		.uleb128 0x1e
 7104 29f6 BA040000 		.4byte	.LVL168
 7105 29fa 00320000 		.4byte	0x3200
 7106 29fe 1E       		.uleb128 0x1e
 7107 29ff C6040000 		.4byte	.LVL170
 7108 2a03 00320000 		.4byte	0x3200
 7109 2a07 1E       		.uleb128 0x1e
 7110 2a08 CE040000 		.4byte	.LVL171
 7111 2a0c 00320000 		.4byte	0x3200
 7112 2a10 1C       		.uleb128 0x1c
 7113 2a11 DA040000 		.4byte	.LVL172
 7114 2a15 97330000 		.4byte	0x3397
 7115 2a19 2A2A0000 		.4byte	0x2a2a
 7116 2a1d 1D       		.uleb128 0x1d
 7117 2a1e 01       		.uleb128 0x1
 7118 2a1f 52       		.byte	0x52
 7119 2a20 02       		.uleb128 0x2
 7120 2a21 78       		.byte	0x78
 7121 2a22 7E       		.sleb128 -2
 7122 2a23 1D       		.uleb128 0x1d
 7123 2a24 01       		.uleb128 0x1
 7124 2a25 50       		.byte	0x50
 7125 2a26 02       		.uleb128 0x2
 7126 2a27 75       		.byte	0x75
 7127 2a28 02       		.sleb128 2
 7128 2a29 00       		.byte	0
 7129 2a2a 1C       		.uleb128 0x1c
 7130 2a2b E2040000 		.4byte	.LVL173
 7131 2a2f A1340000 		.4byte	0x34a1
 7132 2a33 442A0000 		.4byte	0x2a44
 7133 2a37 1D       		.uleb128 0x1d
 7134 2a38 01       		.uleb128 0x1
 7135 2a39 51       		.byte	0x51
 7136 2a3a 02       		.uleb128 0x2
 7137 2a3b 75       		.byte	0x75
 7138 2a3c 00       		.sleb128 0
 7139 2a3d 1D       		.uleb128 0x1d
ARM GAS  C:\Users\AHMED~1.ELE\AppData\Local\Temp\ccFUpfoi.s 			page 143


 7140 2a3e 01       		.uleb128 0x1
 7141 2a3f 50       		.byte	0x50
 7142 2a40 02       		.uleb128 0x2
 7143 2a41 7A       		.byte	0x7a
 7144 2a42 00       		.sleb128 0
 7145 2a43 00       		.byte	0
 7146 2a44 1E       		.uleb128 0x1e
 7147 2a45 2C050000 		.4byte	.LVL177
 7148 2a49 00320000 		.4byte	0x3200
 7149 2a4d 1C       		.uleb128 0x1c
 7150 2a4e 40050000 		.4byte	.LVL182
 7151 2a52 C1340000 		.4byte	0x34c1
 7152 2a56 612A0000 		.4byte	0x2a61
 7153 2a5a 1D       		.uleb128 0x1d
 7154 2a5b 01       		.uleb128 0x1
 7155 2a5c 50       		.byte	0x50
 7156 2a5d 02       		.uleb128 0x2
 7157 2a5e 75       		.byte	0x75
 7158 2a5f 02       		.sleb128 2
 7159 2a60 00       		.byte	0
 7160 2a61 1C       		.uleb128 0x1c
 7161 2a62 62050000 		.4byte	.LVL184
 7162 2a66 97330000 		.4byte	0x3397
 7163 2a6a 812A0000 		.4byte	0x2a81
 7164 2a6e 1D       		.uleb128 0x1d
 7165 2a6f 01       		.uleb128 0x1
 7166 2a70 52       		.byte	0x52
 7167 2a71 01       		.uleb128 0x1
 7168 2a72 35       		.byte	0x35
 7169 2a73 1D       		.uleb128 0x1d
 7170 2a74 01       		.uleb128 0x1
 7171 2a75 51       		.byte	0x51
 7172 2a76 02       		.uleb128 0x2
 7173 2a77 75       		.byte	0x75
 7174 2a78 08       		.sleb128 8
 7175 2a79 1D       		.uleb128 0x1d
 7176 2a7a 01       		.uleb128 0x1
 7177 2a7b 50       		.byte	0x50
 7178 2a7c 03       		.uleb128 0x3
 7179 2a7d 91       		.byte	0x91
 7180 2a7e C87B     		.sleb128 -568
 7181 2a80 00       		.byte	0
 7182 2a81 1C       		.uleb128 0x1c
 7183 2a82 72050000 		.4byte	.LVL185
 7184 2a86 97330000 		.4byte	0x3397
 7185 2a8a A12A0000 		.4byte	0x2aa1
 7186 2a8e 1D       		.uleb128 0x1d
 7187 2a8f 01       		.uleb128 0x1
 7188 2a90 52       		.byte	0x52
 7189 2a91 01       		.uleb128 0x1
 7190 2a92 35       		.byte	0x35
 7191 2a93 1D       		.uleb128 0x1d
 7192 2a94 01       		.uleb128 0x1
 7193 2a95 51       		.byte	0x51
 7194 2a96 02       		.uleb128 0x2
 7195 2a97 75       		.byte	0x75
 7196 2a98 0D       		.sleb128 13
ARM GAS  C:\Users\AHMED~1.ELE\AppData\Local\Temp\ccFUpfoi.s 			page 144


 7197 2a99 1D       		.uleb128 0x1d
 7198 2a9a 01       		.uleb128 0x1
 7199 2a9b 50       		.byte	0x50
 7200 2a9c 03       		.uleb128 0x3
 7201 2a9d 91       		.byte	0x91
 7202 2a9e CD7B     		.sleb128 -563
 7203 2aa0 00       		.byte	0
 7204 2aa1 1C       		.uleb128 0x1c
 7205 2aa2 80050000 		.4byte	.LVL186
 7206 2aa6 97330000 		.4byte	0x3397
 7207 2aaa C12A0000 		.4byte	0x2ac1
 7208 2aae 1D       		.uleb128 0x1d
 7209 2aaf 01       		.uleb128 0x1
 7210 2ab0 52       		.byte	0x52
 7211 2ab1 01       		.uleb128 0x1
 7212 2ab2 35       		.byte	0x35
 7213 2ab3 1D       		.uleb128 0x1d
 7214 2ab4 01       		.uleb128 0x1
 7215 2ab5 51       		.byte	0x51
 7216 2ab6 02       		.uleb128 0x2
 7217 2ab7 75       		.byte	0x75
 7218 2ab8 12       		.sleb128 18
 7219 2ab9 1D       		.uleb128 0x1d
 7220 2aba 01       		.uleb128 0x1
 7221 2abb 50       		.byte	0x50
 7222 2abc 03       		.uleb128 0x3
 7223 2abd 91       		.byte	0x91
 7224 2abe D27B     		.sleb128 -558
 7225 2ac0 00       		.byte	0
 7226 2ac1 1C       		.uleb128 0x1c
 7227 2ac2 90050000 		.4byte	.LVL188
 7228 2ac6 97330000 		.4byte	0x3397
 7229 2aca E22A0000 		.4byte	0x2ae2
 7230 2ace 1D       		.uleb128 0x1d
 7231 2acf 01       		.uleb128 0x1
 7232 2ad0 52       		.byte	0x52
 7233 2ad1 02       		.uleb128 0x2
 7234 2ad2 08       		.byte	0x8
 7235 2ad3 C8       		.byte	0xc8
 7236 2ad4 1D       		.uleb128 0x1d
 7237 2ad5 01       		.uleb128 0x1
 7238 2ad6 51       		.byte	0x51
 7239 2ad7 02       		.uleb128 0x2
 7240 2ad8 75       		.byte	0x75
 7241 2ad9 17       		.sleb128 23
 7242 2ada 1D       		.uleb128 0x1d
 7243 2adb 01       		.uleb128 0x1
 7244 2adc 50       		.byte	0x50
 7245 2add 03       		.uleb128 0x3
 7246 2ade 91       		.byte	0x91
 7247 2adf D77B     		.sleb128 -553
 7248 2ae1 00       		.byte	0
 7249 2ae2 1C       		.uleb128 0x1c
 7250 2ae3 9C050000 		.4byte	.LVL189
 7251 2ae7 D6340000 		.4byte	0x34d6
 7252 2aeb 032B0000 		.4byte	0x2b03
 7253 2aef 1D       		.uleb128 0x1d
ARM GAS  C:\Users\AHMED~1.ELE\AppData\Local\Temp\ccFUpfoi.s 			page 145


 7254 2af0 01       		.uleb128 0x1
 7255 2af1 52       		.byte	0x52
 7256 2af2 03       		.uleb128 0x3
 7257 2af3 0A       		.byte	0xa
 7258 2af4 1702     		.2byte	0x217
 7259 2af6 1D       		.uleb128 0x1d
 7260 2af7 01       		.uleb128 0x1
 7261 2af8 51       		.byte	0x51
 7262 2af9 03       		.uleb128 0x3
 7263 2afa 91       		.byte	0x91
 7264 2afb C07B     		.sleb128 -576
 7265 2afd 1D       		.uleb128 0x1d
 7266 2afe 01       		.uleb128 0x1
 7267 2aff 50       		.byte	0x50
 7268 2b00 01       		.uleb128 0x1
 7269 2b01 34       		.byte	0x34
 7270 2b02 00       		.byte	0
 7271 2b03 1E       		.uleb128 0x1e
 7272 2b04 CE050000 		.4byte	.LVL191
 7273 2b08 00320000 		.4byte	0x3200
 7274 2b0c 1C       		.uleb128 0x1c
 7275 2b0d E2050000 		.4byte	.LVL194
 7276 2b11 97330000 		.4byte	0x3397
 7277 2b15 2C2B0000 		.4byte	0x2b2c
 7278 2b19 1D       		.uleb128 0x1d
 7279 2b1a 01       		.uleb128 0x1
 7280 2b1b 52       		.byte	0x52
 7281 2b1c 01       		.uleb128 0x1
 7282 2b1d 35       		.byte	0x35
 7283 2b1e 1D       		.uleb128 0x1d
 7284 2b1f 01       		.uleb128 0x1
 7285 2b20 51       		.byte	0x51
 7286 2b21 02       		.uleb128 0x2
 7287 2b22 75       		.byte	0x75
 7288 2b23 01       		.sleb128 1
 7289 2b24 1D       		.uleb128 0x1d
 7290 2b25 01       		.uleb128 0x1
 7291 2b26 50       		.byte	0x50
 7292 2b27 03       		.uleb128 0x3
 7293 2b28 91       		.byte	0x91
 7294 2b29 A979     		.sleb128 -855
 7295 2b2b 00       		.byte	0
 7296 2b2c 1C       		.uleb128 0x1c
 7297 2b2d E8050000 		.4byte	.LVL196
 7298 2b31 C1340000 		.4byte	0x34c1
 7299 2b35 402B0000 		.4byte	0x2b40
 7300 2b39 1D       		.uleb128 0x1d
 7301 2b3a 01       		.uleb128 0x1
 7302 2b3b 50       		.byte	0x50
 7303 2b3c 02       		.uleb128 0x2
 7304 2b3d 75       		.byte	0x75
 7305 2b3e 06       		.sleb128 6
 7306 2b3f 00       		.byte	0
 7307 2b40 1C       		.uleb128 0x1c
 7308 2b41 F2050000 		.4byte	.LVL199
 7309 2b45 F1340000 		.4byte	0x34f1
 7310 2b49 542B0000 		.4byte	0x2b54
ARM GAS  C:\Users\AHMED~1.ELE\AppData\Local\Temp\ccFUpfoi.s 			page 146


 7311 2b4d 1D       		.uleb128 0x1d
 7312 2b4e 01       		.uleb128 0x1
 7313 2b4f 50       		.byte	0x50
 7314 2b50 02       		.uleb128 0x2
 7315 2b51 75       		.byte	0x75
 7316 2b52 0A       		.sleb128 10
 7317 2b53 00       		.byte	0
 7318 2b54 1C       		.uleb128 0x1c
 7319 2b55 02060000 		.4byte	.LVL201
 7320 2b59 97330000 		.4byte	0x3397
 7321 2b5d 762B0000 		.4byte	0x2b76
 7322 2b61 1D       		.uleb128 0x1d
 7323 2b62 01       		.uleb128 0x1
 7324 2b63 52       		.byte	0x52
 7325 2b64 03       		.uleb128 0x3
 7326 2b65 0A       		.byte	0xa
 7327 2b66 0001     		.2byte	0x100
 7328 2b68 1D       		.uleb128 0x1d
 7329 2b69 01       		.uleb128 0x1
 7330 2b6a 51       		.byte	0x51
 7331 2b6b 02       		.uleb128 0x2
 7332 2b6c 75       		.byte	0x75
 7333 2b6d 0C       		.sleb128 12
 7334 2b6e 1D       		.uleb128 0x1d
 7335 2b6f 01       		.uleb128 0x1
 7336 2b70 50       		.byte	0x50
 7337 2b71 03       		.uleb128 0x3
 7338 2b72 91       		.byte	0x91
 7339 2b73 B879     		.sleb128 -840
 7340 2b75 00       		.byte	0
 7341 2b76 1C       		.uleb128 0x1c
 7342 2b77 36060000 		.4byte	.LVL204
 7343 2b7b D6340000 		.4byte	0x34d6
 7344 2b7f 972B0000 		.4byte	0x2b97
 7345 2b83 1D       		.uleb128 0x1d
 7346 2b84 01       		.uleb128 0x1
 7347 2b85 52       		.byte	0x52
 7348 2b86 03       		.uleb128 0x3
 7349 2b87 0A       		.byte	0xa
 7350 2b88 1801     		.2byte	0x118
 7351 2b8a 1D       		.uleb128 0x1d
 7352 2b8b 01       		.uleb128 0x1
 7353 2b8c 51       		.byte	0x51
 7354 2b8d 03       		.uleb128 0x3
 7355 2b8e 91       		.byte	0x91
 7356 2b8f A879     		.sleb128 -856
 7357 2b91 1D       		.uleb128 0x1d
 7358 2b92 01       		.uleb128 0x1
 7359 2b93 50       		.byte	0x50
 7360 2b94 01       		.uleb128 0x1
 7361 2b95 32       		.byte	0x32
 7362 2b96 00       		.byte	0
 7363 2b97 1E       		.uleb128 0x1e
 7364 2b98 58060000 		.4byte	.LVL209
 7365 2b9c 06350000 		.4byte	0x3506
 7366 2ba0 1E       		.uleb128 0x1e
 7367 2ba1 6E060000 		.4byte	.LVL211
ARM GAS  C:\Users\AHMED~1.ELE\AppData\Local\Temp\ccFUpfoi.s 			page 147


 7368 2ba5 17350000 		.4byte	0x3517
 7369 2ba9 1E       		.uleb128 0x1e
 7370 2baa 72060000 		.4byte	.LVL212
 7371 2bae 1E350000 		.4byte	0x351e
 7372 2bb2 1C       		.uleb128 0x1c
 7373 2bb3 B4060000 		.4byte	.LVL215
 7374 2bb7 10330000 		.4byte	0x3310
 7375 2bbb CB2B0000 		.4byte	0x2bcb
 7376 2bbf 1D       		.uleb128 0x1d
 7377 2bc0 01       		.uleb128 0x1
 7378 2bc1 51       		.byte	0x51
 7379 2bc2 01       		.uleb128 0x1
 7380 2bc3 4C       		.byte	0x4c
 7381 2bc4 1D       		.uleb128 0x1d
 7382 2bc5 01       		.uleb128 0x1
 7383 2bc6 50       		.byte	0x50
 7384 2bc7 02       		.uleb128 0x2
 7385 2bc8 08       		.byte	0x8
 7386 2bc9 92       		.byte	0x92
 7387 2bca 00       		.byte	0
 7388 2bcb 1E       		.uleb128 0x1e
 7389 2bcc C0060000 		.4byte	.LVL217
 7390 2bd0 00320000 		.4byte	0x3200
 7391 2bd4 1C       		.uleb128 0x1c
 7392 2bd5 D0060000 		.4byte	.LVL221
 7393 2bd9 F1340000 		.4byte	0x34f1
 7394 2bdd E82B0000 		.4byte	0x2be8
 7395 2be1 1D       		.uleb128 0x1d
 7396 2be2 01       		.uleb128 0x1
 7397 2be3 50       		.byte	0x50
 7398 2be4 02       		.uleb128 0x2
 7399 2be5 7A       		.byte	0x7a
 7400 2be6 02       		.sleb128 2
 7401 2be7 00       		.byte	0
 7402 2be8 1E       		.uleb128 0x1e
 7403 2be9 D4060000 		.4byte	.LVL222
 7404 2bed DC320000 		.4byte	0x32dc
 7405 2bf1 1C       		.uleb128 0x1c
 7406 2bf2 FA060000 		.4byte	.LVL227
 7407 2bf6 97330000 		.4byte	0x3397
 7408 2bfa 052C0000 		.4byte	0x2c05
 7409 2bfe 1D       		.uleb128 0x1d
 7410 2bff 01       		.uleb128 0x1
 7411 2c00 50       		.byte	0x50
 7412 2c01 02       		.uleb128 0x2
 7413 2c02 75       		.byte	0x75
 7414 2c03 04       		.sleb128 4
 7415 2c04 00       		.byte	0
 7416 2c05 1C       		.uleb128 0x1c
 7417 2c06 06070000 		.4byte	.LVL228
 7418 2c0a 25350000 		.4byte	0x3525
 7419 2c0e 192C0000 		.4byte	0x2c19
 7420 2c12 1D       		.uleb128 0x1d
 7421 2c13 01       		.uleb128 0x1
 7422 2c14 51       		.byte	0x51
 7423 2c15 02       		.uleb128 0x2
 7424 2c16 75       		.byte	0x75
ARM GAS  C:\Users\AHMED~1.ELE\AppData\Local\Temp\ccFUpfoi.s 			page 148


 7425 2c17 00       		.sleb128 0
 7426 2c18 00       		.byte	0
 7427 2c19 1E       		.uleb128 0x1e
 7428 2c1a 0E070000 		.4byte	.LVL230
 7429 2c1e 10330000 		.4byte	0x3310
 7430 2c22 1E       		.uleb128 0x1e
 7431 2c23 1C070000 		.4byte	.LVL232
 7432 2c27 6C320000 		.4byte	0x326c
 7433 2c2b 1C       		.uleb128 0x1c
 7434 2c2c 28070000 		.4byte	.LVL233
 7435 2c30 77320000 		.4byte	0x3277
 7436 2c34 3F2C0000 		.4byte	0x2c3f
 7437 2c38 1D       		.uleb128 0x1d
 7438 2c39 01       		.uleb128 0x1
 7439 2c3a 51       		.byte	0x51
 7440 2c3b 02       		.uleb128 0x2
 7441 2c3c 08       		.byte	0x8
 7442 2c3d 45       		.byte	0x45
 7443 2c3e 00       		.byte	0
 7444 2c3f 1C       		.uleb128 0x1c
 7445 2c40 32070000 		.4byte	.LVL234
 7446 2c44 10330000 		.4byte	0x3310
 7447 2c48 5A2C0000 		.4byte	0x2c5a
 7448 2c4c 1D       		.uleb128 0x1d
 7449 2c4d 01       		.uleb128 0x1
 7450 2c4e 51       		.byte	0x51
 7451 2c4f 03       		.uleb128 0x3
 7452 2c50 0A       		.byte	0xa
 7453 2c51 8801     		.2byte	0x188
 7454 2c53 1D       		.uleb128 0x1d
 7455 2c54 01       		.uleb128 0x1
 7456 2c55 50       		.byte	0x50
 7457 2c56 02       		.uleb128 0x2
 7458 2c57 08       		.byte	0x8
 7459 2c58 92       		.byte	0x92
 7460 2c59 00       		.byte	0
 7461 2c5a 1C       		.uleb128 0x1c
 7462 2c5b 3E070000 		.4byte	.LVL235
 7463 2c5f 45350000 		.4byte	0x3545
 7464 2c63 6E2C0000 		.4byte	0x2c6e
 7465 2c67 1D       		.uleb128 0x1d
 7466 2c68 01       		.uleb128 0x1
 7467 2c69 50       		.byte	0x50
 7468 2c6a 02       		.uleb128 0x2
 7469 2c6b 75       		.byte	0x75
 7470 2c6c 00       		.sleb128 0
 7471 2c6d 00       		.byte	0
 7472 2c6e 1C       		.uleb128 0x1c
 7473 2c6f 48070000 		.4byte	.LVL236
 7474 2c73 97330000 		.4byte	0x3397
 7475 2c77 872C0000 		.4byte	0x2c87
 7476 2c7b 1D       		.uleb128 0x1d
 7477 2c7c 01       		.uleb128 0x1
 7478 2c7d 52       		.byte	0x52
 7479 2c7e 01       		.uleb128 0x1
 7480 2c7f 36       		.byte	0x36
 7481 2c80 1D       		.uleb128 0x1d
ARM GAS  C:\Users\AHMED~1.ELE\AppData\Local\Temp\ccFUpfoi.s 			page 149


 7482 2c81 01       		.uleb128 0x1
 7483 2c82 51       		.byte	0x51
 7484 2c83 02       		.uleb128 0x2
 7485 2c84 75       		.byte	0x75
 7486 2c85 04       		.sleb128 4
 7487 2c86 00       		.byte	0
 7488 2c87 1E       		.uleb128 0x1e
 7489 2c88 4E070000 		.4byte	.LVL237
 7490 2c8c 5A350000 		.4byte	0x355a
 7491 2c90 1C       		.uleb128 0x1c
 7492 2c91 58070000 		.4byte	.LVL238
 7493 2c95 10330000 		.4byte	0x3310
 7494 2c99 AA2C0000 		.4byte	0x2caa
 7495 2c9d 1D       		.uleb128 0x1d
 7496 2c9e 01       		.uleb128 0x1
 7497 2c9f 51       		.byte	0x51
 7498 2ca0 02       		.uleb128 0x2
 7499 2ca1 75       		.byte	0x75
 7500 2ca2 00       		.sleb128 0
 7501 2ca3 1D       		.uleb128 0x1d
 7502 2ca4 01       		.uleb128 0x1
 7503 2ca5 50       		.byte	0x50
 7504 2ca6 02       		.uleb128 0x2
 7505 2ca7 08       		.byte	0x8
 7506 2ca8 94       		.byte	0x94
 7507 2ca9 00       		.byte	0
 7508 2caa 23       		.uleb128 0x23
 7509 2cab 64070000 		.4byte	.LVL239
 7510 2caf 10330000 		.4byte	0x3310
 7511 2cb3 1D       		.uleb128 0x1d
 7512 2cb4 01       		.uleb128 0x1
 7513 2cb5 50       		.byte	0x50
 7514 2cb6 02       		.uleb128 0x2
 7515 2cb7 08       		.byte	0x8
 7516 2cb8 94       		.byte	0x94
 7517 2cb9 00       		.byte	0
 7518 2cba 00       		.byte	0
 7519 2cbb 24       		.uleb128 0x24
 7520 2cbc 95160000 		.4byte	.LASF851
 7521 2cc0 01       		.byte	0x1
 7522 2cc1 5802     		.2byte	0x258
 7523 2cc3 BD000000 		.4byte	0xbd
 7524 2cc7 00000000 		.4byte	.LFB2
 7525 2ccb 0C020000 		.4byte	.LFE2-.LFB2
 7526 2ccf 01       		.uleb128 0x1
 7527 2cd0 9C       		.byte	0x9c
 7528 2cd1 C3300000 		.4byte	0x30c3
 7529 2cd5 25       		.uleb128 0x25
 7530 2cd6 6900     		.ascii	"i\000"
 7531 2cd8 01       		.byte	0x1
 7532 2cd9 5A02     		.2byte	0x25a
 7533 2cdb 25000000 		.4byte	0x25
 7534 2cdf 2A060000 		.4byte	.LLST16
 7535 2ce3 26       		.uleb128 0x26
 7536 2ce4 261C0000 		.4byte	.LASF852
 7537 2ce8 01       		.byte	0x1
 7538 2ce9 5A02     		.2byte	0x25a
ARM GAS  C:\Users\AHMED~1.ELE\AppData\Local\Temp\ccFUpfoi.s 			page 150


 7539 2ceb 25000000 		.4byte	0x25
 7540 2cef 3D060000 		.4byte	.LLST17
 7541 2cf3 26       		.uleb128 0x26
 7542 2cf4 9E2B0000 		.4byte	.LASF853
 7543 2cf8 01       		.byte	0x1
 7544 2cf9 5A02     		.2byte	0x25a
 7545 2cfb 25000000 		.4byte	0x25
 7546 2cff 66060000 		.4byte	.LLST18
 7547 2d03 27       		.uleb128 0x27
 7548 2d04 5F110000 		.4byte	.LASF854
 7549 2d08 01       		.byte	0x1
 7550 2d09 5B02     		.2byte	0x25b
 7551 2d0b A6160000 		.4byte	0x16a6
 7552 2d0f 03       		.uleb128 0x3
 7553 2d10 91       		.byte	0x91
 7554 2d11 F87C     		.sleb128 -392
 7555 2d13 27       		.uleb128 0x27
 7556 2d14 8D260000 		.4byte	.LASF855
 7557 2d18 01       		.byte	0x1
 7558 2d19 5C02     		.2byte	0x25c
 7559 2d1b B61C0000 		.4byte	0x1cb6
 7560 2d1f 03       		.uleb128 0x3
 7561 2d20 91       		.byte	0x91
 7562 2d21 CC7B     		.sleb128 -564
 7563 2d23 26       		.uleb128 0x26
 7564 2d24 71310000 		.4byte	.LASF856
 7565 2d28 01       		.byte	0x1
 7566 2d29 5D02     		.2byte	0x25d
 7567 2d2b BD000000 		.4byte	0xbd
 7568 2d2f 79060000 		.4byte	.LLST19
 7569 2d33 27       		.uleb128 0x27
 7570 2d34 83310000 		.4byte	.LASF857
 7571 2d38 01       		.byte	0x1
 7572 2d39 5E02     		.2byte	0x25e
 7573 2d3b 9D130000 		.4byte	0x139d
 7574 2d3f 03       		.uleb128 0x3
 7575 2d40 91       		.byte	0x91
 7576 2d41 C87B     		.sleb128 -568
 7577 2d43 1E       		.uleb128 0x1e
 7578 2d44 0C000000 		.4byte	.LVL245
 7579 2d48 6F350000 		.4byte	0x356f
 7580 2d4c 1C       		.uleb128 0x1c
 7581 2d4d 1A000000 		.4byte	.LVL246
 7582 2d51 7A350000 		.4byte	0x357a
 7583 2d55 682D0000 		.4byte	0x2d68
 7584 2d59 1D       		.uleb128 0x1d
 7585 2d5a 01       		.uleb128 0x1
 7586 2d5b 51       		.byte	0x51
 7587 2d5c 01       		.uleb128 0x1
 7588 2d5d 30       		.byte	0x30
 7589 2d5e 1D       		.uleb128 0x1d
 7590 2d5f 01       		.uleb128 0x1
 7591 2d60 50       		.byte	0x50
 7592 2d61 05       		.uleb128 0x5
 7593 2d62 03       		.byte	0x3
 7594 2d63 00000000 		.4byte	.LANCHOR1
 7595 2d67 00       		.byte	0
ARM GAS  C:\Users\AHMED~1.ELE\AppData\Local\Temp\ccFUpfoi.s 			page 151


 7596 2d68 1C       		.uleb128 0x1c
 7597 2d69 28000000 		.4byte	.LVL249
 7598 2d6d 10330000 		.4byte	0x3310
 7599 2d71 802D0000 		.4byte	0x2d80
 7600 2d75 1D       		.uleb128 0x1d
 7601 2d76 01       		.uleb128 0x1
 7602 2d77 51       		.byte	0x51
 7603 2d78 01       		.uleb128 0x1
 7604 2d79 3C       		.byte	0x3c
 7605 2d7a 1D       		.uleb128 0x1d
 7606 2d7b 01       		.uleb128 0x1
 7607 2d7c 50       		.byte	0x50
 7608 2d7d 01       		.uleb128 0x1
 7609 2d7e 46       		.byte	0x46
 7610 2d7f 00       		.byte	0
 7611 2d80 1E       		.uleb128 0x1e
 7612 2d81 2C000000 		.4byte	.LVL250
 7613 2d85 9A350000 		.4byte	0x359a
 7614 2d89 1E       		.uleb128 0x1e
 7615 2d8a 30000000 		.4byte	.LVL251
 7616 2d8e A1350000 		.4byte	0x35a1
 7617 2d92 1E       		.uleb128 0x1e
 7618 2d93 36000000 		.4byte	.LVL252
 7619 2d97 AC350000 		.4byte	0x35ac
 7620 2d9b 1C       		.uleb128 0x1c
 7621 2d9c 3E000000 		.4byte	.LVL253
 7622 2da0 6C330000 		.4byte	0x336c
 7623 2da4 AE2D0000 		.4byte	0x2dae
 7624 2da8 1D       		.uleb128 0x1d
 7625 2da9 01       		.uleb128 0x1
 7626 2daa 50       		.byte	0x50
 7627 2dab 01       		.uleb128 0x1
 7628 2dac 32       		.byte	0x32
 7629 2dad 00       		.byte	0
 7630 2dae 1C       		.uleb128 0x1c
 7631 2daf 48000000 		.4byte	.LVL254
 7632 2db3 9C320000 		.4byte	0x329c
 7633 2db7 C82D0000 		.4byte	0x2dc8
 7634 2dbb 1D       		.uleb128 0x1d
 7635 2dbc 01       		.uleb128 0x1
 7636 2dbd 51       		.byte	0x51
 7637 2dbe 01       		.uleb128 0x1
 7638 2dbf 31       		.byte	0x31
 7639 2dc0 1D       		.uleb128 0x1d
 7640 2dc1 01       		.uleb128 0x1
 7641 2dc2 50       		.byte	0x50
 7642 2dc3 03       		.uleb128 0x3
 7643 2dc4 0A       		.byte	0xa
 7644 2dc5 3030     		.2byte	0x3030
 7645 2dc7 00       		.byte	0
 7646 2dc8 1E       		.uleb128 0x1e
 7647 2dc9 4C000000 		.4byte	.LVL255
 7648 2dcd B7350000 		.4byte	0x35b7
 7649 2dd1 1C       		.uleb128 0x1c
 7650 2dd2 54000000 		.4byte	.LVL256
 7651 2dd6 BE350000 		.4byte	0x35be
 7652 2dda E92D0000 		.4byte	0x2de9
ARM GAS  C:\Users\AHMED~1.ELE\AppData\Local\Temp\ccFUpfoi.s 			page 152


 7653 2dde 1D       		.uleb128 0x1d
 7654 2ddf 01       		.uleb128 0x1
 7655 2de0 51       		.byte	0x51
 7656 2de1 01       		.uleb128 0x1
 7657 2de2 30       		.byte	0x30
 7658 2de3 1D       		.uleb128 0x1d
 7659 2de4 01       		.uleb128 0x1
 7660 2de5 50       		.byte	0x50
 7661 2de6 01       		.uleb128 0x1
 7662 2de7 3A       		.byte	0x3a
 7663 2de8 00       		.byte	0
 7664 2de9 1C       		.uleb128 0x1c
 7665 2dea 66000000 		.4byte	.LVL257
 7666 2dee D4350000 		.4byte	0x35d4
 7667 2df2 FE2D0000 		.4byte	0x2dfe
 7668 2df6 1D       		.uleb128 0x1d
 7669 2df7 01       		.uleb128 0x1
 7670 2df8 50       		.byte	0x50
 7671 2df9 03       		.uleb128 0x3
 7672 2dfa 91       		.byte	0x91
 7673 2dfb F87C     		.sleb128 -392
 7674 2dfd 00       		.byte	0
 7675 2dfe 1C       		.uleb128 0x1c
 7676 2dff 78000000 		.4byte	.LVL258
 7677 2e03 97330000 		.4byte	0x3397
 7678 2e07 1E2E0000 		.4byte	0x2e1e
 7679 2e0b 1D       		.uleb128 0x1d
 7680 2e0c 01       		.uleb128 0x1
 7681 2e0d 52       		.byte	0x52
 7682 2e0e 01       		.uleb128 0x1
 7683 2e0f 38       		.byte	0x38
 7684 2e10 1D       		.uleb128 0x1d
 7685 2e11 01       		.uleb128 0x1
 7686 2e12 51       		.byte	0x51
 7687 2e13 03       		.uleb128 0x3
 7688 2e14 91       		.byte	0x91
 7689 2e15 FA7C     		.sleb128 -390
 7690 2e17 1D       		.uleb128 0x1d
 7691 2e18 01       		.uleb128 0x1
 7692 2e19 50       		.byte	0x50
 7693 2e1a 02       		.uleb128 0x2
 7694 2e1b 75       		.byte	0x75
 7695 2e1c 0C       		.sleb128 12
 7696 2e1d 00       		.byte	0
 7697 2e1e 1E       		.uleb128 0x1e
 7698 2e1f 7C000000 		.4byte	.LVL259
 7699 2e23 EF350000 		.4byte	0x35ef
 7700 2e27 1E       		.uleb128 0x1e
 7701 2e28 82000000 		.4byte	.LVL260
 7702 2e2c F6350000 		.4byte	0x35f6
 7703 2e30 1C       		.uleb128 0x1c
 7704 2e31 88000000 		.4byte	.LVL261
 7705 2e35 FD350000 		.4byte	0x35fd
 7706 2e39 442E0000 		.4byte	0x2e44
 7707 2e3d 1D       		.uleb128 0x1d
 7708 2e3e 01       		.uleb128 0x1
 7709 2e3f 50       		.byte	0x50
ARM GAS  C:\Users\AHMED~1.ELE\AppData\Local\Temp\ccFUpfoi.s 			page 153


 7710 2e40 02       		.uleb128 0x2
 7711 2e41 74       		.byte	0x74
 7712 2e42 00       		.sleb128 0
 7713 2e43 00       		.byte	0
 7714 2e44 1E       		.uleb128 0x1e
 7715 2e45 9C000000 		.4byte	.LVL262
 7716 2e49 12360000 		.4byte	0x3612
 7717 2e4d 1C       		.uleb128 0x1c
 7718 2e4e A6000000 		.4byte	.LVL263
 7719 2e52 10330000 		.4byte	0x3310
 7720 2e56 682E0000 		.4byte	0x2e68
 7721 2e5a 1D       		.uleb128 0x1d
 7722 2e5b 01       		.uleb128 0x1
 7723 2e5c 51       		.byte	0x51
 7724 2e5d 03       		.uleb128 0x3
 7725 2e5e 0A       		.byte	0xa
 7726 2e5f 040C     		.2byte	0xc04
 7727 2e61 1D       		.uleb128 0x1d
 7728 2e62 01       		.uleb128 0x1
 7729 2e63 50       		.byte	0x50
 7730 2e64 02       		.uleb128 0x2
 7731 2e65 08       		.byte	0x8
 7732 2e66 92       		.byte	0x92
 7733 2e67 00       		.byte	0
 7734 2e68 1C       		.uleb128 0x1c
 7735 2e69 B6000000 		.4byte	.LVL264
 7736 2e6d 10330000 		.4byte	0x3310
 7737 2e71 832E0000 		.4byte	0x2e83
 7738 2e75 1D       		.uleb128 0x1d
 7739 2e76 01       		.uleb128 0x1
 7740 2e77 51       		.byte	0x51
 7741 2e78 03       		.uleb128 0x3
 7742 2e79 0A       		.byte	0xa
 7743 2e7a 040C     		.2byte	0xc04
 7744 2e7c 1D       		.uleb128 0x1d
 7745 2e7d 01       		.uleb128 0x1
 7746 2e7e 50       		.byte	0x50
 7747 2e7f 02       		.uleb128 0x2
 7748 2e80 08       		.byte	0x8
 7749 2e81 92       		.byte	0x92
 7750 2e82 00       		.byte	0
 7751 2e83 1E       		.uleb128 0x1e
 7752 2e84 BE000000 		.4byte	.LVL265
 7753 2e88 19360000 		.4byte	0x3619
 7754 2e8c 1E       		.uleb128 0x1e
 7755 2e8d C4000000 		.4byte	.LVL266
 7756 2e91 19360000 		.4byte	0x3619
 7757 2e95 1C       		.uleb128 0x1c
 7758 2e96 CC000000 		.4byte	.LVL267
 7759 2e9a 2A360000 		.4byte	0x362a
 7760 2e9e AA2E0000 		.4byte	0x2eaa
 7761 2ea2 1D       		.uleb128 0x1d
 7762 2ea3 01       		.uleb128 0x1
 7763 2ea4 50       		.byte	0x50
 7764 2ea5 03       		.uleb128 0x3
 7765 2ea6 91       		.byte	0x91
 7766 2ea7 C87B     		.sleb128 -568
ARM GAS  C:\Users\AHMED~1.ELE\AppData\Local\Temp\ccFUpfoi.s 			page 154


 7767 2ea9 00       		.byte	0
 7768 2eaa 1C       		.uleb128 0x1c
 7769 2eab D8000000 		.4byte	.LVL268
 7770 2eaf 97330000 		.4byte	0x3397
 7771 2eb3 CA2E0000 		.4byte	0x2eca
 7772 2eb7 1D       		.uleb128 0x1d
 7773 2eb8 01       		.uleb128 0x1
 7774 2eb9 52       		.byte	0x52
 7775 2eba 01       		.uleb128 0x1
 7776 2ebb 33       		.byte	0x33
 7777 2ebc 1D       		.uleb128 0x1d
 7778 2ebd 01       		.uleb128 0x1
 7779 2ebe 51       		.byte	0x51
 7780 2ebf 03       		.uleb128 0x3
 7781 2ec0 91       		.byte	0x91
 7782 2ec1 C87B     		.sleb128 -568
 7783 2ec3 1D       		.uleb128 0x1d
 7784 2ec4 01       		.uleb128 0x1
 7785 2ec5 50       		.byte	0x50
 7786 2ec6 02       		.uleb128 0x2
 7787 2ec7 75       		.byte	0x75
 7788 2ec8 09       		.sleb128 9
 7789 2ec9 00       		.byte	0
 7790 2eca 1E       		.uleb128 0x1e
 7791 2ecb DC000000 		.4byte	.LVL269
 7792 2ecf F6200000 		.4byte	0x20f6
 7793 2ed3 1E       		.uleb128 0x1e
 7794 2ed4 E4000000 		.4byte	.LVL270
 7795 2ed8 3B360000 		.4byte	0x363b
 7796 2edc 1E       		.uleb128 0x1e
 7797 2edd F6000000 		.4byte	.LVL271
 7798 2ee1 55360000 		.4byte	0x3655
 7799 2ee5 1E       		.uleb128 0x1e
 7800 2ee6 FA000000 		.4byte	.LVL272
 7801 2eea 32230000 		.4byte	0x2332
 7802 2eee 1E       		.uleb128 0x1e
 7803 2eef 0A010000 		.4byte	.LVL275
 7804 2ef3 6F350000 		.4byte	0x356f
 7805 2ef7 1C       		.uleb128 0x1c
 7806 2ef8 20010000 		.4byte	.LVL276
 7807 2efc 35330000 		.4byte	0x3335
 7808 2f00 222F0000 		.4byte	0x2f22
 7809 2f04 1D       		.uleb128 0x1d
 7810 2f05 01       		.uleb128 0x1
 7811 2f06 53       		.byte	0x53
 7812 2f07 02       		.uleb128 0x2
 7813 2f08 74       		.byte	0x74
 7814 2f09 00       		.sleb128 0
 7815 2f0a 1D       		.uleb128 0x1d
 7816 2f0b 01       		.uleb128 0x1
 7817 2f0c 52       		.byte	0x52
 7818 2f0d 02       		.uleb128 0x2
 7819 2f0e 74       		.byte	0x74
 7820 2f0f 00       		.sleb128 0
 7821 2f10 1D       		.uleb128 0x1d
 7822 2f11 01       		.uleb128 0x1
 7823 2f12 51       		.byte	0x51
ARM GAS  C:\Users\AHMED~1.ELE\AppData\Local\Temp\ccFUpfoi.s 			page 155


 7824 2f13 01       		.uleb128 0x1
 7825 2f14 43       		.byte	0x43
 7826 2f15 1D       		.uleb128 0x1d
 7827 2f16 01       		.uleb128 0x1
 7828 2f17 50       		.byte	0x50
 7829 2f18 01       		.uleb128 0x1
 7830 2f19 3F       		.byte	0x3f
 7831 2f1a 1D       		.uleb128 0x1d
 7832 2f1b 02       		.uleb128 0x2
 7833 2f1c 7D       		.byte	0x7d
 7834 2f1d 00       		.sleb128 0
 7835 2f1e 02       		.uleb128 0x2
 7836 2f1f 74       		.byte	0x74
 7837 2f20 00       		.sleb128 0
 7838 2f21 00       		.byte	0
 7839 2f22 1E       		.uleb128 0x1e
 7840 2f23 24010000 		.4byte	.LVL277
 7841 2f27 5E330000 		.4byte	0x335e
 7842 2f2b 1E       		.uleb128 0x1e
 7843 2f2c 28010000 		.4byte	.LVL278
 7844 2f30 65330000 		.4byte	0x3365
 7845 2f34 1E       		.uleb128 0x1e
 7846 2f35 2C010000 		.4byte	.LVL279
 7847 2f39 5E330000 		.4byte	0x335e
 7848 2f3d 1E       		.uleb128 0x1e
 7849 2f3e 30010000 		.4byte	.LVL280
 7850 2f42 5C360000 		.4byte	0x365c
 7851 2f46 1C       		.uleb128 0x1c
 7852 2f47 36010000 		.4byte	.LVL281
 7853 2f4b 6C330000 		.4byte	0x336c
 7854 2f4f 5A2F0000 		.4byte	0x2f5a
 7855 2f53 1D       		.uleb128 0x1d
 7856 2f54 01       		.uleb128 0x1
 7857 2f55 50       		.byte	0x50
 7858 2f56 02       		.uleb128 0x2
 7859 2f57 76       		.byte	0x76
 7860 2f58 00       		.sleb128 0
 7861 2f59 00       		.byte	0
 7862 2f5a 1C       		.uleb128 0x1c
 7863 2f5b 44010000 		.4byte	.LVL282
 7864 2f5f 35330000 		.4byte	0x3335
 7865 2f63 852F0000 		.4byte	0x2f85
 7866 2f67 1D       		.uleb128 0x1d
 7867 2f68 01       		.uleb128 0x1
 7868 2f69 53       		.byte	0x53
 7869 2f6a 02       		.uleb128 0x2
 7870 2f6b 74       		.byte	0x74
 7871 2f6c 00       		.sleb128 0
 7872 2f6d 1D       		.uleb128 0x1d
 7873 2f6e 01       		.uleb128 0x1
 7874 2f6f 52       		.byte	0x52
 7875 2f70 02       		.uleb128 0x2
 7876 2f71 74       		.byte	0x74
 7877 2f72 00       		.sleb128 0
 7878 2f73 1D       		.uleb128 0x1d
 7879 2f74 01       		.uleb128 0x1
 7880 2f75 51       		.byte	0x51
ARM GAS  C:\Users\AHMED~1.ELE\AppData\Local\Temp\ccFUpfoi.s 			page 156


 7881 2f76 01       		.uleb128 0x1
 7882 2f77 43       		.byte	0x43
 7883 2f78 1D       		.uleb128 0x1d
 7884 2f79 01       		.uleb128 0x1
 7885 2f7a 50       		.byte	0x50
 7886 2f7b 01       		.uleb128 0x1
 7887 2f7c 3F       		.byte	0x3f
 7888 2f7d 1D       		.uleb128 0x1d
 7889 2f7e 02       		.uleb128 0x2
 7890 2f7f 7D       		.byte	0x7d
 7891 2f80 00       		.sleb128 0
 7892 2f81 02       		.uleb128 0x2
 7893 2f82 74       		.byte	0x74
 7894 2f83 00       		.sleb128 0
 7895 2f84 00       		.byte	0
 7896 2f85 1E       		.uleb128 0x1e
 7897 2f86 50010000 		.4byte	.LVL285
 7898 2f8a 2A330000 		.4byte	0x332a
 7899 2f8e 1C       		.uleb128 0x1c
 7900 2f8f 60010000 		.4byte	.LVL287
 7901 2f93 63360000 		.4byte	0x3663
 7902 2f97 A92F0000 		.4byte	0x2fa9
 7903 2f9b 1D       		.uleb128 0x1d
 7904 2f9c 01       		.uleb128 0x1
 7905 2f9d 51       		.byte	0x51
 7906 2f9e 03       		.uleb128 0x3
 7907 2f9f 91       		.byte	0x91
 7908 2fa0 CC7B     		.sleb128 -564
 7909 2fa2 1D       		.uleb128 0x1d
 7910 2fa3 01       		.uleb128 0x1
 7911 2fa4 50       		.byte	0x50
 7912 2fa5 02       		.uleb128 0x2
 7913 2fa6 76       		.byte	0x76
 7914 2fa7 00       		.sleb128 0
 7915 2fa8 00       		.byte	0
 7916 2fa9 1C       		.uleb128 0x1c
 7917 2faa 70010000 		.4byte	.LVL288
 7918 2fae 6C330000 		.4byte	0x336c
 7919 2fb2 BC2F0000 		.4byte	0x2fbc
 7920 2fb6 1D       		.uleb128 0x1d
 7921 2fb7 01       		.uleb128 0x1
 7922 2fb8 50       		.byte	0x50
 7923 2fb9 01       		.uleb128 0x1
 7924 2fba 32       		.byte	0x32
 7925 2fbb 00       		.byte	0
 7926 2fbc 1C       		.uleb128 0x1c
 7927 2fbd 92010000 		.4byte	.LVL292
 7928 2fc1 35330000 		.4byte	0x3335
 7929 2fc5 E92F0000 		.4byte	0x2fe9
 7930 2fc9 1D       		.uleb128 0x1d
 7931 2fca 01       		.uleb128 0x1
 7932 2fcb 53       		.byte	0x53
 7933 2fcc 02       		.uleb128 0x2
 7934 2fcd 76       		.byte	0x76
 7935 2fce 00       		.sleb128 0
 7936 2fcf 1D       		.uleb128 0x1d
 7937 2fd0 01       		.uleb128 0x1
ARM GAS  C:\Users\AHMED~1.ELE\AppData\Local\Temp\ccFUpfoi.s 			page 157


 7938 2fd1 52       		.byte	0x52
 7939 2fd2 03       		.uleb128 0x3
 7940 2fd3 0A       		.byte	0xa
 7941 2fd4 0003     		.2byte	0x300
 7942 2fd6 1D       		.uleb128 0x1d
 7943 2fd7 01       		.uleb128 0x1
 7944 2fd8 51       		.byte	0x51
 7945 2fd9 02       		.uleb128 0x2
 7946 2fda 08       		.byte	0x8
 7947 2fdb 23       		.byte	0x23
 7948 2fdc 1D       		.uleb128 0x1d
 7949 2fdd 01       		.uleb128 0x1
 7950 2fde 50       		.byte	0x50
 7951 2fdf 01       		.uleb128 0x1
 7952 2fe0 3F       		.byte	0x3f
 7953 2fe1 1D       		.uleb128 0x1d
 7954 2fe2 02       		.uleb128 0x2
 7955 2fe3 7D       		.byte	0x7d
 7956 2fe4 00       		.sleb128 0
 7957 2fe5 02       		.uleb128 0x2
 7958 2fe6 76       		.byte	0x76
 7959 2fe7 00       		.sleb128 0
 7960 2fe8 00       		.byte	0
 7961 2fe9 1C       		.uleb128 0x1c
 7962 2fea A0010000 		.4byte	.LVL293
 7963 2fee 7D360000 		.4byte	0x367d
 7964 2ff2 05300000 		.4byte	0x3005
 7965 2ff6 1D       		.uleb128 0x1d
 7966 2ff7 01       		.uleb128 0x1
 7967 2ff8 52       		.byte	0x52
 7968 2ff9 03       		.uleb128 0x3
 7969 2ffa 0A       		.byte	0xa
 7970 2ffb 0210     		.2byte	0x1002
 7971 2ffd 1D       		.uleb128 0x1d
 7972 2ffe 01       		.uleb128 0x1
 7973 2fff 51       		.byte	0x51
 7974 3000 03       		.uleb128 0x3
 7975 3001 0A       		.byte	0xa
 7976 3002 0005     		.2byte	0x500
 7977 3004 00       		.byte	0
 7978 3005 1C       		.uleb128 0x1c
 7979 3006 AE010000 		.4byte	.LVL294
 7980 300a 35330000 		.4byte	0x3335
 7981 300e 30300000 		.4byte	0x3030
 7982 3012 1D       		.uleb128 0x1d
 7983 3013 01       		.uleb128 0x1
 7984 3014 53       		.byte	0x53
 7985 3015 02       		.uleb128 0x2
 7986 3016 76       		.byte	0x76
 7987 3017 00       		.sleb128 0
 7988 3018 1D       		.uleb128 0x1d
 7989 3019 01       		.uleb128 0x1
 7990 301a 52       		.byte	0x52
 7991 301b 02       		.uleb128 0x2
 7992 301c 76       		.byte	0x76
 7993 301d 00       		.sleb128 0
 7994 301e 1D       		.uleb128 0x1d
ARM GAS  C:\Users\AHMED~1.ELE\AppData\Local\Temp\ccFUpfoi.s 			page 158


 7995 301f 01       		.uleb128 0x1
 7996 3020 51       		.byte	0x51
 7997 3021 01       		.uleb128 0x1
 7998 3022 43       		.byte	0x43
 7999 3023 1D       		.uleb128 0x1d
 8000 3024 01       		.uleb128 0x1
 8001 3025 50       		.byte	0x50
 8002 3026 01       		.uleb128 0x1
 8003 3027 3F       		.byte	0x3f
 8004 3028 1D       		.uleb128 0x1d
 8005 3029 02       		.uleb128 0x2
 8006 302a 7D       		.byte	0x7d
 8007 302b 00       		.sleb128 0
 8008 302c 02       		.uleb128 0x2
 8009 302d 76       		.byte	0x76
 8010 302e 00       		.sleb128 0
 8011 302f 00       		.byte	0
 8012 3030 1E       		.uleb128 0x1e
 8013 3031 B6010000 		.4byte	.LVL295
 8014 3035 98360000 		.4byte	0x3698
 8015 3039 1E       		.uleb128 0x1e
 8016 303a BA010000 		.4byte	.LVL296
 8017 303e 9F360000 		.4byte	0x369f
 8018 3042 1E       		.uleb128 0x1e
 8019 3043 BE010000 		.4byte	.LVL297
 8020 3047 A6360000 		.4byte	0x36a6
 8021 304b 1C       		.uleb128 0x1c
 8022 304c CC010000 		.4byte	.LVL298
 8023 3050 35330000 		.4byte	0x3335
 8024 3054 76300000 		.4byte	0x3076
 8025 3058 1D       		.uleb128 0x1d
 8026 3059 01       		.uleb128 0x1
 8027 305a 53       		.byte	0x53
 8028 305b 02       		.uleb128 0x2
 8029 305c 76       		.byte	0x76
 8030 305d 00       		.sleb128 0
 8031 305e 1D       		.uleb128 0x1d
 8032 305f 01       		.uleb128 0x1
 8033 3060 52       		.byte	0x52
 8034 3061 02       		.uleb128 0x2
 8035 3062 76       		.byte	0x76
 8036 3063 00       		.sleb128 0
 8037 3064 1D       		.uleb128 0x1d
 8038 3065 01       		.uleb128 0x1
 8039 3066 51       		.byte	0x51
 8040 3067 01       		.uleb128 0x1
 8041 3068 43       		.byte	0x43
 8042 3069 1D       		.uleb128 0x1d
 8043 306a 01       		.uleb128 0x1
 8044 306b 50       		.byte	0x50
 8045 306c 01       		.uleb128 0x1
 8046 306d 3F       		.byte	0x3f
 8047 306e 1D       		.uleb128 0x1d
 8048 306f 02       		.uleb128 0x2
 8049 3070 7D       		.byte	0x7d
 8050 3071 00       		.sleb128 0
 8051 3072 02       		.uleb128 0x2
ARM GAS  C:\Users\AHMED~1.ELE\AppData\Local\Temp\ccFUpfoi.s 			page 159


 8052 3073 76       		.byte	0x76
 8053 3074 00       		.sleb128 0
 8054 3075 00       		.byte	0
 8055 3076 1C       		.uleb128 0x1c
 8056 3077 D4010000 		.4byte	.LVL299
 8057 307b 10330000 		.4byte	0x3310
 8058 307f 8A300000 		.4byte	0x308a
 8059 3083 1D       		.uleb128 0x1d
 8060 3084 01       		.uleb128 0x1
 8061 3085 50       		.byte	0x50
 8062 3086 02       		.uleb128 0x2
 8063 3087 08       		.byte	0x8
 8064 3088 94       		.byte	0x94
 8065 3089 00       		.byte	0
 8066 308a 1C       		.uleb128 0x1c
 8067 308b DC010000 		.4byte	.LVL300
 8068 308f 10330000 		.4byte	0x3310
 8069 3093 9E300000 		.4byte	0x309e
 8070 3097 1D       		.uleb128 0x1d
 8071 3098 01       		.uleb128 0x1
 8072 3099 50       		.byte	0x50
 8073 309a 02       		.uleb128 0x2
 8074 309b 08       		.byte	0x8
 8075 309c 94       		.byte	0x94
 8076 309d 00       		.byte	0
 8077 309e 1E       		.uleb128 0x1e
 8078 309f E4010000 		.4byte	.LVL303
 8079 30a3 AD360000 		.4byte	0x36ad
 8080 30a7 1E       		.uleb128 0x1e
 8081 30a8 E8010000 		.4byte	.LVL304
 8082 30ac 2A330000 		.4byte	0x332a
 8083 30b0 1E       		.uleb128 0x1e
 8084 30b1 EC010000 		.4byte	.LVL305
 8085 30b5 B8360000 		.4byte	0x36b8
 8086 30b9 1E       		.uleb128 0x1e
 8087 30ba F0010000 		.4byte	.LVL306
 8088 30be B7350000 		.4byte	0x35b7
 8089 30c2 00       		.byte	0
 8090 30c3 21       		.uleb128 0x21
 8091 30c4 3C310000 		.4byte	.LASF858
 8092 30c8 01       		.byte	0x1
 8093 30c9 3A       		.byte	0x3a
 8094 30ca D4300000 		.4byte	0x30d4
 8095 30ce 05       		.uleb128 0x5
 8096 30cf 03       		.byte	0x3
 8097 30d0 00000000 		.4byte	psTxBuf
 8098 30d4 06       		.uleb128 0x6
 8099 30d5 04       		.byte	0x4
 8100 30d6 6C160000 		.4byte	0x166c
 8101 30da 21       		.uleb128 0x21
 8102 30db 010B0000 		.4byte	.LASF859
 8103 30df 01       		.byte	0x1
 8104 30e0 3B       		.byte	0x3b
 8105 30e1 D4300000 		.4byte	0x30d4
 8106 30e5 05       		.uleb128 0x5
 8107 30e6 03       		.byte	0x3
 8108 30e7 04000000 		.4byte	psRxBuf
ARM GAS  C:\Users\AHMED~1.ELE\AppData\Local\Temp\ccFUpfoi.s 			page 160


 8109 30eb 21       		.uleb128 0x21
 8110 30ec 362C0000 		.4byte	.LASF860
 8111 30f0 01       		.byte	0x1
 8112 30f1 40       		.byte	0x40
 8113 30f2 FC300000 		.4byte	0x30fc
 8114 30f6 05       		.uleb128 0x5
 8115 30f7 03       		.byte	0x3
 8116 30f8 08000000 		.4byte	psBatchNo
 8117 30fc 06       		.uleb128 0x6
 8118 30fd 04       		.byte	0x4
 8119 30fe D1200000 		.4byte	0x20d1
 8120 3102 21       		.uleb128 0x21
 8121 3103 C1080000 		.4byte	.LASF861
 8122 3107 01       		.byte	0x1
 8123 3108 41       		.byte	0x41
 8124 3109 25000000 		.4byte	0x25
 8125 310d 05       		.uleb128 0x5
 8126 310e 03       		.byte	0x3
 8127 310f 0C000000 		.4byte	iSaveAcqCount
 8128 3113 21       		.uleb128 0x21
 8129 3114 46290000 		.4byte	.LASF862
 8130 3118 01       		.byte	0x1
 8131 3119 42       		.byte	0x42
 8132 311a 25000000 		.4byte	0x25
 8133 311e 05       		.uleb128 0x5
 8134 311f 03       		.byte	0x3
 8135 3120 10000000 		.4byte	iExParamCount
 8136 3124 28       		.uleb128 0x28
 8137 3125 5F120000 		.4byte	.LASF863
 8138 3129 0A       		.byte	0xa
 8139 312a 5C       		.byte	0x5c
 8140 312b 6F200000 		.4byte	0x206f
 8141 312f 28       		.uleb128 0x28
 8142 3130 0C280000 		.4byte	.LASF864
 8143 3134 0C       		.byte	0xc
 8144 3135 2F       		.byte	0x2f
 8145 3136 E8150000 		.4byte	0x15e8
 8146 313a 07       		.uleb128 0x7
 8147 313b A0200000 		.4byte	0x20a0
 8148 313f 45310000 		.4byte	0x3145
 8149 3143 29       		.uleb128 0x29
 8150 3144 00       		.byte	0
 8151 3145 28       		.uleb128 0x28
 8152 3146 14200000 		.4byte	.LASF865
 8153 314a 0B       		.byte	0xb
 8154 314b 3C       		.byte	0x3c
 8155 314c 50310000 		.4byte	0x3150
 8156 3150 09       		.uleb128 0x9
 8157 3151 3A310000 		.4byte	0x313a
 8158 3155 07       		.uleb128 0x7
 8159 3156 A7000000 		.4byte	0xa7
 8160 315a 60310000 		.4byte	0x3160
 8161 315e 29       		.uleb128 0x29
 8162 315f 00       		.byte	0
 8163 3160 28       		.uleb128 0x28
 8164 3161 E21F0000 		.4byte	.LASF866
 8165 3165 0D       		.byte	0xd
ARM GAS  C:\Users\AHMED~1.ELE\AppData\Local\Temp\ccFUpfoi.s 			page 161


 8166 3166 73       		.byte	0x73
 8167 3167 6B310000 		.4byte	0x316b
 8168 316b 09       		.uleb128 0x9
 8169 316c 55310000 		.4byte	0x3155
 8170 3170 28       		.uleb128 0x28
 8171 3171 34020000 		.4byte	.LASF867
 8172 3175 0E       		.byte	0xe
 8173 3176 43       		.byte	0x43
 8174 3177 7B310000 		.4byte	0x317b
 8175 317b 09       		.uleb128 0x9
 8176 317c 55310000 		.4byte	0x3155
 8177 3180 07       		.uleb128 0x7
 8178 3181 0E140000 		.4byte	0x140e
 8179 3185 90310000 		.4byte	0x3190
 8180 3189 08       		.uleb128 0x8
 8181 318a 76000000 		.4byte	0x76
 8182 318e 05       		.byte	0x5
 8183 318f 00       		.byte	0
 8184 3190 2A       		.uleb128 0x2a
 8185 3191 D01F0000 		.4byte	.LASF868
 8186 3195 01       		.byte	0x1
 8187 3196 48       		.byte	0x48
 8188 3197 A1310000 		.4byte	0x31a1
 8189 319b 05       		.uleb128 0x5
 8190 319c 03       		.byte	0x3
 8191 319d 00000000 		.4byte	KInitItem
 8192 31a1 09       		.uleb128 0x9
 8193 31a2 80310000 		.4byte	0x3180
 8194 31a6 2A       		.uleb128 0x2a
 8195 31a7 F5120000 		.4byte	.LASF869
 8196 31ab 01       		.byte	0x1
 8197 31ac 52       		.byte	0x52
 8198 31ad B7310000 		.4byte	0x31b7
 8199 31b1 05       		.uleb128 0x5
 8200 31b2 03       		.byte	0x3
 8201 31b3 00000000 		.4byte	KInitMenu
 8202 31b7 09       		.uleb128 0x9
 8203 31b8 3F140000 		.4byte	0x143f
 8204 31bc 2B       		.uleb128 0x2b
 8205 31bd 04330000 		.4byte	.LASF870
 8206 31c1 0F       		.byte	0xf
 8207 31c2 14       		.byte	0x14
 8208 31c3 EE000000 		.4byte	0xee
 8209 31c7 D6310000 		.4byte	0x31d6
 8210 31cb 2C       		.uleb128 0x2c
 8211 31cc EE000000 		.4byte	0xee
 8212 31d0 2C       		.uleb128 0x2c
 8213 31d1 BD000000 		.4byte	0xbd
 8214 31d5 00       		.byte	0
 8215 31d6 2B       		.uleb128 0x2b
 8216 31d7 12170000 		.4byte	.LASF871
 8217 31db 0F       		.byte	0xf
 8218 31dc 12       		.byte	0x12
 8219 31dd BD000000 		.4byte	0xbd
 8220 31e1 EB310000 		.4byte	0x31eb
 8221 31e5 2C       		.uleb128 0x2c
 8222 31e6 BD000000 		.4byte	0xbd
ARM GAS  C:\Users\AHMED~1.ELE\AppData\Local\Temp\ccFUpfoi.s 			page 162


 8223 31ea 00       		.byte	0
 8224 31eb 2B       		.uleb128 0x2b
 8225 31ec 0A0A0000 		.4byte	.LASF872
 8226 31f0 0F       		.byte	0xf
 8227 31f1 06       		.byte	0x6
 8228 31f2 BD000000 		.4byte	0xbd
 8229 31f6 00320000 		.4byte	0x3200
 8230 31fa 2C       		.uleb128 0x2c
 8231 31fb BD000000 		.4byte	0xbd
 8232 31ff 00       		.byte	0
 8233 3200 2D       		.uleb128 0x2d
 8234 3201 3C190000 		.4byte	.LASF876
 8235 3205 0F       		.byte	0xf
 8236 3206 15       		.byte	0x15
 8237 3207 EE000000 		.4byte	0xee
 8238 320b 2E       		.uleb128 0x2e
 8239 320c 63250000 		.4byte	.LASF873
 8240 3210 0F       		.byte	0xf
 8241 3211 08       		.byte	0x8
 8242 3212 21320000 		.4byte	0x3221
 8243 3216 2C       		.uleb128 0x2c
 8244 3217 EE000000 		.4byte	0xee
 8245 321b 2C       		.uleb128 0x2c
 8246 321c BD000000 		.4byte	0xbd
 8247 3220 00       		.byte	0
 8248 3221 2E       		.uleb128 0x2e
 8249 3222 E41D0000 		.4byte	.LASF874
 8250 3226 0F       		.byte	0xf
 8251 3227 09       		.byte	0x9
 8252 3228 32320000 		.4byte	0x3232
 8253 322c 2C       		.uleb128 0x2c
 8254 322d BD000000 		.4byte	0xbd
 8255 3231 00       		.byte	0
 8256 3232 2B       		.uleb128 0x2b
 8257 3233 AF010000 		.4byte	.LASF875
 8258 3237 0F       		.byte	0xf
 8259 3238 18       		.byte	0x18
 8260 3239 BD000000 		.4byte	0xbd
 8261 323d 47320000 		.4byte	0x3247
 8262 3241 2C       		.uleb128 0x2c
 8263 3242 BD000000 		.4byte	0xbd
 8264 3246 00       		.byte	0
 8265 3247 2F       		.uleb128 0x2f
 8266 3248 6C726300 		.ascii	"lrc\000"
 8267 324c 0F       		.byte	0xf
 8268 324d 41       		.byte	0x41
 8269 324e BD000000 		.4byte	0xbd
 8270 3252 61320000 		.4byte	0x3261
 8271 3256 2C       		.uleb128 0x2c
 8272 3257 EE000000 		.4byte	0xee
 8273 325b 2C       		.uleb128 0x2c
 8274 325c BD000000 		.4byte	0xbd
 8275 3260 00       		.byte	0
 8276 3261 2D       		.uleb128 0x2d
 8277 3262 FB020000 		.4byte	.LASF877
 8278 3266 0F       		.byte	0xf
 8279 3267 16       		.byte	0x16
ARM GAS  C:\Users\AHMED~1.ELE\AppData\Local\Temp\ccFUpfoi.s 			page 163


 8280 3268 BD000000 		.4byte	0xbd
 8281 326c 2D       		.uleb128 0x2d
 8282 326d D6350000 		.4byte	.LASF878
 8283 3271 0F       		.byte	0xf
 8284 3272 0E       		.byte	0xe
 8285 3273 BD000000 		.4byte	0xbd
 8286 3277 2B       		.uleb128 0x2b
 8287 3278 D82A0000 		.4byte	.LASF879
 8288 327c 0F       		.byte	0xf
 8289 327d 20       		.byte	0x20
 8290 327e BD000000 		.4byte	0xbd
 8291 3282 91320000 		.4byte	0x3291
 8292 3286 2C       		.uleb128 0x2c
 8293 3287 EE000000 		.4byte	0xee
 8294 328b 2C       		.uleb128 0x2c
 8295 328c BD000000 		.4byte	0xbd
 8296 3290 00       		.byte	0
 8297 3291 2D       		.uleb128 0x2d
 8298 3292 DA090000 		.4byte	.LASF880
 8299 3296 0F       		.byte	0xf
 8300 3297 0D       		.byte	0xd
 8301 3298 BD000000 		.4byte	0xbd
 8302 329c 2E       		.uleb128 0x2e
 8303 329d C52B0000 		.4byte	.LASF881
 8304 32a1 0A       		.byte	0xa
 8305 32a2 63       		.byte	0x63
 8306 32a3 B2320000 		.4byte	0x32b2
 8307 32a7 2C       		.uleb128 0x2c
 8308 32a8 B2000000 		.4byte	0xb2
 8309 32ac 2C       		.uleb128 0x2c
 8310 32ad 9C000000 		.4byte	0x9c
 8311 32b1 00       		.byte	0
 8312 32b2 2B       		.uleb128 0x2b
 8313 32b3 60160000 		.4byte	.LASF882
 8314 32b7 10       		.byte	0x10
 8315 32b8 16       		.byte	0x16
 8316 32b9 25000000 		.4byte	0x25
 8317 32bd D1320000 		.4byte	0x32d1
 8318 32c1 2C       		.uleb128 0x2c
 8319 32c2 310E0000 		.4byte	0xe31
 8320 32c6 2C       		.uleb128 0x2c
 8321 32c7 310E0000 		.4byte	0xe31
 8322 32cb 2C       		.uleb128 0x2c
 8323 32cc 2C000000 		.4byte	0x2c
 8324 32d0 00       		.byte	0
 8325 32d1 2D       		.uleb128 0x2d
 8326 32d2 95090000 		.4byte	.LASF883
 8327 32d6 0F       		.byte	0xf
 8328 32d7 11       		.byte	0x11
 8329 32d8 BD000000 		.4byte	0xbd
 8330 32dc 2B       		.uleb128 0x2b
 8331 32dd 00230000 		.4byte	.LASF884
 8332 32e1 0F       		.byte	0xf
 8333 32e2 4A       		.byte	0x4a
 8334 32e3 BD000000 		.4byte	0xbd
 8335 32e7 F1320000 		.4byte	0x32f1
 8336 32eb 2C       		.uleb128 0x2c
ARM GAS  C:\Users\AHMED~1.ELE\AppData\Local\Temp\ccFUpfoi.s 			page 164


 8337 32ec BD000000 		.4byte	0xbd
 8338 32f0 00       		.byte	0
 8339 32f1 2B       		.uleb128 0x2b
 8340 32f2 032B0000 		.4byte	.LASF885
 8341 32f6 10       		.byte	0x10
 8342 32f7 19       		.byte	0x19
 8343 32f8 7D000000 		.4byte	0x7d
 8344 32fc 10330000 		.4byte	0x3310
 8345 3300 2C       		.uleb128 0x2c
 8346 3301 7D000000 		.4byte	0x7d
 8347 3305 2C       		.uleb128 0x2c
 8348 3306 25000000 		.4byte	0x25
 8349 330a 2C       		.uleb128 0x2c
 8350 330b 2C000000 		.4byte	0x2c
 8351 330f 00       		.byte	0
 8352 3310 2B       		.uleb128 0x2b
 8353 3311 EA2C0000 		.4byte	.LASF886
 8354 3315 05       		.byte	0x5
 8355 3316 A2       		.byte	0xa2
 8356 3317 BD000000 		.4byte	0xbd
 8357 331b 2A330000 		.4byte	0x332a
 8358 331f 2C       		.uleb128 0x2c
 8359 3320 BD000000 		.4byte	0xbd
 8360 3324 2C       		.uleb128 0x2c
 8361 3325 BD000000 		.4byte	0xbd
 8362 3329 00       		.byte	0
 8363 332a 2D       		.uleb128 0x2d
 8364 332b AD020000 		.4byte	.LASF887
 8365 332f 11       		.byte	0x11
 8366 3330 B3       		.byte	0xb3
 8367 3331 25000000 		.4byte	0x25
 8368 3335 2B       		.uleb128 0x2b
 8369 3336 5E0E0000 		.4byte	.LASF888
 8370 333a 05       		.byte	0x5
 8371 333b A0       		.byte	0xa0
 8372 333c BD000000 		.4byte	0xbd
 8373 3340 5E330000 		.4byte	0x335e
 8374 3344 2C       		.uleb128 0x2c
 8375 3345 BD000000 		.4byte	0xbd
 8376 3349 2C       		.uleb128 0x2c
 8377 334a BD000000 		.4byte	0xbd
 8378 334e 2C       		.uleb128 0x2c
 8379 334f BD000000 		.4byte	0xbd
 8380 3353 2C       		.uleb128 0x2c
 8381 3354 BD000000 		.4byte	0xbd
 8382 3358 2C       		.uleb128 0x2c
 8383 3359 BD000000 		.4byte	0xbd
 8384 335d 00       		.byte	0
 8385 335e 30       		.uleb128 0x30
 8386 335f FF250000 		.4byte	.LASF889
 8387 3363 11       		.byte	0x11
 8388 3364 B8       		.byte	0xb8
 8389 3365 30       		.uleb128 0x30
 8390 3366 29330000 		.4byte	.LASF890
 8391 336a 11       		.byte	0x11
 8392 336b B9       		.byte	0xb9
 8393 336c 2E       		.uleb128 0x2e
ARM GAS  C:\Users\AHMED~1.ELE\AppData\Local\Temp\ccFUpfoi.s 			page 165


 8394 336d 270A0000 		.4byte	.LASF891
 8395 3371 12       		.byte	0x12
 8396 3372 42       		.byte	0x42
 8397 3373 7D330000 		.4byte	0x337d
 8398 3377 2C       		.uleb128 0x2c
 8399 3378 9C000000 		.4byte	0x9c
 8400 337c 00       		.byte	0
 8401 337d 2B       		.uleb128 0x2b
 8402 337e A02F0000 		.4byte	.LASF892
 8403 3382 11       		.byte	0x11
 8404 3383 CB       		.byte	0xcb
 8405 3384 9C000000 		.4byte	0x9c
 8406 3388 97330000 		.4byte	0x3397
 8407 338c 2C       		.uleb128 0x2c
 8408 338d BD000000 		.4byte	0xbd
 8409 3391 2C       		.uleb128 0x2c
 8410 3392 EE000000 		.4byte	0xee
 8411 3396 00       		.byte	0
 8412 3397 31       		.uleb128 0x31
 8413 3398 01320000 		.4byte	.LASF893
 8414 339c 7D000000 		.4byte	0x7d
 8415 33a0 B4330000 		.4byte	0x33b4
 8416 33a4 2C       		.uleb128 0x2c
 8417 33a5 7D000000 		.4byte	0x7d
 8418 33a9 2C       		.uleb128 0x2c
 8419 33aa 310E0000 		.4byte	0xe31
 8420 33ae 2C       		.uleb128 0x2c
 8421 33af 76000000 		.4byte	0x76
 8422 33b3 00       		.byte	0
 8423 33b4 2E       		.uleb128 0x2e
 8424 33b5 CC2C0000 		.4byte	.LASF894
 8425 33b9 07       		.byte	0x7
 8426 33ba 66       		.byte	0x66
 8427 33bb C5330000 		.4byte	0x33c5
 8428 33bf 2C       		.uleb128 0x2c
 8429 33c0 C5330000 		.4byte	0x33c5
 8430 33c4 00       		.byte	0
 8431 33c5 06       		.uleb128 0x6
 8432 33c6 04       		.byte	0x4
 8433 33c7 AD130000 		.4byte	0x13ad
 8434 33cb 2E       		.uleb128 0x2e
 8435 33cc 3C2B0000 		.4byte	.LASF895
 8436 33d0 07       		.byte	0x7
 8437 33d1 65       		.byte	0x65
 8438 33d2 DC330000 		.4byte	0x33dc
 8439 33d6 2C       		.uleb128 0x2c
 8440 33d7 C5330000 		.4byte	0x33c5
 8441 33db 00       		.byte	0
 8442 33dc 2B       		.uleb128 0x2b
 8443 33dd 162A0000 		.4byte	.LASF896
 8444 33e1 11       		.byte	0x11
 8445 33e2 A8       		.byte	0xa8
 8446 33e3 9C000000 		.4byte	0x9c
 8447 33e7 F1330000 		.4byte	0x33f1
 8448 33eb 2C       		.uleb128 0x2c
 8449 33ec F1330000 		.4byte	0x33f1
 8450 33f0 00       		.byte	0
ARM GAS  C:\Users\AHMED~1.ELE\AppData\Local\Temp\ccFUpfoi.s 			page 166


 8451 33f1 06       		.uleb128 0x6
 8452 33f2 04       		.byte	0x4
 8453 33f3 F2190000 		.4byte	0x19f2
 8454 33f7 2D       		.uleb128 0x2d
 8455 33f8 65190000 		.4byte	.LASF897
 8456 33fc 11       		.byte	0x11
 8457 33fd B1       		.byte	0xb1
 8458 33fe 25000000 		.4byte	0x25
 8459 3402 2B       		.uleb128 0x2b
 8460 3403 E5270000 		.4byte	.LASF898
 8461 3407 11       		.byte	0x11
 8462 3408 A9       		.byte	0xa9
 8463 3409 9C000000 		.4byte	0x9c
 8464 340d 1C340000 		.4byte	0x341c
 8465 3411 2C       		.uleb128 0x2c
 8466 3412 BD000000 		.4byte	0xbd
 8467 3416 2C       		.uleb128 0x2c
 8468 3417 1C340000 		.4byte	0x341c
 8469 341b 00       		.byte	0
 8470 341c 06       		.uleb128 0x6
 8471 341d 04       		.byte	0x4
 8472 341e CA1B0000 		.4byte	0x1bca
 8473 3422 2B       		.uleb128 0x2b
 8474 3423 5C310000 		.4byte	.LASF899
 8475 3427 11       		.byte	0x11
 8476 3428 AA       		.byte	0xaa
 8477 3429 9C000000 		.4byte	0x9c
 8478 342d 3C340000 		.4byte	0x343c
 8479 3431 2C       		.uleb128 0x2c
 8480 3432 BD000000 		.4byte	0xbd
 8481 3436 2C       		.uleb128 0x2c
 8482 3437 3C340000 		.4byte	0x343c
 8483 343b 00       		.byte	0
 8484 343c 06       		.uleb128 0x6
 8485 343d 04       		.byte	0x4
 8486 343e 331C0000 		.4byte	0x1c33
 8487 3442 2B       		.uleb128 0x2b
 8488 3443 1E2C0000 		.4byte	.LASF900
 8489 3447 0F       		.byte	0xf
 8490 3448 26       		.byte	0x26
 8491 3449 BD000000 		.4byte	0xbd
 8492 344d 61340000 		.4byte	0x3461
 8493 3451 2C       		.uleb128 0x2c
 8494 3452 EE000000 		.4byte	0xee
 8495 3456 2C       		.uleb128 0x2c
 8496 3457 BD000000 		.4byte	0xbd
 8497 345b 2C       		.uleb128 0x2c
 8498 345c BD000000 		.4byte	0xbd
 8499 3460 00       		.byte	0
 8500 3461 2B       		.uleb128 0x2b
 8501 3462 03120000 		.4byte	.LASF901
 8502 3466 11       		.byte	0x11
 8503 3467 AB       		.byte	0xab
 8504 3468 9C000000 		.4byte	0x9c
 8505 346c 7B340000 		.4byte	0x347b
 8506 3470 2C       		.uleb128 0x2c
 8507 3471 BD000000 		.4byte	0xbd
ARM GAS  C:\Users\AHMED~1.ELE\AppData\Local\Temp\ccFUpfoi.s 			page 167


 8508 3475 2C       		.uleb128 0x2c
 8509 3476 7B340000 		.4byte	0x347b
 8510 347a 00       		.byte	0
 8511 347b 06       		.uleb128 0x6
 8512 347c 04       		.byte	0x4
 8513 347d B61C0000 		.4byte	0x1cb6
 8514 3481 2B       		.uleb128 0x2b
 8515 3482 BC220000 		.4byte	.LASF902
 8516 3486 11       		.byte	0x11
 8517 3487 AC       		.byte	0xac
 8518 3488 9C000000 		.4byte	0x9c
 8519 348c 9B340000 		.4byte	0x349b
 8520 3490 2C       		.uleb128 0x2c
 8521 3491 BD000000 		.4byte	0xbd
 8522 3495 2C       		.uleb128 0x2c
 8523 3496 9B340000 		.4byte	0x349b
 8524 349a 00       		.byte	0
 8525 349b 06       		.uleb128 0x6
 8526 349c 04       		.byte	0x4
 8527 349d 9E1E0000 		.4byte	0x1e9e
 8528 34a1 2B       		.uleb128 0x2b
 8529 34a2 54290000 		.4byte	.LASF903
 8530 34a6 11       		.byte	0x11
 8531 34a7 AD       		.byte	0xad
 8532 34a8 9C000000 		.4byte	0x9c
 8533 34ac BB340000 		.4byte	0x34bb
 8534 34b0 2C       		.uleb128 0x2c
 8535 34b1 BD000000 		.4byte	0xbd
 8536 34b5 2C       		.uleb128 0x2c
 8537 34b6 BB340000 		.4byte	0x34bb
 8538 34ba 00       		.byte	0
 8539 34bb 06       		.uleb128 0x6
 8540 34bc 04       		.byte	0x4
 8541 34bd E01E0000 		.4byte	0x1ee0
 8542 34c1 2B       		.uleb128 0x2b
 8543 34c2 95260000 		.4byte	.LASF904
 8544 34c6 07       		.byte	0x7
 8545 34c7 8F       		.byte	0x8f
 8546 34c8 BD000000 		.4byte	0xbd
 8547 34cc D6340000 		.4byte	0x34d6
 8548 34d0 2C       		.uleb128 0x2c
 8549 34d1 7D000000 		.4byte	0x7d
 8550 34d5 00       		.byte	0
 8551 34d6 2E       		.uleb128 0x2e
 8552 34d7 C6040000 		.4byte	.LASF905
 8553 34db 13       		.byte	0x13
 8554 34dc 40       		.byte	0x40
 8555 34dd F1340000 		.4byte	0x34f1
 8556 34e1 2C       		.uleb128 0x2c
 8557 34e2 A7000000 		.4byte	0xa7
 8558 34e6 2C       		.uleb128 0x2c
 8559 34e7 EE000000 		.4byte	0xee
 8560 34eb 2C       		.uleb128 0x2c
 8561 34ec B2000000 		.4byte	0xb2
 8562 34f0 00       		.byte	0
 8563 34f1 2B       		.uleb128 0x2b
 8564 34f2 17280000 		.4byte	.LASF906
ARM GAS  C:\Users\AHMED~1.ELE\AppData\Local\Temp\ccFUpfoi.s 			page 168


 8565 34f6 07       		.byte	0x7
 8566 34f7 8E       		.byte	0x8e
 8567 34f8 B2000000 		.4byte	0xb2
 8568 34fc 06350000 		.4byte	0x3506
 8569 3500 2C       		.uleb128 0x2c
 8570 3501 7D000000 		.4byte	0x7d
 8571 3505 00       		.byte	0
 8572 3506 2E       		.uleb128 0x2e
 8573 3507 39000000 		.4byte	.LASF907
 8574 350b 13       		.byte	0x13
 8575 350c 3C       		.byte	0x3c
 8576 350d 17350000 		.4byte	0x3517
 8577 3511 2C       		.uleb128 0x2c
 8578 3512 A7000000 		.4byte	0xa7
 8579 3516 00       		.byte	0
 8580 3517 30       		.uleb128 0x30
 8581 3518 E2240000 		.4byte	.LASF908
 8582 351c 11       		.byte	0x11
 8583 351d BA       		.byte	0xba
 8584 351e 30       		.uleb128 0x30
 8585 351f 432B0000 		.4byte	.LASF909
 8586 3523 11       		.byte	0x11
 8587 3524 BB       		.byte	0xbb
 8588 3525 2B       		.uleb128 0x2b
 8589 3526 6A210000 		.4byte	.LASF910
 8590 352a 11       		.byte	0x11
 8591 352b AE       		.byte	0xae
 8592 352c 9C000000 		.4byte	0x9c
 8593 3530 3F350000 		.4byte	0x353f
 8594 3534 2C       		.uleb128 0x2c
 8595 3535 BD000000 		.4byte	0xbd
 8596 3539 2C       		.uleb128 0x2c
 8597 353a 3F350000 		.4byte	0x353f
 8598 353e 00       		.byte	0
 8599 353f 06       		.uleb128 0x6
 8600 3540 04       		.byte	0x4
 8601 3541 351F0000 		.4byte	0x1f35
 8602 3545 2B       		.uleb128 0x2b
 8603 3546 E72E0000 		.4byte	.LASF911
 8604 354a 11       		.byte	0x11
 8605 354b BF       		.byte	0xbf
 8606 354c 9C000000 		.4byte	0x9c
 8607 3550 5A350000 		.4byte	0x355a
 8608 3554 2C       		.uleb128 0x2c
 8609 3555 F1330000 		.4byte	0x33f1
 8610 3559 00       		.byte	0
 8611 355a 2B       		.uleb128 0x2b
 8612 355b 94240000 		.4byte	.LASF912
 8613 355f 07       		.byte	0x7
 8614 3560 68       		.byte	0x68
 8615 3561 A7000000 		.4byte	0xa7
 8616 3565 6F350000 		.4byte	0x356f
 8617 3569 2C       		.uleb128 0x2c
 8618 356a EE000000 		.4byte	0xee
 8619 356e 00       		.byte	0
 8620 356f 2D       		.uleb128 0x2d
 8621 3570 75070000 		.4byte	.LASF913
ARM GAS  C:\Users\AHMED~1.ELE\AppData\Local\Temp\ccFUpfoi.s 			page 169


 8622 3574 12       		.byte	0x12
 8623 3575 41       		.byte	0x41
 8624 3576 A7000000 		.4byte	0xa7
 8625 357a 2B       		.uleb128 0x2b
 8626 357b 23300000 		.4byte	.LASF914
 8627 357f 08       		.byte	0x8
 8628 3580 3B       		.byte	0x3b
 8629 3581 25000000 		.4byte	0x25
 8630 3585 94350000 		.4byte	0x3594
 8631 3589 2C       		.uleb128 0x2c
 8632 358a 94350000 		.4byte	0x3594
 8633 358e 2C       		.uleb128 0x2c
 8634 358f 25000000 		.4byte	0x25
 8635 3593 00       		.byte	0
 8636 3594 06       		.uleb128 0x6
 8637 3595 04       		.byte	0x4
 8638 3596 B7310000 		.4byte	0x31b7
 8639 359a 30       		.uleb128 0x30
 8640 359b C40A0000 		.4byte	.LASF915
 8641 359f 0A       		.byte	0xa
 8642 35a0 64       		.byte	0x64
 8643 35a1 2D       		.uleb128 0x2d
 8644 35a2 0A2B0000 		.4byte	.LASF916
 8645 35a6 12       		.byte	0x12
 8646 35a7 44       		.byte	0x44
 8647 35a8 9C000000 		.4byte	0x9c
 8648 35ac 2D       		.uleb128 0x2d
 8649 35ad 812A0000 		.4byte	.LASF917
 8650 35b1 12       		.byte	0x12
 8651 35b2 45       		.byte	0x45
 8652 35b3 9C000000 		.4byte	0x9c
 8653 35b7 30       		.uleb128 0x30
 8654 35b8 35140000 		.4byte	.LASF918
 8655 35bc 0A       		.byte	0xa
 8656 35bd 66       		.byte	0x66
 8657 35be 2E       		.uleb128 0x2e
 8658 35bf 59010000 		.4byte	.LASF919
 8659 35c3 07       		.byte	0x7
 8660 35c4 30       		.byte	0x30
 8661 35c5 D4350000 		.4byte	0x35d4
 8662 35c9 2C       		.uleb128 0x2c
 8663 35ca BD000000 		.4byte	0xbd
 8664 35ce 2C       		.uleb128 0x2c
 8665 35cf 9C000000 		.4byte	0x9c
 8666 35d3 00       		.byte	0
 8667 35d4 2B       		.uleb128 0x2b
 8668 35d5 F22E0000 		.4byte	.LASF920
 8669 35d9 12       		.byte	0x12
 8670 35da 3D       		.byte	0x3d
 8671 35db 9C000000 		.4byte	0x9c
 8672 35df E9350000 		.4byte	0x35e9
 8673 35e3 2C       		.uleb128 0x2c
 8674 35e4 E9350000 		.4byte	0x35e9
 8675 35e8 00       		.byte	0
 8676 35e9 06       		.uleb128 0x6
 8677 35ea 04       		.byte	0x4
 8678 35eb A6160000 		.4byte	0x16a6
ARM GAS  C:\Users\AHMED~1.ELE\AppData\Local\Temp\ccFUpfoi.s 			page 170


 8679 35ef 30       		.uleb128 0x30
 8680 35f0 2A320000 		.4byte	.LASF921
 8681 35f4 0C       		.byte	0xc
 8682 35f5 46       		.byte	0x46
 8683 35f6 30       		.uleb128 0x30
 8684 35f7 68150000 		.4byte	.LASF922
 8685 35fb 0A       		.byte	0xa
 8686 35fc 62       		.byte	0x62
 8687 35fd 2B       		.uleb128 0x2b
 8688 35fe 93010000 		.4byte	.LASF923
 8689 3602 0C       		.byte	0xc
 8690 3603 42       		.byte	0x42
 8691 3604 BD000000 		.4byte	0xbd
 8692 3608 12360000 		.4byte	0x3612
 8693 360c 2C       		.uleb128 0x2c
 8694 360d BD000000 		.4byte	0xbd
 8695 3611 00       		.byte	0
 8696 3612 30       		.uleb128 0x30
 8697 3613 96330000 		.4byte	.LASF924
 8698 3617 13       		.byte	0x13
 8699 3618 3E       		.byte	0x3e
 8700 3619 2E       		.uleb128 0x2e
 8701 361a 6C250000 		.4byte	.LASF925
 8702 361e 07       		.byte	0x7
 8703 361f 7F       		.byte	0x7f
 8704 3620 2A360000 		.4byte	0x362a
 8705 3624 2C       		.uleb128 0x2c
 8706 3625 7D000000 		.4byte	0x7d
 8707 3629 00       		.byte	0
 8708 362a 2E       		.uleb128 0x2e
 8709 362b 630D0000 		.4byte	.LASF926
 8710 362f 12       		.byte	0x12
 8711 3630 53       		.byte	0x53
 8712 3631 3B360000 		.4byte	0x363b
 8713 3635 2C       		.uleb128 0x2c
 8714 3636 7D000000 		.4byte	0x7d
 8715 363a 00       		.byte	0
 8716 363b 2B       		.uleb128 0x2b
 8717 363c 9F110000 		.4byte	.LASF927
 8718 3640 0C       		.byte	0xc
 8719 3641 43       		.byte	0x43
 8720 3642 BD000000 		.4byte	0xbd
 8721 3646 55360000 		.4byte	0x3655
 8722 364a 2C       		.uleb128 0x2c
 8723 364b D4300000 		.4byte	0x30d4
 8724 364f 2C       		.uleb128 0x2c
 8725 3650 D4300000 		.4byte	0x30d4
 8726 3654 00       		.byte	0
 8727 3655 30       		.uleb128 0x30
 8728 3656 46300000 		.4byte	.LASF928
 8729 365a 12       		.byte	0x12
 8730 365b 54       		.byte	0x54
 8731 365c 30       		.uleb128 0x30
 8732 365d 2B100000 		.4byte	.LASF929
 8733 3661 11       		.byte	0x11
 8734 3662 BC       		.byte	0xbc
 8735 3663 2B       		.uleb128 0x2b
ARM GAS  C:\Users\AHMED~1.ELE\AppData\Local\Temp\ccFUpfoi.s 			page 171


 8736 3664 2B380000 		.4byte	.LASF930
 8737 3668 11       		.byte	0x11
 8738 3669 C2       		.byte	0xc2
 8739 366a 9C000000 		.4byte	0x9c
 8740 366e 7D360000 		.4byte	0x367d
 8741 3672 2C       		.uleb128 0x2c
 8742 3673 BD000000 		.4byte	0xbd
 8743 3677 2C       		.uleb128 0x2c
 8744 3678 7B340000 		.4byte	0x347b
 8745 367c 00       		.byte	0
 8746 367d 2E       		.uleb128 0x2e
 8747 367e C61C0000 		.4byte	.LASF931
 8748 3682 07       		.byte	0x7
 8749 3683 57       		.byte	0x57
 8750 3684 98360000 		.4byte	0x3698
 8751 3688 2C       		.uleb128 0x2c
 8752 3689 D3000000 		.4byte	0xd3
 8753 368d 2C       		.uleb128 0x2c
 8754 368e BD000000 		.4byte	0xbd
 8755 3692 2C       		.uleb128 0x2c
 8756 3693 BD000000 		.4byte	0xbd
 8757 3697 00       		.byte	0
 8758 3698 30       		.uleb128 0x30
 8759 3699 C3030000 		.4byte	.LASF932
 8760 369d 13       		.byte	0x13
 8761 369e 41       		.byte	0x41
 8762 369f 30       		.uleb128 0x30
 8763 36a0 FC320000 		.4byte	.LASF933
 8764 36a4 13       		.byte	0x13
 8765 36a5 44       		.byte	0x44
 8766 36a6 30       		.uleb128 0x30
 8767 36a7 C6190000 		.4byte	.LASF934
 8768 36ab 13       		.byte	0x13
 8769 36ac 3F       		.byte	0x3f
 8770 36ad 2D       		.uleb128 0x2d
 8771 36ae 7D020000 		.4byte	.LASF935
 8772 36b2 0C       		.byte	0xc
 8773 36b3 45       		.byte	0x45
 8774 36b4 BD000000 		.4byte	0xbd
 8775 36b8 32       		.uleb128 0x32
 8776 36b9 411E0000 		.4byte	.LASF936
 8777 36bd 14       		.byte	0x14
 8778 36be 41       		.byte	0x41
 8779 36bf 9C000000 		.4byte	0x9c
 8780 36c3 2C       		.uleb128 0x2c
 8781 36c4 25000000 		.4byte	0x25
 8782 36c8 00       		.byte	0
 8783 36c9 00       		.byte	0
 8784              		.section	.debug_abbrev,"",%progbits
 8785              	.Ldebug_abbrev0:
 8786 0000 01       		.uleb128 0x1
 8787 0001 11       		.uleb128 0x11
 8788 0002 01       		.byte	0x1
 8789 0003 25       		.uleb128 0x25
 8790 0004 0E       		.uleb128 0xe
 8791 0005 13       		.uleb128 0x13
 8792 0006 0B       		.uleb128 0xb
ARM GAS  C:\Users\AHMED~1.ELE\AppData\Local\Temp\ccFUpfoi.s 			page 172


 8793 0007 03       		.uleb128 0x3
 8794 0008 0E       		.uleb128 0xe
 8795 0009 1B       		.uleb128 0x1b
 8796 000a 0E       		.uleb128 0xe
 8797 000b 55       		.uleb128 0x55
 8798 000c 17       		.uleb128 0x17
 8799 000d 11       		.uleb128 0x11
 8800 000e 01       		.uleb128 0x1
 8801 000f 10       		.uleb128 0x10
 8802 0010 17       		.uleb128 0x17
 8803 0011 00       		.byte	0
 8804 0012 00       		.byte	0
 8805 0013 02       		.uleb128 0x2
 8806 0014 24       		.uleb128 0x24
 8807 0015 00       		.byte	0
 8808 0016 0B       		.uleb128 0xb
 8809 0017 0B       		.uleb128 0xb
 8810 0018 3E       		.uleb128 0x3e
 8811 0019 0B       		.uleb128 0xb
 8812 001a 03       		.uleb128 0x3
 8813 001b 08       		.uleb128 0x8
 8814 001c 00       		.byte	0
 8815 001d 00       		.byte	0
 8816 001e 03       		.uleb128 0x3
 8817 001f 16       		.uleb128 0x16
 8818 0020 00       		.byte	0
 8819 0021 03       		.uleb128 0x3
 8820 0022 0E       		.uleb128 0xe
 8821 0023 3A       		.uleb128 0x3a
 8822 0024 0B       		.uleb128 0xb
 8823 0025 3B       		.uleb128 0x3b
 8824 0026 0B       		.uleb128 0xb
 8825 0027 49       		.uleb128 0x49
 8826 0028 13       		.uleb128 0x13
 8827 0029 00       		.byte	0
 8828 002a 00       		.byte	0
 8829 002b 04       		.uleb128 0x4
 8830 002c 24       		.uleb128 0x24
 8831 002d 00       		.byte	0
 8832 002e 0B       		.uleb128 0xb
 8833 002f 0B       		.uleb128 0xb
 8834 0030 3E       		.uleb128 0x3e
 8835 0031 0B       		.uleb128 0xb
 8836 0032 03       		.uleb128 0x3
 8837 0033 0E       		.uleb128 0xe
 8838 0034 00       		.byte	0
 8839 0035 00       		.byte	0
 8840 0036 05       		.uleb128 0x5
 8841 0037 0F       		.uleb128 0xf
 8842 0038 00       		.byte	0
 8843 0039 0B       		.uleb128 0xb
 8844 003a 0B       		.uleb128 0xb
 8845 003b 00       		.byte	0
 8846 003c 00       		.byte	0
 8847 003d 06       		.uleb128 0x6
 8848 003e 0F       		.uleb128 0xf
 8849 003f 00       		.byte	0
ARM GAS  C:\Users\AHMED~1.ELE\AppData\Local\Temp\ccFUpfoi.s 			page 173


 8850 0040 0B       		.uleb128 0xb
 8851 0041 0B       		.uleb128 0xb
 8852 0042 49       		.uleb128 0x49
 8853 0043 13       		.uleb128 0x13
 8854 0044 00       		.byte	0
 8855 0045 00       		.byte	0
 8856 0046 07       		.uleb128 0x7
 8857 0047 01       		.uleb128 0x1
 8858 0048 01       		.byte	0x1
 8859 0049 49       		.uleb128 0x49
 8860 004a 13       		.uleb128 0x13
 8861 004b 01       		.uleb128 0x1
 8862 004c 13       		.uleb128 0x13
 8863 004d 00       		.byte	0
 8864 004e 00       		.byte	0
 8865 004f 08       		.uleb128 0x8
 8866 0050 21       		.uleb128 0x21
 8867 0051 00       		.byte	0
 8868 0052 49       		.uleb128 0x49
 8869 0053 13       		.uleb128 0x13
 8870 0054 2F       		.uleb128 0x2f
 8871 0055 0B       		.uleb128 0xb
 8872 0056 00       		.byte	0
 8873 0057 00       		.byte	0
 8874 0058 09       		.uleb128 0x9
 8875 0059 26       		.uleb128 0x26
 8876 005a 00       		.byte	0
 8877 005b 49       		.uleb128 0x49
 8878 005c 13       		.uleb128 0x13
 8879 005d 00       		.byte	0
 8880 005e 00       		.byte	0
 8881 005f 0A       		.uleb128 0xa
 8882 0060 04       		.uleb128 0x4
 8883 0061 01       		.byte	0x1
 8884 0062 03       		.uleb128 0x3
 8885 0063 0E       		.uleb128 0xe
 8886 0064 0B       		.uleb128 0xb
 8887 0065 0B       		.uleb128 0xb
 8888 0066 3A       		.uleb128 0x3a
 8889 0067 0B       		.uleb128 0xb
 8890 0068 3B       		.uleb128 0x3b
 8891 0069 05       		.uleb128 0x5
 8892 006a 01       		.uleb128 0x1
 8893 006b 13       		.uleb128 0x13
 8894 006c 00       		.byte	0
 8895 006d 00       		.byte	0
 8896 006e 0B       		.uleb128 0xb
 8897 006f 28       		.uleb128 0x28
 8898 0070 00       		.byte	0
 8899 0071 03       		.uleb128 0x3
 8900 0072 0E       		.uleb128 0xe
 8901 0073 1C       		.uleb128 0x1c
 8902 0074 0D       		.uleb128 0xd
 8903 0075 00       		.byte	0
 8904 0076 00       		.byte	0
 8905 0077 0C       		.uleb128 0xc
 8906 0078 26       		.uleb128 0x26
ARM GAS  C:\Users\AHMED~1.ELE\AppData\Local\Temp\ccFUpfoi.s 			page 174


 8907 0079 00       		.byte	0
 8908 007a 00       		.byte	0
 8909 007b 00       		.byte	0
 8910 007c 0D       		.uleb128 0xd
 8911 007d 04       		.uleb128 0x4
 8912 007e 01       		.byte	0x1
 8913 007f 0B       		.uleb128 0xb
 8914 0080 0B       		.uleb128 0xb
 8915 0081 3A       		.uleb128 0x3a
 8916 0082 0B       		.uleb128 0xb
 8917 0083 3B       		.uleb128 0x3b
 8918 0084 05       		.uleb128 0x5
 8919 0085 01       		.uleb128 0x1
 8920 0086 13       		.uleb128 0x13
 8921 0087 00       		.byte	0
 8922 0088 00       		.byte	0
 8923 0089 0E       		.uleb128 0xe
 8924 008a 13       		.uleb128 0x13
 8925 008b 01       		.byte	0x1
 8926 008c 03       		.uleb128 0x3
 8927 008d 0E       		.uleb128 0xe
 8928 008e 0B       		.uleb128 0xb
 8929 008f 0B       		.uleb128 0xb
 8930 0090 3A       		.uleb128 0x3a
 8931 0091 0B       		.uleb128 0xb
 8932 0092 3B       		.uleb128 0x3b
 8933 0093 05       		.uleb128 0x5
 8934 0094 01       		.uleb128 0x1
 8935 0095 13       		.uleb128 0x13
 8936 0096 00       		.byte	0
 8937 0097 00       		.byte	0
 8938 0098 0F       		.uleb128 0xf
 8939 0099 0D       		.uleb128 0xd
 8940 009a 00       		.byte	0
 8941 009b 03       		.uleb128 0x3
 8942 009c 0E       		.uleb128 0xe
 8943 009d 3A       		.uleb128 0x3a
 8944 009e 0B       		.uleb128 0xb
 8945 009f 3B       		.uleb128 0x3b
 8946 00a0 05       		.uleb128 0x5
 8947 00a1 49       		.uleb128 0x49
 8948 00a2 13       		.uleb128 0x13
 8949 00a3 38       		.uleb128 0x38
 8950 00a4 0B       		.uleb128 0xb
 8951 00a5 00       		.byte	0
 8952 00a6 00       		.byte	0
 8953 00a7 10       		.uleb128 0x10
 8954 00a8 13       		.uleb128 0x13
 8955 00a9 01       		.byte	0x1
 8956 00aa 0B       		.uleb128 0xb
 8957 00ab 05       		.uleb128 0x5
 8958 00ac 3A       		.uleb128 0x3a
 8959 00ad 0B       		.uleb128 0xb
 8960 00ae 3B       		.uleb128 0x3b
 8961 00af 0B       		.uleb128 0xb
 8962 00b0 01       		.uleb128 0x1
 8963 00b1 13       		.uleb128 0x13
ARM GAS  C:\Users\AHMED~1.ELE\AppData\Local\Temp\ccFUpfoi.s 			page 175


 8964 00b2 00       		.byte	0
 8965 00b3 00       		.byte	0
 8966 00b4 11       		.uleb128 0x11
 8967 00b5 0D       		.uleb128 0xd
 8968 00b6 00       		.byte	0
 8969 00b7 03       		.uleb128 0x3
 8970 00b8 0E       		.uleb128 0xe
 8971 00b9 3A       		.uleb128 0x3a
 8972 00ba 0B       		.uleb128 0xb
 8973 00bb 3B       		.uleb128 0x3b
 8974 00bc 0B       		.uleb128 0xb
 8975 00bd 49       		.uleb128 0x49
 8976 00be 13       		.uleb128 0x13
 8977 00bf 38       		.uleb128 0x38
 8978 00c0 0B       		.uleb128 0xb
 8979 00c1 00       		.byte	0
 8980 00c2 00       		.byte	0
 8981 00c3 12       		.uleb128 0x12
 8982 00c4 0D       		.uleb128 0xd
 8983 00c5 00       		.byte	0
 8984 00c6 03       		.uleb128 0x3
 8985 00c7 08       		.uleb128 0x8
 8986 00c8 3A       		.uleb128 0x3a
 8987 00c9 0B       		.uleb128 0xb
 8988 00ca 3B       		.uleb128 0x3b
 8989 00cb 0B       		.uleb128 0xb
 8990 00cc 49       		.uleb128 0x49
 8991 00cd 13       		.uleb128 0x13
 8992 00ce 38       		.uleb128 0x38
 8993 00cf 0B       		.uleb128 0xb
 8994 00d0 00       		.byte	0
 8995 00d1 00       		.byte	0
 8996 00d2 13       		.uleb128 0x13
 8997 00d3 0D       		.uleb128 0xd
 8998 00d4 00       		.byte	0
 8999 00d5 03       		.uleb128 0x3
 9000 00d6 0E       		.uleb128 0xe
 9001 00d7 3A       		.uleb128 0x3a
 9002 00d8 0B       		.uleb128 0xb
 9003 00d9 3B       		.uleb128 0x3b
 9004 00da 0B       		.uleb128 0xb
 9005 00db 49       		.uleb128 0x49
 9006 00dc 13       		.uleb128 0x13
 9007 00dd 38       		.uleb128 0x38
 9008 00de 05       		.uleb128 0x5
 9009 00df 00       		.byte	0
 9010 00e0 00       		.byte	0
 9011 00e1 14       		.uleb128 0x14
 9012 00e2 21       		.uleb128 0x21
 9013 00e3 00       		.byte	0
 9014 00e4 49       		.uleb128 0x49
 9015 00e5 13       		.uleb128 0x13
 9016 00e6 2F       		.uleb128 0x2f
 9017 00e7 05       		.uleb128 0x5
 9018 00e8 00       		.byte	0
 9019 00e9 00       		.byte	0
 9020 00ea 15       		.uleb128 0x15
ARM GAS  C:\Users\AHMED~1.ELE\AppData\Local\Temp\ccFUpfoi.s 			page 176


 9021 00eb 13       		.uleb128 0x13
 9022 00ec 01       		.byte	0x1
 9023 00ed 03       		.uleb128 0x3
 9024 00ee 0E       		.uleb128 0xe
 9025 00ef 0B       		.uleb128 0xb
 9026 00f0 0B       		.uleb128 0xb
 9027 00f1 3A       		.uleb128 0x3a
 9028 00f2 0B       		.uleb128 0xb
 9029 00f3 3B       		.uleb128 0x3b
 9030 00f4 0B       		.uleb128 0xb
 9031 00f5 01       		.uleb128 0x1
 9032 00f6 13       		.uleb128 0x13
 9033 00f7 00       		.byte	0
 9034 00f8 00       		.byte	0
 9035 00f9 16       		.uleb128 0x16
 9036 00fa 04       		.uleb128 0x4
 9037 00fb 01       		.byte	0x1
 9038 00fc 0B       		.uleb128 0xb
 9039 00fd 0B       		.uleb128 0xb
 9040 00fe 3A       		.uleb128 0x3a
 9041 00ff 0B       		.uleb128 0xb
 9042 0100 3B       		.uleb128 0x3b
 9043 0101 0B       		.uleb128 0xb
 9044 0102 01       		.uleb128 0x1
 9045 0103 13       		.uleb128 0x13
 9046 0104 00       		.byte	0
 9047 0105 00       		.byte	0
 9048 0106 17       		.uleb128 0x17
 9049 0107 13       		.uleb128 0x13
 9050 0108 01       		.byte	0x1
 9051 0109 03       		.uleb128 0x3
 9052 010a 0E       		.uleb128 0xe
 9053 010b 0B       		.uleb128 0xb
 9054 010c 05       		.uleb128 0x5
 9055 010d 3A       		.uleb128 0x3a
 9056 010e 0B       		.uleb128 0xb
 9057 010f 3B       		.uleb128 0x3b
 9058 0110 05       		.uleb128 0x5
 9059 0111 01       		.uleb128 0x1
 9060 0112 13       		.uleb128 0x13
 9061 0113 00       		.byte	0
 9062 0114 00       		.byte	0
 9063 0115 18       		.uleb128 0x18
 9064 0116 0D       		.uleb128 0xd
 9065 0117 00       		.byte	0
 9066 0118 03       		.uleb128 0x3
 9067 0119 0E       		.uleb128 0xe
 9068 011a 3A       		.uleb128 0x3a
 9069 011b 0B       		.uleb128 0xb
 9070 011c 3B       		.uleb128 0x3b
 9071 011d 05       		.uleb128 0x5
 9072 011e 49       		.uleb128 0x49
 9073 011f 13       		.uleb128 0x13
 9074 0120 38       		.uleb128 0x38
 9075 0121 05       		.uleb128 0x5
 9076 0122 00       		.byte	0
 9077 0123 00       		.byte	0
ARM GAS  C:\Users\AHMED~1.ELE\AppData\Local\Temp\ccFUpfoi.s 			page 177


 9078 0124 19       		.uleb128 0x19
 9079 0125 2E       		.uleb128 0x2e
 9080 0126 01       		.byte	0x1
 9081 0127 3F       		.uleb128 0x3f
 9082 0128 19       		.uleb128 0x19
 9083 0129 03       		.uleb128 0x3
 9084 012a 0E       		.uleb128 0xe
 9085 012b 3A       		.uleb128 0x3a
 9086 012c 0B       		.uleb128 0xb
 9087 012d 3B       		.uleb128 0x3b
 9088 012e 0B       		.uleb128 0xb
 9089 012f 27       		.uleb128 0x27
 9090 0130 19       		.uleb128 0x19
 9091 0131 11       		.uleb128 0x11
 9092 0132 01       		.uleb128 0x1
 9093 0133 12       		.uleb128 0x12
 9094 0134 06       		.uleb128 0x6
 9095 0135 40       		.uleb128 0x40
 9096 0136 18       		.uleb128 0x18
 9097 0137 9742     		.uleb128 0x2117
 9098 0139 19       		.uleb128 0x19
 9099 013a 01       		.uleb128 0x1
 9100 013b 13       		.uleb128 0x13
 9101 013c 00       		.byte	0
 9102 013d 00       		.byte	0
 9103 013e 1A       		.uleb128 0x1a
 9104 013f 34       		.uleb128 0x34
 9105 0140 00       		.byte	0
 9106 0141 03       		.uleb128 0x3
 9107 0142 0E       		.uleb128 0xe
 9108 0143 3A       		.uleb128 0x3a
 9109 0144 0B       		.uleb128 0xb
 9110 0145 3B       		.uleb128 0x3b
 9111 0146 0B       		.uleb128 0xb
 9112 0147 49       		.uleb128 0x49
 9113 0148 13       		.uleb128 0x13
 9114 0149 00       		.byte	0
 9115 014a 00       		.byte	0
 9116 014b 1B       		.uleb128 0x1b
 9117 014c 34       		.uleb128 0x34
 9118 014d 00       		.byte	0
 9119 014e 03       		.uleb128 0x3
 9120 014f 0E       		.uleb128 0xe
 9121 0150 3A       		.uleb128 0x3a
 9122 0151 0B       		.uleb128 0xb
 9123 0152 3B       		.uleb128 0x3b
 9124 0153 0B       		.uleb128 0xb
 9125 0154 49       		.uleb128 0x49
 9126 0155 13       		.uleb128 0x13
 9127 0156 02       		.uleb128 0x2
 9128 0157 17       		.uleb128 0x17
 9129 0158 00       		.byte	0
 9130 0159 00       		.byte	0
 9131 015a 1C       		.uleb128 0x1c
 9132 015b 898201   		.uleb128 0x4109
 9133 015e 01       		.byte	0x1
 9134 015f 11       		.uleb128 0x11
ARM GAS  C:\Users\AHMED~1.ELE\AppData\Local\Temp\ccFUpfoi.s 			page 178


 9135 0160 01       		.uleb128 0x1
 9136 0161 31       		.uleb128 0x31
 9137 0162 13       		.uleb128 0x13
 9138 0163 01       		.uleb128 0x1
 9139 0164 13       		.uleb128 0x13
 9140 0165 00       		.byte	0
 9141 0166 00       		.byte	0
 9142 0167 1D       		.uleb128 0x1d
 9143 0168 8A8201   		.uleb128 0x410a
 9144 016b 00       		.byte	0
 9145 016c 02       		.uleb128 0x2
 9146 016d 18       		.uleb128 0x18
 9147 016e 9142     		.uleb128 0x2111
 9148 0170 18       		.uleb128 0x18
 9149 0171 00       		.byte	0
 9150 0172 00       		.byte	0
 9151 0173 1E       		.uleb128 0x1e
 9152 0174 898201   		.uleb128 0x4109
 9153 0177 00       		.byte	0
 9154 0178 11       		.uleb128 0x11
 9155 0179 01       		.uleb128 0x1
 9156 017a 31       		.uleb128 0x31
 9157 017b 13       		.uleb128 0x13
 9158 017c 00       		.byte	0
 9159 017d 00       		.byte	0
 9160 017e 1F       		.uleb128 0x1f
 9161 017f 2E       		.uleb128 0x2e
 9162 0180 01       		.byte	0x1
 9163 0181 3F       		.uleb128 0x3f
 9164 0182 19       		.uleb128 0x19
 9165 0183 03       		.uleb128 0x3
 9166 0184 0E       		.uleb128 0xe
 9167 0185 3A       		.uleb128 0x3a
 9168 0186 0B       		.uleb128 0xb
 9169 0187 3B       		.uleb128 0x3b
 9170 0188 0B       		.uleb128 0xb
 9171 0189 27       		.uleb128 0x27
 9172 018a 19       		.uleb128 0x19
 9173 018b 49       		.uleb128 0x49
 9174 018c 13       		.uleb128 0x13
 9175 018d 11       		.uleb128 0x11
 9176 018e 01       		.uleb128 0x1
 9177 018f 12       		.uleb128 0x12
 9178 0190 06       		.uleb128 0x6
 9179 0191 40       		.uleb128 0x40
 9180 0192 18       		.uleb128 0x18
 9181 0193 9742     		.uleb128 0x2117
 9182 0195 19       		.uleb128 0x19
 9183 0196 01       		.uleb128 0x1
 9184 0197 13       		.uleb128 0x13
 9185 0198 00       		.byte	0
 9186 0199 00       		.byte	0
 9187 019a 20       		.uleb128 0x20
 9188 019b 34       		.uleb128 0x34
 9189 019c 00       		.byte	0
 9190 019d 03       		.uleb128 0x3
 9191 019e 08       		.uleb128 0x8
ARM GAS  C:\Users\AHMED~1.ELE\AppData\Local\Temp\ccFUpfoi.s 			page 179


 9192 019f 3A       		.uleb128 0x3a
 9193 01a0 0B       		.uleb128 0xb
 9194 01a1 3B       		.uleb128 0x3b
 9195 01a2 0B       		.uleb128 0xb
 9196 01a3 49       		.uleb128 0x49
 9197 01a4 13       		.uleb128 0x13
 9198 01a5 02       		.uleb128 0x2
 9199 01a6 17       		.uleb128 0x17
 9200 01a7 00       		.byte	0
 9201 01a8 00       		.byte	0
 9202 01a9 21       		.uleb128 0x21
 9203 01aa 34       		.uleb128 0x34
 9204 01ab 00       		.byte	0
 9205 01ac 03       		.uleb128 0x3
 9206 01ad 0E       		.uleb128 0xe
 9207 01ae 3A       		.uleb128 0x3a
 9208 01af 0B       		.uleb128 0xb
 9209 01b0 3B       		.uleb128 0x3b
 9210 01b1 0B       		.uleb128 0xb
 9211 01b2 49       		.uleb128 0x49
 9212 01b3 13       		.uleb128 0x13
 9213 01b4 02       		.uleb128 0x2
 9214 01b5 18       		.uleb128 0x18
 9215 01b6 00       		.byte	0
 9216 01b7 00       		.byte	0
 9217 01b8 22       		.uleb128 0x22
 9218 01b9 34       		.uleb128 0x34
 9219 01ba 00       		.byte	0
 9220 01bb 03       		.uleb128 0x3
 9221 01bc 08       		.uleb128 0x8
 9222 01bd 3A       		.uleb128 0x3a
 9223 01be 0B       		.uleb128 0xb
 9224 01bf 3B       		.uleb128 0x3b
 9225 01c0 0B       		.uleb128 0xb
 9226 01c1 49       		.uleb128 0x49
 9227 01c2 13       		.uleb128 0x13
 9228 01c3 02       		.uleb128 0x2
 9229 01c4 18       		.uleb128 0x18
 9230 01c5 00       		.byte	0
 9231 01c6 00       		.byte	0
 9232 01c7 23       		.uleb128 0x23
 9233 01c8 898201   		.uleb128 0x4109
 9234 01cb 01       		.byte	0x1
 9235 01cc 11       		.uleb128 0x11
 9236 01cd 01       		.uleb128 0x1
 9237 01ce 31       		.uleb128 0x31
 9238 01cf 13       		.uleb128 0x13
 9239 01d0 00       		.byte	0
 9240 01d1 00       		.byte	0
 9241 01d2 24       		.uleb128 0x24
 9242 01d3 2E       		.uleb128 0x2e
 9243 01d4 01       		.byte	0x1
 9244 01d5 3F       		.uleb128 0x3f
 9245 01d6 19       		.uleb128 0x19
 9246 01d7 03       		.uleb128 0x3
 9247 01d8 0E       		.uleb128 0xe
 9248 01d9 3A       		.uleb128 0x3a
ARM GAS  C:\Users\AHMED~1.ELE\AppData\Local\Temp\ccFUpfoi.s 			page 180


 9249 01da 0B       		.uleb128 0xb
 9250 01db 3B       		.uleb128 0x3b
 9251 01dc 05       		.uleb128 0x5
 9252 01dd 27       		.uleb128 0x27
 9253 01de 19       		.uleb128 0x19
 9254 01df 49       		.uleb128 0x49
 9255 01e0 13       		.uleb128 0x13
 9256 01e1 11       		.uleb128 0x11
 9257 01e2 01       		.uleb128 0x1
 9258 01e3 12       		.uleb128 0x12
 9259 01e4 06       		.uleb128 0x6
 9260 01e5 40       		.uleb128 0x40
 9261 01e6 18       		.uleb128 0x18
 9262 01e7 9742     		.uleb128 0x2117
 9263 01e9 19       		.uleb128 0x19
 9264 01ea 01       		.uleb128 0x1
 9265 01eb 13       		.uleb128 0x13
 9266 01ec 00       		.byte	0
 9267 01ed 00       		.byte	0
 9268 01ee 25       		.uleb128 0x25
 9269 01ef 34       		.uleb128 0x34
 9270 01f0 00       		.byte	0
 9271 01f1 03       		.uleb128 0x3
 9272 01f2 08       		.uleb128 0x8
 9273 01f3 3A       		.uleb128 0x3a
 9274 01f4 0B       		.uleb128 0xb
 9275 01f5 3B       		.uleb128 0x3b
 9276 01f6 05       		.uleb128 0x5
 9277 01f7 49       		.uleb128 0x49
 9278 01f8 13       		.uleb128 0x13
 9279 01f9 02       		.uleb128 0x2
 9280 01fa 17       		.uleb128 0x17
 9281 01fb 00       		.byte	0
 9282 01fc 00       		.byte	0
 9283 01fd 26       		.uleb128 0x26
 9284 01fe 34       		.uleb128 0x34
 9285 01ff 00       		.byte	0
 9286 0200 03       		.uleb128 0x3
 9287 0201 0E       		.uleb128 0xe
 9288 0202 3A       		.uleb128 0x3a
 9289 0203 0B       		.uleb128 0xb
 9290 0204 3B       		.uleb128 0x3b
 9291 0205 05       		.uleb128 0x5
 9292 0206 49       		.uleb128 0x49
 9293 0207 13       		.uleb128 0x13
 9294 0208 02       		.uleb128 0x2
 9295 0209 17       		.uleb128 0x17
 9296 020a 00       		.byte	0
 9297 020b 00       		.byte	0
 9298 020c 27       		.uleb128 0x27
 9299 020d 34       		.uleb128 0x34
 9300 020e 00       		.byte	0
 9301 020f 03       		.uleb128 0x3
 9302 0210 0E       		.uleb128 0xe
 9303 0211 3A       		.uleb128 0x3a
 9304 0212 0B       		.uleb128 0xb
 9305 0213 3B       		.uleb128 0x3b
ARM GAS  C:\Users\AHMED~1.ELE\AppData\Local\Temp\ccFUpfoi.s 			page 181


 9306 0214 05       		.uleb128 0x5
 9307 0215 49       		.uleb128 0x49
 9308 0216 13       		.uleb128 0x13
 9309 0217 02       		.uleb128 0x2
 9310 0218 18       		.uleb128 0x18
 9311 0219 00       		.byte	0
 9312 021a 00       		.byte	0
 9313 021b 28       		.uleb128 0x28
 9314 021c 34       		.uleb128 0x34
 9315 021d 00       		.byte	0
 9316 021e 03       		.uleb128 0x3
 9317 021f 0E       		.uleb128 0xe
 9318 0220 3A       		.uleb128 0x3a
 9319 0221 0B       		.uleb128 0xb
 9320 0222 3B       		.uleb128 0x3b
 9321 0223 0B       		.uleb128 0xb
 9322 0224 49       		.uleb128 0x49
 9323 0225 13       		.uleb128 0x13
 9324 0226 3F       		.uleb128 0x3f
 9325 0227 19       		.uleb128 0x19
 9326 0228 3C       		.uleb128 0x3c
 9327 0229 19       		.uleb128 0x19
 9328 022a 00       		.byte	0
 9329 022b 00       		.byte	0
 9330 022c 29       		.uleb128 0x29
 9331 022d 21       		.uleb128 0x21
 9332 022e 00       		.byte	0
 9333 022f 00       		.byte	0
 9334 0230 00       		.byte	0
 9335 0231 2A       		.uleb128 0x2a
 9336 0232 34       		.uleb128 0x34
 9337 0233 00       		.byte	0
 9338 0234 03       		.uleb128 0x3
 9339 0235 0E       		.uleb128 0xe
 9340 0236 3A       		.uleb128 0x3a
 9341 0237 0B       		.uleb128 0xb
 9342 0238 3B       		.uleb128 0x3b
 9343 0239 0B       		.uleb128 0xb
 9344 023a 49       		.uleb128 0x49
 9345 023b 13       		.uleb128 0x13
 9346 023c 3F       		.uleb128 0x3f
 9347 023d 19       		.uleb128 0x19
 9348 023e 02       		.uleb128 0x2
 9349 023f 18       		.uleb128 0x18
 9350 0240 00       		.byte	0
 9351 0241 00       		.byte	0
 9352 0242 2B       		.uleb128 0x2b
 9353 0243 2E       		.uleb128 0x2e
 9354 0244 01       		.byte	0x1
 9355 0245 3F       		.uleb128 0x3f
 9356 0246 19       		.uleb128 0x19
 9357 0247 03       		.uleb128 0x3
 9358 0248 0E       		.uleb128 0xe
 9359 0249 3A       		.uleb128 0x3a
 9360 024a 0B       		.uleb128 0xb
 9361 024b 3B       		.uleb128 0x3b
 9362 024c 0B       		.uleb128 0xb
ARM GAS  C:\Users\AHMED~1.ELE\AppData\Local\Temp\ccFUpfoi.s 			page 182


 9363 024d 27       		.uleb128 0x27
 9364 024e 19       		.uleb128 0x19
 9365 024f 49       		.uleb128 0x49
 9366 0250 13       		.uleb128 0x13
 9367 0251 3C       		.uleb128 0x3c
 9368 0252 19       		.uleb128 0x19
 9369 0253 01       		.uleb128 0x1
 9370 0254 13       		.uleb128 0x13
 9371 0255 00       		.byte	0
 9372 0256 00       		.byte	0
 9373 0257 2C       		.uleb128 0x2c
 9374 0258 05       		.uleb128 0x5
 9375 0259 00       		.byte	0
 9376 025a 49       		.uleb128 0x49
 9377 025b 13       		.uleb128 0x13
 9378 025c 00       		.byte	0
 9379 025d 00       		.byte	0
 9380 025e 2D       		.uleb128 0x2d
 9381 025f 2E       		.uleb128 0x2e
 9382 0260 00       		.byte	0
 9383 0261 3F       		.uleb128 0x3f
 9384 0262 19       		.uleb128 0x19
 9385 0263 03       		.uleb128 0x3
 9386 0264 0E       		.uleb128 0xe
 9387 0265 3A       		.uleb128 0x3a
 9388 0266 0B       		.uleb128 0xb
 9389 0267 3B       		.uleb128 0x3b
 9390 0268 0B       		.uleb128 0xb
 9391 0269 27       		.uleb128 0x27
 9392 026a 19       		.uleb128 0x19
 9393 026b 49       		.uleb128 0x49
 9394 026c 13       		.uleb128 0x13
 9395 026d 3C       		.uleb128 0x3c
 9396 026e 19       		.uleb128 0x19
 9397 026f 00       		.byte	0
 9398 0270 00       		.byte	0
 9399 0271 2E       		.uleb128 0x2e
 9400 0272 2E       		.uleb128 0x2e
 9401 0273 01       		.byte	0x1
 9402 0274 3F       		.uleb128 0x3f
 9403 0275 19       		.uleb128 0x19
 9404 0276 03       		.uleb128 0x3
 9405 0277 0E       		.uleb128 0xe
 9406 0278 3A       		.uleb128 0x3a
 9407 0279 0B       		.uleb128 0xb
 9408 027a 3B       		.uleb128 0x3b
 9409 027b 0B       		.uleb128 0xb
 9410 027c 27       		.uleb128 0x27
 9411 027d 19       		.uleb128 0x19
 9412 027e 3C       		.uleb128 0x3c
 9413 027f 19       		.uleb128 0x19
 9414 0280 01       		.uleb128 0x1
 9415 0281 13       		.uleb128 0x13
 9416 0282 00       		.byte	0
 9417 0283 00       		.byte	0
 9418 0284 2F       		.uleb128 0x2f
 9419 0285 2E       		.uleb128 0x2e
ARM GAS  C:\Users\AHMED~1.ELE\AppData\Local\Temp\ccFUpfoi.s 			page 183


 9420 0286 01       		.byte	0x1
 9421 0287 3F       		.uleb128 0x3f
 9422 0288 19       		.uleb128 0x19
 9423 0289 03       		.uleb128 0x3
 9424 028a 08       		.uleb128 0x8
 9425 028b 3A       		.uleb128 0x3a
 9426 028c 0B       		.uleb128 0xb
 9427 028d 3B       		.uleb128 0x3b
 9428 028e 0B       		.uleb128 0xb
 9429 028f 27       		.uleb128 0x27
 9430 0290 19       		.uleb128 0x19
 9431 0291 49       		.uleb128 0x49
 9432 0292 13       		.uleb128 0x13
 9433 0293 3C       		.uleb128 0x3c
 9434 0294 19       		.uleb128 0x19
 9435 0295 01       		.uleb128 0x1
 9436 0296 13       		.uleb128 0x13
 9437 0297 00       		.byte	0
 9438 0298 00       		.byte	0
 9439 0299 30       		.uleb128 0x30
 9440 029a 2E       		.uleb128 0x2e
 9441 029b 00       		.byte	0
 9442 029c 3F       		.uleb128 0x3f
 9443 029d 19       		.uleb128 0x19
 9444 029e 03       		.uleb128 0x3
 9445 029f 0E       		.uleb128 0xe
 9446 02a0 3A       		.uleb128 0x3a
 9447 02a1 0B       		.uleb128 0xb
 9448 02a2 3B       		.uleb128 0x3b
 9449 02a3 0B       		.uleb128 0xb
 9450 02a4 27       		.uleb128 0x27
 9451 02a5 19       		.uleb128 0x19
 9452 02a6 3C       		.uleb128 0x3c
 9453 02a7 19       		.uleb128 0x19
 9454 02a8 00       		.byte	0
 9455 02a9 00       		.byte	0
 9456 02aa 31       		.uleb128 0x31
 9457 02ab 2E       		.uleb128 0x2e
 9458 02ac 01       		.byte	0x1
 9459 02ad 3F       		.uleb128 0x3f
 9460 02ae 19       		.uleb128 0x19
 9461 02af 03       		.uleb128 0x3
 9462 02b0 0E       		.uleb128 0xe
 9463 02b1 27       		.uleb128 0x27
 9464 02b2 19       		.uleb128 0x19
 9465 02b3 49       		.uleb128 0x49
 9466 02b4 13       		.uleb128 0x13
 9467 02b5 34       		.uleb128 0x34
 9468 02b6 19       		.uleb128 0x19
 9469 02b7 3C       		.uleb128 0x3c
 9470 02b8 19       		.uleb128 0x19
 9471 02b9 01       		.uleb128 0x1
 9472 02ba 13       		.uleb128 0x13
 9473 02bb 00       		.byte	0
 9474 02bc 00       		.byte	0
 9475 02bd 32       		.uleb128 0x32
 9476 02be 2E       		.uleb128 0x2e
ARM GAS  C:\Users\AHMED~1.ELE\AppData\Local\Temp\ccFUpfoi.s 			page 184


 9477 02bf 01       		.byte	0x1
 9478 02c0 3F       		.uleb128 0x3f
 9479 02c1 19       		.uleb128 0x19
 9480 02c2 03       		.uleb128 0x3
 9481 02c3 0E       		.uleb128 0xe
 9482 02c4 3A       		.uleb128 0x3a
 9483 02c5 0B       		.uleb128 0xb
 9484 02c6 3B       		.uleb128 0x3b
 9485 02c7 0B       		.uleb128 0xb
 9486 02c8 27       		.uleb128 0x27
 9487 02c9 19       		.uleb128 0x19
 9488 02ca 49       		.uleb128 0x49
 9489 02cb 13       		.uleb128 0x13
 9490 02cc 3C       		.uleb128 0x3c
 9491 02cd 19       		.uleb128 0x19
 9492 02ce 00       		.byte	0
 9493 02cf 00       		.byte	0
 9494 02d0 00       		.byte	0
 9495              		.section	.debug_loc,"",%progbits
 9496              	.Ldebug_loc0:
 9497              	.LLST0:
 9498 0000 84000000 		.4byte	.LVL14
 9499 0004 8C000000 		.4byte	.LVL15
 9500 0008 0600     		.2byte	0x6
 9501 000a 78       		.byte	0x78
 9502 000b 00       		.sleb128 0
 9503 000c 93       		.byte	0x93
 9504 000d 01       		.uleb128 0x1
 9505 000e 93       		.byte	0x93
 9506 000f 07       		.uleb128 0x7
 9507 0010 8C000000 		.4byte	.LVL15
 9508 0014 96000000 		.4byte	.LVL16
 9509 0018 0900     		.2byte	0x9
 9510 001a 78       		.byte	0x78
 9511 001b 00       		.sleb128 0
 9512 001c 93       		.byte	0x93
 9513 001d 01       		.uleb128 0x1
 9514 001e 5B       		.byte	0x5b
 9515 001f 93       		.byte	0x93
 9516 0020 01       		.uleb128 0x1
 9517 0021 93       		.byte	0x93
 9518 0022 06       		.uleb128 0x6
 9519 0023 96000000 		.4byte	.LVL16
 9520 0027 9C000000 		.4byte	.LVL17
 9521 002b 1200     		.2byte	0x12
 9522 002d 78       		.byte	0x78
 9523 002e 00       		.sleb128 0
 9524 002f 93       		.byte	0x93
 9525 0030 01       		.uleb128 0x1
 9526 0031 5B       		.byte	0x5b
 9527 0032 93       		.byte	0x93
 9528 0033 01       		.uleb128 0x1
 9529 0034 5A       		.byte	0x5a
 9530 0035 93       		.byte	0x93
 9531 0036 01       		.uleb128 0x1
 9532 0037 93       		.byte	0x93
 9533 0038 02       		.uleb128 0x2
ARM GAS  C:\Users\AHMED~1.ELE\AppData\Local\Temp\ccFUpfoi.s 			page 185


 9534 0039 91       		.byte	0x91
 9535 003a 54       		.sleb128 -44
 9536 003b 93       		.byte	0x93
 9537 003c 01       		.uleb128 0x1
 9538 003d 93       		.byte	0x93
 9539 003e 02       		.uleb128 0x2
 9540 003f 9C000000 		.4byte	.LVL17
 9541 0043 A5000000 		.4byte	.LVL18-1
 9542 0047 1500     		.2byte	0x15
 9543 0049 79       		.byte	0x79
 9544 004a 02       		.sleb128 2
 9545 004b 93       		.byte	0x93
 9546 004c 01       		.uleb128 0x1
 9547 004d 5B       		.byte	0x5b
 9548 004e 93       		.byte	0x93
 9549 004f 01       		.uleb128 0x1
 9550 0050 5A       		.byte	0x5a
 9551 0051 93       		.byte	0x93
 9552 0052 01       		.uleb128 0x1
 9553 0053 93       		.byte	0x93
 9554 0054 02       		.uleb128 0x2
 9555 0055 91       		.byte	0x91
 9556 0056 54       		.sleb128 -44
 9557 0057 93       		.byte	0x93
 9558 0058 01       		.uleb128 0x1
 9559 0059 93       		.byte	0x93
 9560 005a 01       		.uleb128 0x1
 9561 005b 58       		.byte	0x58
 9562 005c 93       		.byte	0x93
 9563 005d 01       		.uleb128 0x1
 9564 005e A5000000 		.4byte	.LVL18-1
 9565 0062 26010000 		.4byte	.LVL29
 9566 0066 1300     		.2byte	0x13
 9567 0068 93       		.byte	0x93
 9568 0069 01       		.uleb128 0x1
 9569 006a 5B       		.byte	0x5b
 9570 006b 93       		.byte	0x93
 9571 006c 01       		.uleb128 0x1
 9572 006d 5A       		.byte	0x5a
 9573 006e 93       		.byte	0x93
 9574 006f 01       		.uleb128 0x1
 9575 0070 93       		.byte	0x93
 9576 0071 02       		.uleb128 0x2
 9577 0072 91       		.byte	0x91
 9578 0073 54       		.sleb128 -44
 9579 0074 93       		.byte	0x93
 9580 0075 01       		.uleb128 0x1
 9581 0076 93       		.byte	0x93
 9582 0077 01       		.uleb128 0x1
 9583 0078 58       		.byte	0x58
 9584 0079 93       		.byte	0x93
 9585 007a 01       		.uleb128 0x1
 9586 007b 26010000 		.4byte	.LVL29
 9587 007f 78010000 		.4byte	.LVL38
 9588 0083 1000     		.2byte	0x10
 9589 0085 93       		.byte	0x93
 9590 0086 01       		.uleb128 0x1
ARM GAS  C:\Users\AHMED~1.ELE\AppData\Local\Temp\ccFUpfoi.s 			page 186


 9591 0087 5B       		.byte	0x5b
 9592 0088 93       		.byte	0x93
 9593 0089 01       		.uleb128 0x1
 9594 008a 5A       		.byte	0x5a
 9595 008b 93       		.byte	0x93
 9596 008c 01       		.uleb128 0x1
 9597 008d 93       		.byte	0x93
 9598 008e 02       		.uleb128 0x2
 9599 008f 91       		.byte	0x91
 9600 0090 54       		.sleb128 -44
 9601 0091 93       		.byte	0x93
 9602 0092 01       		.uleb128 0x1
 9603 0093 93       		.byte	0x93
 9604 0094 02       		.uleb128 0x2
 9605 0095 78010000 		.4byte	.LVL38
 9606 0099 98010000 		.4byte	.LFE0
 9607 009d 0800     		.2byte	0x8
 9608 009f 93       		.byte	0x93
 9609 00a0 05       		.uleb128 0x5
 9610 00a1 7D       		.byte	0x7d
 9611 00a2 54       		.sleb128 -44
 9612 00a3 93       		.byte	0x93
 9613 00a4 01       		.uleb128 0x1
 9614 00a5 93       		.byte	0x93
 9615 00a6 02       		.uleb128 0x2
 9616 00a7 00000000 		.4byte	0
 9617 00ab 00000000 		.4byte	0
 9618              	.LLST1:
 9619 00af 00000000 		.4byte	.LVL0
 9620 00b3 4C000000 		.4byte	.LVL7
 9621 00b7 0200     		.2byte	0x2
 9622 00b9 30       		.byte	0x30
 9623 00ba 9F       		.byte	0x9f
 9624 00bb 4C000000 		.4byte	.LVL7
 9625 00bf 4E000000 		.4byte	.LVL8
 9626 00c3 0100     		.2byte	0x1
 9627 00c5 50       		.byte	0x50
 9628 00c6 4E000000 		.4byte	.LVL8
 9629 00ca 64000000 		.4byte	.LVL12
 9630 00ce 0200     		.2byte	0x2
 9631 00d0 30       		.byte	0x30
 9632 00d1 9F       		.byte	0x9f
 9633 00d2 64000000 		.4byte	.LVL12
 9634 00d6 78010000 		.4byte	.LVL38
 9635 00da 0100     		.2byte	0x1
 9636 00dc 57       		.byte	0x57
 9637 00dd 00000000 		.4byte	0
 9638 00e1 00000000 		.4byte	0
 9639              	.LLST2:
 9640 00e5 22010000 		.4byte	.LVL28
 9641 00e9 28010000 		.4byte	.LVL30
 9642 00ed 0100     		.2byte	0x1
 9643 00ef 50       		.byte	0x50
 9644 00f0 00000000 		.4byte	0
 9645 00f4 00000000 		.4byte	0
 9646              	.LLST3:
 9647 00f8 32010000 		.4byte	.LVL31
ARM GAS  C:\Users\AHMED~1.ELE\AppData\Local\Temp\ccFUpfoi.s 			page 187


 9648 00fc 39010000 		.4byte	.LVL32-1
 9649 0100 0100     		.2byte	0x1
 9650 0102 50       		.byte	0x50
 9651 0103 00000000 		.4byte	0
 9652 0107 00000000 		.4byte	0
 9653              	.LLST4:
 9654 010b 26010000 		.4byte	.LVL29
 9655 010f 48010000 		.4byte	.LVL34
 9656 0113 0100     		.2byte	0x1
 9657 0115 58       		.byte	0x58
 9658 0116 6C010000 		.4byte	.LVL36
 9659 011a 72010000 		.4byte	.LVL37
 9660 011e 0100     		.2byte	0x1
 9661 0120 53       		.byte	0x53
 9662 0121 00000000 		.4byte	0
 9663 0125 00000000 		.4byte	0
 9664              	.LLST5:
 9665 0129 42000000 		.4byte	.LVL44
 9666 012d 45000000 		.4byte	.LVL45-1
 9667 0131 0100     		.2byte	0x1
 9668 0133 50       		.byte	0x50
 9669 0134 45000000 		.4byte	.LVL45-1
 9670 0138 4E000000 		.4byte	.LVL47
 9671 013c 0100     		.2byte	0x1
 9672 013e 54       		.byte	0x54
 9673 013f BE010000 		.4byte	.LVL81
 9674 0143 C0010000 		.4byte	.LVL82
 9675 0147 0600     		.2byte	0x6
 9676 0149 70       		.byte	0x70
 9677 014a 00       		.sleb128 0
 9678 014b 08       		.byte	0x8
 9679 014c FF       		.byte	0xff
 9680 014d 1A       		.byte	0x1a
 9681 014e 9F       		.byte	0x9f
 9682 014f DE010000 		.4byte	.LVL88
 9683 0153 E0010000 		.4byte	.LVL89
 9684 0157 0100     		.2byte	0x1
 9685 0159 50       		.byte	0x50
 9686 015a FC010000 		.4byte	.LVL94
 9687 015e 02020000 		.4byte	.LVL95
 9688 0162 0100     		.2byte	0x1
 9689 0164 50       		.byte	0x50
 9690 0165 70020000 		.4byte	.LVL113
 9691 0169 CC020000 		.4byte	.LVL114
 9692 016d 0100     		.2byte	0x1
 9693 016f 50       		.byte	0x50
 9694 0170 DA020000 		.4byte	.LVL117
 9695 0174 1C030000 		.4byte	.LVL120
 9696 0178 0100     		.2byte	0x1
 9697 017a 55       		.byte	0x55
 9698 017b 6E030000 		.4byte	.LVL130
 9699 017f 70030000 		.4byte	.LVL131
 9700 0183 0100     		.2byte	0x1
 9701 0185 50       		.byte	0x50
 9702 0186 A8030000 		.4byte	.LVL140
 9703 018a AA030000 		.4byte	.LVL141
 9704 018e 0100     		.2byte	0x1
ARM GAS  C:\Users\AHMED~1.ELE\AppData\Local\Temp\ccFUpfoi.s 			page 188


 9705 0190 50       		.byte	0x50
 9706 0191 AA030000 		.4byte	.LVL141
 9707 0195 DE030000 		.4byte	.LVL147
 9708 0199 0100     		.2byte	0x1
 9709 019b 55       		.byte	0x55
 9710 019c DE030000 		.4byte	.LVL147
 9711 01a0 E0030000 		.4byte	.LVL148
 9712 01a4 0100     		.2byte	0x1
 9713 01a6 50       		.byte	0x50
 9714 01a7 E0030000 		.4byte	.LVL148
 9715 01ab 72040000 		.4byte	.LVL158
 9716 01af 0100     		.2byte	0x1
 9717 01b1 55       		.byte	0x55
 9718 01b2 72040000 		.4byte	.LVL158
 9719 01b6 74040000 		.4byte	.LVL159
 9720 01ba 0100     		.2byte	0x1
 9721 01bc 50       		.byte	0x50
 9722 01bd 74040000 		.4byte	.LVL159
 9723 01c1 9C040000 		.4byte	.LVL164
 9724 01c5 0100     		.2byte	0x1
 9725 01c7 55       		.byte	0x55
 9726 01c8 9C040000 		.4byte	.LVL164
 9727 01cc A6040000 		.4byte	.LVL165
 9728 01d0 0100     		.2byte	0x1
 9729 01d2 50       		.byte	0x50
 9730 01d3 E4040000 		.4byte	.LVL174
 9731 01d7 00050000 		.4byte	.LVL175
 9732 01db 0100     		.2byte	0x1
 9733 01dd 50       		.byte	0x50
 9734 01de 02050000 		.4byte	.LVL176
 9735 01e2 2B050000 		.4byte	.LVL177-1
 9736 01e6 0100     		.2byte	0x1
 9737 01e8 50       		.byte	0x50
 9738 01e9 A0050000 		.4byte	.LVL190
 9739 01ed CD050000 		.4byte	.LVL191-1
 9740 01f1 0100     		.2byte	0x1
 9741 01f3 50       		.byte	0x50
 9742 01f4 38060000 		.4byte	.LVL205
 9743 01f8 48060000 		.4byte	.LVL206
 9744 01fc 0100     		.2byte	0x1
 9745 01fe 50       		.byte	0x50
 9746 01ff 4A060000 		.4byte	.LVL207
 9747 0203 54060000 		.4byte	.LVL208
 9748 0207 0100     		.2byte	0x1
 9749 0209 50       		.byte	0x50
 9750 020a 5A060000 		.4byte	.LVL210
 9751 020e 6D060000 		.4byte	.LVL211-1
 9752 0212 0100     		.2byte	0x1
 9753 0214 50       		.byte	0x50
 9754 0215 74060000 		.4byte	.LVL213
 9755 0219 AE060000 		.4byte	.LVL214
 9756 021d 0100     		.2byte	0x1
 9757 021f 50       		.byte	0x50
 9758 0220 00000000 		.4byte	0
 9759 0224 00000000 		.4byte	0
 9760              	.LLST6:
 9761 0228 DE010000 		.4byte	.LVL88
ARM GAS  C:\Users\AHMED~1.ELE\AppData\Local\Temp\ccFUpfoi.s 			page 189


 9762 022c F0010000 		.4byte	.LVL92
 9763 0230 0100     		.2byte	0x1
 9764 0232 58       		.byte	0x58
 9765 0233 FC010000 		.4byte	.LVL94
 9766 0237 4A020000 		.4byte	.LVL104
 9767 023b 0100     		.2byte	0x1
 9768 023d 58       		.byte	0x58
 9769 023e 64020000 		.4byte	.LVL110
 9770 0242 10070000 		.4byte	.LVL231
 9771 0246 0100     		.2byte	0x1
 9772 0248 58       		.byte	0x58
 9773 0249 00000000 		.4byte	0
 9774 024d 00000000 		.4byte	0
 9775              	.LLST7:
 9776 0251 DE010000 		.4byte	.LVL88
 9777 0255 EA010000 		.4byte	.LVL91
 9778 0259 0100     		.2byte	0x1
 9779 025b 55       		.byte	0x55
 9780 025c FC010000 		.4byte	.LVL94
 9781 0260 18020000 		.4byte	.LVL98
 9782 0264 0100     		.2byte	0x1
 9783 0266 55       		.byte	0x55
 9784 0267 58020000 		.4byte	.LVL107
 9785 026b D6020000 		.4byte	.LVL116
 9786 026f 0100     		.2byte	0x1
 9787 0271 55       		.byte	0x55
 9788 0272 6E030000 		.4byte	.LVL130
 9789 0276 78030000 		.4byte	.LVL133
 9790 027a 0100     		.2byte	0x1
 9791 027c 55       		.byte	0x55
 9792 027d A8030000 		.4byte	.LVL140
 9793 0281 AA030000 		.4byte	.LVL141
 9794 0285 0100     		.2byte	0x1
 9795 0287 55       		.byte	0x55
 9796 0288 AA030000 		.4byte	.LVL141
 9797 028c B1030000 		.4byte	.LVL142-1
 9798 0290 0100     		.2byte	0x1
 9799 0292 53       		.byte	0x53
 9800 0293 DE030000 		.4byte	.LVL147
 9801 0297 E0030000 		.4byte	.LVL148
 9802 029b 0100     		.2byte	0x1
 9803 029d 55       		.byte	0x55
 9804 029e E0030000 		.4byte	.LVL148
 9805 02a2 E7030000 		.4byte	.LVL149-1
 9806 02a6 0100     		.2byte	0x1
 9807 02a8 53       		.byte	0x53
 9808 02a9 72040000 		.4byte	.LVL158
 9809 02ad 74040000 		.4byte	.LVL159
 9810 02b1 0100     		.2byte	0x1
 9811 02b3 55       		.byte	0x55
 9812 02b4 74040000 		.4byte	.LVL159
 9813 02b8 7B040000 		.4byte	.LVL160-1
 9814 02bc 0100     		.2byte	0x1
 9815 02be 53       		.byte	0x53
 9816 02bf 9C040000 		.4byte	.LVL164
 9817 02c3 B0040000 		.4byte	.LVL167
 9818 02c7 0100     		.2byte	0x1
ARM GAS  C:\Users\AHMED~1.ELE\AppData\Local\Temp\ccFUpfoi.s 			page 190


 9819 02c9 55       		.byte	0x55
 9820 02ca E4040000 		.4byte	.LVL174
 9821 02ce 30050000 		.4byte	.LVL178
 9822 02d2 0100     		.2byte	0x1
 9823 02d4 55       		.byte	0x55
 9824 02d5 A0050000 		.4byte	.LVL190
 9825 02d9 D4050000 		.4byte	.LVL192
 9826 02dd 0100     		.2byte	0x1
 9827 02df 55       		.byte	0x55
 9828 02e0 38060000 		.4byte	.LVL205
 9829 02e4 54060000 		.4byte	.LVL208
 9830 02e8 0100     		.2byte	0x1
 9831 02ea 55       		.byte	0x55
 9832 02eb 5A060000 		.4byte	.LVL210
 9833 02ef B6060000 		.4byte	.LVL216
 9834 02f3 0100     		.2byte	0x1
 9835 02f5 55       		.byte	0x55
 9836 02f6 00000000 		.4byte	0
 9837 02fa 00000000 		.4byte	0
 9838              	.LLST8:
 9839 02fe C0040000 		.4byte	.LVL169
 9840 0302 E4040000 		.4byte	.LVL174
 9841 0306 0100     		.2byte	0x1
 9842 0308 5A       		.byte	0x5a
 9843 0309 00000000 		.4byte	0
 9844 030d 00000000 		.4byte	0
 9845              	.LLST9:
 9846 0311 A0030000 		.4byte	.LVL138
 9847 0315 A5030000 		.4byte	.LVL139-1
 9848 0319 0100     		.2byte	0x1
 9849 031b 50       		.byte	0x50
 9850 031c 00000000 		.4byte	0
 9851 0320 00000000 		.4byte	0
 9852              	.LLST10:
 9853 0324 00000000 		.4byte	.LVL39
 9854 0328 A0000000 		.4byte	.LVL54
 9855 032c 0200     		.2byte	0x2
 9856 032e 30       		.byte	0x30
 9857 032f 9F       		.byte	0x9f
 9858 0330 A8000000 		.4byte	.LVL56
 9859 0334 C6000000 		.4byte	.LVL63
 9860 0338 0200     		.2byte	0x2
 9861 033a 30       		.byte	0x30
 9862 033b 9F       		.byte	0x9f
 9863 033c C6000000 		.4byte	.LVL63
 9864 0340 F8010000 		.4byte	.LVL93
 9865 0344 0100     		.2byte	0x1
 9866 0346 57       		.byte	0x57
 9867 0347 FC010000 		.4byte	.LVL94
 9868 034b 94070000 		.4byte	.LVL240
 9869 034f 0100     		.2byte	0x1
 9870 0351 57       		.byte	0x57
 9871 0352 94070000 		.4byte	.LVL240
 9872 0356 98070000 		.4byte	.LVL242
 9873 035a 0200     		.2byte	0x2
 9874 035c 30       		.byte	0x30
 9875 035d 9F       		.byte	0x9f
ARM GAS  C:\Users\AHMED~1.ELE\AppData\Local\Temp\ccFUpfoi.s 			page 191


 9876 035e 98070000 		.4byte	.LVL242
 9877 0362 9A070000 		.4byte	.LVL243
 9878 0366 0100     		.2byte	0x1
 9879 0368 57       		.byte	0x57
 9880 0369 00000000 		.4byte	0
 9881 036d 00000000 		.4byte	0
 9882              	.LLST11:
 9883 0371 46000000 		.4byte	.LVL45
 9884 0375 4B000000 		.4byte	.LVL46-1
 9885 0379 0100     		.2byte	0x1
 9886 037b 50       		.byte	0x50
 9887 037c 30050000 		.4byte	.LVL178
 9888 0380 34050000 		.4byte	.LVL179
 9889 0384 0300     		.2byte	0x3
 9890 0386 70       		.byte	0x70
 9891 0387 01       		.sleb128 1
 9892 0388 9F       		.byte	0x9f
 9893 0389 34050000 		.4byte	.LVL179
 9894 038d 38050000 		.4byte	.LVL181
 9895 0391 0300     		.2byte	0x3
 9896 0393 70       		.byte	0x70
 9897 0394 02       		.sleb128 2
 9898 0395 9F       		.byte	0x9f
 9899 0396 38050000 		.4byte	.LVL181
 9900 039a 3F050000 		.4byte	.LVL182-1
 9901 039e 0100     		.2byte	0x1
 9902 03a0 50       		.byte	0x50
 9903 03a1 3F050000 		.4byte	.LVL182-1
 9904 03a5 50050000 		.4byte	.LVL183
 9905 03a9 0300     		.2byte	0x3
 9906 03ab 75       		.byte	0x75
 9907 03ac 02       		.sleb128 2
 9908 03ad 9F       		.byte	0x9f
 9909 03ae 80050000 		.4byte	.LVL186
 9910 03b2 8A050000 		.4byte	.LVL187
 9911 03b6 0300     		.2byte	0x3
 9912 03b8 75       		.byte	0x75
 9913 03b9 17       		.sleb128 23
 9914 03ba 9F       		.byte	0x9f
 9915 03bb 8A050000 		.4byte	.LVL187
 9916 03bf 8F050000 		.4byte	.LVL188-1
 9917 03c3 0100     		.2byte	0x1
 9918 03c5 51       		.byte	0x51
 9919 03c6 8F050000 		.4byte	.LVL188-1
 9920 03ca A0050000 		.4byte	.LVL190
 9921 03ce 0300     		.2byte	0x3
 9922 03d0 75       		.byte	0x75
 9923 03d1 17       		.sleb128 23
 9924 03d2 9F       		.byte	0x9f
 9925 03d3 D4050000 		.4byte	.LVL192
 9926 03d7 D8050000 		.4byte	.LVL193
 9927 03db 0300     		.2byte	0x3
 9928 03dd 70       		.byte	0x70
 9929 03de 01       		.sleb128 1
 9930 03df 9F       		.byte	0x9f
 9931 03e0 D8050000 		.4byte	.LVL193
 9932 03e4 E1050000 		.4byte	.LVL194-1
ARM GAS  C:\Users\AHMED~1.ELE\AppData\Local\Temp\ccFUpfoi.s 			page 192


 9933 03e8 0100     		.2byte	0x1
 9934 03ea 51       		.byte	0x51
 9935 03eb E1050000 		.4byte	.LVL194-1
 9936 03ef E2050000 		.4byte	.LVL194
 9937 03f3 0300     		.2byte	0x3
 9938 03f5 75       		.byte	0x75
 9939 03f6 01       		.sleb128 1
 9940 03f7 9F       		.byte	0x9f
 9941 03f8 E2050000 		.4byte	.LVL194
 9942 03fc E4050000 		.4byte	.LVL195
 9943 0400 0300     		.2byte	0x3
 9944 0402 75       		.byte	0x75
 9945 0403 06       		.sleb128 6
 9946 0404 9F       		.byte	0x9f
 9947 0405 E4050000 		.4byte	.LVL195
 9948 0409 E7050000 		.4byte	.LVL196-1
 9949 040d 0100     		.2byte	0x1
 9950 040f 50       		.byte	0x50
 9951 0410 E7050000 		.4byte	.LVL196-1
 9952 0414 EA050000 		.4byte	.LVL197
 9953 0418 0300     		.2byte	0x3
 9954 041a 75       		.byte	0x75
 9955 041b 06       		.sleb128 6
 9956 041c 9F       		.byte	0x9f
 9957 041d EA050000 		.4byte	.LVL197
 9958 0421 EE050000 		.4byte	.LVL198
 9959 0425 0300     		.2byte	0x3
 9960 0427 75       		.byte	0x75
 9961 0428 0A       		.sleb128 10
 9962 0429 9F       		.byte	0x9f
 9963 042a EE050000 		.4byte	.LVL198
 9964 042e F1050000 		.4byte	.LVL199-1
 9965 0432 0100     		.2byte	0x1
 9966 0434 50       		.byte	0x50
 9967 0435 F1050000 		.4byte	.LVL199-1
 9968 0439 FC050000 		.4byte	.LVL200
 9969 043d 0300     		.2byte	0x3
 9970 043f 75       		.byte	0x75
 9971 0440 0A       		.sleb128 10
 9972 0441 9F       		.byte	0x9f
 9973 0442 FC050000 		.4byte	.LVL200
 9974 0446 02060000 		.4byte	.LVL201
 9975 044a 0300     		.2byte	0x3
 9976 044c 75       		.byte	0x75
 9977 044d 0C       		.sleb128 12
 9978 044e 9F       		.byte	0x9f
 9979 044f 02060000 		.4byte	.LVL201
 9980 0453 16060000 		.4byte	.LVL202
 9981 0457 0400     		.2byte	0x4
 9982 0459 75       		.byte	0x75
 9983 045a 8D02     		.sleb128 269
 9984 045c 9F       		.byte	0x9f
 9985 045d 16060000 		.4byte	.LVL202
 9986 0461 2A060000 		.4byte	.LVL203
 9987 0465 0400     		.2byte	0x4
 9988 0467 75       		.byte	0x75
 9989 0468 9002     		.sleb128 272
ARM GAS  C:\Users\AHMED~1.ELE\AppData\Local\Temp\ccFUpfoi.s 			page 193


 9990 046a 9F       		.byte	0x9f
 9991 046b 2A060000 		.4byte	.LVL203
 9992 046f 38060000 		.4byte	.LVL205
 9993 0473 0400     		.2byte	0x4
 9994 0475 75       		.byte	0x75
 9995 0476 9302     		.sleb128 275
 9996 0478 9F       		.byte	0x9f
 9997 0479 C4060000 		.4byte	.LVL218
 9998 047d C6060000 		.4byte	.LVL219
 9999 0481 0300     		.2byte	0x3
 10000 0483 70       		.byte	0x70
 10001 0484 01       		.sleb128 1
 10002 0485 9F       		.byte	0x9f
 10003 0486 C6060000 		.4byte	.LVL219
 10004 048a CA060000 		.4byte	.LVL220
 10005 048e 0300     		.2byte	0x3
 10006 0490 70       		.byte	0x70
 10007 0491 02       		.sleb128 2
 10008 0492 9F       		.byte	0x9f
 10009 0493 CA060000 		.4byte	.LVL220
 10010 0497 CF060000 		.4byte	.LVL221-1
 10011 049b 0100     		.2byte	0x1
 10012 049d 50       		.byte	0x50
 10013 049e CF060000 		.4byte	.LVL221-1
 10014 04a2 E2060000 		.4byte	.LVL223
 10015 04a6 0300     		.2byte	0x3
 10016 04a8 7A       		.byte	0x7a
 10017 04a9 02       		.sleb128 2
 10018 04aa 9F       		.byte	0x9f
 10019 04ab E2060000 		.4byte	.LVL223
 10020 04af EE060000 		.4byte	.LVL224
 10021 04b3 0300     		.2byte	0x3
 10022 04b5 7A       		.byte	0x7a
 10023 04b6 04       		.sleb128 4
 10024 04b7 9F       		.byte	0x9f
 10025 04b8 EE060000 		.4byte	.LVL224
 10026 04bc F2060000 		.4byte	.LVL225
 10027 04c0 0100     		.2byte	0x1
 10028 04c2 51       		.byte	0x51
 10029 04c3 F4060000 		.4byte	.LVL226
 10030 04c7 F9060000 		.4byte	.LVL227-1
 10031 04cb 0100     		.2byte	0x1
 10032 04cd 51       		.byte	0x51
 10033 04ce 00000000 		.4byte	0
 10034 04d2 00000000 		.4byte	0
 10035              	.LLST12:
 10036 04d6 5E000000 		.4byte	.LVL49
 10037 04da 7C000000 		.4byte	.LVL50
 10038 04de 0100     		.2byte	0x1
 10039 04e0 50       		.byte	0x50
 10040 04e1 94070000 		.4byte	.LVL240
 10041 04e5 96070000 		.4byte	.LVL241
 10042 04e9 0100     		.2byte	0x1
 10043 04eb 50       		.byte	0x50
 10044 04ec 00000000 		.4byte	0
 10045 04f0 00000000 		.4byte	0
 10046              	.LLST13:
ARM GAS  C:\Users\AHMED~1.ELE\AppData\Local\Temp\ccFUpfoi.s 			page 194


 10047 04f4 8E000000 		.4byte	.LVL52
 10048 04f8 9C000000 		.4byte	.LVL53
 10049 04fc 0100     		.2byte	0x1
 10050 04fe 50       		.byte	0x50
 10051 04ff A8000000 		.4byte	.LVL56
 10052 0503 AA000000 		.4byte	.LVL57
 10053 0507 0100     		.2byte	0x1
 10054 0509 50       		.byte	0x50
 10055 050a B6000000 		.4byte	.LVL60
 10056 050e C0000000 		.4byte	.LVL61
 10057 0512 0100     		.2byte	0x1
 10058 0514 50       		.byte	0x50
 10059 0515 C4000000 		.4byte	.LVL62
 10060 0519 C6000000 		.4byte	.LVL63
 10061 051d 0100     		.2byte	0x1
 10062 051f 50       		.byte	0x50
 10063 0520 36050000 		.4byte	.LVL180
 10064 0524 3F050000 		.4byte	.LVL182-1
 10065 0528 0100     		.2byte	0x1
 10066 052a 53       		.byte	0x53
 10067 052b 00000000 		.4byte	0
 10068 052f 00000000 		.4byte	0
 10069              	.LLST14:
 10070 0533 DC010000 		.4byte	.LVL87
 10071 0537 F0010000 		.4byte	.LVL92
 10072 053b 0100     		.2byte	0x1
 10073 053d 59       		.byte	0x59
 10074 053e FC010000 		.4byte	.LVL94
 10075 0542 10070000 		.4byte	.LVL231
 10076 0546 0100     		.2byte	0x1
 10077 0548 59       		.byte	0x59
 10078 0549 00000000 		.4byte	0
 10079 054d 00000000 		.4byte	0
 10080              	.LLST15:
 10081 0551 E8010000 		.4byte	.LVL90
 10082 0555 F0010000 		.4byte	.LVL92
 10083 0559 0100     		.2byte	0x1
 10084 055b 50       		.byte	0x50
 10085 055c 1C030000 		.4byte	.LVL120
 10086 0560 1F030000 		.4byte	.LVL121-1
 10087 0564 0100     		.2byte	0x1
 10088 0566 50       		.byte	0x50
 10089 0567 1F030000 		.4byte	.LVL121-1
 10090 056b 6E030000 		.4byte	.LVL130
 10091 056f 0100     		.2byte	0x1
 10092 0571 55       		.byte	0x55
 10093 0572 76030000 		.4byte	.LVL132
 10094 0576 81030000 		.4byte	.LVL134-1
 10095 057a 0100     		.2byte	0x1
 10096 057c 50       		.byte	0x50
 10097 057d 81030000 		.4byte	.LVL134-1
 10098 0581 A8030000 		.4byte	.LVL140
 10099 0585 0100     		.2byte	0x1
 10100 0587 55       		.byte	0x55
 10101 0588 B2030000 		.4byte	.LVL142
 10102 058c BD030000 		.4byte	.LVL143-1
 10103 0590 0100     		.2byte	0x1
ARM GAS  C:\Users\AHMED~1.ELE\AppData\Local\Temp\ccFUpfoi.s 			page 195


 10104 0592 50       		.byte	0x50
 10105 0593 BD030000 		.4byte	.LVL143-1
 10106 0597 DE030000 		.4byte	.LVL147
 10107 059b 0100     		.2byte	0x1
 10108 059d 5A       		.byte	0x5a
 10109 059e E8030000 		.4byte	.LVL149
 10110 05a2 F3030000 		.4byte	.LVL150-1
 10111 05a6 0100     		.2byte	0x1
 10112 05a8 50       		.byte	0x50
 10113 05a9 F3030000 		.4byte	.LVL150-1
 10114 05ad 72040000 		.4byte	.LVL158
 10115 05b1 0100     		.2byte	0x1
 10116 05b3 5A       		.byte	0x5a
 10117 05b4 7C040000 		.4byte	.LVL160
 10118 05b8 87040000 		.4byte	.LVL161-1
 10119 05bc 0100     		.2byte	0x1
 10120 05be 50       		.byte	0x50
 10121 05bf 87040000 		.4byte	.LVL161-1
 10122 05c3 9C040000 		.4byte	.LVL164
 10123 05c7 0100     		.2byte	0x1
 10124 05c9 5A       		.byte	0x5a
 10125 05ca AE040000 		.4byte	.LVL166
 10126 05ce B9040000 		.4byte	.LVL168-1
 10127 05d2 0100     		.2byte	0x1
 10128 05d4 50       		.byte	0x50
 10129 05d5 B9040000 		.4byte	.LVL168-1
 10130 05d9 E4040000 		.4byte	.LVL174
 10131 05dd 0100     		.2byte	0x1
 10132 05df 55       		.byte	0x55
 10133 05e0 B4060000 		.4byte	.LVL215
 10134 05e4 BF060000 		.4byte	.LVL217-1
 10135 05e8 0100     		.2byte	0x1
 10136 05ea 50       		.byte	0x50
 10137 05eb BF060000 		.4byte	.LVL217-1
 10138 05ef 0A070000 		.4byte	.LVL229
 10139 05f3 0100     		.2byte	0x1
 10140 05f5 55       		.byte	0x55
 10141 05f6 0A070000 		.4byte	.LVL229
 10142 05fa 0D070000 		.4byte	.LVL230-1
 10143 05fe 0100     		.2byte	0x1
 10144 0600 51       		.byte	0x51
 10145 0601 32070000 		.4byte	.LVL234
 10146 0605 3D070000 		.4byte	.LVL235-1
 10147 0609 0100     		.2byte	0x1
 10148 060b 50       		.byte	0x50
 10149 060c 3D070000 		.4byte	.LVL235-1
 10150 0610 94070000 		.4byte	.LVL240
 10151 0614 0100     		.2byte	0x1
 10152 0616 55       		.byte	0x55
 10153 0617 98070000 		.4byte	.LVL242
 10154 061b 9A070000 		.4byte	.LVL243
 10155 061f 0100     		.2byte	0x1
 10156 0621 55       		.byte	0x55
 10157 0622 00000000 		.4byte	0
 10158 0626 00000000 		.4byte	0
 10159              	.LLST16:
 10160 062a 54010000 		.4byte	.LVL286
ARM GAS  C:\Users\AHMED~1.ELE\AppData\Local\Temp\ccFUpfoi.s 			page 196


 10161 062e 76010000 		.4byte	.LVL290
 10162 0632 0100     		.2byte	0x1
 10163 0634 56       		.byte	0x56
 10164 0635 00000000 		.4byte	0
 10165 0639 00000000 		.4byte	0
 10166              	.LLST17:
 10167 063d 1E000000 		.4byte	.LVL247
 10168 0641 24000000 		.4byte	.LVL248
 10169 0645 0100     		.2byte	0x1
 10170 0647 50       		.byte	0x50
 10171 0648 24000000 		.4byte	.LVL248
 10172 064c C4000000 		.4byte	.LVL266
 10173 0650 0100     		.2byte	0x1
 10174 0652 56       		.byte	0x56
 10175 0653 DE010000 		.4byte	.LVL301
 10176 0657 E0010000 		.4byte	.LVL302
 10177 065b 0100     		.2byte	0x1
 10178 065d 56       		.byte	0x56
 10179 065e 00000000 		.4byte	0
 10180 0662 00000000 		.4byte	0
 10181              	.LLST18:
 10182 0666 54010000 		.4byte	.LVL286
 10183 066a 76010000 		.4byte	.LVL290
 10184 066e 0100     		.2byte	0x1
 10185 0670 58       		.byte	0x58
 10186 0671 00000000 		.4byte	0
 10187 0675 00000000 		.4byte	0
 10188              	.LLST19:
 10189 0679 00000000 		.4byte	.LVL244
 10190 067d C4000000 		.4byte	.LVL266
 10191 0681 0200     		.2byte	0x2
 10192 0683 32       		.byte	0x32
 10193 0684 9F       		.byte	0x9f
 10194 0685 02010000 		.4byte	.LVL273
 10195 0689 06010000 		.4byte	.LVL274
 10196 068d 0100     		.2byte	0x1
 10197 068f 50       		.byte	0x50
 10198 0690 48010000 		.4byte	.LVL283
 10199 0694 4A010000 		.4byte	.LVL284
 10200 0698 0200     		.2byte	0x2
 10201 069a 32       		.byte	0x32
 10202 069b 9F       		.byte	0x9f
 10203 069c 4A010000 		.4byte	.LVL284
 10204 06a0 4F010000 		.4byte	.LVL285-1
 10205 06a4 0100     		.2byte	0x1
 10206 06a6 50       		.byte	0x50
 10207 06a7 4F010000 		.4byte	.LVL285-1
 10208 06ab 76010000 		.4byte	.LVL290
 10209 06af 0100     		.2byte	0x1
 10210 06b1 54       		.byte	0x54
 10211 06b2 76010000 		.4byte	.LVL290
 10212 06b6 80010000 		.4byte	.LVL291
 10213 06ba 0100     		.2byte	0x1
 10214 06bc 50       		.byte	0x50
 10215 06bd 80010000 		.4byte	.LVL291
 10216 06c1 DE010000 		.4byte	.LVL301
 10217 06c5 0100     		.2byte	0x1
ARM GAS  C:\Users\AHMED~1.ELE\AppData\Local\Temp\ccFUpfoi.s 			page 197


 10218 06c7 54       		.byte	0x54
 10219 06c8 DE010000 		.4byte	.LVL301
 10220 06cc E0010000 		.4byte	.LVL302
 10221 06d0 0200     		.2byte	0x2
 10222 06d2 32       		.byte	0x32
 10223 06d3 9F       		.byte	0x9f
 10224 06d4 E0010000 		.4byte	.LVL302
 10225 06d8 F2010000 		.4byte	.LVL307
 10226 06dc 0100     		.2byte	0x1
 10227 06de 54       		.byte	0x54
 10228 06df 00000000 		.4byte	0
 10229 06e3 00000000 		.4byte	0
 10230              		.section	.debug_aranges,"",%progbits
 10231 0000 2C000000 		.4byte	0x2c
 10232 0004 0200     		.2byte	0x2
 10233 0006 00000000 		.4byte	.Ldebug_info0
 10234 000a 04       		.byte	0x4
 10235 000b 00       		.byte	0
 10236 000c 0000     		.2byte	0
 10237 000e 0000     		.2byte	0
 10238 0010 00000000 		.4byte	.LFB0
 10239 0014 98010000 		.4byte	.LFE0-.LFB0
 10240 0018 00000000 		.4byte	.LFB1
 10241 001c B4070000 		.4byte	.LFE1-.LFB1
 10242 0020 00000000 		.4byte	.LFB2
 10243 0024 0C020000 		.4byte	.LFE2-.LFB2
 10244 0028 00000000 		.4byte	0
 10245 002c 00000000 		.4byte	0
 10246              		.section	.debug_ranges,"",%progbits
 10247              	.Ldebug_ranges0:
 10248 0000 00000000 		.4byte	.LFB0
 10249 0004 98010000 		.4byte	.LFE0
 10250 0008 00000000 		.4byte	.LFB1
 10251 000c B4070000 		.4byte	.LFE1
 10252 0010 00000000 		.4byte	.LFB2
 10253 0014 0C020000 		.4byte	.LFE2
 10254 0018 00000000 		.4byte	0
 10255 001c 00000000 		.4byte	0
 10256              		.section	.debug_line,"",%progbits
 10257              	.Ldebug_line0:
 10258 0000 23040000 		.section	.debug_str,"MS",%progbits,1
 10258      02008C01 
 10258      00000201 
 10258      FB0E0D00 
 10258      01010101 
 10259              	.LASF328:
 10260 0000 4F535F46 		.ascii	"OS_FN_CLICC_LED_OPEN\000"
 10260      4E5F434C 
 10260      4943435F 
 10260      4C45445F 
 10260      4F50454E 
 10261              	.LASF341:
 10262 0015 4F535F46 		.ascii	"OS_FN_DRIVER_REGISTER\000"
 10262      4E5F4452 
 10262      49564552 
 10262      5F524547 
 10262      49535445 
ARM GAS  C:\Users\AHMED~1.ELE\AppData\Local\Temp\ccFUpfoi.s 			page 198


 10263              	.LASF768:
 10264 002b 73625F70 		.ascii	"sb_pan_format\000"
 10264      616E5F66 
 10264      6F726D61 
 10264      7400
 10265              	.LASF907:
 10266 0039 53657445 		.ascii	"SetEMVLoaded\000"
 10266      4D564C6F 
 10266      61646564 
 10266      00
 10267              	.LASF316:
 10268 0046 4F535F46 		.ascii	"OS_FN_CODEC_CLOSE\000"
 10268      4E5F434F 
 10268      4445435F 
 10268      434C4F53 
 10268      4500
 10269              	.LASF629:
 10270 0058 4D444D53 		.ascii	"MDMSREG\000"
 10270      52454700 
 10271              	.LASF689:
 10272 0060 775F6465 		.ascii	"w_debug_status\000"
 10272      6275675F 
 10272      73746174 
 10272      757300
 10273              	.LASF756:
 10274 006f 61706E32 		.ascii	"apn2_port\000"
 10274      5F706F72 
 10274      7400
 10275              	.LASF737:
 10276 0079 73625F64 		.ascii	"sb_dflt_name\000"
 10276      666C745F 
 10276      6E616D65 
 10276      00
 10277              	.LASF194:
 10278 0086 4F535F46 		.ascii	"OS_FN_FILE_INIT_SEARCH\000"
 10278      4E5F4649 
 10278      4C455F49 
 10278      4E49545F 
 10278      53454152 
 10279              	.LASF796:
 10280 009d 625F7374 		.ascii	"b_status\000"
 10280      61747573 
 10280      00
 10281              	.LASF11:
 10282 00a6 73697A65 		.ascii	"size_t\000"
 10282      5F7400
 10283              	.LASF174:
 10284 00ad 4F535F46 		.ascii	"OS_FN_FILE_SEEK\000"
 10284      4E5F4649 
 10284      4C455F53 
 10284      45454B00 
 10285              	.LASF9:
 10286 00bd 73697A65 		.ascii	"sizetype\000"
 10286      74797065 
 10286      00
 10287              	.LASF415:
 10288 00c6 4F535F46 		.ascii	"OS_FN_NFC_IC_REG_DIRECT_WRITE\000"
ARM GAS  C:\Users\AHMED~1.ELE\AppData\Local\Temp\ccFUpfoi.s 			page 199


 10288      4E5F4E46 
 10288      435F4943 
 10288      5F524547 
 10288      5F444952 
 10289              	.LASF166:
 10290 00e4 4F535F46 		.ascii	"OS_FN_FILE_CREATE_OWNER\000"
 10290      4E5F4649 
 10290      4C455F43 
 10290      52454154 
 10290      455F4F57 
 10291              	.LASF791:
 10292 00fc 73625F76 		.ascii	"sb_visa1_term_id\000"
 10292      69736131 
 10292      5F746572 
 10292      6D5F6964 
 10292      00
 10293              	.LASF722:
 10294 010d 625F696E 		.ascii	"b_init_fallback\000"
 10294      69745F66 
 10294      616C6C62 
 10294      61636B00 
 10295              	.LASF620:
 10296 011d 62486F75 		.ascii	"bHour\000"
 10296      7200
 10297              	.LASF739:
 10298 0123 625F7472 		.ascii	"b_trans_amount_len\000"
 10298      616E735F 
 10298      616D6F75 
 10298      6E745F6C 
 10298      656E00
 10299              	.LASF509:
 10300 0136 625F6F70 		.ascii	"b_option\000"
 10300      74696F6E 
 10300      00
 10301              	.LASF804:
 10302 013f 625F7479 		.ascii	"b_type\000"
 10302      706500
 10303              	.LASF333:
 10304 0146 4F535F46 		.ascii	"OS_FN_CLICC_LED_ON\000"
 10304      4E5F434C 
 10304      4943435F 
 10304      4C45445F 
 10304      4F4E00
 10305              	.LASF919:
 10306 0159 44656C61 		.ascii	"Delay1Sec\000"
 10306      79315365 
 10306      6300
 10307              	.LASF340:
 10308 0163 4F535F46 		.ascii	"OS_FN_USBHOST_DEVICEMAP\000"
 10308      4E5F5553 
 10308      42484F53 
 10308      545F4445 
 10308      56494345 
 10309              	.LASF555:
 10310 017b 464F5045 		.ascii	"FOPENMW\000"
 10310      4E4D5700 
 10311              	.LASF672:
ARM GAS  C:\Users\AHMED~1.ELE\AppData\Local\Temp\ccFUpfoi.s 			page 200


 10312 0183 625F7072 		.ascii	"b_pri_conn_time\000"
 10312      695F636F 
 10312      6E6E5F74 
 10312      696D6500 
 10313              	.LASF923:
 10314 0193 436F6E6E 		.ascii	"ConnectOK\000"
 10314      6563744F 
 10314      4B00
 10315              	.LASF797:
 10316 019d 625F7065 		.ascii	"b_pending\000"
 10316      6E64696E 
 10316      6700
 10317              	.LASF541:
 10318 01a7 625F666C 		.ascii	"b_flags\000"
 10318      61677300 
 10319              	.LASF875:
 10320 01af 7061636B 		.ascii	"pack_word\000"
 10320      5F776F72 
 10320      6400
 10321              	.LASF458:
 10322 01b9 4F535F46 		.ascii	"OS_FN_GCM_AES_OPEN\000"
 10322      4E5F4743 
 10322      4D5F4145 
 10322      535F4F50 
 10322      454E00
 10323              	.LASF816:
 10324 01cc 625F7965 		.ascii	"b_year\000"
 10324      617200
 10325              	.LASF580:
 10326 01d3 44495350 		.ascii	"DISP_SETPMW\000"
 10326      5F534554 
 10326      504D5700 
 10327              	.LASF315:
 10328 01df 4F535F46 		.ascii	"OS_FN_CODEC_OPEN\000"
 10328      4E5F434F 
 10328      4445435F 
 10328      4F50454E 
 10328      00
 10329              	.LASF441:
 10330 01f0 4F535F46 		.ascii	"OS_FN_APPCALL_RETURN\000"
 10330      4E5F4150 
 10330      5043414C 
 10330      4C5F5245 
 10330      5455524E 
 10331              	.LASF634:
 10332 0205 73546370 		.ascii	"sTcpCfg\000"
 10332      43666700 
 10333              	.LASF588:
 10334 020d 534D535F 		.ascii	"SMS_TX_MW\000"
 10334      54585F4D 
 10334      5700
 10335              	.LASF709:
 10336 0217 73625F66 		.ascii	"sb_ftp_user\000"
 10336      74705F75 
 10336      73657200 
 10337              	.LASF82:
 10338 0223 4F535F46 		.ascii	"OS_FN_COM3_SREAD\000"
ARM GAS  C:\Users\AHMED~1.ELE\AppData\Local\Temp\ccFUpfoi.s 			page 201


 10338      4E5F434F 
 10338      4D335F53 
 10338      52454144 
 10338      00
 10339              	.LASF867:
 10340 0234 4B50726F 		.ascii	"KProcessing\000"
 10340      63657373 
 10340      696E6700 
 10341              	.LASF170:
 10342 0240 4F535F46 		.ascii	"OS_FN_FILE_EXIST\000"
 10342      4E5F4649 
 10342      4C455F45 
 10342      58495354 
 10342      00
 10343              	.LASF480:
 10344 0251 4F535F46 		.ascii	"OS_FN_IMG_SENSOR_LED_OPEN\000"
 10344      4E5F494D 
 10344      475F5345 
 10344      4E534F52 
 10344      5F4C4544 
 10345              	.LASF119:
 10346 026b 4F535F46 		.ascii	"OS_FN_SM4_DECRYPT\000"
 10346      4E5F534D 
 10346      345F4445 
 10346      43525950 
 10346      5400
 10347              	.LASF935:
 10348 027d 52657365 		.ascii	"ResetComm\000"
 10348      74436F6D 
 10348      6D00
 10349              	.LASF806:
 10350 0287 45585452 		.ascii	"EXTRA_PARAM\000"
 10350      415F5041 
 10350      52414D00 
 10351              	.LASF488:
 10352 0293 4F535F46 		.ascii	"OS_FN_GPS_GET_DETAIL_INFO\000"
 10352      4E5F4750 
 10352      535F4745 
 10352      545F4445 
 10352      5441494C 
 10353              	.LASF887:
 10354 02ad 47657441 		.ascii	"GetAcqCount\000"
 10354      6371436F 
 10354      756E7400 
 10355              	.LASF300:
 10356 02b9 4F535F46 		.ascii	"OS_FN_GPRS_GET_CID\000"
 10356      4E5F4750 
 10356      52535F47 
 10356      45545F43 
 10356      494400
 10357              	.LASF615:
 10358 02cc 44415445 		.ascii	"DATETIME\000"
 10358      54494D45 
 10358      00
 10359              	.LASF369:
 10360 02d5 4F535F46 		.ascii	"OS_FN_TAMPER_RESET_STATUS\000"
 10360      4E5F5441 
ARM GAS  C:\Users\AHMED~1.ELE\AppData\Local\Temp\ccFUpfoi.s 			page 202


 10360      4D504552 
 10360      5F524553 
 10360      45545F53 
 10361              	.LASF442:
 10362 02ef 4F535F46 		.ascii	"OS_FN_POWER\000"
 10362      4E5F504F 
 10362      57455200 
 10363              	.LASF877:
 10364 02fb 6765745F 		.ascii	"get_distance\000"
 10364      64697374 
 10364      616E6365 
 10364      00
 10365              	.LASF611:
 10366 0308 65544143 		.ascii	"eTACOnline\000"
 10366      4F6E6C69 
 10366      6E6500
 10367              	.LASF600:
 10368 0313 43414B65 		.ascii	"CAKey\000"
 10368      7900
 10369              	.LASF57:
 10370 0319 4F535F46 		.ascii	"OS_FN_COM1_OPEN\000"
 10370      4E5F434F 
 10370      4D315F4F 
 10370      50454E00 
 10371              	.LASF290:
 10372 0329 4F535F46 		.ascii	"OS_FN_ADC_CH_DISABLE\000"
 10372      4E5F4144 
 10372      435F4348 
 10372      5F444953 
 10372      41424C45 
 10373              	.LASF216:
 10374 033e 4F535F46 		.ascii	"OS_FN_MMC_SIZE\000"
 10374      4E5F4D4D 
 10374      435F5349 
 10374      5A4500
 10375              	.LASF534:
 10376 034d 4D575F45 		.ascii	"MW_EXPECT_SEND\000"
 10376      58504543 
 10376      545F5345 
 10376      4E4400
 10377              	.LASF654:
 10378 035c 434F4D4D 		.ascii	"COMMPARAM\000"
 10378      50415241 
 10378      4D00
 10379              	.LASF485:
 10380 0366 4F535F46 		.ascii	"OS_FN_TAMPER_UNLOCK\000"
 10380      4E5F5441 
 10380      4D504552 
 10380      5F554E4C 
 10380      4F434B00 
 10381              	.LASF183:
 10382 037a 4F535F46 		.ascii	"OS_FN_FILE_DSEARCH_ALL\000"
 10382      4E5F4649 
 10382      4C455F44 
 10382      53454152 
 10382      43485F41 
 10383              	.LASF437:
ARM GAS  C:\Users\AHMED~1.ELE\AppData\Local\Temp\ccFUpfoi.s 			page 203


 10384 0391 4F535F46 		.ascii	"OS_FN_DMK_KVC_READ\000"
 10384      4E5F444D 
 10384      4B5F4B56 
 10384      435F5245 
 10384      414400
 10385              	.LASF434:
 10386 03a4 4F535F46 		.ascii	"OS_FN_RDLL_APP\000"
 10386      4E5F5244 
 10386      4C4C5F41 
 10386      505000
 10387              	.LASF29:
 10388 03b3 4F535F46 		.ascii	"OS_FN_TIMER_SET\000"
 10388      4E5F5449 
 10388      4D45525F 
 10388      53455400 
 10389              	.LASF932:
 10390 03c3 454D5644 		.ascii	"EMVDataUpdate\000"
 10390      61746155 
 10390      70646174 
 10390      6500
 10391              	.LASF464:
 10392 03d1 4F535F46 		.ascii	"OS_FN_SYS_THREAD_CREATE\000"
 10392      4E5F5359 
 10392      535F5448 
 10392      52454144 
 10392      5F435245 
 10393              	.LASF147:
 10394 03e9 4F535F46 		.ascii	"OS_FN_BUFMAN_FREE\000"
 10394      4E5F4255 
 10394      464D414E 
 10394      5F465245 
 10394      4500
 10395              	.LASF295:
 10396 03fb 4F535F46 		.ascii	"OS_FN_GPRS_AT_RESP\000"
 10396      4E5F4750 
 10396      52535F41 
 10396      545F5245 
 10396      535000
 10397              	.LASF787:
 10398 040e 73625F61 		.ascii	"sb_acceptor_id\000"
 10398      63636570 
 10398      746F725F 
 10398      696400
 10399              	.LASF593:
 10400 041d 46465452 		.ascii	"FFTRUNCATEMW\000"
 10400      554E4341 
 10400      54454D57 
 10400      00
 10401              	.LASF523:
 10402 042a 625F7374 		.ascii	"b_stel_len\000"
 10402      656C5F6C 
 10402      656E00
 10403              	.LASF820:
 10404 0435 73625F72 		.ascii	"sb_rrn\000"
 10404      726E00
 10405              	.LASF382:
 10406 043c 4F535F46 		.ascii	"OS_FN_MIF_READ\000"
ARM GAS  C:\Users\AHMED~1.ELE\AppData\Local\Temp\ccFUpfoi.s 			page 204


 10406      4E5F4D49 
 10406      465F5245 
 10406      414400
 10407              	.LASF512:
 10408 044b 625F656F 		.ascii	"b_eoption\000"
 10408      7074696F 
 10408      6E00
 10409              	.LASF614:
 10410 0455 4150505F 		.ascii	"APP_CFG\000"
 10410      43464700 
 10411              	.LASF641:
 10412 045d 50505053 		.ascii	"PPPSREG\000"
 10412      52454700 
 10413              	.LASF635:
 10414 0465 41555853 		.ascii	"AUXSREG\000"
 10414      52454700 
 10415              	.LASF478:
 10416 046d 4F535F46 		.ascii	"OS_FN_GPRS_IS_HL6RD_OLD_FRM\000"
 10416      4E5F4750 
 10416      52535F49 
 10416      535F484C 
 10416      3652445F 
 10417              	.LASF94:
 10418 0489 4F535F46 		.ascii	"OS_FN_AES_SETUP_KEY\000"
 10418      4E5F4145 
 10418      535F5345 
 10418      5455505F 
 10418      4B455900 
 10419              	.LASF279:
 10420 049d 4F535F46 		.ascii	"OS_FN_MCOM_TXRDY\000"
 10420      4E5F4D43 
 10420      4F4D5F54 
 10420      58524459 
 10420      00
 10421              	.LASF496:
 10422 04ae 625F6D6F 		.ascii	"b_mode\000"
 10422      646500
 10423              	.LASF697:
 10424 04b5 73625F65 		.ascii	"sb_emvapp_chksum\000"
 10424      6D766170 
 10424      705F6368 
 10424      6B73756D 
 10424      00
 10425              	.LASF905:
 10426 04c6 454D5644 		.ascii	"EMVData2DnloadBuf\000"
 10426      61746132 
 10426      446E6C6F 
 10426      61644275 
 10426      6600
 10427              	.LASF834:
 10428 04d8 73707074 		.ascii	"spptr\000"
 10428      7200
 10429              	.LASF790:
 10430 04de 73625F6E 		.ascii	"sb_next_batch_no\000"
 10430      6578745F 
 10430      62617463 
 10430      685F6E6F 
ARM GAS  C:\Users\AHMED~1.ELE\AppData\Local\Temp\ccFUpfoi.s 			page 205


 10430      00
 10431              	.LASF50:
 10432 04ef 4F535F46 		.ascii	"OS_FN_DISP_BRIGHTNESS\000"
 10432      4E5F4449 
 10432      53505F42 
 10432      52494748 
 10432      544E4553 
 10433              	.LASF706:
 10434 0505 73625F6C 		.ascii	"sb_lxapp_chksum\000"
 10434      78617070 
 10434      5F63686B 
 10434      73756D00 
 10435              	.LASF306:
 10436 0515 4F535F46 		.ascii	"OS_FN_GPRS_SMS_READ\000"
 10436      4E5F4750 
 10436      52535F53 
 10436      4D535F52 
 10436      45414400 
 10437              	.LASF570:
 10438 0529 49434349 		.ascii	"ICCINSERTEDMW\000"
 10438      4E534552 
 10438      5445444D 
 10438      5700
 10439              	.LASF297:
 10440 0537 4F535F46 		.ascii	"OS_FN_GPRS_READ\000"
 10440      4E5F4750 
 10440      52535F52 
 10440      45414400 
 10441              	.LASF493:
 10442 0547 55534246 		.ascii	"USBFPRT_GENERAL_INFO_IMG_BPP\000"
 10442      5052545F 
 10442      47454E45 
 10442      52414C5F 
 10442      494E464F 
 10443              	.LASF190:
 10444 0564 4F535F46 		.ascii	"OS_FN_FILE_GET_FREE_SPACE\000"
 10444      4E5F4649 
 10444      4C455F47 
 10444      45545F46 
 10444      5245455F 
 10445              	.LASF130:
 10446 057e 4F535F46 		.ascii	"OS_FN_KEY_SAVE_NC\000"
 10446      4E5F4B45 
 10446      595F5341 
 10446      56455F4E 
 10446      4300
 10447              	.LASF469:
 10448 0590 4F535F46 		.ascii	"OS_FN_WIFI_SOCKET_SEND_UDP\000"
 10448      4E5F5749 
 10448      46495F53 
 10448      4F434B45 
 10448      545F5345 
 10449              	.LASF761:
 10450 05ab 625F6163 		.ascii	"b_acquirer_id\000"
 10450      71756972 
 10450      65725F69 
 10450      6400
ARM GAS  C:\Users\AHMED~1.ELE\AppData\Local\Temp\ccFUpfoi.s 			page 206


 10451              	.LASF440:
 10452 05b9 4F535F46 		.ascii	"OS_FN_RMB_CONTROL\000"
 10452      4E5F524D 
 10452      425F434F 
 10452      4E54524F 
 10452      4C00
 10453              	.LASF110:
 10454 05cb 4F535F46 		.ascii	"OS_FN_SM2_GET_SIGNATURE\000"
 10454      4E5F534D 
 10454      325F4745 
 10454      545F5349 
 10454      474E4154 
 10455              	.LASF76:
 10456 05e3 4F535F46 		.ascii	"OS_FN_COM3_CLOSE\000"
 10456      4E5F434F 
 10456      4D335F43 
 10456      4C4F5345 
 10456      00
 10457              	.LASF501:
 10458 05f4 625F7265 		.ascii	"b_retry\000"
 10458      74727900 
 10459              	.LASF66:
 10460 05fc 4F535F46 		.ascii	"OS_FN_COM2_OPEN\000"
 10460      4E5F434F 
 10460      4D325F4F 
 10460      50454E00 
 10461              	.LASF339:
 10462 060c 4F535F46 		.ascii	"OS_FN_USBHOST_DEVINFO\000"
 10462      4E5F5553 
 10462      42484F53 
 10462      545F4445 
 10462      56494E46 
 10463              	.LASF236:
 10464 0622 4F535F46 		.ascii	"OS_FN_MSR_RXLEN\000"
 10464      4E5F4D53 
 10464      525F5258 
 10464      4C454E00 
 10465              	.LASF536:
 10466 0632 775F6D69 		.ascii	"w_min_len\000"
 10466      6E5F6C65 
 10466      6E00
 10467              	.LASF349:
 10468 063c 4F535F46 		.ascii	"OS_FN_DEVICE_SEARCH_NEXT\000"
 10468      4E5F4445 
 10468      56494345 
 10468      5F534541 
 10468      5243485F 
 10469              	.LASF95:
 10470 0655 4F535F46 		.ascii	"OS_FN_AES_ENCRYPT_BLOCK\000"
 10470      4E5F4145 
 10470      535F454E 
 10470      43525950 
 10470      545F424C 
 10471              	.LASF180:
 10472 066d 4F535F46 		.ascii	"OS_FN_FILE_END\000"
 10472      4E5F4649 
 10472      4C455F45 
ARM GAS  C:\Users\AHMED~1.ELE\AppData\Local\Temp\ccFUpfoi.s 			page 207


 10472      4E4400
 10473              	.LASF121:
 10474 067c 4F535F46 		.ascii	"OS_FN_KEY_SAVE_TMK\000"
 10474      4E5F4B45 
 10474      595F5341 
 10474      56455F54 
 10474      4D4B00
 10475              	.LASF207:
 10476 068f 4F535F46 		.ascii	"OS_FN_SAM_SELECT\000"
 10476      4E5F5341 
 10476      4D5F5345 
 10476      4C454354 
 10476      00
 10477              	.LASF424:
 10478 06a0 4F535F46 		.ascii	"OS_FN_GPS_ENABLED\000"
 10478      4E5F4750 
 10478      535F454E 
 10478      41424C45 
 10478      4400
 10479              	.LASF400:
 10480 06b2 4F535F46 		.ascii	"OS_FN_BARCODE_STATUS\000"
 10480      4E5F4241 
 10480      52434F44 
 10480      455F5354 
 10480      41545553 
 10481              	.LASF71:
 10482 06c7 4F535F46 		.ascii	"OS_FN_COM2_SEND\000"
 10482      4E5F434F 
 10482      4D325F53 
 10482      454E4400 
 10483              	.LASF205:
 10484 06d7 4F535F46 		.ascii	"OS_FN_SAM_OPEN\000"
 10484      4E5F5341 
 10484      4D5F4F50 
 10484      454E00
 10485              	.LASF810:
 10486 06e6 73625F63 		.ascii	"sb_content\000"
 10486      6F6E7465 
 10486      6E7400
 10487              	.LASF145:
 10488 06f1 4F535F46 		.ascii	"OS_FN_THREAD_RETURN\000"
 10488      4E5F5448 
 10488      52454144 
 10488      5F524554 
 10488      55524E00 
 10489              	.LASF531:
 10490 0705 625F746F 		.ascii	"b_tone_duration\000"
 10490      6E655F64 
 10490      75726174 
 10490      696F6E00 
 10491              	.LASF568:
 10492 0715 44455332 		.ascii	"DES2MW\000"
 10492      4D5700
 10493              	.LASF103:
 10494 071c 4F535F46 		.ascii	"OS_FN_SHA_FINISH\000"
 10494      4E5F5348 
 10494      415F4649 
ARM GAS  C:\Users\AHMED~1.ELE\AppData\Local\Temp\ccFUpfoi.s 			page 208


 10494      4E495348 
 10494      00
 10495              	.LASF384:
 10496 072d 4F535F46 		.ascii	"OS_FN_MIF_INC\000"
 10496      4E5F4D49 
 10496      465F494E 
 10496      4300
 10497              	.LASF814:
 10498 073b 625F7072 		.ascii	"b_proc_code2\000"
 10498      6F635F63 
 10498      6F646532 
 10498      00
 10499              	.LASF422:
 10500 0748 4F535F46 		.ascii	"OS_FN_GPS_RESP\000"
 10500      4E5F4750 
 10500      535F5245 
 10500      535000
 10501              	.LASF186:
 10502 0757 4F535F46 		.ascii	"OS_FN_FILE_GET_NAME\000"
 10502      4E5F4649 
 10502      4C455F47 
 10502      45545F4E 
 10502      414D4500 
 10503              	.LASF693:
 10504 076b 625F6563 		.ascii	"b_ecr_ssl\000"
 10504      725F7373 
 10504      6C00
 10505              	.LASF913:
 10506 0775 47657453 		.ascii	"GetSTISMode\000"
 10506      5449534D 
 10506      6F646500 
 10507              	.LASF111:
 10508 0781 4F535F46 		.ascii	"OS_FN_SM2_VERIFY_SIGNATURE\000"
 10508      4E5F534D 
 10508      325F5645 
 10508      52494659 
 10508      5F534947 
 10509              	.LASF545:
 10510 079c 434C4F53 		.ascii	"CLOSEMW\000"
 10510      454D5700 
 10511              	.LASF502:
 10512 07a4 4D575F41 		.ascii	"MW_AUX_CFG\000"
 10512      55585F43 
 10512      464700
 10513              	.LASF122:
 10514 07af 4F535F46 		.ascii	"OS_FN_KEY_DES\000"
 10514      4E5F4B45 
 10514      595F4445 
 10514      5300
 10515              	.LASF727:
 10516 07bd 625F646C 		.ascii	"b_dll\000"
 10516      6C00
 10517              	.LASF763:
 10518 07c3 49535355 		.ascii	"ISSUER_TBL\000"
 10518      45525F54 
 10518      424C00
 10519              	.LASF13:
ARM GAS  C:\Users\AHMED~1.ELE\AppData\Local\Temp\ccFUpfoi.s 			page 209


 10520 07ce 42595445 		.ascii	"BYTE\000"
 10520      00
 10521              	.LASF407:
 10522 07d3 4F535F46 		.ascii	"OS_FN_WIFI_PROFILES_WRITE\000"
 10522      4E5F5749 
 10522      46495F50 
 10522      524F4649 
 10522      4C45535F 
 10523              	.LASF280:
 10524 07ed 4F535F46 		.ascii	"OS_FN_MCOM_SREAD\000"
 10524      4E5F4D43 
 10524      4F4D5F53 
 10524      52454144 
 10524      00
 10525              	.LASF640:
 10526 07fe 4D41585F 		.ascii	"MAX_APM_AUX\000"
 10526      41504D5F 
 10526      41555800 
 10527              	.LASF120:
 10528 080a 4F535F46 		.ascii	"OS_FN_KEY_SAVE\000"
 10528      4E5F4B45 
 10528      595F5341 
 10528      564500
 10529              	.LASF93:
 10530 0819 4F535F46 		.ascii	"OS_FN_RSA_PRIVATE\000"
 10530      4E5F5253 
 10530      415F5052 
 10530      49564154 
 10530      4500
 10531              	.LASF255:
 10532 082b 4F535F46 		.ascii	"OS_FN_FL_PGM\000"
 10532      4E5F464C 
 10532      5F50474D 
 10532      00
 10533              	.LASF197:
 10534 0838 4F535F46 		.ascii	"OS_FN_FILE_RMDIR\000"
 10534      4E5F4649 
 10534      4C455F52 
 10534      4D444952 
 10534      00
 10535              	.LASF688:
 10536 0849 775F7472 		.ascii	"w_training_status\000"
 10536      61696E69 
 10536      6E675F73 
 10536      74617475 
 10536      7300
 10537              	.LASF443:
 10538 085b 4F535F46 		.ascii	"OS_FN_CLICC_DEBUG\000"
 10538      4E5F434C 
 10538      4943435F 
 10538      44454255 
 10538      4700
 10539              	.LASF666:
 10540 086d 5445524D 		.ascii	"TERM_DATA\000"
 10540      5F444154 
 10540      4100
 10541              	.LASF386:
ARM GAS  C:\Users\AHMED~1.ELE\AppData\Local\Temp\ccFUpfoi.s 			page 210


 10542 0877 4F535F46 		.ascii	"OS_FN_MIF_RESTORE\000"
 10542      4E5F4D49 
 10542      465F5245 
 10542      53544F52 
 10542      4500
 10543              	.LASF281:
 10544 0889 4F535F46 		.ascii	"OS_FN_MCOM_SSEND\000"
 10544      4E5F4D43 
 10544      4F4D5F53 
 10544      53454E44 
 10544      00
 10545              	.LASF343:
 10546 089a 4F535F46 		.ascii	"OS_FN_DEVICE_ALLOC\000"
 10546      4E5F4445 
 10546      56494345 
 10546      5F414C4C 
 10546      4F4300
 10547              	.LASF454:
 10548 08ad 4F535F46 		.ascii	"OS_FN_FPRT_INFO_GET\000"
 10548      4E5F4650 
 10548      52545F49 
 10548      4E464F5F 
 10548      47455400 
 10549              	.LASF861:
 10550 08c1 69536176 		.ascii	"iSaveAcqCount\000"
 10550      65416371 
 10550      436F756E 
 10550      7400
 10551              	.LASF199:
 10552 08cf 4F535F46 		.ascii	"OS_FN_FILE_SYNC\000"
 10552      4E5F4649 
 10552      4C455F53 
 10552      594E4300 
 10553              	.LASF450:
 10554 08df 4F535F46 		.ascii	"OS_FN_FPRT_OPEN\000"
 10554      4E5F4650 
 10554      52545F4F 
 10554      50454E00 
 10555              	.LASF556:
 10556 08ef 46434C4F 		.ascii	"FCLOSEMW\000"
 10556      53454D57 
 10556      00
 10557              	.LASF551:
 10558 08f8 4745544C 		.ascii	"GETLASTERRMW\000"
 10558      41535445 
 10558      52524D57 
 10558      00
 10559              	.LASF237:
 10560 0905 4F535F46 		.ascii	"OS_FN_MSR_GETC\000"
 10560      4E5F4D53 
 10560      525F4745 
 10560      544300
 10561              	.LASF544:
 10562 0914 4F50454E 		.ascii	"OPENMW\000"
 10562      4D5700
 10563              	.LASF288:
 10564 091b 4F535F46 		.ascii	"OS_FN_BATT_CHARGE_MODE\000"
ARM GAS  C:\Users\AHMED~1.ELE\AppData\Local\Temp\ccFUpfoi.s 			page 211


 10564      4E5F4241 
 10564      54545F43 
 10564      48415247 
 10564      455F4D4F 
 10565              	.LASF304:
 10566 0932 4F535F46 		.ascii	"OS_FN_GPRS_SMS_SEND\000"
 10566      4E5F4750 
 10566      52535F53 
 10566      4D535F53 
 10566      454E4400 
 10567              	.LASF392:
 10568 0946 4F535F46 		.ascii	"OS_FN_MIF_INFO_SET\000"
 10568      4E5F4D49 
 10568      465F494E 
 10568      464F5F53 
 10568      455400
 10569              	.LASF357:
 10570 0959 4F535F46 		.ascii	"OS_FN_USBOTG_GET_STATE\000"
 10570      4E5F5553 
 10570      424F5447 
 10570      5F474554 
 10570      5F535441 
 10571              	.LASF733:
 10572 0970 73625F70 		.ascii	"sb_password\000"
 10572      61737377 
 10572      6F726400 
 10573              	.LASF827:
 10574 097c 775F7478 		.ascii	"w_txmsg_id\000"
 10574      6D73675F 
 10574      696400
 10575              	.LASF766:
 10576 0987 73625F72 		.ascii	"sb_ref_tel_no\000"
 10576      65665F74 
 10576      656C5F6E 
 10576      6F00
 10577              	.LASF883:
 10578 0995 7065656B 		.ascii	"peek_byte\000"
 10578      5F627974 
 10578      6500
 10579              	.LASF685:
 10580 099f 625F656D 		.ascii	"b_emv_enable\000"
 10580      765F656E 
 10580      61626C65 
 10580      00
 10581              	.LASF681:
 10582 09ac 73625F72 		.ascii	"sb_roc_no\000"
 10582      6F635F6E 
 10582      6F00
 10583              	.LASF519:
 10584 09b6 625F7074 		.ascii	"b_ptel_len\000"
 10584      656C5F6C 
 10584      656E00
 10585              	.LASF648:
 10586 09c1 73635077 		.ascii	"scPwd\000"
 10586      6400
 10587              	.LASF146:
 10588 09c7 4F535F46 		.ascii	"OS_FN_BUFMAN_ALLOC\000"
ARM GAS  C:\Users\AHMED~1.ELE\AppData\Local\Temp\ccFUpfoi.s 			page 212


 10588      4E5F4255 
 10588      464D414E 
 10588      5F414C4C 
 10588      4F4300
 10589              	.LASF880:
 10590 09da 6765745F 		.ascii	"get_byte\000"
 10590      62797465 
 10590      00
 10591              	.LASF301:
 10592 09e3 4F535F46 		.ascii	"OS_FN_GPRS_READ_USSD\000"
 10592      4E5F4750 
 10592      52535F52 
 10592      4541445F 
 10592      55535344 
 10593              	.LASF112:
 10594 09f8 4F535F46 		.ascii	"OS_FN_SM2_ENCRYPT\000"
 10594      4E5F534D 
 10594      325F454E 
 10594      43525950 
 10594      5400
 10595              	.LASF872:
 10596 0a0a 7061636B 		.ascii	"pack_byte\000"
 10596      5F627974 
 10596      6500
 10597              	.LASF683:
 10598 0a14 73625F70 		.ascii	"sb_port\000"
 10598      6F727400 
 10599              	.LASF822:
 10600 0a1c 5452414E 		.ascii	"TRANS_DATA\000"
 10600      535F4441 
 10600      544100
 10601              	.LASF891:
 10602 0a27 53657453 		.ascii	"SetSTISMode\000"
 10602      5449534D 
 10602      6F646500 
 10603              	.LASF461:
 10604 0a33 4F535F46 		.ascii	"OS_FN_GCM_AES_PROCESS\000"
 10604      4E5F4743 
 10604      4D5F4145 
 10604      535F5052 
 10604      4F434553 
 10605              	.LASF345:
 10606 0a49 4F535F46 		.ascii	"OS_FN_DEVICE_UNREGISTER\000"
 10606      4E5F4445 
 10606      56494345 
 10606      5F554E52 
 10606      45474953 
 10607              	.LASF671:
 10608 0a61 73625F70 		.ascii	"sb_pri_no\000"
 10608      72695F6E 
 10608      6F00
 10609              	.LASF838:
 10610 0a6b 7375625F 		.ascii	"sub_field_len\000"
 10610      6669656C 
 10610      645F6C65 
 10610      6E00
 10611              	.LASF941:
ARM GAS  C:\Users\AHMED~1.ELE\AppData\Local\Temp\ccFUpfoi.s 			page 213


 10612 0a79 5061636B 		.ascii	"PackHostMsg\000"
 10612      486F7374 
 10612      4D736700 
 10613              	.LASF109:
 10614 0a85 4F535F46 		.ascii	"OS_FN_SM2_FREE_CURVE\000"
 10614      4E5F534D 
 10614      325F4652 
 10614      45455F43 
 10614      55525645 
 10615              	.LASF528:
 10616 0a9a 625F6364 		.ascii	"b_cd_off_qualify_tval\000"
 10616      5F6F6666 
 10616      5F717561 
 10616      6C696679 
 10616      5F747661 
 10617              	.LASF289:
 10618 0ab0 4F535F46 		.ascii	"OS_FN_ADC_CH_ENABLE\000"
 10618      4E5F4144 
 10618      435F4348 
 10618      5F454E41 
 10618      424C4500 
 10619              	.LASF915:
 10620 0ac4 44697370 		.ascii	"DispHeader\000"
 10620      48656164 
 10620      657200
 10621              	.LASF793:
 10622 0acf 625F686F 		.ascii	"b_host_type\000"
 10622      73745F74 
 10622      79706500 
 10623              	.LASF261:
 10624 0adb 4F535F46 		.ascii	"OS_FN_FL_COPYB_START\000"
 10624      4E5F464C 
 10624      5F434F50 
 10624      59425F53 
 10624      54415254 
 10625              	.LASF48:
 10626 0af0 4F535F46 		.ascii	"OS_FN_DISP_TEXTC\000"
 10626      4E5F4449 
 10626      53505F54 
 10626      45585443 
 10626      00
 10627              	.LASF859:
 10628 0b01 70735278 		.ascii	"psRxBuf\000"
 10628      42756600 
 10629              	.LASF679:
 10630 0b09 73625F70 		.ascii	"sb_pabx\000"
 10630      61627800 
 10631              	.LASF655:
 10632 0b11 774C656E 		.ascii	"wLen\000"
 10632      00
 10633              	.LASF144:
 10634 0b16 4F535F46 		.ascii	"OS_FN_THREAD_POP\000"
 10634      4E5F5448 
 10634      52454144 
 10634      5F504F50 
 10634      00
 10635              	.LASF518:
ARM GAS  C:\Users\AHMED~1.ELE\AppData\Local\Temp\ccFUpfoi.s 			page 214


 10636 0b27 625F7265 		.ascii	"b_redial_pause_tval\000"
 10636      6469616C 
 10636      5F706175 
 10636      73655F74 
 10636      76616C00 
 10637              	.LASF320:
 10638 0b3b 4F535F46 		.ascii	"OS_FN_CODEC_STATUS\000"
 10638      4E5F434F 
 10638      4445435F 
 10638      53544154 
 10638      555300
 10639              	.LASF182:
 10640 0b4e 4F535F46 		.ascii	"OS_FN_FILE_DSEARCH\000"
 10640      4E5F4649 
 10640      4C455F44 
 10640      53454152 
 10640      434800
 10641              	.LASF405:
 10642 0b61 4F535F46 		.ascii	"OS_FN_WIFI_STATUS\000"
 10642      4E5F5749 
 10642      46495F53 
 10642      54415455 
 10642      5300
 10643              	.LASF587:
 10644 0b73 534D535F 		.ascii	"SMS_RX_MW\000"
 10644      52585F4D 
 10644      5700
 10645              	.LASF656:
 10646 0b7d 62436F6D 		.ascii	"bCommMode\000"
 10646      6D4D6F64 
 10646      6500
 10647              	.LASF37:
 10648 0b87 4F535F46 		.ascii	"OS_FN_DISP_OPEN\000"
 10648      4E5F4449 
 10648      53505F4F 
 10648      50454E00 
 10649              	.LASF39:
 10650 0b97 4F535F46 		.ascii	"OS_FN_DISP_PUTC\000"
 10650      4E5F4449 
 10650      53505F50 
 10650      55544300 
 10651              	.LASF327:
 10652 0ba7 4F535F46 		.ascii	"OS_FN_CLICC_EMV_LV1\000"
 10652      4E5F434C 
 10652      4943435F 
 10652      454D565F 
 10652      4C563100 
 10653              	.LASF43:
 10654 0bbb 4F535F46 		.ascii	"OS_FN_DISP_PUTG\000"
 10654      4E5F4449 
 10654      53505F50 
 10654      55544700 
 10655              	.LASF133:
 10656 0bcb 4F535F46 		.ascii	"OS_FN_KEY_SAVE_TMK_CBC_NC\000"
 10656      4E5F4B45 
 10656      595F5341 
 10656      56455F54 
ARM GAS  C:\Users\AHMED~1.ELE\AppData\Local\Temp\ccFUpfoi.s 			page 215


 10656      4D4B5F43 
 10657              	.LASF553:
 10658 0be5 46435245 		.ascii	"FCREATEMW\000"
 10658      4154454D 
 10658      5700
 10659              	.LASF41:
 10660 0bef 4F535F46 		.ascii	"OS_FN_DISP_PUTN\000"
 10660      4E5F4449 
 10660      53505F50 
 10660      55544E00 
 10661              	.LASF474:
 10662 0bff 4F535F46 		.ascii	"OS_FN_IMG_SENSOR_GET_FRAME\000"
 10662      4E5F494D 
 10662      475F5345 
 10662      4E534F52 
 10662      5F474554 
 10663              	.LASF522:
 10664 0c1a 625F7063 		.ascii	"b_pconn_tval\000"
 10664      6F6E6E5F 
 10664      7476616C 
 10664      00
 10665              	.LASF435:
 10666 0c27 4F535F46 		.ascii	"OS_FN_DUMMY\000"
 10666      4E5F4455 
 10666      4D4D5900 
 10667              	.LASF319:
 10668 0c33 4F535F46 		.ascii	"OS_FN_CODEC_STOP\000"
 10668      4E5F434F 
 10668      4445435F 
 10668      53544F50 
 10668      00
 10669              	.LASF40:
 10670 0c44 4F535F46 		.ascii	"OS_FN_DISP_PUTS\000"
 10670      4E5F4449 
 10670      53505F50 
 10670      55545300 
 10671              	.LASF202:
 10672 0c54 4F535F46 		.ascii	"OS_FN_CONFIG_READ\000"
 10672      4E5F434F 
 10672      4E464947 
 10672      5F524541 
 10672      4400
 10673              	.LASF317:
 10674 0c66 4F535F46 		.ascii	"OS_FN_CODEC_PLAY\000"
 10674      4E5F434F 
 10674      4445435F 
 10674      504C4159 
 10674      00
 10675              	.LASF802:
 10676 0c77 4C4F474F 		.ascii	"LOGO_TBL\000"
 10676      5F54424C 
 10676      00
 10677              	.LASF742:
 10678 0c80 625F7365 		.ascii	"b_settle_amount_len\000"
 10678      74746C65 
 10678      5F616D6F 
 10678      756E745F 
ARM GAS  C:\Users\AHMED~1.ELE\AppData\Local\Temp\ccFUpfoi.s 			page 216


 10678      6C656E00 
 10679              	.LASF680:
 10680 0c94 73625F74 		.ascii	"sb_trace_no\000"
 10680      72616365 
 10680      5F6E6F00 
 10681              	.LASF510:
 10682 0ca0 625F6365 		.ascii	"b_certidx\000"
 10682      72746964 
 10682      7800
 10683              	.LASF408:
 10684 0caa 4F535F46 		.ascii	"OS_FN_NFC_OPEN_FELICA\000"
 10684      4E5F4E46 
 10684      435F4F50 
 10684      454E5F46 
 10684      454C4943 
 10685              	.LASF764:
 10686 0cc0 625F6964 		.ascii	"b_id\000"
 10686      00
 10687              	.LASF618:
 10688 0cc5 624D6F6E 		.ascii	"bMonth\000"
 10688      746800
 10689              	.LASF540:
 10690 0ccc 775F7469 		.ascii	"w_timeout\000"
 10690      6D656F75 
 10690      7400
 10691              	.LASF777:
 10692 0cd6 625F7365 		.ascii	"b_sec_trans_conn_time\000"
 10692      635F7472 
 10692      616E735F 
 10692      636F6E6E 
 10692      5F74696D 
 10693              	.LASF484:
 10694 0cec 4F535F46 		.ascii	"OS_FN_WIFI_SET_REGULATORY_DOMAIN\000"
 10694      4E5F5749 
 10694      46495F53 
 10694      45545F52 
 10694      4547554C 
 10695              	.LASF579:
 10696 0d0d 44495350 		.ascii	"DISP_LINEMW\000"
 10696      5F4C494E 
 10696      454D5700 
 10697              	.LASF167:
 10698 0d19 4F535F46 		.ascii	"OS_FN_FILE_OPEN\000"
 10698      4E5F4649 
 10698      4C455F4F 
 10698      50454E00 
 10699              	.LASF177:
 10700 0d29 4F535F46 		.ascii	"OS_FN_FILE_PUTC\000"
 10700      4E5F4649 
 10700      4C455F50 
 10700      55544300 
 10701              	.LASF625:
 10702 0d39 73634465 		.ascii	"scDescDat\000"
 10702      73634461 
 10702      7400
 10703              	.LASF732:
 10704 0d43 625F6469 		.ascii	"b_dial_option\000"
ARM GAS  C:\Users\AHMED~1.ELE\AppData\Local\Temp\ccFUpfoi.s 			page 217


 10704      616C5F6F 
 10704      7074696F 
 10704      6E00
 10705              	.LASF143:
 10706 0d51 4F535F46 		.ascii	"OS_FN_THREAD_PUSH\000"
 10706      4E5F5448 
 10706      52454144 
 10706      5F505553 
 10706      4800
 10707              	.LASF926:
 10708 0d63 47657454 		.ascii	"GetTrace\000"
 10708      72616365 
 10708      00
 10709              	.LASF745:
 10710 0d6c 73625F61 		.ascii	"sb_additional_prompt\000"
 10710      64646974 
 10710      696F6E61 
 10710      6C5F7072 
 10710      6F6D7074 
 10711              	.LASF428:
 10712 0d81 4F535F46 		.ascii	"OS_FN_GET_CALLID\000"
 10712      4E5F4745 
 10712      545F4341 
 10712      4C4C4944 
 10712      00
 10713              	.LASF547:
 10714 0d92 57524954 		.ascii	"WRITEMW\000"
 10714      454D5700 
 10715              	.LASF506:
 10716 0d9a 645F6970 		.ascii	"d_ip\000"
 10716      00
 10717              	.LASF758:
 10718 0d9f 73625F70 		.ascii	"sb_pan_range_low\000"
 10718      616E5F72 
 10718      616E6765 
 10718      5F6C6F77 
 10718      00
 10719              	.LASF639:
 10720 0db0 41504D5F 		.ascii	"APM_AUX2\000"
 10720      41555832 
 10720      00
 10721              	.LASF569:
 10722 0db9 44495350 		.ascii	"DISPLOGOMW\000"
 10722      4C4F474F 
 10722      4D5700
 10723              	.LASF436:
 10724 0dc4 4F535F46 		.ascii	"OS_FN_OFF\000"
 10724      4E5F4F46 
 10724      4600
 10725              	.LASF698:
 10726 0dce 73625F65 		.ascii	"sb_emvapp_date\000"
 10726      6D766170 
 10726      705F6461 
 10726      746500
 10727              	.LASF517:
 10728 0ddd 625F696E 		.ascii	"b_inactivity_tval\000"
 10728      61637469 
ARM GAS  C:\Users\AHMED~1.ELE\AppData\Local\Temp\ccFUpfoi.s 			page 218


 10728      76697479 
 10728      5F747661 
 10728      6C00
 10729              	.LASF456:
 10730 0def 4F535F46 		.ascii	"OS_FN_ECC_PUBKEY_VERIFY\000"
 10730      4E5F4543 
 10730      435F5055 
 10730      424B4559 
 10730      5F564552 
 10731              	.LASF21:
 10732 0e07 4F535F46 		.ascii	"OS_FN_KBD_CLOSE\000"
 10732      4E5F4B42 
 10732      445F434C 
 10732      4F534500 
 10733              	.LASF533:
 10734 0e17 625F6465 		.ascii	"b_detect_mode\000"
 10734      74656374 
 10734      5F6D6F64 
 10734      6500
 10735              	.LASF785:
 10736 0e25 625F7472 		.ascii	"b_trans_mdm_mode\000"
 10736      616E735F 
 10736      6D646D5F 
 10736      6D6F6465 
 10736      00
 10737              	.LASF550:
 10738 0e36 53544154 		.ascii	"STATMW\000"
 10738      4D5700
 10739              	.LASF20:
 10740 0e3d 4F535F46 		.ascii	"OS_FN_KBD_OPEN\000"
 10740      4E5F4B42 
 10740      445F4F50 
 10740      454E00
 10741              	.LASF127:
 10742 0e4c 4F535F46 		.ascii	"OS_FN_KEY_CUP_MAC\000"
 10742      4E5F4B45 
 10742      595F4355 
 10742      505F4D41 
 10742      4300
 10743              	.LASF888:
 10744 0e5e 6C69625F 		.ascii	"lib_app_call\000"
 10744      6170705F 
 10744      63616C6C 
 10744      00
 10745              	.LASF53:
 10746 0e6b 4F535F46 		.ascii	"OS_FN_DISP_ICON_PUTC\000"
 10746      4E5F4449 
 10746      53505F49 
 10746      434F4E5F 
 10746      50555443 
 10747              	.LASF201:
 10748 0e80 4F535F46 		.ascii	"OS_FN_CONFIG_LENGTH\000"
 10748      4E5F434F 
 10748      4E464947 
 10748      5F4C454E 
 10748      47544800 
 10749              	.LASF747:
ARM GAS  C:\Users\AHMED~1.ELE\AppData\Local\Temp\ccFUpfoi.s 			page 219


 10750 0e94 73625F70 		.ascii	"sb_psw_refund\000"
 10750      73775F72 
 10750      6566756E 
 10750      6400
 10751              	.LASF638:
 10752 0ea2 41504D5F 		.ascii	"APM_AUX1\000"
 10752      41555831 
 10752      00
 10753              	.LASF667:
 10754 0eab 625F7374 		.ascii	"b_stis_mode\000"
 10754      69735F6D 
 10754      6F646500 
 10755              	.LASF524:
 10756 0eb7 735F7374 		.ascii	"s_stel\000"
 10756      656C00
 10757              	.LASF563:
 10758 0ebe 46445345 		.ascii	"FDSEARCHMW\000"
 10758      41524348 
 10758      4D5700
 10759              	.LASF137:
 10760 0ec9 4F535F46 		.ascii	"OS_FN_THREAD_OPEN\000"
 10760      4E5F5448 
 10760      52454144 
 10760      5F4F5045 
 10760      4E00
 10761              	.LASF176:
 10762 0edb 4F535F46 		.ascii	"OS_FN_FILE_WRITE\000"
 10762      4E5F4649 
 10762      4C455F57 
 10762      52495445 
 10762      00
 10763              	.LASF410:
 10764 0eec 4F535F46 		.ascii	"OS_FN_NFC_CANCEL\000"
 10764      4E5F4E46 
 10764      435F4341 
 10764      4E43454C 
 10764      00
 10765              	.LASF572:
 10766 0efd 5343484E 		.ascii	"SCHNLGETPINMW\000"
 10766      4C474554 
 10766      50494E4D 
 10766      5700
 10767              	.LASF196:
 10768 0f0b 4F535F46 		.ascii	"OS_FN_FILE_MKDIR\000"
 10768      4E5F4649 
 10768      4C455F4D 
 10768      4B444952 
 10768      00
 10769              	.LASF630:
 10770 0f1c 624C656E 		.ascii	"bLen\000"
 10770      00
 10771              	.LASF746:
 10772 0f21 73625F72 		.ascii	"sb_reserved\000"
 10772      65736572 
 10772      76656400 
 10773              	.LASF710:
 10774 0f2d 73625F66 		.ascii	"sb_ftp_pwd\000"
ARM GAS  C:\Users\AHMED~1.ELE\AppData\Local\Temp\ccFUpfoi.s 			page 220


 10774      74705F70 
 10774      776400
 10775              	.LASF470:
 10776 0f38 4F535F46 		.ascii	"OS_FN_WIFI_GET_DEVICE_STATE\000"
 10776      4E5F5749 
 10776      46495F47 
 10776      45545F44 
 10776      45564943 
 10777              	.LASF695:
 10778 0f54 73625F65 		.ascii	"sb_edc_date\000"
 10778      64635F64 
 10778      61746500 
 10779              	.LASF62:
 10780 0f60 4F535F46 		.ascii	"OS_FN_COM1_SEND\000"
 10780      4E5F434F 
 10780      4D315F53 
 10780      454E4400 
 10781              	.LASF136:
 10782 0f70 4F535F46 		.ascii	"OS_FN_PCI_DSS\000"
 10782      4E5F5043 
 10782      495F4453 
 10782      5300
 10783              	.LASF939:
 10784 0f7e 433A5C54 		.ascii	"C:\\T1000-A5\\Projects\\APM\\apm_v3.0s03\000"
 10784      31303030 
 10784      2D41355C 
 10784      50726F6A 
 10784      65637473 
 10785              	.LASF525:
 10786 0fa3 625F7363 		.ascii	"b_sconn_limit\000"
 10786      6F6E6E5F 
 10786      6C696D69 
 10786      7400
 10787              	.LASF354:
 10788 0fb1 4F535F46 		.ascii	"OS_FN_INTERRUPT_UNREGISTER\000"
 10788      4E5F494E 
 10788      54455252 
 10788      5550545F 
 10788      554E5245 
 10789              	.LASF152:
 10790 0fcc 4F535F46 		.ascii	"OS_FN_LED_STATUS\000"
 10790      4E5F4C45 
 10790      445F5354 
 10790      41545553 
 10790      00
 10791              	.LASF663:
 10792 0fdd 73505050 		.ascii	"sPPP\000"
 10792      00
 10793              	.LASF783:
 10794 0fe2 625F7365 		.ascii	"b_sec_settle_conn_time\000"
 10794      635F7365 
 10794      74746C65 
 10794      5F636F6E 
 10794      6E5F7469 
 10795              	.LASF31:
 10796 0ff9 4F535F46 		.ascii	"OS_FN_BUZ_OPEN\000"
 10796      4E5F4255 
ARM GAS  C:\Users\AHMED~1.ELE\AppData\Local\Temp\ccFUpfoi.s 			page 221


 10796      5A5F4F50 
 10796      454E00
 10797              	.LASF329:
 10798 1008 4F535F46 		.ascii	"OS_FN_CLICC_LED_CLOSE\000"
 10798      4E5F434C 
 10798      4943435F 
 10798      4C45445F 
 10798      434C4F53 
 10799              	.LASF704:
 10800 101e 73625F78 		.ascii	"sb_xapp_date\000"
 10800      6170705F 
 10800      64617465 
 10800      00
 10801              	.LASF929:
 10802 102b 53544953 		.ascii	"STISInit\000"
 10802      496E6974 
 10802      00
 10803              	.LASF227:
 10804 1034 4F535F46 		.ascii	"OS_FN_LAN_OPEN\000"
 10804      4E5F4C41 
 10804      4E5F4F50 
 10804      454E00
 10805              	.LASF577:
 10806 1043 44495350 		.ascii	"DISP_CLRBELOWMW\000"
 10806      5F434C52 
 10806      42454C4F 
 10806      574D5700 
 10807              	.LASF497:
 10808 1053 625F7370 		.ascii	"b_speed\000"
 10808      65656400 
 10809              	.LASF449:
 10810 105b 4F535F46 		.ascii	"OS_FN_LPT_GET_COUNT\000"
 10810      4E5F4C50 
 10810      545F4745 
 10810      545F434F 
 10810      554E5400 
 10811              	.LASF285:
 10812 106f 4F535F46 		.ascii	"OS_FN_BATT_LEVEL\000"
 10812      4E5F4241 
 10812      54545F4C 
 10812      4556454C 
 10812      00
 10813              	.LASF433:
 10814 1080 4F535F46 		.ascii	"OS_FN_HD_CONFIG\000"
 10814      4E5F4844 
 10814      5F434F4E 
 10814      46494700 
 10815              	.LASF644:
 10816 1090 64537065 		.ascii	"dSpeed\000"
 10816      656400
 10817              	.LASF850:
 10818 1097 43686563 		.ascii	"CheckHostRsp\000"
 10818      6B486F73 
 10818      74527370 
 10818      00
 10819              	.LASF494:
 10820 10a4 55534246 		.ascii	"USBFPRT_GENERAL_INFO_END\000"
ARM GAS  C:\Users\AHMED~1.ELE\AppData\Local\Temp\ccFUpfoi.s 			page 222


 10820      5052545F 
 10820      47454E45 
 10820      52414C5F 
 10820      494E464F 
 10821              	.LASF193:
 10822 10bd 4F535F46 		.ascii	"OS_FN_FILE_FTRUNCATE\000"
 10822      4E5F4649 
 10822      4C455F46 
 10822      5452554E 
 10822      43415445 
 10823              	.LASF767:
 10824 10d2 625F6465 		.ascii	"b_default_acc\000"
 10824      6661756C 
 10824      745F6163 
 10824      6300
 10825              	.LASF500:
 10826 10e0 625F7478 		.ascii	"b_tx_gap\000"
 10826      5F676170 
 10826      00
 10827              	.LASF813:
 10828 10e9 625F7374 		.ascii	"b_stis_init_mode\000"
 10828      69735F69 
 10828      6E69745F 
 10828      6D6F6465 
 10828      00
 10829              	.LASF230:
 10830 10fa 4F535F46 		.ascii	"OS_FN_LAN_TXRDY\000"
 10830      4E5F4C41 
 10830      4E5F5458 
 10830      52445900 
 10831              	.LASF138:
 10832 110a 4F535F46 		.ascii	"OS_FN_THREAD_CLOSE\000"
 10832      4E5F5448 
 10832      52454144 
 10832      5F434C4F 
 10832      534500
 10833              	.LASF287:
 10834 111d 4F535F46 		.ascii	"OS_FN_BATT_CONTROL\000"
 10834      4E5F4241 
 10834      54545F43 
 10834      4F4E5452 
 10834      4F4C00
 10835              	.LASF712:
 10836 1130 73625F70 		.ascii	"sb_ppp_pwd\000"
 10836      70705F70 
 10836      776400
 10837              	.LASF374:
 10838 113b 4F535F46 		.ascii	"OS_FN_MIF_CARD_TYPE\000"
 10838      4E5F4D49 
 10838      465F4341 
 10838      52445F54 
 10838      59504500 
 10839              	.LASF221:
 10840 114f 4F535F46 		.ascii	"OS_FN_MMC_WRITE\000"
 10840      4E5F4D4D 
 10840      435F5752 
 10840      49544500 
ARM GAS  C:\Users\AHMED~1.ELE\AppData\Local\Temp\ccFUpfoi.s 			page 223


 10841              	.LASF854:
 10842 115f 7465726D 		.ascii	"term_data\000"
 10842      5F646174 
 10842      6100
 10843              	.LASF116:
 10844 1169 4F535F46 		.ascii	"OS_FN_SM3\000"
 10844      4E5F534D 
 10844      3300
 10845              	.LASF774:
 10846 1173 625F7072 		.ascii	"b_pri_trans_conn_time\000"
 10846      695F7472 
 10846      616E735F 
 10846      636F6E6E 
 10846      5F74696D 
 10847              	.LASF610:
 10848 1189 65544143 		.ascii	"eTACDenial\000"
 10848      44656E69 
 10848      616C00
 10849              	.LASF585:
 10850 1194 42535F43 		.ascii	"BS_CALL_MW\000"
 10850      414C4C5F 
 10850      4D5700
 10851              	.LASF927:
 10852 119f 53656E64 		.ascii	"SendRcvd\000"
 10852      52637664 
 10852      00
 10853              	.LASF455:
 10854 11a8 4F535F46 		.ascii	"OS_FN_ECC_KEYPAIR_GENERATE\000"
 10854      4E5F4543 
 10854      435F4B45 
 10854      59504149 
 10854      525F4745 
 10855              	.LASF277:
 10856 11c3 4F535F46 		.ascii	"OS_FN_MCOM_PERMIT\000"
 10856      4E5F4D43 
 10856      4F4D5F50 
 10856      45524D49 
 10856      5400
 10857              	.LASF390:
 10858 11d5 4F535F46 		.ascii	"OS_FN_MIF_SENDCMD\000"
 10858      4E5F4D49 
 10858      465F5345 
 10858      4E44434D 
 10858      4400
 10859              	.LASF514:
 10860 11e7 4D575F4D 		.ascii	"MW_MDM_PORT\000"
 10860      444D5F50 
 10860      4F525400 
 10861              	.LASF23:
 10862 11f3 4F535F46 		.ascii	"OS_FN_KBD_SCODE\000"
 10862      4E5F4B42 
 10862      445F5343 
 10862      4F444500 
 10863              	.LASF901:
 10864 1203 55706441 		.ascii	"UpdAcqTbl\000"
 10864      63715462 
 10864      6C00
ARM GAS  C:\Users\AHMED~1.ELE\AppData\Local\Temp\ccFUpfoi.s 			page 224


 10865              	.LASF465:
 10866 120d 4F535F46 		.ascii	"OS_FN_WIFI_SOCKET_CONNECT\000"
 10866      4E5F5749 
 10866      46495F53 
 10866      4F434B45 
 10866      545F434F 
 10867              	.LASF696:
 10868 1227 73625F65 		.ascii	"sb_edc_size\000"
 10868      64635F73 
 10868      697A6500 
 10869              	.LASF457:
 10870 1233 4F535F46 		.ascii	"OS_FN_ECC_SCALAR_MULTIPLY\000"
 10870      4E5F4543 
 10870      435F5343 
 10870      414C4152 
 10870      5F4D554C 
 10871              	.LASF363:
 10872 124d 4F535F46 		.ascii	"OS_FN_USBKBD_OPEN\000"
 10872      4E5F5553 
 10872      424B4244 
 10872      5F4F5045 
 10872      4E00
 10873              	.LASF863:
 10874 125f 67735472 		.ascii	"gsTransData\000"
 10874      616E7344 
 10874      61746100 
 10875              	.LASF538:
 10876 126b 705F7365 		.ascii	"p_send\000"
 10876      6E6400
 10877              	.LASF380:
 10878 1272 4F535F46 		.ascii	"OS_FN_MIF_AUTH1\000"
 10878      4E5F4D49 
 10878      465F4155 
 10878      54483100 
 10879              	.LASF381:
 10880 1282 4F535F46 		.ascii	"OS_FN_MIF_AUTH2\000"
 10880      4E5F4D49 
 10880      465F4155 
 10880      54483200 
 10881              	.LASF12:
 10882 1292 424F4F4C 		.ascii	"BOOLEAN\000"
 10882      45414E00 
 10883              	.LASF503:
 10884 129a 4D575F54 		.ascii	"MW_TCP_PORT2\000"
 10884      43505F50 
 10884      4F525432 
 10884      00
 10885              	.LASF729:
 10886 12a7 625F7273 		.ascii	"b_rsvd0\000"
 10886      76643000 
 10887              	.LASF730:
 10888 12af 625F7273 		.ascii	"b_rsvd1\000"
 10888      76643100 
 10889              	.LASF741:
 10890 12b7 625F7273 		.ascii	"b_rsvd2\000"
 10890      76643200 
 10891              	.LASF86:
ARM GAS  C:\Users\AHMED~1.ELE\AppData\Local\Temp\ccFUpfoi.s 			page 225


 10892 12bf 4F535F46 		.ascii	"OS_FN_DES2\000"
 10892      4E5F4445 
 10892      533200
 10893              	.LASF799:
 10894 12ca 625F6B65 		.ascii	"b_key\000"
 10894      7900
 10895              	.LASF106:
 10896 12d0 4F535F46 		.ascii	"OS_FN_MD4_PROCESS\000"
 10896      4E5F4D44 
 10896      345F5052 
 10896      4F434553 
 10896      5300
 10897              	.LASF323:
 10898 12e2 4F535F46 		.ascii	"OS_FN_CLICC_REMOVE\000"
 10898      4E5F434C 
 10898      4943435F 
 10898      52454D4F 
 10898      564500
 10899              	.LASF869:
 10900 12f5 4B496E69 		.ascii	"KInitMenu\000"
 10900      744D656E 
 10900      7500
 10901              	.LASF388:
 10902 12ff 4F535F46 		.ascii	"OS_FN_MIF_DEC_TRANS\000"
 10902      4E5F4D49 
 10902      465F4445 
 10902      435F5452 
 10902      414E5300 
 10903              	.LASF826:
 10904 1313 5452414E 		.ascii	"TRANS_BITMAP\000"
 10904      535F4249 
 10904      544D4150 
 10904      00
 10905              	.LASF344:
 10906 1320 4F535F46 		.ascii	"OS_FN_DEVICE_REGISTER\000"
 10906      4E5F4445 
 10906      56494345 
 10906      5F524547 
 10906      49535445 
 10907              	.LASF61:
 10908 1336 4F535F46 		.ascii	"OS_FN_COM1_READ\000"
 10908      4E5F434F 
 10908      4D315F52 
 10908      45414400 
 10909              	.LASF224:
 10910 1346 4F535F46 		.ascii	"OS_FN_SLE_CLOSE\000"
 10910      4E5F534C 
 10910      455F434C 
 10910      4F534500 
 10911              	.LASF233:
 10912 1356 4F535F46 		.ascii	"OS_FN_LAN_STATUS\000"
 10912      4E5F4C41 
 10912      4E5F5354 
 10912      41545553 
 10912      00
 10913              	.LASF674:
 10914 1367 73625F73 		.ascii	"sb_sec_no\000"
ARM GAS  C:\Users\AHMED~1.ELE\AppData\Local\Temp\ccFUpfoi.s 			page 226


 10914      65635F6E 
 10914      6F00
 10915              	.LASF161:
 10916 1371 4F535F46 		.ascii	"OS_FN_APP_CLR_VIRGIN\000"
 10916      4E5F4150 
 10916      505F434C 
 10916      525F5649 
 10916      5247494E 
 10917              	.LASF718:
 10918 1386 625F6368 		.ascii	"b_checkin_pri_redial\000"
 10918      65636B69 
 10918      6E5F7072 
 10918      695F7265 
 10918      6469616C 
 10919              	.LASF660:
 10920 139b 734D646D 		.ascii	"sMdm\000"
 10920      00
 10921              	.LASF160:
 10922 13a0 4F535F46 		.ascii	"OS_FN_APP_GET_VIRGIN\000"
 10922      4E5F4150 
 10922      505F4745 
 10922      545F5649 
 10922      5247494E 
 10923              	.LASF565:
 10924 13b5 4B424453 		.ascii	"KBDSCODEMW\000"
 10924      434F4445 
 10924      4D5700
 10925              	.LASF707:
 10926 13c0 73625F6C 		.ascii	"sb_lxapp_date\000"
 10926      78617070 
 10926      5F646174 
 10926      6500
 10927              	.LASF526:
 10928 13ce 625F7363 		.ascii	"b_sconn_tval\000"
 10928      6F6E6E5F 
 10928      7476616C 
 10928      00
 10929              	.LASF209:
 10930 13db 4F535F46 		.ascii	"OS_FN_SAM_ON\000"
 10930      4E5F5341 
 10930      4D5F4F4E 
 10930      00
 10931              	.LASF598:
 10932 13e8 5253415F 		.ascii	"RSA_KEY\000"
 10932      4B455900 
 10933              	.LASF284:
 10934 13f0 4F535F46 		.ascii	"OS_FN_MCOM_SEND\000"
 10934      4E5F4D43 
 10934      4F4D5F53 
 10934      454E4400 
 10935              	.LASF734:
 10936 1400 73625F68 		.ascii	"sb_help_tel\000"
 10936      656C705F 
 10936      74656C00 
 10937              	.LASF832:
 10938 140c 73625F6E 		.ascii	"sb_next\000"
 10938      65787400 
ARM GAS  C:\Users\AHMED~1.ELE\AppData\Local\Temp\ccFUpfoi.s 			page 227


 10939              	.LASF246:
 10940 1414 4F535F46 		.ascii	"OS_FN_USBSER_CLOSE\000"
 10940      4E5F5553 
 10940      42534552 
 10940      5F434C4F 
 10940      534500
 10941              	.LASF272:
 10942 1427 4F535F46 		.ascii	"OS_FN_MDM_CID\000"
 10942      4E5F4D44 
 10942      4D5F4349 
 10942      4400
 10943              	.LASF918:
 10944 1435 5472616E 		.ascii	"TransEnd\000"
 10944      73456E64 
 10944      00
 10945              	.LASF844:
 10946 143e 6B65795F 		.ascii	"key_room\000"
 10946      726F6F6D 
 10946      00
 10947              	.LASF419:
 10948 1447 4F535F46 		.ascii	"OS_FN_GPS_GET_INFO\000"
 10948      4E5F4750 
 10948      535F4745 
 10948      545F494E 
 10948      464F00
 10949              	.LASF817:
 10950 145a 73625F64 		.ascii	"sb_date\000"
 10950      61746500 
 10951              	.LASF270:
 10952 1462 4F535F46 		.ascii	"OS_FN_MDM_DIAL\000"
 10952      4E5F4D44 
 10952      4D5F4449 
 10952      414C00
 10953              	.LASF719:
 10954 1471 73625F63 		.ascii	"sb_checkin_sec_no\000"
 10954      6865636B 
 10954      696E5F73 
 10954      65635F6E 
 10954      6F00
 10955              	.LASF150:
 10956 1483 4F535F46 		.ascii	"OS_FN_LED_OPEN\000"
 10956      4E5F4C45 
 10956      445F4F50 
 10956      454E00
 10957              	.LASF35:
 10958 1492 4F535F46 		.ascii	"OS_FN_RTC_GET\000"
 10958      4E5F5254 
 10958      435F4745 
 10958      5400
 10959              	.LASF467:
 10960 14a0 4F535F46 		.ascii	"OS_FN_WIFI_SOCKET_GET_STATE\000"
 10960      4E5F5749 
 10960      46495F53 
 10960      4F434B45 
 10960      545F4745 
 10961              	.LASF675:
 10962 14bc 625F7365 		.ascii	"b_sec_conn_time\000"
ARM GAS  C:\Users\AHMED~1.ELE\AppData\Local\Temp\ccFUpfoi.s 			page 228


 10962      635F636F 
 10962      6E6E5F74 
 10962      696D6500 
 10963              	.LASF59:
 10964 14cc 4F535F46 		.ascii	"OS_FN_COM1_RXRDY\000"
 10964      4E5F434F 
 10964      4D315F52 
 10964      58524459 
 10964      00
 10965              	.LASF847:
 10966 14dd 6269746D 		.ascii	"bitmap\000"
 10966      617000
 10967              	.LASF154:
 10968 14e4 4F535F46 		.ascii	"OS_FN_LED_CLEAR\000"
 10968      4E5F4C45 
 10968      445F434C 
 10968      45415200 
 10969              	.LASF446:
 10970 14f4 4F535F46 		.ascii	"OS_FN_DTIMER_LATCH_STOP\000"
 10970      4E5F4454 
 10970      494D4552 
 10970      5F4C4154 
 10970      43485F53 
 10971              	.LASF355:
 10972 150c 4F535F46 		.ascii	"OS_FN_BUS_START\000"
 10972      4E5F4255 
 10972      535F5354 
 10972      41525400 
 10973              	.LASF795:
 10974 151c 625F7373 		.ascii	"b_ssl_key_idx\000"
 10974      6C5F6B65 
 10974      795F6964 
 10974      7800
 10975              	.LASF100:
 10976 152a 4F535F46 		.ascii	"OS_FN_MD5_FINISH\000"
 10976      4E5F4D44 
 10976      355F4649 
 10976      4E495348 
 10976      00
 10977              	.LASF490:
 10978 153b 55534246 		.ascii	"USBFPRT_GENERAL_INFO_MODEL\000"
 10978      5052545F 
 10978      47454E45 
 10978      52414C5F 
 10978      494E464F 
 10979              	.LASF17:
 10980 1556 4F535F46 		.ascii	"OS_FN_GET_VERSION\000"
 10980      4E5F4745 
 10980      545F5645 
 10980      5253494F 
 10980      4E00
 10981              	.LASF922:
 10982 1568 436C6561 		.ascii	"ClearResponse\000"
 10982      72526573 
 10982      706F6E73 
 10982      6500
 10983              	.LASF417:
ARM GAS  C:\Users\AHMED~1.ELE\AppData\Local\Temp\ccFUpfoi.s 			page 229


 10984 1576 4F535F46 		.ascii	"OS_FN_GPS_ON\000"
 10984      4E5F4750 
 10984      535F4F4E 
 10984      00
 10985              	.LASF738:
 10986 1583 625F6375 		.ascii	"b_currency\000"
 10986      7272656E 
 10986      637900
 10987              	.LASF89:
 10988 158e 4F535F46 		.ascii	"OS_FN_COM_DES2\000"
 10988      4E5F434F 
 10988      4D5F4445 
 10988      533200
 10989              	.LASF318:
 10990 159d 4F535F46 		.ascii	"OS_FN_CODEC_PLAY_RAM\000"
 10990      4E5F434F 
 10990      4445435F 
 10990      504C4159 
 10990      5F52414D 
 10991              	.LASF282:
 10992 15b2 4F535F46 		.ascii	"OS_FN_MCOM_STATUS\000"
 10992      4E5F4D43 
 10992      4F4D5F53 
 10992      54415455 
 10992      5300
 10993              	.LASF54:
 10994 15c4 4F535F46 		.ascii	"OS_FN_DISP_ICON_TEXTC\000"
 10994      4E5F4449 
 10994      53505F49 
 10994      434F4E5F 
 10994      54455854 
 10995              	.LASF430:
 10996 15da 4F535F46 		.ascii	"OS_FN_POWER_SLEEP\000"
 10996      4E5F504F 
 10996      5745525F 
 10996      534C4545 
 10996      5000
 10997              	.LASF168:
 10998 15ec 4F535F46 		.ascii	"OS_FN_FILE_CREATE\000"
 10998      4E5F4649 
 10998      4C455F43 
 10998      52454154 
 10998      4500
 10999              	.LASF240:
 11000 15fe 4F535F46 		.ascii	"OS_FN_LPT_OPEN\000"
 11000      4E5F4C50 
 11000      545F4F50 
 11000      454E00
 11001              	.LASF242:
 11002 160d 4F535F46 		.ascii	"OS_FN_LPT_PUTC\000"
 11002      4E5F4C50 
 11002      545F5055 
 11002      544300
 11003              	.LASF840:
 11004 161c 6C6F676F 		.ascii	"logo_index\000"
 11004      5F696E64 
 11004      657800
ARM GAS  C:\Users\AHMED~1.ELE\AppData\Local\Temp\ccFUpfoi.s 			page 230


 11005              	.LASF232:
 11006 1627 4F535F46 		.ascii	"OS_FN_LAN_SEND\000"
 11006      4E5F4C41 
 11006      4E5F5345 
 11006      4E4400
 11007              	.LASF375:
 11008 1636 4F535F46 		.ascii	"OS_FN_MIF_TAG\000"
 11008      4E5F4D49 
 11008      465F5441 
 11008      4700
 11009              	.LASF801:
 11010 1644 73625F74 		.ascii	"sb_text\000"
 11010      65787400 
 11011              	.LASF452:
 11012 164c 4F535F46 		.ascii	"OS_FN_FPRT_SCAN_IMG\000"
 11012      4E5F4650 
 11012      52545F53 
 11012      43414E5F 
 11012      494D4700 
 11013              	.LASF882:
 11014 1660 6D656D63 		.ascii	"memcmp\000"
 11014      6D7000
 11015              	.LASF815:
 11016 1667 5253505F 		.ascii	"RSP_DATA\000"
 11016      44415441 
 11016      00
 11017              	.LASF552:
 11018 1670 46535953 		.ascii	"FSYSINITMW\000"
 11018      494E4954 
 11018      4D5700
 11019              	.LASF549:
 11020 167b 494F4354 		.ascii	"IOCTLMW\000"
 11020      4C4D5700 
 11021              	.LASF724:
 11022 1683 625F6170 		.ascii	"b_app_list_upload\000"
 11022      705F6C69 
 11022      73745F75 
 11022      706C6F61 
 11022      6400
 11023              	.LASF851:
 11024 1695 496E6974 		.ascii	"InitTrans\000"
 11024      5472616E 
 11024      7300
 11025              	.LASF245:
 11026 169f 4F535F46 		.ascii	"OS_FN_USBSER_OPEN\000"
 11026      4E5F5553 
 11026      42534552 
 11026      5F4F5045 
 11026      4E00
 11027              	.LASF10:
 11028 16b1 63686172 		.ascii	"char\000"
 11028      00
 11029              	.LASF175:
 11030 16b6 4F535F46 		.ascii	"OS_FN_FILE_READ\000"
 11030      4E5F4649 
 11030      4C455F52 
 11030      45414400 
ARM GAS  C:\Users\AHMED~1.ELE\AppData\Local\Temp\ccFUpfoi.s 			page 231


 11031              	.LASF596:
 11032 16c6 4578706F 		.ascii	"Exponent\000"
 11032      6E656E74 
 11032      00
 11033              	.LASF507:
 11034 16cf 775F706F 		.ascii	"w_port\000"
 11034      727400
 11035              	.LASF678:
 11036 16d6 625F6469 		.ascii	"b_dial_mode\000"
 11036      616C5F6D 
 11036      6F646500 
 11037              	.LASF573:
 11038 16e2 4C4C5345 		.ascii	"LLSEEKMW\000"
 11038      454B4D57 
 11038      00
 11039              	.LASF324:
 11040 16eb 4F535F46 		.ascii	"OS_FN_CLICC_CLOSE\000"
 11040      4E5F434C 
 11040      4943435F 
 11040      434C4F53 
 11040      4500
 11041              	.LASF337:
 11042 16fd 4F535F46 		.ascii	"OS_FN_USBHOST_STATUS\000"
 11042      4E5F5553 
 11042      42484F53 
 11042      545F5354 
 11042      41545553 
 11043              	.LASF871:
 11044 1712 696E635F 		.ascii	"inc_pptr\000"
 11044      70707472 
 11044      00
 11045              	.LASF481:
 11046 171b 4F535F46 		.ascii	"OS_FN_DISP_PUTS_ANYWHERE\000"
 11046      4E5F4449 
 11046      53505F50 
 11046      5554535F 
 11046      414E5957 
 11047              	.LASF940:
 11048 1734 73797374 		.ascii	"system_call_list\000"
 11048      656D5F63 
 11048      616C6C5F 
 11048      6C697374 
 11048      00
 11049              	.LASF591:
 11050 1745 4652454E 		.ascii	"FRENAMEMW\000"
 11050      414D454D 
 11050      5700
 11051              	.LASF717:
 11052 174f 625F6368 		.ascii	"b_checkin_pri_conn_time\000"
 11052      65636B69 
 11052      6E5F7072 
 11052      695F636F 
 11052      6E6E5F74 
 11053              	.LASF226:
 11054 1767 4F535F46 		.ascii	"OS_FN_SLE_IO\000"
 11054      4E5F534C 
 11054      455F494F 
ARM GAS  C:\Users\AHMED~1.ELE\AppData\Local\Temp\ccFUpfoi.s 			page 232


 11054      00
 11055              	.LASF16:
 11056 1774 4444574F 		.ascii	"DDWORD\000"
 11056      524400
 11057              	.LASF651:
 11058 177b 70734469 		.ascii	"psDialUp\000"
 11058      616C5570 
 11058      00
 11059              	.LASF278:
 11060 1784 4F535F46 		.ascii	"OS_FN_MCOM_RXRDY\000"
 11060      4E5F4D43 
 11060      4F4D5F52 
 11060      58524459 
 11060      00
 11061              	.LASF938:
 11062 1795 7372632F 		.ascii	"src/inittran.c\000"
 11062      696E6974 
 11062      7472616E 
 11062      2E6300
 11063              	.LASF241:
 11064 17a4 4F535F46 		.ascii	"OS_FN_LPT_CLOSE\000"
 11064      4E5F4C50 
 11064      545F434C 
 11064      4F534500 
 11065              	.LASF772:
 11066 17b4 73625F6E 		.ascii	"sb_name\000"
 11066      616D6500 
 11067              	.LASF234:
 11068 17bc 4F535F46 		.ascii	"OS_FN_MSR_OPEN\000"
 11068      4E5F4D53 
 11068      525F4F50 
 11068      454E00
 11069              	.LASF123:
 11070 17cb 4F535F46 		.ascii	"OS_FN_KEY_RSA\000"
 11070      4E5F4B45 
 11070      595F5253 
 11070      4100
 11071              	.LASF206:
 11072 17d9 4F535F46 		.ascii	"OS_FN_SAM_CLOSE\000"
 11072      4E5F5341 
 11072      4D5F434C 
 11072      4F534500 
 11073              	.LASF771:
 11074 17e9 73625F70 		.ascii	"sb_program\000"
 11074      726F6772 
 11074      616D00
 11075              	.LASF294:
 11076 17f4 4F535F46 		.ascii	"OS_FN_GPRS_AT_CMD\000"
 11076      4E5F4750 
 11076      52535F41 
 11076      545F434D 
 11076      4400
 11077              	.LASF482:
 11078 1806 4F535F46 		.ascii	"OS_FN_BATT_CHARGE_NOW\000"
 11078      4E5F4241 
 11078      54545F43 
 11078      48415247 
ARM GAS  C:\Users\AHMED~1.ELE\AppData\Local\Temp\ccFUpfoi.s 			page 233


 11078      455F4E4F 
 11079              	.LASF198:
 11080 181c 4F535F46 		.ascii	"OS_FN_FILE_GET_LONGNAME\000"
 11080      4E5F4649 
 11080      4C455F47 
 11080      45545F4C 
 11080      4F4E474E 
 11081              	.LASF728:
 11082 1834 625F696E 		.ascii	"b_init_control\000"
 11082      69745F63 
 11082      6F6E7472 
 11082      6F6C00
 11083              	.LASF266:
 11084 1843 4F535F46 		.ascii	"OS_FN_FL_CREAD_END\000"
 11084      4E5F464C 
 11084      5F435245 
 11084      41445F45 
 11084      4E4400
 11085              	.LASF239:
 11086 1856 4F535F46 		.ascii	"OS_FN_MSR_STATUS\000"
 11086      4E5F4D53 
 11086      525F5354 
 11086      41545553 
 11086      00
 11087              	.LASF631:
 11088 1867 734D646D 		.ascii	"sMdmCfg\000"
 11088      43666700 
 11089              	.LASF472:
 11090 186f 4F535F46 		.ascii	"OS_FN_WIFI_SOCKET_LISTEN\000"
 11090      4E5F5749 
 11090      46495F53 
 11090      4F434B45 
 11090      545F4C49 
 11091              	.LASF248:
 11092 1888 4F535F46 		.ascii	"OS_FN_USBSER_WRITE\000"
 11092      4E5F5553 
 11092      42534552 
 11092      5F575249 
 11092      544500
 11093              	.LASF372:
 11094 189b 4F535F46 		.ascii	"OS_FN_MIF_CANCEL\000"
 11094      4E5F4D49 
 11094      465F4341 
 11094      4E43454C 
 11094      00
 11095              	.LASF6:
 11096 18ac 6C6F6E67 		.ascii	"long unsigned int\000"
 11096      20756E73 
 11096      69676E65 
 11096      6420696E 
 11096      7400
 11097              	.LASF49:
 11098 18be 4F535F46 		.ascii	"OS_FN_DISP_BACKC\000"
 11098      4E5F4449 
 11098      53505F42 
 11098      41434B43 
 11098      00
ARM GAS  C:\Users\AHMED~1.ELE\AppData\Local\Temp\ccFUpfoi.s 			page 234


 11099              	.LASF715:
 11100 18cf 73625F73 		.ascii	"sb_server_key\000"
 11100      65727665 
 11100      725F6B65 
 11100      7900
 11101              	.LASF45:
 11102 18dd 4F535F46 		.ascii	"OS_FN_DISP_GETP\000"
 11102      4E5F4449 
 11102      53505F47 
 11102      45545000 
 11103              	.LASF743:
 11104 18ed 73625F63 		.ascii	"sb_currency_name\000"
 11104      75727265 
 11104      6E63795F 
 11104      6E616D65 
 11104      00
 11105              	.LASF425:
 11106 18fe 4F535F46 		.ascii	"OS_FN_BREG_READ\000"
 11106      4E5F4252 
 11106      45475F52 
 11106      45414400 
 11107              	.LASF303:
 11108 190e 4F535F46 		.ascii	"OS_FN_GPRS_SMS_ACK\000"
 11108      4E5F4750 
 11108      52535F53 
 11108      4D535F41 
 11108      434B00
 11109              	.LASF18:
 11110 1921 4F535F46 		.ascii	"OS_FN_RAND\000"
 11110      4E5F5241 
 11110      4E4400
 11111              	.LASF235:
 11112 192c 4F535F46 		.ascii	"OS_FN_MSR_CLOSE\000"
 11112      4E5F4D53 
 11112      525F434C 
 11112      4F534500 
 11113              	.LASF876:
 11114 193c 6765745F 		.ascii	"get_pptr\000"
 11114      70707472 
 11114      00
 11115              	.LASF605:
 11116 1945 65547970 		.ascii	"eType\000"
 11116      6500
 11117              	.LASF567:
 11118 194b 4445534D 		.ascii	"DESMW\000"
 11118      5700
 11119              	.LASF366:
 11120 1951 4F535F46 		.ascii	"OS_FN_USBKBD_GETKEY\000"
 11120      4E5F5553 
 11120      424B4244 
 11120      5F474554 
 11120      4B455900 
 11121              	.LASF897:
 11122 1965 47657443 		.ascii	"GetCardCount\000"
 11122      61726443 
 11122      6F756E74 
 11122      00
ARM GAS  C:\Users\AHMED~1.ELE\AppData\Local\Temp\ccFUpfoi.s 			page 235


 11123              	.LASF404:
 11124 1972 4F535F46 		.ascii	"OS_FN_WIFI_RECV_RESPONSE\000"
 11124      4E5F5749 
 11124      46495F52 
 11124      4543565F 
 11124      52455350 
 11125              	.LASF231:
 11126 198b 4F535F46 		.ascii	"OS_FN_LAN_READ\000"
 11126      4E5F4C41 
 11126      4E5F5245 
 11126      414400
 11127              	.LASF542:
 11128 199a 53544152 		.ascii	"STARTUPMW\000"
 11128      5455504D 
 11128      5700
 11129              	.LASF703:
 11130 19a4 73625F78 		.ascii	"sb_xapp_chksum\000"
 11130      6170705F 
 11130      63686B73 
 11130      756D00
 11131              	.LASF253:
 11132 19b3 4F535F46 		.ascii	"OS_FN_FL_PAGE_READ\000"
 11132      4E5F464C 
 11132      5F504147 
 11132      455F5245 
 11132      414400
 11133              	.LASF934:
 11134 19c6 454D564B 		.ascii	"EMVKillDnloadBuf\000"
 11134      696C6C44 
 11134      6E6C6F61 
 11134      64427566 
 11134      00
 11135              	.LASF937:
 11136 19d7 474E5520 		.ascii	"GNU C 4.9.3 20141119 (release) [ARM/embedded-4_9-br"
 11136      4320342E 
 11136      392E3320 
 11136      32303134 
 11136      31313139 
 11137 1a0a 616E6368 		.ascii	"anch revision 218278] -mthumb -mcpu=cortex-a5 -mthu"
 11137      20726576 
 11137      6973696F 
 11137      6E203231 
 11137      38323738 
 11138 1a3d 6D622D69 		.ascii	"mb-interwork -mstructure-size-boundary=32 -mno-unal"
 11138      6E746572 
 11138      776F726B 
 11138      202D6D73 
 11138      74727563 
 11139 1a70 69676E65 		.ascii	"igned-access -g -Os -ffunction-sections -fsigned-ch"
 11139      642D6163 
 11139      63657373 
 11139      202D6720 
 11139      2D4F7320 
 11140 1aa3 617200   		.ascii	"ar\000"
 11141              	.LASF463:
 11142 1aa6 4F535F46 		.ascii	"OS_FN_GCM_AES_CLOSE\000"
 11142      4E5F4743 
ARM GAS  C:\Users\AHMED~1.ELE\AppData\Local\Temp\ccFUpfoi.s 			page 236


 11142      4D5F4145 
 11142      535F434C 
 11142      4F534500 
 11143              	.LASF760:
 11144 1aba 625F6973 		.ascii	"b_issuer_id\000"
 11144      73756572 
 11144      5F696400 
 11145              	.LASF268:
 11146 1ac6 4F535F46 		.ascii	"OS_FN_MDM_OPEN\000"
 11146      4E5F4D44 
 11146      4D5F4F50 
 11146      454E00
 11147              	.LASF274:
 11148 1ad5 4F535F46 		.ascii	"OS_FN_MDM_LAST_CONN_STAT\000"
 11148      4E5F4D44 
 11148      4D5F4C41 
 11148      53545F43 
 11148      4F4E4E5F 
 11149              	.LASF513:
 11150 1aee 735F7266 		.ascii	"s_rfu\000"
 11150      7500
 11151              	.LASF429:
 11152 1af4 4F535F46 		.ascii	"OS_FN_SLEEP\000"
 11152      4E5F534C 
 11152      45455000 
 11153              	.LASF684:
 11154 1b00 73625F69 		.ascii	"sb_init_nii\000"
 11154      6E69745F 
 11154      6E696900 
 11155              	.LASF589:
 11156 1b0c 534D535F 		.ascii	"SMS_COUNT_MW\000"
 11156      434F554E 
 11156      545F4D57 
 11156      00
 11157              	.LASF690:
 11158 1b19 64645F64 		.ascii	"dd_default_amount\000"
 11158      65666175 
 11158      6C745F61 
 11158      6D6F756E 
 11158      7400
 11159              	.LASF243:
 11160 1b2b 4F535F46 		.ascii	"OS_FN_LPT_PUTDW\000"
 11160      4E5F4C50 
 11160      545F5055 
 11160      54445700 
 11161              	.LASF258:
 11162 1b3b 4F535F46 		.ascii	"OS_FN_FL_PGM_END\000"
 11162      4E5F464C 
 11162      5F50474D 
 11162      5F454E44 
 11162      00
 11163              	.LASF25:
 11164 1b4c 4F535F46 		.ascii	"OS_FN_KBD_LOCK\000"
 11164      4E5F4B42 
 11164      445F4C4F 
 11164      434B00
 11165              	.LASF477:
ARM GAS  C:\Users\AHMED~1.ELE\AppData\Local\Temp\ccFUpfoi.s 			page 237


 11166 1b5b 4F535F46 		.ascii	"OS_FN_GPRS_IS_HL6RD\000"
 11166      4E5F4750 
 11166      52535F49 
 11166      535F484C 
 11166      36524400 
 11167              	.LASF673:
 11168 1b6f 625F7072 		.ascii	"b_pri_redial\000"
 11168      695F7265 
 11168      6469616C 
 11168      00
 11169              	.LASF153:
 11170 1b7c 4F535F46 		.ascii	"OS_FN_LED_SET\000"
 11170      4E5F4C45 
 11170      445F5345 
 11170      5400
 11171              	.LASF310:
 11172 1b8a 4F535F46 		.ascii	"OS_FN_TPAD_DEL_OBJ\000"
 11172      4E5F5450 
 11172      41445F44 
 11172      454C5F4F 
 11172      424A00
 11173              	.LASF557:
 11174 1b9d 464C454E 		.ascii	"FLENGTHMW\000"
 11174      4754484D 
 11174      5700
 11175              	.LASF321:
 11176 1ba7 4F535F46 		.ascii	"OS_FN_CLICC_OPEN\000"
 11176      4E5F434C 
 11176      4943435F 
 11176      4F50454E 
 11176      00
 11177              	.LASF748:
 11178 1bb8 73625F70 		.ascii	"sb_psw_void\000"
 11178      73775F76 
 11178      6F696400 
 11179              	.LASF750:
 11180 1bc4 61706E5F 		.ascii	"apn_password\000"
 11180      70617373 
 11180      776F7264 
 11180      00
 11181              	.LASF776:
 11182 1bd1 73625F73 		.ascii	"sb_sec_trans_tel\000"
 11182      65635F74 
 11182      72616E73 
 11182      5F74656C 
 11182      00
 11183              	.LASF69:
 11184 1be2 4F535F46 		.ascii	"OS_FN_COM2_TXRDY\000"
 11184      4E5F434F 
 11184      4D325F54 
 11184      58524459 
 11184      00
 11185              	.LASF539:
 11186 1bf3 705F6162 		.ascii	"p_abort\000"
 11186      6F727400 
 11187              	.LASF63:
 11188 1bfb 4F535F46 		.ascii	"OS_FN_COM1_STATUS\000"
ARM GAS  C:\Users\AHMED~1.ELE\AppData\Local\Temp\ccFUpfoi.s 			page 238


 11188      4E5F434F 
 11188      4D315F53 
 11188      54415455 
 11188      5300
 11189              	.LASF356:
 11190 1c0d 4F535F46 		.ascii	"OS_FN_BUS_STOP\000"
 11190      4E5F4255 
 11190      535F5354 
 11190      4F5000
 11191              	.LASF833:
 11192 1c1c 74785F62 		.ascii	"tx_bitmap\000"
 11192      69746D61 
 11192      7000
 11193              	.LASF852:
 11194 1c26 66756E63 		.ascii	"func_sel\000"
 11194      5F73656C 
 11194      00
 11195              	.LASF662:
 11196 1c2f 73417578 		.ascii	"sAux\000"
 11196      00
 11197              	.LASF642:
 11198 1c34 624B6565 		.ascii	"bKeepAlive\000"
 11198      70416C69 
 11198      766500
 11199              	.LASF302:
 11200 1c3f 4F535F46 		.ascii	"OS_FN_GPRS_SMS_DECODE\000"
 11200      4E5F4750 
 11200      52535F53 
 11200      4D535F44 
 11200      45434F44 
 11201              	.LASF486:
 11202 1c55 4F535F46 		.ascii	"OS_FN_BATT_LEVEL2\000"
 11202      4E5F4241 
 11202      54545F4C 
 11202      4556454C 
 11202      3200
 11203              	.LASF129:
 11204 1c67 4F535F46 		.ascii	"OS_FN_KEY_HASH\000"
 11204      4E5F4B45 
 11204      595F4841 
 11204      534800
 11205              	.LASF191:
 11206 1c76 4F535F46 		.ascii	"OS_FN_FILE_FREESPACE\000"
 11206      4E5F4649 
 11206      4C455F46 
 11206      52454553 
 11206      50414345 
 11207              	.LASF759:
 11208 1c8b 73625F70 		.ascii	"sb_pan_range_high\000"
 11208      616E5F72 
 11208      616E6765 
 11208      5F686967 
 11208      6800
 11209              	.LASF664:
 11210 1c9d 434F4D4D 		.ascii	"COMMBUF\000"
 11210      42554600 
 11211              	.LASF211:
ARM GAS  C:\Users\AHMED~1.ELE\AppData\Local\Temp\ccFUpfoi.s 			page 239


 11212 1ca5 4F535F46 		.ascii	"OS_FN_SAM_T1\000"
 11212      4E5F5341 
 11212      4D5F5431 
 11212      00
 11213              	.LASF249:
 11214 1cb2 4F535F46 		.ascii	"OS_FN_USBSER_STATUS\000"
 11214      4E5F5553 
 11214      42534552 
 11214      5F535441 
 11214      54555300 
 11215              	.LASF931:
 11216 1cc6 44697370 		.ascii	"Disp2x16Msg\000"
 11216      32783136 
 11216      4D736700 
 11217              	.LASF195:
 11218 1cd2 4F535F46 		.ascii	"OS_FN_FILE_READDIR\000"
 11218      4E5F4649 
 11218      4C455F52 
 11218      45414444 
 11218      495200
 11219              	.LASF33:
 11220 1ce5 4F535F46 		.ascii	"OS_FN_BUZ_BEEP\000"
 11220      4E5F4255 
 11220      5A5F4245 
 11220      455000
 11221              	.LASF505:
 11222 1cf4 645F7863 		.ascii	"d_xctrl\000"
 11222      74726C00 
 11223              	.LASF686:
 11224 1cfc 625F6465 		.ascii	"b_default_app\000"
 11224      6661756C 
 11224      745F6170 
 11224      7000
 11225              	.LASF498:
 11226 1d0a 625F7278 		.ascii	"b_rx_gap\000"
 11226      5F676170 
 11226      00
 11227              	.LASF81:
 11228 1d13 4F535F46 		.ascii	"OS_FN_COM3_STATUS\000"
 11228      4E5F434F 
 11228      4D335F53 
 11228      54415455 
 11228      5300
 11229              	.LASF564:
 11230 1d25 47455443 		.ascii	"GETCHARMW\000"
 11230      4841524D 
 11230      5700
 11231              	.LASF19:
 11232 1d2f 4F535F46 		.ascii	"OS_FN_RAND_UPDATE\000"
 11232      4E5F5241 
 11232      4E445F55 
 11232      50444154 
 11232      4500
 11233              	.LASF659:
 11234 1d41 62417379 		.ascii	"bAsyncDelay\000"
 11234      6E634465 
 11234      6C617900 
ARM GAS  C:\Users\AHMED~1.ELE\AppData\Local\Temp\ccFUpfoi.s 			page 240


 11235              	.LASF406:
 11236 1d4d 4F535F46 		.ascii	"OS_FN_WIFI_PROFILES_READ\000"
 11236      4E5F5749 
 11236      46495F50 
 11236      524F4649 
 11236      4C45535F 
 11237              	.LASF516:
 11238 1d66 625F6363 		.ascii	"b_ccitt\000"
 11238      69747400 
 11239              	.LASF165:
 11240 1d6e 4F535F46 		.ascii	"OS_FN_FREE\000"
 11240      4E5F4652 
 11240      454500
 11241              	.LASF576:
 11242 1d79 44495350 		.ascii	"DISP_CLRLINEMW\000"
 11242      5F434C52 
 11242      4C494E45 
 11242      4D5700
 11243              	.LASF385:
 11244 1d88 4F535F46 		.ascii	"OS_FN_MIF_DEC\000"
 11244      4E5F4D49 
 11244      465F4445 
 11244      4300
 11245              	.LASF647:
 11246 1d96 73635573 		.ascii	"scUserID\000"
 11246      65724944 
 11246      00
 11247              	.LASF7:
 11248 1d9f 6C6F6E67 		.ascii	"long long int\000"
 11248      206C6F6E 
 11248      6720696E 
 11248      7400
 11249              	.LASF527:
 11250 1dad 625F6364 		.ascii	"b_cd_on_qualify_tval\000"
 11250      5F6F6E5F 
 11250      7175616C 
 11250      6966795F 
 11250      7476616C 
 11251              	.LASF839:
 11252 1dc2 7375625F 		.ascii	"sub_type\000"
 11252      74797065 
 11252      00
 11253              	.LASF38:
 11254 1dcb 4F535F46 		.ascii	"OS_FN_DISP_CLOSE\000"
 11254      4E5F4449 
 11254      53505F43 
 11254      4C4F5345 
 11254      00
 11255              	.LASF622:
 11256 1ddc 62536563 		.ascii	"bSecond\000"
 11256      6F6E6400 
 11257              	.LASF874:
 11258 1de4 7061636B 		.ascii	"pack_null\000"
 11258      5F6E756C 
 11258      6C00
 11259              	.LASF621:
 11260 1dee 624D696E 		.ascii	"bMinute\000"
ARM GAS  C:\Users\AHMED~1.ELE\AppData\Local\Temp\ccFUpfoi.s 			page 241


 11260      75746500 
 11261              	.LASF798:
 11262 1df6 44455343 		.ascii	"DESC_TBL\000"
 11262      5F54424C 
 11262      00
 11263              	.LASF566:
 11264 1dff 4445534B 		.ascii	"DESKEYMW\000"
 11264      45594D57 
 11264      00
 11265              	.LASF361:
 11266 1e08 4F535F46 		.ascii	"OS_FN_NETDEV_EVENT\000"
 11266      4E5F4E45 
 11266      54444556 
 11266      5F455645 
 11266      4E5400
 11267              	.LASF72:
 11268 1e1b 4F535F46 		.ascii	"OS_FN_COM2_STATUS\000"
 11268      4E5F434F 
 11268      4D325F53 
 11268      54415455 
 11268      5300
 11269              	.LASF495:
 11270 1e2d 625F6C65 		.ascii	"b_len\000"
 11270      6E00
 11271              	.LASF708:
 11272 1e33 73625F6C 		.ascii	"sb_lxapp_size\000"
 11272      78617070 
 11272      5F73697A 
 11272      6500
 11273              	.LASF936:
 11274 1e41 42617453 		.ascii	"BatSysInit\000"
 11274      7973496E 
 11274      697400
 11275              	.LASF619:
 11276 1e4c 62446179 		.ascii	"bDay\000"
 11276      00
 11277              	.LASF606:
 11278 1e51 65426974 		.ascii	"eBitField\000"
 11278      4669656C 
 11278      6400
 11279              	.LASF554:
 11280 1e5b 4644454C 		.ascii	"FDELETEMW\000"
 11280      4554454D 
 11280      5700
 11281              	.LASF298:
 11282 1e65 4F535F46 		.ascii	"OS_FN_GPRS_RESET\000"
 11282      4E5F4750 
 11282      52535F52 
 11282      45534554 
 11282      00
 11283              	.LASF44:
 11284 1e76 4F535F46 		.ascii	"OS_FN_DISP_PUTP\000"
 11284      4E5F4449 
 11284      53505F50 
 11284      55545000 
 11285              	.LASF395:
 11286 1e86 4F535F46 		.ascii	"OS_FN_BARCODE_CLOSE\000"
ARM GAS  C:\Users\AHMED~1.ELE\AppData\Local\Temp\ccFUpfoi.s 			page 242


 11286      4E5F4241 
 11286      52434F44 
 11286      455F434C 
 11286      4F534500 
 11287              	.LASF256:
 11288 1e9a 4F535F46 		.ascii	"OS_FN_FL_PGM_START\000"
 11288      4E5F464C 
 11288      5F50474D 
 11288      5F535441 
 11288      525400
 11289              	.LASF260:
 11290 1ead 4F535F46 		.ascii	"OS_FN_FL_ERASE_END\000"
 11290      4E5F464C 
 11290      5F455241 
 11290      53455F45 
 11290      4E4400
 11291              	.LASF296:
 11292 1ec0 4F535F46 		.ascii	"OS_FN_GPRS_SEND\000"
 11292      4E5F4750 
 11292      52535F53 
 11292      454E4400 
 11293              	.LASF244:
 11294 1ed0 4F535F46 		.ascii	"OS_FN_LPT_STATUS\000"
 11294      4E5F4C50 
 11294      545F5354 
 11294      41545553 
 11294      00
 11295              	.LASF52:
 11296 1ee1 4F535F46 		.ascii	"OS_FN_DISP_ICON_COLOR\000"
 11296      4E5F4449 
 11296      53505F49 
 11296      434F4E5F 
 11296      434F4C4F 
 11297              	.LASF711:
 11298 1ef7 73625F70 		.ascii	"sb_ppp_user\000"
 11298      70705F75 
 11298      73657200 
 11299              	.LASF158:
 11300 1f03 4F535F46 		.ascii	"OS_FN_APP_SEARCH_ID\000"
 11300      4E5F4150 
 11300      505F5345 
 11300      41524348 
 11300      5F494400 
 11301              	.LASF350:
 11302 1f17 4F535F46 		.ascii	"OS_FN_DEVICE_OPEN\000"
 11302      4E5F4445 
 11302      56494345 
 11302      5F4F5045 
 11302      4E00
 11303              	.LASF56:
 11304 1f29 4F535F46 		.ascii	"OS_FN_DISP_OVERLAY\000"
 11304      4E5F4449 
 11304      53505F4F 
 11304      5645524C 
 11304      415900
 11305              	.LASF314:
 11306 1f3c 4F535F46 		.ascii	"OS_FN_TPAD_RAW_POS\000"
ARM GAS  C:\Users\AHMED~1.ELE\AppData\Local\Temp\ccFUpfoi.s 			page 243


 11306      4E5F5450 
 11306      41445F52 
 11306      41575F50 
 11306      4F5300
 11307              	.LASF819:
 11308 1f4f 73625F61 		.ascii	"sb_auth_code\000"
 11308      7574685F 
 11308      636F6465 
 11308      00
 11309              	.LASF214:
 11310 1f5c 4F535F46 		.ascii	"OS_FN_MMC_CLOSE\000"
 11310      4E5F4D4D 
 11310      435F434C 
 11310      4F534500 
 11311              	.LASF360:
 11312 1f6c 4F535F46 		.ascii	"OS_FN_NETDEV_GETLINK\000"
 11312      4E5F4E45 
 11312      54444556 
 11312      5F474554 
 11312      4C494E4B 
 11313              	.LASF84:
 11314 1f81 4F535F46 		.ascii	"OS_FN_DESKEY\000"
 11314      4E5F4445 
 11314      534B4559 
 11314      00
 11315              	.LASF731:
 11316 1f8e 73625F64 		.ascii	"sb_date_time\000"
 11316      6174655F 
 11316      74696D65 
 11316      00
 11317              	.LASF247:
 11318 1f9b 4F535F46 		.ascii	"OS_FN_USBSER_READ\000"
 11318      4E5F5553 
 11318      42534552 
 11318      5F524541 
 11318      4400
 11319              	.LASF99:
 11320 1fad 4F535F46 		.ascii	"OS_FN_MD5_PROCESS\000"
 11320      4E5F4D44 
 11320      355F5052 
 11320      4F434553 
 11320      5300
 11321              	.LASF378:
 11322 1fbf 4F535F46 		.ascii	"OS_FN_MIF_SELECT\000"
 11322      4E5F4D49 
 11322      465F5345 
 11322      4C454354 
 11322      00
 11323              	.LASF868:
 11324 1fd0 4B496E69 		.ascii	"KInitItem\000"
 11324      74497465 
 11324      6D00
 11325              	.LASF548:
 11326 1fda 4C534545 		.ascii	"LSEEKMW\000"
 11326      4B4D5700 
 11327              	.LASF866:
 11328 1fe2 4B536F66 		.ascii	"KSoftName\000"
ARM GAS  C:\Users\AHMED~1.ELE\AppData\Local\Temp\ccFUpfoi.s 			page 244


 11328      744E616D 
 11328      6500
 11329              	.LASF829:
 11330 1fec 625F7072 		.ascii	"b_proc_code\000"
 11330      6F635F63 
 11330      6F646500 
 11331              	.LASF515:
 11332 1ff8 625F7072 		.ascii	"b_protocol\000"
 11332      6F746F63 
 11332      6F6C00
 11333              	.LASF60:
 11334 2003 4F535F46 		.ascii	"OS_FN_COM1_TXRDY\000"
 11334      4E5F434F 
 11334      4D315F54 
 11334      58524459 
 11334      00
 11335              	.LASF865:
 11336 2014 4B547261 		.ascii	"KTransBitmap\000"
 11336      6E734269 
 11336      746D6170 
 11336      00
 11337              	.LASF171:
 11338 2021 4F535F46 		.ascii	"OS_FN_FILE_RENAME\000"
 11338      4E5F4649 
 11338      4C455F52 
 11338      454E414D 
 11338      4500
 11339              	.LASF770:
 11340 2033 41435155 		.ascii	"ACQUIRER_TBL\000"
 11340      49524552 
 11340      5F54424C 
 11340      00
 11341              	.LASF825:
 11342 2040 735F7273 		.ascii	"s_rsp_data\000"
 11342      705F6461 
 11342      746100
 11343              	.LASF451:
 11344 204b 4F535F46 		.ascii	"OS_FN_FPRT_CLOSE\000"
 11344      4E5F4650 
 11344      52545F43 
 11344      4C4F5345 
 11344      00
 11345              	.LASF726:
 11346 205c 5445524D 		.ascii	"TERM_CFG\000"
 11346      5F434647 
 11346      00
 11347              	.LASF353:
 11348 2065 4F535F46 		.ascii	"OS_FN_INTERRUPT_REGISTER\000"
 11348      4E5F494E 
 11348      54455252 
 11348      5550545F 
 11348      52454749 
 11349              	.LASF701:
 11350 207e 73625F65 		.ascii	"sb_emvkey_date\000"
 11350      6D766B65 
 11350      795F6461 
 11350      746500
ARM GAS  C:\Users\AHMED~1.ELE\AppData\Local\Temp\ccFUpfoi.s 			page 245


 11351              	.LASF212:
 11352 208d 4F535F46 		.ascii	"OS_FN_SAM_CHANGE\000"
 11352      4E5F5341 
 11352      4D5F4348 
 11352      414E4745 
 11352      00
 11353              	.LASF185:
 11354 209e 4F535F46 		.ascii	"OS_FN_FILE_ACTIVATE\000"
 11354      4E5F4649 
 11354      4C455F41 
 11354      43544956 
 11354      41544500 
 11355              	.LASF46:
 11356 20b2 4F535F46 		.ascii	"OS_FN_DISP_LENGTH\000"
 11356      4E5F4449 
 11356      53505F4C 
 11356      454E4754 
 11356      4800
 11357              	.LASF590:
 11358 20c4 534D535F 		.ascii	"SMS_CLEAR_ALL_MW\000"
 11358      434C4541 
 11358      525F414C 
 11358      4C5F4D57 
 11358      00
 11359              	.LASF453:
 11360 20d5 4F535F46 		.ascii	"OS_FN_FPRT_INFO_SET\000"
 11360      4E5F4650 
 11360      52545F49 
 11360      4E464F5F 
 11360      53455400 
 11361              	.LASF0:
 11362 20e9 756E7369 		.ascii	"unsigned int\000"
 11362      676E6564 
 11362      20696E74 
 11362      00
 11363              	.LASF794:
 11364 20f6 625F7265 		.ascii	"b_reserved1\000"
 11364      73657276 
 11364      65643100 
 11365              	.LASF837:
 11366 2102 746D706C 		.ascii	"tmplen\000"
 11366      656E00
 11367              	.LASF775:
 11368 2109 625F7072 		.ascii	"b_pri_trans_redial\000"
 11368      695F7472 
 11368      616E735F 
 11368      72656469 
 11368      616C00
 11369              	.LASF447:
 11370 211c 4F535F46 		.ascii	"OS_FN_DTIMER_LATCH_TIME\000"
 11370      4E5F4454 
 11370      494D4552 
 11370      5F4C4154 
 11370      43485F54 
 11371              	.LASF325:
 11372 2134 4F535F46 		.ascii	"OS_FN_CLICC_SENDCOMMAND\000"
 11372      4E5F434C 
ARM GAS  C:\Users\AHMED~1.ELE\AppData\Local\Temp\ccFUpfoi.s 			page 246


 11372      4943435F 
 11372      53454E44 
 11372      434F4D4D 
 11373              	.LASF438:
 11374 214c 4F535F46 		.ascii	"OS_FN_DLL_REQ\000"
 11374      4E5F444C 
 11374      4C5F5245 
 11374      5100
 11375              	.LASF178:
 11376 215a 4F535F46 		.ascii	"OS_FN_FILE_GETC\000"
 11376      4E5F4649 
 11376      4C455F47 
 11376      45544300 
 11377              	.LASF910:
 11378 216a 55706445 		.ascii	"UpdExtraParam\000"
 11378      78747261 
 11378      50617261 
 11378      6D00
 11379              	.LASF694:
 11380 2178 73625F65 		.ascii	"sb_edc_chksum\000"
 11380      64635F63 
 11380      686B7375 
 11380      6D00
 11381              	.LASF582:
 11382 2186 44495350 		.ascii	"DISP_PUTGMW\000"
 11382      5F505554 
 11382      474D5700 
 11383              	.LASF475:
 11384 2192 4F535F46 		.ascii	"OS_FN_IMG_SENSOR_GET_FRAME_COMPLETE\000"
 11384      4E5F494D 
 11384      475F5345 
 11384      4E534F52 
 11384      5F474554 
 11385              	.LASF700:
 11386 21b6 73625F65 		.ascii	"sb_emvkey_chksum\000"
 11386      6D766B65 
 11386      795F6368 
 11386      6B73756D 
 11386      00
 11387              	.LASF420:
 11388 21c7 4F535F46 		.ascii	"OS_FN_GPRS_GET_GPS_INFO\000"
 11388      4E5F4750 
 11388      52535F47 
 11388      45545F47 
 11388      50535F49 
 11389              	.LASF757:
 11390 21df 43415244 		.ascii	"CARD_TBL\000"
 11390      5F54424C 
 11390      00
 11391              	.LASF532:
 11392 21e8 625F686F 		.ascii	"b_holdline_tval\000"
 11392      6C646C69 
 11392      6E655F74 
 11392      76616C00 
 11393              	.LASF128:
 11394 21f8 4F535F46 		.ascii	"OS_FN_KEY_CBC_MAC\000"
 11394      4E5F4B45 
ARM GAS  C:\Users\AHMED~1.ELE\AppData\Local\Temp\ccFUpfoi.s 			page 247


 11394      595F4342 
 11394      435F4D41 
 11394      4300
 11395              	.LASF789:
 11396 220a 73625F63 		.ascii	"sb_curr_batch_no\000"
 11396      7572725F 
 11396      62617463 
 11396      685F6E6F 
 11396      00
 11397              	.LASF845:
 11398 221b 70446174 		.ascii	"pDat\000"
 11398      00
 11399              	.LASF141:
 11400 2220 4F535F46 		.ascii	"OS_FN_THREAD_LOCK\000"
 11400      4E5F5448 
 11400      52454144 
 11400      5F4C4F43 
 11400      4B00
 11401              	.LASF351:
 11402 2232 4F535F46 		.ascii	"OS_FN_DEVICE_MOUNT\000"
 11402      4E5F4445 
 11402      56494345 
 11402      5F4D4F55 
 11402      4E5400
 11403              	.LASF90:
 11404 2245 4F535F46 		.ascii	"OS_FN_NEW_DES\000"
 11404      4E5F4E45 
 11404      575F4445 
 11404      5300
 11405              	.LASF184:
 11406 2253 4F535F46 		.ascii	"OS_FN_FILE_DEACTIVATE\000"
 11406      4E5F4649 
 11406      4C455F44 
 11406      45414354 
 11406      49564154 
 11407              	.LASF367:
 11408 2269 4F535F46 		.ascii	"OS_FN_TAMPER_ON\000"
 11408      4E5F5441 
 11408      4D504552 
 11408      5F4F4E00 
 11409              	.LASF613:
 11410 2279 65414346 		.ascii	"eACFG\000"
 11410      4700
 11411              	.LASF265:
 11412 227f 4F535F46 		.ascii	"OS_FN_FL_CREAD\000"
 11412      4E5F464C 
 11412      5F435245 
 11412      414400
 11413              	.LASF584:
 11414 228e 4F535F43 		.ascii	"OS_CALL_MW\000"
 11414      414C4C5F 
 11414      4D5700
 11415              	.LASF645:
 11416 2299 644D6F64 		.ascii	"dMode\000"
 11416      6500
 11417              	.LASF416:
 11418 229f 4F535F46 		.ascii	"OS_FN_NFC_IC_REG_DIRECT_READ\000"
ARM GAS  C:\Users\AHMED~1.ELE\AppData\Local\Temp\ccFUpfoi.s 			page 248


 11418      4E5F4E46 
 11418      435F4943 
 11418      5F524547 
 11418      5F444952 
 11419              	.LASF902:
 11420 22bc 55706444 		.ascii	"UpdDescTbl\000"
 11420      65736354 
 11420      626C00
 11421              	.LASF657:
 11422 22c7 62486F73 		.ascii	"bHostConnTime\000"
 11422      74436F6E 
 11422      6E54696D 
 11422      6500
 11423              	.LASF389:
 11424 22d5 4F535F46 		.ascii	"OS_FN_MIF_SNO\000"
 11424      4E5F4D49 
 11424      465F534E 
 11424      4F00
 11425              	.LASF131:
 11426 22e3 4F535F46 		.ascii	"OS_FN_KEY_SAVE_TMK_NC\000"
 11426      4E5F4B45 
 11426      595F5341 
 11426      56455F54 
 11426      4D4B5F4E 
 11427              	.LASF786:
 11428 22f9 73625F6E 		.ascii	"sb_nii\000"
 11428      696900
 11429              	.LASF884:
 11430 2300 62636432 		.ascii	"bcd2bin\000"
 11430      62696E00 
 11431              	.LASF716:
 11432 2308 73625F63 		.ascii	"sb_checkin_pri_no\000"
 11432      6865636B 
 11432      696E5F70 
 11432      72695F6E 
 11432      6F00
 11433              	.LASF252:
 11434 231a 4F535F46 		.ascii	"OS_FN_FL_STATUS\000"
 11434      4E5F464C 
 11434      5F535441 
 11434      54555300 
 11435              	.LASF307:
 11436 232a 4F535F46 		.ascii	"OS_FN_TPAD_OPEN\000"
 11436      4E5F5450 
 11436      41445F4F 
 11436      50454E00 
 11437              	.LASF692:
 11438 233a 625F6563 		.ascii	"b_ecr_port\000"
 11438      725F706F 
 11438      727400
 11439              	.LASF113:
 11440 2345 4F535F46 		.ascii	"OS_FN_SM2_DECRYPT\000"
 11440      4E5F534D 
 11440      325F4445 
 11440      43525950 
 11440      5400
 11441              	.LASF225:
ARM GAS  C:\Users\AHMED~1.ELE\AppData\Local\Temp\ccFUpfoi.s 			page 249


 11442 2357 4F535F46 		.ascii	"OS_FN_SLE_HIST\000"
 11442      4E5F534C 
 11442      455F4849 
 11442      535400
 11443              	.LASF426:
 11444 2366 4F535F46 		.ascii	"OS_FN_BREG_WRITE\000"
 11444      4E5F4252 
 11444      45475F57 
 11444      52495445 
 11444      00
 11445              	.LASF118:
 11446 2377 4F535F46 		.ascii	"OS_FN_SM4_ENCRYPT\000"
 11446      4E5F534D 
 11446      345F454E 
 11446      43525950 
 11446      5400
 11447              	.LASF217:
 11448 2389 4F535F46 		.ascii	"OS_FN_MMC_PSTATUS\000"
 11448      4E5F4D4D 
 11448      435F5053 
 11448      54415455 
 11448      5300
 11449              	.LASF254:
 11450 239b 4F535F46 		.ascii	"OS_FN_FL_PAGE\000"
 11450      4E5F464C 
 11450      5F504147 
 11450      4500
 11451              	.LASF259:
 11452 23a9 4F535F46 		.ascii	"OS_FN_FL_ERASE_START\000"
 11452      4E5F464C 
 11452      5F455241 
 11452      53455F53 
 11452      54415254 
 11453              	.LASF5:
 11454 23be 6C6F6E67 		.ascii	"long int\000"
 11454      20696E74 
 11454      00
 11455              	.LASF51:
 11456 23c7 4F535F46 		.ascii	"OS_FN_DISP_BL_CONTROL\000"
 11456      4E5F4449 
 11456      53505F42 
 11456      4C5F434F 
 11456      4E54524F 
 11457              	.LASF14:
 11458 23dd 574F5244 		.ascii	"WORD\000"
 11458      00
 11459              	.LASF699:
 11460 23e2 73625F65 		.ascii	"sb_emvapp_size\000"
 11460      6D766170 
 11460      705F7369 
 11460      7A6500
 11461              	.LASF358:
 11462 23f1 4F535F46 		.ascii	"OS_FN_NETDEV_OPEN\000"
 11462      4E5F4E45 
 11462      54444556 
 11462      5F4F5045 
 11462      4E00
ARM GAS  C:\Users\AHMED~1.ELE\AppData\Local\Temp\ccFUpfoi.s 			page 250


 11463              	.LASF462:
 11464 2403 4F535F46 		.ascii	"OS_FN_GCM_AES_FINISH\000"
 11464      4E5F4743 
 11464      4D5F4145 
 11464      535F4649 
 11464      4E495348 
 11465              	.LASF2:
 11466 2418 756E7369 		.ascii	"unsigned char\000"
 11466      676E6564 
 11466      20636861 
 11466      7200
 11467              	.LASF126:
 11468 2426 4F535F46 		.ascii	"OS_FN_KEY_DUKPT_MAC_CAL\000"
 11468      4E5F4B45 
 11468      595F4455 
 11468      4B50545F 
 11468      4D41435F 
 11469              	.LASF331:
 11470 243e 4F535F46 		.ascii	"OS_FN_CLICC_LED_SET\000"
 11470      4E5F434C 
 11470      4943435F 
 11470      4C45445F 
 11470      53455400 
 11471              	.LASF714:
 11472 2452 73625F70 		.ascii	"sb_ppp_port\000"
 11472      70705F70 
 11472      6F727400 
 11473              	.LASF812:
 11474 245e 625F7472 		.ascii	"b_trans\000"
 11474      616E7300 
 11475              	.LASF409:
 11476 2466 4F535F46 		.ascii	"OS_FN_NFC_SEND_FELICA_COMMAND\000"
 11476      4E5F4E46 
 11476      435F5345 
 11476      4E445F46 
 11476      454C4943 
 11477              	.LASF42:
 11478 2484 4F535F46 		.ascii	"OS_FN_DISP_GETG\000"
 11478      4E5F4449 
 11478      53505F47 
 11478      45544700 
 11479              	.LASF912:
 11480 2494 53657444 		.ascii	"SetDTG\000"
 11480      544700
 11481              	.LASF326:
 11482 249b 4F535F46 		.ascii	"OS_FN_CLICC_CTRL\000"
 11482      4E5F434C 
 11482      4943435F 
 11482      4354524C 
 11482      00
 11483              	.LASF649:
 11484 24ac 70734C6F 		.ascii	"psLogin\000"
 11484      67696E00 
 11485              	.LASF219:
 11486 24b4 4F535F46 		.ascii	"OS_FN_MMC_BLK_WRITE\000"
 11486      4E5F4D4D 
 11486      435F424C 
ARM GAS  C:\Users\AHMED~1.ELE\AppData\Local\Temp\ccFUpfoi.s 			page 251


 11486      4B5F5752 
 11486      49544500 
 11487              	.LASF299:
 11488 24c8 4F535F46 		.ascii	"OS_FN_GPRS_CONTROL\000"
 11488      4E5F4750 
 11488      52535F43 
 11488      4F4E5452 
 11488      4F4C00
 11489              	.LASF846:
 11490 24db 6D73675F 		.ascii	"msg_id\000"
 11490      696400
 11491              	.LASF908:
 11492 24e2 436C6F73 		.ascii	"CloseExParamFiles\000"
 11492      65457850 
 11492      6172616D 
 11492      46696C65 
 11492      7300
 11493              	.LASF364:
 11494 24f4 4F535F46 		.ascii	"OS_FN_USBKBD_CLOSE\000"
 11494      4E5F5553 
 11494      424B4244 
 11494      5F434C4F 
 11494      534500
 11495              	.LASF373:
 11496 2507 4F535F46 		.ascii	"OS_FN_MIF_HALT\000"
 11496      4E5F4D49 
 11496      465F4841 
 11496      4C5400
 11497              	.LASF661:
 11498 2516 73546370 		.ascii	"sTcp\000"
 11498      00
 11499              	.LASF188:
 11500 251b 4F535F46 		.ascii	"OS_FN_FILE_AUTH\000"
 11500      4E5F4649 
 11500      4C455F41 
 11500      55544800 
 11501              	.LASF267:
 11502 252b 4F535F46 		.ascii	"OS_FN_FL_COPYBACK\000"
 11502      4E5F464C 
 11502      5F434F50 
 11502      59424143 
 11502      4B00
 11503              	.LASF682:
 11504 253d 73625F69 		.ascii	"sb_ip\000"
 11504      7000
 11505              	.LASF22:
 11506 2543 4F535F46 		.ascii	"OS_FN_KBD_INKEY\000"
 11506      4E5F4B42 
 11506      445F494E 
 11506      4B455900 
 11507              	.LASF70:
 11508 2553 4F535F46 		.ascii	"OS_FN_COM2_READ\000"
 11508      4E5F434F 
 11508      4D325F52 
 11508      45414400 
 11509              	.LASF873:
 11510 2563 7061636B 		.ascii	"pack_mem\000"
ARM GAS  C:\Users\AHMED~1.ELE\AppData\Local\Temp\ccFUpfoi.s 			page 252


 11510      5F6D656D 
 11510      00
 11511              	.LASF925:
 11512 256c 4D656D46 		.ascii	"MemFatalErr\000"
 11512      6174616C 
 11512      45727200 
 11513              	.LASF830:
 11514 2578 42415443 		.ascii	"BATCH_NO\000"
 11514      485F4E4F 
 11514      00
 11515              	.LASF78:
 11516 2581 4F535F46 		.ascii	"OS_FN_COM3_TXRDY\000"
 11516      4E5F434F 
 11516      4D335F54 
 11516      58524459 
 11516      00
 11517              	.LASF179:
 11518 2592 4F535F46 		.ascii	"OS_FN_FILE_LENGTH\000"
 11518      4E5F4649 
 11518      4C455F4C 
 11518      454E4754 
 11518      4800
 11519              	.LASF489:
 11520 25a4 454E445F 		.ascii	"END_OF_OS_FN_LIST\000"
 11520      4F465F4F 
 11520      535F464E 
 11520      5F4C4953 
 11520      5400
 11521              	.LASF583:
 11522 25b6 4745545F 		.ascii	"GET_LCD_TYPEMW\000"
 11522      4C43445F 
 11522      54595045 
 11522      4D5700
 11523              	.LASF163:
 11524 25c5 4F535F46 		.ascii	"OS_FN_MALLOC\000"
 11524      4E5F4D41 
 11524      4C4C4F43 
 11524      00
 11525              	.LASF189:
 11526 25d2 4F535F46 		.ascii	"OS_FN_FILE_SET_LOCK\000"
 11526      4E5F4649 
 11526      4C455F53 
 11526      45545F4C 
 11526      4F434B00 
 11527              	.LASF445:
 11528 25e6 4F535F46 		.ascii	"OS_FN_DTIMER_LATCH_START\000"
 11528      4E5F4454 
 11528      494D4552 
 11528      5F4C4154 
 11528      43485F53 
 11529              	.LASF889:
 11530 25ff 436C6F73 		.ascii	"CloseSTISFiles\000"
 11530      65535449 
 11530      5346696C 
 11530      657300
 11531              	.LASF421:
 11532 260e 4F535F46 		.ascii	"OS_FN_GPS_CMD\000"
ARM GAS  C:\Users\AHMED~1.ELE\AppData\Local\Temp\ccFUpfoi.s 			page 253


 11532      4E5F4750 
 11532      535F434D 
 11532      4400
 11533              	.LASF848:
 11534 261c 7074725F 		.ascii	"ptr_end\000"
 11534      656E6400 
 11535              	.LASF705:
 11536 2624 73625F78 		.ascii	"sb_xapp_size\000"
 11536      6170705F 
 11536      73697A65 
 11536      00
 11537              	.LASF401:
 11538 2631 4F535F46 		.ascii	"OS_FN_BARCODE_ENABLED\000"
 11538      4E5F4241 
 11538      52434F44 
 11538      455F454E 
 11538      41424C45 
 11539              	.LASF537:
 11540 2647 775F6D61 		.ascii	"w_max_len\000"
 11540      785F6C65 
 11540      6E00
 11541              	.LASF172:
 11542 2651 4F535F46 		.ascii	"OS_FN_FILE_DELETE\000"
 11542      4E5F4649 
 11542      4C455F44 
 11542      454C4554 
 11542      4500
 11543              	.LASF148:
 11544 2663 4F535F46 		.ascii	"OS_FN_BUFMAN_REALLOC\000"
 11544      4E5F4255 
 11544      464D414E 
 11544      5F524541 
 11544      4C4C4F43 
 11545              	.LASF313:
 11546 2678 4F535F46 		.ascii	"OS_FN_TPAD_CALIBRATE\000"
 11546      4E5F5450 
 11546      41445F43 
 11546      414C4942 
 11546      52415445 
 11547              	.LASF855:
 11548 268d 6163715F 		.ascii	"acq_tbl\000"
 11548      74626C00 
 11549              	.LASF904:
 11550 2695 44574765 		.ascii	"DWGet\000"
 11550      7400
 11551              	.LASF108:
 11552 269b 4F535F46 		.ascii	"OS_FN_SM2_SET_CURVE\000"
 11552      4E5F534D 
 11552      325F5345 
 11552      545F4355 
 11552      52564500 
 11553              	.LASF275:
 11554 26af 4F535F46 		.ascii	"OS_FN_MCOM_OPEN\000"
 11554      4E5F4D43 
 11554      4F4D5F4F 
 11554      50454E00 
 11555              	.LASF841:
ARM GAS  C:\Users\AHMED~1.ELE\AppData\Local\Temp\ccFUpfoi.s 			page 254


 11556 26bf 63617264 		.ascii	"card_index\000"
 11556      5F696E64 
 11556      657800
 11557              	.LASF332:
 11558 26ca 4F535F46 		.ascii	"OS_FN_CLICC_LED_CLEAR\000"
 11558      4E5F434C 
 11558      4943435F 
 11558      4C45445F 
 11558      434C4541 
 11559              	.LASF159:
 11560 26e0 4F535F46 		.ascii	"OS_FN_APP_SEARCH_NAME\000"
 11560      4E5F4150 
 11560      505F5345 
 11560      41524348 
 11560      5F4E414D 
 11561              	.LASF765:
 11562 26f6 73625F63 		.ascii	"sb_card_name\000"
 11562      6172645F 
 11562      6E616D65 
 11562      00
 11563              	.LASF780:
 11564 2703 625F7072 		.ascii	"b_pri_settle_conn_time\000"
 11564      695F7365 
 11564      74746C65 
 11564      5F636F6E 
 11564      6E5F7469 
 11565              	.LASF102:
 11566 271a 4F535F46 		.ascii	"OS_FN_SHA_PROCESS\000"
 11566      4E5F5348 
 11566      415F5052 
 11566      4F434553 
 11566      5300
 11567              	.LASF362:
 11568 272c 4F535F46 		.ascii	"OS_FN_NETDEV_IOCTL\000"
 11568      4E5F4E45 
 11568      54444556 
 11568      5F494F43 
 11568      544C00
 11569              	.LASF85:
 11570 273f 4F535F46 		.ascii	"OS_FN_DES\000"
 11570      4E5F4445 
 11570      5300
 11571              	.LASF842:
 11572 2749 6D6F7265 		.ascii	"more_msg\000"
 11572      5F6D7367 
 11572      00
 11573              	.LASF476:
 11574 2752 4F535F46 		.ascii	"OS_FN_IMG_SENSOR_CLOSE\000"
 11574      4E5F494D 
 11574      475F5345 
 11574      4E534F52 
 11574      5F434C4F 
 11575              	.LASF58:
 11576 2769 4F535F46 		.ascii	"OS_FN_COM1_CLOSE\000"
 11576      4E5F434F 
 11576      4D315F43 
 11576      4C4F5345 
ARM GAS  C:\Users\AHMED~1.ELE\AppData\Local\Temp\ccFUpfoi.s 			page 255


 11576      00
 11577              	.LASF264:
 11578 277a 4F535F46 		.ascii	"OS_FN_FL_CREAD_RAND\000"
 11578      4E5F464C 
 11578      5F435245 
 11578      41445F52 
 11578      414E4400 
 11579              	.LASF96:
 11580 278e 4F535F46 		.ascii	"OS_FN_AES_DECRYPT_BLOCK\000"
 11580      4E5F4145 
 11580      535F4445 
 11580      43525950 
 11580      545F424C 
 11581              	.LASF397:
 11582 27a6 4F535F46 		.ascii	"OS_FN_BARCODE_SCAN\000"
 11582      4E5F4241 
 11582      52434F44 
 11582      455F5343 
 11582      414E00
 11583              	.LASF24:
 11584 27b9 4F535F46 		.ascii	"OS_FN_KBD_GETKEY\000"
 11584      4E5F4B42 
 11584      445F4745 
 11584      544B4559 
 11584      00
 11585              	.LASF336:
 11586 27ca 4F535F46 		.ascii	"OS_FN_USBHOST_RESET_DEVICE\000"
 11586      4E5F5553 
 11586      42484F53 
 11586      545F5245 
 11586      5345545F 
 11587              	.LASF898:
 11588 27e5 55706443 		.ascii	"UpdCardTbl\000"
 11588      61726454 
 11588      626C00
 11589              	.LASF616:
 11590 27f0 6243656E 		.ascii	"bCentury\000"
 11590      74757279 
 11590      00
 11591              	.LASF309:
 11592 27f9 4F535F46 		.ascii	"OS_FN_TPAD_ADD_OBJ\000"
 11592      4E5F5450 
 11592      41445F41 
 11592      44445F4F 
 11592      424A00
 11593              	.LASF864:
 11594 280c 67436F6D 		.ascii	"gCommParam\000"
 11594      6D506172 
 11594      616D00
 11595              	.LASF906:
 11596 2817 57476574 		.ascii	"WGet\000"
 11596      00
 11597              	.LASF612:
 11598 281c 65544143 		.ascii	"eTACDefault\000"
 11598      44656661 
 11598      756C7400 
 11599              	.LASF755:
ARM GAS  C:\Users\AHMED~1.ELE\AppData\Local\Temp\ccFUpfoi.s 			page 256


 11600 2828 61706E32 		.ascii	"apn2_ip\000"
 11600      5F697000 
 11601              	.LASF8:
 11602 2830 6C6F6E67 		.ascii	"long long unsigned int\000"
 11602      206C6F6E 
 11602      6720756E 
 11602      7369676E 
 11602      65642069 
 11603              	.LASF200:
 11604 2847 4F535F46 		.ascii	"OS_FN_FILE_IOCTL\000"
 11604      4E5F4649 
 11604      4C455F49 
 11604      4F43544C 
 11604      00
 11605              	.LASF181:
 11606 2858 4F535F46 		.ascii	"OS_FN_FILE_SEARCH\000"
 11606      4E5F4649 
 11606      4C455F53 
 11606      45415243 
 11606      4800
 11607              	.LASF412:
 11608 286a 4F535F46 		.ascii	"OS_FN_NFC_GET_VALID_RESP\000"
 11608      4E5F4E46 
 11608      435F4745 
 11608      545F5641 
 11608      4C49445F 
 11609              	.LASF1:
 11610 2883 7369676E 		.ascii	"signed char\000"
 11610      65642063 
 11610      68617200 
 11611              	.LASF398:
 11612 288f 4F535F46 		.ascii	"OS_FN_BARCODE_READ\000"
 11612      4E5F4241 
 11612      52434F44 
 11612      455F5245 
 11612      414400
 11613              	.LASF658:
 11614 28a2 6254696D 		.ascii	"bTimeoutVal\000"
 11614      656F7574 
 11614      56616C00 
 11615              	.LASF574:
 11616 28ae 44495350 		.ascii	"DISP_PUTCMW\000"
 11616      5F505554 
 11616      434D5700 
 11617              	.LASF238:
 11618 28ba 4F535F46 		.ascii	"OS_FN_MSR_READ\000"
 11618      4E5F4D53 
 11618      525F5245 
 11618      414400
 11619              	.LASF595:
 11620 28c9 4D575F46 		.ascii	"MW_FUNC_COUNT\000"
 11620      554E435F 
 11620      434F554E 
 11620      5400
 11621              	.LASF773:
 11622 28d7 73625F70 		.ascii	"sb_pri_trans_tel\000"
 11622      72695F74 
ARM GAS  C:\Users\AHMED~1.ELE\AppData\Local\Temp\ccFUpfoi.s 			page 257


 11622      72616E73 
 11622      5F74656C 
 11622      00
 11623              	.LASF342:
 11624 28e8 4F535F46 		.ascii	"OS_FN_DRIVER_UNREGISTER\000"
 11624      4E5F4452 
 11624      49564552 
 11624      5F554E52 
 11624      45474953 
 11625              	.LASF466:
 11626 2900 4F535F46 		.ascii	"OS_FN_WIFI_SOCKET_DISCONNECT\000"
 11626      4E5F5749 
 11626      46495F53 
 11626      4F434B45 
 11626      545F4449 
 11627              	.LASF155:
 11628 291d 4F535F46 		.ascii	"OS_FN_LED_ON\000"
 11628      4E5F4C45 
 11628      445F4F4E 
 11628      00
 11629              	.LASF26:
 11630 292a 4F535F46 		.ascii	"OS_FN_KBD_UNLOCK\000"
 11630      4E5F4B42 
 11630      445F554E 
 11630      4C4F434B 
 11630      00
 11631              	.LASF607:
 11632 293b 65525342 		.ascii	"eRSBThresh\000"
 11632      54687265 
 11632      736800
 11633              	.LASF862:
 11634 2946 69457850 		.ascii	"iExParamCount\000"
 11634      6172616D 
 11634      436F756E 
 11634      7400
 11635              	.LASF903:
 11636 2954 5570644C 		.ascii	"UpdLogoTbl\000"
 11636      6F676F54 
 11636      626C00
 11637              	.LASF312:
 11638 295f 4F535F46 		.ascii	"OS_FN_TPAD_ALERT_RETURN\000"
 11638      4E5F5450 
 11638      41445F41 
 11638      4C455254 
 11638      5F524554 
 11639              	.LASF784:
 11640 2977 625F7365 		.ascii	"b_sec_settle_redial\000"
 11640      635F7365 
 11640      74746C65 
 11640      5F726564 
 11640      69616C00 
 11641              	.LASF132:
 11642 298b 4F535F46 		.ascii	"OS_FN_KEY_SAVE_TMK_CBC\000"
 11642      4E5F4B45 
 11642      595F5341 
 11642      56455F54 
 11642      4D4B5F43 
ARM GAS  C:\Users\AHMED~1.ELE\AppData\Local\Temp\ccFUpfoi.s 			page 258


 11643              	.LASF88:
 11644 29a2 4F535F46 		.ascii	"OS_FN_COM_DES\000"
 11644      4E5F434F 
 11644      4D5F4445 
 11644      5300
 11645              	.LASF628:
 11646 29b0 70734D65 		.ascii	"psMenuItem\000"
 11646      6E754974 
 11646      656D00
 11647              	.LASF107:
 11648 29bb 4F535F46 		.ascii	"OS_FN_MD4_FINISH\000"
 11648      4E5F4D44 
 11648      345F4649 
 11648      4E495348 
 11648      00
 11649              	.LASF75:
 11650 29cc 4F535F46 		.ascii	"OS_FN_COM3_OPEN\000"
 11650      4E5F434F 
 11650      4D335F4F 
 11650      50454E00 
 11651              	.LASF561:
 11652 29dc 46434F4D 		.ascii	"FCOMMITALLMW\000"
 11652      4D495441 
 11652      4C4C4D57 
 11652      00
 11653              	.LASF262:
 11654 29e9 4F535F46 		.ascii	"OS_FN_FL_COPYB_PGM\000"
 11654      4E5F464C 
 11654      5F434F50 
 11654      59425F50 
 11654      474D00
 11655              	.LASF487:
 11656 29fc 4F535F46 		.ascii	"OS_FN_IMG_SENSOR_SET_MODE\000"
 11656      4E5F494D 
 11656      475F5345 
 11656      4E534F52 
 11656      5F534554 
 11657              	.LASF896:
 11658 2a16 55706454 		.ascii	"UpdTermCfg\000"
 11658      65726D43 
 11658      666700
 11659              	.LASF603:
 11660 2a21 43686B73 		.ascii	"Chksum\000"
 11660      756D00
 11661              	.LASF263:
 11662 2a28 4F535F46 		.ascii	"OS_FN_FL_COPYB_END\000"
 11662      4E5F464C 
 11662      5F434F50 
 11662      59425F45 
 11662      4E4400
 11663              	.LASF67:
 11664 2a3b 4F535F46 		.ascii	"OS_FN_COM2_CLOSE\000"
 11664      4E5F434F 
 11664      4D325F43 
 11664      4C4F5345 
 11664      00
 11665              	.LASF520:
ARM GAS  C:\Users\AHMED~1.ELE\AppData\Local\Temp\ccFUpfoi.s 			page 259


 11666 2a4c 735F7074 		.ascii	"s_ptel\000"
 11666      656C00
 11667              	.LASF586:
 11668 2a53 534D535F 		.ascii	"SMS_ENB_MW\000"
 11668      454E425F 
 11668      4D5700
 11669              	.LASF222:
 11670 2a5e 4F535F46 		.ascii	"OS_FN_MMC_INSERTED\000"
 11670      4E5F4D4D 
 11670      435F494E 
 11670      53455254 
 11670      454400
 11671              	.LASF423:
 11672 2a71 4F535F46 		.ascii	"OS_FN_GPS_RESET\000"
 11672      4E5F4750 
 11672      535F5245 
 11672      53455400 
 11673              	.LASF917:
 11674 2a81 54726169 		.ascii	"TrainingModeON\000"
 11674      6E696E67 
 11674      4D6F6465 
 11674      4F4E00
 11675              	.LASF792:
 11676 2a90 625F7365 		.ascii	"b_settle_mdm_mode\000"
 11676      74746C65 
 11676      5F6D646D 
 11676      5F6D6F64 
 11676      6500
 11677              	.LASF370:
 11678 2aa2 4F535F46 		.ascii	"OS_FN_MIF_OPEN\000"
 11678      4E5F4D49 
 11678      465F4F50 
 11678      454E00
 11679              	.LASF824:
 11680 2ab1 735F696E 		.ascii	"s_input\000"
 11680      70757400 
 11681              	.LASF592:
 11682 2ab9 46545255 		.ascii	"FTRUNCATEMW\000"
 11682      4E434154 
 11682      454D5700 
 11683              	.LASF459:
 11684 2ac5 4F535F46 		.ascii	"OS_FN_GCM_AES_INIT\000"
 11684      4E5F4743 
 11684      4D5F4145 
 11684      535F494E 
 11684      495400
 11685              	.LASF879:
 11686 2ad8 6765745F 		.ascii	"get_mem\000"
 11686      6D656D00 
 11687              	.LASF286:
 11688 2ae0 4F535F46 		.ascii	"OS_FN_BATT_TEMP\000"
 11688      4E5F4241 
 11688      54545F54 
 11688      454D5000 
 11689              	.LASF387:
 11690 2af0 4F535F46 		.ascii	"OS_FN_MIF_TRANSFER\000"
 11690      4E5F4D49 
ARM GAS  C:\Users\AHMED~1.ELE\AppData\Local\Temp\ccFUpfoi.s 			page 260


 11690      465F5452 
 11690      414E5346 
 11690      455200
 11691              	.LASF885:
 11692 2b03 6D656D73 		.ascii	"memset\000"
 11692      657400
 11693              	.LASF916:
 11694 2b0a 44656275 		.ascii	"DebugModeON\000"
 11694      674D6F64 
 11694      654F4E00 
 11695              	.LASF28:
 11696 2b16 4F535F46 		.ascii	"OS_FN_TIMER_CLOSE\000"
 11696      4E5F5449 
 11696      4D45525F 
 11696      434C4F53 
 11696      4500
 11697              	.LASF149:
 11698 2b28 4F535F46 		.ascii	"OS_FN_BUFMAN_SHRINK\000"
 11698      4E5F4255 
 11698      464D414E 
 11698      5F534852 
 11698      494E4B00 
 11699              	.LASF895:
 11700 2b3c 53657452 		.ascii	"SetRTC\000"
 11700      544300
 11701              	.LASF909:
 11702 2b43 43726561 		.ascii	"CreateExParamFiles\000"
 11702      74654578 
 11702      50617261 
 11702      6D46696C 
 11702      657300
 11703              	.LASF753:
 11704 2b56 61706E63 		.ascii	"apnconfig\000"
 11704      6F6E6669 
 11704      6700
 11705              	.LASF276:
 11706 2b60 4F535F46 		.ascii	"OS_FN_MCOM_CLOSE\000"
 11706      4E5F4D43 
 11706      4F4D5F43 
 11706      4C4F5345 
 11706      00
 11707              	.LASF105:
 11708 2b71 4F535F46 		.ascii	"OS_FN_RC4_ENCRYPT\000"
 11708      4E5F5243 
 11708      345F454E 
 11708      43525950 
 11708      5400
 11709              	.LASF399:
 11710 2b83 4F535F46 		.ascii	"OS_FN_BARCODE_ABORT\000"
 11710      4E5F4241 
 11710      52434F44 
 11710      455F4142 
 11710      4F525400 
 11711              	.LASF836:
 11712 2b97 746D706C 		.ascii	"tmplrc\000"
 11712      726300
 11713              	.LASF853:
ARM GAS  C:\Users\AHMED~1.ELE\AppData\Local\Temp\ccFUpfoi.s 			page 261


 11714 2b9e 6163715F 		.ascii	"acq_count\000"
 11714      636F756E 
 11714      7400
 11715              	.LASF396:
 11716 2ba8 4F535F46 		.ascii	"OS_FN_BARCODE_CMD\000"
 11716      4E5F4241 
 11716      52434F44 
 11716      455F434D 
 11716      4400
 11717              	.LASF543:
 11718 2bba 53485554 		.ascii	"SHUTDOWNMW\000"
 11718      444F574E 
 11718      4D5700
 11719              	.LASF881:
 11720 2bc5 53657452 		.ascii	"SetRspCode\000"
 11720      7370436F 
 11720      646500
 11721              	.LASF821:
 11722 2bd0 775F7273 		.ascii	"w_rspcode\000"
 11722      70636F64 
 11722      6500
 11723              	.LASF305:
 11724 2bda 4F535F46 		.ascii	"OS_FN_GPRS_SMS_CONTROL\000"
 11724      4E5F4750 
 11724      52535F53 
 11724      4D535F43 
 11724      4F4E5452 
 11725              	.LASF229:
 11726 2bf1 4F535F46 		.ascii	"OS_FN_LAN_RXRDY\000"
 11726      4E5F4C41 
 11726      4E5F5258 
 11726      52445900 
 11727              	.LASF36:
 11728 2c01 4F535F46 		.ascii	"OS_FN_RTC_SET\000"
 11728      4E5F5254 
 11728      435F5345 
 11728      5400
 11729              	.LASF213:
 11730 2c0f 4F535F46 		.ascii	"OS_FN_MMC_OPEN\000"
 11730      4E5F4D4D 
 11730      435F4F50 
 11730      454E00
 11731              	.LASF900:
 11732 2c1e 736B7062 		.ascii	"skpb\000"
 11732      00
 11733              	.LASF778:
 11734 2c23 625F7365 		.ascii	"b_sec_trans_redial\000"
 11734      635F7472 
 11734      616E735F 
 11734      72656469 
 11734      616C00
 11735              	.LASF860:
 11736 2c36 70734261 		.ascii	"psBatchNo\000"
 11736      7463684E 
 11736      6F00
 11737              	.LASF721:
 11738 2c40 625F6368 		.ascii	"b_checkin_sec_redial\000"
ARM GAS  C:\Users\AHMED~1.ELE\AppData\Local\Temp\ccFUpfoi.s 			page 262


 11738      65636B69 
 11738      6E5F7365 
 11738      635F7265 
 11738      6469616C 
 11739              	.LASF347:
 11740 2c55 4F535F46 		.ascii	"OS_FN_DEVICE_IOCTL\000"
 11740      4E5F4445 
 11740      56494345 
 11740      5F494F43 
 11740      544C00
 11741              	.LASF529:
 11742 2c68 625F6D65 		.ascii	"b_message_qualify_tval\000"
 11742      73736167 
 11742      655F7175 
 11742      616C6966 
 11742      795F7476 
 11743              	.LASF156:
 11744 2c7f 4F535F46 		.ascii	"OS_FN_GET_CHALLENGE\000"
 11744      4E5F4745 
 11744      545F4348 
 11744      414C4C45 
 11744      4E474500 
 11745              	.LASF218:
 11746 2c93 4F535F46 		.ascii	"OS_FN_MMC_BLK_READ\000"
 11746      4E5F4D4D 
 11746      435F424C 
 11746      4B5F5245 
 11746      414400
 11747              	.LASF30:
 11748 2ca6 4F535F46 		.ascii	"OS_FN_TIMER_GET\000"
 11748      4E5F5449 
 11748      4D45525F 
 11748      47455400 
 11749              	.LASF98:
 11750 2cb6 4F535F46 		.ascii	"OS_FN_MD5_INIT\000"
 11750      4E5F4D44 
 11750      355F494E 
 11750      495400
 11751              	.LASF803:
 11752 2cc5 625F666C 		.ascii	"b_flag\000"
 11752      616700
 11753              	.LASF894:
 11754 2ccc 52656164 		.ascii	"ReadRTC\000"
 11754      52544300 
 11755              	.LASF643:
 11756 2cd4 64446576 		.ascii	"dDevice\000"
 11756      69636500 
 11757              	.LASF788:
 11758 2cdc 625F7469 		.ascii	"b_timeout_val\000"
 11758      6D656F75 
 11758      745F7661 
 11758      6C00
 11759              	.LASF886:
 11760 2cea 7379735F 		.ascii	"sys_func1\000"
 11760      66756E63 
 11760      3100
 11761              	.LASF204:
ARM GAS  C:\Users\AHMED~1.ELE\AppData\Local\Temp\ccFUpfoi.s 			page 263


 11762 2cf4 4F535F46 		.ascii	"OS_FN_CONFIG_UPDATE\000"
 11762      4E5F434F 
 11762      4E464947 
 11762      5F555044 
 11762      41544500 
 11763              	.LASF828:
 11764 2d08 73625F74 		.ascii	"sb_txbitmap\000"
 11764      78626974 
 11764      6D617000 
 11765              	.LASF413:
 11766 2d14 4F535F46 		.ascii	"OS_FN_NFC_INFO_GET\000"
 11766      4E5F4E46 
 11766      435F494E 
 11766      464F5F47 
 11766      455400
 11767              	.LASF626:
 11768 2d27 4D454E55 		.ascii	"MENU_DAT\000"
 11768      5F444154 
 11768      00
 11769              	.LASF720:
 11770 2d30 625F6368 		.ascii	"b_checkin_sec_conn_time\000"
 11770      65636B69 
 11770      6E5F7365 
 11770      635F636F 
 11770      6E6E5F74 
 11771              	.LASF754:
 11772 2d48 61706E63 		.ascii	"apnconfig2\000"
 11772      6F6E6669 
 11772      673200
 11773              	.LASF762:
 11774 2d53 625F7061 		.ascii	"b_pan_len\000"
 11774      6E5F6C65 
 11774      6E00
 11775              	.LASF192:
 11776 2d5d 4F535F46 		.ascii	"OS_FN_FILE_GET_SYSTEMINFO\000"
 11776      4E5F4649 
 11776      4C455F47 
 11776      45545F53 
 11776      59535445 
 11777              	.LASF379:
 11778 2d77 4F535F46 		.ascii	"OS_FN_MIF_LOAD_KEY\000"
 11778      4E5F4D49 
 11778      465F4C4F 
 11778      41445F4B 
 11778      455900
 11779              	.LASF101:
 11780 2d8a 4F535F46 		.ascii	"OS_FN_SHA_INIT\000"
 11780      4E5F5348 
 11780      415F494E 
 11780      495400
 11781              	.LASF560:
 11782 2d99 46575249 		.ascii	"FWRITEMW\000"
 11782      54454D57 
 11782      00
 11783              	.LASF650:
 11784 2da2 644C6F67 		.ascii	"dLoginPair\000"
 11784      696E5061 
ARM GAS  C:\Users\AHMED~1.ELE\AppData\Local\Temp\ccFUpfoi.s 			page 264


 11784      697200
 11785              	.LASF818:
 11786 2dad 73625F74 		.ascii	"sb_time\000"
 11786      696D6500 
 11787              	.LASF346:
 11788 2db5 4F535F46 		.ascii	"OS_FN_DEVICE_ALLOC_MEDIA\000"
 11788      4E5F4445 
 11788      56494345 
 11788      5F414C4C 
 11788      4F435F4D 
 11789              	.LASF831:
 11790 2dce 73625F63 		.ascii	"sb_curr\000"
 11790      75727200 
 11791              	.LASF460:
 11792 2dd6 4F535F46 		.ascii	"OS_FN_GCM_AES_PROCESS_AAD\000"
 11792      4E5F4743 
 11792      4D5F4145 
 11792      535F5052 
 11792      4F434553 
 11793              	.LASF368:
 11794 2df0 4F535F46 		.ascii	"OS_FN_TAMPER_GET_STATUS\000"
 11794      4E5F5441 
 11794      4D504552 
 11794      5F474554 
 11794      5F535441 
 11795              	.LASF80:
 11796 2e08 4F535F46 		.ascii	"OS_FN_COM3_SEND\000"
 11796      4E5F434F 
 11796      4D335F53 
 11796      454E4400 
 11797              	.LASF87:
 11798 2e18 4F535F46 		.ascii	"OS_FN_COM_DESKEY\000"
 11798      4E5F434F 
 11798      4D5F4445 
 11798      534B4559 
 11798      00
 11799              	.LASF223:
 11800 2e29 4F535F46 		.ascii	"OS_FN_SLE_OPEN\000"
 11800      4E5F534C 
 11800      455F4F50 
 11800      454E00
 11801              	.LASF125:
 11802 2e38 4F535F46 		.ascii	"OS_FN_KEY_DUKPT_ENCRYPT\000"
 11802      4E5F4B45 
 11802      595F4455 
 11802      4B50545F 
 11802      454E4352 
 11803              	.LASF142:
 11804 2e50 4F535F46 		.ascii	"OS_FN_THREAD_UNLOCK\000"
 11804      4E5F5448 
 11804      52454144 
 11804      5F554E4C 
 11804      4F434B00 
 11805              	.LASF599:
 11806 2e64 4B657949 		.ascii	"KeyIdx\000"
 11806      647800
 11807              	.LASF371:
ARM GAS  C:\Users\AHMED~1.ELE\AppData\Local\Temp\ccFUpfoi.s 			page 265


 11808 2e6b 4F535F46 		.ascii	"OS_FN_MIF_CLOSE\000"
 11808      4E5F4D49 
 11808      465F434C 
 11808      4F534500 
 11809              	.LASF843:
 11810 2e7b 6170705F 		.ascii	"app_cfg\000"
 11810      63666700 
 11811              	.LASF308:
 11812 2e83 4F535F46 		.ascii	"OS_FN_TPAD_CLOSE\000"
 11812      4E5F5450 
 11812      41445F43 
 11812      4C4F5345 
 11812      00
 11813              	.LASF3:
 11814 2e94 73686F72 		.ascii	"short int\000"
 11814      7420696E 
 11814      7400
 11815              	.LASF208:
 11816 2e9e 4F535F46 		.ascii	"OS_FN_SAM_INSERTED\000"
 11816      4E5F5341 
 11816      4D5F494E 
 11816      53455254 
 11816      454400
 11817              	.LASF491:
 11818 2eb1 55534246 		.ascii	"USBFPRT_GENERAL_INFO_IMG_WIDTH\000"
 11818      5052545F 
 11818      47454E45 
 11818      52414C5F 
 11818      494E464F 
 11819              	.LASF330:
 11820 2ed0 4F535F46 		.ascii	"OS_FN_CLICC_LED_STATUS\000"
 11820      4E5F434C 
 11820      4943435F 
 11820      4C45445F 
 11820      53544154 
 11821              	.LASF911:
 11822 2ee7 47657454 		.ascii	"GetTermCfg\000"
 11822      65726D43 
 11822      666700
 11823              	.LASF920:
 11824 2ef2 47657454 		.ascii	"GetTermData\000"
 11824      65726D44 
 11824      61746100 
 11825              	.LASF65:
 11826 2efe 4F535F46 		.ascii	"OS_FN_COM1_SSEND\000"
 11826      4E5F434F 
 11826      4D315F53 
 11826      53454E44 
 11826      00
 11827              	.LASF348:
 11828 2f0f 4F535F46 		.ascii	"OS_FN_DEVICE_SEARCH_INIT\000"
 11828      4E5F4445 
 11828      56494345 
 11828      5F534541 
 11828      5243485F 
 11829              	.LASF283:
 11830 2f28 4F535F46 		.ascii	"OS_FN_MCOM_READ\000"
ARM GAS  C:\Users\AHMED~1.ELE\AppData\Local\Temp\ccFUpfoi.s 			page 266


 11830      4E5F4D43 
 11830      4F4D5F52 
 11830      45414400 
 11831              	.LASF942:
 11832 2f38 74787472 		.ascii	"txtrans\000"
 11832      616E7300 
 11833              	.LASF744:
 11834 2f40 625F6C6F 		.ascii	"b_local_option\000"
 11834      63616C5F 
 11834      6F707469 
 11834      6F6E00
 11835              	.LASF670:
 11836 2f4f 625F696E 		.ascii	"b_init_mode\000"
 11836      69745F6D 
 11836      6F646500 
 11837              	.LASF432:
 11838 2f5b 4F535F46 		.ascii	"OS_FN_FREE_RUN\000"
 11838      4E5F4652 
 11838      45455F52 
 11838      554E00
 11839              	.LASF623:
 11840 2f6a 4D454E55 		.ascii	"MENU_ITEM\000"
 11840      5F495445 
 11840      4D00
 11841              	.LASF653:
 11842 2f74 70734469 		.ascii	"psDialParam\000"
 11842      616C5061 
 11842      72616D00 
 11843              	.LASF292:
 11844 2f80 4F535F46 		.ascii	"OS_FN_GPRS_SIGNAL\000"
 11844      4E5F4750 
 11844      52535F53 
 11844      49474E41 
 11844      4C00
 11845              	.LASF251:
 11846 2f92 4F535F46 		.ascii	"OS_FN_FL_INFO\000"
 11846      4E5F464C 
 11846      5F494E46 
 11846      4F00
 11847              	.LASF892:
 11848 2fa0 47657442 		.ascii	"GetBatchNo\000"
 11848      61746368 
 11848      4E6F00
 11849              	.LASF479:
 11850 2fab 4F535F46 		.ascii	"OS_FN_GPRS_SET_PIN_STATUS\000"
 11850      4E5F4750 
 11850      52535F53 
 11850      45545F50 
 11850      494E5F53 
 11851              	.LASF115:
 11852 2fc5 4F535F46 		.ascii	"OS_FN_SM3_ASCII\000"
 11852      4E5F534D 
 11852      335F4153 
 11852      43494900 
 11853              	.LASF805:
 11854 2fd5 73625F69 		.ascii	"sb_image\000"
 11854      6D616765 
ARM GAS  C:\Users\AHMED~1.ELE\AppData\Local\Temp\ccFUpfoi.s 			page 267


 11854      00
 11855              	.LASF210:
 11856 2fde 4F535F46 		.ascii	"OS_FN_SAM_OFF\000"
 11856      4E5F5341 
 11856      4D5F4F46 
 11856      4600
 11857              	.LASF418:
 11858 2fec 4F535F46 		.ascii	"OS_FN_GPS_OFF\000"
 11858      4E5F4750 
 11858      535F4F46 
 11858      4600
 11859              	.LASF646:
 11860 2ffa 73634150 		.ascii	"scAPN\000"
 11860      4E00
 11861              	.LASF124:
 11862 3000 4F535F46 		.ascii	"OS_FN_KEY_FLUSH\000"
 11862      4E5F4B45 
 11862      595F464C 
 11862      55534800 
 11863              	.LASF114:
 11864 3010 4F535F46 		.ascii	"OS_FN_SM2_GET_MESS\000"
 11864      4E5F534D 
 11864      325F4745 
 11864      545F4D45 
 11864      535300
 11865              	.LASF914:
 11866 3023 4D656E75 		.ascii	"MenuSelect\000"
 11866      53656C65 
 11866      637400
 11867              	.LASF164:
 11868 302e 4F535F46 		.ascii	"OS_FN_REALLOC\000"
 11868      4E5F5245 
 11868      414C4C4F 
 11868      4300
 11869              	.LASF713:
 11870 303c 73625F70 		.ascii	"sb_ppp_ip\000"
 11870      70705F69 
 11870      7000
 11871              	.LASF928:
 11872 3046 496E6354 		.ascii	"IncTrace\000"
 11872      72616365 
 11872      00
 11873              	.LASF377:
 11874 304f 4F535F46 		.ascii	"OS_FN_MIF_ANTICOLL\000"
 11874      4E5F4D49 
 11874      465F414E 
 11874      5449434F 
 11874      4C4C00
 11875              	.LASF782:
 11876 3062 73625F73 		.ascii	"sb_sec_settle_tel\000"
 11876      65635F73 
 11876      6574746C 
 11876      655F7465 
 11876      6C00
 11877              	.LASF414:
 11878 3074 4F535F46 		.ascii	"OS_FN_NFC_INFO_SET\000"
 11878      4E5F4E46 
ARM GAS  C:\Users\AHMED~1.ELE\AppData\Local\Temp\ccFUpfoi.s 			page 268


 11878      435F494E 
 11878      464F5F53 
 11878      455400
 11879              	.LASF504:
 11880 3087 645F7369 		.ascii	"d_size\000"
 11880      7A6500
 11881              	.LASF468:
 11882 308e 4F535F46 		.ascii	"OS_FN_WIFI_SOCKET_SEND_TCP\000"
 11882      4E5F5749 
 11882      46495F53 
 11882      4F434B45 
 11882      545F5345 
 11883              	.LASF581:
 11884 30a9 44495350 		.ascii	"DISP_GETGMW\000"
 11884      5F474554 
 11884      474D5700 
 11885              	.LASF134:
 11886 30b5 4F535F46 		.ascii	"OS_FN_PCI_DSS_GET_KVC\000"
 11886      4E5F5043 
 11886      495F4453 
 11886      535F4745 
 11886      545F4B56 
 11887              	.LASF779:
 11888 30cb 73625F70 		.ascii	"sb_pri_settle_tel\000"
 11888      72695F73 
 11888      6574746C 
 11888      655F7465 
 11888      6C00
 11889              	.LASF471:
 11890 30dd 4F535F46 		.ascii	"OS_FN_WIFI_SOCKET_GET_STATUS\000"
 11890      4E5F5749 
 11890      46495F53 
 11890      4F434B45 
 11890      545F4745 
 11891              	.LASF117:
 11892 30fa 4F535F46 		.ascii	"OS_FN_SM4_SET_KEY\000"
 11892      4E5F534D 
 11892      345F5345 
 11892      545F4B45 
 11892      5900
 11893              	.LASF55:
 11894 310c 4F535F46 		.ascii	"OS_FN_DISP_ICON_SET_SIGNAL_TYPE\000"
 11894      4E5F4449 
 11894      53505F49 
 11894      434F4E5F 
 11894      5345545F 
 11895              	.LASF311:
 11896 312c 4F535F46 		.ascii	"OS_FN_TPAD_CPOS\000"
 11896      4E5F5450 
 11896      41445F43 
 11896      504F5300 
 11897              	.LASF858:
 11898 313c 70735478 		.ascii	"psTxBuf\000"
 11898      42756600 
 11899              	.LASF403:
 11900 3144 4F535F46 		.ascii	"OS_FN_WIFI_SEND_COMMAND\000"
 11900      4E5F5749 
ARM GAS  C:\Users\AHMED~1.ELE\AppData\Local\Temp\ccFUpfoi.s 			page 269


 11900      46495F53 
 11900      454E445F 
 11900      434F4D4D 
 11901              	.LASF899:
 11902 315c 55706449 		.ascii	"UpdIssuerTbl\000"
 11902      73737565 
 11902      7254626C 
 11902      00
 11903              	.LASF559:
 11904 3169 46524541 		.ascii	"FREADMW\000"
 11904      444D5700 
 11905              	.LASF856:
 11906 3171 72657370 		.ascii	"response\000"
 11906      6F6E7365 
 11906      00
 11907              	.LASF807:
 11908 317a 625F6170 		.ascii	"b_app_id\000"
 11908      705F6964 
 11908      00
 11909              	.LASF857:
 11910 3183 74726163 		.ascii	"trace_no\000"
 11910      655F6E6F 
 11910      00
 11911              	.LASF402:
 11912 318c 4F535F46 		.ascii	"OS_FN_WIFI_CONTROL\000"
 11912      4E5F5749 
 11912      46495F43 
 11912      4F4E5452 
 11912      4F4C00
 11913              	.LASF135:
 11914 319f 4F535F46 		.ascii	"OS_FN_PCI_DSS_REGEN_KEY\000"
 11914      4E5F5043 
 11914      495F4453 
 11914      535F5245 
 11914      47454E5F 
 11915              	.LASF79:
 11916 31b7 4F535F46 		.ascii	"OS_FN_COM3_READ\000"
 11916      4E5F434F 
 11916      4D335F52 
 11916      45414400 
 11917              	.LASF633:
 11918 31c7 62416464 		.ascii	"bAdd2ByteLen\000"
 11918      32427974 
 11918      654C656E 
 11918      00
 11919              	.LASF736:
 11920 31d4 73625F6E 		.ascii	"sb_name_loc\000"
 11920      616D655F 
 11920      6C6F6300 
 11921              	.LASF483:
 11922 31e0 4F535F46 		.ascii	"OS_FN_WIFI_GET_REGULATORY_DOMAIN\000"
 11922      4E5F5749 
 11922      46495F47 
 11922      45545F52 
 11922      4547554C 
 11923              	.LASF893:
 11924 3201 6D656D63 		.ascii	"memcpy\000"
ARM GAS  C:\Users\AHMED~1.ELE\AppData\Local\Temp\ccFUpfoi.s 			page 270


 11924      707900
 11925              	.LASF391:
 11926 3208 4F535F46 		.ascii	"OS_FN_MIF_GET\000"
 11926      4E5F4D49 
 11926      465F4745 
 11926      5400
 11927              	.LASF140:
 11928 3216 4F535F46 		.ascii	"OS_FN_THREAD_DELETE\000"
 11928      4E5F5448 
 11928      52454144 
 11928      5F44454C 
 11928      45544500 
 11929              	.LASF921:
 11930 322a 5061636B 		.ascii	"PackInitComm\000"
 11930      496E6974 
 11930      436F6D6D 
 11930      00
 11931              	.LASF162:
 11932 3237 4F535F46 		.ascii	"OS_FN_APP_INFO\000"
 11932      4E5F4150 
 11932      505F494E 
 11932      464F00
 11933              	.LASF609:
 11934 3246 65525342 		.ascii	"eRSBMax\000"
 11934      4D617800 
 11935              	.LASF34:
 11936 324e 4F535F46 		.ascii	"OS_FN_BUZ_STATE\000"
 11936      4E5F4255 
 11936      5A5F5354 
 11936      41544500 
 11937              	.LASF383:
 11938 325e 4F535F46 		.ascii	"OS_FN_MIF_WRITE\000"
 11938      4E5F4D49 
 11938      465F5752 
 11938      49544500 
 11939              	.LASF749:
 11940 326e 61706E5F 		.ascii	"apn_username\000"
 11940      75736572 
 11940      6E616D65 
 11940      00
 11941              	.LASF677:
 11942 327b 625F6173 		.ascii	"b_async_delay\000"
 11942      796E635F 
 11942      64656C61 
 11942      7900
 11943              	.LASF594:
 11944 3289 41505049 		.ascii	"APPINFO_GETMW\000"
 11944      4E464F5F 
 11944      4745544D 
 11944      5700
 11945              	.LASF676:
 11946 3297 625F7365 		.ascii	"b_sec_redial\000"
 11946      635F7265 
 11946      6469616C 
 11946      00
 11947              	.LASF427:
 11948 32a4 4F535F46 		.ascii	"OS_FN_APPDL_WRITE_APP\000"
ARM GAS  C:\Users\AHMED~1.ELE\AppData\Local\Temp\ccFUpfoi.s 			page 271


 11948      4E5F4150 
 11948      50444C5F 
 11948      57524954 
 11948      455F4150 
 11949              	.LASF691:
 11950 32ba 625F7070 		.ascii	"b_ppad_port\000"
 11950      61645F70 
 11950      6F727400 
 11951              	.LASF169:
 11952 32c6 4F535F46 		.ascii	"OS_FN_FILE_CLOSE\000"
 11952      4E5F4649 
 11952      4C455F43 
 11952      4C4F5345 
 11952      00
 11953              	.LASF157:
 11954 32d7 4F535F46 		.ascii	"OS_FN_AUTH\000"
 11954      4E5F4155 
 11954      544800
 11955              	.LASF665:
 11956 32e2 7362436F 		.ascii	"sbContent\000"
 11956      6E74656E 
 11956      7400
 11957              	.LASF228:
 11958 32ec 4F535F46 		.ascii	"OS_FN_LAN_CLOSE\000"
 11958      4E5F4C41 
 11958      4E5F434C 
 11958      4F534500 
 11959              	.LASF933:
 11960 32fc 454D5649 		.ascii	"EMVInit\000"
 11960      6E697400 
 11961              	.LASF870:
 11962 3304 7365745F 		.ascii	"set_pptr\000"
 11962      70707472 
 11962      00
 11963              	.LASF97:
 11964 330d 4F535F46 		.ascii	"OS_FN_SHA1\000"
 11964      4E5F5348 
 11964      413100
 11965              	.LASF27:
 11966 3318 4F535F46 		.ascii	"OS_FN_TIMER_OPEN\000"
 11966      4E5F5449 
 11966      4D45525F 
 11966      4F50454E 
 11966      00
 11967              	.LASF890:
 11968 3329 43726561 		.ascii	"CreateSTISFiles\000"
 11968      74655354 
 11968      49534669 
 11968      6C657300 
 11969              	.LASF215:
 11970 3339 4F535F46 		.ascii	"OS_FN_MMC_BLK_SIZE\000"
 11970      4E5F4D4D 
 11970      435F424C 
 11970      4B5F5349 
 11970      5A4500
 11971              	.LASF68:
 11972 334c 4F535F46 		.ascii	"OS_FN_COM2_RXRDY\000"
ARM GAS  C:\Users\AHMED~1.ELE\AppData\Local\Temp\ccFUpfoi.s 			page 272


 11972      4E5F434F 
 11972      4D325F52 
 11972      58524459 
 11972      00
 11973              	.LASF439:
 11974 335d 4F535F46 		.ascii	"OS_FN_GET_MCLK\000"
 11974      4E5F4745 
 11974      545F4D43 
 11974      4C4B00
 11975              	.LASF571:
 11976 336c 5343484E 		.ascii	"SCHNLSETUPMW\000"
 11976      4C534554 
 11976      55504D57 
 11976      00
 11977              	.LASF849:
 11978 3379 705F6D65 		.ascii	"p_mem\000"
 11978      6D00
 11979              	.LASF273:
 11980 337f 4F535F46 		.ascii	"OS_FN_MDM_STATUS\000"
 11980      4E5F4D44 
 11980      4D5F5354 
 11980      41545553 
 11980      00
 11981              	.LASF15:
 11982 3390 44574F52 		.ascii	"DWORD\000"
 11982      4400
 11983              	.LASF924:
 11984 3396 454D5643 		.ascii	"EMVClrDnloadBuf\000"
 11984      6C72446E 
 11984      6C6F6164 
 11984      42756600 
 11985              	.LASF624:
 11986 33a6 70634465 		.ascii	"pcDesc\000"
 11986      736300
 11987              	.LASF558:
 11988 33ad 46534545 		.ascii	"FSEEKMW\000"
 11988      4B4D5700 
 11989              	.LASF823:
 11990 33b5 625F7265 		.ascii	"b_response\000"
 11990      73706F6E 
 11990      736500
 11991              	.LASF257:
 11992 33c0 4F535F46 		.ascii	"OS_FN_FL_WRITE\000"
 11992      4E5F464C 
 11992      5F575249 
 11992      544500
 11993              	.LASF723:
 11994 33cf 775F6170 		.ascii	"w_app_list_chksum\000"
 11994      705F6C69 
 11994      73745F63 
 11994      686B7375 
 11994      6D00
 11995              	.LASF74:
 11996 33e1 4F535F46 		.ascii	"OS_FN_COM2_SSEND\000"
 11996      4E5F434F 
 11996      4D325F53 
 11996      53454E44 
ARM GAS  C:\Users\AHMED~1.ELE\AppData\Local\Temp\ccFUpfoi.s 			page 273


 11996      00
 11997              	.LASF578:
 11998 33f2 44495350 		.ascii	"DISP_GOTOMW\000"
 11998      5F474F54 
 11998      4F4D5700 
 11999              	.LASF220:
 12000 33fe 4F535F46 		.ascii	"OS_FN_MMC_READ\000"
 12000      4E5F4D4D 
 12000      435F5245 
 12000      414400
 12001              	.LASF751:
 12002 340d 61706E32 		.ascii	"apn2_username\000"
 12002      5F757365 
 12002      726E616D 
 12002      6500
 12003              	.LASF271:
 12004 341b 4F535F46 		.ascii	"OS_FN_MDM_DISC\000"
 12004      4E5F4D44 
 12004      4D5F4449 
 12004      534300
 12005              	.LASF91:
 12006 342a 4F535F46 		.ascii	"OS_FN_NEW_DES2\000"
 12006      4E5F4E45 
 12006      575F4445 
 12006      533200
 12007              	.LASF187:
 12008 3439 4F535F46 		.ascii	"OS_FN_FILE_TRUNCATE\000"
 12008      4E5F4649 
 12008      4C455F54 
 12008      52554E43 
 12008      41544500 
 12009              	.LASF601:
 12010 344d 45787069 		.ascii	"ExpiryDate\000"
 12010      72794461 
 12010      746500
 12011              	.LASF4:
 12012 3458 73686F72 		.ascii	"short unsigned int\000"
 12012      7420756E 
 12012      7369676E 
 12012      65642069 
 12012      6E7400
 12013              	.LASF835:
 12014 346b 65707074 		.ascii	"epptr\000"
 12014      7200
 12015              	.LASF139:
 12016 3471 4F535F46 		.ascii	"OS_FN_THREAD_CREATE\000"
 12016      4E5F5448 
 12016      52454144 
 12016      5F435245 
 12016      41544500 
 12017              	.LASF530:
 12018 3485 625F7761 		.ascii	"b_wait_online_tval\000"
 12018      69745F6F 
 12018      6E6C696E 
 12018      655F7476 
 12018      616C00
 12019              	.LASF492:
ARM GAS  C:\Users\AHMED~1.ELE\AppData\Local\Temp\ccFUpfoi.s 			page 274


 12020 3498 55534246 		.ascii	"USBFPRT_GENERAL_INFO_IMG_HEIGHT\000"
 12020      5052545F 
 12020      47454E45 
 12020      52414C5F 
 12020      494E464F 
 12021              	.LASF781:
 12022 34b8 625F7072 		.ascii	"b_pri_settle_redial\000"
 12022      695F7365 
 12022      74746C65 
 12022      5F726564 
 12022      69616C00 
 12023              	.LASF359:
 12024 34cc 4F535F46 		.ascii	"OS_FN_NETDEV_CLOSE\000"
 12024      4E5F4E45 
 12024      54444556 
 12024      5F434C4F 
 12024      534500
 12025              	.LASF473:
 12026 34df 4F535F46 		.ascii	"OS_FN_IMG_SENSOR_OPEN\000"
 12026      4E5F494D 
 12026      475F5345 
 12026      4E534F52 
 12026      5F4F5045 
 12027              	.LASF64:
 12028 34f5 4F535F46 		.ascii	"OS_FN_COM1_SREAD\000"
 12028      4E5F434F 
 12028      4D315F53 
 12028      52454144 
 12028      00
 12029              	.LASF702:
 12030 3506 73625F65 		.ascii	"sb_emvkey_size\000"
 12030      6D766B65 
 12030      795F7369 
 12030      7A6500
 12031              	.LASF752:
 12032 3515 61706E32 		.ascii	"apn2_password\000"
 12032      5F706173 
 12032      73776F72 
 12032      6400
 12033              	.LASF104:
 12034 3523 4F535F46 		.ascii	"OS_FN_RC4_SETUP\000"
 12034      4E5F5243 
 12034      345F5345 
 12034      54555000 
 12035              	.LASF597:
 12036 3533 4B657953 		.ascii	"KeySize\000"
 12036      697A6500 
 12037              	.LASF92:
 12038 353b 4F535F46 		.ascii	"OS_FN_RSA\000"
 12038      4E5F5253 
 12038      4100
 12039              	.LASF338:
 12040 3545 4F535F46 		.ascii	"OS_FN_USBHOST_RHPORT_STATUS\000"
 12040      4E5F5553 
 12040      42484F53 
 12040      545F5248 
 12040      504F5254 
ARM GAS  C:\Users\AHMED~1.ELE\AppData\Local\Temp\ccFUpfoi.s 			page 275


 12041              	.LASF151:
 12042 3561 4F535F46 		.ascii	"OS_FN_LED_CLOSE\000"
 12042      4E5F4C45 
 12042      445F434C 
 12042      4F534500 
 12043              	.LASF725:
 12044 3571 775F6372 		.ascii	"w_crc\000"
 12044      6300
 12045              	.LASF352:
 12046 3577 4F535F46 		.ascii	"OS_FN_DEVICE_UNMOUNT\000"
 12046      4E5F4445 
 12046      56494345 
 12046      5F554E4D 
 12046      4F554E54 
 12047              	.LASF508:
 12048 358c 625F7373 		.ascii	"b_sslidx\000"
 12048      6C696478 
 12048      00
 12049              	.LASF808:
 12050 3595 625F7365 		.ascii	"b_seq_no\000"
 12050      715F6E6F 
 12050      00
 12051              	.LASF77:
 12052 359e 4F535F46 		.ascii	"OS_FN_COM3_RXRDY\000"
 12052      4E5F434F 
 12052      4D335F52 
 12052      58524459 
 12052      00
 12053              	.LASF735:
 12054 35af 73625F6F 		.ascii	"sb_options\000"
 12054      7074696F 
 12054      6E7300
 12055              	.LASF393:
 12056 35ba 4F535F46 		.ascii	"OS_FN_MIF_INFO_GET\000"
 12056      4E5F4D49 
 12056      465F494E 
 12056      464F5F47 
 12056      455400
 12057              	.LASF809:
 12058 35cd 625F7072 		.ascii	"b_prefix\000"
 12058      65666978 
 12058      00
 12059              	.LASF878:
 12060 35d6 6765745F 		.ascii	"get_word\000"
 12060      776F7264 
 12060      00
 12061              	.LASF250:
 12062 35df 4F535F46 		.ascii	"OS_FN_USBSER_ENABLE\000"
 12062      4E5F5553 
 12062      42534552 
 12062      5F454E41 
 12062      424C4500 
 12063              	.LASF448:
 12064 35f3 4F535F46 		.ascii	"OS_FN_LPT_RESET_COUNT\000"
 12064      4E5F4C50 
 12064      545F5245 
 12064      5345545F 
ARM GAS  C:\Users\AHMED~1.ELE\AppData\Local\Temp\ccFUpfoi.s 			page 276


 12064      434F554E 
 12065              	.LASF394:
 12066 3609 4F535F46 		.ascii	"OS_FN_BARCODE_OPEN\000"
 12066      4E5F4241 
 12066      52434F44 
 12066      455F4F50 
 12066      454E00
 12067              	.LASF365:
 12068 361c 4F535F46 		.ascii	"OS_FN_USBKBD_INKEY\000"
 12068      4E5F5553 
 12068      424B4244 
 12068      5F494E4B 
 12068      455900
 12069              	.LASF636:
 12070 362f 62506F72 		.ascii	"bPort\000"
 12070      7400
 12071              	.LASF431:
 12072 3635 4F535F46 		.ascii	"OS_FN_RESET\000"
 12072      4E5F5245 
 12072      53455400 
 12073              	.LASF562:
 12074 3641 46464C55 		.ascii	"FFLUSHMW\000"
 12074      53484D57 
 12074      00
 12075              	.LASF293:
 12076 364a 4F535F46 		.ascii	"OS_FN_GPRS_STATUS\000"
 12076      4E5F4750 
 12076      52535F53 
 12076      54415455 
 12076      5300
 12077              	.LASF617:
 12078 365c 62596561 		.ascii	"bYear\000"
 12078      7200
 12079              	.LASF637:
 12080 3662 73417578 		.ascii	"sAuxCfg\000"
 12080      43666700 
 12081              	.LASF687:
 12082 366a 625F7265 		.ascii	"b_return_timeout\000"
 12082      7475726E 
 12082      5F74696D 
 12082      656F7574 
 12082      00
 12083              	.LASF627:
 12084 367b 73634865 		.ascii	"scHeader\000"
 12084      61646572 
 12084      00
 12085              	.LASF83:
 12086 3684 4F535F46 		.ascii	"OS_FN_COM3_SSEND\000"
 12086      4E5F434F 
 12086      4D335F53 
 12086      53454E44 
 12086      00
 12087              	.LASF668:
 12088 3695 625F6469 		.ascii	"b_disp_contrast\000"
 12088      73705F63 
 12088      6F6E7472 
 12088      61737400 
ARM GAS  C:\Users\AHMED~1.ELE\AppData\Local\Temp\ccFUpfoi.s 			page 277


 12089              	.LASF800:
 12090 36a5 73625F68 		.ascii	"sb_host_tx_code\000"
 12090      6F73745F 
 12090      74785F63 
 12090      6F646500 
 12091              	.LASF411:
 12092 36b5 4F535F46 		.ascii	"OS_FN_NFC_CLOSE\000"
 12092      4E5F4E46 
 12092      435F434C 
 12092      4F534500 
 12093              	.LASF632:
 12094 36c5 54435053 		.ascii	"TCPSREG\000"
 12094      52454700 
 12095              	.LASF511:
 12096 36cd 625F6B65 		.ascii	"b_keyidx\000"
 12096      79696478 
 12096      00
 12097              	.LASF811:
 12098 36d6 494E5055 		.ascii	"INPUT_DATA\000"
 12098      545F4441 
 12098      544100
 12099              	.LASF291:
 12100 36e1 4F535F46 		.ascii	"OS_FN_ADC_CH_READ\000"
 12100      4E5F4144 
 12100      435F4348 
 12100      5F524541 
 12100      4400
 12101              	.LASF269:
 12102 36f3 4F535F46 		.ascii	"OS_FN_MDM_CLOSE\000"
 12102      4E5F4D44 
 12102      4D5F434C 
 12102      4F534500 
 12103              	.LASF769:
 12104 3703 73625F66 		.ascii	"sb_floor_limit\000"
 12104      6C6F6F72 
 12104      5F6C696D 
 12104      697400
 12105              	.LASF575:
 12106 3712 44495350 		.ascii	"DISP_PUTNMW\000"
 12106      5F505554 
 12106      4E4D5700 
 12107              	.LASF444:
 12108 371e 4F535F46 		.ascii	"OS_FN_DMK_INJECT\000"
 12108      4E5F444D 
 12108      4B5F494E 
 12108      4A454354 
 12108      00
 12109              	.LASF602:
 12110 372f 45666665 		.ascii	"EffectDate\000"
 12110      63744461 
 12110      746500
 12111              	.LASF546:
 12112 373a 52454144 		.ascii	"READMW\000"
 12112      4D5700
 12113              	.LASF32:
 12114 3741 4F535F46 		.ascii	"OS_FN_BUZ_CLOSE\000"
 12114      4E5F4255 
ARM GAS  C:\Users\AHMED~1.ELE\AppData\Local\Temp\ccFUpfoi.s 			page 278


 12114      5A5F434C 
 12114      4F534500 
 12115              	.LASF173:
 12116 3751 4F535F46 		.ascii	"OS_FN_FILE_FLUSHED\000"
 12116      4E5F4649 
 12116      4C455F46 
 12116      4C555348 
 12116      454400
 12117              	.LASF499:
 12118 3764 625F7273 		.ascii	"b_rsp_gap\000"
 12118      705F6761 
 12118      7000
 12119              	.LASF47:
 12120 376e 4F535F46 		.ascii	"OS_FN_DISP_GET_LCD_BUFFER\000"
 12120      4E5F4449 
 12120      53505F47 
 12120      45545F4C 
 12120      43445F42 
 12121              	.LASF322:
 12122 3788 4F535F46 		.ascii	"OS_FN_CLICC_POLL\000"
 12122      4E5F434C 
 12122      4943435F 
 12122      504F4C4C 
 12122      00
 12123              	.LASF73:
 12124 3799 4F535F46 		.ascii	"OS_FN_COM2_SREAD\000"
 12124      4E5F434F 
 12124      4D325F53 
 12124      52454144 
 12124      00
 12125              	.LASF669:
 12126 37aa 73625F74 		.ascii	"sb_term_id\000"
 12126      65726D5F 
 12126      696400
 12127              	.LASF521:
 12128 37b5 625F7063 		.ascii	"b_pconn_limit\000"
 12128      6F6E6E5F 
 12128      6C696D69 
 12128      7400
 12129              	.LASF608:
 12130 37c3 65525354 		.ascii	"eRSTarget\000"
 12130      61726765 
 12130      7400
 12131              	.LASF376:
 12132 37cd 4F535F46 		.ascii	"OS_FN_MIF_STATUS\000"
 12132      4E5F4D49 
 12132      465F5354 
 12132      41545553 
 12132      00
 12133              	.LASF535:
 12134 37de 705F6578 		.ascii	"p_expect\000"
 12134      70656374 
 12134      00
 12135              	.LASF652:
 12136 37e7 64446961 		.ascii	"dDialupPair\000"
 12136      6C757050 
 12136      61697200 
ARM GAS  C:\Users\AHMED~1.ELE\AppData\Local\Temp\ccFUpfoi.s 			page 279


 12137              	.LASF334:
 12138 37f3 4F535F46 		.ascii	"OS_FN_USBHOST_SUBMIT_BUFFER\000"
 12138      4E5F5553 
 12138      42484F53 
 12138      545F5355 
 12138      424D4954 
 12139              	.LASF604:
 12140 380f 4B45595F 		.ascii	"KEY_ROOM\000"
 12140      524F4F4D 
 12140      00
 12141              	.LASF203:
 12142 3818 4F535F46 		.ascii	"OS_FN_CONFIG_WRITE\000"
 12142      4E5F434F 
 12142      4E464947 
 12142      5F575249 
 12142      544500
 12143              	.LASF930:
 12144 382b 47657441 		.ascii	"GetAcqTbl\000"
 12144      63715462 
 12144      6C00
 12145              	.LASF335:
 12146 3835 4F535F46 		.ascii	"OS_FN_USBHOST_UNLINK_BUFFER\000"
 12146      4E5F5553 
 12146      42484F53 
 12146      545F554E 
 12146      4C494E4B 
 12147              	.LASF740:
 12148 3851 625F6465 		.ascii	"b_decimal_pos\000"
 12148      63696D61 
 12148      6C5F706F 
 12148      7300
 12149              		.ident	"GCC: (GNU Tools for ARM Embedded Processors) 4.9.3 20141119 (release) [ARM/embedded-4_9-br
ARM GAS  C:\Users\AHMED~1.ELE\AppData\Local\Temp\ccFUpfoi.s 			page 280


DEFINED SYMBOLS
                            *ABS*:00000000 inittran.c
C:\Users\AHMED~1.ELE\AppData\Local\Temp\ccFUpfoi.s:19     .text.PackHostMsg:00000000 $t
C:\Users\AHMED~1.ELE\AppData\Local\Temp\ccFUpfoi.s:24     .text.PackHostMsg:00000000 PackHostMsg
C:\Users\AHMED~1.ELE\AppData\Local\Temp\ccFUpfoi.s:302    .text.PackHostMsg:00000178 $d
C:\Users\AHMED~1.ELE\AppData\Local\Temp\ccFUpfoi.s:314    .text.CheckHostRsp:00000000 $t
C:\Users\AHMED~1.ELE\AppData\Local\Temp\ccFUpfoi.s:319    .text.CheckHostRsp:00000000 CheckHostRsp
C:\Users\AHMED~1.ELE\AppData\Local\Temp\ccFUpfoi.s:766    .text.CheckHostRsp:0000027c $d
C:\Users\AHMED~1.ELE\AppData\Local\Temp\ccFUpfoi.s:787    .text.CheckHostRsp:000002cc $t
C:\Users\AHMED~1.ELE\AppData\Local\Temp\ccFUpfoi.s:820    .text.CheckHostRsp:000002f4 $d
C:\Users\AHMED~1.ELE\AppData\Local\Temp\ccFUpfoi.s:833    .text.CheckHostRsp:0000031c $t
C:\Users\AHMED~1.ELE\AppData\Local\Temp\ccFUpfoi.s:1380   .text.CheckHostRsp:000006a0 $d
C:\Users\AHMED~1.ELE\AppData\Local\Temp\ccFUpfoi.s:1385   .text.CheckHostRsp:000006ac $t
C:\Users\AHMED~1.ELE\AppData\Local\Temp\ccFUpfoi.s:1566   .text.CheckHostRsp:000007a4 $d
C:\Users\AHMED~1.ELE\AppData\Local\Temp\ccFUpfoi.s:1574   .text.InitTrans:00000000 $t
C:\Users\AHMED~1.ELE\AppData\Local\Temp\ccFUpfoi.s:1579   .text.InitTrans:00000000 InitTrans
C:\Users\AHMED~1.ELE\AppData\Local\Temp\ccFUpfoi.s:1938   .text.InitTrans:000001fc $d
C:\Users\AHMED~1.ELE\AppData\Local\Temp\ccFUpfoi.s:1952   .rodata:00000000 KInitMenu
C:\Users\AHMED~1.ELE\AppData\Local\Temp\ccFUpfoi.s:1959   .rodata:0000001c KInitItem
C:\Users\AHMED~1.ELE\AppData\Local\Temp\ccFUpfoi.s:1948   .rodata:00000000 $d
C:\Users\AHMED~1.ELE\AppData\Local\Temp\ccFUpfoi.s:1990   .bss:00000000 $d
C:\Users\AHMED~1.ELE\AppData\Local\Temp\ccFUpfoi.s:1994   .bss:00000000 psTxBuf
C:\Users\AHMED~1.ELE\AppData\Local\Temp\ccFUpfoi.s:1998   .bss:00000004 psRxBuf
C:\Users\AHMED~1.ELE\AppData\Local\Temp\ccFUpfoi.s:2002   .bss:00000008 psBatchNo
C:\Users\AHMED~1.ELE\AppData\Local\Temp\ccFUpfoi.s:2006   .bss:0000000c iSaveAcqCount
C:\Users\AHMED~1.ELE\AppData\Local\Temp\ccFUpfoi.s:2010   .bss:00000010 iExParamCount
                     .debug_frame:00000010 $d

UNDEFINED SYMBOLS
set_pptr
inc_pptr
pack_byte
get_pptr
pack_mem
pack_null
pack_word
lrc
get_distance
gCommParam
gsTransData
KTransBitmap
KSoftName
get_word
get_mem
get_byte
SetRspCode
memcmp
peek_byte
bcd2bin
memset
sys_func1
GetAcqCount
lib_app_call
CloseSTISFiles
CreateSTISFiles
SetSTISMode
GetBatchNo
ARM GAS  C:\Users\AHMED~1.ELE\AppData\Local\Temp\ccFUpfoi.s 			page 281


memcpy
ReadRTC
SetRTC
UpdTermCfg
GetCardCount
UpdCardTbl
UpdIssuerTbl
skpb
UpdAcqTbl
UpdDescTbl
UpdLogoTbl
DWGet
EMVData2DnloadBuf
WGet
SetEMVLoaded
CloseExParamFiles
CreateExParamFiles
UpdExtraParam
GetTermCfg
SetDTG
GetSTISMode
MenuSelect
DispHeader
DebugModeON
TrainingModeON
TransEnd
Delay1Sec
GetTermData
PackInitComm
ClearResponse
ConnectOK
EMVClrDnloadBuf
MemFatalErr
GetTrace
SendRcvd
IncTrace
STISInit
GetAcqTbl
Disp2x16Msg
EMVDataUpdate
EMVInit
EMVKillDnloadBuf
ResetComm
BatSysInit
KProcessing
