ARM GAS  C:\Users\AHMED~1.ELE\AppData\Local\Temp\ccFUpfoi.s 			page 1


   1              		.syntax unified
   2              		.cpu cortex-a5
   3              		.fpu softvfp
   4              		.eabi_attribute 20, 1
   5              		.eabi_attribute 21, 1
   6              		.eabi_attribute 23, 3
   7              		.eabi_attribute 24, 1
   8              		.eabi_attribute 25, 1
   9              		.eabi_attribute 26, 1
  10              		.eabi_attribute 30, 4
  11              		.eabi_attribute 34, 0
  12              		.eabi_attribute 18, 4
  13              		.thumb
  14              		.file	"inittran.c"
  15              		.text
  16              	.Ltext0:
  17              		.cfi_sections	.debug_frame
  18              		.section	.text.PackHostMsg,"ax",%progbits
  19              		.align	1
  20              		.global	PackHostMsg
  21              		.thumb
  22              		.thumb_func
  23              		.type	PackHostMsg, %function
  24              	PackHostMsg:
  25              	.LFB0:
  26              		.file 1 "src/inittran.c"
   1:src/inittran.c **** //-----------------------------------------------------------------------------
   2:src/inittran.c **** //  File          : InitTran.c
   3:src/inittran.c **** //  Module        :
   4:src/inittran.c **** //  Description   : STIS Init Transactions..
   5:src/inittran.c **** //  Author        : Lewis
   6:src/inittran.c **** //  Notes         :
   7:src/inittran.c **** //
   8:src/inittran.c **** // ============================================================================
   9:src/inittran.c **** // | Naming conventions                                                       |
  10:src/inittran.c **** // | ~~~~~~~~~~~~~~~~~~                                                       |
  11:src/inittran.c **** // |         Struct/Array : Leading s                                         |
  12:src/inittran.c **** // |             Constant : Leading K                                         |
  13:src/inittran.c **** // |      Global Variable : Leading g  (variable use outside one C file)      |
  14:src/inittran.c **** // |                                                                          |
  15:src/inittran.c **** // |   BYTE( 8 Bits) size : Leading b                                         |
  16:src/inittran.c **** // |   CHAR( 8 Bits) size : Leading c                                         |
  17:src/inittran.c **** // |   WORD(16 Bits) size : Leading w                                         |
  18:src/inittran.c **** // |  DWORD(32 Bits) size : Leading d                                         |
  19:src/inittran.c **** // |    int(32 Bits) size : Leading i                                         |
  20:src/inittran.c **** // | DDWORD(64 Bits) size : Leading dd                                        |
  21:src/inittran.c **** // |              Pointer : Leading p                                         |
  22:src/inittran.c **** // |                                                                          |
  23:src/inittran.c **** // |    Function argument : Leading a                                         |
  24:src/inittran.c **** // |       Local Variable : All lower case                                    |
  25:src/inittran.c **** // |                                                                          |
  26:src/inittran.c **** // | Examples:                                                                |
  27:src/inittran.c **** // |                Array : Leading s, (sb = arrary of byte, etc)             |
  28:src/inittran.c **** // |              Pointer : Leading p, (pb = pointer of byte, etc)            |
  29:src/inittran.c **** // ============================================================================
  30:src/inittran.c **** //
  31:src/inittran.c **** //  Date          Who         Action
ARM GAS  C:\Users\AHMED~1.ELE\AppData\Local\Temp\ccFUpfoi.s 			page 2


  32:src/inittran.c **** //  ------------  ----------- -------------------------------------------------
  33:src/inittran.c **** //  29 Sept 2008  Lewis       Initial Version.
  34:src/inittran.c **** //-----------------------------------------------------------------------------
  35:src/inittran.c **** #include "midware.h"
  36:src/inittran.c **** #include "emv2dll.h"
  37:src/inittran.c **** #include "util.h"
  38:src/inittran.c **** #include "sysutil.h"
  39:src/inittran.c **** #include "menu.h"
  40:src/inittran.c **** #include "termdata.h"
  41:src/inittran.c **** #include "stis.h"
  42:src/inittran.c **** #include "tranutil.h"
  43:src/inittran.c **** #include "comm.h"
  44:src/inittran.c **** #include "constant.h"
  45:src/inittran.c **** #include "emvtrans.h"
  46:src/inittran.c **** #include "batchsys.h"
  47:src/inittran.c **** #include "coremain.h"
  48:src/inittran.c **** #include "message.h"
  49:src/inittran.c **** #include "inittran.h"
  50:src/inittran.c **** 
  51:src/inittran.c **** //-----------------------------------------------------------------------------
  52:src/inittran.c **** //      Defines
  53:src/inittran.c **** //-----------------------------------------------------------------------------
  54:src/inittran.c **** 
  55:src/inittran.c **** //-----------------------------------------------------------------------------
  56:src/inittran.c **** //    Global Variables
  57:src/inittran.c **** //-----------------------------------------------------------------------------
  58:src/inittran.c **** static struct COMMBUF *psTxBuf;
  59:src/inittran.c **** static struct COMMBUF *psRxBuf;
  60:src/inittran.c **** struct BATCH_NO {
  61:src/inittran.c ****   BYTE sb_curr[3];
  62:src/inittran.c ****   BYTE sb_next[3];
  63:src/inittran.c **** };
  64:src/inittran.c **** static struct BATCH_NO *psBatchNo=NULL;
  65:src/inittran.c **** static int    iSaveAcqCount=0;
  66:src/inittran.c **** static int    iExParamCount=0;
  67:src/inittran.c **** 
  68:src/inittran.c **** //-----------------------------------------------------------------------------
  69:src/inittran.c **** //    Constants
  70:src/inittran.c **** //-----------------------------------------------------------------------------
  71:src/inittran.c **** // Default Init Selection Menu
  72:src/inittran.c **** const struct MENU_ITEM KInitItem [] =
  73:src/inittran.c **** {
  74:src/inittran.c ****   {  MODE_ALL_PARAM,       "All Parameters"},
  75:src/inittran.c ****   {  MODE_EMV_PARAM_ONLY,  "EMV Param Only"},
  76:src/inittran.c ****   {  MODE_EMV_KEY_ONLY,    "EMV Keys Only"},
  77:src/inittran.c ****   {  MODE_EMV_PARAM_KEY,   "EMV Param & Key"},
  78:src/inittran.c ****   {  MODE_EXTRA_PARAM,     "Extra Parameters"},
  79:src/inittran.c ****   { -1, NULL},
  80:src/inittran.c **** };
  81:src/inittran.c **** 
  82:src/inittran.c **** const struct MENU_DAT KInitMenu  = {
  83:src/inittran.c ****   "STIS Init.",
  84:src/inittran.c ****   KInitItem,
  85:src/inittran.c **** };
  86:src/inittran.c **** 
  87:src/inittran.c **** //*****************************************************************************
  88:src/inittran.c **** //  Function        : PackHostMsg
ARM GAS  C:\Users\AHMED~1.ELE\AppData\Local\Temp\ccFUpfoi.s 			page 3


  89:src/inittran.c **** //  Description     : Pack Host Message Base on global input.
  90:src/inittran.c **** //  Input           : N/A
  91:src/inittran.c **** //  Return          : N/A
  92:src/inittran.c **** //  Note            : N/A
  93:src/inittran.c **** //  Globals Changed : N/A
  94:src/inittran.c **** //*****************************************************************************
  95:src/inittran.c **** void PackHostMsg(void)
  96:src/inittran.c **** {
  27              		.loc 1 96 0
  28              		.cfi_startproc
  29              		@ args = 0, pretend = 0, frame = 8
  30              		@ frame_needed = 0, uses_anonymous_args = 0
  31              	.LVL0:
  32 0000 2DE9F74F 		push	{r0, r1, r2, r4, r5, r6, r7, r8, r9, r10, fp, lr}
  33              		.cfi_def_cfa_offset 48
  34              		.cfi_offset 4, -36
  35              		.cfi_offset 5, -32
  36              		.cfi_offset 6, -28
  37              		.cfi_offset 7, -24
  38              		.cfi_offset 8, -20
  39              		.cfi_offset 9, -16
  40              		.cfi_offset 10, -12
  41              		.cfi_offset 11, -8
  42              		.cfi_offset 14, -4
  97:src/inittran.c ****   BYTE txtrans;
  98:src/inittran.c ****   BYTE tx_bitmap[8];
  99:src/inittran.c ****   BYTE *spptr = NULL;
 100:src/inittran.c ****   BYTE *epptr;
 101:src/inittran.c ****   BYTE tmplrc;
 102:src/inittran.c ****   WORD tmplen;
 103:src/inittran.c **** 
 104:src/inittran.c ****   // set pointer
 105:src/inittran.c ****   set_pptr(psTxBuf->sbContent, COMMBUF_SIZE);
  43              		.loc 1 105 0
  44 0004 5C4E     		ldr	r6, .L37
 106:src/inittran.c **** 
 107:src/inittran.c ****   // reserve for 2 bytes len
 108:src/inittran.c ****   if (((gCommParam.bCommMode==APM_COMM_GPRS)||(gCommParam.bCommMode == APM_COMM_TCPIP)||(gCommParam
  45              		.loc 1 108 0
  46 0006 5D4C     		ldr	r4, .L37+4
 105:src/inittran.c **** 
  47              		.loc 1 105 0
  48 0008 3068     		ldr	r0, [r6]
  49 000a 4FF44061 		mov	r1, #3072
  50 000e 0230     		adds	r0, r0, #2
  51 0010 FFF7FEFF 		bl	set_pptr
  52              	.LVL1:
  53              		.loc 1 108 0
  54 0014 A378     		ldrb	r3, [r4, #2]	@ zero_extendqisi2
  55 0016 9A1E     		subs	r2, r3, #2
  56 0018 012A     		cmp	r2, #1
  57 001a 02D9     		bls	.L2
  58              		.loc 1 108 0 is_stmt 0 discriminator 2
  59 001c 053B     		subs	r3, r3, #5
  60 001e 012B     		cmp	r3, #1
  61 0020 05D8     		bhi	.L3
  62              	.L2:
ARM GAS  C:\Users\AHMED~1.ELE\AppData\Local\Temp\ccFUpfoi.s 			page 4


  63              		.loc 1 108 0 discriminator 5
  64 0022 94F86530 		ldrb	r3, [r4, #101]	@ zero_extendqisi2
  65 0026 13B1     		cbz	r3, .L3
 109:src/inittran.c ****       (gCommParam.sTcp.bAdd2ByteLen)) {
 110:src/inittran.c ****     inc_pptr(2);
  66              		.loc 1 110 0 is_stmt 1
  67 0028 0220     		movs	r0, #2
  68 002a FFF7FEFF 		bl	inc_pptr
  69              	.LVL2:
  70              	.L3:
 111:src/inittran.c ****   }
 112:src/inittran.c **** 
 113:src/inittran.c ****   // STX LEN or TPDU
 114:src/inittran.c ****   if (gCommParam.bCommMode == APM_COMM_ASYNC) {  // pack stx & len
  71              		.loc 1 114 0
  72 002e A378     		ldrb	r3, [r4, #2]	@ zero_extendqisi2
  73 0030 012B     		cmp	r3, #1
  74 0032 0CD1     		bne	.L4
 115:src/inittran.c ****     pack_byte(0x02);
  75              		.loc 1 115 0
  76 0034 0220     		movs	r0, #2
  77 0036 FFF7FEFF 		bl	pack_byte
  78              	.LVL3:
 116:src/inittran.c ****     pack_byte(0x00);
  79              		.loc 1 116 0
  80 003a 0020     		movs	r0, #0
  81 003c FFF7FEFF 		bl	pack_byte
  82              	.LVL4:
 117:src/inittran.c ****     pack_byte(0x00);
  83              		.loc 1 117 0
  84 0040 0020     		movs	r0, #0
  85 0042 FFF7FEFF 		bl	pack_byte
  86              	.LVL5:
 118:src/inittran.c ****     spptr = get_pptr();
  87              		.loc 1 118 0
  88 0046 FFF7FEFF 		bl	get_pptr
  89              	.LVL6:
  90 004a 0746     		mov	r7, r0
  91              	.LVL7:
  92 004c 0AE0     		b	.L5
  93              	.LVL8:
  94              	.L4:
 119:src/inittran.c ****   }
 120:src/inittran.c ****   else {
 121:src/inittran.c ****     pack_byte(0x60); // TPDU header
  95              		.loc 1 121 0
  96 004e 6020     		movs	r0, #96
  97 0050 FFF7FEFF 		bl	pack_byte
  98              	.LVL9:
 122:src/inittran.c ****     pack_mem(gsTransData.s_input.sb_nii, 2);
  99              		.loc 1 122 0
 100 0054 4A48     		ldr	r0, .L37+8
 101 0056 0221     		movs	r1, #2
 102 0058 FFF7FEFF 		bl	pack_mem
 103              	.LVL10:
 123:src/inittran.c ****     pack_null(2);
 104              		.loc 1 123 0
ARM GAS  C:\Users\AHMED~1.ELE\AppData\Local\Temp\ccFUpfoi.s 			page 5


 105 005c 0220     		movs	r0, #2
 106 005e FFF7FEFF 		bl	pack_null
 107              	.LVL11:
  99:src/inittran.c ****   BYTE *epptr;
 108              		.loc 1 99 0
 109 0062 0027     		movs	r7, #0
 110              	.LVL12:
 111              	.L5:
 124:src/inittran.c ****   }
 125:src/inittran.c **** 
 126:src/inittran.c ****   // msg type id, bit map
 127:src/inittran.c ****   pack_word(KTransBitmap[txtrans=gsTransData.s_input.b_trans].w_txmsg_id);
 112              		.loc 1 127 0
 113 0064 474D     		ldr	r5, .L37+12
 114 0066 0C23     		movs	r3, #12
 115 0068 2A79     		ldrb	r2, [r5, #4]	@ zero_extendqisi2
 116 006a 4749     		ldr	r1, .L37+16
 117 006c 5343     		muls	r3, r2, r3
 118 006e 01EB0309 		add	r9, r1, r3
 119 0072 C85A     		ldrh	r0, [r1, r3]
 128:src/inittran.c ****   pack_mem((BYTE *)KTransBitmap[txtrans].sb_txbitmap, 8);
 120              		.loc 1 128 0
 121 0074 09F10208 		add	r8, r9, #2
 127:src/inittran.c ****   pack_mem((BYTE *)KTransBitmap[txtrans].sb_txbitmap, 8);
 122              		.loc 1 127 0
 123 0078 FFF7FEFF 		bl	pack_word
 124              	.LVL13:
 125              		.loc 1 128 0
 126 007c 4046     		mov	r0, r8
 127 007e 0821     		movs	r1, #8
 128 0080 FFF7FEFF 		bl	pack_mem
 129              	.LVL14:
 129:src/inittran.c ****   memcpy(tx_bitmap, KTransBitmap[txtrans].sb_txbitmap, 8);
 130              		.loc 1 129 0
 131 0084 99F80730 		ldrb	r3, [r9, #7]	@ zero_extendqisi2
 132 0088 99F803B0 		ldrb	fp, [r9, #3]	@ zero_extendqisi2
 133              	.LVL15:
 134 008c 0193     		str	r3, [sp, #4]
 130:src/inittran.c **** 
 131:src/inittran.c ****   // 03. processing code
 132:src/inittran.c ****   if ((tx_bitmap[0] & 0x20) != 0) {
 135              		.loc 1 132 0
 136 008e 99F80230 		ldrb	r3, [r9, #2]	@ zero_extendqisi2
 129:src/inittran.c ****   memcpy(tx_bitmap, KTransBitmap[txtrans].sb_txbitmap, 8);
 137              		.loc 1 129 0
 138 0092 99F804A0 		ldrb	r10, [r9, #4]	@ zero_extendqisi2
 139              	.LVL16:
 140              		.loc 1 132 0
 141 0096 9A06     		lsls	r2, r3, #26
 129:src/inittran.c ****   memcpy(tx_bitmap, KTransBitmap[txtrans].sb_txbitmap, 8);
 142              		.loc 1 129 0
 143 0098 99F80980 		ldrb	r8, [r9, #9]	@ zero_extendqisi2
 144              	.LVL17:
 145              		.loc 1 132 0
 146 009c 0DD5     		bpl	.L6
 133:src/inittran.c ****     pack_byte(KTransBitmap[txtrans].b_proc_code);
 147              		.loc 1 133 0
ARM GAS  C:\Users\AHMED~1.ELE\AppData\Local\Temp\ccFUpfoi.s 			page 6


 148 009e 99F80A00 		ldrb	r0, [r9, #10]	@ zero_extendqisi2
 149 00a2 FFF7FEFF 		bl	pack_byte
 150              	.LVL18:
 134:src/inittran.c ****     if (gsTransData.s_input.b_trans==EDC_INIT)
 151              		.loc 1 134 0
 152 00a6 2B79     		ldrb	r3, [r5, #4]	@ zero_extendqisi2
 153 00a8 0BB9     		cbnz	r3, .L7
 135:src/inittran.c ****       pack_byte(gsTransData.s_input.b_stis_init_mode);
 154              		.loc 1 135 0
 155 00aa 6879     		ldrb	r0, [r5, #5]	@ zero_extendqisi2
 156 00ac 00E0     		b	.L35
 157              	.L7:
 136:src/inittran.c ****     else
 137:src/inittran.c ****       pack_byte(0x00);
 158              		.loc 1 137 0
 159 00ae 0020     		movs	r0, #0
 160              	.L35:
 161 00b0 FFF7FEFF 		bl	pack_byte
 162              	.LVL19:
 138:src/inittran.c ****     pack_byte(gsTransData.s_input.b_proc_code2);
 163              		.loc 1 138 0
 164 00b4 A879     		ldrb	r0, [r5, #6]	@ zero_extendqisi2
 165 00b6 FFF7FEFF 		bl	pack_byte
 166              	.LVL20:
 167              	.L6:
 139:src/inittran.c ****   }
 140:src/inittran.c **** 
 141:src/inittran.c ****   // 11. systems trace audit number
 142:src/inittran.c ****   if ((tx_bitmap[1] & 0x20) != 0) {
 168              		.loc 1 142 0
 169 00ba 1BF0200F 		tst	fp, #32
 170 00be 03D0     		beq	.L9
 143:src/inittran.c ****     pack_mem(gsTransData.s_input.sb_trace_no, 3);
 171              		.loc 1 143 0
 172 00c0 3248     		ldr	r0, .L37+20
 173 00c2 0321     		movs	r1, #3
 174 00c4 FFF7FEFF 		bl	pack_mem
 175              	.LVL21:
 176              	.L9:
 144:src/inittran.c ****   }
 145:src/inittran.c **** 
 146:src/inittran.c ****   // 24. network international identifier
 147:src/inittran.c ****   if ((tx_bitmap[2] & 0x01) != 0){
 177              		.loc 1 147 0
 178 00c8 1AF0010F 		tst	r10, #1
 179 00cc 03D0     		beq	.L10
 148:src/inittran.c ****     pack_mem(gsTransData.s_input.sb_nii, 2);
 180              		.loc 1 148 0
 181 00ce 2C48     		ldr	r0, .L37+8
 182 00d0 0221     		movs	r1, #2
 183 00d2 FFF7FEFF 		bl	pack_mem
 184              	.LVL22:
 185              	.L10:
 149:src/inittran.c ****   }
 150:src/inittran.c **** 
 151:src/inittran.c ****   // 41. terminal identification
 152:src/inittran.c ****   if ((tx_bitmap[5] & 0x80) != 0) {
ARM GAS  C:\Users\AHMED~1.ELE\AppData\Local\Temp\ccFUpfoi.s 			page 7


 186              		.loc 1 152 0
 187 00d6 019B     		ldr	r3, [sp, #4]
 188 00d8 1B06     		lsls	r3, r3, #24
 189 00da 03D5     		bpl	.L11
 153:src/inittran.c ****     pack_mem(gsTransData.s_input.sb_term_id, 8);
 190              		.loc 1 153 0
 191 00dc 2C48     		ldr	r0, .L37+24
 192 00de 0821     		movs	r1, #8
 193 00e0 FFF7FEFF 		bl	pack_mem
 194              	.LVL23:
 195              	.L11:
 154:src/inittran.c ****   }
 155:src/inittran.c **** 
 156:src/inittran.c ****   // 60. reserved private
 157:src/inittran.c ****   if ((tx_bitmap[7] & 0x10) != 0) {
 196              		.loc 1 157 0
 197 00e4 18F0100F 		tst	r8, #16
 198 00e8 16D0     		beq	.L12
 158:src/inittran.c ****     if ((gsTransData.s_input.b_trans==EDC_INIT)&&(gsTransData.s_rsp_data.w_rspcode == 'Z'*256+'1'))
 199              		.loc 1 158 0
 200 00ea 2B79     		ldrb	r3, [r5, #4]	@ zero_extendqisi2
 201 00ec 6BB9     		cbnz	r3, .L13
 202              		.loc 1 158 0 is_stmt 0 discriminator 1
 203 00ee 254B     		ldr	r3, .L37+12
 204 00f0 B3F87620 		ldrh	r2, [r3, #118]
 205 00f4 45F63123 		movw	r3, #23089
 206 00f8 9A42     		cmp	r2, r3
 207 00fa 06D1     		bne	.L13
 159:src/inittran.c ****       pack_word(0x0001); /* length */
 208              		.loc 1 159 0 is_stmt 1
 209 00fc 0120     		movs	r0, #1
 210 00fe FFF7FEFF 		bl	pack_word
 211              	.LVL24:
 160:src/inittran.c ****       pack_byte('Y');
 212              		.loc 1 160 0
 213 0102 5920     		movs	r0, #89
 214 0104 FFF7FEFF 		bl	pack_byte
 215              	.LVL25:
 216 0108 06E0     		b	.L12
 217              	.L13:
 161:src/inittran.c ****     }
 162:src/inittran.c ****     else {
 163:src/inittran.c ****       pack_word(0x0010); /* length */
 218              		.loc 1 163 0
 219 010a 1020     		movs	r0, #16
 220 010c FFF7FEFF 		bl	pack_word
 221              	.LVL26:
 164:src/inittran.c ****       pack_mem((BYTE *)KSoftName,10);   //N2C check this or KVersion
 222              		.loc 1 164 0
 223 0110 2048     		ldr	r0, .L37+28
 224 0112 0A21     		movs	r1, #10
 225 0114 FFF7FEFF 		bl	pack_mem
 226              	.LVL27:
 227              	.L12:
 165:src/inittran.c ****     }
 166:src/inittran.c ****   }
 167:src/inittran.c **** 
ARM GAS  C:\Users\AHMED~1.ELE\AppData\Local\Temp\ccFUpfoi.s 			page 8


 168:src/inittran.c ****   // pack etx & lrc
 169:src/inittran.c ****   if (gCommParam.bCommMode == APM_COMM_ASYNC) {
 228              		.loc 1 169 0
 229 0118 A378     		ldrb	r3, [r4, #2]	@ zero_extendqisi2
 230 011a 012B     		cmp	r3, #1
 231 011c 14D1     		bne	.L14
 170:src/inittran.c ****     epptr = get_pptr();
 232              		.loc 1 170 0
 233 011e FFF7FEFF 		bl	get_pptr
 234              	.LVL28:
 171:src/inittran.c ****     tmplen = epptr-spptr;
 235              		.loc 1 171 0
 236 0122 C7EB0008 		rsb	r8, r7, r0
 237              	.LVL29:
 172:src/inittran.c ****     tmplrc = (BYTE)lrc(spptr, tmplen);
 238              		.loc 1 172 0
 239 0126 3846     		mov	r0, r7
 240              	.LVL30:
 241 0128 1FFA88F5 		uxth	r5, r8
 242 012c 2946     		mov	r1, r5
 243 012e FFF7FEFF 		bl	lrc
 244              	.LVL31:
 173:src/inittran.c ****     pack_byte(tmplrc);
 174:src/inittran.c ****     pack_byte(0x03);
 175:src/inittran.c ****     *(spptr-2) = tmplen/256;
 245              		.loc 1 175 0
 246 0132 2D0A     		lsrs	r5, r5, #8
 173:src/inittran.c ****     pack_byte(tmplrc);
 247              		.loc 1 173 0
 248 0134 C0B2     		uxtb	r0, r0
 249 0136 FFF7FEFF 		bl	pack_byte
 250              	.LVL32:
 174:src/inittran.c ****     *(spptr-2) = tmplen/256;
 251              		.loc 1 174 0
 252 013a 0320     		movs	r0, #3
 253 013c FFF7FEFF 		bl	pack_byte
 254              	.LVL33:
 255              		.loc 1 175 0
 256 0140 07F8025C 		strb	r5, [r7, #-2]
 176:src/inittran.c ****     *(spptr-1) = tmplen%256;
 257              		.loc 1 176 0
 258 0144 07F8018C 		strb	r8, [r7, #-1]
 259              	.LVL34:
 260              	.L14:
 177:src/inittran.c ****   }
 178:src/inittran.c **** 
 179:src/inittran.c ****   // set total length
 180:src/inittran.c ****   psTxBuf->wLen = (WORD)get_distance();
 261              		.loc 1 180 0
 262 0148 3568     		ldr	r5, [r6]
 263 014a FFF7FEFF 		bl	get_distance
 264              	.LVL35:
 265 014e 2880     		strh	r0, [r5]	@ movhi
 181:src/inittran.c **** 
 182:src/inittran.c ****   // pack 2 bytes len
 183:src/inittran.c ****   if (((gCommParam.bCommMode==APM_COMM_GPRS)||(gCommParam.bCommMode == APM_COMM_TCPIP)||(gCommParam
 266              		.loc 1 183 0
ARM GAS  C:\Users\AHMED~1.ELE\AppData\Local\Temp\ccFUpfoi.s 			page 9


 267 0150 A378     		ldrb	r3, [r4, #2]	@ zero_extendqisi2
 268 0152 9A1E     		subs	r2, r3, #2
 269 0154 012A     		cmp	r2, #1
 270 0156 02D9     		bls	.L15
 271              		.loc 1 183 0 is_stmt 0 discriminator 2
 272 0158 053B     		subs	r3, r3, #5
 273 015a 012B     		cmp	r3, #1
 274 015c 09D8     		bhi	.L1
 275              	.L15:
 276              		.loc 1 183 0 discriminator 5
 277 015e 94F86530 		ldrb	r3, [r4, #101]	@ zero_extendqisi2
 278 0162 33B1     		cbz	r3, .L1
 184:src/inittran.c ****     tmplen = psTxBuf->wLen - 2;
 279              		.loc 1 184 0 is_stmt 1
 280 0164 3268     		ldr	r2, [r6]
 281 0166 1388     		ldrh	r3, [r2]
 282 0168 023B     		subs	r3, r3, #2
 283 016a 9BB2     		uxth	r3, r3
 284              	.LVL36:
 185:src/inittran.c ****     psTxBuf->sbContent[0] = (BYTE)((tmplen >> 8) & 0xFF);
 285              		.loc 1 185 0
 286 016c 190A     		lsrs	r1, r3, #8
 186:src/inittran.c ****     psTxBuf->sbContent[1] = (BYTE)(tmplen & 0xFF);
 287              		.loc 1 186 0
 288 016e D370     		strb	r3, [r2, #3]
 185:src/inittran.c ****     psTxBuf->sbContent[0] = (BYTE)((tmplen >> 8) & 0xFF);
 289              		.loc 1 185 0
 290 0170 9170     		strb	r1, [r2, #2]
 291              	.LVL37:
 292              	.L1:
 187:src/inittran.c ****   }
 188:src/inittran.c **** }
 293              		.loc 1 188 0
 294 0172 03B0     		add	sp, sp, #12
 295              		.cfi_def_cfa_offset 36
 296              		@ sp needed
 297 0174 BDE8F08F 		pop	{r4, r5, r6, r7, r8, r9, r10, fp, pc}
 298              	.LVL38:
 299              	.L38:
 300              		.align	2
 301              	.L37:
 302 0178 00000000 		.word	.LANCHOR0
 303 017c 00000000 		.word	gCommParam
 304 0180 07000000 		.word	gsTransData+7
 305 0184 00000000 		.word	gsTransData
 306 0188 00000000 		.word	KTransBitmap
 307 018c 09000000 		.word	gsTransData+9
 308 0190 0C000000 		.word	gsTransData+12
 309 0194 00000000 		.word	KSoftName
 310              		.cfi_endproc
 311              	.LFE0:
 312              		.size	PackHostMsg, .-PackHostMsg
 313              		.section	.text.CheckHostRsp,"ax",%progbits
 314              		.align	1
 315              		.global	CheckHostRsp
 316              		.thumb
 317              		.thumb_func
ARM GAS  C:\Users\AHMED~1.ELE\AppData\Local\Temp\ccFUpfoi.s 			page 10


 318              		.type	CheckHostRsp, %function
 319              	CheckHostRsp:
 320              	.LFB1:
 189:src/inittran.c **** //*****************************************************************************
 190:src/inittran.c **** //  Function        : CheckHostRsp
 191:src/inittran.c **** //  Description     : UnPack Host Message to rsp_data.
 192:src/inittran.c **** //  Input           : N/A
 193:src/inittran.c **** //  Return          : N/A
 194:src/inittran.c **** //  Note            : N/A
 195:src/inittran.c **** //  Globals Changed : N/A
 196:src/inittran.c **** //*****************************************************************************
 197:src/inittran.c **** BYTE CheckHostRsp(void)
 198:src/inittran.c **** {
 321              		.loc 1 198 0
 322              		.cfi_startproc
 323              		@ args = 0, pretend = 0, frame = 832
 324              		@ frame_needed = 0, uses_anonymous_args = 0
 325              	.LVL39:
 326 0000 2DE9F04F 		push	{r4, r5, r6, r7, r8, r9, r10, fp, lr}
 327              		.cfi_def_cfa_offset 36
 328              		.cfi_offset 4, -36
 329              		.cfi_offset 5, -32
 330              		.cfi_offset 6, -28
 331              		.cfi_offset 7, -24
 332              		.cfi_offset 8, -20
 333              		.cfi_offset 9, -16
 334              		.cfi_offset 10, -12
 335              		.cfi_offset 11, -8
 336              		.cfi_offset 14, -4
 199:src/inittran.c ****   int i;
 200:src/inittran.c ****   WORD sub_field_len;
 201:src/inittran.c ****   BYTE sub_type;
 202:src/inittran.c ****   DWORD logo_index;
 203:src/inittran.c ****   DWORD card_index;
 204:src/inittran.c ****   DWORD more_msg;
 205:src/inittran.c ****   APP_CFG app_cfg;
 206:src/inittran.c ****   KEY_ROOM key_room;
 207:src/inittran.c ****   BYTE *pDat;
 208:src/inittran.c ****   struct DATETIME dtg;
 209:src/inittran.c ****   WORD msg_id;
 210:src/inittran.c ****   BYTE bitmap[8];
 211:src/inittran.c ****   BYTE tmp;
 212:src/inittran.c ****   BYTE *ptr_end;
 213:src/inittran.c ****   void *p_mem;
 214:src/inittran.c **** 
 215:src/inittran.c ****   more_msg = 0;
 216:src/inittran.c ****   set_pptr(psRxBuf->sbContent, COMMBUF_SIZE);
 337              		.loc 1 216 0
 338 0004 BB4E     		ldr	r6, .L204
 217:src/inittran.c **** 
 218:src/inittran.c ****   // pack additonal 2 byte msg len
 219:src/inittran.c ****   if (((gCommParam.bCommMode==APM_COMM_GPRS)||(gCommParam.bCommMode == APM_COMM_TCPIP)||(gCommParam
 339              		.loc 1 219 0
 340 0006 BC4C     		ldr	r4, .L204+4
 216:src/inittran.c **** 
 341              		.loc 1 216 0
 342 0008 7068     		ldr	r0, [r6, #4]
ARM GAS  C:\Users\AHMED~1.ELE\AppData\Local\Temp\ccFUpfoi.s 			page 11


 198:src/inittran.c ****   int i;
 343              		.loc 1 198 0
 344 000a ADF5537D 		sub	sp, sp, #844
 345              		.cfi_def_cfa_offset 880
 216:src/inittran.c **** 
 346              		.loc 1 216 0
 347 000e 0230     		adds	r0, r0, #2
 348 0010 4FF44061 		mov	r1, #3072
 349 0014 FFF7FEFF 		bl	set_pptr
 350              	.LVL40:
 351              		.loc 1 219 0
 352 0018 A378     		ldrb	r3, [r4, #2]	@ zero_extendqisi2
 353 001a 9A1E     		subs	r2, r3, #2
 354 001c 012A     		cmp	r2, #1
 355 001e 02D9     		bls	.L40
 356              		.loc 1 219 0 is_stmt 0 discriminator 2
 357 0020 053B     		subs	r3, r3, #5
 358 0022 012B     		cmp	r3, #1
 359 0024 05D8     		bhi	.L41
 360              	.L40:
 361              		.loc 1 219 0 discriminator 5
 362 0026 94F86530 		ldrb	r3, [r4, #101]	@ zero_extendqisi2
 363 002a 13B1     		cbz	r3, .L41
 220:src/inittran.c ****       (gCommParam.sTcp.bAdd2ByteLen))
 221:src/inittran.c ****     inc_pptr(2);
 364              		.loc 1 221 0 is_stmt 1
 365 002c 0220     		movs	r0, #2
 366 002e FFF7FEFF 		bl	inc_pptr
 367              	.LVL41:
 368              	.L41:
 222:src/inittran.c **** 
 223:src/inittran.c ****   // LRC or TPDU
 224:src/inittran.c ****   if (gCommParam.bCommMode == APM_COMM_ASYNC) { // verify LRC
 369              		.loc 1 224 0
 370 0032 A078     		ldrb	r0, [r4, #2]	@ zero_extendqisi2
 371 0034 0128     		cmp	r0, #1
 372 0036 0DD1     		bne	.L42
 225:src/inittran.c ****     inc_pptr(1); // skip STX
 373              		.loc 1 225 0
 374 0038 FFF7FEFF 		bl	inc_pptr
 375              	.LVL42:
 226:src/inittran.c ****     i = get_word();
 376              		.loc 1 226 0
 377 003c FFF7FEFF 		bl	get_word
 378              	.LVL43:
 379 0040 0446     		mov	r4, r0
 380              	.LVL44:
 227:src/inittran.c ****     pDat = get_pptr();
 381              		.loc 1 227 0
 382 0042 FFF7FEFF 		bl	get_pptr
 383              	.LVL45:
 228:src/inittran.c ****     if (lrc(pDat, i+1)!=0) { // include LRC
 384              		.loc 1 228 0
 385 0046 611C     		adds	r1, r4, #1
 386 0048 FFF7FEFF 		bl	lrc
 387              	.LVL46:
 388 004c 28B1     		cbz	r0, .L43
ARM GAS  C:\Users\AHMED~1.ELE\AppData\Local\Temp\ccFUpfoi.s 			page 12


 389              	.LVL47:
 390              	.L45:
 229:src/inittran.c ****       SetRspCode('I'*256+'R', FALSE);
 391              		.loc 1 229 0
 392 004e 44F65210 		movw	r0, #18770
 393 0052 25E0     		b	.L202
 394              	.L42:
 230:src/inittran.c ****       return TRANS_FAIL;
 231:src/inittran.c ****     }
 232:src/inittran.c ****   }
 233:src/inittran.c ****   else {
 234:src/inittran.c ****     inc_pptr(5); // 5 bytes tpdu_header;
 395              		.loc 1 234 0
 396 0054 0520     		movs	r0, #5
 397 0056 FFF7FEFF 		bl	inc_pptr
 398              	.LVL48:
 399              	.L43:
 235:src/inittran.c ****   }
 236:src/inittran.c **** 
 237:src/inittran.c ****   // Msg ID
 238:src/inittran.c ****   if ((msg_id=(WORD)get_word()) == 0x0820)
 400              		.loc 1 238 0
 401 005a FFF7FEFF 		bl	get_word
 402              	.LVL49:
 403 005e 80B2     		uxth	r0, r0
 404 0060 B0F5026F 		cmp	r0, #2080
 405 0064 00F09683 		beq	.L103
 239:src/inittran.c ****     return 0xff; /// please wait message
 240:src/inittran.c ****   if ((KTransBitmap[gsTransData.s_input.b_trans].w_txmsg_id + 0x10) != msg_id) {
 406              		.loc 1 240 0
 407 0068 A44C     		ldr	r4, .L204+8
 408 006a 0C27     		movs	r7, #12
 409 006c 2379     		ldrb	r3, [r4, #4]	@ zero_extendqisi2
 410 006e A44D     		ldr	r5, .L204+12
 411 0070 7B43     		muls	r3, r7, r3
 412 0072 EB5A     		ldrh	r3, [r5, r3]
 413 0074 1033     		adds	r3, r3, #16
 414 0076 8342     		cmp	r3, r0
 415 0078 E9D1     		bne	.L45
 241:src/inittran.c ****     SetRspCode('I'*256+'R', FALSE);
 242:src/inittran.c ****     return TRANS_FAIL;
 243:src/inittran.c ****   }
 244:src/inittran.c **** 
 245:src/inittran.c ****   get_mem(bitmap, 8);
 416              		.loc 1 245 0
 417 007a 04A8     		add	r0, sp, #16
 418              	.LVL50:
 419 007c 0821     		movs	r1, #8
 420 007e FFF7FEFF 		bl	get_mem
 421              	.LVL51:
 246:src/inittran.c **** 
 247:src/inittran.c ****   // 03. processing code
 248:src/inittran.c ****   if (bitmap[0] & 0x20) {
 422              		.loc 1 248 0
 423 0082 9DF81030 		ldrb	r3, [sp, #16]	@ zero_extendqisi2
 424 0086 9A06     		lsls	r2, r3, #26
 425 0088 1AD5     		bpl	.L46
ARM GAS  C:\Users\AHMED~1.ELE\AppData\Local\Temp\ccFUpfoi.s 			page 13


 249:src/inittran.c ****     tmp = (BYTE)get_byte();
 426              		.loc 1 249 0
 427 008a FFF7FEFF 		bl	get_byte
 428              	.LVL52:
 250:src/inittran.c ****     if (tmp != KTransBitmap[gsTransData.s_input.b_trans].b_proc_code) {
 429              		.loc 1 250 0
 430 008e 2379     		ldrb	r3, [r4, #4]	@ zero_extendqisi2
 431 0090 07FB0353 		mla	r3, r7, r3, r5
 432 0094 C0B2     		uxtb	r0, r0
 433 0096 9B7A     		ldrb	r3, [r3, #10]	@ zero_extendqisi2
 434 0098 8342     		cmp	r3, r0
 435 009a 05D0     		beq	.L47
 436              	.LVL53:
 437              	.L50:
 251:src/inittran.c ****       SetRspCode('I'*256+'P', FALSE);
 438              		.loc 1 251 0
 439 009c 44F65010 		movw	r0, #18768
 440              	.LVL54:
 441              	.L202:
 442 00a0 0021     		movs	r1, #0
 443 00a2 FFF7FEFF 		bl	SetRspCode
 444              	.LVL55:
 445 00a6 A7E0     		b	.L201
 446              	.LVL56:
 447              	.L47:
 252:src/inittran.c ****       return TRANS_FAIL;
 253:src/inittran.c ****     }
 254:src/inittran.c ****     inc_pptr(1);
 448              		.loc 1 254 0
 449 00a8 0120     		movs	r0, #1
 450              	.LVL57:
 451 00aa FFF7FEFF 		bl	inc_pptr
 452              	.LVL58:
 255:src/inittran.c ****     tmp = (BYTE)get_byte();
 453              		.loc 1 255 0
 454 00ae FFF7FEFF 		bl	get_byte
 455              	.LVL59:
 256:src/inittran.c ****     if ((gsTransData.s_input.b_trans == EDC_INIT)&&(tmp == 0x01))
 456              		.loc 1 256 0
 457 00b2 2379     		ldrb	r3, [r4, #4]	@ zero_extendqisi2
 255:src/inittran.c ****     tmp = (BYTE)get_byte();
 458              		.loc 1 255 0
 459 00b4 C0B2     		uxtb	r0, r0
 460              	.LVL60:
 461              		.loc 1 256 0
 462 00b6 0BB9     		cbnz	r3, .L48
 463              		.loc 1 256 0 is_stmt 0 discriminator 1
 464 00b8 0128     		cmp	r0, #1
 465 00ba 03D0     		beq	.L104
 466              	.L48:
 257:src/inittran.c ****       more_msg = 1;
 258:src/inittran.c ****     else
 259:src/inittran.c ****       if (tmp != 0x00) {
 467              		.loc 1 259 0 is_stmt 1
 468 00bc 0028     		cmp	r0, #0
 469 00be EDD1     		bne	.L50
 470              	.LVL61:
ARM GAS  C:\Users\AHMED~1.ELE\AppData\Local\Temp\ccFUpfoi.s 			page 14


 471              	.L46:
 215:src/inittran.c ****   set_pptr(psRxBuf->sbContent, COMMBUF_SIZE);
 472              		.loc 1 215 0
 473 00c0 0027     		movs	r7, #0
 474 00c2 00E0     		b	.L49
 475              	.LVL62:
 476              	.L104:
 257:src/inittran.c ****       more_msg = 1;
 477              		.loc 1 257 0
 478 00c4 0746     		mov	r7, r0
 479              	.LVL63:
 480              	.L49:
 260:src/inittran.c ****         SetRspCode('I'*256+'P', FALSE);
 261:src/inittran.c ****         return TRANS_FAIL;
 262:src/inittran.c ****       }
 263:src/inittran.c ****   }
 264:src/inittran.c **** 
 265:src/inittran.c ****   // 11. check system trace no
 266:src/inittran.c ****   if (bitmap[1] & 0x20) {
 481              		.loc 1 266 0
 482 00c6 9DF81130 		ldrb	r3, [sp, #17]	@ zero_extendqisi2
 483 00ca 9B06     		lsls	r3, r3, #26
 484 00cc 0CD5     		bpl	.L51
 267:src/inittran.c ****     if (memcmp(get_pptr(), gsTransData.s_input.sb_trace_no, 3)) {
 485              		.loc 1 267 0
 486 00ce FFF7FEFF 		bl	get_pptr
 487              	.LVL64:
 488 00d2 8C49     		ldr	r1, .L204+16
 489 00d4 0322     		movs	r2, #3
 490 00d6 FFF7FEFF 		bl	memcmp
 491              	.LVL65:
 492 00da 10B1     		cbz	r0, .L52
 268:src/inittran.c ****       SetRspCode('I'*256+'S', FALSE);
 493              		.loc 1 268 0
 494 00dc 44F65310 		movw	r0, #18771
 495 00e0 DEE7     		b	.L202
 496              	.L52:
 269:src/inittran.c ****       return TRANS_FAIL;
 270:src/inittran.c ****     }
 271:src/inittran.c ****     inc_pptr(3);
 497              		.loc 1 271 0
 498 00e2 0320     		movs	r0, #3
 499 00e4 FFF7FEFF 		bl	inc_pptr
 500              	.LVL66:
 501              	.L51:
 272:src/inittran.c ****   }
 273:src/inittran.c **** 
 274:src/inittran.c ****   // 12. trans time
 275:src/inittran.c ****   if (bitmap[1] & 0x10)
 502              		.loc 1 275 0
 503 00e8 9DF81130 		ldrb	r3, [sp, #17]	@ zero_extendqisi2
 504 00ec DD06     		lsls	r5, r3, #27
 505 00ee 03D5     		bpl	.L53
 276:src/inittran.c ****     get_mem(gsTransData.s_rsp_data.sb_time, 3);
 506              		.loc 1 276 0
 507 00f0 8548     		ldr	r0, .L204+20
 508 00f2 0321     		movs	r1, #3
ARM GAS  C:\Users\AHMED~1.ELE\AppData\Local\Temp\ccFUpfoi.s 			page 15


 509 00f4 FFF7FEFF 		bl	get_mem
 510              	.LVL67:
 511              	.L53:
 277:src/inittran.c **** 
 278:src/inittran.c ****   // 13. trans date
 279:src/inittran.c ****   if (bitmap[1] & 0x08)
 512              		.loc 1 279 0
 513 00f8 9DF81130 		ldrb	r3, [sp, #17]	@ zero_extendqisi2
 514 00fc 1807     		lsls	r0, r3, #28
 515 00fe 03D5     		bpl	.L54
 280:src/inittran.c ****     get_mem(gsTransData.s_rsp_data.sb_date, 2);
 516              		.loc 1 280 0
 517 0100 8248     		ldr	r0, .L204+24
 518 0102 0221     		movs	r1, #2
 519 0104 FFF7FEFF 		bl	get_mem
 520              	.LVL68:
 521              	.L54:
 281:src/inittran.c **** 
 282:src/inittran.c **** 
 283:src/inittran.c ****   // 24. bypass netword id
 284:src/inittran.c ****   if (bitmap[2] & 0x01)
 522              		.loc 1 284 0
 523 0108 9DF81230 		ldrb	r3, [sp, #18]	@ zero_extendqisi2
 524 010c D907     		lsls	r1, r3, #31
 525 010e 02D5     		bpl	.L55
 285:src/inittran.c ****     inc_pptr(2);
 526              		.loc 1 285 0
 527 0110 0220     		movs	r0, #2
 528 0112 FFF7FEFF 		bl	inc_pptr
 529              	.LVL69:
 530              	.L55:
 286:src/inittran.c **** 
 287:src/inittran.c ****   // 25. pos condition code
 288:src/inittran.c ****   if (bitmap[3] & 0x80)
 531              		.loc 1 288 0
 532 0116 9DF91330 		ldrsb	r3, [sp, #19]
 533 011a 002B     		cmp	r3, #0
 534 011c 02DA     		bge	.L56
 289:src/inittran.c ****     inc_pptr(1);
 535              		.loc 1 289 0
 536 011e 0120     		movs	r0, #1
 537 0120 FFF7FEFF 		bl	inc_pptr
 538              	.LVL70:
 539              	.L56:
 290:src/inittran.c **** 
 291:src/inittran.c ****   // 32.
 292:src/inittran.c ****   if (bitmap[3] & 0x01)
 540              		.loc 1 292 0
 541 0124 9DF81330 		ldrb	r3, [sp, #19]	@ zero_extendqisi2
 542 0128 DA07     		lsls	r2, r3, #31
 543 012a 09D5     		bpl	.L57
 293:src/inittran.c ****     inc_pptr((BYTE)((bcd2bin(peek_byte()) + 1)/2 + 1));
 544              		.loc 1 293 0
 545 012c FFF7FEFF 		bl	peek_byte
 546              	.LVL71:
 547 0130 FFF7FEFF 		bl	bcd2bin
 548              	.LVL72:
ARM GAS  C:\Users\AHMED~1.ELE\AppData\Local\Temp\ccFUpfoi.s 			page 16


 549 0134 0130     		adds	r0, r0, #1
 550 0136 4008     		lsrs	r0, r0, #1
 551 0138 0130     		adds	r0, r0, #1
 552 013a C0B2     		uxtb	r0, r0
 553 013c FFF7FEFF 		bl	inc_pptr
 554              	.LVL73:
 555              	.L57:
 294:src/inittran.c **** 
 295:src/inittran.c ****   // 37. ret. ref. no.
 296:src/inittran.c ****   if (bitmap[4] & 0x08)
 556              		.loc 1 296 0
 557 0140 9DF81430 		ldrb	r3, [sp, #20]	@ zero_extendqisi2
 558 0144 1B07     		lsls	r3, r3, #28
 559 0146 03D5     		bpl	.L58
 297:src/inittran.c ****     get_mem(gsTransData.s_rsp_data.sb_rrn, 12);
 560              		.loc 1 297 0
 561 0148 7148     		ldr	r0, .L204+28
 562 014a 0C21     		movs	r1, #12
 563 014c FFF7FEFF 		bl	get_mem
 564              	.LVL74:
 565              	.L58:
 298:src/inittran.c **** 
 299:src/inittran.c ****   // 38. auth code
 300:src/inittran.c ****   memset(gsTransData.s_rsp_data.sb_auth_code, ' ', 6);
 566              		.loc 1 300 0
 567 0150 7048     		ldr	r0, .L204+32
 568 0152 2021     		movs	r1, #32
 569 0154 0622     		movs	r2, #6
 570 0156 FFF7FEFF 		bl	memset
 571              	.LVL75:
 301:src/inittran.c ****   if (bitmap[4] & 0x04)
 572              		.loc 1 301 0
 573 015a 9DF81430 		ldrb	r3, [sp, #20]	@ zero_extendqisi2
 574 015e 5D07     		lsls	r5, r3, #29
 575 0160 03D5     		bpl	.L59
 302:src/inittran.c ****     get_mem(gsTransData.s_rsp_data.sb_auth_code, 6);
 576              		.loc 1 302 0
 577 0162 6C48     		ldr	r0, .L204+32
 578 0164 0621     		movs	r1, #6
 579 0166 FFF7FEFF 		bl	get_mem
 580              	.LVL76:
 581              	.L59:
 303:src/inittran.c **** 
 304:src/inittran.c ****   // 39. response code
 305:src/inittran.c ****   gsTransData.s_rsp_data.w_rspcode = '0'*256+'0'; // upload response does not have response code
 582              		.loc 1 305 0
 583 016a 43F23003 		movw	r3, #12336
 584 016e A4F87630 		strh	r3, [r4, #118]	@ movhi
 306:src/inittran.c ****   if (bitmap[4] & 0x02) {
 585              		.loc 1 306 0
 586 0172 9DF81430 		ldrb	r3, [sp, #20]	@ zero_extendqisi2
 587 0176 9807     		lsls	r0, r3, #30
 588 0178 04D5     		bpl	.L60
 307:src/inittran.c ****     gsTransData.s_rsp_data.w_rspcode = (WORD)get_word();
 589              		.loc 1 307 0
 590 017a FFF7FEFF 		bl	get_word
 591              	.LVL77:
ARM GAS  C:\Users\AHMED~1.ELE\AppData\Local\Temp\ccFUpfoi.s 			page 17


 592 017e 5F4B     		ldr	r3, .L204+8
 593 0180 A3F87600 		strh	r0, [r3, #118]	@ movhi
 594              	.L60:
 308:src/inittran.c ****   }
 309:src/inittran.c **** 
 310:src/inittran.c ****   // 41. term id
 311:src/inittran.c ****   if (bitmap[5] & 0x80) {
 595              		.loc 1 311 0
 596 0184 9DF91530 		ldrsb	r3, [sp, #21]
 597 0188 002B     		cmp	r3, #0
 598 018a 0DDA     		bge	.L61
 312:src/inittran.c ****     if (memcmp(gsTransData.s_input.sb_term_id, get_pptr(), 8)) {
 599              		.loc 1 312 0
 600 018c FFF7FEFF 		bl	get_pptr
 601              	.LVL78:
 602 0190 0822     		movs	r2, #8
 603 0192 0146     		mov	r1, r0
 604 0194 6048     		ldr	r0, .L204+36
 605 0196 FFF7FEFF 		bl	memcmp
 606              	.LVL79:
 607 019a 10B1     		cbz	r0, .L62
 313:src/inittran.c ****       SetRspCode('I'*256+'T', FALSE);
 608              		.loc 1 313 0
 609 019c 44F65410 		movw	r0, #18772
 610 01a0 7EE7     		b	.L202
 611              	.L62:
 314:src/inittran.c ****       return TRANS_FAIL;
 315:src/inittran.c ****     }
 316:src/inittran.c ****     inc_pptr(8);
 612              		.loc 1 316 0
 613 01a2 0820     		movs	r0, #8
 614 01a4 FFF7FEFF 		bl	inc_pptr
 615              	.LVL80:
 616              	.L61:
 317:src/inittran.c ****   }
 318:src/inittran.c **** 
 319:src/inittran.c ****   // 60. private field
 320:src/inittran.c ****   if (bitmap[7] & 0x10)
 617              		.loc 1 320 0
 618 01a8 9DF81730 		ldrb	r3, [sp, #23]	@ zero_extendqisi2
 619 01ac D906     		lsls	r1, r3, #27
 620 01ae 0AD4     		bmi	.L63
 621              	.L66:
 321:src/inittran.c ****     if (gsTransData.s_input.b_trans == EDC_INIT) { // initialization parameter
 322:src/inittran.c ****       ptr_end = get_pptr() + bcd2bin(get_word());
 323:src/inittran.c ****       while (get_pptr() < ptr_end) {
 324:src/inittran.c ****         sub_type = (BYTE)get_byte(); // sub-type
 325:src/inittran.c ****         sub_field_len = (WORD)bcd2bin(get_word());
 326:src/inittran.c ****         i = (BYTE)bcd2bin(peek_byte());
 327:src/inittran.c ****         switch (sub_type) {
 328:src/inittran.c ****           case 0:
 329:src/inittran.c ****             if (psBatchNo != NULL) {
 330:src/inittran.c ****               FreeMW(psBatchNo);
 331:src/inittran.c ****               psBatchNo = NULL;
 332:src/inittran.c ****             }
 333:src/inittran.c ****             iSaveAcqCount = GetAcqCount();
 334:src/inittran.c ****             if (iSaveAcqCount > 0) {
ARM GAS  C:\Users\AHMED~1.ELE\AppData\Local\Temp\ccFUpfoi.s 			page 18


 335:src/inittran.c ****               psBatchNo = (struct BATCH_NO *) MallocMW(sizeof(struct BATCH_NO)*iSaveAcqCount);
 336:src/inittran.c ****               for (i = 0; i < iSaveAcqCount; i++) {
 337:src/inittran.c ****                 GetBatchNo(i, psBatchNo[i].sb_curr);
 338:src/inittran.c ****               }
 339:src/inittran.c ****             }
 340:src/inittran.c ****             fCommitAllMW();
 341:src/inittran.c ****             CloseSTISFiles();
 342:src/inittran.c ****             CreateSTISFiles();
 343:src/inittran.c ****             SetSTISMode(INIT_MODE);
 344:src/inittran.c ****             fCommitAllMW();
 345:src/inittran.c ****             break;
 346:src/inittran.c ****           case 1:
 347:src/inittran.c ****             if ((p_mem = (void *)MallocMW(sizeof(struct TERM_CFG))) == NULL) {
 348:src/inittran.c ****               gsTransData.s_rsp_data.w_rspcode = 'D'*256+'E';
 349:src/inittran.c ****               return TRANS_FAIL;
 350:src/inittran.c ****             }
 351:src/inittran.c ****             memcpy(p_mem, get_pptr(), sizeof(struct TERM_CFG));
 352:src/inittran.c ****             memcpy(&gsTransData.s_rsp_data.b_year, ((struct TERM_CFG*)p_mem)->sb_date_time, 6);
 353:src/inittran.c ****             ReadRTC(&dtg);
 354:src/inittran.c ****             memcpy(&dtg.bYear, &gsTransData.s_rsp_data.b_year, 6);
 355:src/inittran.c ****             SetRTC(&dtg);
 356:src/inittran.c ****             ((struct TERM_CFG*)p_mem)->b_trans_amount_len = (BYTE)bcd2bin(((struct TERM_CFG*)p_mem)
 357:src/inittran.c ****             ((struct TERM_CFG*)p_mem)->b_settle_amount_len = (BYTE)bcd2bin(((struct TERM_CFG*)p_mem
 358:src/inittran.c ****             UpdTermCfg((struct TERM_CFG*)p_mem);
 359:src/inittran.c ****             FreeMW(p_mem);
 360:src/inittran.c ****             break;
 361:src/inittran.c ****           case 2:
 362:src/inittran.c ****             if ((p_mem = (void *)MallocMW(sizeof(struct CARD_TBL))) == NULL) {
 363:src/inittran.c ****               gsTransData.s_rsp_data.w_rspcode = 'D'*256+'E';
 364:src/inittran.c ****               return TRANS_FAIL;
 365:src/inittran.c ****             }
 366:src/inittran.c ****             memcpy(p_mem, get_pptr()+1, sizeof(struct CARD_TBL));
 367:src/inittran.c ****             // convert idx into HEX for storage
 368:src/inittran.c ****             ((struct CARD_TBL*)p_mem)->b_acquirer_id = (BYTE)bcd2bin(((struct CARD_TBL*)p_mem)->b_a
 369:src/inittran.c ****             ((struct CARD_TBL*)p_mem)->b_issuer_id = (BYTE)bcd2bin(((struct CARD_TBL*)p_mem)->b_iss
 370:src/inittran.c ****             //26-08-14 JC ++
 371:src/inittran.c ****             //fix bug if more than 99 card tables
 372:src/inittran.c ****             //UpdCardTbl(i-1, (struct CARD_TBL*)p_mem);
 373:src/inittran.c ****             card_index = GetCardCount();
 374:src/inittran.c ****             UpdCardTbl(card_index, (struct CARD_TBL*)p_mem);
 375:src/inittran.c ****             //26-08-14 JC --
 376:src/inittran.c ****             FreeMW(p_mem);
 377:src/inittran.c ****             break;
 378:src/inittran.c ****           case 3:
 379:src/inittran.c ****             i--;
 380:src/inittran.c ****             if ((p_mem = (void *)MallocMW(sizeof(struct ISSUER_TBL))) == NULL) {
 381:src/inittran.c ****               gsTransData.s_rsp_data.w_rspcode = 'D'*256+'E';
 382:src/inittran.c ****               return TRANS_FAIL;
 383:src/inittran.c ****             }
 384:src/inittran.c ****             memcpy(p_mem, get_pptr()+1, sizeof(struct ISSUER_TBL));
 385:src/inittran.c ****             // convert idx into HEX for storage
 386:src/inittran.c ****             ((struct ISSUER_TBL*)p_mem)->b_id = (BYTE)bcd2bin(((struct ISSUER_TBL*)p_mem)->b_id);
 387:src/inittran.c ****             UpdIssuerTbl(i, (struct ISSUER_TBL*)p_mem);
 388:src/inittran.c ****             FreeMW(p_mem);
 389:src/inittran.c ****             break;
 390:src/inittran.c ****           case 4:
 391:src/inittran.c ****             i--;
ARM GAS  C:\Users\AHMED~1.ELE\AppData\Local\Temp\ccFUpfoi.s 			page 19


 392:src/inittran.c ****             if ((p_mem = (void *)MallocMW(sizeof(struct ACQUIRER_TBL))) == NULL) {
 393:src/inittran.c ****               gsTransData.s_rsp_data.w_rspcode = 'D'*256+'E';
 394:src/inittran.c ****               return TRANS_FAIL;
 395:src/inittran.c ****             }
 396:src/inittran.c ****             memcpy(p_mem, get_pptr()+1, sizeof(struct ACQUIRER_TBL));
 397:src/inittran.c ****             // convert idx into HEX for storage
 398:src/inittran.c ****             ((struct ACQUIRER_TBL*)p_mem)->b_id = (BYTE)bcd2bin(((struct ACQUIRER_TBL*)p_mem)->b_id
 399:src/inittran.c ****             if ((skpb(((struct ACQUIRER_TBL*)p_mem)->sb_curr_batch_no, 0, 3) == 3) && (i < iSaveAcq
 400:src/inittran.c ****               memcpy(((struct ACQUIRER_TBL*)p_mem)->sb_curr_batch_no, (BYTE *)&psBatchNo[i].sb_curr
 401:src/inittran.c ****             if ((skpb(((struct ACQUIRER_TBL*)p_mem)->sb_next_batch_no, 0, 3) == 3) && (i < iSaveAcq
 402:src/inittran.c ****               memcpy(((struct ACQUIRER_TBL*)p_mem)->sb_next_batch_no, (BYTE *)&psBatchNo[i].sb_next
 403:src/inittran.c ****             ((struct ACQUIRER_TBL*)p_mem)->b_status=UP;
 404:src/inittran.c ****             ((struct ACQUIRER_TBL*)p_mem)->b_pending=NO_PENDING;
 405:src/inittran.c ****             UpdAcqTbl(i, (struct ACQUIRER_TBL*)p_mem);
 406:src/inittran.c ****             FreeMW(p_mem);
 407:src/inittran.c ****             break;
 408:src/inittran.c ****           case 5:
 409:src/inittran.c ****             i--;
 410:src/inittran.c ****             if ((p_mem = (void *)MallocMW(sizeof(struct DESC_TBL))) == NULL) {
 411:src/inittran.c ****               gsTransData.s_rsp_data.w_rspcode = 'D'*256+'E';
 412:src/inittran.c ****               return TRANS_FAIL;
 413:src/inittran.c ****             }
 414:src/inittran.c ****             memcpy(p_mem, get_pptr()+1, sizeof(struct DESC_TBL));
 415:src/inittran.c ****             UpdDescTbl(i, (struct DESC_TBL*)p_mem);
 416:src/inittran.c ****             FreeMW(p_mem);
 417:src/inittran.c ****             break;
 418:src/inittran.c ****           case 6:
 419:src/inittran.c ****             if (sub_field_len != 143) {
 420:src/inittran.c ****               if ((p_mem = (void *)MallocMW(sizeof(struct LOGO_TBL))) == NULL) {
 421:src/inittran.c ****                 gsTransData.s_rsp_data.w_rspcode = 'D'*256+'E';
 422:src/inittran.c ****                 return TRANS_FAIL;
 423:src/inittran.c ****               }
 424:src/inittran.c ****               logo_index = *get_pptr();
 425:src/inittran.c ****               ((struct LOGO_TBL*)p_mem)->b_flag = 0x01;
 426:src/inittran.c ****               ((struct LOGO_TBL*)p_mem)->b_type = *(get_pptr()+1);
 427:src/inittran.c ****               memcpy(((struct LOGO_TBL*)p_mem)->sb_image, get_pptr()+2, sub_field_len-2);
 428:src/inittran.c ****               UpdLogoTbl(logo_index, (struct LOGO_TBL*)p_mem);
 429:src/inittran.c ****               FreeMW(p_mem);
 430:src/inittran.c ****             }
 431:src/inittran.c ****             break;
 432:src/inittran.c ****           case 7: // clear all EMVL2 table
 433:src/inittran.c ****             if (((gsTransData.s_input.b_stis_init_mode!=MODE_ALL_PARAM)&&(gsTransData.s_input.b_sti
 434:src/inittran.c ****                 (gsTransData.s_rsp_data.w_rspcode!=('0'*256+'0')))
 435:src/inittran.c ****               break;
 436:src/inittran.c ****             SetEMVLoaded(0x80|0x40);  // clear both EMV param & key
 437:src/inittran.c ****             break;
 438:src/inittran.c ****           case 8: // AID TABLE
 439:src/inittran.c ****             if ((gsTransData.s_input.b_stis_init_mode == MODE_EXTRA_PARAM) || (gsTransData.s_input.
 440:src/inittran.c ****                 (gsTransData.s_rsp_data.w_rspcode!=('0'*256+'0')))
 441:src/inittran.c ****               break;
 442:src/inittran.c ****             if (sub_field_len == 223) {
 443:src/inittran.c ****               pDat = get_pptr();
 444:src/inittran.c ****               app_cfg.eType = *pDat++;
 445:src/inittran.c ****               tmp = *pDat++;
 446:src/inittran.c ****               app_cfg.eBitField = tmp;
 447:src/inittran.c ****               app_cfg.eRSBThresh = DWGet(pDat);
 448:src/inittran.c ****               pDat+= 4;
ARM GAS  C:\Users\AHMED~1.ELE\AppData\Local\Temp\ccFUpfoi.s 			page 20


 449:src/inittran.c ****               app_cfg.eRSTarget = *pDat++;
 450:src/inittran.c ****               app_cfg.eRSBMax = *pDat++;
 451:src/inittran.c ****               memcpy(app_cfg.eTACDenial, pDat, 5);
 452:src/inittran.c ****               pDat += 5;
 453:src/inittran.c ****               memcpy(app_cfg.eTACOnline, pDat, 5);
 454:src/inittran.c ****               pDat += 5;
 455:src/inittran.c ****               memcpy(app_cfg.eTACDefault, pDat, 5);
 456:src/inittran.c ****               pDat += 5;
 457:src/inittran.c ****               memcpy(app_cfg.eACFG, pDat, 200);
 458:src/inittran.c ****               EMVData2DnloadBuf(IOCMD_LOAD_AID, (BYTE *)&app_cfg, sizeof(APP_CFG));
 459:src/inittran.c ****               SetEMVLoaded(0x01); // lower nibble for status
 460:src/inittran.c ****             }
 461:src/inittran.c ****             else {
 462:src/inittran.c ****               gsTransData.s_rsp_data.w_rspcode = 'D'*256+'E';
 463:src/inittran.c ****               return TRANS_FAIL;
 464:src/inittran.c ****             }
 465:src/inittran.c ****             break;
 466:src/inittran.c ****           case 9:// KEY TABLE
 467:src/inittran.c ****             if ((gsTransData.s_input.b_stis_init_mode==MODE_EXTRA_PARAM)||
 468:src/inittran.c ****                 ((gsTransData.s_rsp_data.w_rspcode!='0'*256+'0')&&(gsTransData.s_rsp_data.w_rspcode
 469:src/inittran.c ****               break;
 470:src/inittran.c ****             if (sub_field_len == 275) {
 471:src/inittran.c ****               pDat = get_pptr();
 472:src/inittran.c ****               key_room.KeyIdx = *pDat++;
 473:src/inittran.c ****               memcpy(key_room.RID, pDat, 5);
 474:src/inittran.c ****               pDat += 5;
 475:src/inittran.c ****               key_room.CAKey.Exponent = DWGet(pDat);
 476:src/inittran.c ****               pDat += 4;
 477:src/inittran.c ****               key_room.CAKey.KeySize = WGet(pDat);
 478:src/inittran.c ****               pDat += 2;
 479:src/inittran.c ****               memcpy(key_room.CAKey.Key, pDat, 256);
 480:src/inittran.c ****               pDat += 256;
 481:src/inittran.c ****               pDat++; // skip CC
 482:src/inittran.c ****               key_room.ExpiryDate = pDat[1]*256+pDat[0];  // CC to be ignore
 483:src/inittran.c ****               pDat += 2;
 484:src/inittran.c ****               pDat++; // skip CC
 485:src/inittran.c ****               key_room.EffectDate = pDat[1]*256+pDat[0];  // CC to be ignore
 486:src/inittran.c ****               pDat += 2;
 487:src/inittran.c ****               key_room.Chksum = *pDat++;
 488:src/inittran.c ****               EMVData2DnloadBuf(IOCMD_KEY_LOADING, (BYTE *)&key_room, sizeof(KEY_ROOM));
 489:src/inittran.c ****             }
 490:src/inittran.c ****             else {
 491:src/inittran.c ****               gsTransData.s_rsp_data.w_rspcode = 'D'*256+'E';
 492:src/inittran.c ****               return TRANS_FAIL;
 493:src/inittran.c ****             }
 494:src/inittran.c ****             break;
 495:src/inittran.c ****           case 0x10: // Clear AID Table
 496:src/inittran.c ****             if ((gsTransData.s_input.b_stis_init_mode==MODE_EXTRA_PARAM) || (gsTransData.s_input.b_
 497:src/inittran.c ****               break;
 498:src/inittran.c ****             SetEMVLoaded(0x80);
 499:src/inittran.c ****             break;
 500:src/inittran.c ****           case 0x11: // Clear Key Table
 501:src/inittran.c ****             if (gsTransData.s_input.b_stis_init_mode==MODE_EXTRA_PARAM)
 502:src/inittran.c ****               break;
 503:src/inittran.c ****             SetEMVLoaded(0x40);
 504:src/inittran.c ****             break;
 505:src/inittran.c ****           case 0x12: // Clear all extra param
ARM GAS  C:\Users\AHMED~1.ELE\AppData\Local\Temp\ccFUpfoi.s 			page 21


 506:src/inittran.c ****             if ((gsTransData.s_input.b_stis_init_mode!=MODE_ALL_PARAM) && (gsTransData.s_input.b_st
 507:src/inittran.c ****               break;
 508:src/inittran.c ****             iExParamCount = 0;
 509:src/inittran.c ****             CloseExParamFiles();
 510:src/inittran.c ****             CreateExParamFiles();
 511:src/inittran.c ****             break;
 512:src/inittran.c ****           case 0x13:
 513:src/inittran.c ****             if (((gsTransData.s_input.b_stis_init_mode!=MODE_ALL_PARAM)&&(gsTransData.s_input.b_sti
 514:src/inittran.c ****                 (gsTransData.s_rsp_data.w_rspcode!=('0'*256+'0')))
 515:src/inittran.c ****               break;
 516:src/inittran.c ****             if (sub_field_len > 53) {
 517:src/inittran.c ****               gsTransData.s_rsp_data.w_rspcode = 'I'*256+'T';
 518:src/inittran.c ****               return TRANS_FAIL;
 519:src/inittran.c ****             }
 520:src/inittran.c ****             if ((p_mem = (void *)MallocMW(sizeof(struct EXTRA_PARAM))) == NULL) {
 521:src/inittran.c ****               gsTransData.s_rsp_data.w_rspcode = 'D'*256+'E';
 522:src/inittran.c ****               return TRANS_FAIL;
 523:src/inittran.c ****             }
 524:src/inittran.c ****             pDat = get_pptr();
 525:src/inittran.c ****             ((struct EXTRA_PARAM*)p_mem)->b_app_id = *pDat++;
 526:src/inittran.c ****             ((struct EXTRA_PARAM*)p_mem)->b_seq_no = *pDat++;
 527:src/inittran.c ****             ((struct EXTRA_PARAM*)p_mem)->b_len = (BYTE)bcd2bin(WGet(pDat));
 528:src/inittran.c ****             pDat += 2;
 529:src/inittran.c ****             // Check if there is prefix.
 530:src/inittran.c ****             if ((sub_field_len - (((struct EXTRA_PARAM*)p_mem)->b_len+4)) > 0)
 531:src/inittran.c ****               ((struct EXTRA_PARAM*)p_mem)->b_prefix = *pDat++;
 532:src/inittran.c ****             else
 533:src/inittran.c ****               ((struct EXTRA_PARAM*)p_mem)->b_prefix = 0;
 534:src/inittran.c ****             memcpy(((struct EXTRA_PARAM*)p_mem)->sb_content, pDat, ((struct EXTRA_PARAM*)p_mem)->b_
 535:src/inittran.c ****             UpdExtraParam(iExParamCount++, (struct EXTRA_PARAM*)p_mem);
 536:src/inittran.c ****             FreeMW(p_mem);
 537:src/inittran.c ****             break;
 538:src/inittran.c ****         }
 539:src/inittran.c ****         inc_pptr(sub_field_len);
 540:src/inittran.c ****       }
 541:src/inittran.c ****     }
 542:src/inittran.c **** 
 543:src/inittran.c ****   // 62. private field
 544:src/inittran.c ****   if (bitmap[7] & 0x04) {
 622              		.loc 1 544 0
 623 01b0 9DF81730 		ldrb	r3, [sp, #23]	@ zero_extendqisi2
 624 01b4 5A07     		lsls	r2, r3, #29
 625 01b6 40F1AB82 		bpl	.L65
 545:src/inittran.c ****     i = (BYTE)get_word();
 626              		.loc 1 545 0
 627 01ba FFF7FEFF 		bl	get_word
 628              	.LVL81:
 546:src/inittran.c ****     inc_pptr(i);
 629              		.loc 1 546 0
 630 01be C0B2     		uxtb	r0, r0
 631              	.LVL82:
 632 01c0 FFF7FEFF 		bl	inc_pptr
 633              	.LVL83:
 634 01c4 A4E2     		b	.L65
 635              	.L63:
 321:src/inittran.c ****     if (gsTransData.s_input.b_trans == EDC_INIT) { // initialization parameter
 636              		.loc 1 321 0
ARM GAS  C:\Users\AHMED~1.ELE\AppData\Local\Temp\ccFUpfoi.s 			page 22


 637 01c6 2379     		ldrb	r3, [r4, #4]	@ zero_extendqisi2
 638 01c8 002B     		cmp	r3, #0
 639 01ca F1D1     		bne	.L66
 322:src/inittran.c ****       while (get_pptr() < ptr_end) {
 640              		.loc 1 322 0
 641 01cc FFF7FEFF 		bl	get_pptr
 642              	.LVL84:
 643 01d0 8146     		mov	r9, r0
 644 01d2 FFF7FEFF 		bl	get_word
 645              	.LVL85:
 646 01d6 FFF7FEFF 		bl	bcd2bin
 647              	.LVL86:
 648 01da 8144     		add	r9, r9, r0
 649              	.LVL87:
 323:src/inittran.c ****         sub_type = (BYTE)get_byte(); // sub-type
 650              		.loc 1 323 0
 651 01dc 35E0     		b	.L67
 652              	.LVL88:
 653              	.L71:
 347:src/inittran.c ****               gsTransData.s_rsp_data.w_rspcode = 'D'*256+'E';
 654              		.loc 1 347 0
 655 01de 9220     		movs	r0, #146
 656              	.LVL89:
 657 01e0 4FF4C471 		mov	r1, #392
 658 01e4 FFF7FEFF 		bl	sys_func1
 659              	.LVL90:
 660 01e8 0546     		mov	r5, r0
 661              	.LVL91:
 662 01ea 0028     		cmp	r0, #0
 663 01ec 40F09680 		bne	.L89
 664              	.LVL92:
 665              	.L90:
 348:src/inittran.c ****               return TRANS_FAIL;
 666              		.loc 1 348 0
 667 01f0 44F24543 		movw	r3, #17477
 668 01f4 A4F87630 		strh	r3, [r4, #118]	@ movhi
 669              	.LVL93:
 670              	.L201:
 518:src/inittran.c ****             }
 671              		.loc 1 518 0
 672 01f8 0220     		movs	r0, #2
 673 01fa CEE2     		b	.L44
 674              	.LVL94:
 675              	.L69:
 329:src/inittran.c ****               FreeMW(psBatchNo);
 676              		.loc 1 329 0
 677 01fc B168     		ldr	r1, [r6, #8]
 678 01fe 29B1     		cbz	r1, .L84
 330:src/inittran.c ****               psBatchNo = NULL;
 679              		.loc 1 330 0
 680 0200 9420     		movs	r0, #148
 681              	.LVL95:
 682 0202 FFF7FEFF 		bl	sys_func1
 683              	.LVL96:
 331:src/inittran.c ****             }
 684              		.loc 1 331 0
 685 0206 0022     		movs	r2, #0
ARM GAS  C:\Users\AHMED~1.ELE\AppData\Local\Temp\ccFUpfoi.s 			page 23


 686 0208 3A4B     		ldr	r3, .L204
 687 020a 9A60     		str	r2, [r3, #8]
 688              	.L84:
 333:src/inittran.c ****             if (iSaveAcqCount > 0) {
 689              		.loc 1 333 0
 690 020c FFF7FEFF 		bl	GetAcqCount
 691              	.LVL97:
 334:src/inittran.c ****               psBatchNo = (struct BATCH_NO *) MallocMW(sizeof(struct BATCH_NO)*iSaveAcqCount);
 692              		.loc 1 334 0
 693 0210 0028     		cmp	r0, #0
 333:src/inittran.c ****             if (iSaveAcqCount > 0) {
 694              		.loc 1 333 0
 695 0212 0146     		mov	r1, r0
 696 0214 F060     		str	r0, [r6, #12]
 334:src/inittran.c ****               psBatchNo = (struct BATCH_NO *) MallocMW(sizeof(struct BATCH_NO)*iSaveAcqCount);
 697              		.loc 1 334 0
 698 0216 59DC     		bgt	.L85
 699              	.LVL98:
 700              	.L88:
 340:src/inittran.c ****             CloseSTISFiles();
 701              		.loc 1 340 0
 702 0218 0025     		movs	r5, #0
 703 021a 1321     		movs	r1, #19
 704 021c 2A46     		mov	r2, r5
 705 021e 2B46     		mov	r3, r5
 706 0220 0095     		str	r5, [sp]
 707 0222 0F20     		movs	r0, #15
 708 0224 FFF7FEFF 		bl	lib_app_call
 709              	.LVL99:
 341:src/inittran.c ****             CreateSTISFiles();
 710              		.loc 1 341 0
 711 0228 FFF7FEFF 		bl	CloseSTISFiles
 712              	.LVL100:
 342:src/inittran.c ****             SetSTISMode(INIT_MODE);
 713              		.loc 1 342 0
 714 022c FFF7FEFF 		bl	CreateSTISFiles
 715              	.LVL101:
 343:src/inittran.c ****             fCommitAllMW();
 716              		.loc 1 343 0
 717 0230 0120     		movs	r0, #1
 718 0232 FFF7FEFF 		bl	SetSTISMode
 719              	.LVL102:
 344:src/inittran.c ****             break;
 720              		.loc 1 344 0
 721 0236 0095     		str	r5, [sp]
 722 0238 0F20     		movs	r0, #15
 723 023a 1321     		movs	r1, #19
 724 023c 2A46     		mov	r2, r5
 725 023e 2B46     		mov	r3, r5
 726 0240 FFF7FEFF 		bl	lib_app_call
 727              	.LVL103:
 728              	.L68:
 539:src/inittran.c ****       }
 729              		.loc 1 539 0
 730 0244 4046     		mov	r0, r8
 731 0246 FFF7FEFF 		bl	inc_pptr
 732              	.LVL104:
ARM GAS  C:\Users\AHMED~1.ELE\AppData\Local\Temp\ccFUpfoi.s 			page 24


 733              	.L67:
 323:src/inittran.c ****         sub_type = (BYTE)get_byte(); // sub-type
 734              		.loc 1 323 0
 735 024a FFF7FEFF 		bl	get_pptr
 736              	.LVL105:
 737 024e 8145     		cmp	r9, r0
 738 0250 AED9     		bls	.L66
 324:src/inittran.c ****         sub_field_len = (WORD)bcd2bin(get_word());
 739              		.loc 1 324 0
 740 0252 FFF7FEFF 		bl	get_byte
 741              	.LVL106:
 742 0256 0546     		mov	r5, r0
 743              	.LVL107:
 325:src/inittran.c ****         i = (BYTE)bcd2bin(peek_byte());
 744              		.loc 1 325 0
 745 0258 FFF7FEFF 		bl	get_word
 746              	.LVL108:
 747 025c FFF7FEFF 		bl	bcd2bin
 748              	.LVL109:
 749 0260 1FFA80F8 		uxth	r8, r0
 750              	.LVL110:
 326:src/inittran.c ****         switch (sub_type) {
 751              		.loc 1 326 0
 752 0264 FFF7FEFF 		bl	peek_byte
 753              	.LVL111:
 754 0268 FFF7FEFF 		bl	bcd2bin
 755              	.LVL112:
 756 026c EBB2     		uxtb	r3, r5
 757 026e C0B2     		uxtb	r0, r0
 758              	.LVL113:
 327:src/inittran.c ****           case 0:
 759              		.loc 1 327 0
 760 0270 132B     		cmp	r3, #19
 761 0272 E7D8     		bhi	.L68
 762 0274 01A2     		adr	r2, .L70
 763 0276 52F823F0 		ldr	pc, [r2, r3, lsl #2]
 764 027a 00BF     		.p2align 2
 765              	.L70:
 766 027c FD010000 		.word	.L69+1
 767 0280 DF010000 		.word	.L71+1
 768 0284 6F030000 		.word	.L72+1
 769 0288 A9030000 		.word	.L73+1
 770 028c DF030000 		.word	.L74+1
 771 0290 73040000 		.word	.L75+1
 772 0294 9D040000 		.word	.L76+1
 773 0298 E5040000 		.word	.L77+1
 774 029c 03050000 		.word	.L78+1
 775 02a0 A1050000 		.word	.L79+1
 776 02a4 45020000 		.word	.L68+1
 777 02a8 45020000 		.word	.L68+1
 778 02ac 45020000 		.word	.L68+1
 779 02b0 45020000 		.word	.L68+1
 780 02b4 45020000 		.word	.L68+1
 781 02b8 45020000 		.word	.L68+1
 782 02bc 39060000 		.word	.L80+1
 783 02c0 4B060000 		.word	.L81+1
 784 02c4 5B060000 		.word	.L82+1
ARM GAS  C:\Users\AHMED~1.ELE\AppData\Local\Temp\ccFUpfoi.s 			page 25


 785 02c8 75060000 		.word	.L83+1
 786              	.LVL114:
 787              		.p2align 1
 788              	.L85:
 335:src/inittran.c ****               for (i = 0; i < iSaveAcqCount; i++) {
 789              		.loc 1 335 0
 790 02cc 9220     		movs	r0, #146
 791 02ce C900     		lsls	r1, r1, #3
 792 02d0 FFF7FEFF 		bl	sys_func1
 793              	.LVL115:
 336:src/inittran.c ****                 GetBatchNo(i, psBatchNo[i].sb_curr);
 794              		.loc 1 336 0
 795 02d4 0025     		movs	r5, #0
 796              	.LVL116:
 335:src/inittran.c ****               for (i = 0; i < iSaveAcqCount; i++) {
 797              		.loc 1 335 0
 798 02d6 074B     		ldr	r3, .L204
 799 02d8 9860     		str	r0, [r3, #8]
 800              	.LVL117:
 801              	.L86:
 336:src/inittran.c ****                 GetBatchNo(i, psBatchNo[i].sb_curr);
 802              		.loc 1 336 0 discriminator 1
 803 02da F368     		ldr	r3, [r6, #12]
 804 02dc 9D42     		cmp	r5, r3
 805 02de 9BDA     		bge	.L88
 337:src/inittran.c ****               }
 806              		.loc 1 337 0 discriminator 3
 807 02e0 044B     		ldr	r3, .L204
 808 02e2 2846     		mov	r0, r5
 809 02e4 9968     		ldr	r1, [r3, #8]
 810 02e6 01EBC501 		add	r1, r1, r5, lsl #3
 811 02ea FFF7FEFF 		bl	GetBatchNo
 812              	.LVL118:
 336:src/inittran.c ****                 GetBatchNo(i, psBatchNo[i].sb_curr);
 813              		.loc 1 336 0 discriminator 3
 814 02ee 0135     		adds	r5, r5, #1
 815              	.LVL119:
 816 02f0 F3E7     		b	.L86
 817              	.L205:
 818 02f2 00BF     		.align	2
 819              	.L204:
 820 02f4 00000000 		.word	.LANCHOR0
 821 02f8 00000000 		.word	gCommParam
 822 02fc 00000000 		.word	gsTransData
 823 0300 00000000 		.word	KTransBitmap
 824 0304 09000000 		.word	gsTransData+9
 825 0308 1B000000 		.word	gsTransData+27
 826 030c 19000000 		.word	gsTransData+25
 827 0310 24000000 		.word	gsTransData+36
 828 0314 1E000000 		.word	gsTransData+30
 829 0318 0C000000 		.word	gsTransData+12
 830              	.LVL120:
 831              	.L89:
 351:src/inittran.c ****             memcpy(&gsTransData.s_rsp_data.b_year, ((struct TERM_CFG*)p_mem)->sb_date_time, 6);
 832              		.loc 1 351 0
 833 031c FFF7FEFF 		bl	get_pptr
 834              	.LVL121:
ARM GAS  C:\Users\AHMED~1.ELE\AppData\Local\Temp\ccFUpfoi.s 			page 26


 835 0320 4FF4C472 		mov	r2, #392
 836 0324 0146     		mov	r1, r0
 837 0326 2846     		mov	r0, r5
 838 0328 FFF7FEFF 		bl	memcpy
 839              	.LVL122:
 352:src/inittran.c ****             ReadRTC(&dtg);
 840              		.loc 1 352 0
 841 032c 291D     		adds	r1, r5, #4
 842 032e 0622     		movs	r2, #6
 843 0330 DB48     		ldr	r0, .L206
 844 0332 FFF7FEFF 		bl	memcpy
 845              	.LVL123:
 353:src/inittran.c ****             memcpy(&dtg.bYear, &gsTransData.s_rsp_data.b_year, 6);
 846              		.loc 1 353 0
 847 0336 02A8     		add	r0, sp, #8
 848 0338 FFF7FEFF 		bl	ReadRTC
 849              	.LVL124:
 354:src/inittran.c ****             SetRTC(&dtg);
 850              		.loc 1 354 0
 851 033c D849     		ldr	r1, .L206
 852 033e 0622     		movs	r2, #6
 853 0340 0DF10900 		add	r0, sp, #9
 854 0344 FFF7FEFF 		bl	memcpy
 855              	.LVL125:
 355:src/inittran.c ****             ((struct TERM_CFG*)p_mem)->b_trans_amount_len = (BYTE)bcd2bin(((struct TERM_CFG*)p_mem)
 856              		.loc 1 355 0
 857 0348 02A8     		add	r0, sp, #8
 858 034a FFF7FEFF 		bl	SetRTC
 859              	.LVL126:
 356:src/inittran.c ****             ((struct TERM_CFG*)p_mem)->b_settle_amount_len = (BYTE)bcd2bin(((struct TERM_CFG*)p_mem
 860              		.loc 1 356 0
 861 034e 95F86300 		ldrb	r0, [r5, #99]	@ zero_extendqisi2
 862 0352 FFF7FEFF 		bl	bcd2bin
 863              	.LVL127:
 864 0356 85F86300 		strb	r0, [r5, #99]
 357:src/inittran.c ****             UpdTermCfg((struct TERM_CFG*)p_mem);
 865              		.loc 1 357 0
 866 035a 95F86600 		ldrb	r0, [r5, #102]	@ zero_extendqisi2
 867 035e FFF7FEFF 		bl	bcd2bin
 868              	.LVL128:
 869 0362 85F86600 		strb	r0, [r5, #102]
 358:src/inittran.c ****             FreeMW(p_mem);
 870              		.loc 1 358 0
 871 0366 2846     		mov	r0, r5
 872 0368 FFF7FEFF 		bl	UpdTermCfg
 873              	.LVL129:
 874 036c CBE1     		b	.L197
 875              	.LVL130:
 876              	.L72:
 362:src/inittran.c ****               gsTransData.s_rsp_data.w_rspcode = 'D'*256+'E';
 877              		.loc 1 362 0
 878 036e 9220     		movs	r0, #146
 879              	.LVL131:
 880 0370 2421     		movs	r1, #36
 881 0372 FFF7FEFF 		bl	sys_func1
 882              	.LVL132:
 883 0376 0546     		mov	r5, r0
ARM GAS  C:\Users\AHMED~1.ELE\AppData\Local\Temp\ccFUpfoi.s 			page 27


 884              	.LVL133:
 885 0378 0028     		cmp	r0, #0
 886 037a 3FF439AF 		beq	.L90
 366:src/inittran.c ****             // convert idx into HEX for storage
 887              		.loc 1 366 0
 888 037e FFF7FEFF 		bl	get_pptr
 889              	.LVL134:
 890 0382 2422     		movs	r2, #36
 891 0384 411C     		adds	r1, r0, #1
 892 0386 2846     		mov	r0, r5
 893 0388 FFF7FEFF 		bl	memcpy
 894              	.LVL135:
 368:src/inittran.c ****             ((struct CARD_TBL*)p_mem)->b_issuer_id = (BYTE)bcd2bin(((struct CARD_TBL*)p_mem)->b_iss
 895              		.loc 1 368 0
 896 038c E87A     		ldrb	r0, [r5, #11]	@ zero_extendqisi2
 897 038e FFF7FEFF 		bl	bcd2bin
 898              	.LVL136:
 899 0392 E872     		strb	r0, [r5, #11]
 369:src/inittran.c ****             //26-08-14 JC ++
 900              		.loc 1 369 0
 901 0394 A87A     		ldrb	r0, [r5, #10]	@ zero_extendqisi2
 902 0396 FFF7FEFF 		bl	bcd2bin
 903              	.LVL137:
 904 039a A872     		strb	r0, [r5, #10]
 373:src/inittran.c ****             UpdCardTbl(card_index, (struct CARD_TBL*)p_mem);
 905              		.loc 1 373 0
 906 039c FFF7FEFF 		bl	GetCardCount
 907              	.LVL138:
 374:src/inittran.c ****             //26-08-14 JC --
 908              		.loc 1 374 0
 909 03a0 2946     		mov	r1, r5
 910 03a2 FFF7FEFF 		bl	UpdCardTbl
 911              	.LVL139:
 912 03a6 AEE1     		b	.L197
 913              	.LVL140:
 914              	.L73:
 379:src/inittran.c ****             if ((p_mem = (void *)MallocMW(sizeof(struct ISSUER_TBL))) == NULL) {
 915              		.loc 1 379 0
 916 03a8 451E     		subs	r5, r0, #1
 917              	.LVL141:
 380:src/inittran.c ****               gsTransData.s_rsp_data.w_rspcode = 'D'*256+'E';
 918              		.loc 1 380 0
 919 03aa 3821     		movs	r1, #56
 920 03ac 9220     		movs	r0, #146
 921 03ae FFF7FEFF 		bl	sys_func1
 922              	.LVL142:
 923 03b2 8246     		mov	r10, r0
 924 03b4 0028     		cmp	r0, #0
 925 03b6 3FF41BAF 		beq	.L90
 384:src/inittran.c ****             // convert idx into HEX for storage
 926              		.loc 1 384 0
 927 03ba FFF7FEFF 		bl	get_pptr
 928              	.LVL143:
 929 03be 3822     		movs	r2, #56
 930 03c0 411C     		adds	r1, r0, #1
 931 03c2 5046     		mov	r0, r10
 932 03c4 FFF7FEFF 		bl	memcpy
ARM GAS  C:\Users\AHMED~1.ELE\AppData\Local\Temp\ccFUpfoi.s 			page 28


 933              	.LVL144:
 386:src/inittran.c ****             UpdIssuerTbl(i, (struct ISSUER_TBL*)p_mem);
 934              		.loc 1 386 0
 935 03c8 9AF80000 		ldrb	r0, [r10]	@ zero_extendqisi2
 936 03cc FFF7FEFF 		bl	bcd2bin
 937              	.LVL145:
 387:src/inittran.c ****             FreeMW(p_mem);
 938              		.loc 1 387 0
 939 03d0 5146     		mov	r1, r10
 386:src/inittran.c ****             UpdIssuerTbl(i, (struct ISSUER_TBL*)p_mem);
 940              		.loc 1 386 0
 941 03d2 8AF80000 		strb	r0, [r10]
 387:src/inittran.c ****             FreeMW(p_mem);
 942              		.loc 1 387 0
 943 03d6 2846     		mov	r0, r5
 944 03d8 FFF7FEFF 		bl	UpdIssuerTbl
 945              	.LVL146:
 946 03dc 46E0     		b	.L203
 947              	.LVL147:
 948              	.L74:
 391:src/inittran.c ****             if ((p_mem = (void *)MallocMW(sizeof(struct ACQUIRER_TBL))) == NULL) {
 949              		.loc 1 391 0
 950 03de 451E     		subs	r5, r0, #1
 951              	.LVL148:
 392:src/inittran.c ****               gsTransData.s_rsp_data.w_rspcode = 'D'*256+'E';
 952              		.loc 1 392 0
 953 03e0 AC21     		movs	r1, #172
 954 03e2 9220     		movs	r0, #146
 955 03e4 FFF7FEFF 		bl	sys_func1
 956              	.LVL149:
 957 03e8 8246     		mov	r10, r0
 958 03ea 0028     		cmp	r0, #0
 959 03ec 3FF400AF 		beq	.L90
 396:src/inittran.c ****             // convert idx into HEX for storage
 960              		.loc 1 396 0
 961 03f0 FFF7FEFF 		bl	get_pptr
 962              	.LVL150:
 963 03f4 AC22     		movs	r2, #172
 398:src/inittran.c ****             if ((skpb(((struct ACQUIRER_TBL*)p_mem)->sb_curr_batch_no, 0, 3) == 3) && (i < iSaveAcq
 964              		.loc 1 398 0
 965 03f6 D346     		mov	fp, r10
 396:src/inittran.c ****             // convert idx into HEX for storage
 966              		.loc 1 396 0
 967 03f8 411C     		adds	r1, r0, #1
 968 03fa 5046     		mov	r0, r10
 969 03fc FFF7FEFF 		bl	memcpy
 970              	.LVL151:
 398:src/inittran.c ****             if ((skpb(((struct ACQUIRER_TBL*)p_mem)->sb_curr_batch_no, 0, 3) == 3) && (i < iSaveAcq
 971              		.loc 1 398 0
 972 0400 9AF80000 		ldrb	r0, [r10]	@ zero_extendqisi2
 973 0404 FFF7FEFF 		bl	bcd2bin
 974              	.LVL152:
 399:src/inittran.c ****               memcpy(((struct ACQUIRER_TBL*)p_mem)->sb_curr_batch_no, (BYTE *)&psBatchNo[i].sb_curr
 975              		.loc 1 399 0
 976 0408 0322     		movs	r2, #3
 977 040a 0021     		movs	r1, #0
 398:src/inittran.c ****             if ((skpb(((struct ACQUIRER_TBL*)p_mem)->sb_curr_batch_no, 0, 3) == 3) && (i < iSaveAcq
ARM GAS  C:\Users\AHMED~1.ELE\AppData\Local\Temp\ccFUpfoi.s 			page 29


 978              		.loc 1 398 0
 979 040c 0BF86C0B 		strb	r0, [fp], #108
 399:src/inittran.c ****               memcpy(((struct ACQUIRER_TBL*)p_mem)->sb_curr_batch_no, (BYTE *)&psBatchNo[i].sb_curr
 980              		.loc 1 399 0
 981 0410 5846     		mov	r0, fp
 982 0412 FFF7FEFF 		bl	skpb
 983              	.LVL153:
 984 0416 0328     		cmp	r0, #3
 985 0418 0246     		mov	r2, r0
 986 041a 09D1     		bne	.L91
 399:src/inittran.c ****               memcpy(((struct ACQUIRER_TBL*)p_mem)->sb_curr_batch_no, (BYTE *)&psBatchNo[i].sb_curr
 987              		.loc 1 399 0 is_stmt 0 discriminator 1
 988 041c F368     		ldr	r3, [r6, #12]
 989 041e 9D42     		cmp	r5, r3
 990 0420 06DA     		bge	.L91
 400:src/inittran.c ****             if ((skpb(((struct ACQUIRER_TBL*)p_mem)->sb_next_batch_no, 0, 3) == 3) && (i < iSaveAcq
 991              		.loc 1 400 0 is_stmt 1
 992 0422 A04B     		ldr	r3, .L206+4
 993 0424 5846     		mov	r0, fp
 994 0426 9968     		ldr	r1, [r3, #8]
 995 0428 01EBC501 		add	r1, r1, r5, lsl #3
 996 042c FFF7FEFF 		bl	memcpy
 997              	.LVL154:
 998              	.L91:
 401:src/inittran.c ****               memcpy(((struct ACQUIRER_TBL*)p_mem)->sb_next_batch_no, (BYTE *)&psBatchNo[i].sb_next
 999              		.loc 1 401 0
 1000 0430 0AF16F0B 		add	fp, r10, #111
 1001 0434 0322     		movs	r2, #3
 1002 0436 5846     		mov	r0, fp
 1003 0438 0021     		movs	r1, #0
 1004 043a FFF7FEFF 		bl	skpb
 1005              	.LVL155:
 1006 043e 0328     		cmp	r0, #3
 1007 0440 0246     		mov	r2, r0
 1008 0442 0AD1     		bne	.L92
 401:src/inittran.c ****               memcpy(((struct ACQUIRER_TBL*)p_mem)->sb_next_batch_no, (BYTE *)&psBatchNo[i].sb_next
 1009              		.loc 1 401 0 is_stmt 0 discriminator 1
 1010 0444 F368     		ldr	r3, [r6, #12]
 1011 0446 9D42     		cmp	r5, r3
 1012 0448 07DA     		bge	.L92
 402:src/inittran.c ****             ((struct ACQUIRER_TBL*)p_mem)->b_status=UP;
 1013              		.loc 1 402 0 is_stmt 1
 1014 044a 964B     		ldr	r3, .L206+4
 1015 044c 5846     		mov	r0, fp
 1016 044e 9968     		ldr	r1, [r3, #8]
 1017 0450 01EBC501 		add	r1, r1, r5, lsl #3
 1018 0454 0331     		adds	r1, r1, #3
 1019 0456 FFF7FEFF 		bl	memcpy
 1020              	.LVL156:
 1021              	.L92:
 403:src/inittran.c ****             ((struct ACQUIRER_TBL*)p_mem)->b_pending=NO_PENDING;
 1022              		.loc 1 403 0
 1023 045a 0023     		movs	r3, #0
 405:src/inittran.c ****             FreeMW(p_mem);
 1024              		.loc 1 405 0
 1025 045c 2846     		mov	r0, r5
 403:src/inittran.c ****             ((struct ACQUIRER_TBL*)p_mem)->b_pending=NO_PENDING;
ARM GAS  C:\Users\AHMED~1.ELE\AppData\Local\Temp\ccFUpfoi.s 			page 30


 1026              		.loc 1 403 0
 1027 045e 8AF8A830 		strb	r3, [r10, #168]
 404:src/inittran.c ****             UpdAcqTbl(i, (struct ACQUIRER_TBL*)p_mem);
 1028              		.loc 1 404 0
 1029 0462 8AF8A930 		strb	r3, [r10, #169]
 405:src/inittran.c ****             FreeMW(p_mem);
 1030              		.loc 1 405 0
 1031 0466 5146     		mov	r1, r10
 1032 0468 FFF7FEFF 		bl	UpdAcqTbl
 1033              	.LVL157:
 1034              	.L203:
 406:src/inittran.c ****             break;
 1035              		.loc 1 406 0
 1036 046c 9420     		movs	r0, #148
 1037 046e 5146     		mov	r1, r10
 1038 0470 4BE1     		b	.L198
 1039              	.LVL158:
 1040              	.L75:
 409:src/inittran.c ****             if ((p_mem = (void *)MallocMW(sizeof(struct DESC_TBL))) == NULL) {
 1041              		.loc 1 409 0
 1042 0472 451E     		subs	r5, r0, #1
 1043              	.LVL159:
 410:src/inittran.c ****               gsTransData.s_rsp_data.w_rspcode = 'D'*256+'E';
 1044              		.loc 1 410 0
 1045 0474 1C21     		movs	r1, #28
 1046 0476 9220     		movs	r0, #146
 1047 0478 FFF7FEFF 		bl	sys_func1
 1048              	.LVL160:
 1049 047c 8246     		mov	r10, r0
 1050 047e 0028     		cmp	r0, #0
 1051 0480 3FF4B6AE 		beq	.L90
 414:src/inittran.c ****             UpdDescTbl(i, (struct DESC_TBL*)p_mem);
 1052              		.loc 1 414 0
 1053 0484 FFF7FEFF 		bl	get_pptr
 1054              	.LVL161:
 1055 0488 1C22     		movs	r2, #28
 1056 048a 411C     		adds	r1, r0, #1
 1057 048c 5046     		mov	r0, r10
 1058 048e FFF7FEFF 		bl	memcpy
 1059              	.LVL162:
 415:src/inittran.c ****             FreeMW(p_mem);
 1060              		.loc 1 415 0
 1061 0492 2846     		mov	r0, r5
 1062 0494 5146     		mov	r1, r10
 1063 0496 FFF7FEFF 		bl	UpdDescTbl
 1064              	.LVL163:
 1065 049a E7E7     		b	.L203
 1066              	.LVL164:
 1067              	.L76:
 419:src/inittran.c ****               if ((p_mem = (void *)MallocMW(sizeof(struct LOGO_TBL))) == NULL) {
 1068              		.loc 1 419 0
 1069 049c B8F18F0F 		cmp	r8, #143
 1070 04a0 3FF4D0AE 		beq	.L68
 420:src/inittran.c ****                 gsTransData.s_rsp_data.w_rspcode = 'D'*256+'E';
 1071              		.loc 1 420 0
 1072 04a4 9220     		movs	r0, #146
 1073              	.LVL165:
ARM GAS  C:\Users\AHMED~1.ELE\AppData\Local\Temp\ccFUpfoi.s 			page 31


 1074 04a6 4FF4C271 		mov	r1, #388
 1075 04aa FFF7FEFF 		bl	sys_func1
 1076              	.LVL166:
 1077 04ae 0546     		mov	r5, r0
 1078              	.LVL167:
 1079 04b0 0028     		cmp	r0, #0
 1080 04b2 3FF49DAE 		beq	.L90
 424:src/inittran.c ****               ((struct LOGO_TBL*)p_mem)->b_flag = 0x01;
 1081              		.loc 1 424 0
 1082 04b6 FFF7FEFF 		bl	get_pptr
 1083              	.LVL168:
 425:src/inittran.c ****               ((struct LOGO_TBL*)p_mem)->b_type = *(get_pptr()+1);
 1084              		.loc 1 425 0
 1085 04ba 0123     		movs	r3, #1
 424:src/inittran.c ****               ((struct LOGO_TBL*)p_mem)->b_flag = 0x01;
 1086              		.loc 1 424 0
 1087 04bc 90F800A0 		ldrb	r10, [r0]	@ zero_extendqisi2
 1088              	.LVL169:
 425:src/inittran.c ****               ((struct LOGO_TBL*)p_mem)->b_type = *(get_pptr()+1);
 1089              		.loc 1 425 0
 1090 04c0 2B70     		strb	r3, [r5]
 426:src/inittran.c ****               memcpy(((struct LOGO_TBL*)p_mem)->sb_image, get_pptr()+2, sub_field_len-2);
 1091              		.loc 1 426 0
 1092 04c2 FFF7FEFF 		bl	get_pptr
 1093              	.LVL170:
 1094 04c6 4378     		ldrb	r3, [r0, #1]	@ zero_extendqisi2
 1095 04c8 6B70     		strb	r3, [r5, #1]
 427:src/inittran.c ****               UpdLogoTbl(logo_index, (struct LOGO_TBL*)p_mem);
 1096              		.loc 1 427 0
 1097 04ca FFF7FEFF 		bl	get_pptr
 1098              	.LVL171:
 1099 04ce A8F10202 		sub	r2, r8, #2
 1100 04d2 811C     		adds	r1, r0, #2
 1101 04d4 A81C     		adds	r0, r5, #2
 1102 04d6 FFF7FEFF 		bl	memcpy
 1103              	.LVL172:
 428:src/inittran.c ****               FreeMW(p_mem);
 1104              		.loc 1 428 0
 1105 04da 5046     		mov	r0, r10
 1106 04dc 2946     		mov	r1, r5
 1107 04de FFF7FEFF 		bl	UpdLogoTbl
 1108              	.LVL173:
 1109 04e2 10E1     		b	.L197
 1110              	.LVL174:
 1111              	.L77:
 433:src/inittran.c ****                 (gsTransData.s_rsp_data.w_rspcode!=('0'*256+'0')))
 1112              		.loc 1 433 0
 1113 04e4 6379     		ldrb	r3, [r4, #5]	@ zero_extendqisi2
 1114 04e6 012B     		cmp	r3, #1
 1115 04e8 02D0     		beq	.L93
 433:src/inittran.c ****                 (gsTransData.s_rsp_data.w_rspcode!=('0'*256+'0')))
 1116              		.loc 1 433 0 is_stmt 0 discriminator 1
 1117 04ea 042B     		cmp	r3, #4
 1118 04ec 7FF4AAAE 		bne	.L68
 1119              	.L93:
 433:src/inittran.c ****                 (gsTransData.s_rsp_data.w_rspcode!=('0'*256+'0')))
 1120              		.loc 1 433 0 discriminator 3
ARM GAS  C:\Users\AHMED~1.ELE\AppData\Local\Temp\ccFUpfoi.s 			page 32


 1121 04f0 B4F87620 		ldrh	r2, [r4, #118]
 1122 04f4 43F23003 		movw	r3, #12336
 1123 04f8 9A42     		cmp	r2, r3
 1124 04fa 7FF4A3AE 		bne	.L68
 436:src/inittran.c ****             break;
 1125              		.loc 1 436 0 is_stmt 1
 1126 04fe C020     		movs	r0, #192
 1127              	.LVL175:
 1128 0500 A8E0     		b	.L199
 1129              	.LVL176:
 1130              	.L78:
 439:src/inittran.c ****                 (gsTransData.s_rsp_data.w_rspcode!=('0'*256+'0')))
 1131              		.loc 1 439 0
 1132 0502 6379     		ldrb	r3, [r4, #5]	@ zero_extendqisi2
 1133 0504 052B     		cmp	r3, #5
 1134 0506 3FF49DAE 		beq	.L68
 439:src/inittran.c ****                 (gsTransData.s_rsp_data.w_rspcode!=('0'*256+'0')))
 1135              		.loc 1 439 0 is_stmt 0 discriminator 1
 1136 050a 032B     		cmp	r3, #3
 1137 050c 3FF49AAE 		beq	.L68
 439:src/inittran.c ****                 (gsTransData.s_rsp_data.w_rspcode!=('0'*256+'0')))
 1138              		.loc 1 439 0 discriminator 2
 1139 0510 654B     		ldr	r3, .L206+8
 1140 0512 B3F87620 		ldrh	r2, [r3, #118]
 1141 0516 43F23003 		movw	r3, #12336
 1142 051a 9A42     		cmp	r2, r3
 1143 051c 7FF492AE 		bne	.L68
 442:src/inittran.c ****               pDat = get_pptr();
 1144              		.loc 1 442 0 is_stmt 1
 1145 0520 B8F1DF0F 		cmp	r8, #223
 1146 0524 7FF464AE 		bne	.L90
 443:src/inittran.c ****               app_cfg.eType = *pDat++;
 1147              		.loc 1 443 0
 1148 0528 FFF7FEFF 		bl	get_pptr
 1149              	.LVL177:
 444:src/inittran.c ****               tmp = *pDat++;
 1150              		.loc 1 444 0
 1151 052c 0378     		ldrb	r3, [r0]	@ zero_extendqisi2
 443:src/inittran.c ****               app_cfg.eType = *pDat++;
 1152              		.loc 1 443 0
 1153 052e 0546     		mov	r5, r0
 1154              	.LVL178:
 444:src/inittran.c ****               tmp = *pDat++;
 1155              		.loc 1 444 0
 1156 0530 8DF83031 		strb	r3, [sp, #304]
 1157              	.LVL179:
 445:src/inittran.c ****               app_cfg.eBitField = tmp;
 1158              		.loc 1 445 0
 1159 0534 4378     		ldrb	r3, [r0, #1]	@ zero_extendqisi2
 1160              	.LVL180:
 447:src/inittran.c ****               pDat+= 4;
 1161              		.loc 1 447 0
 1162 0536 0230     		adds	r0, r0, #2
 1163              	.LVL181:
 446:src/inittran.c ****               app_cfg.eRSBThresh = DWGet(pDat);
 1164              		.loc 1 446 0
 1165 0538 8DF83131 		strb	r3, [sp, #305]
ARM GAS  C:\Users\AHMED~1.ELE\AppData\Local\Temp\ccFUpfoi.s 			page 33


 447:src/inittran.c ****               pDat+= 4;
 1166              		.loc 1 447 0
 1167 053c FFF7FEFF 		bl	DWGet
 1168              	.LVL182:
 451:src/inittran.c ****               pDat += 5;
 1169              		.loc 1 451 0
 1170 0540 05F10801 		add	r1, r5, #8
 1171 0544 0522     		movs	r2, #5
 447:src/inittran.c ****               pDat+= 4;
 1172              		.loc 1 447 0
 1173 0546 ADF83201 		strh	r0, [sp, #306]	@ movhi
 1174 054a 000C     		lsrs	r0, r0, #16
 1175 054c ADF83401 		strh	r0, [sp, #308]	@ movhi
 1176              	.LVL183:
 449:src/inittran.c ****               app_cfg.eRSBMax = *pDat++;
 1177              		.loc 1 449 0
 1178 0550 AB79     		ldrb	r3, [r5, #6]	@ zero_extendqisi2
 451:src/inittran.c ****               pDat += 5;
 1179              		.loc 1 451 0
 1180 0552 4EA8     		add	r0, sp, #312
 449:src/inittran.c ****               app_cfg.eRSBMax = *pDat++;
 1181              		.loc 1 449 0
 1182 0554 8DF83631 		strb	r3, [sp, #310]
 450:src/inittran.c ****               memcpy(app_cfg.eTACDenial, pDat, 5);
 1183              		.loc 1 450 0
 1184 0558 EB79     		ldrb	r3, [r5, #7]	@ zero_extendqisi2
 1185 055a 8DF83731 		strb	r3, [sp, #311]
 451:src/inittran.c ****               pDat += 5;
 1186              		.loc 1 451 0
 1187 055e FFF7FEFF 		bl	memcpy
 1188              	.LVL184:
 453:src/inittran.c ****               pDat += 5;
 1189              		.loc 1 453 0
 1190 0562 4CAB     		add	r3, sp, #304
 1191 0564 03F10D00 		add	r0, r3, #13
 1192 0568 05F10D01 		add	r1, r5, #13
 1193 056c 0522     		movs	r2, #5
 1194 056e FFF7FEFF 		bl	memcpy
 1195              	.LVL185:
 455:src/inittran.c ****               pDat += 5;
 1196              		.loc 1 455 0
 1197 0572 05F11201 		add	r1, r5, #18
 1198 0576 0522     		movs	r2, #5
 1199 0578 0DF5A170 		add	r0, sp, #322
 1200 057c FFF7FEFF 		bl	memcpy
 1201              	.LVL186:
 457:src/inittran.c ****               EMVData2DnloadBuf(IOCMD_LOAD_AID, (BYTE *)&app_cfg, sizeof(APP_CFG));
 1202              		.loc 1 457 0
 1203 0580 4CAB     		add	r3, sp, #304
 1204 0582 03F11700 		add	r0, r3, #23
 1205 0586 05F11701 		add	r1, r5, #23
 1206              	.LVL187:
 1207 058a C822     		movs	r2, #200
 1208 058c FFF7FEFF 		bl	memcpy
 1209              	.LVL188:
 458:src/inittran.c ****               SetEMVLoaded(0x01); // lower nibble for status
 1210              		.loc 1 458 0
ARM GAS  C:\Users\AHMED~1.ELE\AppData\Local\Temp\ccFUpfoi.s 			page 34


 1211 0590 0420     		movs	r0, #4
 1212 0592 4CA9     		add	r1, sp, #304
 1213 0594 40F21722 		movw	r2, #535
 1214 0598 FFF7FEFF 		bl	EMVData2DnloadBuf
 1215              	.LVL189:
 459:src/inittran.c ****             }
 1216              		.loc 1 459 0
 1217 059c 0120     		movs	r0, #1
 1218 059e 59E0     		b	.L199
 1219              	.LVL190:
 1220              	.L79:
 467:src/inittran.c ****                 ((gsTransData.s_rsp_data.w_rspcode!='0'*256+'0')&&(gsTransData.s_rsp_data.w_rspcode
 1221              		.loc 1 467 0
 1222 05a0 6379     		ldrb	r3, [r4, #5]	@ zero_extendqisi2
 1223 05a2 052B     		cmp	r3, #5
 1224 05a4 3FF44EAE 		beq	.L68
 468:src/inittran.c ****               break;
 1225              		.loc 1 468 0 discriminator 1
 1226 05a8 3F4B     		ldr	r3, .L206+8
 467:src/inittran.c ****                 ((gsTransData.s_rsp_data.w_rspcode!='0'*256+'0')&&(gsTransData.s_rsp_data.w_rspcode
 1227              		.loc 1 467 0 discriminator 1
 1228 05aa 43F23002 		movw	r2, #12336
 468:src/inittran.c ****               break;
 1229              		.loc 1 468 0 discriminator 1
 1230 05ae B3F87630 		ldrh	r3, [r3, #118]
 467:src/inittran.c ****                 ((gsTransData.s_rsp_data.w_rspcode!='0'*256+'0')&&(gsTransData.s_rsp_data.w_rspcode
 1231              		.loc 1 467 0 discriminator 1
 1232 05b2 9342     		cmp	r3, r2
 1233 05b4 04D0     		beq	.L94
 468:src/inittran.c ****               break;
 1234              		.loc 1 468 0
 1235 05b6 45F63122 		movw	r2, #23089
 1236 05ba 9342     		cmp	r3, r2
 1237 05bc 7FF442AE 		bne	.L68
 1238              	.L94:
 470:src/inittran.c ****               pDat = get_pptr();
 1239              		.loc 1 470 0
 1240 05c0 40F21313 		movw	r3, #275
 1241 05c4 9845     		cmp	r8, r3
 1242 05c6 7FF413AE 		bne	.L90
 471:src/inittran.c ****               key_room.KeyIdx = *pDat++;
 1243              		.loc 1 471 0
 1244 05ca FFF7FEFF 		bl	get_pptr
 1245              	.LVL191:
 473:src/inittran.c ****               pDat += 5;
 1246              		.loc 1 473 0
 1247 05ce 0522     		movs	r2, #5
 472:src/inittran.c ****               memcpy(key_room.RID, pDat, 5);
 1248              		.loc 1 472 0
 1249 05d0 0146     		mov	r1, r0
 471:src/inittran.c ****               key_room.KeyIdx = *pDat++;
 1250              		.loc 1 471 0
 1251 05d2 0546     		mov	r5, r0
 1252              	.LVL192:
 472:src/inittran.c ****               memcpy(key_room.RID, pDat, 5);
 1253              		.loc 1 472 0
 1254 05d4 11F8013B 		ldrb	r3, [r1], #1	@ zero_extendqisi2
ARM GAS  C:\Users\AHMED~1.ELE\AppData\Local\Temp\ccFUpfoi.s 			page 35


 1255              	.LVL193:
 1256 05d8 06A8     		add	r0, sp, #24
 1257 05da 00F8013B 		strb	r3, [r0], #1
 473:src/inittran.c ****               pDat += 5;
 1258              		.loc 1 473 0
 1259 05de FFF7FEFF 		bl	memcpy
 1260              	.LVL194:
 475:src/inittran.c ****               pDat += 4;
 1261              		.loc 1 475 0
 1262 05e2 A81D     		adds	r0, r5, #6
 1263              	.LVL195:
 1264 05e4 FFF7FEFF 		bl	DWGet
 1265              	.LVL196:
 1266 05e8 0890     		str	r0, [sp, #32]
 1267              	.LVL197:
 477:src/inittran.c ****               pDat += 2;
 1268              		.loc 1 477 0
 1269 05ea 05F10A00 		add	r0, r5, #10
 1270              	.LVL198:
 1271 05ee FFF7FEFF 		bl	WGet
 1272              	.LVL199:
 479:src/inittran.c ****               pDat += 256;
 1273              		.loc 1 479 0
 1274 05f2 05F10C01 		add	r1, r5, #12
 1275 05f6 4FF48072 		mov	r2, #256
 477:src/inittran.c ****               pDat += 2;
 1276              		.loc 1 477 0
 1277 05fa 0990     		str	r0, [sp, #36]
 1278              	.LVL200:
 479:src/inittran.c ****               pDat += 256;
 1279              		.loc 1 479 0
 1280 05fc 0AA8     		add	r0, sp, #40
 1281 05fe FFF7FEFF 		bl	memcpy
 1282              	.LVL201:
 482:src/inittran.c ****               pDat += 2;
 1283              		.loc 1 482 0
 1284 0602 95F80E21 		ldrb	r2, [r5, #270]	@ zero_extendqisi2
 1285 0606 95F80D31 		ldrb	r3, [r5, #269]	@ zero_extendqisi2
 488:src/inittran.c ****             }
 1286              		.loc 1 488 0
 1287 060a 0220     		movs	r0, #2
 482:src/inittran.c ****               pDat += 2;
 1288              		.loc 1 482 0
 1289 060c 03EB0223 		add	r3, r3, r2, lsl #8
 488:src/inittran.c ****             }
 1290              		.loc 1 488 0
 1291 0610 06A9     		add	r1, sp, #24
 482:src/inittran.c ****               pDat += 2;
 1292              		.loc 1 482 0
 1293 0612 ADF82831 		strh	r3, [sp, #296]	@ movhi
 1294              	.LVL202:
 485:src/inittran.c ****               pDat += 2;
 1295              		.loc 1 485 0
 1296 0616 95F81121 		ldrb	r2, [r5, #273]	@ zero_extendqisi2
 1297 061a 95F81031 		ldrb	r3, [r5, #272]	@ zero_extendqisi2
 1298 061e 03EB0223 		add	r3, r3, r2, lsl #8
 488:src/inittran.c ****             }
ARM GAS  C:\Users\AHMED~1.ELE\AppData\Local\Temp\ccFUpfoi.s 			page 36


 1299              		.loc 1 488 0
 1300 0622 4FF48C72 		mov	r2, #280
 485:src/inittran.c ****               pDat += 2;
 1301              		.loc 1 485 0
 1302 0626 ADF82A31 		strh	r3, [sp, #298]	@ movhi
 1303              	.LVL203:
 487:src/inittran.c ****               EMVData2DnloadBuf(IOCMD_KEY_LOADING, (BYTE *)&key_room, sizeof(KEY_ROOM));
 1304              		.loc 1 487 0
 1305 062a 95F81231 		ldrb	r3, [r5, #274]	@ zero_extendqisi2
 1306 062e ADF82C31 		strh	r3, [sp, #300]	@ movhi
 488:src/inittran.c ****             }
 1307              		.loc 1 488 0
 1308 0632 FFF7FEFF 		bl	EMVData2DnloadBuf
 1309              	.LVL204:
 494:src/inittran.c ****           case 0x10: // Clear AID Table
 1310              		.loc 1 494 0
 1311 0636 05E6     		b	.L68
 1312              	.LVL205:
 1313              	.L80:
 496:src/inittran.c ****               break;
 1314              		.loc 1 496 0
 1315 0638 6379     		ldrb	r3, [r4, #5]	@ zero_extendqisi2
 1316 063a 052B     		cmp	r3, #5
 1317 063c 3FF402AE 		beq	.L68
 496:src/inittran.c ****               break;
 1318              		.loc 1 496 0 is_stmt 0 discriminator 1
 1319 0640 032B     		cmp	r3, #3
 1320 0642 3FF4FFAD 		beq	.L68
 498:src/inittran.c ****             break;
 1321              		.loc 1 498 0 is_stmt 1
 1322 0646 8020     		movs	r0, #128
 1323              	.LVL206:
 1324 0648 04E0     		b	.L199
 1325              	.LVL207:
 1326              	.L81:
 501:src/inittran.c ****               break;
 1327              		.loc 1 501 0
 1328 064a 6379     		ldrb	r3, [r4, #5]	@ zero_extendqisi2
 1329 064c 052B     		cmp	r3, #5
 1330 064e 3FF4F9AD 		beq	.L68
 503:src/inittran.c ****             break;
 1331              		.loc 1 503 0
 1332 0652 4020     		movs	r0, #64
 1333              	.LVL208:
 1334              	.L199:
 1335 0654 FFF7FEFF 		bl	SetEMVLoaded
 1336              	.LVL209:
 504:src/inittran.c ****           case 0x12: // Clear all extra param
 1337              		.loc 1 504 0
 1338 0658 F4E5     		b	.L68
 1339              	.LVL210:
 1340              	.L82:
 506:src/inittran.c ****               break;
 1341              		.loc 1 506 0
 1342 065a 6379     		ldrb	r3, [r4, #5]	@ zero_extendqisi2
 1343 065c 03F0FB03 		and	r3, r3, #251
 1344 0660 012B     		cmp	r3, #1
ARM GAS  C:\Users\AHMED~1.ELE\AppData\Local\Temp\ccFUpfoi.s 			page 37


 1345 0662 7FF4EFAD 		bne	.L68
 508:src/inittran.c ****             CloseExParamFiles();
 1346              		.loc 1 508 0
 1347 0666 0023     		movs	r3, #0
 1348 0668 3361     		str	r3, [r6, #16]
 509:src/inittran.c ****             CreateExParamFiles();
 1349              		.loc 1 509 0
 1350 066a FFF7FEFF 		bl	CloseExParamFiles
 1351              	.LVL211:
 510:src/inittran.c ****             break;
 1352              		.loc 1 510 0
 1353 066e FFF7FEFF 		bl	CreateExParamFiles
 1354              	.LVL212:
 511:src/inittran.c ****           case 0x13:
 1355              		.loc 1 511 0
 1356 0672 E7E5     		b	.L68
 1357              	.LVL213:
 1358              	.L83:
 513:src/inittran.c ****                 (gsTransData.s_rsp_data.w_rspcode!=('0'*256+'0')))
 1359              		.loc 1 513 0
 1360 0674 6379     		ldrb	r3, [r4, #5]	@ zero_extendqisi2
 1361 0676 0C4A     		ldr	r2, .L206+8
 1362 0678 03F0FB03 		and	r3, r3, #251
 1363 067c 012B     		cmp	r3, #1
 1364 067e 7FF4E1AD 		bne	.L68
 513:src/inittran.c ****                 (gsTransData.s_rsp_data.w_rspcode!=('0'*256+'0')))
 1365              		.loc 1 513 0 is_stmt 0 discriminator 3
 1366 0682 B2F87610 		ldrh	r1, [r2, #118]
 1367 0686 43F23003 		movw	r3, #12336
 1368 068a 9942     		cmp	r1, r3
 1369 068c 7FF4DAAD 		bne	.L68
 516:src/inittran.c ****               gsTransData.s_rsp_data.w_rspcode = 'I'*256+'T';
 1370              		.loc 1 516 0 is_stmt 1
 1371 0690 B8F1350F 		cmp	r8, #53
 1372 0694 0AD9     		bls	.L95
 517:src/inittran.c ****               return TRANS_FAIL;
 1373              		.loc 1 517 0
 1374 0696 44F65413 		movw	r3, #18772
 1375 069a A2F87630 		strh	r3, [r2, #118]	@ movhi
 1376 069e ABE5     		b	.L201
 1377              	.L207:
 1378              		.align	2
 1379              	.L206:
 1380 06a0 18000000 		.word	gsTransData+24
 1381 06a4 00000000 		.word	.LANCHOR0
 1382 06a8 00000000 		.word	gsTransData
 1383              	.L95:
 520:src/inittran.c ****               gsTransData.s_rsp_data.w_rspcode = 'D'*256+'E';
 1384              		.loc 1 520 0
 1385 06ac 9220     		movs	r0, #146
 1386              	.LVL214:
 1387 06ae 1C21     		movs	r1, #28
 1388 06b0 FFF7FEFF 		bl	sys_func1
 1389              	.LVL215:
 1390 06b4 0546     		mov	r5, r0
 1391              	.LVL216:
 1392 06b6 0028     		cmp	r0, #0
ARM GAS  C:\Users\AHMED~1.ELE\AppData\Local\Temp\ccFUpfoi.s 			page 38


 1393 06b8 3FF49AAD 		beq	.L90
 524:src/inittran.c ****             ((struct EXTRA_PARAM*)p_mem)->b_app_id = *pDat++;
 1394              		.loc 1 524 0
 1395 06bc FFF7FEFF 		bl	get_pptr
 1396              	.LVL217:
 525:src/inittran.c ****             ((struct EXTRA_PARAM*)p_mem)->b_seq_no = *pDat++;
 1397              		.loc 1 525 0
 1398 06c0 0378     		ldrb	r3, [r0]	@ zero_extendqisi2
 524:src/inittran.c ****             ((struct EXTRA_PARAM*)p_mem)->b_app_id = *pDat++;
 1399              		.loc 1 524 0
 1400 06c2 8246     		mov	r10, r0
 1401              	.LVL218:
 525:src/inittran.c ****             ((struct EXTRA_PARAM*)p_mem)->b_seq_no = *pDat++;
 1402              		.loc 1 525 0
 1403 06c4 2B70     		strb	r3, [r5]
 1404              	.LVL219:
 526:src/inittran.c ****             ((struct EXTRA_PARAM*)p_mem)->b_len = (BYTE)bcd2bin(WGet(pDat));
 1405              		.loc 1 526 0
 1406 06c6 4378     		ldrb	r3, [r0, #1]	@ zero_extendqisi2
 527:src/inittran.c ****             pDat += 2;
 1407              		.loc 1 527 0
 1408 06c8 0230     		adds	r0, r0, #2
 1409              	.LVL220:
 526:src/inittran.c ****             ((struct EXTRA_PARAM*)p_mem)->b_len = (BYTE)bcd2bin(WGet(pDat));
 1410              		.loc 1 526 0
 1411 06ca 6B70     		strb	r3, [r5, #1]
 527:src/inittran.c ****             pDat += 2;
 1412              		.loc 1 527 0
 1413 06cc FFF7FEFF 		bl	WGet
 1414              	.LVL221:
 1415 06d0 FFF7FEFF 		bl	bcd2bin
 1416              	.LVL222:
 530:src/inittran.c ****               ((struct EXTRA_PARAM*)p_mem)->b_prefix = *pDat++;
 1417              		.loc 1 530 0
 1418 06d4 6FF00303 		mvn	r3, #3
 1419 06d8 C2B2     		uxtb	r2, r0
 1420 06da 9B1A     		subs	r3, r3, r2
 1421 06dc 4344     		add	r3, r3, r8
 1422 06de 002B     		cmp	r3, #0
 527:src/inittran.c ****             pDat += 2;
 1423              		.loc 1 527 0
 1424 06e0 A870     		strb	r0, [r5, #2]
 1425              	.LVL223:
 533:src/inittran.c ****             memcpy(((struct EXTRA_PARAM*)p_mem)->sb_content, pDat, ((struct EXTRA_PARAM*)p_mem)->b_
 1426              		.loc 1 533 0
 1427 06e2 D3BF     		iteet	le
 1428 06e4 0023     		movle	r3, #0
 531:src/inittran.c ****             else
 1429              		.loc 1 531 0
 1430 06e6 9AF80430 		ldrbgt	r3, [r10, #4]	@ zero_extendqisi2
 1431 06ea 0AF10501 		addgt	r1, r10, #5
 1432              	.LVL224:
 528:src/inittran.c ****             // Check if there is prefix.
 1433              		.loc 1 528 0
 1434 06ee 0AF10401 		addle	r1, r10, #4
 1435              	.LVL225:
 533:src/inittran.c ****             memcpy(((struct EXTRA_PARAM*)p_mem)->sb_content, pDat, ((struct EXTRA_PARAM*)p_mem)->b_
ARM GAS  C:\Users\AHMED~1.ELE\AppData\Local\Temp\ccFUpfoi.s 			page 39


 1436              		.loc 1 533 0
 1437 06f2 EB70     		strb	r3, [r5, #3]
 1438              	.LVL226:
 534:src/inittran.c ****             UpdExtraParam(iExParamCount++, (struct EXTRA_PARAM*)p_mem);
 1439              		.loc 1 534 0
 1440 06f4 281D     		adds	r0, r5, #4
 1441 06f6 FFF7FEFF 		bl	memcpy
 1442              	.LVL227:
 535:src/inittran.c ****             FreeMW(p_mem);
 1443              		.loc 1 535 0
 1444 06fa 3069     		ldr	r0, [r6, #16]
 1445 06fc 2946     		mov	r1, r5
 1446 06fe 431C     		adds	r3, r0, #1
 1447 0700 3361     		str	r3, [r6, #16]
 1448 0702 FFF7FEFF 		bl	UpdExtraParam
 1449              	.LVL228:
 1450              	.L197:
 536:src/inittran.c ****             break;
 1451              		.loc 1 536 0
 1452 0706 9420     		movs	r0, #148
 1453 0708 2946     		mov	r1, r5
 1454              	.LVL229:
 1455              	.L198:
 1456 070a FFF7FEFF 		bl	sys_func1
 1457              	.LVL230:
 537:src/inittran.c ****         }
 1458              		.loc 1 537 0
 1459 070e 99E5     		b	.L68
 1460              	.LVL231:
 1461              	.L65:
 547:src/inittran.c ****   }
 548:src/inittran.c **** 
 549:src/inittran.c ****   // 63. private field
 550:src/inittran.c ****   if (bitmap[7] & 0x02) {
 1462              		.loc 1 550 0
 1463 0710 9DF81730 		ldrb	r3, [sp, #23]	@ zero_extendqisi2
 1464 0714 9B07     		lsls	r3, r3, #30
 1465 0716 07D5     		bpl	.L99
 551:src/inittran.c ****     gsTransData.s_rsp_data.sb_text[0] = (BYTE)get_word();
 1466              		.loc 1 551 0
 1467 0718 FFF7FEFF 		bl	get_word
 1468              	.LVL232:
 552:src/inittran.c ****     get_mem(&gsTransData.s_rsp_data.sb_text[1], 69);
 1469              		.loc 1 552 0
 1470 071c 4521     		movs	r1, #69
 551:src/inittran.c ****     gsTransData.s_rsp_data.sb_text[0] = (BYTE)get_word();
 1471              		.loc 1 551 0
 1472 071e 84F83000 		strb	r0, [r4, #48]
 1473              		.loc 1 552 0
 1474 0722 2048     		ldr	r0, .L208
 1475 0724 FFF7FEFF 		bl	get_mem
 1476              	.LVL233:
 1477              	.L99:
 553:src/inittran.c ****   }
 554:src/inittran.c **** 
 555:src/inittran.c ****   // avoid year = 00 if only download EMV or EXTRA param
 556:src/inittran.c ****   if ((p_mem = (void *)MallocMW(sizeof(struct TERM_CFG))) == NULL) {
ARM GAS  C:\Users\AHMED~1.ELE\AppData\Local\Temp\ccFUpfoi.s 			page 40


 1478              		.loc 1 556 0
 1479 0728 9220     		movs	r0, #146
 1480 072a 4FF4C471 		mov	r1, #392
 1481 072e FFF7FEFF 		bl	sys_func1
 1482              	.LVL234:
 1483 0732 0546     		mov	r5, r0
 1484 0734 0028     		cmp	r0, #0
 1485 0736 3FF45BAD 		beq	.L90
 557:src/inittran.c ****     gsTransData.s_rsp_data.w_rspcode = 'D'*256+'E';
 558:src/inittran.c ****     return TRANS_FAIL;
 559:src/inittran.c ****   }
 560:src/inittran.c ****   GetTermCfg((struct TERM_CFG*)p_mem);
 1486              		.loc 1 560 0
 1487 073a FFF7FEFF 		bl	GetTermCfg
 1488              	.LVL235:
 561:src/inittran.c ****   memcpy(&gsTransData.s_rsp_data.b_year, ((struct TERM_CFG*)p_mem)->sb_date_time, 6);
 1489              		.loc 1 561 0
 1490 073e 291D     		adds	r1, r5, #4
 1491 0740 0622     		movs	r2, #6
 1492 0742 1948     		ldr	r0, .L208+4
 1493 0744 FFF7FEFF 		bl	memcpy
 1494              	.LVL236:
 562:src/inittran.c ****   gsTransData.s_rsp_data.b_year=SetDTG(&gsTransData.s_rsp_data.b_year);
 1495              		.loc 1 562 0
 1496 0748 1748     		ldr	r0, .L208+4
 1497 074a FFF7FEFF 		bl	SetDTG
 1498              	.LVL237:
 563:src/inittran.c ****   FreeMW(p_mem);
 1499              		.loc 1 563 0
 1500 074e 2946     		mov	r1, r5
 562:src/inittran.c ****   gsTransData.s_rsp_data.b_year=SetDTG(&gsTransData.s_rsp_data.b_year);
 1501              		.loc 1 562 0
 1502 0750 2076     		strb	r0, [r4, #24]
 1503              		.loc 1 563 0
 1504 0752 9420     		movs	r0, #148
 1505 0754 FFF7FEFF 		bl	sys_func1
 1506              	.LVL238:
 564:src/inittran.c **** 
 565:src/inittran.c ****   if (more_msg==0) {
 1507              		.loc 1 565 0
 1508 0758 37B9     		cbnz	r7, .L100
 566:src/inittran.c ****     if (psBatchNo != NULL) {
 1509              		.loc 1 566 0
 1510 075a B168     		ldr	r1, [r6, #8]
 1511 075c 21B1     		cbz	r1, .L100
 567:src/inittran.c ****       FreeMW(psBatchNo);
 1512              		.loc 1 567 0
 1513 075e 9420     		movs	r0, #148
 1514 0760 FFF7FEFF 		bl	sys_func1
 1515              	.LVL239:
 568:src/inittran.c ****       psBatchNo = NULL;
 1516              		.loc 1 568 0
 1517 0764 114B     		ldr	r3, .L208+8
 1518 0766 9F60     		str	r7, [r3, #8]
 1519              	.L100:
 569:src/inittran.c ****     }
 570:src/inittran.c ****   }
ARM GAS  C:\Users\AHMED~1.ELE\AppData\Local\Temp\ccFUpfoi.s 			page 41


 571:src/inittran.c **** 
 572:src/inittran.c ****   if (gsTransData.s_rsp_data.w_rspcode == '0'*256+'0') {
 1520              		.loc 1 572 0
 1521 0768 B4F87610 		ldrh	r1, [r4, #118]
 1522 076c 43F23002 		movw	r2, #12336
 1523 0770 9142     		cmp	r1, r2
 1524 0772 0F4B     		ldr	r3, .L208+12
 1525 0774 05D0     		beq	.L200
 573:src/inittran.c ****     if (more_msg)
 574:src/inittran.c ****       return MORE_RSP;
 575:src/inittran.c ****     return TRANS_ACP;
 576:src/inittran.c ****   }
 577:src/inittran.c ****   else if (gsTransData.s_rsp_data.w_rspcode == 'Z'*256+'1') {
 1526              		.loc 1 577 0
 1527 0776 45F63120 		movw	r0, #23089
 1528 077a 8142     		cmp	r1, r0
 1529 077c 0CD1     		bne	.L106
 578:src/inittran.c ****     if (gsTransData.s_input.b_trans==EDC_INIT)
 1530              		.loc 1 578 0
 1531 077e 1879     		ldrb	r0, [r3, #4]	@ zero_extendqisi2
 1532 0780 20B9     		cbnz	r0, .L102
 1533              	.L200:
 574:src/inittran.c ****     return TRANS_ACP;
 1534              		.loc 1 574 0
 1535 0782 002F     		cmp	r7, #0
 1536 0784 14BF     		ite	ne
 1537 0786 0420     		movne	r0, #4
 1538 0788 0020     		moveq	r0, #0
 1539 078a 06E0     		b	.L44
 1540              	.L102:
 579:src/inittran.c ****     {
 580:src/inittran.c ****       if (more_msg)
 581:src/inittran.c ****         return(MORE_RSP);
 582:src/inittran.c ****       else
 583:src/inittran.c ****         return(TRANS_ACP);
 584:src/inittran.c ****     }
 585:src/inittran.c ****     gsTransData.s_rsp_data.w_rspcode = '0'*256+'0';
 1541              		.loc 1 585 0
 1542 078c A3F87620 		strh	r2, [r3, #118]	@ movhi
 586:src/inittran.c ****     return TRANS_ACP;
 1543              		.loc 1 586 0
 1544 0790 0020     		movs	r0, #0
 1545 0792 02E0     		b	.L44
 1546              	.LVL240:
 1547              	.L103:
 239:src/inittran.c ****   if ((KTransBitmap[gsTransData.s_input.b_trans].w_txmsg_id + 0x10) != msg_id) {
 1548              		.loc 1 239 0
 1549 0794 FF20     		movs	r0, #255
 1550              	.LVL241:
 1551 0796 00E0     		b	.L44
 1552              	.LVL242:
 1553              	.L106:
 587:src/inittran.c ****   }
 588:src/inittran.c ****   else
 589:src/inittran.c ****     return TRANS_REJ;
 1554              		.loc 1 589 0
 1555 0798 0120     		movs	r0, #1
ARM GAS  C:\Users\AHMED~1.ELE\AppData\Local\Temp\ccFUpfoi.s 			page 42


 1556              	.LVL243:
 1557              	.L44:
 590:src/inittran.c **** 
 591:src/inittran.c **** }
 1558              		.loc 1 591 0
 1559 079a 0DF5537D 		add	sp, sp, #844
 1560              		.cfi_def_cfa_offset 36
 1561              		@ sp needed
 1562 079e BDE8F08F 		pop	{r4, r5, r6, r7, r8, r9, r10, fp, pc}
 1563              	.L209:
 1564 07a2 00BF     		.align	2
 1565              	.L208:
 1566 07a4 31000000 		.word	gsTransData+49
 1567 07a8 18000000 		.word	gsTransData+24
 1568 07ac 00000000 		.word	.LANCHOR0
 1569 07b0 00000000 		.word	gsTransData
 1570              		.cfi_endproc
 1571              	.LFE1:
 1572              		.size	CheckHostRsp, .-CheckHostRsp
 1573              		.section	.text.InitTrans,"ax",%progbits
 1574              		.align	1
 1575              		.global	InitTrans
 1576              		.thumb
 1577              		.thumb_func
 1578              		.type	InitTrans, %function
 1579              	InitTrans:
 1580              	.LFB2:
 592:src/inittran.c **** //*****************************************************************************
 593:src/inittran.c **** //  Function        : InitTrans
 594:src/inittran.c **** //  Description     : Download parameters from STIS.
 595:src/inittran.c **** //  Input           : N/A
 596:src/inittran.c **** //  Return          : response (result)
 597:src/inittran.c **** //  Note            : N/A
 598:src/inittran.c **** //  Globals Changed : N/A
 599:src/inittran.c **** //*****************************************************************************
 600:src/inittran.c **** DWORD InitTrans(void)
 601:src/inittran.c **** {
 1581              		.loc 1 601 0
 1582              		.cfi_startproc
 1583              		@ args = 0, pretend = 0, frame = 544
 1584              		@ frame_needed = 0, uses_anonymous_args = 0
 1585              	.LVL244:
 1586 0000 2DE9F041 		push	{r4, r5, r6, r7, r8, lr}
 1587              		.cfi_def_cfa_offset 24
 1588              		.cfi_offset 4, -24
 1589              		.cfi_offset 5, -20
 1590              		.cfi_offset 6, -16
 1591              		.cfi_offset 7, -12
 1592              		.cfi_offset 8, -8
 1593              		.cfi_offset 14, -4
 1594 0004 ADF50A7D 		sub	sp, sp, #552
 1595              		.cfi_def_cfa_offset 576
 602:src/inittran.c ****   int i, func_sel, acq_count;
 603:src/inittran.c ****   struct TERM_DATA term_data;
 604:src/inittran.c ****   struct ACQUIRER_TBL acq_tbl;
 605:src/inittran.c ****   DWORD response = TRANS_FAIL;
 606:src/inittran.c ****   BYTE trace_no[3];
ARM GAS  C:\Users\AHMED~1.ELE\AppData\Local\Temp\ccFUpfoi.s 			page 43


 607:src/inittran.c **** 
 608:src/inittran.c ****   if (GetSTISMode() == SETUP_MODE)
 1596              		.loc 1 608 0
 1597 0008 FFF7FEFF 		bl	GetSTISMode
 1598              	.LVL245:
 1599 000c 08B9     		cbnz	r0, .L211
 1600              	.L213:
 609:src/inittran.c ****     return response;
 1601              		.loc 1 609 0
 1602 000e 0220     		movs	r0, #2
 1603 0010 EFE0     		b	.L212
 1604              	.L211:
 610:src/inittran.c **** 
 611:src/inittran.c ****   if ((func_sel = MenuSelect(&KInitMenu, 0)) == -1)
 1605              		.loc 1 611 0
 1606 0012 7A48     		ldr	r0, .L246
 1607 0014 0021     		movs	r1, #0
 1608 0016 FFF7FEFF 		bl	MenuSelect
 1609              	.LVL246:
 1610 001a 431C     		adds	r3, r0, #1
 1611 001c 0646     		mov	r6, r0
 1612              	.LVL247:
 1613 001e F6D0     		beq	.L213
 612:src/inittran.c ****     return response;
 613:src/inittran.c **** 
 614:src/inittran.c ****   DispCtrlMW(MW_CLR_DISP);
 1614              		.loc 1 614 0
 1615 0020 0C21     		movs	r1, #12
 1616 0022 1620     		movs	r0, #22
 1617              	.LVL248:
 1618 0024 FFF7FEFF 		bl	sys_func1
 1619              	.LVL249:
 615:src/inittran.c ****   DispHeader();
 1620              		.loc 1 615 0
 1621 0028 FFF7FEFF 		bl	DispHeader
 1622              	.LVL250:
 616:src/inittran.c ****   if (DebugModeON()&&TrainingModeON()) {
 1623              		.loc 1 616 0
 1624 002c FFF7FEFF 		bl	DebugModeON
 1625              	.LVL251:
 1626 0030 90B1     		cbz	r0, .L214
 1627              		.loc 1 616 0 is_stmt 0 discriminator 1
 1628 0032 FFF7FEFF 		bl	TrainingModeON
 1629              	.LVL252:
 1630 0036 78B1     		cbz	r0, .L214
 617:src/inittran.c ****     SetSTISMode(TRANS_MODE);
 1631              		.loc 1 617 0 is_stmt 1
 1632 0038 0220     		movs	r0, #2
 1633 003a FFF7FEFF 		bl	SetSTISMode
 1634              	.LVL253:
 618:src/inittran.c ****     SetRspCode('0'*256+'0', TRUE);
 1635              		.loc 1 618 0
 1636 003e 43F23000 		movw	r0, #12336
 1637 0042 0121     		movs	r1, #1
 1638 0044 FFF7FEFF 		bl	SetRspCode
 1639              	.LVL254:
 619:src/inittran.c ****     TransEnd();
ARM GAS  C:\Users\AHMED~1.ELE\AppData\Local\Temp\ccFUpfoi.s 			page 44


 1640              		.loc 1 619 0
 1641 0048 FFF7FEFF 		bl	TransEnd
 1642              	.LVL255:
 620:src/inittran.c ****     Delay1Sec(10, 0);
 1643              		.loc 1 620 0
 1644 004c 0A20     		movs	r0, #10
 1645 004e 0021     		movs	r1, #0
 1646 0050 FFF7FEFF 		bl	Delay1Sec
 1647              	.LVL256:
 621:src/inittran.c ****     return TRANS_ACP;
 1648              		.loc 1 621 0
 1649 0054 0020     		movs	r0, #0
 1650 0056 CCE0     		b	.L212
 1651              	.L214:
 622:src/inittran.c ****   }
 623:src/inittran.c **** 
 624:src/inittran.c ****   gsTransData.s_input.b_trans = EDC_INIT;
 1652              		.loc 1 624 0
 1653 0058 694D     		ldr	r5, .L246+4
 1654 005a 0024     		movs	r4, #0
 625:src/inittran.c ****   gsTransData.s_input.b_stis_init_mode = func_sel;
 626:src/inittran.c ****   if (!GetTermData(&term_data))
 1655              		.loc 1 626 0
 1656 005c 2EA8     		add	r0, sp, #184
 624:src/inittran.c ****   gsTransData.s_input.b_stis_init_mode = func_sel;
 1657              		.loc 1 624 0
 1658 005e 2C71     		strb	r4, [r5, #4]
 625:src/inittran.c ****   gsTransData.s_input.b_stis_init_mode = func_sel;
 1659              		.loc 1 625 0
 1660 0060 6E71     		strb	r6, [r5, #5]
 1661              		.loc 1 626 0
 1662 0062 FFF7FEFF 		bl	GetTermData
 1663              	.LVL257:
 1664 0066 0028     		cmp	r0, #0
 1665 0068 D1D0     		beq	.L213
 627:src/inittran.c ****     return response;
 628:src/inittran.c **** 
 629:src/inittran.c ****   memcpy(gsTransData.s_input.sb_term_id,term_data.sb_term_id, 8);
 1666              		.loc 1 629 0
 1667 006a 0DF1BA01 		add	r1, sp, #186
 1668 006e 0822     		movs	r2, #8
 1669 0070 05F10C00 		add	r0, r5, #12
 1670 0074 FFF7FEFF 		bl	memcpy
 1671              	.LVL258:
 630:src/inittran.c **** 
 631:src/inittran.c ****   PackInitComm();
 1672              		.loc 1 631 0
 1673 0078 FFF7FEFF 		bl	PackInitComm
 1674              	.LVL259:
 632:src/inittran.c ****   gsTransData.s_input.b_proc_code2 = 0;
 1675              		.loc 1 632 0
 1676 007c AC71     		strb	r4, [r5, #6]
 633:src/inittran.c ****   ClearResponse();
 1677              		.loc 1 633 0
 1678 007e FFF7FEFF 		bl	ClearResponse
 1679              	.LVL260:
 634:src/inittran.c **** 
ARM GAS  C:\Users\AHMED~1.ELE\AppData\Local\Temp\ccFUpfoi.s 			page 45


 635:src/inittran.c ****   if ((gsTransData.s_rsp_data.w_rspcode=ConnectOK(FALSE)) == COMM_OK) {
 1680              		.loc 1 635 0
 1681 0082 2046     		mov	r0, r4
 1682 0084 FFF7FEFF 		bl	ConnectOK
 1683              	.LVL261:
 1684 0088 43F23003 		movw	r3, #12336
 1685 008c 80B2     		uxth	r0, r0
 1686 008e 9842     		cmp	r0, r3
 1687 0090 A5F87600 		strh	r0, [r5, #118]	@ movhi
 1688 0094 40F0A380 		bne	.L226
 636:src/inittran.c ****     EMVClrDnloadBuf();
 1689              		.loc 1 636 0
 1690 0098 FFF7FEFF 		bl	EMVClrDnloadBuf
 1691              	.LVL262:
 637:src/inittran.c ****     // Clear STIS data 1st;
 638:src/inittran.c ****     psTxBuf  = (struct COMMBUF *) MallocMW(sizeof(struct COMMBUF));
 1692              		.loc 1 638 0
 1693 009c 40F60441 		movw	r1, #3076
 1694 00a0 9220     		movs	r0, #146
 1695 00a2 FFF7FEFF 		bl	sys_func1
 1696              	.LVL263:
 1697 00a6 574C     		ldr	r4, .L246+8
 639:src/inittran.c ****     psRxBuf  = (struct COMMBUF *) MallocMW(sizeof(struct COMMBUF));
 1698              		.loc 1 639 0
 1699 00a8 40F60441 		movw	r1, #3076
 1700 00ac 2746     		mov	r7, r4
 638:src/inittran.c ****     psRxBuf  = (struct COMMBUF *) MallocMW(sizeof(struct COMMBUF));
 1701              		.loc 1 638 0
 1702 00ae 2060     		str	r0, [r4]
 1703              		.loc 1 639 0
 1704 00b0 9220     		movs	r0, #146
 1705 00b2 FFF7FEFF 		bl	sys_func1
 1706              	.LVL264:
 1707 00b6 6060     		str	r0, [r4, #4]
 640:src/inittran.c ****     MemFatalErr(psTxBuf);
 1708              		.loc 1 640 0
 1709 00b8 2068     		ldr	r0, [r4]
 1710 00ba FFF7FEFF 		bl	MemFatalErr
 1711              	.LVL265:
 641:src/inittran.c ****     MemFatalErr(psRxBuf);
 1712              		.loc 1 641 0
 1713 00be 6068     		ldr	r0, [r4, #4]
 1714 00c0 FFF7FEFF 		bl	MemFatalErr
 1715              	.LVL266:
 1716              	.L224:
 642:src/inittran.c ****     while (TRUE) {
 643:src/inittran.c ****       GetTrace(trace_no);
 644:src/inittran.c ****       memcpy(gsTransData.s_input.sb_trace_no, trace_no, 3);
 1717              		.loc 1 644 0
 1718 00c4 4E4E     		ldr	r6, .L246+4
 643:src/inittran.c ****       memcpy(gsTransData.s_input.sb_trace_no, trace_no, 3);
 1719              		.loc 1 643 0
 1720 00c6 02A8     		add	r0, sp, #8
 1721 00c8 FFF7FEFF 		bl	GetTrace
 1722              	.LVL267:
 1723              		.loc 1 644 0
 1724 00cc 02A9     		add	r1, sp, #8
ARM GAS  C:\Users\AHMED~1.ELE\AppData\Local\Temp\ccFUpfoi.s 			page 46


 1725 00ce 0322     		movs	r2, #3
 1726 00d0 06F10900 		add	r0, r6, #9
 1727 00d4 FFF7FEFF 		bl	memcpy
 1728              	.LVL268:
 645:src/inittran.c ****       PackHostMsg();
 1729              		.loc 1 645 0
 1730 00d8 FFF7FEFF 		bl	PackHostMsg
 1731              	.LVL269:
 646:src/inittran.c ****       if ((gsTransData.s_rsp_data.w_rspcode=SendRcvd(psTxBuf,psRxBuf))==COMM_OK) {
 1732              		.loc 1 646 0
 1733 00dc 97E80300 		ldmia	r7, {r0, r1}
 1734 00e0 FFF7FEFF 		bl	SendRcvd
 1735              	.LVL270:
 1736 00e4 43F23003 		movw	r3, #12336
 1737 00e8 80B2     		uxth	r0, r0
 1738 00ea 9842     		cmp	r0, r3
 1739 00ec A5F87600 		strh	r0, [r5, #118]	@ movhi
 1740 00f0 09D1     		bne	.L216
 647:src/inittran.c ****         IncTrace();
 1741              		.loc 1 647 0
 1742 00f2 FFF7FEFF 		bl	IncTrace
 1743              	.LVL271:
 648:src/inittran.c ****         response = gsTransData.b_response = CheckHostRsp();
 1744              		.loc 1 648 0
 1745 00f6 FFF7FEFF 		bl	CheckHostRsp
 1746              	.LVL272:
 649:src/inittran.c ****       }
 650:src/inittran.c ****       else {
 651:src/inittran.c ****         if (GetSTISMode() == INIT_MODE) {
 652:src/inittran.c ****           fCommitAllMW();
 653:src/inittran.c ****           CloseSTISFiles();
 654:src/inittran.c ****           CreateSTISFiles();
 655:src/inittran.c ****           CloseSTISFiles();
 656:src/inittran.c ****           STISInit();
 657:src/inittran.c ****           SetSTISMode(INIT_MODE);
 658:src/inittran.c ****           fCommitAllMW();
 659:src/inittran.c ****         }
 660:src/inittran.c ****         response = gsTransData.b_response = TRANS_FAIL;
 661:src/inittran.c ****         break;
 662:src/inittran.c ****       }
 663:src/inittran.c ****       if ((gsTransData.s_input.b_stis_init_mode == MODE_ALL_PARAM) && (gsTransData.b_response == TR
 1747              		.loc 1 663 0
 1748 00fa 7379     		ldrb	r3, [r6, #5]	@ zero_extendqisi2
 1749 00fc 012B     		cmp	r3, #1
 648:src/inittran.c ****         response = gsTransData.b_response = CheckHostRsp();
 1750              		.loc 1 648 0
 1751 00fe 3070     		strb	r0, [r6]
 1752 0100 0446     		mov	r4, r0
 1753              	.LVL273:
 1754              		.loc 1 663 0
 1755 0102 38D1     		bne	.L218
 1756 0104 21E0     		b	.L245
 1757              	.LVL274:
 1758              	.L216:
 651:src/inittran.c ****           fCommitAllMW();
 1759              		.loc 1 651 0
 1760 0106 FFF7FEFF 		bl	GetSTISMode
ARM GAS  C:\Users\AHMED~1.ELE\AppData\Local\Temp\ccFUpfoi.s 			page 47


 1761              	.LVL275:
 1762 010a 0128     		cmp	r0, #1
 1763 010c 0646     		mov	r6, r0
 1764 010e 19D1     		bne	.L219
 652:src/inittran.c ****           CloseSTISFiles();
 1765              		.loc 1 652 0
 1766 0110 0024     		movs	r4, #0
 1767 0112 1321     		movs	r1, #19
 1768 0114 2246     		mov	r2, r4
 1769 0116 2346     		mov	r3, r4
 1770 0118 0094     		str	r4, [sp]
 1771 011a 0F20     		movs	r0, #15
 1772 011c FFF7FEFF 		bl	lib_app_call
 1773              	.LVL276:
 653:src/inittran.c ****           CreateSTISFiles();
 1774              		.loc 1 653 0
 1775 0120 FFF7FEFF 		bl	CloseSTISFiles
 1776              	.LVL277:
 654:src/inittran.c ****           CloseSTISFiles();
 1777              		.loc 1 654 0
 1778 0124 FFF7FEFF 		bl	CreateSTISFiles
 1779              	.LVL278:
 655:src/inittran.c ****           STISInit();
 1780              		.loc 1 655 0
 1781 0128 FFF7FEFF 		bl	CloseSTISFiles
 1782              	.LVL279:
 656:src/inittran.c ****           SetSTISMode(INIT_MODE);
 1783              		.loc 1 656 0
 1784 012c FFF7FEFF 		bl	STISInit
 1785              	.LVL280:
 657:src/inittran.c ****           fCommitAllMW();
 1786              		.loc 1 657 0
 1787 0130 3046     		mov	r0, r6
 1788 0132 FFF7FEFF 		bl	SetSTISMode
 1789              	.LVL281:
 658:src/inittran.c ****         }
 1790              		.loc 1 658 0
 1791 0136 0094     		str	r4, [sp]
 1792 0138 0F20     		movs	r0, #15
 1793 013a 1321     		movs	r1, #19
 1794 013c 2246     		mov	r2, r4
 1795 013e 2346     		mov	r3, r4
 1796 0140 FFF7FEFF 		bl	lib_app_call
 1797              	.LVL282:
 1798              	.L219:
 660:src/inittran.c ****         break;
 1799              		.loc 1 660 0
 1800 0144 0224     		movs	r4, #2
 1801 0146 2C70     		strb	r4, [r5]
 1802              	.LVL283:
 661:src/inittran.c ****       }
 1803              		.loc 1 661 0
 1804 0148 1AE0     		b	.L220
 1805              	.LVL284:
 1806              	.L245:
 1807              		.loc 1 663 0 discriminator 1
 1808 014a A0B9     		cbnz	r0, .L218
ARM GAS  C:\Users\AHMED~1.ELE\AppData\Local\Temp\ccFUpfoi.s 			page 48


 664:src/inittran.c ****         acq_count = GetAcqCount();
 1809              		.loc 1 664 0
 1810 014c FFF7FEFF 		bl	GetAcqCount
 1811              	.LVL285:
 665:src/inittran.c ****         for (i=0; i < acq_count; i++) {
 1812              		.loc 1 665 0
 1813 0150 2646     		mov	r6, r4
 664:src/inittran.c ****         acq_count = GetAcqCount();
 1814              		.loc 1 664 0
 1815 0152 8046     		mov	r8, r0
 1816              	.LVL286:
 1817              	.L221:
 1818              		.loc 1 665 0 discriminator 1
 1819 0154 4645     		cmp	r6, r8
 1820 0156 13DA     		bge	.L220
 666:src/inittran.c ****           if (GetAcqTbl(i, &acq_tbl)) {
 1821              		.loc 1 666 0
 1822 0158 3046     		mov	r0, r6
 1823 015a 03A9     		add	r1, sp, #12
 1824 015c FFF7FEFF 		bl	GetAcqTbl
 1825              	.LVL287:
 1826 0160 38B1     		cbz	r0, .L222
 667:src/inittran.c ****             if (acq_tbl.b_status != NOT_LOADED) {
 1827              		.loc 1 667 0
 1828 0162 9DF8B430 		ldrb	r3, [sp, #180]	@ zero_extendqisi2
 1829 0166 FF2B     		cmp	r3, #255
 1830 0168 03D0     		beq	.L222
 668:src/inittran.c ****               SetSTISMode(TRANS_MODE);
 1831              		.loc 1 668 0
 1832 016a 0220     		movs	r0, #2
 1833 016c FFF7FEFF 		bl	SetSTISMode
 1834              	.LVL288:
 669:src/inittran.c ****               // N2C not support VBin yet
 670:src/inittran.c ****               //VBinAllowed();
 671:src/inittran.c ****               break;
 1835              		.loc 1 671 0
 1836 0170 06E0     		b	.L220
 1837              	.L222:
 665:src/inittran.c ****           if (GetAcqTbl(i, &acq_tbl)) {
 1838              		.loc 1 665 0 discriminator 2
 1839 0172 0136     		adds	r6, r6, #1
 1840              	.LVL289:
 1841 0174 EEE7     		b	.L221
 1842              	.LVL290:
 1843              	.L218:
 672:src/inittran.c ****             }
 673:src/inittran.c ****           }
 674:src/inittran.c ****         }
 675:src/inittran.c ****       }
 676:src/inittran.c ****       else if (gsTransData.b_response == MORE_RSP) {
 1844              		.loc 1 676 0
 1845 0176 0428     		cmp	r0, #4
 1846 0178 02D1     		bne	.L220
 677:src/inittran.c ****         gsTransData.s_input.b_proc_code2 = 0x01;
 1847              		.loc 1 677 0
 1848 017a 0123     		movs	r3, #1
 1849 017c AB71     		strb	r3, [r5, #6]
ARM GAS  C:\Users\AHMED~1.ELE\AppData\Local\Temp\ccFUpfoi.s 			page 49


 678:src/inittran.c ****         continue; /* more msg to receive */
 679:src/inittran.c ****       }
 680:src/inittran.c ****       break;
 681:src/inittran.c ****     }
 1850              		.loc 1 681 0
 1851 017e A1E7     		b	.L224
 1852              	.LVL291:
 1853              	.L220:
 682:src/inittran.c **** 
 683:src/inittran.c ****     DispClrBelowMW(MW_LINE3);
 1854              		.loc 1 683 0
 1855 0180 0026     		movs	r6, #0
 1856 0182 3346     		mov	r3, r6
 1857 0184 2321     		movs	r1, #35
 1858 0186 4FF44072 		mov	r2, #768
 1859 018a 0096     		str	r6, [sp]
 1860 018c 0F20     		movs	r0, #15
 1861 018e FFF7FEFF 		bl	lib_app_call
 1862              	.LVL292:
 684:src/inittran.c ****     Disp2x16Msg(KProcessing, MW_LINE5, MW_CENTER|MW_BIGFONT);
 1863              		.loc 1 684 0
 1864 0192 1D48     		ldr	r0, .L246+12
 1865 0194 4FF4A061 		mov	r1, #1280
 1866 0198 41F20202 		movw	r2, #4098
 1867 019c FFF7FEFF 		bl	Disp2x16Msg
 1868              	.LVL293:
 685:src/inittran.c ****     fCommitAllMW();  // Commit All save data.
 1869              		.loc 1 685 0
 1870 01a0 3346     		mov	r3, r6
 1871 01a2 0096     		str	r6, [sp]
 1872 01a4 0F20     		movs	r0, #15
 1873 01a6 1321     		movs	r1, #19
 1874 01a8 3246     		mov	r2, r6
 1875 01aa FFF7FEFF 		bl	lib_app_call
 1876              	.LVL294:
 686:src/inittran.c ****     if (gsTransData.b_response == TRANS_ACP) {
 1877              		.loc 1 686 0
 1878 01ae 2B78     		ldrb	r3, [r5]	@ zero_extendqisi2
 1879 01b0 1BB9     		cbnz	r3, .L225
 687:src/inittran.c ****       EMVDataUpdate();
 1880              		.loc 1 687 0
 1881 01b2 FFF7FEFF 		bl	EMVDataUpdate
 1882              	.LVL295:
 688:src/inittran.c ****       EMVInit();
 1883              		.loc 1 688 0
 1884 01b6 FFF7FEFF 		bl	EMVInit
 1885              	.LVL296:
 1886              	.L225:
 689:src/inittran.c ****     }
 690:src/inittran.c ****     EMVKillDnloadBuf();
 1887              		.loc 1 690 0
 1888 01ba FFF7FEFF 		bl	EMVKillDnloadBuf
 1889              	.LVL297:
 691:src/inittran.c ****     fCommitAllMW();  // Commit All save data.
 1890              		.loc 1 691 0
 1891 01be 0022     		movs	r2, #0
 1892 01c0 1346     		mov	r3, r2
ARM GAS  C:\Users\AHMED~1.ELE\AppData\Local\Temp\ccFUpfoi.s 			page 50


 1893 01c2 0096     		str	r6, [sp]
 1894 01c4 1321     		movs	r1, #19
 1895 01c6 0F20     		movs	r0, #15
 1896 01c8 FFF7FEFF 		bl	lib_app_call
 1897              	.LVL298:
 692:src/inittran.c **** 
 693:src/inittran.c ****     FreeMW(psTxBuf);
 1898              		.loc 1 693 0
 1899 01cc 3968     		ldr	r1, [r7]
 1900 01ce 9420     		movs	r0, #148
 1901 01d0 FFF7FEFF 		bl	sys_func1
 1902              	.LVL299:
 694:src/inittran.c ****     FreeMW(psRxBuf);
 1903              		.loc 1 694 0
 1904 01d4 7968     		ldr	r1, [r7, #4]
 1905 01d6 9420     		movs	r0, #148
 1906 01d8 FFF7FEFF 		bl	sys_func1
 1907              	.LVL300:
 1908 01dc 00E0     		b	.L215
 1909              	.LVL301:
 1910              	.L226:
 605:src/inittran.c ****   BYTE trace_no[3];
 1911              		.loc 1 605 0
 1912 01de 0224     		movs	r4, #2
 1913              	.LVL302:
 1914              	.L215:
 695:src/inittran.c ****   }
 696:src/inittran.c ****   ResetComm();
 1915              		.loc 1 696 0
 1916 01e0 FFF7FEFF 		bl	ResetComm
 1917              	.LVL303:
 697:src/inittran.c ****   BatSysInit(GetAcqCount());
 1918              		.loc 1 697 0
 1919 01e4 FFF7FEFF 		bl	GetAcqCount
 1920              	.LVL304:
 1921 01e8 FFF7FEFF 		bl	BatSysInit
 1922              	.LVL305:
 698:src/inittran.c ****   TransEnd();
 1923              		.loc 1 698 0
 1924 01ec FFF7FEFF 		bl	TransEnd
 1925              	.LVL306:
 699:src/inittran.c ****   return response;
 1926              		.loc 1 699 0
 1927 01f0 2046     		mov	r0, r4
 1928              	.LVL307:
 1929              	.L212:
 700:src/inittran.c **** }
 1930              		.loc 1 700 0
 1931 01f2 0DF50A7D 		add	sp, sp, #552
 1932              		.cfi_def_cfa_offset 24
 1933              		@ sp needed
 1934 01f6 BDE8F081 		pop	{r4, r5, r6, r7, r8, pc}
 1935              	.L247:
 1936 01fa 00BF     		.align	2
 1937              	.L246:
 1938 01fc 00000000 		.word	.LANCHOR1
 1939 0200 00000000 		.word	gsTransData
ARM GAS  C:\Users\AHMED~1.ELE\AppData\Local\Temp\ccFUpfoi.s 			page 51


 1940 0204 00000000 		.word	.LANCHOR0
 1941 0208 00000000 		.word	KProcessing
 1942              		.cfi_endproc
 1943              	.LFE2:
 1944              		.size	InitTrans, .-InitTrans
 1945              		.global	KInitMenu
 1946              		.global	KInitItem
 1947              		.section	.rodata
 1948              		.align	2
 1949              		.set	.LANCHOR1,. + 0
 1950              		.type	KInitMenu, %object
 1951              		.size	KInitMenu, 28
 1952              	KInitMenu:
 1953 0000 53544953 		.ascii	"STIS Init.\000"
 1953      20496E69 
 1953      742E00
 1954 000b 00000000 		.space	12
 1954      00000000 
 1954      00000000 
 1955 0017 00       		.space	1
 1956 0018 00000000 		.word	KInitItem
 1957              		.type	KInitItem, %object
 1958              		.size	KInitItem, 192
 1959              	KInitItem:
 1960 001c 01000000 		.word	1
 1961 0020 00000000 		.word	.LC0
 1962 0024 00000000 		.space	24
 1962      00000000 
 1962      00000000 
 1962      00000000 
 1962      00000000 
 1963 003c 02000000 		.word	2
 1964 0040 0F000000 		.word	.LC1
 1965 0044 00000000 		.space	24
 1965      00000000 
 1965      00000000 
 1965      00000000 
 1965      00000000 
 1966 005c 03000000 		.word	3
 1967 0060 1E000000 		.word	.LC2
 1968 0064 00000000 		.space	24
 1968      00000000 
 1968      00000000 
 1968      00000000 
 1968      00000000 
 1969 007c 04000000 		.word	4
 1970 0080 2C000000 		.word	.LC3
 1971 0084 00000000 		.space	24
 1971      00000000 
 1971      00000000 
 1971      00000000 
 1971      00000000 
 1972 009c 05000000 		.word	5
 1973 00a0 3C000000 		.word	.LC4
 1974 00a4 00000000 		.space	24
 1974      00000000 
 1974      00000000 
ARM GAS  C:\Users\AHMED~1.ELE\AppData\Local\Temp\ccFUpfoi.s 			page 52


 1974      00000000 
 1974      00000000 
 1975 00bc FFFFFFFF 		.word	-1
 1976 00c0 00000000 		.word	0
 1977 00c4 00000000 		.space	24
 1977      00000000 
 1977      00000000 
 1977      00000000 
 1977      00000000 
 1978              		.section	.rodata.str1.1,"aMS",%progbits,1
 1979              	.LC0:
 1980 0000 416C6C20 		.ascii	"All Parameters\000"
 1980      50617261 
 1980      6D657465 
 1980      727300
 1981              	.LC1:
 1982 000f 454D5620 		.ascii	"EMV Param Only\000"
 1982      50617261 
 1982      6D204F6E 
 1982      6C7900
 1983              	.LC2:
 1984 001e 454D5620 		.ascii	"EMV Keys Only\000"
 1984      4B657973 
 1984      204F6E6C 
 1984      7900
 1985              	.LC3:
 1986 002c 454D5620 		.ascii	"EMV Param & Key\000"
 1986      50617261 
 1986      6D202620 
 1986      4B657900 
 1987              	.LC4:
 1988 003c 45787472 		.ascii	"Extra Parameters\000"
 1988      61205061 
 1988      72616D65 
 1988      74657273 
 1988      00
 1989              		.bss
 1990              		.align	2
 1991              		.set	.LANCHOR0,. + 0
 1992              		.type	psTxBuf, %object
 1993              		.size	psTxBuf, 4
 1994              	psTxBuf:
 1995 0000 00000000 		.space	4
 1996              		.type	psRxBuf, %object
 1997              		.size	psRxBuf, 4
 1998              	psRxBuf:
 1999 0004 00000000 		.space	4
 2000              		.type	psBatchNo, %object
 2001              		.size	psBatchNo, 4
 2002              	psBatchNo:
 2003 0008 00000000 		.space	4
 2004              		.type	iSaveAcqCount, %object
 2005              		.size	iSaveAcqCount, 4
 2006              	iSaveAcqCount:
 2007 000c 00000000 		.space	4
 2008              		.type	iExParamCount, %object
 2009              		.size	iExParamCount, 4
ARM GAS  C:\Users\AHMED~1.ELE\AppData\Local\Temp\ccFUpfoi.s 			page 53


 2010              	iExParamCount:
 2011 0010 00000000 		.space	4
 2012              		.text
 2013              	.Letext0:
 2014              		.file 2 "c:\\devtools\\gcc_v49_2014q4\\lib\\gcc\\arm-none-eabi\\4.9.3\\include\\stddef.h"
 2015              		.file 3 "../LibA5T1000/common.h"
 2016              		.file 4 "../LibA5T1000/midware.h"
 2017              		.file 5 "../LibA5T1000/system.h"
 2018              		.file 6 "../LibA5T1000/emv2dll.h"
 2019              		.file 7 "src/sysutil.h"
 2020              		.file 8 "src/menu.h"
 2021              		.file 9 "../LibA5T1000/apm.h"
 2022              		.file 10 "src/tranutil.h"
 2023              		.file 11 "src/constant.h"
 2024              		.file 12 "src/comm.h"
 2025              		.file 13 "src/coremain.h"
 2026              		.file 14 "src/message.h"
 2027              		.file 15 "../LibA5T1000/util.h"
 2028              		.file 16 "c:\\devtools\\gcc_v49_2014q4\\arm-none-eabi\\include\\string.h"
 2029              		.file 17 "src/stis.h"
 2030              		.file 18 "src/termdata.h"
 2031              		.file 19 "src/emvtrans.h"
 2032              		.file 20 "src/batchsys.h"