ARM GAS  C:\Users\AHMED~1.ELE\AppData\Local\Temp\cciu15sF.s 			page 1


   1              		.syntax unified
   2              		.cpu cortex-a5
   3              		.fpu softvfp
   4              		.eabi_attribute 20, 1
   5              		.eabi_attribute 21, 1
   6              		.eabi_attribute 23, 3
   7              		.eabi_attribute 24, 1
   8              		.eabi_attribute 25, 1
   9              		.eabi_attribute 26, 1
  10              		.eabi_attribute 30, 4
  11              		.eabi_attribute 34, 0
  12              		.eabi_attribute 18, 4
  13              		.thumb
  14              		.file	"kbdutil.c"
  15              		.text
  16              	.Ltext0:
  17              		.cfi_sections	.debug_frame
  18              		.global	__aeabi_idivmod
  19              		.section	.text.ConvertAlphaNew,"ax",%progbits
  20              		.align	1
  21              		.thumb
  22              		.thumb_func
  23              		.type	ConvertAlphaNew, %function
  24              	ConvertAlphaNew:
  25              	.LFB9:
  26              		.file 1 "src/kbdutil.c"
   1:src/kbdutil.c **** //-----------------------------------------------------------------------------
   2:src/kbdutil.c **** //  File          : kbdutil.c
   3:src/kbdutil.c **** //  Module        :
   4:src/kbdutil.c **** //  Description   : Provide keyboard utilities.
   5:src/kbdutil.c **** //  Author        : Lewis
   6:src/kbdutil.c **** //  Notes         :
   7:src/kbdutil.c **** //
   8:src/kbdutil.c **** // ============================================================================
   9:src/kbdutil.c **** // | Naming conventions                                                       |
  10:src/kbdutil.c **** // | ~~~~~~~~~~~~~~~~~~                                                       |
  11:src/kbdutil.c **** // |         Struct/Array : Leading s                                         |
  12:src/kbdutil.c **** // |             Constant : Leading K                                         |
  13:src/kbdutil.c **** // |      Global Variable : Leading g  (variable use outside one C file)      |
  14:src/kbdutil.c **** // |                                                                          |
  15:src/kbdutil.c **** // |   BYTE( 8 Bits) size : Leading b                                         |
  16:src/kbdutil.c **** // |   CHAR( 8 Bits) size : Leading c                                         |
  17:src/kbdutil.c **** // |   WORD(16 Bits) size : Leading w                                         |
  18:src/kbdutil.c **** // |  DWORD(32 Bits) size : Leading d                                         |
  19:src/kbdutil.c **** // |    int(32 Bits) size : Leading i                                         |
  20:src/kbdutil.c **** // | DDWORD(64 Bits) size : Leading dd                                        |
  21:src/kbdutil.c **** // |              Pointer : Leading p                                         |
  22:src/kbdutil.c **** // |                                                                          |
  23:src/kbdutil.c **** // |    Function argument : Leading a                                         |
  24:src/kbdutil.c **** // |       Local Variable : All lower case                                    |
  25:src/kbdutil.c **** // |                                                                          |
  26:src/kbdutil.c **** // | Examples:                                                                |
  27:src/kbdutil.c **** // |                Array : Leading s, (sb = arrary of byte, etc)             |
  28:src/kbdutil.c **** // |              Pointer : Leading p, (pb = pointer of byte, etc)            |
  29:src/kbdutil.c **** // ============================================================================
  30:src/kbdutil.c **** //
  31:src/kbdutil.c **** //  Date          Who         Action
ARM GAS  C:\Users\AHMED~1.ELE\AppData\Local\Temp\cciu15sF.s 			page 2


  32:src/kbdutil.c **** //  ------------  ----------- -------------------------------------------------
  33:src/kbdutil.c **** //  01 Apr  2009  Lewis       Initial Version.
  34:src/kbdutil.c **** //-----------------------------------------------------------------------------
  35:src/kbdutil.c **** #include <ctype.h>
  36:src/kbdutil.c **** #include <stdio.h>
  37:src/kbdutil.c **** #include <string.h>
  38:src/kbdutil.c **** #include "util.h"
  39:src/kbdutil.c **** #include "midware.h"
  40:src/kbdutil.c **** #include "sysutil.h"
  41:src/kbdutil.c **** #include "hardware.h"
  42:src/kbdutil.c **** #include "kbdutil.h"
  43:src/kbdutil.c **** 
  44:src/kbdutil.c **** //-----------------------------------------------------------------------------
  45:src/kbdutil.c **** //   Common Defines
  46:src/kbdutil.c **** //-----------------------------------------------------------------------------
  47:src/kbdutil.c **** #define ALPHA_INPUT_TIMEOUT  200
  48:src/kbdutil.c **** 
  49:src/kbdutil.c **** //-----------------------------------------------------------------------------
  50:src/kbdutil.c **** //  Global Varialbles
  51:src/kbdutil.c **** //-----------------------------------------------------------------------------
  52:src/kbdutil.c **** struct KBDGDS {
  53:src/kbdutil.c ****   DDWORD ddAmount;
  54:src/kbdutil.c ****   WORD wFont;
  55:src/kbdutil.c ****   BYTE bDecimalPos;
  56:src/kbdutil.c ****   BYTE sbAmtBuf[12];
  57:src/kbdutil.c ****   BYTE sbPrefix[4];
  58:src/kbdutil.c ****   WORD wLineNo;
  59:src/kbdutil.c ****   BYTE bInputLen;
  60:src/kbdutil.c ****   BYTE sbInputBuf[MAX_INPUT_LEN+1];
  61:src/kbdutil.c ****   BYTE bDispLen;
  62:src/kbdutil.c ****   BYTE sbDispBuf[MAX_INPUT_LEN+1];
  63:src/kbdutil.c ****   DWORD dEntryMode;
  64:src/kbdutil.c ****   DWORD dOption;
  65:src/kbdutil.c ****   DWORD dTimeout;        // GetKbd Timeout Value
  66:src/kbdutil.c ****   int   iTimerHdl;
  67:src/kbdutil.c ****   BYTE  bRightJust;      // Right Justify
  68:src/kbdutil.c **** };
  69:src/kbdutil.c **** static struct KBDGDS gKbdGDS = {
  70:src/kbdutil.c ****   0, 0, (BYTE)(DECIMAL_POS2>>24),
  71:src/kbdutil.c ****   {0, 0, 0, 0, 0, 0, 0, 0, 0, 0, 0, 0},
  72:src/kbdutil.c ****   {' ', ' ', ' ', ' '},
  73:src/kbdutil.c ****   0,
  74:src/kbdutil.c ****   0,
  75:src/kbdutil.c ****   {0,0,0,0,0,0,0,0,0,0,0,0,0,0,0,0,0,0,0,0,0,0,0,0,0,0,0,0,0,0,0,0},
  76:src/kbdutil.c ****   0,
  77:src/kbdutil.c ****   {0,0,0,0,0,0,0,0,0,0,0,0,0,0,0,0,0,0,0,0,0,0,0,0,0,0,0,0,0,0,0,0},
  78:src/kbdutil.c ****   0,
  79:src/kbdutil.c ****   0,
  80:src/kbdutil.c ****   KBD_TIMEOUT,
  81:src/kbdutil.c ****   -1,
  82:src/kbdutil.c **** };
  83:src/kbdutil.c **** 
  84:src/kbdutil.c **** //*****************************************************************************
  85:src/kbdutil.c **** //  Function        : InitTimer
  86:src/kbdutil.c **** //  Description     : Init KBDUTIL internal timer if necessary.
  87:src/kbdutil.c **** //  Input           : N/A
  88:src/kbdutil.c **** //  Return          : N/A
ARM GAS  C:\Users\AHMED~1.ELE\AppData\Local\Temp\cciu15sF.s 			page 3


  89:src/kbdutil.c **** //  Note            : N/A
  90:src/kbdutil.c **** //  Globals Changed : N/A
  91:src/kbdutil.c **** //*****************************************************************************
  92:src/kbdutil.c **** static void InitTimer(void)
  93:src/kbdutil.c **** {
  94:src/kbdutil.c ****   if (gKbdGDS.iTimerHdl == -1) {
  95:src/kbdutil.c ****     gKbdGDS.iTimerHdl = TimerOpenMW();
  96:src/kbdutil.c ****   }
  97:src/kbdutil.c **** }
  98:src/kbdutil.c **** //*****************************************************************************
  99:src/kbdutil.c **** //  Function        : ClearKeyIn
 100:src/kbdutil.c **** //  Description     : Clear all key buffer.
 101:src/kbdutil.c **** //  Input           : N/A
 102:src/kbdutil.c **** //  Return          : N/A
 103:src/kbdutil.c **** //  Note            : N/A
 104:src/kbdutil.c **** //  Globals Changed : N/A
 105:src/kbdutil.c **** //*****************************************************************************
 106:src/kbdutil.c **** void ClearKeyin(void)
 107:src/kbdutil.c **** {
 108:src/kbdutil.c ****   InitTimer();
 109:src/kbdutil.c ****   while (GetCharMW()!=0) SleepMW();
 110:src/kbdutil.c **** }
 111:src/kbdutil.c **** //*****************************************************************************
 112:src/kbdutil.c **** //  Function        : GetKeyin
 113:src/kbdutil.c **** //  Description     : Return a key when available.
 114:src/kbdutil.c **** //  Input           : N/A
 115:src/kbdutil.c **** //  Return          : N/A
 116:src/kbdutil.c **** //  Note            : N/A
 117:src/kbdutil.c **** //  Globals Changed : N/A
 118:src/kbdutil.c **** //*****************************************************************************
 119:src/kbdutil.c **** DWORD GetKeyin(void)
 120:src/kbdutil.c **** {
 121:src/kbdutil.c ****   DWORD keyin;
 122:src/kbdutil.c **** 
 123:src/kbdutil.c ****   InitTimer();
 124:src/kbdutil.c ****   keyin = GetCharMW();
 125:src/kbdutil.c ****   if ((keyin==0)&&(TimerGetMW(gKbdGDS.iTimerHdl)==0))
 126:src/kbdutil.c ****     return MWKEY_CANCL;
 127:src/kbdutil.c **** 
 128:src/kbdutil.c ****   return keyin;
 129:src/kbdutil.c **** }
 130:src/kbdutil.c **** //*****************************************************************************
 131:src/kbdutil.c **** //  Function        : SetKbdTimeout
 132:src/kbdutil.c **** //  Description     : Set kbd timeout value.
 133:src/kbdutil.c **** //  Input           : value in ms;
 134:src/kbdutil.c **** //  Return          : N/A
 135:src/kbdutil.c **** //  Note            : N/A
 136:src/kbdutil.c **** //  Globals Changed : N/A
 137:src/kbdutil.c **** //*****************************************************************************
 138:src/kbdutil.c **** void SetKbdTimeout(DWORD aTimeout)
 139:src/kbdutil.c **** {
 140:src/kbdutil.c ****   InitTimer();
 141:src/kbdutil.c ****   gKbdGDS.dTimeout = aTimeout;
 142:src/kbdutil.c ****   TimerSetMW(gKbdGDS.iTimerHdl, aTimeout);
 143:src/kbdutil.c **** }
 144:src/kbdutil.c **** //*****************************************************************************
 145:src/kbdutil.c **** //  Function        : GetKbdTimeout
ARM GAS  C:\Users\AHMED~1.ELE\AppData\Local\Temp\cciu15sF.s 			page 4


 146:src/kbdutil.c **** //  Description     : Get keyboard timeout value.
 147:src/kbdutil.c **** //  Input           : N/A
 148:src/kbdutil.c **** //  Return          : getkbd timeout in sec.
 149:src/kbdutil.c **** //  Note            : N/A
 150:src/kbdutil.c **** //  Globals Changed : N/A
 151:src/kbdutil.c **** //*****************************************************************************
 152:src/kbdutil.c **** DWORD GetKbdTimeout(void)
 153:src/kbdutil.c **** {
 154:src/kbdutil.c ****   InitTimer();
 155:src/kbdutil.c ****   return TimerGetMW(gKbdGDS.iTimerHdl);
 156:src/kbdutil.c **** }
 157:src/kbdutil.c **** //*****************************************************************************
 158:src/kbdutil.c **** //  Function        : WaitKey
 159:src/kbdutil.c **** //  Description     : Wait a key for specify time.
 160:src/kbdutil.c **** //  Input           : timeout;   // timeout value in second
 161:src/kbdutil.c **** //  Return          : N/A
 162:src/kbdutil.c **** //  Note            : N/A
 163:src/kbdutil.c **** //  Globals Changed : N/A
 164:src/kbdutil.c **** //*****************************************************************************
 165:src/kbdutil.c **** DWORD WaitKey(DWORD aTimeout)
 166:src/kbdutil.c **** {
 167:src/kbdutil.c ****   DWORD keyin, i;
 168:src/kbdutil.c **** 
 169:src/kbdutil.c ****   aTimeout *=2;     // convert to 5ms unit.
 170:src/kbdutil.c ****   keyin = i = 0;
 171:src/kbdutil.c ****   do {
 172:src/kbdutil.c ****     SleepMW();
 173:src/kbdutil.c ****     keyin = GetCharMW();
 174:src/kbdutil.c ****   } while ((i++ < aTimeout) && (keyin == 0));
 175:src/kbdutil.c ****   return(keyin);
 176:src/kbdutil.c **** }
 177:src/kbdutil.c **** //*****************************************************************************
 178:src/kbdutil.c **** //  Function        : WaitKeyCheck
 179:src/kbdutil.c **** //  Description     : Wait a key for specify time.
 180:src/kbdutil.c **** //  Input           : timeout;   // timeout value in second
 181:src/kbdutil.c **** //                    aCheckList
 182:src/kbdutil.c **** //  Return          : N/A
 183:src/kbdutil.c **** //  Note            : N/A
 184:src/kbdutil.c **** //  Globals Changed : N/A
 185:src/kbdutil.c **** //*****************************************************************************
 186:src/kbdutil.c **** DWORD WaitKeyCheck(DWORD aTimeout, DWORD aCheckList)
 187:src/kbdutil.c **** {
 188:src/kbdutil.c ****   DWORD keyin;
 189:src/kbdutil.c ****   //DWORD icc_id;
 190:src/kbdutil.c **** 
 191:src/kbdutil.c ****   //icc_id = 0;
 192:src/kbdutil.c ****   SetKbdTimeout(aTimeout);
 193:src/kbdutil.c ****   while ((keyin=GetKeyin())==0) {
 194:src/kbdutil.c **** 
 195:src/kbdutil.c ****     if (aCheckList & WAIT_ICC_INSERT) {
 196:src/kbdutil.c ****       if (ICCInsertedMW()&0x01) {
 197:src/kbdutil.c ****         keyin = WAIT_ICC_INSERT;
 198:src/kbdutil.c ****         break;
 199:src/kbdutil.c ****       }
 200:src/kbdutil.c ****     }
 201:src/kbdutil.c **** 
 202:src/kbdutil.c ****     if (aCheckList & WAIT_ICC_REMOVE) {
ARM GAS  C:\Users\AHMED~1.ELE\AppData\Local\Temp\cciu15sF.s 			page 5


 203:src/kbdutil.c ****       if ((ICCInsertedMW()&0x01)==0x00) {
 204:src/kbdutil.c ****         keyin = WAIT_ICC_REMOVE;
 205:src/kbdutil.c ****         break;
 206:src/kbdutil.c ****       }
 207:src/kbdutil.c ****     }
 208:src/kbdutil.c **** 
 209:src/kbdutil.c ****     if ((aCheckList & WAIT_MSR_READY) && (gDevHandle[APM_SDEV_MSR] != -1)) {
 210:src/kbdutil.c ****       if (IOCtlMW(gDevHandle[APM_SDEV_MSR], IO_MSR_RXLEN, NULL) > 0) {
 211:src/kbdutil.c ****         keyin = WAIT_MSR_READY;
 212:src/kbdutil.c ****         break;
 213:src/kbdutil.c ****       }
 214:src/kbdutil.c ****     }
 215:src/kbdutil.c **** 
 216:src/kbdutil.c ****     SleepMW();
 217:src/kbdutil.c ****   }
 218:src/kbdutil.c ****   return(keyin);
 219:src/kbdutil.c **** }
 220:src/kbdutil.c **** //*****************************************************************************
 221:src/kbdutil.c **** //  Function        : YesNo
 222:src/kbdutil.c **** //  Description     : Wait user to select YES or NO.
 223:src/kbdutil.c **** //  Input           : N/A
 224:src/kbdutil.c **** //  Return          : 0 - Cancel key pressed,
 225:src/kbdutil.c **** //                    1 - Clear key pressed(NO)
 226:src/kbdutil.c **** //                    2 - Enter key pressed(YES)
 227:src/kbdutil.c **** //  Note            : N/A
 228:src/kbdutil.c **** //  Globals Changed : N/A
 229:src/kbdutil.c **** //*****************************************************************************
 230:src/kbdutil.c **** DWORD YesNo(void)
 231:src/kbdutil.c **** {
 232:src/kbdutil.c ****   while (1) {
 233:src/kbdutil.c ****     switch (WaitKey(gKbdGDS.dTimeout)) {
 234:src/kbdutil.c ****       case MWKEY_ENTER:
 235:src/kbdutil.c ****         return 2;
 236:src/kbdutil.c ****       case MWKEY_CLR:
 237:src/kbdutil.c ****         return 1;
 238:src/kbdutil.c ****       case MWKEY_CANCL:
 239:src/kbdutil.c ****         return 0;
 240:src/kbdutil.c ****     }
 241:src/kbdutil.c ****   }
 242:src/kbdutil.c **** }
 243:src/kbdutil.c **** //*****************************************************************************
 244:src/kbdutil.c **** //  Function        : UpdateDisplay
 245:src/kbdutil.c **** //  Description     : Show the Buffer data.
 246:src/kbdutil.c **** //  Input           : N/A
 247:src/kbdutil.c **** //  Return          : N/A
 248:src/kbdutil.c **** //  Note            : N/A
 249:src/kbdutil.c **** //  Globals Changed : N/A
 250:src/kbdutil.c **** //*****************************************************************************
 251:src/kbdutil.c **** static void UpdateDisplay(void)
 252:src/kbdutil.c **** {
 253:src/kbdutil.c ****   BYTE decimal_pos;
 254:src/kbdutil.c ****   BYTE *pBuf = gKbdGDS.sbDispBuf;
 255:src/kbdutil.c ****   BYTE tmpbuf[MW_MAX_LINESIZE+1];
 256:src/kbdutil.c ****   BYTE disp_len;
 257:src/kbdutil.c **** 
 258:src/kbdutil.c ****   memset(gKbdGDS.sbDispBuf, ' ', sizeof(gKbdGDS.sbDispBuf));
 259:src/kbdutil.c ****   switch (gKbdGDS.dEntryMode) {
ARM GAS  C:\Users\AHMED~1.ELE\AppData\Local\Temp\cciu15sF.s 			page 6


 260:src/kbdutil.c ****     case HIDE_NUMERIC:
 261:src/kbdutil.c ****       memset(gKbdGDS.sbDispBuf, '*', gKbdGDS.bInputLen);
 262:src/kbdutil.c ****       gKbdGDS.bDispLen = gKbdGDS.bInputLen;
 263:src/kbdutil.c ****       break;
 264:src/kbdutil.c ****     case DECIMAL_INPUT:
 265:src/kbdutil.c ****     case AMOUNT_INPUT:
 266:src/kbdutil.c ****       gKbdGDS.bDispLen = gKbdGDS.bInputLen;
 267:src/kbdutil.c ****       memcpy(gKbdGDS.sbDispBuf, gKbdGDS.sbInputBuf,gKbdGDS.bInputLen);
 268:src/kbdutil.c ****       if ((gKbdGDS.bDispLen==0)|| (gKbdGDS.bDispLen<=gKbdGDS.bDecimalPos)) {
 269:src/kbdutil.c ****         gKbdGDS.bDispLen = gKbdGDS.bDecimalPos + 1;
 270:src/kbdutil.c ****         memset(gKbdGDS.sbDispBuf, '0', gKbdGDS.bDispLen);
 271:src/kbdutil.c ****         memcpy(&gKbdGDS.sbDispBuf[gKbdGDS.bDispLen-gKbdGDS.bInputLen],
 272:src/kbdutil.c ****                gKbdGDS.sbInputBuf, gKbdGDS.bInputLen);
 273:src/kbdutil.c ****       }
 274:src/kbdutil.c ****       if (gKbdGDS.bDecimalPos) {
 275:src/kbdutil.c ****         decimal_pos = gKbdGDS.bDispLen-gKbdGDS.bDecimalPos;
 276:src/kbdutil.c ****         memmove(&gKbdGDS.sbDispBuf[decimal_pos+1] , &gKbdGDS.sbDispBuf[decimal_pos], gKbdGDS.bDecim
 277:src/kbdutil.c ****         gKbdGDS.sbDispBuf[decimal_pos] = '.';
 278:src/kbdutil.c ****         gKbdGDS.bDispLen++;
 279:src/kbdutil.c ****       }
 280:src/kbdutil.c ****       if (gKbdGDS.dOption & PREFIX_ENB) {
 281:src/kbdutil.c ****         memmove(&gKbdGDS.sbDispBuf[PREFIX_SIZE], gKbdGDS.sbDispBuf, gKbdGDS.bDispLen);
 282:src/kbdutil.c ****         memcpy(gKbdGDS.sbDispBuf, gKbdGDS.sbPrefix, PREFIX_SIZE);
 283:src/kbdutil.c ****         gKbdGDS.bDispLen += PREFIX_SIZE;
 284:src/kbdutil.c ****       }
 285:src/kbdutil.c ****       break;
 286:src/kbdutil.c ****     default:
 287:src/kbdutil.c ****       memcpy(gKbdGDS.sbDispBuf, gKbdGDS.sbInputBuf, gKbdGDS.bInputLen);
 288:src/kbdutil.c ****       gKbdGDS.bDispLen = gKbdGDS.bInputLen;
 289:src/kbdutil.c ****       break;
 290:src/kbdutil.c ****   }
 291:src/kbdutil.c ****   pBuf[gKbdGDS.bDispLen] = 0;
 292:src/kbdutil.c ****   if (gKbdGDS.wFont==MW_BIGFONT) {
 293:src/kbdutil.c ****     DispClrLineMW(gKbdGDS.wLineNo);
 294:src/kbdutil.c ****     if (gKbdGDS.bDispLen<=MW_NOR_LINESIZE) {
 295:src/kbdutil.c ****       DispLineMW(pBuf, gKbdGDS.wLineNo, (gKbdGDS.bRightJust?MW_RIGHT:0)|gKbdGDS.wFont|MW_CLREOL);
 296:src/kbdutil.c ****       //DispClrLineMW(gKbdGDS.wLineNo+(MW_LINE4-MW_LINE2));   //03-10-26 JC ++
 297:src/kbdutil.c ****     }
 298:src/kbdutil.c ****     else {
 299:src/kbdutil.c ****       disp_len = gKbdGDS.bDispLen-MW_NOR_LINESIZE;
 300:src/kbdutil.c ****       memcpy(tmpbuf, pBuf, disp_len);
 301:src/kbdutil.c ****       tmpbuf[disp_len] = 0;
 302:src/kbdutil.c ****       DispLineMW(tmpbuf, gKbdGDS.wLineNo, (gKbdGDS.bRightJust?MW_RIGHT:0)|gKbdGDS.wFont|MW_CLREOL);
 303:src/kbdutil.c ****       pBuf += disp_len;
 304:src/kbdutil.c ****       DispLineMW(pBuf, gKbdGDS.wLineNo+(MW_LINE4-MW_LINE2), (gKbdGDS.bRightJust?MW_RIGHT:0)|gKbdGDS
 305:src/kbdutil.c ****     }
 306:src/kbdutil.c ****   }
 307:src/kbdutil.c ****   else if (gKbdGDS.wFont==MW_SMFONT) {
 308:src/kbdutil.c ****     DispClrLineMW(gKbdGDS.wLineNo);
 309:src/kbdutil.c ****     if (gKbdGDS.bDispLen<=MW_NOR_LINESIZE) {
 310:src/kbdutil.c ****       DispLineMW(pBuf, gKbdGDS.wLineNo, (gKbdGDS.bRightJust?MW_RIGHT:0)|gKbdGDS.wFont|MW_CLREOL);
 311:src/kbdutil.c ****       //DispClrLineMW(gKbdGDS.wLineNo+(MW_LINE3-MW_LINE2));   //03-10-26 JC ++
 312:src/kbdutil.c ****     }
 313:src/kbdutil.c ****     else {
 314:src/kbdutil.c ****       disp_len = gKbdGDS.bDispLen-MW_NOR_LINESIZE;
 315:src/kbdutil.c ****       memcpy(tmpbuf, pBuf, disp_len);
 316:src/kbdutil.c ****       tmpbuf[disp_len] = 0;
ARM GAS  C:\Users\AHMED~1.ELE\AppData\Local\Temp\cciu15sF.s 			page 7


 317:src/kbdutil.c ****       DispLineMW(tmpbuf, gKbdGDS.wLineNo, (gKbdGDS.bRightJust?MW_RIGHT:0)|gKbdGDS.wFont|MW_CLREOL);
 318:src/kbdutil.c ****       pBuf += disp_len;
 319:src/kbdutil.c ****       DispLineMW(pBuf, gKbdGDS.wLineNo+(MW_LINE3-MW_LINE2), (gKbdGDS.bRightJust?MW_RIGHT:0)|gKbdGDS
 320:src/kbdutil.c ****     }
 321:src/kbdutil.c ****   }
 322:src/kbdutil.c ****   else {
 323:src/kbdutil.c ****     DispClrLineMW(gKbdGDS.wLineNo);
 324:src/kbdutil.c ****     if (gKbdGDS.bDispLen<=MW_MAX_LINESIZE) {
 325:src/kbdutil.c ****       DispLineMW(pBuf, gKbdGDS.wLineNo, (gKbdGDS.bRightJust?MW_RIGHT:0)|gKbdGDS.wFont|MW_CLREOL);
 326:src/kbdutil.c ****       //DispClrLineMW(gKbdGDS.wLineNo+(MW_LINE3-MW_LINE2));   //03-10-26 JC ++
 327:src/kbdutil.c ****     }
 328:src/kbdutil.c ****     else {
 329:src/kbdutil.c ****       disp_len = gKbdGDS.bDispLen-MW_MAX_LINESIZE;
 330:src/kbdutil.c ****       memcpy(tmpbuf, pBuf, disp_len);
 331:src/kbdutil.c ****       tmpbuf[disp_len] = 0;
 332:src/kbdutil.c ****       DispLineMW(tmpbuf, gKbdGDS.wLineNo, (gKbdGDS.bRightJust?MW_RIGHT:0)|gKbdGDS.wFont|MW_CLREOL);
 333:src/kbdutil.c ****       pBuf += disp_len;
 334:src/kbdutil.c ****       DispLineMW(pBuf, gKbdGDS.wLineNo+(MW_LINE3-MW_LINE2), (gKbdGDS.bRightJust?MW_RIGHT:0)|gKbdGDS
 335:src/kbdutil.c ****     }
 336:src/kbdutil.c ****   }
 337:src/kbdutil.c **** }
 338:src/kbdutil.c **** //*****************************************************************************
 339:src/kbdutil.c **** //  Function        : ConvertAlphaNew
 340:src/kbdutil.c **** //  Description     : Convert the input char to alpha.
 341:src/kbdutil.c **** //  Input           : N/A
 342:src/kbdutil.c **** //  Return          : N/A
 343:src/kbdutil.c **** //  Note            : N/A
 344:src/kbdutil.c **** //  Globals Changed : gKbdGDS
 345:src/kbdutil.c **** //*****************************************************************************
 346:src/kbdutil.c **** static void ConvertAlphaNew(void)
 347:src/kbdutil.c **** {
  27              		.loc 1 347 0
  28              		.cfi_startproc
  29              		@ args = 0, pretend = 0, frame = 0
  30              		@ frame_needed = 0, uses_anonymous_args = 0
  31 0000 2DE9F041 		push	{r4, r5, r6, r7, r8, lr}
  32              		.cfi_def_cfa_offset 24
  33              		.cfi_offset 4, -24
  34              		.cfi_offset 5, -20
  35              		.cfi_offset 6, -16
  36              		.cfi_offset 7, -12
  37              		.cfi_offset 8, -8
  38              		.cfi_offset 14, -4
 348:src/kbdutil.c ****   BYTE i, j;
 349:src/kbdutil.c **** 
 350:src/kbdutil.c ****   static const BYTE alpha_tbl[10][9]
 351:src/kbdutil.c ****   = {{'0',' ','+','-','"','*','#',')','~'},
 352:src/kbdutil.c ****     {'1','Q','Z','q','z',':','.','!','`'},
 353:src/kbdutil.c ****     {'2','A','B','C','a','b','c','@','\x27'},
 354:src/kbdutil.c ****     {'3','D','E','F','d','e','f','|','='},
 355:src/kbdutil.c ****     {'4','G','H','I','g','h','i','$',';'},
 356:src/kbdutil.c ****     {'5','J','K','L','j','k','l','%','?'},
 357:src/kbdutil.c ****     {'6','M','N','O','m','n','o','^',','},
 358:src/kbdutil.c ****     {'7','P','R','S','p','r','s','&','_'},
 359:src/kbdutil.c ****     {'8','T','U','V','t','u','v','/','['},
 360:src/kbdutil.c ****     {'9','W','X','Y','w','x','y','(',']'}
 361:src/kbdutil.c ****   };
ARM GAS  C:\Users\AHMED~1.ELE\AppData\Local\Temp\cciu15sF.s 			page 8


 362:src/kbdutil.c **** 
 363:src/kbdutil.c **** 
 364:src/kbdutil.c ****   if (gKbdGDS.bInputLen == 0) {
  39              		.loc 1 364 0
  40 0004 1D4E     		ldr	r6, .L13
  41 0006 B37F     		ldrb	r3, [r6, #30]	@ zero_extendqisi2
  42 0008 1BB9     		cbnz	r3, .L2
 365:src/kbdutil.c ****     LongBeep();
 366:src/kbdutil.c ****     return;
 367:src/kbdutil.c ****   }
 368:src/kbdutil.c **** 
 369:src/kbdutil.c ****   for (i = 0; i != 10; i++)
 370:src/kbdutil.c ****   {
 371:src/kbdutil.c ****     for (j = 0; j != 9 ; j++)
 372:src/kbdutil.c ****     {
 373:src/kbdutil.c ****       if (gKbdGDS.sbInputBuf[gKbdGDS.bInputLen-1] == alpha_tbl[i][j]) {
 374:src/kbdutil.c ****         j = alpha_tbl[i][(j + 1) % 9];
 375:src/kbdutil.c ****         goto FOUND;
 376:src/kbdutil.c ****       }
 377:src/kbdutil.c ****     }
 378:src/kbdutil.c ****   }
 379:src/kbdutil.c **** FOUND:
 380:src/kbdutil.c ****   if (gKbdGDS.dEntryMode  == HEX_INPUT)
 381:src/kbdutil.c ****     if ((j > 'F') || (j < '0') || ((j > '9') && (j < 'A')))
 382:src/kbdutil.c ****       j = alpha_tbl[i][0];
 383:src/kbdutil.c ****   gKbdGDS.sbInputBuf[gKbdGDS.bInputLen-1] = j;
 384:src/kbdutil.c **** }
  43              		.loc 1 384 0
  44 000a BDE8F041 		pop	{r4, r5, r6, r7, r8, lr}
  45              		.cfi_remember_state
  46              		.cfi_restore 14
  47              		.cfi_restore 8
  48              		.cfi_restore 7
  49              		.cfi_restore 6
  50              		.cfi_restore 5
  51              		.cfi_restore 4
  52              		.cfi_def_cfa_offset 0
 365:src/kbdutil.c ****     LongBeep();
  53              		.loc 1 365 0
  54 000e FFF7FEBF 		b	LongBeep
  55              	.LVL0:
  56              	.L2:
  57              		.cfi_restore_state
 373:src/kbdutil.c ****         j = alpha_tbl[i][(j + 1) % 9];
  58              		.loc 1 373 0
  59 0012 5D1E     		subs	r5, r3, #1
  60 0014 7319     		adds	r3, r6, r5
  61 0016 0024     		movs	r4, #0
  62 0018 DA7F     		ldrb	r2, [r3, #31]	@ zero_extendqisi2
  63              	.L6:
  64 001a 194F     		ldr	r7, .L13+4
  65 001c 0923     		movs	r3, #9
  66 001e 5FFA84F8 		uxtb	r8, r4
  67              	.LVL1:
  68 0022 03FB0473 		mla	r3, r3, r4, r7
 347:src/kbdutil.c ****   BYTE i, j;
  69              		.loc 1 347 0
ARM GAS  C:\Users\AHMED~1.ELE\AppData\Local\Temp\cciu15sF.s 			page 9


  70 0026 0020     		movs	r0, #0
  71              	.LVL2:
  72              	.L5:
 373:src/kbdutil.c ****         j = alpha_tbl[i][(j + 1) % 9];
  73              		.loc 1 373 0
  74 0028 195C     		ldrb	r1, [r3, r0]	@ zero_extendqisi2
  75 002a 0130     		adds	r0, r0, #1
  76 002c 9142     		cmp	r1, r2
  77 002e 07D1     		bne	.L3
 374:src/kbdutil.c ****         goto FOUND;
  78              		.loc 1 374 0
  79 0030 0921     		movs	r1, #9
  80 0032 FFF7FEFF 		bl	__aeabi_idivmod
  81              	.LVL3:
  82 0036 0923     		movs	r3, #9
  83 0038 03FB0411 		mla	r1, r3, r4, r1
  84 003c 785C     		ldrb	r0, [r7, r1]	@ zero_extendqisi2
  85              	.LVL4:
 375:src/kbdutil.c ****       }
  86              		.loc 1 375 0
  87 003e 05E0     		b	.L4
  88              	.LVL5:
  89              	.L3:
 371:src/kbdutil.c ****     {
  90              		.loc 1 371 0 discriminator 2
  91 0040 0928     		cmp	r0, #9
  92 0042 F1D1     		bne	.L5
  93              	.LVL6:
  94 0044 0134     		adds	r4, r4, #1
  95              	.LVL7:
 369:src/kbdutil.c ****   {
  96              		.loc 1 369 0 discriminator 2
  97 0046 0A2C     		cmp	r4, #10
  98 0048 E7D1     		bne	.L6
  99 004a A046     		mov	r8, r4
 100              	.LVL8:
 101              	.L4:
 380:src/kbdutil.c ****     if ((j > 'F') || (j < '0') || ((j > '9') && (j < 'A')))
 102              		.loc 1 380 0
 103 004c D6F88C30 		ldr	r3, [r6, #140]
 104 0050 B3F5802F 		cmp	r3, #262144
 105 0054 0DD1     		bne	.L7
 381:src/kbdutil.c ****       j = alpha_tbl[i][0];
 106              		.loc 1 381 0
 107 0056 A0F13003 		sub	r3, r0, #48
 108 005a DBB2     		uxtb	r3, r3
 109 005c 162B     		cmp	r3, #22
 110 005e 04D8     		bhi	.L8
 381:src/kbdutil.c ****       j = alpha_tbl[i][0];
 111              		.loc 1 381 0 is_stmt 0 discriminator 1
 112 0060 A0F13A03 		sub	r3, r0, #58
 113 0064 DBB2     		uxtb	r3, r3
 114 0066 062B     		cmp	r3, #6
 115 0068 03D8     		bhi	.L7
 116              	.L8:
 382:src/kbdutil.c ****   gKbdGDS.sbInputBuf[gKbdGDS.bInputLen-1] = j;
 117              		.loc 1 382 0 is_stmt 1
ARM GAS  C:\Users\AHMED~1.ELE\AppData\Local\Temp\cciu15sF.s 			page 10


 118 006a 0923     		movs	r3, #9
 119 006c 03FB08F3 		mul	r3, r3, r8
 120 0070 F85C     		ldrb	r0, [r7, r3]	@ zero_extendqisi2
 121              	.LVL9:
 122              	.L7:
 383:src/kbdutil.c **** }
 123              		.loc 1 383 0
 124 0072 3544     		add	r5, r5, r6
 125 0074 E877     		strb	r0, [r5, #31]
 126 0076 BDE8F081 		pop	{r4, r5, r6, r7, r8, pc}
 127              	.L14:
 128 007a 00BF     		.align	2
 129              	.L13:
 130 007c 00000000 		.word	.LANCHOR0
 131 0080 00000000 		.word	.LANCHOR1
 132              		.cfi_endproc
 133              	.LFE9:
 134              		.size	ConvertAlphaNew, .-ConvertAlphaNew
 135              		.section	.text.UpdateDisplay,"ax",%progbits
 136              		.align	1
 137              		.thumb
 138              		.thumb_func
 139              		.type	UpdateDisplay, %function
 140              	UpdateDisplay:
 141              	.LFB8:
 252:src/kbdutil.c ****   BYTE decimal_pos;
 142              		.loc 1 252 0
 143              		.cfi_startproc
 144              		@ args = 0, pretend = 0, frame = 32
 145              		@ frame_needed = 0, uses_anonymous_args = 0
 146              	.LVL10:
 147 0000 2DE9F043 		push	{r4, r5, r6, r7, r8, r9, lr}
 148              		.cfi_def_cfa_offset 28
 149              		.cfi_offset 4, -28
 150              		.cfi_offset 5, -24
 151              		.cfi_offset 6, -20
 152              		.cfi_offset 7, -16
 153              		.cfi_offset 8, -12
 154              		.cfi_offset 9, -8
 155              		.cfi_offset 14, -4
 258:src/kbdutil.c ****   switch (gKbdGDS.dEntryMode) {
 156              		.loc 1 258 0
 157 0004 C54D     		ldr	r5, .L82
 252:src/kbdutil.c ****   BYTE decimal_pos;
 158              		.loc 1 252 0
 159 0006 8BB0     		sub	sp, sp, #44
 160              		.cfi_def_cfa_offset 72
 258:src/kbdutil.c ****   switch (gKbdGDS.dEntryMode) {
 161              		.loc 1 258 0
 162 0008 05F15500 		add	r0, r5, #85
 163 000c 2021     		movs	r1, #32
 164 000e 3522     		movs	r2, #53
 165 0010 FFF7FEFF 		bl	memset
 166              	.LVL11:
 259:src/kbdutil.c ****     case HIDE_NUMERIC:
 167              		.loc 1 259 0
 168 0014 D5F88C30 		ldr	r3, [r5, #140]
ARM GAS  C:\Users\AHMED~1.ELE\AppData\Local\Temp\cciu15sF.s 			page 11


 169 0018 B3F5403F 		cmp	r3, #196608
 170 001c 06D0     		beq	.L17
 171 001e B3F5002F 		cmp	r3, #524288
 172 0022 0BD0     		beq	.L18
 173 0024 B3F5803F 		cmp	r3, #65536
 174 0028 57D1     		bne	.L73
 175 002a 07E0     		b	.L18
 176              	.L17:
 261:src/kbdutil.c ****       gKbdGDS.bDispLen = gKbdGDS.bInputLen;
 177              		.loc 1 261 0
 178 002c AC7F     		ldrb	r4, [r5, #30]	@ zero_extendqisi2
 179 002e 05F15500 		add	r0, r5, #85
 180 0032 2A21     		movs	r1, #42
 181 0034 2246     		mov	r2, r4
 182 0036 FFF7FEFF 		bl	memset
 183              	.LVL12:
 184 003a 56E0     		b	.L74
 185              	.L18:
 266:src/kbdutil.c ****       memcpy(gKbdGDS.sbDispBuf, gKbdGDS.sbInputBuf,gKbdGDS.bInputLen);
 186              		.loc 1 266 0
 187 003c AE7F     		ldrb	r6, [r5, #30]	@ zero_extendqisi2
 188 003e B74C     		ldr	r4, .L82
 267:src/kbdutil.c ****       if ((gKbdGDS.bDispLen==0)|| (gKbdGDS.bDispLen<=gKbdGDS.bDecimalPos)) {
 189              		.loc 1 267 0
 190 0040 3246     		mov	r2, r6
 191 0042 04F15500 		add	r0, r4, #85
 192 0046 04F11F01 		add	r1, r4, #31
 266:src/kbdutil.c ****       memcpy(gKbdGDS.sbDispBuf, gKbdGDS.sbInputBuf,gKbdGDS.bInputLen);
 193              		.loc 1 266 0
 194 004a 85F85460 		strb	r6, [r5, #84]
 267:src/kbdutil.c ****       if ((gKbdGDS.bDispLen==0)|| (gKbdGDS.bDispLen<=gKbdGDS.bDecimalPos)) {
 195              		.loc 1 267 0
 196 004e FFF7FEFF 		bl	memcpy
 197              	.LVL13:
 268:src/kbdutil.c ****         gKbdGDS.bDispLen = gKbdGDS.bDecimalPos + 1;
 198              		.loc 1 268 0
 199 0052 16B1     		cbz	r6, .L20
 268:src/kbdutil.c ****         gKbdGDS.bDispLen = gKbdGDS.bDecimalPos + 1;
 200              		.loc 1 268 0 is_stmt 0 discriminator 1
 201 0054 A37A     		ldrb	r3, [r4, #10]	@ zero_extendqisi2
 202 0056 B342     		cmp	r3, r6
 203 0058 10D3     		bcc	.L21
 204              	.L20:
 269:src/kbdutil.c ****         memset(gKbdGDS.sbDispBuf, '0', gKbdGDS.bDispLen);
 205              		.loc 1 269 0 is_stmt 1
 206 005a AC7A     		ldrb	r4, [r5, #10]	@ zero_extendqisi2
 270:src/kbdutil.c ****         memcpy(&gKbdGDS.sbDispBuf[gKbdGDS.bDispLen-gKbdGDS.bInputLen],
 207              		.loc 1 270 0
 208 005c 3021     		movs	r1, #48
 269:src/kbdutil.c ****         memset(gKbdGDS.sbDispBuf, '0', gKbdGDS.bDispLen);
 209              		.loc 1 269 0
 210 005e 0134     		adds	r4, r4, #1
 270:src/kbdutil.c ****         memcpy(&gKbdGDS.sbDispBuf[gKbdGDS.bDispLen-gKbdGDS.bInputLen],
 211              		.loc 1 270 0
 212 0060 AF48     		ldr	r0, .L82+4
 269:src/kbdutil.c ****         memset(gKbdGDS.sbDispBuf, '0', gKbdGDS.bDispLen);
 213              		.loc 1 269 0
ARM GAS  C:\Users\AHMED~1.ELE\AppData\Local\Temp\cciu15sF.s 			page 12


 214 0062 E4B2     		uxtb	r4, r4
 270:src/kbdutil.c ****         memcpy(&gKbdGDS.sbDispBuf[gKbdGDS.bDispLen-gKbdGDS.bInputLen],
 215              		.loc 1 270 0
 216 0064 2246     		mov	r2, r4
 269:src/kbdutil.c ****         memset(gKbdGDS.sbDispBuf, '0', gKbdGDS.bDispLen);
 217              		.loc 1 269 0
 218 0066 85F85440 		strb	r4, [r5, #84]
 270:src/kbdutil.c ****         memcpy(&gKbdGDS.sbDispBuf[gKbdGDS.bDispLen-gKbdGDS.bInputLen],
 219              		.loc 1 270 0
 220 006a FFF7FEFF 		bl	memset
 221              	.LVL14:
 271:src/kbdutil.c ****                gKbdGDS.sbInputBuf, gKbdGDS.bInputLen);
 222              		.loc 1 271 0
 223 006e A01B     		subs	r0, r4, r6
 224 0070 2844     		add	r0, r0, r5
 225 0072 5530     		adds	r0, r0, #85
 226 0074 AB49     		ldr	r1, .L82+8
 227 0076 3246     		mov	r2, r6
 228 0078 FFF7FEFF 		bl	memcpy
 229              	.LVL15:
 230              	.L21:
 274:src/kbdutil.c ****         decimal_pos = gKbdGDS.bDispLen-gKbdGDS.bDecimalPos;
 231              		.loc 1 274 0
 232 007c AA7A     		ldrb	r2, [r5, #10]	@ zero_extendqisi2
 233 007e A74E     		ldr	r6, .L82
 234 0080 92B1     		cbz	r2, .L22
 235              	.LVL16:
 275:src/kbdutil.c ****         memmove(&gKbdGDS.sbDispBuf[decimal_pos+1] , &gKbdGDS.sbDispBuf[decimal_pos], gKbdGDS.bDecim
 236              		.loc 1 275 0
 237 0082 96F85440 		ldrb	r4, [r6, #84]	@ zero_extendqisi2
 238 0086 A41A     		subs	r4, r4, r2
 276:src/kbdutil.c ****         gKbdGDS.sbDispBuf[decimal_pos] = '.';
 239              		.loc 1 276 0
 240 0088 E4B2     		uxtb	r4, r4
 241 008a 3019     		adds	r0, r6, r4
 242 008c 0146     		mov	r1, r0
 243 008e 5531     		adds	r1, r1, #85
 244 0090 5630     		adds	r0, r0, #86
 245 0092 FFF7FEFF 		bl	memmove
 246              	.LVL17:
 277:src/kbdutil.c ****         gKbdGDS.bDispLen++;
 247              		.loc 1 277 0
 248 0096 3444     		add	r4, r4, r6
 249 0098 2E23     		movs	r3, #46
 250 009a 84F85530 		strb	r3, [r4, #85]
 278:src/kbdutil.c ****       }
 251              		.loc 1 278 0
 252 009e 96F85430 		ldrb	r3, [r6, #84]	@ zero_extendqisi2
 253 00a2 0133     		adds	r3, r3, #1
 254 00a4 86F85430 		strb	r3, [r6, #84]
 255              	.L22:
 280:src/kbdutil.c ****         memmove(&gKbdGDS.sbDispBuf[PREFIX_SIZE], gKbdGDS.sbDispBuf, gKbdGDS.bDispLen);
 256              		.loc 1 280 0
 257 00a8 D5F89030 		ldr	r3, [r5, #144]
 258 00ac 9B4C     		ldr	r4, .L82
 259 00ae 5B02     		lsls	r3, r3, #9
 260 00b0 1DD5     		bpl	.L19
ARM GAS  C:\Users\AHMED~1.ELE\AppData\Local\Temp\cciu15sF.s 			page 13


 281:src/kbdutil.c ****         memcpy(gKbdGDS.sbDispBuf, gKbdGDS.sbPrefix, PREFIX_SIZE);
 261              		.loc 1 281 0
 262 00b2 94F85460 		ldrb	r6, [r4, #84]	@ zero_extendqisi2
 263 00b6 04F15501 		add	r1, r4, #85
 264 00ba 3246     		mov	r2, r6
 265 00bc 04F15900 		add	r0, r4, #89
 283:src/kbdutil.c ****       }
 266              		.loc 1 283 0
 267 00c0 0436     		adds	r6, r6, #4
 281:src/kbdutil.c ****         memcpy(gKbdGDS.sbDispBuf, gKbdGDS.sbPrefix, PREFIX_SIZE);
 268              		.loc 1 281 0
 269 00c2 FFF7FEFF 		bl	memmove
 270              	.LVL18:
 282:src/kbdutil.c ****         gKbdGDS.bDispLen += PREFIX_SIZE;
 271              		.loc 1 282 0
 272 00c6 04F15500 		add	r0, r4, #85
 273 00ca 04F11701 		add	r1, r4, #23
 274 00ce 0422     		movs	r2, #4
 275 00d0 FFF7FEFF 		bl	memcpy
 276              	.LVL19:
 283:src/kbdutil.c ****       }
 277              		.loc 1 283 0
 278 00d4 84F85460 		strb	r6, [r4, #84]
 279 00d8 09E0     		b	.L19
 280              	.L73:
 287:src/kbdutil.c ****       gKbdGDS.bDispLen = gKbdGDS.bInputLen;
 281              		.loc 1 287 0
 282 00da AC7F     		ldrb	r4, [r5, #30]	@ zero_extendqisi2
 283 00dc 05F15500 		add	r0, r5, #85
 284 00e0 05F11F01 		add	r1, r5, #31
 285 00e4 2246     		mov	r2, r4
 286 00e6 FFF7FEFF 		bl	memcpy
 287              	.LVL20:
 288              	.L74:
 288:src/kbdutil.c ****       break;
 289              		.loc 1 288 0
 290 00ea 85F85440 		strb	r4, [r5, #84]
 291              	.L19:
 291:src/kbdutil.c ****   if (gKbdGDS.wFont==MW_BIGFONT) {
 292              		.loc 1 291 0
 293 00ee 95F85430 		ldrb	r3, [r5, #84]	@ zero_extendqisi2
 292:src/kbdutil.c ****     DispClrLineMW(gKbdGDS.wLineNo);
 294              		.loc 1 292 0
 295 00f2 B5F80880 		ldrh	r8, [r5, #8]
 291:src/kbdutil.c ****   if (gKbdGDS.wFont==MW_BIGFONT) {
 296              		.loc 1 291 0
 297 00f6 2B44     		add	r3, r3, r5
 298 00f8 0027     		movs	r7, #0
 292:src/kbdutil.c ****     DispClrLineMW(gKbdGDS.wLineNo);
 299              		.loc 1 292 0
 300 00fa B8F5805F 		cmp	r8, #4096
 291:src/kbdutil.c ****   if (gKbdGDS.wFont==MW_BIGFONT) {
 301              		.loc 1 291 0
 302 00fe 874C     		ldr	r4, .L82
 303 0100 83F85570 		strb	r7, [r3, #85]
 304 0104 AA8B     		ldrh	r2, [r5, #28]
 292:src/kbdutil.c ****     DispClrLineMW(gKbdGDS.wLineNo);
ARM GAS  C:\Users\AHMED~1.ELE\AppData\Local\Temp\cciu15sF.s 			page 14


 305              		.loc 1 292 0
 306 0106 40F08280 		bne	.L23
 293:src/kbdutil.c ****     if (gKbdGDS.bDispLen<=MW_NOR_LINESIZE) {
 307              		.loc 1 293 0
 308 010a 0097     		str	r7, [sp]
 309 010c 0F20     		movs	r0, #15
 310 010e 2221     		movs	r1, #34
 311 0110 3B46     		mov	r3, r7
 312 0112 FFF7FEFF 		bl	lib_app_call
 313              	.LVL21:
 294:src/kbdutil.c ****       DispLineMW(pBuf, gKbdGDS.wLineNo, (gKbdGDS.bRightJust?MW_RIGHT:0)|gKbdGDS.wFont|MW_CLREOL);
 314              		.loc 1 294 0
 315 0116 94F85460 		ldrb	r6, [r4, #84]	@ zero_extendqisi2
 316 011a 142E     		cmp	r6, #20
 317 011c 1ED8     		bhi	.L24
 318              	.LBB2:
 295:src/kbdutil.c ****       //DispClrLineMW(gKbdGDS.wLineNo+(MW_LINE4-MW_LINE2));   //03-10-26 JC ++
 319              		.loc 1 295 0
 320 011e 04F15500 		add	r0, r4, #85
 321 0122 FFF7FEFF 		bl	strlen
 322              	.LVL22:
 323 0126 0646     		mov	r6, r0
 324              	.LVL23:
 325 0128 711C     		adds	r1, r6, #1
 326 012a 9220     		movs	r0, #146
 327              	.LVL24:
 328 012c FFF7FEFF 		bl	sys_func1
 329              	.LVL25:
 330 0130 0546     		mov	r5, r0
 331 0132 0028     		cmp	r0, #0
 332 0134 00F05481 		beq	.L15
 295:src/kbdutil.c ****       //DispClrLineMW(gKbdGDS.wLineNo+(MW_LINE4-MW_LINE2));   //03-10-26 JC ++
 333              		.loc 1 295 0 is_stmt 0 discriminator 1
 334 0138 04F15501 		add	r1, r4, #85
 335 013c 3246     		mov	r2, r6
 336 013e FFF7FEFF 		bl	memcpy
 337              	.LVL26:
 338 0142 AF55     		strb	r7, [r5, r6]
 339 0144 2289     		ldrh	r2, [r4, #8]
 340 0146 94F89C10 		ldrb	r1, [r4, #156]	@ zero_extendqisi2
 341 014a 42F02002 		orr	r2, r2, #32
 342 014e A38B     		ldrh	r3, [r4, #28]
 343 0150 92B2     		uxth	r2, r2
 344 0152 B942     		cmp	r1, r7
 345 0154 18BF     		it	ne
 346 0156 42F00102 		orrne	r2, r2, #1
 347 015a D5E0     		b	.L79
 348              	.LVL27:
 349              	.L24:
 350              	.LBE2:
 299:src/kbdutil.c ****       memcpy(tmpbuf, pBuf, disp_len);
 351              		.loc 1 299 0 is_stmt 1
 352 015c 143E     		subs	r6, r6, #20
 300:src/kbdutil.c ****       tmpbuf[disp_len] = 0;
 353              		.loc 1 300 0
 354 015e 04F15501 		add	r1, r4, #85
 299:src/kbdutil.c ****       memcpy(tmpbuf, pBuf, disp_len);
ARM GAS  C:\Users\AHMED~1.ELE\AppData\Local\Temp\cciu15sF.s 			page 15


 355              		.loc 1 299 0
 356 0162 F6B2     		uxtb	r6, r6
 300:src/kbdutil.c ****       tmpbuf[disp_len] = 0;
 357              		.loc 1 300 0
 358 0164 3246     		mov	r2, r6
 359 0166 03A8     		add	r0, sp, #12
 360 0168 FFF7FEFF 		bl	memcpy
 361              	.LVL28:
 301:src/kbdutil.c ****       DispLineMW(tmpbuf, gKbdGDS.wLineNo, (gKbdGDS.bRightJust?MW_RIGHT:0)|gKbdGDS.wFont|MW_CLREOL);
 362              		.loc 1 301 0
 363 016c 0AAB     		add	r3, sp, #40
 364 016e 3344     		add	r3, r3, r6
 365              	.LBB3:
 302:src/kbdutil.c ****       pBuf += disp_len;
 366              		.loc 1 302 0
 367 0170 03A8     		add	r0, sp, #12
 368              	.LBE3:
 301:src/kbdutil.c ****       DispLineMW(tmpbuf, gKbdGDS.wLineNo, (gKbdGDS.bRightJust?MW_RIGHT:0)|gKbdGDS.wFont|MW_CLREOL);
 369              		.loc 1 301 0
 370 0172 03F81C7C 		strb	r7, [r3, #-28]
 371              	.LBB4:
 302:src/kbdutil.c ****       pBuf += disp_len;
 372              		.loc 1 302 0
 373 0176 FFF7FEFF 		bl	strlen
 374              	.LVL29:
 375 017a 8146     		mov	r9, r0
 376              	.LVL30:
 377 017c 09F10101 		add	r1, r9, #1
 378 0180 9220     		movs	r0, #146
 379              	.LVL31:
 380 0182 FFF7FEFF 		bl	sys_func1
 381              	.LVL32:
 382 0186 8046     		mov	r8, r0
 383 0188 D0B1     		cbz	r0, .L27
 302:src/kbdutil.c ****       pBuf += disp_len;
 384              		.loc 1 302 0 is_stmt 0 discriminator 1
 385 018a 03A9     		add	r1, sp, #12
 386 018c 4A46     		mov	r2, r9
 387 018e FFF7FEFF 		bl	memcpy
 388              	.LVL33:
 389 0192 08F80970 		strb	r7, [r8, r9]
 390 0196 2289     		ldrh	r2, [r4, #8]
 391 0198 94F89C10 		ldrb	r1, [r4, #156]	@ zero_extendqisi2
 392 019c 42F02002 		orr	r2, r2, #32
 393 01a0 A38B     		ldrh	r3, [r4, #28]
 394 01a2 92B2     		uxth	r2, r2
 395 01a4 0029     		cmp	r1, #0
 396 01a6 18BF     		it	ne
 397 01a8 42F00102 		orrne	r2, r2, #1
 398 01ac 0F20     		movs	r0, #15
 399 01ae 0092     		str	r2, [sp]
 400 01b0 2521     		movs	r1, #37
 401 01b2 4246     		mov	r2, r8
 402 01b4 FFF7FEFF 		bl	lib_app_call
 403              	.LVL34:
 404 01b8 9420     		movs	r0, #148
 405 01ba 4146     		mov	r1, r8
ARM GAS  C:\Users\AHMED~1.ELE\AppData\Local\Temp\cciu15sF.s 			page 16


 406 01bc FFF7FEFF 		bl	sys_func1
 407              	.LVL35:
 408              	.L27:
 409              	.LBE4:
 303:src/kbdutil.c ****       DispLineMW(pBuf, gKbdGDS.wLineNo+(MW_LINE4-MW_LINE2), (gKbdGDS.bRightJust?MW_RIGHT:0)|gKbdGDS
 410              		.loc 1 303 0 is_stmt 1
 411 01c0 3544     		add	r5, r5, r6
 412 01c2 5535     		adds	r5, r5, #85
 413              	.LVL36:
 414              	.LBB5:
 304:src/kbdutil.c ****     }
 415              		.loc 1 304 0
 416 01c4 2846     		mov	r0, r5
 417 01c6 FFF7FEFF 		bl	strlen
 418              	.LVL37:
 419              	.LBE5:
 303:src/kbdutil.c ****       DispLineMW(pBuf, gKbdGDS.wLineNo+(MW_LINE4-MW_LINE2), (gKbdGDS.bRightJust?MW_RIGHT:0)|gKbdGDS
 420              		.loc 1 303 0
 421 01ca 544F     		ldr	r7, .L82
 422              	.LBB6:
 304:src/kbdutil.c ****     }
 423              		.loc 1 304 0
 424 01cc 0646     		mov	r6, r0
 425              	.LVL38:
 426 01ce 711C     		adds	r1, r6, #1
 427 01d0 9220     		movs	r0, #146
 428              	.LVL39:
 429 01d2 FFF7FEFF 		bl	sys_func1
 430              	.LVL40:
 431 01d6 0446     		mov	r4, r0
 432 01d8 0028     		cmp	r0, #0
 433 01da 00F00181 		beq	.L15
 304:src/kbdutil.c ****     }
 434              		.loc 1 304 0 is_stmt 0 discriminator 1
 435 01de 2946     		mov	r1, r5
 436 01e0 3246     		mov	r2, r6
 437 01e2 FFF7FEFF 		bl	memcpy
 438              	.LVL41:
 439 01e6 0023     		movs	r3, #0
 440 01e8 0F20     		movs	r0, #15
 441 01ea A355     		strb	r3, [r4, r6]
 442 01ec 3A89     		ldrh	r2, [r7, #8]
 443 01ee 97F89C10 		ldrb	r1, [r7, #156]	@ zero_extendqisi2
 444 01f2 42F02002 		orr	r2, r2, #32
 445 01f6 BB8B     		ldrh	r3, [r7, #28]
 446 01f8 92B2     		uxth	r2, r2
 447 01fa 0029     		cmp	r1, #0
 448 01fc 18BF     		it	ne
 449 01fe 42F00102 		orrne	r2, r2, #1
 450 0202 03F50073 		add	r3, r3, #512
 451 0206 0092     		str	r2, [sp]
 452 0208 2521     		movs	r1, #37
 453 020a 2246     		mov	r2, r4
 454 020c E2E0     		b	.L77
 455              	.LVL42:
 456              	.L23:
 457              	.LBE6:
ARM GAS  C:\Users\AHMED~1.ELE\AppData\Local\Temp\cciu15sF.s 			page 17


 307:src/kbdutil.c ****     DispClrLineMW(gKbdGDS.wLineNo);
 458              		.loc 1 307 0 is_stmt 1
 459 020e B8F1000F 		cmp	r8, #0
 460 0212 52D1     		bne	.L29
 308:src/kbdutil.c ****     if (gKbdGDS.bDispLen<=MW_NOR_LINESIZE) {
 461              		.loc 1 308 0
 462 0214 CDF80080 		str	r8, [sp]
 463 0218 0F20     		movs	r0, #15
 464 021a 2221     		movs	r1, #34
 465 021c 4346     		mov	r3, r8
 466 021e FFF7FEFF 		bl	lib_app_call
 467              	.LVL43:
 309:src/kbdutil.c ****       DispLineMW(pBuf, gKbdGDS.wLineNo, (gKbdGDS.bRightJust?MW_RIGHT:0)|gKbdGDS.wFont|MW_CLREOL);
 468              		.loc 1 309 0
 469 0222 94F85460 		ldrb	r6, [r4, #84]	@ zero_extendqisi2
 470 0226 142E     		cmp	r6, #20
 471 0228 14D8     		bhi	.L30
 472              	.LBB7:
 310:src/kbdutil.c ****       //DispClrLineMW(gKbdGDS.wLineNo+(MW_LINE3-MW_LINE2));   //03-10-26 JC ++
 473              		.loc 1 310 0
 474 022a 04F15500 		add	r0, r4, #85
 475 022e FFF7FEFF 		bl	strlen
 476              	.LVL44:
 477 0232 0646     		mov	r6, r0
 478              	.LVL45:
 479 0234 711C     		adds	r1, r6, #1
 480 0236 9220     		movs	r0, #146
 481              	.LVL46:
 482 0238 FFF7FEFF 		bl	sys_func1
 483              	.LVL47:
 484 023c 0546     		mov	r5, r0
 485 023e 0028     		cmp	r0, #0
 486 0240 00F0CE80 		beq	.L15
 310:src/kbdutil.c ****       //DispClrLineMW(gKbdGDS.wLineNo+(MW_LINE3-MW_LINE2));   //03-10-26 JC ++
 487              		.loc 1 310 0 is_stmt 0 discriminator 1
 488 0244 04F15501 		add	r1, r4, #85
 489 0248 3246     		mov	r2, r6
 490 024a FFF7FEFF 		bl	memcpy
 491              	.LVL48:
 492 024e 05F80680 		strb	r8, [r5, r6]
 493 0252 4EE0     		b	.L80
 494              	.LVL49:
 495              	.L30:
 496              	.LBE7:
 314:src/kbdutil.c ****       memcpy(tmpbuf, pBuf, disp_len);
 497              		.loc 1 314 0 is_stmt 1
 498 0254 143E     		subs	r6, r6, #20
 315:src/kbdutil.c ****       tmpbuf[disp_len] = 0;
 499              		.loc 1 315 0
 500 0256 04F15501 		add	r1, r4, #85
 314:src/kbdutil.c ****       memcpy(tmpbuf, pBuf, disp_len);
 501              		.loc 1 314 0
 502 025a F6B2     		uxtb	r6, r6
 315:src/kbdutil.c ****       tmpbuf[disp_len] = 0;
 503              		.loc 1 315 0
 504 025c 3246     		mov	r2, r6
 505 025e 03A8     		add	r0, sp, #12
ARM GAS  C:\Users\AHMED~1.ELE\AppData\Local\Temp\cciu15sF.s 			page 18


 506 0260 FFF7FEFF 		bl	memcpy
 507              	.LVL50:
 316:src/kbdutil.c ****       DispLineMW(tmpbuf, gKbdGDS.wLineNo, (gKbdGDS.bRightJust?MW_RIGHT:0)|gKbdGDS.wFont|MW_CLREOL);
 508              		.loc 1 316 0
 509 0264 0AAB     		add	r3, sp, #40
 510 0266 3344     		add	r3, r3, r6
 511              	.LBB8:
 317:src/kbdutil.c ****       pBuf += disp_len;
 512              		.loc 1 317 0
 513 0268 03A8     		add	r0, sp, #12
 514              	.LBE8:
 316:src/kbdutil.c ****       DispLineMW(tmpbuf, gKbdGDS.wLineNo, (gKbdGDS.bRightJust?MW_RIGHT:0)|gKbdGDS.wFont|MW_CLREOL);
 515              		.loc 1 316 0
 516 026a 03F81C8C 		strb	r8, [r3, #-28]
 517              	.LBB9:
 317:src/kbdutil.c ****       pBuf += disp_len;
 518              		.loc 1 317 0
 519 026e FFF7FEFF 		bl	strlen
 520              	.LVL51:
 521 0272 8146     		mov	r9, r0
 522              	.LVL52:
 523 0274 09F10101 		add	r1, r9, #1
 524 0278 9220     		movs	r0, #146
 525              	.LVL53:
 526 027a FFF7FEFF 		bl	sys_func1
 527              	.LVL54:
 528 027e 0746     		mov	r7, r0
 529 0280 0028     		cmp	r0, #0
 530 0282 00F08380 		beq	.L33
 317:src/kbdutil.c ****       pBuf += disp_len;
 531              		.loc 1 317 0 is_stmt 0 discriminator 1
 532 0286 03A9     		add	r1, sp, #12
 533 0288 4A46     		mov	r2, r9
 534 028a FFF7FEFF 		bl	memcpy
 535              	.LVL55:
 536 028e 07F80980 		strb	r8, [r7, r9]
 537 0292 2289     		ldrh	r2, [r4, #8]
 538 0294 94F89C10 		ldrb	r1, [r4, #156]	@ zero_extendqisi2
 539 0298 42F02002 		orr	r2, r2, #32
 540 029c A38B     		ldrh	r3, [r4, #28]
 541 029e 92B2     		uxth	r2, r2
 542 02a0 0029     		cmp	r1, #0
 543 02a2 18BF     		it	ne
 544 02a4 42F00102 		orrne	r2, r2, #1
 545 02a8 0F20     		movs	r0, #15
 546 02aa 0092     		str	r2, [sp]
 547 02ac 2521     		movs	r1, #37
 548 02ae 3A46     		mov	r2, r7
 549 02b0 FFF7FEFF 		bl	lib_app_call
 550              	.LVL56:
 551 02b4 9420     		movs	r0, #148
 552 02b6 3946     		mov	r1, r7
 553 02b8 66E0     		b	.L81
 554              	.LVL57:
 555              	.L29:
 556              	.LBE9:
 323:src/kbdutil.c ****     if (gKbdGDS.bDispLen<=MW_MAX_LINESIZE) {
ARM GAS  C:\Users\AHMED~1.ELE\AppData\Local\Temp\cciu15sF.s 			page 19


 557              		.loc 1 323 0 is_stmt 1
 558 02ba 0097     		str	r7, [sp]
 559 02bc 0F20     		movs	r0, #15
 560 02be 2221     		movs	r1, #34
 561 02c0 3B46     		mov	r3, r7
 562 02c2 FFF7FEFF 		bl	lib_app_call
 563              	.LVL58:
 324:src/kbdutil.c ****       DispLineMW(pBuf, gKbdGDS.wLineNo, (gKbdGDS.bRightJust?MW_RIGHT:0)|gKbdGDS.wFont|MW_CLREOL);
 564              		.loc 1 324 0
 565 02c6 94F85460 		ldrb	r6, [r4, #84]	@ zero_extendqisi2
 566 02ca 1A2E     		cmp	r6, #26
 567 02cc 2CD8     		bhi	.L32
 568              	.LBB10:
 325:src/kbdutil.c ****       //DispClrLineMW(gKbdGDS.wLineNo+(MW_LINE3-MW_LINE2));   //03-10-26 JC ++
 569              		.loc 1 325 0
 570 02ce 04F15500 		add	r0, r4, #85
 571 02d2 FFF7FEFF 		bl	strlen
 572              	.LVL59:
 573 02d6 0646     		mov	r6, r0
 574              	.LVL60:
 575 02d8 711C     		adds	r1, r6, #1
 576 02da 9220     		movs	r0, #146
 577              	.LVL61:
 578 02dc FFF7FEFF 		bl	sys_func1
 579              	.LVL62:
 580 02e0 0546     		mov	r5, r0
 581 02e2 0028     		cmp	r0, #0
 582 02e4 7CD0     		beq	.L15
 325:src/kbdutil.c ****       //DispClrLineMW(gKbdGDS.wLineNo+(MW_LINE3-MW_LINE2));   //03-10-26 JC ++
 583              		.loc 1 325 0 is_stmt 0 discriminator 1
 584 02e6 04F15501 		add	r1, r4, #85
 585 02ea 3246     		mov	r2, r6
 586 02ec FFF7FEFF 		bl	memcpy
 587              	.LVL63:
 588 02f0 AF55     		strb	r7, [r5, r6]
 589              	.LVL64:
 590              	.L80:
 591 02f2 2289     		ldrh	r2, [r4, #8]
 592 02f4 94F89C10 		ldrb	r1, [r4, #156]	@ zero_extendqisi2
 593 02f8 42F02002 		orr	r2, r2, #32
 594 02fc A38B     		ldrh	r3, [r4, #28]
 595 02fe 92B2     		uxth	r2, r2
 596 0300 0029     		cmp	r1, #0
 597 0302 18BF     		it	ne
 598 0304 42F00102 		orrne	r2, r2, #1
 599              	.L79:
 600 0308 0092     		str	r2, [sp]
 601 030a 2521     		movs	r1, #37
 602 030c 0F20     		movs	r0, #15
 603 030e 2A46     		mov	r2, r5
 604 0310 FFF7FEFF 		bl	lib_app_call
 605              	.LVL65:
 606 0314 9420     		movs	r0, #148
 607 0316 2946     		mov	r1, r5
 608 0318 60E0     		b	.L75
 609              	.L83:
 610 031a 00BF     		.align	2
ARM GAS  C:\Users\AHMED~1.ELE\AppData\Local\Temp\cciu15sF.s 			page 20


 611              	.L82:
 612 031c 00000000 		.word	.LANCHOR0
 613 0320 55000000 		.word	.LANCHOR0+85
 614 0324 1F000000 		.word	.LANCHOR0+31
 615              	.L32:
 616              	.LBE10:
 329:src/kbdutil.c ****       memcpy(tmpbuf, pBuf, disp_len);
 617              		.loc 1 329 0 is_stmt 1
 618 0328 1A3E     		subs	r6, r6, #26
 330:src/kbdutil.c ****       tmpbuf[disp_len] = 0;
 619              		.loc 1 330 0
 620 032a 04F15501 		add	r1, r4, #85
 329:src/kbdutil.c ****       memcpy(tmpbuf, pBuf, disp_len);
 621              		.loc 1 329 0
 622 032e F6B2     		uxtb	r6, r6
 330:src/kbdutil.c ****       tmpbuf[disp_len] = 0;
 623              		.loc 1 330 0
 624 0330 3246     		mov	r2, r6
 625 0332 03A8     		add	r0, sp, #12
 626 0334 FFF7FEFF 		bl	memcpy
 627              	.LVL66:
 331:src/kbdutil.c ****       DispLineMW(tmpbuf, gKbdGDS.wLineNo, (gKbdGDS.bRightJust?MW_RIGHT:0)|gKbdGDS.wFont|MW_CLREOL);
 628              		.loc 1 331 0
 629 0338 0AAB     		add	r3, sp, #40
 630 033a 3344     		add	r3, r3, r6
 631              	.LBB11:
 332:src/kbdutil.c ****       pBuf += disp_len;
 632              		.loc 1 332 0
 633 033c 03A8     		add	r0, sp, #12
 634              	.LBE11:
 331:src/kbdutil.c ****       DispLineMW(tmpbuf, gKbdGDS.wLineNo, (gKbdGDS.bRightJust?MW_RIGHT:0)|gKbdGDS.wFont|MW_CLREOL);
 635              		.loc 1 331 0
 636 033e 03F81C7C 		strb	r7, [r3, #-28]
 637              	.LBB12:
 332:src/kbdutil.c ****       pBuf += disp_len;
 638              		.loc 1 332 0
 639 0342 FFF7FEFF 		bl	strlen
 640              	.LVL67:
 641 0346 8146     		mov	r9, r0
 642              	.LVL68:
 643 0348 09F10101 		add	r1, r9, #1
 644 034c 9220     		movs	r0, #146
 645              	.LVL69:
 646 034e FFF7FEFF 		bl	sys_func1
 647              	.LVL70:
 648 0352 8046     		mov	r8, r0
 649 0354 D0B1     		cbz	r0, .L33
 332:src/kbdutil.c ****       pBuf += disp_len;
 650              		.loc 1 332 0 is_stmt 0 discriminator 1
 651 0356 03A9     		add	r1, sp, #12
 652 0358 4A46     		mov	r2, r9
 653 035a FFF7FEFF 		bl	memcpy
 654              	.LVL71:
 655 035e 08F80970 		strb	r7, [r8, r9]
 656 0362 2289     		ldrh	r2, [r4, #8]
 657 0364 94F89C10 		ldrb	r1, [r4, #156]	@ zero_extendqisi2
 658 0368 42F02002 		orr	r2, r2, #32
ARM GAS  C:\Users\AHMED~1.ELE\AppData\Local\Temp\cciu15sF.s 			page 21


 659 036c A38B     		ldrh	r3, [r4, #28]
 660 036e 92B2     		uxth	r2, r2
 661 0370 0029     		cmp	r1, #0
 662 0372 18BF     		it	ne
 663 0374 42F00102 		orrne	r2, r2, #1
 664 0378 0F20     		movs	r0, #15
 665 037a 0092     		str	r2, [sp]
 666 037c 2521     		movs	r1, #37
 667 037e 4246     		mov	r2, r8
 668 0380 FFF7FEFF 		bl	lib_app_call
 669              	.LVL72:
 670 0384 9420     		movs	r0, #148
 671 0386 4146     		mov	r1, r8
 672              	.LVL73:
 673              	.L81:
 674 0388 FFF7FEFF 		bl	sys_func1
 675              	.LVL74:
 676              	.L33:
 677              	.LBE12:
 333:src/kbdutil.c ****       DispLineMW(pBuf, gKbdGDS.wLineNo+(MW_LINE3-MW_LINE2), (gKbdGDS.bRightJust?MW_RIGHT:0)|gKbdGDS
 678              		.loc 1 333 0 is_stmt 1
 679 038c 3544     		add	r5, r5, r6
 680 038e 5535     		adds	r5, r5, #85
 681              	.LVL75:
 682              	.LBB13:
 334:src/kbdutil.c ****     }
 683              		.loc 1 334 0
 684 0390 2846     		mov	r0, r5
 685 0392 FFF7FEFF 		bl	strlen
 686              	.LVL76:
 687              	.LBE13:
 333:src/kbdutil.c ****       DispLineMW(pBuf, gKbdGDS.wLineNo+(MW_LINE3-MW_LINE2), (gKbdGDS.bRightJust?MW_RIGHT:0)|gKbdGDS
 688              		.loc 1 333 0
 689 0396 144F     		ldr	r7, .L84
 690              	.LBB14:
 334:src/kbdutil.c ****     }
 691              		.loc 1 334 0
 692 0398 0646     		mov	r6, r0
 693              	.LVL77:
 694 039a 711C     		adds	r1, r6, #1
 695 039c 9220     		movs	r0, #146
 696              	.LVL78:
 697 039e FFF7FEFF 		bl	sys_func1
 698              	.LVL79:
 699 03a2 0446     		mov	r4, r0
 700 03a4 E0B1     		cbz	r0, .L15
 334:src/kbdutil.c ****     }
 701              		.loc 1 334 0 is_stmt 0 discriminator 1
 702 03a6 2946     		mov	r1, r5
 703 03a8 3246     		mov	r2, r6
 704 03aa FFF7FEFF 		bl	memcpy
 705              	.LVL80:
 706 03ae 0023     		movs	r3, #0
 707 03b0 0F20     		movs	r0, #15
 708 03b2 A355     		strb	r3, [r4, r6]
 709 03b4 3A89     		ldrh	r2, [r7, #8]
 710 03b6 97F89C10 		ldrb	r1, [r7, #156]	@ zero_extendqisi2
ARM GAS  C:\Users\AHMED~1.ELE\AppData\Local\Temp\cciu15sF.s 			page 22


 711 03ba 42F02002 		orr	r2, r2, #32
 712 03be BB8B     		ldrh	r3, [r7, #28]
 713 03c0 92B2     		uxth	r2, r2
 714 03c2 0029     		cmp	r1, #0
 715 03c4 18BF     		it	ne
 716 03c6 42F00102 		orrne	r2, r2, #1
 717 03ca 03F58073 		add	r3, r3, #256
 718 03ce 0092     		str	r2, [sp]
 719 03d0 2521     		movs	r1, #37
 720 03d2 2246     		mov	r2, r4
 721              	.LVL81:
 722              	.L77:
 723 03d4 FFF7FEFF 		bl	lib_app_call
 724              	.LVL82:
 725 03d8 9420     		movs	r0, #148
 726 03da 2146     		mov	r1, r4
 727              	.LVL83:
 728              	.L75:
 729 03dc FFF7FEFF 		bl	sys_func1
 730              	.LVL84:
 731              	.L15:
 732              	.LBE14:
 337:src/kbdutil.c **** //*****************************************************************************
 733              		.loc 1 337 0 is_stmt 1
 734 03e0 0BB0     		add	sp, sp, #44
 735              		.cfi_def_cfa_offset 28
 736              		@ sp needed
 737 03e2 BDE8F083 		pop	{r4, r5, r6, r7, r8, r9, pc}
 738              	.L85:
 739 03e6 00BF     		.align	2
 740              	.L84:
 741 03e8 00000000 		.word	.LANCHOR0
 742              		.cfi_endproc
 743              	.LFE8:
 744              		.size	UpdateDisplay, .-UpdateDisplay
 745              		.section	.text.InitTimer,"ax",%progbits
 746              		.align	1
 747              		.thumb
 748              		.thumb_func
 749              		.type	InitTimer, %function
 750              	InitTimer:
 751              	.LFB0:
  93:src/kbdutil.c ****   if (gKbdGDS.iTimerHdl == -1) {
 752              		.loc 1 93 0
 753              		.cfi_startproc
 754              		@ args = 0, pretend = 0, frame = 0
 755              		@ frame_needed = 0, uses_anonymous_args = 0
 756 0000 10B5     		push	{r4, lr}
 757              		.cfi_def_cfa_offset 8
 758              		.cfi_offset 4, -8
 759              		.cfi_offset 14, -4
  94:src/kbdutil.c ****     gKbdGDS.iTimerHdl = TimerOpenMW();
 760              		.loc 1 94 0
 761 0002 054C     		ldr	r4, .L88
 762 0004 D4F89830 		ldr	r3, [r4, #152]
 763 0008 0133     		adds	r3, r3, #1
 764 000a 04D1     		bne	.L86
ARM GAS  C:\Users\AHMED~1.ELE\AppData\Local\Temp\cciu15sF.s 			page 23


 765              	.LBB17:
 766              	.LBB18:
  95:src/kbdutil.c ****   }
 767              		.loc 1 95 0
 768 000c 0A20     		movs	r0, #10
 769 000e FFF7FEFF 		bl	sys_func0
 770              	.LVL85:
 771 0012 C4F89800 		str	r0, [r4, #152]
 772              	.L86:
 773 0016 10BD     		pop	{r4, pc}
 774              	.L89:
 775              		.align	2
 776              	.L88:
 777 0018 00000000 		.word	.LANCHOR0
 778              	.LBE18:
 779              	.LBE17:
 780              		.cfi_endproc
 781              	.LFE0:
 782              		.size	InitTimer, .-InitTimer
 783              		.section	.text.ClearKeyin,"ax",%progbits
 784              		.align	1
 785              		.global	ClearKeyin
 786              		.thumb
 787              		.thumb_func
 788              		.type	ClearKeyin, %function
 789              	ClearKeyin:
 790              	.LFB1:
 107:src/kbdutil.c ****   InitTimer();
 791              		.loc 1 107 0
 792              		.cfi_startproc
 793              		@ args = 0, pretend = 0, frame = 0
 794              		@ frame_needed = 0, uses_anonymous_args = 0
 795 0000 07B5     		push	{r0, r1, r2, lr}
 796              		.cfi_def_cfa_offset 16
 797              		.cfi_offset 14, -4
 108:src/kbdutil.c ****   while (GetCharMW()!=0) SleepMW();
 798              		.loc 1 108 0
 799 0002 FFF7FEFF 		bl	InitTimer
 800              	.LVL86:
 801              	.L91:
 109:src/kbdutil.c **** }
 802              		.loc 1 109 0 discriminator 1
 803 0006 0022     		movs	r2, #0
 804 0008 0F20     		movs	r0, #15
 805 000a 0092     		str	r2, [sp]
 806 000c 1621     		movs	r1, #22
 807 000e 1346     		mov	r3, r2
 808 0010 FFF7FEFF 		bl	lib_app_call
 809              	.LVL87:
 810 0014 20B1     		cbz	r0, .L93
 109:src/kbdutil.c **** }
 811              		.loc 1 109 0 is_stmt 0 discriminator 2
 812 0016 4FF4CE70 		mov	r0, #412
 813 001a FFF7FEFF 		bl	sys_func0
 814              	.LVL88:
 815 001e F2E7     		b	.L91
 816              	.L93:
ARM GAS  C:\Users\AHMED~1.ELE\AppData\Local\Temp\cciu15sF.s 			page 24


 110:src/kbdutil.c **** //*****************************************************************************
 817              		.loc 1 110 0 is_stmt 1
 818 0020 03B0     		add	sp, sp, #12
 819              		.cfi_def_cfa_offset 4
 820              		@ sp needed
 821 0022 5DF804FB 		ldr	pc, [sp], #4
 822              		.cfi_endproc
 823              	.LFE1:
 824              		.size	ClearKeyin, .-ClearKeyin
 825              		.section	.text.GetKeyin,"ax",%progbits
 826              		.align	1
 827              		.global	GetKeyin
 828              		.thumb
 829              		.thumb_func
 830              		.type	GetKeyin, %function
 831              	GetKeyin:
 832              	.LFB2:
 120:src/kbdutil.c ****   DWORD keyin;
 833              		.loc 1 120 0
 834              		.cfi_startproc
 835              		@ args = 0, pretend = 0, frame = 0
 836              		@ frame_needed = 0, uses_anonymous_args = 0
 837 0000 07B5     		push	{r0, r1, r2, lr}
 838              		.cfi_def_cfa_offset 16
 839              		.cfi_offset 14, -4
 123:src/kbdutil.c ****   keyin = GetCharMW();
 840              		.loc 1 123 0
 841 0002 FFF7FEFF 		bl	InitTimer
 842              	.LVL89:
 124:src/kbdutil.c ****   if ((keyin==0)&&(TimerGetMW(gKbdGDS.iTimerHdl)==0))
 843              		.loc 1 124 0
 844 0006 0022     		movs	r2, #0
 845 0008 0F20     		movs	r0, #15
 846 000a 0092     		str	r2, [sp]
 847 000c 1621     		movs	r1, #22
 848 000e 1346     		mov	r3, r2
 849 0010 FFF7FEFF 		bl	lib_app_call
 850              	.LVL90:
 125:src/kbdutil.c ****     return MWKEY_CANCL;
 851              		.loc 1 125 0
 852 0014 48B9     		cbnz	r0, .L95
 125:src/kbdutil.c ****     return MWKEY_CANCL;
 853              		.loc 1 125 0 is_stmt 0 discriminator 1
 854 0016 064B     		ldr	r3, .L98
 855 0018 0D20     		movs	r0, #13
 856              	.LVL91:
 857 001a D3F89810 		ldr	r1, [r3, #152]
 858 001e FFF7FEFF 		bl	sys_func1
 859              	.LVL92:
 860 0022 0028     		cmp	r0, #0
 861 0024 0CBF     		ite	eq
 862 0026 1120     		moveq	r0, #17
 863 0028 0020     		movne	r0, #0
 864              	.L95:
 129:src/kbdutil.c **** //*****************************************************************************
 865              		.loc 1 129 0 is_stmt 1
 866 002a 03B0     		add	sp, sp, #12
ARM GAS  C:\Users\AHMED~1.ELE\AppData\Local\Temp\cciu15sF.s 			page 25


 867              		.cfi_def_cfa_offset 4
 868              		@ sp needed
 869 002c 5DF804FB 		ldr	pc, [sp], #4
 870              	.L99:
 871              		.align	2
 872              	.L98:
 873 0030 00000000 		.word	.LANCHOR0
 874              		.cfi_endproc
 875              	.LFE2:
 876              		.size	GetKeyin, .-GetKeyin
 877              		.section	.text.SetKbdTimeout,"ax",%progbits
 878              		.align	1
 879              		.global	SetKbdTimeout
 880              		.thumb
 881              		.thumb_func
 882              		.type	SetKbdTimeout, %function
 883              	SetKbdTimeout:
 884              	.LFB3:
 139:src/kbdutil.c ****   InitTimer();
 885              		.loc 1 139 0
 886              		.cfi_startproc
 887              		@ args = 0, pretend = 0, frame = 0
 888              		@ frame_needed = 0, uses_anonymous_args = 0
 889              	.LVL93:
 890 0000 10B5     		push	{r4, lr}
 891              		.cfi_def_cfa_offset 8
 892              		.cfi_offset 4, -8
 893              		.cfi_offset 14, -4
 139:src/kbdutil.c ****   InitTimer();
 894              		.loc 1 139 0
 895 0002 0446     		mov	r4, r0
 140:src/kbdutil.c ****   gKbdGDS.dTimeout = aTimeout;
 896              		.loc 1 140 0
 897 0004 FFF7FEFF 		bl	InitTimer
 898              	.LVL94:
 141:src/kbdutil.c ****   TimerSetMW(gKbdGDS.iTimerHdl, aTimeout);
 899              		.loc 1 141 0
 900 0008 054B     		ldr	r3, .L101
 142:src/kbdutil.c **** }
 901              		.loc 1 142 0
 902 000a 2246     		mov	r2, r4
 141:src/kbdutil.c ****   TimerSetMW(gKbdGDS.iTimerHdl, aTimeout);
 903              		.loc 1 141 0
 904 000c C3F89440 		str	r4, [r3, #148]
 143:src/kbdutil.c **** //*****************************************************************************
 905              		.loc 1 143 0
 906 0010 BDE81040 		pop	{r4, lr}
 907              		.cfi_restore 14
 908              		.cfi_restore 4
 909              		.cfi_def_cfa_offset 0
 910              	.LVL95:
 142:src/kbdutil.c **** }
 911              		.loc 1 142 0
 912 0014 0C20     		movs	r0, #12
 913 0016 D3F89810 		ldr	r1, [r3, #152]
 914 001a FFF7FEBF 		b	sys_func2
 915              	.LVL96:
ARM GAS  C:\Users\AHMED~1.ELE\AppData\Local\Temp\cciu15sF.s 			page 26


 916              	.L102:
 917 001e 00BF     		.align	2
 918              	.L101:
 919 0020 00000000 		.word	.LANCHOR0
 920              		.cfi_endproc
 921              	.LFE3:
 922              		.size	SetKbdTimeout, .-SetKbdTimeout
 923              		.section	.text.GetKbdTimeout,"ax",%progbits
 924              		.align	1
 925              		.global	GetKbdTimeout
 926              		.thumb
 927              		.thumb_func
 928              		.type	GetKbdTimeout, %function
 929              	GetKbdTimeout:
 930              	.LFB4:
 153:src/kbdutil.c ****   InitTimer();
 931              		.loc 1 153 0
 932              		.cfi_startproc
 933              		@ args = 0, pretend = 0, frame = 0
 934              		@ frame_needed = 0, uses_anonymous_args = 0
 935 0000 08B5     		push	{r3, lr}
 936              		.cfi_def_cfa_offset 8
 937              		.cfi_offset 3, -8
 938              		.cfi_offset 14, -4
 154:src/kbdutil.c ****   return TimerGetMW(gKbdGDS.iTimerHdl);
 939              		.loc 1 154 0
 940 0002 FFF7FEFF 		bl	InitTimer
 941              	.LVL97:
 155:src/kbdutil.c **** }
 942              		.loc 1 155 0
 943 0006 044B     		ldr	r3, .L104
 944 0008 0D20     		movs	r0, #13
 945 000a D3F89810 		ldr	r1, [r3, #152]
 156:src/kbdutil.c **** //*****************************************************************************
 946              		.loc 1 156 0
 947 000e BDE80840 		pop	{r3, lr}
 948              		.cfi_restore 14
 949              		.cfi_restore 3
 950              		.cfi_def_cfa_offset 0
 155:src/kbdutil.c **** }
 951              		.loc 1 155 0
 952 0012 FFF7FEBF 		b	sys_func1
 953              	.LVL98:
 954              	.L105:
 955 0016 00BF     		.align	2
 956              	.L104:
 957 0018 00000000 		.word	.LANCHOR0
 958              		.cfi_endproc
 959              	.LFE4:
 960              		.size	GetKbdTimeout, .-GetKbdTimeout
 961              		.section	.text.WaitKey,"ax",%progbits
 962              		.align	1
 963              		.global	WaitKey
 964              		.thumb
 965              		.thumb_func
 966              		.type	WaitKey, %function
 967              	WaitKey:
ARM GAS  C:\Users\AHMED~1.ELE\AppData\Local\Temp\cciu15sF.s 			page 27


 968              	.LFB5:
 166:src/kbdutil.c ****   DWORD keyin, i;
 969              		.loc 1 166 0
 970              		.cfi_startproc
 971              		@ args = 0, pretend = 0, frame = 0
 972              		@ frame_needed = 0, uses_anonymous_args = 0
 973              	.LVL99:
 974 0000 37B5     		push	{r0, r1, r2, r4, r5, lr}
 975              		.cfi_def_cfa_offset 24
 976              		.cfi_offset 4, -12
 977              		.cfi_offset 5, -8
 978              		.cfi_offset 14, -4
 169:src/kbdutil.c ****   keyin = i = 0;
 979              		.loc 1 169 0
 980 0002 4500     		lsls	r5, r0, #1
 981              	.LVL100:
 982 0004 0024     		movs	r4, #0
 983              	.LVL101:
 984              	.L108:
 172:src/kbdutil.c ****     keyin = GetCharMW();
 985              		.loc 1 172 0 discriminator 2
 986 0006 4FF4CE70 		mov	r0, #412
 987 000a FFF7FEFF 		bl	sys_func0
 988              	.LVL102:
 173:src/kbdutil.c ****   } while ((i++ < aTimeout) && (keyin == 0));
 989              		.loc 1 173 0 discriminator 2
 990 000e 0022     		movs	r2, #0
 991 0010 0F20     		movs	r0, #15
 992 0012 0092     		str	r2, [sp]
 993 0014 1621     		movs	r1, #22
 994 0016 1346     		mov	r3, r2
 995 0018 FFF7FEFF 		bl	lib_app_call
 996              	.LVL103:
 174:src/kbdutil.c ****   return(keyin);
 997              		.loc 1 174 0 discriminator 2
 998 001c AC42     		cmp	r4, r5
 999 001e 02D0     		beq	.L112
 1000 0020 0134     		adds	r4, r4, #1
 1001              	.LVL104:
 174:src/kbdutil.c ****   return(keyin);
 1002              		.loc 1 174 0 is_stmt 0 discriminator 1
 1003 0022 0028     		cmp	r0, #0
 1004 0024 EFD0     		beq	.L108
 1005              	.LVL105:
 1006              	.L112:
 176:src/kbdutil.c **** //*****************************************************************************
 1007              		.loc 1 176 0 is_stmt 1
 1008 0026 03B0     		add	sp, sp, #12
 1009              		.cfi_def_cfa_offset 12
 1010              		@ sp needed
 1011 0028 30BD     		pop	{r4, r5, pc}
 1012              		.cfi_endproc
 1013              	.LFE5:
 1014              		.size	WaitKey, .-WaitKey
 1015              		.section	.text.WaitKeyCheck,"ax",%progbits
 1016              		.align	1
 1017              		.global	WaitKeyCheck
ARM GAS  C:\Users\AHMED~1.ELE\AppData\Local\Temp\cciu15sF.s 			page 28


 1018              		.thumb
 1019              		.thumb_func
 1020              		.type	WaitKeyCheck, %function
 1021              	WaitKeyCheck:
 1022              	.LFB6:
 187:src/kbdutil.c ****   DWORD keyin;
 1023              		.loc 1 187 0
 1024              		.cfi_startproc
 1025              		@ args = 0, pretend = 0, frame = 0
 1026              		@ frame_needed = 0, uses_anonymous_args = 0
 1027              	.LVL106:
 1028 0000 13B5     		push	{r0, r1, r4, lr}
 1029              		.cfi_def_cfa_offset 16
 1030              		.cfi_offset 4, -8
 1031              		.cfi_offset 14, -4
 187:src/kbdutil.c ****   DWORD keyin;
 1032              		.loc 1 187 0
 1033 0002 0C46     		mov	r4, r1
 192:src/kbdutil.c ****   while ((keyin=GetKeyin())==0) {
 1034              		.loc 1 192 0
 1035 0004 FFF7FEFF 		bl	SetKbdTimeout
 1036              	.LVL107:
 1037              	.L114:
 193:src/kbdutil.c **** 
 1038              		.loc 1 193 0
 1039 0008 FFF7FEFF 		bl	GetKeyin
 1040              	.LVL108:
 1041 000c 0246     		mov	r2, r0
 1042 000e 90BB     		cbnz	r0, .L118
 195:src/kbdutil.c ****       if (ICCInsertedMW()&0x01) {
 1043              		.loc 1 195 0
 1044 0010 E105     		lsls	r1, r4, #23
 1045 0012 02D4     		bmi	.L115
 1046              	.LVL109:
 1047              	.L119:
 202:src/kbdutil.c ****       if ((ICCInsertedMW()&0x01)==0x00) {
 1048              		.loc 1 202 0
 1049 0014 A305     		lsls	r3, r4, #22
 1050 0016 0BD5     		bpl	.L117
 1051 0018 0DE0     		b	.L130
 1052              	.LVL110:
 1053              	.L115:
 196:src/kbdutil.c ****         keyin = WAIT_ICC_INSERT;
 1054              		.loc 1 196 0
 1055 001a 0092     		str	r2, [sp]
 1056 001c 0F20     		movs	r0, #15
 1057              	.LVL111:
 1058 001e 1C21     		movs	r1, #28
 1059 0020 1346     		mov	r3, r2
 1060 0022 FFF7FEFF 		bl	lib_app_call
 1061              	.LVL112:
 1062 0026 C007     		lsls	r0, r0, #31
 1063 0028 F4D5     		bpl	.L119
 197:src/kbdutil.c ****         break;
 1064              		.loc 1 197 0
 1065 002a 4FF48072 		mov	r2, #256
 1066 002e 22E0     		b	.L118
ARM GAS  C:\Users\AHMED~1.ELE\AppData\Local\Temp\cciu15sF.s 			page 29


 1067              	.L117:
 209:src/kbdutil.c ****       if (IOCtlMW(gDevHandle[APM_SDEV_MSR], IO_MSR_RXLEN, NULL) > 0) {
 1068              		.loc 1 209 0
 1069 0030 6105     		lsls	r1, r4, #21
 1070 0032 0CD4     		bmi	.L120
 1071 0034 18E0     		b	.L122
 1072              	.L130:
 203:src/kbdutil.c ****         keyin = WAIT_ICC_REMOVE;
 1073              		.loc 1 203 0
 1074 0036 0022     		movs	r2, #0
 1075 0038 1346     		mov	r3, r2
 1076 003a 0092     		str	r2, [sp]
 1077 003c 0F20     		movs	r0, #15
 1078 003e 1C21     		movs	r1, #28
 1079 0040 FFF7FEFF 		bl	lib_app_call
 1080              	.LVL113:
 1081 0044 C207     		lsls	r2, r0, #31
 1082 0046 F3D4     		bmi	.L117
 204:src/kbdutil.c ****         break;
 1083              		.loc 1 204 0
 1084 0048 4FF40072 		mov	r2, #512
 1085 004c 13E0     		b	.L118
 1086              	.L120:
 209:src/kbdutil.c ****       if (IOCtlMW(gDevHandle[APM_SDEV_MSR], IO_MSR_RXLEN, NULL) > 0) {
 1087              		.loc 1 209 0 discriminator 1
 1088 004e 0B4B     		ldr	r3, .L131
 1089 0050 1A68     		ldr	r2, [r3]
 1090 0052 531C     		adds	r3, r2, #1
 1091 0054 08D0     		beq	.L122
 210:src/kbdutil.c ****         keyin = WAIT_MSR_READY;
 1092              		.loc 1 210 0
 1093 0056 0023     		movs	r3, #0
 1094 0058 0F20     		movs	r0, #15
 1095 005a 0093     		str	r3, [sp]
 1096 005c 0721     		movs	r1, #7
 1097 005e 0323     		movs	r3, #3
 1098 0060 FFF7FEFF 		bl	lib_app_call
 1099              	.LVL114:
 1100 0064 0028     		cmp	r0, #0
 1101 0066 04DC     		bgt	.L126
 1102              	.L122:
 216:src/kbdutil.c ****   }
 1103              		.loc 1 216 0
 1104 0068 4FF4CE70 		mov	r0, #412
 1105 006c FFF7FEFF 		bl	sys_func0
 1106              	.LVL115:
 1107 0070 CAE7     		b	.L114
 1108              	.L126:
 211:src/kbdutil.c ****         break;
 1109              		.loc 1 211 0
 1110 0072 4FF48062 		mov	r2, #1024
 1111              	.L118:
 1112              	.LVL116:
 219:src/kbdutil.c **** //*****************************************************************************
 1113              		.loc 1 219 0
 1114 0076 1046     		mov	r0, r2
 1115 0078 02B0     		add	sp, sp, #8
ARM GAS  C:\Users\AHMED~1.ELE\AppData\Local\Temp\cciu15sF.s 			page 30


 1116              		.cfi_def_cfa_offset 8
 1117              		@ sp needed
 1118 007a 10BD     		pop	{r4, pc}
 1119              	.LVL117:
 1120              	.L132:
 1121              		.align	2
 1122              	.L131:
 1123 007c 00000000 		.word	gDevHandle
 1124              		.cfi_endproc
 1125              	.LFE6:
 1126              		.size	WaitKeyCheck, .-WaitKeyCheck
 1127              		.section	.text.YesNo,"ax",%progbits
 1128              		.align	1
 1129              		.global	YesNo
 1130              		.thumb
 1131              		.thumb_func
 1132              		.type	YesNo, %function
 1133              	YesNo:
 1134              	.LFB7:
 231:src/kbdutil.c ****   while (1) {
 1135              		.loc 1 231 0
 1136              		.cfi_startproc
 1137              		@ args = 0, pretend = 0, frame = 0
 1138              		@ frame_needed = 0, uses_anonymous_args = 0
 1139 0000 08B5     		push	{r3, lr}
 1140              		.cfi_def_cfa_offset 8
 1141              		.cfi_offset 3, -8
 1142              		.cfi_offset 14, -4
 1143              	.L134:
 233:src/kbdutil.c ****       case MWKEY_ENTER:
 1144              		.loc 1 233 0
 1145 0002 084B     		ldr	r3, .L139
 1146 0004 D3F89400 		ldr	r0, [r3, #148]
 1147 0008 FFF7FEFF 		bl	WaitKey
 1148              	.LVL118:
 1149 000c 1128     		cmp	r0, #17
 1150 000e 07D0     		beq	.L135
 1151 0010 1228     		cmp	r0, #18
 1152 0012 03D0     		beq	.L136
 1153 0014 1028     		cmp	r0, #16
 1154 0016 F4D1     		bne	.L134
 235:src/kbdutil.c ****       case MWKEY_CLR:
 1155              		.loc 1 235 0
 1156 0018 0220     		movs	r0, #2
 242:src/kbdutil.c **** //*****************************************************************************
 1157              		.loc 1 242 0
 1158 001a 08BD     		pop	{r3, pc}
 1159              	.L136:
 237:src/kbdutil.c ****       case MWKEY_CANCL:
 1160              		.loc 1 237 0
 1161 001c 0120     		movs	r0, #1
 1162 001e 08BD     		pop	{r3, pc}
 1163              	.L135:
 239:src/kbdutil.c ****     }
 1164              		.loc 1 239 0
 1165 0020 0020     		movs	r0, #0
 1166 0022 08BD     		pop	{r3, pc}
ARM GAS  C:\Users\AHMED~1.ELE\AppData\Local\Temp\cciu15sF.s 			page 31


 1167              	.L140:
 1168              		.align	2
 1169              	.L139:
 1170 0024 00000000 		.word	.LANCHOR0
 1171              		.cfi_endproc
 1172              	.LFE7:
 1173              		.size	YesNo, .-YesNo
 1174              		.section	.text.GetKbd,"ax",%progbits
 1175              		.align	1
 1176              		.global	GetKbd
 1177              		.thumb
 1178              		.thumb_func
 1179              		.type	GetKbd, %function
 1180              	GetKbd:
 1181              	.LFB11:
 385:src/kbdutil.c **** //*****************************************************************************
 386:src/kbdutil.c **** //  Function        : ConvertAlpha
 387:src/kbdutil.c **** //  Description     : Convert the input char to alpha.
 388:src/kbdutil.c **** //  Input           : N/A
 389:src/kbdutil.c **** //  Return          : N/A
 390:src/kbdutil.c **** //  Note            : N/A
 391:src/kbdutil.c **** //  Globals Changed : gKbdGDS;
 392:src/kbdutil.c **** //*****************************************************************************
 393:src/kbdutil.c **** static void ConvertAlpha(void)
 394:src/kbdutil.c **** {
 395:src/kbdutil.c ****   BYTE i, j;
 396:src/kbdutil.c ****   static const BYTE alpha_tbl[10][6]
 397:src/kbdutil.c ****   = {{'0',' ','+','-',')','~'},
 398:src/kbdutil.c ****     {'1','Q','Z','_','!','`'},
 399:src/kbdutil.c ****     {'2','A','B','C','@','\x27'},
 400:src/kbdutil.c ****     {'3','D','E','F','#',':'},
 401:src/kbdutil.c ****     {'4','G','H','I','$',';'},
 402:src/kbdutil.c ****     {'5','J','K','L','%','?'},
 403:src/kbdutil.c ****     {'6','M','N','O','^',','},
 404:src/kbdutil.c ****     {'7','P','R','S','&','.'},
 405:src/kbdutil.c ****     {'8','T','U','V','*','['},
 406:src/kbdutil.c ****     {'9','W','X','Y','(',']'}
 407:src/kbdutil.c ****   };
 408:src/kbdutil.c **** 
 409:src/kbdutil.c ****   if (gKbdGDS.bInputLen == 0) {
 410:src/kbdutil.c ****     LongBeep();
 411:src/kbdutil.c ****     return;
 412:src/kbdutil.c ****   }
 413:src/kbdutil.c **** 
 414:src/kbdutil.c ****   for (i = 0; i != 10; i++)
 415:src/kbdutil.c ****   {
 416:src/kbdutil.c ****     for (j = 0; j != 6 ; j++)
 417:src/kbdutil.c ****     {
 418:src/kbdutil.c ****       if (toupper(gKbdGDS.sbInputBuf[gKbdGDS.bInputLen-1]) == alpha_tbl[i][j]) {
 419:src/kbdutil.c ****         j = alpha_tbl[i][(j + 1) % 6];
 420:src/kbdutil.c ****         goto FOUND;
 421:src/kbdutil.c ****       }
 422:src/kbdutil.c ****     }
 423:src/kbdutil.c ****   }
 424:src/kbdutil.c **** FOUND:
 425:src/kbdutil.c ****   if (gKbdGDS.dEntryMode == HEX_INPUT)
 426:src/kbdutil.c ****     if ((j > 'F') || (j < '0') || ((j > '9') && (j < 'A')))
ARM GAS  C:\Users\AHMED~1.ELE\AppData\Local\Temp\cciu15sF.s 			page 32


 427:src/kbdutil.c ****       j = alpha_tbl[i][0];
 428:src/kbdutil.c ****   gKbdGDS.sbInputBuf[gKbdGDS.bInputLen-1] = j;
 429:src/kbdutil.c **** }
 430:src/kbdutil.c **** //*****************************************************************************
 431:src/kbdutil.c **** //  Function        : GetKbd
 432:src/kbdutil.c **** //  Description     : Get Keyboard input base on parameters.
 433:src/kbdutil.c **** //  Input           : aEntryMode;       // Entry Mode + Line Number
 434:src/kbdutil.c **** //                    aLen;             // Max Len
 435:src/kbdutil.c **** //                    aOutBuf;          // Output Buffer
 436:src/kbdutil.c **** //  Return          : N/A
 437:src/kbdutil.c **** //  Note            : N/A
 438:src/kbdutil.c **** //  Globals Changed : N/A
 439:src/kbdutil.c **** //*****************************************************************************
 440:src/kbdutil.c **** BOOLEAN GetKbd(DWORD aEntryMode, DWORD aLen, BYTE *aOutBuf)
 441:src/kbdutil.c **** {
 1182              		.loc 1 441 0
 1183              		.cfi_startproc
 1184              		@ args = 0, pretend = 0, frame = 16
 1185              		@ frame_needed = 0, uses_anonymous_args = 0
 1186              	.LVL119:
 1187 0000 2DE9F04F 		push	{r4, r5, r6, r7, r8, r9, r10, fp, lr}
 1188              		.cfi_def_cfa_offset 36
 1189              		.cfi_offset 4, -36
 1190              		.cfi_offset 5, -32
 1191              		.cfi_offset 6, -28
 1192              		.cfi_offset 7, -24
 1193              		.cfi_offset 8, -20
 1194              		.cfi_offset 9, -16
 1195              		.cfi_offset 10, -12
 1196              		.cfi_offset 11, -8
 1197              		.cfi_offset 14, -4
 1198 0004 0746     		mov	r7, r0
 1199 0006 87B0     		sub	sp, sp, #28
 1200              		.cfi_def_cfa_offset 64
 442:src/kbdutil.c ****   BOOLEAN keyed;
 443:src/kbdutil.c ****   DWORD keyin, last_key = 0;
 444:src/kbdutil.c ****   DWORD last_tick, min_len, max_len;
 445:src/kbdutil.c ****   BYTE  lead0len;
 446:src/kbdutil.c **** 
 447:src/kbdutil.c ****   CheckPointerAddr(aOutBuf);
 1201              		.loc 1 447 0
 1202 0008 1046     		mov	r0, r2
 1203              	.LVL120:
 441:src/kbdutil.c ****   BOOLEAN keyed;
 1204              		.loc 1 441 0
 1205 000a 0E46     		mov	r6, r1
 1206 000c 1546     		mov	r5, r2
 1207              		.loc 1 447 0
 1208 000e FFF7FEFF 		bl	CheckPointerAddr
 1209              	.LVL121:
 448:src/kbdutil.c ****   keyed = FALSE;
 449:src/kbdutil.c ****   min_len             = (aLen >> 8);
 450:src/kbdutil.c ****   max_len             = aLen & 0xFF;
 451:src/kbdutil.c ****   gKbdGDS.bRightJust  = ((aEntryMode&RIGHT_JUST)==RIGHT_JUST)?TRUE:FALSE;
 1210              		.loc 1 451 0
 1211 0012 FBB2     		uxtb	r3, r7
 1212 0014 A3F1FF04 		sub	r4, r3, #255
ARM GAS  C:\Users\AHMED~1.ELE\AppData\Local\Temp\cciu15sF.s 			page 33


 1213 0018 6342     		rsbs	r3, r4, #0
 1214 001a 6341     		adcs	r3, r3, r4
 1215 001c C04C     		ldr	r4, .L272
 449:src/kbdutil.c ****   max_len             = aLen & 0xFF;
 1216              		.loc 1 449 0
 1217 001e 4FEA162B 		lsr	fp, r6, #8
 1218              	.LVL122:
 1219              		.loc 1 451 0
 1220 0022 84F89C30 		strb	r3, [r4, #156]
 450:src/kbdutil.c ****   gKbdGDS.bRightJust  = ((aEntryMode&RIGHT_JUST)==RIGHT_JUST)?TRUE:FALSE;
 1221              		.loc 1 450 0
 1222 0026 F6B2     		uxtb	r6, r6
 1223              	.LVL123:
 452:src/kbdutil.c ****   gKbdGDS.wLineNo     = (WORD)(gKbdGDS.bRightJust?(aEntryMode&0xF00):(aEntryMode&0xFFF));
 1224              		.loc 1 452 0
 1225 0028 13B1     		cbz	r3, .L142
 1226              		.loc 1 452 0 is_stmt 0 discriminator 1
 1227 002a 07F47063 		and	r3, r7, #3840
 1228 002e 02E0     		b	.L143
 1229              	.L142:
 1230              		.loc 1 452 0 discriminator 2
 1231 0030 C7F30B03 		ubfx	r3, r7, #0, #12
 1232 0034 9BB2     		uxth	r3, r3
 1233              	.L143:
 1234              		.loc 1 452 0 discriminator 4
 1235 0036 A383     		strh	r3, [r4, #28]	@ movhi
 453:src/kbdutil.c ****   gKbdGDS.wFont       = (WORD)aEntryMode & 0xF000;
 1236              		.loc 1 453 0 is_stmt 1 discriminator 4
 1237 0038 27F47F63 		bic	r3, r7, #4080
 1238 003c 23F00F03 		bic	r3, r3, #15
 452:src/kbdutil.c ****   gKbdGDS.wLineNo     = (WORD)(gKbdGDS.bRightJust?(aEntryMode&0xF00):(aEntryMode&0xFFF));
 1239              		.loc 1 452 0 discriminator 4
 1240 0040 DFF8DC92 		ldr	r9, .L272
 1241              		.loc 1 453 0 discriminator 4
 1242 0044 2381     		strh	r3, [r4, #8]	@ movhi
 454:src/kbdutil.c ****   gKbdGDS.dEntryMode  = aEntryMode & 0x00F0000;
 455:src/kbdutil.c ****   gKbdGDS.dOption     = aEntryMode & 0x0F00000;
 1243              		.loc 1 455 0 discriminator 4
 1244 0046 07F47003 		and	r3, r7, #15728640
 454:src/kbdutil.c ****   gKbdGDS.dEntryMode  = aEntryMode & 0x00F0000;
 1245              		.loc 1 454 0 discriminator 4
 1246 004a 07F4702A 		and	r10, r7, #983040
 1247              		.loc 1 455 0 discriminator 4
 1248 004e C4F89030 		str	r3, [r4, #144]
 456:src/kbdutil.c ****   gKbdGDS.bDecimalPos = (BYTE)(aEntryMode >> 24);
 1249              		.loc 1 456 0 discriminator 4
 1250 0052 4FEA1768 		lsr	r8, r7, #24
 457:src/kbdutil.c ****   gKbdGDS.bInputLen   = 0;
 1251              		.loc 1 457 0 discriminator 4
 1252 0056 0023     		movs	r3, #0
 458:src/kbdutil.c ****   gKbdGDS.bDispLen    = 0;
 459:src/kbdutil.c ****   memset(gKbdGDS.sbInputBuf, ' ', sizeof(gKbdGDS.sbInputBuf));
 1253              		.loc 1 459 0 discriminator 4
 1254 0058 2021     		movs	r1, #32
 1255 005a 3522     		movs	r2, #53
 1256 005c 09F11F00 		add	r0, r9, #31
 457:src/kbdutil.c ****   gKbdGDS.bInputLen   = 0;
ARM GAS  C:\Users\AHMED~1.ELE\AppData\Local\Temp\cciu15sF.s 			page 34


 1257              		.loc 1 457 0 discriminator 4
 1258 0060 A377     		strb	r3, [r4, #30]
 458:src/kbdutil.c ****   gKbdGDS.bDispLen    = 0;
 1259              		.loc 1 458 0 discriminator 4
 1260 0062 84F85430 		strb	r3, [r4, #84]
 454:src/kbdutil.c ****   gKbdGDS.dOption     = aEntryMode & 0x0F00000;
 1261              		.loc 1 454 0 discriminator 4
 1262 0066 C4F88CA0 		str	r10, [r4, #140]
 456:src/kbdutil.c ****   gKbdGDS.bInputLen   = 0;
 1263              		.loc 1 456 0 discriminator 4
 1264 006a 84F80A80 		strb	r8, [r4, #10]
 1265              		.loc 1 459 0 discriminator 4
 1266 006e FFF7FEFF 		bl	memset
 1267              	.LVL124:
 460:src/kbdutil.c ****   memset(gKbdGDS.sbPrefix, ' ', sizeof(gKbdGDS.sbPrefix));
 1268              		.loc 1 460 0 discriminator 4
 1269 0072 09F11700 		add	r0, r9, #23
 1270 0076 2021     		movs	r1, #32
 1271 0078 0422     		movs	r2, #4
 1272 007a FFF7FEFF 		bl	memset
 1273              	.LVL125:
 461:src/kbdutil.c **** 
 462:src/kbdutil.c ****   // Adjust the Amount input len.
 463:src/kbdutil.c ****   if (gKbdGDS.dEntryMode == AMOUNT_INPUT) {
 1274              		.loc 1 463 0 discriminator 4
 1275 007e BAF5803F 		cmp	r10, #65536
 1276 0082 08D1     		bne	.L144
 464:src/kbdutil.c ****     gKbdGDS.bRightJust  = TRUE;
 1277              		.loc 1 464 0
 1278 0084 0123     		movs	r3, #1
 1279 0086 89F89C30 		strb	r3, [r9, #156]
 465:src/kbdutil.c ****     if ((max_len - gKbdGDS.bDecimalPos) > 12)
 1280              		.loc 1 465 0
 1281 008a C8EB0603 		rsb	r3, r8, r6
 1282 008e 0C2B     		cmp	r3, #12
 466:src/kbdutil.c ****       /* host is always expecting 2 decimal digits */
 467:src/kbdutil.c ****       max_len = 12 - gKbdGDS.bDecimalPos;
 1283              		.loc 1 467 0
 1284 0090 88BF     		it	hi
 1285 0092 C8F10C06 		rsbhi	r6, r8, #12
 1286              	.LVL126:
 1287              	.L144:
 468:src/kbdutil.c ****   }
 469:src/kbdutil.c **** 
 470:src/kbdutil.c ****   //11-06-14 JC ++
 471:src/kbdutil.c ****   // Get PreFix first
 472:src/kbdutil.c ****   if (gKbdGDS.dOption & PREFIX_ENB) {
 1288              		.loc 1 472 0
 1289 0096 7802     		lsls	r0, r7, #9
 1290 0098 11D5     		bpl	.L145
 473:src/kbdutil.c ****     memcpy(gKbdGDS.sbPrefix, &aOutBuf[1], PREFIX_SIZE);
 1291              		.loc 1 473 0
 1292 009a 6F1C     		adds	r7, r5, #1
 1293              	.LVL127:
 1294 009c 3946     		mov	r1, r7
 1295 009e 0422     		movs	r2, #4
 1296 00a0 A048     		ldr	r0, .L272+4
ARM GAS  C:\Users\AHMED~1.ELE\AppData\Local\Temp\cciu15sF.s 			page 35


 1297 00a2 FFF7FEFF 		bl	memcpy
 1298              	.LVL128:
 474:src/kbdutil.c ****     aOutBuf[0] -= PREFIX_SIZE;
 1299              		.loc 1 474 0
 1300 00a6 2A78     		ldrb	r2, [r5]	@ zero_extendqisi2
 1301 00a8 2946     		mov	r1, r5
 1302 00aa 043A     		subs	r2, r2, #4
 475:src/kbdutil.c ****     memcpy(&aOutBuf[1], &aOutBuf[5], aOutBuf[0]);
 1303              		.loc 1 475 0
 1304 00ac 3846     		mov	r0, r7
 474:src/kbdutil.c ****     aOutBuf[0] -= PREFIX_SIZE;
 1305              		.loc 1 474 0
 1306 00ae D2B2     		uxtb	r2, r2
 1307 00b0 01F8052B 		strb	r2, [r1], #5
 1308              		.loc 1 475 0
 1309 00b4 FFF7FEFF 		bl	memcpy
 1310              	.LVL129:
 1311 00b8 302E     		cmp	r6, #48
 1312 00ba 28BF     		it	cs
 1313 00bc 3026     		movcs	r6, #48
 1314              	.LVL130:
 1315              	.L145:
 476:src/kbdutil.c ****     if (max_len > MAX_INPUT_PREFIX)
 477:src/kbdutil.c ****       max_len = MAX_INPUT_PREFIX;
 478:src/kbdutil.c ****   }
 479:src/kbdutil.c ****   
 480:src/kbdutil.c ****   // Remove leading zero
 481:src/kbdutil.c ****   if ((gKbdGDS.dEntryMode == AMOUNT_INPUT) || (gKbdGDS.dEntryMode==DECIMAL_INPUT)) {
 1316              		.loc 1 481 0
 1317 00be D4F88C30 		ldr	r3, [r4, #140]
 1318 00c2 B3F5803F 		cmp	r3, #65536
 1319 00c6 02D0     		beq	.L146
 1320              		.loc 1 481 0 is_stmt 0 discriminator 1
 1321 00c8 B3F5002F 		cmp	r3, #524288
 1322 00cc 10D1     		bne	.L147
 1323              	.L146:
 482:src/kbdutil.c ****     lead0len = (BYTE)skpb(&aOutBuf[1], '0', aOutBuf[0]);
 1324              		.loc 1 482 0 is_stmt 1
 1325 00ce 6F1C     		adds	r7, r5, #1
 1326 00d0 2A78     		ldrb	r2, [r5]	@ zero_extendqisi2
 1327 00d2 3846     		mov	r0, r7
 1328 00d4 3021     		movs	r1, #48
 1329 00d6 FFF7FEFF 		bl	skpb
 1330              	.LVL131:
 483:src/kbdutil.c ****     aOutBuf[0] -= lead0len;
 1331              		.loc 1 483 0
 1332 00da 2A78     		ldrb	r2, [r5]	@ zero_extendqisi2
 1333 00dc 121A     		subs	r2, r2, r0
 1334 00de D2B2     		uxtb	r2, r2
 1335 00e0 2A70     		strb	r2, [r5]
 484:src/kbdutil.c ****     if (aOutBuf[0] > 0)
 1336              		.loc 1 484 0
 1337 00e2 2AB1     		cbz	r2, .L147
 485:src/kbdutil.c ****       memmove(&aOutBuf[1], &aOutBuf[lead0len+1], aOutBuf[0]);
 1338              		.loc 1 485 0
 1339 00e4 C0B2     		uxtb	r0, r0
 1340 00e6 411C     		adds	r1, r0, #1
ARM GAS  C:\Users\AHMED~1.ELE\AppData\Local\Temp\cciu15sF.s 			page 36


 1341 00e8 2944     		add	r1, r1, r5
 1342 00ea 3846     		mov	r0, r7
 1343              	.LVL132:
 1344 00ec FFF7FEFF 		bl	memmove
 1345              	.LVL133:
 1346              	.L147:
 486:src/kbdutil.c ****   }
 487:src/kbdutil.c ****   //11-06-14 JC --
 488:src/kbdutil.c **** 
 489:src/kbdutil.c ****   // Check ECHO
 490:src/kbdutil.c ****   if (!(gKbdGDS.dOption&ECHO)) {
 1347              		.loc 1 490 0
 1348 00f0 D4F89030 		ldr	r3, [r4, #144]
 1349 00f4 13F40013 		ands	r3, r3, #2097152
 491:src/kbdutil.c ****     aOutBuf[0] = 0; /* clear aOutBuf if no echo */
 1350              		.loc 1 491 0
 1351 00f8 08BF     		it	eq
 1352 00fa 2B70     		strbeq	r3, [r5]
 492:src/kbdutil.c ****   }
 493:src/kbdutil.c ****   if (aOutBuf[0]!=0) {
 1353              		.loc 1 493 0
 1354 00fc 2F78     		ldrb	r7, [r5]	@ zero_extendqisi2
 1355 00fe 77B1     		cbz	r7, .L150
 494:src/kbdutil.c ****     gKbdGDS.bInputLen = (aOutBuf[0] > MAX_INPUT_LEN) ? MAX_INPUT_LEN: aOutBuf[0];
 1356              		.loc 1 494 0
 1357 0100 342F     		cmp	r7, #52
 1358 0102 3A46     		mov	r2, r7
 1359 0104 28BF     		it	cs
 1360 0106 3422     		movcs	r2, #52
 495:src/kbdutil.c ****     memcpy(gKbdGDS.sbInputBuf, &aOutBuf[1], gKbdGDS.bInputLen);
 1361              		.loc 1 495 0
 1362 0108 691C     		adds	r1, r5, #1
 1363 010a 8748     		ldr	r0, .L272+8
 494:src/kbdutil.c ****     gKbdGDS.bInputLen = (aOutBuf[0] > MAX_INPUT_LEN) ? MAX_INPUT_LEN: aOutBuf[0];
 1364              		.loc 1 494 0
 1365 010c A277     		strb	r2, [r4, #30]
 1366              		.loc 1 495 0
 1367 010e FFF7FEFF 		bl	memcpy
 1368              	.LVL134:
 496:src/kbdutil.c ****     if (gKbdGDS.dEntryMode == AMOUNT_INPUT)
 1369              		.loc 1 496 0
 1370 0112 D4F88C70 		ldr	r7, [r4, #140]
 448:src/kbdutil.c ****   min_len             = (aLen >> 8);
 1371              		.loc 1 448 0
 1372 0116 A7F58031 		sub	r1, r7, #65536
 1373 011a 4F42     		rsbs	r7, r1, #0
 1374 011c 4F41     		adcs	r7, r7, r1
 1375              	.L150:
 1376              	.LVL135:
 497:src/kbdutil.c ****       keyed = TRUE;
 498:src/kbdutil.c ****   }
 499:src/kbdutil.c ****   UpdateDisplay();
 1377              		.loc 1 499 0
 1378 011e FFF7FEFF 		bl	UpdateDisplay
 1379              	.LVL136:
 500:src/kbdutil.c **** 
 501:src/kbdutil.c **** 
ARM GAS  C:\Users\AHMED~1.ELE\AppData\Local\Temp\cciu15sF.s 			page 37


 502:src/kbdutil.c ****   // Init Alpha input timeout
 503:src/kbdutil.c ****   last_tick = FreeRunMW();
 1380              		.loc 1 503 0
 1381 0122 40F29F10 		movw	r0, #415
 1382 0126 FFF7FEFF 		bl	sys_func0
 1383              	.LVL137:
 443:src/kbdutil.c ****   DWORD last_tick, min_len, max_len;
 1384              		.loc 1 443 0
 1385 012a 4FF0000A 		mov	r10, #0
 1386              		.loc 1 503 0
 1387 012e 8046     		mov	r8, r0
 1388              	.LVL138:
 1389              	.L151:
 504:src/kbdutil.c ****   while (1) {
 505:src/kbdutil.c ****     gKbdGDS.dTimeout = (gKbdGDS.dTimeout == 0)?KBD_TIMEOUT:gKbdGDS.dTimeout;
 1390              		.loc 1 505 0
 1391 0130 D4F89400 		ldr	r0, [r4, #148]
 1392 0134 42F22833 		movw	r3, #9000
 1393 0138 0028     		cmp	r0, #0
 1394 013a 08BF     		it	eq
 1395 013c 1846     		moveq	r0, r3
 1396 013e DFF8E091 		ldr	r9, .L272
 1397 0142 C4F89400 		str	r0, [r4, #148]
 506:src/kbdutil.c ****     keyin=WaitKey(gKbdGDS.dTimeout);
 1398              		.loc 1 506 0
 1399 0146 FFF7FEFF 		bl	WaitKey
 1400              	.LVL139:
 507:src/kbdutil.c ****     switch (keyin) {
 1401              		.loc 1 507 0
 1402 014a 3928     		cmp	r0, #57
 506:src/kbdutil.c ****     keyin=WaitKey(gKbdGDS.dTimeout);
 1403              		.loc 1 506 0
 1404 014c 0346     		mov	r3, r0
 1405              	.LVL140:
 1406              		.loc 1 507 0
 1407 014e 11D8     		bhi	.L154
 1408              		.loc 1 507 0 is_stmt 0 discriminator 4
 1409 0150 3028     		cmp	r0, #48
 1410 0152 80F08F80 		bcs	.L155
 1411 0156 1128     		cmp	r0, #17
 1412 0158 00F05081 		beq	.L206
 1413 015c 06D8     		bhi	.L157
 1414 015e 0028     		cmp	r0, #0
 1415 0160 00F04C81 		beq	.L206
 1416 0164 1028     		cmp	r0, #16
 1417 0166 00F0E580 		beq	.L158
 1418 016a 44E1     		b	.L153
 1419              	.L157:
 1420 016c 1228     		cmp	r0, #18
 1421 016e 16D0     		beq	.L159
 1422 0170 2A28     		cmp	r0, #42
 1423 0172 7DE0     		b	.L259
 1424              	.L154:
 1425 0174 4D28     		cmp	r0, #77
 1426 0176 00F0DD80 		beq	.L158
 1427 017a 04D8     		bhi	.L160
 1428 017c 3A28     		cmp	r0, #58
ARM GAS  C:\Users\AHMED~1.ELE\AppData\Local\Temp\cciu15sF.s 			page 38


 1429 017e 5BD0     		beq	.L161
 1430 0180 4328     		cmp	r0, #67
 1431 0182 2DD0     		beq	.L162
 1432 0184 37E1     		b	.L153
 1433              	.L160:
 1434 0186 A0F15902 		sub	r2, r0, #89
 1435 018a 012A     		cmp	r2, #1
 1436 018c 00F23381 		bhi	.L153
 508:src/kbdutil.c ****       case MWKEY_CANCL:
 509:src/kbdutil.c ****         return 0;
 510:src/kbdutil.c ****       case MWKEY_CLR:
 511:src/kbdutil.c ****         if (gKbdGDS.bInputLen && (gKbdGDS.dEntryMode==AMOUNT_INPUT)) {
 512:src/kbdutil.c ****           DispClrLineMW(gKbdGDS.wLineNo);
 513:src/kbdutil.c ****           gKbdGDS.bInputLen = 0;
 514:src/kbdutil.c ****           aOutBuf[0] = 0;
 515:src/kbdutil.c ****         }
 516:src/kbdutil.c ****         else {
 517:src/kbdutil.c ****           keyed = TRUE;
 518:src/kbdutil.c ****           if (gKbdGDS.bInputLen)
 519:src/kbdutil.c ****             gKbdGDS.bInputLen -= 1;
 520:src/kbdutil.c ****         }
 521:src/kbdutil.c ****         UpdateDisplay();
 522:src/kbdutil.c ****         continue;
 523:src/kbdutil.c ****       case KEY_ALPHA: /* alpha key */
 524:src/kbdutil.c ****         if ((gKbdGDS.dEntryMode == ALPHA_INPUT) || (gKbdGDS.dEntryMode == HEX_INPUT)) {
 525:src/kbdutil.c ****           ConvertAlpha();
 526:src/kbdutil.c ****           UpdateDisplay();
 527:src/kbdutil.c ****           continue;
 528:src/kbdutil.c ****         }
 529:src/kbdutil.c ****         else
 530:src/kbdutil.c ****           if ((gKbdGDS.dEntryMode == ALPHA_INPUT_NEW) || (gKbdGDS.dEntryMode == HEX_INPUT)) {
 531:src/kbdutil.c ****             if (isupper(gKbdGDS.sbInputBuf[gKbdGDS.bInputLen]))
 532:src/kbdutil.c ****               gKbdGDS.sbInputBuf[gKbdGDS.bInputLen]=tolower(gKbdGDS.sbInputBuf[gKbdGDS.bInputLen]);
 533:src/kbdutil.c ****             else
 534:src/kbdutil.c ****               gKbdGDS.sbInputBuf[gKbdGDS.bInputLen]=toupper(gKbdGDS.sbInputBuf[gKbdGDS.bInputLen]);
 535:src/kbdutil.c ****             UpdateDisplay();
 536:src/kbdutil.c ****             continue;
 537:src/kbdutil.c ****           }
 538:src/kbdutil.c ****         break;
 539:src/kbdutil.c ****       case MWKEY_00:
 540:src/kbdutil.c ****         if (gKbdGDS.bInputLen || (gKbdGDS.dEntryMode != AMOUNT_INPUT)) {
 541:src/kbdutil.c ****           if (!keyed) {
 542:src/kbdutil.c ****             gKbdGDS.bInputLen = 0; /* first keyin, clear echoed entry */
 543:src/kbdutil.c ****             keyed = TRUE;
 544:src/kbdutil.c ****           }
 545:src/kbdutil.c ****           if (gKbdGDS.bInputLen < max_len-1) {
 546:src/kbdutil.c ****             memcpy(&gKbdGDS.sbInputBuf[gKbdGDS.bInputLen], "00", 2);
 547:src/kbdutil.c ****             gKbdGDS.bInputLen += 2;
 548:src/kbdutil.c ****             UpdateDisplay();
 549:src/kbdutil.c ****           }
 550:src/kbdutil.c ****           continue;
 551:src/kbdutil.c ****         }
 552:src/kbdutil.c ****         break;
 553:src/kbdutil.c ****       case MWKEY_ASTERISK:
 554:src/kbdutil.c ****       case MWKEY_SHARP:
 555:src/kbdutil.c ****         if ((gKbdGDS.dEntryMode != ALPHA_INPUT) && (gKbdGDS.dEntryMode != ALPHA_INPUT_NEW))
 1437              		.loc 1 555 0 is_stmt 1
ARM GAS  C:\Users\AHMED~1.ELE\AppData\Local\Temp\cciu15sF.s 			page 39


 1438 0190 D9F88C20 		ldr	r2, [r9, #140]
 1439 0194 22F48022 		bic	r2, r2, #262144
 1440 0198 B2F5003F 		cmp	r2, #131072
 1441 019c 68E0     		b	.L259
 1442              	.L159:
 511:src/kbdutil.c ****           DispClrLineMW(gKbdGDS.wLineNo);
 1443              		.loc 1 511 0
 1444 019e 99F81E30 		ldrb	r3, [r9, #30]	@ zero_extendqisi2
 1445 01a2 DBB1     		cbz	r3, .L207
 511:src/kbdutil.c ****           DispClrLineMW(gKbdGDS.wLineNo);
 1446              		.loc 1 511 0 is_stmt 0 discriminator 1
 1447 01a4 D9F88C20 		ldr	r2, [r9, #140]
 1448 01a8 B2F5803F 		cmp	r2, #65536
 1449 01ac 13D1     		bne	.L165
 512:src/kbdutil.c ****           gKbdGDS.bInputLen = 0;
 1450              		.loc 1 512 0 is_stmt 1
 1451 01ae 4FF0000C 		mov	ip, #0
 1452 01b2 B9F81C20 		ldrh	r2, [r9, #28]
 1453 01b6 6346     		mov	r3, ip
 1454 01b8 CDF800C0 		str	ip, [sp]
 1455 01bc 0F20     		movs	r0, #15
 1456              	.LVL141:
 1457 01be 2221     		movs	r1, #34
 1458 01c0 CDF80CC0 		str	ip, [sp, #12]
 1459 01c4 FFF7FEFF 		bl	lib_app_call
 1460              	.LVL142:
 513:src/kbdutil.c ****           aOutBuf[0] = 0;
 1461              		.loc 1 513 0
 1462 01c8 DDF80CC0 		ldr	ip, [sp, #12]
 1463 01cc 89F81EC0 		strb	ip, [r9, #30]
 514:src/kbdutil.c ****         }
 1464              		.loc 1 514 0
 1465 01d0 85F800C0 		strb	ip, [r5]
 1466 01d4 2DE0     		b	.L179
 1467              	.LVL143:
 1468              	.L165:
 519:src/kbdutil.c ****         }
 1469              		.loc 1 519 0
 1470 01d6 013B     		subs	r3, r3, #1
 1471 01d8 89F81E30 		strb	r3, [r9, #30]
 1472              	.LVL144:
 1473              	.L207:
 517:src/kbdutil.c ****           if (gKbdGDS.bInputLen)
 1474              		.loc 1 517 0
 1475 01dc 0127     		movs	r7, #1
 1476              	.LVL145:
 1477 01de 28E0     		b	.L179
 1478              	.L162:
 524:src/kbdutil.c ****           ConvertAlpha();
 1479              		.loc 1 524 0
 1480 01e0 D9F88C20 		ldr	r2, [r9, #140]
 1481 01e4 B2F5003F 		cmp	r2, #131072
 1482 01e8 02D0     		beq	.L167
 524:src/kbdutil.c ****           ConvertAlpha();
 1483              		.loc 1 524 0 is_stmt 0 discriminator 1
 1484 01ea B2F5802F 		cmp	r2, #262144
 1485 01ee 06D1     		bne	.L168
ARM GAS  C:\Users\AHMED~1.ELE\AppData\Local\Temp\cciu15sF.s 			page 40


 1486              	.L167:
 1487              	.LBB24:
 1488              	.LBB25:
 409:src/kbdutil.c ****     LongBeep();
 1489              		.loc 1 409 0 is_stmt 1
 1490 01f0 A37F     		ldrb	r3, [r4, #30]	@ zero_extendqisi2
 1491 01f2 002B     		cmp	r3, #0
 1492 01f4 40F00681 		bne	.L169
 410:src/kbdutil.c ****     return;
 1493              		.loc 1 410 0
 1494 01f8 FFF7FEFF 		bl	LongBeep
 1495              	.LVL146:
 1496 01fc 19E0     		b	.L179
 1497              	.LVL147:
 1498              	.L168:
 1499              	.LBE25:
 1500              	.LBE24:
 530:src/kbdutil.c ****             if (isupper(gKbdGDS.sbInputBuf[gKbdGDS.bInputLen]))
 1501              		.loc 1 530 0
 1502 01fe B2F5C02F 		cmp	r2, #393216
 1503 0202 40F0F880 		bne	.L153
 531:src/kbdutil.c ****               gKbdGDS.sbInputBuf[gKbdGDS.bInputLen]=tolower(gKbdGDS.sbInputBuf[gKbdGDS.bInputLen]);
 1504              		.loc 1 531 0
 1505 0206 99F81E20 		ldrb	r2, [r9, #30]	@ zero_extendqisi2
 1506 020a 4849     		ldr	r1, .L272+12
 1507 020c 9144     		add	r9, r9, r2
 1508 020e 0968     		ldr	r1, [r1]
 1509 0210 99F81F30 		ldrb	r3, [r9, #31]	@ zero_extendqisi2
 1510 0214 1944     		add	r1, r1, r3
 1511 0216 4978     		ldrb	r1, [r1, #1]	@ zero_extendqisi2
 1512 0218 01F00301 		and	r1, r1, #3
 1513 021c 0129     		cmp	r1, #1
 1514 021e 03D1     		bne	.L178
 1515              	.LVL148:
 1516              	.LBB29:
 532:src/kbdutil.c ****             else
 1517              		.loc 1 532 0 discriminator 1
 1518 0220 2033     		adds	r3, r3, #32
 1519              	.LVL149:
 1520              	.LBE29:
 1521 0222 89F81F30 		strb	r3, [r9, #31]
 1522 0226 04E0     		b	.L179
 1523              	.LVL150:
 1524              	.L178:
 1525              	.LBB30:
 534:src/kbdutil.c ****             UpdateDisplay();
 1526              		.loc 1 534 0
 1527 0228 0229     		cmp	r1, #2
 1528 022a 08BF     		it	eq
 1529 022c 203B     		subeq	r3, r3, #32
 1530              	.LVL151:
 1531              	.LBE30:
 1532 022e 2244     		add	r2, r2, r4
 1533 0230 D377     		strb	r3, [r2, #31]
 1534              	.LVL152:
 1535              	.L179:
 535:src/kbdutil.c ****             continue;
ARM GAS  C:\Users\AHMED~1.ELE\AppData\Local\Temp\cciu15sF.s 			page 41


 1536              		.loc 1 535 0
 1537 0232 FFF7FEFF 		bl	UpdateDisplay
 1538              	.LVL153:
 536:src/kbdutil.c ****           }
 1539              		.loc 1 536 0
 1540 0236 7BE7     		b	.L151
 1541              	.LVL154:
 1542              	.L161:
 540:src/kbdutil.c ****           if (!keyed) {
 1543              		.loc 1 540 0
 1544 0238 99F81E30 		ldrb	r3, [r9, #30]	@ zero_extendqisi2
 1545 023c 2BB9     		cbnz	r3, .L182
 540:src/kbdutil.c ****           if (!keyed) {
 1546              		.loc 1 540 0 is_stmt 0 discriminator 1
 1547 023e D9F88C30 		ldr	r3, [r9, #140]
 1548 0242 B3F5803F 		cmp	r3, #65536
 1549 0246 00F0D680 		beq	.L153
 1550              	.L182:
 541:src/kbdutil.c ****             gKbdGDS.bInputLen = 0; /* first keyin, clear echoed entry */
 1551              		.loc 1 541 0 is_stmt 1
 1552 024a 07B9     		cbnz	r7, .L183
 542:src/kbdutil.c ****             keyed = TRUE;
 1553              		.loc 1 542 0
 1554 024c A777     		strb	r7, [r4, #30]
 1555              	.LVL155:
 1556              	.L183:
 545:src/kbdutil.c ****             memcpy(&gKbdGDS.sbInputBuf[gKbdGDS.bInputLen], "00", 2);
 1557              		.loc 1 545 0
 1558 024e A07F     		ldrb	r0, [r4, #30]	@ zero_extendqisi2
 1559              	.LVL156:
 1560 0250 731E     		subs	r3, r6, #1
 1561 0252 9842     		cmp	r0, r3
 1562 0254 324F     		ldr	r7, .L272
 1563 0256 01D3     		bcc	.L269
 1564              	.L208:
 1565 0258 0127     		movs	r7, #1
 1566 025a 69E7     		b	.L151
 1567              	.L269:
 546:src/kbdutil.c ****             gKbdGDS.bInputLen += 2;
 1568              		.loc 1 546 0
 1569 025c 3844     		add	r0, r0, r7
 1570 025e 1F30     		adds	r0, r0, #31
 1571 0260 3349     		ldr	r1, .L272+16
 1572 0262 0222     		movs	r2, #2
 1573 0264 FFF7FEFF 		bl	memcpy
 1574              	.LVL157:
 547:src/kbdutil.c ****             UpdateDisplay();
 1575              		.loc 1 547 0
 1576 0268 BB7F     		ldrb	r3, [r7, #30]	@ zero_extendqisi2
 1577 026a 0233     		adds	r3, r3, #2
 1578 026c BB77     		strb	r3, [r7, #30]
 1579 026e 53E0     		b	.L193
 1580              	.LVL158:
 1581              	.L259:
 1582              		.loc 1 555 0
 1583 0270 40F0C180 		bne	.L153
 1584              	.L155:
ARM GAS  C:\Users\AHMED~1.ELE\AppData\Local\Temp\cciu15sF.s 			page 42


 556:src/kbdutil.c ****           break;
 557:src/kbdutil.c ****       case '0':
 558:src/kbdutil.c ****       case '1':
 559:src/kbdutil.c ****       case '2':
 560:src/kbdutil.c ****       case '3':
 561:src/kbdutil.c ****       case '4':
 562:src/kbdutil.c ****       case '5':
 563:src/kbdutil.c ****       case '6':
 564:src/kbdutil.c ****       case '7':
 565:src/kbdutil.c ****       case '8':
 566:src/kbdutil.c ****       case '9':
 567:src/kbdutil.c ****       case '*':
 568:src/kbdutil.c ****         if ((gKbdGDS.dEntryMode == BINARY_INPUT) && (keyin > '1'))
 1585              		.loc 1 568 0
 1586 0274 D4F88C20 		ldr	r2, [r4, #140]
 1587 0278 B2F5A02F 		cmp	r2, #327680
 1588 027c 02D1     		bne	.L184
 1589              		.loc 1 568 0 is_stmt 0 discriminator 1
 1590 027e 312B     		cmp	r3, #49
 1591 0280 00F2B980 		bhi	.L153
 1592              	.L184:
 569:src/kbdutil.c ****           break;
 570:src/kbdutil.c ****         else
 571:src/kbdutil.c ****           if (gKbdGDS.bInputLen || (gKbdGDS.dEntryMode != AMOUNT_INPUT) || (keyin != '0')) {
 1593              		.loc 1 571 0 is_stmt 1
 1594 0284 A17F     		ldrb	r1, [r4, #30]	@ zero_extendqisi2
 1595 0286 29B9     		cbnz	r1, .L185
 1596              		.loc 1 571 0 is_stmt 0 discriminator 1
 1597 0288 B2F5803F 		cmp	r2, #65536
 1598 028c 02D1     		bne	.L185
 1599              		.loc 1 571 0 discriminator 2
 1600 028e 302B     		cmp	r3, #48
 1601 0290 3FF44EAF 		beq	.L151
 1602              	.L185:
 572:src/kbdutil.c ****             if (!keyed) {
 1603              		.loc 1 572 0 is_stmt 1
 1604 0294 07B9     		cbnz	r7, .L186
 573:src/kbdutil.c ****               gKbdGDS.bInputLen = 0; /* first keyin, clear echoed entry */
 1605              		.loc 1 573 0
 1606 0296 A777     		strb	r7, [r4, #30]
 1607              	.LVL159:
 1608              	.L186:
 574:src/kbdutil.c ****               keyed = TRUE;
 575:src/kbdutil.c ****             }
 576:src/kbdutil.c ****             //03-10-26 JC ++
 577:src/kbdutil.c ****             if (keyin == MWKEY_ASTERISK)
 1609              		.loc 1 577 0
 1610 0298 592B     		cmp	r3, #89
 1611 029a 03D0     		beq	.L209
 578:src/kbdutil.c ****               keyin = '*';
 579:src/kbdutil.c ****             else if (keyin == MWKEY_SHARP)
 580:src/kbdutil.c ****               keyin = '#';
 1612              		.loc 1 580 0
 1613 029c 5A2B     		cmp	r3, #90
 1614 029e 08BF     		it	eq
 1615 02a0 2323     		moveq	r3, #35
 1616 02a2 00E0     		b	.L187
ARM GAS  C:\Users\AHMED~1.ELE\AppData\Local\Temp\cciu15sF.s 			page 43


 1617              	.L209:
 578:src/kbdutil.c ****               keyin = '*';
 1618              		.loc 1 578 0
 1619 02a4 2A23     		movs	r3, #42
 1620              	.L187:
 1621              	.LVL160:
 581:src/kbdutil.c ****             //03-10-26 JC --
 582:src/kbdutil.c ****             if (gKbdGDS.dEntryMode == ALPHA_INPUT_NEW) {
 1622              		.loc 1 582 0
 1623 02a6 B2F5C02F 		cmp	r2, #393216
 1624 02aa 06D0     		beq	.L268
 583:src/kbdutil.c ****               // Update Display 1st
 584:src/kbdutil.c ****               if (gKbdGDS.bInputLen < max_len)
 585:src/kbdutil.c ****                 gKbdGDS.sbInputBuf[gKbdGDS.bInputLen] = (BYTE) keyin;
 586:src/kbdutil.c ****               UpdateDisplay();
 587:src/kbdutil.c ****               if (((FreeRunMW()-last_tick) > ALPHA_INPUT_TIMEOUT)||(last_key != keyin)) {
 588:src/kbdutil.c ****                 if (gKbdGDS.bInputLen < max_len) {
 589:src/kbdutil.c ****                   gKbdGDS.sbInputBuf[++gKbdGDS.bInputLen] = (BYTE) keyin;
 590:src/kbdutil.c ****                   last_key = keyin;
 591:src/kbdutil.c ****                 }
 592:src/kbdutil.c ****               }
 593:src/kbdutil.c ****               else
 594:src/kbdutil.c ****                 ConvertAlphaNew();
 595:src/kbdutil.c ****               last_tick = FreeRunMW();
 596:src/kbdutil.c ****             }
 597:src/kbdutil.c ****             else
 598:src/kbdutil.c ****               if ((gKbdGDS.dEntryMode == HEX_INPUT_NEW)&&(keyin=='2'||keyin=='3')) {
 1625              		.loc 1 598 0
 1626 02ac B2F5E02F 		cmp	r2, #458752
 1627 02b0 2AD1     		bne	.L194
 1628              		.loc 1 598 0 is_stmt 0 discriminator 1
 1629 02b2 A3F13202 		sub	r2, r3, #50
 1630 02b6 012A     		cmp	r2, #1
 1631 02b8 26D8     		bhi	.L194
 1632              	.L268:
 599:src/kbdutil.c ****                 // Update Display 1st
 600:src/kbdutil.c ****                 if (gKbdGDS.bInputLen < max_len)
 1633              		.loc 1 600 0 is_stmt 1
 1634 02ba A27F     		ldrb	r2, [r4, #30]	@ zero_extendqisi2
 1635 02bc 0393     		str	r3, [sp, #12]
 1636 02be B242     		cmp	r2, r6
 601:src/kbdutil.c ****                   gKbdGDS.sbInputBuf[gKbdGDS.bInputLen] = (BYTE) keyin;
 1637              		.loc 1 601 0
 1638 02c0 3EBF     		ittt	cc
 1639 02c2 1749     		ldrcc	r1, .L272
 1640 02c4 5218     		addcc	r2, r2, r1
 1641 02c6 D377     		strbcc	r3, [r2, #31]
 602:src/kbdutil.c ****                 UpdateDisplay();
 1642              		.loc 1 602 0
 1643 02c8 FFF7FEFF 		bl	UpdateDisplay
 1644              	.LVL161:
 603:src/kbdutil.c ****                 if (((FreeRunMW()-last_tick) > ALPHA_INPUT_TIMEOUT)||(last_key != keyin)) {
 1645              		.loc 1 603 0
 1646 02cc 40F29F10 		movw	r0, #415
 1647 02d0 FFF7FEFF 		bl	sys_func0
 1648              	.LVL162:
 1649 02d4 039B     		ldr	r3, [sp, #12]
ARM GAS  C:\Users\AHMED~1.ELE\AppData\Local\Temp\cciu15sF.s 			page 44


 1650 02d6 C8EB0000 		rsb	r0, r8, r0
 1651 02da C828     		cmp	r0, #200
 1652 02dc 01D8     		bhi	.L196
 1653              		.loc 1 603 0 is_stmt 0 discriminator 1
 1654 02de 9A45     		cmp	r10, r3
 1655 02e0 0AD0     		beq	.L197
 1656              	.L196:
 604:src/kbdutil.c ****                   if (gKbdGDS.bInputLen < max_len) {
 1657              		.loc 1 604 0 is_stmt 1
 1658 02e2 A27F     		ldrb	r2, [r4, #30]	@ zero_extendqisi2
 1659 02e4 0E49     		ldr	r1, .L272
 1660 02e6 B242     		cmp	r2, r6
 1661 02e8 08D2     		bcs	.L198
 605:src/kbdutil.c ****                     gKbdGDS.sbInputBuf[++gKbdGDS.bInputLen] = (BYTE) keyin;
 1662              		.loc 1 605 0
 1663 02ea 0132     		adds	r2, r2, #1
 1664 02ec 9A46     		mov	r10, r3
 1665              	.LVL163:
 1666 02ee D2B2     		uxtb	r2, r2
 1667 02f0 8A77     		strb	r2, [r1, #30]
 1668 02f2 0A44     		add	r2, r2, r1
 1669 02f4 D377     		strb	r3, [r2, #31]
 1670              	.LVL164:
 1671 02f6 01E0     		b	.L198
 1672              	.L197:
 606:src/kbdutil.c ****                     last_key = keyin;
 607:src/kbdutil.c ****                   }
 608:src/kbdutil.c ****                 }
 609:src/kbdutil.c ****                 else
 610:src/kbdutil.c ****                   ConvertAlphaNew();
 1673              		.loc 1 610 0
 1674 02f8 FFF7FEFF 		bl	ConvertAlphaNew
 1675              	.LVL165:
 1676              	.L198:
 611:src/kbdutil.c ****                 last_tick = FreeRunMW();
 1677              		.loc 1 611 0
 1678 02fc 40F29F10 		movw	r0, #415
 1679 0300 FFF7FEFF 		bl	sys_func0
 1680              	.LVL166:
 1681 0304 8046     		mov	r8, r0
 1682              	.LVL167:
 1683 0306 07E0     		b	.L193
 1684              	.LVL168:
 1685              	.L194:
 612:src/kbdutil.c ****               }
 613:src/kbdutil.c ****               else
 614:src/kbdutil.c ****                 if (gKbdGDS.bInputLen < max_len)
 1686              		.loc 1 614 0
 1687 0308 A27F     		ldrb	r2, [r4, #30]	@ zero_extendqisi2
 1688 030a 0549     		ldr	r1, .L272
 1689 030c B242     		cmp	r2, r6
 615:src/kbdutil.c ****                   gKbdGDS.sbInputBuf[gKbdGDS.bInputLen++] = (BYTE) keyin;
 1690              		.loc 1 615 0
 1691 030e 3FBF     		itttt	cc
 1692 0310 501C     		addcc	r0, r2, #1
 1693 0312 5218     		addcc	r2, r2, r1
 1694 0314 8877     		strbcc	r0, [r1, #30]
ARM GAS  C:\Users\AHMED~1.ELE\AppData\Local\Temp\cciu15sF.s 			page 45


 1695 0316 D377     		strbcc	r3, [r2, #31]
 1696              	.LVL169:
 1697              	.L193:
 616:src/kbdutil.c ****             UpdateDisplay();
 1698              		.loc 1 616 0
 1699 0318 FFF7FEFF 		bl	UpdateDisplay
 1700              	.LVL170:
 1701 031c 9CE7     		b	.L208
 1702              	.L273:
 1703 031e 00BF     		.align	2
 1704              	.L272:
 1705 0320 00000000 		.word	.LANCHOR0
 1706 0324 17000000 		.word	.LANCHOR0+23
 1707 0328 1F000000 		.word	.LANCHOR0+31
 1708 032c 00000000 		.word	__ctype_ptr__
 1709 0330 00000000 		.word	.LC0
 1710              	.LVL171:
 1711              	.L158:
 617:src/kbdutil.c ****           }
 618:src/kbdutil.c ****         continue;
 619:src/kbdutil.c ****       case MWKEY_ENTER:
 620:src/kbdutil.c ****       case MWKEY_SELECT:
 621:src/kbdutil.c ****         if ((gKbdGDS.bInputLen==0) && (gKbdGDS.dOption&NULL_ENB) && (min_len==max_len))
 1712              		.loc 1 621 0
 1713 0334 94F81E90 		ldrb	r9, [r4, #30]	@ zero_extendqisi2
 1714 0338 B9F1000F 		cmp	r9, #0
 1715 033c 06D1     		bne	.L199
 1716              		.loc 1 621 0 is_stmt 0 discriminator 1
 1717 033e 5E4B     		ldr	r3, .L274
 1718 0340 D3F89030 		ldr	r3, [r3, #144]
 1719 0344 1A02     		lsls	r2, r3, #8
 1720 0346 01D5     		bpl	.L199
 1721              		.loc 1 621 0 discriminator 2
 1722 0348 B345     		cmp	fp, r6
 1723 034a 59D0     		beq	.L210
 1724              	.L199:
 622:src/kbdutil.c ****           return TRUE;
 623:src/kbdutil.c ****         //10-08-12 JC ++ fix bug in updating aOutBuf when user clear chars
 624:src/kbdutil.c ****         //if ((gKbdGDS.bInputLen == 0) && (min_len == 0) && (gKbdGDS.dEntryMode != AMOUNT_INPUT))
 625:src/kbdutil.c ****         //  return TRUE;
 626:src/kbdutil.c ****         //10-08-12 JC --
 627:src/kbdutil.c ****         if ((gKbdGDS.bInputLen >= min_len) && (gKbdGDS.bInputLen <= max_len)) {
 1725              		.loc 1 627 0 is_stmt 1
 1726 034c D945     		cmp	r9, fp
 1727 034e 0AD3     		bcc	.L200
 1728              		.loc 1 627 0 is_stmt 0 discriminator 1
 1729 0350 B145     		cmp	r9, r6
 1730 0352 08D8     		bhi	.L200
 628:src/kbdutil.c ****           aOutBuf[0] = gKbdGDS.bInputLen;
 1731              		.loc 1 628 0 is_stmt 1
 1732 0354 2846     		mov	r0, r5
 1733              	.LVL172:
 629:src/kbdutil.c ****           memcpy(&aOutBuf[1], gKbdGDS.sbInputBuf, gKbdGDS.bInputLen);
 1734              		.loc 1 629 0
 1735 0356 5949     		ldr	r1, .L274+4
 628:src/kbdutil.c ****           aOutBuf[0] = gKbdGDS.bInputLen;
 1736              		.loc 1 628 0
ARM GAS  C:\Users\AHMED~1.ELE\AppData\Local\Temp\cciu15sF.s 			page 46


 1737 0358 00F8019B 		strb	r9, [r0], #1
 1738              		.loc 1 629 0
 1739 035c A27F     		ldrb	r2, [r4, #30]	@ zero_extendqisi2
 1740 035e FFF7FEFF 		bl	memcpy
 1741              	.LVL173:
 630:src/kbdutil.c ****           aOutBuf[aOutBuf[0] + 1] = 0;
 1742              		.loc 1 630 0
 1743 0362 4D44     		add	r5, r5, r9
 1744              	.LVL174:
 1745 0364 44E0     		b	.L262
 1746              	.LVL175:
 1747              	.L200:
 631:src/kbdutil.c ****           return TRUE;
 632:src/kbdutil.c ****         }
 633:src/kbdutil.c ****         else if (gKbdGDS.bInputLen && (gKbdGDS.dOption & JUSTIFIED)) {
 1748              		.loc 1 633 0
 1749 0366 B9F1000F 		cmp	r9, #0
 1750 036a 44D0     		beq	.L153
 1751              		.loc 1 633 0 is_stmt 0 discriminator 1
 1752 036c D4F89030 		ldr	r3, [r4, #144]
 1753 0370 DFF84491 		ldr	r9, .L274
 1754 0374 DB02     		lsls	r3, r3, #11
 1755 0376 12D5     		bpl	.L201
 634:src/kbdutil.c ****           memset(&aOutBuf[1],'0',max_len);
 1756              		.loc 1 634 0 is_stmt 1
 1757 0378 681C     		adds	r0, r5, #1
 1758              	.LVL176:
 1759 037a 3021     		movs	r1, #48
 1760 037c 3246     		mov	r2, r6
 1761 037e FFF7FEFF 		bl	memset
 1762              	.LVL177:
 635:src/kbdutil.c ****           memcpy(&aOutBuf[max_len + 1 - gKbdGDS.bInputLen], gKbdGDS.sbInputBuf, gKbdGDS.bInputLen);
 1763              		.loc 1 635 0
 1764 0382 99F81E20 		ldrb	r2, [r9, #30]	@ zero_extendqisi2
 1765 0386 09F11F01 		add	r1, r9, #31
 1766 038a C2F10100 		rsb	r0, r2, #1
 1767 038e 3044     		add	r0, r0, r6
 1768 0390 2844     		add	r0, r0, r5
 1769 0392 FFF7FEFF 		bl	memcpy
 1770              	.LVL178:
 636:src/kbdutil.c ****           aOutBuf[0] = (BYTE) max_len;
 1771              		.loc 1 636 0
 1772 0396 2E70     		strb	r6, [r5]
 637:src/kbdutil.c ****           aOutBuf[aOutBuf[0] + 1] = 0;
 1773              		.loc 1 637 0
 1774 0398 55FA86F5 		uxtab	r5, r5, r6
 1775              	.LVL179:
 1776 039c 28E0     		b	.L262
 1777              	.LVL180:
 1778              	.L201:
 638:src/kbdutil.c ****           return TRUE;
 639:src/kbdutil.c ****         }
 640:src/kbdutil.c ****         else if (gKbdGDS.bInputLen && (min_len == 0)) {
 1779              		.loc 1 640 0 discriminator 1
 1780 039e BBF1000F 		cmp	fp, #0
 1781 03a2 28D1     		bne	.L153
 641:src/kbdutil.c ****           if (gKbdGDS.dEntryMode == AMOUNT_INPUT) {
ARM GAS  C:\Users\AHMED~1.ELE\AppData\Local\Temp\cciu15sF.s 			page 47


 1782              		.loc 1 641 0
 1783 03a4 D9F88C30 		ldr	r3, [r9, #140]
 1784 03a8 B3F5803F 		cmp	r3, #65536
 1785 03ac 05F10103 		add	r3, r5, #1
 642:src/kbdutil.c ****             memset(&aOutBuf[1], '0', 12);
 1786              		.loc 1 642 0
 1787 03b0 1846     		mov	r0, r3
 1788              	.LVL181:
 641:src/kbdutil.c ****           if (gKbdGDS.dEntryMode == AMOUNT_INPUT) {
 1789              		.loc 1 641 0
 1790 03b2 0ED1     		bne	.L202
 1791              		.loc 1 642 0
 1792 03b4 3021     		movs	r1, #48
 1793 03b6 0C22     		movs	r2, #12
 1794 03b8 FFF7FEFF 		bl	memset
 1795              	.LVL182:
 643:src/kbdutil.c ****             memcpy(&aOutBuf[13 - gKbdGDS.bInputLen], &gKbdGDS.sbInputBuf, gKbdGDS.bInputLen);
 1796              		.loc 1 643 0
 1797 03bc 99F81E20 		ldrb	r2, [r9, #30]	@ zero_extendqisi2
 1798 03c0 09F11F01 		add	r1, r9, #31
 1799 03c4 C2F10D00 		rsb	r0, r2, #13
 1800 03c8 2844     		add	r0, r0, r5
 1801 03ca FFF7FEFF 		bl	memcpy
 1802              	.LVL183:
 644:src/kbdutil.c ****             aOutBuf[0] = 12;
 1803              		.loc 1 644 0
 1804 03ce 0C23     		movs	r3, #12
 1805 03d0 0BE0     		b	.L260
 1806              	.L202:
 645:src/kbdutil.c ****           }
 646:src/kbdutil.c ****           else {
 647:src/kbdutil.c ****             memset(&aOutBuf[1], ' ', max_len);
 1807              		.loc 1 647 0
 1808 03d2 2021     		movs	r1, #32
 1809 03d4 3246     		mov	r2, r6
 1810 03d6 FFF7FEFF 		bl	memset
 1811              	.LVL184:
 648:src/kbdutil.c ****             memcpy(&aOutBuf[1], gKbdGDS.sbInputBuf, gKbdGDS.bInputLen);
 1812              		.loc 1 648 0
 1813 03da 09F11F01 		add	r1, r9, #31
 1814 03de 99F81E20 		ldrb	r2, [r9, #30]	@ zero_extendqisi2
 1815 03e2 FFF7FEFF 		bl	memcpy
 1816              	.LVL185:
 649:src/kbdutil.c ****             aOutBuf[0] = gKbdGDS.bInputLen;
 1817              		.loc 1 649 0
 1818 03e6 99F81E30 		ldrb	r3, [r9, #30]	@ zero_extendqisi2
 1819              	.L260:
 1820 03ea 2B70     		strb	r3, [r5]
 650:src/kbdutil.c ****           }
 651:src/kbdutil.c ****           aOutBuf[aOutBuf[0] + 1] = 0;
 1821              		.loc 1 651 0
 1822 03ec 2B78     		ldrb	r3, [r5]	@ zero_extendqisi2
 1823 03ee 1D44     		add	r5, r5, r3
 1824              	.LVL186:
 1825              	.L262:
 1826 03f0 0023     		movs	r3, #0
 1827 03f2 6B70     		strb	r3, [r5, #1]
ARM GAS  C:\Users\AHMED~1.ELE\AppData\Local\Temp\cciu15sF.s 			page 48


 1828 03f4 04E0     		b	.L210
 1829              	.LVL187:
 1830              	.L153:
 652:src/kbdutil.c ****           return TRUE;
 653:src/kbdutil.c ****         }
 654:src/kbdutil.c ****         break;
 655:src/kbdutil.c ****       case 0x00:    //timeout of the waitkey          //31-10-26 JC ++
 656:src/kbdutil.c ****         return 0;
 657:src/kbdutil.c ****     }
 658:src/kbdutil.c ****     LongBeep();
 1831              		.loc 1 658 0
 1832 03f6 FFF7FEFF 		bl	LongBeep
 1833              	.LVL188:
 1834 03fa 99E6     		b	.L151
 1835              	.LVL189:
 1836              	.L206:
 509:src/kbdutil.c ****       case MWKEY_CLR:
 1837              		.loc 1 509 0
 1838 03fc 0020     		movs	r0, #0
 1839              	.LVL190:
 1840 03fe 58E0     		b	.L258
 1841              	.LVL191:
 1842              	.L210:
 622:src/kbdutil.c ****         //10-08-12 JC ++ fix bug in updating aOutBuf when user clear chars
 1843              		.loc 1 622 0
 1844 0400 0120     		movs	r0, #1
 1845 0402 56E0     		b	.L258
 1846              	.LVL192:
 1847              	.L169:
 1848              	.LBB31:
 1849              	.LBB27:
 1850              	.LBB26:
 418:src/kbdutil.c ****         j = alpha_tbl[i][(j + 1) % 6];
 1851              		.loc 1 418 0
 1852 0404 2C49     		ldr	r1, .L274
 1853 0406 013B     		subs	r3, r3, #1
 1854 0408 1944     		add	r1, r1, r3
 1855 040a 4FF00009 		mov	r9, #0
 1856 040e C87F     		ldrb	r0, [r1, #31]	@ zero_extendqisi2
 1857              	.LVL193:
 1858 0410 2B49     		ldr	r1, .L274+8
 1859 0412 A0F1200C 		sub	ip, r0, #32
 1860 0416 0968     		ldr	r1, [r1]
 1861 0418 0393     		str	r3, [sp, #12]
 1862 041a 01EB000E 		add	lr, r1, r0
 1863 041e 9EF80110 		ldrb	r1, [lr, #1]	@ zero_extendqisi2
 1864 0422 01F00301 		and	r1, r1, #3
 1865 0426 0229     		cmp	r1, #2
 1866 0428 0CBF     		ite	eq
 1867 042a 6146     		moveq	r1, ip
 1868 042c 0146     		movne	r1, r0
 1869              	.L175:
 1870 042e 2548     		ldr	r0, .L274+12
 1871 0430 4FF0060E 		mov	lr, #6
 1872 0434 5FFA89FC 		uxtb	ip, r9
 1873              	.LVL194:
 1874 0438 0EFB0903 		mla	r3, lr, r9, r0
ARM GAS  C:\Users\AHMED~1.ELE\AppData\Local\Temp\cciu15sF.s 			page 49


 1875              	.LBE26:
 1876              	.LBE27:
 1877              	.LBE31:
 517:src/kbdutil.c ****           if (gKbdGDS.bInputLen)
 1878              		.loc 1 517 0
 1879 043c 0020     		movs	r0, #0
 1880              	.LVL195:
 1881              	.L174:
 1882              	.LBB32:
 1883              	.LBB28:
 418:src/kbdutil.c ****         j = alpha_tbl[i][(j + 1) % 6];
 1884              		.loc 1 418 0
 1885 043e 13F800E0 		ldrb	lr, [r3, r0]	@ zero_extendqisi2
 1886 0442 0130     		adds	r0, r0, #1
 1887 0444 7145     		cmp	r1, lr
 1888 0446 13D1     		bne	.L171
 419:src/kbdutil.c ****         goto FOUND;
 1889              		.loc 1 419 0
 1890 0448 0621     		movs	r1, #6
 1891 044a CDF814C0 		str	ip, [sp, #20]
 1892 044e 0492     		str	r2, [sp, #16]
 1893 0450 FFF7FEFF 		bl	__aeabi_idivmod
 1894              	.LVL196:
 1895 0454 0620     		movs	r0, #6
 1896 0456 1C4B     		ldr	r3, .L274+16
 425:src/kbdutil.c ****     if ((j > 'F') || (j < '0') || ((j > '9') && (j < 'A')))
 1897              		.loc 1 425 0
 1898 0458 049A     		ldr	r2, [sp, #16]
 419:src/kbdutil.c ****         goto FOUND;
 1899              		.loc 1 419 0
 1900 045a 00FB0939 		mla	r9, r0, r9, r3
 425:src/kbdutil.c ****     if ((j > 'F') || (j < '0') || ((j > '9') && (j < 'A')))
 1901              		.loc 1 425 0
 1902 045e B2F5802F 		cmp	r2, #262144
 419:src/kbdutil.c ****         goto FOUND;
 1903              		.loc 1 419 0
 1904 0462 4944     		add	r1, r1, r9
 425:src/kbdutil.c ****     if ((j > 'F') || (j < '0') || ((j > '9') && (j < 'A')))
 1905              		.loc 1 425 0
 1906 0464 DDF814C0 		ldr	ip, [sp, #20]
 419:src/kbdutil.c ****         goto FOUND;
 1907              		.loc 1 419 0
 1908 0468 91F85A00 		ldrb	r0, [r1, #90]	@ zero_extendqisi2
 1909              	.LDL1:
 1910              	.LVL197:
 425:src/kbdutil.c ****     if ((j > 'F') || (j < '0') || ((j > '9') && (j < 'A')))
 1911              		.loc 1 425 0
 1912 046c 1DD1     		bne	.L173
 1913              	.LVL198:
 1914 046e 07E0     		b	.L270
 1915              	.LVL199:
 1916              	.L171:
 416:src/kbdutil.c ****     {
 1917              		.loc 1 416 0
 1918 0470 0628     		cmp	r0, #6
 1919 0472 E4D1     		bne	.L174
 1920              	.LVL200:
ARM GAS  C:\Users\AHMED~1.ELE\AppData\Local\Temp\cciu15sF.s 			page 50


 1921 0474 09F10109 		add	r9, r9, #1
 1922              	.LVL201:
 414:src/kbdutil.c ****   {
 1923              		.loc 1 414 0
 1924 0478 B9F10A0F 		cmp	r9, #10
 1925 047c D7D1     		bne	.L175
 1926 047e 0AE0     		b	.L271
 1927              	.LVL202:
 1928              	.L270:
 426:src/kbdutil.c ****       j = alpha_tbl[i][0];
 1929              		.loc 1 426 0
 1930 0480 A0F13002 		sub	r2, r0, #48
 1931 0484 D2B2     		uxtb	r2, r2
 1932 0486 162A     		cmp	r2, #22
 1933 0488 09D8     		bhi	.L177
 1934 048a A0F13A02 		sub	r2, r0, #58
 1935 048e D2B2     		uxtb	r2, r2
 1936 0490 062A     		cmp	r2, #6
 1937 0492 0AD8     		bhi	.L173
 1938 0494 03E0     		b	.L177
 1939              	.LVL203:
 1940              	.L271:
 425:src/kbdutil.c ****     if ((j > 'F') || (j < '0') || ((j > '9') && (j < 'A')))
 1941              		.loc 1 425 0
 1942 0496 B2F5802F 		cmp	r2, #262144
 1943 049a 06D1     		bne	.L173
 1944 049c CC46     		mov	ip, r9
 1945              	.LVL204:
 1946              	.L177:
 427:src/kbdutil.c ****   gKbdGDS.sbInputBuf[gKbdGDS.bInputLen-1] = j;
 1947              		.loc 1 427 0
 1948 049e 0622     		movs	r2, #6
 1949 04a0 0949     		ldr	r1, .L274+16
 1950 04a2 02FB0C1C 		mla	ip, r2, ip, r1
 1951 04a6 9CF85A00 		ldrb	r0, [ip, #90]	@ zero_extendqisi2
 1952              	.LVL205:
 1953              	.L173:
 428:src/kbdutil.c **** }
 1954              		.loc 1 428 0
 1955 04aa 039B     		ldr	r3, [sp, #12]
 1956 04ac 2344     		add	r3, r3, r4
 1957 04ae D877     		strb	r0, [r3, #31]
 1958 04b0 BFE6     		b	.L179
 1959              	.LVL206:
 1960              	.L258:
 1961              	.LBE28:
 1962              	.LBE32:
 659:src/kbdutil.c ****   }
 660:src/kbdutil.c **** }
 1963              		.loc 1 660 0
 1964 04b2 07B0     		add	sp, sp, #28
 1965              		.cfi_def_cfa_offset 36
 1966              		@ sp needed
 1967 04b4 BDE8F08F 		pop	{r4, r5, r6, r7, r8, r9, r10, fp, pc}
 1968              	.LVL207:
 1969              	.L275:
 1970              		.align	2
ARM GAS  C:\Users\AHMED~1.ELE\AppData\Local\Temp\cciu15sF.s 			page 51


 1971              	.L274:
 1972 04b8 00000000 		.word	.LANCHOR0
 1973 04bc 1F000000 		.word	.LANCHOR0+31
 1974 04c0 00000000 		.word	__ctype_ptr__
 1975 04c4 5A000000 		.word	.LANCHOR1+90
 1976 04c8 00000000 		.word	.LANCHOR1
 1977              		.cfi_endproc
 1978              	.LFE11:
 1979              		.size	GetKbd, .-GetKbd
 1980              		.section	.rodata
 1981              		.set	.LANCHOR1,. + 0
 1982              		.type	alpha_tbl.11715, %object
 1983              		.size	alpha_tbl.11715, 90
 1984              	alpha_tbl.11715:
 1985 0000 30       		.byte	48
 1986 0001 20       		.byte	32
 1987 0002 2B       		.byte	43
 1988 0003 2D       		.byte	45
 1989 0004 22       		.byte	34
 1990 0005 2A       		.byte	42
 1991 0006 23       		.byte	35
 1992 0007 29       		.byte	41
 1993 0008 7E       		.byte	126
 1994 0009 31       		.byte	49
 1995 000a 51       		.byte	81
 1996 000b 5A       		.byte	90
 1997 000c 71       		.byte	113
 1998 000d 7A       		.byte	122
 1999 000e 3A       		.byte	58
 2000 000f 2E       		.byte	46
 2001 0010 21       		.byte	33
 2002 0011 60       		.byte	96
 2003 0012 32       		.byte	50
 2004 0013 41       		.byte	65
 2005 0014 42       		.byte	66
 2006 0015 43       		.byte	67
 2007 0016 61       		.byte	97
 2008 0017 62       		.byte	98
 2009 0018 63       		.byte	99
 2010 0019 40       		.byte	64
 2011 001a 27       		.byte	39
 2012 001b 33       		.byte	51
 2013 001c 44       		.byte	68
 2014 001d 45       		.byte	69
 2015 001e 46       		.byte	70
 2016 001f 64       		.byte	100
 2017 0020 65       		.byte	101
 2018 0021 66       		.byte	102
 2019 0022 7C       		.byte	124
 2020 0023 3D       		.byte	61
 2021 0024 34       		.byte	52
 2022 0025 47       		.byte	71
 2023 0026 48       		.byte	72
 2024 0027 49       		.byte	73
 2025 0028 67       		.byte	103
 2026 0029 68       		.byte	104
 2027 002a 69       		.byte	105
ARM GAS  C:\Users\AHMED~1.ELE\AppData\Local\Temp\cciu15sF.s 			page 52


 2028 002b 24       		.byte	36
 2029 002c 3B       		.byte	59
 2030 002d 35       		.byte	53
 2031 002e 4A       		.byte	74
 2032 002f 4B       		.byte	75
 2033 0030 4C       		.byte	76
 2034 0031 6A       		.byte	106
 2035 0032 6B       		.byte	107
 2036 0033 6C       		.byte	108
 2037 0034 25       		.byte	37
 2038 0035 3F       		.byte	63
 2039 0036 36       		.byte	54
 2040 0037 4D       		.byte	77
 2041 0038 4E       		.byte	78
 2042 0039 4F       		.byte	79
 2043 003a 6D       		.byte	109
 2044 003b 6E       		.byte	110
 2045 003c 6F       		.byte	111
 2046 003d 5E       		.byte	94
 2047 003e 2C       		.byte	44
 2048 003f 37       		.byte	55
 2049 0040 50       		.byte	80
 2050 0041 52       		.byte	82
 2051 0042 53       		.byte	83
 2052 0043 70       		.byte	112
 2053 0044 72       		.byte	114
 2054 0045 73       		.byte	115
 2055 0046 26       		.byte	38
 2056 0047 5F       		.byte	95
 2057 0048 38       		.byte	56
 2058 0049 54       		.byte	84
 2059 004a 55       		.byte	85
 2060 004b 56       		.byte	86
 2061 004c 74       		.byte	116
 2062 004d 75       		.byte	117
 2063 004e 76       		.byte	118
 2064 004f 2F       		.byte	47
 2065 0050 5B       		.byte	91
 2066 0051 39       		.byte	57
 2067 0052 57       		.byte	87
 2068 0053 58       		.byte	88
 2069 0054 59       		.byte	89
 2070 0055 77       		.byte	119
 2071 0056 78       		.byte	120
 2072 0057 79       		.byte	121
 2073 0058 28       		.byte	40
 2074 0059 5D       		.byte	93
 2075              		.type	alpha_tbl.11728, %object
 2076              		.size	alpha_tbl.11728, 60
 2077              	alpha_tbl.11728:
 2078 005a 30       		.byte	48
 2079 005b 20       		.byte	32
 2080 005c 2B       		.byte	43
 2081 005d 2D       		.byte	45
 2082 005e 29       		.byte	41
 2083 005f 7E       		.byte	126
 2084 0060 31       		.byte	49
ARM GAS  C:\Users\AHMED~1.ELE\AppData\Local\Temp\cciu15sF.s 			page 53


 2085 0061 51       		.byte	81
 2086 0062 5A       		.byte	90
 2087 0063 5F       		.byte	95
 2088 0064 21       		.byte	33
 2089 0065 60       		.byte	96
 2090 0066 32       		.byte	50
 2091 0067 41       		.byte	65
 2092 0068 42       		.byte	66
 2093 0069 43       		.byte	67
 2094 006a 40       		.byte	64
 2095 006b 27       		.byte	39
 2096 006c 33       		.byte	51
 2097 006d 44       		.byte	68
 2098 006e 45       		.byte	69
 2099 006f 46       		.byte	70
 2100 0070 23       		.byte	35
 2101 0071 3A       		.byte	58
 2102 0072 34       		.byte	52
 2103 0073 47       		.byte	71
 2104 0074 48       		.byte	72
 2105 0075 49       		.byte	73
 2106 0076 24       		.byte	36
 2107 0077 3B       		.byte	59
 2108 0078 35       		.byte	53
 2109 0079 4A       		.byte	74
 2110 007a 4B       		.byte	75
 2111 007b 4C       		.byte	76
 2112 007c 25       		.byte	37
 2113 007d 3F       		.byte	63
 2114 007e 36       		.byte	54
 2115 007f 4D       		.byte	77
 2116 0080 4E       		.byte	78
 2117 0081 4F       		.byte	79
 2118 0082 5E       		.byte	94
 2119 0083 2C       		.byte	44
 2120 0084 37       		.byte	55
 2121 0085 50       		.byte	80
 2122 0086 52       		.byte	82
 2123 0087 53       		.byte	83
 2124 0088 26       		.byte	38
 2125 0089 2E       		.byte	46
 2126 008a 38       		.byte	56
 2127 008b 54       		.byte	84
 2128 008c 55       		.byte	85
 2129 008d 56       		.byte	86
 2130 008e 2A       		.byte	42
 2131 008f 5B       		.byte	91
 2132 0090 39       		.byte	57
 2133 0091 57       		.byte	87
 2134 0092 58       		.byte	88
 2135 0093 59       		.byte	89
 2136 0094 28       		.byte	40
 2137 0095 5D       		.byte	93
 2138              		.section	.rodata.str1.1,"aMS",%progbits,1
 2139              	.LC0:
 2140 0000 303000   		.ascii	"00\000"
 2141              		.data
ARM GAS  C:\Users\AHMED~1.ELE\AppData\Local\Temp\cciu15sF.s 			page 54


 2142              		.align	3
 2143              		.set	.LANCHOR0,. + 0
 2144              		.type	gKbdGDS, %object
 2145              		.size	gKbdGDS, 160
 2146              	gKbdGDS:
 2147 0000 00000000 		.word	0
 2148 0004 00000000 		.word	0
 2149 0008 0000     		.short	0
 2150 000a 02       		.byte	2
 2151 000b 00       		.byte	0
 2152 000c 00       		.byte	0
 2153 000d 00       		.byte	0
 2154 000e 00       		.byte	0
 2155 000f 00       		.byte	0
 2156 0010 00       		.byte	0
 2157 0011 00       		.byte	0
 2158 0012 00       		.byte	0
 2159 0013 00       		.byte	0
 2160 0014 00       		.byte	0
 2161 0015 00       		.byte	0
 2162 0016 00       		.byte	0
 2163 0017 20       		.byte	32
 2164 0018 20       		.byte	32
 2165 0019 20       		.byte	32
 2166 001a 20       		.byte	32
 2167 001b 00       		.space	1
 2168 001c 0000     		.short	0
 2169 001e 00       		.byte	0
 2170 001f 00       		.byte	0
 2171 0020 00       		.byte	0
 2172 0021 00       		.byte	0
 2173 0022 00       		.byte	0
 2174 0023 00       		.byte	0
 2175 0024 00       		.byte	0
 2176 0025 00       		.byte	0
 2177 0026 00       		.byte	0
 2178 0027 00       		.byte	0
 2179 0028 00       		.byte	0
 2180 0029 00       		.byte	0
 2181 002a 00       		.byte	0
 2182 002b 00       		.byte	0
 2183 002c 00       		.byte	0
 2184 002d 00       		.byte	0
 2185 002e 00       		.byte	0
 2186 002f 00       		.byte	0
 2187 0030 00       		.byte	0
 2188 0031 00       		.byte	0
 2189 0032 00       		.byte	0
 2190 0033 00       		.byte	0
 2191 0034 00       		.byte	0
 2192 0035 00       		.byte	0
 2193 0036 00       		.byte	0
 2194 0037 00       		.byte	0
 2195 0038 00       		.byte	0
 2196 0039 00       		.byte	0
 2197 003a 00       		.byte	0
 2198 003b 00       		.byte	0
ARM GAS  C:\Users\AHMED~1.ELE\AppData\Local\Temp\cciu15sF.s 			page 55


 2199 003c 00       		.byte	0
 2200 003d 00       		.byte	0
 2201 003e 00       		.byte	0
 2202 003f 00000000 		.space	21
 2202      00000000 
 2202      00000000 
 2202      00000000 
 2202      00000000 
 2203 0054 00       		.byte	0
 2204 0055 00       		.byte	0
 2205 0056 00       		.byte	0
 2206 0057 00       		.byte	0
 2207 0058 00       		.byte	0
 2208 0059 00       		.byte	0
 2209 005a 00       		.byte	0
 2210 005b 00       		.byte	0
 2211 005c 00       		.byte	0
 2212 005d 00       		.byte	0
 2213 005e 00       		.byte	0
 2214 005f 00       		.byte	0
 2215 0060 00       		.byte	0
 2216 0061 00       		.byte	0
 2217 0062 00       		.byte	0
 2218 0063 00       		.byte	0
 2219 0064 00       		.byte	0
 2220 0065 00       		.byte	0
 2221 0066 00       		.byte	0
 2222 0067 00       		.byte	0
 2223 0068 00       		.byte	0
 2224 0069 00       		.byte	0
 2225 006a 00       		.byte	0
 2226 006b 00       		.byte	0
 2227 006c 00       		.byte	0
 2228 006d 00       		.byte	0
 2229 006e 00       		.byte	0
 2230 006f 00       		.byte	0
 2231 0070 00       		.byte	0
 2232 0071 00       		.byte	0
 2233 0072 00       		.byte	0
 2234 0073 00       		.byte	0
 2235 0074 00       		.byte	0
 2236 0075 00000000 		.space	21
 2236      00000000 
 2236      00000000 
 2236      00000000 
 2236      00000000 
 2237 008a 0000     		.space	2
 2238 008c 00000000 		.word	0
 2239 0090 00000000 		.word	0
 2240 0094 28230000 		.word	9000
 2241 0098 FFFFFFFF 		.word	-1
 2242 009c 00000000 		.space	4
 2243              		.text
 2244              	.Letext0:
 2245              		.file 2 "c:\\devtools\\gcc_v49_2014q4\\lib\\gcc\\arm-none-eabi\\4.9.3\\include\\stddef.h"
 2246              		.file 3 "../LibA5T1000/common.h"
 2247              		.file 4 "../LibA5T1000/system.h"
ARM GAS  C:\Users\AHMED~1.ELE\AppData\Local\Temp\cciu15sF.s 			page 56


 2248              		.file 5 "../LibA5T1000/midware.h"
 2249              		.file 6 "../LibA5T1000/apm.h"
 2250              		.file 7 "src/hardware.h"
 2251              		.file 8 "c:\\devtools\\gcc_v49_2014q4\\arm-none-eabi\\include\\ctype.h"
 2252              		.file 9 "c:\\devtools\\gcc_v49_2014q4\\arm-none-eabi\\include\\string.h"
 2253              		.file 10 "src/sysutil.h"
 2254              		.file 11 "../LibA5T1000/util.h"
 2255              		.section	.debug_info,"",%progbits
 2256              	.Ldebug_info0:
 2257 0000 2E200000 		.4byte	0x202e
 2258 0004 0400     		.2byte	0x4
 2259 0006 00000000 		.4byte	.Ldebug_abbrev0
 2260 000a 04       		.byte	0x4
 2261 000b 01       		.uleb128 0x1
 2262 000c A2120000 		.4byte	.LASF619
 2263 0010 01       		.byte	0x1
 2264 0011 DA100000 		.4byte	.LASF620
 2265 0015 D10A0000 		.4byte	.LASF621
 2266 0019 98000000 		.4byte	.Ldebug_ranges0+0x98
 2267 001d 00000000 		.4byte	0
 2268 0021 00000000 		.4byte	.Ldebug_line0
 2269 0025 02       		.uleb128 0x2
 2270 0026 01       		.byte	0x1
 2271 0027 06       		.byte	0x6
 2272 0028 33250000 		.4byte	.LASF0
 2273 002c 02       		.uleb128 0x2
 2274 002d 01       		.byte	0x1
 2275 002e 08       		.byte	0x8
 2276 002f 321B0000 		.4byte	.LASF1
 2277 0033 02       		.uleb128 0x2
 2278 0034 02       		.byte	0x2
 2279 0035 05       		.byte	0x5
 2280 0036 F8220000 		.4byte	.LASF2
 2281 003a 02       		.uleb128 0x2
 2282 003b 02       		.byte	0x2
 2283 003c 07       		.byte	0x7
 2284 003d 91270000 		.4byte	.LASF3
 2285 0041 02       		.uleb128 0x2
 2286 0042 04       		.byte	0x4
 2287 0043 05       		.byte	0x5
 2288 0044 D5060000 		.4byte	.LASF4
 2289 0048 02       		.uleb128 0x2
 2290 0049 04       		.byte	0x4
 2291 004a 07       		.byte	0x7
 2292 004b F1110000 		.4byte	.LASF5
 2293 004f 02       		.uleb128 0x2
 2294 0050 08       		.byte	0x8
 2295 0051 05       		.byte	0x5
 2296 0052 A3150000 		.4byte	.LASF6
 2297 0056 02       		.uleb128 0x2
 2298 0057 08       		.byte	0x8
 2299 0058 07       		.byte	0x7
 2300 0059 361E0000 		.4byte	.LASF7
 2301 005d 03       		.uleb128 0x3
 2302 005e 04       		.byte	0x4
 2303 005f 05       		.byte	0x5
 2304 0060 696E7400 		.ascii	"int\000"
ARM GAS  C:\Users\AHMED~1.ELE\AppData\Local\Temp\cciu15sF.s 			page 57


 2305 0064 02       		.uleb128 0x2
 2306 0065 04       		.byte	0x4
 2307 0066 07       		.byte	0x7
 2308 0067 5B180000 		.4byte	.LASF8
 2309 006b 04       		.uleb128 0x4
 2310 006c 6A000000 		.4byte	.LASF11
 2311 0070 02       		.byte	0x2
 2312 0071 D4       		.byte	0xd4
 2313 0072 64000000 		.4byte	0x64
 2314 0076 05       		.uleb128 0x5
 2315 0077 04       		.byte	0x4
 2316 0078 02       		.uleb128 0x2
 2317 0079 04       		.byte	0x4
 2318 007a 07       		.byte	0x7
 2319 007b 81000000 		.4byte	.LASF9
 2320 007f 02       		.uleb128 0x2
 2321 0080 01       		.byte	0x1
 2322 0081 06       		.byte	0x6
 2323 0082 2B000000 		.4byte	.LASF10
 2324 0086 06       		.uleb128 0x6
 2325 0087 04       		.byte	0x4
 2326 0088 8C000000 		.4byte	0x8c
 2327 008c 07       		.uleb128 0x7
 2328 008d 7F000000 		.4byte	0x7f
 2329 0091 04       		.uleb128 0x4
 2330 0092 070D0000 		.4byte	.LASF12
 2331 0096 03       		.byte	0x3
 2332 0097 0D       		.byte	0xd
 2333 0098 2C000000 		.4byte	0x2c
 2334 009c 04       		.uleb128 0x4
 2335 009d 83050000 		.4byte	.LASF13
 2336 00a1 03       		.byte	0x3
 2337 00a2 0E       		.byte	0xe
 2338 00a3 2C000000 		.4byte	0x2c
 2339 00a7 04       		.uleb128 0x4
 2340 00a8 061B0000 		.4byte	.LASF14
 2341 00ac 03       		.byte	0x3
 2342 00ad 0F       		.byte	0xf
 2343 00ae 3A000000 		.4byte	0x3a
 2344 00b2 04       		.uleb128 0x4
 2345 00b3 F4260000 		.4byte	.LASF15
 2346 00b7 03       		.byte	0x3
 2347 00b8 10       		.byte	0x10
 2348 00b9 64000000 		.4byte	0x64
 2349 00bd 04       		.uleb128 0x4
 2350 00be 76100000 		.4byte	.LASF16
 2351 00c2 03       		.byte	0x3
 2352 00c3 11       		.byte	0x11
 2353 00c4 56000000 		.4byte	0x56
 2354 00c8 06       		.uleb128 0x6
 2355 00c9 04       		.byte	0x4
 2356 00ca 9C000000 		.4byte	0x9c
 2357 00ce 08       		.uleb128 0x8
 2358 00cf 9C000000 		.4byte	0x9c
 2359 00d3 DE000000 		.4byte	0xde
 2360 00d7 09       		.uleb128 0x9
 2361 00d8 78000000 		.4byte	0x78
ARM GAS  C:\Users\AHMED~1.ELE\AppData\Local\Temp\cciu15sF.s 			page 58


 2362 00dc 03       		.byte	0x3
 2363 00dd 00       		.byte	0
 2364 00de 0A       		.uleb128 0xa
 2365 00df 4E100000 		.4byte	.LASF622
 2366 00e3 02       		.byte	0x2
 2367 00e4 04       		.byte	0x4
 2368 00e5 9A04     		.2byte	0x49a
 2369 00e7 9B0D0000 		.4byte	0xd9b
 2370 00eb 0B       		.uleb128 0xb
 2371 00ec FA280000 		.4byte	.LASF17
 2372 00f0 00       		.sleb128 0
 2373 00f1 0B       		.uleb128 0xb
 2374 00f2 47120000 		.4byte	.LASF18
 2375 00f6 01       		.sleb128 1
 2376 00f7 0B       		.uleb128 0xb
 2377 00f8 3F150000 		.4byte	.LASF19
 2378 00fc 02       		.sleb128 2
 2379 00fd 0B       		.uleb128 0xb
 2380 00fe CC090000 		.4byte	.LASF20
 2381 0102 03       		.sleb128 3
 2382 0103 0B       		.uleb128 0xb
 2383 0104 B5090000 		.4byte	.LASF21
 2384 0108 04       		.sleb128 4
 2385 0109 0B       		.uleb128 0xb
 2386 010a EA1B0000 		.4byte	.LASF22
 2387 010e 05       		.sleb128 5
 2388 010f 0B       		.uleb128 0xb
 2389 0110 820C0000 		.4byte	.LASF23
 2390 0114 06       		.sleb128 6
 2391 0115 0B       		.uleb128 0xb
 2392 0116 C91D0000 		.4byte	.LASF24
 2393 011a 07       		.sleb128 7
 2394 011b 0B       		.uleb128 0xb
 2395 011c D6130000 		.4byte	.LASF25
 2396 0120 08       		.sleb128 8
 2397 0121 0B       		.uleb128 0xb
 2398 0122 11260000 		.4byte	.LASF26
 2399 0126 09       		.sleb128 9
 2400 0127 0B       		.uleb128 0xb
 2401 0128 92260000 		.4byte	.LASF27
 2402 012c 0A       		.sleb128 10
 2403 012d 0B       		.uleb128 0xb
 2404 012e 4C200000 		.4byte	.LASF28
 2405 0132 0B       		.sleb128 11
 2406 0133 0B       		.uleb128 0xb
 2407 0134 85020000 		.4byte	.LASF29
 2408 0138 0C       		.sleb128 12
 2409 0139 0B       		.uleb128 0xb
 2410 013a 051C0000 		.4byte	.LASF30
 2411 013e 0D       		.sleb128 13
 2412 013f 0B       		.uleb128 0xb
 2413 0140 3D0B0000 		.4byte	.LASF31
 2414 0144 0E       		.sleb128 14
 2415 0145 0B       		.uleb128 0xb
 2416 0146 5C290000 		.4byte	.LASF32
 2417 014a 0F       		.sleb128 15
 2418 014b 0B       		.uleb128 0xb
ARM GAS  C:\Users\AHMED~1.ELE\AppData\Local\Temp\cciu15sF.s 			page 59


 2419 014c FE140000 		.4byte	.LASF33
 2420 0150 10       		.sleb128 16
 2421 0151 0B       		.uleb128 0xb
 2422 0152 C6200000 		.4byte	.LASF34
 2423 0156 11       		.sleb128 17
 2424 0157 0B       		.uleb128 0xb
 2425 0158 310E0000 		.4byte	.LASF35
 2426 015c 12       		.sleb128 18
 2427 015d 0B       		.uleb128 0xb
 2428 015e 03210000 		.4byte	.LASF36
 2429 0162 13       		.sleb128 19
 2430 0163 0B       		.uleb128 0xb
 2431 0164 31080000 		.4byte	.LASF37
 2432 0168 14       		.sleb128 20
 2433 0169 0B       		.uleb128 0xb
 2434 016a B1150000 		.4byte	.LASF38
 2435 016e 15       		.sleb128 21
 2436 016f 0B       		.uleb128 0xb
 2437 0170 41080000 		.4byte	.LASF39
 2438 0174 16       		.sleb128 22
 2439 0175 0B       		.uleb128 0xb
 2440 0176 F1080000 		.4byte	.LASF40
 2441 017a 17       		.sleb128 23
 2442 017b 0B       		.uleb128 0xb
 2443 017c 99080000 		.4byte	.LASF41
 2444 0180 18       		.sleb128 24
 2445 0181 0B       		.uleb128 0xb
 2446 0182 721B0000 		.4byte	.LASF42
 2447 0186 19       		.sleb128 25
 2448 0187 0B       		.uleb128 0xb
 2449 0188 65080000 		.4byte	.LASF43
 2450 018c 1A       		.sleb128 26
 2451 018d 0B       		.uleb128 0xb
 2452 018e C4080000 		.4byte	.LASF44
 2453 0192 1B       		.sleb128 27
 2454 0193 0B       		.uleb128 0xb
 2455 0194 14120000 		.4byte	.LASF45
 2456 0198 1C       		.sleb128 28
 2457 0199 0B       		.uleb128 0xb
 2458 019a 24180000 		.4byte	.LASF46
 2459 019e 1D       		.sleb128 29
 2460 019f 0B       		.uleb128 0xb
 2461 01a0 7F290000 		.4byte	.LASF47
 2462 01a4 1E       		.sleb128 30
 2463 01a5 0B       		.uleb128 0xb
 2464 01a6 BC070000 		.4byte	.LASF48
 2465 01aa 1F       		.sleb128 31
 2466 01ab 0B       		.uleb128 0xb
 2467 01ac 03120000 		.4byte	.LASF49
 2468 01b0 20       		.sleb128 32
 2469 01b1 0B       		.uleb128 0xb
 2470 01b2 44030000 		.4byte	.LASF50
 2471 01b6 21       		.sleb128 33
 2472 01b7 0B       		.uleb128 0xb
 2473 01b8 F01A0000 		.4byte	.LASF51
 2474 01bc 22       		.sleb128 34
 2475 01bd 0B       		.uleb128 0xb
ARM GAS  C:\Users\AHMED~1.ELE\AppData\Local\Temp\cciu15sF.s 			page 60


 2476 01be 9E160000 		.4byte	.LASF52
 2477 01c2 23       		.sleb128 35
 2478 01c3 0B       		.uleb128 0xb
 2479 01c4 040A0000 		.4byte	.LASF53
 2480 01c8 24       		.sleb128 36
 2481 01c9 0B       		.uleb128 0xb
 2482 01ca EA0E0000 		.4byte	.LASF54
 2483 01ce 25       		.sleb128 37
 2484 01cf 0B       		.uleb128 0xb
 2485 01d0 03250000 		.4byte	.LASF55
 2486 01d4 26       		.sleb128 38
 2487 01d5 0B       		.uleb128 0xb
 2488 01d6 10170000 		.4byte	.LASF56
 2489 01da 27       		.sleb128 39
 2490 01db 0B       		.uleb128 0xb
 2491 01dc 07070000 		.4byte	.LASF57
 2492 01e0 28       		.sleb128 40
 2493 01e1 0B       		.uleb128 0xb
 2494 01e2 9B1D0000 		.4byte	.LASF58
 2495 01e6 29       		.sleb128 41
 2496 01e7 0B       		.uleb128 0xb
 2497 01e8 5D170000 		.4byte	.LASF59
 2498 01ec 2A       		.sleb128 42
 2499 01ed 0B       		.uleb128 0xb
 2500 01ee 9A170000 		.4byte	.LASF60
 2501 01f2 2B       		.sleb128 43
 2502 01f3 0B       		.uleb128 0xb
 2503 01f4 560D0000 		.4byte	.LASF61
 2504 01f8 2C       		.sleb128 44
 2505 01f9 0B       		.uleb128 0xb
 2506 01fa B30A0000 		.4byte	.LASF62
 2507 01fe 2D       		.sleb128 45
 2508 01ff 0B       		.uleb128 0xb
 2509 0200 66250000 		.4byte	.LASF63
 2510 0204 2E       		.sleb128 46
 2511 0205 0B       		.uleb128 0xb
 2512 0206 F3270000 		.4byte	.LASF64
 2513 020a 2F       		.sleb128 47
 2514 020b 0B       		.uleb128 0xb
 2515 020c 4B230000 		.4byte	.LASF65
 2516 0210 30       		.sleb128 48
 2517 0211 0B       		.uleb128 0xb
 2518 0212 2B040000 		.4byte	.LASF66
 2519 0216 31       		.sleb128 49
 2520 0217 0B       		.uleb128 0xb
 2521 0218 811F0000 		.4byte	.LASF67
 2522 021c 32       		.sleb128 50
 2523 021d 0B       		.uleb128 0xb
 2524 021e B6260000 		.4byte	.LASF68
 2525 0222 33       		.sleb128 51
 2526 0223 0B       		.uleb128 0xb
 2527 0224 58140000 		.4byte	.LASF69
 2528 0228 34       		.sleb128 52
 2529 0229 0B       		.uleb128 0xb
 2530 022a 2D0B0000 		.4byte	.LASF70
 2531 022e 35       		.sleb128 53
 2532 022f 0B       		.uleb128 0xb
ARM GAS  C:\Users\AHMED~1.ELE\AppData\Local\Temp\cciu15sF.s 			page 61


 2533 0230 D9040000 		.4byte	.LASF71
 2534 0234 36       		.sleb128 54
 2535 0235 0B       		.uleb128 0xb
 2536 0236 EF150000 		.4byte	.LASF72
 2537 023a 37       		.sleb128 55
 2538 023b 0B       		.uleb128 0xb
 2539 023c AA290000 		.4byte	.LASF73
 2540 0240 38       		.sleb128 56
 2541 0241 0B       		.uleb128 0xb
 2542 0242 33270000 		.4byte	.LASF74
 2543 0246 39       		.sleb128 57
 2544 0247 0B       		.uleb128 0xb
 2545 0248 241F0000 		.4byte	.LASF75
 2546 024c 3A       		.sleb128 58
 2547 024d 0B       		.uleb128 0xb
 2548 024e 1A040000 		.4byte	.LASF76
 2549 0252 3B       		.sleb128 59
 2550 0253 0B       		.uleb128 0xb
 2551 0254 63280000 		.4byte	.LASF77
 2552 0258 3C       		.sleb128 60
 2553 0259 0B       		.uleb128 0xb
 2554 025a 151C0000 		.4byte	.LASF78
 2555 025e 3D       		.sleb128 61
 2556 025f 0B       		.uleb128 0xb
 2557 0260 80250000 		.4byte	.LASF79
 2558 0264 3E       		.sleb128 62
 2559 0265 0B       		.uleb128 0xb
 2560 0266 79220000 		.4byte	.LASF80
 2561 026a 3F       		.sleb128 63
 2562 026b 0B       		.uleb128 0xb
 2563 026c D5220000 		.4byte	.LASF81
 2564 0270 C000     		.sleb128 64
 2565 0272 0B       		.uleb128 0xb
 2566 0273 74010000 		.4byte	.LASF82
 2567 0277 C100     		.sleb128 65
 2568 0279 0B       		.uleb128 0xb
 2569 027a D9280000 		.4byte	.LASF83
 2570 027e C200     		.sleb128 66
 2571 0280 0B       		.uleb128 0xb
 2572 0281 50170000 		.4byte	.LASF84
 2573 0285 C300     		.sleb128 67
 2574 0287 0B       		.uleb128 0xb
 2575 0288 7A1D0000 		.4byte	.LASF85
 2576 028c C400     		.sleb128 68
 2577 028e 0B       		.uleb128 0xb
 2578 028f 0F0D0000 		.4byte	.LASF86
 2579 0293 C500     		.sleb128 69
 2580 0295 0B       		.uleb128 0xb
 2581 0296 10110000 		.4byte	.LASF87
 2582 029a C600     		.sleb128 70
 2583 029c 0B       		.uleb128 0xb
 2584 029d F41E0000 		.4byte	.LASF88
 2585 02a1 C700     		.sleb128 71
 2586 02a3 0B       		.uleb128 0xb
 2587 02a4 01160000 		.4byte	.LASF89
 2588 02a8 C800     		.sleb128 72
 2589 02aa 0B       		.uleb128 0xb
ARM GAS  C:\Users\AHMED~1.ELE\AppData\Local\Temp\cciu15sF.s 			page 62


 2590 02ab 97190000 		.4byte	.LASF90
 2591 02af C900     		.sleb128 73
 2592 02b1 0B       		.uleb128 0xb
 2593 02b2 6E270000 		.4byte	.LASF91
 2594 02b6 CA00     		.sleb128 74
 2595 02b8 0B       		.uleb128 0xb
 2596 02b9 14280000 		.4byte	.LASF92
 2597 02bd CB00     		.sleb128 75
 2598 02bf 0B       		.uleb128 0xb
 2599 02c0 B1050000 		.4byte	.LASF93
 2600 02c4 CC00     		.sleb128 76
 2601 02c6 0B       		.uleb128 0xb
 2602 02c7 67190000 		.4byte	.LASF94
 2603 02cb CD00     		.sleb128 77
 2604 02cd 0B       		.uleb128 0xb
 2605 02ce 7A040000 		.4byte	.LASF95
 2606 02d2 CE00     		.sleb128 78
 2607 02d4 0B       		.uleb128 0xb
 2608 02d5 5D050000 		.4byte	.LASF96
 2609 02d9 CF00     		.sleb128 79
 2610 02db 0B       		.uleb128 0xb
 2611 02dc 87260000 		.4byte	.LASF97
 2612 02e0 D000     		.sleb128 80
 2613 02e2 0B       		.uleb128 0xb
 2614 02e3 7F210000 		.4byte	.LASF98
 2615 02e7 D100     		.sleb128 81
 2616 02e9 0B       		.uleb128 0xb
 2617 02ea 80170000 		.4byte	.LASF99
 2618 02ee D200     		.sleb128 82
 2619 02f0 0B       		.uleb128 0xb
 2620 02f1 8A0E0000 		.4byte	.LASF100
 2621 02f5 D300     		.sleb128 83
 2622 02f7 0B       		.uleb128 0xb
 2623 02f8 1F220000 		.4byte	.LASF101
 2624 02fc D400     		.sleb128 84
 2625 02fe 0B       		.uleb128 0xb
 2626 02ff 551D0000 		.4byte	.LASF102
 2627 0303 D500     		.sleb128 85
 2628 0305 0B       		.uleb128 0xb
 2629 0306 F8040000 		.4byte	.LASF103
 2630 030a D600     		.sleb128 86
 2631 030c 0B       		.uleb128 0xb
 2632 030d 04280000 		.4byte	.LASF104
 2633 0311 D700     		.sleb128 87
 2634 0313 0B       		.uleb128 0xb
 2635 0314 83200000 		.4byte	.LASF105
 2636 0318 D800     		.sleb128 88
 2637 031a 0B       		.uleb128 0xb
 2638 031b 1A0D0000 		.4byte	.LASF106
 2639 031f D900     		.sleb128 89
 2640 0321 0B       		.uleb128 0xb
 2641 0322 131F0000 		.4byte	.LASF107
 2642 0326 DA00     		.sleb128 90
 2643 0328 0B       		.uleb128 0xb
 2644 0329 051D0000 		.4byte	.LASF108
 2645 032d DB00     		.sleb128 91
 2646 032f 0B       		.uleb128 0xb
ARM GAS  C:\Users\AHMED~1.ELE\AppData\Local\Temp\cciu15sF.s 			page 63


 2647 0330 6C070000 		.4byte	.LASF109
 2648 0334 DC00     		.sleb128 92
 2649 0336 0B       		.uleb128 0xb
 2650 0337 02040000 		.4byte	.LASF110
 2651 033b DD00     		.sleb128 93
 2652 033d 0B       		.uleb128 0xb
 2653 033e 3A050000 		.4byte	.LASF111
 2654 0342 DE00     		.sleb128 94
 2655 0344 0B       		.uleb128 0xb
 2656 0345 2C070000 		.4byte	.LASF112
 2657 0349 DF00     		.sleb128 95
 2658 034b 0B       		.uleb128 0xb
 2659 034c 681A0000 		.4byte	.LASF113
 2660 0350 E000     		.sleb128 96
 2661 0352 0B       		.uleb128 0xb
 2662 0353 21240000 		.4byte	.LASF114
 2663 0357 E100     		.sleb128 97
 2664 0359 0B       		.uleb128 0xb
 2665 035a DA230000 		.4byte	.LASF115
 2666 035e E200     		.sleb128 98
 2667 0360 0B       		.uleb128 0xb
 2668 0361 310C0000 		.4byte	.LASF116
 2669 0365 E300     		.sleb128 99
 2670 0367 0B       		.uleb128 0xb
 2671 0368 F1240000 		.4byte	.LASF117
 2672 036c E400     		.sleb128 100
 2673 036e 0B       		.uleb128 0xb
 2674 036f 9A1A0000 		.4byte	.LASF118
 2675 0373 E500     		.sleb128 101
 2676 0375 0B       		.uleb128 0xb
 2677 0376 B0010000 		.4byte	.LASF119
 2678 037a E600     		.sleb128 102
 2679 037c 0B       		.uleb128 0xb
 2680 037d A2050000 		.4byte	.LASF120
 2681 0381 E700     		.sleb128 103
 2682 0383 0B       		.uleb128 0xb
 2683 0384 22150000 		.4byte	.LASF121
 2684 0388 E800     		.sleb128 104
 2685 038a 0B       		.uleb128 0xb
 2686 038b 75050000 		.4byte	.LASF122
 2687 038f E900     		.sleb128 105
 2688 0391 0B       		.uleb128 0xb
 2689 0392 CC100000 		.4byte	.LASF123
 2690 0396 EA00     		.sleb128 106
 2691 0398 0B       		.uleb128 0xb
 2692 0399 11240000 		.4byte	.LASF124
 2693 039d EB00     		.sleb128 107
 2694 039f 0B       		.uleb128 0xb
 2695 03a0 99220000 		.4byte	.LASF125
 2696 03a4 EC00     		.sleb128 108
 2697 03a6 0B       		.uleb128 0xb
 2698 03a7 CE170000 		.4byte	.LASF126
 2699 03ab ED00     		.sleb128 109
 2700 03ad 0B       		.uleb128 0xb
 2701 03ae E5090000 		.4byte	.LASF127
 2702 03b2 EE00     		.sleb128 110
 2703 03b4 0B       		.uleb128 0xb
ARM GAS  C:\Users\AHMED~1.ELE\AppData\Local\Temp\cciu15sF.s 			page 64


 2704 03b5 55190000 		.4byte	.LASF128
 2705 03b9 EF00     		.sleb128 111
 2706 03bb 0B       		.uleb128 0xb
 2707 03bc BA140000 		.4byte	.LASF129
 2708 03c0 F000     		.sleb128 112
 2709 03c2 0B       		.uleb128 0xb
 2710 03c3 C3030000 		.4byte	.LASF130
 2711 03c7 F100     		.sleb128 113
 2712 03c9 0B       		.uleb128 0xb
 2713 03ca 321A0000 		.4byte	.LASF131
 2714 03ce F200     		.sleb128 114
 2715 03d0 0B       		.uleb128 0xb
 2716 03d1 DD1E0000 		.4byte	.LASF132
 2717 03d5 F300     		.sleb128 115
 2718 03d7 0B       		.uleb128 0xb
 2719 03d8 75080000 		.4byte	.LASF133
 2720 03dc F400     		.sleb128 116
 2721 03de 0B       		.uleb128 0xb
 2722 03df BE240000 		.4byte	.LASF134
 2723 03e3 F500     		.sleb128 117
 2724 03e5 0B       		.uleb128 0xb
 2725 03e6 E8100000 		.4byte	.LASF135
 2726 03ea F600     		.sleb128 118
 2727 03ec 0B       		.uleb128 0xb
 2728 03ed C30A0000 		.4byte	.LASF136
 2729 03f1 F700     		.sleb128 119
 2730 03f3 0B       		.uleb128 0xb
 2731 03f4 550A0000 		.4byte	.LASF137
 2732 03f8 F800     		.sleb128 120
 2733 03fa 0B       		.uleb128 0xb
 2734 03fb E70B0000 		.4byte	.LASF138
 2735 03ff F900     		.sleb128 121
 2736 0401 0B       		.uleb128 0xb
 2737 0402 A4270000 		.4byte	.LASF139
 2738 0406 FA00     		.sleb128 122
 2739 0408 0B       		.uleb128 0xb
 2740 0409 0E0E0000 		.4byte	.LASF140
 2741 040d FB00     		.sleb128 123
 2742 040f 0B       		.uleb128 0xb
 2743 0410 69140000 		.4byte	.LASF141
 2744 0414 FC00     		.sleb128 124
 2745 0416 0B       		.uleb128 0xb
 2746 0417 B1220000 		.4byte	.LASF142
 2747 041b FD00     		.sleb128 125
 2748 041d 0B       		.uleb128 0xb
 2749 041e 86090000 		.4byte	.LASF143
 2750 0422 FE00     		.sleb128 126
 2751 0424 0B       		.uleb128 0xb
 2752 0425 F40F0000 		.4byte	.LASF144
 2753 0429 FF00     		.sleb128 127
 2754 042b 0B       		.uleb128 0xb
 2755 042c 9C210000 		.4byte	.LASF145
 2756 0430 8001     		.sleb128 128
 2757 0432 0B       		.uleb128 0xb
 2758 0433 F4060000 		.4byte	.LASF146
 2759 0437 8101     		.sleb128 129
 2760 0439 0B       		.uleb128 0xb
ARM GAS  C:\Users\AHMED~1.ELE\AppData\Local\Temp\cciu15sF.s 			page 65


 2761 043a B9020000 		.4byte	.LASF147
 2762 043e 8201     		.sleb128 130
 2763 0440 0B       		.uleb128 0xb
 2764 0441 BF1C0000 		.4byte	.LASF148
 2765 0445 8301     		.sleb128 131
 2766 0447 0B       		.uleb128 0xb
 2767 0448 5E200000 		.4byte	.LASF149
 2768 044c 8401     		.sleb128 132
 2769 044e 0B       		.uleb128 0xb
 2770 044f 220E0000 		.4byte	.LASF150
 2771 0453 8501     		.sleb128 133
 2772 0455 0B       		.uleb128 0xb
 2773 0456 4A090000 		.4byte	.LASF151
 2774 045a 8601     		.sleb128 134
 2775 045c 0B       		.uleb128 0xb
 2776 045d 1C0B0000 		.4byte	.LASF152
 2777 0461 8701     		.sleb128 135
 2778 0463 0B       		.uleb128 0xb
 2779 0464 F9130000 		.4byte	.LASF153
 2780 0468 8801     		.sleb128 136
 2781 046a 0B       		.uleb128 0xb
 2782 046b 520E0000 		.4byte	.LASF154
 2783 046f 8901     		.sleb128 137
 2784 0471 0B       		.uleb128 0xb
 2785 0472 3D090000 		.4byte	.LASF155
 2786 0476 8A01     		.sleb128 138
 2787 0478 0B       		.uleb128 0xb
 2788 0479 44210000 		.4byte	.LASF156
 2789 047d 8B01     		.sleb128 139
 2790 047f 0B       		.uleb128 0xb
 2791 0480 6C260000 		.4byte	.LASF157
 2792 0484 8C01     		.sleb128 140
 2793 0486 0B       		.uleb128 0xb
 2794 0487 EA160000 		.4byte	.LASF158
 2795 048b 8D01     		.sleb128 141
 2796 048d 0B       		.uleb128 0xb
 2797 048e 3F1D0000 		.4byte	.LASF159
 2798 0492 8E01     		.sleb128 142
 2799 0494 0B       		.uleb128 0xb
 2800 0495 9C0D0000 		.4byte	.LASF160
 2801 0499 8F01     		.sleb128 143
 2802 049b 0B       		.uleb128 0xb
 2803 049c 870D0000 		.4byte	.LASF161
 2804 04a0 9001     		.sleb128 144
 2805 04a2 0B       		.uleb128 0xb
 2806 04a3 E3250000 		.4byte	.LASF162
 2807 04a7 9101     		.sleb128 145
 2808 04a9 0B       		.uleb128 0xb
 2809 04aa 591C0000 		.4byte	.LASF163
 2810 04ae 9201     		.sleb128 146
 2811 04b0 0B       		.uleb128 0xb
 2812 04b1 47240000 		.4byte	.LASF164
 2813 04b5 9301     		.sleb128 147
 2814 04b7 0B       		.uleb128 0xb
 2815 04b8 7B150000 		.4byte	.LASF165
 2816 04bc 9401     		.sleb128 148
 2817 04be 0B       		.uleb128 0xb
ARM GAS  C:\Users\AHMED~1.ELE\AppData\Local\Temp\cciu15sF.s 			page 66


 2818 04bf A8000000 		.4byte	.LASF166
 2819 04c3 9501     		.sleb128 149
 2820 04c5 0B       		.uleb128 0xb
 2821 04c6 66090000 		.4byte	.LASF167
 2822 04ca 9601     		.sleb128 150
 2823 04cc 0B       		.uleb128 0xb
 2824 04cd 120F0000 		.4byte	.LASF168
 2825 04d1 9701     		.sleb128 151
 2826 04d3 0B       		.uleb128 0xb
 2827 04d4 6A150000 		.4byte	.LASF169
 2828 04d8 9801     		.sleb128 152
 2829 04da 0B       		.uleb128 0xb
 2830 04db 85010000 		.4byte	.LASF170
 2831 04df 9901     		.sleb128 153
 2832 04e1 0B       		.uleb128 0xb
 2833 04e2 AB170000 		.4byte	.LASF171
 2834 04e6 9A01     		.sleb128 154
 2835 04e8 0B       		.uleb128 0xb
 2836 04e9 AD1C0000 		.4byte	.LASF172
 2837 04ed 9B01     		.sleb128 155
 2838 04ef 0B       		.uleb128 0xb
 2839 04f0 6C290000 		.4byte	.LASF173
 2840 04f4 9C01     		.sleb128 156
 2841 04f6 0B       		.uleb128 0xb
 2842 04f7 71000000 		.4byte	.LASF174
 2843 04fb 9D01     		.sleb128 157
 2844 04fd 0B       		.uleb128 0xb
 2845 04fe E40F0000 		.4byte	.LASF175
 2846 0502 9E01     		.sleb128 158
 2847 0504 0B       		.uleb128 0xb
 2848 0505 670A0000 		.4byte	.LASF176
 2849 0509 9F01     		.sleb128 159
 2850 050b 0B       		.uleb128 0xb
 2851 050c 76090000 		.4byte	.LASF177
 2852 0510 A001     		.sleb128 160
 2853 0512 0B       		.uleb128 0xb
 2854 0513 D7180000 		.4byte	.LASF178
 2855 0517 A101     		.sleb128 161
 2856 0519 0B       		.uleb128 0xb
 2857 051a 261C0000 		.4byte	.LASF179
 2858 051e A201     		.sleb128 162
 2859 0520 0B       		.uleb128 0xb
 2860 0521 92040000 		.4byte	.LASF180
 2861 0525 A301     		.sleb128 163
 2862 0527 0B       		.uleb128 0xb
 2863 0528 5E1E0000 		.4byte	.LASF181
 2864 052c A401     		.sleb128 164
 2865 052e 0B       		.uleb128 0xb
 2866 052f D7210000 		.4byte	.LASF182
 2867 0533 A501     		.sleb128 165
 2868 0535 0B       		.uleb128 0xb
 2869 0536 5B020000 		.4byte	.LASF183
 2870 053a A601     		.sleb128 166
 2871 053c 0B       		.uleb128 0xb
 2872 053d A5190000 		.4byte	.LASF184
 2873 0541 A701     		.sleb128 167
 2874 0543 0B       		.uleb128 0xb
ARM GAS  C:\Users\AHMED~1.ELE\AppData\Local\Temp\cciu15sF.s 			page 67


 2875 0544 10180000 		.4byte	.LASF185
 2876 0548 A801     		.sleb128 168
 2877 054a 0B       		.uleb128 0xb
 2878 054b 26050000 		.4byte	.LASF186
 2879 054f A901     		.sleb128 169
 2880 0551 0B       		.uleb128 0xb
 2881 0552 7D270000 		.4byte	.LASF187
 2882 0556 AA01     		.sleb128 170
 2883 0558 0B       		.uleb128 0xb
 2884 0559 BA1B0000 		.4byte	.LASF188
 2885 055d AB01     		.sleb128 171
 2886 055f 0B       		.uleb128 0xb
 2887 0560 CF250000 		.4byte	.LASF189
 2888 0564 AC01     		.sleb128 172
 2889 0566 0B       		.uleb128 0xb
 2890 0567 A9030000 		.4byte	.LASF190
 2891 056b AD01     		.sleb128 173
 2892 056d 0B       		.uleb128 0xb
 2893 056e C9140000 		.4byte	.LASF191
 2894 0572 AE01     		.sleb128 174
 2895 0574 0B       		.uleb128 0xb
 2896 0575 F2210000 		.4byte	.LASF192
 2897 0579 AF01     		.sleb128 175
 2898 057b 0B       		.uleb128 0xb
 2899 057c C20B0000 		.4byte	.LASF193
 2900 0580 B001     		.sleb128 176
 2901 0582 0B       		.uleb128 0xb
 2902 0583 53000000 		.4byte	.LASF194
 2903 0587 B101     		.sleb128 177
 2904 0589 0B       		.uleb128 0xb
 2905 058a EB140000 		.4byte	.LASF195
 2906 058e B201     		.sleb128 178
 2907 0590 0B       		.uleb128 0xb
 2908 0591 5B260000 		.4byte	.LASF196
 2909 0595 B301     		.sleb128 179
 2910 0597 0B       		.uleb128 0xb
 2911 0598 D0050000 		.4byte	.LASF197
 2912 059c B401     		.sleb128 180
 2913 059e 0B       		.uleb128 0xb
 2914 059f 56110000 		.4byte	.LASF198
 2915 05a3 B501     		.sleb128 181
 2916 05a5 0B       		.uleb128 0xb
 2917 05a6 48060000 		.4byte	.LASF199
 2918 05aa B601     		.sleb128 182
 2919 05ac 0B       		.uleb128 0xb
 2920 05ad 4D1E0000 		.4byte	.LASF200
 2921 05b1 B701     		.sleb128 183
 2922 05b3 0B       		.uleb128 0xb
 2923 05b4 190A0000 		.4byte	.LASF201
 2924 05b8 B801     		.sleb128 184
 2925 05ba 0B       		.uleb128 0xb
 2926 05bb 01090000 		.4byte	.LASF202
 2927 05bf B901     		.sleb128 185
 2928 05c1 0B       		.uleb128 0xb
 2929 05c2 EF290000 		.4byte	.LASF203
 2930 05c6 BA01     		.sleb128 186
 2931 05c8 0B       		.uleb128 0xb
ARM GAS  C:\Users\AHMED~1.ELE\AppData\Local\Temp\cciu15sF.s 			page 68


 2932 05c9 B0210000 		.4byte	.LASF204
 2933 05cd BB01     		.sleb128 187
 2934 05cf 0B       		.uleb128 0xb
 2935 05d0 E9040000 		.4byte	.LASF205
 2936 05d4 BC01     		.sleb128 188
 2937 05d6 0B       		.uleb128 0xb
 2938 05d7 00110000 		.4byte	.LASF206
 2939 05db BD01     		.sleb128 189
 2940 05dd 0B       		.uleb128 0xb
 2941 05de A1040000 		.4byte	.LASF207
 2942 05e2 BE01     		.sleb128 190
 2943 05e4 0B       		.uleb128 0xb
 2944 05e5 02230000 		.4byte	.LASF208
 2945 05e9 BF01     		.sleb128 191
 2946 05eb 0B       		.uleb128 0xb
 2947 05ec BC0D0000 		.4byte	.LASF209
 2948 05f0 C001     		.sleb128 192
 2949 05f2 0B       		.uleb128 0xb
 2950 05f3 F5230000 		.4byte	.LASF210
 2951 05f7 C101     		.sleb128 193
 2952 05f9 0B       		.uleb128 0xb
 2953 05fa DE140000 		.4byte	.LASF211
 2954 05fe C201     		.sleb128 194
 2955 0600 0B       		.uleb128 0xb
 2956 0601 FF170000 		.4byte	.LASF212
 2957 0605 C301     		.sleb128 195
 2958 0607 0B       		.uleb128 0xb
 2959 0608 11210000 		.4byte	.LASF213
 2960 060c C401     		.sleb128 196
 2961 060e 0B       		.uleb128 0xb
 2962 060f 001E0000 		.4byte	.LASF214
 2963 0613 C501     		.sleb128 197
 2964 0615 0B       		.uleb128 0xb
 2965 0616 A3260000 		.4byte	.LASF215
 2966 061a C601     		.sleb128 198
 2967 061c 0B       		.uleb128 0xb
 2968 061d 2A020000 		.4byte	.LASF216
 2969 0621 C701     		.sleb128 199
 2970 0623 0B       		.uleb128 0xb
 2971 0624 AC1A0000 		.4byte	.LASF217
 2972 0628 C801     		.sleb128 200
 2973 062a 0B       		.uleb128 0xb
 2974 062b 58210000 		.4byte	.LASF218
 2975 062f C901     		.sleb128 201
 2976 0631 0B       		.uleb128 0xb
 2977 0632 931B0000 		.4byte	.LASF219
 2978 0636 CA01     		.sleb128 202
 2979 0638 0B       		.uleb128 0xb
 2980 0639 50270000 		.4byte	.LASF220
 2981 063d CB01     		.sleb128 203
 2982 063f 0B       		.uleb128 0xb
 2983 0640 210C0000 		.4byte	.LASF221
 2984 0644 CC01     		.sleb128 204
 2985 0646 0B       		.uleb128 0xb
 2986 0647 AB1F0000 		.4byte	.LASF222
 2987 064b CD01     		.sleb128 205
 2988 064d 0B       		.uleb128 0xb
ARM GAS  C:\Users\AHMED~1.ELE\AppData\Local\Temp\cciu15sF.s 			page 69


 2989 064e 35030000 		.4byte	.LASF223
 2990 0652 CE01     		.sleb128 206
 2991 0654 0B       		.uleb128 0xb
 2992 0655 660D0000 		.4byte	.LASF224
 2993 0659 CF01     		.sleb128 207
 2994 065b 0B       		.uleb128 0xb
 2995 065c 7A1A0000 		.4byte	.LASF225
 2996 0660 D001     		.sleb128 208
 2997 0662 0B       		.uleb128 0xb
 2998 0663 69100000 		.4byte	.LASF226
 2999 0667 D101     		.sleb128 209
 3000 0669 0B       		.uleb128 0xb
 3001 066a 6E0B0000 		.4byte	.LASF227
 3002 066e D201     		.sleb128 210
 3003 0670 0B       		.uleb128 0xb
 3004 0671 77260000 		.4byte	.LASF228
 3005 0675 D301     		.sleb128 211
 3006 0677 0B       		.uleb128 0xb
 3007 0678 ED200000 		.4byte	.LASF229
 3008 067c D401     		.sleb128 212
 3009 067e 0B       		.uleb128 0xb
 3010 067f D70B0000 		.4byte	.LASF230
 3011 0683 D501     		.sleb128 213
 3012 0685 0B       		.uleb128 0xb
 3013 0686 89120000 		.4byte	.LASF231
 3014 068a D601     		.sleb128 214
 3015 068c 0B       		.uleb128 0xb
 3016 068d 420F0000 		.4byte	.LASF232
 3017 0691 D701     		.sleb128 215
 3018 0693 0B       		.uleb128 0xb
 3019 0694 760D0000 		.4byte	.LASF233
 3020 0698 D801     		.sleb128 216
 3021 069a 0B       		.uleb128 0xb
 3022 069b FA260000 		.4byte	.LASF234
 3023 069f D901     		.sleb128 217
 3024 06a1 0B       		.uleb128 0xb
 3025 06a2 52120000 		.4byte	.LASF235
 3026 06a6 DA01     		.sleb128 218
 3027 06a8 0B       		.uleb128 0xb
 3028 06a9 51040000 		.4byte	.LASF236
 3029 06ad DB01     		.sleb128 219
 3030 06af 0B       		.uleb128 0xb
 3031 06b0 7E060000 		.4byte	.LASF237
 3032 06b4 DC01     		.sleb128 220
 3033 06b6 0B       		.uleb128 0xb
 3034 06b7 F2250000 		.4byte	.LASF238
 3035 06bb DD01     		.sleb128 221
 3036 06bd 0B       		.uleb128 0xb
 3037 06be 90110000 		.4byte	.LASF239
 3038 06c2 DE01     		.sleb128 222
 3039 06c4 0B       		.uleb128 0xb
 3040 06c5 240F0000 		.4byte	.LASF240
 3041 06c9 DF01     		.sleb128 223
 3042 06cb 0B       		.uleb128 0xb
 3043 06cc BC100000 		.4byte	.LASF241
 3044 06d0 E001     		.sleb128 224
 3045 06d2 0B       		.uleb128 0xb
ARM GAS  C:\Users\AHMED~1.ELE\AppData\Local\Temp\cciu15sF.s 			page 70


 3046 06d3 330F0000 		.4byte	.LASF242
 3047 06d7 E101     		.sleb128 225
 3048 06d9 0B       		.uleb128 0xb
 3049 06da C6130000 		.4byte	.LASF243
 3050 06de E201     		.sleb128 226
 3051 06e0 0B       		.uleb128 0xb
 3052 06e1 82160000 		.4byte	.LASF244
 3053 06e5 E301     		.sleb128 227
 3054 06e7 0B       		.uleb128 0xb
 3055 06e8 C30F0000 		.4byte	.LASF245
 3056 06ec E401     		.sleb128 228
 3057 06ee 0B       		.uleb128 0xb
 3058 06ef D90D0000 		.4byte	.LASF246
 3059 06f3 E501     		.sleb128 229
 3060 06f5 0B       		.uleb128 0xb
 3061 06f6 6E170000 		.4byte	.LASF247
 3062 06fa E601     		.sleb128 230
 3063 06fc 0B       		.uleb128 0xb
 3064 06fd CD110000 		.4byte	.LASF248
 3065 0701 E701     		.sleb128 231
 3066 0703 0B       		.uleb128 0xb
 3067 0704 13090000 		.4byte	.LASF249
 3068 0708 E801     		.sleb128 232
 3069 070a 0B       		.uleb128 0xb
 3070 070b 94280000 		.4byte	.LASF250
 3071 070f E901     		.sleb128 233
 3072 0711 0B       		.uleb128 0xb
 3073 0712 B2230000 		.4byte	.LASF251
 3074 0716 EA01     		.sleb128 234
 3075 0718 0B       		.uleb128 0xb
 3076 0719 481A0000 		.4byte	.LASF252
 3077 071d EB01     		.sleb128 235
 3078 071f 0B       		.uleb128 0xb
 3079 0720 34240000 		.4byte	.LASF253
 3080 0724 EC01     		.sleb128 236
 3081 0726 0B       		.uleb128 0xb
 3082 0727 8E210000 		.4byte	.LASF254
 3083 072b ED01     		.sleb128 237
 3084 072d 0B       		.uleb128 0xb
 3085 072e C3050000 		.4byte	.LASF255
 3086 0732 EE01     		.sleb128 238
 3087 0734 0B       		.uleb128 0xb
 3088 0735 4C160000 		.4byte	.LASF256
 3089 0739 EF01     		.sleb128 239
 3090 073b 0B       		.uleb128 0xb
 3091 073c 24270000 		.4byte	.LASF257
 3092 0740 F001     		.sleb128 240
 3093 0742 0B       		.uleb128 0xb
 3094 0743 CB190000 		.4byte	.LASF258
 3095 0747 F101     		.sleb128 241
 3096 0749 0B       		.uleb128 0xb
 3097 074a CA1A0000 		.4byte	.LASF259
 3098 074e F201     		.sleb128 242
 3099 0750 0B       		.uleb128 0xb
 3100 0751 5F160000 		.4byte	.LASF260
 3101 0755 F301     		.sleb128 243
 3102 0757 0B       		.uleb128 0xb
ARM GAS  C:\Users\AHMED~1.ELE\AppData\Local\Temp\cciu15sF.s 			page 71


 3103 0758 A7070000 		.4byte	.LASF261
 3104 075c F401     		.sleb128 244
 3105 075e 0B       		.uleb128 0xb
 3106 075f 411F0000 		.4byte	.LASF262
 3107 0763 F501     		.sleb128 245
 3108 0765 0B       		.uleb128 0xb
 3109 0766 6E1F0000 		.4byte	.LASF263
 3110 076a F601     		.sleb128 246
 3111 076c 0B       		.uleb128 0xb
 3112 076d 2D0A0000 		.4byte	.LASF264
 3113 0771 F701     		.sleb128 247
 3114 0773 0B       		.uleb128 0xb
 3115 0774 DC190000 		.4byte	.LASF265
 3116 0778 F801     		.sleb128 248
 3117 077a 0B       		.uleb128 0xb
 3118 077b 7D110000 		.4byte	.LASF266
 3119 077f F901     		.sleb128 249
 3120 0781 0B       		.uleb128 0xb
 3121 0782 D81B0000 		.4byte	.LASF267
 3122 0786 FA01     		.sleb128 250
 3123 0788 0B       		.uleb128 0xb
 3124 0789 85130000 		.4byte	.LASF268
 3125 078d FB01     		.sleb128 251
 3126 078f 0B       		.uleb128 0xb
 3127 0790 28290000 		.4byte	.LASF269
 3128 0794 FC01     		.sleb128 252
 3129 0796 0B       		.uleb128 0xb
 3130 0797 FF0D0000 		.4byte	.LASF270
 3131 079b FD01     		.sleb128 253
 3132 079d 0B       		.uleb128 0xb
 3133 079e 5F270000 		.4byte	.LASF271
 3134 07a2 FE01     		.sleb128 254
 3135 07a4 0B       		.uleb128 0xb
 3136 07a5 8B100000 		.4byte	.LASF272
 3137 07a9 FF01     		.sleb128 255
 3138 07ab 0B       		.uleb128 0xb
 3139 07ac E3260000 		.4byte	.LASF273
 3140 07b0 8002     		.sleb128 256
 3141 07b2 0B       		.uleb128 0xb
 3142 07b3 94130000 		.4byte	.LASF274
 3143 07b7 8102     		.sleb128 257
 3144 07b9 0B       		.uleb128 0xb
 3145 07ba 191D0000 		.4byte	.LASF275
 3146 07be 8202     		.sleb128 258
 3147 07c0 0B       		.uleb128 0xb
 3148 07c1 72200000 		.4byte	.LASF276
 3149 07c5 8302     		.sleb128 259
 3150 07c7 0B       		.uleb128 0xb
 3151 07c8 560C0000 		.4byte	.LASF277
 3152 07cc 8402     		.sleb128 260
 3153 07ce 0B       		.uleb128 0xb
 3154 07cf AB100000 		.4byte	.LASF278
 3155 07d3 8502     		.sleb128 261
 3156 07d5 0B       		.uleb128 0xb
 3157 07d6 1B030000 		.4byte	.LASF279
 3158 07da 8602     		.sleb128 262
 3159 07dc 0B       		.uleb128 0xb
ARM GAS  C:\Users\AHMED~1.ELE\AppData\Local\Temp\cciu15sF.s 			page 72


 3160 07dd A9140000 		.4byte	.LASF280
 3161 07e1 8702     		.sleb128 263
 3162 07e3 0B       		.uleb128 0xb
 3163 07e4 10060000 		.4byte	.LASF281
 3164 07e8 8802     		.sleb128 264
 3165 07ea 0B       		.uleb128 0xb
 3166 07eb D80E0000 		.4byte	.LASF282
 3167 07ef 8902     		.sleb128 265
 3168 07f1 0B       		.uleb128 0xb
 3169 07f2 75230000 		.4byte	.LASF283
 3170 07f6 8A02     		.sleb128 266
 3171 07f8 0B       		.uleb128 0xb
 3172 07f9 C90D0000 		.4byte	.LASF284
 3173 07fd 8B02     		.sleb128 267
 3174 07ff 0B       		.uleb128 0xb
 3175 0800 A10B0000 		.4byte	.LASF285
 3176 0804 8C02     		.sleb128 268
 3177 0806 0B       		.uleb128 0xb
 3178 0807 1D200000 		.4byte	.LASF286
 3179 080b 8D02     		.sleb128 269
 3180 080d 0B       		.uleb128 0xb
 3181 080e FA0B0000 		.4byte	.LASF287
 3182 0812 8E02     		.sleb128 270
 3183 0814 0B       		.uleb128 0xb
 3184 0815 94060000 		.4byte	.LASF288
 3185 0819 8F02     		.sleb128 271
 3186 081b 0B       		.uleb128 0xb
 3187 081c 93070000 		.4byte	.LASF289
 3188 0820 9002     		.sleb128 272
 3189 0822 0B       		.uleb128 0xb
 3190 0823 15020000 		.4byte	.LASF290
 3191 0827 9102     		.sleb128 273
 3192 0829 0B       		.uleb128 0xb
 3193 082a 16290000 		.4byte	.LASF291
 3194 082e 9202     		.sleb128 274
 3195 0830 0B       		.uleb128 0xb
 3196 0831 A0230000 		.4byte	.LASF292
 3197 0835 9302     		.sleb128 275
 3198 0837 0B       		.uleb128 0xb
 3199 0838 C7280000 		.4byte	.LASF293
 3200 083c 9402     		.sleb128 276
 3201 083e 0B       		.uleb128 0xb
 3202 083f 2E110000 		.4byte	.LASF294
 3203 0843 9502     		.sleb128 277
 3204 0845 0B       		.uleb128 0xb
 3205 0846 CB020000 		.4byte	.LASF295
 3206 084a 9602     		.sleb128 278
 3207 084c 0B       		.uleb128 0xb
 3208 084d 72160000 		.4byte	.LASF296
 3209 0851 9702     		.sleb128 279
 3210 0853 0B       		.uleb128 0xb
 3211 0854 7C030000 		.4byte	.LASF297
 3212 0858 9802     		.sleb128 280
 3213 085a 0B       		.uleb128 0xb
 3214 085b 27160000 		.4byte	.LASF298
 3215 085f 9902     		.sleb128 281
 3216 0861 0B       		.uleb128 0xb
ARM GAS  C:\Users\AHMED~1.ELE\AppData\Local\Temp\cciu15sF.s 			page 73


 3217 0862 2A190000 		.4byte	.LASF299
 3218 0866 9A02     		.sleb128 282
 3219 0868 0B       		.uleb128 0xb
 3220 0869 DC010000 		.4byte	.LASF300
 3221 086d 9B02     		.sleb128 283
 3222 086f 0B       		.uleb128 0xb
 3223 0870 17070000 		.4byte	.LASF301
 3224 0874 9C02     		.sleb128 284
 3225 0876 0B       		.uleb128 0xb
 3226 0877 93140000 		.4byte	.LASF302
 3227 087b 9D02     		.sleb128 285
 3228 087d 0B       		.uleb128 0xb
 3229 087e 34120000 		.4byte	.LASF303
 3230 0882 9E02     		.sleb128 286
 3231 0884 0B       		.uleb128 0xb
 3232 0885 C0000000 		.4byte	.LASF304
 3233 0889 9F02     		.sleb128 287
 3234 088b 0B       		.uleb128 0xb
 3235 088c D6200000 		.4byte	.LASF305
 3236 0890 A002     		.sleb128 288
 3237 0892 0B       		.uleb128 0xb
 3238 0893 5A030000 		.4byte	.LASF306
 3239 0897 A102     		.sleb128 289
 3240 0899 0B       		.uleb128 0xb
 3241 089a 581A0000 		.4byte	.LASF307
 3242 089e A202     		.sleb128 290
 3243 08a0 0B       		.uleb128 0xb
 3244 08a1 E7220000 		.4byte	.LASF308
 3245 08a5 A302     		.sleb128 291
 3246 08a7 0B       		.uleb128 0xb
 3247 08a8 161E0000 		.4byte	.LASF309
 3248 08ac A402     		.sleb128 292
 3249 08ae 0B       		.uleb128 0xb
 3250 08af 850F0000 		.4byte	.LASF310
 3251 08b3 A502     		.sleb128 293
 3252 08b5 0B       		.uleb128 0xb
 3253 08b6 23250000 		.4byte	.LASF311
 3254 08ba A602     		.sleb128 294
 3255 08bc 0B       		.uleb128 0xb
 3256 08bd C51E0000 		.4byte	.LASF312
 3257 08c1 A702     		.sleb128 295
 3258 08c3 0B       		.uleb128 0xb
 3259 08c4 D41C0000 		.4byte	.LASF313
 3260 08c8 A802     		.sleb128 296
 3261 08ca 0B       		.uleb128 0xb
 3262 08cb 23170000 		.4byte	.LASF314
 3263 08cf A902     		.sleb128 297
 3264 08d1 0B       		.uleb128 0xb
 3265 08d2 45010000 		.4byte	.LASF315
 3266 08d6 AA02     		.sleb128 298
 3267 08d8 0B       		.uleb128 0xb
 3268 08d9 30000000 		.4byte	.LASF316
 3269 08dd AB02     		.sleb128 299
 3270 08df 0B       		.uleb128 0xb
 3271 08e0 DF1A0000 		.4byte	.LASF317
 3272 08e4 AC02     		.sleb128 300
 3273 08e6 0B       		.uleb128 0xb
ARM GAS  C:\Users\AHMED~1.ELE\AppData\Local\Temp\cciu15sF.s 			page 74


 3274 08e7 C30E0000 		.4byte	.LASF318
 3275 08eb AD02     		.sleb128 301
 3276 08ed 0B       		.uleb128 0xb
 3277 08ee E0080000 		.4byte	.LASF319
 3278 08f2 AE02     		.sleb128 302
 3279 08f4 0B       		.uleb128 0xb
 3280 08f5 CD070000 		.4byte	.LASF320
 3281 08f9 AF02     		.sleb128 303
 3282 08fb 0B       		.uleb128 0xb
 3283 08fc 11140000 		.4byte	.LASF321
 3284 0900 B002     		.sleb128 304
 3285 0902 0B       		.uleb128 0xb
 3286 0903 99290000 		.4byte	.LASF322
 3287 0907 B102     		.sleb128 305
 3288 0909 0B       		.uleb128 0xb
 3289 090a 09270000 		.4byte	.LASF323
 3290 090e B202     		.sleb128 306
 3291 0910 0B       		.uleb128 0xb
 3292 0911 0E100000 		.4byte	.LASF324
 3293 0915 B302     		.sleb128 307
 3294 0917 0B       		.uleb128 0xb
 3295 0918 A7180000 		.4byte	.LASF325
 3296 091c B402     		.sleb128 308
 3297 091e 0B       		.uleb128 0xb
 3298 091f 821B0000 		.4byte	.LASF326
 3299 0923 B502     		.sleb128 309
 3300 0925 0B       		.uleb128 0xb
 3301 0926 51080000 		.4byte	.LASF327
 3302 092a B602     		.sleb128 310
 3303 092c 0B       		.uleb128 0xb
 3304 092d 00000000 		.4byte	.LASF328
 3305 0931 B702     		.sleb128 311
 3306 0933 0B       		.uleb128 0xb
 3307 0934 4C0B0000 		.4byte	.LASF329
 3308 0938 B802     		.sleb128 312
 3309 093a 0B       		.uleb128 0xb
 3310 093b 34230000 		.4byte	.LASF330
 3311 093f B902     		.sleb128 313
 3312 0941 0B       		.uleb128 0xb
 3313 0942 401B0000 		.4byte	.LASF331
 3314 0946 BA02     		.sleb128 314
 3315 0948 0B       		.uleb128 0xb
 3316 0949 291D0000 		.4byte	.LASF332
 3317 094d BB02     		.sleb128 315
 3318 094f 0B       		.uleb128 0xb
 3319 0950 EA000000 		.4byte	.LASF333
 3320 0954 BC02     		.sleb128 316
 3321 0956 0B       		.uleb128 0xb
 3322 0957 D3290000 		.4byte	.LASF334
 3323 095b BD02     		.sleb128 317
 3324 095d 0B       		.uleb128 0xb
 3325 095e 082A0000 		.4byte	.LASF335
 3326 0962 BE02     		.sleb128 318
 3327 0964 0B       		.uleb128 0xb
 3328 0965 E51D0000 		.4byte	.LASF336
 3329 0969 BF02     		.sleb128 319
 3330 096b 0B       		.uleb128 0xb
ARM GAS  C:\Users\AHMED~1.ELE\AppData\Local\Temp\cciu15sF.s 			page 75


 3331 096c 20100000 		.4byte	.LASF337
 3332 0970 C002     		.sleb128 320
 3333 0972 0B       		.uleb128 0xb
 3334 0973 1E280000 		.4byte	.LASF338
 3335 0977 C102     		.sleb128 321
 3336 0979 0B       		.uleb128 0xb
 3337 097a 3B040000 		.4byte	.LASF339
 3338 097e C202     		.sleb128 322
 3339 0980 0B       		.uleb128 0xb
 3340 0981 FD000000 		.4byte	.LASF340
 3341 0985 C302     		.sleb128 323
 3342 0987 0B       		.uleb128 0xb
 3343 0988 15000000 		.4byte	.LASF341
 3344 098c C402     		.sleb128 324
 3345 098e 0B       		.uleb128 0xb
 3346 098f AB0F0000 		.4byte	.LASF342
 3347 0993 C502     		.sleb128 325
 3348 0995 0B       		.uleb128 0xb
 3349 0996 21060000 		.4byte	.LASF343
 3350 099a C602     		.sleb128 326
 3351 099c 0B       		.uleb128 0xb
 3352 099d 400D0000 		.4byte	.LASF344
 3353 09a1 C702     		.sleb128 327
 3354 09a3 0B       		.uleb128 0xb
 3355 09a4 54070000 		.4byte	.LASF345
 3356 09a8 C802     		.sleb128 328
 3357 09aa 0B       		.uleb128 0xb
 3358 09ab 2E220000 		.4byte	.LASF346
 3359 09af C902     		.sleb128 329
 3360 09b1 0B       		.uleb128 0xb
 3361 09b2 31210000 		.4byte	.LASF347
 3362 09b6 CA02     		.sleb128 330
 3363 09b8 0B       		.uleb128 0xb
 3364 09b9 5C230000 		.4byte	.LASF348
 3365 09bd CB02     		.sleb128 331
 3366 09bf 0B       		.uleb128 0xb
 3367 09c0 61040000 		.4byte	.LASF349
 3368 09c4 CC02     		.sleb128 332
 3369 09c6 0B       		.uleb128 0xb
 3370 09c7 FE160000 		.4byte	.LASF350
 3371 09cb CD02     		.sleb128 333
 3372 09cd 0B       		.uleb128 0xb
 3373 09ce 84190000 		.4byte	.LASF351
 3374 09d2 CE02     		.sleb128 334
 3375 09d4 0B       		.uleb128 0xb
 3376 09d5 44280000 		.4byte	.LASF352
 3377 09d9 CF02     		.sleb128 335
 3378 09db 0B       		.uleb128 0xb
 3379 09dc E6170000 		.4byte	.LASF353
 3380 09e0 D002     		.sleb128 336
 3381 09e2 0B       		.uleb128 0xb
 3382 09e3 010B0000 		.4byte	.LASF354
 3383 09e7 D102     		.sleb128 337
 3384 09e9 0B       		.uleb128 0xb
 3385 09ea 7A0E0000 		.4byte	.LASF355
 3386 09ee D202     		.sleb128 338
 3387 09f0 0B       		.uleb128 0xb
ARM GAS  C:\Users\AHMED~1.ELE\AppData\Local\Temp\cciu15sF.s 			page 76


 3388 09f1 7B140000 		.4byte	.LASF356
 3389 09f5 D302     		.sleb128 339
 3390 09f7 0B       		.uleb128 0xb
 3391 09f8 BE060000 		.4byte	.LASF357
 3392 09fc D402     		.sleb128 340
 3393 09fe 0B       		.uleb128 0xb
 3394 09ff 0B1B0000 		.4byte	.LASF358
 3395 0a03 D502     		.sleb128 341
 3396 0a05 0B       		.uleb128 0xb
 3397 0a06 CA270000 		.4byte	.LASF359
 3398 0a0a D602     		.sleb128 342
 3399 0a0c 0B       		.uleb128 0xb
 3400 0a0d E91C0000 		.4byte	.LASF360
 3401 0a11 D702     		.sleb128 343
 3402 0a13 0B       		.uleb128 0xb
 3403 0a14 DC150000 		.4byte	.LASF361
 3404 0a18 D802     		.sleb128 344
 3405 0a1a 0B       		.uleb128 0xb
 3406 0a1b 671D0000 		.4byte	.LASF362
 3407 0a1f D902     		.sleb128 345
 3408 0a21 0B       		.uleb128 0xb
 3409 0a22 D50C0000 		.4byte	.LASF363
 3410 0a26 DA02     		.sleb128 346
 3411 0a28 0B       		.uleb128 0xb
 3412 0a29 A71B0000 		.4byte	.LASF364
 3413 0a2d DB02     		.sleb128 347
 3414 0a2f 0B       		.uleb128 0xb
 3415 0a30 45140000 		.4byte	.LASF365
 3416 0a34 DC02     		.sleb128 348
 3417 0a36 0B       		.uleb128 0xb
 3418 0a37 60010000 		.4byte	.LASF366
 3419 0a3b DD02     		.sleb128 349
 3420 0a3d 0B       		.uleb128 0xb
 3421 0a3e BB190000 		.4byte	.LASF367
 3422 0a42 DE02     		.sleb128 350
 3423 0a44 0B       		.uleb128 0xb
 3424 0a45 61220000 		.4byte	.LASF368
 3425 0a49 DF02     		.sleb128 351
 3426 0a4b 0B       		.uleb128 0xb
 3427 0a4c EF010000 		.4byte	.LASF369
 3428 0a50 E002     		.sleb128 352
 3429 0a52 0B       		.uleb128 0xb
 3430 0a53 CE1F0000 		.4byte	.LASF370
 3431 0a57 E102     		.sleb128 353
 3432 0a59 0B       		.uleb128 0xb
 3433 0a5a C5220000 		.4byte	.LASF371
 3434 0a5e E202     		.sleb128 354
 3435 0a60 0B       		.uleb128 0xb
 3436 0a61 E0110000 		.4byte	.LASF372
 3437 0a65 E302     		.sleb128 355
 3438 0a67 0B       		.uleb128 0xb
 3439 0a68 6E110000 		.4byte	.LASF373
 3440 0a6c E402     		.sleb128 356
 3441 0a6e 0B       		.uleb128 0xb
 3442 0a6f 0D0C0000 		.4byte	.LASF374
 3443 0a73 E502     		.sleb128 357
 3444 0a75 0B       		.uleb128 0xb
ARM GAS  C:\Users\AHMED~1.ELE\AppData\Local\Temp\cciu15sF.s 			page 77


 3445 0a76 510F0000 		.4byte	.LASF375
 3446 0a7a E602     		.sleb128 358
 3447 0a7c 0B       		.uleb128 0xb
 3448 0a7d C2290000 		.4byte	.LASF376
 3449 0a81 E702     		.sleb128 359
 3450 0a83 0B       		.uleb128 0xb
 3451 0a84 71240000 		.4byte	.LASF377
 3452 0a88 E802     		.sleb128 360
 3453 0a8a 0B       		.uleb128 0xb
 3454 0a8b C2150000 		.4byte	.LASF378
 3455 0a8f E902     		.sleb128 361
 3456 0a91 0B       		.uleb128 0xb
 3457 0a92 0C220000 		.4byte	.LASF379
 3458 0a96 EA02     		.sleb128 362
 3459 0a98 0B       		.uleb128 0xb
 3460 0a99 E70C0000 		.4byte	.LASF380
 3461 0a9d EB02     		.sleb128 363
 3462 0a9f 0B       		.uleb128 0xb
 3463 0aa0 F70C0000 		.4byte	.LASF381
 3464 0aa4 EC02     		.sleb128 364
 3465 0aa6 0B       		.uleb128 0xb
 3466 0aa7 30260000 		.4byte	.LASF382
 3467 0aab ED02     		.sleb128 365
 3468 0aad 0B       		.uleb128 0xb
 3469 0aae 01260000 		.4byte	.LASF383
 3470 0ab2 EE02     		.sleb128 366
 3471 0ab4 0B       		.uleb128 0xb
 3472 0ab5 09050000 		.4byte	.LASF384
 3473 0ab9 EF02     		.sleb128 367
 3474 0abb 0B       		.uleb128 0xb
 3475 0abc 95150000 		.4byte	.LASF385
 3476 0ac0 F002     		.sleb128 368
 3477 0ac2 0B       		.uleb128 0xb
 3478 0ac3 FE050000 		.4byte	.LASF386
 3479 0ac7 F102     		.sleb128 369
 3480 0ac9 0B       		.uleb128 0xb
 3481 0aca 2D200000 		.4byte	.LASF387
 3482 0ace F202     		.sleb128 370
 3483 0ad0 0B       		.uleb128 0xb
 3484 0ad1 2C0D0000 		.4byte	.LASF388
 3485 0ad5 F302     		.sleb128 371
 3486 0ad7 0B       		.uleb128 0xb
 3487 0ad8 241A0000 		.4byte	.LASF389
 3488 0adc F402     		.sleb128 372
 3489 0ade 0B       		.uleb128 0xb
 3490 0adf 700C0000 		.4byte	.LASF390
 3491 0ae3 F502     		.sleb128 373
 3492 0ae5 0B       		.uleb128 0xb
 3493 0ae6 B8250000 		.4byte	.LASF391
 3494 0aea F602     		.sleb128 374
 3495 0aec 0B       		.uleb128 0xb
 3496 0aed AB060000 		.4byte	.LASF392
 3497 0af1 F702     		.sleb128 375
 3498 0af3 0B       		.uleb128 0xb
 3499 0af4 74280000 		.4byte	.LASF393
 3500 0af8 F802     		.sleb128 376
 3501 0afa 0B       		.uleb128 0xb
ARM GAS  C:\Users\AHMED~1.ELE\AppData\Local\Temp\cciu15sF.s 			page 78


 3502 0afb A1110000 		.4byte	.LASF394
 3503 0aff F902     		.sleb128 377
 3504 0b01 0B       		.uleb128 0xb
 3505 0b02 38160000 		.4byte	.LASF395
 3506 0b06 FA02     		.sleb128 378
 3507 0b08 0B       		.uleb128 0xb
 3508 0b09 A9200000 		.4byte	.LASF396
 3509 0b0d FB02     		.sleb128 379
 3510 0b0f 0B       		.uleb128 0xb
 3511 0b10 B61D0000 		.4byte	.LASF397
 3512 0b14 FC02     		.sleb128 380
 3513 0b16 0B       		.uleb128 0xb
 3514 0b17 E7180000 		.4byte	.LASF398
 3515 0b1b FD02     		.sleb128 381
 3516 0b1d 0B       		.uleb128 0xb
 3517 0b1e 95200000 		.4byte	.LASF399
 3518 0b22 FE02     		.sleb128 382
 3519 0b24 0B       		.uleb128 0xb
 3520 0b25 C4040000 		.4byte	.LASF400
 3521 0b29 FF02     		.sleb128 383
 3522 0b2b 0B       		.uleb128 0xb
 3523 0b2c 971C0000 		.4byte	.LASF401
 3524 0b30 8003     		.sleb128 384
 3525 0b32 0B       		.uleb128 0xb
 3526 0b33 3F0E0000 		.4byte	.LASF402
 3527 0b37 8103     		.sleb128 385
 3528 0b39 0B       		.uleb128 0xb
 3529 0b3a 3F250000 		.4byte	.LASF403
 3530 0b3e 8203     		.sleb128 386
 3531 0b40 0B       		.uleb128 0xb
 3532 0b41 70120000 		.4byte	.LASF404
 3533 0b45 8303     		.sleb128 387
 3534 0b47 0B       		.uleb128 0xb
 3535 0b48 FC070000 		.4byte	.LASF405
 3536 0b4c 8403     		.sleb128 388
 3537 0b4e 0B       		.uleb128 0xb
 3538 0b4f 51150000 		.4byte	.LASF406
 3539 0b53 8503     		.sleb128 389
 3540 0b55 0B       		.uleb128 0xb
 3541 0b56 88050000 		.4byte	.LASF407
 3542 0b5a 8603     		.sleb128 390
 3543 0b5c 0B       		.uleb128 0xb
 3544 0b5d 27090000 		.4byte	.LASF408
 3545 0b61 8703     		.sleb128 391
 3546 0b63 0B       		.uleb128 0xb
 3547 0b64 541B0000 		.4byte	.LASF409
 3548 0b68 8803     		.sleb128 392
 3549 0b6a 0B       		.uleb128 0xb
 3550 0b6b 780A0000 		.4byte	.LASF410
 3551 0b6f 8903     		.sleb128 393
 3552 0b71 0B       		.uleb128 0xb
 3553 0b72 EA280000 		.4byte	.LASF411
 3554 0b76 8A03     		.sleb128 394
 3555 0b78 0B       		.uleb128 0xb
 3556 0b79 701E0000 		.4byte	.LASF412
 3557 0b7d 8B03     		.sleb128 395
 3558 0b7f 0B       		.uleb128 0xb
ARM GAS  C:\Users\AHMED~1.ELE\AppData\Local\Temp\cciu15sF.s 			page 79


 3559 0b80 C4210000 		.4byte	.LASF413
 3560 0b84 8C03     		.sleb128 396
 3561 0b86 0B       		.uleb128 0xb
 3562 0b87 84240000 		.4byte	.LASF414
 3563 0b8b 8D03     		.sleb128 397
 3564 0b8d 0B       		.uleb128 0xb
 3565 0b8e 8A000000 		.4byte	.LASF415
 3566 0b92 8E03     		.sleb128 398
 3567 0b94 0B       		.uleb128 0xb
 3568 0b95 F6190000 		.4byte	.LASF416
 3569 0b99 8F03     		.sleb128 399
 3570 0b9b 0B       		.uleb128 0xb
 3571 0b9c B60E0000 		.4byte	.LASF417
 3572 0ba0 9003     		.sleb128 400
 3573 0ba2 0B       		.uleb128 0xb
 3574 0ba3 03240000 		.4byte	.LASF418
 3575 0ba7 9103     		.sleb128 401
 3576 0ba9 0B       		.uleb128 0xb
 3577 0baa EC0D0000 		.4byte	.LASF419
 3578 0bae 9203     		.sleb128 402
 3579 0bb0 0B       		.uleb128 0xb
 3580 0bb1 3D190000 		.4byte	.LASF420
 3581 0bb5 9303     		.sleb128 403
 3582 0bb7 0B       		.uleb128 0xb
 3583 0bb8 891C0000 		.4byte	.LASF421
 3584 0bbc 9403     		.sleb128 404
 3585 0bbe 0B       		.uleb128 0xb
 3586 0bbf 17050000 		.4byte	.LASF422
 3587 0bc3 9503     		.sleb128 405
 3588 0bc5 0B       		.uleb128 0xb
 3589 0bc6 BE1F0000 		.4byte	.LASF423
 3590 0bca 9603     		.sleb128 406
 3591 0bcc 0B       		.uleb128 0xb
 3592 0bcd B2040000 		.4byte	.LASF424
 3593 0bd1 9703     		.sleb128 407
 3594 0bd3 0B       		.uleb128 0xb
 3595 0bd4 24120000 		.4byte	.LASF425
 3596 0bd8 9803     		.sleb128 408
 3597 0bda 0B       		.uleb128 0xb
 3598 0bdb 891A0000 		.4byte	.LASF426
 3599 0bdf 9903     		.sleb128 409
 3600 0be1 0B       		.uleb128 0xb
 3601 0be2 45260000 		.4byte	.LASF427
 3602 0be6 9A03     		.sleb128 410
 3603 0be8 0B       		.uleb128 0xb
 3604 0be9 42000000 		.4byte	.LASF428
 3605 0bed 9B03     		.sleb128 411
 3606 0bef 0B       		.uleb128 0xb
 3607 0bf0 AD130000 		.4byte	.LASF429
 3608 0bf4 9C03     		.sleb128 412
 3609 0bf6 0B       		.uleb128 0xb
 3610 0bf7 000F0000 		.4byte	.LASF430
 3611 0bfb 9D03     		.sleb128 413
 3612 0bfd 0B       		.uleb128 0xb
 3613 0bfe BE1A0000 		.4byte	.LASF431
 3614 0c02 9E03     		.sleb128 414
 3615 0c04 0B       		.uleb128 0xb
ARM GAS  C:\Users\AHMED~1.ELE\AppData\Local\Temp\cciu15sF.s 			page 80


 3616 0c05 91230000 		.4byte	.LASF432
 3617 0c09 9F03     		.sleb128 415
 3618 0c0b 0B       		.uleb128 0xb
 3619 0c0c B20B0000 		.4byte	.LASF433
 3620 0c10 A003     		.sleb128 416
 3621 0c12 0B       		.uleb128 0xb
 3622 0c13 D50F0000 		.4byte	.LASF434
 3623 0c17 A103     		.sleb128 417
 3624 0c19 0B       		.uleb128 0xb
 3625 0c1a D4080000 		.4byte	.LASF435
 3626 0c1e A203     		.sleb128 418
 3627 0c20 0B       		.uleb128 0xb
 3628 0c21 AB090000 		.4byte	.LASF436
 3629 0c25 A303     		.sleb128 419
 3630 0c27 0B       		.uleb128 0xb
 3631 0c28 72020000 		.4byte	.LASF437
 3632 0c2c A403     		.sleb128 420
 3633 0c2e 0B       		.uleb128 0xb
 3634 0c2f BF180000 		.4byte	.LASF438
 3635 0c33 A503     		.sleb128 421
 3636 0c35 0B       		.uleb128 0xb
 3637 0c36 C7260000 		.4byte	.LASF439
 3638 0c3a A603     		.sleb128 422
 3639 0c3c 0B       		.uleb128 0xb
 3640 0c3d F0030000 		.4byte	.LASF440
 3641 0c41 A703     		.sleb128 423
 3642 0c43 0B       		.uleb128 0xb
 3643 0c44 0D150000 		.4byte	.LASF441
 3644 0c48 A803     		.sleb128 424
 3645 0c4a 0B       		.uleb128 0xb
 3646 0c4b 09020000 		.4byte	.LASF442
 3647 0c4f A903     		.sleb128 425
 3648 0c51 0B       		.uleb128 0xb
 3649 0c52 EC050000 		.4byte	.LASF443
 3650 0c56 AA03     		.sleb128 426
 3651 0c58 0B       		.uleb128 0xb
 3652 0c59 44290000 		.4byte	.LASF444
 3653 0c5d AB03     		.sleb128 427
 3654 0c5f 0B       		.uleb128 0xb
 3655 0c60 701C0000 		.4byte	.LASF445
 3656 0c64 AC03     		.sleb128 428
 3657 0c66 0B       		.uleb128 0xb
 3658 0c67 620E0000 		.4byte	.LASF446
 3659 0c6b AD03     		.sleb128 429
 3660 0c6d 0B       		.uleb128 0xb
 3661 0c6e 86180000 		.4byte	.LASF447
 3662 0c72 AE03     		.sleb128 430
 3663 0c74 0B       		.uleb128 0xb
 3664 0c75 A8280000 		.4byte	.LASF448
 3665 0c79 AF03     		.sleb128 431
 3666 0c7b 0B       		.uleb128 0xb
 3667 0c7c 8D0B0000 		.4byte	.LASF449
 3668 0c80 B003     		.sleb128 432
 3669 0c82 0B       		.uleb128 0xb
 3670 0c83 58060000 		.4byte	.LASF450
 3671 0c87 B103     		.sleb128 433
 3672 0c89 0B       		.uleb128 0xb
ARM GAS  C:\Users\AHMED~1.ELE\AppData\Local\Temp\cciu15sF.s 			page 81


 3673 0c8a BD170000 		.4byte	.LASF451
 3674 0c8e B203     		.sleb128 434
 3675 0c90 0B       		.uleb128 0xb
 3676 0c91 680F0000 		.4byte	.LASF452
 3677 0c95 B303     		.sleb128 435
 3678 0c97 0B       		.uleb128 0xb
 3679 0c98 47180000 		.4byte	.LASF453
 3680 0c9c B403     		.sleb128 436
 3681 0c9e 0B       		.uleb128 0xb
 3682 0c9f 34060000 		.4byte	.LASF454
 3683 0ca3 B503     		.sleb128 437
 3684 0ca5 0B       		.uleb128 0xb
 3685 0ca6 3B0C0000 		.4byte	.LASF455
 3686 0caa B603     		.sleb128 438
 3687 0cac 0B       		.uleb128 0xb
 3688 0cad 2D140000 		.4byte	.LASF456
 3689 0cb1 B703     		.sleb128 439
 3690 0cb3 0B       		.uleb128 0xb
 3691 0cb4 BB0C0000 		.4byte	.LASF457
 3692 0cb8 B803     		.sleb128 440
 3693 0cba 0B       		.uleb128 0xb
 3694 0cbb 26010000 		.4byte	.LASF458
 3695 0cbf B903     		.sleb128 441
 3696 0cc1 0B       		.uleb128 0xb
 3697 0cc2 E91F0000 		.4byte	.LASF459
 3698 0cc6 BA03     		.sleb128 442
 3699 0cc8 0B       		.uleb128 0xb
 3700 0cc9 47220000 		.4byte	.LASF460
 3701 0ccd BB03     		.sleb128 443
 3702 0ccf 0B       		.uleb128 0xb
 3703 0cd0 3E070000 		.4byte	.LASF461
 3704 0cd4 BC03     		.sleb128 444
 3705 0cd6 0B       		.uleb128 0xb
 3706 0cd7 1D1B0000 		.4byte	.LASF462
 3707 0cdb BD03     		.sleb128 445
 3708 0cdd 0B       		.uleb128 0xb
 3709 0cde 71130000 		.4byte	.LASF463
 3710 0ce2 BE03     		.sleb128 446
 3711 0ce4 0B       		.uleb128 0xb
 3712 0ce5 A1020000 		.4byte	.LASF464
 3713 0ce9 BF03     		.sleb128 447
 3714 0ceb 0B       		.uleb128 0xb
 3715 0cec 920C0000 		.4byte	.LASF465
 3716 0cf0 C003     		.sleb128 448
 3717 0cf2 0B       		.uleb128 0xb
 3718 0cf3 A81E0000 		.4byte	.LASF466
 3719 0cf7 C103     		.sleb128 449
 3720 0cf9 0B       		.uleb128 0xb
 3721 0cfa 55240000 		.4byte	.LASF467
 3722 0cfe C203     		.sleb128 450
 3723 0d00 0B       		.uleb128 0xb
 3724 0d01 97240000 		.4byte	.LASF468
 3725 0d05 C303     		.sleb128 451
 3726 0d07 0B       		.uleb128 0xb
 3727 0d08 D5030000 		.4byte	.LASF469
 3728 0d0c C403     		.sleb128 452
 3729 0d0e 0B       		.uleb128 0xb
ARM GAS  C:\Users\AHMED~1.ELE\AppData\Local\Temp\cciu15sF.s 			page 82


 3730 0d0f 970A0000 		.4byte	.LASF470
 3731 0d13 C503     		.sleb128 453
 3732 0d15 0B       		.uleb128 0xb
 3733 0d16 D4240000 		.4byte	.LASF471
 3734 0d1a C603     		.sleb128 454
 3735 0d1c 0B       		.uleb128 0xb
 3736 0d1d B4110000 		.4byte	.LASF472
 3737 0d21 C703     		.sleb128 455
 3738 0d23 0B       		.uleb128 0xb
 3739 0d24 DD270000 		.4byte	.LASF473
 3740 0d28 C803     		.sleb128 456
 3741 0d2a 0B       		.uleb128 0xb
 3742 0d2b A9080000 		.4byte	.LASF474
 3743 0d2f C903     		.sleb128 457
 3744 0d31 0B       		.uleb128 0xb
 3745 0d32 06190000 		.4byte	.LASF475
 3746 0d36 CA03     		.sleb128 458
 3747 0d38 0B       		.uleb128 0xb
 3748 0d39 841D0000 		.4byte	.LASF476
 3749 0d3d CB03     		.sleb128 459
 3750 0d3f 0B       		.uleb128 0xb
 3751 0d40 E5130000 		.4byte	.LASF477
 3752 0d44 CC03     		.sleb128 460
 3753 0d46 0B       		.uleb128 0xb
 3754 0d47 FF020000 		.4byte	.LASF478
 3755 0d4b CD03     		.sleb128 461
 3756 0d4d 0B       		.uleb128 0xb
 3757 0d4e C0230000 		.4byte	.LASF479
 3758 0d52 CE03     		.sleb128 462
 3759 0d54 0B       		.uleb128 0xb
 3760 0d55 96010000 		.4byte	.LASF480
 3761 0d59 CF03     		.sleb128 463
 3762 0d5b 0B       		.uleb128 0xb
 3763 0d5c 35100000 		.4byte	.LASF481
 3764 0d60 D003     		.sleb128 464
 3765 0d62 0B       		.uleb128 0xb
 3766 0d63 40110000 		.4byte	.LASF482
 3767 0d67 D103     		.sleb128 465
 3768 0d69 0B       		.uleb128 0xb
 3769 0d6a 90250000 		.4byte	.LASF483
 3770 0d6e D203     		.sleb128 466
 3771 0d70 0B       		.uleb128 0xb
 3772 0d71 FC1F0000 		.4byte	.LASF484
 3773 0d75 D303     		.sleb128 467
 3774 0d77 0B       		.uleb128 0xb
 3775 0d78 47020000 		.4byte	.LASF485
 3776 0d7c D403     		.sleb128 468
 3777 0d7e 0B       		.uleb128 0xb
 3778 0d7f 81070000 		.4byte	.LASF486
 3779 0d83 D503     		.sleb128 469
 3780 0d85 0B       		.uleb128 0xb
 3781 0d86 541F0000 		.4byte	.LASF487
 3782 0d8a D603     		.sleb128 470
 3783 0d8c 0B       		.uleb128 0xb
 3784 0d8d C2010000 		.4byte	.LASF488
 3785 0d91 D703     		.sleb128 471
 3786 0d93 0B       		.uleb128 0xb
ARM GAS  C:\Users\AHMED~1.ELE\AppData\Local\Temp\cciu15sF.s 			page 83


 3787 0d94 381C0000 		.4byte	.LASF489
 3788 0d98 D803     		.sleb128 472
 3789 0d9a 00       		.byte	0
 3790 0d9b 06       		.uleb128 0x6
 3791 0d9c 04       		.byte	0x4
 3792 0d9d A10D0000 		.4byte	0xda1
 3793 0da1 0C       		.uleb128 0xc
 3794 0da2 0D       		.uleb128 0xd
 3795 0da3 02       		.byte	0x2
 3796 0da4 04       		.byte	0x4
 3797 0da5 DD18     		.2byte	0x18dd
 3798 0da7 CB0D0000 		.4byte	0xdcb
 3799 0dab 0B       		.uleb128 0xb
 3800 0dac 9B0E0000 		.4byte	.LASF490
 3801 0db0 00       		.sleb128 0
 3802 0db1 0B       		.uleb128 0xb
 3803 0db2 15230000 		.4byte	.LASF491
 3804 0db6 01       		.sleb128 1
 3805 0db7 0B       		.uleb128 0xb
 3806 0db8 C2160000 		.4byte	.LASF492
 3807 0dbc 02       		.sleb128 2
 3808 0dbd 0B       		.uleb128 0xb
 3809 0dbe 8C030000 		.4byte	.LASF493
 3810 0dc2 03       		.sleb128 3
 3811 0dc3 0B       		.uleb128 0xb
 3812 0dc4 18080000 		.4byte	.LASF494
 3813 0dc8 8002     		.sleb128 256
 3814 0dca 00       		.byte	0
 3815 0dcb 0D       		.uleb128 0xd
 3816 0dcc 01       		.byte	0x1
 3817 0dcd 05       		.byte	0x5
 3818 0dce DC07     		.2byte	0x7dc
 3819 0dd0 190F0000 		.4byte	0xf19
 3820 0dd4 0B       		.uleb128 0xb
 3821 0dd5 98120000 		.4byte	.LASF495
 3822 0dd9 00       		.sleb128 0
 3823 0dda 0B       		.uleb128 0xb
 3824 0ddb BB200000 		.4byte	.LASF496
 3825 0ddf 01       		.sleb128 1
 3826 0de0 0B       		.uleb128 0xb
 3827 0de1 8D060000 		.4byte	.LASF497
 3828 0de5 02       		.sleb128 2
 3829 0de6 0B       		.uleb128 0xb
 3830 0de7 55050000 		.4byte	.LASF498
 3831 0deb 03       		.sleb128 3
 3832 0dec 0B       		.uleb128 0xb
 3833 0ded 55290000 		.4byte	.LASF499
 3834 0df1 04       		.sleb128 4
 3835 0df2 0B       		.uleb128 0xb
 3836 0df3 98090000 		.4byte	.LASF500
 3837 0df7 05       		.sleb128 5
 3838 0df8 0B       		.uleb128 0xb
 3839 0df9 92170000 		.4byte	.LASF501
 3840 0dfd 06       		.sleb128 6
 3841 0dfe 0B       		.uleb128 0xb
 3842 0dff A30F0000 		.4byte	.LASF502
 3843 0e03 07       		.sleb128 7
ARM GAS  C:\Users\AHMED~1.ELE\AppData\Local\Temp\cciu15sF.s 			page 84


 3844 0e04 0B       		.uleb128 0xb
 3845 0e05 C5090000 		.4byte	.LASF503
 3846 0e09 08       		.sleb128 8
 3847 0e0a 0B       		.uleb128 0xb
 3848 0e0b 71060000 		.4byte	.LASF504
 3849 0e0f 09       		.sleb128 9
 3850 0e10 0B       		.uleb128 0xb
 3851 0e11 980F0000 		.4byte	.LASF505
 3852 0e15 0A       		.sleb128 10
 3853 0e16 0B       		.uleb128 0xb
 3854 0e17 8F080000 		.4byte	.LASF506
 3855 0e1b 0B       		.sleb128 11
 3856 0e1c 0B       		.uleb128 0xb
 3857 0e1d 1D160000 		.4byte	.LASF507
 3858 0e21 0C       		.sleb128 12
 3859 0e22 0B       		.uleb128 0xb
 3860 0e23 15010000 		.4byte	.LASF508
 3861 0e27 0D       		.sleb128 13
 3862 0e28 0B       		.uleb128 0xb
 3863 0e29 68060000 		.4byte	.LASF509
 3864 0e2d 0E       		.sleb128 14
 3865 0e2e 0B       		.uleb128 0xb
 3866 0e2f 07140000 		.4byte	.LASF510
 3867 0e33 0F       		.sleb128 15
 3868 0e34 0B       		.uleb128 0xb
 3869 0e35 1C270000 		.4byte	.LASF511
 3870 0e39 10       		.sleb128 16
 3871 0e3a 0B       		.uleb128 0xb
 3872 0e3b 57250000 		.4byte	.LASF512
 3873 0e3f 11       		.sleb128 17
 3874 0e40 0B       		.uleb128 0xb
 3875 0e41 410A0000 		.4byte	.LASF513
 3876 0e45 12       		.sleb128 18
 3877 0e46 0B       		.uleb128 0xb
 3878 0e47 341F0000 		.4byte	.LASF514
 3879 0e4b 13       		.sleb128 19
 3880 0e4c 0B       		.uleb128 0xb
 3881 0e4d BE280000 		.4byte	.LASF515
 3882 0e51 14       		.sleb128 20
 3883 0e52 0B       		.uleb128 0xb
 3884 0e53 4A0A0000 		.4byte	.LASF516
 3885 0e57 15       		.sleb128 21
 3886 0e58 0B       		.uleb128 0xb
 3887 0e59 35150000 		.4byte	.LASF517
 3888 0e5d 16       		.sleb128 22
 3889 0e5e 0B       		.uleb128 0xb
 3890 0e5f B10D0000 		.4byte	.LASF518
 3891 0e63 17       		.sleb128 23
 3892 0e64 0B       		.uleb128 0xb
 3893 0e65 D3150000 		.4byte	.LASF519
 3894 0e69 18       		.sleb128 24
 3895 0e6a 0B       		.uleb128 0xb
 3896 0e6b 62120000 		.4byte	.LASF520
 3897 0e6f 19       		.sleb128 25
 3898 0e70 0B       		.uleb128 0xb
 3899 0e71 FE1C0000 		.4byte	.LASF521
 3900 0e75 1A       		.sleb128 26
ARM GAS  C:\Users\AHMED~1.ELE\AppData\Local\Temp\cciu15sF.s 			page 85


 3901 0e76 0B       		.uleb128 0xb
 3902 0e77 A0090000 		.4byte	.LASF522
 3903 0e7b 1B       		.sleb128 27
 3904 0e7c 0B       		.uleb128 0xb
 3905 0e7d 6E030000 		.4byte	.LASF523
 3906 0e81 1C       		.sleb128 28
 3907 0e82 0B       		.uleb128 0xb
 3908 0e83 D6260000 		.4byte	.LASF524
 3909 0e87 1D       		.sleb128 29
 3910 0e88 0B       		.uleb128 0xb
 3911 0e89 890A0000 		.4byte	.LASF525
 3912 0e8d 1E       		.sleb128 30
 3913 0e8e 0B       		.uleb128 0xb
 3914 0e8f 05100000 		.4byte	.LASF526
 3915 0e93 1F       		.sleb128 31
 3916 0e94 0B       		.uleb128 0xb
 3917 0e95 25210000 		.4byte	.LASF527
 3918 0e99 20       		.sleb128 32
 3919 0e9a 0B       		.uleb128 0xb
 3920 0e9b 38290000 		.4byte	.LASF528
 3921 0e9f 21       		.sleb128 33
 3922 0ea0 0B       		.uleb128 0xb
 3923 0ea1 86150000 		.4byte	.LASF529
 3924 0ea5 22       		.sleb128 34
 3925 0ea6 0B       		.uleb128 0xb
 3926 0ea7 7D0B0000 		.4byte	.LASF530
 3927 0eab 23       		.sleb128 35
 3928 0eac 0B       		.uleb128 0xb
 3929 0ead 44270000 		.4byte	.LASF531
 3930 0eb1 24       		.sleb128 36
 3931 0eb2 0B       		.uleb128 0xb
 3932 0eb3 5A090000 		.4byte	.LASF532
 3933 0eb7 25       		.sleb128 37
 3934 0eb8 0B       		.uleb128 0xb
 3935 0eb9 39010000 		.4byte	.LASF533
 3936 0ebd 26       		.sleb128 38
 3937 0ebe 0B       		.uleb128 0xb
 3938 0ebf B2240000 		.4byte	.LASF534
 3939 0ec3 27       		.sleb128 39
 3940 0ec4 0B       		.uleb128 0xb
 3941 0ec5 FA180000 		.4byte	.LASF535
 3942 0ec9 28       		.sleb128 40
 3943 0eca 0B       		.uleb128 0xb
 3944 0ecb 4A1C0000 		.4byte	.LASF536
 3945 0ecf 29       		.sleb128 41
 3946 0ed0 0B       		.uleb128 0xb
 3947 0ed1 EB190000 		.4byte	.LASF537
 3948 0ed5 2A       		.sleb128 42
 3949 0ed6 0B       		.uleb128 0xb
 3950 0ed7 F60A0000 		.4byte	.LASF538
 3951 0edb 2B       		.sleb128 43
 3952 0edc 0B       		.uleb128 0xb
 3953 0edd A01F0000 		.4byte	.LASF539
 3954 0ee1 2C       		.sleb128 44
 3955 0ee2 0B       		.uleb128 0xb
 3956 0ee3 0E080000 		.4byte	.LASF540
 3957 0ee7 2D       		.sleb128 45
ARM GAS  C:\Users\AHMED~1.ELE\AppData\Local\Temp\cciu15sF.s 			page 86


 3958 0ee8 0B       		.uleb128 0xb
 3959 0ee9 56010000 		.4byte	.LASF541
 3960 0eed 2E       		.sleb128 46
 3961 0eee 0B       		.uleb128 0xb
 3962 0eef B9130000 		.4byte	.LASF542
 3963 0ef3 2F       		.sleb128 47
 3964 0ef4 0B       		.uleb128 0xb
 3965 0ef5 36180000 		.4byte	.LASF543
 3966 0ef9 30       		.sleb128 48
 3967 0efa 0B       		.uleb128 0xb
 3968 0efb 5F100000 		.4byte	.LASF544
 3969 0eff 31       		.sleb128 49
 3970 0f00 0B       		.uleb128 0xb
 3971 0f01 DD1F0000 		.4byte	.LASF545
 3972 0f05 32       		.sleb128 50
 3973 0f06 0B       		.uleb128 0xb
 3974 0f07 DE020000 		.4byte	.LASF546
 3975 0f0b 33       		.sleb128 51
 3976 0f0c 0B       		.uleb128 0xb
 3977 0f0d 22260000 		.4byte	.LASF547
 3978 0f11 34       		.sleb128 52
 3979 0f12 0B       		.uleb128 0xb
 3980 0f13 911E0000 		.4byte	.LASF548
 3981 0f17 35       		.sleb128 53
 3982 0f18 00       		.byte	0
 3983 0f19 0E       		.uleb128 0xe
 3984 0f1a 01       		.byte	0x1
 3985 0f1b 06       		.byte	0x6
 3986 0f1c 7D       		.byte	0x7d
 3987 0f1d 520F0000 		.4byte	0xf52
 3988 0f21 0B       		.uleb128 0xb
 3989 0f22 DD000000 		.4byte	.LASF549
 3990 0f26 00       		.sleb128 0
 3991 0f27 0B       		.uleb128 0xb
 3992 0f28 291E0000 		.4byte	.LASF550
 3993 0f2c 01       		.sleb128 1
 3994 0f2d 0B       		.uleb128 0xb
 3995 0f2e 921F0000 		.4byte	.LASF551
 3996 0f32 02       		.sleb128 2
 3997 0f33 0B       		.uleb128 0xb
 3998 0f34 43170000 		.4byte	.LASF552
 3999 0f38 03       		.sleb128 3
 4000 0f39 0B       		.uleb128 0xb
 4001 0f3a 10160000 		.4byte	.LASF553
 4002 0f3e 04       		.sleb128 4
 4003 0f3f 0B       		.uleb128 0xb
 4004 0f40 36170000 		.4byte	.LASF554
 4005 0f44 05       		.sleb128 5
 4006 0f45 0B       		.uleb128 0xb
 4007 0f46 7D100000 		.4byte	.LASF555
 4008 0f4a 06       		.sleb128 6
 4009 0f4b 0B       		.uleb128 0xb
 4010 0f4c 87280000 		.4byte	.LASF556
 4011 0f50 07       		.sleb128 7
 4012 0f51 00       		.byte	0
 4013 0f52 08       		.uleb128 0x8
 4014 0f53 9C000000 		.4byte	0x9c
ARM GAS  C:\Users\AHMED~1.ELE\AppData\Local\Temp\cciu15sF.s 			page 87


 4015 0f57 620F0000 		.4byte	0xf62
 4016 0f5b 09       		.uleb128 0x9
 4017 0f5c 78000000 		.4byte	0x78
 4018 0f60 0B       		.byte	0xb
 4019 0f61 00       		.byte	0
 4020 0f62 0E       		.uleb128 0xe
 4021 0f63 01       		.byte	0x1
 4022 0f64 07       		.byte	0x7
 4023 0f65 2D       		.byte	0x2d
 4024 0f66 950F0000 		.4byte	0xf95
 4025 0f6a 0B       		.uleb128 0xb
 4026 0f6b DB090000 		.4byte	.LASF557
 4027 0f6f 00       		.sleb128 0
 4028 0f70 0B       		.uleb128 0xb
 4029 0f71 C0270000 		.4byte	.LASF558
 4030 0f75 01       		.sleb128 1
 4031 0f76 0B       		.uleb128 0xb
 4032 0f77 EA230000 		.4byte	.LASF559
 4033 0f7b 02       		.sleb128 2
 4034 0f7c 0B       		.uleb128 0xb
 4035 0f7d EB070000 		.4byte	.LASF560
 4036 0f81 03       		.sleb128 3
 4037 0f82 0B       		.uleb128 0xb
 4038 0f83 22140000 		.4byte	.LASF561
 4039 0f87 04       		.sleb128 4
 4040 0f88 0B       		.uleb128 0xb
 4041 0f89 AC0C0000 		.4byte	.LASF562
 4042 0f8d 05       		.sleb128 5
 4043 0f8e 0B       		.uleb128 0xb
 4044 0f8f 99100000 		.4byte	.LASF563
 4045 0f93 06       		.sleb128 6
 4046 0f94 00       		.byte	0
 4047 0f95 0F       		.uleb128 0xf
 4048 0f96 BB290000 		.4byte	.LASF623
 4049 0f9a A0       		.byte	0xa0
 4050 0f9b 01       		.byte	0x1
 4051 0f9c 34       		.byte	0x34
 4052 0f9d 56100000 		.4byte	0x1056
 4053 0fa1 10       		.uleb128 0x10
 4054 0fa2 D4000000 		.4byte	.LASF564
 4055 0fa6 01       		.byte	0x1
 4056 0fa7 35       		.byte	0x35
 4057 0fa8 BD000000 		.4byte	0xbd
 4058 0fac 00       		.byte	0
 4059 0fad 10       		.uleb128 0x10
 4060 0fae 101E0000 		.4byte	.LASF565
 4061 0fb2 01       		.byte	0x1
 4062 0fb3 36       		.byte	0x36
 4063 0fb4 A7000000 		.4byte	0xa7
 4064 0fb8 08       		.byte	0x8
 4065 0fb9 10       		.uleb128 0x10
 4066 0fba 95020000 		.4byte	.LASF566
 4067 0fbe 01       		.byte	0x1
 4068 0fbf 37       		.byte	0x37
 4069 0fc0 9C000000 		.4byte	0x9c
 4070 0fc4 0A       		.byte	0xa
 4071 0fc5 10       		.uleb128 0x10
ARM GAS  C:\Users\AHMED~1.ELE\AppData\Local\Temp\cciu15sF.s 			page 88


 4072 0fc6 7B190000 		.4byte	.LASF567
 4073 0fca 01       		.byte	0x1
 4074 0fcb 38       		.byte	0x38
 4075 0fcc 520F0000 		.4byte	0xf52
 4076 0fd0 0B       		.byte	0xb
 4077 0fd1 10       		.uleb128 0x10
 4078 0fd2 7C0F0000 		.4byte	.LASF568
 4079 0fd6 01       		.byte	0x1
 4080 0fd7 39       		.byte	0x39
 4081 0fd8 CE000000 		.4byte	0xce
 4082 0fdc 17       		.byte	0x17
 4083 0fdd 10       		.uleb128 0x10
 4084 0fde EA210000 		.4byte	.LASF569
 4085 0fe2 01       		.byte	0x1
 4086 0fe3 3A       		.byte	0x3a
 4087 0fe4 A7000000 		.4byte	0xa7
 4088 0fe8 1C       		.byte	0x1c
 4089 0fe9 10       		.uleb128 0x10
 4090 0fea 59280000 		.4byte	.LASF570
 4091 0fee 01       		.byte	0x1
 4092 0fef 3B       		.byte	0x3b
 4093 0ff0 9C000000 		.4byte	0x9c
 4094 0ff4 1E       		.byte	0x1e
 4095 0ff5 10       		.uleb128 0x10
 4096 0ff6 081F0000 		.4byte	.LASF571
 4097 0ffa 01       		.byte	0x1
 4098 0ffb 3C       		.byte	0x3c
 4099 0ffc 56100000 		.4byte	0x1056
 4100 1000 1F       		.byte	0x1f
 4101 1001 10       		.uleb128 0x10
 4102 1002 1D010000 		.4byte	.LASF572
 4103 1006 01       		.byte	0x1
 4104 1007 3D       		.byte	0x3d
 4105 1008 9C000000 		.4byte	0x9c
 4106 100c 54       		.byte	0x54
 4107 100d 10       		.uleb128 0x10
 4108 100e 0C290000 		.4byte	.LASF573
 4109 1012 01       		.byte	0x1
 4110 1013 3E       		.byte	0x3e
 4111 1014 56100000 		.4byte	0x1056
 4112 1018 55       		.byte	0x55
 4113 1019 10       		.uleb128 0x10
 4114 101a DA1D0000 		.4byte	.LASF574
 4115 101e 01       		.byte	0x1
 4116 101f 3F       		.byte	0x3f
 4117 1020 B2000000 		.4byte	0xb2
 4118 1024 8C       		.byte	0x8c
 4119 1025 10       		.uleb128 0x10
 4120 1026 E2160000 		.4byte	.LASF575
 4121 102a 01       		.byte	0x1
 4122 102b 40       		.byte	0x40
 4123 102c B2000000 		.4byte	0xb2
 4124 1030 90       		.byte	0x90
 4125 1031 10       		.uleb128 0x10
 4126 1032 9F1E0000 		.4byte	.LASF576
 4127 1036 01       		.byte	0x1
 4128 1037 41       		.byte	0x41
ARM GAS  C:\Users\AHMED~1.ELE\AppData\Local\Temp\cciu15sF.s 			page 89


 4129 1038 B2000000 		.4byte	0xb2
 4130 103c 94       		.byte	0x94
 4131 103d 10       		.uleb128 0x10
 4132 103e 661C0000 		.4byte	.LASF577
 4133 1042 01       		.byte	0x1
 4134 1043 42       		.byte	0x42
 4135 1044 5D000000 		.4byte	0x5d
 4136 1048 98       		.byte	0x98
 4137 1049 10       		.uleb128 0x10
 4138 104a E1050000 		.4byte	.LASF578
 4139 104e 01       		.byte	0x1
 4140 104f 43       		.byte	0x43
 4141 1050 9C000000 		.4byte	0x9c
 4142 1054 9C       		.byte	0x9c
 4143 1055 00       		.byte	0
 4144 1056 08       		.uleb128 0x8
 4145 1057 9C000000 		.4byte	0x9c
 4146 105b 66100000 		.4byte	0x1066
 4147 105f 09       		.uleb128 0x9
 4148 1060 78000000 		.4byte	0x78
 4149 1064 34       		.byte	0x34
 4150 1065 00       		.byte	0
 4151 1066 11       		.uleb128 0x11
 4152 1067 3A280000 		.4byte	.LASF624
 4153 106b 01       		.byte	0x1
 4154 106c 5C       		.byte	0x5c
 4155 106d 01       		.byte	0x1
 4156 106e 12       		.uleb128 0x12
 4157 106f 89220000 		.4byte	.LASF580
 4158 1073 01       		.byte	0x1
 4159 1074 5A01     		.2byte	0x15a
 4160 1076 00000000 		.4byte	.LFB9
 4161 107a 84000000 		.4byte	.LFE9-.LFB9
 4162 107e 01       		.uleb128 0x1
 4163 107f 9C       		.byte	0x9c
 4164 1080 C8100000 		.4byte	0x10c8
 4165 1084 13       		.uleb128 0x13
 4166 1085 6900     		.ascii	"i\000"
 4167 1087 01       		.byte	0x1
 4168 1088 5C01     		.2byte	0x15c
 4169 108a 9C000000 		.4byte	0x9c
 4170 108e 00000000 		.4byte	.LLST0
 4171 1092 13       		.uleb128 0x13
 4172 1093 6A00     		.ascii	"j\000"
 4173 1095 01       		.byte	0x1
 4174 1096 5C01     		.2byte	0x15c
 4175 1098 9C000000 		.4byte	0x9c
 4176 109c 2D000000 		.4byte	.LLST1
 4177 10a0 14       		.uleb128 0x14
 4178 10a1 AC1D0000 		.4byte	.LASF579
 4179 10a5 01       		.byte	0x1
 4180 10a6 5E01     		.2byte	0x15e
 4181 10a8 DE100000 		.4byte	0x10de
 4182 10ac 05       		.uleb128 0x5
 4183 10ad 03       		.byte	0x3
 4184 10ae 00000000 		.4byte	alpha_tbl.11715
 4185 10b2 15       		.uleb128 0x15
ARM GAS  C:\Users\AHMED~1.ELE\AppData\Local\Temp\cciu15sF.s 			page 90


 4186 10b3 3F260000 		.4byte	.LASF625
 4187 10b7 01       		.byte	0x1
 4188 10b8 7B01     		.2byte	0x17b
 4189 10ba 4C000000 		.4byte	.L4
 4190 10be 16       		.uleb128 0x16
 4191 10bf 12000000 		.4byte	.LVL0
 4192 10c3 171F0000 		.4byte	0x1f17
 4193 10c7 00       		.byte	0
 4194 10c8 08       		.uleb128 0x8
 4195 10c9 9C000000 		.4byte	0x9c
 4196 10cd DE100000 		.4byte	0x10de
 4197 10d1 09       		.uleb128 0x9
 4198 10d2 78000000 		.4byte	0x78
 4199 10d6 09       		.byte	0x9
 4200 10d7 09       		.uleb128 0x9
 4201 10d8 78000000 		.4byte	0x78
 4202 10dc 08       		.byte	0x8
 4203 10dd 00       		.byte	0
 4204 10de 07       		.uleb128 0x7
 4205 10df C8100000 		.4byte	0x10c8
 4206 10e3 17       		.uleb128 0x17
 4207 10e4 39020000 		.4byte	.LASF581
 4208 10e8 01       		.byte	0x1
 4209 10e9 FB       		.byte	0xfb
 4210 10ea 00000000 		.4byte	.LFB8
 4211 10ee EC030000 		.4byte	.LFE8-.LFB8
 4212 10f2 01       		.uleb128 0x1
 4213 10f3 9C       		.byte	0x9c
 4214 10f4 A5170000 		.4byte	0x17a5
 4215 10f8 18       		.uleb128 0x18
 4216 10f9 620B0000 		.4byte	.LASF582
 4217 10fd 01       		.byte	0x1
 4218 10fe FD       		.byte	0xfd
 4219 10ff 9C000000 		.4byte	0x9c
 4220 1103 70000000 		.4byte	.LLST2
 4221 1107 18       		.uleb128 0x18
 4222 1108 85230000 		.4byte	.LASF583
 4223 110c 01       		.byte	0x1
 4224 110d FE       		.byte	0xfe
 4225 110e C8000000 		.4byte	0xc8
 4226 1112 8D000000 		.4byte	.LLST3
 4227 1116 19       		.uleb128 0x19
 4228 1117 EB020000 		.4byte	.LASF584
 4229 111b 01       		.byte	0x1
 4230 111c FF       		.byte	0xff
 4231 111d A5170000 		.4byte	0x17a5
 4232 1121 02       		.uleb128 0x2
 4233 1122 91       		.byte	0x91
 4234 1123 44       		.sleb128 -60
 4235 1124 1A       		.uleb128 0x1a
 4236 1125 5F0F0000 		.4byte	.LASF595
 4237 1129 01       		.byte	0x1
 4238 112a 0001     		.2byte	0x100
 4239 112c 9C000000 		.4byte	0x9c
 4240 1130 1B       		.uleb128 0x1b
 4241 1131 1E010000 		.4byte	.LBB2
 4242 1135 3E000000 		.4byte	.LBE2-.LBB2
ARM GAS  C:\Users\AHMED~1.ELE\AppData\Local\Temp\cciu15sF.s 			page 91


 4243 1139 AA110000 		.4byte	0x11aa
 4244 113d 13       		.uleb128 0x13
 4245 113e 6C656E00 		.ascii	"len\000"
 4246 1142 01       		.byte	0x1
 4247 1143 2701     		.2byte	0x127
 4248 1145 B2000000 		.4byte	0xb2
 4249 1149 CB000000 		.4byte	.LLST4
 4250 114d 13       		.uleb128 0x13
 4251 114e 70747200 		.ascii	"ptr\000"
 4252 1152 01       		.byte	0x1
 4253 1153 2701     		.2byte	0x127
 4254 1155 C8000000 		.4byte	0xc8
 4255 1159 E9000000 		.4byte	.LLST5
 4256 115d 1C       		.uleb128 0x1c
 4257 115e 26010000 		.4byte	.LVL22
 4258 1162 1E1F0000 		.4byte	0x1f1e
 4259 1166 72110000 		.4byte	0x1172
 4260 116a 1D       		.uleb128 0x1d
 4261 116b 01       		.uleb128 0x1
 4262 116c 50       		.byte	0x50
 4263 116d 03       		.uleb128 0x3
 4264 116e 74       		.byte	0x74
 4265 116f D500     		.sleb128 85
 4266 1171 00       		.byte	0
 4267 1172 1C       		.uleb128 0x1c
 4268 1173 30010000 		.4byte	.LVL25
 4269 1177 331F0000 		.4byte	0x1f33
 4270 117b 8C110000 		.4byte	0x118c
 4271 117f 1D       		.uleb128 0x1d
 4272 1180 01       		.uleb128 0x1
 4273 1181 51       		.byte	0x51
 4274 1182 02       		.uleb128 0x2
 4275 1183 76       		.byte	0x76
 4276 1184 01       		.sleb128 1
 4277 1185 1D       		.uleb128 0x1d
 4278 1186 01       		.uleb128 0x1
 4279 1187 50       		.byte	0x50
 4280 1188 02       		.uleb128 0x2
 4281 1189 08       		.byte	0x8
 4282 118a 92       		.byte	0x92
 4283 118b 00       		.byte	0
 4284 118c 1E       		.uleb128 0x1e
 4285 118d 42010000 		.4byte	.LVL26
 4286 1191 4D1F0000 		.4byte	0x1f4d
 4287 1195 1D       		.uleb128 0x1d
 4288 1196 01       		.uleb128 0x1
 4289 1197 52       		.byte	0x52
 4290 1198 02       		.uleb128 0x2
 4291 1199 76       		.byte	0x76
 4292 119a 00       		.sleb128 0
 4293 119b 1D       		.uleb128 0x1d
 4294 119c 01       		.uleb128 0x1
 4295 119d 51       		.byte	0x51
 4296 119e 03       		.uleb128 0x3
 4297 119f 74       		.byte	0x74
 4298 11a0 D500     		.sleb128 85
 4299 11a2 1D       		.uleb128 0x1d
ARM GAS  C:\Users\AHMED~1.ELE\AppData\Local\Temp\cciu15sF.s 			page 92


 4300 11a3 01       		.uleb128 0x1
 4301 11a4 50       		.byte	0x50
 4302 11a5 02       		.uleb128 0x2
 4303 11a6 75       		.byte	0x75
 4304 11a7 00       		.sleb128 0
 4305 11a8 00       		.byte	0
 4306 11a9 00       		.byte	0
 4307 11aa 1F       		.uleb128 0x1f
 4308 11ab 00000000 		.4byte	.Ldebug_ranges0+0
 4309 11af 57120000 		.4byte	0x1257
 4310 11b3 13       		.uleb128 0x13
 4311 11b4 6C656E00 		.ascii	"len\000"
 4312 11b8 01       		.byte	0x1
 4313 11b9 2E01     		.2byte	0x12e
 4314 11bb B2000000 		.4byte	0xb2
 4315 11bf 07010000 		.4byte	.LLST6
 4316 11c3 13       		.uleb128 0x13
 4317 11c4 70747200 		.ascii	"ptr\000"
 4318 11c8 01       		.byte	0x1
 4319 11c9 2E01     		.2byte	0x12e
 4320 11cb C8000000 		.4byte	0xc8
 4321 11cf 25010000 		.4byte	.LLST7
 4322 11d3 1C       		.uleb128 0x1c
 4323 11d4 7A010000 		.4byte	.LVL29
 4324 11d8 1E1F0000 		.4byte	0x1f1e
 4325 11dc E7110000 		.4byte	0x11e7
 4326 11e0 1D       		.uleb128 0x1d
 4327 11e1 01       		.uleb128 0x1
 4328 11e2 50       		.byte	0x50
 4329 11e3 02       		.uleb128 0x2
 4330 11e4 91       		.byte	0x91
 4331 11e5 44       		.sleb128 -60
 4332 11e6 00       		.byte	0
 4333 11e7 1C       		.uleb128 0x1c
 4334 11e8 86010000 		.4byte	.LVL32
 4335 11ec 331F0000 		.4byte	0x1f33
 4336 11f0 01120000 		.4byte	0x1201
 4337 11f4 1D       		.uleb128 0x1d
 4338 11f5 01       		.uleb128 0x1
 4339 11f6 51       		.byte	0x51
 4340 11f7 02       		.uleb128 0x2
 4341 11f8 79       		.byte	0x79
 4342 11f9 01       		.sleb128 1
 4343 11fa 1D       		.uleb128 0x1d
 4344 11fb 01       		.uleb128 0x1
 4345 11fc 50       		.byte	0x50
 4346 11fd 02       		.uleb128 0x2
 4347 11fe 08       		.byte	0x8
 4348 11ff 92       		.byte	0x92
 4349 1200 00       		.byte	0
 4350 1201 1C       		.uleb128 0x1c
 4351 1202 92010000 		.4byte	.LVL33
 4352 1206 4D1F0000 		.4byte	0x1f4d
 4353 120a 21120000 		.4byte	0x1221
 4354 120e 1D       		.uleb128 0x1d
 4355 120f 01       		.uleb128 0x1
 4356 1210 52       		.byte	0x52
ARM GAS  C:\Users\AHMED~1.ELE\AppData\Local\Temp\cciu15sF.s 			page 93


 4357 1211 02       		.uleb128 0x2
 4358 1212 79       		.byte	0x79
 4359 1213 00       		.sleb128 0
 4360 1214 1D       		.uleb128 0x1d
 4361 1215 01       		.uleb128 0x1
 4362 1216 51       		.byte	0x51
 4363 1217 02       		.uleb128 0x2
 4364 1218 91       		.byte	0x91
 4365 1219 44       		.sleb128 -60
 4366 121a 1D       		.uleb128 0x1d
 4367 121b 01       		.uleb128 0x1
 4368 121c 50       		.byte	0x50
 4369 121d 02       		.uleb128 0x2
 4370 121e 78       		.byte	0x78
 4371 121f 00       		.sleb128 0
 4372 1220 00       		.byte	0
 4373 1221 1C       		.uleb128 0x1c
 4374 1222 B8010000 		.4byte	.LVL34
 4375 1226 6A1F0000 		.4byte	0x1f6a
 4376 122a 40120000 		.4byte	0x1240
 4377 122e 1D       		.uleb128 0x1d
 4378 122f 01       		.uleb128 0x1
 4379 1230 52       		.byte	0x52
 4380 1231 02       		.uleb128 0x2
 4381 1232 78       		.byte	0x78
 4382 1233 00       		.sleb128 0
 4383 1234 1D       		.uleb128 0x1d
 4384 1235 01       		.uleb128 0x1
 4385 1236 51       		.byte	0x51
 4386 1237 02       		.uleb128 0x2
 4387 1238 08       		.byte	0x8
 4388 1239 25       		.byte	0x25
 4389 123a 1D       		.uleb128 0x1d
 4390 123b 01       		.uleb128 0x1
 4391 123c 50       		.byte	0x50
 4392 123d 01       		.uleb128 0x1
 4393 123e 3F       		.byte	0x3f
 4394 123f 00       		.byte	0
 4395 1240 1E       		.uleb128 0x1e
 4396 1241 C0010000 		.4byte	.LVL35
 4397 1245 331F0000 		.4byte	0x1f33
 4398 1249 1D       		.uleb128 0x1d
 4399 124a 01       		.uleb128 0x1
 4400 124b 51       		.byte	0x51
 4401 124c 02       		.uleb128 0x2
 4402 124d 78       		.byte	0x78
 4403 124e 00       		.sleb128 0
 4404 124f 1D       		.uleb128 0x1d
 4405 1250 01       		.uleb128 0x1
 4406 1251 50       		.byte	0x50
 4407 1252 02       		.uleb128 0x2
 4408 1253 08       		.byte	0x8
 4409 1254 94       		.byte	0x94
 4410 1255 00       		.byte	0
 4411 1256 00       		.byte	0
 4412 1257 1F       		.uleb128 0x1f
 4413 1258 18000000 		.4byte	.Ldebug_ranges0+0x18
ARM GAS  C:\Users\AHMED~1.ELE\AppData\Local\Temp\cciu15sF.s 			page 94


 4414 125c CB120000 		.4byte	0x12cb
 4415 1260 13       		.uleb128 0x13
 4416 1261 6C656E00 		.ascii	"len\000"
 4417 1265 01       		.byte	0x1
 4418 1266 3001     		.2byte	0x130
 4419 1268 B2000000 		.4byte	0xb2
 4420 126c 43010000 		.4byte	.LLST8
 4421 1270 13       		.uleb128 0x13
 4422 1271 70747200 		.ascii	"ptr\000"
 4423 1275 01       		.byte	0x1
 4424 1276 3001     		.2byte	0x130
 4425 1278 C8000000 		.4byte	0xc8
 4426 127c 61010000 		.4byte	.LLST9
 4427 1280 1C       		.uleb128 0x1c
 4428 1281 CA010000 		.4byte	.LVL37
 4429 1285 1E1F0000 		.4byte	0x1f1e
 4430 1289 94120000 		.4byte	0x1294
 4431 128d 1D       		.uleb128 0x1d
 4432 128e 01       		.uleb128 0x1
 4433 128f 50       		.byte	0x50
 4434 1290 02       		.uleb128 0x2
 4435 1291 75       		.byte	0x75
 4436 1292 00       		.sleb128 0
 4437 1293 00       		.byte	0
 4438 1294 1C       		.uleb128 0x1c
 4439 1295 D6010000 		.4byte	.LVL40
 4440 1299 331F0000 		.4byte	0x1f33
 4441 129d AE120000 		.4byte	0x12ae
 4442 12a1 1D       		.uleb128 0x1d
 4443 12a2 01       		.uleb128 0x1
 4444 12a3 51       		.byte	0x51
 4445 12a4 02       		.uleb128 0x2
 4446 12a5 76       		.byte	0x76
 4447 12a6 01       		.sleb128 1
 4448 12a7 1D       		.uleb128 0x1d
 4449 12a8 01       		.uleb128 0x1
 4450 12a9 50       		.byte	0x50
 4451 12aa 02       		.uleb128 0x2
 4452 12ab 08       		.byte	0x8
 4453 12ac 92       		.byte	0x92
 4454 12ad 00       		.byte	0
 4455 12ae 1E       		.uleb128 0x1e
 4456 12af E6010000 		.4byte	.LVL41
 4457 12b3 4D1F0000 		.4byte	0x1f4d
 4458 12b7 1D       		.uleb128 0x1d
 4459 12b8 01       		.uleb128 0x1
 4460 12b9 52       		.byte	0x52
 4461 12ba 02       		.uleb128 0x2
 4462 12bb 76       		.byte	0x76
 4463 12bc 00       		.sleb128 0
 4464 12bd 1D       		.uleb128 0x1d
 4465 12be 01       		.uleb128 0x1
 4466 12bf 51       		.byte	0x51
 4467 12c0 02       		.uleb128 0x2
 4468 12c1 75       		.byte	0x75
 4469 12c2 00       		.sleb128 0
 4470 12c3 1D       		.uleb128 0x1d
ARM GAS  C:\Users\AHMED~1.ELE\AppData\Local\Temp\cciu15sF.s 			page 95


 4471 12c4 01       		.uleb128 0x1
 4472 12c5 50       		.byte	0x50
 4473 12c6 02       		.uleb128 0x2
 4474 12c7 74       		.byte	0x74
 4475 12c8 00       		.sleb128 0
 4476 12c9 00       		.byte	0
 4477 12ca 00       		.byte	0
 4478 12cb 1B       		.uleb128 0x1b
 4479 12cc 2A020000 		.4byte	.LBB7
 4480 12d0 2A000000 		.4byte	.LBE7-.LBB7
 4481 12d4 45130000 		.4byte	0x1345
 4482 12d8 13       		.uleb128 0x13
 4483 12d9 6C656E00 		.ascii	"len\000"
 4484 12dd 01       		.byte	0x1
 4485 12de 3601     		.2byte	0x136
 4486 12e0 B2000000 		.4byte	0xb2
 4487 12e4 7F010000 		.4byte	.LLST10
 4488 12e8 13       		.uleb128 0x13
 4489 12e9 70747200 		.ascii	"ptr\000"
 4490 12ed 01       		.byte	0x1
 4491 12ee 3601     		.2byte	0x136
 4492 12f0 C8000000 		.4byte	0xc8
 4493 12f4 9D010000 		.4byte	.LLST11
 4494 12f8 1C       		.uleb128 0x1c
 4495 12f9 32020000 		.4byte	.LVL44
 4496 12fd 1E1F0000 		.4byte	0x1f1e
 4497 1301 0D130000 		.4byte	0x130d
 4498 1305 1D       		.uleb128 0x1d
 4499 1306 01       		.uleb128 0x1
 4500 1307 50       		.byte	0x50
 4501 1308 03       		.uleb128 0x3
 4502 1309 74       		.byte	0x74
 4503 130a D500     		.sleb128 85
 4504 130c 00       		.byte	0
 4505 130d 1C       		.uleb128 0x1c
 4506 130e 3C020000 		.4byte	.LVL47
 4507 1312 331F0000 		.4byte	0x1f33
 4508 1316 27130000 		.4byte	0x1327
 4509 131a 1D       		.uleb128 0x1d
 4510 131b 01       		.uleb128 0x1
 4511 131c 51       		.byte	0x51
 4512 131d 02       		.uleb128 0x2
 4513 131e 76       		.byte	0x76
 4514 131f 01       		.sleb128 1
 4515 1320 1D       		.uleb128 0x1d
 4516 1321 01       		.uleb128 0x1
 4517 1322 50       		.byte	0x50
 4518 1323 02       		.uleb128 0x2
 4519 1324 08       		.byte	0x8
 4520 1325 92       		.byte	0x92
 4521 1326 00       		.byte	0
 4522 1327 1E       		.uleb128 0x1e
 4523 1328 4E020000 		.4byte	.LVL48
 4524 132c 4D1F0000 		.4byte	0x1f4d
 4525 1330 1D       		.uleb128 0x1d
 4526 1331 01       		.uleb128 0x1
 4527 1332 52       		.byte	0x52
ARM GAS  C:\Users\AHMED~1.ELE\AppData\Local\Temp\cciu15sF.s 			page 96


 4528 1333 02       		.uleb128 0x2
 4529 1334 76       		.byte	0x76
 4530 1335 00       		.sleb128 0
 4531 1336 1D       		.uleb128 0x1d
 4532 1337 01       		.uleb128 0x1
 4533 1338 51       		.byte	0x51
 4534 1339 03       		.uleb128 0x3
 4535 133a 74       		.byte	0x74
 4536 133b D500     		.sleb128 85
 4537 133d 1D       		.uleb128 0x1d
 4538 133e 01       		.uleb128 0x1
 4539 133f 50       		.byte	0x50
 4540 1340 02       		.uleb128 0x2
 4541 1341 75       		.byte	0x75
 4542 1342 00       		.sleb128 0
 4543 1343 00       		.byte	0
 4544 1344 00       		.byte	0
 4545 1345 1F       		.uleb128 0x1f
 4546 1346 30000000 		.4byte	.Ldebug_ranges0+0x30
 4547 134a D8130000 		.4byte	0x13d8
 4548 134e 13       		.uleb128 0x13
 4549 134f 6C656E00 		.ascii	"len\000"
 4550 1353 01       		.byte	0x1
 4551 1354 3D01     		.2byte	0x13d
 4552 1356 B2000000 		.4byte	0xb2
 4553 135a BB010000 		.4byte	.LLST12
 4554 135e 13       		.uleb128 0x13
 4555 135f 70747200 		.ascii	"ptr\000"
 4556 1363 01       		.byte	0x1
 4557 1364 3D01     		.2byte	0x13d
 4558 1366 C8000000 		.4byte	0xc8
 4559 136a D9010000 		.4byte	.LLST13
 4560 136e 1C       		.uleb128 0x1c
 4561 136f 72020000 		.4byte	.LVL51
 4562 1373 1E1F0000 		.4byte	0x1f1e
 4563 1377 82130000 		.4byte	0x1382
 4564 137b 1D       		.uleb128 0x1d
 4565 137c 01       		.uleb128 0x1
 4566 137d 50       		.byte	0x50
 4567 137e 02       		.uleb128 0x2
 4568 137f 91       		.byte	0x91
 4569 1380 44       		.sleb128 -60
 4570 1381 00       		.byte	0
 4571 1382 1C       		.uleb128 0x1c
 4572 1383 7E020000 		.4byte	.LVL54
 4573 1387 331F0000 		.4byte	0x1f33
 4574 138b 9C130000 		.4byte	0x139c
 4575 138f 1D       		.uleb128 0x1d
 4576 1390 01       		.uleb128 0x1
 4577 1391 51       		.byte	0x51
 4578 1392 02       		.uleb128 0x2
 4579 1393 79       		.byte	0x79
 4580 1394 01       		.sleb128 1
 4581 1395 1D       		.uleb128 0x1d
 4582 1396 01       		.uleb128 0x1
 4583 1397 50       		.byte	0x50
 4584 1398 02       		.uleb128 0x2
ARM GAS  C:\Users\AHMED~1.ELE\AppData\Local\Temp\cciu15sF.s 			page 97


 4585 1399 08       		.byte	0x8
 4586 139a 92       		.byte	0x92
 4587 139b 00       		.byte	0
 4588 139c 1C       		.uleb128 0x1c
 4589 139d 8E020000 		.4byte	.LVL55
 4590 13a1 4D1F0000 		.4byte	0x1f4d
 4591 13a5 BC130000 		.4byte	0x13bc
 4592 13a9 1D       		.uleb128 0x1d
 4593 13aa 01       		.uleb128 0x1
 4594 13ab 52       		.byte	0x52
 4595 13ac 02       		.uleb128 0x2
 4596 13ad 79       		.byte	0x79
 4597 13ae 00       		.sleb128 0
 4598 13af 1D       		.uleb128 0x1d
 4599 13b0 01       		.uleb128 0x1
 4600 13b1 51       		.byte	0x51
 4601 13b2 02       		.uleb128 0x2
 4602 13b3 91       		.byte	0x91
 4603 13b4 44       		.sleb128 -60
 4604 13b5 1D       		.uleb128 0x1d
 4605 13b6 01       		.uleb128 0x1
 4606 13b7 50       		.byte	0x50
 4607 13b8 02       		.uleb128 0x2
 4608 13b9 77       		.byte	0x77
 4609 13ba 00       		.sleb128 0
 4610 13bb 00       		.byte	0
 4611 13bc 1E       		.uleb128 0x1e
 4612 13bd B4020000 		.4byte	.LVL56
 4613 13c1 6A1F0000 		.4byte	0x1f6a
 4614 13c5 1D       		.uleb128 0x1d
 4615 13c6 01       		.uleb128 0x1
 4616 13c7 52       		.byte	0x52
 4617 13c8 02       		.uleb128 0x2
 4618 13c9 77       		.byte	0x77
 4619 13ca 00       		.sleb128 0
 4620 13cb 1D       		.uleb128 0x1d
 4621 13cc 01       		.uleb128 0x1
 4622 13cd 51       		.byte	0x51
 4623 13ce 02       		.uleb128 0x2
 4624 13cf 08       		.byte	0x8
 4625 13d0 25       		.byte	0x25
 4626 13d1 1D       		.uleb128 0x1d
 4627 13d2 01       		.uleb128 0x1
 4628 13d3 50       		.byte	0x50
 4629 13d4 01       		.uleb128 0x1
 4630 13d5 3F       		.byte	0x3f
 4631 13d6 00       		.byte	0
 4632 13d7 00       		.byte	0
 4633 13d8 1B       		.uleb128 0x1b
 4634 13d9 CE020000 		.4byte	.LBB10
 4635 13dd 5A000000 		.4byte	.LBE10-.LBB10
 4636 13e1 71140000 		.4byte	0x1471
 4637 13e5 13       		.uleb128 0x13
 4638 13e6 6C656E00 		.ascii	"len\000"
 4639 13ea 01       		.byte	0x1
 4640 13eb 4501     		.2byte	0x145
 4641 13ed B2000000 		.4byte	0xb2
ARM GAS  C:\Users\AHMED~1.ELE\AppData\Local\Temp\cciu15sF.s 			page 98


 4642 13f1 F7010000 		.4byte	.LLST14
 4643 13f5 13       		.uleb128 0x13
 4644 13f6 70747200 		.ascii	"ptr\000"
 4645 13fa 01       		.byte	0x1
 4646 13fb 4501     		.2byte	0x145
 4647 13fd C8000000 		.4byte	0xc8
 4648 1401 15020000 		.4byte	.LLST15
 4649 1405 1C       		.uleb128 0x1c
 4650 1406 D6020000 		.4byte	.LVL59
 4651 140a 1E1F0000 		.4byte	0x1f1e
 4652 140e 1A140000 		.4byte	0x141a
 4653 1412 1D       		.uleb128 0x1d
 4654 1413 01       		.uleb128 0x1
 4655 1414 50       		.byte	0x50
 4656 1415 03       		.uleb128 0x3
 4657 1416 74       		.byte	0x74
 4658 1417 D500     		.sleb128 85
 4659 1419 00       		.byte	0
 4660 141a 1C       		.uleb128 0x1c
 4661 141b E0020000 		.4byte	.LVL62
 4662 141f 331F0000 		.4byte	0x1f33
 4663 1423 34140000 		.4byte	0x1434
 4664 1427 1D       		.uleb128 0x1d
 4665 1428 01       		.uleb128 0x1
 4666 1429 51       		.byte	0x51
 4667 142a 02       		.uleb128 0x2
 4668 142b 76       		.byte	0x76
 4669 142c 01       		.sleb128 1
 4670 142d 1D       		.uleb128 0x1d
 4671 142e 01       		.uleb128 0x1
 4672 142f 50       		.byte	0x50
 4673 1430 02       		.uleb128 0x2
 4674 1431 08       		.byte	0x8
 4675 1432 92       		.byte	0x92
 4676 1433 00       		.byte	0
 4677 1434 1C       		.uleb128 0x1c
 4678 1435 F0020000 		.4byte	.LVL63
 4679 1439 4D1F0000 		.4byte	0x1f4d
 4680 143d 55140000 		.4byte	0x1455
 4681 1441 1D       		.uleb128 0x1d
 4682 1442 01       		.uleb128 0x1
 4683 1443 52       		.byte	0x52
 4684 1444 02       		.uleb128 0x2
 4685 1445 76       		.byte	0x76
 4686 1446 00       		.sleb128 0
 4687 1447 1D       		.uleb128 0x1d
 4688 1448 01       		.uleb128 0x1
 4689 1449 51       		.byte	0x51
 4690 144a 03       		.uleb128 0x3
 4691 144b 74       		.byte	0x74
 4692 144c D500     		.sleb128 85
 4693 144e 1D       		.uleb128 0x1d
 4694 144f 01       		.uleb128 0x1
 4695 1450 50       		.byte	0x50
 4696 1451 02       		.uleb128 0x2
 4697 1452 75       		.byte	0x75
 4698 1453 00       		.sleb128 0
ARM GAS  C:\Users\AHMED~1.ELE\AppData\Local\Temp\cciu15sF.s 			page 99


 4699 1454 00       		.byte	0
 4700 1455 1E       		.uleb128 0x1e
 4701 1456 14030000 		.4byte	.LVL65
 4702 145a 6A1F0000 		.4byte	0x1f6a
 4703 145e 1D       		.uleb128 0x1d
 4704 145f 01       		.uleb128 0x1
 4705 1460 52       		.byte	0x52
 4706 1461 02       		.uleb128 0x2
 4707 1462 75       		.byte	0x75
 4708 1463 00       		.sleb128 0
 4709 1464 1D       		.uleb128 0x1d
 4710 1465 01       		.uleb128 0x1
 4711 1466 51       		.byte	0x51
 4712 1467 02       		.uleb128 0x2
 4713 1468 08       		.byte	0x8
 4714 1469 25       		.byte	0x25
 4715 146a 1D       		.uleb128 0x1d
 4716 146b 01       		.uleb128 0x1
 4717 146c 50       		.byte	0x50
 4718 146d 01       		.uleb128 0x1
 4719 146e 3F       		.byte	0x3f
 4720 146f 00       		.byte	0
 4721 1470 00       		.byte	0
 4722 1471 1F       		.uleb128 0x1f
 4723 1472 48000000 		.4byte	.Ldebug_ranges0+0x48
 4724 1476 11150000 		.4byte	0x1511
 4725 147a 13       		.uleb128 0x13
 4726 147b 6C656E00 		.ascii	"len\000"
 4727 147f 01       		.byte	0x1
 4728 1480 4C01     		.2byte	0x14c
 4729 1482 B2000000 		.4byte	0xb2
 4730 1486 33020000 		.4byte	.LLST16
 4731 148a 13       		.uleb128 0x13
 4732 148b 70747200 		.ascii	"ptr\000"
 4733 148f 01       		.byte	0x1
 4734 1490 4C01     		.2byte	0x14c
 4735 1492 C8000000 		.4byte	0xc8
 4736 1496 51020000 		.4byte	.LLST17
 4737 149a 1C       		.uleb128 0x1c
 4738 149b 46030000 		.4byte	.LVL67
 4739 149f 1E1F0000 		.4byte	0x1f1e
 4740 14a3 AE140000 		.4byte	0x14ae
 4741 14a7 1D       		.uleb128 0x1d
 4742 14a8 01       		.uleb128 0x1
 4743 14a9 50       		.byte	0x50
 4744 14aa 02       		.uleb128 0x2
 4745 14ab 91       		.byte	0x91
 4746 14ac 44       		.sleb128 -60
 4747 14ad 00       		.byte	0
 4748 14ae 1C       		.uleb128 0x1c
 4749 14af 52030000 		.4byte	.LVL70
 4750 14b3 331F0000 		.4byte	0x1f33
 4751 14b7 C8140000 		.4byte	0x14c8
 4752 14bb 1D       		.uleb128 0x1d
 4753 14bc 01       		.uleb128 0x1
 4754 14bd 51       		.byte	0x51
 4755 14be 02       		.uleb128 0x2
ARM GAS  C:\Users\AHMED~1.ELE\AppData\Local\Temp\cciu15sF.s 			page 100


 4756 14bf 79       		.byte	0x79
 4757 14c0 01       		.sleb128 1
 4758 14c1 1D       		.uleb128 0x1d
 4759 14c2 01       		.uleb128 0x1
 4760 14c3 50       		.byte	0x50
 4761 14c4 02       		.uleb128 0x2
 4762 14c5 08       		.byte	0x8
 4763 14c6 92       		.byte	0x92
 4764 14c7 00       		.byte	0
 4765 14c8 1C       		.uleb128 0x1c
 4766 14c9 5E030000 		.4byte	.LVL71
 4767 14cd 4D1F0000 		.4byte	0x1f4d
 4768 14d1 E8140000 		.4byte	0x14e8
 4769 14d5 1D       		.uleb128 0x1d
 4770 14d6 01       		.uleb128 0x1
 4771 14d7 52       		.byte	0x52
 4772 14d8 02       		.uleb128 0x2
 4773 14d9 79       		.byte	0x79
 4774 14da 00       		.sleb128 0
 4775 14db 1D       		.uleb128 0x1d
 4776 14dc 01       		.uleb128 0x1
 4777 14dd 51       		.byte	0x51
 4778 14de 02       		.uleb128 0x2
 4779 14df 91       		.byte	0x91
 4780 14e0 44       		.sleb128 -60
 4781 14e1 1D       		.uleb128 0x1d
 4782 14e2 01       		.uleb128 0x1
 4783 14e3 50       		.byte	0x50
 4784 14e4 02       		.uleb128 0x2
 4785 14e5 78       		.byte	0x78
 4786 14e6 00       		.sleb128 0
 4787 14e7 00       		.byte	0
 4788 14e8 1C       		.uleb128 0x1c
 4789 14e9 84030000 		.4byte	.LVL72
 4790 14ed 6A1F0000 		.4byte	0x1f6a
 4791 14f1 07150000 		.4byte	0x1507
 4792 14f5 1D       		.uleb128 0x1d
 4793 14f6 01       		.uleb128 0x1
 4794 14f7 52       		.byte	0x52
 4795 14f8 02       		.uleb128 0x2
 4796 14f9 78       		.byte	0x78
 4797 14fa 00       		.sleb128 0
 4798 14fb 1D       		.uleb128 0x1d
 4799 14fc 01       		.uleb128 0x1
 4800 14fd 51       		.byte	0x51
 4801 14fe 02       		.uleb128 0x2
 4802 14ff 08       		.byte	0x8
 4803 1500 25       		.byte	0x25
 4804 1501 1D       		.uleb128 0x1d
 4805 1502 01       		.uleb128 0x1
 4806 1503 50       		.byte	0x50
 4807 1504 01       		.uleb128 0x1
 4808 1505 3F       		.byte	0x3f
 4809 1506 00       		.byte	0
 4810 1507 20       		.uleb128 0x20
 4811 1508 8C030000 		.4byte	.LVL74
 4812 150c 331F0000 		.4byte	0x1f33
ARM GAS  C:\Users\AHMED~1.ELE\AppData\Local\Temp\cciu15sF.s 			page 101


 4813 1510 00       		.byte	0
 4814 1511 1F       		.uleb128 0x1f
 4815 1512 60000000 		.4byte	.Ldebug_ranges0+0x60
 4816 1516 9B150000 		.4byte	0x159b
 4817 151a 13       		.uleb128 0x13
 4818 151b 6C656E00 		.ascii	"len\000"
 4819 151f 01       		.byte	0x1
 4820 1520 4E01     		.2byte	0x14e
 4821 1522 B2000000 		.4byte	0xb2
 4822 1526 6F020000 		.4byte	.LLST18
 4823 152a 13       		.uleb128 0x13
 4824 152b 70747200 		.ascii	"ptr\000"
 4825 152f 01       		.byte	0x1
 4826 1530 4E01     		.2byte	0x14e
 4827 1532 C8000000 		.4byte	0xc8
 4828 1536 8D020000 		.4byte	.LLST19
 4829 153a 1C       		.uleb128 0x1c
 4830 153b 96030000 		.4byte	.LVL76
 4831 153f 1E1F0000 		.4byte	0x1f1e
 4832 1543 4E150000 		.4byte	0x154e
 4833 1547 1D       		.uleb128 0x1d
 4834 1548 01       		.uleb128 0x1
 4835 1549 50       		.byte	0x50
 4836 154a 02       		.uleb128 0x2
 4837 154b 75       		.byte	0x75
 4838 154c 00       		.sleb128 0
 4839 154d 00       		.byte	0
 4840 154e 1C       		.uleb128 0x1c
 4841 154f A2030000 		.4byte	.LVL79
 4842 1553 331F0000 		.4byte	0x1f33
 4843 1557 68150000 		.4byte	0x1568
 4844 155b 1D       		.uleb128 0x1d
 4845 155c 01       		.uleb128 0x1
 4846 155d 51       		.byte	0x51
 4847 155e 02       		.uleb128 0x2
 4848 155f 76       		.byte	0x76
 4849 1560 01       		.sleb128 1
 4850 1561 1D       		.uleb128 0x1d
 4851 1562 01       		.uleb128 0x1
 4852 1563 50       		.byte	0x50
 4853 1564 02       		.uleb128 0x2
 4854 1565 08       		.byte	0x8
 4855 1566 92       		.byte	0x92
 4856 1567 00       		.byte	0
 4857 1568 1C       		.uleb128 0x1c
 4858 1569 AE030000 		.4byte	.LVL80
 4859 156d 4D1F0000 		.4byte	0x1f4d
 4860 1571 88150000 		.4byte	0x1588
 4861 1575 1D       		.uleb128 0x1d
 4862 1576 01       		.uleb128 0x1
 4863 1577 52       		.byte	0x52
 4864 1578 02       		.uleb128 0x2
 4865 1579 76       		.byte	0x76
 4866 157a 00       		.sleb128 0
 4867 157b 1D       		.uleb128 0x1d
 4868 157c 01       		.uleb128 0x1
 4869 157d 51       		.byte	0x51
ARM GAS  C:\Users\AHMED~1.ELE\AppData\Local\Temp\cciu15sF.s 			page 102


 4870 157e 02       		.uleb128 0x2
 4871 157f 75       		.byte	0x75
 4872 1580 00       		.sleb128 0
 4873 1581 1D       		.uleb128 0x1d
 4874 1582 01       		.uleb128 0x1
 4875 1583 50       		.byte	0x50
 4876 1584 02       		.uleb128 0x2
 4877 1585 74       		.byte	0x74
 4878 1586 00       		.sleb128 0
 4879 1587 00       		.byte	0
 4880 1588 20       		.uleb128 0x20
 4881 1589 D8030000 		.4byte	.LVL82
 4882 158d 6A1F0000 		.4byte	0x1f6a
 4883 1591 20       		.uleb128 0x20
 4884 1592 E0030000 		.4byte	.LVL84
 4885 1596 331F0000 		.4byte	0x1f33
 4886 159a 00       		.byte	0
 4887 159b 1C       		.uleb128 0x1c
 4888 159c 14000000 		.4byte	.LVL11
 4889 15a0 931F0000 		.4byte	0x1f93
 4890 15a4 BC150000 		.4byte	0x15bc
 4891 15a8 1D       		.uleb128 0x1d
 4892 15a9 01       		.uleb128 0x1
 4893 15aa 52       		.byte	0x52
 4894 15ab 02       		.uleb128 0x2
 4895 15ac 08       		.byte	0x8
 4896 15ad 35       		.byte	0x35
 4897 15ae 1D       		.uleb128 0x1d
 4898 15af 01       		.uleb128 0x1
 4899 15b0 51       		.byte	0x51
 4900 15b1 02       		.uleb128 0x2
 4901 15b2 08       		.byte	0x8
 4902 15b3 20       		.byte	0x20
 4903 15b4 1D       		.uleb128 0x1d
 4904 15b5 01       		.uleb128 0x1
 4905 15b6 50       		.byte	0x50
 4906 15b7 03       		.uleb128 0x3
 4907 15b8 75       		.byte	0x75
 4908 15b9 D500     		.sleb128 85
 4909 15bb 00       		.byte	0
 4910 15bc 1C       		.uleb128 0x1c
 4911 15bd 3A000000 		.4byte	.LVL12
 4912 15c1 931F0000 		.4byte	0x1f93
 4913 15c5 DD150000 		.4byte	0x15dd
 4914 15c9 1D       		.uleb128 0x1d
 4915 15ca 01       		.uleb128 0x1
 4916 15cb 52       		.byte	0x52
 4917 15cc 02       		.uleb128 0x2
 4918 15cd 74       		.byte	0x74
 4919 15ce 00       		.sleb128 0
 4920 15cf 1D       		.uleb128 0x1d
 4921 15d0 01       		.uleb128 0x1
 4922 15d1 51       		.byte	0x51
 4923 15d2 02       		.uleb128 0x2
 4924 15d3 08       		.byte	0x8
 4925 15d4 2A       		.byte	0x2a
 4926 15d5 1D       		.uleb128 0x1d
ARM GAS  C:\Users\AHMED~1.ELE\AppData\Local\Temp\cciu15sF.s 			page 103


 4927 15d6 01       		.uleb128 0x1
 4928 15d7 50       		.byte	0x50
 4929 15d8 03       		.uleb128 0x3
 4930 15d9 75       		.byte	0x75
 4931 15da D500     		.sleb128 85
 4932 15dc 00       		.byte	0
 4933 15dd 1C       		.uleb128 0x1c
 4934 15de 52000000 		.4byte	.LVL13
 4935 15e2 4D1F0000 		.4byte	0x1f4d
 4936 15e6 FE150000 		.4byte	0x15fe
 4937 15ea 1D       		.uleb128 0x1d
 4938 15eb 01       		.uleb128 0x1
 4939 15ec 52       		.byte	0x52
 4940 15ed 02       		.uleb128 0x2
 4941 15ee 76       		.byte	0x76
 4942 15ef 00       		.sleb128 0
 4943 15f0 1D       		.uleb128 0x1d
 4944 15f1 01       		.uleb128 0x1
 4945 15f2 51       		.byte	0x51
 4946 15f3 02       		.uleb128 0x2
 4947 15f4 74       		.byte	0x74
 4948 15f5 1F       		.sleb128 31
 4949 15f6 1D       		.uleb128 0x1d
 4950 15f7 01       		.uleb128 0x1
 4951 15f8 50       		.byte	0x50
 4952 15f9 03       		.uleb128 0x3
 4953 15fa 74       		.byte	0x74
 4954 15fb D500     		.sleb128 85
 4955 15fd 00       		.byte	0
 4956 15fe 1C       		.uleb128 0x1c
 4957 15ff 6E000000 		.4byte	.LVL14
 4958 1603 931F0000 		.4byte	0x1f93
 4959 1607 21160000 		.4byte	0x1621
 4960 160b 1D       		.uleb128 0x1d
 4961 160c 01       		.uleb128 0x1
 4962 160d 52       		.byte	0x52
 4963 160e 02       		.uleb128 0x2
 4964 160f 74       		.byte	0x74
 4965 1610 00       		.sleb128 0
 4966 1611 1D       		.uleb128 0x1d
 4967 1612 01       		.uleb128 0x1
 4968 1613 51       		.byte	0x51
 4969 1614 02       		.uleb128 0x2
 4970 1615 08       		.byte	0x8
 4971 1616 30       		.byte	0x30
 4972 1617 1D       		.uleb128 0x1d
 4973 1618 01       		.uleb128 0x1
 4974 1619 50       		.byte	0x50
 4975 161a 05       		.uleb128 0x5
 4976 161b 03       		.byte	0x3
 4977 161c 55000000 		.4byte	.LANCHOR0+85
 4978 1620 00       		.byte	0
 4979 1621 1C       		.uleb128 0x1c
 4980 1622 7C000000 		.4byte	.LVL15
 4981 1626 4D1F0000 		.4byte	0x1f4d
 4982 162a 4C160000 		.4byte	0x164c
 4983 162e 1D       		.uleb128 0x1d
ARM GAS  C:\Users\AHMED~1.ELE\AppData\Local\Temp\cciu15sF.s 			page 104


 4984 162f 01       		.uleb128 0x1
 4985 1630 52       		.byte	0x52
 4986 1631 02       		.uleb128 0x2
 4987 1632 76       		.byte	0x76
 4988 1633 00       		.sleb128 0
 4989 1634 1D       		.uleb128 0x1d
 4990 1635 01       		.uleb128 0x1
 4991 1636 51       		.byte	0x51
 4992 1637 05       		.uleb128 0x5
 4993 1638 03       		.byte	0x3
 4994 1639 1F000000 		.4byte	.LANCHOR0+31
 4995 163d 1D       		.uleb128 0x1d
 4996 163e 01       		.uleb128 0x1
 4997 163f 50       		.byte	0x50
 4998 1640 0A       		.uleb128 0xa
 4999 1641 75       		.byte	0x75
 5000 1642 00       		.sleb128 0
 5001 1643 74       		.byte	0x74
 5002 1644 00       		.sleb128 0
 5003 1645 22       		.byte	0x22
 5004 1646 76       		.byte	0x76
 5005 1647 00       		.sleb128 0
 5006 1648 1C       		.byte	0x1c
 5007 1649 23       		.byte	0x23
 5008 164a 55       		.uleb128 0x55
 5009 164b 00       		.byte	0
 5010 164c 1C       		.uleb128 0x1c
 5011 164d 96000000 		.4byte	.LVL17
 5012 1651 B21F0000 		.4byte	0x1fb2
 5013 1655 70160000 		.4byte	0x1670
 5014 1659 1D       		.uleb128 0x1d
 5015 165a 01       		.uleb128 0x1
 5016 165b 51       		.byte	0x51
 5017 165c 07       		.uleb128 0x7
 5018 165d 75       		.byte	0x75
 5019 165e 00       		.sleb128 0
 5020 165f 74       		.byte	0x74
 5021 1660 00       		.sleb128 0
 5022 1661 22       		.byte	0x22
 5023 1662 23       		.byte	0x23
 5024 1663 55       		.uleb128 0x55
 5025 1664 1D       		.uleb128 0x1d
 5026 1665 01       		.uleb128 0x1
 5027 1666 50       		.byte	0x50
 5028 1667 07       		.uleb128 0x7
 5029 1668 75       		.byte	0x75
 5030 1669 00       		.sleb128 0
 5031 166a 74       		.byte	0x74
 5032 166b 00       		.sleb128 0
 5033 166c 22       		.byte	0x22
 5034 166d 23       		.byte	0x23
 5035 166e 56       		.uleb128 0x56
 5036 166f 00       		.byte	0
 5037 1670 1C       		.uleb128 0x1c
 5038 1671 C6000000 		.4byte	.LVL18
 5039 1675 B21F0000 		.4byte	0x1fb2
 5040 1679 92160000 		.4byte	0x1692
ARM GAS  C:\Users\AHMED~1.ELE\AppData\Local\Temp\cciu15sF.s 			page 105


 5041 167d 1D       		.uleb128 0x1d
 5042 167e 01       		.uleb128 0x1
 5043 167f 52       		.byte	0x52
 5044 1680 02       		.uleb128 0x2
 5045 1681 76       		.byte	0x76
 5046 1682 7C       		.sleb128 -4
 5047 1683 1D       		.uleb128 0x1d
 5048 1684 01       		.uleb128 0x1
 5049 1685 51       		.byte	0x51
 5050 1686 03       		.uleb128 0x3
 5051 1687 75       		.byte	0x75
 5052 1688 D500     		.sleb128 85
 5053 168a 1D       		.uleb128 0x1d
 5054 168b 01       		.uleb128 0x1
 5055 168c 50       		.byte	0x50
 5056 168d 03       		.uleb128 0x3
 5057 168e 75       		.byte	0x75
 5058 168f D900     		.sleb128 89
 5059 1691 00       		.byte	0
 5060 1692 1C       		.uleb128 0x1c
 5061 1693 D4000000 		.4byte	.LVL19
 5062 1697 4D1F0000 		.4byte	0x1f4d
 5063 169b B2160000 		.4byte	0x16b2
 5064 169f 1D       		.uleb128 0x1d
 5065 16a0 01       		.uleb128 0x1
 5066 16a1 52       		.byte	0x52
 5067 16a2 01       		.uleb128 0x1
 5068 16a3 34       		.byte	0x34
 5069 16a4 1D       		.uleb128 0x1d
 5070 16a5 01       		.uleb128 0x1
 5071 16a6 51       		.byte	0x51
 5072 16a7 02       		.uleb128 0x2
 5073 16a8 75       		.byte	0x75
 5074 16a9 17       		.sleb128 23
 5075 16aa 1D       		.uleb128 0x1d
 5076 16ab 01       		.uleb128 0x1
 5077 16ac 50       		.byte	0x50
 5078 16ad 03       		.uleb128 0x3
 5079 16ae 75       		.byte	0x75
 5080 16af D500     		.sleb128 85
 5081 16b1 00       		.byte	0
 5082 16b2 1C       		.uleb128 0x1c
 5083 16b3 EA000000 		.4byte	.LVL20
 5084 16b7 4D1F0000 		.4byte	0x1f4d
 5085 16bb D3160000 		.4byte	0x16d3
 5086 16bf 1D       		.uleb128 0x1d
 5087 16c0 01       		.uleb128 0x1
 5088 16c1 52       		.byte	0x52
 5089 16c2 02       		.uleb128 0x2
 5090 16c3 74       		.byte	0x74
 5091 16c4 00       		.sleb128 0
 5092 16c5 1D       		.uleb128 0x1d
 5093 16c6 01       		.uleb128 0x1
 5094 16c7 51       		.byte	0x51
 5095 16c8 02       		.uleb128 0x2
 5096 16c9 75       		.byte	0x75
 5097 16ca 1F       		.sleb128 31
ARM GAS  C:\Users\AHMED~1.ELE\AppData\Local\Temp\cciu15sF.s 			page 106


 5098 16cb 1D       		.uleb128 0x1d
 5099 16cc 01       		.uleb128 0x1
 5100 16cd 50       		.byte	0x50
 5101 16ce 03       		.uleb128 0x3
 5102 16cf 75       		.byte	0x75
 5103 16d0 D500     		.sleb128 85
 5104 16d2 00       		.byte	0
 5105 16d3 1C       		.uleb128 0x1c
 5106 16d4 16010000 		.4byte	.LVL21
 5107 16d8 6A1F0000 		.4byte	0x1f6a
 5108 16dc F9160000 		.4byte	0x16f9
 5109 16e0 1D       		.uleb128 0x1d
 5110 16e1 01       		.uleb128 0x1
 5111 16e2 53       		.byte	0x53
 5112 16e3 02       		.uleb128 0x2
 5113 16e4 77       		.byte	0x77
 5114 16e5 00       		.sleb128 0
 5115 16e6 1D       		.uleb128 0x1d
 5116 16e7 01       		.uleb128 0x1
 5117 16e8 51       		.byte	0x51
 5118 16e9 02       		.uleb128 0x2
 5119 16ea 08       		.byte	0x8
 5120 16eb 22       		.byte	0x22
 5121 16ec 1D       		.uleb128 0x1d
 5122 16ed 01       		.uleb128 0x1
 5123 16ee 50       		.byte	0x50
 5124 16ef 01       		.uleb128 0x1
 5125 16f0 3F       		.byte	0x3f
 5126 16f1 1D       		.uleb128 0x1d
 5127 16f2 02       		.uleb128 0x2
 5128 16f3 7D       		.byte	0x7d
 5129 16f4 00       		.sleb128 0
 5130 16f5 02       		.uleb128 0x2
 5131 16f6 77       		.byte	0x77
 5132 16f7 00       		.sleb128 0
 5133 16f8 00       		.byte	0
 5134 16f9 1C       		.uleb128 0x1c
 5135 16fa 6C010000 		.4byte	.LVL28
 5136 16fe 4D1F0000 		.4byte	0x1f4d
 5137 1702 1A170000 		.4byte	0x171a
 5138 1706 1D       		.uleb128 0x1d
 5139 1707 01       		.uleb128 0x1
 5140 1708 52       		.byte	0x52
 5141 1709 02       		.uleb128 0x2
 5142 170a 76       		.byte	0x76
 5143 170b 00       		.sleb128 0
 5144 170c 1D       		.uleb128 0x1d
 5145 170d 01       		.uleb128 0x1
 5146 170e 51       		.byte	0x51
 5147 170f 03       		.uleb128 0x3
 5148 1710 74       		.byte	0x74
 5149 1711 D500     		.sleb128 85
 5150 1713 1D       		.uleb128 0x1d
 5151 1714 01       		.uleb128 0x1
 5152 1715 50       		.byte	0x50
 5153 1716 02       		.uleb128 0x2
 5154 1717 91       		.byte	0x91
ARM GAS  C:\Users\AHMED~1.ELE\AppData\Local\Temp\cciu15sF.s 			page 107


 5155 1718 44       		.sleb128 -60
 5156 1719 00       		.byte	0
 5157 171a 1C       		.uleb128 0x1c
 5158 171b 22020000 		.4byte	.LVL43
 5159 171f 6A1F0000 		.4byte	0x1f6a
 5160 1723 40170000 		.4byte	0x1740
 5161 1727 1D       		.uleb128 0x1d
 5162 1728 01       		.uleb128 0x1
 5163 1729 53       		.byte	0x53
 5164 172a 02       		.uleb128 0x2
 5165 172b 78       		.byte	0x78
 5166 172c 00       		.sleb128 0
 5167 172d 1D       		.uleb128 0x1d
 5168 172e 01       		.uleb128 0x1
 5169 172f 51       		.byte	0x51
 5170 1730 02       		.uleb128 0x2
 5171 1731 08       		.byte	0x8
 5172 1732 22       		.byte	0x22
 5173 1733 1D       		.uleb128 0x1d
 5174 1734 01       		.uleb128 0x1
 5175 1735 50       		.byte	0x50
 5176 1736 01       		.uleb128 0x1
 5177 1737 3F       		.byte	0x3f
 5178 1738 1D       		.uleb128 0x1d
 5179 1739 02       		.uleb128 0x2
 5180 173a 7D       		.byte	0x7d
 5181 173b 00       		.sleb128 0
 5182 173c 02       		.uleb128 0x2
 5183 173d 78       		.byte	0x78
 5184 173e 00       		.sleb128 0
 5185 173f 00       		.byte	0
 5186 1740 1C       		.uleb128 0x1c
 5187 1741 64020000 		.4byte	.LVL50
 5188 1745 4D1F0000 		.4byte	0x1f4d
 5189 1749 61170000 		.4byte	0x1761
 5190 174d 1D       		.uleb128 0x1d
 5191 174e 01       		.uleb128 0x1
 5192 174f 52       		.byte	0x52
 5193 1750 02       		.uleb128 0x2
 5194 1751 76       		.byte	0x76
 5195 1752 00       		.sleb128 0
 5196 1753 1D       		.uleb128 0x1d
 5197 1754 01       		.uleb128 0x1
 5198 1755 51       		.byte	0x51
 5199 1756 03       		.uleb128 0x3
 5200 1757 74       		.byte	0x74
 5201 1758 D500     		.sleb128 85
 5202 175a 1D       		.uleb128 0x1d
 5203 175b 01       		.uleb128 0x1
 5204 175c 50       		.byte	0x50
 5205 175d 02       		.uleb128 0x2
 5206 175e 91       		.byte	0x91
 5207 175f 44       		.sleb128 -60
 5208 1760 00       		.byte	0
 5209 1761 1C       		.uleb128 0x1c
 5210 1762 C6020000 		.4byte	.LVL58
 5211 1766 6A1F0000 		.4byte	0x1f6a
ARM GAS  C:\Users\AHMED~1.ELE\AppData\Local\Temp\cciu15sF.s 			page 108


 5212 176a 87170000 		.4byte	0x1787
 5213 176e 1D       		.uleb128 0x1d
 5214 176f 01       		.uleb128 0x1
 5215 1770 53       		.byte	0x53
 5216 1771 02       		.uleb128 0x2
 5217 1772 77       		.byte	0x77
 5218 1773 00       		.sleb128 0
 5219 1774 1D       		.uleb128 0x1d
 5220 1775 01       		.uleb128 0x1
 5221 1776 51       		.byte	0x51
 5222 1777 02       		.uleb128 0x2
 5223 1778 08       		.byte	0x8
 5224 1779 22       		.byte	0x22
 5225 177a 1D       		.uleb128 0x1d
 5226 177b 01       		.uleb128 0x1
 5227 177c 50       		.byte	0x50
 5228 177d 01       		.uleb128 0x1
 5229 177e 3F       		.byte	0x3f
 5230 177f 1D       		.uleb128 0x1d
 5231 1780 02       		.uleb128 0x2
 5232 1781 7D       		.byte	0x7d
 5233 1782 00       		.sleb128 0
 5234 1783 02       		.uleb128 0x2
 5235 1784 77       		.byte	0x77
 5236 1785 00       		.sleb128 0
 5237 1786 00       		.byte	0
 5238 1787 1E       		.uleb128 0x1e
 5239 1788 38030000 		.4byte	.LVL66
 5240 178c 4D1F0000 		.4byte	0x1f4d
 5241 1790 1D       		.uleb128 0x1d
 5242 1791 01       		.uleb128 0x1
 5243 1792 52       		.byte	0x52
 5244 1793 02       		.uleb128 0x2
 5245 1794 76       		.byte	0x76
 5246 1795 00       		.sleb128 0
 5247 1796 1D       		.uleb128 0x1d
 5248 1797 01       		.uleb128 0x1
 5249 1798 51       		.byte	0x51
 5250 1799 03       		.uleb128 0x3
 5251 179a 74       		.byte	0x74
 5252 179b D500     		.sleb128 85
 5253 179d 1D       		.uleb128 0x1d
 5254 179e 01       		.uleb128 0x1
 5255 179f 50       		.byte	0x50
 5256 17a0 02       		.uleb128 0x2
 5257 17a1 91       		.byte	0x91
 5258 17a2 44       		.sleb128 -60
 5259 17a3 00       		.byte	0
 5260 17a4 00       		.byte	0
 5261 17a5 08       		.uleb128 0x8
 5262 17a6 9C000000 		.4byte	0x9c
 5263 17aa B5170000 		.4byte	0x17b5
 5264 17ae 09       		.uleb128 0x9
 5265 17af 78000000 		.4byte	0x78
 5266 17b3 1A       		.byte	0x1a
 5267 17b4 00       		.byte	0
 5268 17b5 21       		.uleb128 0x21
ARM GAS  C:\Users\AHMED~1.ELE\AppData\Local\Temp\cciu15sF.s 			page 109


 5269 17b6 66100000 		.4byte	0x1066
 5270 17ba 00000000 		.4byte	.LFB0
 5271 17be 1C000000 		.4byte	.LFE0-.LFB0
 5272 17c2 01       		.uleb128 0x1
 5273 17c3 9C       		.byte	0x9c
 5274 17c4 D8170000 		.4byte	0x17d8
 5275 17c8 1E       		.uleb128 0x1e
 5276 17c9 12000000 		.4byte	.LVL85
 5277 17cd D11F0000 		.4byte	0x1fd1
 5278 17d1 1D       		.uleb128 0x1d
 5279 17d2 01       		.uleb128 0x1
 5280 17d3 50       		.byte	0x50
 5281 17d4 01       		.uleb128 0x1
 5282 17d5 3A       		.byte	0x3a
 5283 17d6 00       		.byte	0
 5284 17d7 00       		.byte	0
 5285 17d8 22       		.uleb128 0x22
 5286 17d9 74210000 		.4byte	.LASF586
 5287 17dd 01       		.byte	0x1
 5288 17de 6A       		.byte	0x6a
 5289 17df 00000000 		.4byte	.LFB1
 5290 17e3 26000000 		.4byte	.LFE1-.LFB1
 5291 17e7 01       		.uleb128 0x1
 5292 17e8 9C       		.byte	0x9c
 5293 17e9 30180000 		.4byte	0x1830
 5294 17ed 20       		.uleb128 0x20
 5295 17ee 06000000 		.4byte	.LVL86
 5296 17f2 66100000 		.4byte	0x1066
 5297 17f6 1C       		.uleb128 0x1c
 5298 17f7 14000000 		.4byte	.LVL87
 5299 17fb 6A1F0000 		.4byte	0x1f6a
 5300 17ff 1E180000 		.4byte	0x181e
 5301 1803 1D       		.uleb128 0x1d
 5302 1804 01       		.uleb128 0x1
 5303 1805 53       		.byte	0x53
 5304 1806 01       		.uleb128 0x1
 5305 1807 30       		.byte	0x30
 5306 1808 1D       		.uleb128 0x1d
 5307 1809 01       		.uleb128 0x1
 5308 180a 52       		.byte	0x52
 5309 180b 01       		.uleb128 0x1
 5310 180c 30       		.byte	0x30
 5311 180d 1D       		.uleb128 0x1d
 5312 180e 01       		.uleb128 0x1
 5313 180f 51       		.byte	0x51
 5314 1810 01       		.uleb128 0x1
 5315 1811 46       		.byte	0x46
 5316 1812 1D       		.uleb128 0x1d
 5317 1813 01       		.uleb128 0x1
 5318 1814 50       		.byte	0x50
 5319 1815 01       		.uleb128 0x1
 5320 1816 3F       		.byte	0x3f
 5321 1817 1D       		.uleb128 0x1d
 5322 1818 02       		.uleb128 0x2
 5323 1819 7D       		.byte	0x7d
 5324 181a 00       		.sleb128 0
 5325 181b 01       		.uleb128 0x1
ARM GAS  C:\Users\AHMED~1.ELE\AppData\Local\Temp\cciu15sF.s 			page 110


 5326 181c 30       		.byte	0x30
 5327 181d 00       		.byte	0
 5328 181e 1E       		.uleb128 0x1e
 5329 181f 1E000000 		.4byte	.LVL88
 5330 1823 D11F0000 		.4byte	0x1fd1
 5331 1827 1D       		.uleb128 0x1d
 5332 1828 01       		.uleb128 0x1
 5333 1829 50       		.byte	0x50
 5334 182a 03       		.uleb128 0x3
 5335 182b 0A       		.byte	0xa
 5336 182c 9C01     		.2byte	0x19c
 5337 182e 00       		.byte	0
 5338 182f 00       		.byte	0
 5339 1830 23       		.uleb128 0x23
 5340 1831 2C030000 		.4byte	.LASF588
 5341 1835 01       		.byte	0x1
 5342 1836 77       		.byte	0x77
 5343 1837 B2000000 		.4byte	0xb2
 5344 183b 00000000 		.4byte	.LFB2
 5345 183f 34000000 		.4byte	.LFE2-.LFB2
 5346 1843 01       		.uleb128 0x1
 5347 1844 9C       		.byte	0x9c
 5348 1845 99180000 		.4byte	0x1899
 5349 1849 18       		.uleb128 0x18
 5350 184a 022A0000 		.4byte	.LASF585
 5351 184e 01       		.byte	0x1
 5352 184f 79       		.byte	0x79
 5353 1850 B2000000 		.4byte	0xb2
 5354 1854 AB020000 		.4byte	.LLST20
 5355 1858 20       		.uleb128 0x20
 5356 1859 06000000 		.4byte	.LVL89
 5357 185d 66100000 		.4byte	0x1066
 5358 1861 1C       		.uleb128 0x1c
 5359 1862 14000000 		.4byte	.LVL90
 5360 1866 6A1F0000 		.4byte	0x1f6a
 5361 186a 89180000 		.4byte	0x1889
 5362 186e 1D       		.uleb128 0x1d
 5363 186f 01       		.uleb128 0x1
 5364 1870 53       		.byte	0x53
 5365 1871 01       		.uleb128 0x1
 5366 1872 30       		.byte	0x30
 5367 1873 1D       		.uleb128 0x1d
 5368 1874 01       		.uleb128 0x1
 5369 1875 52       		.byte	0x52
 5370 1876 01       		.uleb128 0x1
 5371 1877 30       		.byte	0x30
 5372 1878 1D       		.uleb128 0x1d
 5373 1879 01       		.uleb128 0x1
 5374 187a 51       		.byte	0x51
 5375 187b 01       		.uleb128 0x1
 5376 187c 46       		.byte	0x46
 5377 187d 1D       		.uleb128 0x1d
 5378 187e 01       		.uleb128 0x1
 5379 187f 50       		.byte	0x50
 5380 1880 01       		.uleb128 0x1
 5381 1881 3F       		.byte	0x3f
 5382 1882 1D       		.uleb128 0x1d
ARM GAS  C:\Users\AHMED~1.ELE\AppData\Local\Temp\cciu15sF.s 			page 111


 5383 1883 02       		.uleb128 0x2
 5384 1884 7D       		.byte	0x7d
 5385 1885 00       		.sleb128 0
 5386 1886 01       		.uleb128 0x1
 5387 1887 30       		.byte	0x30
 5388 1888 00       		.byte	0
 5389 1889 1E       		.uleb128 0x1e
 5390 188a 22000000 		.4byte	.LVL92
 5391 188e 331F0000 		.4byte	0x1f33
 5392 1892 1D       		.uleb128 0x1d
 5393 1893 01       		.uleb128 0x1
 5394 1894 50       		.byte	0x50
 5395 1895 01       		.uleb128 0x1
 5396 1896 3D       		.byte	0x3d
 5397 1897 00       		.byte	0
 5398 1898 00       		.byte	0
 5399 1899 22       		.uleb128 0x22
 5400 189a E6060000 		.4byte	.LASF587
 5401 189e 01       		.byte	0x1
 5402 189f 8A       		.byte	0x8a
 5403 18a0 00000000 		.4byte	.LFB3
 5404 18a4 24000000 		.4byte	.LFE3-.LFB3
 5405 18a8 01       		.uleb128 0x1
 5406 18a9 9C       		.byte	0x9c
 5407 18aa DD180000 		.4byte	0x18dd
 5408 18ae 24       		.uleb128 0x24
 5409 18af 8A140000 		.4byte	.LASF591
 5410 18b3 01       		.byte	0x1
 5411 18b4 8A       		.byte	0x8a
 5412 18b5 B2000000 		.4byte	0xb2
 5413 18b9 BE020000 		.4byte	.LLST21
 5414 18bd 20       		.uleb128 0x20
 5415 18be 08000000 		.4byte	.LVL94
 5416 18c2 66100000 		.4byte	0x1066
 5417 18c6 25       		.uleb128 0x25
 5418 18c7 1E000000 		.4byte	.LVL96
 5419 18cb E61F0000 		.4byte	0x1fe6
 5420 18cf 1D       		.uleb128 0x1d
 5421 18d0 01       		.uleb128 0x1
 5422 18d1 52       		.byte	0x52
 5423 18d2 03       		.uleb128 0x3
 5424 18d3 F3       		.byte	0xf3
 5425 18d4 01       		.uleb128 0x1
 5426 18d5 50       		.byte	0x50
 5427 18d6 1D       		.uleb128 0x1d
 5428 18d7 01       		.uleb128 0x1
 5429 18d8 50       		.byte	0x50
 5430 18d9 01       		.uleb128 0x1
 5431 18da 3C       		.byte	0x3c
 5432 18db 00       		.byte	0
 5433 18dc 00       		.byte	0
 5434 18dd 23       		.uleb128 0x23
 5435 18de B4160000 		.4byte	.LASF589
 5436 18e2 01       		.byte	0x1
 5437 18e3 98       		.byte	0x98
 5438 18e4 B2000000 		.4byte	0xb2
 5439 18e8 00000000 		.4byte	.LFB4
ARM GAS  C:\Users\AHMED~1.ELE\AppData\Local\Temp\cciu15sF.s 			page 112


 5440 18ec 1C000000 		.4byte	.LFE4-.LFB4
 5441 18f0 01       		.uleb128 0x1
 5442 18f1 9C       		.byte	0x9c
 5443 18f2 0F190000 		.4byte	0x190f
 5444 18f6 20       		.uleb128 0x20
 5445 18f7 06000000 		.4byte	.LVL97
 5446 18fb 66100000 		.4byte	0x1066
 5447 18ff 25       		.uleb128 0x25
 5448 1900 16000000 		.4byte	.LVL98
 5449 1904 331F0000 		.4byte	0x1f33
 5450 1908 1D       		.uleb128 0x1d
 5451 1909 01       		.uleb128 0x1
 5452 190a 50       		.byte	0x50
 5453 190b 01       		.uleb128 0x1
 5454 190c 3D       		.byte	0x3d
 5455 190d 00       		.byte	0
 5456 190e 00       		.byte	0
 5457 190f 23       		.uleb128 0x23
 5458 1910 680C0000 		.4byte	.LASF590
 5459 1914 01       		.byte	0x1
 5460 1915 A5       		.byte	0xa5
 5461 1916 B2000000 		.4byte	0xb2
 5462 191a 00000000 		.4byte	.LFB5
 5463 191e 2A000000 		.4byte	.LFE5-.LFB5
 5464 1922 01       		.uleb128 0x1
 5465 1923 9C       		.byte	0x9c
 5466 1924 8D190000 		.4byte	0x198d
 5467 1928 24       		.uleb128 0x24
 5468 1929 8A140000 		.4byte	.LASF591
 5469 192d 01       		.byte	0x1
 5470 192e A5       		.byte	0xa5
 5471 192f B2000000 		.4byte	0xb2
 5472 1933 F5020000 		.4byte	.LLST22
 5473 1937 18       		.uleb128 0x18
 5474 1938 022A0000 		.4byte	.LASF585
 5475 193c 01       		.byte	0x1
 5476 193d A7       		.byte	0xa7
 5477 193e B2000000 		.4byte	0xb2
 5478 1942 13030000 		.4byte	.LLST23
 5479 1946 26       		.uleb128 0x26
 5480 1947 6900     		.ascii	"i\000"
 5481 1949 01       		.byte	0x1
 5482 194a A7       		.byte	0xa7
 5483 194b B2000000 		.4byte	0xb2
 5484 194f 32030000 		.4byte	.LLST24
 5485 1953 1C       		.uleb128 0x1c
 5486 1954 0E000000 		.4byte	.LVL102
 5487 1958 D11F0000 		.4byte	0x1fd1
 5488 195c 68190000 		.4byte	0x1968
 5489 1960 1D       		.uleb128 0x1d
 5490 1961 01       		.uleb128 0x1
 5491 1962 50       		.byte	0x50
 5492 1963 03       		.uleb128 0x3
 5493 1964 0A       		.byte	0xa
 5494 1965 9C01     		.2byte	0x19c
 5495 1967 00       		.byte	0
 5496 1968 1E       		.uleb128 0x1e
ARM GAS  C:\Users\AHMED~1.ELE\AppData\Local\Temp\cciu15sF.s 			page 113


 5497 1969 1C000000 		.4byte	.LVL103
 5498 196d 6A1F0000 		.4byte	0x1f6a
 5499 1971 1D       		.uleb128 0x1d
 5500 1972 01       		.uleb128 0x1
 5501 1973 53       		.byte	0x53
 5502 1974 01       		.uleb128 0x1
 5503 1975 30       		.byte	0x30
 5504 1976 1D       		.uleb128 0x1d
 5505 1977 01       		.uleb128 0x1
 5506 1978 52       		.byte	0x52
 5507 1979 01       		.uleb128 0x1
 5508 197a 30       		.byte	0x30
 5509 197b 1D       		.uleb128 0x1d
 5510 197c 01       		.uleb128 0x1
 5511 197d 51       		.byte	0x51
 5512 197e 01       		.uleb128 0x1
 5513 197f 46       		.byte	0x46
 5514 1980 1D       		.uleb128 0x1d
 5515 1981 01       		.uleb128 0x1
 5516 1982 50       		.byte	0x50
 5517 1983 01       		.uleb128 0x1
 5518 1984 3F       		.byte	0x3f
 5519 1985 1D       		.uleb128 0x1d
 5520 1986 02       		.uleb128 0x2
 5521 1987 7D       		.byte	0x7d
 5522 1988 00       		.sleb128 0
 5523 1989 01       		.uleb128 0x1
 5524 198a 30       		.byte	0x30
 5525 198b 00       		.byte	0
 5526 198c 00       		.byte	0
 5527 198d 23       		.uleb128 0x23
 5528 198e 21110000 		.4byte	.LASF592
 5529 1992 01       		.byte	0x1
 5530 1993 BA       		.byte	0xba
 5531 1994 B2000000 		.4byte	0xb2
 5532 1998 00000000 		.4byte	.LFB6
 5533 199c 80000000 		.4byte	.LFE6-.LFB6
 5534 19a0 01       		.uleb128 0x1
 5535 19a1 9C       		.byte	0x9c
 5536 19a2 661A0000 		.4byte	0x1a66
 5537 19a6 24       		.uleb128 0x24
 5538 19a7 8A140000 		.4byte	.LASF591
 5539 19ab 01       		.byte	0x1
 5540 19ac BA       		.byte	0xba
 5541 19ad B2000000 		.4byte	0xb2
 5542 19b1 69030000 		.4byte	.LLST25
 5543 19b5 24       		.uleb128 0x24
 5544 19b6 93160000 		.4byte	.LASF593
 5545 19ba 01       		.byte	0x1
 5546 19bb BA       		.byte	0xba
 5547 19bc B2000000 		.4byte	0xb2
 5548 19c0 8A030000 		.4byte	.LLST26
 5549 19c4 18       		.uleb128 0x18
 5550 19c5 022A0000 		.4byte	.LASF585
 5551 19c9 01       		.byte	0x1
 5552 19ca BC       		.byte	0xbc
 5553 19cb B2000000 		.4byte	0xb2
ARM GAS  C:\Users\AHMED~1.ELE\AppData\Local\Temp\cciu15sF.s 			page 114


 5554 19cf B6030000 		.4byte	.LLST27
 5555 19d3 1C       		.uleb128 0x1c
 5556 19d4 08000000 		.4byte	.LVL107
 5557 19d8 99180000 		.4byte	0x1899
 5558 19dc E8190000 		.4byte	0x19e8
 5559 19e0 1D       		.uleb128 0x1d
 5560 19e1 01       		.uleb128 0x1
 5561 19e2 50       		.byte	0x50
 5562 19e3 03       		.uleb128 0x3
 5563 19e4 F3       		.byte	0xf3
 5564 19e5 01       		.uleb128 0x1
 5565 19e6 50       		.byte	0x50
 5566 19e7 00       		.byte	0
 5567 19e8 20       		.uleb128 0x20
 5568 19e9 0C000000 		.4byte	.LVL108
 5569 19ed 30180000 		.4byte	0x1830
 5570 19f1 1C       		.uleb128 0x1c
 5571 19f2 26000000 		.4byte	.LVL112
 5572 19f6 6A1F0000 		.4byte	0x1f6a
 5573 19fa 091A0000 		.4byte	0x1a09
 5574 19fe 1D       		.uleb128 0x1d
 5575 19ff 01       		.uleb128 0x1
 5576 1a00 51       		.byte	0x51
 5577 1a01 01       		.uleb128 0x1
 5578 1a02 4C       		.byte	0x4c
 5579 1a03 1D       		.uleb128 0x1d
 5580 1a04 01       		.uleb128 0x1
 5581 1a05 50       		.byte	0x50
 5582 1a06 01       		.uleb128 0x1
 5583 1a07 3F       		.byte	0x3f
 5584 1a08 00       		.byte	0
 5585 1a09 1C       		.uleb128 0x1c
 5586 1a0a 44000000 		.4byte	.LVL113
 5587 1a0e 6A1F0000 		.4byte	0x1f6a
 5588 1a12 311A0000 		.4byte	0x1a31
 5589 1a16 1D       		.uleb128 0x1d
 5590 1a17 01       		.uleb128 0x1
 5591 1a18 53       		.byte	0x53
 5592 1a19 01       		.uleb128 0x1
 5593 1a1a 30       		.byte	0x30
 5594 1a1b 1D       		.uleb128 0x1d
 5595 1a1c 01       		.uleb128 0x1
 5596 1a1d 52       		.byte	0x52
 5597 1a1e 01       		.uleb128 0x1
 5598 1a1f 30       		.byte	0x30
 5599 1a20 1D       		.uleb128 0x1d
 5600 1a21 01       		.uleb128 0x1
 5601 1a22 51       		.byte	0x51
 5602 1a23 01       		.uleb128 0x1
 5603 1a24 4C       		.byte	0x4c
 5604 1a25 1D       		.uleb128 0x1d
 5605 1a26 01       		.uleb128 0x1
 5606 1a27 50       		.byte	0x50
 5607 1a28 01       		.uleb128 0x1
 5608 1a29 3F       		.byte	0x3f
 5609 1a2a 1D       		.uleb128 0x1d
 5610 1a2b 02       		.uleb128 0x2
ARM GAS  C:\Users\AHMED~1.ELE\AppData\Local\Temp\cciu15sF.s 			page 115


 5611 1a2c 7D       		.byte	0x7d
 5612 1a2d 00       		.sleb128 0
 5613 1a2e 01       		.uleb128 0x1
 5614 1a2f 30       		.byte	0x30
 5615 1a30 00       		.byte	0
 5616 1a31 1C       		.uleb128 0x1c
 5617 1a32 64000000 		.4byte	.LVL114
 5618 1a36 6A1F0000 		.4byte	0x1f6a
 5619 1a3a 541A0000 		.4byte	0x1a54
 5620 1a3e 1D       		.uleb128 0x1d
 5621 1a3f 01       		.uleb128 0x1
 5622 1a40 53       		.byte	0x53
 5623 1a41 01       		.uleb128 0x1
 5624 1a42 33       		.byte	0x33
 5625 1a43 1D       		.uleb128 0x1d
 5626 1a44 01       		.uleb128 0x1
 5627 1a45 51       		.byte	0x51
 5628 1a46 01       		.uleb128 0x1
 5629 1a47 37       		.byte	0x37
 5630 1a48 1D       		.uleb128 0x1d
 5631 1a49 01       		.uleb128 0x1
 5632 1a4a 50       		.byte	0x50
 5633 1a4b 01       		.uleb128 0x1
 5634 1a4c 3F       		.byte	0x3f
 5635 1a4d 1D       		.uleb128 0x1d
 5636 1a4e 02       		.uleb128 0x2
 5637 1a4f 7D       		.byte	0x7d
 5638 1a50 00       		.sleb128 0
 5639 1a51 01       		.uleb128 0x1
 5640 1a52 30       		.byte	0x30
 5641 1a53 00       		.byte	0
 5642 1a54 1E       		.uleb128 0x1e
 5643 1a55 70000000 		.4byte	.LVL115
 5644 1a59 D11F0000 		.4byte	0x1fd1
 5645 1a5d 1D       		.uleb128 0x1d
 5646 1a5e 01       		.uleb128 0x1
 5647 1a5f 50       		.byte	0x50
 5648 1a60 03       		.uleb128 0x3
 5649 1a61 0A       		.byte	0xa
 5650 1a62 9C01     		.2byte	0x19c
 5651 1a64 00       		.byte	0
 5652 1a65 00       		.byte	0
 5653 1a66 23       		.uleb128 0x23
 5654 1a67 021F0000 		.4byte	.LASF594
 5655 1a6b 01       		.byte	0x1
 5656 1a6c E6       		.byte	0xe6
 5657 1a6d B2000000 		.4byte	0xb2
 5658 1a71 00000000 		.4byte	.LFB7
 5659 1a75 28000000 		.4byte	.LFE7-.LFB7
 5660 1a79 01       		.uleb128 0x1
 5661 1a7a 9C       		.byte	0x9c
 5662 1a7b 891A0000 		.4byte	0x1a89
 5663 1a7f 20       		.uleb128 0x20
 5664 1a80 0C000000 		.4byte	.LVL118
 5665 1a84 0F190000 		.4byte	0x190f
 5666 1a88 00       		.byte	0
 5667 1a89 27       		.uleb128 0x27
ARM GAS  C:\Users\AHMED~1.ELE\AppData\Local\Temp\cciu15sF.s 			page 116


 5668 1a8a F2020000 		.4byte	.LASF626
 5669 1a8e 01       		.byte	0x1
 5670 1a8f 8901     		.2byte	0x189
 5671 1a91 01       		.byte	0x1
 5672 1a92 0A1B0000 		.4byte	0x1b0a
 5673 1a96 28       		.uleb128 0x28
 5674 1a97 6900     		.ascii	"i\000"
 5675 1a99 01       		.byte	0x1
 5676 1a9a 8B01     		.2byte	0x18b
 5677 1a9c 9C000000 		.4byte	0x9c
 5678 1aa0 28       		.uleb128 0x28
 5679 1aa1 6A00     		.ascii	"j\000"
 5680 1aa3 01       		.byte	0x1
 5681 1aa4 8B01     		.2byte	0x18b
 5682 1aa6 9C000000 		.4byte	0x9c
 5683 1aaa 29       		.uleb128 0x29
 5684 1aab AC1D0000 		.4byte	.LASF579
 5685 1aaf 01       		.byte	0x1
 5686 1ab0 8C01     		.2byte	0x18c
 5687 1ab2 201B0000 		.4byte	0x1b20
 5688 1ab6 3C       		.byte	0x3c
 5689 1ab7 30       		.byte	0x30
 5690 1ab8 20       		.byte	0x20
 5691 1ab9 2B       		.byte	0x2b
 5692 1aba 2D       		.byte	0x2d
 5693 1abb 29       		.byte	0x29
 5694 1abc 7E       		.byte	0x7e
 5695 1abd 31       		.byte	0x31
 5696 1abe 51       		.byte	0x51
 5697 1abf 5A       		.byte	0x5a
 5698 1ac0 5F       		.byte	0x5f
 5699 1ac1 21       		.byte	0x21
 5700 1ac2 60       		.byte	0x60
 5701 1ac3 32       		.byte	0x32
 5702 1ac4 41       		.byte	0x41
 5703 1ac5 42       		.byte	0x42
 5704 1ac6 43       		.byte	0x43
 5705 1ac7 40       		.byte	0x40
 5706 1ac8 27       		.byte	0x27
 5707 1ac9 33       		.byte	0x33
 5708 1aca 44       		.byte	0x44
 5709 1acb 45       		.byte	0x45
 5710 1acc 46       		.byte	0x46
 5711 1acd 23       		.byte	0x23
 5712 1ace 3A       		.byte	0x3a
 5713 1acf 34       		.byte	0x34
 5714 1ad0 47       		.byte	0x47
 5715 1ad1 48       		.byte	0x48
 5716 1ad2 49       		.byte	0x49
 5717 1ad3 24       		.byte	0x24
 5718 1ad4 3B       		.byte	0x3b
 5719 1ad5 35       		.byte	0x35
 5720 1ad6 4A       		.byte	0x4a
 5721 1ad7 4B       		.byte	0x4b
 5722 1ad8 4C       		.byte	0x4c
 5723 1ad9 25       		.byte	0x25
 5724 1ada 3F       		.byte	0x3f
ARM GAS  C:\Users\AHMED~1.ELE\AppData\Local\Temp\cciu15sF.s 			page 117


 5725 1adb 36       		.byte	0x36
 5726 1adc 4D       		.byte	0x4d
 5727 1add 4E       		.byte	0x4e
 5728 1ade 4F       		.byte	0x4f
 5729 1adf 5E       		.byte	0x5e
 5730 1ae0 2C       		.byte	0x2c
 5731 1ae1 37       		.byte	0x37
 5732 1ae2 50       		.byte	0x50
 5733 1ae3 52       		.byte	0x52
 5734 1ae4 53       		.byte	0x53
 5735 1ae5 26       		.byte	0x26
 5736 1ae6 2E       		.byte	0x2e
 5737 1ae7 38       		.byte	0x38
 5738 1ae8 54       		.byte	0x54
 5739 1ae9 55       		.byte	0x55
 5740 1aea 56       		.byte	0x56
 5741 1aeb 2A       		.byte	0x2a
 5742 1aec 5B       		.byte	0x5b
 5743 1aed 39       		.byte	0x39
 5744 1aee 57       		.byte	0x57
 5745 1aef 58       		.byte	0x58
 5746 1af0 59       		.byte	0x59
 5747 1af1 28       		.byte	0x28
 5748 1af2 5D       		.byte	0x5d
 5749 1af3 2A       		.uleb128 0x2a
 5750 1af4 3F260000 		.4byte	.LASF625
 5751 1af8 01       		.byte	0x1
 5752 1af9 A801     		.2byte	0x1a8
 5753 1afb 2B       		.uleb128 0x2b
 5754 1afc 28       		.uleb128 0x28
 5755 1afd 5F5F7800 		.ascii	"__x\000"
 5756 1b01 01       		.byte	0x1
 5757 1b02 A201     		.2byte	0x1a2
 5758 1b04 9C000000 		.4byte	0x9c
 5759 1b08 00       		.byte	0
 5760 1b09 00       		.byte	0
 5761 1b0a 08       		.uleb128 0x8
 5762 1b0b 9C000000 		.4byte	0x9c
 5763 1b0f 201B0000 		.4byte	0x1b20
 5764 1b13 09       		.uleb128 0x9
 5765 1b14 78000000 		.4byte	0x78
 5766 1b18 09       		.byte	0x9
 5767 1b19 09       		.uleb128 0x9
 5768 1b1a 78000000 		.4byte	0x78
 5769 1b1e 05       		.byte	0x5
 5770 1b1f 00       		.byte	0
 5771 1b20 07       		.uleb128 0x7
 5772 1b21 0A1B0000 		.4byte	0x1b0a
 5773 1b25 2C       		.uleb128 0x2c
 5774 1b26 8A230000 		.4byte	.LASF596
 5775 1b2a 01       		.byte	0x1
 5776 1b2b B801     		.2byte	0x1b8
 5777 1b2d 91000000 		.4byte	0x91
 5778 1b31 00000000 		.4byte	.LFB11
 5779 1b35 CC040000 		.4byte	.LFE11-.LFB11
 5780 1b39 01       		.uleb128 0x1
 5781 1b3a 9C       		.byte	0x9c
ARM GAS  C:\Users\AHMED~1.ELE\AppData\Local\Temp\cciu15sF.s 			page 118


 5782 1b3b E01E0000 		.4byte	0x1ee0
 5783 1b3f 2D       		.uleb128 0x2d
 5784 1b40 FA1B0000 		.4byte	.LASF597
 5785 1b44 01       		.byte	0x1
 5786 1b45 B801     		.2byte	0x1b8
 5787 1b47 B2000000 		.4byte	0xb2
 5788 1b4b EA030000 		.4byte	.LLST28
 5789 1b4f 2D       		.uleb128 0x2d
 5790 1b50 47200000 		.4byte	.LASF598
 5791 1b54 01       		.byte	0x1
 5792 1b55 B801     		.2byte	0x1b8
 5793 1b57 B2000000 		.4byte	0xb2
 5794 1b5b 16040000 		.4byte	.LLST29
 5795 1b5f 2D       		.uleb128 0x2d
 5796 1b60 B8270000 		.4byte	.LASF599
 5797 1b64 01       		.byte	0x1
 5798 1b65 B801     		.2byte	0x1b8
 5799 1b67 C8000000 		.4byte	0xc8
 5800 1b6b 42040000 		.4byte	.LLST30
 5801 1b6f 2E       		.uleb128 0x2e
 5802 1b70 FD200000 		.4byte	.LASF600
 5803 1b74 01       		.byte	0x1
 5804 1b75 BA01     		.2byte	0x1ba
 5805 1b77 91000000 		.4byte	0x91
 5806 1b7b D2040000 		.4byte	.LLST31
 5807 1b7f 2E       		.uleb128 0x2e
 5808 1b80 022A0000 		.4byte	.LASF585
 5809 1b84 01       		.byte	0x1
 5810 1b85 BB01     		.2byte	0x1bb
 5811 1b87 B2000000 		.4byte	0xb2
 5812 1b8b 36050000 		.4byte	.LLST32
 5813 1b8f 2E       		.uleb128 0x2e
 5814 1b90 6B210000 		.4byte	.LASF601
 5815 1b94 01       		.byte	0x1
 5816 1b95 BB01     		.2byte	0x1bb
 5817 1b97 B2000000 		.4byte	0xb2
 5818 1b9b E4050000 		.4byte	.LLST33
 5819 1b9f 2E       		.uleb128 0x2e
 5820 1ba0 CD180000 		.4byte	.LASF602
 5821 1ba4 01       		.byte	0x1
 5822 1ba5 BC01     		.2byte	0x1bc
 5823 1ba7 B2000000 		.4byte	0xb2
 5824 1bab 0E060000 		.4byte	.LLST34
 5825 1baf 2E       		.uleb128 0x2e
 5826 1bb0 78250000 		.4byte	.LASF603
 5827 1bb4 01       		.byte	0x1
 5828 1bb5 BC01     		.2byte	0x1bc
 5829 1bb7 B2000000 		.4byte	0xb2
 5830 1bbb 37060000 		.4byte	.LLST35
 5831 1bbf 2E       		.uleb128 0x2e
 5832 1bc0 68120000 		.4byte	.LASF604
 5833 1bc4 01       		.byte	0x1
 5834 1bc5 BC01     		.2byte	0x1bc
 5835 1bc7 B2000000 		.4byte	0xb2
 5836 1bcb 5A060000 		.4byte	.LLST36
 5837 1bcf 2E       		.uleb128 0x2e
 5838 1bd0 C6250000 		.4byte	.LASF605
ARM GAS  C:\Users\AHMED~1.ELE\AppData\Local\Temp\cciu15sF.s 			page 119


 5839 1bd4 01       		.byte	0x1
 5840 1bd5 BD01     		.2byte	0x1bd
 5841 1bd7 9C000000 		.4byte	0x9c
 5842 1bdb 6D060000 		.4byte	.LLST37
 5843 1bdf 2F       		.uleb128 0x2f
 5844 1be0 891A0000 		.4byte	0x1a89
 5845 1be4 F0010000 		.4byte	.LBB24
 5846 1be8 78000000 		.4byte	.Ldebug_ranges0+0x78
 5847 1bec 01       		.byte	0x1
 5848 1bed 0D02     		.2byte	0x20d
 5849 1bef 3C1C0000 		.4byte	0x1c3c
 5850 1bf3 30       		.uleb128 0x30
 5851 1bf4 78000000 		.4byte	.Ldebug_ranges0+0x78
 5852 1bf8 31       		.uleb128 0x31
 5853 1bf9 961A0000 		.4byte	0x1a96
 5854 1bfd 80060000 		.4byte	.LLST38
 5855 1c01 31       		.uleb128 0x31
 5856 1c02 A01A0000 		.4byte	0x1aa0
 5857 1c06 DC060000 		.4byte	.LLST39
 5858 1c0a 32       		.uleb128 0x32
 5859 1c0b F31A0000 		.4byte	0x1af3
 5860 1c0f 6C040000 		.4byte	.LDL1
 5861 1c13 33       		.uleb128 0x33
 5862 1c14 AA1A0000 		.4byte	0x1aaa
 5863 1c18 05       		.uleb128 0x5
 5864 1c19 03       		.byte	0x3
 5865 1c1a 5A000000 		.4byte	alpha_tbl.11728
 5866 1c1e 1B       		.uleb128 0x1b
 5867 1c1f 04040000 		.4byte	.LBB26
 5868 1c23 38000000 		.4byte	.LBE26-.LBB26
 5869 1c27 311C0000 		.4byte	0x1c31
 5870 1c2b 34       		.uleb128 0x34
 5871 1c2c FC1A0000 		.4byte	0x1afc
 5872 1c30 00       		.byte	0
 5873 1c31 20       		.uleb128 0x20
 5874 1c32 FC010000 		.4byte	.LVL146
 5875 1c36 171F0000 		.4byte	0x1f17
 5876 1c3a 00       		.byte	0
 5877 1c3b 00       		.byte	0
 5878 1c3c 1B       		.uleb128 0x1b
 5879 1c3d 20020000 		.4byte	.LBB29
 5880 1c41 02000000 		.4byte	.LBE29-.LBB29
 5881 1c45 5A1C0000 		.4byte	0x1c5a
 5882 1c49 13       		.uleb128 0x13
 5883 1c4a 5F5F7800 		.ascii	"__x\000"
 5884 1c4e 01       		.byte	0x1
 5885 1c4f 1402     		.2byte	0x214
 5886 1c51 9C000000 		.4byte	0x9c
 5887 1c55 36070000 		.4byte	.LLST40
 5888 1c59 00       		.byte	0
 5889 1c5a 1B       		.uleb128 0x1b
 5890 1c5b 28020000 		.4byte	.LBB30
 5891 1c5f 06000000 		.4byte	.LBE30-.LBB30
 5892 1c63 781C0000 		.4byte	0x1c78
 5893 1c67 13       		.uleb128 0x13
 5894 1c68 5F5F7800 		.ascii	"__x\000"
 5895 1c6c 01       		.byte	0x1
ARM GAS  C:\Users\AHMED~1.ELE\AppData\Local\Temp\cciu15sF.s 			page 120


 5896 1c6d 1602     		.2byte	0x216
 5897 1c6f 9C000000 		.4byte	0x9c
 5898 1c73 56070000 		.4byte	.LLST41
 5899 1c77 00       		.byte	0
 5900 1c78 1C       		.uleb128 0x1c
 5901 1c79 12000000 		.4byte	.LVL121
 5902 1c7d 05200000 		.4byte	0x2005
 5903 1c81 8C1C0000 		.4byte	0x1c8c
 5904 1c85 1D       		.uleb128 0x1d
 5905 1c86 01       		.uleb128 0x1
 5906 1c87 50       		.byte	0x50
 5907 1c88 02       		.uleb128 0x2
 5908 1c89 75       		.byte	0x75
 5909 1c8a 00       		.sleb128 0
 5910 1c8b 00       		.byte	0
 5911 1c8c 1C       		.uleb128 0x1c
 5912 1c8d 72000000 		.4byte	.LVL124
 5913 1c91 931F0000 		.4byte	0x1f93
 5914 1c95 AC1C0000 		.4byte	0x1cac
 5915 1c99 1D       		.uleb128 0x1d
 5916 1c9a 01       		.uleb128 0x1
 5917 1c9b 52       		.byte	0x52
 5918 1c9c 02       		.uleb128 0x2
 5919 1c9d 08       		.byte	0x8
 5920 1c9e 35       		.byte	0x35
 5921 1c9f 1D       		.uleb128 0x1d
 5922 1ca0 01       		.uleb128 0x1
 5923 1ca1 51       		.byte	0x51
 5924 1ca2 02       		.uleb128 0x2
 5925 1ca3 08       		.byte	0x8
 5926 1ca4 20       		.byte	0x20
 5927 1ca5 1D       		.uleb128 0x1d
 5928 1ca6 01       		.uleb128 0x1
 5929 1ca7 50       		.byte	0x50
 5930 1ca8 02       		.uleb128 0x2
 5931 1ca9 74       		.byte	0x74
 5932 1caa 1F       		.sleb128 31
 5933 1cab 00       		.byte	0
 5934 1cac 1C       		.uleb128 0x1c
 5935 1cad 7E000000 		.4byte	.LVL125
 5936 1cb1 931F0000 		.4byte	0x1f93
 5937 1cb5 CB1C0000 		.4byte	0x1ccb
 5938 1cb9 1D       		.uleb128 0x1d
 5939 1cba 01       		.uleb128 0x1
 5940 1cbb 52       		.byte	0x52
 5941 1cbc 01       		.uleb128 0x1
 5942 1cbd 34       		.byte	0x34
 5943 1cbe 1D       		.uleb128 0x1d
 5944 1cbf 01       		.uleb128 0x1
 5945 1cc0 51       		.byte	0x51
 5946 1cc1 02       		.uleb128 0x2
 5947 1cc2 08       		.byte	0x8
 5948 1cc3 20       		.byte	0x20
 5949 1cc4 1D       		.uleb128 0x1d
 5950 1cc5 01       		.uleb128 0x1
 5951 1cc6 50       		.byte	0x50
 5952 1cc7 02       		.uleb128 0x2
ARM GAS  C:\Users\AHMED~1.ELE\AppData\Local\Temp\cciu15sF.s 			page 121


 5953 1cc8 74       		.byte	0x74
 5954 1cc9 17       		.sleb128 23
 5955 1cca 00       		.byte	0
 5956 1ccb 1C       		.uleb128 0x1c
 5957 1ccc A6000000 		.4byte	.LVL128
 5958 1cd0 4D1F0000 		.4byte	0x1f4d
 5959 1cd4 ED1C0000 		.4byte	0x1ced
 5960 1cd8 1D       		.uleb128 0x1d
 5961 1cd9 01       		.uleb128 0x1
 5962 1cda 52       		.byte	0x52
 5963 1cdb 01       		.uleb128 0x1
 5964 1cdc 34       		.byte	0x34
 5965 1cdd 1D       		.uleb128 0x1d
 5966 1cde 01       		.uleb128 0x1
 5967 1cdf 51       		.byte	0x51
 5968 1ce0 02       		.uleb128 0x2
 5969 1ce1 77       		.byte	0x77
 5970 1ce2 00       		.sleb128 0
 5971 1ce3 1D       		.uleb128 0x1d
 5972 1ce4 01       		.uleb128 0x1
 5973 1ce5 50       		.byte	0x50
 5974 1ce6 05       		.uleb128 0x5
 5975 1ce7 03       		.byte	0x3
 5976 1ce8 17000000 		.4byte	.LANCHOR0+23
 5977 1cec 00       		.byte	0
 5978 1ced 1C       		.uleb128 0x1c
 5979 1cee B8000000 		.4byte	.LVL129
 5980 1cf2 4D1F0000 		.4byte	0x1f4d
 5981 1cf6 071D0000 		.4byte	0x1d07
 5982 1cfa 1D       		.uleb128 0x1d
 5983 1cfb 01       		.uleb128 0x1
 5984 1cfc 51       		.byte	0x51
 5985 1cfd 02       		.uleb128 0x2
 5986 1cfe 75       		.byte	0x75
 5987 1cff 05       		.sleb128 5
 5988 1d00 1D       		.uleb128 0x1d
 5989 1d01 01       		.uleb128 0x1
 5990 1d02 50       		.byte	0x50
 5991 1d03 02       		.uleb128 0x2
 5992 1d04 77       		.byte	0x77
 5993 1d05 00       		.sleb128 0
 5994 1d06 00       		.byte	0
 5995 1d07 1C       		.uleb128 0x1c
 5996 1d08 DA000000 		.4byte	.LVL131
 5997 1d0c 16200000 		.4byte	0x2016
 5998 1d10 211D0000 		.4byte	0x1d21
 5999 1d14 1D       		.uleb128 0x1d
 6000 1d15 01       		.uleb128 0x1
 6001 1d16 51       		.byte	0x51
 6002 1d17 02       		.uleb128 0x2
 6003 1d18 08       		.byte	0x8
 6004 1d19 30       		.byte	0x30
 6005 1d1a 1D       		.uleb128 0x1d
 6006 1d1b 01       		.uleb128 0x1
 6007 1d1c 50       		.byte	0x50
 6008 1d1d 02       		.uleb128 0x2
 6009 1d1e 77       		.byte	0x77
ARM GAS  C:\Users\AHMED~1.ELE\AppData\Local\Temp\cciu15sF.s 			page 122


 6010 1d1f 00       		.sleb128 0
 6011 1d20 00       		.byte	0
 6012 1d21 1C       		.uleb128 0x1c
 6013 1d22 F0000000 		.4byte	.LVL133
 6014 1d26 B21F0000 		.4byte	0x1fb2
 6015 1d2a 351D0000 		.4byte	0x1d35
 6016 1d2e 1D       		.uleb128 0x1d
 6017 1d2f 01       		.uleb128 0x1
 6018 1d30 50       		.byte	0x50
 6019 1d31 02       		.uleb128 0x2
 6020 1d32 77       		.byte	0x77
 6021 1d33 00       		.sleb128 0
 6022 1d34 00       		.byte	0
 6023 1d35 1C       		.uleb128 0x1c
 6024 1d36 12010000 		.4byte	.LVL134
 6025 1d3a 4D1F0000 		.4byte	0x1f4d
 6026 1d3e 6B1D0000 		.4byte	0x1d6b
 6027 1d42 1D       		.uleb128 0x1d
 6028 1d43 01       		.uleb128 0x1
 6029 1d44 52       		.byte	0x52
 6030 1d45 15       		.uleb128 0x15
 6031 1d46 08       		.byte	0x8
 6032 1d47 34       		.byte	0x34
 6033 1d48 77       		.byte	0x77
 6034 1d49 00       		.sleb128 0
 6035 1d4a 77       		.byte	0x77
 6036 1d4b 00       		.sleb128 0
 6037 1d4c 40       		.byte	0x40
 6038 1d4d 4B       		.byte	0x4b
 6039 1d4e 24       		.byte	0x24
 6040 1d4f 22       		.byte	0x22
 6041 1d50 0C       		.byte	0xc
 6042 1d51 34000080 		.4byte	0x80000034
 6043 1d55 2A       		.byte	0x2a
 6044 1d56 28       		.byte	0x28
 6045 1d57 0100     		.2byte	0x1
 6046 1d59 16       		.byte	0x16
 6047 1d5a 13       		.byte	0x13
 6048 1d5b 1D       		.uleb128 0x1d
 6049 1d5c 01       		.uleb128 0x1
 6050 1d5d 51       		.byte	0x51
 6051 1d5e 02       		.uleb128 0x2
 6052 1d5f 75       		.byte	0x75
 6053 1d60 01       		.sleb128 1
 6054 1d61 1D       		.uleb128 0x1d
 6055 1d62 01       		.uleb128 0x1
 6056 1d63 50       		.byte	0x50
 6057 1d64 05       		.uleb128 0x5
 6058 1d65 03       		.byte	0x3
 6059 1d66 1F000000 		.4byte	.LANCHOR0+31
 6060 1d6a 00       		.byte	0
 6061 1d6b 20       		.uleb128 0x20
 6062 1d6c 22010000 		.4byte	.LVL136
 6063 1d70 E3100000 		.4byte	0x10e3
 6064 1d74 1C       		.uleb128 0x1c
 6065 1d75 2A010000 		.4byte	.LVL137
 6066 1d79 D11F0000 		.4byte	0x1fd1
ARM GAS  C:\Users\AHMED~1.ELE\AppData\Local\Temp\cciu15sF.s 			page 123


 6067 1d7d 891D0000 		.4byte	0x1d89
 6068 1d81 1D       		.uleb128 0x1d
 6069 1d82 01       		.uleb128 0x1
 6070 1d83 50       		.byte	0x50
 6071 1d84 03       		.uleb128 0x3
 6072 1d85 0A       		.byte	0xa
 6073 1d86 9F01     		.2byte	0x19f
 6074 1d88 00       		.byte	0
 6075 1d89 20       		.uleb128 0x20
 6076 1d8a 4A010000 		.4byte	.LVL139
 6077 1d8e 0F190000 		.4byte	0x190f
 6078 1d92 1C       		.uleb128 0x1c
 6079 1d93 C8010000 		.4byte	.LVL142
 6080 1d97 6A1F0000 		.4byte	0x1f6a
 6081 1d9b BA1D0000 		.4byte	0x1dba
 6082 1d9f 1D       		.uleb128 0x1d
 6083 1da0 01       		.uleb128 0x1
 6084 1da1 53       		.byte	0x53
 6085 1da2 03       		.uleb128 0x3
 6086 1da3 91       		.byte	0x91
 6087 1da4 4C       		.sleb128 -52
 6088 1da5 06       		.byte	0x6
 6089 1da6 1D       		.uleb128 0x1d
 6090 1da7 01       		.uleb128 0x1
 6091 1da8 51       		.byte	0x51
 6092 1da9 02       		.uleb128 0x2
 6093 1daa 08       		.byte	0x8
 6094 1dab 22       		.byte	0x22
 6095 1dac 1D       		.uleb128 0x1d
 6096 1dad 01       		.uleb128 0x1
 6097 1dae 50       		.byte	0x50
 6098 1daf 01       		.uleb128 0x1
 6099 1db0 3F       		.byte	0x3f
 6100 1db1 1D       		.uleb128 0x1d
 6101 1db2 02       		.uleb128 0x2
 6102 1db3 7D       		.byte	0x7d
 6103 1db4 00       		.sleb128 0
 6104 1db5 03       		.uleb128 0x3
 6105 1db6 91       		.byte	0x91
 6106 1db7 4C       		.sleb128 -52
 6107 1db8 06       		.byte	0x6
 6108 1db9 00       		.byte	0
 6109 1dba 20       		.uleb128 0x20
 6110 1dbb 36020000 		.4byte	.LVL153
 6111 1dbf E3100000 		.4byte	0x10e3
 6112 1dc3 1C       		.uleb128 0x1c
 6113 1dc4 68020000 		.4byte	.LVL157
 6114 1dc8 4D1F0000 		.4byte	0x1f4d
 6115 1dcc DF1D0000 		.4byte	0x1ddf
 6116 1dd0 1D       		.uleb128 0x1d
 6117 1dd1 01       		.uleb128 0x1
 6118 1dd2 52       		.byte	0x52
 6119 1dd3 01       		.uleb128 0x1
 6120 1dd4 32       		.byte	0x32
 6121 1dd5 1D       		.uleb128 0x1d
 6122 1dd6 01       		.uleb128 0x1
 6123 1dd7 51       		.byte	0x51
ARM GAS  C:\Users\AHMED~1.ELE\AppData\Local\Temp\cciu15sF.s 			page 124


 6124 1dd8 05       		.uleb128 0x5
 6125 1dd9 03       		.byte	0x3
 6126 1dda 00000000 		.4byte	.LC0
 6127 1dde 00       		.byte	0
 6128 1ddf 20       		.uleb128 0x20
 6129 1de0 CC020000 		.4byte	.LVL161
 6130 1de4 E3100000 		.4byte	0x10e3
 6131 1de8 1C       		.uleb128 0x1c
 6132 1de9 D4020000 		.4byte	.LVL162
 6133 1ded D11F0000 		.4byte	0x1fd1
 6134 1df1 FD1D0000 		.4byte	0x1dfd
 6135 1df5 1D       		.uleb128 0x1d
 6136 1df6 01       		.uleb128 0x1
 6137 1df7 50       		.byte	0x50
 6138 1df8 03       		.uleb128 0x3
 6139 1df9 0A       		.byte	0xa
 6140 1dfa 9F01     		.2byte	0x19f
 6141 1dfc 00       		.byte	0
 6142 1dfd 20       		.uleb128 0x20
 6143 1dfe FC020000 		.4byte	.LVL165
 6144 1e02 6E100000 		.4byte	0x106e
 6145 1e06 1C       		.uleb128 0x1c
 6146 1e07 04030000 		.4byte	.LVL166
 6147 1e0b D11F0000 		.4byte	0x1fd1
 6148 1e0f 1B1E0000 		.4byte	0x1e1b
 6149 1e13 1D       		.uleb128 0x1d
 6150 1e14 01       		.uleb128 0x1
 6151 1e15 50       		.byte	0x50
 6152 1e16 03       		.uleb128 0x3
 6153 1e17 0A       		.byte	0xa
 6154 1e18 9F01     		.2byte	0x19f
 6155 1e1a 00       		.byte	0
 6156 1e1b 20       		.uleb128 0x20
 6157 1e1c 1C030000 		.4byte	.LVL170
 6158 1e20 E3100000 		.4byte	0x10e3
 6159 1e24 1C       		.uleb128 0x1c
 6160 1e25 62030000 		.4byte	.LVL173
 6161 1e29 4D1F0000 		.4byte	0x1f4d
 6162 1e2d 411E0000 		.4byte	0x1e41
 6163 1e31 1D       		.uleb128 0x1d
 6164 1e32 01       		.uleb128 0x1
 6165 1e33 51       		.byte	0x51
 6166 1e34 05       		.uleb128 0x5
 6167 1e35 03       		.byte	0x3
 6168 1e36 1F000000 		.4byte	.LANCHOR0+31
 6169 1e3a 1D       		.uleb128 0x1d
 6170 1e3b 01       		.uleb128 0x1
 6171 1e3c 50       		.byte	0x50
 6172 1e3d 02       		.uleb128 0x2
 6173 1e3e 75       		.byte	0x75
 6174 1e3f 01       		.sleb128 1
 6175 1e40 00       		.byte	0
 6176 1e41 1C       		.uleb128 0x1c
 6177 1e42 82030000 		.4byte	.LVL177
 6178 1e46 931F0000 		.4byte	0x1f93
 6179 1e4a 611E0000 		.4byte	0x1e61
 6180 1e4e 1D       		.uleb128 0x1d
ARM GAS  C:\Users\AHMED~1.ELE\AppData\Local\Temp\cciu15sF.s 			page 125


 6181 1e4f 01       		.uleb128 0x1
 6182 1e50 52       		.byte	0x52
 6183 1e51 02       		.uleb128 0x2
 6184 1e52 76       		.byte	0x76
 6185 1e53 00       		.sleb128 0
 6186 1e54 1D       		.uleb128 0x1d
 6187 1e55 01       		.uleb128 0x1
 6188 1e56 51       		.byte	0x51
 6189 1e57 02       		.uleb128 0x2
 6190 1e58 08       		.byte	0x8
 6191 1e59 30       		.byte	0x30
 6192 1e5a 1D       		.uleb128 0x1d
 6193 1e5b 01       		.uleb128 0x1
 6194 1e5c 50       		.byte	0x50
 6195 1e5d 02       		.uleb128 0x2
 6196 1e5e 75       		.byte	0x75
 6197 1e5f 01       		.sleb128 1
 6198 1e60 00       		.byte	0
 6199 1e61 1C       		.uleb128 0x1c
 6200 1e62 96030000 		.4byte	.LVL178
 6201 1e66 4D1F0000 		.4byte	0x1f4d
 6202 1e6a 751E0000 		.4byte	0x1e75
 6203 1e6e 1D       		.uleb128 0x1d
 6204 1e6f 01       		.uleb128 0x1
 6205 1e70 51       		.byte	0x51
 6206 1e71 02       		.uleb128 0x2
 6207 1e72 74       		.byte	0x74
 6208 1e73 1F       		.sleb128 31
 6209 1e74 00       		.byte	0
 6210 1e75 1C       		.uleb128 0x1c
 6211 1e76 BC030000 		.4byte	.LVL182
 6212 1e7a 931F0000 		.4byte	0x1f93
 6213 1e7e 941E0000 		.4byte	0x1e94
 6214 1e82 1D       		.uleb128 0x1d
 6215 1e83 01       		.uleb128 0x1
 6216 1e84 52       		.byte	0x52
 6217 1e85 01       		.uleb128 0x1
 6218 1e86 3C       		.byte	0x3c
 6219 1e87 1D       		.uleb128 0x1d
 6220 1e88 01       		.uleb128 0x1
 6221 1e89 51       		.byte	0x51
 6222 1e8a 02       		.uleb128 0x2
 6223 1e8b 08       		.byte	0x8
 6224 1e8c 30       		.byte	0x30
 6225 1e8d 1D       		.uleb128 0x1d
 6226 1e8e 01       		.uleb128 0x1
 6227 1e8f 50       		.byte	0x50
 6228 1e90 02       		.uleb128 0x2
 6229 1e91 75       		.byte	0x75
 6230 1e92 01       		.sleb128 1
 6231 1e93 00       		.byte	0
 6232 1e94 1C       		.uleb128 0x1c
 6233 1e95 CE030000 		.4byte	.LVL183
 6234 1e99 4D1F0000 		.4byte	0x1f4d
 6235 1e9d A81E0000 		.4byte	0x1ea8
 6236 1ea1 1D       		.uleb128 0x1d
 6237 1ea2 01       		.uleb128 0x1
ARM GAS  C:\Users\AHMED~1.ELE\AppData\Local\Temp\cciu15sF.s 			page 126


 6238 1ea3 51       		.byte	0x51
 6239 1ea4 02       		.uleb128 0x2
 6240 1ea5 74       		.byte	0x74
 6241 1ea6 1F       		.sleb128 31
 6242 1ea7 00       		.byte	0
 6243 1ea8 1C       		.uleb128 0x1c
 6244 1ea9 DA030000 		.4byte	.LVL184
 6245 1ead 931F0000 		.4byte	0x1f93
 6246 1eb1 C21E0000 		.4byte	0x1ec2
 6247 1eb5 1D       		.uleb128 0x1d
 6248 1eb6 01       		.uleb128 0x1
 6249 1eb7 52       		.byte	0x52
 6250 1eb8 02       		.uleb128 0x2
 6251 1eb9 76       		.byte	0x76
 6252 1eba 00       		.sleb128 0
 6253 1ebb 1D       		.uleb128 0x1d
 6254 1ebc 01       		.uleb128 0x1
 6255 1ebd 51       		.byte	0x51
 6256 1ebe 02       		.uleb128 0x2
 6257 1ebf 08       		.byte	0x8
 6258 1ec0 20       		.byte	0x20
 6259 1ec1 00       		.byte	0
 6260 1ec2 1C       		.uleb128 0x1c
 6261 1ec3 E6030000 		.4byte	.LVL185
 6262 1ec7 4D1F0000 		.4byte	0x1f4d
 6263 1ecb D61E0000 		.4byte	0x1ed6
 6264 1ecf 1D       		.uleb128 0x1d
 6265 1ed0 01       		.uleb128 0x1
 6266 1ed1 51       		.byte	0x51
 6267 1ed2 02       		.uleb128 0x2
 6268 1ed3 74       		.byte	0x74
 6269 1ed4 1F       		.sleb128 31
 6270 1ed5 00       		.byte	0
 6271 1ed6 20       		.uleb128 0x20
 6272 1ed7 FA030000 		.4byte	.LVL188
 6273 1edb 171F0000 		.4byte	0x1f17
 6274 1edf 00       		.byte	0
 6275 1ee0 19       		.uleb128 0x19
 6276 1ee1 891E0000 		.4byte	.LASF606
 6277 1ee5 01       		.byte	0x1
 6278 1ee6 45       		.byte	0x45
 6279 1ee7 950F0000 		.4byte	0xf95
 6280 1eeb 05       		.uleb128 0x5
 6281 1eec 03       		.byte	0x3
 6282 1eed 00000000 		.4byte	gKbdGDS
 6283 1ef1 35       		.uleb128 0x35
 6284 1ef2 CA1B0000 		.4byte	.LASF607
 6285 1ef6 08       		.byte	0x8
 6286 1ef7 2D       		.byte	0x2d
 6287 1ef8 86000000 		.4byte	0x86
 6288 1efc 08       		.uleb128 0x8
 6289 1efd 5D000000 		.4byte	0x5d
 6290 1f01 0C1F0000 		.4byte	0x1f0c
 6291 1f05 09       		.uleb128 0x9
 6292 1f06 78000000 		.4byte	0x78
 6293 1f0a 06       		.byte	0x6
 6294 1f0b 00       		.byte	0
ARM GAS  C:\Users\AHMED~1.ELE\AppData\Local\Temp\cciu15sF.s 			page 127


 6295 1f0c 35       		.uleb128 0x35
 6296 1f0d E0070000 		.4byte	.LASF608
 6297 1f11 07       		.byte	0x7
 6298 1f12 3D       		.byte	0x3d
 6299 1f13 FC1E0000 		.4byte	0x1efc
 6300 1f17 36       		.uleb128 0x36
 6301 1f18 9E180000 		.4byte	.LASF627
 6302 1f1c 0A       		.byte	0xa
 6303 1f1d 2C       		.byte	0x2c
 6304 1f1e 37       		.uleb128 0x37
 6305 1f1f 5F250000 		.4byte	.LASF609
 6306 1f23 09       		.byte	0x9
 6307 1f24 21       		.byte	0x21
 6308 1f25 6B000000 		.4byte	0x6b
 6309 1f29 331F0000 		.4byte	0x1f33
 6310 1f2d 38       		.uleb128 0x38
 6311 1f2e 86000000 		.4byte	0x86
 6312 1f32 00       		.byte	0
 6313 1f33 37       		.uleb128 0x37
 6314 1f34 72180000 		.4byte	.LASF610
 6315 1f38 04       		.byte	0x4
 6316 1f39 A2       		.byte	0xa2
 6317 1f3a B2000000 		.4byte	0xb2
 6318 1f3e 4D1F0000 		.4byte	0x1f4d
 6319 1f42 38       		.uleb128 0x38
 6320 1f43 B2000000 		.4byte	0xb2
 6321 1f47 38       		.uleb128 0x38
 6322 1f48 B2000000 		.4byte	0xb2
 6323 1f4c 00       		.byte	0
 6324 1f4d 39       		.uleb128 0x39
 6325 1f4e B1250000 		.4byte	.LASF616
 6326 1f52 76000000 		.4byte	0x76
 6327 1f56 6A1F0000 		.4byte	0x1f6a
 6328 1f5a 38       		.uleb128 0x38
 6329 1f5b 76000000 		.4byte	0x76
 6330 1f5f 38       		.uleb128 0x38
 6331 1f60 9B0D0000 		.4byte	0xd9b
 6332 1f64 38       		.uleb128 0x38
 6333 1f65 78000000 		.4byte	0x78
 6334 1f69 00       		.byte	0
 6335 1f6a 37       		.uleb128 0x37
 6336 1f6b F7090000 		.4byte	.LASF611
 6337 1f6f 04       		.byte	0x4
 6338 1f70 A0       		.byte	0xa0
 6339 1f71 B2000000 		.4byte	0xb2
 6340 1f75 931F0000 		.4byte	0x1f93
 6341 1f79 38       		.uleb128 0x38
 6342 1f7a B2000000 		.4byte	0xb2
 6343 1f7e 38       		.uleb128 0x38
 6344 1f7f B2000000 		.4byte	0xb2
 6345 1f83 38       		.uleb128 0x38
 6346 1f84 B2000000 		.4byte	0xb2
 6347 1f88 38       		.uleb128 0x38
 6348 1f89 B2000000 		.4byte	0xb2
 6349 1f8d 38       		.uleb128 0x38
 6350 1f8e B2000000 		.4byte	0xb2
 6351 1f92 00       		.byte	0
ARM GAS  C:\Users\AHMED~1.ELE\AppData\Local\Temp\cciu15sF.s 			page 128


 6352 1f93 37       		.uleb128 0x37
 6353 1f94 40200000 		.4byte	.LASF612
 6354 1f98 09       		.byte	0x9
 6355 1f99 19       		.byte	0x19
 6356 1f9a 76000000 		.4byte	0x76
 6357 1f9e B21F0000 		.4byte	0x1fb2
 6358 1fa2 38       		.uleb128 0x38
 6359 1fa3 76000000 		.4byte	0x76
 6360 1fa7 38       		.uleb128 0x38
 6361 1fa8 5D000000 		.4byte	0x5d
 6362 1fac 38       		.uleb128 0x38
 6363 1fad 6B000000 		.4byte	0x6b
 6364 1fb1 00       		.byte	0
 6365 1fb2 37       		.uleb128 0x37
 6366 1fb3 DE060000 		.4byte	.LASF613
 6367 1fb7 09       		.byte	0x9
 6368 1fb8 18       		.byte	0x18
 6369 1fb9 76000000 		.4byte	0x76
 6370 1fbd D11F0000 		.4byte	0x1fd1
 6371 1fc1 38       		.uleb128 0x38
 6372 1fc2 76000000 		.4byte	0x76
 6373 1fc6 38       		.uleb128 0x38
 6374 1fc7 9B0D0000 		.4byte	0xd9b
 6375 1fcb 38       		.uleb128 0x38
 6376 1fcc 6B000000 		.4byte	0x6b
 6377 1fd0 00       		.byte	0
 6378 1fd1 37       		.uleb128 0x37
 6379 1fd2 68180000 		.4byte	.LASF614
 6380 1fd6 04       		.byte	0x4
 6381 1fd7 A1       		.byte	0xa1
 6382 1fd8 B2000000 		.4byte	0xb2
 6383 1fdc E61F0000 		.4byte	0x1fe6
 6384 1fe0 38       		.uleb128 0x38
 6385 1fe1 B2000000 		.4byte	0xb2
 6386 1fe5 00       		.byte	0
 6387 1fe6 37       		.uleb128 0x37
 6388 1fe7 7C180000 		.4byte	.LASF615
 6389 1feb 04       		.byte	0x4
 6390 1fec A3       		.byte	0xa3
 6391 1fed B2000000 		.4byte	0xb2
 6392 1ff1 05200000 		.4byte	0x2005
 6393 1ff5 38       		.uleb128 0x38
 6394 1ff6 B2000000 		.4byte	0xb2
 6395 1ffa 38       		.uleb128 0x38
 6396 1ffb B2000000 		.4byte	0xb2
 6397 1fff 38       		.uleb128 0x38
 6398 2000 B2000000 		.4byte	0xb2
 6399 2004 00       		.byte	0
 6400 2005 3A       		.uleb128 0x3a
 6401 2006 131A0000 		.4byte	.LASF617
 6402 200a 0A       		.byte	0xa
 6403 200b 7E       		.byte	0x7e
 6404 200c 16200000 		.4byte	0x2016
 6405 2010 38       		.uleb128 0x38
 6406 2011 76000000 		.4byte	0x76
 6407 2015 00       		.byte	0
 6408 2016 3B       		.uleb128 0x3b
ARM GAS  C:\Users\AHMED~1.ELE\AppData\Local\Temp\cciu15sF.s 			page 129


 6409 2017 20210000 		.4byte	.LASF618
 6410 201b 0B       		.byte	0xb
 6411 201c 26       		.byte	0x26
 6412 201d B2000000 		.4byte	0xb2
 6413 2021 38       		.uleb128 0x38
 6414 2022 C8000000 		.4byte	0xc8
 6415 2026 38       		.uleb128 0x38
 6416 2027 B2000000 		.4byte	0xb2
 6417 202b 38       		.uleb128 0x38
 6418 202c B2000000 		.4byte	0xb2
 6419 2030 00       		.byte	0
 6420 2031 00       		.byte	0
 6421              		.section	.debug_abbrev,"",%progbits
 6422              	.Ldebug_abbrev0:
 6423 0000 01       		.uleb128 0x1
 6424 0001 11       		.uleb128 0x11
 6425 0002 01       		.byte	0x1
 6426 0003 25       		.uleb128 0x25
 6427 0004 0E       		.uleb128 0xe
 6428 0005 13       		.uleb128 0x13
 6429 0006 0B       		.uleb128 0xb
 6430 0007 03       		.uleb128 0x3
 6431 0008 0E       		.uleb128 0xe
 6432 0009 1B       		.uleb128 0x1b
 6433 000a 0E       		.uleb128 0xe
 6434 000b 55       		.uleb128 0x55
 6435 000c 17       		.uleb128 0x17
 6436 000d 11       		.uleb128 0x11
 6437 000e 01       		.uleb128 0x1
 6438 000f 10       		.uleb128 0x10
 6439 0010 17       		.uleb128 0x17
 6440 0011 00       		.byte	0
 6441 0012 00       		.byte	0
 6442 0013 02       		.uleb128 0x2
 6443 0014 24       		.uleb128 0x24
 6444 0015 00       		.byte	0
 6445 0016 0B       		.uleb128 0xb
 6446 0017 0B       		.uleb128 0xb
 6447 0018 3E       		.uleb128 0x3e
 6448 0019 0B       		.uleb128 0xb
 6449 001a 03       		.uleb128 0x3
 6450 001b 0E       		.uleb128 0xe
 6451 001c 00       		.byte	0
 6452 001d 00       		.byte	0
 6453 001e 03       		.uleb128 0x3
 6454 001f 24       		.uleb128 0x24
 6455 0020 00       		.byte	0
 6456 0021 0B       		.uleb128 0xb
 6457 0022 0B       		.uleb128 0xb
 6458 0023 3E       		.uleb128 0x3e
 6459 0024 0B       		.uleb128 0xb
 6460 0025 03       		.uleb128 0x3
 6461 0026 08       		.uleb128 0x8
 6462 0027 00       		.byte	0
 6463 0028 00       		.byte	0
 6464 0029 04       		.uleb128 0x4
 6465 002a 16       		.uleb128 0x16
ARM GAS  C:\Users\AHMED~1.ELE\AppData\Local\Temp\cciu15sF.s 			page 130


 6466 002b 00       		.byte	0
 6467 002c 03       		.uleb128 0x3
 6468 002d 0E       		.uleb128 0xe
 6469 002e 3A       		.uleb128 0x3a
 6470 002f 0B       		.uleb128 0xb
 6471 0030 3B       		.uleb128 0x3b
 6472 0031 0B       		.uleb128 0xb
 6473 0032 49       		.uleb128 0x49
 6474 0033 13       		.uleb128 0x13
 6475 0034 00       		.byte	0
 6476 0035 00       		.byte	0
 6477 0036 05       		.uleb128 0x5
 6478 0037 0F       		.uleb128 0xf
 6479 0038 00       		.byte	0
 6480 0039 0B       		.uleb128 0xb
 6481 003a 0B       		.uleb128 0xb
 6482 003b 00       		.byte	0
 6483 003c 00       		.byte	0
 6484 003d 06       		.uleb128 0x6
 6485 003e 0F       		.uleb128 0xf
 6486 003f 00       		.byte	0
 6487 0040 0B       		.uleb128 0xb
 6488 0041 0B       		.uleb128 0xb
 6489 0042 49       		.uleb128 0x49
 6490 0043 13       		.uleb128 0x13
 6491 0044 00       		.byte	0
 6492 0045 00       		.byte	0
 6493 0046 07       		.uleb128 0x7
 6494 0047 26       		.uleb128 0x26
 6495 0048 00       		.byte	0
 6496 0049 49       		.uleb128 0x49
 6497 004a 13       		.uleb128 0x13
 6498 004b 00       		.byte	0
 6499 004c 00       		.byte	0
 6500 004d 08       		.uleb128 0x8
 6501 004e 01       		.uleb128 0x1
 6502 004f 01       		.byte	0x1
 6503 0050 49       		.uleb128 0x49
 6504 0051 13       		.uleb128 0x13
 6505 0052 01       		.uleb128 0x1
 6506 0053 13       		.uleb128 0x13
 6507 0054 00       		.byte	0
 6508 0055 00       		.byte	0
 6509 0056 09       		.uleb128 0x9
 6510 0057 21       		.uleb128 0x21
 6511 0058 00       		.byte	0
 6512 0059 49       		.uleb128 0x49
 6513 005a 13       		.uleb128 0x13
 6514 005b 2F       		.uleb128 0x2f
 6515 005c 0B       		.uleb128 0xb
 6516 005d 00       		.byte	0
 6517 005e 00       		.byte	0
 6518 005f 0A       		.uleb128 0xa
 6519 0060 04       		.uleb128 0x4
 6520 0061 01       		.byte	0x1
 6521 0062 03       		.uleb128 0x3
 6522 0063 0E       		.uleb128 0xe
ARM GAS  C:\Users\AHMED~1.ELE\AppData\Local\Temp\cciu15sF.s 			page 131


 6523 0064 0B       		.uleb128 0xb
 6524 0065 0B       		.uleb128 0xb
 6525 0066 3A       		.uleb128 0x3a
 6526 0067 0B       		.uleb128 0xb
 6527 0068 3B       		.uleb128 0x3b
 6528 0069 05       		.uleb128 0x5
 6529 006a 01       		.uleb128 0x1
 6530 006b 13       		.uleb128 0x13
 6531 006c 00       		.byte	0
 6532 006d 00       		.byte	0
 6533 006e 0B       		.uleb128 0xb
 6534 006f 28       		.uleb128 0x28
 6535 0070 00       		.byte	0
 6536 0071 03       		.uleb128 0x3
 6537 0072 0E       		.uleb128 0xe
 6538 0073 1C       		.uleb128 0x1c
 6539 0074 0D       		.uleb128 0xd
 6540 0075 00       		.byte	0
 6541 0076 00       		.byte	0
 6542 0077 0C       		.uleb128 0xc
 6543 0078 26       		.uleb128 0x26
 6544 0079 00       		.byte	0
 6545 007a 00       		.byte	0
 6546 007b 00       		.byte	0
 6547 007c 0D       		.uleb128 0xd
 6548 007d 04       		.uleb128 0x4
 6549 007e 01       		.byte	0x1
 6550 007f 0B       		.uleb128 0xb
 6551 0080 0B       		.uleb128 0xb
 6552 0081 3A       		.uleb128 0x3a
 6553 0082 0B       		.uleb128 0xb
 6554 0083 3B       		.uleb128 0x3b
 6555 0084 05       		.uleb128 0x5
 6556 0085 01       		.uleb128 0x1
 6557 0086 13       		.uleb128 0x13
 6558 0087 00       		.byte	0
 6559 0088 00       		.byte	0
 6560 0089 0E       		.uleb128 0xe
 6561 008a 04       		.uleb128 0x4
 6562 008b 01       		.byte	0x1
 6563 008c 0B       		.uleb128 0xb
 6564 008d 0B       		.uleb128 0xb
 6565 008e 3A       		.uleb128 0x3a
 6566 008f 0B       		.uleb128 0xb
 6567 0090 3B       		.uleb128 0x3b
 6568 0091 0B       		.uleb128 0xb
 6569 0092 01       		.uleb128 0x1
 6570 0093 13       		.uleb128 0x13
 6571 0094 00       		.byte	0
 6572 0095 00       		.byte	0
 6573 0096 0F       		.uleb128 0xf
 6574 0097 13       		.uleb128 0x13
 6575 0098 01       		.byte	0x1
 6576 0099 03       		.uleb128 0x3
 6577 009a 0E       		.uleb128 0xe
 6578 009b 0B       		.uleb128 0xb
 6579 009c 0B       		.uleb128 0xb
ARM GAS  C:\Users\AHMED~1.ELE\AppData\Local\Temp\cciu15sF.s 			page 132


 6580 009d 3A       		.uleb128 0x3a
 6581 009e 0B       		.uleb128 0xb
 6582 009f 3B       		.uleb128 0x3b
 6583 00a0 0B       		.uleb128 0xb
 6584 00a1 01       		.uleb128 0x1
 6585 00a2 13       		.uleb128 0x13
 6586 00a3 00       		.byte	0
 6587 00a4 00       		.byte	0
 6588 00a5 10       		.uleb128 0x10
 6589 00a6 0D       		.uleb128 0xd
 6590 00a7 00       		.byte	0
 6591 00a8 03       		.uleb128 0x3
 6592 00a9 0E       		.uleb128 0xe
 6593 00aa 3A       		.uleb128 0x3a
 6594 00ab 0B       		.uleb128 0xb
 6595 00ac 3B       		.uleb128 0x3b
 6596 00ad 0B       		.uleb128 0xb
 6597 00ae 49       		.uleb128 0x49
 6598 00af 13       		.uleb128 0x13
 6599 00b0 38       		.uleb128 0x38
 6600 00b1 0B       		.uleb128 0xb
 6601 00b2 00       		.byte	0
 6602 00b3 00       		.byte	0
 6603 00b4 11       		.uleb128 0x11
 6604 00b5 2E       		.uleb128 0x2e
 6605 00b6 00       		.byte	0
 6606 00b7 03       		.uleb128 0x3
 6607 00b8 0E       		.uleb128 0xe
 6608 00b9 3A       		.uleb128 0x3a
 6609 00ba 0B       		.uleb128 0xb
 6610 00bb 3B       		.uleb128 0x3b
 6611 00bc 0B       		.uleb128 0xb
 6612 00bd 27       		.uleb128 0x27
 6613 00be 19       		.uleb128 0x19
 6614 00bf 20       		.uleb128 0x20
 6615 00c0 0B       		.uleb128 0xb
 6616 00c1 00       		.byte	0
 6617 00c2 00       		.byte	0
 6618 00c3 12       		.uleb128 0x12
 6619 00c4 2E       		.uleb128 0x2e
 6620 00c5 01       		.byte	0x1
 6621 00c6 03       		.uleb128 0x3
 6622 00c7 0E       		.uleb128 0xe
 6623 00c8 3A       		.uleb128 0x3a
 6624 00c9 0B       		.uleb128 0xb
 6625 00ca 3B       		.uleb128 0x3b
 6626 00cb 05       		.uleb128 0x5
 6627 00cc 27       		.uleb128 0x27
 6628 00cd 19       		.uleb128 0x19
 6629 00ce 11       		.uleb128 0x11
 6630 00cf 01       		.uleb128 0x1
 6631 00d0 12       		.uleb128 0x12
 6632 00d1 06       		.uleb128 0x6
 6633 00d2 40       		.uleb128 0x40
 6634 00d3 18       		.uleb128 0x18
 6635 00d4 9642     		.uleb128 0x2116
 6636 00d6 19       		.uleb128 0x19
ARM GAS  C:\Users\AHMED~1.ELE\AppData\Local\Temp\cciu15sF.s 			page 133


 6637 00d7 01       		.uleb128 0x1
 6638 00d8 13       		.uleb128 0x13
 6639 00d9 00       		.byte	0
 6640 00da 00       		.byte	0
 6641 00db 13       		.uleb128 0x13
 6642 00dc 34       		.uleb128 0x34
 6643 00dd 00       		.byte	0
 6644 00de 03       		.uleb128 0x3
 6645 00df 08       		.uleb128 0x8
 6646 00e0 3A       		.uleb128 0x3a
 6647 00e1 0B       		.uleb128 0xb
 6648 00e2 3B       		.uleb128 0x3b
 6649 00e3 05       		.uleb128 0x5
 6650 00e4 49       		.uleb128 0x49
 6651 00e5 13       		.uleb128 0x13
 6652 00e6 02       		.uleb128 0x2
 6653 00e7 17       		.uleb128 0x17
 6654 00e8 00       		.byte	0
 6655 00e9 00       		.byte	0
 6656 00ea 14       		.uleb128 0x14
 6657 00eb 34       		.uleb128 0x34
 6658 00ec 00       		.byte	0
 6659 00ed 03       		.uleb128 0x3
 6660 00ee 0E       		.uleb128 0xe
 6661 00ef 3A       		.uleb128 0x3a
 6662 00f0 0B       		.uleb128 0xb
 6663 00f1 3B       		.uleb128 0x3b
 6664 00f2 05       		.uleb128 0x5
 6665 00f3 49       		.uleb128 0x49
 6666 00f4 13       		.uleb128 0x13
 6667 00f5 02       		.uleb128 0x2
 6668 00f6 18       		.uleb128 0x18
 6669 00f7 00       		.byte	0
 6670 00f8 00       		.byte	0
 6671 00f9 15       		.uleb128 0x15
 6672 00fa 0A       		.uleb128 0xa
 6673 00fb 00       		.byte	0
 6674 00fc 03       		.uleb128 0x3
 6675 00fd 0E       		.uleb128 0xe
 6676 00fe 3A       		.uleb128 0x3a
 6677 00ff 0B       		.uleb128 0xb
 6678 0100 3B       		.uleb128 0x3b
 6679 0101 05       		.uleb128 0x5
 6680 0102 11       		.uleb128 0x11
 6681 0103 01       		.uleb128 0x1
 6682 0104 00       		.byte	0
 6683 0105 00       		.byte	0
 6684 0106 16       		.uleb128 0x16
 6685 0107 898201   		.uleb128 0x4109
 6686 010a 00       		.byte	0
 6687 010b 11       		.uleb128 0x11
 6688 010c 01       		.uleb128 0x1
 6689 010d 9542     		.uleb128 0x2115
 6690 010f 19       		.uleb128 0x19
 6691 0110 31       		.uleb128 0x31
 6692 0111 13       		.uleb128 0x13
 6693 0112 00       		.byte	0
ARM GAS  C:\Users\AHMED~1.ELE\AppData\Local\Temp\cciu15sF.s 			page 134


 6694 0113 00       		.byte	0
 6695 0114 17       		.uleb128 0x17
 6696 0115 2E       		.uleb128 0x2e
 6697 0116 01       		.byte	0x1
 6698 0117 03       		.uleb128 0x3
 6699 0118 0E       		.uleb128 0xe
 6700 0119 3A       		.uleb128 0x3a
 6701 011a 0B       		.uleb128 0xb
 6702 011b 3B       		.uleb128 0x3b
 6703 011c 0B       		.uleb128 0xb
 6704 011d 27       		.uleb128 0x27
 6705 011e 19       		.uleb128 0x19
 6706 011f 11       		.uleb128 0x11
 6707 0120 01       		.uleb128 0x1
 6708 0121 12       		.uleb128 0x12
 6709 0122 06       		.uleb128 0x6
 6710 0123 40       		.uleb128 0x40
 6711 0124 18       		.uleb128 0x18
 6712 0125 9742     		.uleb128 0x2117
 6713 0127 19       		.uleb128 0x19
 6714 0128 01       		.uleb128 0x1
 6715 0129 13       		.uleb128 0x13
 6716 012a 00       		.byte	0
 6717 012b 00       		.byte	0
 6718 012c 18       		.uleb128 0x18
 6719 012d 34       		.uleb128 0x34
 6720 012e 00       		.byte	0
 6721 012f 03       		.uleb128 0x3
 6722 0130 0E       		.uleb128 0xe
 6723 0131 3A       		.uleb128 0x3a
 6724 0132 0B       		.uleb128 0xb
 6725 0133 3B       		.uleb128 0x3b
 6726 0134 0B       		.uleb128 0xb
 6727 0135 49       		.uleb128 0x49
 6728 0136 13       		.uleb128 0x13
 6729 0137 02       		.uleb128 0x2
 6730 0138 17       		.uleb128 0x17
 6731 0139 00       		.byte	0
 6732 013a 00       		.byte	0
 6733 013b 19       		.uleb128 0x19
 6734 013c 34       		.uleb128 0x34
 6735 013d 00       		.byte	0
 6736 013e 03       		.uleb128 0x3
 6737 013f 0E       		.uleb128 0xe
 6738 0140 3A       		.uleb128 0x3a
 6739 0141 0B       		.uleb128 0xb
 6740 0142 3B       		.uleb128 0x3b
 6741 0143 0B       		.uleb128 0xb
 6742 0144 49       		.uleb128 0x49
 6743 0145 13       		.uleb128 0x13
 6744 0146 02       		.uleb128 0x2
 6745 0147 18       		.uleb128 0x18
 6746 0148 00       		.byte	0
 6747 0149 00       		.byte	0
 6748 014a 1A       		.uleb128 0x1a
 6749 014b 34       		.uleb128 0x34
 6750 014c 00       		.byte	0
ARM GAS  C:\Users\AHMED~1.ELE\AppData\Local\Temp\cciu15sF.s 			page 135


 6751 014d 03       		.uleb128 0x3
 6752 014e 0E       		.uleb128 0xe
 6753 014f 3A       		.uleb128 0x3a
 6754 0150 0B       		.uleb128 0xb
 6755 0151 3B       		.uleb128 0x3b
 6756 0152 05       		.uleb128 0x5
 6757 0153 49       		.uleb128 0x49
 6758 0154 13       		.uleb128 0x13
 6759 0155 00       		.byte	0
 6760 0156 00       		.byte	0
 6761 0157 1B       		.uleb128 0x1b
 6762 0158 0B       		.uleb128 0xb
 6763 0159 01       		.byte	0x1
 6764 015a 11       		.uleb128 0x11
 6765 015b 01       		.uleb128 0x1
 6766 015c 12       		.uleb128 0x12
 6767 015d 06       		.uleb128 0x6
 6768 015e 01       		.uleb128 0x1
 6769 015f 13       		.uleb128 0x13
 6770 0160 00       		.byte	0
 6771 0161 00       		.byte	0
 6772 0162 1C       		.uleb128 0x1c
 6773 0163 898201   		.uleb128 0x4109
 6774 0166 01       		.byte	0x1
 6775 0167 11       		.uleb128 0x11
 6776 0168 01       		.uleb128 0x1
 6777 0169 31       		.uleb128 0x31
 6778 016a 13       		.uleb128 0x13
 6779 016b 01       		.uleb128 0x1
 6780 016c 13       		.uleb128 0x13
 6781 016d 00       		.byte	0
 6782 016e 00       		.byte	0
 6783 016f 1D       		.uleb128 0x1d
 6784 0170 8A8201   		.uleb128 0x410a
 6785 0173 00       		.byte	0
 6786 0174 02       		.uleb128 0x2
 6787 0175 18       		.uleb128 0x18
 6788 0176 9142     		.uleb128 0x2111
 6789 0178 18       		.uleb128 0x18
 6790 0179 00       		.byte	0
 6791 017a 00       		.byte	0
 6792 017b 1E       		.uleb128 0x1e
 6793 017c 898201   		.uleb128 0x4109
 6794 017f 01       		.byte	0x1
 6795 0180 11       		.uleb128 0x11
 6796 0181 01       		.uleb128 0x1
 6797 0182 31       		.uleb128 0x31
 6798 0183 13       		.uleb128 0x13
 6799 0184 00       		.byte	0
 6800 0185 00       		.byte	0
 6801 0186 1F       		.uleb128 0x1f
 6802 0187 0B       		.uleb128 0xb
 6803 0188 01       		.byte	0x1
 6804 0189 55       		.uleb128 0x55
 6805 018a 17       		.uleb128 0x17
 6806 018b 01       		.uleb128 0x1
 6807 018c 13       		.uleb128 0x13
ARM GAS  C:\Users\AHMED~1.ELE\AppData\Local\Temp\cciu15sF.s 			page 136


 6808 018d 00       		.byte	0
 6809 018e 00       		.byte	0
 6810 018f 20       		.uleb128 0x20
 6811 0190 898201   		.uleb128 0x4109
 6812 0193 00       		.byte	0
 6813 0194 11       		.uleb128 0x11
 6814 0195 01       		.uleb128 0x1
 6815 0196 31       		.uleb128 0x31
 6816 0197 13       		.uleb128 0x13
 6817 0198 00       		.byte	0
 6818 0199 00       		.byte	0
 6819 019a 21       		.uleb128 0x21
 6820 019b 2E       		.uleb128 0x2e
 6821 019c 01       		.byte	0x1
 6822 019d 31       		.uleb128 0x31
 6823 019e 13       		.uleb128 0x13
 6824 019f 11       		.uleb128 0x11
 6825 01a0 01       		.uleb128 0x1
 6826 01a1 12       		.uleb128 0x12
 6827 01a2 06       		.uleb128 0x6
 6828 01a3 40       		.uleb128 0x40
 6829 01a4 18       		.uleb128 0x18
 6830 01a5 9742     		.uleb128 0x2117
 6831 01a7 19       		.uleb128 0x19
 6832 01a8 01       		.uleb128 0x1
 6833 01a9 13       		.uleb128 0x13
 6834 01aa 00       		.byte	0
 6835 01ab 00       		.byte	0
 6836 01ac 22       		.uleb128 0x22
 6837 01ad 2E       		.uleb128 0x2e
 6838 01ae 01       		.byte	0x1
 6839 01af 3F       		.uleb128 0x3f
 6840 01b0 19       		.uleb128 0x19
 6841 01b1 03       		.uleb128 0x3
 6842 01b2 0E       		.uleb128 0xe
 6843 01b3 3A       		.uleb128 0x3a
 6844 01b4 0B       		.uleb128 0xb
 6845 01b5 3B       		.uleb128 0x3b
 6846 01b6 0B       		.uleb128 0xb
 6847 01b7 27       		.uleb128 0x27
 6848 01b8 19       		.uleb128 0x19
 6849 01b9 11       		.uleb128 0x11
 6850 01ba 01       		.uleb128 0x1
 6851 01bb 12       		.uleb128 0x12
 6852 01bc 06       		.uleb128 0x6
 6853 01bd 40       		.uleb128 0x40
 6854 01be 18       		.uleb128 0x18
 6855 01bf 9742     		.uleb128 0x2117
 6856 01c1 19       		.uleb128 0x19
 6857 01c2 01       		.uleb128 0x1
 6858 01c3 13       		.uleb128 0x13
 6859 01c4 00       		.byte	0
 6860 01c5 00       		.byte	0
 6861 01c6 23       		.uleb128 0x23
 6862 01c7 2E       		.uleb128 0x2e
 6863 01c8 01       		.byte	0x1
 6864 01c9 3F       		.uleb128 0x3f
ARM GAS  C:\Users\AHMED~1.ELE\AppData\Local\Temp\cciu15sF.s 			page 137


 6865 01ca 19       		.uleb128 0x19
 6866 01cb 03       		.uleb128 0x3
 6867 01cc 0E       		.uleb128 0xe
 6868 01cd 3A       		.uleb128 0x3a
 6869 01ce 0B       		.uleb128 0xb
 6870 01cf 3B       		.uleb128 0x3b
 6871 01d0 0B       		.uleb128 0xb
 6872 01d1 27       		.uleb128 0x27
 6873 01d2 19       		.uleb128 0x19
 6874 01d3 49       		.uleb128 0x49
 6875 01d4 13       		.uleb128 0x13
 6876 01d5 11       		.uleb128 0x11
 6877 01d6 01       		.uleb128 0x1
 6878 01d7 12       		.uleb128 0x12
 6879 01d8 06       		.uleb128 0x6
 6880 01d9 40       		.uleb128 0x40
 6881 01da 18       		.uleb128 0x18
 6882 01db 9742     		.uleb128 0x2117
 6883 01dd 19       		.uleb128 0x19
 6884 01de 01       		.uleb128 0x1
 6885 01df 13       		.uleb128 0x13
 6886 01e0 00       		.byte	0
 6887 01e1 00       		.byte	0
 6888 01e2 24       		.uleb128 0x24
 6889 01e3 05       		.uleb128 0x5
 6890 01e4 00       		.byte	0
 6891 01e5 03       		.uleb128 0x3
 6892 01e6 0E       		.uleb128 0xe
 6893 01e7 3A       		.uleb128 0x3a
 6894 01e8 0B       		.uleb128 0xb
 6895 01e9 3B       		.uleb128 0x3b
 6896 01ea 0B       		.uleb128 0xb
 6897 01eb 49       		.uleb128 0x49
 6898 01ec 13       		.uleb128 0x13
 6899 01ed 02       		.uleb128 0x2
 6900 01ee 17       		.uleb128 0x17
 6901 01ef 00       		.byte	0
 6902 01f0 00       		.byte	0
 6903 01f1 25       		.uleb128 0x25
 6904 01f2 898201   		.uleb128 0x4109
 6905 01f5 01       		.byte	0x1
 6906 01f6 11       		.uleb128 0x11
 6907 01f7 01       		.uleb128 0x1
 6908 01f8 9542     		.uleb128 0x2115
 6909 01fa 19       		.uleb128 0x19
 6910 01fb 31       		.uleb128 0x31
 6911 01fc 13       		.uleb128 0x13
 6912 01fd 00       		.byte	0
 6913 01fe 00       		.byte	0
 6914 01ff 26       		.uleb128 0x26
 6915 0200 34       		.uleb128 0x34
 6916 0201 00       		.byte	0
 6917 0202 03       		.uleb128 0x3
 6918 0203 08       		.uleb128 0x8
 6919 0204 3A       		.uleb128 0x3a
 6920 0205 0B       		.uleb128 0xb
 6921 0206 3B       		.uleb128 0x3b
ARM GAS  C:\Users\AHMED~1.ELE\AppData\Local\Temp\cciu15sF.s 			page 138


 6922 0207 0B       		.uleb128 0xb
 6923 0208 49       		.uleb128 0x49
 6924 0209 13       		.uleb128 0x13
 6925 020a 02       		.uleb128 0x2
 6926 020b 17       		.uleb128 0x17
 6927 020c 00       		.byte	0
 6928 020d 00       		.byte	0
 6929 020e 27       		.uleb128 0x27
 6930 020f 2E       		.uleb128 0x2e
 6931 0210 01       		.byte	0x1
 6932 0211 03       		.uleb128 0x3
 6933 0212 0E       		.uleb128 0xe
 6934 0213 3A       		.uleb128 0x3a
 6935 0214 0B       		.uleb128 0xb
 6936 0215 3B       		.uleb128 0x3b
 6937 0216 05       		.uleb128 0x5
 6938 0217 27       		.uleb128 0x27
 6939 0218 19       		.uleb128 0x19
 6940 0219 20       		.uleb128 0x20
 6941 021a 0B       		.uleb128 0xb
 6942 021b 01       		.uleb128 0x1
 6943 021c 13       		.uleb128 0x13
 6944 021d 00       		.byte	0
 6945 021e 00       		.byte	0
 6946 021f 28       		.uleb128 0x28
 6947 0220 34       		.uleb128 0x34
 6948 0221 00       		.byte	0
 6949 0222 03       		.uleb128 0x3
 6950 0223 08       		.uleb128 0x8
 6951 0224 3A       		.uleb128 0x3a
 6952 0225 0B       		.uleb128 0xb
 6953 0226 3B       		.uleb128 0x3b
 6954 0227 05       		.uleb128 0x5
 6955 0228 49       		.uleb128 0x49
 6956 0229 13       		.uleb128 0x13
 6957 022a 00       		.byte	0
 6958 022b 00       		.byte	0
 6959 022c 29       		.uleb128 0x29
 6960 022d 34       		.uleb128 0x34
 6961 022e 00       		.byte	0
 6962 022f 03       		.uleb128 0x3
 6963 0230 0E       		.uleb128 0xe
 6964 0231 3A       		.uleb128 0x3a
 6965 0232 0B       		.uleb128 0xb
 6966 0233 3B       		.uleb128 0x3b
 6967 0234 05       		.uleb128 0x5
 6968 0235 49       		.uleb128 0x49
 6969 0236 13       		.uleb128 0x13
 6970 0237 1C       		.uleb128 0x1c
 6971 0238 0A       		.uleb128 0xa
 6972 0239 00       		.byte	0
 6973 023a 00       		.byte	0
 6974 023b 2A       		.uleb128 0x2a
 6975 023c 0A       		.uleb128 0xa
 6976 023d 00       		.byte	0
 6977 023e 03       		.uleb128 0x3
 6978 023f 0E       		.uleb128 0xe
ARM GAS  C:\Users\AHMED~1.ELE\AppData\Local\Temp\cciu15sF.s 			page 139


 6979 0240 3A       		.uleb128 0x3a
 6980 0241 0B       		.uleb128 0xb
 6981 0242 3B       		.uleb128 0x3b
 6982 0243 05       		.uleb128 0x5
 6983 0244 00       		.byte	0
 6984 0245 00       		.byte	0
 6985 0246 2B       		.uleb128 0x2b
 6986 0247 0B       		.uleb128 0xb
 6987 0248 01       		.byte	0x1
 6988 0249 00       		.byte	0
 6989 024a 00       		.byte	0
 6990 024b 2C       		.uleb128 0x2c
 6991 024c 2E       		.uleb128 0x2e
 6992 024d 01       		.byte	0x1
 6993 024e 3F       		.uleb128 0x3f
 6994 024f 19       		.uleb128 0x19
 6995 0250 03       		.uleb128 0x3
 6996 0251 0E       		.uleb128 0xe
 6997 0252 3A       		.uleb128 0x3a
 6998 0253 0B       		.uleb128 0xb
 6999 0254 3B       		.uleb128 0x3b
 7000 0255 05       		.uleb128 0x5
 7001 0256 27       		.uleb128 0x27
 7002 0257 19       		.uleb128 0x19
 7003 0258 49       		.uleb128 0x49
 7004 0259 13       		.uleb128 0x13
 7005 025a 11       		.uleb128 0x11
 7006 025b 01       		.uleb128 0x1
 7007 025c 12       		.uleb128 0x12
 7008 025d 06       		.uleb128 0x6
 7009 025e 40       		.uleb128 0x40
 7010 025f 18       		.uleb128 0x18
 7011 0260 9642     		.uleb128 0x2116
 7012 0262 19       		.uleb128 0x19
 7013 0263 01       		.uleb128 0x1
 7014 0264 13       		.uleb128 0x13
 7015 0265 00       		.byte	0
 7016 0266 00       		.byte	0
 7017 0267 2D       		.uleb128 0x2d
 7018 0268 05       		.uleb128 0x5
 7019 0269 00       		.byte	0
 7020 026a 03       		.uleb128 0x3
 7021 026b 0E       		.uleb128 0xe
 7022 026c 3A       		.uleb128 0x3a
 7023 026d 0B       		.uleb128 0xb
 7024 026e 3B       		.uleb128 0x3b
 7025 026f 05       		.uleb128 0x5
 7026 0270 49       		.uleb128 0x49
 7027 0271 13       		.uleb128 0x13
 7028 0272 02       		.uleb128 0x2
 7029 0273 17       		.uleb128 0x17
 7030 0274 00       		.byte	0
 7031 0275 00       		.byte	0
 7032 0276 2E       		.uleb128 0x2e
 7033 0277 34       		.uleb128 0x34
 7034 0278 00       		.byte	0
 7035 0279 03       		.uleb128 0x3
ARM GAS  C:\Users\AHMED~1.ELE\AppData\Local\Temp\cciu15sF.s 			page 140


 7036 027a 0E       		.uleb128 0xe
 7037 027b 3A       		.uleb128 0x3a
 7038 027c 0B       		.uleb128 0xb
 7039 027d 3B       		.uleb128 0x3b
 7040 027e 05       		.uleb128 0x5
 7041 027f 49       		.uleb128 0x49
 7042 0280 13       		.uleb128 0x13
 7043 0281 02       		.uleb128 0x2
 7044 0282 17       		.uleb128 0x17
 7045 0283 00       		.byte	0
 7046 0284 00       		.byte	0
 7047 0285 2F       		.uleb128 0x2f
 7048 0286 1D       		.uleb128 0x1d
 7049 0287 01       		.byte	0x1
 7050 0288 31       		.uleb128 0x31
 7051 0289 13       		.uleb128 0x13
 7052 028a 52       		.uleb128 0x52
 7053 028b 01       		.uleb128 0x1
 7054 028c 55       		.uleb128 0x55
 7055 028d 17       		.uleb128 0x17
 7056 028e 58       		.uleb128 0x58
 7057 028f 0B       		.uleb128 0xb
 7058 0290 59       		.uleb128 0x59
 7059 0291 05       		.uleb128 0x5
 7060 0292 01       		.uleb128 0x1
 7061 0293 13       		.uleb128 0x13
 7062 0294 00       		.byte	0
 7063 0295 00       		.byte	0
 7064 0296 30       		.uleb128 0x30
 7065 0297 0B       		.uleb128 0xb
 7066 0298 01       		.byte	0x1
 7067 0299 55       		.uleb128 0x55
 7068 029a 17       		.uleb128 0x17
 7069 029b 00       		.byte	0
 7070 029c 00       		.byte	0
 7071 029d 31       		.uleb128 0x31
 7072 029e 34       		.uleb128 0x34
 7073 029f 00       		.byte	0
 7074 02a0 31       		.uleb128 0x31
 7075 02a1 13       		.uleb128 0x13
 7076 02a2 02       		.uleb128 0x2
 7077 02a3 17       		.uleb128 0x17
 7078 02a4 00       		.byte	0
 7079 02a5 00       		.byte	0
 7080 02a6 32       		.uleb128 0x32
 7081 02a7 0A       		.uleb128 0xa
 7082 02a8 00       		.byte	0
 7083 02a9 31       		.uleb128 0x31
 7084 02aa 13       		.uleb128 0x13
 7085 02ab 11       		.uleb128 0x11
 7086 02ac 01       		.uleb128 0x1
 7087 02ad 00       		.byte	0
 7088 02ae 00       		.byte	0
 7089 02af 33       		.uleb128 0x33
 7090 02b0 34       		.uleb128 0x34
 7091 02b1 00       		.byte	0
 7092 02b2 31       		.uleb128 0x31
ARM GAS  C:\Users\AHMED~1.ELE\AppData\Local\Temp\cciu15sF.s 			page 141


 7093 02b3 13       		.uleb128 0x13
 7094 02b4 02       		.uleb128 0x2
 7095 02b5 18       		.uleb128 0x18
 7096 02b6 00       		.byte	0
 7097 02b7 00       		.byte	0
 7098 02b8 34       		.uleb128 0x34
 7099 02b9 34       		.uleb128 0x34
 7100 02ba 00       		.byte	0
 7101 02bb 31       		.uleb128 0x31
 7102 02bc 13       		.uleb128 0x13
 7103 02bd 00       		.byte	0
 7104 02be 00       		.byte	0
 7105 02bf 35       		.uleb128 0x35
 7106 02c0 34       		.uleb128 0x34
 7107 02c1 00       		.byte	0
 7108 02c2 03       		.uleb128 0x3
 7109 02c3 0E       		.uleb128 0xe
 7110 02c4 3A       		.uleb128 0x3a
 7111 02c5 0B       		.uleb128 0xb
 7112 02c6 3B       		.uleb128 0x3b
 7113 02c7 0B       		.uleb128 0xb
 7114 02c8 49       		.uleb128 0x49
 7115 02c9 13       		.uleb128 0x13
 7116 02ca 3F       		.uleb128 0x3f
 7117 02cb 19       		.uleb128 0x19
 7118 02cc 3C       		.uleb128 0x3c
 7119 02cd 19       		.uleb128 0x19
 7120 02ce 00       		.byte	0
 7121 02cf 00       		.byte	0
 7122 02d0 36       		.uleb128 0x36
 7123 02d1 2E       		.uleb128 0x2e
 7124 02d2 00       		.byte	0
 7125 02d3 3F       		.uleb128 0x3f
 7126 02d4 19       		.uleb128 0x19
 7127 02d5 03       		.uleb128 0x3
 7128 02d6 0E       		.uleb128 0xe
 7129 02d7 3A       		.uleb128 0x3a
 7130 02d8 0B       		.uleb128 0xb
 7131 02d9 3B       		.uleb128 0x3b
 7132 02da 0B       		.uleb128 0xb
 7133 02db 27       		.uleb128 0x27
 7134 02dc 19       		.uleb128 0x19
 7135 02dd 3C       		.uleb128 0x3c
 7136 02de 19       		.uleb128 0x19
 7137 02df 00       		.byte	0
 7138 02e0 00       		.byte	0
 7139 02e1 37       		.uleb128 0x37
 7140 02e2 2E       		.uleb128 0x2e
 7141 02e3 01       		.byte	0x1
 7142 02e4 3F       		.uleb128 0x3f
 7143 02e5 19       		.uleb128 0x19
 7144 02e6 03       		.uleb128 0x3
 7145 02e7 0E       		.uleb128 0xe
 7146 02e8 3A       		.uleb128 0x3a
 7147 02e9 0B       		.uleb128 0xb
 7148 02ea 3B       		.uleb128 0x3b
 7149 02eb 0B       		.uleb128 0xb
ARM GAS  C:\Users\AHMED~1.ELE\AppData\Local\Temp\cciu15sF.s 			page 142


 7150 02ec 27       		.uleb128 0x27
 7151 02ed 19       		.uleb128 0x19
 7152 02ee 49       		.uleb128 0x49
 7153 02ef 13       		.uleb128 0x13
 7154 02f0 3C       		.uleb128 0x3c
 7155 02f1 19       		.uleb128 0x19
 7156 02f2 01       		.uleb128 0x1
 7157 02f3 13       		.uleb128 0x13
 7158 02f4 00       		.byte	0
 7159 02f5 00       		.byte	0
 7160 02f6 38       		.uleb128 0x38
 7161 02f7 05       		.uleb128 0x5
 7162 02f8 00       		.byte	0
 7163 02f9 49       		.uleb128 0x49
 7164 02fa 13       		.uleb128 0x13
 7165 02fb 00       		.byte	0
 7166 02fc 00       		.byte	0
 7167 02fd 39       		.uleb128 0x39
 7168 02fe 2E       		.uleb128 0x2e
 7169 02ff 01       		.byte	0x1
 7170 0300 3F       		.uleb128 0x3f
 7171 0301 19       		.uleb128 0x19
 7172 0302 03       		.uleb128 0x3
 7173 0303 0E       		.uleb128 0xe
 7174 0304 27       		.uleb128 0x27
 7175 0305 19       		.uleb128 0x19
 7176 0306 49       		.uleb128 0x49
 7177 0307 13       		.uleb128 0x13
 7178 0308 34       		.uleb128 0x34
 7179 0309 19       		.uleb128 0x19
 7180 030a 3C       		.uleb128 0x3c
 7181 030b 19       		.uleb128 0x19
 7182 030c 01       		.uleb128 0x1
 7183 030d 13       		.uleb128 0x13
 7184 030e 00       		.byte	0
 7185 030f 00       		.byte	0
 7186 0310 3A       		.uleb128 0x3a
 7187 0311 2E       		.uleb128 0x2e
 7188 0312 01       		.byte	0x1
 7189 0313 3F       		.uleb128 0x3f
 7190 0314 19       		.uleb128 0x19
 7191 0315 03       		.uleb128 0x3
 7192 0316 0E       		.uleb128 0xe
 7193 0317 3A       		.uleb128 0x3a
 7194 0318 0B       		.uleb128 0xb
 7195 0319 3B       		.uleb128 0x3b
 7196 031a 0B       		.uleb128 0xb
 7197 031b 27       		.uleb128 0x27
 7198 031c 19       		.uleb128 0x19
 7199 031d 3C       		.uleb128 0x3c
 7200 031e 19       		.uleb128 0x19
 7201 031f 01       		.uleb128 0x1
 7202 0320 13       		.uleb128 0x13
 7203 0321 00       		.byte	0
 7204 0322 00       		.byte	0
 7205 0323 3B       		.uleb128 0x3b
 7206 0324 2E       		.uleb128 0x2e
ARM GAS  C:\Users\AHMED~1.ELE\AppData\Local\Temp\cciu15sF.s 			page 143


 7207 0325 01       		.byte	0x1
 7208 0326 3F       		.uleb128 0x3f
 7209 0327 19       		.uleb128 0x19
 7210 0328 03       		.uleb128 0x3
 7211 0329 0E       		.uleb128 0xe
 7212 032a 3A       		.uleb128 0x3a
 7213 032b 0B       		.uleb128 0xb
 7214 032c 3B       		.uleb128 0x3b
 7215 032d 0B       		.uleb128 0xb
 7216 032e 27       		.uleb128 0x27
 7217 032f 19       		.uleb128 0x19
 7218 0330 49       		.uleb128 0x49
 7219 0331 13       		.uleb128 0x13
 7220 0332 3C       		.uleb128 0x3c
 7221 0333 19       		.uleb128 0x19
 7222 0334 00       		.byte	0
 7223 0335 00       		.byte	0
 7224 0336 00       		.byte	0
 7225              		.section	.debug_loc,"",%progbits
 7226              	.Ldebug_loc0:
 7227              	.LLST0:
 7228 0000 22000000 		.4byte	.LVL1
 7229 0004 44000000 		.4byte	.LVL6
 7230 0008 0100     		.2byte	0x1
 7231 000a 58       		.byte	0x58
 7232 000b 44000000 		.4byte	.LVL6
 7233 000f 46000000 		.4byte	.LVL7
 7234 0013 0300     		.2byte	0x3
 7235 0015 74       		.byte	0x74
 7236 0016 01       		.sleb128 1
 7237 0017 9F       		.byte	0x9f
 7238 0018 46000000 		.4byte	.LVL7
 7239 001c 4C000000 		.4byte	.LVL8
 7240 0020 0300     		.2byte	0x3
 7241 0022 78       		.byte	0x78
 7242 0023 01       		.sleb128 1
 7243 0024 9F       		.byte	0x9f
 7244 0025 00000000 		.4byte	0
 7245 0029 00000000 		.4byte	0
 7246              	.LLST1:
 7247 002d 22000000 		.4byte	.LVL1
 7248 0031 28000000 		.4byte	.LVL2
 7249 0035 0200     		.2byte	0x2
 7250 0037 30       		.byte	0x30
 7251 0038 9F       		.byte	0x9f
 7252 0039 3E000000 		.4byte	.LVL4
 7253 003d 40000000 		.4byte	.LVL5
 7254 0041 0100     		.2byte	0x1
 7255 0043 50       		.byte	0x50
 7256 0044 40000000 		.4byte	.LVL5
 7257 0048 44000000 		.4byte	.LVL6
 7258 004c 0300     		.2byte	0x3
 7259 004e 70       		.byte	0x70
 7260 004f 01       		.sleb128 1
 7261 0050 9F       		.byte	0x9f
 7262 0051 44000000 		.4byte	.LVL6
 7263 0055 4C000000 		.4byte	.LVL8
ARM GAS  C:\Users\AHMED~1.ELE\AppData\Local\Temp\cciu15sF.s 			page 144


 7264 0059 0200     		.2byte	0x2
 7265 005b 39       		.byte	0x39
 7266 005c 9F       		.byte	0x9f
 7267 005d 4C000000 		.4byte	.LVL8
 7268 0061 84000000 		.4byte	.LFE9
 7269 0065 0100     		.2byte	0x1
 7270 0067 50       		.byte	0x50
 7271 0068 00000000 		.4byte	0
 7272 006c 00000000 		.4byte	0
 7273              	.LLST2:
 7274 0070 82000000 		.4byte	.LVL16
 7275 0074 95000000 		.4byte	.LVL17-1
 7276 0078 0B00     		.2byte	0xb
 7277 007a 03       		.byte	0x3
 7278 007b 54000000 		.4byte	gKbdGDS+84
 7279 007f 94       		.byte	0x94
 7280 0080 01       		.byte	0x1
 7281 0081 72       		.byte	0x72
 7282 0082 00       		.sleb128 0
 7283 0083 1C       		.byte	0x1c
 7284 0084 9F       		.byte	0x9f
 7285 0085 00000000 		.4byte	0
 7286 0089 00000000 		.4byte	0
 7287              	.LLST3:
 7288 008d 00000000 		.4byte	.LVL10
 7289 0091 C4010000 		.4byte	.LVL36
 7290 0095 0600     		.2byte	0x6
 7291 0097 03       		.byte	0x3
 7292 0098 55000000 		.4byte	gKbdGDS+85
 7293 009c 9F       		.byte	0x9f
 7294 009d C4010000 		.4byte	.LVL36
 7295 00a1 0E020000 		.4byte	.LVL42
 7296 00a5 0100     		.2byte	0x1
 7297 00a7 55       		.byte	0x55
 7298 00a8 0E020000 		.4byte	.LVL42
 7299 00ac 90030000 		.4byte	.LVL75
 7300 00b0 0600     		.2byte	0x6
 7301 00b2 03       		.byte	0x3
 7302 00b3 55000000 		.4byte	gKbdGDS+85
 7303 00b7 9F       		.byte	0x9f
 7304 00b8 90030000 		.4byte	.LVL75
 7305 00bc DC030000 		.4byte	.LVL83
 7306 00c0 0100     		.2byte	0x1
 7307 00c2 55       		.byte	0x55
 7308 00c3 00000000 		.4byte	0
 7309 00c7 00000000 		.4byte	0
 7310              	.LLST4:
 7311 00cb 28010000 		.4byte	.LVL23
 7312 00cf 2C010000 		.4byte	.LVL24
 7313 00d3 0100     		.2byte	0x1
 7314 00d5 50       		.byte	0x50
 7315 00d6 2C010000 		.4byte	.LVL24
 7316 00da 5C010000 		.4byte	.LVL27
 7317 00de 0100     		.2byte	0x1
 7318 00e0 56       		.byte	0x56
 7319 00e1 00000000 		.4byte	0
 7320 00e5 00000000 		.4byte	0
ARM GAS  C:\Users\AHMED~1.ELE\AppData\Local\Temp\cciu15sF.s 			page 145


 7321              	.LLST5:
 7322 00e9 30010000 		.4byte	.LVL25
 7323 00ed 41010000 		.4byte	.LVL26-1
 7324 00f1 0100     		.2byte	0x1
 7325 00f3 50       		.byte	0x50
 7326 00f4 41010000 		.4byte	.LVL26-1
 7327 00f8 5C010000 		.4byte	.LVL27
 7328 00fc 0100     		.2byte	0x1
 7329 00fe 55       		.byte	0x55
 7330 00ff 00000000 		.4byte	0
 7331 0103 00000000 		.4byte	0
 7332              	.LLST6:
 7333 0107 7C010000 		.4byte	.LVL30
 7334 010b 82010000 		.4byte	.LVL31
 7335 010f 0100     		.2byte	0x1
 7336 0111 50       		.byte	0x50
 7337 0112 82010000 		.4byte	.LVL31
 7338 0116 0E020000 		.4byte	.LVL42
 7339 011a 0100     		.2byte	0x1
 7340 011c 59       		.byte	0x59
 7341 011d 00000000 		.4byte	0
 7342 0121 00000000 		.4byte	0
 7343              	.LLST7:
 7344 0125 86010000 		.4byte	.LVL32
 7345 0129 91010000 		.4byte	.LVL33-1
 7346 012d 0100     		.2byte	0x1
 7347 012f 50       		.byte	0x50
 7348 0130 91010000 		.4byte	.LVL33-1
 7349 0134 0E020000 		.4byte	.LVL42
 7350 0138 0100     		.2byte	0x1
 7351 013a 58       		.byte	0x58
 7352 013b 00000000 		.4byte	0
 7353 013f 00000000 		.4byte	0
 7354              	.LLST8:
 7355 0143 CE010000 		.4byte	.LVL38
 7356 0147 D2010000 		.4byte	.LVL39
 7357 014b 0100     		.2byte	0x1
 7358 014d 50       		.byte	0x50
 7359 014e D2010000 		.4byte	.LVL39
 7360 0152 0E020000 		.4byte	.LVL42
 7361 0156 0100     		.2byte	0x1
 7362 0158 56       		.byte	0x56
 7363 0159 00000000 		.4byte	0
 7364 015d 00000000 		.4byte	0
 7365              	.LLST9:
 7366 0161 D6010000 		.4byte	.LVL40
 7367 0165 E5010000 		.4byte	.LVL41-1
 7368 0169 0100     		.2byte	0x1
 7369 016b 50       		.byte	0x50
 7370 016c E5010000 		.4byte	.LVL41-1
 7371 0170 0E020000 		.4byte	.LVL42
 7372 0174 0100     		.2byte	0x1
 7373 0176 54       		.byte	0x54
 7374 0177 00000000 		.4byte	0
 7375 017b 00000000 		.4byte	0
 7376              	.LLST10:
 7377 017f 34020000 		.4byte	.LVL45
ARM GAS  C:\Users\AHMED~1.ELE\AppData\Local\Temp\cciu15sF.s 			page 146


 7378 0183 38020000 		.4byte	.LVL46
 7379 0187 0100     		.2byte	0x1
 7380 0189 50       		.byte	0x50
 7381 018a 38020000 		.4byte	.LVL46
 7382 018e 54020000 		.4byte	.LVL49
 7383 0192 0100     		.2byte	0x1
 7384 0194 56       		.byte	0x56
 7385 0195 00000000 		.4byte	0
 7386 0199 00000000 		.4byte	0
 7387              	.LLST11:
 7388 019d 3C020000 		.4byte	.LVL47
 7389 01a1 4D020000 		.4byte	.LVL48-1
 7390 01a5 0100     		.2byte	0x1
 7391 01a7 50       		.byte	0x50
 7392 01a8 4D020000 		.4byte	.LVL48-1
 7393 01ac 54020000 		.4byte	.LVL49
 7394 01b0 0100     		.2byte	0x1
 7395 01b2 55       		.byte	0x55
 7396 01b3 00000000 		.4byte	0
 7397 01b7 00000000 		.4byte	0
 7398              	.LLST12:
 7399 01bb 74020000 		.4byte	.LVL52
 7400 01bf 7A020000 		.4byte	.LVL53
 7401 01c3 0100     		.2byte	0x1
 7402 01c5 50       		.byte	0x50
 7403 01c6 7A020000 		.4byte	.LVL53
 7404 01ca BA020000 		.4byte	.LVL57
 7405 01ce 0100     		.2byte	0x1
 7406 01d0 59       		.byte	0x59
 7407 01d1 00000000 		.4byte	0
 7408 01d5 00000000 		.4byte	0
 7409              	.LLST13:
 7410 01d9 7E020000 		.4byte	.LVL54
 7411 01dd 8D020000 		.4byte	.LVL55-1
 7412 01e1 0100     		.2byte	0x1
 7413 01e3 50       		.byte	0x50
 7414 01e4 8D020000 		.4byte	.LVL55-1
 7415 01e8 BA020000 		.4byte	.LVL57
 7416 01ec 0100     		.2byte	0x1
 7417 01ee 57       		.byte	0x57
 7418 01ef 00000000 		.4byte	0
 7419 01f3 00000000 		.4byte	0
 7420              	.LLST14:
 7421 01f7 D8020000 		.4byte	.LVL60
 7422 01fb DC020000 		.4byte	.LVL61
 7423 01ff 0100     		.2byte	0x1
 7424 0201 50       		.byte	0x50
 7425 0202 DC020000 		.4byte	.LVL61
 7426 0206 F2020000 		.4byte	.LVL64
 7427 020a 0100     		.2byte	0x1
 7428 020c 56       		.byte	0x56
 7429 020d 00000000 		.4byte	0
 7430 0211 00000000 		.4byte	0
 7431              	.LLST15:
 7432 0215 E0020000 		.4byte	.LVL62
 7433 0219 EF020000 		.4byte	.LVL63-1
 7434 021d 0100     		.2byte	0x1
ARM GAS  C:\Users\AHMED~1.ELE\AppData\Local\Temp\cciu15sF.s 			page 147


 7435 021f 50       		.byte	0x50
 7436 0220 EF020000 		.4byte	.LVL63-1
 7437 0224 F2020000 		.4byte	.LVL64
 7438 0228 0100     		.2byte	0x1
 7439 022a 55       		.byte	0x55
 7440 022b 00000000 		.4byte	0
 7441 022f 00000000 		.4byte	0
 7442              	.LLST16:
 7443 0233 48030000 		.4byte	.LVL68
 7444 0237 4E030000 		.4byte	.LVL69
 7445 023b 0100     		.2byte	0x1
 7446 023d 50       		.byte	0x50
 7447 023e 4E030000 		.4byte	.LVL69
 7448 0242 88030000 		.4byte	.LVL73
 7449 0246 0100     		.2byte	0x1
 7450 0248 59       		.byte	0x59
 7451 0249 00000000 		.4byte	0
 7452 024d 00000000 		.4byte	0
 7453              	.LLST17:
 7454 0251 52030000 		.4byte	.LVL70
 7455 0255 5D030000 		.4byte	.LVL71-1
 7456 0259 0100     		.2byte	0x1
 7457 025b 50       		.byte	0x50
 7458 025c 5D030000 		.4byte	.LVL71-1
 7459 0260 88030000 		.4byte	.LVL73
 7460 0264 0100     		.2byte	0x1
 7461 0266 58       		.byte	0x58
 7462 0267 00000000 		.4byte	0
 7463 026b 00000000 		.4byte	0
 7464              	.LLST18:
 7465 026f 9A030000 		.4byte	.LVL77
 7466 0273 9E030000 		.4byte	.LVL78
 7467 0277 0100     		.2byte	0x1
 7468 0279 50       		.byte	0x50
 7469 027a 9E030000 		.4byte	.LVL78
 7470 027e D4030000 		.4byte	.LVL81
 7471 0282 0100     		.2byte	0x1
 7472 0284 56       		.byte	0x56
 7473 0285 00000000 		.4byte	0
 7474 0289 00000000 		.4byte	0
 7475              	.LLST19:
 7476 028d A2030000 		.4byte	.LVL79
 7477 0291 AD030000 		.4byte	.LVL80-1
 7478 0295 0100     		.2byte	0x1
 7479 0297 50       		.byte	0x50
 7480 0298 AD030000 		.4byte	.LVL80-1
 7481 029c D4030000 		.4byte	.LVL81
 7482 02a0 0100     		.2byte	0x1
 7483 02a2 54       		.byte	0x54
 7484 02a3 00000000 		.4byte	0
 7485 02a7 00000000 		.4byte	0
 7486              	.LLST20:
 7487 02ab 14000000 		.4byte	.LVL90
 7488 02af 1A000000 		.4byte	.LVL91
 7489 02b3 0100     		.2byte	0x1
 7490 02b5 50       		.byte	0x50
 7491 02b6 00000000 		.4byte	0
ARM GAS  C:\Users\AHMED~1.ELE\AppData\Local\Temp\cciu15sF.s 			page 148


 7492 02ba 00000000 		.4byte	0
 7493              	.LLST21:
 7494 02be 00000000 		.4byte	.LVL93
 7495 02c2 07000000 		.4byte	.LVL94-1
 7496 02c6 0100     		.2byte	0x1
 7497 02c8 50       		.byte	0x50
 7498 02c9 07000000 		.4byte	.LVL94-1
 7499 02cd 14000000 		.4byte	.LVL95
 7500 02d1 0100     		.2byte	0x1
 7501 02d3 54       		.byte	0x54
 7502 02d4 14000000 		.4byte	.LVL95
 7503 02d8 1D000000 		.4byte	.LVL96-1
 7504 02dc 0100     		.2byte	0x1
 7505 02de 52       		.byte	0x52
 7506 02df 1D000000 		.4byte	.LVL96-1
 7507 02e3 24000000 		.4byte	.LFE3
 7508 02e7 0400     		.2byte	0x4
 7509 02e9 F3       		.byte	0xf3
 7510 02ea 01       		.uleb128 0x1
 7511 02eb 50       		.byte	0x50
 7512 02ec 9F       		.byte	0x9f
 7513 02ed 00000000 		.4byte	0
 7514 02f1 00000000 		.4byte	0
 7515              	.LLST22:
 7516 02f5 00000000 		.4byte	.LVL99
 7517 02f9 04000000 		.4byte	.LVL100
 7518 02fd 0100     		.2byte	0x1
 7519 02ff 50       		.byte	0x50
 7520 0300 04000000 		.4byte	.LVL100
 7521 0304 2A000000 		.4byte	.LFE5
 7522 0308 0100     		.2byte	0x1
 7523 030a 55       		.byte	0x55
 7524 030b 00000000 		.4byte	0
 7525 030f 00000000 		.4byte	0
 7526              	.LLST23:
 7527 0313 04000000 		.4byte	.LVL100
 7528 0317 06000000 		.4byte	.LVL101
 7529 031b 0200     		.2byte	0x2
 7530 031d 30       		.byte	0x30
 7531 031e 9F       		.byte	0x9f
 7532 031f 1C000000 		.4byte	.LVL103
 7533 0323 2A000000 		.4byte	.LFE5
 7534 0327 0100     		.2byte	0x1
 7535 0329 50       		.byte	0x50
 7536 032a 00000000 		.4byte	0
 7537 032e 00000000 		.4byte	0
 7538              	.LLST24:
 7539 0332 04000000 		.4byte	.LVL100
 7540 0336 06000000 		.4byte	.LVL101
 7541 033a 0200     		.2byte	0x2
 7542 033c 30       		.byte	0x30
 7543 033d 9F       		.byte	0x9f
 7544 033e 06000000 		.4byte	.LVL101
 7545 0342 1C000000 		.4byte	.LVL103
 7546 0346 0100     		.2byte	0x1
 7547 0348 54       		.byte	0x54
 7548 0349 1C000000 		.4byte	.LVL103
ARM GAS  C:\Users\AHMED~1.ELE\AppData\Local\Temp\cciu15sF.s 			page 149


 7549 034d 22000000 		.4byte	.LVL104
 7550 0351 0300     		.2byte	0x3
 7551 0353 74       		.byte	0x74
 7552 0354 01       		.sleb128 1
 7553 0355 9F       		.byte	0x9f
 7554 0356 22000000 		.4byte	.LVL104
 7555 035a 26000000 		.4byte	.LVL105
 7556 035e 0100     		.2byte	0x1
 7557 0360 54       		.byte	0x54
 7558 0361 00000000 		.4byte	0
 7559 0365 00000000 		.4byte	0
 7560              	.LLST25:
 7561 0369 00000000 		.4byte	.LVL106
 7562 036d 07000000 		.4byte	.LVL107-1
 7563 0371 0100     		.2byte	0x1
 7564 0373 50       		.byte	0x50
 7565 0374 07000000 		.4byte	.LVL107-1
 7566 0378 80000000 		.4byte	.LFE6
 7567 037c 0400     		.2byte	0x4
 7568 037e F3       		.byte	0xf3
 7569 037f 01       		.uleb128 0x1
 7570 0380 50       		.byte	0x50
 7571 0381 9F       		.byte	0x9f
 7572 0382 00000000 		.4byte	0
 7573 0386 00000000 		.4byte	0
 7574              	.LLST26:
 7575 038a 00000000 		.4byte	.LVL106
 7576 038e 07000000 		.4byte	.LVL107-1
 7577 0392 0100     		.2byte	0x1
 7578 0394 51       		.byte	0x51
 7579 0395 07000000 		.4byte	.LVL107-1
 7580 0399 7C000000 		.4byte	.LVL117
 7581 039d 0100     		.2byte	0x1
 7582 039f 54       		.byte	0x54
 7583 03a0 7C000000 		.4byte	.LVL117
 7584 03a4 80000000 		.4byte	.LFE6
 7585 03a8 0400     		.2byte	0x4
 7586 03aa F3       		.byte	0xf3
 7587 03ab 01       		.uleb128 0x1
 7588 03ac 51       		.byte	0x51
 7589 03ad 9F       		.byte	0x9f
 7590 03ae 00000000 		.4byte	0
 7591 03b2 00000000 		.4byte	0
 7592              	.LLST27:
 7593 03b6 0C000000 		.4byte	.LVL108
 7594 03ba 14000000 		.4byte	.LVL109
 7595 03be 0100     		.2byte	0x1
 7596 03c0 50       		.byte	0x50
 7597 03c1 1A000000 		.4byte	.LVL110
 7598 03c5 1E000000 		.4byte	.LVL111
 7599 03c9 0100     		.2byte	0x1
 7600 03cb 50       		.byte	0x50
 7601 03cc 1E000000 		.4byte	.LVL111
 7602 03d0 25000000 		.4byte	.LVL112-1
 7603 03d4 0100     		.2byte	0x1
 7604 03d6 52       		.byte	0x52
 7605 03d7 76000000 		.4byte	.LVL116
ARM GAS  C:\Users\AHMED~1.ELE\AppData\Local\Temp\cciu15sF.s 			page 150


 7606 03db 80000000 		.4byte	.LFE6
 7607 03df 0100     		.2byte	0x1
 7608 03e1 52       		.byte	0x52
 7609 03e2 00000000 		.4byte	0
 7610 03e6 00000000 		.4byte	0
 7611              	.LLST28:
 7612 03ea 00000000 		.4byte	.LVL119
 7613 03ee 0A000000 		.4byte	.LVL120
 7614 03f2 0100     		.2byte	0x1
 7615 03f4 50       		.byte	0x50
 7616 03f5 0A000000 		.4byte	.LVL120
 7617 03f9 9C000000 		.4byte	.LVL127
 7618 03fd 0100     		.2byte	0x1
 7619 03ff 57       		.byte	0x57
 7620 0400 9C000000 		.4byte	.LVL127
 7621 0404 CC040000 		.4byte	.LFE11
 7622 0408 0400     		.2byte	0x4
 7623 040a F3       		.byte	0xf3
 7624 040b 01       		.uleb128 0x1
 7625 040c 50       		.byte	0x50
 7626 040d 9F       		.byte	0x9f
 7627 040e 00000000 		.4byte	0
 7628 0412 00000000 		.4byte	0
 7629              	.LLST29:
 7630 0416 00000000 		.4byte	.LVL119
 7631 041a 11000000 		.4byte	.LVL121-1
 7632 041e 0100     		.2byte	0x1
 7633 0420 51       		.byte	0x51
 7634 0421 11000000 		.4byte	.LVL121-1
 7635 0425 28000000 		.4byte	.LVL123
 7636 0429 0100     		.2byte	0x1
 7637 042b 56       		.byte	0x56
 7638 042c 28000000 		.4byte	.LVL123
 7639 0430 CC040000 		.4byte	.LFE11
 7640 0434 0400     		.2byte	0x4
 7641 0436 F3       		.byte	0xf3
 7642 0437 01       		.uleb128 0x1
 7643 0438 51       		.byte	0x51
 7644 0439 9F       		.byte	0x9f
 7645 043a 00000000 		.4byte	0
 7646 043e 00000000 		.4byte	0
 7647              	.LLST30:
 7648 0442 00000000 		.4byte	.LVL119
 7649 0446 11000000 		.4byte	.LVL121-1
 7650 044a 0100     		.2byte	0x1
 7651 044c 52       		.byte	0x52
 7652 044d 11000000 		.4byte	.LVL121-1
 7653 0451 64030000 		.4byte	.LVL174
 7654 0455 0100     		.2byte	0x1
 7655 0457 55       		.byte	0x55
 7656 0458 64030000 		.4byte	.LVL174
 7657 045c 66030000 		.4byte	.LVL175
 7658 0460 0400     		.2byte	0x4
 7659 0462 F3       		.byte	0xf3
 7660 0463 01       		.uleb128 0x1
 7661 0464 52       		.byte	0x52
 7662 0465 9F       		.byte	0x9f
ARM GAS  C:\Users\AHMED~1.ELE\AppData\Local\Temp\cciu15sF.s 			page 151


 7663 0466 66030000 		.4byte	.LVL175
 7664 046a 9C030000 		.4byte	.LVL179
 7665 046e 0100     		.2byte	0x1
 7666 0470 55       		.byte	0x55
 7667 0471 9C030000 		.4byte	.LVL179
 7668 0475 9E030000 		.4byte	.LVL180
 7669 0479 0400     		.2byte	0x4
 7670 047b F3       		.byte	0xf3
 7671 047c 01       		.uleb128 0x1
 7672 047d 52       		.byte	0x52
 7673 047e 9F       		.byte	0x9f
 7674 047f 9E030000 		.4byte	.LVL180
 7675 0483 F0030000 		.4byte	.LVL186
 7676 0487 0100     		.2byte	0x1
 7677 0489 55       		.byte	0x55
 7678 048a F0030000 		.4byte	.LVL186
 7679 048e F6030000 		.4byte	.LVL187
 7680 0492 0400     		.2byte	0x4
 7681 0494 F3       		.byte	0xf3
 7682 0495 01       		.uleb128 0x1
 7683 0496 52       		.byte	0x52
 7684 0497 9F       		.byte	0x9f
 7685 0498 F6030000 		.4byte	.LVL187
 7686 049c 00040000 		.4byte	.LVL191
 7687 04a0 0100     		.2byte	0x1
 7688 04a2 55       		.byte	0x55
 7689 04a3 00040000 		.4byte	.LVL191
 7690 04a7 04040000 		.4byte	.LVL192
 7691 04ab 0400     		.2byte	0x4
 7692 04ad F3       		.byte	0xf3
 7693 04ae 01       		.uleb128 0x1
 7694 04af 52       		.byte	0x52
 7695 04b0 9F       		.byte	0x9f
 7696 04b1 04040000 		.4byte	.LVL192
 7697 04b5 B2040000 		.4byte	.LVL206
 7698 04b9 0100     		.2byte	0x1
 7699 04bb 55       		.byte	0x55
 7700 04bc B2040000 		.4byte	.LVL206
 7701 04c0 CC040000 		.4byte	.LFE11
 7702 04c4 0400     		.2byte	0x4
 7703 04c6 F3       		.byte	0xf3
 7704 04c7 01       		.uleb128 0x1
 7705 04c8 52       		.byte	0x52
 7706 04c9 9F       		.byte	0x9f
 7707 04ca 00000000 		.4byte	0
 7708 04ce 00000000 		.4byte	0
 7709              	.LLST31:
 7710 04d2 12000000 		.4byte	.LVL121
 7711 04d6 1E010000 		.4byte	.LVL135
 7712 04da 0200     		.2byte	0x2
 7713 04dc 30       		.byte	0x30
 7714 04dd 9F       		.byte	0x9f
 7715 04de 1E010000 		.4byte	.LVL135
 7716 04e2 D6010000 		.4byte	.LVL143
 7717 04e6 0100     		.2byte	0x1
 7718 04e8 57       		.byte	0x57
 7719 04e9 D6010000 		.4byte	.LVL143
ARM GAS  C:\Users\AHMED~1.ELE\AppData\Local\Temp\cciu15sF.s 			page 152


 7720 04ed DC010000 		.4byte	.LVL144
 7721 04f1 0200     		.2byte	0x2
 7722 04f3 31       		.byte	0x31
 7723 04f4 9F       		.byte	0x9f
 7724 04f5 DE010000 		.4byte	.LVL145
 7725 04f9 4E020000 		.4byte	.LVL155
 7726 04fd 0100     		.2byte	0x1
 7727 04ff 57       		.byte	0x57
 7728 0500 4E020000 		.4byte	.LVL155
 7729 0504 70020000 		.4byte	.LVL158
 7730 0508 0200     		.2byte	0x2
 7731 050a 31       		.byte	0x31
 7732 050b 9F       		.byte	0x9f
 7733 050c 70020000 		.4byte	.LVL158
 7734 0510 98020000 		.4byte	.LVL159
 7735 0514 0100     		.2byte	0x1
 7736 0516 57       		.byte	0x57
 7737 0517 98020000 		.4byte	.LVL159
 7738 051b 34030000 		.4byte	.LVL171
 7739 051f 0200     		.2byte	0x2
 7740 0521 31       		.byte	0x31
 7741 0522 9F       		.byte	0x9f
 7742 0523 34030000 		.4byte	.LVL171
 7743 0527 B8040000 		.4byte	.LVL207
 7744 052b 0100     		.2byte	0x1
 7745 052d 57       		.byte	0x57
 7746 052e 00000000 		.4byte	0
 7747 0532 00000000 		.4byte	0
 7748              	.LLST32:
 7749 0536 4E010000 		.4byte	.LVL140
 7750 053a BE010000 		.4byte	.LVL141
 7751 053e 0100     		.2byte	0x1
 7752 0540 50       		.byte	0x50
 7753 0541 D6010000 		.4byte	.LVL143
 7754 0545 FB010000 		.4byte	.LVL146-1
 7755 0549 0100     		.2byte	0x1
 7756 054b 50       		.byte	0x50
 7757 054c FE010000 		.4byte	.LVL147
 7758 0550 32020000 		.4byte	.LVL152
 7759 0554 0100     		.2byte	0x1
 7760 0556 50       		.byte	0x50
 7761 0557 38020000 		.4byte	.LVL154
 7762 055b 50020000 		.4byte	.LVL156
 7763 055f 0100     		.2byte	0x1
 7764 0561 50       		.byte	0x50
 7765 0562 70020000 		.4byte	.LVL158
 7766 0566 A6020000 		.4byte	.LVL160
 7767 056a 0100     		.2byte	0x1
 7768 056c 50       		.byte	0x50
 7769 056d A6020000 		.4byte	.LVL160
 7770 0571 CB020000 		.4byte	.LVL161-1
 7771 0575 0100     		.2byte	0x1
 7772 0577 53       		.byte	0x53
 7773 0578 CB020000 		.4byte	.LVL161-1
 7774 057c 08030000 		.4byte	.LVL168
 7775 0580 0200     		.2byte	0x2
 7776 0582 91       		.byte	0x91
ARM GAS  C:\Users\AHMED~1.ELE\AppData\Local\Temp\cciu15sF.s 			page 153


 7777 0583 4C       		.sleb128 -52
 7778 0584 08030000 		.4byte	.LVL168
 7779 0588 18030000 		.4byte	.LVL169
 7780 058c 0100     		.2byte	0x1
 7781 058e 53       		.byte	0x53
 7782 058f 34030000 		.4byte	.LVL171
 7783 0593 56030000 		.4byte	.LVL172
 7784 0597 0100     		.2byte	0x1
 7785 0599 50       		.byte	0x50
 7786 059a 66030000 		.4byte	.LVL175
 7787 059e 7A030000 		.4byte	.LVL176
 7788 05a2 0100     		.2byte	0x1
 7789 05a4 50       		.byte	0x50
 7790 05a5 9E030000 		.4byte	.LVL180
 7791 05a9 B2030000 		.4byte	.LVL181
 7792 05ad 0100     		.2byte	0x1
 7793 05af 50       		.byte	0x50
 7794 05b0 F6030000 		.4byte	.LVL187
 7795 05b4 F9030000 		.4byte	.LVL188-1
 7796 05b8 0100     		.2byte	0x1
 7797 05ba 50       		.byte	0x50
 7798 05bb FC030000 		.4byte	.LVL189
 7799 05bf FE030000 		.4byte	.LVL190
 7800 05c3 0100     		.2byte	0x1
 7801 05c5 50       		.byte	0x50
 7802 05c6 FE030000 		.4byte	.LVL190
 7803 05ca 00040000 		.4byte	.LVL191
 7804 05ce 0100     		.2byte	0x1
 7805 05d0 53       		.byte	0x53
 7806 05d1 04040000 		.4byte	.LVL192
 7807 05d5 10040000 		.4byte	.LVL193
 7808 05d9 0100     		.2byte	0x1
 7809 05db 50       		.byte	0x50
 7810 05dc 00000000 		.4byte	0
 7811 05e0 00000000 		.4byte	0
 7812              	.LLST33:
 7813 05e4 00000000 		.4byte	.LVL119
 7814 05e8 30010000 		.4byte	.LVL138
 7815 05ec 0200     		.2byte	0x2
 7816 05ee 30       		.byte	0x30
 7817 05ef 9F       		.byte	0x9f
 7818 05f0 30010000 		.4byte	.LVL138
 7819 05f4 EE020000 		.4byte	.LVL163
 7820 05f8 0100     		.2byte	0x1
 7821 05fa 5A       		.byte	0x5a
 7822 05fb F6020000 		.4byte	.LVL164
 7823 05ff B8040000 		.4byte	.LVL207
 7824 0603 0100     		.2byte	0x1
 7825 0605 5A       		.byte	0x5a
 7826 0606 00000000 		.4byte	0
 7827 060a 00000000 		.4byte	0
 7828              	.LLST34:
 7829 060e 30010000 		.4byte	.LVL138
 7830 0612 06030000 		.4byte	.LVL167
 7831 0616 0100     		.2byte	0x1
 7832 0618 58       		.byte	0x58
 7833 0619 06030000 		.4byte	.LVL167
ARM GAS  C:\Users\AHMED~1.ELE\AppData\Local\Temp\cciu15sF.s 			page 154


 7834 061d 08030000 		.4byte	.LVL168
 7835 0621 0100     		.2byte	0x1
 7836 0623 50       		.byte	0x50
 7837 0624 08030000 		.4byte	.LVL168
 7838 0628 B8040000 		.4byte	.LVL207
 7839 062c 0100     		.2byte	0x1
 7840 062e 58       		.byte	0x58
 7841 062f 00000000 		.4byte	0
 7842 0633 00000000 		.4byte	0
 7843              	.LLST35:
 7844 0637 22000000 		.4byte	.LVL122
 7845 063b B8040000 		.4byte	.LVL207
 7846 063f 0100     		.2byte	0x1
 7847 0641 5B       		.byte	0x5b
 7848 0642 B8040000 		.4byte	.LVL207
 7849 0646 CC040000 		.4byte	.LFE11
 7850 064a 0600     		.2byte	0x6
 7851 064c F3       		.byte	0xf3
 7852 064d 01       		.uleb128 0x1
 7853 064e 51       		.byte	0x51
 7854 064f 38       		.byte	0x38
 7855 0650 25       		.byte	0x25
 7856 0651 9F       		.byte	0x9f
 7857 0652 00000000 		.4byte	0
 7858 0656 00000000 		.4byte	0
 7859              	.LLST36:
 7860 065a 28000000 		.4byte	.LVL123
 7861 065e B8040000 		.4byte	.LVL207
 7862 0662 0100     		.2byte	0x1
 7863 0664 56       		.byte	0x56
 7864 0665 00000000 		.4byte	0
 7865 0669 00000000 		.4byte	0
 7866              	.LLST37:
 7867 066d DA000000 		.4byte	.LVL131
 7868 0671 EC000000 		.4byte	.LVL132
 7869 0675 0100     		.2byte	0x1
 7870 0677 50       		.byte	0x50
 7871 0678 00000000 		.4byte	0
 7872 067c 00000000 		.4byte	0
 7873              	.LLST38:
 7874 0680 38040000 		.4byte	.LVL194
 7875 0684 53040000 		.4byte	.LVL196-1
 7876 0688 0100     		.2byte	0x1
 7877 068a 5C       		.byte	0x5c
 7878 068b 53040000 		.4byte	.LVL196-1
 7879 068f 6E040000 		.4byte	.LVL198
 7880 0693 0200     		.2byte	0x2
 7881 0695 91       		.byte	0x91
 7882 0696 54       		.sleb128 -44
 7883 0697 6E040000 		.4byte	.LVL198
 7884 069b 74040000 		.4byte	.LVL200
 7885 069f 0100     		.2byte	0x1
 7886 06a1 5C       		.byte	0x5c
 7887 06a2 74040000 		.4byte	.LVL200
 7888 06a6 78040000 		.4byte	.LVL201
 7889 06aa 0300     		.2byte	0x3
 7890 06ac 79       		.byte	0x79
ARM GAS  C:\Users\AHMED~1.ELE\AppData\Local\Temp\cciu15sF.s 			page 155


 7891 06ad 01       		.sleb128 1
 7892 06ae 9F       		.byte	0x9f
 7893 06af 78040000 		.4byte	.LVL201
 7894 06b3 80040000 		.4byte	.LVL202
 7895 06b7 0300     		.2byte	0x3
 7896 06b9 7C       		.byte	0x7c
 7897 06ba 01       		.sleb128 1
 7898 06bb 9F       		.byte	0x9f
 7899 06bc 80040000 		.4byte	.LVL202
 7900 06c0 96040000 		.4byte	.LVL203
 7901 06c4 0100     		.2byte	0x1
 7902 06c6 5C       		.byte	0x5c
 7903 06c7 96040000 		.4byte	.LVL203
 7904 06cb 9E040000 		.4byte	.LVL204
 7905 06cf 0300     		.2byte	0x3
 7906 06d1 7C       		.byte	0x7c
 7907 06d2 01       		.sleb128 1
 7908 06d3 9F       		.byte	0x9f
 7909 06d4 00000000 		.4byte	0
 7910 06d8 00000000 		.4byte	0
 7911              	.LLST39:
 7912 06dc 38040000 		.4byte	.LVL194
 7913 06e0 3E040000 		.4byte	.LVL195
 7914 06e4 0200     		.2byte	0x2
 7915 06e6 30       		.byte	0x30
 7916 06e7 9F       		.byte	0x9f
 7917 06e8 6C040000 		.4byte	.LVL197
 7918 06ec 70040000 		.4byte	.LVL199
 7919 06f0 0100     		.2byte	0x1
 7920 06f2 50       		.byte	0x50
 7921 06f3 70040000 		.4byte	.LVL199
 7922 06f7 74040000 		.4byte	.LVL200
 7923 06fb 0300     		.2byte	0x3
 7924 06fd 70       		.byte	0x70
 7925 06fe 01       		.sleb128 1
 7926 06ff 9F       		.byte	0x9f
 7927 0700 74040000 		.4byte	.LVL200
 7928 0704 80040000 		.4byte	.LVL202
 7929 0708 0200     		.2byte	0x2
 7930 070a 36       		.byte	0x36
 7931 070b 9F       		.byte	0x9f
 7932 070c 80040000 		.4byte	.LVL202
 7933 0710 96040000 		.4byte	.LVL203
 7934 0714 0100     		.2byte	0x1
 7935 0716 50       		.byte	0x50
 7936 0717 96040000 		.4byte	.LVL203
 7937 071b 9E040000 		.4byte	.LVL204
 7938 071f 0200     		.2byte	0x2
 7939 0721 36       		.byte	0x36
 7940 0722 9F       		.byte	0x9f
 7941 0723 AA040000 		.4byte	.LVL205
 7942 0727 B2040000 		.4byte	.LVL206
 7943 072b 0100     		.2byte	0x1
 7944 072d 50       		.byte	0x50
 7945 072e 00000000 		.4byte	0
 7946 0732 00000000 		.4byte	0
 7947              	.LLST40:
ARM GAS  C:\Users\AHMED~1.ELE\AppData\Local\Temp\cciu15sF.s 			page 156


 7948 0736 20020000 		.4byte	.LVL148
 7949 073a 22020000 		.4byte	.LVL149
 7950 073e 0100     		.2byte	0x1
 7951 0740 53       		.byte	0x53
 7952 0741 22020000 		.4byte	.LVL149
 7953 0745 28020000 		.4byte	.LVL150
 7954 0749 0300     		.2byte	0x3
 7955 074b 73       		.byte	0x73
 7956 074c 60       		.sleb128 -32
 7957 074d 9F       		.byte	0x9f
 7958 074e 00000000 		.4byte	0
 7959 0752 00000000 		.4byte	0
 7960              	.LLST41:
 7961 0756 28020000 		.4byte	.LVL150
 7962 075a 2E020000 		.4byte	.LVL151
 7963 075e 0100     		.2byte	0x1
 7964 0760 53       		.byte	0x53
 7965 0761 00000000 		.4byte	0
 7966 0765 00000000 		.4byte	0
 7967              		.section	.debug_aranges,"",%progbits
 7968 0000 6C000000 		.4byte	0x6c
 7969 0004 0200     		.2byte	0x2
 7970 0006 00000000 		.4byte	.Ldebug_info0
 7971 000a 04       		.byte	0x4
 7972 000b 00       		.byte	0
 7973 000c 0000     		.2byte	0
 7974 000e 0000     		.2byte	0
 7975 0010 00000000 		.4byte	.LFB9
 7976 0014 84000000 		.4byte	.LFE9-.LFB9
 7977 0018 00000000 		.4byte	.LFB8
 7978 001c EC030000 		.4byte	.LFE8-.LFB8
 7979 0020 00000000 		.4byte	.LFB0
 7980 0024 1C000000 		.4byte	.LFE0-.LFB0
 7981 0028 00000000 		.4byte	.LFB1
 7982 002c 26000000 		.4byte	.LFE1-.LFB1
 7983 0030 00000000 		.4byte	.LFB2
 7984 0034 34000000 		.4byte	.LFE2-.LFB2
 7985 0038 00000000 		.4byte	.LFB3
 7986 003c 24000000 		.4byte	.LFE3-.LFB3
 7987 0040 00000000 		.4byte	.LFB4
 7988 0044 1C000000 		.4byte	.LFE4-.LFB4
 7989 0048 00000000 		.4byte	.LFB5
 7990 004c 2A000000 		.4byte	.LFE5-.LFB5
 7991 0050 00000000 		.4byte	.LFB6
 7992 0054 80000000 		.4byte	.LFE6-.LFB6
 7993 0058 00000000 		.4byte	.LFB7
 7994 005c 28000000 		.4byte	.LFE7-.LFB7
 7995 0060 00000000 		.4byte	.LFB11
 7996 0064 CC040000 		.4byte	.LFE11-.LFB11
 7997 0068 00000000 		.4byte	0
 7998 006c 00000000 		.4byte	0
 7999              		.section	.debug_ranges,"",%progbits
 8000              	.Ldebug_ranges0:
 8001 0000 70010000 		.4byte	.LBB3
 8002 0004 72010000 		.4byte	.LBE3
 8003 0008 76010000 		.4byte	.LBB4
 8004 000c C0010000 		.4byte	.LBE4
ARM GAS  C:\Users\AHMED~1.ELE\AppData\Local\Temp\cciu15sF.s 			page 157


 8005 0010 00000000 		.4byte	0
 8006 0014 00000000 		.4byte	0
 8007 0018 C4010000 		.4byte	.LBB5
 8008 001c CA010000 		.4byte	.LBE5
 8009 0020 CC010000 		.4byte	.LBB6
 8010 0024 0E020000 		.4byte	.LBE6
 8011 0028 00000000 		.4byte	0
 8012 002c 00000000 		.4byte	0
 8013 0030 68020000 		.4byte	.LBB8
 8014 0034 6A020000 		.4byte	.LBE8
 8015 0038 6E020000 		.4byte	.LBB9
 8016 003c BA020000 		.4byte	.LBE9
 8017 0040 00000000 		.4byte	0
 8018 0044 00000000 		.4byte	0
 8019 0048 3C030000 		.4byte	.LBB11
 8020 004c 3E030000 		.4byte	.LBE11
 8021 0050 42030000 		.4byte	.LBB12
 8022 0054 8C030000 		.4byte	.LBE12
 8023 0058 00000000 		.4byte	0
 8024 005c 00000000 		.4byte	0
 8025 0060 90030000 		.4byte	.LBB13
 8026 0064 96030000 		.4byte	.LBE13
 8027 0068 98030000 		.4byte	.LBB14
 8028 006c E0030000 		.4byte	.LBE14
 8029 0070 00000000 		.4byte	0
 8030 0074 00000000 		.4byte	0
 8031 0078 F0010000 		.4byte	.LBB24
 8032 007c FE010000 		.4byte	.LBE24
 8033 0080 04040000 		.4byte	.LBB31
 8034 0084 3C040000 		.4byte	.LBE31
 8035 0088 3E040000 		.4byte	.LBB32
 8036 008c B2040000 		.4byte	.LBE32
 8037 0090 00000000 		.4byte	0
 8038 0094 00000000 		.4byte	0
 8039 0098 00000000 		.4byte	.LFB9
 8040 009c 84000000 		.4byte	.LFE9
 8041 00a0 00000000 		.4byte	.LFB8
 8042 00a4 EC030000 		.4byte	.LFE8
 8043 00a8 00000000 		.4byte	.LFB0
 8044 00ac 1C000000 		.4byte	.LFE0
 8045 00b0 00000000 		.4byte	.LFB1
 8046 00b4 26000000 		.4byte	.LFE1
 8047 00b8 00000000 		.4byte	.LFB2
 8048 00bc 34000000 		.4byte	.LFE2
 8049 00c0 00000000 		.4byte	.LFB3
 8050 00c4 24000000 		.4byte	.LFE3
 8051 00c8 00000000 		.4byte	.LFB4
 8052 00cc 1C000000 		.4byte	.LFE4
 8053 00d0 00000000 		.4byte	.LFB5
 8054 00d4 2A000000 		.4byte	.LFE5
 8055 00d8 00000000 		.4byte	.LFB6
 8056 00dc 80000000 		.4byte	.LFE6
 8057 00e0 00000000 		.4byte	.LFB7
 8058 00e4 28000000 		.4byte	.LFE7
 8059 00e8 00000000 		.4byte	.LFB11
 8060 00ec CC040000 		.4byte	.LFE11
 8061 00f0 00000000 		.4byte	0
ARM GAS  C:\Users\AHMED~1.ELE\AppData\Local\Temp\cciu15sF.s 			page 158


 8062 00f4 00000000 		.4byte	0
 8063              		.section	.debug_line,"",%progbits
 8064              	.Ldebug_line0:
 8065 0000 68040000 		.section	.debug_str,"MS",%progbits,1
 8065      02001801 
 8065      00000201 
 8065      FB0E0D00 
 8065      01010101 
 8066              	.LASF328:
 8067 0000 4F535F46 		.ascii	"OS_FN_CLICC_LED_OPEN\000"
 8067      4E5F434C 
 8067      4943435F 
 8067      4C45445F 
 8067      4F50454E 
 8068              	.LASF341:
 8069 0015 4F535F46 		.ascii	"OS_FN_DRIVER_REGISTER\000"
 8069      4E5F4452 
 8069      49564552 
 8069      5F524547 
 8069      49535445 
 8070              	.LASF10:
 8071 002b 63686172 		.ascii	"char\000"
 8071      00
 8072              	.LASF316:
 8073 0030 4F535F46 		.ascii	"OS_FN_CODEC_CLOSE\000"
 8073      4E5F434F 
 8073      4445435F 
 8073      434C4F53 
 8073      4500
 8074              	.LASF428:
 8075 0042 4F535F46 		.ascii	"OS_FN_GET_CALLID\000"
 8075      4E5F4745 
 8075      545F4341 
 8075      4C4C4944 
 8075      00
 8076              	.LASF194:
 8077 0053 4F535F46 		.ascii	"OS_FN_FILE_INIT_SEARCH\000"
 8077      4E5F4649 
 8077      4C455F49 
 8077      4E49545F 
 8077      53454152 
 8078              	.LASF11:
 8079 006a 73697A65 		.ascii	"size_t\000"
 8079      5F7400
 8080              	.LASF174:
 8081 0071 4F535F46 		.ascii	"OS_FN_FILE_SEEK\000"
 8081      4E5F4649 
 8081      4C455F53 
 8081      45454B00 
 8082              	.LASF9:
 8083 0081 73697A65 		.ascii	"sizetype\000"
 8083      74797065 
 8083      00
 8084              	.LASF415:
 8085 008a 4F535F46 		.ascii	"OS_FN_NFC_IC_REG_DIRECT_WRITE\000"
 8085      4E5F4E46 
 8085      435F4943 
ARM GAS  C:\Users\AHMED~1.ELE\AppData\Local\Temp\cciu15sF.s 			page 159


 8085      5F524547 
 8085      5F444952 
 8086              	.LASF166:
 8087 00a8 4F535F46 		.ascii	"OS_FN_FILE_CREATE_OWNER\000"
 8087      4E5F4649 
 8087      4C455F43 
 8087      52454154 
 8087      455F4F57 
 8088              	.LASF304:
 8089 00c0 4F535F46 		.ascii	"OS_FN_GPRS_SMS_SEND\000"
 8089      4E5F4750 
 8089      52535F53 
 8089      4D535F53 
 8089      454E4400 
 8090              	.LASF564:
 8091 00d4 6464416D 		.ascii	"ddAmount\000"
 8091      6F756E74 
 8091      00
 8092              	.LASF549:
 8093 00dd 41504D5F 		.ascii	"APM_SDEV_MSR\000"
 8093      53444556 
 8093      5F4D5352 
 8093      00
 8094              	.LASF333:
 8095 00ea 4F535F46 		.ascii	"OS_FN_CLICC_LED_ON\000"
 8095      4E5F434C 
 8095      4943435F 
 8095      4C45445F 
 8095      4F4E00
 8096              	.LASF340:
 8097 00fd 4F535F46 		.ascii	"OS_FN_USBHOST_DEVICEMAP\000"
 8097      4E5F5553 
 8097      42484F53 
 8097      545F4445 
 8097      56494345 
 8098              	.LASF508:
 8099 0115 464F5045 		.ascii	"FOPENMW\000"
 8099      4E4D5700 
 8100              	.LASF572:
 8101 011d 62446973 		.ascii	"bDispLen\000"
 8101      704C656E 
 8101      00
 8102              	.LASF458:
 8103 0126 4F535F46 		.ascii	"OS_FN_GCM_AES_OPEN\000"
 8103      4E5F4743 
 8103      4D5F4145 
 8103      535F4F50 
 8103      454E00
 8104              	.LASF533:
 8105 0139 44495350 		.ascii	"DISP_SETPMW\000"
 8105      5F534554 
 8105      504D5700 
 8106              	.LASF315:
 8107 0145 4F535F46 		.ascii	"OS_FN_CODEC_OPEN\000"
 8107      4E5F434F 
 8107      4445435F 
 8107      4F50454E 
ARM GAS  C:\Users\AHMED~1.ELE\AppData\Local\Temp\cciu15sF.s 			page 160


 8107      00
 8108              	.LASF541:
 8109 0156 534D535F 		.ascii	"SMS_TX_MW\000"
 8109      54585F4D 
 8109      5700
 8110              	.LASF366:
 8111 0160 4F535F46 		.ascii	"OS_FN_USBKBD_GETKEY\000"
 8111      4E5F5553 
 8111      424B4244 
 8111      5F474554 
 8111      4B455900 
 8112              	.LASF82:
 8113 0174 4F535F46 		.ascii	"OS_FN_COM3_SREAD\000"
 8113      4E5F434F 
 8113      4D335F53 
 8113      52454144 
 8113      00
 8114              	.LASF170:
 8115 0185 4F535F46 		.ascii	"OS_FN_FILE_EXIST\000"
 8115      4E5F4649 
 8115      4C455F45 
 8115      58495354 
 8115      00
 8116              	.LASF480:
 8117 0196 4F535F46 		.ascii	"OS_FN_IMG_SENSOR_LED_OPEN\000"
 8117      4E5F494D 
 8117      475F5345 
 8117      4E534F52 
 8117      5F4C4544 
 8118              	.LASF119:
 8119 01b0 4F535F46 		.ascii	"OS_FN_SM4_DECRYPT\000"
 8119      4E5F534D 
 8119      345F4445 
 8119      43525950 
 8119      5400
 8120              	.LASF488:
 8121 01c2 4F535F46 		.ascii	"OS_FN_GPS_GET_DETAIL_INFO\000"
 8121      4E5F4750 
 8121      535F4745 
 8121      545F4445 
 8121      5441494C 
 8122              	.LASF300:
 8123 01dc 4F535F46 		.ascii	"OS_FN_GPRS_GET_CID\000"
 8123      4E5F4750 
 8123      52535F47 
 8123      45545F43 
 8123      494400
 8124              	.LASF369:
 8125 01ef 4F535F46 		.ascii	"OS_FN_TAMPER_RESET_STATUS\000"
 8125      4E5F5441 
 8125      4D504552 
 8125      5F524553 
 8125      45545F53 
 8126              	.LASF442:
 8127 0209 4F535F46 		.ascii	"OS_FN_POWER\000"
 8127      4E5F504F 
 8127      57455200 
ARM GAS  C:\Users\AHMED~1.ELE\AppData\Local\Temp\cciu15sF.s 			page 161


 8128              	.LASF290:
 8129 0215 4F535F46 		.ascii	"OS_FN_ADC_CH_DISABLE\000"
 8129      4E5F4144 
 8129      435F4348 
 8129      5F444953 
 8129      41424C45 
 8130              	.LASF216:
 8131 022a 4F535F46 		.ascii	"OS_FN_MMC_SIZE\000"
 8131      4E5F4D4D 
 8131      435F5349 
 8131      5A4500
 8132              	.LASF581:
 8133 0239 55706461 		.ascii	"UpdateDisplay\000"
 8133      74654469 
 8133      73706C61 
 8133      7900
 8134              	.LASF485:
 8135 0247 4F535F46 		.ascii	"OS_FN_TAMPER_UNLOCK\000"
 8135      4E5F5441 
 8135      4D504552 
 8135      5F554E4C 
 8135      4F434B00 
 8136              	.LASF183:
 8137 025b 4F535F46 		.ascii	"OS_FN_FILE_DSEARCH_ALL\000"
 8137      4E5F4649 
 8137      4C455F44 
 8137      53454152 
 8137      43485F41 
 8138              	.LASF437:
 8139 0272 4F535F46 		.ascii	"OS_FN_DMK_KVC_READ\000"
 8139      4E5F444D 
 8139      4B5F4B56 
 8139      435F5245 
 8139      414400
 8140              	.LASF29:
 8141 0285 4F535F46 		.ascii	"OS_FN_TIMER_SET\000"
 8141      4E5F5449 
 8141      4D45525F 
 8141      53455400 
 8142              	.LASF566:
 8143 0295 62446563 		.ascii	"bDecimalPos\000"
 8143      696D616C 
 8143      506F7300 
 8144              	.LASF464:
 8145 02a1 4F535F46 		.ascii	"OS_FN_SYS_THREAD_CREATE\000"
 8145      4E5F5359 
 8145      535F5448 
 8145      52454144 
 8145      5F435245 
 8146              	.LASF147:
 8147 02b9 4F535F46 		.ascii	"OS_FN_BUFMAN_FREE\000"
 8147      4E5F4255 
 8147      464D414E 
 8147      5F465245 
 8147      4500
 8148              	.LASF295:
 8149 02cb 4F535F46 		.ascii	"OS_FN_GPRS_AT_RESP\000"
ARM GAS  C:\Users\AHMED~1.ELE\AppData\Local\Temp\cciu15sF.s 			page 162


 8149      4E5F4750 
 8149      52535F41 
 8149      545F5245 
 8149      535000
 8150              	.LASF546:
 8151 02de 46465452 		.ascii	"FFTRUNCATEMW\000"
 8151      554E4341 
 8151      54454D57 
 8151      00
 8152              	.LASF584:
 8153 02eb 746D7062 		.ascii	"tmpbuf\000"
 8153      756600
 8154              	.LASF626:
 8155 02f2 436F6E76 		.ascii	"ConvertAlpha\000"
 8155      65727441 
 8155      6C706861 
 8155      00
 8156              	.LASF478:
 8157 02ff 4F535F46 		.ascii	"OS_FN_GPRS_IS_HL6RD_OLD_FRM\000"
 8157      4E5F4750 
 8157      52535F49 
 8157      535F484C 
 8157      3652445F 
 8158              	.LASF279:
 8159 031b 4F535F46 		.ascii	"OS_FN_MCOM_TXRDY\000"
 8159      4E5F4D43 
 8159      4F4D5F54 
 8159      58524459 
 8159      00
 8160              	.LASF588:
 8161 032c 4765744B 		.ascii	"GetKeyin\000"
 8161      6579696E 
 8161      00
 8162              	.LASF223:
 8163 0335 4F535F46 		.ascii	"OS_FN_SLE_OPEN\000"
 8163      4E5F534C 
 8163      455F4F50 
 8163      454E00
 8164              	.LASF50:
 8165 0344 4F535F46 		.ascii	"OS_FN_DISP_BRIGHTNESS\000"
 8165      4E5F4449 
 8165      53505F42 
 8165      52494748 
 8165      544E4553 
 8166              	.LASF306:
 8167 035a 4F535F46 		.ascii	"OS_FN_GPRS_SMS_READ\000"
 8167      4E5F4750 
 8167      52535F53 
 8167      4D535F52 
 8167      45414400 
 8168              	.LASF523:
 8169 036e 49434349 		.ascii	"ICCINSERTEDMW\000"
 8169      4E534552 
 8169      5445444D 
 8169      5700
 8170              	.LASF297:
 8171 037c 4F535F46 		.ascii	"OS_FN_GPRS_READ\000"
ARM GAS  C:\Users\AHMED~1.ELE\AppData\Local\Temp\cciu15sF.s 			page 163


 8171      4E5F4750 
 8171      52535F52 
 8171      45414400 
 8172              	.LASF493:
 8173 038c 55534246 		.ascii	"USBFPRT_GENERAL_INFO_IMG_BPP\000"
 8173      5052545F 
 8173      47454E45 
 8173      52414C5F 
 8173      494E464F 
 8174              	.LASF190:
 8175 03a9 4F535F46 		.ascii	"OS_FN_FILE_GET_FREE_SPACE\000"
 8175      4E5F4649 
 8175      4C455F47 
 8175      45545F46 
 8175      5245455F 
 8176              	.LASF130:
 8177 03c3 4F535F46 		.ascii	"OS_FN_KEY_SAVE_NC\000"
 8177      4E5F4B45 
 8177      595F5341 
 8177      56455F4E 
 8177      4300
 8178              	.LASF469:
 8179 03d5 4F535F46 		.ascii	"OS_FN_WIFI_SOCKET_SEND_UDP\000"
 8179      4E5F5749 
 8179      46495F53 
 8179      4F434B45 
 8179      545F5345 
 8180              	.LASF440:
 8181 03f0 4F535F46 		.ascii	"OS_FN_RMB_CONTROL\000"
 8181      4E5F524D 
 8181      425F434F 
 8181      4E54524F 
 8181      4C00
 8182              	.LASF110:
 8183 0402 4F535F46 		.ascii	"OS_FN_SM2_GET_SIGNATURE\000"
 8183      4E5F534D 
 8183      325F4745 
 8183      545F5349 
 8183      474E4154 
 8184              	.LASF76:
 8185 041a 4F535F46 		.ascii	"OS_FN_COM3_CLOSE\000"
 8185      4E5F434F 
 8185      4D335F43 
 8185      4C4F5345 
 8185      00
 8186              	.LASF66:
 8187 042b 4F535F46 		.ascii	"OS_FN_COM2_OPEN\000"
 8187      4E5F434F 
 8187      4D325F4F 
 8187      50454E00 
 8188              	.LASF339:
 8189 043b 4F535F46 		.ascii	"OS_FN_USBHOST_DEVINFO\000"
 8189      4E5F5553 
 8189      42484F53 
 8189      545F4445 
 8189      56494E46 
 8190              	.LASF236:
ARM GAS  C:\Users\AHMED~1.ELE\AppData\Local\Temp\cciu15sF.s 			page 164


 8191 0451 4F535F46 		.ascii	"OS_FN_MSR_RXLEN\000"
 8191      4E5F4D53 
 8191      525F5258 
 8191      4C454E00 
 8192              	.LASF349:
 8193 0461 4F535F46 		.ascii	"OS_FN_DEVICE_SEARCH_NEXT\000"
 8193      4E5F4445 
 8193      56494345 
 8193      5F534541 
 8193      5243485F 
 8194              	.LASF95:
 8195 047a 4F535F46 		.ascii	"OS_FN_AES_ENCRYPT_BLOCK\000"
 8195      4E5F4145 
 8195      535F454E 
 8195      43525950 
 8195      545F424C 
 8196              	.LASF180:
 8197 0492 4F535F46 		.ascii	"OS_FN_FILE_END\000"
 8197      4E5F4649 
 8197      4C455F45 
 8197      4E4400
 8198              	.LASF207:
 8199 04a1 4F535F46 		.ascii	"OS_FN_SAM_SELECT\000"
 8199      4E5F5341 
 8199      4D5F5345 
 8199      4C454354 
 8199      00
 8200              	.LASF424:
 8201 04b2 4F535F46 		.ascii	"OS_FN_GPS_ENABLED\000"
 8201      4E5F4750 
 8201      535F454E 
 8201      41424C45 
 8201      4400
 8202              	.LASF400:
 8203 04c4 4F535F46 		.ascii	"OS_FN_BARCODE_STATUS\000"
 8203      4E5F4241 
 8203      52434F44 
 8203      455F5354 
 8203      41545553 
 8204              	.LASF71:
 8205 04d9 4F535F46 		.ascii	"OS_FN_COM2_SEND\000"
 8205      4E5F434F 
 8205      4D325F53 
 8205      454E4400 
 8206              	.LASF205:
 8207 04e9 4F535F46 		.ascii	"OS_FN_SAM_OPEN\000"
 8207      4E5F5341 
 8207      4D5F4F50 
 8207      454E00
 8208              	.LASF103:
 8209 04f8 4F535F46 		.ascii	"OS_FN_SHA_FINISH\000"
 8209      4E5F5348 
 8209      415F4649 
 8209      4E495348 
 8209      00
 8210              	.LASF384:
 8211 0509 4F535F46 		.ascii	"OS_FN_MIF_INC\000"
ARM GAS  C:\Users\AHMED~1.ELE\AppData\Local\Temp\cciu15sF.s 			page 165


 8211      4E5F4D49 
 8211      465F494E 
 8211      4300
 8212              	.LASF422:
 8213 0517 4F535F46 		.ascii	"OS_FN_GPS_RESP\000"
 8213      4E5F4750 
 8213      535F5245 
 8213      535000
 8214              	.LASF186:
 8215 0526 4F535F46 		.ascii	"OS_FN_FILE_GET_NAME\000"
 8215      4E5F4649 
 8215      4C455F47 
 8215      45545F4E 
 8215      414D4500 
 8216              	.LASF111:
 8217 053a 4F535F46 		.ascii	"OS_FN_SM2_VERIFY_SIGNATURE\000"
 8217      4E5F534D 
 8217      325F5645 
 8217      52494659 
 8217      5F534947 
 8218              	.LASF498:
 8219 0555 434C4F53 		.ascii	"CLOSEMW\000"
 8219      454D5700 
 8220              	.LASF96:
 8221 055d 4F535F46 		.ascii	"OS_FN_AES_DECRYPT_BLOCK\000"
 8221      4E5F4145 
 8221      535F4445 
 8221      43525950 
 8221      545F424C 
 8222              	.LASF122:
 8223 0575 4F535F46 		.ascii	"OS_FN_KEY_DES\000"
 8223      4E5F4B45 
 8223      595F4445 
 8223      5300
 8224              	.LASF13:
 8225 0583 42595445 		.ascii	"BYTE\000"
 8225      00
 8226              	.LASF407:
 8227 0588 4F535F46 		.ascii	"OS_FN_WIFI_PROFILES_WRITE\000"
 8227      4E5F5749 
 8227      46495F50 
 8227      524F4649 
 8227      4C45535F 
 8228              	.LASF120:
 8229 05a2 4F535F46 		.ascii	"OS_FN_KEY_SAVE\000"
 8229      4E5F4B45 
 8229      595F5341 
 8229      564500
 8230              	.LASF93:
 8231 05b1 4F535F46 		.ascii	"OS_FN_RSA_PRIVATE\000"
 8231      4E5F5253 
 8231      415F5052 
 8231      49564154 
 8231      4500
 8232              	.LASF255:
 8233 05c3 4F535F46 		.ascii	"OS_FN_FL_PGM\000"
 8233      4E5F464C 
ARM GAS  C:\Users\AHMED~1.ELE\AppData\Local\Temp\cciu15sF.s 			page 166


 8233      5F50474D 
 8233      00
 8234              	.LASF197:
 8235 05d0 4F535F46 		.ascii	"OS_FN_FILE_RMDIR\000"
 8235      4E5F4649 
 8235      4C455F52 
 8235      4D444952 
 8235      00
 8236              	.LASF578:
 8237 05e1 62526967 		.ascii	"bRightJust\000"
 8237      68744A75 
 8237      737400
 8238              	.LASF443:
 8239 05ec 4F535F46 		.ascii	"OS_FN_CLICC_DEBUG\000"
 8239      4E5F434C 
 8239      4943435F 
 8239      44454255 
 8239      4700
 8240              	.LASF386:
 8241 05fe 4F535F46 		.ascii	"OS_FN_MIF_RESTORE\000"
 8241      4E5F4D49 
 8241      465F5245 
 8241      53544F52 
 8241      4500
 8242              	.LASF281:
 8243 0610 4F535F46 		.ascii	"OS_FN_MCOM_SSEND\000"
 8243      4E5F4D43 
 8243      4F4D5F53 
 8243      53454E44 
 8243      00
 8244              	.LASF343:
 8245 0621 4F535F46 		.ascii	"OS_FN_DEVICE_ALLOC\000"
 8245      4E5F4445 
 8245      56494345 
 8245      5F414C4C 
 8245      4F4300
 8246              	.LASF454:
 8247 0634 4F535F46 		.ascii	"OS_FN_FPRT_INFO_GET\000"
 8247      4E5F4650 
 8247      52545F49 
 8247      4E464F5F 
 8247      47455400 
 8248              	.LASF199:
 8249 0648 4F535F46 		.ascii	"OS_FN_FILE_SYNC\000"
 8249      4E5F4649 
 8249      4C455F53 
 8249      594E4300 
 8250              	.LASF450:
 8251 0658 4F535F46 		.ascii	"OS_FN_FPRT_OPEN\000"
 8251      4E5F4650 
 8251      52545F4F 
 8251      50454E00 
 8252              	.LASF509:
 8253 0668 46434C4F 		.ascii	"FCLOSEMW\000"
 8253      53454D57 
 8253      00
 8254              	.LASF504:
ARM GAS  C:\Users\AHMED~1.ELE\AppData\Local\Temp\cciu15sF.s 			page 167


 8255 0671 4745544C 		.ascii	"GETLASTERRMW\000"
 8255      41535445 
 8255      52524D57 
 8255      00
 8256              	.LASF237:
 8257 067e 4F535F46 		.ascii	"OS_FN_MSR_GETC\000"
 8257      4E5F4D53 
 8257      525F4745 
 8257      544300
 8258              	.LASF497:
 8259 068d 4F50454E 		.ascii	"OPENMW\000"
 8259      4D5700
 8260              	.LASF288:
 8261 0694 4F535F46 		.ascii	"OS_FN_BATT_CHARGE_MODE\000"
 8261      4E5F4241 
 8261      54545F43 
 8261      48415247 
 8261      455F4D4F 
 8262              	.LASF392:
 8263 06ab 4F535F46 		.ascii	"OS_FN_MIF_INFO_SET\000"
 8263      4E5F4D49 
 8263      465F494E 
 8263      464F5F53 
 8263      455400
 8264              	.LASF357:
 8265 06be 4F535F46 		.ascii	"OS_FN_USBOTG_GET_STATE\000"
 8265      4E5F5553 
 8265      424F5447 
 8265      5F474554 
 8265      5F535441 
 8266              	.LASF4:
 8267 06d5 6C6F6E67 		.ascii	"long int\000"
 8267      20696E74 
 8267      00
 8268              	.LASF613:
 8269 06de 6D656D6D 		.ascii	"memmove\000"
 8269      6F766500 
 8270              	.LASF587:
 8271 06e6 5365744B 		.ascii	"SetKbdTimeout\000"
 8271      62645469 
 8271      6D656F75 
 8271      7400
 8272              	.LASF146:
 8273 06f4 4F535F46 		.ascii	"OS_FN_BUFMAN_ALLOC\000"
 8273      4E5F4255 
 8273      464D414E 
 8273      5F414C4C 
 8273      4F4300
 8274              	.LASF57:
 8275 0707 4F535F46 		.ascii	"OS_FN_COM1_OPEN\000"
 8275      4E5F434F 
 8275      4D315F4F 
 8275      50454E00 
 8276              	.LASF301:
 8277 0717 4F535F46 		.ascii	"OS_FN_GPRS_READ_USSD\000"
 8277      4E5F4750 
 8277      52535F52 
ARM GAS  C:\Users\AHMED~1.ELE\AppData\Local\Temp\cciu15sF.s 			page 168


 8277      4541445F 
 8277      55535344 
 8278              	.LASF112:
 8279 072c 4F535F46 		.ascii	"OS_FN_SM2_ENCRYPT\000"
 8279      4E5F534D 
 8279      325F454E 
 8279      43525950 
 8279      5400
 8280              	.LASF461:
 8281 073e 4F535F46 		.ascii	"OS_FN_GCM_AES_PROCESS\000"
 8281      4E5F4743 
 8281      4D5F4145 
 8281      535F5052 
 8281      4F434553 
 8282              	.LASF345:
 8283 0754 4F535F46 		.ascii	"OS_FN_DEVICE_UNREGISTER\000"
 8283      4E5F4445 
 8283      56494345 
 8283      5F554E52 
 8283      45474953 
 8284              	.LASF109:
 8285 076c 4F535F46 		.ascii	"OS_FN_SM2_FREE_CURVE\000"
 8285      4E5F534D 
 8285      325F4652 
 8285      45455F43 
 8285      55525645 
 8286              	.LASF486:
 8287 0781 4F535F46 		.ascii	"OS_FN_BATT_LEVEL2\000"
 8287      4E5F4241 
 8287      54545F4C 
 8287      4556454C 
 8287      3200
 8288              	.LASF289:
 8289 0793 4F535F46 		.ascii	"OS_FN_ADC_CH_ENABLE\000"
 8289      4E5F4144 
 8289      435F4348 
 8289      5F454E41 
 8289      424C4500 
 8290              	.LASF261:
 8291 07a7 4F535F46 		.ascii	"OS_FN_FL_COPYB_START\000"
 8291      4E5F464C 
 8291      5F434F50 
 8291      59425F53 
 8291      54415254 
 8292              	.LASF48:
 8293 07bc 4F535F46 		.ascii	"OS_FN_DISP_TEXTC\000"
 8293      4E5F4449 
 8293      53505F54 
 8293      45585443 
 8293      00
 8294              	.LASF320:
 8295 07cd 4F535F46 		.ascii	"OS_FN_CODEC_STATUS\000"
 8295      4E5F434F 
 8295      4445435F 
 8295      53544154 
 8295      555300
 8296              	.LASF608:
ARM GAS  C:\Users\AHMED~1.ELE\AppData\Local\Temp\cciu15sF.s 			page 169


 8297 07e0 67446576 		.ascii	"gDevHandle\000"
 8297      48616E64 
 8297      6C6500
 8298              	.LASF560:
 8299 07eb 54494D45 		.ascii	"TIMER_DEFAULTAPP\000"
 8299      525F4445 
 8299      4641554C 
 8299      54415050 
 8299      00
 8300              	.LASF405:
 8301 07fc 4F535F46 		.ascii	"OS_FN_WIFI_STATUS\000"
 8301      4E5F5749 
 8301      46495F53 
 8301      54415455 
 8301      5300
 8302              	.LASF540:
 8303 080e 534D535F 		.ascii	"SMS_RX_MW\000"
 8303      52585F4D 
 8303      5700
 8304              	.LASF494:
 8305 0818 55534246 		.ascii	"USBFPRT_GENERAL_INFO_END\000"
 8305      5052545F 
 8305      47454E45 
 8305      52414C5F 
 8305      494E464F 
 8306              	.LASF37:
 8307 0831 4F535F46 		.ascii	"OS_FN_DISP_OPEN\000"
 8307      4E5F4449 
 8307      53505F4F 
 8307      50454E00 
 8308              	.LASF39:
 8309 0841 4F535F46 		.ascii	"OS_FN_DISP_PUTC\000"
 8309      4E5F4449 
 8309      53505F50 
 8309      55544300 
 8310              	.LASF327:
 8311 0851 4F535F46 		.ascii	"OS_FN_CLICC_EMV_LV1\000"
 8311      4E5F434C 
 8311      4943435F 
 8311      454D565F 
 8311      4C563100 
 8312              	.LASF43:
 8313 0865 4F535F46 		.ascii	"OS_FN_DISP_PUTG\000"
 8313      4E5F4449 
 8313      53505F50 
 8313      55544700 
 8314              	.LASF133:
 8315 0875 4F535F46 		.ascii	"OS_FN_KEY_SAVE_TMK_CBC_NC\000"
 8315      4E5F4B45 
 8315      595F5341 
 8315      56455F54 
 8315      4D4B5F43 
 8316              	.LASF506:
 8317 088f 46435245 		.ascii	"FCREATEMW\000"
 8317      4154454D 
 8317      5700
 8318              	.LASF41:
ARM GAS  C:\Users\AHMED~1.ELE\AppData\Local\Temp\cciu15sF.s 			page 170


 8319 0899 4F535F46 		.ascii	"OS_FN_DISP_PUTN\000"
 8319      4E5F4449 
 8319      53505F50 
 8319      55544E00 
 8320              	.LASF474:
 8321 08a9 4F535F46 		.ascii	"OS_FN_IMG_SENSOR_GET_FRAME\000"
 8321      4E5F494D 
 8321      475F5345 
 8321      4E534F52 
 8321      5F474554 
 8322              	.LASF44:
 8323 08c4 4F535F46 		.ascii	"OS_FN_DISP_PUTP\000"
 8323      4E5F4449 
 8323      53505F50 
 8323      55545000 
 8324              	.LASF435:
 8325 08d4 4F535F46 		.ascii	"OS_FN_DUMMY\000"
 8325      4E5F4455 
 8325      4D4D5900 
 8326              	.LASF319:
 8327 08e0 4F535F46 		.ascii	"OS_FN_CODEC_STOP\000"
 8327      4E5F434F 
 8327      4445435F 
 8327      53544F50 
 8327      00
 8328              	.LASF40:
 8329 08f1 4F535F46 		.ascii	"OS_FN_DISP_PUTS\000"
 8329      4E5F4449 
 8329      53505F50 
 8329      55545300 
 8330              	.LASF202:
 8331 0901 4F535F46 		.ascii	"OS_FN_CONFIG_READ\000"
 8331      4E5F434F 
 8331      4E464947 
 8331      5F524541 
 8331      4400
 8332              	.LASF249:
 8333 0913 4F535F46 		.ascii	"OS_FN_USBSER_STATUS\000"
 8333      4E5F5553 
 8333      42534552 
 8333      5F535441 
 8333      54555300 
 8334              	.LASF408:
 8335 0927 4F535F46 		.ascii	"OS_FN_NFC_OPEN_FELICA\000"
 8335      4E5F4E46 
 8335      435F4F50 
 8335      454E5F46 
 8335      454C4943 
 8336              	.LASF155:
 8337 093d 4F535F46 		.ascii	"OS_FN_LED_ON\000"
 8337      4E5F4C45 
 8337      445F4F4E 
 8337      00
 8338              	.LASF151:
 8339 094a 4F535F46 		.ascii	"OS_FN_LED_CLOSE\000"
 8339      4E5F4C45 
 8339      445F434C 
ARM GAS  C:\Users\AHMED~1.ELE\AppData\Local\Temp\cciu15sF.s 			page 171


 8339      4F534500 
 8340              	.LASF532:
 8341 095a 44495350 		.ascii	"DISP_LINEMW\000"
 8341      5F4C494E 
 8341      454D5700 
 8342              	.LASF167:
 8343 0966 4F535F46 		.ascii	"OS_FN_FILE_OPEN\000"
 8343      4E5F4649 
 8343      4C455F4F 
 8343      50454E00 
 8344              	.LASF177:
 8345 0976 4F535F46 		.ascii	"OS_FN_FILE_PUTC\000"
 8345      4E5F4649 
 8345      4C455F50 
 8345      55544300 
 8346              	.LASF143:
 8347 0986 4F535F46 		.ascii	"OS_FN_THREAD_PUSH\000"
 8347      4E5F5448 
 8347      52454144 
 8347      5F505553 
 8347      4800
 8348              	.LASF500:
 8349 0998 57524954 		.ascii	"WRITEMW\000"
 8349      454D5700 
 8350              	.LASF522:
 8351 09a0 44495350 		.ascii	"DISPLOGOMW\000"
 8351      4C4F474F 
 8351      4D5700
 8352              	.LASF436:
 8353 09ab 4F535F46 		.ascii	"OS_FN_OFF\000"
 8353      4E5F4F46 
 8353      4600
 8354              	.LASF21:
 8355 09b5 4F535F46 		.ascii	"OS_FN_KBD_CLOSE\000"
 8355      4E5F4B42 
 8355      445F434C 
 8355      4F534500 
 8356              	.LASF503:
 8357 09c5 53544154 		.ascii	"STATMW\000"
 8357      4D5700
 8358              	.LASF20:
 8359 09cc 4F535F46 		.ascii	"OS_FN_KBD_OPEN\000"
 8359      4E5F4B42 
 8359      445F4F50 
 8359      454E00
 8360              	.LASF557:
 8361 09db 54494D45 		.ascii	"TIMER_GEN\000"
 8361      525F4745 
 8361      4E00
 8362              	.LASF127:
 8363 09e5 4F535F46 		.ascii	"OS_FN_KEY_CUP_MAC\000"
 8363      4E5F4B45 
 8363      595F4355 
 8363      505F4D41 
 8363      4300
 8364              	.LASF611:
 8365 09f7 6C69625F 		.ascii	"lib_app_call\000"
ARM GAS  C:\Users\AHMED~1.ELE\AppData\Local\Temp\cciu15sF.s 			page 172


 8365      6170705F 
 8365      63616C6C 
 8365      00
 8366              	.LASF53:
 8367 0a04 4F535F46 		.ascii	"OS_FN_DISP_ICON_PUTC\000"
 8367      4E5F4449 
 8367      53505F49 
 8367      434F4E5F 
 8367      50555443 
 8368              	.LASF201:
 8369 0a19 4F535F46 		.ascii	"OS_FN_CONFIG_LENGTH\000"
 8369      4E5F434F 
 8369      4E464947 
 8369      5F4C454E 
 8369      47544800 
 8370              	.LASF264:
 8371 0a2d 4F535F46 		.ascii	"OS_FN_FL_CREAD_RAND\000"
 8371      4E5F464C 
 8371      5F435245 
 8371      41445F52 
 8371      414E4400 
 8372              	.LASF513:
 8373 0a41 46575249 		.ascii	"FWRITEMW\000"
 8373      54454D57 
 8373      00
 8374              	.LASF516:
 8375 0a4a 46445345 		.ascii	"FDSEARCHMW\000"
 8375      41524348 
 8375      4D5700
 8376              	.LASF137:
 8377 0a55 4F535F46 		.ascii	"OS_FN_THREAD_OPEN\000"
 8377      4E5F5448 
 8377      52454144 
 8377      5F4F5045 
 8377      4E00
 8378              	.LASF176:
 8379 0a67 4F535F46 		.ascii	"OS_FN_FILE_WRITE\000"
 8379      4E5F4649 
 8379      4C455F57 
 8379      52495445 
 8379      00
 8380              	.LASF410:
 8381 0a78 4F535F46 		.ascii	"OS_FN_NFC_CANCEL\000"
 8381      4E5F4E46 
 8381      435F4341 
 8381      4E43454C 
 8381      00
 8382              	.LASF525:
 8383 0a89 5343484E 		.ascii	"SCHNLGETPINMW\000"
 8383      4C474554 
 8383      50494E4D 
 8383      5700
 8384              	.LASF470:
 8385 0a97 4F535F46 		.ascii	"OS_FN_WIFI_GET_DEVICE_STATE\000"
 8385      4E5F5749 
 8385      46495F47 
 8385      45545F44 
ARM GAS  C:\Users\AHMED~1.ELE\AppData\Local\Temp\cciu15sF.s 			page 173


 8385      45564943 
 8386              	.LASF62:
 8387 0ab3 4F535F46 		.ascii	"OS_FN_COM1_SEND\000"
 8387      4E5F434F 
 8387      4D315F53 
 8387      454E4400 
 8388              	.LASF136:
 8389 0ac3 4F535F46 		.ascii	"OS_FN_PCI_DSS\000"
 8389      4E5F5043 
 8389      495F4453 
 8389      5300
 8390              	.LASF621:
 8391 0ad1 433A5C54 		.ascii	"C:\\T1000-A5\\Projects\\APM\\apm_v3.0s03\000"
 8391      31303030 
 8391      2D41355C 
 8391      50726F6A 
 8391      65637473 
 8392              	.LASF538:
 8393 0af6 42535F43 		.ascii	"BS_CALL_MW\000"
 8393      414C4C5F 
 8393      4D5700
 8394              	.LASF354:
 8395 0b01 4F535F46 		.ascii	"OS_FN_INTERRUPT_UNREGISTER\000"
 8395      4E5F494E 
 8395      54455252 
 8395      5550545F 
 8395      554E5245 
 8396              	.LASF152:
 8397 0b1c 4F535F46 		.ascii	"OS_FN_LED_STATUS\000"
 8397      4E5F4C45 
 8397      445F5354 
 8397      41545553 
 8397      00
 8398              	.LASF70:
 8399 0b2d 4F535F46 		.ascii	"OS_FN_COM2_READ\000"
 8399      4E5F434F 
 8399      4D325F52 
 8399      45414400 
 8400              	.LASF31:
 8401 0b3d 4F535F46 		.ascii	"OS_FN_BUZ_OPEN\000"
 8401      4E5F4255 
 8401      5A5F4F50 
 8401      454E00
 8402              	.LASF329:
 8403 0b4c 4F535F46 		.ascii	"OS_FN_CLICC_LED_CLOSE\000"
 8403      4E5F434C 
 8403      4943435F 
 8403      4C45445F 
 8403      434C4F53 
 8404              	.LASF582:
 8405 0b62 64656369 		.ascii	"decimal_pos\000"
 8405      6D616C5F 
 8405      706F7300 
 8406              	.LASF227:
 8407 0b6e 4F535F46 		.ascii	"OS_FN_LAN_OPEN\000"
 8407      4E5F4C41 
 8407      4E5F4F50 
ARM GAS  C:\Users\AHMED~1.ELE\AppData\Local\Temp\cciu15sF.s 			page 174


 8407      454E00
 8408              	.LASF530:
 8409 0b7d 44495350 		.ascii	"DISP_CLRBELOWMW\000"
 8409      5F434C52 
 8409      42454C4F 
 8409      574D5700 
 8410              	.LASF449:
 8411 0b8d 4F535F46 		.ascii	"OS_FN_LPT_GET_COUNT\000"
 8411      4E5F4C50 
 8411      545F4745 
 8411      545F434F 
 8411      554E5400 
 8412              	.LASF285:
 8413 0ba1 4F535F46 		.ascii	"OS_FN_BATT_LEVEL\000"
 8413      4E5F4241 
 8413      54545F4C 
 8413      4556454C 
 8413      00
 8414              	.LASF433:
 8415 0bb2 4F535F46 		.ascii	"OS_FN_HD_CONFIG\000"
 8415      4E5F4844 
 8415      5F434F4E 
 8415      46494700 
 8416              	.LASF193:
 8417 0bc2 4F535F46 		.ascii	"OS_FN_FILE_FTRUNCATE\000"
 8417      4E5F4649 
 8417      4C455F46 
 8417      5452554E 
 8417      43415445 
 8418              	.LASF230:
 8419 0bd7 4F535F46 		.ascii	"OS_FN_LAN_TXRDY\000"
 8419      4E5F4C41 
 8419      4E5F5458 
 8419      52445900 
 8420              	.LASF138:
 8421 0be7 4F535F46 		.ascii	"OS_FN_THREAD_CLOSE\000"
 8421      4E5F5448 
 8421      52454144 
 8421      5F434C4F 
 8421      534500
 8422              	.LASF287:
 8423 0bfa 4F535F46 		.ascii	"OS_FN_BATT_CONTROL\000"
 8423      4E5F4241 
 8423      54545F43 
 8423      4F4E5452 
 8423      4F4C00
 8424              	.LASF374:
 8425 0c0d 4F535F46 		.ascii	"OS_FN_MIF_CARD_TYPE\000"
 8425      4E5F4D49 
 8425      465F4341 
 8425      52445F54 
 8425      59504500 
 8426              	.LASF221:
 8427 0c21 4F535F46 		.ascii	"OS_FN_MMC_WRITE\000"
 8427      4E5F4D4D 
 8427      435F5752 
 8427      49544500 
ARM GAS  C:\Users\AHMED~1.ELE\AppData\Local\Temp\cciu15sF.s 			page 175


 8428              	.LASF116:
 8429 0c31 4F535F46 		.ascii	"OS_FN_SM3\000"
 8429      4E5F534D 
 8429      3300
 8430              	.LASF455:
 8431 0c3b 4F535F46 		.ascii	"OS_FN_ECC_KEYPAIR_GENERATE\000"
 8431      4E5F4543 
 8431      435F4B45 
 8431      59504149 
 8431      525F4745 
 8432              	.LASF277:
 8433 0c56 4F535F46 		.ascii	"OS_FN_MCOM_PERMIT\000"
 8433      4E5F4D43 
 8433      4F4D5F50 
 8433      45524D49 
 8433      5400
 8434              	.LASF590:
 8435 0c68 57616974 		.ascii	"WaitKey\000"
 8435      4B657900 
 8436              	.LASF390:
 8437 0c70 4F535F46 		.ascii	"OS_FN_MIF_SENDCMD\000"
 8437      4E5F4D49 
 8437      465F5345 
 8437      4E44434D 
 8437      4400
 8438              	.LASF23:
 8439 0c82 4F535F46 		.ascii	"OS_FN_KBD_SCODE\000"
 8439      4E5F4B42 
 8439      445F5343 
 8439      4F444500 
 8440              	.LASF465:
 8441 0c92 4F535F46 		.ascii	"OS_FN_WIFI_SOCKET_CONNECT\000"
 8441      4E5F5749 
 8441      46495F53 
 8441      4F434B45 
 8441      545F434F 
 8442              	.LASF562:
 8443 0cac 54494D45 		.ascii	"TIMER_REMOTEDL\000"
 8443      525F5245 
 8443      4D4F5445 
 8443      444C00
 8444              	.LASF457:
 8445 0cbb 4F535F46 		.ascii	"OS_FN_ECC_SCALAR_MULTIPLY\000"
 8445      4E5F4543 
 8445      435F5343 
 8445      414C4152 
 8445      5F4D554C 
 8446              	.LASF363:
 8447 0cd5 4F535F46 		.ascii	"OS_FN_USBKBD_OPEN\000"
 8447      4E5F5553 
 8447      424B4244 
 8447      5F4F5045 
 8447      4E00
 8448              	.LASF380:
 8449 0ce7 4F535F46 		.ascii	"OS_FN_MIF_AUTH1\000"
 8449      4E5F4D49 
 8449      465F4155 
ARM GAS  C:\Users\AHMED~1.ELE\AppData\Local\Temp\cciu15sF.s 			page 176


 8449      54483100 
 8450              	.LASF381:
 8451 0cf7 4F535F46 		.ascii	"OS_FN_MIF_AUTH2\000"
 8451      4E5F4D49 
 8451      465F4155 
 8451      54483200 
 8452              	.LASF12:
 8453 0d07 424F4F4C 		.ascii	"BOOLEAN\000"
 8453      45414E00 
 8454              	.LASF86:
 8455 0d0f 4F535F46 		.ascii	"OS_FN_DES2\000"
 8455      4E5F4445 
 8455      533200
 8456              	.LASF106:
 8457 0d1a 4F535F46 		.ascii	"OS_FN_MD4_PROCESS\000"
 8457      4E5F4D44 
 8457      345F5052 
 8457      4F434553 
 8457      5300
 8458              	.LASF388:
 8459 0d2c 4F535F46 		.ascii	"OS_FN_MIF_DEC_TRANS\000"
 8459      4E5F4D49 
 8459      465F4445 
 8459      435F5452 
 8459      414E5300 
 8460              	.LASF344:
 8461 0d40 4F535F46 		.ascii	"OS_FN_DEVICE_REGISTER\000"
 8461      4E5F4445 
 8461      56494345 
 8461      5F524547 
 8461      49535445 
 8462              	.LASF61:
 8463 0d56 4F535F46 		.ascii	"OS_FN_COM1_READ\000"
 8463      4E5F434F 
 8463      4D315F52 
 8463      45414400 
 8464              	.LASF224:
 8465 0d66 4F535F46 		.ascii	"OS_FN_SLE_CLOSE\000"
 8465      4E5F534C 
 8465      455F434C 
 8465      4F534500 
 8466              	.LASF233:
 8467 0d76 4F535F46 		.ascii	"OS_FN_LAN_STATUS\000"
 8467      4E5F4C41 
 8467      4E5F5354 
 8467      41545553 
 8467      00
 8468              	.LASF161:
 8469 0d87 4F535F46 		.ascii	"OS_FN_APP_CLR_VIRGIN\000"
 8469      4E5F4150 
 8469      505F434C 
 8469      525F5649 
 8469      5247494E 
 8470              	.LASF160:
 8471 0d9c 4F535F46 		.ascii	"OS_FN_APP_GET_VIRGIN\000"
 8471      4E5F4150 
 8471      505F4745 
ARM GAS  C:\Users\AHMED~1.ELE\AppData\Local\Temp\cciu15sF.s 			page 177


 8471      545F5649 
 8471      5247494E 
 8472              	.LASF518:
 8473 0db1 4B424453 		.ascii	"KBDSCODEMW\000"
 8473      434F4445 
 8473      4D5700
 8474              	.LASF209:
 8475 0dbc 4F535F46 		.ascii	"OS_FN_SAM_ON\000"
 8475      4E5F5341 
 8475      4D5F4F4E 
 8475      00
 8476              	.LASF284:
 8477 0dc9 4F535F46 		.ascii	"OS_FN_MCOM_SEND\000"
 8477      4E5F4D43 
 8477      4F4D5F53 
 8477      454E4400 
 8478              	.LASF246:
 8479 0dd9 4F535F46 		.ascii	"OS_FN_USBSER_CLOSE\000"
 8479      4E5F5553 
 8479      42534552 
 8479      5F434C4F 
 8479      534500
 8480              	.LASF419:
 8481 0dec 4F535F46 		.ascii	"OS_FN_GPS_GET_INFO\000"
 8481      4E5F4750 
 8481      535F4745 
 8481      545F494E 
 8481      464F00
 8482              	.LASF270:
 8483 0dff 4F535F46 		.ascii	"OS_FN_MDM_DIAL\000"
 8483      4E5F4D44 
 8483      4D5F4449 
 8483      414C00
 8484              	.LASF140:
 8485 0e0e 4F535F46 		.ascii	"OS_FN_THREAD_DELETE\000"
 8485      4E5F5448 
 8485      52454144 
 8485      5F44454C 
 8485      45544500 
 8486              	.LASF150:
 8487 0e22 4F535F46 		.ascii	"OS_FN_LED_OPEN\000"
 8487      4E5F4C45 
 8487      445F4F50 
 8487      454E00
 8488              	.LASF35:
 8489 0e31 4F535F46 		.ascii	"OS_FN_RTC_GET\000"
 8489      4E5F5254 
 8489      435F4745 
 8489      5400
 8490              	.LASF402:
 8491 0e3f 4F535F46 		.ascii	"OS_FN_WIFI_CONTROL\000"
 8491      4E5F5749 
 8491      46495F43 
 8491      4F4E5452 
 8491      4F4C00
 8492              	.LASF154:
 8493 0e52 4F535F46 		.ascii	"OS_FN_LED_CLEAR\000"
ARM GAS  C:\Users\AHMED~1.ELE\AppData\Local\Temp\cciu15sF.s 			page 178


 8493      4E5F4C45 
 8493      445F434C 
 8493      45415200 
 8494              	.LASF446:
 8495 0e62 4F535F46 		.ascii	"OS_FN_DTIMER_LATCH_STOP\000"
 8495      4E5F4454 
 8495      494D4552 
 8495      5F4C4154 
 8495      43485F53 
 8496              	.LASF355:
 8497 0e7a 4F535F46 		.ascii	"OS_FN_BUS_START\000"
 8497      4E5F4255 
 8497      535F5354 
 8497      41525400 
 8498              	.LASF100:
 8499 0e8a 4F535F46 		.ascii	"OS_FN_MD5_FINISH\000"
 8499      4E5F4D44 
 8499      355F4649 
 8499      4E495348 
 8499      00
 8500              	.LASF490:
 8501 0e9b 55534246 		.ascii	"USBFPRT_GENERAL_INFO_MODEL\000"
 8501      5052545F 
 8501      47454E45 
 8501      52414C5F 
 8501      494E464F 
 8502              	.LASF417:
 8503 0eb6 4F535F46 		.ascii	"OS_FN_GPS_ON\000"
 8503      4E5F4750 
 8503      535F4F4E 
 8503      00
 8504              	.LASF318:
 8505 0ec3 4F535F46 		.ascii	"OS_FN_CODEC_PLAY_RAM\000"
 8505      4E5F434F 
 8505      4445435F 
 8505      504C4159 
 8505      5F52414D 
 8506              	.LASF282:
 8507 0ed8 4F535F46 		.ascii	"OS_FN_MCOM_STATUS\000"
 8507      4E5F4D43 
 8507      4F4D5F53 
 8507      54415455 
 8507      5300
 8508              	.LASF54:
 8509 0eea 4F535F46 		.ascii	"OS_FN_DISP_ICON_TEXTC\000"
 8509      4E5F4449 
 8509      53505F49 
 8509      434F4E5F 
 8509      54455854 
 8510              	.LASF430:
 8511 0f00 4F535F46 		.ascii	"OS_FN_POWER_SLEEP\000"
 8511      4E5F504F 
 8511      5745525F 
 8511      534C4545 
 8511      5000
 8512              	.LASF168:
 8513 0f12 4F535F46 		.ascii	"OS_FN_FILE_CREATE\000"
ARM GAS  C:\Users\AHMED~1.ELE\AppData\Local\Temp\cciu15sF.s 			page 179


 8513      4E5F4649 
 8513      4C455F43 
 8513      52454154 
 8513      4500
 8514              	.LASF240:
 8515 0f24 4F535F46 		.ascii	"OS_FN_LPT_OPEN\000"
 8515      4E5F4C50 
 8515      545F4F50 
 8515      454E00
 8516              	.LASF242:
 8517 0f33 4F535F46 		.ascii	"OS_FN_LPT_PUTC\000"
 8517      4E5F4C50 
 8517      545F5055 
 8517      544300
 8518              	.LASF232:
 8519 0f42 4F535F46 		.ascii	"OS_FN_LAN_SEND\000"
 8519      4E5F4C41 
 8519      4E5F5345 
 8519      4E4400
 8520              	.LASF375:
 8521 0f51 4F535F46 		.ascii	"OS_FN_MIF_TAG\000"
 8521      4E5F4D49 
 8521      465F5441 
 8521      4700
 8522              	.LASF595:
 8523 0f5f 64697370 		.ascii	"disp_len\000"
 8523      5F6C656E 
 8523      00
 8524              	.LASF452:
 8525 0f68 4F535F46 		.ascii	"OS_FN_FPRT_SCAN_IMG\000"
 8525      4E5F4650 
 8525      52545F53 
 8525      43414E5F 
 8525      494D4700 
 8526              	.LASF568:
 8527 0f7c 73625072 		.ascii	"sbPrefix\000"
 8527      65666978 
 8527      00
 8528              	.LASF310:
 8529 0f85 4F535F46 		.ascii	"OS_FN_TPAD_DEL_OBJ\000"
 8529      4E5F5450 
 8529      41445F44 
 8529      454C5F4F 
 8529      424A00
 8530              	.LASF505:
 8531 0f98 46535953 		.ascii	"FSYSINITMW\000"
 8531      494E4954 
 8531      4D5700
 8532              	.LASF502:
 8533 0fa3 494F4354 		.ascii	"IOCTLMW\000"
 8533      4C4D5700 
 8534              	.LASF342:
 8535 0fab 4F535F46 		.ascii	"OS_FN_DRIVER_UNREGISTER\000"
 8535      4E5F4452 
 8535      49564552 
 8535      5F554E52 
 8535      45474953 
ARM GAS  C:\Users\AHMED~1.ELE\AppData\Local\Temp\cciu15sF.s 			page 180


 8536              	.LASF245:
 8537 0fc3 4F535F46 		.ascii	"OS_FN_USBSER_OPEN\000"
 8537      4E5F5553 
 8537      42534552 
 8537      5F4F5045 
 8537      4E00
 8538              	.LASF434:
 8539 0fd5 4F535F46 		.ascii	"OS_FN_RDLL_APP\000"
 8539      4E5F5244 
 8539      4C4C5F41 
 8539      505000
 8540              	.LASF175:
 8541 0fe4 4F535F46 		.ascii	"OS_FN_FILE_READ\000"
 8541      4E5F4649 
 8541      4C455F52 
 8541      45414400 
 8542              	.LASF144:
 8543 0ff4 4F535F46 		.ascii	"OS_FN_THREAD_POP\000"
 8543      4E5F5448 
 8543      52454144 
 8543      5F504F50 
 8543      00
 8544              	.LASF526:
 8545 1005 4C4C5345 		.ascii	"LLSEEKMW\000"
 8545      454B4D57 
 8545      00
 8546              	.LASF324:
 8547 100e 4F535F46 		.ascii	"OS_FN_CLICC_CLOSE\000"
 8547      4E5F434C 
 8547      4943435F 
 8547      434C4F53 
 8547      4500
 8548              	.LASF337:
 8549 1020 4F535F46 		.ascii	"OS_FN_USBHOST_STATUS\000"
 8549      4E5F5553 
 8549      42484F53 
 8549      545F5354 
 8549      41545553 
 8550              	.LASF481:
 8551 1035 4F535F46 		.ascii	"OS_FN_DISP_PUTS_ANYWHERE\000"
 8551      4E5F4449 
 8551      53505F50 
 8551      5554535F 
 8551      414E5957 
 8552              	.LASF622:
 8553 104e 73797374 		.ascii	"system_call_list\000"
 8553      656D5F63 
 8553      616C6C5F 
 8553      6C697374 
 8553      00
 8554              	.LASF544:
 8555 105f 4652454E 		.ascii	"FRENAMEMW\000"
 8555      414D454D 
 8555      5700
 8556              	.LASF226:
 8557 1069 4F535F46 		.ascii	"OS_FN_SLE_IO\000"
 8557      4E5F534C 
ARM GAS  C:\Users\AHMED~1.ELE\AppData\Local\Temp\cciu15sF.s 			page 181


 8557      455F494F 
 8557      00
 8558              	.LASF16:
 8559 1076 4444574F 		.ascii	"DDWORD\000"
 8559      524400
 8560              	.LASF555:
 8561 107d 41504D5F 		.ascii	"APM_SDEV_WIFI\000"
 8561      53444556 
 8561      5F574946 
 8561      4900
 8562              	.LASF272:
 8563 108b 4F535F46 		.ascii	"OS_FN_MDM_CID\000"
 8563      4E5F4D44 
 8563      4D5F4349 
 8563      4400
 8564              	.LASF563:
 8565 1099 4D41585F 		.ascii	"MAX_TIMER_SUPPORT\000"
 8565      54494D45 
 8565      525F5355 
 8565      50504F52 
 8565      5400
 8566              	.LASF278:
 8567 10ab 4F535F46 		.ascii	"OS_FN_MCOM_RXRDY\000"
 8567      4E5F4D43 
 8567      4F4D5F52 
 8567      58524459 
 8567      00
 8568              	.LASF241:
 8569 10bc 4F535F46 		.ascii	"OS_FN_LPT_CLOSE\000"
 8569      4E5F4C50 
 8569      545F434C 
 8569      4F534500 
 8570              	.LASF123:
 8571 10cc 4F535F46 		.ascii	"OS_FN_KEY_RSA\000"
 8571      4E5F4B45 
 8571      595F5253 
 8571      4100
 8572              	.LASF620:
 8573 10da 7372632F 		.ascii	"src/kbdutil.c\000"
 8573      6B626475 
 8573      74696C2E 
 8573      6300
 8574              	.LASF135:
 8575 10e8 4F535F46 		.ascii	"OS_FN_PCI_DSS_REGEN_KEY\000"
 8575      4E5F5043 
 8575      495F4453 
 8575      535F5245 
 8575      47454E5F 
 8576              	.LASF206:
 8577 1100 4F535F46 		.ascii	"OS_FN_SAM_CLOSE\000"
 8577      4E5F5341 
 8577      4D5F434C 
 8577      4F534500 
 8578              	.LASF87:
 8579 1110 4F535F46 		.ascii	"OS_FN_COM_DESKEY\000"
 8579      4E5F434F 
 8579      4D5F4445 
ARM GAS  C:\Users\AHMED~1.ELE\AppData\Local\Temp\cciu15sF.s 			page 182


 8579      534B4559 
 8579      00
 8580              	.LASF592:
 8581 1121 57616974 		.ascii	"WaitKeyCheck\000"
 8581      4B657943 
 8581      6865636B 
 8581      00
 8582              	.LASF294:
 8583 112e 4F535F46 		.ascii	"OS_FN_GPRS_AT_CMD\000"
 8583      4E5F4750 
 8583      52535F41 
 8583      545F434D 
 8583      4400
 8584              	.LASF482:
 8585 1140 4F535F46 		.ascii	"OS_FN_BATT_CHARGE_NOW\000"
 8585      4E5F4241 
 8585      54545F43 
 8585      48415247 
 8585      455F4E4F 
 8586              	.LASF198:
 8587 1156 4F535F46 		.ascii	"OS_FN_FILE_GET_LONGNAME\000"
 8587      4E5F4649 
 8587      4C455F47 
 8587      45545F4C 
 8587      4F4E474E 
 8588              	.LASF373:
 8589 116e 4F535F46 		.ascii	"OS_FN_MIF_HALT\000"
 8589      4E5F4D49 
 8589      465F4841 
 8589      4C5400
 8590              	.LASF266:
 8591 117d 4F535F46 		.ascii	"OS_FN_FL_CREAD_END\000"
 8591      4E5F464C 
 8591      5F435245 
 8591      41445F45 
 8591      4E4400
 8592              	.LASF239:
 8593 1190 4F535F46 		.ascii	"OS_FN_MSR_STATUS\000"
 8593      4E5F4D53 
 8593      525F5354 
 8593      41545553 
 8593      00
 8594              	.LASF394:
 8595 11a1 4F535F46 		.ascii	"OS_FN_BARCODE_OPEN\000"
 8595      4E5F4241 
 8595      52434F44 
 8595      455F4F50 
 8595      454E00
 8596              	.LASF472:
 8597 11b4 4F535F46 		.ascii	"OS_FN_WIFI_SOCKET_LISTEN\000"
 8597      4E5F5749 
 8597      46495F53 
 8597      4F434B45 
 8597      545F4C49 
 8598              	.LASF248:
 8599 11cd 4F535F46 		.ascii	"OS_FN_USBSER_WRITE\000"
 8599      4E5F5553 
ARM GAS  C:\Users\AHMED~1.ELE\AppData\Local\Temp\cciu15sF.s 			page 183


 8599      42534552 
 8599      5F575249 
 8599      544500
 8600              	.LASF372:
 8601 11e0 4F535F46 		.ascii	"OS_FN_MIF_CANCEL\000"
 8601      4E5F4D49 
 8601      465F4341 
 8601      4E43454C 
 8601      00
 8602              	.LASF5:
 8603 11f1 6C6F6E67 		.ascii	"long unsigned int\000"
 8603      20756E73 
 8603      69676E65 
 8603      6420696E 
 8603      7400
 8604              	.LASF49:
 8605 1203 4F535F46 		.ascii	"OS_FN_DISP_BACKC\000"
 8605      4E5F4449 
 8605      53505F42 
 8605      41434B43 
 8605      00
 8606              	.LASF45:
 8607 1214 4F535F46 		.ascii	"OS_FN_DISP_GETP\000"
 8607      4E5F4449 
 8607      53505F47 
 8607      45545000 
 8608              	.LASF425:
 8609 1224 4F535F46 		.ascii	"OS_FN_BREG_READ\000"
 8609      4E5F4252 
 8609      45475F52 
 8609      45414400 
 8610              	.LASF303:
 8611 1234 4F535F46 		.ascii	"OS_FN_GPRS_SMS_ACK\000"
 8611      4E5F4750 
 8611      52535F53 
 8611      4D535F41 
 8611      434B00
 8612              	.LASF18:
 8613 1247 4F535F46 		.ascii	"OS_FN_RAND\000"
 8613      4E5F5241 
 8613      4E4400
 8614              	.LASF235:
 8615 1252 4F535F46 		.ascii	"OS_FN_MSR_CLOSE\000"
 8615      4E5F4D53 
 8615      525F434C 
 8615      4F534500 
 8616              	.LASF520:
 8617 1262 4445534D 		.ascii	"DESMW\000"
 8617      5700
 8618              	.LASF604:
 8619 1268 6D61785F 		.ascii	"max_len\000"
 8619      6C656E00 
 8620              	.LASF404:
 8621 1270 4F535F46 		.ascii	"OS_FN_WIFI_RECV_RESPONSE\000"
 8621      4E5F5749 
 8621      46495F52 
 8621      4543565F 
ARM GAS  C:\Users\AHMED~1.ELE\AppData\Local\Temp\cciu15sF.s 			page 184


 8621      52455350 
 8622              	.LASF231:
 8623 1289 4F535F46 		.ascii	"OS_FN_LAN_READ\000"
 8623      4E5F4C41 
 8623      4E5F5245 
 8623      414400
 8624              	.LASF495:
 8625 1298 53544152 		.ascii	"STARTUPMW\000"
 8625      5455504D 
 8625      5700
 8626              	.LASF619:
 8627 12a2 474E5520 		.ascii	"GNU C 4.9.3 20141119 (release) [ARM/embedded-4_9-br"
 8627      4320342E 
 8627      392E3320 
 8627      32303134 
 8627      31313139 
 8628 12d5 616E6368 		.ascii	"anch revision 218278] -mthumb -mcpu=cortex-a5 -mthu"
 8628      20726576 
 8628      6973696F 
 8628      6E203231 
 8628      38323738 
 8629 1308 6D622D69 		.ascii	"mb-interwork -mstructure-size-boundary=32 -mno-unal"
 8629      6E746572 
 8629      776F726B 
 8629      202D6D73 
 8629      74727563 
 8630 133b 69676E65 		.ascii	"igned-access -g -Os -ffunction-sections -fsigned-ch"
 8630      642D6163 
 8630      63657373 
 8630      202D6720 
 8630      2D4F7320 
 8631 136e 617200   		.ascii	"ar\000"
 8632              	.LASF463:
 8633 1371 4F535F46 		.ascii	"OS_FN_GCM_AES_CLOSE\000"
 8633      4E5F4743 
 8633      4D5F4145 
 8633      535F434C 
 8633      4F534500 
 8634              	.LASF268:
 8635 1385 4F535F46 		.ascii	"OS_FN_MDM_OPEN\000"
 8635      4E5F4D44 
 8635      4D5F4F50 
 8635      454E00
 8636              	.LASF274:
 8637 1394 4F535F46 		.ascii	"OS_FN_MDM_LAST_CONN_STAT\000"
 8637      4E5F4D44 
 8637      4D5F4C41 
 8637      53545F43 
 8637      4F4E4E5F 
 8638              	.LASF429:
 8639 13ad 4F535F46 		.ascii	"OS_FN_SLEEP\000"
 8639      4E5F534C 
 8639      45455000 
 8640              	.LASF542:
 8641 13b9 534D535F 		.ascii	"SMS_COUNT_MW\000"
 8641      434F554E 
 8641      545F4D57 
ARM GAS  C:\Users\AHMED~1.ELE\AppData\Local\Temp\cciu15sF.s 			page 185


 8641      00
 8642              	.LASF243:
 8643 13c6 4F535F46 		.ascii	"OS_FN_LPT_PUTDW\000"
 8643      4E5F4C50 
 8643      545F5055 
 8643      54445700 
 8644              	.LASF25:
 8645 13d6 4F535F46 		.ascii	"OS_FN_KBD_LOCK\000"
 8645      4E5F4B42 
 8645      445F4C4F 
 8645      434B00
 8646              	.LASF477:
 8647 13e5 4F535F46 		.ascii	"OS_FN_GPRS_IS_HL6RD\000"
 8647      4E5F4750 
 8647      52535F49 
 8647      535F484C 
 8647      36524400 
 8648              	.LASF153:
 8649 13f9 4F535F46 		.ascii	"OS_FN_LED_SET\000"
 8649      4E5F4C45 
 8649      445F5345 
 8649      5400
 8650              	.LASF510:
 8651 1407 464C454E 		.ascii	"FLENGTHMW\000"
 8651      4754484D 
 8651      5700
 8652              	.LASF321:
 8653 1411 4F535F46 		.ascii	"OS_FN_CLICC_OPEN\000"
 8653      4E5F434C 
 8653      4943435F 
 8653      4F50454E 
 8653      00
 8654              	.LASF561:
 8655 1422 54494D45 		.ascii	"TIMER_WIFI\000"
 8655      525F5749 
 8655      464900
 8656              	.LASF456:
 8657 142d 4F535F46 		.ascii	"OS_FN_ECC_PUBKEY_VERIFY\000"
 8657      4E5F4543 
 8657      435F5055 
 8657      424B4559 
 8657      5F564552 
 8658              	.LASF365:
 8659 1445 4F535F46 		.ascii	"OS_FN_USBKBD_INKEY\000"
 8659      4E5F5553 
 8659      424B4244 
 8659      5F494E4B 
 8659      455900
 8660              	.LASF69:
 8661 1458 4F535F46 		.ascii	"OS_FN_COM2_TXRDY\000"
 8661      4E5F434F 
 8661      4D325F54 
 8661      58524459 
 8661      00
 8662              	.LASF141:
 8663 1469 4F535F46 		.ascii	"OS_FN_THREAD_LOCK\000"
 8663      4E5F5448 
ARM GAS  C:\Users\AHMED~1.ELE\AppData\Local\Temp\cciu15sF.s 			page 186


 8663      52454144 
 8663      5F4C4F43 
 8663      4B00
 8664              	.LASF356:
 8665 147b 4F535F46 		.ascii	"OS_FN_BUS_STOP\000"
 8665      4E5F4255 
 8665      535F5354 
 8665      4F5000
 8666              	.LASF591:
 8667 148a 6154696D 		.ascii	"aTimeout\000"
 8667      656F7574 
 8667      00
 8668              	.LASF302:
 8669 1493 4F535F46 		.ascii	"OS_FN_GPRS_SMS_DECODE\000"
 8669      4E5F4750 
 8669      52535F53 
 8669      4D535F44 
 8669      45434F44 
 8670              	.LASF280:
 8671 14a9 4F535F46 		.ascii	"OS_FN_MCOM_SREAD\000"
 8671      4E5F4D43 
 8671      4F4D5F53 
 8671      52454144 
 8671      00
 8672              	.LASF129:
 8673 14ba 4F535F46 		.ascii	"OS_FN_KEY_HASH\000"
 8673      4E5F4B45 
 8673      595F4841 
 8673      534800
 8674              	.LASF191:
 8675 14c9 4F535F46 		.ascii	"OS_FN_FILE_FREESPACE\000"
 8675      4E5F4649 
 8675      4C455F46 
 8675      52454553 
 8675      50414345 
 8676              	.LASF211:
 8677 14de 4F535F46 		.ascii	"OS_FN_SAM_T1\000"
 8677      4E5F5341 
 8677      4D5F5431 
 8677      00
 8678              	.LASF195:
 8679 14eb 4F535F46 		.ascii	"OS_FN_FILE_READDIR\000"
 8679      4E5F4649 
 8679      4C455F52 
 8679      45414444 
 8679      495200
 8680              	.LASF33:
 8681 14fe 4F535F46 		.ascii	"OS_FN_BUZ_BEEP\000"
 8681      4E5F4255 
 8681      5A5F4245 
 8681      455000
 8682              	.LASF441:
 8683 150d 4F535F46 		.ascii	"OS_FN_APPCALL_RETURN\000"
 8683      4E5F4150 
 8683      5043414C 
 8683      4C5F5245 
 8683      5455524E 
ARM GAS  C:\Users\AHMED~1.ELE\AppData\Local\Temp\cciu15sF.s 			page 187


 8684              	.LASF121:
 8685 1522 4F535F46 		.ascii	"OS_FN_KEY_SAVE_TMK\000"
 8685      4E5F4B45 
 8685      595F5341 
 8685      56455F54 
 8685      4D4B00
 8686              	.LASF517:
 8687 1535 47455443 		.ascii	"GETCHARMW\000"
 8687      4841524D 
 8687      5700
 8688              	.LASF19:
 8689 153f 4F535F46 		.ascii	"OS_FN_RAND_UPDATE\000"
 8689      4E5F5241 
 8689      4E445F55 
 8689      50444154 
 8689      4500
 8690              	.LASF406:
 8691 1551 4F535F46 		.ascii	"OS_FN_WIFI_PROFILES_READ\000"
 8691      4E5F5749 
 8691      46495F50 
 8691      524F4649 
 8691      4C45535F 
 8692              	.LASF169:
 8693 156a 4F535F46 		.ascii	"OS_FN_FILE_CLOSE\000"
 8693      4E5F4649 
 8693      4C455F43 
 8693      4C4F5345 
 8693      00
 8694              	.LASF165:
 8695 157b 4F535F46 		.ascii	"OS_FN_FREE\000"
 8695      4E5F4652 
 8695      454500
 8696              	.LASF529:
 8697 1586 44495350 		.ascii	"DISP_CLRLINEMW\000"
 8697      5F434C52 
 8697      4C494E45 
 8697      4D5700
 8698              	.LASF385:
 8699 1595 4F535F46 		.ascii	"OS_FN_MIF_DEC\000"
 8699      4E5F4D49 
 8699      465F4445 
 8699      4300
 8700              	.LASF6:
 8701 15a3 6C6F6E67 		.ascii	"long long int\000"
 8701      206C6F6E 
 8701      6720696E 
 8701      7400
 8702              	.LASF38:
 8703 15b1 4F535F46 		.ascii	"OS_FN_DISP_CLOSE\000"
 8703      4E5F4449 
 8703      53505F43 
 8703      4C4F5345 
 8703      00
 8704              	.LASF378:
 8705 15c2 4F535F46 		.ascii	"OS_FN_MIF_SELECT\000"
 8705      4E5F4D49 
 8705      465F5345 
ARM GAS  C:\Users\AHMED~1.ELE\AppData\Local\Temp\cciu15sF.s 			page 188


 8705      4C454354 
 8705      00
 8706              	.LASF519:
 8707 15d3 4445534B 		.ascii	"DESKEYMW\000"
 8707      45594D57 
 8707      00
 8708              	.LASF361:
 8709 15dc 4F535F46 		.ascii	"OS_FN_NETDEV_EVENT\000"
 8709      4E5F4E45 
 8709      54444556 
 8709      5F455645 
 8709      4E5400
 8710              	.LASF72:
 8711 15ef 4F535F46 		.ascii	"OS_FN_COM2_STATUS\000"
 8711      4E5F434F 
 8711      4D325F53 
 8711      54415455 
 8711      5300
 8712              	.LASF89:
 8713 1601 4F535F46 		.ascii	"OS_FN_COM_DES2\000"
 8713      4E5F434F 
 8713      4D5F4445 
 8713      533200
 8714              	.LASF553:
 8715 1610 41504D5F 		.ascii	"APM_SDEV_CDC\000"
 8715      53444556 
 8715      5F434443 
 8715      00
 8716              	.LASF507:
 8717 161d 4644454C 		.ascii	"FDELETEMW\000"
 8717      4554454D 
 8717      5700
 8718              	.LASF298:
 8719 1627 4F535F46 		.ascii	"OS_FN_GPRS_RESET\000"
 8719      4E5F4750 
 8719      52535F52 
 8719      45534554 
 8719      00
 8720              	.LASF395:
 8721 1638 4F535F46 		.ascii	"OS_FN_BARCODE_CLOSE\000"
 8721      4E5F4241 
 8721      52434F44 
 8721      455F434C 
 8721      4F534500 
 8722              	.LASF256:
 8723 164c 4F535F46 		.ascii	"OS_FN_FL_PGM_START\000"
 8723      4E5F464C 
 8723      5F50474D 
 8723      5F535441 
 8723      525400
 8724              	.LASF260:
 8725 165f 4F535F46 		.ascii	"OS_FN_FL_ERASE_END\000"
 8725      4E5F464C 
 8725      5F455241 
 8725      53455F45 
 8725      4E4400
 8726              	.LASF296:
ARM GAS  C:\Users\AHMED~1.ELE\AppData\Local\Temp\cciu15sF.s 			page 189


 8727 1672 4F535F46 		.ascii	"OS_FN_GPRS_SEND\000"
 8727      4E5F4750 
 8727      52535F53 
 8727      454E4400 
 8728              	.LASF244:
 8729 1682 4F535F46 		.ascii	"OS_FN_LPT_STATUS\000"
 8729      4E5F4C50 
 8729      545F5354 
 8729      41545553 
 8729      00
 8730              	.LASF593:
 8731 1693 61436865 		.ascii	"aCheckList\000"
 8731      636B4C69 
 8731      737400
 8732              	.LASF52:
 8733 169e 4F535F46 		.ascii	"OS_FN_DISP_ICON_COLOR\000"
 8733      4E5F4449 
 8733      53505F49 
 8733      434F4E5F 
 8733      434F4C4F 
 8734              	.LASF589:
 8735 16b4 4765744B 		.ascii	"GetKbdTimeout\000"
 8735      62645469 
 8735      6D656F75 
 8735      7400
 8736              	.LASF492:
 8737 16c2 55534246 		.ascii	"USBFPRT_GENERAL_INFO_IMG_HEIGHT\000"
 8737      5052545F 
 8737      47454E45 
 8737      52414C5F 
 8737      494E464F 
 8738              	.LASF575:
 8739 16e2 644F7074 		.ascii	"dOption\000"
 8739      696F6E00 
 8740              	.LASF158:
 8741 16ea 4F535F46 		.ascii	"OS_FN_APP_SEARCH_ID\000"
 8741      4E5F4150 
 8741      505F5345 
 8741      41524348 
 8741      5F494400 
 8742              	.LASF350:
 8743 16fe 4F535F46 		.ascii	"OS_FN_DEVICE_OPEN\000"
 8743      4E5F4445 
 8743      56494345 
 8743      5F4F5045 
 8743      4E00
 8744              	.LASF56:
 8745 1710 4F535F46 		.ascii	"OS_FN_DISP_OVERLAY\000"
 8745      4E5F4449 
 8745      53505F4F 
 8745      5645524C 
 8745      415900
 8746              	.LASF314:
 8747 1723 4F535F46 		.ascii	"OS_FN_TPAD_RAW_POS\000"
 8747      4E5F5450 
 8747      41445F52 
 8747      41575F50 
ARM GAS  C:\Users\AHMED~1.ELE\AppData\Local\Temp\cciu15sF.s 			page 190


 8747      4F5300
 8748              	.LASF554:
 8749 1736 41504D5F 		.ascii	"APM_SDEV_MDM\000"
 8749      53444556 
 8749      5F4D444D 
 8749      00
 8750              	.LASF552:
 8751 1743 41504D5F 		.ascii	"APM_SDEV_PPP\000"
 8751      53444556 
 8751      5F505050 
 8751      00
 8752              	.LASF84:
 8753 1750 4F535F46 		.ascii	"OS_FN_DESKEY\000"
 8753      4E5F4445 
 8753      534B4559 
 8753      00
 8754              	.LASF59:
 8755 175d 4F535F46 		.ascii	"OS_FN_COM1_RXRDY\000"
 8755      4E5F434F 
 8755      4D315F52 
 8755      58524459 
 8755      00
 8756              	.LASF247:
 8757 176e 4F535F46 		.ascii	"OS_FN_USBSER_READ\000"
 8757      4E5F5553 
 8757      42534552 
 8757      5F524541 
 8757      4400
 8758              	.LASF99:
 8759 1780 4F535F46 		.ascii	"OS_FN_MD5_PROCESS\000"
 8759      4E5F4D44 
 8759      355F5052 
 8759      4F434553 
 8759      5300
 8760              	.LASF501:
 8761 1792 4C534545 		.ascii	"LSEEKMW\000"
 8761      4B4D5700 
 8762              	.LASF60:
 8763 179a 4F535F46 		.ascii	"OS_FN_COM1_TXRDY\000"
 8763      4E5F434F 
 8763      4D315F54 
 8763      58524459 
 8763      00
 8764              	.LASF171:
 8765 17ab 4F535F46 		.ascii	"OS_FN_FILE_RENAME\000"
 8765      4E5F4649 
 8765      4C455F52 
 8765      454E414D 
 8765      4500
 8766              	.LASF451:
 8767 17bd 4F535F46 		.ascii	"OS_FN_FPRT_CLOSE\000"
 8767      4E5F4650 
 8767      52545F43 
 8767      4C4F5345 
 8767      00
 8768              	.LASF126:
 8769 17ce 4F535F46 		.ascii	"OS_FN_KEY_DUKPT_MAC_CAL\000"
ARM GAS  C:\Users\AHMED~1.ELE\AppData\Local\Temp\cciu15sF.s 			page 191


 8769      4E5F4B45 
 8769      595F4455 
 8769      4B50545F 
 8769      4D41435F 
 8770              	.LASF353:
 8771 17e6 4F535F46 		.ascii	"OS_FN_INTERRUPT_REGISTER\000"
 8771      4E5F494E 
 8771      54455252 
 8771      5550545F 
 8771      52454749 
 8772              	.LASF212:
 8773 17ff 4F535F46 		.ascii	"OS_FN_SAM_CHANGE\000"
 8773      4E5F5341 
 8773      4D5F4348 
 8773      414E4745 
 8773      00
 8774              	.LASF185:
 8775 1810 4F535F46 		.ascii	"OS_FN_FILE_ACTIVATE\000"
 8775      4E5F4649 
 8775      4C455F41 
 8775      43544956 
 8775      41544500 
 8776              	.LASF46:
 8777 1824 4F535F46 		.ascii	"OS_FN_DISP_LENGTH\000"
 8777      4E5F4449 
 8777      53505F4C 
 8777      454E4754 
 8777      4800
 8778              	.LASF543:
 8779 1836 534D535F 		.ascii	"SMS_CLEAR_ALL_MW\000"
 8779      434C4541 
 8779      525F414C 
 8779      4C5F4D57 
 8779      00
 8780              	.LASF453:
 8781 1847 4F535F46 		.ascii	"OS_FN_FPRT_INFO_SET\000"
 8781      4E5F4650 
 8781      52545F49 
 8781      4E464F5F 
 8781      53455400 
 8782              	.LASF8:
 8783 185b 756E7369 		.ascii	"unsigned int\000"
 8783      676E6564 
 8783      20696E74 
 8783      00
 8784              	.LASF614:
 8785 1868 7379735F 		.ascii	"sys_func0\000"
 8785      66756E63 
 8785      3000
 8786              	.LASF610:
 8787 1872 7379735F 		.ascii	"sys_func1\000"
 8787      66756E63 
 8787      3100
 8788              	.LASF615:
 8789 187c 7379735F 		.ascii	"sys_func2\000"
 8789      66756E63 
 8789      3200
ARM GAS  C:\Users\AHMED~1.ELE\AppData\Local\Temp\cciu15sF.s 			page 192


 8790              	.LASF447:
 8791 1886 4F535F46 		.ascii	"OS_FN_DTIMER_LATCH_TIME\000"
 8791      4E5F4454 
 8791      494D4552 
 8791      5F4C4154 
 8791      43485F54 
 8792              	.LASF627:
 8793 189e 4C6F6E67 		.ascii	"LongBeep\000"
 8793      42656570 
 8793      00
 8794              	.LASF325:
 8795 18a7 4F535F46 		.ascii	"OS_FN_CLICC_SENDCOMMAND\000"
 8795      4E5F434C 
 8795      4943435F 
 8795      53454E44 
 8795      434F4D4D 
 8796              	.LASF438:
 8797 18bf 4F535F46 		.ascii	"OS_FN_DLL_REQ\000"
 8797      4E5F444C 
 8797      4C5F5245 
 8797      5100
 8798              	.LASF602:
 8799 18cd 6C617374 		.ascii	"last_tick\000"
 8799      5F746963 
 8799      6B00
 8800              	.LASF178:
 8801 18d7 4F535F46 		.ascii	"OS_FN_FILE_GETC\000"
 8801      4E5F4649 
 8801      4C455F47 
 8801      45544300 
 8802              	.LASF398:
 8803 18e7 4F535F46 		.ascii	"OS_FN_BARCODE_READ\000"
 8803      4E5F4241 
 8803      52434F44 
 8803      455F5245 
 8803      414400
 8804              	.LASF535:
 8805 18fa 44495350 		.ascii	"DISP_PUTGMW\000"
 8805      5F505554 
 8805      474D5700 
 8806              	.LASF475:
 8807 1906 4F535F46 		.ascii	"OS_FN_IMG_SENSOR_GET_FRAME_COMPLETE\000"
 8807      4E5F494D 
 8807      475F5345 
 8807      4E534F52 
 8807      5F474554 
 8808              	.LASF299:
 8809 192a 4F535F46 		.ascii	"OS_FN_GPRS_CONTROL\000"
 8809      4E5F4750 
 8809      52535F43 
 8809      4F4E5452 
 8809      4F4C00
 8810              	.LASF420:
 8811 193d 4F535F46 		.ascii	"OS_FN_GPRS_GET_GPS_INFO\000"
 8811      4E5F4750 
 8811      52535F47 
 8811      45545F47 
ARM GAS  C:\Users\AHMED~1.ELE\AppData\Local\Temp\cciu15sF.s 			page 193


 8811      50535F49 
 8812              	.LASF128:
 8813 1955 4F535F46 		.ascii	"OS_FN_KEY_CBC_MAC\000"
 8813      4E5F4B45 
 8813      595F4342 
 8813      435F4D41 
 8813      4300
 8814              	.LASF94:
 8815 1967 4F535F46 		.ascii	"OS_FN_AES_SETUP_KEY\000"
 8815      4E5F4145 
 8815      535F5345 
 8815      5455505F 
 8815      4B455900 
 8816              	.LASF567:
 8817 197b 7362416D 		.ascii	"sbAmtBuf\000"
 8817      74427566 
 8817      00
 8818              	.LASF351:
 8819 1984 4F535F46 		.ascii	"OS_FN_DEVICE_MOUNT\000"
 8819      4E5F4445 
 8819      56494345 
 8819      5F4D4F55 
 8819      4E5400
 8820              	.LASF90:
 8821 1997 4F535F46 		.ascii	"OS_FN_NEW_DES\000"
 8821      4E5F4E45 
 8821      575F4445 
 8821      5300
 8822              	.LASF184:
 8823 19a5 4F535F46 		.ascii	"OS_FN_FILE_DEACTIVATE\000"
 8823      4E5F4649 
 8823      4C455F44 
 8823      45414354 
 8823      49564154 
 8824              	.LASF367:
 8825 19bb 4F535F46 		.ascii	"OS_FN_TAMPER_ON\000"
 8825      4E5F5441 
 8825      4D504552 
 8825      5F4F4E00 
 8826              	.LASF258:
 8827 19cb 4F535F46 		.ascii	"OS_FN_FL_PGM_END\000"
 8827      4E5F464C 
 8827      5F50474D 
 8827      5F454E44 
 8827      00
 8828              	.LASF265:
 8829 19dc 4F535F46 		.ascii	"OS_FN_FL_CREAD\000"
 8829      4E5F464C 
 8829      5F435245 
 8829      414400
 8830              	.LASF537:
 8831 19eb 4F535F43 		.ascii	"OS_CALL_MW\000"
 8831      414C4C5F 
 8831      4D5700
 8832              	.LASF416:
 8833 19f6 4F535F46 		.ascii	"OS_FN_NFC_IC_REG_DIRECT_READ\000"
 8833      4E5F4E46 
ARM GAS  C:\Users\AHMED~1.ELE\AppData\Local\Temp\cciu15sF.s 			page 194


 8833      435F4943 
 8833      5F524547 
 8833      5F444952 
 8834              	.LASF617:
 8835 1a13 43686563 		.ascii	"CheckPointerAddr\000"
 8835      6B506F69 
 8835      6E746572 
 8835      41646472 
 8835      00
 8836              	.LASF389:
 8837 1a24 4F535F46 		.ascii	"OS_FN_MIF_SNO\000"
 8837      4E5F4D49 
 8837      465F534E 
 8837      4F00
 8838              	.LASF131:
 8839 1a32 4F535F46 		.ascii	"OS_FN_KEY_SAVE_TMK_NC\000"
 8839      4E5F4B45 
 8839      595F5341 
 8839      56455F54 
 8839      4D4B5F4E 
 8840              	.LASF252:
 8841 1a48 4F535F46 		.ascii	"OS_FN_FL_STATUS\000"
 8841      4E5F464C 
 8841      5F535441 
 8841      54555300 
 8842              	.LASF307:
 8843 1a58 4F535F46 		.ascii	"OS_FN_TPAD_OPEN\000"
 8843      4E5F5450 
 8843      41445F4F 
 8843      50454E00 
 8844              	.LASF113:
 8845 1a68 4F535F46 		.ascii	"OS_FN_SM2_DECRYPT\000"
 8845      4E5F534D 
 8845      325F4445 
 8845      43525950 
 8845      5400
 8846              	.LASF225:
 8847 1a7a 4F535F46 		.ascii	"OS_FN_SLE_HIST\000"
 8847      4E5F534C 
 8847      455F4849 
 8847      535400
 8848              	.LASF426:
 8849 1a89 4F535F46 		.ascii	"OS_FN_BREG_WRITE\000"
 8849      4E5F4252 
 8849      45475F57 
 8849      52495445 
 8849      00
 8850              	.LASF118:
 8851 1a9a 4F535F46 		.ascii	"OS_FN_SM4_ENCRYPT\000"
 8851      4E5F534D 
 8851      345F454E 
 8851      43525950 
 8851      5400
 8852              	.LASF217:
 8853 1aac 4F535F46 		.ascii	"OS_FN_MMC_PSTATUS\000"
 8853      4E5F4D4D 
 8853      435F5053 
ARM GAS  C:\Users\AHMED~1.ELE\AppData\Local\Temp\cciu15sF.s 			page 195


 8853      54415455 
 8853      5300
 8854              	.LASF431:
 8855 1abe 4F535F46 		.ascii	"OS_FN_RESET\000"
 8855      4E5F5245 
 8855      53455400 
 8856              	.LASF259:
 8857 1aca 4F535F46 		.ascii	"OS_FN_FL_ERASE_START\000"
 8857      4E5F464C 
 8857      5F455241 
 8857      53455F53 
 8857      54415254 
 8858              	.LASF317:
 8859 1adf 4F535F46 		.ascii	"OS_FN_CODEC_PLAY\000"
 8859      4E5F434F 
 8859      4445435F 
 8859      504C4159 
 8859      00
 8860              	.LASF51:
 8861 1af0 4F535F46 		.ascii	"OS_FN_DISP_BL_CONTROL\000"
 8861      4E5F4449 
 8861      53505F42 
 8861      4C5F434F 
 8861      4E54524F 
 8862              	.LASF14:
 8863 1b06 574F5244 		.ascii	"WORD\000"
 8863      00
 8864              	.LASF358:
 8865 1b0b 4F535F46 		.ascii	"OS_FN_NETDEV_OPEN\000"
 8865      4E5F4E45 
 8865      54444556 
 8865      5F4F5045 
 8865      4E00
 8866              	.LASF462:
 8867 1b1d 4F535F46 		.ascii	"OS_FN_GCM_AES_FINISH\000"
 8867      4E5F4743 
 8867      4D5F4145 
 8867      535F4649 
 8867      4E495348 
 8868              	.LASF1:
 8869 1b32 756E7369 		.ascii	"unsigned char\000"
 8869      676E6564 
 8869      20636861 
 8869      7200
 8870              	.LASF331:
 8871 1b40 4F535F46 		.ascii	"OS_FN_CLICC_LED_SET\000"
 8871      4E5F434C 
 8871      4943435F 
 8871      4C45445F 
 8871      53455400 
 8872              	.LASF409:
 8873 1b54 4F535F46 		.ascii	"OS_FN_NFC_SEND_FELICA_COMMAND\000"
 8873      4E5F4E46 
 8873      435F5345 
 8873      4E445F46 
 8873      454C4943 
 8874              	.LASF42:
ARM GAS  C:\Users\AHMED~1.ELE\AppData\Local\Temp\cciu15sF.s 			page 196


 8875 1b72 4F535F46 		.ascii	"OS_FN_DISP_GETG\000"
 8875      4E5F4449 
 8875      53505F47 
 8875      45544700 
 8876              	.LASF326:
 8877 1b82 4F535F46 		.ascii	"OS_FN_CLICC_CTRL\000"
 8877      4E5F434C 
 8877      4943435F 
 8877      4354524C 
 8877      00
 8878              	.LASF219:
 8879 1b93 4F535F46 		.ascii	"OS_FN_MMC_BLK_WRITE\000"
 8879      4E5F4D4D 
 8879      435F424C 
 8879      4B5F5752 
 8879      49544500 
 8880              	.LASF364:
 8881 1ba7 4F535F46 		.ascii	"OS_FN_USBKBD_CLOSE\000"
 8881      4E5F5553 
 8881      424B4244 
 8881      5F434C4F 
 8881      534500
 8882              	.LASF188:
 8883 1bba 4F535F46 		.ascii	"OS_FN_FILE_AUTH\000"
 8883      4E5F4649 
 8883      4C455F41 
 8883      55544800 
 8884              	.LASF607:
 8885 1bca 5F5F6374 		.ascii	"__ctype_ptr__\000"
 8885      7970655F 
 8885      7074725F 
 8885      5F00
 8886              	.LASF267:
 8887 1bd8 4F535F46 		.ascii	"OS_FN_FL_COPYBACK\000"
 8887      4E5F464C 
 8887      5F434F50 
 8887      59424143 
 8887      4B00
 8888              	.LASF22:
 8889 1bea 4F535F46 		.ascii	"OS_FN_KBD_INKEY\000"
 8889      4E5F4B42 
 8889      445F494E 
 8889      4B455900 
 8890              	.LASF597:
 8891 1bfa 61456E74 		.ascii	"aEntryMode\000"
 8891      72794D6F 
 8891      646500
 8892              	.LASF30:
 8893 1c05 4F535F46 		.ascii	"OS_FN_TIMER_GET\000"
 8893      4E5F5449 
 8893      4D45525F 
 8893      47455400 
 8894              	.LASF78:
 8895 1c15 4F535F46 		.ascii	"OS_FN_COM3_TXRDY\000"
 8895      4E5F434F 
 8895      4D335F54 
 8895      58524459 
ARM GAS  C:\Users\AHMED~1.ELE\AppData\Local\Temp\cciu15sF.s 			page 197


 8895      00
 8896              	.LASF179:
 8897 1c26 4F535F46 		.ascii	"OS_FN_FILE_LENGTH\000"
 8897      4E5F4649 
 8897      4C455F4C 
 8897      454E4754 
 8897      4800
 8898              	.LASF489:
 8899 1c38 454E445F 		.ascii	"END_OF_OS_FN_LIST\000"
 8899      4F465F4F 
 8899      535F464E 
 8899      5F4C4953 
 8899      5400
 8900              	.LASF536:
 8901 1c4a 4745545F 		.ascii	"GET_LCD_TYPEMW\000"
 8901      4C43445F 
 8901      54595045 
 8901      4D5700
 8902              	.LASF163:
 8903 1c59 4F535F46 		.ascii	"OS_FN_MALLOC\000"
 8903      4E5F4D41 
 8903      4C4C4F43 
 8903      00
 8904              	.LASF577:
 8905 1c66 6954696D 		.ascii	"iTimerHdl\000"
 8905      65724864 
 8905      6C00
 8906              	.LASF445:
 8907 1c70 4F535F46 		.ascii	"OS_FN_DTIMER_LATCH_START\000"
 8907      4E5F4454 
 8907      494D4552 
 8907      5F4C4154 
 8907      43485F53 
 8908              	.LASF421:
 8909 1c89 4F535F46 		.ascii	"OS_FN_GPS_CMD\000"
 8909      4E5F4750 
 8909      535F434D 
 8909      4400
 8910              	.LASF401:
 8911 1c97 4F535F46 		.ascii	"OS_FN_BARCODE_ENABLED\000"
 8911      4E5F4241 
 8911      52434F44 
 8911      455F454E 
 8911      41424C45 
 8912              	.LASF172:
 8913 1cad 4F535F46 		.ascii	"OS_FN_FILE_DELETE\000"
 8913      4E5F4649 
 8913      4C455F44 
 8913      454C4554 
 8913      4500
 8914              	.LASF148:
 8915 1cbf 4F535F46 		.ascii	"OS_FN_BUFMAN_REALLOC\000"
 8915      4E5F4255 
 8915      464D414E 
 8915      5F524541 
 8915      4C4C4F43 
 8916              	.LASF313:
ARM GAS  C:\Users\AHMED~1.ELE\AppData\Local\Temp\cciu15sF.s 			page 198


 8917 1cd4 4F535F46 		.ascii	"OS_FN_TPAD_CALIBRATE\000"
 8917      4E5F5450 
 8917      41445F43 
 8917      414C4942 
 8917      52415445 
 8918              	.LASF360:
 8919 1ce9 4F535F46 		.ascii	"OS_FN_NETDEV_GETLINK\000"
 8919      4E5F4E45 
 8919      54444556 
 8919      5F474554 
 8919      4C494E4B 
 8920              	.LASF521:
 8921 1cfe 44455332 		.ascii	"DES2MW\000"
 8921      4D5700
 8922              	.LASF108:
 8923 1d05 4F535F46 		.ascii	"OS_FN_SM2_SET_CURVE\000"
 8923      4E5F534D 
 8923      325F5345 
 8923      545F4355 
 8923      52564500 
 8924              	.LASF275:
 8925 1d19 4F535F46 		.ascii	"OS_FN_MCOM_OPEN\000"
 8925      4E5F4D43 
 8925      4F4D5F4F 
 8925      50454E00 
 8926              	.LASF332:
 8927 1d29 4F535F46 		.ascii	"OS_FN_CLICC_LED_CLEAR\000"
 8927      4E5F434C 
 8927      4943435F 
 8927      4C45445F 
 8927      434C4541 
 8928              	.LASF159:
 8929 1d3f 4F535F46 		.ascii	"OS_FN_APP_SEARCH_NAME\000"
 8929      4E5F4150 
 8929      505F5345 
 8929      41524348 
 8929      5F4E414D 
 8930              	.LASF102:
 8931 1d55 4F535F46 		.ascii	"OS_FN_SHA_PROCESS\000"
 8931      4E5F5348 
 8931      415F5052 
 8931      4F434553 
 8931      5300
 8932              	.LASF362:
 8933 1d67 4F535F46 		.ascii	"OS_FN_NETDEV_IOCTL\000"
 8933      4E5F4E45 
 8933      54444556 
 8933      5F494F43 
 8933      544C00
 8934              	.LASF85:
 8935 1d7a 4F535F46 		.ascii	"OS_FN_DES\000"
 8935      4E5F4445 
 8935      5300
 8936              	.LASF476:
 8937 1d84 4F535F46 		.ascii	"OS_FN_IMG_SENSOR_CLOSE\000"
 8937      4E5F494D 
 8937      475F5345 
ARM GAS  C:\Users\AHMED~1.ELE\AppData\Local\Temp\cciu15sF.s 			page 199


 8937      4E534F52 
 8937      5F434C4F 
 8938              	.LASF58:
 8939 1d9b 4F535F46 		.ascii	"OS_FN_COM1_CLOSE\000"
 8939      4E5F434F 
 8939      4D315F43 
 8939      4C4F5345 
 8939      00
 8940              	.LASF579:
 8941 1dac 616C7068 		.ascii	"alpha_tbl\000"
 8941      615F7462 
 8941      6C00
 8942              	.LASF397:
 8943 1db6 4F535F46 		.ascii	"OS_FN_BARCODE_SCAN\000"
 8943      4E5F4241 
 8943      52434F44 
 8943      455F5343 
 8943      414E00
 8944              	.LASF24:
 8945 1dc9 4F535F46 		.ascii	"OS_FN_KBD_GETKEY\000"
 8945      4E5F4B42 
 8945      445F4745 
 8945      544B4559 
 8945      00
 8946              	.LASF574:
 8947 1dda 64456E74 		.ascii	"dEntryMode\000"
 8947      72794D6F 
 8947      646500
 8948              	.LASF336:
 8949 1de5 4F535F46 		.ascii	"OS_FN_USBHOST_RESET_DEVICE\000"
 8949      4E5F5553 
 8949      42484F53 
 8949      545F5245 
 8949      5345545F 
 8950              	.LASF214:
 8951 1e00 4F535F46 		.ascii	"OS_FN_MMC_CLOSE\000"
 8951      4E5F4D4D 
 8951      435F434C 
 8951      4F534500 
 8952              	.LASF565:
 8953 1e10 77466F6E 		.ascii	"wFont\000"
 8953      7400
 8954              	.LASF309:
 8955 1e16 4F535F46 		.ascii	"OS_FN_TPAD_ADD_OBJ\000"
 8955      4E5F5450 
 8955      41445F41 
 8955      44445F4F 
 8955      424A00
 8956              	.LASF550:
 8957 1e29 41504D5F 		.ascii	"APM_SDEV_ICC\000"
 8957      53444556 
 8957      5F494343 
 8957      00
 8958              	.LASF7:
 8959 1e36 6C6F6E67 		.ascii	"long long unsigned int\000"
 8959      206C6F6E 
 8959      6720756E 
ARM GAS  C:\Users\AHMED~1.ELE\AppData\Local\Temp\cciu15sF.s 			page 200


 8959      7369676E 
 8959      65642069 
 8960              	.LASF200:
 8961 1e4d 4F535F46 		.ascii	"OS_FN_FILE_IOCTL\000"
 8961      4E5F4649 
 8961      4C455F49 
 8961      4F43544C 
 8961      00
 8962              	.LASF181:
 8963 1e5e 4F535F46 		.ascii	"OS_FN_FILE_SEARCH\000"
 8963      4E5F4649 
 8963      4C455F53 
 8963      45415243 
 8963      4800
 8964              	.LASF412:
 8965 1e70 4F535F46 		.ascii	"OS_FN_NFC_GET_VALID_RESP\000"
 8965      4E5F4E46 
 8965      435F4745 
 8965      545F5641 
 8965      4C49445F 
 8966              	.LASF606:
 8967 1e89 674B6264 		.ascii	"gKbdGDS\000"
 8967      47445300 
 8968              	.LASF548:
 8969 1e91 4D575F46 		.ascii	"MW_FUNC_COUNT\000"
 8969      554E435F 
 8969      434F554E 
 8969      5400
 8970              	.LASF576:
 8971 1e9f 6454696D 		.ascii	"dTimeout\000"
 8971      656F7574 
 8971      00
 8972              	.LASF466:
 8973 1ea8 4F535F46 		.ascii	"OS_FN_WIFI_SOCKET_DISCONNECT\000"
 8973      4E5F5749 
 8973      46495F53 
 8973      4F434B45 
 8973      545F4449 
 8974              	.LASF312:
 8975 1ec5 4F535F46 		.ascii	"OS_FN_TPAD_ALERT_RETURN\000"
 8975      4E5F5450 
 8975      41445F41 
 8975      4C455254 
 8975      5F524554 
 8976              	.LASF132:
 8977 1edd 4F535F46 		.ascii	"OS_FN_KEY_SAVE_TMK_CBC\000"
 8977      4E5F4B45 
 8977      595F5341 
 8977      56455F54 
 8977      4D4B5F43 
 8978              	.LASF88:
 8979 1ef4 4F535F46 		.ascii	"OS_FN_COM_DES\000"
 8979      4E5F434F 
 8979      4D5F4445 
 8979      5300
 8980              	.LASF594:
 8981 1f02 5965734E 		.ascii	"YesNo\000"
ARM GAS  C:\Users\AHMED~1.ELE\AppData\Local\Temp\cciu15sF.s 			page 201


 8981      6F00
 8982              	.LASF571:
 8983 1f08 7362496E 		.ascii	"sbInputBuf\000"
 8983      70757442 
 8983      756600
 8984              	.LASF107:
 8985 1f13 4F535F46 		.ascii	"OS_FN_MD4_FINISH\000"
 8985      4E5F4D44 
 8985      345F4649 
 8985      4E495348 
 8985      00
 8986              	.LASF75:
 8987 1f24 4F535F46 		.ascii	"OS_FN_COM3_OPEN\000"
 8987      4E5F434F 
 8987      4D335F4F 
 8987      50454E00 
 8988              	.LASF514:
 8989 1f34 46434F4D 		.ascii	"FCOMMITALLMW\000"
 8989      4D495441 
 8989      4C4C4D57 
 8989      00
 8990              	.LASF262:
 8991 1f41 4F535F46 		.ascii	"OS_FN_FL_COPYB_PGM\000"
 8991      4E5F464C 
 8991      5F434F50 
 8991      59425F50 
 8991      474D00
 8992              	.LASF487:
 8993 1f54 4F535F46 		.ascii	"OS_FN_IMG_SENSOR_SET_MODE\000"
 8993      4E5F494D 
 8993      475F5345 
 8993      4E534F52 
 8993      5F534554 
 8994              	.LASF263:
 8995 1f6e 4F535F46 		.ascii	"OS_FN_FL_COPYB_END\000"
 8995      4E5F464C 
 8995      5F434F50 
 8995      59425F45 
 8995      4E4400
 8996              	.LASF67:
 8997 1f81 4F535F46 		.ascii	"OS_FN_COM2_CLOSE\000"
 8997      4E5F434F 
 8997      4D325F43 
 8997      4C4F5345 
 8997      00
 8998              	.LASF551:
 8999 1f92 41504D5F 		.ascii	"APM_SDEV_GPRS\000"
 8999      53444556 
 8999      5F475052 
 8999      5300
 9000              	.LASF539:
 9001 1fa0 534D535F 		.ascii	"SMS_ENB_MW\000"
 9001      454E425F 
 9001      4D5700
 9002              	.LASF222:
 9003 1fab 4F535F46 		.ascii	"OS_FN_MMC_INSERTED\000"
 9003      4E5F4D4D 
ARM GAS  C:\Users\AHMED~1.ELE\AppData\Local\Temp\cciu15sF.s 			page 202


 9003      435F494E 
 9003      53455254 
 9003      454400
 9004              	.LASF423:
 9005 1fbe 4F535F46 		.ascii	"OS_FN_GPS_RESET\000"
 9005      4E5F4750 
 9005      535F5245 
 9005      53455400 
 9006              	.LASF370:
 9007 1fce 4F535F46 		.ascii	"OS_FN_MIF_OPEN\000"
 9007      4E5F4D49 
 9007      465F4F50 
 9007      454E00
 9008              	.LASF545:
 9009 1fdd 46545255 		.ascii	"FTRUNCATEMW\000"
 9009      4E434154 
 9009      454D5700 
 9010              	.LASF459:
 9011 1fe9 4F535F46 		.ascii	"OS_FN_GCM_AES_INIT\000"
 9011      4E5F4743 
 9011      4D5F4145 
 9011      535F494E 
 9011      495400
 9012              	.LASF484:
 9013 1ffc 4F535F46 		.ascii	"OS_FN_WIFI_SET_REGULATORY_DOMAIN\000"
 9013      4E5F5749 
 9013      46495F53 
 9013      45545F52 
 9013      4547554C 
 9014              	.LASF286:
 9015 201d 4F535F46 		.ascii	"OS_FN_BATT_TEMP\000"
 9015      4E5F4241 
 9015      54545F54 
 9015      454D5000 
 9016              	.LASF387:
 9017 202d 4F535F46 		.ascii	"OS_FN_MIF_TRANSFER\000"
 9017      4E5F4D49 
 9017      465F5452 
 9017      414E5346 
 9017      455200
 9018              	.LASF612:
 9019 2040 6D656D73 		.ascii	"memset\000"
 9019      657400
 9020              	.LASF598:
 9021 2047 614C656E 		.ascii	"aLen\000"
 9021      00
 9022              	.LASF28:
 9023 204c 4F535F46 		.ascii	"OS_FN_TIMER_CLOSE\000"
 9023      4E5F5449 
 9023      4D45525F 
 9023      434C4F53 
 9023      4500
 9024              	.LASF149:
 9025 205e 4F535F46 		.ascii	"OS_FN_BUFMAN_SHRINK\000"
 9025      4E5F4255 
 9025      464D414E 
 9025      5F534852 
ARM GAS  C:\Users\AHMED~1.ELE\AppData\Local\Temp\cciu15sF.s 			page 203


 9025      494E4B00 
 9026              	.LASF276:
 9027 2072 4F535F46 		.ascii	"OS_FN_MCOM_CLOSE\000"
 9027      4E5F4D43 
 9027      4F4D5F43 
 9027      4C4F5345 
 9027      00
 9028              	.LASF105:
 9029 2083 4F535F46 		.ascii	"OS_FN_RC4_ENCRYPT\000"
 9029      4E5F5243 
 9029      345F454E 
 9029      43525950 
 9029      5400
 9030              	.LASF399:
 9031 2095 4F535F46 		.ascii	"OS_FN_BARCODE_ABORT\000"
 9031      4E5F4241 
 9031      52434F44 
 9031      455F4142 
 9031      4F525400 
 9032              	.LASF396:
 9033 20a9 4F535F46 		.ascii	"OS_FN_BARCODE_CMD\000"
 9033      4E5F4241 
 9033      52434F44 
 9033      455F434D 
 9033      4400
 9034              	.LASF496:
 9035 20bb 53485554 		.ascii	"SHUTDOWNMW\000"
 9035      444F574E 
 9035      4D5700
 9036              	.LASF34:
 9037 20c6 4F535F46 		.ascii	"OS_FN_BUZ_STATE\000"
 9037      4E5F4255 
 9037      5A5F5354 
 9037      41544500 
 9038              	.LASF305:
 9039 20d6 4F535F46 		.ascii	"OS_FN_GPRS_SMS_CONTROL\000"
 9039      4E5F4750 
 9039      52535F53 
 9039      4D535F43 
 9039      4F4E5452 
 9040              	.LASF229:
 9041 20ed 4F535F46 		.ascii	"OS_FN_LAN_RXRDY\000"
 9041      4E5F4C41 
 9041      4E5F5258 
 9041      52445900 
 9042              	.LASF600:
 9043 20fd 6B657965 		.ascii	"keyed\000"
 9043      6400
 9044              	.LASF36:
 9045 2103 4F535F46 		.ascii	"OS_FN_RTC_SET\000"
 9045      4E5F5254 
 9045      435F5345 
 9045      5400
 9046              	.LASF213:
 9047 2111 4F535F46 		.ascii	"OS_FN_MMC_OPEN\000"
 9047      4E5F4D4D 
 9047      435F4F50 
ARM GAS  C:\Users\AHMED~1.ELE\AppData\Local\Temp\cciu15sF.s 			page 204


 9047      454E00
 9048              	.LASF618:
 9049 2120 736B7062 		.ascii	"skpb\000"
 9049      00
 9050              	.LASF527:
 9051 2125 44495350 		.ascii	"DISP_PUTCMW\000"
 9051      5F505554 
 9051      434D5700 
 9052              	.LASF347:
 9053 2131 4F535F46 		.ascii	"OS_FN_DEVICE_IOCTL\000"
 9053      4E5F4445 
 9053      56494345 
 9053      5F494F43 
 9053      544C00
 9054              	.LASF156:
 9055 2144 4F535F46 		.ascii	"OS_FN_GET_CHALLENGE\000"
 9055      4E5F4745 
 9055      545F4348 
 9055      414C4C45 
 9055      4E474500 
 9056              	.LASF218:
 9057 2158 4F535F46 		.ascii	"OS_FN_MMC_BLK_READ\000"
 9057      4E5F4D4D 
 9057      435F424C 
 9057      4B5F5245 
 9057      414400
 9058              	.LASF601:
 9059 216b 6C617374 		.ascii	"last_key\000"
 9059      5F6B6579 
 9059      00
 9060              	.LASF586:
 9061 2174 436C6561 		.ascii	"ClearKeyin\000"
 9061      724B6579 
 9061      696E00
 9062              	.LASF98:
 9063 217f 4F535F46 		.ascii	"OS_FN_MD5_INIT\000"
 9063      4E5F4D44 
 9063      355F494E 
 9063      495400
 9064              	.LASF254:
 9065 218e 4F535F46 		.ascii	"OS_FN_FL_PAGE\000"
 9065      4E5F464C 
 9065      5F504147 
 9065      4500
 9066              	.LASF145:
 9067 219c 4F535F46 		.ascii	"OS_FN_THREAD_RETURN\000"
 9067      4E5F5448 
 9067      52454144 
 9067      5F524554 
 9067      55524E00 
 9068              	.LASF204:
 9069 21b0 4F535F46 		.ascii	"OS_FN_CONFIG_UPDATE\000"
 9069      4E5F434F 
 9069      4E464947 
 9069      5F555044 
 9069      41544500 
 9070              	.LASF413:
ARM GAS  C:\Users\AHMED~1.ELE\AppData\Local\Temp\cciu15sF.s 			page 205


 9071 21c4 4F535F46 		.ascii	"OS_FN_NFC_INFO_GET\000"
 9071      4E5F4E46 
 9071      435F494E 
 9071      464F5F47 
 9071      455400
 9072              	.LASF182:
 9073 21d7 4F535F46 		.ascii	"OS_FN_FILE_DSEARCH\000"
 9073      4E5F4649 
 9073      4C455F44 
 9073      53454152 
 9073      434800
 9074              	.LASF569:
 9075 21ea 774C696E 		.ascii	"wLineNo\000"
 9075      654E6F00 
 9076              	.LASF192:
 9077 21f2 4F535F46 		.ascii	"OS_FN_FILE_GET_SYSTEMINFO\000"
 9077      4E5F4649 
 9077      4C455F47 
 9077      45545F53 
 9077      59535445 
 9078              	.LASF379:
 9079 220c 4F535F46 		.ascii	"OS_FN_MIF_LOAD_KEY\000"
 9079      4E5F4D49 
 9079      465F4C4F 
 9079      41445F4B 
 9079      455900
 9080              	.LASF101:
 9081 221f 4F535F46 		.ascii	"OS_FN_SHA_INIT\000"
 9081      4E5F5348 
 9081      415F494E 
 9081      495400
 9082              	.LASF346:
 9083 222e 4F535F46 		.ascii	"OS_FN_DEVICE_ALLOC_MEDIA\000"
 9083      4E5F4445 
 9083      56494345 
 9083      5F414C4C 
 9083      4F435F4D 
 9084              	.LASF460:
 9085 2247 4F535F46 		.ascii	"OS_FN_GCM_AES_PROCESS_AAD\000"
 9085      4E5F4743 
 9085      4D5F4145 
 9085      535F5052 
 9085      4F434553 
 9086              	.LASF368:
 9087 2261 4F535F46 		.ascii	"OS_FN_TAMPER_GET_STATUS\000"
 9087      4E5F5441 
 9087      4D504552 
 9087      5F474554 
 9087      5F535441 
 9088              	.LASF80:
 9089 2279 4F535F46 		.ascii	"OS_FN_COM3_SEND\000"
 9089      4E5F434F 
 9089      4D335F53 
 9089      454E4400 
 9090              	.LASF580:
 9091 2289 436F6E76 		.ascii	"ConvertAlphaNew\000"
 9091      65727441 
ARM GAS  C:\Users\AHMED~1.ELE\AppData\Local\Temp\cciu15sF.s 			page 206


 9091      6C706861 
 9091      4E657700 
 9092              	.LASF125:
 9093 2299 4F535F46 		.ascii	"OS_FN_KEY_DUKPT_ENCRYPT\000"
 9093      4E5F4B45 
 9093      595F4455 
 9093      4B50545F 
 9093      454E4352 
 9094              	.LASF142:
 9095 22b1 4F535F46 		.ascii	"OS_FN_THREAD_UNLOCK\000"
 9095      4E5F5448 
 9095      52454144 
 9095      5F554E4C 
 9095      4F434B00 
 9096              	.LASF371:
 9097 22c5 4F535F46 		.ascii	"OS_FN_MIF_CLOSE\000"
 9097      4E5F4D49 
 9097      465F434C 
 9097      4F534500 
 9098              	.LASF81:
 9099 22d5 4F535F46 		.ascii	"OS_FN_COM3_STATUS\000"
 9099      4E5F434F 
 9099      4D335F53 
 9099      54415455 
 9099      5300
 9100              	.LASF308:
 9101 22e7 4F535F46 		.ascii	"OS_FN_TPAD_CLOSE\000"
 9101      4E5F5450 
 9101      41445F43 
 9101      4C4F5345 
 9101      00
 9102              	.LASF2:
 9103 22f8 73686F72 		.ascii	"short int\000"
 9103      7420696E 
 9103      7400
 9104              	.LASF208:
 9105 2302 4F535F46 		.ascii	"OS_FN_SAM_INSERTED\000"
 9105      4E5F5341 
 9105      4D5F494E 
 9105      53455254 
 9105      454400
 9106              	.LASF491:
 9107 2315 55534246 		.ascii	"USBFPRT_GENERAL_INFO_IMG_WIDTH\000"
 9107      5052545F 
 9107      47454E45 
 9107      52414C5F 
 9107      494E464F 
 9108              	.LASF330:
 9109 2334 4F535F46 		.ascii	"OS_FN_CLICC_LED_STATUS\000"
 9109      4E5F434C 
 9109      4943435F 
 9109      4C45445F 
 9109      53544154 
 9110              	.LASF65:
 9111 234b 4F535F46 		.ascii	"OS_FN_COM1_SSEND\000"
 9111      4E5F434F 
 9111      4D315F53 
ARM GAS  C:\Users\AHMED~1.ELE\AppData\Local\Temp\cciu15sF.s 			page 207


 9111      53454E44 
 9111      00
 9112              	.LASF348:
 9113 235c 4F535F46 		.ascii	"OS_FN_DEVICE_SEARCH_INIT\000"
 9113      4E5F4445 
 9113      56494345 
 9113      5F534541 
 9113      5243485F 
 9114              	.LASF283:
 9115 2375 4F535F46 		.ascii	"OS_FN_MCOM_READ\000"
 9115      4E5F4D43 
 9115      4F4D5F52 
 9115      45414400 
 9116              	.LASF583:
 9117 2385 70427566 		.ascii	"pBuf\000"
 9117      00
 9118              	.LASF596:
 9119 238a 4765744B 		.ascii	"GetKbd\000"
 9119      626400
 9120              	.LASF432:
 9121 2391 4F535F46 		.ascii	"OS_FN_FREE_RUN\000"
 9121      4E5F4652 
 9121      45455F52 
 9121      554E00
 9122              	.LASF292:
 9123 23a0 4F535F46 		.ascii	"OS_FN_GPRS_SIGNAL\000"
 9123      4E5F4750 
 9123      52535F53 
 9123      49474E41 
 9123      4C00
 9124              	.LASF251:
 9125 23b2 4F535F46 		.ascii	"OS_FN_FL_INFO\000"
 9125      4E5F464C 
 9125      5F494E46 
 9125      4F00
 9126              	.LASF479:
 9127 23c0 4F535F46 		.ascii	"OS_FN_GPRS_SET_PIN_STATUS\000"
 9127      4E5F4750 
 9127      52535F53 
 9127      45545F50 
 9127      494E5F53 
 9128              	.LASF115:
 9129 23da 4F535F46 		.ascii	"OS_FN_SM3_ASCII\000"
 9129      4E5F534D 
 9129      335F4153 
 9129      43494900 
 9130              	.LASF559:
 9131 23ea 54494D45 		.ascii	"TIMER_COMM\000"
 9131      525F434F 
 9131      4D4D00
 9132              	.LASF210:
 9133 23f5 4F535F46 		.ascii	"OS_FN_SAM_OFF\000"
 9133      4E5F5341 
 9133      4D5F4F46 
 9133      4600
 9134              	.LASF418:
 9135 2403 4F535F46 		.ascii	"OS_FN_GPS_OFF\000"
ARM GAS  C:\Users\AHMED~1.ELE\AppData\Local\Temp\cciu15sF.s 			page 208


 9135      4E5F4750 
 9135      535F4F46 
 9135      4600
 9136              	.LASF124:
 9137 2411 4F535F46 		.ascii	"OS_FN_KEY_FLUSH\000"
 9137      4E5F4B45 
 9137      595F464C 
 9137      55534800 
 9138              	.LASF114:
 9139 2421 4F535F46 		.ascii	"OS_FN_SM2_GET_MESS\000"
 9139      4E5F534D 
 9139      325F4745 
 9139      545F4D45 
 9139      535300
 9140              	.LASF253:
 9141 2434 4F535F46 		.ascii	"OS_FN_FL_PAGE_READ\000"
 9141      4E5F464C 
 9141      5F504147 
 9141      455F5245 
 9141      414400
 9142              	.LASF164:
 9143 2447 4F535F46 		.ascii	"OS_FN_REALLOC\000"
 9143      4E5F5245 
 9143      414C4C4F 
 9143      4300
 9144              	.LASF467:
 9145 2455 4F535F46 		.ascii	"OS_FN_WIFI_SOCKET_GET_STATE\000"
 9145      4E5F5749 
 9145      46495F53 
 9145      4F434B45 
 9145      545F4745 
 9146              	.LASF377:
 9147 2471 4F535F46 		.ascii	"OS_FN_MIF_ANTICOLL\000"
 9147      4E5F4D49 
 9147      465F414E 
 9147      5449434F 
 9147      4C4C00
 9148              	.LASF414:
 9149 2484 4F535F46 		.ascii	"OS_FN_NFC_INFO_SET\000"
 9149      4E5F4E46 
 9149      435F494E 
 9149      464F5F53 
 9149      455400
 9150              	.LASF468:
 9151 2497 4F535F46 		.ascii	"OS_FN_WIFI_SOCKET_SEND_TCP\000"
 9151      4E5F5749 
 9151      46495F53 
 9151      4F434B45 
 9151      545F5345 
 9152              	.LASF534:
 9153 24b2 44495350 		.ascii	"DISP_GETGMW\000"
 9153      5F474554 
 9153      474D5700 
 9154              	.LASF134:
 9155 24be 4F535F46 		.ascii	"OS_FN_PCI_DSS_GET_KVC\000"
 9155      4E5F5043 
 9155      495F4453 
ARM GAS  C:\Users\AHMED~1.ELE\AppData\Local\Temp\cciu15sF.s 			page 209


 9155      535F4745 
 9155      545F4B56 
 9156              	.LASF471:
 9157 24d4 4F535F46 		.ascii	"OS_FN_WIFI_SOCKET_GET_STATUS\000"
 9157      4E5F5749 
 9157      46495F53 
 9157      4F434B45 
 9157      545F4745 
 9158              	.LASF117:
 9159 24f1 4F535F46 		.ascii	"OS_FN_SM4_SET_KEY\000"
 9159      4E5F534D 
 9159      345F5345 
 9159      545F4B45 
 9159      5900
 9160              	.LASF55:
 9161 2503 4F535F46 		.ascii	"OS_FN_DISP_ICON_SET_SIGNAL_TYPE\000"
 9161      4E5F4449 
 9161      53505F49 
 9161      434F4E5F 
 9161      5345545F 
 9162              	.LASF311:
 9163 2523 4F535F46 		.ascii	"OS_FN_TPAD_CPOS\000"
 9163      4E5F5450 
 9163      41445F43 
 9163      504F5300 
 9164              	.LASF0:
 9165 2533 7369676E 		.ascii	"signed char\000"
 9165      65642063 
 9165      68617200 
 9166              	.LASF403:
 9167 253f 4F535F46 		.ascii	"OS_FN_WIFI_SEND_COMMAND\000"
 9167      4E5F5749 
 9167      46495F53 
 9167      454E445F 
 9167      434F4D4D 
 9168              	.LASF512:
 9169 2557 46524541 		.ascii	"FREADMW\000"
 9169      444D5700 
 9170              	.LASF609:
 9171 255f 7374726C 		.ascii	"strlen\000"
 9171      656E00
 9172              	.LASF63:
 9173 2566 4F535F46 		.ascii	"OS_FN_COM1_STATUS\000"
 9173      4E5F434F 
 9173      4D315F53 
 9173      54415455 
 9173      5300
 9174              	.LASF603:
 9175 2578 6D696E5F 		.ascii	"min_len\000"
 9175      6C656E00 
 9176              	.LASF79:
 9177 2580 4F535F46 		.ascii	"OS_FN_COM3_READ\000"
 9177      4E5F434F 
 9177      4D335F52 
 9177      45414400 
 9178              	.LASF483:
 9179 2590 4F535F46 		.ascii	"OS_FN_WIFI_GET_REGULATORY_DOMAIN\000"
ARM GAS  C:\Users\AHMED~1.ELE\AppData\Local\Temp\cciu15sF.s 			page 210


 9179      4E5F5749 
 9179      46495F47 
 9179      45545F52 
 9179      4547554C 
 9180              	.LASF616:
 9181 25b1 6D656D63 		.ascii	"memcpy\000"
 9181      707900
 9182              	.LASF391:
 9183 25b8 4F535F46 		.ascii	"OS_FN_MIF_GET\000"
 9183      4E5F4D49 
 9183      465F4745 
 9183      5400
 9184              	.LASF605:
 9185 25c6 6C656164 		.ascii	"lead0len\000"
 9185      306C656E 
 9185      00
 9186              	.LASF189:
 9187 25cf 4F535F46 		.ascii	"OS_FN_FILE_SET_LOCK\000"
 9187      4E5F4649 
 9187      4C455F53 
 9187      45545F4C 
 9187      4F434B00 
 9188              	.LASF162:
 9189 25e3 4F535F46 		.ascii	"OS_FN_APP_INFO\000"
 9189      4E5F4150 
 9189      505F494E 
 9189      464F00
 9190              	.LASF238:
 9191 25f2 4F535F46 		.ascii	"OS_FN_MSR_READ\000"
 9191      4E5F4D53 
 9191      525F5245 
 9191      414400
 9192              	.LASF383:
 9193 2601 4F535F46 		.ascii	"OS_FN_MIF_WRITE\000"
 9193      4E5F4D49 
 9193      465F5752 
 9193      49544500 
 9194              	.LASF26:
 9195 2611 4F535F46 		.ascii	"OS_FN_KBD_UNLOCK\000"
 9195      4E5F4B42 
 9195      445F554E 
 9195      4C4F434B 
 9195      00
 9196              	.LASF547:
 9197 2622 41505049 		.ascii	"APPINFO_GETMW\000"
 9197      4E464F5F 
 9197      4745544D 
 9197      5700
 9198              	.LASF382:
 9199 2630 4F535F46 		.ascii	"OS_FN_MIF_READ\000"
 9199      4E5F4D49 
 9199      465F5245 
 9199      414400
 9200              	.LASF625:
 9201 263f 464F554E 		.ascii	"FOUND\000"
 9201      4400
 9202              	.LASF427:
ARM GAS  C:\Users\AHMED~1.ELE\AppData\Local\Temp\cciu15sF.s 			page 211


 9203 2645 4F535F46 		.ascii	"OS_FN_APPDL_WRITE_APP\000"
 9203      4E5F4150 
 9203      50444C5F 
 9203      57524954 
 9203      455F4150 
 9204              	.LASF196:
 9205 265b 4F535F46 		.ascii	"OS_FN_FILE_MKDIR\000"
 9205      4E5F4649 
 9205      4C455F4D 
 9205      4B444952 
 9205      00
 9206              	.LASF157:
 9207 266c 4F535F46 		.ascii	"OS_FN_AUTH\000"
 9207      4E5F4155 
 9207      544800
 9208              	.LASF228:
 9209 2677 4F535F46 		.ascii	"OS_FN_LAN_CLOSE\000"
 9209      4E5F4C41 
 9209      4E5F434C 
 9209      4F534500 
 9210              	.LASF97:
 9211 2687 4F535F46 		.ascii	"OS_FN_SHA1\000"
 9211      4E5F5348 
 9211      413100
 9212              	.LASF27:
 9213 2692 4F535F46 		.ascii	"OS_FN_TIMER_OPEN\000"
 9213      4E5F5449 
 9213      4D45525F 
 9213      4F50454E 
 9213      00
 9214              	.LASF215:
 9215 26a3 4F535F46 		.ascii	"OS_FN_MMC_BLK_SIZE\000"
 9215      4E5F4D4D 
 9215      435F424C 
 9215      4B5F5349 
 9215      5A4500
 9216              	.LASF68:
 9217 26b6 4F535F46 		.ascii	"OS_FN_COM2_RXRDY\000"
 9217      4E5F434F 
 9217      4D325F52 
 9217      58524459 
 9217      00
 9218              	.LASF439:
 9219 26c7 4F535F46 		.ascii	"OS_FN_GET_MCLK\000"
 9219      4E5F4745 
 9219      545F4D43 
 9219      4C4B00
 9220              	.LASF524:
 9221 26d6 5343484E 		.ascii	"SCHNLSETUPMW\000"
 9221      4C534554 
 9221      55504D57 
 9221      00
 9222              	.LASF273:
 9223 26e3 4F535F46 		.ascii	"OS_FN_MDM_STATUS\000"
 9223      4E5F4D44 
 9223      4D5F5354 
 9223      41545553 
ARM GAS  C:\Users\AHMED~1.ELE\AppData\Local\Temp\cciu15sF.s 			page 212


 9223      00
 9224              	.LASF15:
 9225 26f4 44574F52 		.ascii	"DWORD\000"
 9225      4400
 9226              	.LASF234:
 9227 26fa 4F535F46 		.ascii	"OS_FN_MSR_OPEN\000"
 9227      4E5F4D53 
 9227      525F4F50 
 9227      454E00
 9228              	.LASF323:
 9229 2709 4F535F46 		.ascii	"OS_FN_CLICC_REMOVE\000"
 9229      4E5F434C 
 9229      4943435F 
 9229      52454D4F 
 9229      564500
 9230              	.LASF511:
 9231 271c 46534545 		.ascii	"FSEEKMW\000"
 9231      4B4D5700 
 9232              	.LASF257:
 9233 2724 4F535F46 		.ascii	"OS_FN_FL_WRITE\000"
 9233      4E5F464C 
 9233      5F575249 
 9233      544500
 9234              	.LASF74:
 9235 2733 4F535F46 		.ascii	"OS_FN_COM2_SSEND\000"
 9235      4E5F434F 
 9235      4D325F53 
 9235      53454E44 
 9235      00
 9236              	.LASF531:
 9237 2744 44495350 		.ascii	"DISP_GOTOMW\000"
 9237      5F474F54 
 9237      4F4D5700 
 9238              	.LASF220:
 9239 2750 4F535F46 		.ascii	"OS_FN_MMC_READ\000"
 9239      4E5F4D4D 
 9239      435F5245 
 9239      414400
 9240              	.LASF271:
 9241 275f 4F535F46 		.ascii	"OS_FN_MDM_DISC\000"
 9241      4E5F4D44 
 9241      4D5F4449 
 9241      534300
 9242              	.LASF91:
 9243 276e 4F535F46 		.ascii	"OS_FN_NEW_DES2\000"
 9243      4E5F4E45 
 9243      575F4445 
 9243      533200
 9244              	.LASF187:
 9245 277d 4F535F46 		.ascii	"OS_FN_FILE_TRUNCATE\000"
 9245      4E5F4649 
 9245      4C455F54 
 9245      52554E43 
 9245      41544500 
 9246              	.LASF3:
 9247 2791 73686F72 		.ascii	"short unsigned int\000"
 9247      7420756E 
ARM GAS  C:\Users\AHMED~1.ELE\AppData\Local\Temp\cciu15sF.s 			page 213


 9247      7369676E 
 9247      65642069 
 9247      6E7400
 9248              	.LASF139:
 9249 27a4 4F535F46 		.ascii	"OS_FN_THREAD_CREATE\000"
 9249      4E5F5448 
 9249      52454144 
 9249      5F435245 
 9249      41544500 
 9250              	.LASF599:
 9251 27b8 614F7574 		.ascii	"aOutBuf\000"
 9251      42756600 
 9252              	.LASF558:
 9253 27c0 54494D45 		.ascii	"TIMER_KBD\000"
 9253      525F4B42 
 9253      4400
 9254              	.LASF359:
 9255 27ca 4F535F46 		.ascii	"OS_FN_NETDEV_CLOSE\000"
 9255      4E5F4E45 
 9255      54444556 
 9255      5F434C4F 
 9255      534500
 9256              	.LASF473:
 9257 27dd 4F535F46 		.ascii	"OS_FN_IMG_SENSOR_OPEN\000"
 9257      4E5F494D 
 9257      475F5345 
 9257      4E534F52 
 9257      5F4F5045 
 9258              	.LASF64:
 9259 27f3 4F535F46 		.ascii	"OS_FN_COM1_SREAD\000"
 9259      4E5F434F 
 9259      4D315F53 
 9259      52454144 
 9259      00
 9260              	.LASF104:
 9261 2804 4F535F46 		.ascii	"OS_FN_RC4_SETUP\000"
 9261      4E5F5243 
 9261      345F5345 
 9261      54555000 
 9262              	.LASF92:
 9263 2814 4F535F46 		.ascii	"OS_FN_RSA\000"
 9263      4E5F5253 
 9263      4100
 9264              	.LASF338:
 9265 281e 4F535F46 		.ascii	"OS_FN_USBHOST_RHPORT_STATUS\000"
 9265      4E5F5553 
 9265      42484F53 
 9265      545F5248 
 9265      504F5254 
 9266              	.LASF624:
 9267 283a 496E6974 		.ascii	"InitTimer\000"
 9267      54696D65 
 9267      7200
 9268              	.LASF352:
 9269 2844 4F535F46 		.ascii	"OS_FN_DEVICE_UNMOUNT\000"
 9269      4E5F4445 
 9269      56494345 
ARM GAS  C:\Users\AHMED~1.ELE\AppData\Local\Temp\cciu15sF.s 			page 214


 9269      5F554E4D 
 9269      4F554E54 
 9270              	.LASF570:
 9271 2859 62496E70 		.ascii	"bInputLen\000"
 9271      75744C65 
 9271      6E00
 9272              	.LASF77:
 9273 2863 4F535F46 		.ascii	"OS_FN_COM3_RXRDY\000"
 9273      4E5F434F 
 9273      4D335F52 
 9273      58524459 
 9273      00
 9274              	.LASF393:
 9275 2874 4F535F46 		.ascii	"OS_FN_MIF_INFO_GET\000"
 9275      4E5F4D49 
 9275      465F494E 
 9275      464F5F47 
 9275      455400
 9276              	.LASF556:
 9277 2887 41504D5F 		.ascii	"APM_SDEV_MAX\000"
 9277      53444556 
 9277      5F4D4158 
 9277      00
 9278              	.LASF250:
 9279 2894 4F535F46 		.ascii	"OS_FN_USBSER_ENABLE\000"
 9279      4E5F5553 
 9279      42534552 
 9279      5F454E41 
 9279      424C4500 
 9280              	.LASF448:
 9281 28a8 4F535F46 		.ascii	"OS_FN_LPT_RESET_COUNT\000"
 9281      4E5F4C50 
 9281      545F5245 
 9281      5345545F 
 9281      434F554E 
 9282              	.LASF515:
 9283 28be 46464C55 		.ascii	"FFLUSHMW\000"
 9283      53484D57 
 9283      00
 9284              	.LASF293:
 9285 28c7 4F535F46 		.ascii	"OS_FN_GPRS_STATUS\000"
 9285      4E5F4750 
 9285      52535F53 
 9285      54415455 
 9285      5300
 9286              	.LASF83:
 9287 28d9 4F535F46 		.ascii	"OS_FN_COM3_SSEND\000"
 9287      4E5F434F 
 9287      4D335F53 
 9287      53454E44 
 9287      00
 9288              	.LASF411:
 9289 28ea 4F535F46 		.ascii	"OS_FN_NFC_CLOSE\000"
 9289      4E5F4E46 
 9289      435F434C 
 9289      4F534500 
 9290              	.LASF17:
ARM GAS  C:\Users\AHMED~1.ELE\AppData\Local\Temp\cciu15sF.s 			page 215


 9291 28fa 4F535F46 		.ascii	"OS_FN_GET_VERSION\000"
 9291      4E5F4745 
 9291      545F5645 
 9291      5253494F 
 9291      4E00
 9292              	.LASF573:
 9293 290c 73624469 		.ascii	"sbDispBuf\000"
 9293      73704275 
 9293      6600
 9294              	.LASF291:
 9295 2916 4F535F46 		.ascii	"OS_FN_ADC_CH_READ\000"
 9295      4E5F4144 
 9295      435F4348 
 9295      5F524541 
 9295      4400
 9296              	.LASF269:
 9297 2928 4F535F46 		.ascii	"OS_FN_MDM_CLOSE\000"
 9297      4E5F4D44 
 9297      4D5F434C 
 9297      4F534500 
 9298              	.LASF528:
 9299 2938 44495350 		.ascii	"DISP_PUTNMW\000"
 9299      5F505554 
 9299      4E4D5700 
 9300              	.LASF444:
 9301 2944 4F535F46 		.ascii	"OS_FN_DMK_INJECT\000"
 9301      4E5F444D 
 9301      4B5F494E 
 9301      4A454354 
 9301      00
 9302              	.LASF499:
 9303 2955 52454144 		.ascii	"READMW\000"
 9303      4D5700
 9304              	.LASF32:
 9305 295c 4F535F46 		.ascii	"OS_FN_BUZ_CLOSE\000"
 9305      4E5F4255 
 9305      5A5F434C 
 9305      4F534500 
 9306              	.LASF173:
 9307 296c 4F535F46 		.ascii	"OS_FN_FILE_FLUSHED\000"
 9307      4E5F4649 
 9307      4C455F46 
 9307      4C555348 
 9307      454400
 9308              	.LASF47:
 9309 297f 4F535F46 		.ascii	"OS_FN_DISP_GET_LCD_BUFFER\000"
 9309      4E5F4449 
 9309      53505F47 
 9309      45545F4C 
 9309      43445F42 
 9310              	.LASF322:
 9311 2999 4F535F46 		.ascii	"OS_FN_CLICC_POLL\000"
 9311      4E5F434C 
 9311      4943435F 
 9311      504F4C4C 
 9311      00
 9312              	.LASF73:
ARM GAS  C:\Users\AHMED~1.ELE\AppData\Local\Temp\cciu15sF.s 			page 216


 9313 29aa 4F535F46 		.ascii	"OS_FN_COM2_SREAD\000"
 9313      4E5F434F 
 9313      4D325F53 
 9313      52454144 
 9313      00
 9314              	.LASF623:
 9315 29bb 4B424447 		.ascii	"KBDGDS\000"
 9315      445300
 9316              	.LASF376:
 9317 29c2 4F535F46 		.ascii	"OS_FN_MIF_STATUS\000"
 9317      4E5F4D49 
 9317      465F5354 
 9317      41545553 
 9317      00
 9318              	.LASF334:
 9319 29d3 4F535F46 		.ascii	"OS_FN_USBHOST_SUBMIT_BUFFER\000"
 9319      4E5F5553 
 9319      42484F53 
 9319      545F5355 
 9319      424D4954 
 9320              	.LASF203:
 9321 29ef 4F535F46 		.ascii	"OS_FN_CONFIG_WRITE\000"
 9321      4E5F434F 
 9321      4E464947 
 9321      5F575249 
 9321      544500
 9322              	.LASF585:
 9323 2a02 6B657969 		.ascii	"keyin\000"
 9323      6E00
 9324              	.LASF335:
 9325 2a08 4F535F46 		.ascii	"OS_FN_USBHOST_UNLINK_BUFFER\000"
 9325      4E5F5553 
 9325      42484F53 
 9325      545F554E 
 9325      4C494E4B 
 9326              		.ident	"GCC: (GNU Tools for ARM Embedded Processors) 4.9.3 20141119 (release) [ARM/embedded-4_9-br
ARM GAS  C:\Users\AHMED~1.ELE\AppData\Local\Temp\cciu15sF.s 			page 217


DEFINED SYMBOLS
                            *ABS*:00000000 kbdutil.c
C:\Users\AHMED~1.ELE\AppData\Local\Temp\cciu15sF.s:20     .text.ConvertAlphaNew:00000000 $t
C:\Users\AHMED~1.ELE\AppData\Local\Temp\cciu15sF.s:24     .text.ConvertAlphaNew:00000000 ConvertAlphaNew
C:\Users\AHMED~1.ELE\AppData\Local\Temp\cciu15sF.s:130    .text.ConvertAlphaNew:0000007c $d
C:\Users\AHMED~1.ELE\AppData\Local\Temp\cciu15sF.s:136    .text.UpdateDisplay:00000000 $t
C:\Users\AHMED~1.ELE\AppData\Local\Temp\cciu15sF.s:140    .text.UpdateDisplay:00000000 UpdateDisplay
C:\Users\AHMED~1.ELE\AppData\Local\Temp\cciu15sF.s:612    .text.UpdateDisplay:0000031c $d
C:\Users\AHMED~1.ELE\AppData\Local\Temp\cciu15sF.s:618    .text.UpdateDisplay:00000328 $t
C:\Users\AHMED~1.ELE\AppData\Local\Temp\cciu15sF.s:741    .text.UpdateDisplay:000003e8 $d
C:\Users\AHMED~1.ELE\AppData\Local\Temp\cciu15sF.s:746    .text.InitTimer:00000000 $t
C:\Users\AHMED~1.ELE\AppData\Local\Temp\cciu15sF.s:750    .text.InitTimer:00000000 InitTimer
C:\Users\AHMED~1.ELE\AppData\Local\Temp\cciu15sF.s:777    .text.InitTimer:00000018 $d
C:\Users\AHMED~1.ELE\AppData\Local\Temp\cciu15sF.s:784    .text.ClearKeyin:00000000 $t
C:\Users\AHMED~1.ELE\AppData\Local\Temp\cciu15sF.s:789    .text.ClearKeyin:00000000 ClearKeyin
C:\Users\AHMED~1.ELE\AppData\Local\Temp\cciu15sF.s:826    .text.GetKeyin:00000000 $t
C:\Users\AHMED~1.ELE\AppData\Local\Temp\cciu15sF.s:831    .text.GetKeyin:00000000 GetKeyin
C:\Users\AHMED~1.ELE\AppData\Local\Temp\cciu15sF.s:873    .text.GetKeyin:00000030 $d
C:\Users\AHMED~1.ELE\AppData\Local\Temp\cciu15sF.s:878    .text.SetKbdTimeout:00000000 $t
C:\Users\AHMED~1.ELE\AppData\Local\Temp\cciu15sF.s:883    .text.SetKbdTimeout:00000000 SetKbdTimeout
C:\Users\AHMED~1.ELE\AppData\Local\Temp\cciu15sF.s:919    .text.SetKbdTimeout:00000020 $d
C:\Users\AHMED~1.ELE\AppData\Local\Temp\cciu15sF.s:924    .text.GetKbdTimeout:00000000 $t
C:\Users\AHMED~1.ELE\AppData\Local\Temp\cciu15sF.s:929    .text.GetKbdTimeout:00000000 GetKbdTimeout
C:\Users\AHMED~1.ELE\AppData\Local\Temp\cciu15sF.s:957    .text.GetKbdTimeout:00000018 $d
C:\Users\AHMED~1.ELE\AppData\Local\Temp\cciu15sF.s:962    .text.WaitKey:00000000 $t
C:\Users\AHMED~1.ELE\AppData\Local\Temp\cciu15sF.s:967    .text.WaitKey:00000000 WaitKey
C:\Users\AHMED~1.ELE\AppData\Local\Temp\cciu15sF.s:1016   .text.WaitKeyCheck:00000000 $t
C:\Users\AHMED~1.ELE\AppData\Local\Temp\cciu15sF.s:1021   .text.WaitKeyCheck:00000000 WaitKeyCheck
C:\Users\AHMED~1.ELE\AppData\Local\Temp\cciu15sF.s:1123   .text.WaitKeyCheck:0000007c $d
C:\Users\AHMED~1.ELE\AppData\Local\Temp\cciu15sF.s:1128   .text.YesNo:00000000 $t
C:\Users\AHMED~1.ELE\AppData\Local\Temp\cciu15sF.s:1133   .text.YesNo:00000000 YesNo
C:\Users\AHMED~1.ELE\AppData\Local\Temp\cciu15sF.s:1170   .text.YesNo:00000024 $d
C:\Users\AHMED~1.ELE\AppData\Local\Temp\cciu15sF.s:1175   .text.GetKbd:00000000 $t
C:\Users\AHMED~1.ELE\AppData\Local\Temp\cciu15sF.s:1180   .text.GetKbd:00000000 GetKbd
C:\Users\AHMED~1.ELE\AppData\Local\Temp\cciu15sF.s:1705   .text.GetKbd:00000320 $d
C:\Users\AHMED~1.ELE\AppData\Local\Temp\cciu15sF.s:1713   .text.GetKbd:00000334 $t
C:\Users\AHMED~1.ELE\AppData\Local\Temp\cciu15sF.s:1972   .text.GetKbd:000004b8 $d
C:\Users\AHMED~1.ELE\AppData\Local\Temp\cciu15sF.s:1984   .rodata:00000000 alpha_tbl.11715
C:\Users\AHMED~1.ELE\AppData\Local\Temp\cciu15sF.s:2077   .rodata:0000005a alpha_tbl.11728
C:\Users\AHMED~1.ELE\AppData\Local\Temp\cciu15sF.s:2142   .data:00000000 $d
C:\Users\AHMED~1.ELE\AppData\Local\Temp\cciu15sF.s:2146   .data:00000000 gKbdGDS
                     .debug_frame:00000010 $d

UNDEFINED SYMBOLS
__aeabi_idivmod
LongBeep
memset
memcpy
memmove
lib_app_call
strlen
sys_func1
sys_func0
sys_func2
gDevHandle
CheckPointerAddr
skpb
ARM GAS  C:\Users\AHMED~1.ELE\AppData\Local\Temp\cciu15sF.s 			page 218


__ctype_ptr__
