ARM GAS  C:\Users\AHMED~1.ELE\AppData\Local\Temp\cciu15sF.s 			page 1


   1              		.syntax unified
   2              		.cpu cortex-a5
   3              		.fpu softvfp
   4              		.eabi_attribute 20, 1
   5              		.eabi_attribute 21, 1
   6              		.eabi_attribute 23, 3
   7              		.eabi_attribute 24, 1
   8              		.eabi_attribute 25, 1
   9              		.eabi_attribute 26, 1
  10              		.eabi_attribute 30, 4
  11              		.eabi_attribute 34, 0
  12              		.eabi_attribute 18, 4
  13              		.thumb
  14              		.file	"kbdutil.c"
  15              		.text
  16              	.Ltext0:
  17              		.cfi_sections	.debug_frame
  18              		.global	__aeabi_idivmod
  19              		.section	.text.ConvertAlphaNew,"ax",%progbits
  20              		.align	1
  21              		.thumb
  22              		.thumb_func
  23              		.type	ConvertAlphaNew, %function
  24              	ConvertAlphaNew:
  25              	.LFB9:
  26              		.file 1 "src/kbdutil.c"
   1:src/kbdutil.c **** //-----------------------------------------------------------------------------
   2:src/kbdutil.c **** //  File          : kbdutil.c
   3:src/kbdutil.c **** //  Module        :
   4:src/kbdutil.c **** //  Description   : Provide keyboard utilities.
   5:src/kbdutil.c **** //  Author        : Lewis
   6:src/kbdutil.c **** //  Notes         :
   7:src/kbdutil.c **** //
   8:src/kbdutil.c **** // ============================================================================
   9:src/kbdutil.c **** // | Naming conventions                                                       |
  10:src/kbdutil.c **** // | ~~~~~~~~~~~~~~~~~~                                                       |
  11:src/kbdutil.c **** // |         Struct/Array : Leading s                                         |
  12:src/kbdutil.c **** // |             Constant : Leading K                                         |
  13:src/kbdutil.c **** // |      Global Variable : Leading g  (variable use outside one C file)      |
  14:src/kbdutil.c **** // |                                                                          |
  15:src/kbdutil.c **** // |   BYTE( 8 Bits) size : Leading b                                         |
  16:src/kbdutil.c **** // |   CHAR( 8 Bits) size : Leading c                                         |
  17:src/kbdutil.c **** // |   WORD(16 Bits) size : Leading w                                         |
  18:src/kbdutil.c **** // |  DWORD(32 Bits) size : Leading d                                         |
  19:src/kbdutil.c **** // |    int(32 Bits) size : Leading i                                         |
  20:src/kbdutil.c **** // | DDWORD(64 Bits) size : Leading dd                                        |
  21:src/kbdutil.c **** // |              Pointer : Leading p                                         |
  22:src/kbdutil.c **** // |                                                                          |
  23:src/kbdutil.c **** // |    Function argument : Leading a                                         |
  24:src/kbdutil.c **** // |       Local Variable : All lower case                                    |
  25:src/kbdutil.c **** // |                                                                          |
  26:src/kbdutil.c **** // | Examples:                                                                |
  27:src/kbdutil.c **** // |                Array : Leading s, (sb = arrary of byte, etc)             |
  28:src/kbdutil.c **** // |              Pointer : Leading p, (pb = pointer of byte, etc)            |
  29:src/kbdutil.c **** // ============================================================================
  30:src/kbdutil.c **** //
  31:src/kbdutil.c **** //  Date          Who         Action
ARM GAS  C:\Users\AHMED~1.ELE\AppData\Local\Temp\cciu15sF.s 			page 2


  32:src/kbdutil.c **** //  ------------  ----------- -------------------------------------------------
  33:src/kbdutil.c **** //  01 Apr  2009  Lewis       Initial Version.
  34:src/kbdutil.c **** //-----------------------------------------------------------------------------
  35:src/kbdutil.c **** #include <ctype.h>
  36:src/kbdutil.c **** #include <stdio.h>
  37:src/kbdutil.c **** #include <string.h>
  38:src/kbdutil.c **** #include "util.h"
  39:src/kbdutil.c **** #include "midware.h"
  40:src/kbdutil.c **** #include "sysutil.h"
  41:src/kbdutil.c **** #include "hardware.h"
  42:src/kbdutil.c **** #include "kbdutil.h"
  43:src/kbdutil.c **** 
  44:src/kbdutil.c **** //-----------------------------------------------------------------------------
  45:src/kbdutil.c **** //   Common Defines
  46:src/kbdutil.c **** //-----------------------------------------------------------------------------
  47:src/kbdutil.c **** #define ALPHA_INPUT_TIMEOUT  200
  48:src/kbdutil.c **** 
  49:src/kbdutil.c **** //-----------------------------------------------------------------------------
  50:src/kbdutil.c **** //  Global Varialbles
  51:src/kbdutil.c **** //-----------------------------------------------------------------------------
  52:src/kbdutil.c **** struct KBDGDS {
  53:src/kbdutil.c ****   DDWORD ddAmount;
  54:src/kbdutil.c ****   WORD wFont;
  55:src/kbdutil.c ****   BYTE bDecimalPos;
  56:src/kbdutil.c ****   BYTE sbAmtBuf[12];
  57:src/kbdutil.c ****   BYTE sbPrefix[4];
  58:src/kbdutil.c ****   WORD wLineNo;
  59:src/kbdutil.c ****   BYTE bInputLen;
  60:src/kbdutil.c ****   BYTE sbInputBuf[MAX_INPUT_LEN+1];
  61:src/kbdutil.c ****   BYTE bDispLen;
  62:src/kbdutil.c ****   BYTE sbDispBuf[MAX_INPUT_LEN+1];
  63:src/kbdutil.c ****   DWORD dEntryMode;
  64:src/kbdutil.c ****   DWORD dOption;
  65:src/kbdutil.c ****   DWORD dTimeout;        // GetKbd Timeout Value
  66:src/kbdutil.c ****   int   iTimerHdl;
  67:src/kbdutil.c ****   BYTE  bRightJust;      // Right Justify
  68:src/kbdutil.c **** };
  69:src/kbdutil.c **** static struct KBDGDS gKbdGDS = {
  70:src/kbdutil.c ****   0, 0, (BYTE)(DECIMAL_POS2>>24),
  71:src/kbdutil.c ****   {0, 0, 0, 0, 0, 0, 0, 0, 0, 0, 0, 0},
  72:src/kbdutil.c ****   {' ', ' ', ' ', ' '},
  73:src/kbdutil.c ****   0,
  74:src/kbdutil.c ****   0,
  75:src/kbdutil.c ****   {0,0,0,0,0,0,0,0,0,0,0,0,0,0,0,0,0,0,0,0,0,0,0,0,0,0,0,0,0,0,0,0},
  76:src/kbdutil.c ****   0,
  77:src/kbdutil.c ****   {0,0,0,0,0,0,0,0,0,0,0,0,0,0,0,0,0,0,0,0,0,0,0,0,0,0,0,0,0,0,0,0},
  78:src/kbdutil.c ****   0,
  79:src/kbdutil.c ****   0,
  80:src/kbdutil.c ****   KBD_TIMEOUT,
  81:src/kbdutil.c ****   -1,
  82:src/kbdutil.c **** };
  83:src/kbdutil.c **** 
  84:src/kbdutil.c **** //*****************************************************************************
  85:src/kbdutil.c **** //  Function        : InitTimer
  86:src/kbdutil.c **** //  Description     : Init KBDUTIL internal timer if necessary.
  87:src/kbdutil.c **** //  Input           : N/A
  88:src/kbdutil.c **** //  Return          : N/A
ARM GAS  C:\Users\AHMED~1.ELE\AppData\Local\Temp\cciu15sF.s 			page 3


  89:src/kbdutil.c **** //  Note            : N/A
  90:src/kbdutil.c **** //  Globals Changed : N/A
  91:src/kbdutil.c **** //*****************************************************************************
  92:src/kbdutil.c **** static void InitTimer(void)
  93:src/kbdutil.c **** {
  94:src/kbdutil.c ****   if (gKbdGDS.iTimerHdl == -1) {
  95:src/kbdutil.c ****     gKbdGDS.iTimerHdl = TimerOpenMW();
  96:src/kbdutil.c ****   }
  97:src/kbdutil.c **** }
  98:src/kbdutil.c **** //*****************************************************************************
  99:src/kbdutil.c **** //  Function        : ClearKeyIn
 100:src/kbdutil.c **** //  Description     : Clear all key buffer.
 101:src/kbdutil.c **** //  Input           : N/A
 102:src/kbdutil.c **** //  Return          : N/A
 103:src/kbdutil.c **** //  Note            : N/A
 104:src/kbdutil.c **** //  Globals Changed : N/A
 105:src/kbdutil.c **** //*****************************************************************************
 106:src/kbdutil.c **** void ClearKeyin(void)
 107:src/kbdutil.c **** {
 108:src/kbdutil.c ****   InitTimer();
 109:src/kbdutil.c ****   while (GetCharMW()!=0) SleepMW();
 110:src/kbdutil.c **** }
 111:src/kbdutil.c **** //*****************************************************************************
 112:src/kbdutil.c **** //  Function        : GetKeyin
 113:src/kbdutil.c **** //  Description     : Return a key when available.
 114:src/kbdutil.c **** //  Input           : N/A
 115:src/kbdutil.c **** //  Return          : N/A
 116:src/kbdutil.c **** //  Note            : N/A
 117:src/kbdutil.c **** //  Globals Changed : N/A
 118:src/kbdutil.c **** //*****************************************************************************
 119:src/kbdutil.c **** DWORD GetKeyin(void)
 120:src/kbdutil.c **** {
 121:src/kbdutil.c ****   DWORD keyin;
 122:src/kbdutil.c **** 
 123:src/kbdutil.c ****   InitTimer();
 124:src/kbdutil.c ****   keyin = GetCharMW();
 125:src/kbdutil.c ****   if ((keyin==0)&&(TimerGetMW(gKbdGDS.iTimerHdl)==0))
 126:src/kbdutil.c ****     return MWKEY_CANCL;
 127:src/kbdutil.c **** 
 128:src/kbdutil.c ****   return keyin;
 129:src/kbdutil.c **** }
 130:src/kbdutil.c **** //*****************************************************************************
 131:src/kbdutil.c **** //  Function        : SetKbdTimeout
 132:src/kbdutil.c **** //  Description     : Set kbd timeout value.
 133:src/kbdutil.c **** //  Input           : value in ms;
 134:src/kbdutil.c **** //  Return          : N/A
 135:src/kbdutil.c **** //  Note            : N/A
 136:src/kbdutil.c **** //  Globals Changed : N/A
 137:src/kbdutil.c **** //*****************************************************************************
 138:src/kbdutil.c **** void SetKbdTimeout(DWORD aTimeout)
 139:src/kbdutil.c **** {
 140:src/kbdutil.c ****   InitTimer();
 141:src/kbdutil.c ****   gKbdGDS.dTimeout = aTimeout;
 142:src/kbdutil.c ****   TimerSetMW(gKbdGDS.iTimerHdl, aTimeout);
 143:src/kbdutil.c **** }
 144:src/kbdutil.c **** //*****************************************************************************
 145:src/kbdutil.c **** //  Function        : GetKbdTimeout
ARM GAS  C:\Users\AHMED~1.ELE\AppData\Local\Temp\cciu15sF.s 			page 4


 146:src/kbdutil.c **** //  Description     : Get keyboard timeout value.
 147:src/kbdutil.c **** //  Input           : N/A
 148:src/kbdutil.c **** //  Return          : getkbd timeout in sec.
 149:src/kbdutil.c **** //  Note            : N/A
 150:src/kbdutil.c **** //  Globals Changed : N/A
 151:src/kbdutil.c **** //*****************************************************************************
 152:src/kbdutil.c **** DWORD GetKbdTimeout(void)
 153:src/kbdutil.c **** {
 154:src/kbdutil.c ****   InitTimer();
 155:src/kbdutil.c ****   return TimerGetMW(gKbdGDS.iTimerHdl);
 156:src/kbdutil.c **** }
 157:src/kbdutil.c **** //*****************************************************************************
 158:src/kbdutil.c **** //  Function        : WaitKey
 159:src/kbdutil.c **** //  Description     : Wait a key for specify time.
 160:src/kbdutil.c **** //  Input           : timeout;   // timeout value in second
 161:src/kbdutil.c **** //  Return          : N/A
 162:src/kbdutil.c **** //  Note            : N/A
 163:src/kbdutil.c **** //  Globals Changed : N/A
 164:src/kbdutil.c **** //*****************************************************************************
 165:src/kbdutil.c **** DWORD WaitKey(DWORD aTimeout)
 166:src/kbdutil.c **** {
 167:src/kbdutil.c ****   DWORD keyin, i;
 168:src/kbdutil.c **** 
 169:src/kbdutil.c ****   aTimeout *=2;     // convert to 5ms unit.
 170:src/kbdutil.c ****   keyin = i = 0;
 171:src/kbdutil.c ****   do {
 172:src/kbdutil.c ****     SleepMW();
 173:src/kbdutil.c ****     keyin = GetCharMW();
 174:src/kbdutil.c ****   } while ((i++ < aTimeout) && (keyin == 0));
 175:src/kbdutil.c ****   return(keyin);
 176:src/kbdutil.c **** }
 177:src/kbdutil.c **** //*****************************************************************************
 178:src/kbdutil.c **** //  Function        : WaitKeyCheck
 179:src/kbdutil.c **** //  Description     : Wait a key for specify time.
 180:src/kbdutil.c **** //  Input           : timeout;   // timeout value in second
 181:src/kbdutil.c **** //                    aCheckList
 182:src/kbdutil.c **** //  Return          : N/A
 183:src/kbdutil.c **** //  Note            : N/A
 184:src/kbdutil.c **** //  Globals Changed : N/A
 185:src/kbdutil.c **** //*****************************************************************************
 186:src/kbdutil.c **** DWORD WaitKeyCheck(DWORD aTimeout, DWORD aCheckList)
 187:src/kbdutil.c **** {
 188:src/kbdutil.c ****   DWORD keyin;
 189:src/kbdutil.c ****   //DWORD icc_id;
 190:src/kbdutil.c **** 
 191:src/kbdutil.c ****   //icc_id = 0;
 192:src/kbdutil.c ****   SetKbdTimeout(aTimeout);
 193:src/kbdutil.c ****   while ((keyin=GetKeyin())==0) {
 194:src/kbdutil.c **** 
 195:src/kbdutil.c ****     if (aCheckList & WAIT_ICC_INSERT) {
 196:src/kbdutil.c ****       if (ICCInsertedMW()&0x01) {
 197:src/kbdutil.c ****         keyin = WAIT_ICC_INSERT;
 198:src/kbdutil.c ****         break;
 199:src/kbdutil.c ****       }
 200:src/kbdutil.c ****     }
 201:src/kbdutil.c **** 
 202:src/kbdutil.c ****     if (aCheckList & WAIT_ICC_REMOVE) {
ARM GAS  C:\Users\AHMED~1.ELE\AppData\Local\Temp\cciu15sF.s 			page 5


 203:src/kbdutil.c ****       if ((ICCInsertedMW()&0x01)==0x00) {
 204:src/kbdutil.c ****         keyin = WAIT_ICC_REMOVE;
 205:src/kbdutil.c ****         break;
 206:src/kbdutil.c ****       }
 207:src/kbdutil.c ****     }
 208:src/kbdutil.c **** 
 209:src/kbdutil.c ****     if ((aCheckList & WAIT_MSR_READY) && (gDevHandle[APM_SDEV_MSR] != -1)) {
 210:src/kbdutil.c ****       if (IOCtlMW(gDevHandle[APM_SDEV_MSR], IO_MSR_RXLEN, NULL) > 0) {
 211:src/kbdutil.c ****         keyin = WAIT_MSR_READY;
 212:src/kbdutil.c ****         break;
 213:src/kbdutil.c ****       }
 214:src/kbdutil.c ****     }
 215:src/kbdutil.c **** 
 216:src/kbdutil.c ****     SleepMW();
 217:src/kbdutil.c ****   }
 218:src/kbdutil.c ****   return(keyin);
 219:src/kbdutil.c **** }
 220:src/kbdutil.c **** //*****************************************************************************
 221:src/kbdutil.c **** //  Function        : YesNo
 222:src/kbdutil.c **** //  Description     : Wait user to select YES or NO.
 223:src/kbdutil.c **** //  Input           : N/A
 224:src/kbdutil.c **** //  Return          : 0 - Cancel key pressed,
 225:src/kbdutil.c **** //                    1 - Clear key pressed(NO)
 226:src/kbdutil.c **** //                    2 - Enter key pressed(YES)
 227:src/kbdutil.c **** //  Note            : N/A
 228:src/kbdutil.c **** //  Globals Changed : N/A
 229:src/kbdutil.c **** //*****************************************************************************
 230:src/kbdutil.c **** DWORD YesNo(void)
 231:src/kbdutil.c **** {
 232:src/kbdutil.c ****   while (1) {
 233:src/kbdutil.c ****     switch (WaitKey(gKbdGDS.dTimeout)) {
 234:src/kbdutil.c ****       case MWKEY_ENTER:
 235:src/kbdutil.c ****         return 2;
 236:src/kbdutil.c ****       case MWKEY_CLR:
 237:src/kbdutil.c ****         return 1;
 238:src/kbdutil.c ****       case MWKEY_CANCL:
 239:src/kbdutil.c ****         return 0;
 240:src/kbdutil.c ****     }
 241:src/kbdutil.c ****   }
 242:src/kbdutil.c **** }
 243:src/kbdutil.c **** //*****************************************************************************
 244:src/kbdutil.c **** //  Function        : UpdateDisplay
 245:src/kbdutil.c **** //  Description     : Show the Buffer data.
 246:src/kbdutil.c **** //  Input           : N/A
 247:src/kbdutil.c **** //  Return          : N/A
 248:src/kbdutil.c **** //  Note            : N/A
 249:src/kbdutil.c **** //  Globals Changed : N/A
 250:src/kbdutil.c **** //*****************************************************************************
 251:src/kbdutil.c **** static void UpdateDisplay(void)
 252:src/kbdutil.c **** {
 253:src/kbdutil.c ****   BYTE decimal_pos;
 254:src/kbdutil.c ****   BYTE *pBuf = gKbdGDS.sbDispBuf;
 255:src/kbdutil.c ****   BYTE tmpbuf[MW_MAX_LINESIZE+1];
 256:src/kbdutil.c ****   BYTE disp_len;
 257:src/kbdutil.c **** 
 258:src/kbdutil.c ****   memset(gKbdGDS.sbDispBuf, ' ', sizeof(gKbdGDS.sbDispBuf));
 259:src/kbdutil.c ****   switch (gKbdGDS.dEntryMode) {
ARM GAS  C:\Users\AHMED~1.ELE\AppData\Local\Temp\cciu15sF.s 			page 6


 260:src/kbdutil.c ****     case HIDE_NUMERIC:
 261:src/kbdutil.c ****       memset(gKbdGDS.sbDispBuf, '*', gKbdGDS.bInputLen);
 262:src/kbdutil.c ****       gKbdGDS.bDispLen = gKbdGDS.bInputLen;
 263:src/kbdutil.c ****       break;
 264:src/kbdutil.c ****     case DECIMAL_INPUT:
 265:src/kbdutil.c ****     case AMOUNT_INPUT:
 266:src/kbdutil.c ****       gKbdGDS.bDispLen = gKbdGDS.bInputLen;
 267:src/kbdutil.c ****       memcpy(gKbdGDS.sbDispBuf, gKbdGDS.sbInputBuf,gKbdGDS.bInputLen);
 268:src/kbdutil.c ****       if ((gKbdGDS.bDispLen==0)|| (gKbdGDS.bDispLen<=gKbdGDS.bDecimalPos)) {
 269:src/kbdutil.c ****         gKbdGDS.bDispLen = gKbdGDS.bDecimalPos + 1;
 270:src/kbdutil.c ****         memset(gKbdGDS.sbDispBuf, '0', gKbdGDS.bDispLen);
 271:src/kbdutil.c ****         memcpy(&gKbdGDS.sbDispBuf[gKbdGDS.bDispLen-gKbdGDS.bInputLen],
 272:src/kbdutil.c ****                gKbdGDS.sbInputBuf, gKbdGDS.bInputLen);
 273:src/kbdutil.c ****       }
 274:src/kbdutil.c ****       if (gKbdGDS.bDecimalPos) {
 275:src/kbdutil.c ****         decimal_pos = gKbdGDS.bDispLen-gKbdGDS.bDecimalPos;
 276:src/kbdutil.c ****         memmove(&gKbdGDS.sbDispBuf[decimal_pos+1] , &gKbdGDS.sbDispBuf[decimal_pos], gKbdGDS.bDecim
 277:src/kbdutil.c ****         gKbdGDS.sbDispBuf[decimal_pos] = '.';
 278:src/kbdutil.c ****         gKbdGDS.bDispLen++;
 279:src/kbdutil.c ****       }
 280:src/kbdutil.c ****       if (gKbdGDS.dOption & PREFIX_ENB) {
 281:src/kbdutil.c ****         memmove(&gKbdGDS.sbDispBuf[PREFIX_SIZE], gKbdGDS.sbDispBuf, gKbdGDS.bDispLen);
 282:src/kbdutil.c ****         memcpy(gKbdGDS.sbDispBuf, gKbdGDS.sbPrefix, PREFIX_SIZE);
 283:src/kbdutil.c ****         gKbdGDS.bDispLen += PREFIX_SIZE;
 284:src/kbdutil.c ****       }
 285:src/kbdutil.c ****       break;
 286:src/kbdutil.c ****     default:
 287:src/kbdutil.c ****       memcpy(gKbdGDS.sbDispBuf, gKbdGDS.sbInputBuf, gKbdGDS.bInputLen);
 288:src/kbdutil.c ****       gKbdGDS.bDispLen = gKbdGDS.bInputLen;
 289:src/kbdutil.c ****       break;
 290:src/kbdutil.c ****   }
 291:src/kbdutil.c ****   pBuf[gKbdGDS.bDispLen] = 0;
 292:src/kbdutil.c ****   if (gKbdGDS.wFont==MW_BIGFONT) {
 293:src/kbdutil.c ****     DispClrLineMW(gKbdGDS.wLineNo);
 294:src/kbdutil.c ****     if (gKbdGDS.bDispLen<=MW_NOR_LINESIZE) {
 295:src/kbdutil.c ****       DispLineMW(pBuf, gKbdGDS.wLineNo, (gKbdGDS.bRightJust?MW_RIGHT:0)|gKbdGDS.wFont|MW_CLREOL);
 296:src/kbdutil.c ****       //DispClrLineMW(gKbdGDS.wLineNo+(MW_LINE4-MW_LINE2));   //03-10-26 JC ++
 297:src/kbdutil.c ****     }
 298:src/kbdutil.c ****     else {
 299:src/kbdutil.c ****       disp_len = gKbdGDS.bDispLen-MW_NOR_LINESIZE;
 300:src/kbdutil.c ****       memcpy(tmpbuf, pBuf, disp_len);
 301:src/kbdutil.c ****       tmpbuf[disp_len] = 0;
 302:src/kbdutil.c ****       DispLineMW(tmpbuf, gKbdGDS.wLineNo, (gKbdGDS.bRightJust?MW_RIGHT:0)|gKbdGDS.wFont|MW_CLREOL);
 303:src/kbdutil.c ****       pBuf += disp_len;
 304:src/kbdutil.c ****       DispLineMW(pBuf, gKbdGDS.wLineNo+(MW_LINE4-MW_LINE2), (gKbdGDS.bRightJust?MW_RIGHT:0)|gKbdGDS
 305:src/kbdutil.c ****     }
 306:src/kbdutil.c ****   }
 307:src/kbdutil.c ****   else if (gKbdGDS.wFont==MW_SMFONT) {
 308:src/kbdutil.c ****     DispClrLineMW(gKbdGDS.wLineNo);
 309:src/kbdutil.c ****     if (gKbdGDS.bDispLen<=MW_NOR_LINESIZE) {
 310:src/kbdutil.c ****       DispLineMW(pBuf, gKbdGDS.wLineNo, (gKbdGDS.bRightJust?MW_RIGHT:0)|gKbdGDS.wFont|MW_CLREOL);
 311:src/kbdutil.c ****       //DispClrLineMW(gKbdGDS.wLineNo+(MW_LINE3-MW_LINE2));   //03-10-26 JC ++
 312:src/kbdutil.c ****     }
 313:src/kbdutil.c ****     else {
 314:src/kbdutil.c ****       disp_len = gKbdGDS.bDispLen-MW_NOR_LINESIZE;
 315:src/kbdutil.c ****       memcpy(tmpbuf, pBuf, disp_len);
 316:src/kbdutil.c ****       tmpbuf[disp_len] = 0;
ARM GAS  C:\Users\AHMED~1.ELE\AppData\Local\Temp\cciu15sF.s 			page 7


 317:src/kbdutil.c ****       DispLineMW(tmpbuf, gKbdGDS.wLineNo, (gKbdGDS.bRightJust?MW_RIGHT:0)|gKbdGDS.wFont|MW_CLREOL);
 318:src/kbdutil.c ****       pBuf += disp_len;
 319:src/kbdutil.c ****       DispLineMW(pBuf, gKbdGDS.wLineNo+(MW_LINE3-MW_LINE2), (gKbdGDS.bRightJust?MW_RIGHT:0)|gKbdGDS
 320:src/kbdutil.c ****     }
 321:src/kbdutil.c ****   }
 322:src/kbdutil.c ****   else {
 323:src/kbdutil.c ****     DispClrLineMW(gKbdGDS.wLineNo);
 324:src/kbdutil.c ****     if (gKbdGDS.bDispLen<=MW_MAX_LINESIZE) {
 325:src/kbdutil.c ****       DispLineMW(pBuf, gKbdGDS.wLineNo, (gKbdGDS.bRightJust?MW_RIGHT:0)|gKbdGDS.wFont|MW_CLREOL);
 326:src/kbdutil.c ****       //DispClrLineMW(gKbdGDS.wLineNo+(MW_LINE3-MW_LINE2));   //03-10-26 JC ++
 327:src/kbdutil.c ****     }
 328:src/kbdutil.c ****     else {
 329:src/kbdutil.c ****       disp_len = gKbdGDS.bDispLen-MW_MAX_LINESIZE;
 330:src/kbdutil.c ****       memcpy(tmpbuf, pBuf, disp_len);
 331:src/kbdutil.c ****       tmpbuf[disp_len] = 0;
 332:src/kbdutil.c ****       DispLineMW(tmpbuf, gKbdGDS.wLineNo, (gKbdGDS.bRightJust?MW_RIGHT:0)|gKbdGDS.wFont|MW_CLREOL);
 333:src/kbdutil.c ****       pBuf += disp_len;
 334:src/kbdutil.c ****       DispLineMW(pBuf, gKbdGDS.wLineNo+(MW_LINE3-MW_LINE2), (gKbdGDS.bRightJust?MW_RIGHT:0)|gKbdGDS
 335:src/kbdutil.c ****     }
 336:src/kbdutil.c ****   }
 337:src/kbdutil.c **** }
 338:src/kbdutil.c **** //*****************************************************************************
 339:src/kbdutil.c **** //  Function        : ConvertAlphaNew
 340:src/kbdutil.c **** //  Description     : Convert the input char to alpha.
 341:src/kbdutil.c **** //  Input           : N/A
 342:src/kbdutil.c **** //  Return          : N/A
 343:src/kbdutil.c **** //  Note            : N/A
 344:src/kbdutil.c **** //  Globals Changed : gKbdGDS
 345:src/kbdutil.c **** //*****************************************************************************
 346:src/kbdutil.c **** static void ConvertAlphaNew(void)
 347:src/kbdutil.c **** {
  27              		.loc 1 347 0
  28              		.cfi_startproc
  29              		@ args = 0, pretend = 0, frame = 0
  30              		@ frame_needed = 0, uses_anonymous_args = 0
  31 0000 2DE9F041 		push	{r4, r5, r6, r7, r8, lr}
  32              		.cfi_def_cfa_offset 24
  33              		.cfi_offset 4, -24
  34              		.cfi_offset 5, -20
  35              		.cfi_offset 6, -16
  36              		.cfi_offset 7, -12
  37              		.cfi_offset 8, -8
  38              		.cfi_offset 14, -4
 348:src/kbdutil.c ****   BYTE i, j;
 349:src/kbdutil.c **** 
 350:src/kbdutil.c ****   static const BYTE alpha_tbl[10][9]
 351:src/kbdutil.c ****   = {{'0',' ','+','-','"','*','#',')','~'},
 352:src/kbdutil.c ****     {'1','Q','Z','q','z',':','.','!','`'},
 353:src/kbdutil.c ****     {'2','A','B','C','a','b','c','@','\x27'},
 354:src/kbdutil.c ****     {'3','D','E','F','d','e','f','|','='},
 355:src/kbdutil.c ****     {'4','G','H','I','g','h','i','$',';'},
 356:src/kbdutil.c ****     {'5','J','K','L','j','k','l','%','?'},
 357:src/kbdutil.c ****     {'6','M','N','O','m','n','o','^',','},
 358:src/kbdutil.c ****     {'7','P','R','S','p','r','s','&','_'},
 359:src/kbdutil.c ****     {'8','T','U','V','t','u','v','/','['},
 360:src/kbdutil.c ****     {'9','W','X','Y','w','x','y','(',']'}
 361:src/kbdutil.c ****   };
ARM GAS  C:\Users\AHMED~1.ELE\AppData\Local\Temp\cciu15sF.s 			page 8


 362:src/kbdutil.c **** 
 363:src/kbdutil.c **** 
 364:src/kbdutil.c ****   if (gKbdGDS.bInputLen == 0) {
  39              		.loc 1 364 0
  40 0004 1D4E     		ldr	r6, .L13
  41 0006 B37F     		ldrb	r3, [r6, #30]	@ zero_extendqisi2
  42 0008 1BB9     		cbnz	r3, .L2
 365:src/kbdutil.c ****     LongBeep();
 366:src/kbdutil.c ****     return;
 367:src/kbdutil.c ****   }
 368:src/kbdutil.c **** 
 369:src/kbdutil.c ****   for (i = 0; i != 10; i++)
 370:src/kbdutil.c ****   {
 371:src/kbdutil.c ****     for (j = 0; j != 9 ; j++)
 372:src/kbdutil.c ****     {
 373:src/kbdutil.c ****       if (gKbdGDS.sbInputBuf[gKbdGDS.bInputLen-1] == alpha_tbl[i][j]) {
 374:src/kbdutil.c ****         j = alpha_tbl[i][(j + 1) % 9];
 375:src/kbdutil.c ****         goto FOUND;
 376:src/kbdutil.c ****       }
 377:src/kbdutil.c ****     }
 378:src/kbdutil.c ****   }
 379:src/kbdutil.c **** FOUND:
 380:src/kbdutil.c ****   if (gKbdGDS.dEntryMode  == HEX_INPUT)
 381:src/kbdutil.c ****     if ((j > 'F') || (j < '0') || ((j > '9') && (j < 'A')))
 382:src/kbdutil.c ****       j = alpha_tbl[i][0];
 383:src/kbdutil.c ****   gKbdGDS.sbInputBuf[gKbdGDS.bInputLen-1] = j;
 384:src/kbdutil.c **** }
  43              		.loc 1 384 0
  44 000a BDE8F041 		pop	{r4, r5, r6, r7, r8, lr}
  45              		.cfi_remember_state
  46              		.cfi_restore 14
  47              		.cfi_restore 8
  48              		.cfi_restore 7
  49              		.cfi_restore 6
  50              		.cfi_restore 5
  51              		.cfi_restore 4
  52              		.cfi_def_cfa_offset 0
 365:src/kbdutil.c ****     LongBeep();
  53              		.loc 1 365 0
  54 000e FFF7FEBF 		b	LongBeep
  55              	.LVL0:
  56              	.L2:
  57              		.cfi_restore_state
 373:src/kbdutil.c ****         j = alpha_tbl[i][(j + 1) % 9];
  58              		.loc 1 373 0
  59 0012 5D1E     		subs	r5, r3, #1
  60 0014 7319     		adds	r3, r6, r5
  61 0016 0024     		movs	r4, #0
  62 0018 DA7F     		ldrb	r2, [r3, #31]	@ zero_extendqisi2
  63              	.L6:
  64 001a 194F     		ldr	r7, .L13+4
  65 001c 0923     		movs	r3, #9
  66 001e 5FFA84F8 		uxtb	r8, r4
  67              	.LVL1:
  68 0022 03FB0473 		mla	r3, r3, r4, r7
 347:src/kbdutil.c ****   BYTE i, j;
  69              		.loc 1 347 0
ARM GAS  C:\Users\AHMED~1.ELE\AppData\Local\Temp\cciu15sF.s 			page 9


  70 0026 0020     		movs	r0, #0
  71              	.LVL2:
  72              	.L5:
 373:src/kbdutil.c ****         j = alpha_tbl[i][(j + 1) % 9];
  73              		.loc 1 373 0
  74 0028 195C     		ldrb	r1, [r3, r0]	@ zero_extendqisi2
  75 002a 0130     		adds	r0, r0, #1
  76 002c 9142     		cmp	r1, r2
  77 002e 07D1     		bne	.L3
 374:src/kbdutil.c ****         goto FOUND;
  78              		.loc 1 374 0
  79 0030 0921     		movs	r1, #9
  80 0032 FFF7FEFF 		bl	__aeabi_idivmod
  81              	.LVL3:
  82 0036 0923     		movs	r3, #9
  83 0038 03FB0411 		mla	r1, r3, r4, r1
  84 003c 785C     		ldrb	r0, [r7, r1]	@ zero_extendqisi2
  85              	.LVL4:
 375:src/kbdutil.c ****       }
  86              		.loc 1 375 0
  87 003e 05E0     		b	.L4
  88              	.LVL5:
  89              	.L3:
 371:src/kbdutil.c ****     {
  90              		.loc 1 371 0 discriminator 2
  91 0040 0928     		cmp	r0, #9
  92 0042 F1D1     		bne	.L5
  93              	.LVL6:
  94 0044 0134     		adds	r4, r4, #1
  95              	.LVL7:
 369:src/kbdutil.c ****   {
  96              		.loc 1 369 0 discriminator 2
  97 0046 0A2C     		cmp	r4, #10
  98 0048 E7D1     		bne	.L6
  99 004a A046     		mov	r8, r4
 100              	.LVL8:
 101              	.L4:
 380:src/kbdutil.c ****     if ((j > 'F') || (j < '0') || ((j > '9') && (j < 'A')))
 102              		.loc 1 380 0
 103 004c D6F88C30 		ldr	r3, [r6, #140]
 104 0050 B3F5802F 		cmp	r3, #262144
 105 0054 0DD1     		bne	.L7
 381:src/kbdutil.c ****       j = alpha_tbl[i][0];
 106              		.loc 1 381 0
 107 0056 A0F13003 		sub	r3, r0, #48
 108 005a DBB2     		uxtb	r3, r3
 109 005c 162B     		cmp	r3, #22
 110 005e 04D8     		bhi	.L8
 381:src/kbdutil.c ****       j = alpha_tbl[i][0];
 111              		.loc 1 381 0 is_stmt 0 discriminator 1
 112 0060 A0F13A03 		sub	r3, r0, #58
 113 0064 DBB2     		uxtb	r3, r3
 114 0066 062B     		cmp	r3, #6
 115 0068 03D8     		bhi	.L7
 116              	.L8:
 382:src/kbdutil.c ****   gKbdGDS.sbInputBuf[gKbdGDS.bInputLen-1] = j;
 117              		.loc 1 382 0 is_stmt 1
ARM GAS  C:\Users\AHMED~1.ELE\AppData\Local\Temp\cciu15sF.s 			page 10


 118 006a 0923     		movs	r3, #9
 119 006c 03FB08F3 		mul	r3, r3, r8
 120 0070 F85C     		ldrb	r0, [r7, r3]	@ zero_extendqisi2
 121              	.LVL9:
 122              	.L7:
 383:src/kbdutil.c **** }
 123              		.loc 1 383 0
 124 0072 3544     		add	r5, r5, r6
 125 0074 E877     		strb	r0, [r5, #31]
 126 0076 BDE8F081 		pop	{r4, r5, r6, r7, r8, pc}
 127              	.L14:
 128 007a 00BF     		.align	2
 129              	.L13:
 130 007c 00000000 		.word	.LANCHOR0
 131 0080 00000000 		.word	.LANCHOR1
 132              		.cfi_endproc
 133              	.LFE9:
 134              		.size	ConvertAlphaNew, .-ConvertAlphaNew
 135              		.section	.text.UpdateDisplay,"ax",%progbits
 136              		.align	1
 137              		.thumb
 138              		.thumb_func
 139              		.type	UpdateDisplay, %function
 140              	UpdateDisplay:
 141              	.LFB8:
 252:src/kbdutil.c ****   BYTE decimal_pos;
 142              		.loc 1 252 0
 143              		.cfi_startproc
 144              		@ args = 0, pretend = 0, frame = 32
 145              		@ frame_needed = 0, uses_anonymous_args = 0
 146              	.LVL10:
 147 0000 2DE9F043 		push	{r4, r5, r6, r7, r8, r9, lr}
 148              		.cfi_def_cfa_offset 28
 149              		.cfi_offset 4, -28
 150              		.cfi_offset 5, -24
 151              		.cfi_offset 6, -20
 152              		.cfi_offset 7, -16
 153              		.cfi_offset 8, -12
 154              		.cfi_offset 9, -8
 155              		.cfi_offset 14, -4
 258:src/kbdutil.c ****   switch (gKbdGDS.dEntryMode) {
 156              		.loc 1 258 0
 157 0004 C54D     		ldr	r5, .L82
 252:src/kbdutil.c ****   BYTE decimal_pos;
 158              		.loc 1 252 0
 159 0006 8BB0     		sub	sp, sp, #44
 160              		.cfi_def_cfa_offset 72
 258:src/kbdutil.c ****   switch (gKbdGDS.dEntryMode) {
 161              		.loc 1 258 0
 162 0008 05F15500 		add	r0, r5, #85
 163 000c 2021     		movs	r1, #32
 164 000e 3522     		movs	r2, #53
 165 0010 FFF7FEFF 		bl	memset
 166              	.LVL11:
 259:src/kbdutil.c ****     case HIDE_NUMERIC:
 167              		.loc 1 259 0
 168 0014 D5F88C30 		ldr	r3, [r5, #140]
ARM GAS  C:\Users\AHMED~1.ELE\AppData\Local\Temp\cciu15sF.s 			page 11


 169 0018 B3F5403F 		cmp	r3, #196608
 170 001c 06D0     		beq	.L17
 171 001e B3F5002F 		cmp	r3, #524288
 172 0022 0BD0     		beq	.L18
 173 0024 B3F5803F 		cmp	r3, #65536
 174 0028 57D1     		bne	.L73
 175 002a 07E0     		b	.L18
 176              	.L17:
 261:src/kbdutil.c ****       gKbdGDS.bDispLen = gKbdGDS.bInputLen;
 177              		.loc 1 261 0
 178 002c AC7F     		ldrb	r4, [r5, #30]	@ zero_extendqisi2
 179 002e 05F15500 		add	r0, r5, #85
 180 0032 2A21     		movs	r1, #42
 181 0034 2246     		mov	r2, r4
 182 0036 FFF7FEFF 		bl	memset
 183              	.LVL12:
 184 003a 56E0     		b	.L74
 185              	.L18:
 266:src/kbdutil.c ****       memcpy(gKbdGDS.sbDispBuf, gKbdGDS.sbInputBuf,gKbdGDS.bInputLen);
 186              		.loc 1 266 0
 187 003c AE7F     		ldrb	r6, [r5, #30]	@ zero_extendqisi2
 188 003e B74C     		ldr	r4, .L82
 267:src/kbdutil.c ****       if ((gKbdGDS.bDispLen==0)|| (gKbdGDS.bDispLen<=gKbdGDS.bDecimalPos)) {
 189              		.loc 1 267 0
 190 0040 3246     		mov	r2, r6
 191 0042 04F15500 		add	r0, r4, #85
 192 0046 04F11F01 		add	r1, r4, #31
 266:src/kbdutil.c ****       memcpy(gKbdGDS.sbDispBuf, gKbdGDS.sbInputBuf,gKbdGDS.bInputLen);
 193              		.loc 1 266 0
 194 004a 85F85460 		strb	r6, [r5, #84]
 267:src/kbdutil.c ****       if ((gKbdGDS.bDispLen==0)|| (gKbdGDS.bDispLen<=gKbdGDS.bDecimalPos)) {
 195              		.loc 1 267 0
 196 004e FFF7FEFF 		bl	memcpy
 197              	.LVL13:
 268:src/kbdutil.c ****         gKbdGDS.bDispLen = gKbdGDS.bDecimalPos + 1;
 198              		.loc 1 268 0
 199 0052 16B1     		cbz	r6, .L20
 268:src/kbdutil.c ****         gKbdGDS.bDispLen = gKbdGDS.bDecimalPos + 1;
 200              		.loc 1 268 0 is_stmt 0 discriminator 1
 201 0054 A37A     		ldrb	r3, [r4, #10]	@ zero_extendqisi2
 202 0056 B342     		cmp	r3, r6
 203 0058 10D3     		bcc	.L21
 204              	.L20:
 269:src/kbdutil.c ****         memset(gKbdGDS.sbDispBuf, '0', gKbdGDS.bDispLen);
 205              		.loc 1 269 0 is_stmt 1
 206 005a AC7A     		ldrb	r4, [r5, #10]	@ zero_extendqisi2
 270:src/kbdutil.c ****         memcpy(&gKbdGDS.sbDispBuf[gKbdGDS.bDispLen-gKbdGDS.bInputLen],
 207              		.loc 1 270 0
 208 005c 3021     		movs	r1, #48
 269:src/kbdutil.c ****         memset(gKbdGDS.sbDispBuf, '0', gKbdGDS.bDispLen);
 209              		.loc 1 269 0
 210 005e 0134     		adds	r4, r4, #1
 270:src/kbdutil.c ****         memcpy(&gKbdGDS.sbDispBuf[gKbdGDS.bDispLen-gKbdGDS.bInputLen],
 211              		.loc 1 270 0
 212 0060 AF48     		ldr	r0, .L82+4
 269:src/kbdutil.c ****         memset(gKbdGDS.sbDispBuf, '0', gKbdGDS.bDispLen);
 213              		.loc 1 269 0
ARM GAS  C:\Users\AHMED~1.ELE\AppData\Local\Temp\cciu15sF.s 			page 12


 214 0062 E4B2     		uxtb	r4, r4
 270:src/kbdutil.c ****         memcpy(&gKbdGDS.sbDispBuf[gKbdGDS.bDispLen-gKbdGDS.bInputLen],
 215              		.loc 1 270 0
 216 0064 2246     		mov	r2, r4
 269:src/kbdutil.c ****         memset(gKbdGDS.sbDispBuf, '0', gKbdGDS.bDispLen);
 217              		.loc 1 269 0
 218 0066 85F85440 		strb	r4, [r5, #84]
 270:src/kbdutil.c ****         memcpy(&gKbdGDS.sbDispBuf[gKbdGDS.bDispLen-gKbdGDS.bInputLen],
 219              		.loc 1 270 0
 220 006a FFF7FEFF 		bl	memset
 221              	.LVL14:
 271:src/kbdutil.c ****                gKbdGDS.sbInputBuf, gKbdGDS.bInputLen);
 222              		.loc 1 271 0
 223 006e A01B     		subs	r0, r4, r6
 224 0070 2844     		add	r0, r0, r5
 225 0072 5530     		adds	r0, r0, #85
 226 0074 AB49     		ldr	r1, .L82+8
 227 0076 3246     		mov	r2, r6
 228 0078 FFF7FEFF 		bl	memcpy
 229              	.LVL15:
 230              	.L21:
 274:src/kbdutil.c ****         decimal_pos = gKbdGDS.bDispLen-gKbdGDS.bDecimalPos;
 231              		.loc 1 274 0
 232 007c AA7A     		ldrb	r2, [r5, #10]	@ zero_extendqisi2
 233 007e A74E     		ldr	r6, .L82
 234 0080 92B1     		cbz	r2, .L22
 235              	.LVL16:
 275:src/kbdutil.c ****         memmove(&gKbdGDS.sbDispBuf[decimal_pos+1] , &gKbdGDS.sbDispBuf[decimal_pos], gKbdGDS.bDecim
 236              		.loc 1 275 0
 237 0082 96F85440 		ldrb	r4, [r6, #84]	@ zero_extendqisi2
 238 0086 A41A     		subs	r4, r4, r2
 276:src/kbdutil.c ****         gKbdGDS.sbDispBuf[decimal_pos] = '.';
 239              		.loc 1 276 0
 240 0088 E4B2     		uxtb	r4, r4
 241 008a 3019     		adds	r0, r6, r4
 242 008c 0146     		mov	r1, r0
 243 008e 5531     		adds	r1, r1, #85
 244 0090 5630     		adds	r0, r0, #86
 245 0092 FFF7FEFF 		bl	memmove
 246              	.LVL17:
 277:src/kbdutil.c ****         gKbdGDS.bDispLen++;
 247              		.loc 1 277 0
 248 0096 3444     		add	r4, r4, r6
 249 0098 2E23     		movs	r3, #46
 250 009a 84F85530 		strb	r3, [r4, #85]
 278:src/kbdutil.c ****       }
 251              		.loc 1 278 0
 252 009e 96F85430 		ldrb	r3, [r6, #84]	@ zero_extendqisi2
 253 00a2 0133     		adds	r3, r3, #1
 254 00a4 86F85430 		strb	r3, [r6, #84]
 255              	.L22:
 280:src/kbdutil.c ****         memmove(&gKbdGDS.sbDispBuf[PREFIX_SIZE], gKbdGDS.sbDispBuf, gKbdGDS.bDispLen);
 256              		.loc 1 280 0
 257 00a8 D5F89030 		ldr	r3, [r5, #144]
 258 00ac 9B4C     		ldr	r4, .L82
 259 00ae 5B02     		lsls	r3, r3, #9
 260 00b0 1DD5     		bpl	.L19
ARM GAS  C:\Users\AHMED~1.ELE\AppData\Local\Temp\cciu15sF.s 			page 13


 281:src/kbdutil.c ****         memcpy(gKbdGDS.sbDispBuf, gKbdGDS.sbPrefix, PREFIX_SIZE);
 261              		.loc 1 281 0
 262 00b2 94F85460 		ldrb	r6, [r4, #84]	@ zero_extendqisi2
 263 00b6 04F15501 		add	r1, r4, #85
 264 00ba 3246     		mov	r2, r6
 265 00bc 04F15900 		add	r0, r4, #89
 283:src/kbdutil.c ****       }
 266              		.loc 1 283 0
 267 00c0 0436     		adds	r6, r6, #4
 281:src/kbdutil.c ****         memcpy(gKbdGDS.sbDispBuf, gKbdGDS.sbPrefix, PREFIX_SIZE);
 268              		.loc 1 281 0
 269 00c2 FFF7FEFF 		bl	memmove
 270              	.LVL18:
 282:src/kbdutil.c ****         gKbdGDS.bDispLen += PREFIX_SIZE;
 271              		.loc 1 282 0
 272 00c6 04F15500 		add	r0, r4, #85
 273 00ca 04F11701 		add	r1, r4, #23
 274 00ce 0422     		movs	r2, #4
 275 00d0 FFF7FEFF 		bl	memcpy
 276              	.LVL19:
 283:src/kbdutil.c ****       }
 277              		.loc 1 283 0
 278 00d4 84F85460 		strb	r6, [r4, #84]
 279 00d8 09E0     		b	.L19
 280              	.L73:
 287:src/kbdutil.c ****       gKbdGDS.bDispLen = gKbdGDS.bInputLen;
 281              		.loc 1 287 0
 282 00da AC7F     		ldrb	r4, [r5, #30]	@ zero_extendqisi2
 283 00dc 05F15500 		add	r0, r5, #85
 284 00e0 05F11F01 		add	r1, r5, #31
 285 00e4 2246     		mov	r2, r4
 286 00e6 FFF7FEFF 		bl	memcpy
 287              	.LVL20:
 288              	.L74:
 288:src/kbdutil.c ****       break;
 289              		.loc 1 288 0
 290 00ea 85F85440 		strb	r4, [r5, #84]
 291              	.L19:
 291:src/kbdutil.c ****   if (gKbdGDS.wFont==MW_BIGFONT) {
 292              		.loc 1 291 0
 293 00ee 95F85430 		ldrb	r3, [r5, #84]	@ zero_extendqisi2
 292:src/kbdutil.c ****     DispClrLineMW(gKbdGDS.wLineNo);
 294              		.loc 1 292 0
 295 00f2 B5F80880 		ldrh	r8, [r5, #8]
 291:src/kbdutil.c ****   if (gKbdGDS.wFont==MW_BIGFONT) {
 296              		.loc 1 291 0
 297 00f6 2B44     		add	r3, r3, r5
 298 00f8 0027     		movs	r7, #0
 292:src/kbdutil.c ****     DispClrLineMW(gKbdGDS.wLineNo);
 299              		.loc 1 292 0
 300 00fa B8F5805F 		cmp	r8, #4096
 291:src/kbdutil.c ****   if (gKbdGDS.wFont==MW_BIGFONT) {
 301              		.loc 1 291 0
 302 00fe 874C     		ldr	r4, .L82
 303 0100 83F85570 		strb	r7, [r3, #85]
 304 0104 AA8B     		ldrh	r2, [r5, #28]
 292:src/kbdutil.c ****     DispClrLineMW(gKbdGDS.wLineNo);
ARM GAS  C:\Users\AHMED~1.ELE\AppData\Local\Temp\cciu15sF.s 			page 14


 305              		.loc 1 292 0
 306 0106 40F08280 		bne	.L23
 293:src/kbdutil.c ****     if (gKbdGDS.bDispLen<=MW_NOR_LINESIZE) {
 307              		.loc 1 293 0
 308 010a 0097     		str	r7, [sp]
 309 010c 0F20     		movs	r0, #15
 310 010e 2221     		movs	r1, #34
 311 0110 3B46     		mov	r3, r7
 312 0112 FFF7FEFF 		bl	lib_app_call
 313              	.LVL21:
 294:src/kbdutil.c ****       DispLineMW(pBuf, gKbdGDS.wLineNo, (gKbdGDS.bRightJust?MW_RIGHT:0)|gKbdGDS.wFont|MW_CLREOL);
 314              		.loc 1 294 0
 315 0116 94F85460 		ldrb	r6, [r4, #84]	@ zero_extendqisi2
 316 011a 142E     		cmp	r6, #20
 317 011c 1ED8     		bhi	.L24
 318              	.LBB2:
 295:src/kbdutil.c ****       //DispClrLineMW(gKbdGDS.wLineNo+(MW_LINE4-MW_LINE2));   //03-10-26 JC ++
 319              		.loc 1 295 0
 320 011e 04F15500 		add	r0, r4, #85
 321 0122 FFF7FEFF 		bl	strlen
 322              	.LVL22:
 323 0126 0646     		mov	r6, r0
 324              	.LVL23:
 325 0128 711C     		adds	r1, r6, #1
 326 012a 9220     		movs	r0, #146
 327              	.LVL24:
 328 012c FFF7FEFF 		bl	sys_func1
 329              	.LVL25:
 330 0130 0546     		mov	r5, r0
 331 0132 0028     		cmp	r0, #0
 332 0134 00F05481 		beq	.L15
 295:src/kbdutil.c ****       //DispClrLineMW(gKbdGDS.wLineNo+(MW_LINE4-MW_LINE2));   //03-10-26 JC ++
 333              		.loc 1 295 0 is_stmt 0 discriminator 1
 334 0138 04F15501 		add	r1, r4, #85
 335 013c 3246     		mov	r2, r6
 336 013e FFF7FEFF 		bl	memcpy
 337              	.LVL26:
 338 0142 AF55     		strb	r7, [r5, r6]
 339 0144 2289     		ldrh	r2, [r4, #8]
 340 0146 94F89C10 		ldrb	r1, [r4, #156]	@ zero_extendqisi2
 341 014a 42F02002 		orr	r2, r2, #32
 342 014e A38B     		ldrh	r3, [r4, #28]
 343 0150 92B2     		uxth	r2, r2
 344 0152 B942     		cmp	r1, r7
 345 0154 18BF     		it	ne
 346 0156 42F00102 		orrne	r2, r2, #1
 347 015a D5E0     		b	.L79
 348              	.LVL27:
 349              	.L24:
 350              	.LBE2:
 299:src/kbdutil.c ****       memcpy(tmpbuf, pBuf, disp_len);
 351              		.loc 1 299 0 is_stmt 1
 352 015c 143E     		subs	r6, r6, #20
 300:src/kbdutil.c ****       tmpbuf[disp_len] = 0;
 353              		.loc 1 300 0
 354 015e 04F15501 		add	r1, r4, #85
 299:src/kbdutil.c ****       memcpy(tmpbuf, pBuf, disp_len);
ARM GAS  C:\Users\AHMED~1.ELE\AppData\Local\Temp\cciu15sF.s 			page 15


 355              		.loc 1 299 0
 356 0162 F6B2     		uxtb	r6, r6
 300:src/kbdutil.c ****       tmpbuf[disp_len] = 0;
 357              		.loc 1 300 0
 358 0164 3246     		mov	r2, r6
 359 0166 03A8     		add	r0, sp, #12
 360 0168 FFF7FEFF 		bl	memcpy
 361              	.LVL28:
 301:src/kbdutil.c ****       DispLineMW(tmpbuf, gKbdGDS.wLineNo, (gKbdGDS.bRightJust?MW_RIGHT:0)|gKbdGDS.wFont|MW_CLREOL);
 362              		.loc 1 301 0
 363 016c 0AAB     		add	r3, sp, #40
 364 016e 3344     		add	r3, r3, r6
 365              	.LBB3:
 302:src/kbdutil.c ****       pBuf += disp_len;
 366              		.loc 1 302 0
 367 0170 03A8     		add	r0, sp, #12
 368              	.LBE3:
 301:src/kbdutil.c ****       DispLineMW(tmpbuf, gKbdGDS.wLineNo, (gKbdGDS.bRightJust?MW_RIGHT:0)|gKbdGDS.wFont|MW_CLREOL);
 369              		.loc 1 301 0
 370 0172 03F81C7C 		strb	r7, [r3, #-28]
 371              	.LBB4:
 302:src/kbdutil.c ****       pBuf += disp_len;
 372              		.loc 1 302 0
 373 0176 FFF7FEFF 		bl	strlen
 374              	.LVL29:
 375 017a 8146     		mov	r9, r0
 376              	.LVL30:
 377 017c 09F10101 		add	r1, r9, #1
 378 0180 9220     		movs	r0, #146
 379              	.LVL31:
 380 0182 FFF7FEFF 		bl	sys_func1
 381              	.LVL32:
 382 0186 8046     		mov	r8, r0
 383 0188 D0B1     		cbz	r0, .L27
 302:src/kbdutil.c ****       pBuf += disp_len;
 384              		.loc 1 302 0 is_stmt 0 discriminator 1
 385 018a 03A9     		add	r1, sp, #12
 386 018c 4A46     		mov	r2, r9
 387 018e FFF7FEFF 		bl	memcpy
 388              	.LVL33:
 389 0192 08F80970 		strb	r7, [r8, r9]
 390 0196 2289     		ldrh	r2, [r4, #8]
 391 0198 94F89C10 		ldrb	r1, [r4, #156]	@ zero_extendqisi2
 392 019c 42F02002 		orr	r2, r2, #32
 393 01a0 A38B     		ldrh	r3, [r4, #28]
 394 01a2 92B2     		uxth	r2, r2
 395 01a4 0029     		cmp	r1, #0
 396 01a6 18BF     		it	ne
 397 01a8 42F00102 		orrne	r2, r2, #1
 398 01ac 0F20     		movs	r0, #15
 399 01ae 0092     		str	r2, [sp]
 400 01b0 2521     		movs	r1, #37
 401 01b2 4246     		mov	r2, r8
 402 01b4 FFF7FEFF 		bl	lib_app_call
 403              	.LVL34:
 404 01b8 9420     		movs	r0, #148
 405 01ba 4146     		mov	r1, r8
ARM GAS  C:\Users\AHMED~1.ELE\AppData\Local\Temp\cciu15sF.s 			page 16


 406 01bc FFF7FEFF 		bl	sys_func1
 407              	.LVL35:
 408              	.L27:
 409              	.LBE4:
 303:src/kbdutil.c ****       DispLineMW(pBuf, gKbdGDS.wLineNo+(MW_LINE4-MW_LINE2), (gKbdGDS.bRightJust?MW_RIGHT:0)|gKbdGDS
 410              		.loc 1 303 0 is_stmt 1
 411 01c0 3544     		add	r5, r5, r6
 412 01c2 5535     		adds	r5, r5, #85
 413              	.LVL36:
 414              	.LBB5:
 304:src/kbdutil.c ****     }
 415              		.loc 1 304 0
 416 01c4 2846     		mov	r0, r5
 417 01c6 FFF7FEFF 		bl	strlen
 418              	.LVL37:
 419              	.LBE5:
 303:src/kbdutil.c ****       DispLineMW(pBuf, gKbdGDS.wLineNo+(MW_LINE4-MW_LINE2), (gKbdGDS.bRightJust?MW_RIGHT:0)|gKbdGDS
 420              		.loc 1 303 0
 421 01ca 544F     		ldr	r7, .L82
 422              	.LBB6:
 304:src/kbdutil.c ****     }
 423              		.loc 1 304 0
 424 01cc 0646     		mov	r6, r0
 425              	.LVL38:
 426 01ce 711C     		adds	r1, r6, #1
 427 01d0 9220     		movs	r0, #146
 428              	.LVL39:
 429 01d2 FFF7FEFF 		bl	sys_func1
 430              	.LVL40:
 431 01d6 0446     		mov	r4, r0
 432 01d8 0028     		cmp	r0, #0
 433 01da 00F00181 		beq	.L15
 304:src/kbdutil.c ****     }
 434              		.loc 1 304 0 is_stmt 0 discriminator 1
 435 01de 2946     		mov	r1, r5
 436 01e0 3246     		mov	r2, r6
 437 01e2 FFF7FEFF 		bl	memcpy
 438              	.LVL41:
 439 01e6 0023     		movs	r3, #0
 440 01e8 0F20     		movs	r0, #15
 441 01ea A355     		strb	r3, [r4, r6]
 442 01ec 3A89     		ldrh	r2, [r7, #8]
 443 01ee 97F89C10 		ldrb	r1, [r7, #156]	@ zero_extendqisi2
 444 01f2 42F02002 		orr	r2, r2, #32
 445 01f6 BB8B     		ldrh	r3, [r7, #28]
 446 01f8 92B2     		uxth	r2, r2
 447 01fa 0029     		cmp	r1, #0
 448 01fc 18BF     		it	ne
 449 01fe 42F00102 		orrne	r2, r2, #1
 450 0202 03F50073 		add	r3, r3, #512
 451 0206 0092     		str	r2, [sp]
 452 0208 2521     		movs	r1, #37
 453 020a 2246     		mov	r2, r4
 454 020c E2E0     		b	.L77
 455              	.LVL42:
 456              	.L23:
 457              	.LBE6:
ARM GAS  C:\Users\AHMED~1.ELE\AppData\Local\Temp\cciu15sF.s 			page 17


 307:src/kbdutil.c ****     DispClrLineMW(gKbdGDS.wLineNo);
 458              		.loc 1 307 0 is_stmt 1
 459 020e B8F1000F 		cmp	r8, #0
 460 0212 52D1     		bne	.L29
 308:src/kbdutil.c ****     if (gKbdGDS.bDispLen<=MW_NOR_LINESIZE) {
 461              		.loc 1 308 0
 462 0214 CDF80080 		str	r8, [sp]
 463 0218 0F20     		movs	r0, #15
 464 021a 2221     		movs	r1, #34
 465 021c 4346     		mov	r3, r8
 466 021e FFF7FEFF 		bl	lib_app_call
 467              	.LVL43:
 309:src/kbdutil.c ****       DispLineMW(pBuf, gKbdGDS.wLineNo, (gKbdGDS.bRightJust?MW_RIGHT:0)|gKbdGDS.wFont|MW_CLREOL);
 468              		.loc 1 309 0
 469 0222 94F85460 		ldrb	r6, [r4, #84]	@ zero_extendqisi2
 470 0226 142E     		cmp	r6, #20
 471 0228 14D8     		bhi	.L30
 472              	.LBB7:
 310:src/kbdutil.c ****       //DispClrLineMW(gKbdGDS.wLineNo+(MW_LINE3-MW_LINE2));   //03-10-26 JC ++
 473              		.loc 1 310 0
 474 022a 04F15500 		add	r0, r4, #85
 475 022e FFF7FEFF 		bl	strlen
 476              	.LVL44:
 477 0232 0646     		mov	r6, r0
 478              	.LVL45:
 479 0234 711C     		adds	r1, r6, #1
 480 0236 9220     		movs	r0, #146
 481              	.LVL46:
 482 0238 FFF7FEFF 		bl	sys_func1
 483              	.LVL47:
 484 023c 0546     		mov	r5, r0
 485 023e 0028     		cmp	r0, #0
 486 0240 00F0CE80 		beq	.L15
 310:src/kbdutil.c ****       //DispClrLineMW(gKbdGDS.wLineNo+(MW_LINE3-MW_LINE2));   //03-10-26 JC ++
 487              		.loc 1 310 0 is_stmt 0 discriminator 1
 488 0244 04F15501 		add	r1, r4, #85
 489 0248 3246     		mov	r2, r6
 490 024a FFF7FEFF 		bl	memcpy
 491              	.LVL48:
 492 024e 05F80680 		strb	r8, [r5, r6]
 493 0252 4EE0     		b	.L80
 494              	.LVL49:
 495              	.L30:
 496              	.LBE7:
 314:src/kbdutil.c ****       memcpy(tmpbuf, pBuf, disp_len);
 497              		.loc 1 314 0 is_stmt 1
 498 0254 143E     		subs	r6, r6, #20
 315:src/kbdutil.c ****       tmpbuf[disp_len] = 0;
 499              		.loc 1 315 0
 500 0256 04F15501 		add	r1, r4, #85
 314:src/kbdutil.c ****       memcpy(tmpbuf, pBuf, disp_len);
 501              		.loc 1 314 0
 502 025a F6B2     		uxtb	r6, r6
 315:src/kbdutil.c ****       tmpbuf[disp_len] = 0;
 503              		.loc 1 315 0
 504 025c 3246     		mov	r2, r6
 505 025e 03A8     		add	r0, sp, #12
ARM GAS  C:\Users\AHMED~1.ELE\AppData\Local\Temp\cciu15sF.s 			page 18


 506 0260 FFF7FEFF 		bl	memcpy
 507              	.LVL50:
 316:src/kbdutil.c ****       DispLineMW(tmpbuf, gKbdGDS.wLineNo, (gKbdGDS.bRightJust?MW_RIGHT:0)|gKbdGDS.wFont|MW_CLREOL);
 508              		.loc 1 316 0
 509 0264 0AAB     		add	r3, sp, #40
 510 0266 3344     		add	r3, r3, r6
 511              	.LBB8:
 317:src/kbdutil.c ****       pBuf += disp_len;
 512              		.loc 1 317 0
 513 0268 03A8     		add	r0, sp, #12
 514              	.LBE8:
 316:src/kbdutil.c ****       DispLineMW(tmpbuf, gKbdGDS.wLineNo, (gKbdGDS.bRightJust?MW_RIGHT:0)|gKbdGDS.wFont|MW_CLREOL);
 515              		.loc 1 316 0
 516 026a 03F81C8C 		strb	r8, [r3, #-28]
 517              	.LBB9:
 317:src/kbdutil.c ****       pBuf += disp_len;
 518              		.loc 1 317 0
 519 026e FFF7FEFF 		bl	strlen
 520              	.LVL51:
 521 0272 8146     		mov	r9, r0
 522              	.LVL52:
 523 0274 09F10101 		add	r1, r9, #1
 524 0278 9220     		movs	r0, #146
 525              	.LVL53:
 526 027a FFF7FEFF 		bl	sys_func1
 527              	.LVL54:
 528 027e 0746     		mov	r7, r0
 529 0280 0028     		cmp	r0, #0
 530 0282 00F08380 		beq	.L33
 317:src/kbdutil.c ****       pBuf += disp_len;
 531              		.loc 1 317 0 is_stmt 0 discriminator 1
 532 0286 03A9     		add	r1, sp, #12
 533 0288 4A46     		mov	r2, r9
 534 028a FFF7FEFF 		bl	memcpy
 535              	.LVL55:
 536 028e 07F80980 		strb	r8, [r7, r9]
 537 0292 2289     		ldrh	r2, [r4, #8]
 538 0294 94F89C10 		ldrb	r1, [r4, #156]	@ zero_extendqisi2
 539 0298 42F02002 		orr	r2, r2, #32
 540 029c A38B     		ldrh	r3, [r4, #28]
 541 029e 92B2     		uxth	r2, r2
 542 02a0 0029     		cmp	r1, #0
 543 02a2 18BF     		it	ne
 544 02a4 42F00102 		orrne	r2, r2, #1
 545 02a8 0F20     		movs	r0, #15
 546 02aa 0092     		str	r2, [sp]
 547 02ac 2521     		movs	r1, #37
 548 02ae 3A46     		mov	r2, r7
 549 02b0 FFF7FEFF 		bl	lib_app_call
 550              	.LVL56:
 551 02b4 9420     		movs	r0, #148
 552 02b6 3946     		mov	r1, r7
 553 02b8 66E0     		b	.L81
 554              	.LVL57:
 555              	.L29:
 556              	.LBE9:
 323:src/kbdutil.c ****     if (gKbdGDS.bDispLen<=MW_MAX_LINESIZE) {
ARM GAS  C:\Users\AHMED~1.ELE\AppData\Local\Temp\cciu15sF.s 			page 19


 557              		.loc 1 323 0 is_stmt 1
 558 02ba 0097     		str	r7, [sp]
 559 02bc 0F20     		movs	r0, #15
 560 02be 2221     		movs	r1, #34
 561 02c0 3B46     		mov	r3, r7
 562 02c2 FFF7FEFF 		bl	lib_app_call
 563              	.LVL58:
 324:src/kbdutil.c ****       DispLineMW(pBuf, gKbdGDS.wLineNo, (gKbdGDS.bRightJust?MW_RIGHT:0)|gKbdGDS.wFont|MW_CLREOL);
 564              		.loc 1 324 0
 565 02c6 94F85460 		ldrb	r6, [r4, #84]	@ zero_extendqisi2
 566 02ca 1A2E     		cmp	r6, #26
 567 02cc 2CD8     		bhi	.L32
 568              	.LBB10:
 325:src/kbdutil.c ****       //DispClrLineMW(gKbdGDS.wLineNo+(MW_LINE3-MW_LINE2));   //03-10-26 JC ++
 569              		.loc 1 325 0
 570 02ce 04F15500 		add	r0, r4, #85
 571 02d2 FFF7FEFF 		bl	strlen
 572              	.LVL59:
 573 02d6 0646     		mov	r6, r0
 574              	.LVL60:
 575 02d8 711C     		adds	r1, r6, #1
 576 02da 9220     		movs	r0, #146
 577              	.LVL61:
 578 02dc FFF7FEFF 		bl	sys_func1
 579              	.LVL62:
 580 02e0 0546     		mov	r5, r0
 581 02e2 0028     		cmp	r0, #0
 582 02e4 7CD0     		beq	.L15
 325:src/kbdutil.c ****       //DispClrLineMW(gKbdGDS.wLineNo+(MW_LINE3-MW_LINE2));   //03-10-26 JC ++
 583              		.loc 1 325 0 is_stmt 0 discriminator 1
 584 02e6 04F15501 		add	r1, r4, #85
 585 02ea 3246     		mov	r2, r6
 586 02ec FFF7FEFF 		bl	memcpy
 587              	.LVL63:
 588 02f0 AF55     		strb	r7, [r5, r6]
 589              	.LVL64:
 590              	.L80:
 591 02f2 2289     		ldrh	r2, [r4, #8]
 592 02f4 94F89C10 		ldrb	r1, [r4, #156]	@ zero_extendqisi2
 593 02f8 42F02002 		orr	r2, r2, #32
 594 02fc A38B     		ldrh	r3, [r4, #28]
 595 02fe 92B2     		uxth	r2, r2
 596 0300 0029     		cmp	r1, #0
 597 0302 18BF     		it	ne
 598 0304 42F00102 		orrne	r2, r2, #1
 599              	.L79:
 600 0308 0092     		str	r2, [sp]
 601 030a 2521     		movs	r1, #37
 602 030c 0F20     		movs	r0, #15
 603 030e 2A46     		mov	r2, r5
 604 0310 FFF7FEFF 		bl	lib_app_call
 605              	.LVL65:
 606 0314 9420     		movs	r0, #148
 607 0316 2946     		mov	r1, r5
 608 0318 60E0     		b	.L75
 609              	.L83:
 610 031a 00BF     		.align	2
ARM GAS  C:\Users\AHMED~1.ELE\AppData\Local\Temp\cciu15sF.s 			page 20


 611              	.L82:
 612 031c 00000000 		.word	.LANCHOR0
 613 0320 55000000 		.word	.LANCHOR0+85
 614 0324 1F000000 		.word	.LANCHOR0+31
 615              	.L32:
 616              	.LBE10:
 329:src/kbdutil.c ****       memcpy(tmpbuf, pBuf, disp_len);
 617              		.loc 1 329 0 is_stmt 1
 618 0328 1A3E     		subs	r6, r6, #26
 330:src/kbdutil.c ****       tmpbuf[disp_len] = 0;
 619              		.loc 1 330 0
 620 032a 04F15501 		add	r1, r4, #85
 329:src/kbdutil.c ****       memcpy(tmpbuf, pBuf, disp_len);
 621              		.loc 1 329 0
 622 032e F6B2     		uxtb	r6, r6
 330:src/kbdutil.c ****       tmpbuf[disp_len] = 0;
 623              		.loc 1 330 0
 624 0330 3246     		mov	r2, r6
 625 0332 03A8     		add	r0, sp, #12
 626 0334 FFF7FEFF 		bl	memcpy
 627              	.LVL66:
 331:src/kbdutil.c ****       DispLineMW(tmpbuf, gKbdGDS.wLineNo, (gKbdGDS.bRightJust?MW_RIGHT:0)|gKbdGDS.wFont|MW_CLREOL);
 628              		.loc 1 331 0
 629 0338 0AAB     		add	r3, sp, #40
 630 033a 3344     		add	r3, r3, r6
 631              	.LBB11:
 332:src/kbdutil.c ****       pBuf += disp_len;
 632              		.loc 1 332 0
 633 033c 03A8     		add	r0, sp, #12
 634              	.LBE11:
 331:src/kbdutil.c ****       DispLineMW(tmpbuf, gKbdGDS.wLineNo, (gKbdGDS.bRightJust?MW_RIGHT:0)|gKbdGDS.wFont|MW_CLREOL);
 635              		.loc 1 331 0
 636 033e 03F81C7C 		strb	r7, [r3, #-28]
 637              	.LBB12:
 332:src/kbdutil.c ****       pBuf += disp_len;
 638              		.loc 1 332 0
 639 0342 FFF7FEFF 		bl	strlen
 640              	.LVL67:
 641 0346 8146     		mov	r9, r0
 642              	.LVL68:
 643 0348 09F10101 		add	r1, r9, #1
 644 034c 9220     		movs	r0, #146
 645              	.LVL69:
 646 034e FFF7FEFF 		bl	sys_func1
 647              	.LVL70:
 648 0352 8046     		mov	r8, r0
 649 0354 D0B1     		cbz	r0, .L33
 332:src/kbdutil.c ****       pBuf += disp_len;
 650              		.loc 1 332 0 is_stmt 0 discriminator 1
 651 0356 03A9     		add	r1, sp, #12
 652 0358 4A46     		mov	r2, r9
 653 035a FFF7FEFF 		bl	memcpy
 654              	.LVL71:
 655 035e 08F80970 		strb	r7, [r8, r9]
 656 0362 2289     		ldrh	r2, [r4, #8]
 657 0364 94F89C10 		ldrb	r1, [r4, #156]	@ zero_extendqisi2
 658 0368 42F02002 		orr	r2, r2, #32
ARM GAS  C:\Users\AHMED~1.ELE\AppData\Local\Temp\cciu15sF.s 			page 21


 659 036c A38B     		ldrh	r3, [r4, #28]
 660 036e 92B2     		uxth	r2, r2
 661 0370 0029     		cmp	r1, #0
 662 0372 18BF     		it	ne
 663 0374 42F00102 		orrne	r2, r2, #1
 664 0378 0F20     		movs	r0, #15
 665 037a 0092     		str	r2, [sp]
 666 037c 2521     		movs	r1, #37
 667 037e 4246     		mov	r2, r8
 668 0380 FFF7FEFF 		bl	lib_app_call
 669              	.LVL72:
 670 0384 9420     		movs	r0, #148
 671 0386 4146     		mov	r1, r8
 672              	.LVL73:
 673              	.L81:
 674 0388 FFF7FEFF 		bl	sys_func1
 675              	.LVL74:
 676              	.L33:
 677              	.LBE12:
 333:src/kbdutil.c ****       DispLineMW(pBuf, gKbdGDS.wLineNo+(MW_LINE3-MW_LINE2), (gKbdGDS.bRightJust?MW_RIGHT:0)|gKbdGDS
 678              		.loc 1 333 0 is_stmt 1
 679 038c 3544     		add	r5, r5, r6
 680 038e 5535     		adds	r5, r5, #85
 681              	.LVL75:
 682              	.LBB13:
 334:src/kbdutil.c ****     }
 683              		.loc 1 334 0
 684 0390 2846     		mov	r0, r5
 685 0392 FFF7FEFF 		bl	strlen
 686              	.LVL76:
 687              	.LBE13:
 333:src/kbdutil.c ****       DispLineMW(pBuf, gKbdGDS.wLineNo+(MW_LINE3-MW_LINE2), (gKbdGDS.bRightJust?MW_RIGHT:0)|gKbdGDS
 688              		.loc 1 333 0
 689 0396 144F     		ldr	r7, .L84
 690              	.LBB14:
 334:src/kbdutil.c ****     }
 691              		.loc 1 334 0
 692 0398 0646     		mov	r6, r0
 693              	.LVL77:
 694 039a 711C     		adds	r1, r6, #1
 695 039c 9220     		movs	r0, #146
 696              	.LVL78:
 697 039e FFF7FEFF 		bl	sys_func1
 698              	.LVL79:
 699 03a2 0446     		mov	r4, r0
 700 03a4 E0B1     		cbz	r0, .L15
 334:src/kbdutil.c ****     }
 701              		.loc 1 334 0 is_stmt 0 discriminator 1
 702 03a6 2946     		mov	r1, r5
 703 03a8 3246     		mov	r2, r6
 704 03aa FFF7FEFF 		bl	memcpy
 705              	.LVL80:
 706 03ae 0023     		movs	r3, #0
 707 03b0 0F20     		movs	r0, #15
 708 03b2 A355     		strb	r3, [r4, r6]
 709 03b4 3A89     		ldrh	r2, [r7, #8]
 710 03b6 97F89C10 		ldrb	r1, [r7, #156]	@ zero_extendqisi2
ARM GAS  C:\Users\AHMED~1.ELE\AppData\Local\Temp\cciu15sF.s 			page 22


 711 03ba 42F02002 		orr	r2, r2, #32
 712 03be BB8B     		ldrh	r3, [r7, #28]
 713 03c0 92B2     		uxth	r2, r2
 714 03c2 0029     		cmp	r1, #0
 715 03c4 18BF     		it	ne
 716 03c6 42F00102 		orrne	r2, r2, #1
 717 03ca 03F58073 		add	r3, r3, #256
 718 03ce 0092     		str	r2, [sp]
 719 03d0 2521     		movs	r1, #37
 720 03d2 2246     		mov	r2, r4
 721              	.LVL81:
 722              	.L77:
 723 03d4 FFF7FEFF 		bl	lib_app_call
 724              	.LVL82:
 725 03d8 9420     		movs	r0, #148
 726 03da 2146     		mov	r1, r4
 727              	.LVL83:
 728              	.L75:
 729 03dc FFF7FEFF 		bl	sys_func1
 730              	.LVL84:
 731              	.L15:
 732              	.LBE14:
 337:src/kbdutil.c **** //*****************************************************************************
 733              		.loc 1 337 0 is_stmt 1
 734 03e0 0BB0     		add	sp, sp, #44
 735              		.cfi_def_cfa_offset 28
 736              		@ sp needed
 737 03e2 BDE8F083 		pop	{r4, r5, r6, r7, r8, r9, pc}
 738              	.L85:
 739 03e6 00BF     		.align	2
 740              	.L84:
 741 03e8 00000000 		.word	.LANCHOR0
 742              		.cfi_endproc
 743              	.LFE8:
 744              		.size	UpdateDisplay, .-UpdateDisplay
 745              		.section	.text.InitTimer,"ax",%progbits
 746              		.align	1
 747              		.thumb
 748              		.thumb_func
 749              		.type	InitTimer, %function
 750              	InitTimer:
 751              	.LFB0:
  93:src/kbdutil.c ****   if (gKbdGDS.iTimerHdl == -1) {
 752              		.loc 1 93 0
 753              		.cfi_startproc
 754              		@ args = 0, pretend = 0, frame = 0
 755              		@ frame_needed = 0, uses_anonymous_args = 0
 756 0000 10B5     		push	{r4, lr}
 757              		.cfi_def_cfa_offset 8
 758              		.cfi_offset 4, -8
 759              		.cfi_offset 14, -4
  94:src/kbdutil.c ****     gKbdGDS.iTimerHdl = TimerOpenMW();
 760              		.loc 1 94 0
 761 0002 054C     		ldr	r4, .L88
 762 0004 D4F89830 		ldr	r3, [r4, #152]
 763 0008 0133     		adds	r3, r3, #1
 764 000a 04D1     		bne	.L86
ARM GAS  C:\Users\AHMED~1.ELE\AppData\Local\Temp\cciu15sF.s 			page 23


 765              	.LBB17:
 766              	.LBB18:
  95:src/kbdutil.c ****   }
 767              		.loc 1 95 0
 768 000c 0A20     		movs	r0, #10
 769 000e FFF7FEFF 		bl	sys_func0
 770              	.LVL85:
 771 0012 C4F89800 		str	r0, [r4, #152]
 772              	.L86:
 773 0016 10BD     		pop	{r4, pc}
 774              	.L89:
 775              		.align	2
 776              	.L88:
 777 0018 00000000 		.word	.LANCHOR0
 778              	.LBE18:
 779              	.LBE17:
 780              		.cfi_endproc
 781              	.LFE0:
 782              		.size	InitTimer, .-InitTimer
 783              		.section	.text.ClearKeyin,"ax",%progbits
 784              		.align	1
 785              		.global	ClearKeyin
 786              		.thumb
 787              		.thumb_func
 788              		.type	ClearKeyin, %function
 789              	ClearKeyin:
 790              	.LFB1:
 107:src/kbdutil.c ****   InitTimer();
 791              		.loc 1 107 0
 792              		.cfi_startproc
 793              		@ args = 0, pretend = 0, frame = 0
 794              		@ frame_needed = 0, uses_anonymous_args = 0
 795 0000 07B5     		push	{r0, r1, r2, lr}
 796              		.cfi_def_cfa_offset 16
 797              		.cfi_offset 14, -4
 108:src/kbdutil.c ****   while (GetCharMW()!=0) SleepMW();
 798              		.loc 1 108 0
 799 0002 FFF7FEFF 		bl	InitTimer
 800              	.LVL86:
 801              	.L91:
 109:src/kbdutil.c **** }
 802              		.loc 1 109 0 discriminator 1
 803 0006 0022     		movs	r2, #0
 804 0008 0F20     		movs	r0, #15
 805 000a 0092     		str	r2, [sp]
 806 000c 1621     		movs	r1, #22
 807 000e 1346     		mov	r3, r2
 808 0010 FFF7FEFF 		bl	lib_app_call
 809              	.LVL87:
 810 0014 20B1     		cbz	r0, .L93
 109:src/kbdutil.c **** }
 811              		.loc 1 109 0 is_stmt 0 discriminator 2
 812 0016 4FF4CE70 		mov	r0, #412
 813 001a FFF7FEFF 		bl	sys_func0
 814              	.LVL88:
 815 001e F2E7     		b	.L91
 816              	.L93:
ARM GAS  C:\Users\AHMED~1.ELE\AppData\Local\Temp\cciu15sF.s 			page 24


 110:src/kbdutil.c **** //*****************************************************************************
 817              		.loc 1 110 0 is_stmt 1
 818 0020 03B0     		add	sp, sp, #12
 819              		.cfi_def_cfa_offset 4
 820              		@ sp needed
 821 0022 5DF804FB 		ldr	pc, [sp], #4
 822              		.cfi_endproc
 823              	.LFE1:
 824              		.size	ClearKeyin, .-ClearKeyin
 825              		.section	.text.GetKeyin,"ax",%progbits
 826              		.align	1
 827              		.global	GetKeyin
 828              		.thumb
 829              		.thumb_func
 830              		.type	GetKeyin, %function
 831              	GetKeyin:
 832              	.LFB2:
 120:src/kbdutil.c ****   DWORD keyin;
 833              		.loc 1 120 0
 834              		.cfi_startproc
 835              		@ args = 0, pretend = 0, frame = 0
 836              		@ frame_needed = 0, uses_anonymous_args = 0
 837 0000 07B5     		push	{r0, r1, r2, lr}
 838              		.cfi_def_cfa_offset 16
 839              		.cfi_offset 14, -4
 123:src/kbdutil.c ****   keyin = GetCharMW();
 840              		.loc 1 123 0
 841 0002 FFF7FEFF 		bl	InitTimer
 842              	.LVL89:
 124:src/kbdutil.c ****   if ((keyin==0)&&(TimerGetMW(gKbdGDS.iTimerHdl)==0))
 843              		.loc 1 124 0
 844 0006 0022     		movs	r2, #0
 845 0008 0F20     		movs	r0, #15
 846 000a 0092     		str	r2, [sp]
 847 000c 1621     		movs	r1, #22
 848 000e 1346     		mov	r3, r2
 849 0010 FFF7FEFF 		bl	lib_app_call
 850              	.LVL90:
 125:src/kbdutil.c ****     return MWKEY_CANCL;
 851              		.loc 1 125 0
 852 0014 48B9     		cbnz	r0, .L95
 125:src/kbdutil.c ****     return MWKEY_CANCL;
 853              		.loc 1 125 0 is_stmt 0 discriminator 1
 854 0016 064B     		ldr	r3, .L98
 855 0018 0D20     		movs	r0, #13
 856              	.LVL91:
 857 001a D3F89810 		ldr	r1, [r3, #152]
 858 001e FFF7FEFF 		bl	sys_func1
 859              	.LVL92:
 860 0022 0028     		cmp	r0, #0
 861 0024 0CBF     		ite	eq
 862 0026 1120     		moveq	r0, #17
 863 0028 0020     		movne	r0, #0
 864              	.L95:
 129:src/kbdutil.c **** //*****************************************************************************
 865              		.loc 1 129 0 is_stmt 1
 866 002a 03B0     		add	sp, sp, #12
ARM GAS  C:\Users\AHMED~1.ELE\AppData\Local\Temp\cciu15sF.s 			page 25


 867              		.cfi_def_cfa_offset 4
 868              		@ sp needed
 869 002c 5DF804FB 		ldr	pc, [sp], #4
 870              	.L99:
 871              		.align	2
 872              	.L98:
 873 0030 00000000 		.word	.LANCHOR0
 874              		.cfi_endproc
 875              	.LFE2:
 876              		.size	GetKeyin, .-GetKeyin
 877              		.section	.text.SetKbdTimeout,"ax",%progbits
 878              		.align	1
 879              		.global	SetKbdTimeout
 880              		.thumb
 881              		.thumb_func
 882              		.type	SetKbdTimeout, %function
 883              	SetKbdTimeout:
 884              	.LFB3:
 139:src/kbdutil.c ****   InitTimer();
 885              		.loc 1 139 0
 886              		.cfi_startproc
 887              		@ args = 0, pretend = 0, frame = 0
 888              		@ frame_needed = 0, uses_anonymous_args = 0
 889              	.LVL93:
 890 0000 10B5     		push	{r4, lr}
 891              		.cfi_def_cfa_offset 8
 892              		.cfi_offset 4, -8
 893              		.cfi_offset 14, -4
 139:src/kbdutil.c ****   InitTimer();
 894              		.loc 1 139 0
 895 0002 0446     		mov	r4, r0
 140:src/kbdutil.c ****   gKbdGDS.dTimeout = aTimeout;
 896              		.loc 1 140 0
 897 0004 FFF7FEFF 		bl	InitTimer
 898              	.LVL94:
 141:src/kbdutil.c ****   TimerSetMW(gKbdGDS.iTimerHdl, aTimeout);
 899              		.loc 1 141 0
 900 0008 054B     		ldr	r3, .L101
 142:src/kbdutil.c **** }
 901              		.loc 1 142 0
 902 000a 2246     		mov	r2, r4
 141:src/kbdutil.c ****   TimerSetMW(gKbdGDS.iTimerHdl, aTimeout);
 903              		.loc 1 141 0
 904 000c C3F89440 		str	r4, [r3, #148]
 143:src/kbdutil.c **** //*****************************************************************************
 905              		.loc 1 143 0
 906 0010 BDE81040 		pop	{r4, lr}
 907              		.cfi_restore 14
 908              		.cfi_restore 4
 909              		.cfi_def_cfa_offset 0
 910              	.LVL95:
 142:src/kbdutil.c **** }
 911              		.loc 1 142 0
 912 0014 0C20     		movs	r0, #12
 913 0016 D3F89810 		ldr	r1, [r3, #152]
 914 001a FFF7FEBF 		b	sys_func2
 915              	.LVL96:
ARM GAS  C:\Users\AHMED~1.ELE\AppData\Local\Temp\cciu15sF.s 			page 26


 916              	.L102:
 917 001e 00BF     		.align	2
 918              	.L101:
 919 0020 00000000 		.word	.LANCHOR0
 920              		.cfi_endproc
 921              	.LFE3:
 922              		.size	SetKbdTimeout, .-SetKbdTimeout
 923              		.section	.text.GetKbdTimeout,"ax",%progbits
 924              		.align	1
 925              		.global	GetKbdTimeout
 926              		.thumb
 927              		.thumb_func
 928              		.type	GetKbdTimeout, %function
 929              	GetKbdTimeout:
 930              	.LFB4:
 153:src/kbdutil.c ****   InitTimer();
 931              		.loc 1 153 0
 932              		.cfi_startproc
 933              		@ args = 0, pretend = 0, frame = 0
 934              		@ frame_needed = 0, uses_anonymous_args = 0
 935 0000 08B5     		push	{r3, lr}
 936              		.cfi_def_cfa_offset 8
 937              		.cfi_offset 3, -8
 938              		.cfi_offset 14, -4
 154:src/kbdutil.c ****   return TimerGetMW(gKbdGDS.iTimerHdl);
 939              		.loc 1 154 0
 940 0002 FFF7FEFF 		bl	InitTimer
 941              	.LVL97:
 155:src/kbdutil.c **** }
 942              		.loc 1 155 0
 943 0006 044B     		ldr	r3, .L104
 944 0008 0D20     		movs	r0, #13
 945 000a D3F89810 		ldr	r1, [r3, #152]
 156:src/kbdutil.c **** //*****************************************************************************
 946              		.loc 1 156 0
 947 000e BDE80840 		pop	{r3, lr}
 948              		.cfi_restore 14
 949              		.cfi_restore 3
 950              		.cfi_def_cfa_offset 0
 155:src/kbdutil.c **** }
 951              		.loc 1 155 0
 952 0012 FFF7FEBF 		b	sys_func1
 953              	.LVL98:
 954              	.L105:
 955 0016 00BF     		.align	2
 956              	.L104:
 957 0018 00000000 		.word	.LANCHOR0
 958              		.cfi_endproc
 959              	.LFE4:
 960              		.size	GetKbdTimeout, .-GetKbdTimeout
 961              		.section	.text.WaitKey,"ax",%progbits
 962              		.align	1
 963              		.global	WaitKey
 964              		.thumb
 965              		.thumb_func
 966              		.type	WaitKey, %function
 967              	WaitKey:
ARM GAS  C:\Users\AHMED~1.ELE\AppData\Local\Temp\cciu15sF.s 			page 27


 968              	.LFB5:
 166:src/kbdutil.c ****   DWORD keyin, i;
 969              		.loc 1 166 0
 970              		.cfi_startproc
 971              		@ args = 0, pretend = 0, frame = 0
 972              		@ frame_needed = 0, uses_anonymous_args = 0
 973              	.LVL99:
 974 0000 37B5     		push	{r0, r1, r2, r4, r5, lr}
 975              		.cfi_def_cfa_offset 24
 976              		.cfi_offset 4, -12
 977              		.cfi_offset 5, -8
 978              		.cfi_offset 14, -4
 169:src/kbdutil.c ****   keyin = i = 0;
 979              		.loc 1 169 0
 980 0002 4500     		lsls	r5, r0, #1
 981              	.LVL100:
 982 0004 0024     		movs	r4, #0
 983              	.LVL101:
 984              	.L108:
 172:src/kbdutil.c ****     keyin = GetCharMW();
 985              		.loc 1 172 0 discriminator 2
 986 0006 4FF4CE70 		mov	r0, #412
 987 000a FFF7FEFF 		bl	sys_func0
 988              	.LVL102:
 173:src/kbdutil.c ****   } while ((i++ < aTimeout) && (keyin == 0));
 989              		.loc 1 173 0 discriminator 2
 990 000e 0022     		movs	r2, #0
 991 0010 0F20     		movs	r0, #15
 992 0012 0092     		str	r2, [sp]
 993 0014 1621     		movs	r1, #22
 994 0016 1346     		mov	r3, r2
 995 0018 FFF7FEFF 		bl	lib_app_call
 996              	.LVL103:
 174:src/kbdutil.c ****   return(keyin);
 997              		.loc 1 174 0 discriminator 2
 998 001c AC42     		cmp	r4, r5
 999 001e 02D0     		beq	.L112
 1000 0020 0134     		adds	r4, r4, #1
 1001              	.LVL104:
 174:src/kbdutil.c ****   return(keyin);
 1002              		.loc 1 174 0 is_stmt 0 discriminator 1
 1003 0022 0028     		cmp	r0, #0
 1004 0024 EFD0     		beq	.L108
 1005              	.LVL105:
 1006              	.L112:
 176:src/kbdutil.c **** //*****************************************************************************
 1007              		.loc 1 176 0 is_stmt 1
 1008 0026 03B0     		add	sp, sp, #12
 1009              		.cfi_def_cfa_offset 12
 1010              		@ sp needed
 1011 0028 30BD     		pop	{r4, r5, pc}
 1012              		.cfi_endproc
 1013              	.LFE5:
 1014              		.size	WaitKey, .-WaitKey
 1015              		.section	.text.WaitKeyCheck,"ax",%progbits
 1016              		.align	1
 1017              		.global	WaitKeyCheck
ARM GAS  C:\Users\AHMED~1.ELE\AppData\Local\Temp\cciu15sF.s 			page 28


 1018              		.thumb
 1019              		.thumb_func
 1020              		.type	WaitKeyCheck, %function
 1021              	WaitKeyCheck:
 1022              	.LFB6:
 187:src/kbdutil.c ****   DWORD keyin;
 1023              		.loc 1 187 0
 1024              		.cfi_startproc
 1025              		@ args = 0, pretend = 0, frame = 0
 1026              		@ frame_needed = 0, uses_anonymous_args = 0
 1027              	.LVL106:
 1028 0000 13B5     		push	{r0, r1, r4, lr}
 1029              		.cfi_def_cfa_offset 16
 1030              		.cfi_offset 4, -8
 1031              		.cfi_offset 14, -4
 187:src/kbdutil.c ****   DWORD keyin;
 1032              		.loc 1 187 0
 1033 0002 0C46     		mov	r4, r1
 192:src/kbdutil.c ****   while ((keyin=GetKeyin())==0) {
 1034              		.loc 1 192 0
 1035 0004 FFF7FEFF 		bl	SetKbdTimeout
 1036              	.LVL107:
 1037              	.L114:
 193:src/kbdutil.c **** 
 1038              		.loc 1 193 0
 1039 0008 FFF7FEFF 		bl	GetKeyin
 1040              	.LVL108:
 1041 000c 0246     		mov	r2, r0
 1042 000e 90BB     		cbnz	r0, .L118
 195:src/kbdutil.c ****       if (ICCInsertedMW()&0x01) {
 1043              		.loc 1 195 0
 1044 0010 E105     		lsls	r1, r4, #23
 1045 0012 02D4     		bmi	.L115
 1046              	.LVL109:
 1047              	.L119:
 202:src/kbdutil.c ****       if ((ICCInsertedMW()&0x01)==0x00) {
 1048              		.loc 1 202 0
 1049 0014 A305     		lsls	r3, r4, #22
 1050 0016 0BD5     		bpl	.L117
 1051 0018 0DE0     		b	.L130
 1052              	.LVL110:
 1053              	.L115:
 196:src/kbdutil.c ****         keyin = WAIT_ICC_INSERT;
 1054              		.loc 1 196 0
 1055 001a 0092     		str	r2, [sp]
 1056 001c 0F20     		movs	r0, #15
 1057              	.LVL111:
 1058 001e 1C21     		movs	r1, #28
 1059 0020 1346     		mov	r3, r2
 1060 0022 FFF7FEFF 		bl	lib_app_call
 1061              	.LVL112:
 1062 0026 C007     		lsls	r0, r0, #31
 1063 0028 F4D5     		bpl	.L119
 197:src/kbdutil.c ****         break;
 1064              		.loc 1 197 0
 1065 002a 4FF48072 		mov	r2, #256
 1066 002e 22E0     		b	.L118
ARM GAS  C:\Users\AHMED~1.ELE\AppData\Local\Temp\cciu15sF.s 			page 29


 1067              	.L117:
 209:src/kbdutil.c ****       if (IOCtlMW(gDevHandle[APM_SDEV_MSR], IO_MSR_RXLEN, NULL) > 0) {
 1068              		.loc 1 209 0
 1069 0030 6105     		lsls	r1, r4, #21
 1070 0032 0CD4     		bmi	.L120
 1071 0034 18E0     		b	.L122
 1072              	.L130:
 203:src/kbdutil.c ****         keyin = WAIT_ICC_REMOVE;
 1073              		.loc 1 203 0
 1074 0036 0022     		movs	r2, #0
 1075 0038 1346     		mov	r3, r2
 1076 003a 0092     		str	r2, [sp]
 1077 003c 0F20     		movs	r0, #15
 1078 003e 1C21     		movs	r1, #28
 1079 0040 FFF7FEFF 		bl	lib_app_call
 1080              	.LVL113:
 1081 0044 C207     		lsls	r2, r0, #31
 1082 0046 F3D4     		bmi	.L117
 204:src/kbdutil.c ****         break;
 1083              		.loc 1 204 0
 1084 0048 4FF40072 		mov	r2, #512
 1085 004c 13E0     		b	.L118
 1086              	.L120:
 209:src/kbdutil.c ****       if (IOCtlMW(gDevHandle[APM_SDEV_MSR], IO_MSR_RXLEN, NULL) > 0) {
 1087              		.loc 1 209 0 discriminator 1
 1088 004e 0B4B     		ldr	r3, .L131
 1089 0050 1A68     		ldr	r2, [r3]
 1090 0052 531C     		adds	r3, r2, #1
 1091 0054 08D0     		beq	.L122
 210:src/kbdutil.c ****         keyin = WAIT_MSR_READY;
 1092              		.loc 1 210 0
 1093 0056 0023     		movs	r3, #0
 1094 0058 0F20     		movs	r0, #15
 1095 005a 0093     		str	r3, [sp]
 1096 005c 0721     		movs	r1, #7
 1097 005e 0323     		movs	r3, #3
 1098 0060 FFF7FEFF 		bl	lib_app_call
 1099              	.LVL114:
 1100 0064 0028     		cmp	r0, #0
 1101 0066 04DC     		bgt	.L126
 1102              	.L122:
 216:src/kbdutil.c ****   }
 1103              		.loc 1 216 0
 1104 0068 4FF4CE70 		mov	r0, #412
 1105 006c FFF7FEFF 		bl	sys_func0
 1106              	.LVL115:
 1107 0070 CAE7     		b	.L114
 1108              	.L126:
 211:src/kbdutil.c ****         break;
 1109              		.loc 1 211 0
 1110 0072 4FF48062 		mov	r2, #1024
 1111              	.L118:
 1112              	.LVL116:
 219:src/kbdutil.c **** //*****************************************************************************
 1113              		.loc 1 219 0
 1114 0076 1046     		mov	r0, r2
 1115 0078 02B0     		add	sp, sp, #8
ARM GAS  C:\Users\AHMED~1.ELE\AppData\Local\Temp\cciu15sF.s 			page 30


 1116              		.cfi_def_cfa_offset 8
 1117              		@ sp needed
 1118 007a 10BD     		pop	{r4, pc}
 1119              	.LVL117:
 1120              	.L132:
 1121              		.align	2
 1122              	.L131:
 1123 007c 00000000 		.word	gDevHandle
 1124              		.cfi_endproc
 1125              	.LFE6:
 1126              		.size	WaitKeyCheck, .-WaitKeyCheck
 1127              		.section	.text.YesNo,"ax",%progbits
 1128              		.align	1
 1129              		.global	YesNo
 1130              		.thumb
 1131              		.thumb_func
 1132              		.type	YesNo, %function
 1133              	YesNo:
 1134              	.LFB7:
 231:src/kbdutil.c ****   while (1) {
 1135              		.loc 1 231 0
 1136              		.cfi_startproc
 1137              		@ args = 0, pretend = 0, frame = 0
 1138              		@ frame_needed = 0, uses_anonymous_args = 0
 1139 0000 08B5     		push	{r3, lr}
 1140              		.cfi_def_cfa_offset 8
 1141              		.cfi_offset 3, -8
 1142              		.cfi_offset 14, -4
 1143              	.L134:
 233:src/kbdutil.c ****       case MWKEY_ENTER:
 1144              		.loc 1 233 0
 1145 0002 084B     		ldr	r3, .L139
 1146 0004 D3F89400 		ldr	r0, [r3, #148]
 1147 0008 FFF7FEFF 		bl	WaitKey
 1148              	.LVL118:
 1149 000c 1128     		cmp	r0, #17
 1150 000e 07D0     		beq	.L135
 1151 0010 1228     		cmp	r0, #18
 1152 0012 03D0     		beq	.L136
 1153 0014 1028     		cmp	r0, #16
 1154 0016 F4D1     		bne	.L134
 235:src/kbdutil.c ****       case MWKEY_CLR:
 1155              		.loc 1 235 0
 1156 0018 0220     		movs	r0, #2
 242:src/kbdutil.c **** //*****************************************************************************
 1157              		.loc 1 242 0
 1158 001a 08BD     		pop	{r3, pc}
 1159              	.L136:
 237:src/kbdutil.c ****       case MWKEY_CANCL:
 1160              		.loc 1 237 0
 1161 001c 0120     		movs	r0, #1
 1162 001e 08BD     		pop	{r3, pc}
 1163              	.L135:
 239:src/kbdutil.c ****     }
 1164              		.loc 1 239 0
 1165 0020 0020     		movs	r0, #0
 1166 0022 08BD     		pop	{r3, pc}
ARM GAS  C:\Users\AHMED~1.ELE\AppData\Local\Temp\cciu15sF.s 			page 31


 1167              	.L140:
 1168              		.align	2
 1169              	.L139:
 1170 0024 00000000 		.word	.LANCHOR0
 1171              		.cfi_endproc
 1172              	.LFE7:
 1173              		.size	YesNo, .-YesNo
 1174              		.section	.text.GetKbd,"ax",%progbits
 1175              		.align	1
 1176              		.global	GetKbd
 1177              		.thumb
 1178              		.thumb_func
 1179              		.type	GetKbd, %function
 1180              	GetKbd:
 1181              	.LFB11:
 385:src/kbdutil.c **** //*****************************************************************************
 386:src/kbdutil.c **** //  Function        : ConvertAlpha
 387:src/kbdutil.c **** //  Description     : Convert the input char to alpha.
 388:src/kbdutil.c **** //  Input           : N/A
 389:src/kbdutil.c **** //  Return          : N/A
 390:src/kbdutil.c **** //  Note            : N/A
 391:src/kbdutil.c **** //  Globals Changed : gKbdGDS;
 392:src/kbdutil.c **** //*****************************************************************************
 393:src/kbdutil.c **** static void ConvertAlpha(void)
 394:src/kbdutil.c **** {
 395:src/kbdutil.c ****   BYTE i, j;
 396:src/kbdutil.c ****   static const BYTE alpha_tbl[10][6]
 397:src/kbdutil.c ****   = {{'0',' ','+','-',')','~'},
 398:src/kbdutil.c ****     {'1','Q','Z','_','!','`'},
 399:src/kbdutil.c ****     {'2','A','B','C','@','\x27'},
 400:src/kbdutil.c ****     {'3','D','E','F','#',':'},
 401:src/kbdutil.c ****     {'4','G','H','I','$',';'},
 402:src/kbdutil.c ****     {'5','J','K','L','%','?'},
 403:src/kbdutil.c ****     {'6','M','N','O','^',','},
 404:src/kbdutil.c ****     {'7','P','R','S','&','.'},
 405:src/kbdutil.c ****     {'8','T','U','V','*','['},
 406:src/kbdutil.c ****     {'9','W','X','Y','(',']'}
 407:src/kbdutil.c ****   };
 408:src/kbdutil.c **** 
 409:src/kbdutil.c ****   if (gKbdGDS.bInputLen == 0) {
 410:src/kbdutil.c ****     LongBeep();
 411:src/kbdutil.c ****     return;
 412:src/kbdutil.c ****   }
 413:src/kbdutil.c **** 
 414:src/kbdutil.c ****   for (i = 0; i != 10; i++)
 415:src/kbdutil.c ****   {
 416:src/kbdutil.c ****     for (j = 0; j != 6 ; j++)
 417:src/kbdutil.c ****     {
 418:src/kbdutil.c ****       if (toupper(gKbdGDS.sbInputBuf[gKbdGDS.bInputLen-1]) == alpha_tbl[i][j]) {
 419:src/kbdutil.c ****         j = alpha_tbl[i][(j + 1) % 6];
 420:src/kbdutil.c ****         goto FOUND;
 421:src/kbdutil.c ****       }
 422:src/kbdutil.c ****     }
 423:src/kbdutil.c ****   }
 424:src/kbdutil.c **** FOUND:
 425:src/kbdutil.c ****   if (gKbdGDS.dEntryMode == HEX_INPUT)
 426:src/kbdutil.c ****     if ((j > 'F') || (j < '0') || ((j > '9') && (j < 'A')))
ARM GAS  C:\Users\AHMED~1.ELE\AppData\Local\Temp\cciu15sF.s 			page 32


 427:src/kbdutil.c ****       j = alpha_tbl[i][0];
 428:src/kbdutil.c ****   gKbdGDS.sbInputBuf[gKbdGDS.bInputLen-1] = j;
 429:src/kbdutil.c **** }
 430:src/kbdutil.c **** //*****************************************************************************
 431:src/kbdutil.c **** //  Function        : GetKbd
 432:src/kbdutil.c **** //  Description     : Get Keyboard input base on parameters.
 433:src/kbdutil.c **** //  Input           : aEntryMode;       // Entry Mode + Line Number
 434:src/kbdutil.c **** //                    aLen;             // Max Len
 435:src/kbdutil.c **** //                    aOutBuf;          // Output Buffer
 436:src/kbdutil.c **** //  Return          : N/A
 437:src/kbdutil.c **** //  Note            : N/A
 438:src/kbdutil.c **** //  Globals Changed : N/A
 439:src/kbdutil.c **** //*****************************************************************************
 440:src/kbdutil.c **** BOOLEAN GetKbd(DWORD aEntryMode, DWORD aLen, BYTE *aOutBuf)
 441:src/kbdutil.c **** {
 1182              		.loc 1 441 0
 1183              		.cfi_startproc
 1184              		@ args = 0, pretend = 0, frame = 16
 1185              		@ frame_needed = 0, uses_anonymous_args = 0
 1186              	.LVL119:
 1187 0000 2DE9F04F 		push	{r4, r5, r6, r7, r8, r9, r10, fp, lr}
 1188              		.cfi_def_cfa_offset 36
 1189              		.cfi_offset 4, -36
 1190              		.cfi_offset 5, -32
 1191              		.cfi_offset 6, -28
 1192              		.cfi_offset 7, -24
 1193              		.cfi_offset 8, -20
 1194              		.cfi_offset 9, -16
 1195              		.cfi_offset 10, -12
 1196              		.cfi_offset 11, -8
 1197              		.cfi_offset 14, -4
 1198 0004 0746     		mov	r7, r0
 1199 0006 87B0     		sub	sp, sp, #28
 1200              		.cfi_def_cfa_offset 64
 442:src/kbdutil.c ****   BOOLEAN keyed;
 443:src/kbdutil.c ****   DWORD keyin, last_key = 0;
 444:src/kbdutil.c ****   DWORD last_tick, min_len, max_len;
 445:src/kbdutil.c ****   BYTE  lead0len;
 446:src/kbdutil.c **** 
 447:src/kbdutil.c ****   CheckPointerAddr(aOutBuf);
 1201              		.loc 1 447 0
 1202 0008 1046     		mov	r0, r2
 1203              	.LVL120:
 441:src/kbdutil.c ****   BOOLEAN keyed;
 1204              		.loc 1 441 0
 1205 000a 0E46     		mov	r6, r1
 1206 000c 1546     		mov	r5, r2
 1207              		.loc 1 447 0
 1208 000e FFF7FEFF 		bl	CheckPointerAddr
 1209              	.LVL121:
 448:src/kbdutil.c ****   keyed = FALSE;
 449:src/kbdutil.c ****   min_len             = (aLen >> 8);
 450:src/kbdutil.c ****   max_len             = aLen & 0xFF;
 451:src/kbdutil.c ****   gKbdGDS.bRightJust  = ((aEntryMode&RIGHT_JUST)==RIGHT_JUST)?TRUE:FALSE;
 1210              		.loc 1 451 0
 1211 0012 FBB2     		uxtb	r3, r7
 1212 0014 A3F1FF04 		sub	r4, r3, #255
ARM GAS  C:\Users\AHMED~1.ELE\AppData\Local\Temp\cciu15sF.s 			page 33


 1213 0018 6342     		rsbs	r3, r4, #0
 1214 001a 6341     		adcs	r3, r3, r4
 1215 001c C04C     		ldr	r4, .L272
 449:src/kbdutil.c ****   max_len             = aLen & 0xFF;
 1216              		.loc 1 449 0
 1217 001e 4FEA162B 		lsr	fp, r6, #8
 1218              	.LVL122:
 1219              		.loc 1 451 0
 1220 0022 84F89C30 		strb	r3, [r4, #156]
 450:src/kbdutil.c ****   gKbdGDS.bRightJust  = ((aEntryMode&RIGHT_JUST)==RIGHT_JUST)?TRUE:FALSE;
 1221              		.loc 1 450 0
 1222 0026 F6B2     		uxtb	r6, r6
 1223              	.LVL123:
 452:src/kbdutil.c ****   gKbdGDS.wLineNo     = (WORD)(gKbdGDS.bRightJust?(aEntryMode&0xF00):(aEntryMode&0xFFF));
 1224              		.loc 1 452 0
 1225 0028 13B1     		cbz	r3, .L142
 1226              		.loc 1 452 0 is_stmt 0 discriminator 1
 1227 002a 07F47063 		and	r3, r7, #3840
 1228 002e 02E0     		b	.L143
 1229              	.L142:
 1230              		.loc 1 452 0 discriminator 2
 1231 0030 C7F30B03 		ubfx	r3, r7, #0, #12
 1232 0034 9BB2     		uxth	r3, r3
 1233              	.L143:
 1234              		.loc 1 452 0 discriminator 4
 1235 0036 A383     		strh	r3, [r4, #28]	@ movhi
 453:src/kbdutil.c ****   gKbdGDS.wFont       = (WORD)aEntryMode & 0xF000;
 1236              		.loc 1 453 0 is_stmt 1 discriminator 4
 1237 0038 27F47F63 		bic	r3, r7, #4080
 1238 003c 23F00F03 		bic	r3, r3, #15
 452:src/kbdutil.c ****   gKbdGDS.wLineNo     = (WORD)(gKbdGDS.bRightJust?(aEntryMode&0xF00):(aEntryMode&0xFFF));
 1239              		.loc 1 452 0 discriminator 4
 1240 0040 DFF8DC92 		ldr	r9, .L272
 1241              		.loc 1 453 0 discriminator 4
 1242 0044 2381     		strh	r3, [r4, #8]	@ movhi
 454:src/kbdutil.c ****   gKbdGDS.dEntryMode  = aEntryMode & 0x00F0000;
 455:src/kbdutil.c ****   gKbdGDS.dOption     = aEntryMode & 0x0F00000;
 1243              		.loc 1 455 0 discriminator 4
 1244 0046 07F47003 		and	r3, r7, #15728640
 454:src/kbdutil.c ****   gKbdGDS.dEntryMode  = aEntryMode & 0x00F0000;
 1245              		.loc 1 454 0 discriminator 4
 1246 004a 07F4702A 		and	r10, r7, #983040
 1247              		.loc 1 455 0 discriminator 4
 1248 004e C4F89030 		str	r3, [r4, #144]
 456:src/kbdutil.c ****   gKbdGDS.bDecimalPos = (BYTE)(aEntryMode >> 24);
 1249              		.loc 1 456 0 discriminator 4
 1250 0052 4FEA1768 		lsr	r8, r7, #24
 457:src/kbdutil.c ****   gKbdGDS.bInputLen   = 0;
 1251              		.loc 1 457 0 discriminator 4
 1252 0056 0023     		movs	r3, #0
 458:src/kbdutil.c ****   gKbdGDS.bDispLen    = 0;
 459:src/kbdutil.c ****   memset(gKbdGDS.sbInputBuf, ' ', sizeof(gKbdGDS.sbInputBuf));
 1253              		.loc 1 459 0 discriminator 4
 1254 0058 2021     		movs	r1, #32
 1255 005a 3522     		movs	r2, #53
 1256 005c 09F11F00 		add	r0, r9, #31
 457:src/kbdutil.c ****   gKbdGDS.bInputLen   = 0;
ARM GAS  C:\Users\AHMED~1.ELE\AppData\Local\Temp\cciu15sF.s 			page 34


 1257              		.loc 1 457 0 discriminator 4
 1258 0060 A377     		strb	r3, [r4, #30]
 458:src/kbdutil.c ****   gKbdGDS.bDispLen    = 0;
 1259              		.loc 1 458 0 discriminator 4
 1260 0062 84F85430 		strb	r3, [r4, #84]
 454:src/kbdutil.c ****   gKbdGDS.dOption     = aEntryMode & 0x0F00000;
 1261              		.loc 1 454 0 discriminator 4
 1262 0066 C4F88CA0 		str	r10, [r4, #140]
 456:src/kbdutil.c ****   gKbdGDS.bInputLen   = 0;
 1263              		.loc 1 456 0 discriminator 4
 1264 006a 84F80A80 		strb	r8, [r4, #10]
 1265              		.loc 1 459 0 discriminator 4
 1266 006e FFF7FEFF 		bl	memset
 1267              	.LVL124:
 460:src/kbdutil.c ****   memset(gKbdGDS.sbPrefix, ' ', sizeof(gKbdGDS.sbPrefix));
 1268              		.loc 1 460 0 discriminator 4
 1269 0072 09F11700 		add	r0, r9, #23
 1270 0076 2021     		movs	r1, #32
 1271 0078 0422     		movs	r2, #4
 1272 007a FFF7FEFF 		bl	memset
 1273              	.LVL125:
 461:src/kbdutil.c **** 
 462:src/kbdutil.c ****   // Adjust the Amount input len.
 463:src/kbdutil.c ****   if (gKbdGDS.dEntryMode == AMOUNT_INPUT) {
 1274              		.loc 1 463 0 discriminator 4
 1275 007e BAF5803F 		cmp	r10, #65536
 1276 0082 08D1     		bne	.L144
 464:src/kbdutil.c ****     gKbdGDS.bRightJust  = TRUE;
 1277              		.loc 1 464 0
 1278 0084 0123     		movs	r3, #1
 1279 0086 89F89C30 		strb	r3, [r9, #156]
 465:src/kbdutil.c ****     if ((max_len - gKbdGDS.bDecimalPos) > 12)
 1280              		.loc 1 465 0
 1281 008a C8EB0603 		rsb	r3, r8, r6
 1282 008e 0C2B     		cmp	r3, #12
 466:src/kbdutil.c ****       /* host is always expecting 2 decimal digits */
 467:src/kbdutil.c ****       max_len = 12 - gKbdGDS.bDecimalPos;
 1283              		.loc 1 467 0
 1284 0090 88BF     		it	hi
 1285 0092 C8F10C06 		rsbhi	r6, r8, #12
 1286              	.LVL126:
 1287              	.L144:
 468:src/kbdutil.c ****   }
 469:src/kbdutil.c **** 
 470:src/kbdutil.c ****   //11-06-14 JC ++
 471:src/kbdutil.c ****   // Get PreFix first
 472:src/kbdutil.c ****   if (gKbdGDS.dOption & PREFIX_ENB) {
 1288              		.loc 1 472 0
 1289 0096 7802     		lsls	r0, r7, #9
 1290 0098 11D5     		bpl	.L145
 473:src/kbdutil.c ****     memcpy(gKbdGDS.sbPrefix, &aOutBuf[1], PREFIX_SIZE);
 1291              		.loc 1 473 0
 1292 009a 6F1C     		adds	r7, r5, #1
 1293              	.LVL127:
 1294 009c 3946     		mov	r1, r7
 1295 009e 0422     		movs	r2, #4
 1296 00a0 A048     		ldr	r0, .L272+4
ARM GAS  C:\Users\AHMED~1.ELE\AppData\Local\Temp\cciu15sF.s 			page 35


 1297 00a2 FFF7FEFF 		bl	memcpy
 1298              	.LVL128:
 474:src/kbdutil.c ****     aOutBuf[0] -= PREFIX_SIZE;
 1299              		.loc 1 474 0
 1300 00a6 2A78     		ldrb	r2, [r5]	@ zero_extendqisi2
 1301 00a8 2946     		mov	r1, r5
 1302 00aa 043A     		subs	r2, r2, #4
 475:src/kbdutil.c ****     memcpy(&aOutBuf[1], &aOutBuf[5], aOutBuf[0]);
 1303              		.loc 1 475 0
 1304 00ac 3846     		mov	r0, r7
 474:src/kbdutil.c ****     aOutBuf[0] -= PREFIX_SIZE;
 1305              		.loc 1 474 0
 1306 00ae D2B2     		uxtb	r2, r2
 1307 00b0 01F8052B 		strb	r2, [r1], #5
 1308              		.loc 1 475 0
 1309 00b4 FFF7FEFF 		bl	memcpy
 1310              	.LVL129:
 1311 00b8 302E     		cmp	r6, #48
 1312 00ba 28BF     		it	cs
 1313 00bc 3026     		movcs	r6, #48
 1314              	.LVL130:
 1315              	.L145:
 476:src/kbdutil.c ****     if (max_len > MAX_INPUT_PREFIX)
 477:src/kbdutil.c ****       max_len = MAX_INPUT_PREFIX;
 478:src/kbdutil.c ****   }
 479:src/kbdutil.c ****   
 480:src/kbdutil.c ****   // Remove leading zero
 481:src/kbdutil.c ****   if ((gKbdGDS.dEntryMode == AMOUNT_INPUT) || (gKbdGDS.dEntryMode==DECIMAL_INPUT)) {
 1316              		.loc 1 481 0
 1317 00be D4F88C30 		ldr	r3, [r4, #140]
 1318 00c2 B3F5803F 		cmp	r3, #65536
 1319 00c6 02D0     		beq	.L146
 1320              		.loc 1 481 0 is_stmt 0 discriminator 1
 1321 00c8 B3F5002F 		cmp	r3, #524288
 1322 00cc 10D1     		bne	.L147
 1323              	.L146:
 482:src/kbdutil.c ****     lead0len = (BYTE)skpb(&aOutBuf[1], '0', aOutBuf[0]);
 1324              		.loc 1 482 0 is_stmt 1
 1325 00ce 6F1C     		adds	r7, r5, #1
 1326 00d0 2A78     		ldrb	r2, [r5]	@ zero_extendqisi2
 1327 00d2 3846     		mov	r0, r7
 1328 00d4 3021     		movs	r1, #48
 1329 00d6 FFF7FEFF 		bl	skpb
 1330              	.LVL131:
 483:src/kbdutil.c ****     aOutBuf[0] -= lead0len;
 1331              		.loc 1 483 0
 1332 00da 2A78     		ldrb	r2, [r5]	@ zero_extendqisi2
 1333 00dc 121A     		subs	r2, r2, r0
 1334 00de D2B2     		uxtb	r2, r2
 1335 00e0 2A70     		strb	r2, [r5]
 484:src/kbdutil.c ****     if (aOutBuf[0] > 0)
 1336              		.loc 1 484 0
 1337 00e2 2AB1     		cbz	r2, .L147
 485:src/kbdutil.c ****       memmove(&aOutBuf[1], &aOutBuf[lead0len+1], aOutBuf[0]);
 1338              		.loc 1 485 0
 1339 00e4 C0B2     		uxtb	r0, r0
 1340 00e6 411C     		adds	r1, r0, #1
ARM GAS  C:\Users\AHMED~1.ELE\AppData\Local\Temp\cciu15sF.s 			page 36


 1341 00e8 2944     		add	r1, r1, r5
 1342 00ea 3846     		mov	r0, r7
 1343              	.LVL132:
 1344 00ec FFF7FEFF 		bl	memmove
 1345              	.LVL133:
 1346              	.L147:
 486:src/kbdutil.c ****   }
 487:src/kbdutil.c ****   //11-06-14 JC --
 488:src/kbdutil.c **** 
 489:src/kbdutil.c ****   // Check ECHO
 490:src/kbdutil.c ****   if (!(gKbdGDS.dOption&ECHO)) {
 1347              		.loc 1 490 0
 1348 00f0 D4F89030 		ldr	r3, [r4, #144]
 1349 00f4 13F40013 		ands	r3, r3, #2097152
 491:src/kbdutil.c ****     aOutBuf[0] = 0; /* clear aOutBuf if no echo */
 1350              		.loc 1 491 0
 1351 00f8 08BF     		it	eq
 1352 00fa 2B70     		strbeq	r3, [r5]
 492:src/kbdutil.c ****   }
 493:src/kbdutil.c ****   if (aOutBuf[0]!=0) {
 1353              		.loc 1 493 0
 1354 00fc 2F78     		ldrb	r7, [r5]	@ zero_extendqisi2
 1355 00fe 77B1     		cbz	r7, .L150
 494:src/kbdutil.c ****     gKbdGDS.bInputLen = (aOutBuf[0] > MAX_INPUT_LEN) ? MAX_INPUT_LEN: aOutBuf[0];
 1356              		.loc 1 494 0
 1357 0100 342F     		cmp	r7, #52
 1358 0102 3A46     		mov	r2, r7
 1359 0104 28BF     		it	cs
 1360 0106 3422     		movcs	r2, #52
 495:src/kbdutil.c ****     memcpy(gKbdGDS.sbInputBuf, &aOutBuf[1], gKbdGDS.bInputLen);
 1361              		.loc 1 495 0
 1362 0108 691C     		adds	r1, r5, #1
 1363 010a 8748     		ldr	r0, .L272+8
 494:src/kbdutil.c ****     gKbdGDS.bInputLen = (aOutBuf[0] > MAX_INPUT_LEN) ? MAX_INPUT_LEN: aOutBuf[0];
 1364              		.loc 1 494 0
 1365 010c A277     		strb	r2, [r4, #30]
 1366              		.loc 1 495 0
 1367 010e FFF7FEFF 		bl	memcpy
 1368              	.LVL134:
 496:src/kbdutil.c ****     if (gKbdGDS.dEntryMode == AMOUNT_INPUT)
 1369              		.loc 1 496 0
 1370 0112 D4F88C70 		ldr	r7, [r4, #140]
 448:src/kbdutil.c ****   min_len             = (aLen >> 8);
 1371              		.loc 1 448 0
 1372 0116 A7F58031 		sub	r1, r7, #65536
 1373 011a 4F42     		rsbs	r7, r1, #0
 1374 011c 4F41     		adcs	r7, r7, r1
 1375              	.L150:
 1376              	.LVL135:
 497:src/kbdutil.c ****       keyed = TRUE;
 498:src/kbdutil.c ****   }
 499:src/kbdutil.c ****   UpdateDisplay();
 1377              		.loc 1 499 0
 1378 011e FFF7FEFF 		bl	UpdateDisplay
 1379              	.LVL136:
 500:src/kbdutil.c **** 
 501:src/kbdutil.c **** 
ARM GAS  C:\Users\AHMED~1.ELE\AppData\Local\Temp\cciu15sF.s 			page 37


 502:src/kbdutil.c ****   // Init Alpha input timeout
 503:src/kbdutil.c ****   last_tick = FreeRunMW();
 1380              		.loc 1 503 0
 1381 0122 40F29F10 		movw	r0, #415
 1382 0126 FFF7FEFF 		bl	sys_func0
 1383              	.LVL137:
 443:src/kbdutil.c ****   DWORD last_tick, min_len, max_len;
 1384              		.loc 1 443 0
 1385 012a 4FF0000A 		mov	r10, #0
 1386              		.loc 1 503 0
 1387 012e 8046     		mov	r8, r0
 1388              	.LVL138:
 1389              	.L151:
 504:src/kbdutil.c ****   while (1) {
 505:src/kbdutil.c ****     gKbdGDS.dTimeout = (gKbdGDS.dTimeout == 0)?KBD_TIMEOUT:gKbdGDS.dTimeout;
 1390              		.loc 1 505 0
 1391 0130 D4F89400 		ldr	r0, [r4, #148]
 1392 0134 42F22833 		movw	r3, #9000
 1393 0138 0028     		cmp	r0, #0
 1394 013a 08BF     		it	eq
 1395 013c 1846     		moveq	r0, r3
 1396 013e DFF8E091 		ldr	r9, .L272
 1397 0142 C4F89400 		str	r0, [r4, #148]
 506:src/kbdutil.c ****     keyin=WaitKey(gKbdGDS.dTimeout);
 1398              		.loc 1 506 0
 1399 0146 FFF7FEFF 		bl	WaitKey
 1400              	.LVL139:
 507:src/kbdutil.c ****     switch (keyin) {
 1401              		.loc 1 507 0
 1402 014a 3928     		cmp	r0, #57
 506:src/kbdutil.c ****     keyin=WaitKey(gKbdGDS.dTimeout);
 1403              		.loc 1 506 0
 1404 014c 0346     		mov	r3, r0
 1405              	.LVL140:
 1406              		.loc 1 507 0
 1407 014e 11D8     		bhi	.L154
 1408              		.loc 1 507 0 is_stmt 0 discriminator 4
 1409 0150 3028     		cmp	r0, #48
 1410 0152 80F08F80 		bcs	.L155
 1411 0156 1128     		cmp	r0, #17
 1412 0158 00F05081 		beq	.L206
 1413 015c 06D8     		bhi	.L157
 1414 015e 0028     		cmp	r0, #0
 1415 0160 00F04C81 		beq	.L206
 1416 0164 1028     		cmp	r0, #16
 1417 0166 00F0E580 		beq	.L158
 1418 016a 44E1     		b	.L153
 1419              	.L157:
 1420 016c 1228     		cmp	r0, #18
 1421 016e 16D0     		beq	.L159
 1422 0170 2A28     		cmp	r0, #42
 1423 0172 7DE0     		b	.L259
 1424              	.L154:
 1425 0174 4D28     		cmp	r0, #77
 1426 0176 00F0DD80 		beq	.L158
 1427 017a 04D8     		bhi	.L160
 1428 017c 3A28     		cmp	r0, #58
ARM GAS  C:\Users\AHMED~1.ELE\AppData\Local\Temp\cciu15sF.s 			page 38


 1429 017e 5BD0     		beq	.L161
 1430 0180 4328     		cmp	r0, #67
 1431 0182 2DD0     		beq	.L162
 1432 0184 37E1     		b	.L153
 1433              	.L160:
 1434 0186 A0F15902 		sub	r2, r0, #89
 1435 018a 012A     		cmp	r2, #1
 1436 018c 00F23381 		bhi	.L153
 508:src/kbdutil.c ****       case MWKEY_CANCL:
 509:src/kbdutil.c ****         return 0;
 510:src/kbdutil.c ****       case MWKEY_CLR:
 511:src/kbdutil.c ****         if (gKbdGDS.bInputLen && (gKbdGDS.dEntryMode==AMOUNT_INPUT)) {
 512:src/kbdutil.c ****           DispClrLineMW(gKbdGDS.wLineNo);
 513:src/kbdutil.c ****           gKbdGDS.bInputLen = 0;
 514:src/kbdutil.c ****           aOutBuf[0] = 0;
 515:src/kbdutil.c ****         }
 516:src/kbdutil.c ****         else {
 517:src/kbdutil.c ****           keyed = TRUE;
 518:src/kbdutil.c ****           if (gKbdGDS.bInputLen)
 519:src/kbdutil.c ****             gKbdGDS.bInputLen -= 1;
 520:src/kbdutil.c ****         }
 521:src/kbdutil.c ****         UpdateDisplay();
 522:src/kbdutil.c ****         continue;
 523:src/kbdutil.c ****       case KEY_ALPHA: /* alpha key */
 524:src/kbdutil.c ****         if ((gKbdGDS.dEntryMode == ALPHA_INPUT) || (gKbdGDS.dEntryMode == HEX_INPUT)) {
 525:src/kbdutil.c ****           ConvertAlpha();
 526:src/kbdutil.c ****           UpdateDisplay();
 527:src/kbdutil.c ****           continue;
 528:src/kbdutil.c ****         }
 529:src/kbdutil.c ****         else
 530:src/kbdutil.c ****           if ((gKbdGDS.dEntryMode == ALPHA_INPUT_NEW) || (gKbdGDS.dEntryMode == HEX_INPUT)) {
 531:src/kbdutil.c ****             if (isupper(gKbdGDS.sbInputBuf[gKbdGDS.bInputLen]))
 532:src/kbdutil.c ****               gKbdGDS.sbInputBuf[gKbdGDS.bInputLen]=tolower(gKbdGDS.sbInputBuf[gKbdGDS.bInputLen]);
 533:src/kbdutil.c ****             else
 534:src/kbdutil.c ****               gKbdGDS.sbInputBuf[gKbdGDS.bInputLen]=toupper(gKbdGDS.sbInputBuf[gKbdGDS.bInputLen]);
 535:src/kbdutil.c ****             UpdateDisplay();
 536:src/kbdutil.c ****             continue;
 537:src/kbdutil.c ****           }
 538:src/kbdutil.c ****         break;
 539:src/kbdutil.c ****       case MWKEY_00:
 540:src/kbdutil.c ****         if (gKbdGDS.bInputLen || (gKbdGDS.dEntryMode != AMOUNT_INPUT)) {
 541:src/kbdutil.c ****           if (!keyed) {
 542:src/kbdutil.c ****             gKbdGDS.bInputLen = 0; /* first keyin, clear echoed entry */
 543:src/kbdutil.c ****             keyed = TRUE;
 544:src/kbdutil.c ****           }
 545:src/kbdutil.c ****           if (gKbdGDS.bInputLen < max_len-1) {
 546:src/kbdutil.c ****             memcpy(&gKbdGDS.sbInputBuf[gKbdGDS.bInputLen], "00", 2);
 547:src/kbdutil.c ****             gKbdGDS.bInputLen += 2;
 548:src/kbdutil.c ****             UpdateDisplay();
 549:src/kbdutil.c ****           }
 550:src/kbdutil.c ****           continue;
 551:src/kbdutil.c ****         }
 552:src/kbdutil.c ****         break;
 553:src/kbdutil.c ****       case MWKEY_ASTERISK:
 554:src/kbdutil.c ****       case MWKEY_SHARP:
 555:src/kbdutil.c ****         if ((gKbdGDS.dEntryMode != ALPHA_INPUT) && (gKbdGDS.dEntryMode != ALPHA_INPUT_NEW))
 1437              		.loc 1 555 0 is_stmt 1
ARM GAS  C:\Users\AHMED~1.ELE\AppData\Local\Temp\cciu15sF.s 			page 39


 1438 0190 D9F88C20 		ldr	r2, [r9, #140]
 1439 0194 22F48022 		bic	r2, r2, #262144
 1440 0198 B2F5003F 		cmp	r2, #131072
 1441 019c 68E0     		b	.L259
 1442              	.L159:
 511:src/kbdutil.c ****           DispClrLineMW(gKbdGDS.wLineNo);
 1443              		.loc 1 511 0
 1444 019e 99F81E30 		ldrb	r3, [r9, #30]	@ zero_extendqisi2
 1445 01a2 DBB1     		cbz	r3, .L207
 511:src/kbdutil.c ****           DispClrLineMW(gKbdGDS.wLineNo);
 1446              		.loc 1 511 0 is_stmt 0 discriminator 1
 1447 01a4 D9F88C20 		ldr	r2, [r9, #140]
 1448 01a8 B2F5803F 		cmp	r2, #65536
 1449 01ac 13D1     		bne	.L165
 512:src/kbdutil.c ****           gKbdGDS.bInputLen = 0;
 1450              		.loc 1 512 0 is_stmt 1
 1451 01ae 4FF0000C 		mov	ip, #0
 1452 01b2 B9F81C20 		ldrh	r2, [r9, #28]
 1453 01b6 6346     		mov	r3, ip
 1454 01b8 CDF800C0 		str	ip, [sp]
 1455 01bc 0F20     		movs	r0, #15
 1456              	.LVL141:
 1457 01be 2221     		movs	r1, #34
 1458 01c0 CDF80CC0 		str	ip, [sp, #12]
 1459 01c4 FFF7FEFF 		bl	lib_app_call
 1460              	.LVL142:
 513:src/kbdutil.c ****           aOutBuf[0] = 0;
 1461              		.loc 1 513 0
 1462 01c8 DDF80CC0 		ldr	ip, [sp, #12]
 1463 01cc 89F81EC0 		strb	ip, [r9, #30]
 514:src/kbdutil.c ****         }
 1464              		.loc 1 514 0
 1465 01d0 85F800C0 		strb	ip, [r5]
 1466 01d4 2DE0     		b	.L179
 1467              	.LVL143:
 1468              	.L165:
 519:src/kbdutil.c ****         }
 1469              		.loc 1 519 0
 1470 01d6 013B     		subs	r3, r3, #1
 1471 01d8 89F81E30 		strb	r3, [r9, #30]
 1472              	.LVL144:
 1473              	.L207:
 517:src/kbdutil.c ****           if (gKbdGDS.bInputLen)
 1474              		.loc 1 517 0
 1475 01dc 0127     		movs	r7, #1
 1476              	.LVL145:
 1477 01de 28E0     		b	.L179
 1478              	.L162:
 524:src/kbdutil.c ****           ConvertAlpha();
 1479              		.loc 1 524 0
 1480 01e0 D9F88C20 		ldr	r2, [r9, #140]
 1481 01e4 B2F5003F 		cmp	r2, #131072
 1482 01e8 02D0     		beq	.L167
 524:src/kbdutil.c ****           ConvertAlpha();
 1483              		.loc 1 524 0 is_stmt 0 discriminator 1
 1484 01ea B2F5802F 		cmp	r2, #262144
 1485 01ee 06D1     		bne	.L168
ARM GAS  C:\Users\AHMED~1.ELE\AppData\Local\Temp\cciu15sF.s 			page 40


 1486              	.L167:
 1487              	.LBB24:
 1488              	.LBB25:
 409:src/kbdutil.c ****     LongBeep();
 1489              		.loc 1 409 0 is_stmt 1
 1490 01f0 A37F     		ldrb	r3, [r4, #30]	@ zero_extendqisi2
 1491 01f2 002B     		cmp	r3, #0
 1492 01f4 40F00681 		bne	.L169
 410:src/kbdutil.c ****     return;
 1493              		.loc 1 410 0
 1494 01f8 FFF7FEFF 		bl	LongBeep
 1495              	.LVL146:
 1496 01fc 19E0     		b	.L179
 1497              	.LVL147:
 1498              	.L168:
 1499              	.LBE25:
 1500              	.LBE24:
 530:src/kbdutil.c ****             if (isupper(gKbdGDS.sbInputBuf[gKbdGDS.bInputLen]))
 1501              		.loc 1 530 0
 1502 01fe B2F5C02F 		cmp	r2, #393216
 1503 0202 40F0F880 		bne	.L153
 531:src/kbdutil.c ****               gKbdGDS.sbInputBuf[gKbdGDS.bInputLen]=tolower(gKbdGDS.sbInputBuf[gKbdGDS.bInputLen]);
 1504              		.loc 1 531 0
 1505 0206 99F81E20 		ldrb	r2, [r9, #30]	@ zero_extendqisi2
 1506 020a 4849     		ldr	r1, .L272+12
 1507 020c 9144     		add	r9, r9, r2
 1508 020e 0968     		ldr	r1, [r1]
 1509 0210 99F81F30 		ldrb	r3, [r9, #31]	@ zero_extendqisi2
 1510 0214 1944     		add	r1, r1, r3
 1511 0216 4978     		ldrb	r1, [r1, #1]	@ zero_extendqisi2
 1512 0218 01F00301 		and	r1, r1, #3
 1513 021c 0129     		cmp	r1, #1
 1514 021e 03D1     		bne	.L178
 1515              	.LVL148:
 1516              	.LBB29:
 532:src/kbdutil.c ****             else
 1517              		.loc 1 532 0 discriminator 1
 1518 0220 2033     		adds	r3, r3, #32
 1519              	.LVL149:
 1520              	.LBE29:
 1521 0222 89F81F30 		strb	r3, [r9, #31]
 1522 0226 04E0     		b	.L179
 1523              	.LVL150:
 1524              	.L178:
 1525              	.LBB30:
 534:src/kbdutil.c ****             UpdateDisplay();
 1526              		.loc 1 534 0
 1527 0228 0229     		cmp	r1, #2
 1528 022a 08BF     		it	eq
 1529 022c 203B     		subeq	r3, r3, #32
 1530              	.LVL151:
 1531              	.LBE30:
 1532 022e 2244     		add	r2, r2, r4
 1533 0230 D377     		strb	r3, [r2, #31]
 1534              	.LVL152:
 1535              	.L179:
 535:src/kbdutil.c ****             continue;
ARM GAS  C:\Users\AHMED~1.ELE\AppData\Local\Temp\cciu15sF.s 			page 41


 1536              		.loc 1 535 0
 1537 0232 FFF7FEFF 		bl	UpdateDisplay
 1538              	.LVL153:
 536:src/kbdutil.c ****           }
 1539              		.loc 1 536 0
 1540 0236 7BE7     		b	.L151
 1541              	.LVL154:
 1542              	.L161:
 540:src/kbdutil.c ****           if (!keyed) {
 1543              		.loc 1 540 0
 1544 0238 99F81E30 		ldrb	r3, [r9, #30]	@ zero_extendqisi2
 1545 023c 2BB9     		cbnz	r3, .L182
 540:src/kbdutil.c ****           if (!keyed) {
 1546              		.loc 1 540 0 is_stmt 0 discriminator 1
 1547 023e D9F88C30 		ldr	r3, [r9, #140]
 1548 0242 B3F5803F 		cmp	r3, #65536
 1549 0246 00F0D680 		beq	.L153
 1550              	.L182:
 541:src/kbdutil.c ****             gKbdGDS.bInputLen = 0; /* first keyin, clear echoed entry */
 1551              		.loc 1 541 0 is_stmt 1
 1552 024a 07B9     		cbnz	r7, .L183
 542:src/kbdutil.c ****             keyed = TRUE;
 1553              		.loc 1 542 0
 1554 024c A777     		strb	r7, [r4, #30]
 1555              	.LVL155:
 1556              	.L183:
 545:src/kbdutil.c ****             memcpy(&gKbdGDS.sbInputBuf[gKbdGDS.bInputLen], "00", 2);
 1557              		.loc 1 545 0
 1558 024e A07F     		ldrb	r0, [r4, #30]	@ zero_extendqisi2
 1559              	.LVL156:
 1560 0250 731E     		subs	r3, r6, #1
 1561 0252 9842     		cmp	r0, r3
 1562 0254 324F     		ldr	r7, .L272
 1563 0256 01D3     		bcc	.L269
 1564              	.L208:
 1565 0258 0127     		movs	r7, #1
 1566 025a 69E7     		b	.L151
 1567              	.L269:
 546:src/kbdutil.c ****             gKbdGDS.bInputLen += 2;
 1568              		.loc 1 546 0
 1569 025c 3844     		add	r0, r0, r7
 1570 025e 1F30     		adds	r0, r0, #31
 1571 0260 3349     		ldr	r1, .L272+16
 1572 0262 0222     		movs	r2, #2
 1573 0264 FFF7FEFF 		bl	memcpy
 1574              	.LVL157:
 547:src/kbdutil.c ****             UpdateDisplay();
 1575              		.loc 1 547 0
 1576 0268 BB7F     		ldrb	r3, [r7, #30]	@ zero_extendqisi2
 1577 026a 0233     		adds	r3, r3, #2
 1578 026c BB77     		strb	r3, [r7, #30]
 1579 026e 53E0     		b	.L193
 1580              	.LVL158:
 1581              	.L259:
 1582              		.loc 1 555 0
 1583 0270 40F0C180 		bne	.L153
 1584              	.L155:
ARM GAS  C:\Users\AHMED~1.ELE\AppData\Local\Temp\cciu15sF.s 			page 42


 556:src/kbdutil.c ****           break;
 557:src/kbdutil.c ****       case '0':
 558:src/kbdutil.c ****       case '1':
 559:src/kbdutil.c ****       case '2':
 560:src/kbdutil.c ****       case '3':
 561:src/kbdutil.c ****       case '4':
 562:src/kbdutil.c ****       case '5':
 563:src/kbdutil.c ****       case '6':
 564:src/kbdutil.c ****       case '7':
 565:src/kbdutil.c ****       case '8':
 566:src/kbdutil.c ****       case '9':
 567:src/kbdutil.c ****       case '*':
 568:src/kbdutil.c ****         if ((gKbdGDS.dEntryMode == BINARY_INPUT) && (keyin > '1'))
 1585              		.loc 1 568 0
 1586 0274 D4F88C20 		ldr	r2, [r4, #140]
 1587 0278 B2F5A02F 		cmp	r2, #327680
 1588 027c 02D1     		bne	.L184
 1589              		.loc 1 568 0 is_stmt 0 discriminator 1
 1590 027e 312B     		cmp	r3, #49
 1591 0280 00F2B980 		bhi	.L153
 1592              	.L184:
 569:src/kbdutil.c ****           break;
 570:src/kbdutil.c ****         else
 571:src/kbdutil.c ****           if (gKbdGDS.bInputLen || (gKbdGDS.dEntryMode != AMOUNT_INPUT) || (keyin != '0')) {
 1593              		.loc 1 571 0 is_stmt 1
 1594 0284 A17F     		ldrb	r1, [r4, #30]	@ zero_extendqisi2
 1595 0286 29B9     		cbnz	r1, .L185
 1596              		.loc 1 571 0 is_stmt 0 discriminator 1
 1597 0288 B2F5803F 		cmp	r2, #65536
 1598 028c 02D1     		bne	.L185
 1599              		.loc 1 571 0 discriminator 2
 1600 028e 302B     		cmp	r3, #48
 1601 0290 3FF44EAF 		beq	.L151
 1602              	.L185:
 572:src/kbdutil.c ****             if (!keyed) {
 1603              		.loc 1 572 0 is_stmt 1
 1604 0294 07B9     		cbnz	r7, .L186
 573:src/kbdutil.c ****               gKbdGDS.bInputLen = 0; /* first keyin, clear echoed entry */
 1605              		.loc 1 573 0
 1606 0296 A777     		strb	r7, [r4, #30]
 1607              	.LVL159:
 1608              	.L186:
 574:src/kbdutil.c ****               keyed = TRUE;
 575:src/kbdutil.c ****             }
 576:src/kbdutil.c ****             //03-10-26 JC ++
 577:src/kbdutil.c ****             if (keyin == MWKEY_ASTERISK)
 1609              		.loc 1 577 0
 1610 0298 592B     		cmp	r3, #89
 1611 029a 03D0     		beq	.L209
 578:src/kbdutil.c ****               keyin = '*';
 579:src/kbdutil.c ****             else if (keyin == MWKEY_SHARP)
 580:src/kbdutil.c ****               keyin = '#';
 1612              		.loc 1 580 0
 1613 029c 5A2B     		cmp	r3, #90
 1614 029e 08BF     		it	eq
 1615 02a0 2323     		moveq	r3, #35
 1616 02a2 00E0     		b	.L187
ARM GAS  C:\Users\AHMED~1.ELE\AppData\Local\Temp\cciu15sF.s 			page 43


 1617              	.L209:
 578:src/kbdutil.c ****               keyin = '*';
 1618              		.loc 1 578 0
 1619 02a4 2A23     		movs	r3, #42
 1620              	.L187:
 1621              	.LVL160:
 581:src/kbdutil.c ****             //03-10-26 JC --
 582:src/kbdutil.c ****             if (gKbdGDS.dEntryMode == ALPHA_INPUT_NEW) {
 1622              		.loc 1 582 0
 1623 02a6 B2F5C02F 		cmp	r2, #393216
 1624 02aa 06D0     		beq	.L268
 583:src/kbdutil.c ****               // Update Display 1st
 584:src/kbdutil.c ****               if (gKbdGDS.bInputLen < max_len)
 585:src/kbdutil.c ****                 gKbdGDS.sbInputBuf[gKbdGDS.bInputLen] = (BYTE) keyin;
 586:src/kbdutil.c ****               UpdateDisplay();
 587:src/kbdutil.c ****               if (((FreeRunMW()-last_tick) > ALPHA_INPUT_TIMEOUT)||(last_key != keyin)) {
 588:src/kbdutil.c ****                 if (gKbdGDS.bInputLen < max_len) {
 589:src/kbdutil.c ****                   gKbdGDS.sbInputBuf[++gKbdGDS.bInputLen] = (BYTE) keyin;
 590:src/kbdutil.c ****                   last_key = keyin;
 591:src/kbdutil.c ****                 }
 592:src/kbdutil.c ****               }
 593:src/kbdutil.c ****               else
 594:src/kbdutil.c ****                 ConvertAlphaNew();
 595:src/kbdutil.c ****               last_tick = FreeRunMW();
 596:src/kbdutil.c ****             }
 597:src/kbdutil.c ****             else
 598:src/kbdutil.c ****               if ((gKbdGDS.dEntryMode == HEX_INPUT_NEW)&&(keyin=='2'||keyin=='3')) {
 1625              		.loc 1 598 0
 1626 02ac B2F5E02F 		cmp	r2, #458752
 1627 02b0 2AD1     		bne	.L194
 1628              		.loc 1 598 0 is_stmt 0 discriminator 1
 1629 02b2 A3F13202 		sub	r2, r3, #50
 1630 02b6 012A     		cmp	r2, #1
 1631 02b8 26D8     		bhi	.L194
 1632              	.L268:
 599:src/kbdutil.c ****                 // Update Display 1st
 600:src/kbdutil.c ****                 if (gKbdGDS.bInputLen < max_len)
 1633              		.loc 1 600 0 is_stmt 1
 1634 02ba A27F     		ldrb	r2, [r4, #30]	@ zero_extendqisi2
 1635 02bc 0393     		str	r3, [sp, #12]
 1636 02be B242     		cmp	r2, r6
 601:src/kbdutil.c ****                   gKbdGDS.sbInputBuf[gKbdGDS.bInputLen] = (BYTE) keyin;
 1637              		.loc 1 601 0
 1638 02c0 3EBF     		ittt	cc
 1639 02c2 1749     		ldrcc	r1, .L272
 1640 02c4 5218     		addcc	r2, r2, r1
 1641 02c6 D377     		strbcc	r3, [r2, #31]
 602:src/kbdutil.c ****                 UpdateDisplay();
 1642              		.loc 1 602 0
 1643 02c8 FFF7FEFF 		bl	UpdateDisplay
 1644              	.LVL161:
 603:src/kbdutil.c ****                 if (((FreeRunMW()-last_tick) > ALPHA_INPUT_TIMEOUT)||(last_key != keyin)) {
 1645              		.loc 1 603 0
 1646 02cc 40F29F10 		movw	r0, #415
 1647 02d0 FFF7FEFF 		bl	sys_func0
 1648              	.LVL162:
 1649 02d4 039B     		ldr	r3, [sp, #12]
ARM GAS  C:\Users\AHMED~1.ELE\AppData\Local\Temp\cciu15sF.s 			page 44


 1650 02d6 C8EB0000 		rsb	r0, r8, r0
 1651 02da C828     		cmp	r0, #200
 1652 02dc 01D8     		bhi	.L196
 1653              		.loc 1 603 0 is_stmt 0 discriminator 1
 1654 02de 9A45     		cmp	r10, r3
 1655 02e0 0AD0     		beq	.L197
 1656              	.L196:
 604:src/kbdutil.c ****                   if (gKbdGDS.bInputLen < max_len) {
 1657              		.loc 1 604 0 is_stmt 1
 1658 02e2 A27F     		ldrb	r2, [r4, #30]	@ zero_extendqisi2
 1659 02e4 0E49     		ldr	r1, .L272
 1660 02e6 B242     		cmp	r2, r6
 1661 02e8 08D2     		bcs	.L198
 605:src/kbdutil.c ****                     gKbdGDS.sbInputBuf[++gKbdGDS.bInputLen] = (BYTE) keyin;
 1662              		.loc 1 605 0
 1663 02ea 0132     		adds	r2, r2, #1
 1664 02ec 9A46     		mov	r10, r3
 1665              	.LVL163:
 1666 02ee D2B2     		uxtb	r2, r2
 1667 02f0 8A77     		strb	r2, [r1, #30]
 1668 02f2 0A44     		add	r2, r2, r1
 1669 02f4 D377     		strb	r3, [r2, #31]
 1670              	.LVL164:
 1671 02f6 01E0     		b	.L198
 1672              	.L197:
 606:src/kbdutil.c ****                     last_key = keyin;
 607:src/kbdutil.c ****                   }
 608:src/kbdutil.c ****                 }
 609:src/kbdutil.c ****                 else
 610:src/kbdutil.c ****                   ConvertAlphaNew();
 1673              		.loc 1 610 0
 1674 02f8 FFF7FEFF 		bl	ConvertAlphaNew
 1675              	.LVL165:
 1676              	.L198:
 611:src/kbdutil.c ****                 last_tick = FreeRunMW();
 1677              		.loc 1 611 0
 1678 02fc 40F29F10 		movw	r0, #415
 1679 0300 FFF7FEFF 		bl	sys_func0
 1680              	.LVL166:
 1681 0304 8046     		mov	r8, r0
 1682              	.LVL167:
 1683 0306 07E0     		b	.L193
 1684              	.LVL168:
 1685              	.L194:
 612:src/kbdutil.c ****               }
 613:src/kbdutil.c ****               else
 614:src/kbdutil.c ****                 if (gKbdGDS.bInputLen < max_len)
 1686              		.loc 1 614 0
 1687 0308 A27F     		ldrb	r2, [r4, #30]	@ zero_extendqisi2
 1688 030a 0549     		ldr	r1, .L272
 1689 030c B242     		cmp	r2, r6
 615:src/kbdutil.c ****                   gKbdGDS.sbInputBuf[gKbdGDS.bInputLen++] = (BYTE) keyin;
 1690              		.loc 1 615 0
 1691 030e 3FBF     		itttt	cc
 1692 0310 501C     		addcc	r0, r2, #1
 1693 0312 5218     		addcc	r2, r2, r1
 1694 0314 8877     		strbcc	r0, [r1, #30]
ARM GAS  C:\Users\AHMED~1.ELE\AppData\Local\Temp\cciu15sF.s 			page 45


 1695 0316 D377     		strbcc	r3, [r2, #31]
 1696              	.LVL169:
 1697              	.L193:
 616:src/kbdutil.c ****             UpdateDisplay();
 1698              		.loc 1 616 0
 1699 0318 FFF7FEFF 		bl	UpdateDisplay
 1700              	.LVL170:
 1701 031c 9CE7     		b	.L208
 1702              	.L273:
 1703 031e 00BF     		.align	2
 1704              	.L272:
 1705 0320 00000000 		.word	.LANCHOR0
 1706 0324 17000000 		.word	.LANCHOR0+23
 1707 0328 1F000000 		.word	.LANCHOR0+31
 1708 032c 00000000 		.word	__ctype_ptr__
 1709 0330 00000000 		.word	.LC0
 1710              	.LVL171:
 1711              	.L158:
 617:src/kbdutil.c ****           }
 618:src/kbdutil.c ****         continue;
 619:src/kbdutil.c ****       case MWKEY_ENTER:
 620:src/kbdutil.c ****       case MWKEY_SELECT:
 621:src/kbdutil.c ****         if ((gKbdGDS.bInputLen==0) && (gKbdGDS.dOption&NULL_ENB) && (min_len==max_len))
 1712              		.loc 1 621 0
 1713 0334 94F81E90 		ldrb	r9, [r4, #30]	@ zero_extendqisi2
 1714 0338 B9F1000F 		cmp	r9, #0
 1715 033c 06D1     		bne	.L199
 1716              		.loc 1 621 0 is_stmt 0 discriminator 1
 1717 033e 5E4B     		ldr	r3, .L274
 1718 0340 D3F89030 		ldr	r3, [r3, #144]
 1719 0344 1A02     		lsls	r2, r3, #8
 1720 0346 01D5     		bpl	.L199
 1721              		.loc 1 621 0 discriminator 2
 1722 0348 B345     		cmp	fp, r6
 1723 034a 59D0     		beq	.L210
 1724              	.L199:
 622:src/kbdutil.c ****           return TRUE;
 623:src/kbdutil.c ****         //10-08-12 JC ++ fix bug in updating aOutBuf when user clear chars
 624:src/kbdutil.c ****         //if ((gKbdGDS.bInputLen == 0) && (min_len == 0) && (gKbdGDS.dEntryMode != AMOUNT_INPUT))
 625:src/kbdutil.c ****         //  return TRUE;
 626:src/kbdutil.c ****         //10-08-12 JC --
 627:src/kbdutil.c ****         if ((gKbdGDS.bInputLen >= min_len) && (gKbdGDS.bInputLen <= max_len)) {
 1725              		.loc 1 627 0 is_stmt 1
 1726 034c D945     		cmp	r9, fp
 1727 034e 0AD3     		bcc	.L200
 1728              		.loc 1 627 0 is_stmt 0 discriminator 1
 1729 0350 B145     		cmp	r9, r6
 1730 0352 08D8     		bhi	.L200
 628:src/kbdutil.c ****           aOutBuf[0] = gKbdGDS.bInputLen;
 1731              		.loc 1 628 0 is_stmt 1
 1732 0354 2846     		mov	r0, r5
 1733              	.LVL172:
 629:src/kbdutil.c ****           memcpy(&aOutBuf[1], gKbdGDS.sbInputBuf, gKbdGDS.bInputLen);
 1734              		.loc 1 629 0
 1735 0356 5949     		ldr	r1, .L274+4
 628:src/kbdutil.c ****           aOutBuf[0] = gKbdGDS.bInputLen;
 1736              		.loc 1 628 0
ARM GAS  C:\Users\AHMED~1.ELE\AppData\Local\Temp\cciu15sF.s 			page 46


 1737 0358 00F8019B 		strb	r9, [r0], #1
 1738              		.loc 1 629 0
 1739 035c A27F     		ldrb	r2, [r4, #30]	@ zero_extendqisi2
 1740 035e FFF7FEFF 		bl	memcpy
 1741              	.LVL173:
 630:src/kbdutil.c ****           aOutBuf[aOutBuf[0] + 1] = 0;
 1742              		.loc 1 630 0
 1743 0362 4D44     		add	r5, r5, r9
 1744              	.LVL174:
 1745 0364 44E0     		b	.L262
 1746              	.LVL175:
 1747              	.L200:
 631:src/kbdutil.c ****           return TRUE;
 632:src/kbdutil.c ****         }
 633:src/kbdutil.c ****         else if (gKbdGDS.bInputLen && (gKbdGDS.dOption & JUSTIFIED)) {
 1748              		.loc 1 633 0
 1749 0366 B9F1000F 		cmp	r9, #0
 1750 036a 44D0     		beq	.L153
 1751              		.loc 1 633 0 is_stmt 0 discriminator 1
 1752 036c D4F89030 		ldr	r3, [r4, #144]
 1753 0370 DFF84491 		ldr	r9, .L274
 1754 0374 DB02     		lsls	r3, r3, #11
 1755 0376 12D5     		bpl	.L201
 634:src/kbdutil.c ****           memset(&aOutBuf[1],'0',max_len);
 1756              		.loc 1 634 0 is_stmt 1
 1757 0378 681C     		adds	r0, r5, #1
 1758              	.LVL176:
 1759 037a 3021     		movs	r1, #48
 1760 037c 3246     		mov	r2, r6
 1761 037e FFF7FEFF 		bl	memset
 1762              	.LVL177:
 635:src/kbdutil.c ****           memcpy(&aOutBuf[max_len + 1 - gKbdGDS.bInputLen], gKbdGDS.sbInputBuf, gKbdGDS.bInputLen);
 1763              		.loc 1 635 0
 1764 0382 99F81E20 		ldrb	r2, [r9, #30]	@ zero_extendqisi2
 1765 0386 09F11F01 		add	r1, r9, #31
 1766 038a C2F10100 		rsb	r0, r2, #1
 1767 038e 3044     		add	r0, r0, r6
 1768 0390 2844     		add	r0, r0, r5
 1769 0392 FFF7FEFF 		bl	memcpy
 1770              	.LVL178:
 636:src/kbdutil.c ****           aOutBuf[0] = (BYTE) max_len;
 1771              		.loc 1 636 0
 1772 0396 2E70     		strb	r6, [r5]
 637:src/kbdutil.c ****           aOutBuf[aOutBuf[0] + 1] = 0;
 1773              		.loc 1 637 0
 1774 0398 55FA86F5 		uxtab	r5, r5, r6
 1775              	.LVL179:
 1776 039c 28E0     		b	.L262
 1777              	.LVL180:
 1778              	.L201:
 638:src/kbdutil.c ****           return TRUE;
 639:src/kbdutil.c ****         }
 640:src/kbdutil.c ****         else if (gKbdGDS.bInputLen && (min_len == 0)) {
 1779              		.loc 1 640 0 discriminator 1
 1780 039e BBF1000F 		cmp	fp, #0
 1781 03a2 28D1     		bne	.L153
 641:src/kbdutil.c ****           if (gKbdGDS.dEntryMode == AMOUNT_INPUT) {
ARM GAS  C:\Users\AHMED~1.ELE\AppData\Local\Temp\cciu15sF.s 			page 47


 1782              		.loc 1 641 0
 1783 03a4 D9F88C30 		ldr	r3, [r9, #140]
 1784 03a8 B3F5803F 		cmp	r3, #65536
 1785 03ac 05F10103 		add	r3, r5, #1
 642:src/kbdutil.c ****             memset(&aOutBuf[1], '0', 12);
 1786              		.loc 1 642 0
 1787 03b0 1846     		mov	r0, r3
 1788              	.LVL181:
 641:src/kbdutil.c ****           if (gKbdGDS.dEntryMode == AMOUNT_INPUT) {
 1789              		.loc 1 641 0
 1790 03b2 0ED1     		bne	.L202
 1791              		.loc 1 642 0
 1792 03b4 3021     		movs	r1, #48
 1793 03b6 0C22     		movs	r2, #12
 1794 03b8 FFF7FEFF 		bl	memset
 1795              	.LVL182:
 643:src/kbdutil.c ****             memcpy(&aOutBuf[13 - gKbdGDS.bInputLen], &gKbdGDS.sbInputBuf, gKbdGDS.bInputLen);
 1796              		.loc 1 643 0
 1797 03bc 99F81E20 		ldrb	r2, [r9, #30]	@ zero_extendqisi2
 1798 03c0 09F11F01 		add	r1, r9, #31
 1799 03c4 C2F10D00 		rsb	r0, r2, #13
 1800 03c8 2844     		add	r0, r0, r5
 1801 03ca FFF7FEFF 		bl	memcpy
 1802              	.LVL183:
 644:src/kbdutil.c ****             aOutBuf[0] = 12;
 1803              		.loc 1 644 0
 1804 03ce 0C23     		movs	r3, #12
 1805 03d0 0BE0     		b	.L260
 1806              	.L202:
 645:src/kbdutil.c ****           }
 646:src/kbdutil.c ****           else {
 647:src/kbdutil.c ****             memset(&aOutBuf[1], ' ', max_len);
 1807              		.loc 1 647 0
 1808 03d2 2021     		movs	r1, #32
 1809 03d4 3246     		mov	r2, r6
 1810 03d6 FFF7FEFF 		bl	memset
 1811              	.LVL184:
 648:src/kbdutil.c ****             memcpy(&aOutBuf[1], gKbdGDS.sbInputBuf, gKbdGDS.bInputLen);
 1812              		.loc 1 648 0
 1813 03da 09F11F01 		add	r1, r9, #31
 1814 03de 99F81E20 		ldrb	r2, [r9, #30]	@ zero_extendqisi2
 1815 03e2 FFF7FEFF 		bl	memcpy
 1816              	.LVL185:
 649:src/kbdutil.c ****             aOutBuf[0] = gKbdGDS.bInputLen;
 1817              		.loc 1 649 0
 1818 03e6 99F81E30 		ldrb	r3, [r9, #30]	@ zero_extendqisi2
 1819              	.L260:
 1820 03ea 2B70     		strb	r3, [r5]
 650:src/kbdutil.c ****           }
 651:src/kbdutil.c ****           aOutBuf[aOutBuf[0] + 1] = 0;
 1821              		.loc 1 651 0
 1822 03ec 2B78     		ldrb	r3, [r5]	@ zero_extendqisi2
 1823 03ee 1D44     		add	r5, r5, r3
 1824              	.LVL186:
 1825              	.L262:
 1826 03f0 0023     		movs	r3, #0
 1827 03f2 6B70     		strb	r3, [r5, #1]
ARM GAS  C:\Users\AHMED~1.ELE\AppData\Local\Temp\cciu15sF.s 			page 48


 1828 03f4 04E0     		b	.L210
 1829              	.LVL187:
 1830              	.L153:
 652:src/kbdutil.c ****           return TRUE;
 653:src/kbdutil.c ****         }
 654:src/kbdutil.c ****         break;
 655:src/kbdutil.c ****       case 0x00:    //timeout of the waitkey          //31-10-26 JC ++
 656:src/kbdutil.c ****         return 0;
 657:src/kbdutil.c ****     }
 658:src/kbdutil.c ****     LongBeep();
 1831              		.loc 1 658 0
 1832 03f6 FFF7FEFF 		bl	LongBeep
 1833              	.LVL188:
 1834 03fa 99E6     		b	.L151
 1835              	.LVL189:
 1836              	.L206:
 509:src/kbdutil.c ****       case MWKEY_CLR:
 1837              		.loc 1 509 0
 1838 03fc 0020     		movs	r0, #0
 1839              	.LVL190:
 1840 03fe 58E0     		b	.L258
 1841              	.LVL191:
 1842              	.L210:
 622:src/kbdutil.c ****         //10-08-12 JC ++ fix bug in updating aOutBuf when user clear chars
 1843              		.loc 1 622 0
 1844 0400 0120     		movs	r0, #1
 1845 0402 56E0     		b	.L258
 1846              	.LVL192:
 1847              	.L169:
 1848              	.LBB31:
 1849              	.LBB27:
 1850              	.LBB26:
 418:src/kbdutil.c ****         j = alpha_tbl[i][(j + 1) % 6];
 1851              		.loc 1 418 0
 1852 0404 2C49     		ldr	r1, .L274
 1853 0406 013B     		subs	r3, r3, #1
 1854 0408 1944     		add	r1, r1, r3
 1855 040a 4FF00009 		mov	r9, #0
 1856 040e C87F     		ldrb	r0, [r1, #31]	@ zero_extendqisi2
 1857              	.LVL193:
 1858 0410 2B49     		ldr	r1, .L274+8
 1859 0412 A0F1200C 		sub	ip, r0, #32
 1860 0416 0968     		ldr	r1, [r1]
 1861 0418 0393     		str	r3, [sp, #12]
 1862 041a 01EB000E 		add	lr, r1, r0
 1863 041e 9EF80110 		ldrb	r1, [lr, #1]	@ zero_extendqisi2
 1864 0422 01F00301 		and	r1, r1, #3
 1865 0426 0229     		cmp	r1, #2
 1866 0428 0CBF     		ite	eq
 1867 042a 6146     		moveq	r1, ip
 1868 042c 0146     		movne	r1, r0
 1869              	.L175:
 1870 042e 2548     		ldr	r0, .L274+12
 1871 0430 4FF0060E 		mov	lr, #6
 1872 0434 5FFA89FC 		uxtb	ip, r9
 1873              	.LVL194:
 1874 0438 0EFB0903 		mla	r3, lr, r9, r0
ARM GAS  C:\Users\AHMED~1.ELE\AppData\Local\Temp\cciu15sF.s 			page 49


 1875              	.LBE26:
 1876              	.LBE27:
 1877              	.LBE31:
 517:src/kbdutil.c ****           if (gKbdGDS.bInputLen)
 1878              		.loc 1 517 0
 1879 043c 0020     		movs	r0, #0
 1880              	.LVL195:
 1881              	.L174:
 1882              	.LBB32:
 1883              	.LBB28:
 418:src/kbdutil.c ****         j = alpha_tbl[i][(j + 1) % 6];
 1884              		.loc 1 418 0
 1885 043e 13F800E0 		ldrb	lr, [r3, r0]	@ zero_extendqisi2
 1886 0442 0130     		adds	r0, r0, #1
 1887 0444 7145     		cmp	r1, lr
 1888 0446 13D1     		bne	.L171
 419:src/kbdutil.c ****         goto FOUND;
 1889              		.loc 1 419 0
 1890 0448 0621     		movs	r1, #6
 1891 044a CDF814C0 		str	ip, [sp, #20]
 1892 044e 0492     		str	r2, [sp, #16]
 1893 0450 FFF7FEFF 		bl	__aeabi_idivmod
 1894              	.LVL196:
 1895 0454 0620     		movs	r0, #6
 1896 0456 1C4B     		ldr	r3, .L274+16
 425:src/kbdutil.c ****     if ((j > 'F') || (j < '0') || ((j > '9') && (j < 'A')))
 1897              		.loc 1 425 0
 1898 0458 049A     		ldr	r2, [sp, #16]
 419:src/kbdutil.c ****         goto FOUND;
 1899              		.loc 1 419 0
 1900 045a 00FB0939 		mla	r9, r0, r9, r3
 425:src/kbdutil.c ****     if ((j > 'F') || (j < '0') || ((j > '9') && (j < 'A')))
 1901              		.loc 1 425 0
 1902 045e B2F5802F 		cmp	r2, #262144
 419:src/kbdutil.c ****         goto FOUND;
 1903              		.loc 1 419 0
 1904 0462 4944     		add	r1, r1, r9
 425:src/kbdutil.c ****     if ((j > 'F') || (j < '0') || ((j > '9') && (j < 'A')))
 1905              		.loc 1 425 0
 1906 0464 DDF814C0 		ldr	ip, [sp, #20]
 419:src/kbdutil.c ****         goto FOUND;
 1907              		.loc 1 419 0
 1908 0468 91F85A00 		ldrb	r0, [r1, #90]	@ zero_extendqisi2
 1909              	.LDL1:
 1910              	.LVL197:
 425:src/kbdutil.c ****     if ((j > 'F') || (j < '0') || ((j > '9') && (j < 'A')))
 1911              		.loc 1 425 0
 1912 046c 1DD1     		bne	.L173
 1913              	.LVL198:
 1914 046e 07E0     		b	.L270
 1915              	.LVL199:
 1916              	.L171:
 416:src/kbdutil.c ****     {
 1917              		.loc 1 416 0
 1918 0470 0628     		cmp	r0, #6
 1919 0472 E4D1     		bne	.L174
 1920              	.LVL200:
ARM GAS  C:\Users\AHMED~1.ELE\AppData\Local\Temp\cciu15sF.s 			page 50


 1921 0474 09F10109 		add	r9, r9, #1
 1922              	.LVL201:
 414:src/kbdutil.c ****   {
 1923              		.loc 1 414 0
 1924 0478 B9F10A0F 		cmp	r9, #10
 1925 047c D7D1     		bne	.L175
 1926 047e 0AE0     		b	.L271
 1927              	.LVL202:
 1928              	.L270:
 426:src/kbdutil.c ****       j = alpha_tbl[i][0];
 1929              		.loc 1 426 0
 1930 0480 A0F13002 		sub	r2, r0, #48
 1931 0484 D2B2     		uxtb	r2, r2
 1932 0486 162A     		cmp	r2, #22
 1933 0488 09D8     		bhi	.L177
 1934 048a A0F13A02 		sub	r2, r0, #58
 1935 048e D2B2     		uxtb	r2, r2
 1936 0490 062A     		cmp	r2, #6
 1937 0492 0AD8     		bhi	.L173
 1938 0494 03E0     		b	.L177
 1939              	.LVL203:
 1940              	.L271:
 425:src/kbdutil.c ****     if ((j > 'F') || (j < '0') || ((j > '9') && (j < 'A')))
 1941              		.loc 1 425 0
 1942 0496 B2F5802F 		cmp	r2, #262144
 1943 049a 06D1     		bne	.L173
 1944 049c CC46     		mov	ip, r9
 1945              	.LVL204:
 1946              	.L177:
 427:src/kbdutil.c ****   gKbdGDS.sbInputBuf[gKbdGDS.bInputLen-1] = j;
 1947              		.loc 1 427 0
 1948 049e 0622     		movs	r2, #6
 1949 04a0 0949     		ldr	r1, .L274+16
 1950 04a2 02FB0C1C 		mla	ip, r2, ip, r1
 1951 04a6 9CF85A00 		ldrb	r0, [ip, #90]	@ zero_extendqisi2
 1952              	.LVL205:
 1953              	.L173:
 428:src/kbdutil.c **** }
 1954              		.loc 1 428 0
 1955 04aa 039B     		ldr	r3, [sp, #12]
 1956 04ac 2344     		add	r3, r3, r4
 1957 04ae D877     		strb	r0, [r3, #31]
 1958 04b0 BFE6     		b	.L179
 1959              	.LVL206:
 1960              	.L258:
 1961              	.LBE28:
 1962              	.LBE32:
 659:src/kbdutil.c ****   }
 660:src/kbdutil.c **** }
 1963              		.loc 1 660 0
 1964 04b2 07B0     		add	sp, sp, #28
 1965              		.cfi_def_cfa_offset 36
 1966              		@ sp needed
 1967 04b4 BDE8F08F 		pop	{r4, r5, r6, r7, r8, r9, r10, fp, pc}
 1968              	.LVL207:
 1969              	.L275:
 1970              		.align	2
ARM GAS  C:\Users\AHMED~1.ELE\AppData\Local\Temp\cciu15sF.s 			page 51


 1971              	.L274:
 1972 04b8 00000000 		.word	.LANCHOR0
 1973 04bc 1F000000 		.word	.LANCHOR0+31
 1974 04c0 00000000 		.word	__ctype_ptr__
 1975 04c4 5A000000 		.word	.LANCHOR1+90
 1976 04c8 00000000 		.word	.LANCHOR1
 1977              		.cfi_endproc
 1978              	.LFE11:
 1979              		.size	GetKbd, .-GetKbd
 1980              		.section	.rodata
 1981              		.set	.LANCHOR1,. + 0
 1982              		.type	alpha_tbl.11715, %object
 1983              		.size	alpha_tbl.11715, 90
 1984              	alpha_tbl.11715:
 1985 0000 30       		.byte	48
 1986 0001 20       		.byte	32
 1987 0002 2B       		.byte	43
 1988 0003 2D       		.byte	45
 1989 0004 22       		.byte	34
 1990 0005 2A       		.byte	42
 1991 0006 23       		.byte	35
 1992 0007 29       		.byte	41
 1993 0008 7E       		.byte	126
 1994 0009 31       		.byte	49
 1995 000a 51       		.byte	81
 1996 000b 5A       		.byte	90
 1997 000c 71       		.byte	113
 1998 000d 7A       		.byte	122
 1999 000e 3A       		.byte	58
 2000 000f 2E       		.byte	46
 2001 0010 21       		.byte	33
 2002 0011 60       		.byte	96
 2003 0012 32       		.byte	50
 2004 0013 41       		.byte	65
 2005 0014 42       		.byte	66
 2006 0015 43       		.byte	67
 2007 0016 61       		.byte	97
 2008 0017 62       		.byte	98
 2009 0018 63       		.byte	99
 2010 0019 40       		.byte	64
 2011 001a 27       		.byte	39
 2012 001b 33       		.byte	51
 2013 001c 44       		.byte	68
 2014 001d 45       		.byte	69
 2015 001e 46       		.byte	70
 2016 001f 64       		.byte	100
 2017 0020 65       		.byte	101
 2018 0021 66       		.byte	102
 2019 0022 7C       		.byte	124
 2020 0023 3D       		.byte	61
 2021 0024 34       		.byte	52
 2022 0025 47       		.byte	71
 2023 0026 48       		.byte	72
 2024 0027 49       		.byte	73
 2025 0028 67       		.byte	103
 2026 0029 68       		.byte	104
 2027 002a 69       		.byte	105
ARM GAS  C:\Users\AHMED~1.ELE\AppData\Local\Temp\cciu15sF.s 			page 52


 2028 002b 24       		.byte	36
 2029 002c 3B       		.byte	59
 2030 002d 35       		.byte	53
 2031 002e 4A       		.byte	74
 2032 002f 4B       		.byte	75
 2033 0030 4C       		.byte	76
 2034 0031 6A       		.byte	106
 2035 0032 6B       		.byte	107
 2036 0033 6C       		.byte	108
 2037 0034 25       		.byte	37
 2038 0035 3F       		.byte	63
 2039 0036 36       		.byte	54
 2040 0037 4D       		.byte	77
 2041 0038 4E       		.byte	78
 2042 0039 4F       		.byte	79
 2043 003a 6D       		.byte	109
 2044 003b 6E       		.byte	110
 2045 003c 6F       		.byte	111
 2046 003d 5E       		.byte	94
 2047 003e 2C       		.byte	44
 2048 003f 37       		.byte	55
 2049 0040 50       		.byte	80
 2050 0041 52       		.byte	82
 2051 0042 53       		.byte	83
 2052 0043 70       		.byte	112
 2053 0044 72       		.byte	114
 2054 0045 73       		.byte	115
 2055 0046 26       		.byte	38
 2056 0047 5F       		.byte	95
 2057 0048 38       		.byte	56
 2058 0049 54       		.byte	84
 2059 004a 55       		.byte	85
 2060 004b 56       		.byte	86
 2061 004c 74       		.byte	116
 2062 004d 75       		.byte	117
 2063 004e 76       		.byte	118
 2064 004f 2F       		.byte	47
 2065 0050 5B       		.byte	91
 2066 0051 39       		.byte	57
 2067 0052 57       		.byte	87
 2068 0053 58       		.byte	88
 2069 0054 59       		.byte	89
 2070 0055 77       		.byte	119
 2071 0056 78       		.byte	120
 2072 0057 79       		.byte	121
 2073 0058 28       		.byte	40
 2074 0059 5D       		.byte	93
 2075              		.type	alpha_tbl.11728, %object
 2076              		.size	alpha_tbl.11728, 60
 2077              	alpha_tbl.11728:
 2078 005a 30       		.byte	48
 2079 005b 20       		.byte	32
 2080 005c 2B       		.byte	43
 2081 005d 2D       		.byte	45
 2082 005e 29       		.byte	41
 2083 005f 7E       		.byte	126
 2084 0060 31       		.byte	49
ARM GAS  C:\Users\AHMED~1.ELE\AppData\Local\Temp\cciu15sF.s 			page 53


 2085 0061 51       		.byte	81
 2086 0062 5A       		.byte	90
 2087 0063 5F       		.byte	95
 2088 0064 21       		.byte	33
 2089 0065 60       		.byte	96
 2090 0066 32       		.byte	50
 2091 0067 41       		.byte	65
 2092 0068 42       		.byte	66
 2093 0069 43       		.byte	67
 2094 006a 40       		.byte	64
 2095 006b 27       		.byte	39
 2096 006c 33       		.byte	51
 2097 006d 44       		.byte	68
 2098 006e 45       		.byte	69
 2099 006f 46       		.byte	70
 2100 0070 23       		.byte	35
 2101 0071 3A       		.byte	58
 2102 0072 34       		.byte	52
 2103 0073 47       		.byte	71
 2104 0074 48       		.byte	72
 2105 0075 49       		.byte	73
 2106 0076 24       		.byte	36
 2107 0077 3B       		.byte	59
 2108 0078 35       		.byte	53
 2109 0079 4A       		.byte	74
 2110 007a 4B       		.byte	75
 2111 007b 4C       		.byte	76
 2112 007c 25       		.byte	37
 2113 007d 3F       		.byte	63
 2114 007e 36       		.byte	54
 2115 007f 4D       		.byte	77
 2116 0080 4E       		.byte	78
 2117 0081 4F       		.byte	79
 2118 0082 5E       		.byte	94
 2119 0083 2C       		.byte	44
 2120 0084 37       		.byte	55
 2121 0085 50       		.byte	80
 2122 0086 52       		.byte	82
 2123 0087 53       		.byte	83
 2124 0088 26       		.byte	38
 2125 0089 2E       		.byte	46
 2126 008a 38       		.byte	56
 2127 008b 54       		.byte	84
 2128 008c 55       		.byte	85
 2129 008d 56       		.byte	86
 2130 008e 2A       		.byte	42
 2131 008f 5B       		.byte	91
 2132 0090 39       		.byte	57
 2133 0091 57       		.byte	87
 2134 0092 58       		.byte	88
 2135 0093 59       		.byte	89
 2136 0094 28       		.byte	40
 2137 0095 5D       		.byte	93
 2138              		.section	.rodata.str1.1,"aMS",%progbits,1
 2139              	.LC0:
 2140 0000 303000   		.ascii	"00\000"
 2141              		.data
ARM GAS  C:\Users\AHMED~1.ELE\AppData\Local\Temp\cciu15sF.s 			page 54


 2142              		.align	3
 2143              		.set	.LANCHOR0,. + 0
 2144              		.type	gKbdGDS, %object
 2145              		.size	gKbdGDS, 160
 2146              	gKbdGDS:
 2147 0000 00000000 		.word	0
 2148 0004 00000000 		.word	0
 2149 0008 0000     		.short	0
 2150 000a 02       		.byte	2
 2151 000b 00       		.byte	0
 2152 000c 00       		.byte	0
 2153 000d 00       		.byte	0
 2154 000e 00       		.byte	0
 2155 000f 00       		.byte	0
 2156 0010 00       		.byte	0
 2157 0011 00       		.byte	0
 2158 0012 00       		.byte	0
 2159 0013 00       		.byte	0
 2160 0014 00       		.byte	0
 2161 0015 00       		.byte	0
 2162 0016 00       		.byte	0
 2163 0017 20       		.byte	32
 2164 0018 20       		.byte	32
 2165 0019 20       		.byte	32
 2166 001a 20       		.byte	32
 2167 001b 00       		.space	1
 2168 001c 0000     		.short	0
 2169 001e 00       		.byte	0
 2170 001f 00       		.byte	0
 2171 0020 00       		.byte	0
 2172 0021 00       		.byte	0
 2173 0022 00       		.byte	0
 2174 0023 00       		.byte	0
 2175 0024 00       		.byte	0
 2176 0025 00       		.byte	0
 2177 0026 00       		.byte	0
 2178 0027 00       		.byte	0
 2179 0028 00       		.byte	0
 2180 0029 00       		.byte	0
 2181 002a 00       		.byte	0
 2182 002b 00       		.byte	0
 2183 002c 00       		.byte	0
 2184 002d 00       		.byte	0
 2185 002e 00       		.byte	0
 2186 002f 00       		.byte	0
 2187 0030 00       		.byte	0
 2188 0031 00       		.byte	0
 2189 0032 00       		.byte	0
 2190 0033 00       		.byte	0
 2191 0034 00       		.byte	0
 2192 0035 00       		.byte	0
 2193 0036 00       		.byte	0
 2194 0037 00       		.byte	0
 2195 0038 00       		.byte	0
 2196 0039 00       		.byte	0
 2197 003a 00       		.byte	0
 2198 003b 00       		.byte	0
ARM GAS  C:\Users\AHMED~1.ELE\AppData\Local\Temp\cciu15sF.s 			page 55


 2199 003c 00       		.byte	0
 2200 003d 00       		.byte	0
 2201 003e 00       		.byte	0
 2202 003f 00000000 		.space	21
 2202      00000000 
 2202      00000000 
 2202      00000000 
 2202      00000000 
 2203 0054 00       		.byte	0
 2204 0055 00       		.byte	0
 2205 0056 00       		.byte	0
 2206 0057 00       		.byte	0
 2207 0058 00       		.byte	0
 2208 0059 00       		.byte	0
 2209 005a 00       		.byte	0
 2210 005b 00       		.byte	0
 2211 005c 00       		.byte	0
 2212 005d 00       		.byte	0
 2213 005e 00       		.byte	0
 2214 005f 00       		.byte	0
 2215 0060 00       		.byte	0
 2216 0061 00       		.byte	0
 2217 0062 00       		.byte	0
 2218 0063 00       		.byte	0
 2219 0064 00       		.byte	0
 2220 0065 00       		.byte	0
 2221 0066 00       		.byte	0
 2222 0067 00       		.byte	0
 2223 0068 00       		.byte	0
 2224 0069 00       		.byte	0
 2225 006a 00       		.byte	0
 2226 006b 00       		.byte	0
 2227 006c 00       		.byte	0
 2228 006d 00       		.byte	0
 2229 006e 00       		.byte	0
 2230 006f 00       		.byte	0
 2231 0070 00       		.byte	0
 2232 0071 00       		.byte	0
 2233 0072 00       		.byte	0
 2234 0073 00       		.byte	0
 2235 0074 00       		.byte	0
 2236 0075 00000000 		.space	21
 2236      00000000 
 2236      00000000 
 2236      00000000 
 2236      00000000 
 2237 008a 0000     		.space	2
 2238 008c 00000000 		.word	0
 2239 0090 00000000 		.word	0
 2240 0094 28230000 		.word	9000
 2241 0098 FFFFFFFF 		.word	-1
 2242 009c 00000000 		.space	4
 2243              		.text
 2244              	.Letext0:
 2245              		.file 2 "c:\\devtools\\gcc_v49_2014q4\\lib\\gcc\\arm-none-eabi\\4.9.3\\include\\stddef.h"
 2246              		.file 3 "../LibA5T1000/common.h"
 2247              		.file 4 "../LibA5T1000/system.h"
ARM GAS  C:\Users\AHMED~1.ELE\AppData\Local\Temp\cciu15sF.s 			page 56


 2248              		.file 5 "../LibA5T1000/midware.h"
 2249              		.file 6 "../LibA5T1000/apm.h"
 2250              		.file 7 "src/hardware.h"
 2251              		.file 8 "c:\\devtools\\gcc_v49_2014q4\\arm-none-eabi\\include\\ctype.h"
 2252              		.file 9 "c:\\devtools\\gcc_v49_2014q4\\arm-none-eabi\\include\\string.h"
 2253              		.file 10 "src/sysutil.h"
 2254              		.file 11 "../LibA5T1000/util.h"