ARM GAS  C:\Users\AHMED~1.ELE\AppData\Local\Temp\ccmI3Usi.s 			page 1


   1              		.syntax unified
   2              		.cpu cortex-a5
   3              		.fpu softvfp
   4              		.eabi_attribute 20, 1
   5              		.eabi_attribute 21, 1
   6              		.eabi_attribute 23, 3
   7              		.eabi_attribute 24, 1
   8              		.eabi_attribute 25, 1
   9              		.eabi_attribute 26, 1
  10              		.eabi_attribute 30, 4
  11              		.eabi_attribute 34, 0
  12              		.eabi_attribute 18, 4
  13              		.thumb
  14              		.file	"keydlltest.c"
  15              		.text
  16              	.Ltext0:
  17              		.cfi_sections	.debug_frame
  18              		.global	__aeabi_idivmod
  19              		.section	.text.ShowKeyStatus,"ax",%progbits
  20              		.align	1
  21              		.thumb
  22              		.thumb_func
  23              		.type	ShowKeyStatus, %function
  24              	ShowKeyStatus:
  25              	.LFB0:
  26              		.file 1 "src/keydlltest.c"
   1:src/keydlltest.c **** //-----------------------------------------------------------------------------
   2:src/keydlltest.c **** //  File          : KeyDllTest.c
   3:src/keydlltest.c **** //  Module        :
   4:src/keydlltest.c **** //  Description   : Include Testing routine for KEYDLL Export Func.
   5:src/keydlltest.c **** //  Author        : Lewis
   6:src/keydlltest.c **** //  Notes         : N/A
   7:src/keydlltest.c **** //
   8:src/keydlltest.c **** // ============================================================================
   9:src/keydlltest.c **** // | Naming conventions                                                       |
  10:src/keydlltest.c **** // | ~~~~~~~~~~~~~~~~~~                                                       |
  11:src/keydlltest.c **** // |        Struct define : Leading T                                         |
  12:src/keydlltest.c **** // |         Struct/Array : Leading s                                         |
  13:src/keydlltest.c **** // |             Constant : Leading K                                         |
  14:src/keydlltest.c **** // |      Global Variable : Leading g  (variable use outside one C file)      |
  15:src/keydlltest.c **** // |                                                                          |
  16:src/keydlltest.c **** // |   BYTE( 8 Bits) size : Leading b                                         |
  17:src/keydlltest.c **** // |   CHAR( 8 Bits) size : Leading c                                         |
  18:src/keydlltest.c **** // |   WORD(16 Bits) size : Leading w                                         |
  19:src/keydlltest.c **** // |  DWORD(32 Bits) size : Leading d                                         |
  20:src/keydlltest.c **** // |    int(32 Bits) size : Leading i                                         |
  21:src/keydlltest.c **** // | DDWORD(64 Bits) size : Leading dd                                        |
  22:src/keydlltest.c **** // |              Pointer : Leading p                                         |
  23:src/keydlltest.c **** // |                                                                          |
  24:src/keydlltest.c **** // |    Function argument : Leading a                                         |
  25:src/keydlltest.c **** // |       Local Variable : All lower case                                    |
  26:src/keydlltest.c **** // |                                                                          |
  27:src/keydlltest.c **** // | Examples:                                                                |
  28:src/keydlltest.c **** // |                Array : Leading s, (sb = arrary of byte, etc)             |
  29:src/keydlltest.c **** // |              Pointer : Leading p, (pb = pointer of byte, etc)            |
  30:src/keydlltest.c **** // ============================================================================
  31:src/keydlltest.c **** //
ARM GAS  C:\Users\AHMED~1.ELE\AppData\Local\Temp\ccmI3Usi.s 			page 2


  32:src/keydlltest.c **** //  Date          Who         Action
  33:src/keydlltest.c **** //  ------------  ----------- -------------------------------------------------
  34:src/keydlltest.c **** //  22 Oct  2008  Lewis       Initial Version.
  35:src/keydlltest.c **** //  14 Jan  2009  Lewis       Add external PP300 support.
  36:src/keydlltest.c **** //-----------------------------------------------------------------------------
  37:src/keydlltest.c **** #include <string.h>
  38:src/keydlltest.c **** #include "key2dll.h"
  39:src/keydlltest.c **** #include "util.h"
  40:src/keydlltest.c **** #include "kbdutil.h"
  41:src/keydlltest.c **** #include "toggle.h"
  42:src/keydlltest.c **** #include "keydlltest.h"
  43:src/keydlltest.c **** 
  44:src/keydlltest.c **** //-----------------------------------------------------------------------------
  45:src/keydlltest.c **** //      Constants
  46:src/keydlltest.c **** //-----------------------------------------------------------------------------
  47:src/keydlltest.c **** #define MAX_KEY_INSERT   7
  48:src/keydlltest.c **** static char *KKeyInsCmd[MAX_KEY_INSERT] = {
  49:src/keydlltest.c ****   // Encrypt, Single, No KVC, Dest=1 , use Master Decrypt (3_)
  50:src/keydlltest.c ****   "\x08\x01\x00\x00\x87\x62\xD9\x1E\x23\x82\x82\x8D",                  
  51:src/keydlltest.c ****   // Encrypt, Single, 3 byte KVC, Dest = 1, use Master Decrypt(4_)
  52:src/keydlltest.c ****   "\x09\x07\x00\x00\x4E\x64\x86\x2A\xEB\xAE\x22\x9E\xE2\xF2\x43",      
  53:src/keydlltest.c ****   // Decrypt, Triple, No KVC, Dest=2 , use Master Decrypt (5_6_7)
  54:src/keydlltest.c ****   "\x1A\x02\x00\x00\x99\x31\xC3\x5E\x6A\xF4\x8B\xA2\x02\xD4\x9B\xF0\x6B\x1F\x59\xBC\x70\x40\x6C\xB9
  55:src/keydlltest.c ****   // Encrypt, Double, No KVC, Dest=3 , use Key2 Decrypt (7_8)
  56:src/keydlltest.c ****   "\x10\x03\x02\x00\xAF\x6F\x86\x08\xD8\xB6\x9D\x7C\x9F\xAD\x24\xB1\xAD\x26\x90\xEB",
  57:src/keydlltest.c ****   //Decryption Key, Double Key Len, No KVC Use Key2 decrypt (A_B)
  58:src/keydlltest.c ****   "\x12\x04\x02\x00\x44\x25\x26\x49\x8F\xD1\xB3\x55\xDB\x4A\x9C\x05\x55\x64\xA4\x4A",
  59:src/keydlltest.c ****   //Encryption Key, Triple Key Len, No KVC, Use Key2 Decrypt (C_D_E)
  60:src/keydlltest.c ****   "\x18\x05\x02\x00\xC5\xE8\xA7\x48\xD4\x60\x79\x79\x57\xA0\x46\xE5\x94\xF9\x13\x67\xEA\x9C\x00\xE0
  61:src/keydlltest.c ****   //Decryption key, Triple Key Len, No KVC, Use Key2 Decrypt (F_1_2)
  62:src/keydlltest.c ****   "\x1A\x06\x02\x00\x98\xA2\x93\x93\x8B\x31\xC6\xC0\x93\x6D\x9A\x37\x3C\xAC\xF2\x9B\x48\x46\xCA\x58
  63:src/keydlltest.c **** };
  64:src/keydlltest.c **** 
  65:src/keydlltest.c **** static BYTE *KDukptPinResult[3] = {
  66:src/keydlltest.c ****   "\x1B\x9C\x18\x45\xEB\x99\x3A\x7A",
  67:src/keydlltest.c ****   "\x10\xA0\x1C\x8D\x02\xC6\x91\x07",
  68:src/keydlltest.c ****   "\x18\xDC\x07\xB9\x47\x97\xB4\x66"
  69:src/keydlltest.c **** };
  70:src/keydlltest.c **** //*****************************************************************************
  71:src/keydlltest.c **** //  Function        : ShowKeyStatus
  72:src/keydlltest.c **** //  Description     : Show Current Key status from KEYDLL
  73:src/keydlltest.c **** //  Input           : N/A
  74:src/keydlltest.c **** //  Return          : N/A
  75:src/keydlltest.c **** //  Note            : N/A
  76:src/keydlltest.c **** //  Globals Changed : N/A
  77:src/keydlltest.c **** //*****************************************************************************
  78:src/keydlltest.c **** static void ShowKeyStatus(void)
  79:src/keydlltest.c **** {
  27              		.loc 1 79 0
  28              		.cfi_startproc
  29              		@ args = 0, pretend = 0, frame = 40
  30              		@ frame_needed = 0, uses_anonymous_args = 0
  31 0000 70B5     		push	{r4, r5, r6, lr}
  32              		.cfi_def_cfa_offset 16
  33              		.cfi_offset 4, -16
  34              		.cfi_offset 5, -12
  35              		.cfi_offset 6, -8
ARM GAS  C:\Users\AHMED~1.ELE\AppData\Local\Temp\ccmI3Usi.s 			page 3


  36              		.cfi_offset 14, -4
  80:src/keydlltest.c ****   BYTE tmp[40];
  81:src/keydlltest.c ****   int i;
  82:src/keydlltest.c **** 
  83:src/keydlltest.c ****   // Show Key Status
  84:src/keydlltest.c ****   KDLL_KeyStatus(tmp);
  37              		.loc 1 84 0
  38 0002 0025     		movs	r5, #0
  79:src/keydlltest.c ****   BYTE tmp[40];
  39              		.loc 1 79 0
  40 0004 8CB0     		sub	sp, sp, #48
  41              		.cfi_def_cfa_offset 64
  42              		.loc 1 84 0
  43 0006 02AE     		add	r6, sp, #8
  44 0008 0121     		movs	r1, #1
  45 000a 3246     		mov	r2, r6
  46 000c 2B46     		mov	r3, r5
  47 000e 0095     		str	r5, [sp]
  48 0010 7F20     		movs	r0, #127
  49 0012 FFF7FEFF 		bl	lib_app_call
  50              	.LVL0:
  51              	.LBB2:
  85:src/keydlltest.c ****   DispLineMW("Key Status", MW_LINE1, MW_CLRDISP|MW_CENTER|MW_REVERSE|MW_SPFONT);
  52              		.loc 1 85 0
  53 0016 9220     		movs	r0, #146
  54 0018 0B21     		movs	r1, #11
  55 001a FFF7FEFF 		bl	sys_func1
  56              	.LVL1:
  57 001e 0446     		mov	r4, r0
  58 0020 90B1     		cbz	r0, .L2
  59              		.loc 1 85 0 is_stmt 0 discriminator 1
  60 0022 1449     		ldr	r1, .L10
  61 0024 0A22     		movs	r2, #10
  62 0026 FFF7FEFF 		bl	memcpy
  63              	.LVL2:
  64 002a 42F29203 		movw	r3, #8338
  65 002e A572     		strb	r5, [r4, #10]
  66 0030 2521     		movs	r1, #37
  67 0032 0093     		str	r3, [sp]
  68 0034 0F20     		movs	r0, #15
  69 0036 2246     		mov	r2, r4
  70 0038 4FF48073 		mov	r3, #256
  71 003c FFF7FEFF 		bl	lib_app_call
  72              	.LVL3:
  73 0040 9420     		movs	r0, #148
  74 0042 2146     		mov	r1, r4
  75 0044 FFF7FEFF 		bl	sys_func1
  76              	.LVL4:
  77              	.L2:
  78              	.LBE2:
  79:src/keydlltest.c ****   BYTE tmp[40];
  79              		.loc 1 79 0 is_stmt 1 discriminator 1
  80 0048 0024     		movs	r4, #0
  81              	.LVL5:
  82              	.L4:
  86:src/keydlltest.c ****   for (i = 0; i < 40; i++) {
  87:src/keydlltest.c ****     if ((i%10)==0)
ARM GAS  C:\Users\AHMED~1.ELE\AppData\Local\Temp\ccmI3Usi.s 			page 4


  83              		.loc 1 87 0
  84 004a 2046     		mov	r0, r4
  85 004c 0A21     		movs	r1, #10
  86 004e FFF7FEFF 		bl	__aeabi_idivmod
  87              	.LVL6:
  88 0052 11B9     		cbnz	r1, .L3
  88:src/keydlltest.c ****       printf("\n");
  89              		.loc 1 88 0
  90 0054 0A20     		movs	r0, #10
  91 0056 FFF7FEFF 		bl	putchar
  92              	.LVL7:
  93              	.L3:
  89:src/keydlltest.c ****     printf("%02X", tmp[i]);
  94              		.loc 1 89 0 discriminator 2
  95 005a 315D     		ldrb	r1, [r6, r4]	@ zero_extendqisi2
  96 005c 0648     		ldr	r0, .L10+4
  86:src/keydlltest.c ****   for (i = 0; i < 40; i++) {
  97              		.loc 1 86 0 discriminator 2
  98 005e 0134     		adds	r4, r4, #1
  99              	.LVL8:
 100              		.loc 1 89 0 discriminator 2
 101 0060 FFF7FEFF 		bl	printf
 102              	.LVL9:
  86:src/keydlltest.c ****   for (i = 0; i < 40; i++) {
 103              		.loc 1 86 0 discriminator 2
 104 0064 282C     		cmp	r4, #40
 105 0066 F0D1     		bne	.L4
  90:src/keydlltest.c ****   }
  91:src/keydlltest.c ****   WaitKey(KBD_TIMEOUT);
 106              		.loc 1 91 0
 107 0068 42F22830 		movw	r0, #9000
 108 006c FFF7FEFF 		bl	WaitKey
 109              	.LVL10:
  92:src/keydlltest.c **** }
 110              		.loc 1 92 0
 111 0070 0CB0     		add	sp, sp, #48
 112              		.cfi_def_cfa_offset 16
 113              		@ sp needed
 114 0072 70BD     		pop	{r4, r5, r6, pc}
 115              	.LVL11:
 116              	.L11:
 117              		.align	2
 118              	.L10:
 119 0074 00000000 		.word	.LC0
 120 0078 0B000000 		.word	.LC1
 121              		.cfi_endproc
 122              	.LFE0:
 123              		.size	ShowKeyStatus, .-ShowKeyStatus
 124              		.section	.text.KeyDllTest,"ax",%progbits
 125              		.align	1
 126              		.global	KeyDllTest
 127              		.thumb
 128              		.thumb_func
 129              		.type	KeyDllTest, %function
 130              	KeyDllTest:
 131              	.LFB1:
  93:src/keydlltest.c **** //*****************************************************************************
ARM GAS  C:\Users\AHMED~1.ELE\AppData\Local\Temp\ccmI3Usi.s 			page 5


  94:src/keydlltest.c **** //  Function        : KeyDllTest
  95:src/keydlltest.c **** //  Description     : Test Function for KEYDLL.
  96:src/keydlltest.c **** //  Input           : N/A
  97:src/keydlltest.c **** //  Return          : N/A
  98:src/keydlltest.c **** //  Note            : N/A
  99:src/keydlltest.c **** //  Globals Changed : N/A
 100:src/keydlltest.c **** //*****************************************************************************
 101:src/keydlltest.c **** void KeyDllTest(void)
 102:src/keydlltest.c **** {
 132              		.loc 1 102 0
 133              		.cfi_startproc
 134              		@ args = 0, pretend = 0, frame = 272
 135              		@ frame_needed = 0, uses_anonymous_args = 0
 136              	.LVL12:
 137 0000 F0B5     		push	{r4, r5, r6, r7, lr}
 138              		.cfi_def_cfa_offset 20
 139              		.cfi_offset 4, -20
 140              		.cfi_offset 5, -16
 141              		.cfi_offset 6, -12
 142              		.cfi_offset 7, -8
 143              		.cfi_offset 14, -4
 144              	.LBB3:
 103:src/keydlltest.c ****   BYTE tmp[256], mac[16];
 104:src/keydlltest.c ****   int i;
 105:src/keydlltest.c ****   WORD ret_val;
 106:src/keydlltest.c **** 
 107:src/keydlltest.c ****   DispLineMW("Use PP300 ?", MW_LINE3, MW_CLRDISP|MW_LEFT|MW_BIGFONT);
 145              		.loc 1 107 0
 146 0002 9220     		movs	r0, #146
 147              	.LBE3:
 102:src/keydlltest.c ****   BYTE tmp[256], mac[16];
 148              		.loc 1 102 0
 149 0004 C7B0     		sub	sp, sp, #284
 150              		.cfi_def_cfa_offset 304
 151              	.LBB4:
 152              		.loc 1 107 0
 153 0006 0C21     		movs	r1, #12
 154 0008 FFF7FEFF 		bl	sys_func1
 155              	.LVL13:
 156 000c 0446     		mov	r4, r0
 157 000e 98B1     		cbz	r0, .L13
 158              		.loc 1 107 0 is_stmt 0 discriminator 1
 159 0010 5549     		ldr	r1, .L85
 160 0012 0B22     		movs	r2, #11
 161 0014 FFF7FEFF 		bl	memcpy
 162              	.LVL14:
 163 0018 0023     		movs	r3, #0
 164 001a 2521     		movs	r1, #37
 165 001c E372     		strb	r3, [r4, #11]
 166 001e 4FF48453 		mov	r3, #4224
 167 0022 0F20     		movs	r0, #15
 168 0024 0093     		str	r3, [sp]
 169 0026 2246     		mov	r2, r4
 170 0028 4FF44073 		mov	r3, #768
 171 002c FFF7FEFF 		bl	lib_app_call
 172              	.LVL15:
 173 0030 9420     		movs	r0, #148
ARM GAS  C:\Users\AHMED~1.ELE\AppData\Local\Temp\ccmI3Usi.s 			page 6


 174 0032 2146     		mov	r1, r4
 175 0034 FFF7FEFF 		bl	sys_func1
 176              	.LVL16:
 177              	.L13:
 178              	.LBE4:
 108:src/keydlltest.c ****   if (ToggleYesNo()== 2)
 179              		.loc 1 108 0 is_stmt 1
 180 0038 FFF7FEFF 		bl	ToggleYesNo
 181              	.LVL17:
 182 003c 0022     		movs	r2, #0
 109:src/keydlltest.c ****     KDLL_ExtPPadSetup(MIDWARE_ID, SCHNLGETPINMW);  // Use External pinpad to get PIN
 183              		.loc 1 109 0
 184 003e 0E21     		movs	r1, #14
 185 0040 0092     		str	r2, [sp]
 108:src/keydlltest.c ****   if (ToggleYesNo()== 2)
 186              		.loc 1 108 0
 187 0042 0228     		cmp	r0, #2
 188              		.loc 1 109 0
 189 0044 06BF     		itte	eq
 190 0046 0F22     		moveq	r2, #15
 191 0048 1E23     		moveq	r3, #30
 110:src/keydlltest.c ****   else
 111:src/keydlltest.c ****     KDLL_ExtPPadSetup(0, 0);                       // Disable
 192              		.loc 1 111 0
 193 004a 1346     		movne	r3, r2
 109:src/keydlltest.c ****     KDLL_ExtPPadSetup(MIDWARE_ID, SCHNLGETPINMW);  // Use External pinpad to get PIN
 194              		.loc 1 109 0
 195 004c 7F20     		movs	r0, #127
 196              		.loc 1 111 0
 197 004e FFF7FEFF 		bl	lib_app_call
 198              	.LVL18:
 199              	.LBB5:
 112:src/keydlltest.c **** 
 113:src/keydlltest.c ****   DispLineMW("Key Reset", MW_LINE8, MW_CLRDISP|MW_CENTER|MW_REVERSE|MW_SPFONT);
 200              		.loc 1 113 0
 201 0052 9220     		movs	r0, #146
 202 0054 0A21     		movs	r1, #10
 203 0056 FFF7FEFF 		bl	sys_func1
 204              	.LVL19:
 205 005a 0446     		mov	r4, r0
 206              	.LVL20:
 207 005c 98B1     		cbz	r0, .L16
 208              		.loc 1 113 0 is_stmt 0 discriminator 1
 209 005e 4349     		ldr	r1, .L85+4
 210 0060 0922     		movs	r2, #9
 211 0062 FFF7FEFF 		bl	memcpy
 212              	.LVL21:
 213 0066 0023     		movs	r3, #0
 214 0068 2521     		movs	r1, #37
 215 006a 6372     		strb	r3, [r4, #9]
 216 006c 42F29203 		movw	r3, #8338
 217 0070 0F20     		movs	r0, #15
 218 0072 0093     		str	r3, [sp]
 219 0074 2246     		mov	r2, r4
 220 0076 4FF40063 		mov	r3, #2048
 221 007a FFF7FEFF 		bl	lib_app_call
 222              	.LVL22:
ARM GAS  C:\Users\AHMED~1.ELE\AppData\Local\Temp\ccmI3Usi.s 			page 7


 223 007e 9420     		movs	r0, #148
 224 0080 2146     		mov	r1, r4
 225 0082 FFF7FEFF 		bl	sys_func1
 226              	.LVL23:
 227              	.L16:
 228              	.LBE5:
 114:src/keydlltest.c ****   KDLL_KeyReset(0xFF);
 229              		.loc 1 114 0 is_stmt 1
 230 0086 0024     		movs	r4, #0
 231              	.LVL24:
 232 0088 2146     		mov	r1, r4
 233 008a FF22     		movs	r2, #255
 234 008c 2346     		mov	r3, r4
 235 008e 0094     		str	r4, [sp]
 236 0090 7F20     		movs	r0, #127
 237 0092 FFF7FEFF 		bl	lib_app_call
 238              	.LVL25:
 115:src/keydlltest.c ****   ShowKeyStatus();
 239              		.loc 1 115 0
 240 0096 FFF7FEFF 		bl	ShowKeyStatus
 241              	.LVL26:
 242              	.LBB6:
 116:src/keydlltest.c **** 
 117:src/keydlltest.c ****   DispLineMW("Key Injection", MW_LINE1, MW_CLRDISP|MW_CENTER|MW_REVERSE|MW_SPFONT);
 243              		.loc 1 117 0
 244 009a 9220     		movs	r0, #146
 245 009c 0E21     		movs	r1, #14
 246 009e FFF7FEFF 		bl	sys_func1
 247              	.LVL27:
 248 00a2 0546     		mov	r5, r0
 249 00a4 90B1     		cbz	r0, .L17
 250              		.loc 1 117 0 is_stmt 0 discriminator 1
 251 00a6 3249     		ldr	r1, .L85+8
 252 00a8 0D22     		movs	r2, #13
 253 00aa FFF7FEFF 		bl	memcpy
 254              	.LVL28:
 255 00ae 42F29203 		movw	r3, #8338
 256 00b2 6C73     		strb	r4, [r5, #13]
 257 00b4 2521     		movs	r1, #37
 258 00b6 0093     		str	r3, [sp]
 259 00b8 0F20     		movs	r0, #15
 260 00ba 2A46     		mov	r2, r5
 261 00bc 4FF48073 		mov	r3, #256
 262 00c0 FFF7FEFF 		bl	lib_app_call
 263              	.LVL29:
 264 00c4 9420     		movs	r0, #148
 265 00c6 2946     		mov	r1, r5
 266 00c8 FFF7FEFF 		bl	sys_func1
 267              	.LVL30:
 268              	.L17:
 269              	.LBE6:
 102:src/keydlltest.c ****   BYTE tmp[256], mac[16];
 270              		.loc 1 102 0 is_stmt 1 discriminator 1
 271 00cc 0024     		movs	r4, #0
 272              	.LVL31:
 273              	.L23:
 118:src/keydlltest.c ****   for (i = 0; i < MAX_KEY_INSERT; i++) {
ARM GAS  C:\Users\AHMED~1.ELE\AppData\Local\Temp\ccmI3Usi.s 			page 8


 119:src/keydlltest.c ****     memcpy(tmp, KKeyInsCmd[i], sizeof(tmp));
 274              		.loc 1 119 0
 275 00ce 294B     		ldr	r3, .L85+12
 120:src/keydlltest.c ****     ret_val = KDLL_KeyInject(tmp);
 276              		.loc 1 120 0
 277 00d0 0027     		movs	r7, #0
 119:src/keydlltest.c ****     ret_val = KDLL_KeyInject(tmp);
 278              		.loc 1 119 0
 279 00d2 53F82410 		ldr	r1, [r3, r4, lsl #2]
 280 00d6 4FF48072 		mov	r2, #256
 281 00da 06A8     		add	r0, sp, #24
 282 00dc FFF7FEFF 		bl	memcpy
 283              	.LVL32:
 284              		.loc 1 120 0
 285 00e0 0097     		str	r7, [sp]
 286 00e2 7F20     		movs	r0, #127
 287 00e4 0221     		movs	r1, #2
 288 00e6 06AA     		add	r2, sp, #24
 289 00e8 3B46     		mov	r3, r7
 290 00ea FFF7FEFF 		bl	lib_app_call
 291              	.LVL33:
 121:src/keydlltest.c ****     if (ret_val != RESP_OK) {
 292              		.loc 1 121 0
 293 00ee 85B2     		uxth	r5, r0
 294 00f0 002D     		cmp	r5, #0
 295 00f2 45D0     		beq	.L18
 296              	.LVL34:
 297              	.LBB7:
 122:src/keydlltest.c ****       DispLineMW("Injection Failed!", MW_LINE5, MW_SPFONT);
 298              		.loc 1 122 0
 299 00f4 9220     		movs	r0, #146
 300              	.LVL35:
 301 00f6 1221     		movs	r1, #18
 302 00f8 FFF7FEFF 		bl	sys_func1
 303              	.LVL36:
 304 00fc 0646     		mov	r6, r0
 305 00fe 90B1     		cbz	r0, .L19
 306              		.loc 1 122 0 is_stmt 0 discriminator 1
 307 0100 1D49     		ldr	r1, .L85+16
 308 0102 1122     		movs	r2, #17
 309 0104 FFF7FEFF 		bl	memcpy
 310              	.LVL37:
 311 0108 4FF40053 		mov	r3, #8192
 312 010c 7774     		strb	r7, [r6, #17]
 313 010e 2521     		movs	r1, #37
 314 0110 0093     		str	r3, [sp]
 315 0112 0F20     		movs	r0, #15
 316 0114 3246     		mov	r2, r6
 317 0116 4FF4A063 		mov	r3, #1280
 318 011a FFF7FEFF 		bl	lib_app_call
 319              	.LVL38:
 320 011e 9420     		movs	r0, #148
 321 0120 3146     		mov	r1, r6
 322 0122 FFF7FEFF 		bl	sys_func1
 323              	.LVL39:
 324              	.L19:
 325              	.LBE7:
ARM GAS  C:\Users\AHMED~1.ELE\AppData\Local\Temp\ccmI3Usi.s 			page 9


 123:src/keydlltest.c ****       sprintf(tmp, "Idx:%d Ret:%d", i, ret_val);
 326              		.loc 1 123 0 is_stmt 1
 327 0126 2246     		mov	r2, r4
 328 0128 2B46     		mov	r3, r5
 329 012a 1449     		ldr	r1, .L85+20
 330 012c 06A8     		add	r0, sp, #24
 331 012e FFF7FEFF 		bl	sprintf
 332              	.LVL40:
 333              	.LBB8:
 124:src/keydlltest.c ****       DispLineMW(tmp, MW_LINE6, MW_SPFONT);
 334              		.loc 1 124 0
 335 0132 06A8     		add	r0, sp, #24
 336 0134 FFF7FEFF 		bl	strlen
 337              	.LVL41:
 338 0138 0546     		mov	r5, r0
 339              	.LVL42:
 340 013a 691C     		adds	r1, r5, #1
 341 013c 9220     		movs	r0, #146
 342              	.LVL43:
 343 013e FFF7FEFF 		bl	sys_func1
 344              	.LVL44:
 345 0142 0446     		mov	r4, r0
 346              	.LVL45:
 347 0144 0028     		cmp	r0, #0
 348 0146 00F0AB81 		beq	.L37
 349              		.loc 1 124 0 is_stmt 0 discriminator 1
 350 014a 06A9     		add	r1, sp, #24
 351 014c 2A46     		mov	r2, r5
 352 014e FFF7FEFF 		bl	memcpy
 353              	.LVL46:
 354 0152 0023     		movs	r3, #0
 355 0154 0F20     		movs	r0, #15
 356 0156 6355     		strb	r3, [r4, r5]
 357 0158 4FF40053 		mov	r3, #8192
 358 015c 2521     		movs	r1, #37
 359 015e 0093     		str	r3, [sp]
 360 0160 2246     		mov	r2, r4
 361 0162 4FF4C063 		mov	r3, #1536
 362 0166 95E1     		b	.L83
 363              	.L86:
 364              		.align	2
 365              	.L85:
 366 0168 10000000 		.word	.LC2
 367 016c 1C000000 		.word	.LC3
 368 0170 26000000 		.word	.LC4
 369 0174 00000000 		.word	.LANCHOR0
 370 0178 34000000 		.word	.LC5
 371 017c 46000000 		.word	.LC6
 372              	.LVL47:
 373              	.L18:
 374              	.LBE8:
 118:src/keydlltest.c ****     memcpy(tmp, KKeyInsCmd[i], sizeof(tmp));
 375              		.loc 1 118 0 is_stmt 1 discriminator 2
 376 0180 0134     		adds	r4, r4, #1
 377              	.LVL48:
 378 0182 072C     		cmp	r4, #7
 379 0184 A3D1     		bne	.L23
ARM GAS  C:\Users\AHMED~1.ELE\AppData\Local\Temp\ccmI3Usi.s 			page 10


 125:src/keydlltest.c ****       WaitKey(KBD_TIMEOUT);
 126:src/keydlltest.c ****       return;
 127:src/keydlltest.c ****     }
 128:src/keydlltest.c ****   }
 129:src/keydlltest.c ****   ShowKeyStatus();
 380              		.loc 1 129 0
 381 0186 FFF7FEFF 		bl	ShowKeyStatus
 382              	.LVL49:
 383              	.LBB9:
 130:src/keydlltest.c **** 
 131:src/keydlltest.c ****   DispLineMW("Encrypt/Decrypt Test", MW_LINE1, MW_CLRDISP|MW_CENTER|MW_REVERSE|MW_SPFONT);
 384              		.loc 1 131 0
 385 018a 9220     		movs	r0, #146
 386 018c 1521     		movs	r1, #21
 387 018e FFF7FEFF 		bl	sys_func1
 388              	.LVL50:
 389 0192 0446     		mov	r4, r0
 390              	.LVL51:
 391 0194 90B1     		cbz	r0, .L24
 392              		.loc 1 131 0 is_stmt 0 discriminator 1
 393 0196 C549     		ldr	r1, .L87
 394 0198 1422     		movs	r2, #20
 395 019a FFF7FEFF 		bl	memcpy
 396              	.LVL52:
 397 019e 42F29203 		movw	r3, #8338
 398 01a2 2575     		strb	r5, [r4, #20]
 399 01a4 2521     		movs	r1, #37
 400 01a6 0093     		str	r3, [sp]
 401 01a8 0F20     		movs	r0, #15
 402 01aa 2246     		mov	r2, r4
 403 01ac 4FF48073 		mov	r3, #256
 404 01b0 FFF7FEFF 		bl	lib_app_call
 405              	.LVL53:
 406 01b4 9420     		movs	r0, #148
 407 01b6 2146     		mov	r1, r4
 408 01b8 FFF7FEFF 		bl	sys_func1
 409              	.LVL54:
 410              	.L24:
 411              	.LBE9:
 132:src/keydlltest.c ****   ret_val = RESP_OK;
 133:src/keydlltest.c ****   while (1) {
 134:src/keydlltest.c ****     #if (T300==0)&&(T810==0)&&(T1000==0)&&(A5T1000==0) // Test Case Not Apply for T1000
 135:src/keydlltest.c ****     memcpy(tmp, "\x00\x01\x02\x03\x04\x05\x06\x07", 8);
 136:src/keydlltest.c ****     ret_val = KDLL_KeyDecrypt(USE_LEFT|0x06, tmp, 8);
 137:src/keydlltest.c ****     if (ret_val != RESP_OK)
 138:src/keydlltest.c ****       break;
 139:src/keydlltest.c ****     if (memcmp(tmp, "\x0E\x32\x5E\x11\x3D\xFC\xBA\x07", 8)!=0) {
 140:src/keydlltest.c ****       ret_val = 0x61;
 141:src/keydlltest.c ****       break;
 142:src/keydlltest.c ****     }
 143:src/keydlltest.c ****     memcpy(tmp, "\x00\x01\x02\x03\x04\x05\x06\x07", 8);
 144:src/keydlltest.c ****     ret_val = KDLL_KeyDecrypt(USE_THIRD|0x06, tmp, 8);
 145:src/keydlltest.c ****     if (ret_val != RESP_OK)
 146:src/keydlltest.c ****       break;
 147:src/keydlltest.c ****     if (memcmp(tmp, "\x60\xCA\x64\x37\xD6\x2E\x50\xE8", 8)!=0) {
 148:src/keydlltest.c ****       ret_val = 0x63;
 149:src/keydlltest.c ****       break;
ARM GAS  C:\Users\AHMED~1.ELE\AppData\Local\Temp\ccmI3Usi.s 			page 11


 150:src/keydlltest.c ****     }
 151:src/keydlltest.c ****     memcpy(tmp, "\x00\x01\x02\x03\x04\x05\x06\x07", 8);
 152:src/keydlltest.c ****     ret_val = KDLL_KeyEncrypt(USE_LEFT|0x05, tmp, 8);
 153:src/keydlltest.c ****     if (ret_val != RESP_OK)
 154:src/keydlltest.c ****       break;
 155:src/keydlltest.c ****     if (memcmp(tmp, "\xAF\x96\xFE\xAC\xD8\x03\xF8\x81", 8)!=0) {
 156:src/keydlltest.c ****       ret_val = 0x51;
 157:src/keydlltest.c ****       break;
 158:src/keydlltest.c ****     }
 159:src/keydlltest.c ****     memcpy(tmp, "\x00\x01\x02\x03\x04\x05\x06\x07", 8);
 160:src/keydlltest.c ****     ret_val = KDLL_KeyEncrypt(USE_THIRD|0x05, tmp, 8);
 161:src/keydlltest.c ****     if (ret_val != RESP_OK)
 162:src/keydlltest.c ****       break;
 163:src/keydlltest.c ****     if (memcmp(tmp, "\x14\x6D\x33\x64\xF7\xF0\x2B\x3D", 8)!=0) {
 164:src/keydlltest.c ****       ret_val = 0x53;
 165:src/keydlltest.c ****       break;
 166:src/keydlltest.c ****     }
 167:src/keydlltest.c ****     #endif //(T300==0)&&(T810==0)&&(T1000==0)&&(A5T1000==0)
 168:src/keydlltest.c **** 
 169:src/keydlltest.c ****     memcpy(tmp, "\x00\x01\x02\x03\x04\x05\x06\x07\x08\x09\x0A\x0B\x0C\x0D\x0E\x0F", 16);
 412              		.loc 1 169 0 is_stmt 1
 413 01bc 1025     		movs	r5, #16
 414 01be BC49     		ldr	r1, .L87+4
 415 01c0 2A46     		mov	r2, r5
 416 01c2 06A8     		add	r0, sp, #24
 417 01c4 FFF7FEFF 		bl	memcpy
 418              	.LVL55:
 170:src/keydlltest.c ****     ret_val = KDLL_Key3Decrypt(0x04, tmp, 16);
 419              		.loc 1 170 0
 420 01c8 0095     		str	r5, [sp]
 421 01ca 7F20     		movs	r0, #127
 422 01cc 0621     		movs	r1, #6
 423 01ce 0422     		movs	r2, #4
 424 01d0 06AB     		add	r3, sp, #24
 425 01d2 FFF7FEFF 		bl	lib_app_call
 426              	.LVL56:
 427 01d6 84B2     		uxth	r4, r0
 428              	.LVL57:
 171:src/keydlltest.c ****     if (ret_val != RESP_OK)
 429              		.loc 1 171 0
 430 01d8 002C     		cmp	r4, #0
 431 01da 40F09081 		bne	.L25
 172:src/keydlltest.c ****       break;
 173:src/keydlltest.c ****     if (memcmp(tmp, "\xDC\x0A\x98\x94\xC4\xE5\xB4\x26\x36\xFC\xBA\x6B\x07\xC8\x7A\xD1", 16)!=0) {
 432              		.loc 1 173 0
 433 01de 06A8     		add	r0, sp, #24
 434 01e0 B449     		ldr	r1, .L87+8
 435 01e2 2A46     		mov	r2, r5
 436 01e4 FFF7FEFF 		bl	memcmp
 437              	.LVL58:
 438 01e8 0028     		cmp	r0, #0
 439 01ea 40F08181 		bne	.L39
 174:src/keydlltest.c ****       ret_val = 0x84;
 175:src/keydlltest.c ****       break;
 176:src/keydlltest.c ****     }
 177:src/keydlltest.c **** 
 178:src/keydlltest.c ****     memcpy(tmp, "\x00\x01\x02\x03\x04\x05\x06\x07\x08\x09\x0A\x0B\x0C\x0D\x0E\x0F", 16);
ARM GAS  C:\Users\AHMED~1.ELE\AppData\Local\Temp\ccmI3Usi.s 			page 12


 440              		.loc 1 178 0
 441 01ee B049     		ldr	r1, .L87+4
 442 01f0 2A46     		mov	r2, r5
 443 01f2 06A8     		add	r0, sp, #24
 444 01f4 FFF7FEFF 		bl	memcpy
 445              	.LVL59:
 179:src/keydlltest.c ****     ret_val = KDLL_Key3Decrypt(0x06, tmp, 16);
 446              		.loc 1 179 0
 447 01f8 0621     		movs	r1, #6
 448 01fa 0095     		str	r5, [sp]
 449 01fc 7F20     		movs	r0, #127
 450 01fe 0A46     		mov	r2, r1
 451 0200 06AB     		add	r3, sp, #24
 452 0202 FFF7FEFF 		bl	lib_app_call
 453              	.LVL60:
 454 0206 84B2     		uxth	r4, r0
 455              	.LVL61:
 180:src/keydlltest.c ****     if (ret_val != RESP_OK)
 456              		.loc 1 180 0
 457 0208 002C     		cmp	r4, #0
 458 020a 40F07881 		bne	.L25
 181:src/keydlltest.c ****       break;
 182:src/keydlltest.c ****     if (memcmp(tmp, "\x48\x93\x8C\xA3\x63\x28\x1A\x90\x70\x39\x11\xA2\xA8\x0E\x5E\xEC", 16)!=0) {
 459              		.loc 1 182 0
 460 020e 06A8     		add	r0, sp, #24
 461 0210 A949     		ldr	r1, .L87+12
 462 0212 2A46     		mov	r2, r5
 463 0214 FFF7FEFF 		bl	memcmp
 464              	.LVL62:
 465 0218 0028     		cmp	r0, #0
 466 021a 40F06B81 		bne	.L40
 183:src/keydlltest.c ****       ret_val = 0x86;
 184:src/keydlltest.c ****       break;
 185:src/keydlltest.c ****     }
 186:src/keydlltest.c **** 
 187:src/keydlltest.c ****     memcpy(tmp, "\x00\x01\x02\x03\x04\x05\x06\x07\x08\x09\x0A\x0B\x0C\x0D\x0E\x0F", 16);
 467              		.loc 1 187 0
 468 021e A449     		ldr	r1, .L87+4
 469 0220 2A46     		mov	r2, r5
 470 0222 06A8     		add	r0, sp, #24
 471 0224 FFF7FEFF 		bl	memcpy
 472              	.LVL63:
 188:src/keydlltest.c ****     ret_val = KDLL_Key3Encrypt(0x03, tmp, 16);
 473              		.loc 1 188 0
 474 0228 0095     		str	r5, [sp]
 475 022a 7F20     		movs	r0, #127
 476 022c 0521     		movs	r1, #5
 477 022e 0322     		movs	r2, #3
 478 0230 06AB     		add	r3, sp, #24
 479 0232 FFF7FEFF 		bl	lib_app_call
 480              	.LVL64:
 481 0236 84B2     		uxth	r4, r0
 482              	.LVL65:
 189:src/keydlltest.c ****     if (ret_val != RESP_OK)
 483              		.loc 1 189 0
 484 0238 002C     		cmp	r4, #0
 485 023a 40F06081 		bne	.L25
ARM GAS  C:\Users\AHMED~1.ELE\AppData\Local\Temp\ccmI3Usi.s 			page 13


 190:src/keydlltest.c ****       break;
 191:src/keydlltest.c ****     if (memcmp(tmp, "\x96\x06\x03\x2E\xDB\xF0\xBA\x21\x4D\x5E\x12\xCB\x04\x6B\x45\x67", 16)!=0) {
 486              		.loc 1 191 0
 487 023e 06A8     		add	r0, sp, #24
 488 0240 9E49     		ldr	r1, .L87+16
 489 0242 2A46     		mov	r2, r5
 490 0244 FFF7FEFF 		bl	memcmp
 491              	.LVL66:
 492 0248 0028     		cmp	r0, #0
 493 024a 40F05581 		bne	.L41
 192:src/keydlltest.c ****       ret_val = 0x83;
 193:src/keydlltest.c ****       break;
 194:src/keydlltest.c ****     }
 195:src/keydlltest.c **** 
 196:src/keydlltest.c ****     memcpy(tmp, "\x00\x01\x02\x03\x04\x05\x06\x07\x08\x09\x0A\x0B\x0C\x0D\x0E\x0F", 16);
 494              		.loc 1 196 0
 495 024e 9849     		ldr	r1, .L87+4
 496 0250 2A46     		mov	r2, r5
 497 0252 06A8     		add	r0, sp, #24
 498 0254 FFF7FEFF 		bl	memcpy
 499              	.LVL67:
 197:src/keydlltest.c ****     ret_val = KDLL_Key3Encrypt(0x05, tmp, 16);
 500              		.loc 1 197 0
 501 0258 0521     		movs	r1, #5
 502 025a 0095     		str	r5, [sp]
 503 025c 7F20     		movs	r0, #127
 504 025e 0A46     		mov	r2, r1
 505 0260 06AB     		add	r3, sp, #24
 506 0262 FFF7FEFF 		bl	lib_app_call
 507              	.LVL68:
 508 0266 84B2     		uxth	r4, r0
 509              	.LVL69:
 198:src/keydlltest.c ****     if (ret_val != RESP_OK)
 510              		.loc 1 198 0
 511 0268 002C     		cmp	r4, #0
 512 026a 40F04881 		bne	.L25
 199:src/keydlltest.c ****       break;
 200:src/keydlltest.c ****     if (memcmp(tmp, "\x53\x32\x6E\x81\x2B\x86\x40\x5A\xE1\x8B\x61\x5C\x72\xE4\x9F\xA2", 16)!=0) {
 513              		.loc 1 200 0
 514 026e 06A8     		add	r0, sp, #24
 515 0270 9349     		ldr	r1, .L87+20
 516 0272 2A46     		mov	r2, r5
 517 0274 FFF7FEFF 		bl	memcmp
 518              	.LVL70:
 519 0278 0446     		mov	r4, r0
 520              	.LVL71:
 521 027a 0028     		cmp	r0, #0
 522 027c 40F03E81 		bne	.L42
 201:src/keydlltest.c ****       ret_val = 0x85;
 202:src/keydlltest.c ****       break;
 203:src/keydlltest.c ****     }
 204:src/keydlltest.c **** 
 205:src/keydlltest.c ****     DispClrBelowMW(MW_LINE3);
 523              		.loc 1 205 0
 524 0280 0090     		str	r0, [sp]
 525 0282 2321     		movs	r1, #35
 526 0284 4FF44072 		mov	r2, #768
ARM GAS  C:\Users\AHMED~1.ELE\AppData\Local\Temp\ccmI3Usi.s 			page 14


 527 0288 2346     		mov	r3, r4
 528 028a 0F20     		movs	r0, #15
 529 028c FFF7FEFF 		bl	lib_app_call
 530              	.LVL72:
 531              	.LBB10:
 206:src/keydlltest.c ****     DispLineMW("Test Success!", MW_LINE5, MW_CENTER|MW_SPFONT);
 532              		.loc 1 206 0
 533 0290 9220     		movs	r0, #146
 534 0292 0E21     		movs	r1, #14
 535 0294 FFF7FEFF 		bl	sys_func1
 536              	.LVL73:
 537 0298 0546     		mov	r5, r0
 538 029a 90B1     		cbz	r0, .L26
 539              		.loc 1 206 0 is_stmt 0 discriminator 1
 540 029c 8949     		ldr	r1, .L87+24
 541 029e 0D22     		movs	r2, #13
 542 02a0 FFF7FEFF 		bl	memcpy
 543              	.LVL74:
 544 02a4 42F20203 		movw	r3, #8194
 545 02a8 6C73     		strb	r4, [r5, #13]
 546 02aa 2521     		movs	r1, #37
 547 02ac 0093     		str	r3, [sp]
 548 02ae 0F20     		movs	r0, #15
 549 02b0 2A46     		mov	r2, r5
 550 02b2 4FF4A063 		mov	r3, #1280
 551 02b6 FFF7FEFF 		bl	lib_app_call
 552              	.LVL75:
 553 02ba 9420     		movs	r0, #148
 554 02bc 2946     		mov	r1, r5
 555 02be FFF7FEFF 		bl	sys_func1
 556              	.LVL76:
 557              	.L26:
 558              	.LBE10:
 207:src/keydlltest.c ****     ret_val = RESP_OK;
 208:src/keydlltest.c ****     WaitKey(KBD_TIMEOUT);
 559              		.loc 1 208 0 is_stmt 1
 560 02c2 42F22830 		movw	r0, #9000
 561 02c6 FFF7FEFF 		bl	WaitKey
 562              	.LVL77:
 563              	.LBB11:
 209:src/keydlltest.c ****     break;
 210:src/keydlltest.c ****   }
 211:src/keydlltest.c ****   if (ret_val != RESP_OK) {
 212:src/keydlltest.c ****     DispClrBelowMW(MW_LINE3);
 213:src/keydlltest.c ****     sprintf(tmp, "Test Failed! %X", ret_val);
 214:src/keydlltest.c ****     DispLineMW(tmp, MW_LINE5, MW_CENTER|MW_SPFONT);
 215:src/keydlltest.c ****     WaitKey(KBD_TIMEOUT);
 216:src/keydlltest.c ****     return;
 217:src/keydlltest.c ****   }
 218:src/keydlltest.c **** 
 219:src/keydlltest.c ****   #if (T300==0)&&(T810==0)&&(T1000==0)&&(A5T1000==0)
 220:src/keydlltest.c ****   // !!Current Keydll do not support inject MAC key.
 221:src/keydlltest.c ****   DispLineMW("MAC Test", MW_LINE1, MW_CLRDISP|MW_CENTER|MW_REVERSE|MW_SPFONT);
 222:src/keydlltest.c ****   mac[0] = 0x01;
 223:src/keydlltest.c ****   memcpy(tmp, "\xAA\xAA\xAA\xAA\xAA\xAA\xAA\xAA", 8);
 224:src/keydlltest.c ****   ret_val = RESP_OK;
 225:src/keydlltest.c ****   if ((KDLL_X99CalMAC(mac, tmp, 8) != RESP_OK) ||
ARM GAS  C:\Users\AHMED~1.ELE\AppData\Local\Temp\ccmI3Usi.s 			page 15


 226:src/keydlltest.c ****       (memcmp(mac, "\x08\x46\x33\x28\x75\x3D\xC5\x70", 8) != 0) ) {
 227:src/keydlltest.c ****     DispLineMW("Test Failed!", MW_LINE5, MW_CENTER|MW_SPFONT);
 228:src/keydlltest.c ****     WaitKey(KBD_TIMEOUT);
 229:src/keydlltest.c ****     return;
 230:src/keydlltest.c ****   }
 231:src/keydlltest.c ****   DispClrBelowMW(MW_LINE3);
 232:src/keydlltest.c ****   DispLineMW("Test Success!", MW_LINE5, MW_CENTER|MW_SPFONT);
 233:src/keydlltest.c ****   WaitKey(KBD_TIMEOUT);
 234:src/keydlltest.c ****   #endif
 235:src/keydlltest.c **** 
 236:src/keydlltest.c **** 
 237:src/keydlltest.c ****   DispLineMW("GetX98PIN Test", MW_LINE1, MW_CLRDISP|MW_CENTER|MW_REVERSE|MW_SPFONT);
 564              		.loc 1 237 0
 565 02ca 9220     		movs	r0, #146
 566 02cc 0F21     		movs	r1, #15
 567 02ce FFF7FEFF 		bl	sys_func1
 568              	.LVL78:
 569 02d2 0446     		mov	r4, r0
 570 02d4 98B1     		cbz	r0, .L28
 571              		.loc 1 237 0 is_stmt 0 discriminator 1
 572 02d6 7C49     		ldr	r1, .L87+28
 573 02d8 0E22     		movs	r2, #14
 574 02da FFF7FEFF 		bl	memcpy
 575              	.LVL79:
 576 02de 0023     		movs	r3, #0
 577 02e0 2521     		movs	r1, #37
 578 02e2 A373     		strb	r3, [r4, #14]
 579 02e4 42F29203 		movw	r3, #8338
 580 02e8 0F20     		movs	r0, #15
 581 02ea 0093     		str	r3, [sp]
 582 02ec 2246     		mov	r2, r4
 583 02ee 4FF48073 		mov	r3, #256
 584 02f2 FFF7FEFF 		bl	lib_app_call
 585              	.LVL80:
 586 02f6 9420     		movs	r0, #148
 587 02f8 2146     		mov	r1, r4
 588 02fa FFF7FEFF 		bl	sys_func1
 589              	.LVL81:
 590              	.L28:
 591              	.LBE11:
 238:src/keydlltest.c ****   memcpy(mac, "\x01\x02\x03\x04\x05\x06\x07\x08\xFF", 9);
 592              		.loc 1 238 0 is_stmt 1
 593 02fe 7349     		ldr	r1, .L87+32
 594 0300 0922     		movs	r2, #9
 595 0302 02A8     		add	r0, sp, #8
 596 0304 FFF7FEFF 		bl	memcpy
 597              	.LVL82:
 239:src/keydlltest.c ****   DispGotoMW(MW_LINE3, MW_SPFONT);
 598              		.loc 1 239 0
 599 0308 0023     		movs	r3, #0
 600 030a 4FF44072 		mov	r2, #768
 601 030e 0093     		str	r3, [sp]
 602 0310 2421     		movs	r1, #36
 603 0312 4FF40053 		mov	r3, #8192
 604 0316 0F20     		movs	r0, #15
 605 0318 FFF7FEFF 		bl	lib_app_call
 606              	.LVL83:
ARM GAS  C:\Users\AHMED~1.ELE\AppData\Local\Temp\ccmI3Usi.s 			page 16


 240:src/keydlltest.c ****   strcpy(tmp, "Ent PIN(123456):");
 607              		.loc 1 240 0
 608 031c 6C49     		ldr	r1, .L87+36
 609 031e 06A8     		add	r0, sp, #24
 610 0320 FFF7FEFF 		bl	strcpy
 611              	.LVL84:
 241:src/keydlltest.c ****   ret_val = RESP_OK;
 242:src/keydlltest.c ****   if ((KDLL_GetX98PIN(mac, tmp, 0x01) != RESP_OK) ||
 612              		.loc 1 242 0
 613 0324 0123     		movs	r3, #1
 614 0326 7F20     		movs	r0, #127
 615 0328 0093     		str	r3, [sp]
 616 032a 0721     		movs	r1, #7
 617 032c 02AA     		add	r2, sp, #8
 618 032e 06AB     		add	r3, sp, #24
 619 0330 FFF7FEFF 		bl	lib_app_call
 620              	.LVL85:
 621 0334 80B2     		uxth	r0, r0
 622 0336 0028     		cmp	r0, #0
 623 0338 79D1     		bne	.L34
 243:src/keydlltest.c ****       (memcmp(mac, "\xF0\x0A\x4F\x80\x9B\x22\xB6\x44", 8) != 0) ) {
 624              		.loc 1 243 0 discriminator 1
 625 033a 02A8     		add	r0, sp, #8
 626 033c 6549     		ldr	r1, .L87+40
 627 033e 0822     		movs	r2, #8
 628 0340 FFF7FEFF 		bl	memcmp
 629              	.LVL86:
 242:src/keydlltest.c ****       (memcmp(mac, "\xF0\x0A\x4F\x80\x9B\x22\xB6\x44", 8) != 0) ) {
 630              		.loc 1 242 0 discriminator 1
 631 0344 0446     		mov	r4, r0
 632              	.LVL87:
 633 0346 0028     		cmp	r0, #0
 634 0348 71D1     		bne	.L34
 244:src/keydlltest.c ****     DispClrBelowMW(MW_LINE3);
 245:src/keydlltest.c ****     DispLineMW("Test Failed!", MW_LINE5, MW_CENTER|MW_SPFONT);
 246:src/keydlltest.c ****     WaitKey(KBD_TIMEOUT);
 247:src/keydlltest.c ****     return;
 248:src/keydlltest.c ****   }
 249:src/keydlltest.c ****   DispClrBelowMW(MW_LINE3);
 635              		.loc 1 249 0
 636 034a 0090     		str	r0, [sp]
 637 034c 2321     		movs	r1, #35
 638 034e 4FF44072 		mov	r2, #768
 639 0352 2346     		mov	r3, r4
 640 0354 0F20     		movs	r0, #15
 641 0356 FFF7FEFF 		bl	lib_app_call
 642              	.LVL88:
 643              	.LBB12:
 250:src/keydlltest.c ****   DispLineMW("Test Success!", MW_LINE5, MW_CENTER|MW_SPFONT);
 644              		.loc 1 250 0
 645 035a 9220     		movs	r0, #146
 646 035c 0E21     		movs	r1, #14
 647 035e FFF7FEFF 		bl	sys_func1
 648              	.LVL89:
 649 0362 0546     		mov	r5, r0
 650              	.LVL90:
 651 0364 90B1     		cbz	r0, .L32
ARM GAS  C:\Users\AHMED~1.ELE\AppData\Local\Temp\ccmI3Usi.s 			page 17


 652              		.loc 1 250 0 is_stmt 0 discriminator 1
 653 0366 5749     		ldr	r1, .L87+24
 654 0368 0D22     		movs	r2, #13
 655 036a FFF7FEFF 		bl	memcpy
 656              	.LVL91:
 657 036e 42F20203 		movw	r3, #8194
 658 0372 6C73     		strb	r4, [r5, #13]
 659 0374 2521     		movs	r1, #37
 660 0376 0093     		str	r3, [sp]
 661 0378 0F20     		movs	r0, #15
 662 037a 2A46     		mov	r2, r5
 663 037c 4FF4A063 		mov	r3, #1280
 664 0380 FFF7FEFF 		bl	lib_app_call
 665              	.LVL92:
 666 0384 9420     		movs	r0, #148
 667 0386 2946     		mov	r1, r5
 668 0388 FFF7FEFF 		bl	sys_func1
 669              	.LVL93:
 670              	.L32:
 671              	.LBE12:
 251:src/keydlltest.c ****   WaitKey(KBD_TIMEOUT);
 672              		.loc 1 251 0 is_stmt 1
 673 038c 42F22830 		movw	r0, #9000
 674 0390 FFF7FEFF 		bl	WaitKey
 675              	.LVL94:
 676              	.LBB13:
 252:src/keydlltest.c **** 
 253:src/keydlltest.c ****   DispLineMW("DUKPTPIN Test", MW_LINE1, MW_CLRDISP|MW_CENTER|MW_REVERSE|MW_SPFONT);
 677              		.loc 1 253 0
 678 0394 9220     		movs	r0, #146
 679 0396 0E21     		movs	r1, #14
 680 0398 FFF7FEFF 		bl	sys_func1
 681              	.LVL95:
 682 039c 0446     		mov	r4, r0
 683 039e 98B1     		cbz	r0, .L33
 684              		.loc 1 253 0 is_stmt 0 discriminator 1
 685 03a0 4D49     		ldr	r1, .L87+44
 686 03a2 0D22     		movs	r2, #13
 687 03a4 FFF7FEFF 		bl	memcpy
 688              	.LVL96:
 689 03a8 0023     		movs	r3, #0
 690 03aa 2521     		movs	r1, #37
 691 03ac 6373     		strb	r3, [r4, #13]
 692 03ae 42F29203 		movw	r3, #8338
 693 03b2 0F20     		movs	r0, #15
 694 03b4 0093     		str	r3, [sp]
 695 03b6 2246     		mov	r2, r4
 696 03b8 4FF48073 		mov	r3, #256
 697 03bc FFF7FEFF 		bl	lib_app_call
 698              	.LVL97:
 699 03c0 9420     		movs	r0, #148
 700 03c2 2146     		mov	r1, r4
 701 03c4 FFF7FEFF 		bl	sys_func1
 702              	.LVL98:
 703              	.L33:
 704              	.LBE13:
 254:src/keydlltest.c ****   memcpy(tmp, "\x10\x01\x6A\xC2\x92\xFA\xA1\x31\x5B\x4D\x85\x8A\xB3\xA3\xD7\xD5\x93\x3A\xFF\xFF\x98
ARM GAS  C:\Users\AHMED~1.ELE\AppData\Local\Temp\ccmI3Usi.s 			page 18


 255:src/keydlltest.c ****   KDLL_DukptKeyInject(tmp);
 705              		.loc 1 255 0 is_stmt 1
 706 03c8 0024     		movs	r4, #0
 707              	.LVL99:
 254:src/keydlltest.c ****   memcpy(tmp, "\x10\x01\x6A\xC2\x92\xFA\xA1\x31\x5B\x4D\x85\x8A\xB3\xA3\xD7\xD5\x93\x3A\xFF\xFF\x98
 708              		.loc 1 254 0
 709 03ca 4449     		ldr	r1, .L87+48
 710 03cc 1C22     		movs	r2, #28
 711 03ce 06A8     		add	r0, sp, #24
 712 03d0 FFF7FEFF 		bl	memcpy
 713              	.LVL100:
 714              		.loc 1 255 0
 715 03d4 0094     		str	r4, [sp]
 716 03d6 7F20     		movs	r0, #127
 717 03d8 0C21     		movs	r1, #12
 718 03da 06AA     		add	r2, sp, #24
 719 03dc 2346     		mov	r3, r4
 720 03de FFF7FEFF 		bl	lib_app_call
 721              	.LVL101:
 722              	.L36:
 256:src/keydlltest.c **** 
 257:src/keydlltest.c ****   for (i = 0; i < 3; i++) {
 258:src/keydlltest.c ****     memcpy(mac, "\x40\x12\x34\x56\x78\x90\x9F", 7);
 723              		.loc 1 258 0
 724 03e2 0722     		movs	r2, #7
 725 03e4 3E49     		ldr	r1, .L87+52
 726 03e6 02A8     		add	r0, sp, #8
 727 03e8 FFF7FEFF 		bl	memcpy
 728              	.LVL102:
 259:src/keydlltest.c ****     strcpy(tmp, "Ent PIN(1234):");
 729              		.loc 1 259 0
 730 03ec 3D49     		ldr	r1, .L87+56
 731 03ee 06A8     		add	r0, sp, #24
 732 03f0 FFF7FEFF 		bl	strcpy
 733              	.LVL103:
 260:src/keydlltest.c ****     ret_val = RESP_OK;
 261:src/keydlltest.c ****     DispGotoMW(MW_LINE3, MW_SPFONT);
 734              		.loc 1 261 0
 735 03f4 0023     		movs	r3, #0
 736 03f6 2421     		movs	r1, #36
 737 03f8 0093     		str	r3, [sp]
 738 03fa 4FF44072 		mov	r2, #768
 739 03fe 4FF40053 		mov	r3, #8192
 740 0402 0F20     		movs	r0, #15
 741 0404 FFF7FEFF 		bl	lib_app_call
 742              	.LVL104:
 262:src/keydlltest.c ****     if ((KDLL_DukptGetPin(mac, tmp, 1) != RESP_OK) ||
 743              		.loc 1 262 0
 744 0408 0123     		movs	r3, #1
 745 040a 7F20     		movs	r0, #127
 746 040c 0093     		str	r3, [sp]
 747 040e 0D21     		movs	r1, #13
 748 0410 02AA     		add	r2, sp, #8
 749 0412 06AB     		add	r3, sp, #24
 750 0414 FFF7FEFF 		bl	lib_app_call
 751              	.LVL105:
 752 0418 80B2     		uxth	r0, r0
ARM GAS  C:\Users\AHMED~1.ELE\AppData\Local\Temp\ccmI3Usi.s 			page 19


 753 041a 40B9     		cbnz	r0, .L34
 263:src/keydlltest.c ****         (memcmp(mac, KDukptPinResult[i], 8) != 0) ) {
 754              		.loc 1 263 0 discriminator 1
 755 041c 324B     		ldr	r3, .L87+60
 756 041e 02A8     		add	r0, sp, #8
 757 0420 53F82410 		ldr	r1, [r3, r4, lsl #2]
 758 0424 0822     		movs	r2, #8
 759 0426 FFF7FEFF 		bl	memcmp
 760              	.LVL106:
 262:src/keydlltest.c ****     if ((KDLL_DukptGetPin(mac, tmp, 1) != RESP_OK) ||
 761              		.loc 1 262 0 discriminator 1
 762 042a 0546     		mov	r5, r0
 763 042c A0B1     		cbz	r0, .L35
 764              	.LVL107:
 765              	.L34:
 264:src/keydlltest.c ****       DispClrBelowMW(MW_LINE3);
 766              		.loc 1 264 0
 767 042e 0025     		movs	r5, #0
 768 0430 2321     		movs	r1, #35
 769 0432 4FF44072 		mov	r2, #768
 770 0436 2B46     		mov	r3, r5
 771 0438 0095     		str	r5, [sp]
 772 043a 0F20     		movs	r0, #15
 773 043c FFF7FEFF 		bl	lib_app_call
 774              	.LVL108:
 775              	.LBB14:
 265:src/keydlltest.c ****       DispLineMW("Test Failed!", MW_LINE5, MW_CENTER|MW_SPFONT);
 776              		.loc 1 265 0
 777 0440 9220     		movs	r0, #146
 778 0442 0D21     		movs	r1, #13
 779 0444 FFF7FEFF 		bl	sys_func1
 780              	.LVL109:
 781 0448 0446     		mov	r4, r0
 782 044a 48B3     		cbz	r0, .L37
 783              		.loc 1 265 0 is_stmt 0 discriminator 1
 784 044c 2749     		ldr	r1, .L87+64
 785 044e 0C22     		movs	r2, #12
 786 0450 FFF7FEFF 		bl	memcpy
 787              	.LVL110:
 788 0454 2573     		strb	r5, [r4, #12]
 789 0456 15E0     		b	.L84
 790              	.LVL111:
 791              	.L35:
 792              	.LBE14:
 257:src/keydlltest.c ****     memcpy(mac, "\x40\x12\x34\x56\x78\x90\x9F", 7);
 793              		.loc 1 257 0 is_stmt 1 discriminator 2
 794 0458 0134     		adds	r4, r4, #1
 795              	.LVL112:
 796 045a 032C     		cmp	r4, #3
 797 045c C1D1     		bne	.L36
 266:src/keydlltest.c ****       WaitKey(KBD_TIMEOUT);
 267:src/keydlltest.c ****       return;
 268:src/keydlltest.c ****     }
 269:src/keydlltest.c ****   }
 270:src/keydlltest.c ****   DispClrBelowMW(MW_LINE3);
 798              		.loc 1 270 0
 799 045e 0090     		str	r0, [sp]
ARM GAS  C:\Users\AHMED~1.ELE\AppData\Local\Temp\ccmI3Usi.s 			page 20


 800 0460 2321     		movs	r1, #35
 801 0462 4FF44072 		mov	r2, #768
 802 0466 2B46     		mov	r3, r5
 803 0468 0F20     		movs	r0, #15
 804 046a FFF7FEFF 		bl	lib_app_call
 805              	.LVL113:
 806              	.LBB15:
 271:src/keydlltest.c ****   DispLineMW("Test Success!", MW_LINE5, MW_CENTER|MW_SPFONT);
 807              		.loc 1 271 0
 808 046e 9220     		movs	r0, #146
 809 0470 0E21     		movs	r1, #14
 810 0472 FFF7FEFF 		bl	sys_func1
 811              	.LVL114:
 812 0476 0446     		mov	r4, r0
 813              	.LVL115:
 814 0478 90B1     		cbz	r0, .L37
 815              		.loc 1 271 0 is_stmt 0 discriminator 1
 816 047a 1249     		ldr	r1, .L87+24
 817 047c 0D22     		movs	r2, #13
 818 047e FFF7FEFF 		bl	memcpy
 819              	.LVL116:
 820 0482 6573     		strb	r5, [r4, #13]
 821              	.LVL117:
 822              	.L84:
 823 0484 42F20203 		movw	r3, #8194
 824 0488 0F20     		movs	r0, #15
 825 048a 0093     		str	r3, [sp]
 826 048c 2521     		movs	r1, #37
 827 048e 2246     		mov	r2, r4
 828 0490 4FF4A063 		mov	r3, #1280
 829              	.LVL118:
 830              	.L83:
 831 0494 FFF7FEFF 		bl	lib_app_call
 832              	.LVL119:
 833 0498 9420     		movs	r0, #148
 834 049a 2146     		mov	r1, r4
 835 049c FFF7FEFF 		bl	sys_func1
 836              	.LVL120:
 837              	.L37:
 838              	.LBE15:
 272:src/keydlltest.c ****   WaitKey(KBD_TIMEOUT);
 839              		.loc 1 272 0 is_stmt 1
 840 04a0 42F22830 		movw	r0, #9000
 841 04a4 FFF7FEFF 		bl	WaitKey
 842              	.LVL121:
 273:src/keydlltest.c **** }
 843              		.loc 1 273 0
 844 04a8 47B0     		add	sp, sp, #284
 845              		.cfi_remember_state
 846              		.cfi_def_cfa_offset 20
 847              		@ sp needed
 848 04aa F0BD     		pop	{r4, r5, r6, r7, pc}
 849              	.L88:
 850              		.align	2
 851              	.L87:
 852 04ac 54000000 		.word	.LC7
 853 04b0 1C000000 		.word	.LANCHOR0+28
ARM GAS  C:\Users\AHMED~1.ELE\AppData\Local\Temp\ccmI3Usi.s 			page 21


 854 04b4 69000000 		.word	.LC9
 855 04b8 7A000000 		.word	.LC10
 856 04bc 8B000000 		.word	.LC11
 857 04c0 9C000000 		.word	.LC12
 858 04c4 AD000000 		.word	.LC13
 859 04c8 BB000000 		.word	.LC14
 860 04cc CA000000 		.word	.LC15
 861 04d0 D4000000 		.word	.LC16
 862 04d4 E5000000 		.word	.LC17
 863 04d8 FB000000 		.word	.LC19
 864 04dc 2D000000 		.word	.LANCHOR0+45
 865 04e0 09010000 		.word	.LC21
 866 04e4 11010000 		.word	.LC22
 867 04e8 4C000000 		.word	.LANCHOR0+76
 868 04ec EE000000 		.word	.LC18
 869              	.LVL122:
 870              	.L39:
 871              		.cfi_restore_state
 174:src/keydlltest.c ****       break;
 872              		.loc 1 174 0
 873 04f0 8424     		movs	r4, #132
 874              	.LVL123:
 875 04f2 04E0     		b	.L25
 876              	.LVL124:
 877              	.L40:
 183:src/keydlltest.c ****       break;
 878              		.loc 1 183 0
 879 04f4 8624     		movs	r4, #134
 880              	.LVL125:
 881 04f6 02E0     		b	.L25
 882              	.LVL126:
 883              	.L41:
 192:src/keydlltest.c ****       break;
 884              		.loc 1 192 0
 885 04f8 8324     		movs	r4, #131
 886              	.LVL127:
 887 04fa 00E0     		b	.L25
 888              	.L42:
 201:src/keydlltest.c ****       break;
 889              		.loc 1 201 0
 890 04fc 8524     		movs	r4, #133
 891              	.L25:
 892              	.LVL128:
 212:src/keydlltest.c ****     sprintf(tmp, "Test Failed! %X", ret_val);
 893              		.loc 1 212 0
 894 04fe 0026     		movs	r6, #0
 895 0500 3346     		mov	r3, r6
 896 0502 2321     		movs	r1, #35
 897 0504 4FF44072 		mov	r2, #768
 898 0508 0096     		str	r6, [sp]
 899 050a 0F20     		movs	r0, #15
 900 050c FFF7FEFF 		bl	lib_app_call
 901              	.LVL129:
 213:src/keydlltest.c ****     DispLineMW(tmp, MW_LINE5, MW_CENTER|MW_SPFONT);
 902              		.loc 1 213 0
 903 0510 2246     		mov	r2, r4
 904 0512 0A49     		ldr	r1, .L89
ARM GAS  C:\Users\AHMED~1.ELE\AppData\Local\Temp\ccmI3Usi.s 			page 22


 905 0514 06A8     		add	r0, sp, #24
 906 0516 FFF7FEFF 		bl	sprintf
 907              	.LVL130:
 908              	.LBB16:
 214:src/keydlltest.c ****     WaitKey(KBD_TIMEOUT);
 909              		.loc 1 214 0
 910 051a 06A8     		add	r0, sp, #24
 911 051c FFF7FEFF 		bl	strlen
 912              	.LVL131:
 913 0520 0546     		mov	r5, r0
 914              	.LVL132:
 915 0522 691C     		adds	r1, r5, #1
 916 0524 9220     		movs	r0, #146
 917              	.LVL133:
 918 0526 FFF7FEFF 		bl	sys_func1
 919              	.LVL134:
 920 052a 0446     		mov	r4, r0
 921              	.LVL135:
 922 052c 0028     		cmp	r0, #0
 923 052e B7D0     		beq	.L37
 214:src/keydlltest.c ****     WaitKey(KBD_TIMEOUT);
 924              		.loc 1 214 0 is_stmt 0 discriminator 1
 925 0530 06A9     		add	r1, sp, #24
 926 0532 2A46     		mov	r2, r5
 927 0534 FFF7FEFF 		bl	memcpy
 928              	.LVL136:
 929 0538 6655     		strb	r6, [r4, r5]
 930 053a A3E7     		b	.L84
 931              	.L90:
 932              		.align	2
 933              	.L89:
 934 053c 20010000 		.word	.LC23
 935              	.LBE16:
 936              		.cfi_endproc
 937              	.LFE1:
 938              		.size	KeyDllTest, .-KeyDllTest
 939              		.section	.rodata
 940              		.align	2
 941              		.set	.LANCHOR0,. + 0
 942              		.type	KKeyInsCmd, %object
 943              		.size	KKeyInsCmd, 28
 944              	KKeyInsCmd:
 945 0000 58000000 		.word	.LC27
 946 0004 65000000 		.word	.LC28
 947 0008 75000000 		.word	.LC29
 948 000c 92000000 		.word	.LC30
 949 0010 A7000000 		.word	.LC31
 950 0014 BC000000 		.word	.LC32
 951 0018 D9000000 		.word	.LC33
 952              	.LC8:
 953 001c 00010203 		.ascii	"\000\001\002\003\004\005\006\007\010\011\012\013\014"
 953      04050607 
 953      08090A0B 
 953      0C
 954 0029 0D0E0F00 		.ascii	"\015\016\017\000"
 955              	.LC20:
 956 002d 10016AC2 		.ascii	"\020\001j\302\222\372\2411[M\205\212\263\243\327\325"
ARM GAS  C:\Users\AHMED~1.ELE\AppData\Local\Temp\ccmI3Usi.s 			page 23


 956      92FAA131 
 956      5B4D858A 
 956      B3A3D7D5 
 957 003d 933AFFFF 		.ascii	"\223:\377\377\230vT2\020\340\000\000\000"
 957      98765432 
 957      10E00000 
 957      00
 958 004a 0000     		.space	2
 959              		.type	KDukptPinResult, %object
 960              		.size	KDukptPinResult, 12
 961              	KDukptPinResult:
 962 004c 30010000 		.word	.LC24
 963 0050 39010000 		.word	.LC25
 964 0054 42010000 		.word	.LC26
 965              	.LC27:
 966 0058 08010000 		.ascii	"\010\001\000\000\207b\331\036#\202\202\215\000"
 966      8762D91E 
 966      2382828D 
 966      00
 967              	.LC28:
 968 0065 09070000 		.ascii	"\011\007\000\000Nd\206*\353\256\"\236\342\362C\000"
 968      4E64862A 
 968      EBAE229E 
 968      E2F24300 
 969              	.LC29:
 970 0075 1A020000 		.ascii	"\032\002\000\000\2311\303^j\364\213\242\002\324\233"
 970      9931C35E 
 970      6AF48BA2 
 970      02D49B
 971 0084 F06B1F59 		.ascii	"\360k\037Y\274p@l\271kP\204\370\000"
 971      BC70406C 
 971      B96B5084 
 971      F800
 972              	.LC30:
 973 0092 10030200 		.ascii	"\020\003\002\000\257o\206\010\330\266\235|\237\255$"
 973      AF6F8608 
 973      D8B69D7C 
 973      9FAD24
 974 00a1 B1AD2690 		.ascii	"\261\255&\220\353\000"
 974      EB00
 975              	.LC31:
 976 00a7 12040200 		.ascii	"\022\004\002\000D%&I\217\321\263U\333J\234\005Ud\244"
 976      44252649 
 976      8FD1B355 
 976      DB4A9C05 
 976      5564A4
 977 00ba 4A00     		.ascii	"J\000"
 978              	.LC32:
 979 00bc 18050200 		.ascii	"\030\005\002\000\305\350\247H\324`yyW\240F\345\224\371"
 979      C5E8A748 
 979      D4607979 
 979      57A046E5 
 979      94F9
 980 00ce 1367EA9C 		.ascii	"\023g\352\234\000\340\201\346)\243\000"
 980      00E081E6 
 980      29A300
 981              	.LC33:
ARM GAS  C:\Users\AHMED~1.ELE\AppData\Local\Temp\ccmI3Usi.s 			page 24


 982 00d9 1A060200 		.ascii	"\032\006\002\000\230\242\223\223\2131\306\300\223m\232"
 982      98A29393 
 982      8B31C6C0 
 982      936D9A
 983 00e8 373CACF2 		.ascii	"7<\254\362\233HF\312X\372BYA\000"
 983      9B4846CA 
 983      58FA4259 
 983      4100
 984 00f6 0000     		.section	.rodata.str1.1,"aMS",%progbits,1
 985              	.LC0:
 986 0000 4B657920 		.ascii	"Key Status\000"
 986      53746174 
 986      757300
 987              	.LC1:
 988 000b 25303258 		.ascii	"%02X\000"
 988      00
 989              	.LC2:
 990 0010 55736520 		.ascii	"Use PP300 ?\000"
 990      50503330 
 990      30203F00 
 991              	.LC3:
 992 001c 4B657920 		.ascii	"Key Reset\000"
 992      52657365 
 992      7400
 993              	.LC4:
 994 0026 4B657920 		.ascii	"Key Injection\000"
 994      496E6A65 
 994      6374696F 
 994      6E00
 995              	.LC5:
 996 0034 496E6A65 		.ascii	"Injection Failed!\000"
 996      6374696F 
 996      6E204661 
 996      696C6564 
 996      2100
 997              	.LC6:
 998 0046 4964783A 		.ascii	"Idx:%d Ret:%d\000"
 998      25642052 
 998      65743A25 
 998      6400
 999              	.LC7:
 1000 0054 456E6372 		.ascii	"Encrypt/Decrypt Test\000"
 1000      7970742F 
 1000      44656372 
 1000      79707420 
 1000      54657374 
 1001              	.LC9:
 1002 0069 DC0A9894 		.ascii	"\334\012\230\224\304\345\264&6\374\272k\007\310z\321"
 1002      C4E5B426 
 1002      36FCBA6B 
 1002      07C87AD1 
 1003 0079 00       		.ascii	"\000"
 1004              	.LC10:
 1005 007a 48938CA3 		.ascii	"H\223\214\243c(\032\220p9\021\242\250\016^\354\000"
 1005      63281A90 
 1005      703911A2 
 1005      A80E5EEC 
ARM GAS  C:\Users\AHMED~1.ELE\AppData\Local\Temp\ccmI3Usi.s 			page 25


 1005      00
 1006              	.LC11:
 1007 008b 9606032E 		.ascii	"\226\006\003.\333\360\272!M^\022\313\004kEg\000"
 1007      DBF0BA21 
 1007      4D5E12CB 
 1007      046B4567 
 1007      00
 1008              	.LC12:
 1009 009c 53326E81 		.ascii	"S2n\201+\206@Z\341\213a\\r\344\237\242\000"
 1009      2B86405A 
 1009      E18B615C 
 1009      72E49FA2 
 1009      00
 1010              	.LC13:
 1011 00ad 54657374 		.ascii	"Test Success!\000"
 1011      20537563 
 1011      63657373 
 1011      2100
 1012              	.LC14:
 1013 00bb 47657458 		.ascii	"GetX98PIN Test\000"
 1013      39385049 
 1013      4E205465 
 1013      737400
 1014              	.LC15:
 1015 00ca 01020304 		.ascii	"\001\002\003\004\005\006\007\010\377\000"
 1015      05060708 
 1015      FF00
 1016              	.LC16:
 1017 00d4 456E7420 		.ascii	"Ent PIN(123456):\000"
 1017      50494E28 
 1017      31323334 
 1017      3536293A 
 1017      00
 1018              	.LC17:
 1019 00e5 F00A4F80 		.ascii	"\360\012O\200\233\"\266D\000"
 1019      9B22B644 
 1019      00
 1020              	.LC18:
 1021 00ee 54657374 		.ascii	"Test Failed!\000"
 1021      20466169 
 1021      6C656421 
 1021      00
 1022              	.LC19:
 1023 00fb 44554B50 		.ascii	"DUKPTPIN Test\000"
 1023      5450494E 
 1023      20546573 
 1023      7400
 1024              	.LC21:
 1025 0109 40123456 		.ascii	"@\0224Vx\220\237\000"
 1025      78909F00 
 1026              	.LC22:
 1027 0111 456E7420 		.ascii	"Ent PIN(1234):\000"
 1027      50494E28 
 1027      31323334 
 1027      293A00
 1028              	.LC23:
 1029 0120 54657374 		.ascii	"Test Failed! %X\000"
ARM GAS  C:\Users\AHMED~1.ELE\AppData\Local\Temp\ccmI3Usi.s 			page 26


 1029      20466169 
 1029      6C656421 
 1029      20255800 
 1030              	.LC24:
 1031 0130 1B9C1845 		.ascii	"\033\234\030E\353\231:z\000"
 1031      EB993A7A 
 1031      00
 1032              	.LC25:
 1033 0139 10A01C8D 		.ascii	"\020\240\034\215\002\306\221\007\000"
 1033      02C69107 
 1033      00
 1034              	.LC26:
 1035 0142 18DC07B9 		.ascii	"\030\334\007\271G\227\264f\000"
 1035      4797B466 
 1035      00
 1036              		.text
 1037              	.Letext0:
 1038              		.file 2 "c:\\devtools\\gcc_v49_2014q4\\lib\\gcc\\arm-none-eabi\\4.9.3\\include\\stddef.h"
 1039              		.file 3 "../LibA5T1000/common.h"
 1040              		.file 4 "../LibA5T1000/key2dll.h"
 1041              		.file 5 "../LibA5T1000/system.h"
 1042              		.file 6 "../LibA5T1000/midware.h"
 1043              		.file 7 "c:\\devtools\\gcc_v49_2014q4\\arm-none-eabi\\include\\stdio.h"
 1044              		.file 8 "src/kbdutil.h"
 1045              		.file 9 "c:\\devtools\\gcc_v49_2014q4\\arm-none-eabi\\include\\string.h"
 1046              		.file 10 "<built-in>"
 1047              		.file 11 "src/toggle.h"