ARM GAS  C:\Users\AHMED~1.ELE\AppData\Local\Temp\ccodDkDv.s 			page 1


   1              		.syntax unified
   2              		.cpu cortex-a5
   3              		.fpu softvfp
   4              		.eabi_attribute 20, 1
   5              		.eabi_attribute 21, 1
   6              		.eabi_attribute 23, 3
   7              		.eabi_attribute 24, 1
   8              		.eabi_attribute 25, 1
   9              		.eabi_attribute 26, 1
  10              		.eabi_attribute 30, 4
  11              		.eabi_attribute 34, 0
  12              		.eabi_attribute 18, 4
  13              		.thumb
  14              		.file	"mxml-get.c"
  15              		.text
  16              	.Ltext0:
  17              		.cfi_sections	.debug_frame
  18              		.section	.text.mxmlGetCDATA,"ax",%progbits
  19              		.align	1
  20              		.global	mxmlGetCDATA
  21              		.thumb
  22              		.thumb_func
  23              		.type	mxmlGetCDATA, %function
  24              	mxmlGetCDATA:
  25              	.LFB0:
  26              		.file 1 "src/mxml-get.c"
   1:src/mxml-get.c **** /*
   2:src/mxml-get.c ****  * "$Id: mxml-get.c 451 2014-01-04 21:50:06Z msweet $"
   3:src/mxml-get.c ****  *
   4:src/mxml-get.c ****  * Node get functions for Mini-XML, a small XML-like file parsing library.
   5:src/mxml-get.c ****  *
   6:src/mxml-get.c ****  * Copyright 2014 by Michael R Sweet.
   7:src/mxml-get.c ****  *
   8:src/mxml-get.c ****  * These coded instructions, statements, and computer programs are the
   9:src/mxml-get.c ****  * property of Michael R Sweet and are protected by Federal copyright
  10:src/mxml-get.c ****  * law.  Distribution and use rights are outlined in the file "COPYING"
  11:src/mxml-get.c ****  * which should have been included with this file.  If this file is
  12:src/mxml-get.c ****  * missing or damaged, see the license at:
  13:src/mxml-get.c ****  *
  14:src/mxml-get.c ****  *     http://www.msweet.org/projects.php/Mini-XML
  15:src/mxml-get.c ****  */
  16:src/mxml-get.c **** 
  17:src/mxml-get.c **** /*
  18:src/mxml-get.c ****  * Include necessary headers...
  19:src/mxml-get.c ****  */
  20:src/mxml-get.c **** 
  21:src/mxml-get.c **** #include "mxml-config.h"
  22:src/mxml-get.c **** #include "mxml.h"
  23:src/mxml-get.c **** 
  24:src/mxml-get.c **** 
  25:src/mxml-get.c **** /*
  26:src/mxml-get.c ****  * 'mxmlGetCDATA()' - Get the value for a CDATA node.
  27:src/mxml-get.c ****  *
  28:src/mxml-get.c ****  * @code NULL@ is returned if the node is not a CDATA element.
  29:src/mxml-get.c ****  *
  30:src/mxml-get.c ****  * @since Mini-XML 2.7@
  31:src/mxml-get.c ****  */
ARM GAS  C:\Users\AHMED~1.ELE\AppData\Local\Temp\ccodDkDv.s 			page 2


  32:src/mxml-get.c **** 
  33:src/mxml-get.c **** const char *				/* O - CDATA value or NULL */
  34:src/mxml-get.c **** mxmlGetCDATA(mxml_node_t *node)		/* I - Node to get */
  35:src/mxml-get.c **** {
  27              		.loc 1 35 0
  28              		.cfi_startproc
  29              		@ args = 0, pretend = 0, frame = 0
  30              		@ frame_needed = 0, uses_anonymous_args = 0
  31              	.LVL0:
  32 0000 38B5     		push	{r3, r4, r5, lr}
  33              		.cfi_def_cfa_offset 16
  34              		.cfi_offset 3, -16
  35              		.cfi_offset 4, -12
  36              		.cfi_offset 5, -8
  37              		.cfi_offset 14, -4
  36:src/mxml-get.c ****  /*
  37:src/mxml-get.c ****   * Range check input...
  38:src/mxml-get.c ****   */
  39:src/mxml-get.c **** 
  40:src/mxml-get.c ****   if (!node || node->type != MXML_ELEMENT ||
  38              		.loc 1 40 0
  39 0002 78B1     		cbz	r0, .L2
  40              		.loc 1 40 0 is_stmt 0 discriminator 1
  41 0004 90F90040 		ldrsb	r4, [r0]
  42 0008 4CB9     		cbnz	r4, .L4
  41:src/mxml-get.c ****       strncmp(node->value.element.name, "![CDATA[", 8))
  43              		.loc 1 41 0 is_stmt 1 discriminator 2
  44 000a 8569     		ldr	r5, [r0, #24]
  45 000c 0649     		ldr	r1, .L7
  46 000e 2846     		mov	r0, r5
  47              	.LVL1:
  48 0010 0822     		movs	r2, #8
  49 0012 FFF7FEFF 		bl	strncmp
  50              	.LVL2:
  40:src/mxml-get.c ****       strncmp(node->value.element.name, "![CDATA[", 8))
  51              		.loc 1 40 0 discriminator 2
  52 0016 20B9     		cbnz	r0, .L5
  42:src/mxml-get.c ****     return (NULL);
  43:src/mxml-get.c **** 
  44:src/mxml-get.c ****  /*
  45:src/mxml-get.c ****   * Return the text following the CDATA declaration...
  46:src/mxml-get.c ****   */
  47:src/mxml-get.c **** 
  48:src/mxml-get.c ****   return (node->value.element.name + 8);
  53              		.loc 1 48 0
  54 0018 05F10800 		add	r0, r5, #8
  55 001c 38BD     		pop	{r3, r4, r5, pc}
  56              	.LVL3:
  57              	.L4:
  42:src/mxml-get.c ****     return (NULL);
  58              		.loc 1 42 0
  59 001e 0020     		movs	r0, #0
  60              	.LVL4:
  61 0020 38BD     		pop	{r3, r4, r5, pc}
  62              	.L5:
  63 0022 2046     		mov	r0, r4
  64              	.L2:
ARM GAS  C:\Users\AHMED~1.ELE\AppData\Local\Temp\ccodDkDv.s 			page 3


  49:src/mxml-get.c **** }
  65              		.loc 1 49 0
  66 0024 38BD     		pop	{r3, r4, r5, pc}
  67              	.L8:
  68 0026 00BF     		.align	2
  69              	.L7:
  70 0028 00000000 		.word	.LC0
  71              		.cfi_endproc
  72              	.LFE0:
  73              		.size	mxmlGetCDATA, .-mxmlGetCDATA
  74              		.section	.text.mxmlGetCustom,"ax",%progbits
  75              		.align	1
  76              		.global	mxmlGetCustom
  77              		.thumb
  78              		.thumb_func
  79              		.type	mxmlGetCustom, %function
  80              	mxmlGetCustom:
  81              	.LFB1:
  50:src/mxml-get.c **** 
  51:src/mxml-get.c **** 
  52:src/mxml-get.c **** /*
  53:src/mxml-get.c ****  * 'mxmlGetCustom()' - Get the value for a custom node.
  54:src/mxml-get.c ****  *
  55:src/mxml-get.c ****  * @code NULL@ is returned if the node (or its first child) is not a custom
  56:src/mxml-get.c ****  * value node.
  57:src/mxml-get.c ****  *
  58:src/mxml-get.c ****  * @since Mini-XML 2.7@
  59:src/mxml-get.c ****  */
  60:src/mxml-get.c **** 
  61:src/mxml-get.c **** const void *				/* O - Custom value or NULL */
  62:src/mxml-get.c **** mxmlGetCustom(mxml_node_t *node)	/* I - Node to get */
  63:src/mxml-get.c **** {
  82              		.loc 1 63 0
  83              		.cfi_startproc
  84              		@ args = 0, pretend = 0, frame = 0
  85              		@ frame_needed = 0, uses_anonymous_args = 0
  86              		@ link register save eliminated.
  87              	.LVL5:
  64:src/mxml-get.c ****  /*
  65:src/mxml-get.c ****   * Range check input...
  66:src/mxml-get.c ****   */
  67:src/mxml-get.c **** 
  68:src/mxml-get.c ****   if (!node)
  88              		.loc 1 68 0
  89 0000 70B1     		cbz	r0, .L10
  69:src/mxml-get.c ****     return (NULL);
  70:src/mxml-get.c **** 
  71:src/mxml-get.c ****  /*
  72:src/mxml-get.c ****   * Return the integer value...
  73:src/mxml-get.c ****   */
  74:src/mxml-get.c **** 
  75:src/mxml-get.c ****   if (node->type == MXML_CUSTOM)
  90              		.loc 1 75 0
  91 0002 0378     		ldrb	r3, [r0]	@ zero_extendqisi2
  92 0004 052B     		cmp	r3, #5
  93 0006 06D0     		beq	.L16
  76:src/mxml-get.c ****     return (node->value.custom.data);
ARM GAS  C:\Users\AHMED~1.ELE\AppData\Local\Temp\ccodDkDv.s 			page 4


  77:src/mxml-get.c ****   else if (node->type == MXML_ELEMENT &&
  94              		.loc 1 77 0
  95 0008 3BB9     		cbnz	r3, .L13
  78:src/mxml-get.c ****            node->child &&
  96              		.loc 1 78 0 discriminator 1
  97 000a 0069     		ldr	r0, [r0, #16]
  98              	.LVL6:
  77:src/mxml-get.c ****            node->child &&
  99              		.loc 1 77 0 discriminator 1
 100 000c 40B1     		cbz	r0, .L10
 101              		.loc 1 78 0
 102 000e 90F90020 		ldrsb	r2, [r0]
 103 0012 052A     		cmp	r2, #5
 104 0014 03D1     		bne	.L15
 105              	.L16:
  79:src/mxml-get.c **** 	   node->child->type == MXML_CUSTOM)
  80:src/mxml-get.c ****     return (node->child->value.custom.data);
 106              		.loc 1 80 0
 107 0016 8069     		ldr	r0, [r0, #24]
 108 0018 7047     		bx	lr
 109              	.LVL7:
 110              	.L13:
  69:src/mxml-get.c **** 
 111              		.loc 1 69 0
 112 001a 0020     		movs	r0, #0
 113              	.LVL8:
 114 001c 7047     		bx	lr
 115              	.L15:
 116 001e 1846     		mov	r0, r3
 117              	.L10:
  81:src/mxml-get.c ****   else
  82:src/mxml-get.c ****     return (NULL);
  83:src/mxml-get.c **** }
 118              		.loc 1 83 0
 119 0020 7047     		bx	lr
 120              		.cfi_endproc
 121              	.LFE1:
 122              		.size	mxmlGetCustom, .-mxmlGetCustom
 123              		.section	.text.mxmlGetElement,"ax",%progbits
 124              		.align	1
 125              		.global	mxmlGetElement
 126              		.thumb
 127              		.thumb_func
 128              		.type	mxmlGetElement, %function
 129              	mxmlGetElement:
 130              	.LFB2:
  84:src/mxml-get.c **** 
  85:src/mxml-get.c **** 
  86:src/mxml-get.c **** /*
  87:src/mxml-get.c ****  * 'mxmlGetElement()' - Get the name for an element node.
  88:src/mxml-get.c ****  *
  89:src/mxml-get.c ****  * @code NULL@ is returned if the node is not an element node.
  90:src/mxml-get.c ****  *
  91:src/mxml-get.c ****  * @since Mini-XML 2.7@
  92:src/mxml-get.c ****  */
  93:src/mxml-get.c **** 
  94:src/mxml-get.c **** const char *				/* O - Element name or NULL */
ARM GAS  C:\Users\AHMED~1.ELE\AppData\Local\Temp\ccodDkDv.s 			page 5


  95:src/mxml-get.c **** mxmlGetElement(mxml_node_t *node)	/* I - Node to get */
  96:src/mxml-get.c **** {
 131              		.loc 1 96 0
 132              		.cfi_startproc
 133              		@ args = 0, pretend = 0, frame = 0
 134              		@ frame_needed = 0, uses_anonymous_args = 0
 135              		@ link register save eliminated.
 136              	.LVL9:
  97:src/mxml-get.c ****  /*
  98:src/mxml-get.c ****   * Range check input...
  99:src/mxml-get.c ****   */
 100:src/mxml-get.c **** 
 101:src/mxml-get.c ****   if (!node || node->type != MXML_ELEMENT)
 137              		.loc 1 101 0
 138 0000 28B1     		cbz	r0, .L18
 139              		.loc 1 101 0 is_stmt 0 discriminator 1
 140 0002 90F90030 		ldrsb	r3, [r0]
 141 0006 0BB9     		cbnz	r3, .L20
 102:src/mxml-get.c ****     return (NULL);
 103:src/mxml-get.c **** 
 104:src/mxml-get.c ****  /*
 105:src/mxml-get.c ****   * Return the element name...
 106:src/mxml-get.c ****   */
 107:src/mxml-get.c **** 
 108:src/mxml-get.c ****   return (node->value.element.name);
 142              		.loc 1 108 0 is_stmt 1
 143 0008 8069     		ldr	r0, [r0, #24]
 144              	.LVL10:
 145 000a 7047     		bx	lr
 146              	.LVL11:
 147              	.L20:
 102:src/mxml-get.c ****     return (NULL);
 148              		.loc 1 102 0
 149 000c 0020     		movs	r0, #0
 150              	.LVL12:
 151              	.L18:
 109:src/mxml-get.c **** }
 152              		.loc 1 109 0
 153 000e 7047     		bx	lr
 154              		.cfi_endproc
 155              	.LFE2:
 156              		.size	mxmlGetElement, .-mxmlGetElement
 157              		.section	.text.mxmlGetFirstChild,"ax",%progbits
 158              		.align	1
 159              		.global	mxmlGetFirstChild
 160              		.thumb
 161              		.thumb_func
 162              		.type	mxmlGetFirstChild, %function
 163              	mxmlGetFirstChild:
 164              	.LFB3:
 110:src/mxml-get.c **** 
 111:src/mxml-get.c **** 
 112:src/mxml-get.c **** /*
 113:src/mxml-get.c ****  * 'mxmlGetFirstChild()' - Get the first child of an element node.
 114:src/mxml-get.c ****  *
 115:src/mxml-get.c ****  * @code NULL@ is returned if the node is not an element node or if the node
 116:src/mxml-get.c ****  * has no children.
ARM GAS  C:\Users\AHMED~1.ELE\AppData\Local\Temp\ccodDkDv.s 			page 6


 117:src/mxml-get.c ****  *
 118:src/mxml-get.c ****  * @since Mini-XML 2.7@
 119:src/mxml-get.c ****  */
 120:src/mxml-get.c **** 
 121:src/mxml-get.c **** mxml_node_t *				/* O - First child or NULL */
 122:src/mxml-get.c **** mxmlGetFirstChild(mxml_node_t *node)	/* I - Node to get */
 123:src/mxml-get.c **** {
 165              		.loc 1 123 0
 166              		.cfi_startproc
 167              		@ args = 0, pretend = 0, frame = 0
 168              		@ frame_needed = 0, uses_anonymous_args = 0
 169              		@ link register save eliminated.
 170              	.LVL13:
 124:src/mxml-get.c ****  /*
 125:src/mxml-get.c ****   * Range check input...
 126:src/mxml-get.c ****   */
 127:src/mxml-get.c **** 
 128:src/mxml-get.c ****   if (!node || node->type != MXML_ELEMENT)
 171              		.loc 1 128 0
 172 0000 28B1     		cbz	r0, .L22
 173              		.loc 1 128 0 is_stmt 0 discriminator 1
 174 0002 90F90030 		ldrsb	r3, [r0]
 175 0006 0BB9     		cbnz	r3, .L24
 129:src/mxml-get.c ****     return (NULL);
 130:src/mxml-get.c **** 
 131:src/mxml-get.c ****  /*
 132:src/mxml-get.c ****   * Return the first child node...
 133:src/mxml-get.c ****   */
 134:src/mxml-get.c **** 
 135:src/mxml-get.c ****   return (node->child);
 176              		.loc 1 135 0 is_stmt 1
 177 0008 0069     		ldr	r0, [r0, #16]
 178              	.LVL14:
 179 000a 7047     		bx	lr
 180              	.LVL15:
 181              	.L24:
 129:src/mxml-get.c ****     return (NULL);
 182              		.loc 1 129 0
 183 000c 0020     		movs	r0, #0
 184              	.LVL16:
 185              	.L22:
 136:src/mxml-get.c **** }
 186              		.loc 1 136 0
 187 000e 7047     		bx	lr
 188              		.cfi_endproc
 189              	.LFE3:
 190              		.size	mxmlGetFirstChild, .-mxmlGetFirstChild
 191              		.section	.text.mxmlGetInteger,"ax",%progbits
 192              		.align	1
 193              		.global	mxmlGetInteger
 194              		.thumb
 195              		.thumb_func
 196              		.type	mxmlGetInteger, %function
 197              	mxmlGetInteger:
 198              	.LFB4:
 137:src/mxml-get.c **** 
 138:src/mxml-get.c **** 
ARM GAS  C:\Users\AHMED~1.ELE\AppData\Local\Temp\ccodDkDv.s 			page 7


 139:src/mxml-get.c **** /*
 140:src/mxml-get.c ****  * 'mxmlGetInteger()' - Get the integer value from the specified node or its
 141:src/mxml-get.c ****  *                      first child.
 142:src/mxml-get.c ****  *
 143:src/mxml-get.c ****  * 0 is returned if the node (or its first child) is not an integer value node.
 144:src/mxml-get.c ****  *
 145:src/mxml-get.c ****  * @since Mini-XML 2.7@
 146:src/mxml-get.c ****  */
 147:src/mxml-get.c **** 
 148:src/mxml-get.c **** int					/* O - Integer value or 0 */
 149:src/mxml-get.c **** mxmlGetInteger(mxml_node_t *node)	/* I - Node to get */
 150:src/mxml-get.c **** {
 199              		.loc 1 150 0
 200              		.cfi_startproc
 201              		@ args = 0, pretend = 0, frame = 0
 202              		@ frame_needed = 0, uses_anonymous_args = 0
 203              		@ link register save eliminated.
 204              	.LVL17:
 151:src/mxml-get.c ****  /*
 152:src/mxml-get.c ****   * Range check input...
 153:src/mxml-get.c ****   */
 154:src/mxml-get.c **** 
 155:src/mxml-get.c ****   if (!node)
 205              		.loc 1 155 0
 206 0000 70B1     		cbz	r0, .L26
 156:src/mxml-get.c ****     return (0);
 157:src/mxml-get.c **** 
 158:src/mxml-get.c ****  /*
 159:src/mxml-get.c ****   * Return the integer value...
 160:src/mxml-get.c ****   */
 161:src/mxml-get.c **** 
 162:src/mxml-get.c ****   if (node->type == MXML_INTEGER)
 207              		.loc 1 162 0
 208 0002 0378     		ldrb	r3, [r0]	@ zero_extendqisi2
 209 0004 012B     		cmp	r3, #1
 210 0006 06D0     		beq	.L32
 163:src/mxml-get.c ****     return (node->value.integer);
 164:src/mxml-get.c ****   else if (node->type == MXML_ELEMENT &&
 211              		.loc 1 164 0
 212 0008 3BB9     		cbnz	r3, .L29
 165:src/mxml-get.c ****            node->child &&
 213              		.loc 1 165 0 discriminator 1
 214 000a 0069     		ldr	r0, [r0, #16]
 215              	.LVL18:
 164:src/mxml-get.c ****            node->child &&
 216              		.loc 1 164 0 discriminator 1
 217 000c 40B1     		cbz	r0, .L26
 218              		.loc 1 165 0
 219 000e 90F90020 		ldrsb	r2, [r0]
 220 0012 012A     		cmp	r2, #1
 221 0014 03D1     		bne	.L31
 222              	.L32:
 166:src/mxml-get.c **** 	   node->child->type == MXML_INTEGER)
 167:src/mxml-get.c ****     return (node->child->value.integer);
 223              		.loc 1 167 0
 224 0016 8069     		ldr	r0, [r0, #24]
 225 0018 7047     		bx	lr
ARM GAS  C:\Users\AHMED~1.ELE\AppData\Local\Temp\ccodDkDv.s 			page 8


 226              	.LVL19:
 227              	.L29:
 156:src/mxml-get.c **** 
 228              		.loc 1 156 0
 229 001a 0020     		movs	r0, #0
 230              	.LVL20:
 231 001c 7047     		bx	lr
 232              	.L31:
 233 001e 1846     		mov	r0, r3
 234              	.L26:
 168:src/mxml-get.c ****   else
 169:src/mxml-get.c ****     return (0);
 170:src/mxml-get.c **** }
 235              		.loc 1 170 0
 236 0020 7047     		bx	lr
 237              		.cfi_endproc
 238              	.LFE4:
 239              		.size	mxmlGetInteger, .-mxmlGetInteger
 240              		.section	.text.mxmlGetLastChild,"ax",%progbits
 241              		.align	1
 242              		.global	mxmlGetLastChild
 243              		.thumb
 244              		.thumb_func
 245              		.type	mxmlGetLastChild, %function
 246              	mxmlGetLastChild:
 247              	.LFB5:
 171:src/mxml-get.c **** 
 172:src/mxml-get.c **** 
 173:src/mxml-get.c **** /*
 174:src/mxml-get.c ****  * 'mxmlGetLastChild()' - Get the last child of an element node.
 175:src/mxml-get.c ****  *
 176:src/mxml-get.c ****  * @code NULL@ is returned if the node is not an element node or if the node
 177:src/mxml-get.c ****  * has no children.
 178:src/mxml-get.c ****  *
 179:src/mxml-get.c ****  * @since Mini-XML 2.7@
 180:src/mxml-get.c ****  */
 181:src/mxml-get.c **** 
 182:src/mxml-get.c **** mxml_node_t *				/* O - Last child or NULL */
 183:src/mxml-get.c **** mxmlGetLastChild(mxml_node_t *node)	/* I - Node to get */
 184:src/mxml-get.c **** {
 248              		.loc 1 184 0
 249              		.cfi_startproc
 250              		@ args = 0, pretend = 0, frame = 0
 251              		@ frame_needed = 0, uses_anonymous_args = 0
 252              		@ link register save eliminated.
 253              	.LVL21:
 185:src/mxml-get.c ****  /*
 186:src/mxml-get.c ****   * Range check input...
 187:src/mxml-get.c ****   */
 188:src/mxml-get.c **** 
 189:src/mxml-get.c ****   if (!node || node->type != MXML_ELEMENT)
 254              		.loc 1 189 0
 255 0000 28B1     		cbz	r0, .L34
 256              		.loc 1 189 0 is_stmt 0 discriminator 1
 257 0002 90F90030 		ldrsb	r3, [r0]
 258 0006 0BB9     		cbnz	r3, .L36
 190:src/mxml-get.c ****     return (NULL);
ARM GAS  C:\Users\AHMED~1.ELE\AppData\Local\Temp\ccodDkDv.s 			page 9


 191:src/mxml-get.c **** 
 192:src/mxml-get.c ****  /*
 193:src/mxml-get.c ****   * Return the node type...
 194:src/mxml-get.c ****   */
 195:src/mxml-get.c **** 
 196:src/mxml-get.c ****   return (node->last_child);
 259              		.loc 1 196 0 is_stmt 1
 260 0008 4069     		ldr	r0, [r0, #20]
 261              	.LVL22:
 262 000a 7047     		bx	lr
 263              	.LVL23:
 264              	.L36:
 190:src/mxml-get.c ****     return (NULL);
 265              		.loc 1 190 0
 266 000c 0020     		movs	r0, #0
 267              	.LVL24:
 268              	.L34:
 197:src/mxml-get.c **** }
 269              		.loc 1 197 0
 270 000e 7047     		bx	lr
 271              		.cfi_endproc
 272              	.LFE5:
 273              		.size	mxmlGetLastChild, .-mxmlGetLastChild
 274              		.section	.text.mxmlGetNextSibling,"ax",%progbits
 275              		.align	1
 276              		.global	mxmlGetNextSibling
 277              		.thumb
 278              		.thumb_func
 279              		.type	mxmlGetNextSibling, %function
 280              	mxmlGetNextSibling:
 281              	.LFB6:
 198:src/mxml-get.c **** 
 199:src/mxml-get.c **** 
 200:src/mxml-get.c **** /*
 201:src/mxml-get.c ****  * 'mxmlGetNextSibling()' - Get the next node for the current parent.
 202:src/mxml-get.c ****  *
 203:src/mxml-get.c ****  * @code NULL@ is returned if this is the last child for the current parent.
 204:src/mxml-get.c ****  *
 205:src/mxml-get.c ****  * @since Mini-XML 2.7@
 206:src/mxml-get.c ****  */
 207:src/mxml-get.c **** 
 208:src/mxml-get.c **** mxml_node_t *
 209:src/mxml-get.c **** mxmlGetNextSibling(mxml_node_t *node)	/* I - Node to get */
 210:src/mxml-get.c **** {
 282              		.loc 1 210 0
 283              		.cfi_startproc
 284              		@ args = 0, pretend = 0, frame = 0
 285              		@ frame_needed = 0, uses_anonymous_args = 0
 286              		@ link register save eliminated.
 287              	.LVL25:
 211:src/mxml-get.c ****  /*
 212:src/mxml-get.c ****   * Range check input...
 213:src/mxml-get.c ****   */
 214:src/mxml-get.c **** 
 215:src/mxml-get.c ****   if (!node)
 288              		.loc 1 215 0
 289 0000 00B1     		cbz	r0, .L38
ARM GAS  C:\Users\AHMED~1.ELE\AppData\Local\Temp\ccodDkDv.s 			page 10


 216:src/mxml-get.c ****     return (NULL);
 217:src/mxml-get.c **** 
 218:src/mxml-get.c ****  /*
 219:src/mxml-get.c ****   * Return the node type...
 220:src/mxml-get.c ****   */
 221:src/mxml-get.c **** 
 222:src/mxml-get.c ****   return (node->next);
 290              		.loc 1 222 0
 291 0002 4068     		ldr	r0, [r0, #4]
 292              	.LVL26:
 293              	.L38:
 223:src/mxml-get.c **** }
 294              		.loc 1 223 0
 295 0004 7047     		bx	lr
 296              		.cfi_endproc
 297              	.LFE6:
 298              		.size	mxmlGetNextSibling, .-mxmlGetNextSibling
 299              		.section	.text.mxmlGetOpaque,"ax",%progbits
 300              		.align	1
 301              		.global	mxmlGetOpaque
 302              		.thumb
 303              		.thumb_func
 304              		.type	mxmlGetOpaque, %function
 305              	mxmlGetOpaque:
 306              	.LFB7:
 224:src/mxml-get.c **** 
 225:src/mxml-get.c **** 
 226:src/mxml-get.c **** /*
 227:src/mxml-get.c ****  * 'mxmlGetOpaque()' - Get an opaque string value for a node or its first child.
 228:src/mxml-get.c ****  *
 229:src/mxml-get.c ****  * @code NULL@ is returned if the node (or its first child) is not an opaque
 230:src/mxml-get.c ****  * value node.
 231:src/mxml-get.c ****  *
 232:src/mxml-get.c ****  * @since Mini-XML 2.7@
 233:src/mxml-get.c ****  */
 234:src/mxml-get.c **** 
 235:src/mxml-get.c **** const char *				/* O - Opaque string or NULL */
 236:src/mxml-get.c **** mxmlGetOpaque(mxml_node_t *node)	/* I - Node to get */
 237:src/mxml-get.c **** {
 307              		.loc 1 237 0
 308              		.cfi_startproc
 309              		@ args = 0, pretend = 0, frame = 0
 310              		@ frame_needed = 0, uses_anonymous_args = 0
 311              		@ link register save eliminated.
 312              	.LVL27:
 238:src/mxml-get.c ****  /*
 239:src/mxml-get.c ****   * Range check input...
 240:src/mxml-get.c ****   */
 241:src/mxml-get.c **** 
 242:src/mxml-get.c ****   if (!node)
 313              		.loc 1 242 0
 314 0000 70B1     		cbz	r0, .L41
 243:src/mxml-get.c ****     return (NULL);
 244:src/mxml-get.c **** 
 245:src/mxml-get.c ****  /*
 246:src/mxml-get.c ****   * Return the integer value...
 247:src/mxml-get.c ****   */
ARM GAS  C:\Users\AHMED~1.ELE\AppData\Local\Temp\ccodDkDv.s 			page 11


 248:src/mxml-get.c **** 
 249:src/mxml-get.c ****   if (node->type == MXML_OPAQUE)
 315              		.loc 1 249 0
 316 0002 0378     		ldrb	r3, [r0]	@ zero_extendqisi2
 317 0004 022B     		cmp	r3, #2
 318 0006 06D0     		beq	.L47
 250:src/mxml-get.c ****     return (node->value.opaque);
 251:src/mxml-get.c ****   else if (node->type == MXML_ELEMENT &&
 319              		.loc 1 251 0
 320 0008 3BB9     		cbnz	r3, .L44
 252:src/mxml-get.c ****            node->child &&
 321              		.loc 1 252 0 discriminator 1
 322 000a 0069     		ldr	r0, [r0, #16]
 323              	.LVL28:
 251:src/mxml-get.c ****            node->child &&
 324              		.loc 1 251 0 discriminator 1
 325 000c 40B1     		cbz	r0, .L41
 326              		.loc 1 252 0
 327 000e 90F90020 		ldrsb	r2, [r0]
 328 0012 022A     		cmp	r2, #2
 329 0014 03D1     		bne	.L46
 330              	.L47:
 253:src/mxml-get.c **** 	   node->child->type == MXML_OPAQUE)
 254:src/mxml-get.c ****     return (node->child->value.opaque);
 331              		.loc 1 254 0
 332 0016 8069     		ldr	r0, [r0, #24]
 333 0018 7047     		bx	lr
 334              	.LVL29:
 335              	.L44:
 243:src/mxml-get.c **** 
 336              		.loc 1 243 0
 337 001a 0020     		movs	r0, #0
 338              	.LVL30:
 339 001c 7047     		bx	lr
 340              	.L46:
 341 001e 1846     		mov	r0, r3
 342              	.L41:
 255:src/mxml-get.c ****   else
 256:src/mxml-get.c ****     return (NULL);
 257:src/mxml-get.c **** }
 343              		.loc 1 257 0
 344 0020 7047     		bx	lr
 345              		.cfi_endproc
 346              	.LFE7:
 347              		.size	mxmlGetOpaque, .-mxmlGetOpaque
 348              		.section	.text.mxmlGetParent,"ax",%progbits
 349              		.align	1
 350              		.global	mxmlGetParent
 351              		.thumb
 352              		.thumb_func
 353              		.type	mxmlGetParent, %function
 354              	mxmlGetParent:
 355              	.LFB8:
 258:src/mxml-get.c **** 
 259:src/mxml-get.c **** 
 260:src/mxml-get.c **** /*
 261:src/mxml-get.c ****  * 'mxmlGetParent()' - Get the parent node.
ARM GAS  C:\Users\AHMED~1.ELE\AppData\Local\Temp\ccodDkDv.s 			page 12


 262:src/mxml-get.c ****  *
 263:src/mxml-get.c ****  * @code NULL@ is returned for a root node.
 264:src/mxml-get.c ****  *
 265:src/mxml-get.c ****  * @since Mini-XML 2.7@
 266:src/mxml-get.c ****  */
 267:src/mxml-get.c **** 
 268:src/mxml-get.c **** mxml_node_t *				/* O - Parent node or NULL */
 269:src/mxml-get.c **** mxmlGetParent(mxml_node_t *node)	/* I - Node to get */
 270:src/mxml-get.c **** {
 356              		.loc 1 270 0
 357              		.cfi_startproc
 358              		@ args = 0, pretend = 0, frame = 0
 359              		@ frame_needed = 0, uses_anonymous_args = 0
 360              		@ link register save eliminated.
 361              	.LVL31:
 271:src/mxml-get.c ****  /*
 272:src/mxml-get.c ****   * Range check input...
 273:src/mxml-get.c ****   */
 274:src/mxml-get.c **** 
 275:src/mxml-get.c ****   if (!node)
 362              		.loc 1 275 0
 363 0000 00B1     		cbz	r0, .L49
 276:src/mxml-get.c ****     return (NULL);
 277:src/mxml-get.c **** 
 278:src/mxml-get.c ****  /*
 279:src/mxml-get.c ****   * Return the node type...
 280:src/mxml-get.c ****   */
 281:src/mxml-get.c **** 
 282:src/mxml-get.c ****   return (node->parent);
 364              		.loc 1 282 0
 365 0002 C068     		ldr	r0, [r0, #12]
 366              	.LVL32:
 367              	.L49:
 283:src/mxml-get.c **** }
 368              		.loc 1 283 0
 369 0004 7047     		bx	lr
 370              		.cfi_endproc
 371              	.LFE8:
 372              		.size	mxmlGetParent, .-mxmlGetParent
 373              		.section	.text.mxmlGetPrevSibling,"ax",%progbits
 374              		.align	1
 375              		.global	mxmlGetPrevSibling
 376              		.thumb
 377              		.thumb_func
 378              		.type	mxmlGetPrevSibling, %function
 379              	mxmlGetPrevSibling:
 380              	.LFB9:
 284:src/mxml-get.c **** 
 285:src/mxml-get.c **** 
 286:src/mxml-get.c **** /*
 287:src/mxml-get.c ****  * 'mxmlGetPrevSibling()' - Get the previous node for the current parent.
 288:src/mxml-get.c ****  *
 289:src/mxml-get.c ****  * @code NULL@ is returned if this is the first child for the current parent.
 290:src/mxml-get.c ****  *
 291:src/mxml-get.c ****  * @since Mini-XML 2.7@
 292:src/mxml-get.c ****  */
 293:src/mxml-get.c **** 
ARM GAS  C:\Users\AHMED~1.ELE\AppData\Local\Temp\ccodDkDv.s 			page 13


 294:src/mxml-get.c **** mxml_node_t *				/* O - Previous node or NULL */
 295:src/mxml-get.c **** mxmlGetPrevSibling(mxml_node_t *node)	/* I - Node to get */
 296:src/mxml-get.c **** {
 381              		.loc 1 296 0
 382              		.cfi_startproc
 383              		@ args = 0, pretend = 0, frame = 0
 384              		@ frame_needed = 0, uses_anonymous_args = 0
 385              		@ link register save eliminated.
 386              	.LVL33:
 297:src/mxml-get.c ****  /*
 298:src/mxml-get.c ****   * Range check input...
 299:src/mxml-get.c ****   */
 300:src/mxml-get.c **** 
 301:src/mxml-get.c ****   if (!node)
 387              		.loc 1 301 0
 388 0000 00B1     		cbz	r0, .L52
 302:src/mxml-get.c ****     return (NULL);
 303:src/mxml-get.c **** 
 304:src/mxml-get.c ****  /*
 305:src/mxml-get.c ****   * Return the node type...
 306:src/mxml-get.c ****   */
 307:src/mxml-get.c **** 
 308:src/mxml-get.c ****   return (node->prev);
 389              		.loc 1 308 0
 390 0002 8068     		ldr	r0, [r0, #8]
 391              	.LVL34:
 392              	.L52:
 309:src/mxml-get.c **** }
 393              		.loc 1 309 0
 394 0004 7047     		bx	lr
 395              		.cfi_endproc
 396              	.LFE9:
 397              		.size	mxmlGetPrevSibling, .-mxmlGetPrevSibling
 398              		.section	.text.mxmlGetReal,"ax",%progbits
 399              		.align	1
 400              		.global	mxmlGetReal
 401              		.thumb
 402              		.thumb_func
 403              		.type	mxmlGetReal, %function
 404              	mxmlGetReal:
 405              	.LFB10:
 310:src/mxml-get.c **** 
 311:src/mxml-get.c **** 
 312:src/mxml-get.c **** /*
 313:src/mxml-get.c ****  * 'mxmlGetReal()' - Get the real value for a node or its first child.
 314:src/mxml-get.c ****  *
 315:src/mxml-get.c ****  * 0.0 is returned if the node (or its first child) is not a real value node.
 316:src/mxml-get.c ****  *
 317:src/mxml-get.c ****  * @since Mini-XML 2.7@
 318:src/mxml-get.c ****  */
 319:src/mxml-get.c **** 
 320:src/mxml-get.c **** double					/* O - Real value or 0.0 */
 321:src/mxml-get.c **** mxmlGetReal(mxml_node_t *node)		/* I - Node to get */
 322:src/mxml-get.c **** {
 406              		.loc 1 322 0
 407              		.cfi_startproc
 408              		@ args = 0, pretend = 0, frame = 0
ARM GAS  C:\Users\AHMED~1.ELE\AppData\Local\Temp\ccodDkDv.s 			page 14


 409              		@ frame_needed = 0, uses_anonymous_args = 0
 410              		@ link register save eliminated.
 411              	.LVL35:
 323:src/mxml-get.c ****  /*
 324:src/mxml-get.c ****   * Range check input...
 325:src/mxml-get.c ****   */
 326:src/mxml-get.c **** 
 327:src/mxml-get.c ****   if (!node)
 412              		.loc 1 327 0
 413 0000 78B1     		cbz	r0, .L60
 328:src/mxml-get.c ****     return (0.0);
 329:src/mxml-get.c **** 
 330:src/mxml-get.c ****  /*
 331:src/mxml-get.c ****   * Return the integer value...
 332:src/mxml-get.c ****   */
 333:src/mxml-get.c **** 
 334:src/mxml-get.c ****   if (node->type == MXML_REAL)
 414              		.loc 1 334 0
 415 0002 0378     		ldrb	r3, [r0]	@ zero_extendqisi2
 416 0004 032B     		cmp	r3, #3
 417 0006 02D1     		bne	.L56
 335:src/mxml-get.c ****     return (node->value.real);
 418              		.loc 1 335 0
 419 0008 D0E90601 		ldrd	r0, [r0, #24]
 420              	.LVL36:
 421 000c 7047     		bx	lr
 422              	.LVL37:
 423              	.L56:
 336:src/mxml-get.c ****   else if (node->type == MXML_ELEMENT &&
 424              		.loc 1 336 0
 425 000e 43B9     		cbnz	r3, .L60
 337:src/mxml-get.c ****            node->child &&
 426              		.loc 1 337 0 discriminator 1
 427 0010 0369     		ldr	r3, [r0, #16]
 336:src/mxml-get.c ****   else if (node->type == MXML_ELEMENT &&
 428              		.loc 1 336 0 discriminator 1
 429 0012 33B1     		cbz	r3, .L60
 430              		.loc 1 337 0
 431 0014 93F90020 		ldrsb	r2, [r3]
 432 0018 032A     		cmp	r2, #3
 433 001a 02D1     		bne	.L60
 338:src/mxml-get.c **** 	   node->child->type == MXML_REAL)
 339:src/mxml-get.c ****     return (node->child->value.real);
 434              		.loc 1 339 0
 435 001c D3E90601 		ldrd	r0, [r3, #24]
 436              	.LVL38:
 437 0020 7047     		bx	lr
 438              	.LVL39:
 439              	.L60:
 328:src/mxml-get.c **** 
 440              		.loc 1 328 0
 441 0022 0020     		movs	r0, #0
 442              	.LVL40:
 443 0024 0021     		movs	r1, #0
 340:src/mxml-get.c ****   else
 341:src/mxml-get.c ****     return (0.0);
 342:src/mxml-get.c **** }
ARM GAS  C:\Users\AHMED~1.ELE\AppData\Local\Temp\ccodDkDv.s 			page 15


 444              		.loc 1 342 0
 445 0026 7047     		bx	lr
 446              		.cfi_endproc
 447              	.LFE10:
 448              		.size	mxmlGetReal, .-mxmlGetReal
 449              		.section	.text.mxmlGetText,"ax",%progbits
 450              		.align	1
 451              		.global	mxmlGetText
 452              		.thumb
 453              		.thumb_func
 454              		.type	mxmlGetText, %function
 455              	mxmlGetText:
 456              	.LFB11:
 343:src/mxml-get.c **** 
 344:src/mxml-get.c **** 
 345:src/mxml-get.c **** /*
 346:src/mxml-get.c ****  * 'mxmlGetText()' - Get the text value for a node or its first child.
 347:src/mxml-get.c ****  *
 348:src/mxml-get.c ****  * @code NULL@ is returned if the node (or its first child) is not a text node.
 349:src/mxml-get.c ****  * The "whitespace" argument can be NULL.
 350:src/mxml-get.c ****  *
 351:src/mxml-get.c ****  * @since Mini-XML 2.7@
 352:src/mxml-get.c ****  */
 353:src/mxml-get.c **** 
 354:src/mxml-get.c **** const char *				/* O - Text string or NULL */
 355:src/mxml-get.c **** mxmlGetText(mxml_node_t *node,		/* I - Node to get */
 356:src/mxml-get.c ****             int         *whitespace)	/* O - 1 if string is preceded by whitespace, 0 otherwise */
 357:src/mxml-get.c **** {
 457              		.loc 1 357 0
 458              		.cfi_startproc
 459              		@ args = 0, pretend = 0, frame = 0
 460              		@ frame_needed = 0, uses_anonymous_args = 0
 461              		@ link register save eliminated.
 462              	.LVL41:
 358:src/mxml-get.c ****  /*
 359:src/mxml-get.c ****   * Range check input...
 360:src/mxml-get.c ****   */
 361:src/mxml-get.c **** 
 362:src/mxml-get.c ****   if (!node)
 463              		.loc 1 362 0
 464 0000 18B9     		cbnz	r0, .L62
 465              	.L66:
 466 0002 0020     		movs	r0, #0
 467              	.LVL42:
 363:src/mxml-get.c ****   {
 364:src/mxml-get.c ****     if (whitespace)
 468              		.loc 1 364 0
 469 0004 B9B1     		cbz	r1, .L68
 365:src/mxml-get.c ****       *whitespace = 0;
 470              		.loc 1 365 0
 471 0006 0860     		str	r0, [r1]
 472 0008 7047     		bx	lr
 473              	.LVL43:
 474              	.L62:
 366:src/mxml-get.c **** 
 367:src/mxml-get.c ****     return (NULL);
 368:src/mxml-get.c ****   }
ARM GAS  C:\Users\AHMED~1.ELE\AppData\Local\Temp\ccodDkDv.s 			page 16


 369:src/mxml-get.c **** 
 370:src/mxml-get.c ****  /*
 371:src/mxml-get.c ****   * Return the integer value...
 372:src/mxml-get.c ****   */
 373:src/mxml-get.c **** 
 374:src/mxml-get.c ****   if (node->type == MXML_TEXT)
 475              		.loc 1 374 0
 476 000a 0378     		ldrb	r3, [r0]	@ zero_extendqisi2
 477 000c 042B     		cmp	r3, #4
 478 000e 04D1     		bne	.L64
 375:src/mxml-get.c ****   {
 376:src/mxml-get.c ****     if (whitespace)
 479              		.loc 1 376 0
 480 0010 09B1     		cbz	r1, .L65
 377:src/mxml-get.c ****       *whitespace = node->value.text.whitespace;
 481              		.loc 1 377 0
 482 0012 8369     		ldr	r3, [r0, #24]
 483 0014 0B60     		str	r3, [r1]
 484              	.L65:
 378:src/mxml-get.c **** 
 379:src/mxml-get.c ****     return (node->value.text.string);
 485              		.loc 1 379 0
 486 0016 C069     		ldr	r0, [r0, #28]
 487              	.LVL44:
 488 0018 7047     		bx	lr
 489              	.LVL45:
 490              	.L64:
 380:src/mxml-get.c ****   }
 381:src/mxml-get.c ****   else if (node->type == MXML_ELEMENT &&
 491              		.loc 1 381 0
 492 001a 002B     		cmp	r3, #0
 493 001c F1D1     		bne	.L66
 382:src/mxml-get.c ****            node->child &&
 494              		.loc 1 382 0 discriminator 1
 495 001e 0369     		ldr	r3, [r0, #16]
 381:src/mxml-get.c ****            node->child &&
 496              		.loc 1 381 0 discriminator 1
 497 0020 002B     		cmp	r3, #0
 498 0022 EED0     		beq	.L66
 499              		.loc 1 382 0
 500 0024 93F90020 		ldrsb	r2, [r3]
 501 0028 042A     		cmp	r2, #4
 502 002a EAD1     		bne	.L66
 383:src/mxml-get.c **** 	   node->child->type == MXML_TEXT)
 384:src/mxml-get.c ****   {
 385:src/mxml-get.c ****     if (whitespace)
 503              		.loc 1 385 0
 504 002c 09B1     		cbz	r1, .L67
 386:src/mxml-get.c ****       *whitespace = node->child->value.text.whitespace;
 505              		.loc 1 386 0
 506 002e 9A69     		ldr	r2, [r3, #24]
 507 0030 0A60     		str	r2, [r1]
 508              	.L67:
 387:src/mxml-get.c **** 
 388:src/mxml-get.c ****     return (node->child->value.text.string);
 509              		.loc 1 388 0
 510 0032 D869     		ldr	r0, [r3, #28]
ARM GAS  C:\Users\AHMED~1.ELE\AppData\Local\Temp\ccodDkDv.s 			page 17


 511              	.LVL46:
 512 0034 7047     		bx	lr
 513              	.L68:
 367:src/mxml-get.c ****   }
 514              		.loc 1 367 0
 515 0036 0846     		mov	r0, r1
 389:src/mxml-get.c ****   }
 390:src/mxml-get.c ****   else
 391:src/mxml-get.c ****   {
 392:src/mxml-get.c ****     if (whitespace)
 393:src/mxml-get.c ****       *whitespace = 0;
 394:src/mxml-get.c **** 
 395:src/mxml-get.c ****     return (NULL);
 396:src/mxml-get.c ****   }
 397:src/mxml-get.c **** }
 516              		.loc 1 397 0
 517 0038 7047     		bx	lr
 518              		.cfi_endproc
 519              	.LFE11:
 520              		.size	mxmlGetText, .-mxmlGetText
 521              		.section	.text.mxmlGetType,"ax",%progbits
 522              		.align	1
 523              		.global	mxmlGetType
 524              		.thumb
 525              		.thumb_func
 526              		.type	mxmlGetType, %function
 527              	mxmlGetType:
 528              	.LFB12:
 398:src/mxml-get.c **** 
 399:src/mxml-get.c **** 
 400:src/mxml-get.c **** /*
 401:src/mxml-get.c ****  * 'mxmlGetType()' - Get the node type.
 402:src/mxml-get.c ****  *
 403:src/mxml-get.c ****  * @code MXML_IGNORE@ is returned if "node" is @code NULL@.
 404:src/mxml-get.c ****  *
 405:src/mxml-get.c ****  * @since Mini-XML 2.7@
 406:src/mxml-get.c ****  */
 407:src/mxml-get.c **** 
 408:src/mxml-get.c **** mxml_type_t				/* O - Type of node */
 409:src/mxml-get.c **** mxmlGetType(mxml_node_t *node)		/* I - Node to get */
 410:src/mxml-get.c **** {
 529              		.loc 1 410 0
 530              		.cfi_startproc
 531              		@ args = 0, pretend = 0, frame = 0
 532              		@ frame_needed = 0, uses_anonymous_args = 0
 533              		@ link register save eliminated.
 534              	.LVL47:
 411:src/mxml-get.c ****  /*
 412:src/mxml-get.c ****   * Range check input...
 413:src/mxml-get.c ****   */
 414:src/mxml-get.c **** 
 415:src/mxml-get.c ****   if (!node)
 535              		.loc 1 415 0
 536 0000 08B1     		cbz	r0, .L80
 416:src/mxml-get.c ****     return (MXML_IGNORE);
 417:src/mxml-get.c **** 
 418:src/mxml-get.c ****  /*
ARM GAS  C:\Users\AHMED~1.ELE\AppData\Local\Temp\ccodDkDv.s 			page 18


 419:src/mxml-get.c ****   * Return the node type...
 420:src/mxml-get.c ****   */
 421:src/mxml-get.c **** 
 422:src/mxml-get.c ****   return (node->type);
 537              		.loc 1 422 0
 538 0002 0078     		ldrb	r0, [r0]	@ zero_extendqisi2
 539              	.LVL48:
 540 0004 00E0     		b	.L79
 541              	.LVL49:
 542              	.L80:
 416:src/mxml-get.c ****     return (MXML_IGNORE);
 543              		.loc 1 416 0
 544 0006 FF20     		movs	r0, #255
 545              	.LVL50:
 546              	.L79:
 423:src/mxml-get.c **** }
 547              		.loc 1 423 0
 548 0008 40B2     		sxtb	r0, r0
 549 000a 7047     		bx	lr
 550              		.cfi_endproc
 551              	.LFE12:
 552              		.size	mxmlGetType, .-mxmlGetType
 553              		.section	.text.mxmlGetUserData,"ax",%progbits
 554              		.align	1
 555              		.global	mxmlGetUserData
 556              		.thumb
 557              		.thumb_func
 558              		.type	mxmlGetUserData, %function
 559              	mxmlGetUserData:
 560              	.LFB13:
 424:src/mxml-get.c **** 
 425:src/mxml-get.c **** 
 426:src/mxml-get.c **** /*
 427:src/mxml-get.c ****  * 'mxmlGetUserData()' - Get the user data pointer for a node.
 428:src/mxml-get.c ****  *
 429:src/mxml-get.c ****  * @since Mini-XML 2.7@
 430:src/mxml-get.c ****  */
 431:src/mxml-get.c **** 
 432:src/mxml-get.c **** void *					/* O - User data pointer */
 433:src/mxml-get.c **** mxmlGetUserData(mxml_node_t *node)	/* I - Node to get */
 434:src/mxml-get.c **** {
 561              		.loc 1 434 0
 562              		.cfi_startproc
 563              		@ args = 0, pretend = 0, frame = 0
 564              		@ frame_needed = 0, uses_anonymous_args = 0
 565              		@ link register save eliminated.
 566              	.LVL51:
 435:src/mxml-get.c ****  /*
 436:src/mxml-get.c ****   * Range check input...
 437:src/mxml-get.c ****   */
 438:src/mxml-get.c **** 
 439:src/mxml-get.c ****   if (!node)
 567              		.loc 1 439 0
 568 0000 00B1     		cbz	r0, .L82
 440:src/mxml-get.c ****     return (NULL);
 441:src/mxml-get.c **** 
 442:src/mxml-get.c ****  /*
ARM GAS  C:\Users\AHMED~1.ELE\AppData\Local\Temp\ccodDkDv.s 			page 19


 443:src/mxml-get.c ****   * Return the user data pointer...
 444:src/mxml-get.c ****   */
 445:src/mxml-get.c **** 
 446:src/mxml-get.c ****   return (node->user_data);
 569              		.loc 1 446 0
 570 0002 C06A     		ldr	r0, [r0, #44]
 571              	.LVL52:
 572              	.L82:
 447:src/mxml-get.c **** }
 573              		.loc 1 447 0
 574 0004 7047     		bx	lr
 575              		.cfi_endproc
 576              	.LFE13:
 577              		.size	mxmlGetUserData, .-mxmlGetUserData
 578              		.section	.rodata.str1.1,"aMS",%progbits,1
 579              	.LC0:
 580 0000 215B4344 		.ascii	"![CDATA[\000"
 580      4154415B 
 580      00
 581              		.text
 582              	.Letext0:
 583              		.file 2 "c:\\devtools\\gcc_v49_2014q4\\lib\\gcc\\arm-none-eabi\\4.9.3\\include\\stddef.h"
 584              		.file 3 "src/mxml.h"
 585              		.file 4 "c:\\devtools\\gcc_v49_2014q4\\arm-none-eabi\\include\\string.h"