ARM GAS  C:\Users\AHMED~1.ELE\AppData\Local\Temp\ccbrMpYT.s 			page 1


   1              		.syntax unified
   2              		.cpu cortex-a5
   3              		.fpu softvfp
   4              		.eabi_attribute 20, 1
   5              		.eabi_attribute 21, 1
   6              		.eabi_attribute 23, 3
   7              		.eabi_attribute 24, 1
   8              		.eabi_attribute 25, 1
   9              		.eabi_attribute 26, 1
  10              		.eabi_attribute 30, 4
  11              		.eabi_attribute 34, 0
  12              		.eabi_attribute 18, 4
  13              		.thumb
  14              		.file	"mxml-file.c"
  15              		.text
  16              	.Ltext0:
  17              		.cfi_sections	.debug_frame
  18              		.section	.text.mxml_string_getc,"ax",%progbits
  19              		.align	1
  20              		.thumb
  21              		.thumb_func
  22              		.type	mxml_string_getc, %function
  23              	mxml_string_getc:
  24              	.LFB11:
  25              		.file 1 "src/mxml-file.c"
   1:src/mxml-file.c **** /*
   2:src/mxml-file.c ****  * "$Id: mxml-file.c 459 2014-10-19 17:21:48Z msweet $"
   3:src/mxml-file.c ****  *
   4:src/mxml-file.c ****  * File loading code for Mini-XML, a small XML-like file parsing library.
   5:src/mxml-file.c ****  *
   6:src/mxml-file.c ****  * Copyright 2003-2014 by Michael R Sweet.
   7:src/mxml-file.c ****  *
   8:src/mxml-file.c ****  * These coded instructions, statements, and computer programs are the
   9:src/mxml-file.c ****  * property of Michael R Sweet and are protected by Federal copyright
  10:src/mxml-file.c ****  * law.  Distribution and use rights are outlined in the file "COPYING"
  11:src/mxml-file.c ****  * which should have been included with this file.  If this file is
  12:src/mxml-file.c ****  * missing or damaged, see the license at:
  13:src/mxml-file.c ****  *
  14:src/mxml-file.c ****  *     http://www.msweet.org/projects.php/Mini-XML
  15:src/mxml-file.c ****  */
  16:src/mxml-file.c **** 
  17:src/mxml-file.c **** /*
  18:src/mxml-file.c ****  * Include necessary headers...
  19:src/mxml-file.c ****  */
  20:src/mxml-file.c **** 
  21:src/mxml-file.c **** #ifndef WIN32
  22:src/mxml-file.c **** #  include <unistd.h>
  23:src/mxml-file.c **** #endif /* !WIN32 */
  24:src/mxml-file.c **** #include "mxml-private.h"
  25:src/mxml-file.c **** 
  26:src/mxml-file.c **** 
  27:src/mxml-file.c **** /*
  28:src/mxml-file.c ****  * Character encoding...
  29:src/mxml-file.c ****  */
  30:src/mxml-file.c **** 
  31:src/mxml-file.c **** #define ENCODE_UTF8	0		/* UTF-8 */
  32:src/mxml-file.c **** #define ENCODE_UTF16BE	1		/* UTF-16 Big-Endian */
ARM GAS  C:\Users\AHMED~1.ELE\AppData\Local\Temp\ccbrMpYT.s 			page 2


  33:src/mxml-file.c **** #define ENCODE_UTF16LE	2		/* UTF-16 Little-Endian */
  34:src/mxml-file.c **** 
  35:src/mxml-file.c **** 
  36:src/mxml-file.c **** /*
  37:src/mxml-file.c ****  * Macro to test for a bad XML character...
  38:src/mxml-file.c ****  */
  39:src/mxml-file.c **** 
  40:src/mxml-file.c **** #define mxml_bad_char(ch) ((ch) < ' ' && (ch) != '\n' && (ch) != '\r' && (ch) != '\t')
  41:src/mxml-file.c **** 
  42:src/mxml-file.c **** 
  43:src/mxml-file.c **** /*
  44:src/mxml-file.c ****  * Types and structures...
  45:src/mxml-file.c ****  */
  46:src/mxml-file.c **** 
  47:src/mxml-file.c **** typedef int (*_mxml_getc_cb_t)(void *, int *);
  48:src/mxml-file.c **** typedef int (*_mxml_putc_cb_t)(int, void *);
  49:src/mxml-file.c **** 
  50:src/mxml-file.c **** typedef struct _mxml_fdbuf_s		/**** File descriptor buffer ****/
  51:src/mxml-file.c **** {
  52:src/mxml-file.c ****   int		fd;			/* File descriptor */
  53:src/mxml-file.c ****   unsigned char	*current,		/* Current position in buffer */
  54:src/mxml-file.c **** 		*end,			/* End of buffer */
  55:src/mxml-file.c **** 		buffer[8192];		/* Character buffer */
  56:src/mxml-file.c **** } _mxml_fdbuf_t;
  57:src/mxml-file.c **** 
  58:src/mxml-file.c **** 
  59:src/mxml-file.c **** /*
  60:src/mxml-file.c ****  * Local functions...
  61:src/mxml-file.c ****  */
  62:src/mxml-file.c **** 
  63:src/mxml-file.c **** static int		mxml_add_char(int ch, char **ptr, char **buffer,
  64:src/mxml-file.c **** 			              int *bufsize);
  65:src/mxml-file.c **** #if 0
  66:src/mxml-file.c **** static int		mxml_fd_getc(void *p, int *encoding);
  67:src/mxml-file.c **** static int		mxml_fd_putc(int ch, void *p);
  68:src/mxml-file.c **** static int		mxml_fd_read(_mxml_fdbuf_t *buf);
  69:src/mxml-file.c **** static int		mxml_fd_write(_mxml_fdbuf_t *buf);
  70:src/mxml-file.c **** static int		mxml_file_getc(void *p, int *encoding);
  71:src/mxml-file.c **** static int		mxml_file_putc(int ch, void *p);
  72:src/mxml-file.c **** #endif
  73:src/mxml-file.c **** static int		mxml_get_entity(mxml_node_t *parent, void *p,
  74:src/mxml-file.c **** 			                int *encoding,
  75:src/mxml-file.c **** 					_mxml_getc_cb_t getc_cb);
  76:src/mxml-file.c **** static inline int	mxml_isspace(int ch)
  77:src/mxml-file.c **** 			{
  78:src/mxml-file.c **** 			  return (ch == ' ' || ch == '\t' || ch == '\r' ||
  79:src/mxml-file.c **** 			          ch == '\n');
  80:src/mxml-file.c **** 			}
  81:src/mxml-file.c **** static inline int	mxml_isspace_only(int ch)
  82:src/mxml-file.c **** 			{
  83:src/mxml-file.c **** 			  return (ch == ' ');
  84:src/mxml-file.c **** 			}
  85:src/mxml-file.c **** static mxml_node_t	*mxml_load_data(mxml_node_t *top, void *p,
  86:src/mxml-file.c **** 			                mxml_load_cb_t cb,
  87:src/mxml-file.c **** 			                _mxml_getc_cb_t getc_cb,
  88:src/mxml-file.c ****                                         mxml_sax_cb_t sax_cb, void *sax_data);
  89:src/mxml-file.c **** static int		mxml_parse_element(mxml_node_t *node, void *p,
ARM GAS  C:\Users\AHMED~1.ELE\AppData\Local\Temp\ccbrMpYT.s 			page 3


  90:src/mxml-file.c **** 			                   int *encoding,
  91:src/mxml-file.c **** 					   _mxml_getc_cb_t getc_cb);
  92:src/mxml-file.c **** static int		mxml_string_getc(void *p, int *encoding);
  93:src/mxml-file.c **** #if 0
  94:src/mxml-file.c **** static int		mxml_string_putc(int ch, void *p);
  95:src/mxml-file.c **** static int		mxml_write_name(const char *s, void *p,
  96:src/mxml-file.c **** 					_mxml_putc_cb_t putc_cb);
  97:src/mxml-file.c **** static int		mxml_write_node(mxml_node_t *node, void *p,
  98:src/mxml-file.c **** 			                mxml_save_cb_t cb, int col,
  99:src/mxml-file.c **** 					_mxml_putc_cb_t putc_cb,
 100:src/mxml-file.c **** 					_mxml_global_t *global);
 101:src/mxml-file.c **** static int		mxml_write_string(const char *s, void *p,
 102:src/mxml-file.c **** 					  _mxml_putc_cb_t putc_cb);
 103:src/mxml-file.c **** static int		mxml_write_ws(mxml_node_t *node, void *p,
 104:src/mxml-file.c **** 			              mxml_save_cb_t cb, int ws,
 105:src/mxml-file.c **** 				      int col, _mxml_putc_cb_t putc_cb);
 106:src/mxml-file.c **** #endif
 107:src/mxml-file.c **** 
 108:src/mxml-file.c **** 
 109:src/mxml-file.c **** /*
 110:src/mxml-file.c ****  * 'mxmlLoadFd()' - Load a file descriptor into an XML node tree.
 111:src/mxml-file.c ****  *
 112:src/mxml-file.c ****  * The nodes in the specified file are added to the specified top node.
 113:src/mxml-file.c ****  * If no top node is provided, the XML file MUST be well-formed with a
 114:src/mxml-file.c ****  * single parent node like <?xml> for the entire file. The callback
 115:src/mxml-file.c ****  * function returns the value type that should be used for child nodes.
 116:src/mxml-file.c ****  * If MXML_NO_CALLBACK is specified then all child nodes will be either
 117:src/mxml-file.c ****  * MXML_ELEMENT or MXML_TEXT nodes.
 118:src/mxml-file.c ****  *
 119:src/mxml-file.c ****  * The constants MXML_INTEGER_CALLBACK, MXML_OPAQUE_CALLBACK,
 120:src/mxml-file.c ****  * MXML_REAL_CALLBACK, and MXML_TEXT_CALLBACK are defined for loading
 121:src/mxml-file.c ****  * child nodes of the specified type.
 122:src/mxml-file.c ****  */
 123:src/mxml-file.c **** 
 124:src/mxml-file.c **** #if 0
 125:src/mxml-file.c **** mxml_node_t *				/* O - First node or NULL if the file could not be read. */
 126:src/mxml-file.c **** mxmlLoadFd(mxml_node_t    *top,		/* I - Top node */
 127:src/mxml-file.c ****            int            fd,		/* I - File descriptor to read from */
 128:src/mxml-file.c ****            mxml_load_cb_t cb)		/* I - Callback function or MXML_NO_CALLBACK */
 129:src/mxml-file.c **** {
 130:src/mxml-file.c ****   _mxml_fdbuf_t	buf;			/* File descriptor buffer */
 131:src/mxml-file.c **** 
 132:src/mxml-file.c **** 
 133:src/mxml-file.c ****  /*
 134:src/mxml-file.c ****   * Initialize the file descriptor buffer...
 135:src/mxml-file.c ****   */
 136:src/mxml-file.c **** 
 137:src/mxml-file.c ****   buf.fd      = fd;
 138:src/mxml-file.c ****   buf.current = buf.buffer;
 139:src/mxml-file.c ****   buf.end     = buf.buffer;
 140:src/mxml-file.c **** 
 141:src/mxml-file.c ****  /*
 142:src/mxml-file.c ****   * Read the XML data...
 143:src/mxml-file.c ****   */
 144:src/mxml-file.c **** 
 145:src/mxml-file.c ****   return (mxml_load_data(top, &buf, cb, mxml_fd_getc, MXML_NO_CALLBACK, NULL));
 146:src/mxml-file.c **** }
ARM GAS  C:\Users\AHMED~1.ELE\AppData\Local\Temp\ccbrMpYT.s 			page 4


 147:src/mxml-file.c **** 
 148:src/mxml-file.c **** 
 149:src/mxml-file.c **** /*
 150:src/mxml-file.c ****  * 'mxmlLoadFile()' - Load a file into an XML node tree.
 151:src/mxml-file.c ****  *
 152:src/mxml-file.c ****  * The nodes in the specified file are added to the specified top node.
 153:src/mxml-file.c ****  * If no top node is provided, the XML file MUST be well-formed with a
 154:src/mxml-file.c ****  * single parent node like <?xml> for the entire file. The callback
 155:src/mxml-file.c ****  * function returns the value type that should be used for child nodes.
 156:src/mxml-file.c ****  * If MXML_NO_CALLBACK is specified then all child nodes will be either
 157:src/mxml-file.c ****  * MXML_ELEMENT or MXML_TEXT nodes.
 158:src/mxml-file.c ****  *
 159:src/mxml-file.c ****  * The constants MXML_INTEGER_CALLBACK, MXML_OPAQUE_CALLBACK,
 160:src/mxml-file.c ****  * MXML_REAL_CALLBACK, and MXML_TEXT_CALLBACK are defined for loading
 161:src/mxml-file.c ****  * child nodes of the specified type.
 162:src/mxml-file.c ****  */
 163:src/mxml-file.c **** 
 164:src/mxml-file.c **** mxml_node_t *				/* O - First node or NULL if the file could not be read. */
 165:src/mxml-file.c **** mxmlLoadFile(mxml_node_t    *top,	/* I - Top node */
 166:src/mxml-file.c ****              FILE           *fp,	/* I - File to read from */
 167:src/mxml-file.c ****              mxml_load_cb_t cb)		/* I - Callback function or MXML_NO_CALLBACK */
 168:src/mxml-file.c **** {
 169:src/mxml-file.c ****  /*
 170:src/mxml-file.c ****   * Read the XML data...
 171:src/mxml-file.c ****   */
 172:src/mxml-file.c **** 
 173:src/mxml-file.c ****   return (mxml_load_data(top, fp, cb, mxml_file_getc, MXML_NO_CALLBACK, NULL));
 174:src/mxml-file.c **** }
 175:src/mxml-file.c **** #endif
 176:src/mxml-file.c **** 
 177:src/mxml-file.c **** /*
 178:src/mxml-file.c ****  * 'mxmlLoadString()' - Load a string into an XML node tree.
 179:src/mxml-file.c ****  *
 180:src/mxml-file.c ****  * The nodes in the specified string are added to the specified top node.
 181:src/mxml-file.c ****  * If no top node is provided, the XML string MUST be well-formed with a
 182:src/mxml-file.c ****  * single parent node like <?xml> for the entire string. The callback
 183:src/mxml-file.c ****  * function returns the value type that should be used for child nodes.
 184:src/mxml-file.c ****  * If MXML_NO_CALLBACK is specified then all child nodes will be either
 185:src/mxml-file.c ****  * MXML_ELEMENT or MXML_TEXT nodes.
 186:src/mxml-file.c ****  *
 187:src/mxml-file.c ****  * The constants MXML_INTEGER_CALLBACK, MXML_OPAQUE_CALLBACK,
 188:src/mxml-file.c ****  * MXML_REAL_CALLBACK, and MXML_TEXT_CALLBACK are defined for loading
 189:src/mxml-file.c ****  * child nodes of the specified type.
 190:src/mxml-file.c ****  */
 191:src/mxml-file.c **** 
 192:src/mxml-file.c **** mxml_node_t *				/* O - First node or NULL if the string has errors. */
 193:src/mxml-file.c **** mxmlLoadString(mxml_node_t    *top,	/* I - Top node */
 194:src/mxml-file.c ****                const char     *s,	/* I - String to load */
 195:src/mxml-file.c ****                mxml_load_cb_t cb)	/* I - Callback function or MXML_NO_CALLBACK */
 196:src/mxml-file.c **** {
 197:src/mxml-file.c ****  /*
 198:src/mxml-file.c ****   * Read the XML data...
 199:src/mxml-file.c ****   */
 200:src/mxml-file.c **** 
 201:src/mxml-file.c ****   return (mxml_load_data(top, (void *)&s, cb, mxml_string_getc, MXML_NO_CALLBACK,
 202:src/mxml-file.c ****                          NULL));
 203:src/mxml-file.c **** }
ARM GAS  C:\Users\AHMED~1.ELE\AppData\Local\Temp\ccbrMpYT.s 			page 5


 204:src/mxml-file.c **** 
 205:src/mxml-file.c **** 
 206:src/mxml-file.c **** /*
 207:src/mxml-file.c ****  * 'mxmlSaveAllocString()' - Save an XML tree to an allocated string.
 208:src/mxml-file.c ****  *
 209:src/mxml-file.c ****  * This function returns a pointer to a string containing the textual
 210:src/mxml-file.c ****  * representation of the XML node tree.  The string should be freed
 211:src/mxml-file.c ****  * using the os_free() function when you are done with it.  NULL is returned
 212:src/mxml-file.c ****  * if the node would produce an empty string or if the string cannot be
 213:src/mxml-file.c ****  * allocated.
 214:src/mxml-file.c ****  *
 215:src/mxml-file.c ****  * The callback argument specifies a function that returns a whitespace
 216:src/mxml-file.c ****  * string or NULL before and after each element. If MXML_NO_CALLBACK
 217:src/mxml-file.c ****  * is specified, whitespace will only be added before MXML_TEXT nodes
 218:src/mxml-file.c ****  * with leading whitespace and before attribute names inside opening
 219:src/mxml-file.c ****  * element tags.
 220:src/mxml-file.c ****  */
 221:src/mxml-file.c **** 
 222:src/mxml-file.c **** #if 0
 223:src/mxml-file.c **** char *					/* O - Allocated string or NULL */
 224:src/mxml-file.c **** mxmlSaveAllocString(
 225:src/mxml-file.c ****     mxml_node_t    *node,		/* I - Node to write */
 226:src/mxml-file.c ****     mxml_save_cb_t cb)			/* I - Whitespace callback or MXML_NO_CALLBACK */
 227:src/mxml-file.c **** {
 228:src/mxml-file.c ****   int	bytes;				/* Required bytes */
 229:src/mxml-file.c ****   char	buffer[8192];			/* Temporary buffer */
 230:src/mxml-file.c ****   char	*s;				/* Allocated string */
 231:src/mxml-file.c **** 
 232:src/mxml-file.c **** 
 233:src/mxml-file.c ****  /*
 234:src/mxml-file.c ****   * Write the node to the temporary buffer...
 235:src/mxml-file.c ****   */
 236:src/mxml-file.c **** 
 237:src/mxml-file.c ****   bytes = mxmlSaveString(node, buffer, sizeof(buffer), cb);
 238:src/mxml-file.c **** 
 239:src/mxml-file.c ****   if (bytes <= 0)
 240:src/mxml-file.c ****     return (NULL);
 241:src/mxml-file.c **** 
 242:src/mxml-file.c ****   if (bytes < (int)(sizeof(buffer) - 1))
 243:src/mxml-file.c ****   {
 244:src/mxml-file.c ****    /*
 245:src/mxml-file.c ****     * Node fit inside the buffer, so just duplicate that string and
 246:src/mxml-file.c ****     * return...
 247:src/mxml-file.c ****     */
 248:src/mxml-file.c **** 
 249:src/mxml-file.c ****     return (strdup(buffer));
 250:src/mxml-file.c ****   }
 251:src/mxml-file.c **** 
 252:src/mxml-file.c ****  /*
 253:src/mxml-file.c ****   * Allocate a buffer of the required size and save the node to the
 254:src/mxml-file.c ****   * new buffer...
 255:src/mxml-file.c ****   */
 256:src/mxml-file.c **** 
 257:src/mxml-file.c ****   if ((s = os_malloc(bytes + 1)) == NULL)
 258:src/mxml-file.c ****     return (NULL);
 259:src/mxml-file.c **** 
 260:src/mxml-file.c ****   mxmlSaveString(node, s, bytes + 1, cb);
ARM GAS  C:\Users\AHMED~1.ELE\AppData\Local\Temp\ccbrMpYT.s 			page 6


 261:src/mxml-file.c **** 
 262:src/mxml-file.c ****  /*
 263:src/mxml-file.c ****   * Return the allocated string...
 264:src/mxml-file.c ****   */
 265:src/mxml-file.c **** 
 266:src/mxml-file.c ****   return (s);
 267:src/mxml-file.c **** }
 268:src/mxml-file.c **** 
 269:src/mxml-file.c **** 
 270:src/mxml-file.c **** /*
 271:src/mxml-file.c ****  * 'mxmlSaveFd()' - Save an XML tree to a file descriptor.
 272:src/mxml-file.c ****  *
 273:src/mxml-file.c ****  * The callback argument specifies a function that returns a whitespace
 274:src/mxml-file.c ****  * string or NULL before and after each element. If MXML_NO_CALLBACK
 275:src/mxml-file.c ****  * is specified, whitespace will only be added before MXML_TEXT nodes
 276:src/mxml-file.c ****  * with leading whitespace and before attribute names inside opening
 277:src/mxml-file.c ****  * element tags.
 278:src/mxml-file.c ****  */
 279:src/mxml-file.c **** 
 280:src/mxml-file.c **** int					/* O - 0 on success, -1 on error. */
 281:src/mxml-file.c **** mxmlSaveFd(mxml_node_t    *node,	/* I - Node to write */
 282:src/mxml-file.c ****            int            fd,		/* I - File descriptor to write to */
 283:src/mxml-file.c **** 	   mxml_save_cb_t cb)		/* I - Whitespace callback or MXML_NO_CALLBACK */
 284:src/mxml-file.c **** {
 285:src/mxml-file.c ****   int		col;			/* Final column */
 286:src/mxml-file.c ****   _mxml_fdbuf_t	buf;			/* File descriptor buffer */
 287:src/mxml-file.c ****   _mxml_global_t *global = _mxml_global();
 288:src/mxml-file.c **** 					/* Global data */
 289:src/mxml-file.c **** 
 290:src/mxml-file.c **** 
 291:src/mxml-file.c ****  /*
 292:src/mxml-file.c ****   * Initialize the file descriptor buffer...
 293:src/mxml-file.c ****   */
 294:src/mxml-file.c **** 
 295:src/mxml-file.c ****   buf.fd      = fd;
 296:src/mxml-file.c ****   buf.current = buf.buffer;
 297:src/mxml-file.c ****   buf.end     = buf.buffer + sizeof(buf.buffer);
 298:src/mxml-file.c **** 
 299:src/mxml-file.c ****  /*
 300:src/mxml-file.c ****   * Write the node...
 301:src/mxml-file.c ****   */
 302:src/mxml-file.c **** 
 303:src/mxml-file.c ****   if ((col = mxml_write_node(node, &buf, cb, 0, mxml_fd_putc, global)) < 0)
 304:src/mxml-file.c ****     return (-1);
 305:src/mxml-file.c **** 
 306:src/mxml-file.c ****   if (col > 0)
 307:src/mxml-file.c ****     if (mxml_fd_putc('\n', &buf) < 0)
 308:src/mxml-file.c ****       return (-1);
 309:src/mxml-file.c **** 
 310:src/mxml-file.c ****  /*
 311:src/mxml-file.c ****   * Flush and return...
 312:src/mxml-file.c ****   */
 313:src/mxml-file.c **** 
 314:src/mxml-file.c ****   return (mxml_fd_write(&buf));
 315:src/mxml-file.c **** }
 316:src/mxml-file.c **** 
 317:src/mxml-file.c **** 
ARM GAS  C:\Users\AHMED~1.ELE\AppData\Local\Temp\ccbrMpYT.s 			page 7


 318:src/mxml-file.c **** /*
 319:src/mxml-file.c ****  * 'mxmlSaveFile()' - Save an XML tree to a file.
 320:src/mxml-file.c ****  *
 321:src/mxml-file.c ****  * The callback argument specifies a function that returns a whitespace
 322:src/mxml-file.c ****  * string or NULL before and after each element. If MXML_NO_CALLBACK
 323:src/mxml-file.c ****  * is specified, whitespace will only be added before MXML_TEXT nodes
 324:src/mxml-file.c ****  * with leading whitespace and before attribute names inside opening
 325:src/mxml-file.c ****  * element tags.
 326:src/mxml-file.c ****  */
 327:src/mxml-file.c **** 
 328:src/mxml-file.c **** int					/* O - 0 on success, -1 on error. */
 329:src/mxml-file.c **** mxmlSaveFile(mxml_node_t    *node,	/* I - Node to write */
 330:src/mxml-file.c ****              FILE           *fp,	/* I - File to write to */
 331:src/mxml-file.c **** 	     mxml_save_cb_t cb)		/* I - Whitespace callback or MXML_NO_CALLBACK */
 332:src/mxml-file.c **** {
 333:src/mxml-file.c ****   int	col;				/* Final column */
 334:src/mxml-file.c ****   _mxml_global_t *global = _mxml_global();
 335:src/mxml-file.c **** 					/* Global data */
 336:src/mxml-file.c **** 
 337:src/mxml-file.c **** 
 338:src/mxml-file.c ****  /*
 339:src/mxml-file.c ****   * Write the node...
 340:src/mxml-file.c ****   */
 341:src/mxml-file.c **** 
 342:src/mxml-file.c ****   if ((col = mxml_write_node(node, fp, cb, 0, mxml_file_putc, global)) < 0)
 343:src/mxml-file.c ****     return (-1);
 344:src/mxml-file.c **** 
 345:src/mxml-file.c ****   if (col > 0)
 346:src/mxml-file.c ****     if (putc('\n', fp) < 0)
 347:src/mxml-file.c ****       return (-1);
 348:src/mxml-file.c **** 
 349:src/mxml-file.c ****  /*
 350:src/mxml-file.c ****   * Return 0 (success)...
 351:src/mxml-file.c ****   */
 352:src/mxml-file.c **** 
 353:src/mxml-file.c ****   return (0);
 354:src/mxml-file.c **** }
 355:src/mxml-file.c **** 
 356:src/mxml-file.c **** /*
 357:src/mxml-file.c ****  * 'mxmlSaveString()' - Save an XML node tree to a string.
 358:src/mxml-file.c ****  *
 359:src/mxml-file.c ****  * This function returns the total number of bytes that would be
 360:src/mxml-file.c ****  * required for the string but only copies (bufsize - 1) characters
 361:src/mxml-file.c ****  * into the specified buffer.
 362:src/mxml-file.c ****  *
 363:src/mxml-file.c ****  * The callback argument specifies a function that returns a whitespace
 364:src/mxml-file.c ****  * string or NULL before and after each element. If MXML_NO_CALLBACK
 365:src/mxml-file.c ****  * is specified, whitespace will only be added before MXML_TEXT nodes
 366:src/mxml-file.c ****  * with leading whitespace and before attribute names inside opening
 367:src/mxml-file.c ****  * element tags.
 368:src/mxml-file.c ****  */
 369:src/mxml-file.c **** 
 370:src/mxml-file.c **** int					/* O - Size of string */
 371:src/mxml-file.c **** mxmlSaveString(mxml_node_t    *node,	/* I - Node to write */
 372:src/mxml-file.c ****                char           *buffer,	/* I - String buffer */
 373:src/mxml-file.c ****                int            bufsize,	/* I - Size of string buffer */
 374:src/mxml-file.c ****                mxml_save_cb_t cb)	/* I - Whitespace callback or MXML_NO_CALLBACK */
ARM GAS  C:\Users\AHMED~1.ELE\AppData\Local\Temp\ccbrMpYT.s 			page 8


 375:src/mxml-file.c **** {
 376:src/mxml-file.c ****   int	col;				/* Final column */
 377:src/mxml-file.c ****   char	*ptr[2];			/* Pointers for putc_cb */
 378:src/mxml-file.c ****   _mxml_global_t *global = _mxml_global();
 379:src/mxml-file.c **** 					/* Global data */
 380:src/mxml-file.c **** 
 381:src/mxml-file.c **** 
 382:src/mxml-file.c ****  /*
 383:src/mxml-file.c ****   * Write the node...
 384:src/mxml-file.c ****   */
 385:src/mxml-file.c **** 
 386:src/mxml-file.c ****   ptr[0] = buffer;
 387:src/mxml-file.c ****   ptr[1] = buffer + bufsize;
 388:src/mxml-file.c **** 
 389:src/mxml-file.c ****   if ((col = mxml_write_node(node, ptr, cb, 0, mxml_string_putc, global)) < 0)
 390:src/mxml-file.c ****     return (-1);
 391:src/mxml-file.c **** 
 392:src/mxml-file.c ****   if (col > 0)
 393:src/mxml-file.c ****     mxml_string_putc('\n', ptr);
 394:src/mxml-file.c **** 
 395:src/mxml-file.c ****  /*
 396:src/mxml-file.c ****   * Nul-terminate the buffer...
 397:src/mxml-file.c ****   */
 398:src/mxml-file.c **** 
 399:src/mxml-file.c ****   if (ptr[0] >= ptr[1])
 400:src/mxml-file.c ****     buffer[bufsize - 1] = '\0';
 401:src/mxml-file.c ****   else
 402:src/mxml-file.c ****     ptr[0][0] = '\0';
 403:src/mxml-file.c **** 
 404:src/mxml-file.c ****  /*
 405:src/mxml-file.c ****   * Return the number of characters...
 406:src/mxml-file.c ****   */
 407:src/mxml-file.c **** 
 408:src/mxml-file.c ****   return (ptr[0] - buffer);
 409:src/mxml-file.c **** }
 410:src/mxml-file.c **** 
 411:src/mxml-file.c **** 
 412:src/mxml-file.c **** /*
 413:src/mxml-file.c ****  * 'mxmlSAXLoadFd()' - Load a file descriptor into an XML node tree
 414:src/mxml-file.c ****  *                     using a SAX callback.
 415:src/mxml-file.c ****  *
 416:src/mxml-file.c ****  * The nodes in the specified file are added to the specified top node.
 417:src/mxml-file.c ****  * If no top node is provided, the XML file MUST be well-formed with a
 418:src/mxml-file.c ****  * single parent node like <?xml> for the entire file. The callback
 419:src/mxml-file.c ****  * function returns the value type that should be used for child nodes.
 420:src/mxml-file.c ****  * If MXML_NO_CALLBACK is specified then all child nodes will be either
 421:src/mxml-file.c ****  * MXML_ELEMENT or MXML_TEXT nodes.
 422:src/mxml-file.c ****  *
 423:src/mxml-file.c ****  * The constants MXML_INTEGER_CALLBACK, MXML_OPAQUE_CALLBACK,
 424:src/mxml-file.c ****  * MXML_REAL_CALLBACK, and MXML_TEXT_CALLBACK are defined for loading
 425:src/mxml-file.c ****  * child nodes of the specified type.
 426:src/mxml-file.c ****  *
 427:src/mxml-file.c ****  * The SAX callback must call mxmlRetain() for any nodes that need to
 428:src/mxml-file.c ****  * be kept for later use. Otherwise, nodes are deleted when the parent
 429:src/mxml-file.c ****  * node is closed or after each data, comment, CDATA, or directive node.
 430:src/mxml-file.c ****  *
 431:src/mxml-file.c ****  * @since Mini-XML 2.3@
ARM GAS  C:\Users\AHMED~1.ELE\AppData\Local\Temp\ccbrMpYT.s 			page 9


 432:src/mxml-file.c ****  */
 433:src/mxml-file.c **** 
 434:src/mxml-file.c **** mxml_node_t *				/* O - First node or NULL if the file could not be read. */
 435:src/mxml-file.c **** mxmlSAXLoadFd(mxml_node_t    *top,	/* I - Top node */
 436:src/mxml-file.c ****               int            fd,	/* I - File descriptor to read from */
 437:src/mxml-file.c ****               mxml_load_cb_t cb,	/* I - Callback function or MXML_NO_CALLBACK */
 438:src/mxml-file.c ****               mxml_sax_cb_t  sax_cb,	/* I - SAX callback or MXML_NO_CALLBACK */
 439:src/mxml-file.c ****               void           *sax_data)	/* I - SAX user data */
 440:src/mxml-file.c **** {
 441:src/mxml-file.c ****   _mxml_fdbuf_t	buf;			/* File descriptor buffer */
 442:src/mxml-file.c **** 
 443:src/mxml-file.c **** 
 444:src/mxml-file.c ****  /*
 445:src/mxml-file.c ****   * Initialize the file descriptor buffer...
 446:src/mxml-file.c ****   */
 447:src/mxml-file.c **** 
 448:src/mxml-file.c ****   buf.fd      = fd;
 449:src/mxml-file.c ****   buf.current = buf.buffer;
 450:src/mxml-file.c ****   buf.end     = buf.buffer;
 451:src/mxml-file.c **** 
 452:src/mxml-file.c ****  /*
 453:src/mxml-file.c ****   * Read the XML data...
 454:src/mxml-file.c ****   */
 455:src/mxml-file.c **** 
 456:src/mxml-file.c ****   return (mxml_load_data(top, &buf, cb, mxml_fd_getc, sax_cb, sax_data));
 457:src/mxml-file.c **** }
 458:src/mxml-file.c **** 
 459:src/mxml-file.c **** 
 460:src/mxml-file.c **** /*
 461:src/mxml-file.c ****  * 'mxmlSAXLoadFile()' - Load a file into an XML node tree
 462:src/mxml-file.c ****  *                       using a SAX callback.
 463:src/mxml-file.c ****  *
 464:src/mxml-file.c ****  * The nodes in the specified file are added to the specified top node.
 465:src/mxml-file.c ****  * If no top node is provided, the XML file MUST be well-formed with a
 466:src/mxml-file.c ****  * single parent node like <?xml> for the entire file. The callback
 467:src/mxml-file.c ****  * function returns the value type that should be used for child nodes.
 468:src/mxml-file.c ****  * If MXML_NO_CALLBACK is specified then all child nodes will be either
 469:src/mxml-file.c ****  * MXML_ELEMENT or MXML_TEXT nodes.
 470:src/mxml-file.c ****  *
 471:src/mxml-file.c ****  * The constants MXML_INTEGER_CALLBACK, MXML_OPAQUE_CALLBACK,
 472:src/mxml-file.c ****  * MXML_REAL_CALLBACK, and MXML_TEXT_CALLBACK are defined for loading
 473:src/mxml-file.c ****  * child nodes of the specified type.
 474:src/mxml-file.c ****  *
 475:src/mxml-file.c ****  * The SAX callback must call mxmlRetain() for any nodes that need to
 476:src/mxml-file.c ****  * be kept for later use. Otherwise, nodes are deleted when the parent
 477:src/mxml-file.c ****  * node is closed or after each data, comment, CDATA, or directive node.
 478:src/mxml-file.c ****  *
 479:src/mxml-file.c ****  * @since Mini-XML 2.3@
 480:src/mxml-file.c ****  */
 481:src/mxml-file.c **** 
 482:src/mxml-file.c **** mxml_node_t *				/* O - First node or NULL if the file could not be read. */
 483:src/mxml-file.c **** mxmlSAXLoadFile(
 484:src/mxml-file.c ****     mxml_node_t    *top,		/* I - Top node */
 485:src/mxml-file.c ****     FILE           *fp,			/* I - File to read from */
 486:src/mxml-file.c ****     mxml_load_cb_t cb,			/* I - Callback function or MXML_NO_CALLBACK */
 487:src/mxml-file.c ****     mxml_sax_cb_t  sax_cb,		/* I - SAX callback or MXML_NO_CALLBACK */
 488:src/mxml-file.c ****     void           *sax_data)		/* I - SAX user data */
ARM GAS  C:\Users\AHMED~1.ELE\AppData\Local\Temp\ccbrMpYT.s 			page 10


 489:src/mxml-file.c **** {
 490:src/mxml-file.c ****  /*
 491:src/mxml-file.c ****   * Read the XML data...
 492:src/mxml-file.c ****   */
 493:src/mxml-file.c **** 
 494:src/mxml-file.c ****   return (mxml_load_data(top, fp, cb, mxml_file_getc, sax_cb, sax_data));
 495:src/mxml-file.c **** }
 496:src/mxml-file.c **** #endif
 497:src/mxml-file.c **** 
 498:src/mxml-file.c **** /*
 499:src/mxml-file.c ****  * 'mxmlSAXLoadString()' - Load a string into an XML node tree
 500:src/mxml-file.c ****  *                         using a SAX callback.
 501:src/mxml-file.c ****  *
 502:src/mxml-file.c ****  * The nodes in the specified string are added to the specified top node.
 503:src/mxml-file.c ****  * If no top node is provided, the XML string MUST be well-formed with a
 504:src/mxml-file.c ****  * single parent node like <?xml> for the entire string. The callback
 505:src/mxml-file.c ****  * function returns the value type that should be used for child nodes.
 506:src/mxml-file.c ****  * If MXML_NO_CALLBACK is specified then all child nodes will be either
 507:src/mxml-file.c ****  * MXML_ELEMENT or MXML_TEXT nodes.
 508:src/mxml-file.c ****  *
 509:src/mxml-file.c ****  * The constants MXML_INTEGER_CALLBACK, MXML_OPAQUE_CALLBACK,
 510:src/mxml-file.c ****  * MXML_REAL_CALLBACK, and MXML_TEXT_CALLBACK are defined for loading
 511:src/mxml-file.c ****  * child nodes of the specified type.
 512:src/mxml-file.c ****  *
 513:src/mxml-file.c ****  * The SAX callback must call mxmlRetain() for any nodes that need to
 514:src/mxml-file.c ****  * be kept for later use. Otherwise, nodes are deleted when the parent
 515:src/mxml-file.c ****  * node is closed or after each data, comment, CDATA, or directive node.
 516:src/mxml-file.c ****  *
 517:src/mxml-file.c ****  * @since Mini-XML 2.3@
 518:src/mxml-file.c ****  */
 519:src/mxml-file.c **** 
 520:src/mxml-file.c **** mxml_node_t *				/* O - First node or NULL if the string has errors. */
 521:src/mxml-file.c **** mxmlSAXLoadString(
 522:src/mxml-file.c ****     mxml_node_t    *top,		/* I - Top node */
 523:src/mxml-file.c ****     const char     *s,			/* I - String to load */
 524:src/mxml-file.c ****     mxml_load_cb_t cb,			/* I - Callback function or MXML_NO_CALLBACK */
 525:src/mxml-file.c ****     mxml_sax_cb_t  sax_cb,		/* I - SAX callback or MXML_NO_CALLBACK */
 526:src/mxml-file.c ****     void           *sax_data)		/* I - SAX user data */
 527:src/mxml-file.c **** {
 528:src/mxml-file.c ****  /*
 529:src/mxml-file.c ****   * Read the XML data...
 530:src/mxml-file.c ****   */
 531:src/mxml-file.c **** 
 532:src/mxml-file.c ****   return (mxml_load_data(top, (void *)&s, cb, mxml_string_getc, sax_cb, sax_data));
 533:src/mxml-file.c **** }
 534:src/mxml-file.c **** 
 535:src/mxml-file.c **** 
 536:src/mxml-file.c **** /*
 537:src/mxml-file.c ****  * 'mxmlSetCustomHandlers()' - Set the handling functions for custom data.
 538:src/mxml-file.c ****  *
 539:src/mxml-file.c ****  * The load function accepts a node pointer and a data string and must
 540:src/mxml-file.c ****  * return 0 on success and non-zero on error.
 541:src/mxml-file.c ****  *
 542:src/mxml-file.c ****  * The save function accepts a node pointer and must return a malloc'd
 543:src/mxml-file.c ****  * string on success and NULL on error.
 544:src/mxml-file.c ****  *
 545:src/mxml-file.c ****  */
ARM GAS  C:\Users\AHMED~1.ELE\AppData\Local\Temp\ccbrMpYT.s 			page 11


 546:src/mxml-file.c **** 
 547:src/mxml-file.c **** void
 548:src/mxml-file.c **** mxmlSetCustomHandlers(
 549:src/mxml-file.c ****     mxml_custom_load_cb_t load,		/* I - Load function */
 550:src/mxml-file.c ****     mxml_custom_save_cb_t save)		/* I - Save function */
 551:src/mxml-file.c **** {
 552:src/mxml-file.c ****   _mxml_global_t *global = _mxml_global();
 553:src/mxml-file.c **** 					/* Global data */
 554:src/mxml-file.c **** 
 555:src/mxml-file.c **** 
 556:src/mxml-file.c ****   global->custom_load_cb = load;
 557:src/mxml-file.c ****   global->custom_save_cb = save;
 558:src/mxml-file.c **** }
 559:src/mxml-file.c **** 
 560:src/mxml-file.c **** 
 561:src/mxml-file.c **** /*
 562:src/mxml-file.c ****  * 'mxmlSetErrorCallback()' - Set the error message callback.
 563:src/mxml-file.c ****  */
 564:src/mxml-file.c **** 
 565:src/mxml-file.c **** void
 566:src/mxml-file.c **** mxmlSetErrorCallback(mxml_error_cb_t cb)/* I - Error callback function */
 567:src/mxml-file.c **** {
 568:src/mxml-file.c ****   _mxml_global_t *global = _mxml_global();
 569:src/mxml-file.c **** 					/* Global data */
 570:src/mxml-file.c **** 
 571:src/mxml-file.c **** 
 572:src/mxml-file.c ****   global->error_cb = cb;
 573:src/mxml-file.c **** }
 574:src/mxml-file.c **** 
 575:src/mxml-file.c **** 
 576:src/mxml-file.c **** /*
 577:src/mxml-file.c ****  * 'mxmlSetWrapMargin()' - Set the wrap margin when saving XML data.
 578:src/mxml-file.c ****  *
 579:src/mxml-file.c ****  * Wrapping is disabled when "column" is 0.
 580:src/mxml-file.c ****  *
 581:src/mxml-file.c ****  * @since Mini-XML 2.3@
 582:src/mxml-file.c ****  */
 583:src/mxml-file.c **** 
 584:src/mxml-file.c **** void
 585:src/mxml-file.c **** mxmlSetWrapMargin(int column)		/* I - Column for wrapping, 0 to disable wrapping */
 586:src/mxml-file.c **** {
 587:src/mxml-file.c ****   _mxml_global_t *global = _mxml_global();
 588:src/mxml-file.c **** 					/* Global data */
 589:src/mxml-file.c **** 
 590:src/mxml-file.c **** 
 591:src/mxml-file.c ****   global->wrap = column;
 592:src/mxml-file.c **** }
 593:src/mxml-file.c **** 
 594:src/mxml-file.c **** 
 595:src/mxml-file.c **** /*
 596:src/mxml-file.c ****  * 'mxml_add_char()' - Add a character to a buffer, expanding as needed.
 597:src/mxml-file.c ****  */
 598:src/mxml-file.c **** 
 599:src/mxml-file.c **** static int				/* O  - 0 on success, -1 on error */
 600:src/mxml-file.c **** mxml_add_char(int  ch,			/* I  - Character to add */
 601:src/mxml-file.c ****               char **bufptr,		/* IO - Current position in buffer */
 602:src/mxml-file.c **** 	      char **buffer,		/* IO - Current buffer */
ARM GAS  C:\Users\AHMED~1.ELE\AppData\Local\Temp\ccbrMpYT.s 			page 12


 603:src/mxml-file.c **** 	      int  *bufsize)		/* IO - Current buffer size */
 604:src/mxml-file.c **** {
 605:src/mxml-file.c ****   char	*newbuffer;			/* New buffer value */
 606:src/mxml-file.c ****   int   oldsize;
 607:src/mxml-file.c **** 
 608:src/mxml-file.c ****   if (*bufptr >= (*buffer + *bufsize - 4))
 609:src/mxml-file.c ****   {
 610:src/mxml-file.c ****    /*
 611:src/mxml-file.c ****     * Increase the size of the buffer...
 612:src/mxml-file.c ****     */
 613:src/mxml-file.c ****     oldsize = *bufsize;
 614:src/mxml-file.c ****     if (*bufsize < 1024)
 615:src/mxml-file.c ****       (*bufsize) *= 2;
 616:src/mxml-file.c ****     else
 617:src/mxml-file.c ****       (*bufsize) += 1024;
 618:src/mxml-file.c **** 
 619:src/mxml-file.c ****     //if ((newbuffer = os_realloc(*buffer, *bufsize)) == NULL)
 620:src/mxml-file.c ****     if ((newbuffer = os_malloc(*bufsize)) == NULL)
 621:src/mxml-file.c ****     {
 622:src/mxml-file.c ****       os_free(*buffer);
 623:src/mxml-file.c **** 
 624:src/mxml-file.c ****       mxml_error("Unable to expand string buffer to %d bytes!", *bufsize);
 625:src/mxml-file.c **** 
 626:src/mxml-file.c ****       return (-1);
 627:src/mxml-file.c ****     }
 628:src/mxml-file.c ****     memcpy(newbuffer, *buffer, oldsize);
 629:src/mxml-file.c ****     os_free(*buffer);
 630:src/mxml-file.c ****     *bufptr = newbuffer + (*bufptr - *buffer);
 631:src/mxml-file.c ****     *buffer = newbuffer;
 632:src/mxml-file.c ****   }
 633:src/mxml-file.c **** 
 634:src/mxml-file.c ****   if (ch < 0x80)
 635:src/mxml-file.c ****   {
 636:src/mxml-file.c ****    /*
 637:src/mxml-file.c ****     * Single byte ASCII...
 638:src/mxml-file.c ****     */
 639:src/mxml-file.c **** 
 640:src/mxml-file.c ****     *(*bufptr)++ = ch;
 641:src/mxml-file.c ****   }
 642:src/mxml-file.c ****   else if (ch < 0x800)
 643:src/mxml-file.c ****   {
 644:src/mxml-file.c ****    /*
 645:src/mxml-file.c ****     * Two-byte UTF-8...
 646:src/mxml-file.c ****     */
 647:src/mxml-file.c **** 
 648:src/mxml-file.c ****     *(*bufptr)++ = 0xc0 | (ch >> 6);
 649:src/mxml-file.c ****     *(*bufptr)++ = 0x80 | (ch & 0x3f);
 650:src/mxml-file.c ****   }
 651:src/mxml-file.c ****   else if (ch < 0x10000)
 652:src/mxml-file.c ****   {
 653:src/mxml-file.c ****    /*
 654:src/mxml-file.c ****     * Three-byte UTF-8...
 655:src/mxml-file.c ****     */
 656:src/mxml-file.c **** 
 657:src/mxml-file.c ****     *(*bufptr)++ = 0xe0 | (ch >> 12);
 658:src/mxml-file.c ****     *(*bufptr)++ = 0x80 | ((ch >> 6) & 0x3f);
 659:src/mxml-file.c ****     *(*bufptr)++ = 0x80 | (ch & 0x3f);
ARM GAS  C:\Users\AHMED~1.ELE\AppData\Local\Temp\ccbrMpYT.s 			page 13


 660:src/mxml-file.c ****   }
 661:src/mxml-file.c ****   else
 662:src/mxml-file.c ****   {
 663:src/mxml-file.c ****    /*
 664:src/mxml-file.c ****     * Four-byte UTF-8...
 665:src/mxml-file.c ****     */
 666:src/mxml-file.c **** 
 667:src/mxml-file.c ****     *(*bufptr)++ = 0xf0 | (ch >> 18);
 668:src/mxml-file.c ****     *(*bufptr)++ = 0x80 | ((ch >> 12) & 0x3f);
 669:src/mxml-file.c ****     *(*bufptr)++ = 0x80 | ((ch >> 6) & 0x3f);
 670:src/mxml-file.c ****     *(*bufptr)++ = 0x80 | (ch & 0x3f);
 671:src/mxml-file.c ****   }
 672:src/mxml-file.c **** 
 673:src/mxml-file.c ****   return (0);
 674:src/mxml-file.c **** }
 675:src/mxml-file.c **** 
 676:src/mxml-file.c **** 
 677:src/mxml-file.c **** /*
 678:src/mxml-file.c ****  * 'mxml_fd_getc()' - Read a character from a file descriptor.
 679:src/mxml-file.c ****  */
 680:src/mxml-file.c **** #if 0
 681:src/mxml-file.c **** static int				/* O  - Character or EOF */
 682:src/mxml-file.c **** mxml_fd_getc(void *p,			/* I  - File descriptor buffer */
 683:src/mxml-file.c ****              int  *encoding)		/* IO - Encoding */
 684:src/mxml-file.c **** {
 685:src/mxml-file.c ****   _mxml_fdbuf_t	*buf;			/* File descriptor buffer */
 686:src/mxml-file.c ****   int		ch,			/* Current character */
 687:src/mxml-file.c **** 		temp;			/* Temporary character */
 688:src/mxml-file.c **** 
 689:src/mxml-file.c **** 
 690:src/mxml-file.c ****  /*
 691:src/mxml-file.c ****   * Grab the next character in the buffer...
 692:src/mxml-file.c ****   */
 693:src/mxml-file.c **** 
 694:src/mxml-file.c ****   buf = (_mxml_fdbuf_t *)p;
 695:src/mxml-file.c **** 
 696:src/mxml-file.c ****   if (buf->current >= buf->end)
 697:src/mxml-file.c ****     if (mxml_fd_read(buf) < 0)
 698:src/mxml-file.c ****       return (EOF);
 699:src/mxml-file.c **** 
 700:src/mxml-file.c ****   ch = *(buf->current)++;
 701:src/mxml-file.c **** 
 702:src/mxml-file.c ****   switch (*encoding)
 703:src/mxml-file.c ****   {
 704:src/mxml-file.c ****     case ENCODE_UTF8 :
 705:src/mxml-file.c ****        /*
 706:src/mxml-file.c **** 	* Got a UTF-8 character; convert UTF-8 to Unicode and return...
 707:src/mxml-file.c **** 	*/
 708:src/mxml-file.c **** 
 709:src/mxml-file.c **** 	if (!(ch & 0x80))
 710:src/mxml-file.c **** 	{
 711:src/mxml-file.c **** #if DEBUG > 1
 712:src/mxml-file.c ****           printf("mxml_fd_getc: %c (0x%04x)\n", ch < ' ' ? '.' : ch, ch);
 713:src/mxml-file.c **** #endif /* DEBUG > 1 */
 714:src/mxml-file.c **** 
 715:src/mxml-file.c **** 	  if (mxml_bad_char(ch))
 716:src/mxml-file.c **** 	  {
ARM GAS  C:\Users\AHMED~1.ELE\AppData\Local\Temp\ccbrMpYT.s 			page 14


 717:src/mxml-file.c **** 	    mxml_error("Bad control character 0x%02x not allowed by XML standard!",
 718:src/mxml-file.c ****         	       ch);
 719:src/mxml-file.c **** 	    return (EOF);
 720:src/mxml-file.c **** 	  }
 721:src/mxml-file.c **** 
 722:src/mxml-file.c **** 	  return (ch);
 723:src/mxml-file.c ****         }
 724:src/mxml-file.c **** 	else if (ch == 0xfe)
 725:src/mxml-file.c **** 	{
 726:src/mxml-file.c **** 	 /*
 727:src/mxml-file.c **** 	  * UTF-16 big-endian BOM?
 728:src/mxml-file.c **** 	  */
 729:src/mxml-file.c **** 
 730:src/mxml-file.c **** 	  if (buf->current >= buf->end)
 731:src/mxml-file.c **** 	    if (mxml_fd_read(buf) < 0)
 732:src/mxml-file.c **** 	      return (EOF);
 733:src/mxml-file.c **** 
 734:src/mxml-file.c **** 	  ch = *(buf->current)++;
 735:src/mxml-file.c **** 
 736:src/mxml-file.c **** 	  if (ch != 0xff)
 737:src/mxml-file.c **** 	    return (EOF);
 738:src/mxml-file.c **** 
 739:src/mxml-file.c **** 	  *encoding = ENCODE_UTF16BE;
 740:src/mxml-file.c **** 
 741:src/mxml-file.c **** 	  return (mxml_fd_getc(p, encoding));
 742:src/mxml-file.c **** 	}
 743:src/mxml-file.c **** 	else if (ch == 0xff)
 744:src/mxml-file.c **** 	{
 745:src/mxml-file.c **** 	 /*
 746:src/mxml-file.c **** 	  * UTF-16 little-endian BOM?
 747:src/mxml-file.c **** 	  */
 748:src/mxml-file.c **** 
 749:src/mxml-file.c **** 	  if (buf->current >= buf->end)
 750:src/mxml-file.c **** 	    if (mxml_fd_read(buf) < 0)
 751:src/mxml-file.c **** 	      return (EOF);
 752:src/mxml-file.c **** 
 753:src/mxml-file.c **** 	  ch = *(buf->current)++;
 754:src/mxml-file.c **** 
 755:src/mxml-file.c **** 	  if (ch != 0xfe)
 756:src/mxml-file.c **** 	    return (EOF);
 757:src/mxml-file.c **** 
 758:src/mxml-file.c **** 	  *encoding = ENCODE_UTF16LE;
 759:src/mxml-file.c **** 
 760:src/mxml-file.c **** 	  return (mxml_fd_getc(p, encoding));
 761:src/mxml-file.c **** 	}
 762:src/mxml-file.c **** 	else if ((ch & 0xe0) == 0xc0)
 763:src/mxml-file.c **** 	{
 764:src/mxml-file.c **** 	 /*
 765:src/mxml-file.c **** 	  * Two-byte value...
 766:src/mxml-file.c **** 	  */
 767:src/mxml-file.c **** 
 768:src/mxml-file.c **** 	  if (buf->current >= buf->end)
 769:src/mxml-file.c **** 	    if (mxml_fd_read(buf) < 0)
 770:src/mxml-file.c **** 	      return (EOF);
 771:src/mxml-file.c **** 
 772:src/mxml-file.c **** 	  temp = *(buf->current)++;
 773:src/mxml-file.c **** 
ARM GAS  C:\Users\AHMED~1.ELE\AppData\Local\Temp\ccbrMpYT.s 			page 15


 774:src/mxml-file.c **** 	  if ((temp & 0xc0) != 0x80)
 775:src/mxml-file.c **** 	    return (EOF);
 776:src/mxml-file.c **** 
 777:src/mxml-file.c **** 	  ch = ((ch & 0x1f) << 6) | (temp & 0x3f);
 778:src/mxml-file.c **** 
 779:src/mxml-file.c **** 	  if (ch < 0x80)
 780:src/mxml-file.c **** 	  {
 781:src/mxml-file.c **** 	    mxml_error("Invalid UTF-8 sequence for character 0x%04x!", ch);
 782:src/mxml-file.c **** 	    return (EOF);
 783:src/mxml-file.c **** 	  }
 784:src/mxml-file.c **** 	}
 785:src/mxml-file.c **** 	else if ((ch & 0xf0) == 0xe0)
 786:src/mxml-file.c **** 	{
 787:src/mxml-file.c **** 	 /*
 788:src/mxml-file.c **** 	  * Three-byte value...
 789:src/mxml-file.c **** 	  */
 790:src/mxml-file.c **** 
 791:src/mxml-file.c **** 	  if (buf->current >= buf->end)
 792:src/mxml-file.c **** 	    if (mxml_fd_read(buf) < 0)
 793:src/mxml-file.c **** 	      return (EOF);
 794:src/mxml-file.c **** 
 795:src/mxml-file.c **** 	  temp = *(buf->current)++;
 796:src/mxml-file.c **** 
 797:src/mxml-file.c **** 	  if ((temp & 0xc0) != 0x80)
 798:src/mxml-file.c **** 	    return (EOF);
 799:src/mxml-file.c **** 
 800:src/mxml-file.c **** 	  ch = ((ch & 0x0f) << 6) | (temp & 0x3f);
 801:src/mxml-file.c **** 
 802:src/mxml-file.c **** 	  if (buf->current >= buf->end)
 803:src/mxml-file.c **** 	    if (mxml_fd_read(buf) < 0)
 804:src/mxml-file.c **** 	      return (EOF);
 805:src/mxml-file.c **** 
 806:src/mxml-file.c **** 	  temp = *(buf->current)++;
 807:src/mxml-file.c **** 
 808:src/mxml-file.c **** 	  if ((temp & 0xc0) != 0x80)
 809:src/mxml-file.c **** 	    return (EOF);
 810:src/mxml-file.c **** 
 811:src/mxml-file.c **** 	  ch = (ch << 6) | (temp & 0x3f);
 812:src/mxml-file.c **** 
 813:src/mxml-file.c **** 	  if (ch < 0x800)
 814:src/mxml-file.c **** 	  {
 815:src/mxml-file.c **** 	    mxml_error("Invalid UTF-8 sequence for character 0x%04x!", ch);
 816:src/mxml-file.c **** 	    return (EOF);
 817:src/mxml-file.c **** 	  }
 818:src/mxml-file.c **** 
 819:src/mxml-file.c ****          /*
 820:src/mxml-file.c **** 	  * Ignore (strip) Byte Order Mark (BOM)...
 821:src/mxml-file.c **** 	  */
 822:src/mxml-file.c **** 
 823:src/mxml-file.c **** 	  if (ch == 0xfeff)
 824:src/mxml-file.c **** 	    return (mxml_fd_getc(p, encoding));
 825:src/mxml-file.c **** 	}
 826:src/mxml-file.c **** 	else if ((ch & 0xf8) == 0xf0)
 827:src/mxml-file.c **** 	{
 828:src/mxml-file.c **** 	 /*
 829:src/mxml-file.c **** 	  * Four-byte value...
 830:src/mxml-file.c **** 	  */
ARM GAS  C:\Users\AHMED~1.ELE\AppData\Local\Temp\ccbrMpYT.s 			page 16


 831:src/mxml-file.c **** 
 832:src/mxml-file.c **** 	  if (buf->current >= buf->end)
 833:src/mxml-file.c **** 	    if (mxml_fd_read(buf) < 0)
 834:src/mxml-file.c **** 	      return (EOF);
 835:src/mxml-file.c **** 
 836:src/mxml-file.c **** 	  temp = *(buf->current)++;
 837:src/mxml-file.c **** 
 838:src/mxml-file.c **** 	  if ((temp & 0xc0) != 0x80)
 839:src/mxml-file.c **** 	    return (EOF);
 840:src/mxml-file.c **** 
 841:src/mxml-file.c **** 	  ch = ((ch & 0x07) << 6) | (temp & 0x3f);
 842:src/mxml-file.c **** 
 843:src/mxml-file.c **** 	  if (buf->current >= buf->end)
 844:src/mxml-file.c **** 	    if (mxml_fd_read(buf) < 0)
 845:src/mxml-file.c **** 	      return (EOF);
 846:src/mxml-file.c **** 
 847:src/mxml-file.c **** 	  temp = *(buf->current)++;
 848:src/mxml-file.c **** 
 849:src/mxml-file.c **** 	  if ((temp & 0xc0) != 0x80)
 850:src/mxml-file.c **** 	    return (EOF);
 851:src/mxml-file.c **** 
 852:src/mxml-file.c **** 	  ch = (ch << 6) | (temp & 0x3f);
 853:src/mxml-file.c **** 
 854:src/mxml-file.c **** 	  if (buf->current >= buf->end)
 855:src/mxml-file.c **** 	    if (mxml_fd_read(buf) < 0)
 856:src/mxml-file.c **** 	      return (EOF);
 857:src/mxml-file.c **** 
 858:src/mxml-file.c **** 	  temp = *(buf->current)++;
 859:src/mxml-file.c **** 
 860:src/mxml-file.c **** 	  if ((temp & 0xc0) != 0x80)
 861:src/mxml-file.c **** 	    return (EOF);
 862:src/mxml-file.c **** 
 863:src/mxml-file.c **** 	  ch = (ch << 6) | (temp & 0x3f);
 864:src/mxml-file.c **** 
 865:src/mxml-file.c **** 	  if (ch < 0x10000)
 866:src/mxml-file.c **** 	  {
 867:src/mxml-file.c **** 	    mxml_error("Invalid UTF-8 sequence for character 0x%04x!", ch);
 868:src/mxml-file.c **** 	    return (EOF);
 869:src/mxml-file.c **** 	  }
 870:src/mxml-file.c **** 	}
 871:src/mxml-file.c **** 	else
 872:src/mxml-file.c **** 	  return (EOF);
 873:src/mxml-file.c **** 	break;
 874:src/mxml-file.c **** 
 875:src/mxml-file.c ****     case ENCODE_UTF16BE :
 876:src/mxml-file.c ****        /*
 877:src/mxml-file.c ****         * Read UTF-16 big-endian char...
 878:src/mxml-file.c **** 	*/
 879:src/mxml-file.c **** 
 880:src/mxml-file.c **** 	if (buf->current >= buf->end)
 881:src/mxml-file.c **** 	  if (mxml_fd_read(buf) < 0)
 882:src/mxml-file.c **** 	    return (EOF);
 883:src/mxml-file.c **** 
 884:src/mxml-file.c **** 	temp = *(buf->current)++;
 885:src/mxml-file.c **** 
 886:src/mxml-file.c **** 	ch = (ch << 8) | temp;
 887:src/mxml-file.c **** 
ARM GAS  C:\Users\AHMED~1.ELE\AppData\Local\Temp\ccbrMpYT.s 			page 17


 888:src/mxml-file.c **** 	if (mxml_bad_char(ch))
 889:src/mxml-file.c **** 	{
 890:src/mxml-file.c **** 	  mxml_error("Bad control character 0x%02x not allowed by XML standard!",
 891:src/mxml-file.c ****         	     ch);
 892:src/mxml-file.c **** 	  return (EOF);
 893:src/mxml-file.c **** 	}
 894:src/mxml-file.c ****         else if (ch >= 0xd800 && ch <= 0xdbff)
 895:src/mxml-file.c **** 	{
 896:src/mxml-file.c **** 	 /*
 897:src/mxml-file.c **** 	  * Multi-word UTF-16 char...
 898:src/mxml-file.c **** 	  */
 899:src/mxml-file.c **** 
 900:src/mxml-file.c ****           int lch;
 901:src/mxml-file.c **** 
 902:src/mxml-file.c **** 	  if (buf->current >= buf->end)
 903:src/mxml-file.c **** 	    if (mxml_fd_read(buf) < 0)
 904:src/mxml-file.c **** 	      return (EOF);
 905:src/mxml-file.c **** 
 906:src/mxml-file.c **** 	  lch = *(buf->current)++;
 907:src/mxml-file.c **** 
 908:src/mxml-file.c **** 	  if (buf->current >= buf->end)
 909:src/mxml-file.c **** 	    if (mxml_fd_read(buf) < 0)
 910:src/mxml-file.c **** 	      return (EOF);
 911:src/mxml-file.c **** 
 912:src/mxml-file.c **** 	  temp = *(buf->current)++;
 913:src/mxml-file.c **** 
 914:src/mxml-file.c **** 	  lch = (lch << 8) | temp;
 915:src/mxml-file.c **** 
 916:src/mxml-file.c ****           if (lch < 0xdc00 || lch >= 0xdfff)
 917:src/mxml-file.c **** 	    return (EOF);
 918:src/mxml-file.c **** 
 919:src/mxml-file.c ****           ch = (((ch & 0x3ff) << 10) | (lch & 0x3ff)) + 0x10000;
 920:src/mxml-file.c **** 	}
 921:src/mxml-file.c **** 	break;
 922:src/mxml-file.c **** 
 923:src/mxml-file.c ****     case ENCODE_UTF16LE :
 924:src/mxml-file.c ****        /*
 925:src/mxml-file.c ****         * Read UTF-16 little-endian char...
 926:src/mxml-file.c **** 	*/
 927:src/mxml-file.c **** 
 928:src/mxml-file.c **** 	if (buf->current >= buf->end)
 929:src/mxml-file.c **** 	  if (mxml_fd_read(buf) < 0)
 930:src/mxml-file.c **** 	    return (EOF);
 931:src/mxml-file.c **** 
 932:src/mxml-file.c **** 	temp = *(buf->current)++;
 933:src/mxml-file.c **** 
 934:src/mxml-file.c **** 	ch |= (temp << 8);
 935:src/mxml-file.c **** 
 936:src/mxml-file.c ****         if (mxml_bad_char(ch))
 937:src/mxml-file.c **** 	{
 938:src/mxml-file.c **** 	  mxml_error("Bad control character 0x%02x not allowed by XML standard!",
 939:src/mxml-file.c ****         	     ch);
 940:src/mxml-file.c **** 	  return (EOF);
 941:src/mxml-file.c **** 	}
 942:src/mxml-file.c ****         else if (ch >= 0xd800 && ch <= 0xdbff)
 943:src/mxml-file.c **** 	{
 944:src/mxml-file.c **** 	 /*
ARM GAS  C:\Users\AHMED~1.ELE\AppData\Local\Temp\ccbrMpYT.s 			page 18


 945:src/mxml-file.c **** 	  * Multi-word UTF-16 char...
 946:src/mxml-file.c **** 	  */
 947:src/mxml-file.c **** 
 948:src/mxml-file.c ****           int lch;
 949:src/mxml-file.c **** 
 950:src/mxml-file.c **** 	  if (buf->current >= buf->end)
 951:src/mxml-file.c **** 	    if (mxml_fd_read(buf) < 0)
 952:src/mxml-file.c **** 	      return (EOF);
 953:src/mxml-file.c **** 
 954:src/mxml-file.c **** 	  lch = *(buf->current)++;
 955:src/mxml-file.c **** 
 956:src/mxml-file.c **** 	  if (buf->current >= buf->end)
 957:src/mxml-file.c **** 	    if (mxml_fd_read(buf) < 0)
 958:src/mxml-file.c **** 	      return (EOF);
 959:src/mxml-file.c **** 
 960:src/mxml-file.c **** 	  temp = *(buf->current)++;
 961:src/mxml-file.c **** 
 962:src/mxml-file.c **** 	  lch |= (temp << 8);
 963:src/mxml-file.c **** 
 964:src/mxml-file.c ****           if (lch < 0xdc00 || lch >= 0xdfff)
 965:src/mxml-file.c **** 	    return (EOF);
 966:src/mxml-file.c **** 
 967:src/mxml-file.c ****           ch = (((ch & 0x3ff) << 10) | (lch & 0x3ff)) + 0x10000;
 968:src/mxml-file.c **** 	}
 969:src/mxml-file.c **** 	break;
 970:src/mxml-file.c ****   }
 971:src/mxml-file.c **** 
 972:src/mxml-file.c **** #if DEBUG > 1
 973:src/mxml-file.c ****   printf("mxml_fd_getc: %c (0x%04x)\n", ch < ' ' ? '.' : ch, ch);
 974:src/mxml-file.c **** #endif /* DEBUG > 1 */
 975:src/mxml-file.c **** 
 976:src/mxml-file.c ****   return (ch);
 977:src/mxml-file.c **** }
 978:src/mxml-file.c **** 
 979:src/mxml-file.c **** 
 980:src/mxml-file.c **** /*
 981:src/mxml-file.c ****  * 'mxml_fd_putc()' - Write a character to a file descriptor.
 982:src/mxml-file.c ****  */
 983:src/mxml-file.c **** 
 984:src/mxml-file.c **** static int				/* O - 0 on success, -1 on error */
 985:src/mxml-file.c **** mxml_fd_putc(int  ch,			/* I - Character */
 986:src/mxml-file.c ****              void *p)			/* I - File descriptor buffer */
 987:src/mxml-file.c **** {
 988:src/mxml-file.c ****   _mxml_fdbuf_t	*buf;			/* File descriptor buffer */
 989:src/mxml-file.c **** 
 990:src/mxml-file.c **** 
 991:src/mxml-file.c ****  /*
 992:src/mxml-file.c ****   * Flush the write buffer as needed...
 993:src/mxml-file.c ****   */
 994:src/mxml-file.c **** 
 995:src/mxml-file.c ****   buf = (_mxml_fdbuf_t *)p;
 996:src/mxml-file.c **** 
 997:src/mxml-file.c ****   if (buf->current >= buf->end)
 998:src/mxml-file.c ****     if (mxml_fd_write(buf) < 0)
 999:src/mxml-file.c ****       return (-1);
1000:src/mxml-file.c **** 
1001:src/mxml-file.c ****   *(buf->current)++ = ch;
ARM GAS  C:\Users\AHMED~1.ELE\AppData\Local\Temp\ccbrMpYT.s 			page 19


1002:src/mxml-file.c **** 
1003:src/mxml-file.c ****  /*
1004:src/mxml-file.c ****   * Return successfully...
1005:src/mxml-file.c ****   */
1006:src/mxml-file.c **** 
1007:src/mxml-file.c ****   return (0);
1008:src/mxml-file.c **** }
1009:src/mxml-file.c **** 
1010:src/mxml-file.c **** 
1011:src/mxml-file.c **** /*
1012:src/mxml-file.c ****  * 'mxml_fd_read()' - Read a buffer of data from a file descriptor.
1013:src/mxml-file.c ****  */
1014:src/mxml-file.c **** 
1015:src/mxml-file.c **** static int				/* O - 0 on success, -1 on error */
1016:src/mxml-file.c **** mxml_fd_read(_mxml_fdbuf_t *buf)		/* I - File descriptor buffer */
1017:src/mxml-file.c **** {
1018:src/mxml-file.c ****   int	bytes;				/* Bytes read... */
1019:src/mxml-file.c **** 
1020:src/mxml-file.c **** 
1021:src/mxml-file.c ****  /*
1022:src/mxml-file.c ****   * Range check input...
1023:src/mxml-file.c ****   */
1024:src/mxml-file.c **** 
1025:src/mxml-file.c ****   if (!buf)
1026:src/mxml-file.c ****     return (-1);
1027:src/mxml-file.c **** 
1028:src/mxml-file.c ****  /*
1029:src/mxml-file.c ****   * Read from the file descriptor...
1030:src/mxml-file.c ****   */
1031:src/mxml-file.c **** 
1032:src/mxml-file.c ****   while ((bytes = read(buf->fd, buf->buffer, sizeof(buf->buffer))) < 0)
1033:src/mxml-file.c **** #ifdef EINTR
1034:src/mxml-file.c ****     if (errno != EAGAIN && errno != EINTR)
1035:src/mxml-file.c **** #else
1036:src/mxml-file.c ****     if (errno != EAGAIN)
1037:src/mxml-file.c **** #endif /* EINTR */
1038:src/mxml-file.c ****       return (-1);
1039:src/mxml-file.c **** 
1040:src/mxml-file.c ****   if (bytes == 0)
1041:src/mxml-file.c ****     return (-1);
1042:src/mxml-file.c **** 
1043:src/mxml-file.c ****  /*
1044:src/mxml-file.c ****   * Update the pointers and return success...
1045:src/mxml-file.c ****   */
1046:src/mxml-file.c **** 
1047:src/mxml-file.c ****   buf->current = buf->buffer;
1048:src/mxml-file.c ****   buf->end     = buf->buffer + bytes;
1049:src/mxml-file.c **** 
1050:src/mxml-file.c ****   return (0);
1051:src/mxml-file.c **** }
1052:src/mxml-file.c **** 
1053:src/mxml-file.c **** 
1054:src/mxml-file.c **** /*
1055:src/mxml-file.c ****  * 'mxml_fd_write()' - Write a buffer of data to a file descriptor.
1056:src/mxml-file.c ****  */
1057:src/mxml-file.c **** 
1058:src/mxml-file.c **** static int				/* O - 0 on success, -1 on error */
ARM GAS  C:\Users\AHMED~1.ELE\AppData\Local\Temp\ccbrMpYT.s 			page 20


1059:src/mxml-file.c **** mxml_fd_write(_mxml_fdbuf_t *buf)	/* I - File descriptor buffer */
1060:src/mxml-file.c **** {
1061:src/mxml-file.c ****   int		bytes;			/* Bytes written */
1062:src/mxml-file.c ****   unsigned char	*ptr;			/* Pointer into buffer */
1063:src/mxml-file.c **** 
1064:src/mxml-file.c **** 
1065:src/mxml-file.c ****  /*
1066:src/mxml-file.c ****   * Range check...
1067:src/mxml-file.c ****   */
1068:src/mxml-file.c **** 
1069:src/mxml-file.c ****   if (!buf)
1070:src/mxml-file.c ****     return (-1);
1071:src/mxml-file.c **** 
1072:src/mxml-file.c ****  /*
1073:src/mxml-file.c ****   * Return 0 if there is nothing to write...
1074:src/mxml-file.c ****   */
1075:src/mxml-file.c **** 
1076:src/mxml-file.c ****   if (buf->current == buf->buffer)
1077:src/mxml-file.c ****     return (0);
1078:src/mxml-file.c **** 
1079:src/mxml-file.c ****  /*
1080:src/mxml-file.c ****   * Loop until we have written everything...
1081:src/mxml-file.c ****   */
1082:src/mxml-file.c **** 
1083:src/mxml-file.c ****   for (ptr = buf->buffer; ptr < buf->current; ptr += bytes)
1084:src/mxml-file.c ****     if ((bytes = write(buf->fd, ptr, buf->current - ptr)) < 0)
1085:src/mxml-file.c ****       return (-1);
1086:src/mxml-file.c **** 
1087:src/mxml-file.c ****  /*
1088:src/mxml-file.c ****   * All done, reset pointers and return success...
1089:src/mxml-file.c ****   */
1090:src/mxml-file.c **** 
1091:src/mxml-file.c ****   buf->current = buf->buffer;
1092:src/mxml-file.c **** 
1093:src/mxml-file.c ****   return (0);
1094:src/mxml-file.c **** }
1095:src/mxml-file.c **** 
1096:src/mxml-file.c **** 
1097:src/mxml-file.c **** /*
1098:src/mxml-file.c ****  * 'mxml_file_getc()' - Get a character from a file.
1099:src/mxml-file.c ****  */
1100:src/mxml-file.c **** static int				/* O  - Character or EOF */
1101:src/mxml-file.c **** mxml_file_getc(void *p,			/* I  - Pointer to file */
1102:src/mxml-file.c ****                int  *encoding)		/* IO - Encoding */
1103:src/mxml-file.c **** {
1104:src/mxml-file.c ****   int	ch,				/* Character from file */
1105:src/mxml-file.c **** 	temp;				/* Temporary character */
1106:src/mxml-file.c ****   FILE	*fp;				/* Pointer to file */
1107:src/mxml-file.c **** 
1108:src/mxml-file.c **** 
1109:src/mxml-file.c ****  /*
1110:src/mxml-file.c ****   * Read a character from the file and see if it is EOF or ASCII...
1111:src/mxml-file.c ****   */
1112:src/mxml-file.c **** 
1113:src/mxml-file.c ****   fp = (FILE *)p;
1114:src/mxml-file.c ****   ch = getc(fp);
1115:src/mxml-file.c **** 
ARM GAS  C:\Users\AHMED~1.ELE\AppData\Local\Temp\ccbrMpYT.s 			page 21


1116:src/mxml-file.c ****   if (ch == EOF)
1117:src/mxml-file.c ****     return (EOF);
1118:src/mxml-file.c **** 
1119:src/mxml-file.c ****   switch (*encoding)
1120:src/mxml-file.c ****   {
1121:src/mxml-file.c ****     case ENCODE_UTF8 :
1122:src/mxml-file.c ****        /*
1123:src/mxml-file.c **** 	* Got a UTF-8 character; convert UTF-8 to Unicode and return...
1124:src/mxml-file.c **** 	*/
1125:src/mxml-file.c **** 
1126:src/mxml-file.c **** 	if (!(ch & 0x80))
1127:src/mxml-file.c **** 	{
1128:src/mxml-file.c **** 	  if (mxml_bad_char(ch))
1129:src/mxml-file.c **** 	  {
1130:src/mxml-file.c **** 	    mxml_error("Bad control character 0x%02x not allowed by XML standard!",
1131:src/mxml-file.c ****         	       ch);
1132:src/mxml-file.c **** 	    return (EOF);
1133:src/mxml-file.c **** 	  }
1134:src/mxml-file.c **** 
1135:src/mxml-file.c **** #if DEBUG > 1
1136:src/mxml-file.c ****           printf("mxml_file_getc: %c (0x%04x)\n", ch < ' ' ? '.' : ch, ch);
1137:src/mxml-file.c **** #endif /* DEBUG > 1 */
1138:src/mxml-file.c **** 
1139:src/mxml-file.c **** 	  return (ch);
1140:src/mxml-file.c ****         }
1141:src/mxml-file.c **** 	else if (ch == 0xfe)
1142:src/mxml-file.c **** 	{
1143:src/mxml-file.c **** 	 /*
1144:src/mxml-file.c **** 	  * UTF-16 big-endian BOM?
1145:src/mxml-file.c **** 	  */
1146:src/mxml-file.c **** 
1147:src/mxml-file.c ****           ch = getc(fp);
1148:src/mxml-file.c **** 	  if (ch != 0xff)
1149:src/mxml-file.c **** 	    return (EOF);
1150:src/mxml-file.c **** 
1151:src/mxml-file.c **** 	  *encoding = ENCODE_UTF16BE;
1152:src/mxml-file.c **** 
1153:src/mxml-file.c **** 	  return (mxml_file_getc(p, encoding));
1154:src/mxml-file.c **** 	}
1155:src/mxml-file.c **** 	else if (ch == 0xff)
1156:src/mxml-file.c **** 	{
1157:src/mxml-file.c **** 	 /*
1158:src/mxml-file.c **** 	  * UTF-16 little-endian BOM?
1159:src/mxml-file.c **** 	  */
1160:src/mxml-file.c **** 
1161:src/mxml-file.c ****           ch = getc(fp);
1162:src/mxml-file.c **** 	  if (ch != 0xfe)
1163:src/mxml-file.c **** 	    return (EOF);
1164:src/mxml-file.c **** 
1165:src/mxml-file.c **** 	  *encoding = ENCODE_UTF16LE;
1166:src/mxml-file.c **** 
1167:src/mxml-file.c **** 	  return (mxml_file_getc(p, encoding));
1168:src/mxml-file.c **** 	}
1169:src/mxml-file.c **** 	else if ((ch & 0xe0) == 0xc0)
1170:src/mxml-file.c **** 	{
1171:src/mxml-file.c **** 	 /*
1172:src/mxml-file.c **** 	  * Two-byte value...
ARM GAS  C:\Users\AHMED~1.ELE\AppData\Local\Temp\ccbrMpYT.s 			page 22


1173:src/mxml-file.c **** 	  */
1174:src/mxml-file.c **** 
1175:src/mxml-file.c **** 	  if ((temp = getc(fp)) == EOF || (temp & 0xc0) != 0x80)
1176:src/mxml-file.c **** 	    return (EOF);
1177:src/mxml-file.c **** 
1178:src/mxml-file.c **** 	  ch = ((ch & 0x1f) << 6) | (temp & 0x3f);
1179:src/mxml-file.c **** 
1180:src/mxml-file.c **** 	  if (ch < 0x80)
1181:src/mxml-file.c **** 	  {
1182:src/mxml-file.c **** 	    mxml_error("Invalid UTF-8 sequence for character 0x%04x!", ch);
1183:src/mxml-file.c **** 	    return (EOF);
1184:src/mxml-file.c **** 	  }
1185:src/mxml-file.c **** 	}
1186:src/mxml-file.c **** 	else if ((ch & 0xf0) == 0xe0)
1187:src/mxml-file.c **** 	{
1188:src/mxml-file.c **** 	 /*
1189:src/mxml-file.c **** 	  * Three-byte value...
1190:src/mxml-file.c **** 	  */
1191:src/mxml-file.c **** 
1192:src/mxml-file.c **** 	  if ((temp = getc(fp)) == EOF || (temp & 0xc0) != 0x80)
1193:src/mxml-file.c **** 	    return (EOF);
1194:src/mxml-file.c **** 
1195:src/mxml-file.c **** 	  ch = ((ch & 0x0f) << 6) | (temp & 0x3f);
1196:src/mxml-file.c **** 
1197:src/mxml-file.c **** 	  if ((temp = getc(fp)) == EOF || (temp & 0xc0) != 0x80)
1198:src/mxml-file.c **** 	    return (EOF);
1199:src/mxml-file.c **** 
1200:src/mxml-file.c **** 	  ch = (ch << 6) | (temp & 0x3f);
1201:src/mxml-file.c **** 
1202:src/mxml-file.c **** 	  if (ch < 0x800)
1203:src/mxml-file.c **** 	  {
1204:src/mxml-file.c **** 	    mxml_error("Invalid UTF-8 sequence for character 0x%04x!", ch);
1205:src/mxml-file.c **** 	    return (EOF);
1206:src/mxml-file.c **** 	  }
1207:src/mxml-file.c **** 
1208:src/mxml-file.c ****          /*
1209:src/mxml-file.c **** 	  * Ignore (strip) Byte Order Mark (BOM)...
1210:src/mxml-file.c **** 	  */
1211:src/mxml-file.c **** 
1212:src/mxml-file.c **** 	  if (ch == 0xfeff)
1213:src/mxml-file.c **** 	    return (mxml_file_getc(p, encoding));
1214:src/mxml-file.c **** 	}
1215:src/mxml-file.c **** 	else if ((ch & 0xf8) == 0xf0)
1216:src/mxml-file.c **** 	{
1217:src/mxml-file.c **** 	 /*
1218:src/mxml-file.c **** 	  * Four-byte value...
1219:src/mxml-file.c **** 	  */
1220:src/mxml-file.c **** 
1221:src/mxml-file.c **** 	  if ((temp = getc(fp)) == EOF || (temp & 0xc0) != 0x80)
1222:src/mxml-file.c **** 	    return (EOF);
1223:src/mxml-file.c **** 
1224:src/mxml-file.c **** 	  ch = ((ch & 0x07) << 6) | (temp & 0x3f);
1225:src/mxml-file.c **** 
1226:src/mxml-file.c **** 	  if ((temp = getc(fp)) == EOF || (temp & 0xc0) != 0x80)
1227:src/mxml-file.c **** 	    return (EOF);
1228:src/mxml-file.c **** 
1229:src/mxml-file.c **** 	  ch = (ch << 6) | (temp & 0x3f);
ARM GAS  C:\Users\AHMED~1.ELE\AppData\Local\Temp\ccbrMpYT.s 			page 23


1230:src/mxml-file.c **** 
1231:src/mxml-file.c **** 	  if ((temp = getc(fp)) == EOF || (temp & 0xc0) != 0x80)
1232:src/mxml-file.c **** 	    return (EOF);
1233:src/mxml-file.c **** 
1234:src/mxml-file.c **** 	  ch = (ch << 6) | (temp & 0x3f);
1235:src/mxml-file.c **** 
1236:src/mxml-file.c **** 	  if (ch < 0x10000)
1237:src/mxml-file.c **** 	  {
1238:src/mxml-file.c **** 	    mxml_error("Invalid UTF-8 sequence for character 0x%04x!", ch);
1239:src/mxml-file.c **** 	    return (EOF);
1240:src/mxml-file.c **** 	  }
1241:src/mxml-file.c **** 	}
1242:src/mxml-file.c **** 	else
1243:src/mxml-file.c **** 	  return (EOF);
1244:src/mxml-file.c **** 	break;
1245:src/mxml-file.c **** 
1246:src/mxml-file.c ****     case ENCODE_UTF16BE :
1247:src/mxml-file.c ****        /*
1248:src/mxml-file.c ****         * Read UTF-16 big-endian char...
1249:src/mxml-file.c **** 	*/
1250:src/mxml-file.c **** 
1251:src/mxml-file.c **** 	ch = (ch << 8) | getc(fp);
1252:src/mxml-file.c **** 
1253:src/mxml-file.c **** 	if (mxml_bad_char(ch))
1254:src/mxml-file.c **** 	{
1255:src/mxml-file.c **** 	  mxml_error("Bad control character 0x%02x not allowed by XML standard!",
1256:src/mxml-file.c ****         	     ch);
1257:src/mxml-file.c **** 	  return (EOF);
1258:src/mxml-file.c **** 	}
1259:src/mxml-file.c ****         else if (ch >= 0xd800 && ch <= 0xdbff)
1260:src/mxml-file.c **** 	{
1261:src/mxml-file.c **** 	 /*
1262:src/mxml-file.c **** 	  * Multi-word UTF-16 char...
1263:src/mxml-file.c **** 	  */
1264:src/mxml-file.c **** 
1265:src/mxml-file.c ****           int lch = getc(fp);
1266:src/mxml-file.c ****           lch = (lch << 8) | getc(fp);
1267:src/mxml-file.c **** 
1268:src/mxml-file.c ****           if (lch < 0xdc00 || lch >= 0xdfff)
1269:src/mxml-file.c **** 	    return (EOF);
1270:src/mxml-file.c **** 
1271:src/mxml-file.c ****           ch = (((ch & 0x3ff) << 10) | (lch & 0x3ff)) + 0x10000;
1272:src/mxml-file.c **** 	}
1273:src/mxml-file.c **** 	break;
1274:src/mxml-file.c **** 
1275:src/mxml-file.c ****     case ENCODE_UTF16LE :
1276:src/mxml-file.c ****        /*
1277:src/mxml-file.c ****         * Read UTF-16 little-endian char...
1278:src/mxml-file.c **** 	*/
1279:src/mxml-file.c **** 
1280:src/mxml-file.c **** 	ch |= (getc(fp) << 8);
1281:src/mxml-file.c **** 
1282:src/mxml-file.c ****         if (mxml_bad_char(ch))
1283:src/mxml-file.c **** 	{
1284:src/mxml-file.c **** 	  mxml_error("Bad control character 0x%02x not allowed by XML standard!",
1285:src/mxml-file.c ****         	     ch);
1286:src/mxml-file.c **** 	  return (EOF);
ARM GAS  C:\Users\AHMED~1.ELE\AppData\Local\Temp\ccbrMpYT.s 			page 24


1287:src/mxml-file.c **** 	}
1288:src/mxml-file.c ****         else if (ch >= 0xd800 && ch <= 0xdbff)
1289:src/mxml-file.c **** 	{
1290:src/mxml-file.c **** 	 /*
1291:src/mxml-file.c **** 	  * Multi-word UTF-16 char...
1292:src/mxml-file.c **** 	  */
1293:src/mxml-file.c **** 
1294:src/mxml-file.c ****           int lch = getc(fp);
1295:src/mxml-file.c ****           lch |= (getc(fp) << 8);
1296:src/mxml-file.c **** 
1297:src/mxml-file.c ****           if (lch < 0xdc00 || lch >= 0xdfff)
1298:src/mxml-file.c **** 	    return (EOF);
1299:src/mxml-file.c **** 
1300:src/mxml-file.c ****           ch = (((ch & 0x3ff) << 10) | (lch & 0x3ff)) + 0x10000;
1301:src/mxml-file.c **** 	}
1302:src/mxml-file.c **** 	break;
1303:src/mxml-file.c ****   }
1304:src/mxml-file.c **** 
1305:src/mxml-file.c **** #if DEBUG > 1
1306:src/mxml-file.c ****   printf("mxml_file_getc: %c (0x%04x)\n", ch < ' ' ? '.' : ch, ch);
1307:src/mxml-file.c **** #endif /* DEBUG > 1 */
1308:src/mxml-file.c **** 
1309:src/mxml-file.c ****   return (ch);
1310:src/mxml-file.c **** }
1311:src/mxml-file.c **** 
1312:src/mxml-file.c **** /*
1313:src/mxml-file.c ****  * 'mxml_file_putc()' - Write a character to a file.
1314:src/mxml-file.c ****  */
1315:src/mxml-file.c **** 
1316:src/mxml-file.c **** static int				/* O - 0 on success, -1 on failure */
1317:src/mxml-file.c **** mxml_file_putc(int  ch,			/* I - Character to write */
1318:src/mxml-file.c ****                void *p)			/* I - Pointer to file */
1319:src/mxml-file.c **** {
1320:src/mxml-file.c ****   return (putc(ch, (FILE *)p) == EOF ? -1 : 0);
1321:src/mxml-file.c **** }
1322:src/mxml-file.c **** #endif
1323:src/mxml-file.c **** 
1324:src/mxml-file.c **** 
1325:src/mxml-file.c **** /*
1326:src/mxml-file.c ****  * 'mxml_get_entity()' - Get the character corresponding to an entity...
1327:src/mxml-file.c ****  */
1328:src/mxml-file.c **** 
1329:src/mxml-file.c **** static int				/* O  - Character value or EOF on error */
1330:src/mxml-file.c **** mxml_get_entity(mxml_node_t *parent,	/* I  - Parent node */
1331:src/mxml-file.c **** 		void        *p,		/* I  - Pointer to source */
1332:src/mxml-file.c **** 		int         *encoding,	/* IO - Character encoding */
1333:src/mxml-file.c ****                 int         (*getc_cb)(void *, int *))
1334:src/mxml-file.c **** 					/* I  - Get character function */
1335:src/mxml-file.c **** {
1336:src/mxml-file.c ****   int	ch;				/* Current character */
1337:src/mxml-file.c ****   char	entity[64],			/* Entity string */
1338:src/mxml-file.c **** 	*entptr;			/* Pointer into entity */
1339:src/mxml-file.c **** 
1340:src/mxml-file.c **** 
1341:src/mxml-file.c ****   entptr = entity;
1342:src/mxml-file.c **** 
1343:src/mxml-file.c ****   while ((ch = (*getc_cb)(p, encoding)) != EOF)
ARM GAS  C:\Users\AHMED~1.ELE\AppData\Local\Temp\ccbrMpYT.s 			page 25


1344:src/mxml-file.c ****     if (ch > 126 || (!isalnum(ch) && ch != '#'))
1345:src/mxml-file.c ****       break;
1346:src/mxml-file.c ****     else if (entptr < (entity + sizeof(entity) - 1))
1347:src/mxml-file.c ****       *entptr++ = ch;
1348:src/mxml-file.c ****     else
1349:src/mxml-file.c ****     {
1350:src/mxml-file.c ****       mxml_error("Entity name too long under parent <%s>!",
1351:src/mxml-file.c **** 	         parent ? parent->value.element.name : "null");
1352:src/mxml-file.c ****       break;
1353:src/mxml-file.c ****     }
1354:src/mxml-file.c **** 
1355:src/mxml-file.c ****   *entptr = '\0';
1356:src/mxml-file.c **** 
1357:src/mxml-file.c ****   if (ch != ';')
1358:src/mxml-file.c ****   {
1359:src/mxml-file.c ****     mxml_error("Character entity \"%s\" not terminated under parent <%s>!",
1360:src/mxml-file.c **** 	       entity, parent ? parent->value.element.name : "null");
1361:src/mxml-file.c ****     return (EOF);
1362:src/mxml-file.c ****   }
1363:src/mxml-file.c **** 
1364:src/mxml-file.c ****   if (entity[0] == '#')
1365:src/mxml-file.c ****   {
1366:src/mxml-file.c ****     if (entity[1] == 'x')
1367:src/mxml-file.c ****       ch = strtol(entity + 2, NULL, 16);
1368:src/mxml-file.c ****     else
1369:src/mxml-file.c ****       ch = strtol(entity + 1, NULL, 10);
1370:src/mxml-file.c ****   }
1371:src/mxml-file.c ****   else if ((ch = mxmlEntityGetValue(entity)) < 0)
1372:src/mxml-file.c ****     mxml_error("Entity name \"%s;\" not supported under parent <%s>!",
1373:src/mxml-file.c **** 	       entity, parent ? parent->value.element.name : "null");
1374:src/mxml-file.c **** 
1375:src/mxml-file.c ****   if (mxml_bad_char(ch))
1376:src/mxml-file.c ****   {
1377:src/mxml-file.c ****     mxml_error("Bad control character 0x%02x under parent <%s> not allowed by XML standard!",
1378:src/mxml-file.c ****                ch, parent ? parent->value.element.name : "null");
1379:src/mxml-file.c ****     return (EOF);
1380:src/mxml-file.c ****   }
1381:src/mxml-file.c **** 
1382:src/mxml-file.c ****   return (ch);
1383:src/mxml-file.c **** }
1384:src/mxml-file.c **** 
1385:src/mxml-file.c **** 
1386:src/mxml-file.c **** /*
1387:src/mxml-file.c ****  * 'mxml_load_data()' - Load data into an XML node tree.
1388:src/mxml-file.c ****  */
1389:src/mxml-file.c **** 
1390:src/mxml-file.c **** static mxml_node_t *			/* O - First node or NULL if the file could not be read. */
1391:src/mxml-file.c **** mxml_load_data(
1392:src/mxml-file.c ****     mxml_node_t     *top,		/* I - Top node */
1393:src/mxml-file.c ****     void            *p,			/* I - Pointer to data */
1394:src/mxml-file.c ****     mxml_load_cb_t  cb,			/* I - Callback function or MXML_NO_CALLBACK */
1395:src/mxml-file.c ****     _mxml_getc_cb_t getc_cb,		/* I - Read function */
1396:src/mxml-file.c ****     mxml_sax_cb_t   sax_cb,		/* I - SAX callback or MXML_NO_CALLBACK */
1397:src/mxml-file.c ****     void            *sax_data)		/* I - SAX user data */
1398:src/mxml-file.c **** {
1399:src/mxml-file.c ****   mxml_node_t	*node,			/* Current node */
1400:src/mxml-file.c **** 		*first,			/* First node added */
ARM GAS  C:\Users\AHMED~1.ELE\AppData\Local\Temp\ccbrMpYT.s 			page 26


1401:src/mxml-file.c **** 		*parent;		/* Current parent node */
1402:src/mxml-file.c ****   int		ch,			/* Character from file */
1403:src/mxml-file.c **** 		whitespace;		/* Non-zero if whitespace seen */
1404:src/mxml-file.c ****   char		*buffer,		/* String buffer */
1405:src/mxml-file.c **** 		*bufptr;		/* Pointer into buffer */
1406:src/mxml-file.c ****   int		bufsize;		/* Size of buffer */
1407:src/mxml-file.c ****   mxml_type_t	type;			/* Current node type */
1408:src/mxml-file.c ****   int		encoding;		/* Character encoding */
1409:src/mxml-file.c ****   _mxml_global_t *global = _mxml_global();
1410:src/mxml-file.c **** 					/* Global data */
1411:src/mxml-file.c ****   static const char * const types[] =	/* Type strings... */
1412:src/mxml-file.c **** 		{
1413:src/mxml-file.c **** 		  "MXML_ELEMENT",	/* XML element with attributes */
1414:src/mxml-file.c **** 		  "MXML_INTEGER",	/* Integer value */
1415:src/mxml-file.c **** 		  "MXML_OPAQUE",	/* Opaque string */
1416:src/mxml-file.c **** 		  "MXML_REAL",		/* Real value */
1417:src/mxml-file.c **** 		  "MXML_TEXT",		/* Text fragment */
1418:src/mxml-file.c **** 		  "MXML_CUSTOM"		/* Custom data */
1419:src/mxml-file.c **** 		};
1420:src/mxml-file.c **** 
1421:src/mxml-file.c **** 
1422:src/mxml-file.c ****  /*
1423:src/mxml-file.c ****   * Read elements and other nodes from the file...
1424:src/mxml-file.c ****   */
1425:src/mxml-file.c **** 
1426:src/mxml-file.c ****   if ((buffer = os_malloc(64)) == NULL)
1427:src/mxml-file.c ****   {
1428:src/mxml-file.c ****     mxml_error("Unable to allocate string buffer!");
1429:src/mxml-file.c ****     return (NULL);
1430:src/mxml-file.c ****   }
1431:src/mxml-file.c **** 
1432:src/mxml-file.c ****   bufsize    = 64;
1433:src/mxml-file.c ****   bufptr     = buffer;
1434:src/mxml-file.c ****   parent     = top;
1435:src/mxml-file.c ****   first      = NULL;
1436:src/mxml-file.c ****   whitespace = 0;
1437:src/mxml-file.c ****   encoding   = ENCODE_UTF8;
1438:src/mxml-file.c **** 
1439:src/mxml-file.c ****   if (cb && parent)
1440:src/mxml-file.c ****     type = (*cb)(parent);
1441:src/mxml-file.c ****   else if (parent)
1442:src/mxml-file.c ****     type = MXML_TEXT;
1443:src/mxml-file.c ****   else
1444:src/mxml-file.c ****     type = MXML_IGNORE;
1445:src/mxml-file.c **** 
1446:src/mxml-file.c ****   while ((ch = (*getc_cb)(p, &encoding)) != EOF)
1447:src/mxml-file.c ****   {
1448:src/mxml-file.c ****     if ((ch == '<' ||
1449:src/mxml-file.c **** //         (mxml_isspace(ch) && type != MXML_OPAQUE && type != MXML_CUSTOM)) &&
1450:src/mxml-file.c ****          (mxml_isspace(ch) && type != MXML_OPAQUE && type != MXML_CUSTOM && !(mxml_isspace_only(ch)
1451:src/mxml-file.c ****         bufptr > buffer)
1452:src/mxml-file.c ****     {
1453:src/mxml-file.c ****      /*
1454:src/mxml-file.c ****       * Add a new value node...
1455:src/mxml-file.c ****       */
1456:src/mxml-file.c **** 
1457:src/mxml-file.c ****       *bufptr = '\0';
ARM GAS  C:\Users\AHMED~1.ELE\AppData\Local\Temp\ccbrMpYT.s 			page 27


1458:src/mxml-file.c **** 
1459:src/mxml-file.c ****       switch (type)
1460:src/mxml-file.c ****       {
1461:src/mxml-file.c **** 	case MXML_INTEGER :
1462:src/mxml-file.c ****             node = mxmlNewInteger(parent, strtol(buffer, &bufptr, 0));
1463:src/mxml-file.c **** 	    break;
1464:src/mxml-file.c **** 
1465:src/mxml-file.c **** 	case MXML_OPAQUE :
1466:src/mxml-file.c ****             node = mxmlNewOpaque(parent, buffer);
1467:src/mxml-file.c **** 	    break;
1468:src/mxml-file.c **** 
1469:src/mxml-file.c **** 	case MXML_REAL :
1470:src/mxml-file.c ****             node = mxmlNewReal(parent, strtod(buffer, &bufptr));
1471:src/mxml-file.c **** 	    break;
1472:src/mxml-file.c **** 
1473:src/mxml-file.c **** 	case MXML_TEXT :
1474:src/mxml-file.c ****             node = mxmlNewText(parent, whitespace, buffer);
1475:src/mxml-file.c **** 	    break;
1476:src/mxml-file.c **** 
1477:src/mxml-file.c **** 	case MXML_CUSTOM :
1478:src/mxml-file.c **** 	    if (global->custom_load_cb)
1479:src/mxml-file.c **** 	    {
1480:src/mxml-file.c **** 	     /*
1481:src/mxml-file.c **** 	      * Use the callback to fill in the custom data...
1482:src/mxml-file.c **** 	      */
1483:src/mxml-file.c **** 
1484:src/mxml-file.c ****               node = mxmlNewCustom(parent, NULL, NULL);
1485:src/mxml-file.c **** 
1486:src/mxml-file.c **** 	      if ((*global->custom_load_cb)(node, buffer))
1487:src/mxml-file.c **** 	      {
1488:src/mxml-file.c **** 	        mxml_error("Bad custom value '%s' in parent <%s>!",
1489:src/mxml-file.c **** 		           buffer, parent ? parent->value.element.name : "null");
1490:src/mxml-file.c **** 		mxmlDelete(node);
1491:src/mxml-file.c **** 		node = NULL;
1492:src/mxml-file.c **** 	      }
1493:src/mxml-file.c **** 	      break;
1494:src/mxml-file.c **** 	    }
1495:src/mxml-file.c **** 
1496:src/mxml-file.c ****         default : /* Ignore... */
1497:src/mxml-file.c **** 	    node = NULL;
1498:src/mxml-file.c **** 	    break;
1499:src/mxml-file.c ****       }
1500:src/mxml-file.c **** 
1501:src/mxml-file.c ****       if (*bufptr)
1502:src/mxml-file.c ****       {
1503:src/mxml-file.c ****        /*
1504:src/mxml-file.c ****         * Bad integer/real number value...
1505:src/mxml-file.c **** 	*/
1506:src/mxml-file.c **** 
1507:src/mxml-file.c ****         mxml_error("Bad %s value '%s' in parent <%s>!",
1508:src/mxml-file.c **** 	           type == MXML_INTEGER ? "integer" : "real", buffer,
1509:src/mxml-file.c **** 		   parent ? parent->value.element.name : "null");
1510:src/mxml-file.c **** 	break;
1511:src/mxml-file.c ****       }
1512:src/mxml-file.c **** 
1513:src/mxml-file.c ****       bufptr     = buffer;
1514:src/mxml-file.c ****       whitespace = mxml_isspace(ch) && type == MXML_TEXT;
ARM GAS  C:\Users\AHMED~1.ELE\AppData\Local\Temp\ccbrMpYT.s 			page 28


1515:src/mxml-file.c **** 
1516:src/mxml-file.c ****       if (!node && type != MXML_IGNORE)
1517:src/mxml-file.c ****       {
1518:src/mxml-file.c ****        /*
1519:src/mxml-file.c **** 	* Print error and return...
1520:src/mxml-file.c **** 	*/
1521:src/mxml-file.c **** 
1522:src/mxml-file.c **** 	mxml_error("Unable to add value node of type %s to parent <%s>!",
1523:src/mxml-file.c **** 	           types[type], parent ? parent->value.element.name : "null");
1524:src/mxml-file.c **** 	goto error;
1525:src/mxml-file.c ****       }
1526:src/mxml-file.c **** 
1527:src/mxml-file.c ****       if (sax_cb)
1528:src/mxml-file.c ****       {
1529:src/mxml-file.c ****         (*sax_cb)(node, MXML_SAX_DATA, sax_data);
1530:src/mxml-file.c **** 
1531:src/mxml-file.c ****         if (!mxmlRelease(node))
1532:src/mxml-file.c ****           node = NULL;
1533:src/mxml-file.c ****       }
1534:src/mxml-file.c **** 
1535:src/mxml-file.c ****       if (!first && node)
1536:src/mxml-file.c ****         first = node;
1537:src/mxml-file.c ****     }
1538:src/mxml-file.c ****     else if (mxml_isspace(ch) && type == MXML_TEXT)
1539:src/mxml-file.c ****       whitespace = 1;
1540:src/mxml-file.c **** 
1541:src/mxml-file.c ****    /*
1542:src/mxml-file.c ****     * Add lone whitespace node if we have an element and existing
1543:src/mxml-file.c ****     * whitespace...
1544:src/mxml-file.c ****     */
1545:src/mxml-file.c **** 
1546:src/mxml-file.c ****     if (ch == '<' && whitespace && type == MXML_TEXT)
1547:src/mxml-file.c ****     {
1548:src/mxml-file.c ****       if (parent)
1549:src/mxml-file.c ****       {
1550:src/mxml-file.c **** 	node = mxmlNewText(parent, whitespace, "");
1551:src/mxml-file.c **** 
1552:src/mxml-file.c **** 	if (sax_cb)
1553:src/mxml-file.c **** 	{
1554:src/mxml-file.c **** 	  (*sax_cb)(node, MXML_SAX_DATA, sax_data);
1555:src/mxml-file.c **** 
1556:src/mxml-file.c **** 	  if (!mxmlRelease(node))
1557:src/mxml-file.c **** 	    node = NULL;
1558:src/mxml-file.c **** 	}
1559:src/mxml-file.c **** 
1560:src/mxml-file.c **** 	if (!first && node)
1561:src/mxml-file.c **** 	  first = node;
1562:src/mxml-file.c ****       }
1563:src/mxml-file.c **** 
1564:src/mxml-file.c ****       whitespace = 0;
1565:src/mxml-file.c ****     }
1566:src/mxml-file.c **** 
1567:src/mxml-file.c ****     if (ch == '<')
1568:src/mxml-file.c ****     {
1569:src/mxml-file.c ****      /*
1570:src/mxml-file.c ****       * Start of open/close tag...
1571:src/mxml-file.c ****       */
ARM GAS  C:\Users\AHMED~1.ELE\AppData\Local\Temp\ccbrMpYT.s 			page 29


1572:src/mxml-file.c **** 
1573:src/mxml-file.c ****       bufptr = buffer;
1574:src/mxml-file.c **** 
1575:src/mxml-file.c ****       while ((ch = (*getc_cb)(p, &encoding)) != EOF)
1576:src/mxml-file.c ****         if (mxml_isspace(ch) || ch == '>' || (ch == '/' && bufptr > buffer))
1577:src/mxml-file.c **** 	  break;
1578:src/mxml-file.c **** 	else if (ch == '<')
1579:src/mxml-file.c **** 	{
1580:src/mxml-file.c **** 	  mxml_error("Bare < in element!");
1581:src/mxml-file.c **** 	  goto error;
1582:src/mxml-file.c **** 	}
1583:src/mxml-file.c **** 	else if (ch == '&')
1584:src/mxml-file.c **** 	{
1585:src/mxml-file.c **** 	  if ((ch = mxml_get_entity(parent, p, &encoding, getc_cb)) == EOF)
1586:src/mxml-file.c **** 	    goto error;
1587:src/mxml-file.c **** 
1588:src/mxml-file.c **** 	  if (mxml_add_char(ch, &bufptr, &buffer, &bufsize))
1589:src/mxml-file.c **** 	    goto error;
1590:src/mxml-file.c **** 	}
1591:src/mxml-file.c **** 	else if (mxml_add_char(ch, &bufptr, &buffer, &bufsize))
1592:src/mxml-file.c **** 	  goto error;
1593:src/mxml-file.c **** 	else if (((bufptr - buffer) == 1 && buffer[0] == '?') ||
1594:src/mxml-file.c **** 	         ((bufptr - buffer) == 3 && !strncmp(buffer, "!--", 3)) ||
1595:src/mxml-file.c **** 	         ((bufptr - buffer) == 8 && !strncmp(buffer, "![CDATA[", 8)))
1596:src/mxml-file.c **** 	  break;
1597:src/mxml-file.c **** 
1598:src/mxml-file.c ****       *bufptr = '\0';
1599:src/mxml-file.c **** 
1600:src/mxml-file.c ****       if (!strcmp(buffer, "!--"))
1601:src/mxml-file.c ****       {
1602:src/mxml-file.c ****        /*
1603:src/mxml-file.c ****         * Gather rest of comment...
1604:src/mxml-file.c **** 	*/
1605:src/mxml-file.c **** 
1606:src/mxml-file.c **** 	while ((ch = (*getc_cb)(p, &encoding)) != EOF)
1607:src/mxml-file.c **** 	{
1608:src/mxml-file.c **** 	  if (ch == '>' && bufptr > (buffer + 4) &&
1609:src/mxml-file.c **** 	      bufptr[-3] != '-' && bufptr[-2] == '-' && bufptr[-1] == '-')
1610:src/mxml-file.c **** 	    break;
1611:src/mxml-file.c **** 	  else if (mxml_add_char(ch, &bufptr, &buffer, &bufsize))
1612:src/mxml-file.c **** 	    goto error;
1613:src/mxml-file.c **** 	}
1614:src/mxml-file.c **** 
1615:src/mxml-file.c ****        /*
1616:src/mxml-file.c ****         * Error out if we didn't get the whole comment...
1617:src/mxml-file.c **** 	*/
1618:src/mxml-file.c **** 
1619:src/mxml-file.c ****         if (ch != '>')
1620:src/mxml-file.c **** 	{
1621:src/mxml-file.c **** 	 /*
1622:src/mxml-file.c **** 	  * Print error and return...
1623:src/mxml-file.c **** 	  */
1624:src/mxml-file.c **** 
1625:src/mxml-file.c **** 	  mxml_error("Early EOF in comment node!");
1626:src/mxml-file.c **** 	  goto error;
1627:src/mxml-file.c **** 	}
1628:src/mxml-file.c **** 
ARM GAS  C:\Users\AHMED~1.ELE\AppData\Local\Temp\ccbrMpYT.s 			page 30


1629:src/mxml-file.c **** 
1630:src/mxml-file.c ****        /*
1631:src/mxml-file.c ****         * Otherwise add this as an element under the current parent...
1632:src/mxml-file.c **** 	*/
1633:src/mxml-file.c **** 
1634:src/mxml-file.c **** 	*bufptr = '\0';
1635:src/mxml-file.c **** 
1636:src/mxml-file.c ****         if (!parent && first)
1637:src/mxml-file.c **** 	{
1638:src/mxml-file.c **** 	 /*
1639:src/mxml-file.c **** 	  * There can only be one root element!
1640:src/mxml-file.c **** 	  */
1641:src/mxml-file.c **** 
1642:src/mxml-file.c **** 	  mxml_error("<%s> cannot be a second root node after <%s>",
1643:src/mxml-file.c **** 	             buffer, first->value.element.name);
1644:src/mxml-file.c ****           goto error;
1645:src/mxml-file.c **** 	}
1646:src/mxml-file.c **** 
1647:src/mxml-file.c **** 	if ((node = mxmlNewElement(parent, buffer)) == NULL)
1648:src/mxml-file.c **** 	{
1649:src/mxml-file.c **** 	 /*
1650:src/mxml-file.c **** 	  * Just print error for now...
1651:src/mxml-file.c **** 	  */
1652:src/mxml-file.c **** 
1653:src/mxml-file.c **** 	  mxml_error("Unable to add comment node to parent <%s>!",
1654:src/mxml-file.c **** 	             parent ? parent->value.element.name : "null");
1655:src/mxml-file.c **** 	  break;
1656:src/mxml-file.c **** 	}
1657:src/mxml-file.c **** 
1658:src/mxml-file.c ****         if (sax_cb)
1659:src/mxml-file.c ****         {
1660:src/mxml-file.c ****           (*sax_cb)(node, MXML_SAX_COMMENT, sax_data);
1661:src/mxml-file.c **** 
1662:src/mxml-file.c ****           if (!mxmlRelease(node))
1663:src/mxml-file.c ****             node = NULL;
1664:src/mxml-file.c ****         }
1665:src/mxml-file.c **** 
1666:src/mxml-file.c **** 	if (node && !first)
1667:src/mxml-file.c **** 	  first = node;
1668:src/mxml-file.c ****       }
1669:src/mxml-file.c ****       else if (!strcmp(buffer, "![CDATA["))
1670:src/mxml-file.c ****       {
1671:src/mxml-file.c ****        /*
1672:src/mxml-file.c ****         * Gather CDATA section...
1673:src/mxml-file.c **** 	*/
1674:src/mxml-file.c **** 
1675:src/mxml-file.c **** 	while ((ch = (*getc_cb)(p, &encoding)) != EOF)
1676:src/mxml-file.c **** 	{
1677:src/mxml-file.c **** 	  if (ch == '>' && !strncmp(bufptr - 2, "]]", 2))
1678:src/mxml-file.c **** 	    break;
1679:src/mxml-file.c **** 	  else if (mxml_add_char(ch, &bufptr, &buffer, &bufsize))
1680:src/mxml-file.c **** 	    goto error;
1681:src/mxml-file.c **** 	}
1682:src/mxml-file.c **** 
1683:src/mxml-file.c ****        /*
1684:src/mxml-file.c ****         * Error out if we didn't get the whole comment...
1685:src/mxml-file.c **** 	*/
ARM GAS  C:\Users\AHMED~1.ELE\AppData\Local\Temp\ccbrMpYT.s 			page 31


1686:src/mxml-file.c **** 
1687:src/mxml-file.c ****         if (ch != '>')
1688:src/mxml-file.c **** 	{
1689:src/mxml-file.c **** 	 /*
1690:src/mxml-file.c **** 	  * Print error and return...
1691:src/mxml-file.c **** 	  */
1692:src/mxml-file.c **** 
1693:src/mxml-file.c **** 	  mxml_error("Early EOF in CDATA node!");
1694:src/mxml-file.c **** 	  goto error;
1695:src/mxml-file.c **** 	}
1696:src/mxml-file.c **** 
1697:src/mxml-file.c **** 
1698:src/mxml-file.c ****        /*
1699:src/mxml-file.c ****         * Otherwise add this as an element under the current parent...
1700:src/mxml-file.c **** 	*/
1701:src/mxml-file.c **** 
1702:src/mxml-file.c **** 	*bufptr = '\0';
1703:src/mxml-file.c **** 
1704:src/mxml-file.c ****         if (!parent && first)
1705:src/mxml-file.c **** 	{
1706:src/mxml-file.c **** 	 /*
1707:src/mxml-file.c **** 	  * There can only be one root element!
1708:src/mxml-file.c **** 	  */
1709:src/mxml-file.c **** 
1710:src/mxml-file.c **** 	  mxml_error("<%s> cannot be a second root node after <%s>",
1711:src/mxml-file.c **** 	             buffer, first->value.element.name);
1712:src/mxml-file.c ****           goto error;
1713:src/mxml-file.c **** 	}
1714:src/mxml-file.c **** 
1715:src/mxml-file.c **** 	if ((node = mxmlNewElement(parent, buffer)) == NULL)
1716:src/mxml-file.c **** 	{
1717:src/mxml-file.c **** 	 /*
1718:src/mxml-file.c **** 	  * Print error and return...
1719:src/mxml-file.c **** 	  */
1720:src/mxml-file.c **** 
1721:src/mxml-file.c **** 	  mxml_error("Unable to add CDATA node to parent <%s>!",
1722:src/mxml-file.c **** 	             parent ? parent->value.element.name : "null");
1723:src/mxml-file.c **** 	  goto error;
1724:src/mxml-file.c **** 	}
1725:src/mxml-file.c **** 
1726:src/mxml-file.c ****         if (sax_cb)
1727:src/mxml-file.c ****         {
1728:src/mxml-file.c ****           (*sax_cb)(node, MXML_SAX_CDATA, sax_data);
1729:src/mxml-file.c **** 
1730:src/mxml-file.c ****           if (!mxmlRelease(node))
1731:src/mxml-file.c ****             node = NULL;
1732:src/mxml-file.c ****         }
1733:src/mxml-file.c **** 
1734:src/mxml-file.c **** 	if (node && !first)
1735:src/mxml-file.c **** 	  first = node;
1736:src/mxml-file.c ****       }
1737:src/mxml-file.c ****       else if (buffer[0] == '?')
1738:src/mxml-file.c ****       {
1739:src/mxml-file.c ****        /*
1740:src/mxml-file.c ****         * Gather rest of processing instruction...
1741:src/mxml-file.c **** 	*/
1742:src/mxml-file.c **** 
ARM GAS  C:\Users\AHMED~1.ELE\AppData\Local\Temp\ccbrMpYT.s 			page 32


1743:src/mxml-file.c **** 	while ((ch = (*getc_cb)(p, &encoding)) != EOF)
1744:src/mxml-file.c **** 	{
1745:src/mxml-file.c **** 	  if (ch == '>' && bufptr > buffer && bufptr[-1] == '?')
1746:src/mxml-file.c **** 	    break;
1747:src/mxml-file.c **** 	  else if (mxml_add_char(ch, &bufptr, &buffer, &bufsize))
1748:src/mxml-file.c **** 	    goto error;
1749:src/mxml-file.c **** 	}
1750:src/mxml-file.c **** 
1751:src/mxml-file.c ****        /*
1752:src/mxml-file.c ****         * Error out if we didn't get the whole processing instruction...
1753:src/mxml-file.c **** 	*/
1754:src/mxml-file.c **** 
1755:src/mxml-file.c ****         if (ch != '>')
1756:src/mxml-file.c **** 	{
1757:src/mxml-file.c **** 	 /*
1758:src/mxml-file.c **** 	  * Print error and return...
1759:src/mxml-file.c **** 	  */
1760:src/mxml-file.c **** 
1761:src/mxml-file.c **** 	  mxml_error("Early EOF in processing instruction node!");
1762:src/mxml-file.c **** 	  goto error;
1763:src/mxml-file.c **** 	}
1764:src/mxml-file.c **** 
1765:src/mxml-file.c ****        /*
1766:src/mxml-file.c ****         * Otherwise add this as an element under the current parent...
1767:src/mxml-file.c **** 	*/
1768:src/mxml-file.c **** 
1769:src/mxml-file.c **** 	*bufptr = '\0';
1770:src/mxml-file.c **** 
1771:src/mxml-file.c ****         if (!parent && first)
1772:src/mxml-file.c **** 	{
1773:src/mxml-file.c **** 	 /*
1774:src/mxml-file.c **** 	  * There can only be one root element!
1775:src/mxml-file.c **** 	  */
1776:src/mxml-file.c **** 
1777:src/mxml-file.c **** 	  mxml_error("<%s> cannot be a second root node after <%s>",
1778:src/mxml-file.c **** 	             buffer, first->value.element.name);
1779:src/mxml-file.c ****           goto error;
1780:src/mxml-file.c **** 	}
1781:src/mxml-file.c **** 
1782:src/mxml-file.c **** 	if ((node = mxmlNewElement(parent, buffer)) == NULL)
1783:src/mxml-file.c **** 	{
1784:src/mxml-file.c **** 	 /*
1785:src/mxml-file.c **** 	  * Print error and return...
1786:src/mxml-file.c **** 	  */
1787:src/mxml-file.c **** 
1788:src/mxml-file.c **** 	  mxml_error("Unable to add processing instruction node to parent <%s>!",
1789:src/mxml-file.c **** 	             parent ? parent->value.element.name : "null");
1790:src/mxml-file.c **** 	  goto error;
1791:src/mxml-file.c **** 	}
1792:src/mxml-file.c **** 
1793:src/mxml-file.c ****         if (sax_cb)
1794:src/mxml-file.c ****         {
1795:src/mxml-file.c ****           (*sax_cb)(node, MXML_SAX_DIRECTIVE, sax_data);
1796:src/mxml-file.c **** 
1797:src/mxml-file.c ****           if (!mxmlRelease(node))
1798:src/mxml-file.c ****             node = NULL;
1799:src/mxml-file.c ****         }
ARM GAS  C:\Users\AHMED~1.ELE\AppData\Local\Temp\ccbrMpYT.s 			page 33


1800:src/mxml-file.c **** 
1801:src/mxml-file.c ****         if (node)
1802:src/mxml-file.c **** 	{
1803:src/mxml-file.c **** 	  if (!first)
1804:src/mxml-file.c ****             first = node;
1805:src/mxml-file.c **** 
1806:src/mxml-file.c **** 	  if (!parent)
1807:src/mxml-file.c **** 	  {
1808:src/mxml-file.c **** 	    parent = node;
1809:src/mxml-file.c **** 
1810:src/mxml-file.c **** 	    if (cb)
1811:src/mxml-file.c **** 	      type = (*cb)(parent);
1812:src/mxml-file.c **** 	    else
1813:src/mxml-file.c **** 	      type = MXML_TEXT;
1814:src/mxml-file.c **** 	  }
1815:src/mxml-file.c **** 	}
1816:src/mxml-file.c ****       }
1817:src/mxml-file.c ****       else if (buffer[0] == '!')
1818:src/mxml-file.c ****       {
1819:src/mxml-file.c ****        /*
1820:src/mxml-file.c ****         * Gather rest of declaration...
1821:src/mxml-file.c **** 	*/
1822:src/mxml-file.c **** 
1823:src/mxml-file.c **** 	do
1824:src/mxml-file.c **** 	{
1825:src/mxml-file.c **** 	  if (ch == '>')
1826:src/mxml-file.c **** 	    break;
1827:src/mxml-file.c **** 	  else
1828:src/mxml-file.c **** 	  {
1829:src/mxml-file.c ****             if (ch == '&')
1830:src/mxml-file.c **** 	      if ((ch = mxml_get_entity(parent, p, &encoding, getc_cb)) == EOF)
1831:src/mxml-file.c **** 		goto error;
1832:src/mxml-file.c **** 
1833:src/mxml-file.c **** 	    if (mxml_add_char(ch, &bufptr, &buffer, &bufsize))
1834:src/mxml-file.c **** 	      goto error;
1835:src/mxml-file.c **** 	  }
1836:src/mxml-file.c **** 	}
1837:src/mxml-file.c ****         while ((ch = (*getc_cb)(p, &encoding)) != EOF);
1838:src/mxml-file.c **** 
1839:src/mxml-file.c ****        /*
1840:src/mxml-file.c ****         * Error out if we didn't get the whole declaration...
1841:src/mxml-file.c **** 	*/
1842:src/mxml-file.c **** 
1843:src/mxml-file.c ****         if (ch != '>')
1844:src/mxml-file.c **** 	{
1845:src/mxml-file.c **** 	 /*
1846:src/mxml-file.c **** 	  * Print error and return...
1847:src/mxml-file.c **** 	  */
1848:src/mxml-file.c **** 
1849:src/mxml-file.c **** 	  mxml_error("Early EOF in declaration node!");
1850:src/mxml-file.c **** 	  goto error;
1851:src/mxml-file.c **** 	}
1852:src/mxml-file.c **** 
1853:src/mxml-file.c ****        /*
1854:src/mxml-file.c ****         * Otherwise add this as an element under the current parent...
1855:src/mxml-file.c **** 	*/
1856:src/mxml-file.c **** 
ARM GAS  C:\Users\AHMED~1.ELE\AppData\Local\Temp\ccbrMpYT.s 			page 34


1857:src/mxml-file.c **** 	*bufptr = '\0';
1858:src/mxml-file.c **** 
1859:src/mxml-file.c ****         if (!parent && first)
1860:src/mxml-file.c **** 	{
1861:src/mxml-file.c **** 	 /*
1862:src/mxml-file.c **** 	  * There can only be one root element!
1863:src/mxml-file.c **** 	  */
1864:src/mxml-file.c **** 
1865:src/mxml-file.c **** 	  mxml_error("<%s> cannot be a second root node after <%s>",
1866:src/mxml-file.c **** 	             buffer, first->value.element.name);
1867:src/mxml-file.c ****           goto error;
1868:src/mxml-file.c **** 	}
1869:src/mxml-file.c **** 
1870:src/mxml-file.c **** 	if ((node = mxmlNewElement(parent, buffer)) == NULL)
1871:src/mxml-file.c **** 	{
1872:src/mxml-file.c **** 	 /*
1873:src/mxml-file.c **** 	  * Print error and return...
1874:src/mxml-file.c **** 	  */
1875:src/mxml-file.c **** 
1876:src/mxml-file.c **** 	  mxml_error("Unable to add declaration node to parent <%s>!",
1877:src/mxml-file.c **** 	             parent ? parent->value.element.name : "null");
1878:src/mxml-file.c **** 	  goto error;
1879:src/mxml-file.c **** 	}
1880:src/mxml-file.c **** 
1881:src/mxml-file.c ****         if (sax_cb)
1882:src/mxml-file.c ****         {
1883:src/mxml-file.c ****           (*sax_cb)(node, MXML_SAX_DIRECTIVE, sax_data);
1884:src/mxml-file.c **** 
1885:src/mxml-file.c ****           if (!mxmlRelease(node))
1886:src/mxml-file.c ****             node = NULL;
1887:src/mxml-file.c ****         }
1888:src/mxml-file.c **** 
1889:src/mxml-file.c ****         if (node)
1890:src/mxml-file.c **** 	{
1891:src/mxml-file.c **** 	  if (!first)
1892:src/mxml-file.c ****             first = node;
1893:src/mxml-file.c **** 
1894:src/mxml-file.c **** 	  if (!parent)
1895:src/mxml-file.c **** 	  {
1896:src/mxml-file.c **** 	    parent = node;
1897:src/mxml-file.c **** 
1898:src/mxml-file.c **** 	    if (cb)
1899:src/mxml-file.c **** 	      type = (*cb)(parent);
1900:src/mxml-file.c **** 	    else
1901:src/mxml-file.c **** 	      type = MXML_TEXT;
1902:src/mxml-file.c **** 	  }
1903:src/mxml-file.c **** 	}
1904:src/mxml-file.c ****       }
1905:src/mxml-file.c ****       else if (buffer[0] == '/')
1906:src/mxml-file.c ****       {
1907:src/mxml-file.c ****        /*
1908:src/mxml-file.c ****         * Handle close tag...
1909:src/mxml-file.c **** 	*/
1910:src/mxml-file.c **** 
1911:src/mxml-file.c ****         if (!parent || strcmp(buffer + 1, parent->value.element.name))
1912:src/mxml-file.c **** 	{
1913:src/mxml-file.c **** 	 /*
ARM GAS  C:\Users\AHMED~1.ELE\AppData\Local\Temp\ccbrMpYT.s 			page 35


1914:src/mxml-file.c **** 	  * Close tag doesn't match tree; print an error for now...
1915:src/mxml-file.c **** 	  */
1916:src/mxml-file.c **** 
1917:src/mxml-file.c **** 	  mxml_error("Mismatched close tag <%s> under parent <%s>!",
1918:src/mxml-file.c **** 	             buffer, parent ? parent->value.element.name : "(null)");
1919:src/mxml-file.c ****           goto error;
1920:src/mxml-file.c **** 	}
1921:src/mxml-file.c **** 
1922:src/mxml-file.c ****        /*
1923:src/mxml-file.c ****         * Keep reading until we see >...
1924:src/mxml-file.c **** 	*/
1925:src/mxml-file.c **** 
1926:src/mxml-file.c ****         while (ch != '>' && ch != EOF)
1927:src/mxml-file.c **** 	  ch = (*getc_cb)(p, &encoding);
1928:src/mxml-file.c **** 
1929:src/mxml-file.c ****         node   = parent;
1930:src/mxml-file.c ****         parent = parent->parent;
1931:src/mxml-file.c **** 
1932:src/mxml-file.c ****         if (sax_cb)
1933:src/mxml-file.c ****         {
1934:src/mxml-file.c ****           (*sax_cb)(node, MXML_SAX_ELEMENT_CLOSE, sax_data);
1935:src/mxml-file.c **** 
1936:src/mxml-file.c ****           if (!mxmlRelease(node) && first == node)
1937:src/mxml-file.c **** 	    first = NULL;
1938:src/mxml-file.c ****         }
1939:src/mxml-file.c **** 
1940:src/mxml-file.c ****        /*
1941:src/mxml-file.c **** 	* Ascend into the parent and set the value type as needed...
1942:src/mxml-file.c **** 	*/
1943:src/mxml-file.c **** 
1944:src/mxml-file.c **** 	if (cb && parent)
1945:src/mxml-file.c **** 	  type = (*cb)(parent);
1946:src/mxml-file.c ****       }
1947:src/mxml-file.c ****       else
1948:src/mxml-file.c ****       {
1949:src/mxml-file.c ****        /*
1950:src/mxml-file.c ****         * Handle open tag...
1951:src/mxml-file.c **** 	*/
1952:src/mxml-file.c **** 
1953:src/mxml-file.c ****         if (!parent && first)
1954:src/mxml-file.c **** 	{
1955:src/mxml-file.c **** 	 /*
1956:src/mxml-file.c **** 	  * There can only be one root element!
1957:src/mxml-file.c **** 	  */
1958:src/mxml-file.c **** 
1959:src/mxml-file.c **** 	  mxml_error("<%s> cannot be a second root node after <%s>",
1960:src/mxml-file.c **** 	             buffer, first->value.element.name);
1961:src/mxml-file.c ****           goto error;
1962:src/mxml-file.c **** 	}
1963:src/mxml-file.c **** 
1964:src/mxml-file.c ****         if ((node = mxmlNewElement(parent, buffer)) == NULL)
1965:src/mxml-file.c **** 	{
1966:src/mxml-file.c **** 	 /*
1967:src/mxml-file.c **** 	  * Just print error for now...
1968:src/mxml-file.c **** 	  */
1969:src/mxml-file.c **** 
1970:src/mxml-file.c **** 	  mxml_error("Unable to add element node to parent <%s>!",
ARM GAS  C:\Users\AHMED~1.ELE\AppData\Local\Temp\ccbrMpYT.s 			page 36


1971:src/mxml-file.c **** 	             parent ? parent->value.element.name : "null");
1972:src/mxml-file.c **** 	  goto error;
1973:src/mxml-file.c **** 	}
1974:src/mxml-file.c **** 
1975:src/mxml-file.c ****         if (mxml_isspace(ch))
1976:src/mxml-file.c ****         {
1977:src/mxml-file.c **** 	  if ((ch = mxml_parse_element(node, p, &encoding, getc_cb)) == EOF)
1978:src/mxml-file.c **** 	    goto error;
1979:src/mxml-file.c ****         }
1980:src/mxml-file.c ****         else if (ch == '/')
1981:src/mxml-file.c **** 	{
1982:src/mxml-file.c **** 	  if ((ch = (*getc_cb)(p, &encoding)) != '>')
1983:src/mxml-file.c **** 	  {
1984:src/mxml-file.c **** 	    mxml_error("Expected > but got '%c' instead for element <%s/>!",
1985:src/mxml-file.c **** 	               ch, buffer);
1986:src/mxml-file.c ****             mxmlDelete(node);
1987:src/mxml-file.c ****             goto error;
1988:src/mxml-file.c **** 	  }
1989:src/mxml-file.c **** 
1990:src/mxml-file.c **** 	  ch = '/';
1991:src/mxml-file.c **** 	}
1992:src/mxml-file.c **** 
1993:src/mxml-file.c ****         if (sax_cb)
1994:src/mxml-file.c ****           (*sax_cb)(node, MXML_SAX_ELEMENT_OPEN, sax_data);
1995:src/mxml-file.c **** 
1996:src/mxml-file.c ****         if (!first)
1997:src/mxml-file.c **** 	  first = node;
1998:src/mxml-file.c **** 
1999:src/mxml-file.c **** 	if (ch == EOF)
2000:src/mxml-file.c **** 	  break;
2001:src/mxml-file.c **** 
2002:src/mxml-file.c ****         if (ch != '/')
2003:src/mxml-file.c **** 	{
2004:src/mxml-file.c **** 	 /*
2005:src/mxml-file.c **** 	  * Descend into this node, setting the value type as needed...
2006:src/mxml-file.c **** 	  */
2007:src/mxml-file.c **** 
2008:src/mxml-file.c **** 	  parent = node;
2009:src/mxml-file.c **** 
2010:src/mxml-file.c **** 	  if (cb && parent)
2011:src/mxml-file.c **** 	    type = (*cb)(parent);
2012:src/mxml-file.c **** 	}
2013:src/mxml-file.c ****         else if (sax_cb)
2014:src/mxml-file.c ****         {
2015:src/mxml-file.c ****           (*sax_cb)(node, MXML_SAX_ELEMENT_CLOSE, sax_data);
2016:src/mxml-file.c **** 
2017:src/mxml-file.c ****           if (!mxmlRelease(node) && first == node)
2018:src/mxml-file.c ****             first = NULL;
2019:src/mxml-file.c ****         }
2020:src/mxml-file.c ****       }
2021:src/mxml-file.c **** 
2022:src/mxml-file.c ****       bufptr  = buffer;
2023:src/mxml-file.c ****     }
2024:src/mxml-file.c ****     else if (ch == '&')
2025:src/mxml-file.c ****     {
2026:src/mxml-file.c ****      /*
2027:src/mxml-file.c ****       * Add character entity to current buffer...
ARM GAS  C:\Users\AHMED~1.ELE\AppData\Local\Temp\ccbrMpYT.s 			page 37


2028:src/mxml-file.c ****       */
2029:src/mxml-file.c **** 
2030:src/mxml-file.c ****       if ((ch = mxml_get_entity(parent, p, &encoding, getc_cb)) == EOF)
2031:src/mxml-file.c **** 	goto error;
2032:src/mxml-file.c **** 
2033:src/mxml-file.c ****       if (mxml_add_char(ch, &bufptr, &buffer, &bufsize))
2034:src/mxml-file.c **** 	goto error;
2035:src/mxml-file.c ****     }
2036:src/mxml-file.c ****     //else if (type == MXML_OPAQUE || type == MXML_CUSTOM || !mxml_isspace(ch))
2037:src/mxml-file.c ****     else if (type == MXML_OPAQUE || type == MXML_CUSTOM || !mxml_isspace(ch) || (mxml_isspace_only(
2038:src/mxml-file.c ****     {
2039:src/mxml-file.c ****      /*
2040:src/mxml-file.c ****       * Add character to current buffer...
2041:src/mxml-file.c ****       */
2042:src/mxml-file.c **** 
2043:src/mxml-file.c ****       if (mxml_add_char(ch, &bufptr, &buffer, &bufsize))
2044:src/mxml-file.c **** 	goto error;
2045:src/mxml-file.c ****     }
2046:src/mxml-file.c ****   }
2047:src/mxml-file.c **** 
2048:src/mxml-file.c ****  /*
2049:src/mxml-file.c ****   * Free the string buffer - we don't need it anymore...
2050:src/mxml-file.c ****   */
2051:src/mxml-file.c **** 
2052:src/mxml-file.c ****   os_free(buffer);
2053:src/mxml-file.c **** 
2054:src/mxml-file.c ****  /*
2055:src/mxml-file.c ****   * Find the top element and return it...
2056:src/mxml-file.c ****   */
2057:src/mxml-file.c **** 
2058:src/mxml-file.c ****   if (parent)
2059:src/mxml-file.c ****   {
2060:src/mxml-file.c ****     node = parent;
2061:src/mxml-file.c **** 
2062:src/mxml-file.c ****     while (parent != top && parent->parent)
2063:src/mxml-file.c ****       parent = parent->parent;
2064:src/mxml-file.c **** 
2065:src/mxml-file.c ****     if (node != parent)
2066:src/mxml-file.c ****     {
2067:src/mxml-file.c ****       mxml_error("Missing close tag </%s> under parent <%s>!",
2068:src/mxml-file.c **** 	         node->value.element.name,
2069:src/mxml-file.c **** 		 node->parent ? node->parent->value.element.name : "(null)");
2070:src/mxml-file.c **** 
2071:src/mxml-file.c ****       mxmlDelete(first);
2072:src/mxml-file.c **** 
2073:src/mxml-file.c ****       return (NULL);
2074:src/mxml-file.c ****     }
2075:src/mxml-file.c ****   }
2076:src/mxml-file.c **** 
2077:src/mxml-file.c ****   if (parent)
2078:src/mxml-file.c ****     return (parent);
2079:src/mxml-file.c ****   else
2080:src/mxml-file.c ****     return (first);
2081:src/mxml-file.c **** 
2082:src/mxml-file.c ****  /*
2083:src/mxml-file.c ****   * Common error return...
2084:src/mxml-file.c ****   */
ARM GAS  C:\Users\AHMED~1.ELE\AppData\Local\Temp\ccbrMpYT.s 			page 38


2085:src/mxml-file.c **** 
2086:src/mxml-file.c **** error:
2087:src/mxml-file.c **** 
2088:src/mxml-file.c ****   mxmlDelete(first);
2089:src/mxml-file.c **** 
2090:src/mxml-file.c ****   os_free(buffer);
2091:src/mxml-file.c **** 
2092:src/mxml-file.c ****   return (NULL);
2093:src/mxml-file.c **** }
2094:src/mxml-file.c **** 
2095:src/mxml-file.c **** 
2096:src/mxml-file.c **** /*
2097:src/mxml-file.c ****  * 'mxml_parse_element()' - Parse an element for any attributes...
2098:src/mxml-file.c ****  */
2099:src/mxml-file.c **** 
2100:src/mxml-file.c **** static int				/* O  - Terminating character */
2101:src/mxml-file.c **** mxml_parse_element(
2102:src/mxml-file.c ****     mxml_node_t     *node,		/* I  - Element node */
2103:src/mxml-file.c ****     void            *p,			/* I  - Data to read from */
2104:src/mxml-file.c ****     int             *encoding,		/* IO - Encoding */
2105:src/mxml-file.c ****     _mxml_getc_cb_t getc_cb)		/* I  - Data callback */
2106:src/mxml-file.c **** {
2107:src/mxml-file.c ****   int	ch,				/* Current character in file */
2108:src/mxml-file.c **** 	quote;				/* Quoting character */
2109:src/mxml-file.c ****   char	*name,				/* Attribute name */
2110:src/mxml-file.c **** 	*value,				/* Attribute value */
2111:src/mxml-file.c **** 	*ptr;				/* Pointer into name/value */
2112:src/mxml-file.c ****   int	namesize,			/* Size of name string */
2113:src/mxml-file.c **** 	valsize;			/* Size of value string */
2114:src/mxml-file.c **** 
2115:src/mxml-file.c **** 
2116:src/mxml-file.c ****  /*
2117:src/mxml-file.c ****   * Initialize the name and value buffers...
2118:src/mxml-file.c ****   */
2119:src/mxml-file.c **** 
2120:src/mxml-file.c ****   if ((name = os_malloc(64)) == NULL)
2121:src/mxml-file.c ****   {
2122:src/mxml-file.c ****     mxml_error("Unable to allocate memory for name!");
2123:src/mxml-file.c ****     return (EOF);
2124:src/mxml-file.c ****   }
2125:src/mxml-file.c **** 
2126:src/mxml-file.c ****   namesize = 64;
2127:src/mxml-file.c **** 
2128:src/mxml-file.c ****   if ((value = os_malloc(64)) == NULL)
2129:src/mxml-file.c ****   {
2130:src/mxml-file.c ****     os_free(name);
2131:src/mxml-file.c ****     mxml_error("Unable to allocate memory for value!");
2132:src/mxml-file.c ****     return (EOF);
2133:src/mxml-file.c ****   }
2134:src/mxml-file.c **** 
2135:src/mxml-file.c ****   valsize = 64;
2136:src/mxml-file.c **** 
2137:src/mxml-file.c ****  /*
2138:src/mxml-file.c ****   * Loop until we hit a >, /, ?, or EOF...
2139:src/mxml-file.c ****   */
2140:src/mxml-file.c **** 
2141:src/mxml-file.c ****   while ((ch = (*getc_cb)(p, encoding)) != EOF)
ARM GAS  C:\Users\AHMED~1.ELE\AppData\Local\Temp\ccbrMpYT.s 			page 39


2142:src/mxml-file.c ****   {
2143:src/mxml-file.c **** #if DEBUG > 1
2144:src/mxml-file.c ****     fprintf(stderr, "parse_element: ch='%c'\n", ch);
2145:src/mxml-file.c **** #endif /* DEBUG > 1 */
2146:src/mxml-file.c **** 
2147:src/mxml-file.c ****    /*
2148:src/mxml-file.c ****     * Skip leading whitespace...
2149:src/mxml-file.c ****     */
2150:src/mxml-file.c **** 
2151:src/mxml-file.c ****     if (mxml_isspace(ch))
2152:src/mxml-file.c ****       continue;
2153:src/mxml-file.c **** 
2154:src/mxml-file.c ****    /*
2155:src/mxml-file.c ****     * Stop at /, ?, or >...
2156:src/mxml-file.c ****     */
2157:src/mxml-file.c **** 
2158:src/mxml-file.c ****     if (ch == '/' || ch == '?')
2159:src/mxml-file.c ****     {
2160:src/mxml-file.c ****      /*
2161:src/mxml-file.c ****       * Grab the > character and print an error if it isn't there...
2162:src/mxml-file.c ****       */
2163:src/mxml-file.c **** 
2164:src/mxml-file.c ****       quote = (*getc_cb)(p, encoding);
2165:src/mxml-file.c **** 
2166:src/mxml-file.c ****       if (quote != '>')
2167:src/mxml-file.c ****       {
2168:src/mxml-file.c ****         mxml_error("Expected '>' after '%c' for element %s, but got '%c'!",
2169:src/mxml-file.c **** 	           ch, node->value.element.name, quote);
2170:src/mxml-file.c ****         goto error;
2171:src/mxml-file.c ****       }
2172:src/mxml-file.c **** 
2173:src/mxml-file.c ****       break;
2174:src/mxml-file.c ****     }
2175:src/mxml-file.c ****     else if (ch == '<')
2176:src/mxml-file.c ****     {
2177:src/mxml-file.c ****       mxml_error("Bare < in element %s!", node->value.element.name);
2178:src/mxml-file.c ****       goto error;
2179:src/mxml-file.c ****     }
2180:src/mxml-file.c ****     else if (ch == '>')
2181:src/mxml-file.c ****       break;
2182:src/mxml-file.c **** 
2183:src/mxml-file.c ****    /*
2184:src/mxml-file.c ****     * Read the attribute name...
2185:src/mxml-file.c ****     */
2186:src/mxml-file.c **** 
2187:src/mxml-file.c ****     name[0] = ch;
2188:src/mxml-file.c ****     ptr     = name + 1;
2189:src/mxml-file.c **** 
2190:src/mxml-file.c ****     if (ch == '\"' || ch == '\'')
2191:src/mxml-file.c ****     {
2192:src/mxml-file.c ****      /*
2193:src/mxml-file.c ****       * Name is in quotes, so get a quoted string...
2194:src/mxml-file.c ****       */
2195:src/mxml-file.c **** 
2196:src/mxml-file.c ****       quote = ch;
2197:src/mxml-file.c **** 
2198:src/mxml-file.c ****       while ((ch = (*getc_cb)(p, encoding)) != EOF)
ARM GAS  C:\Users\AHMED~1.ELE\AppData\Local\Temp\ccbrMpYT.s 			page 40


2199:src/mxml-file.c ****       {
2200:src/mxml-file.c ****         if (ch == '&')
2201:src/mxml-file.c **** 	  if ((ch = mxml_get_entity(node, p, encoding, getc_cb)) == EOF)
2202:src/mxml-file.c **** 	    goto error;
2203:src/mxml-file.c **** 
2204:src/mxml-file.c **** 	if (mxml_add_char(ch, &ptr, &name, &namesize))
2205:src/mxml-file.c **** 	  goto error;
2206:src/mxml-file.c **** 
2207:src/mxml-file.c **** 	if (ch == quote)
2208:src/mxml-file.c ****           break;
2209:src/mxml-file.c ****       }
2210:src/mxml-file.c ****     }
2211:src/mxml-file.c ****     else
2212:src/mxml-file.c ****     {
2213:src/mxml-file.c ****      /*
2214:src/mxml-file.c ****       * Grab an normal, non-quoted name...
2215:src/mxml-file.c ****       */
2216:src/mxml-file.c **** 
2217:src/mxml-file.c ****       while ((ch = (*getc_cb)(p, encoding)) != EOF)
2218:src/mxml-file.c **** 	if (mxml_isspace(ch) || ch == '=' || ch == '/' || ch == '>' ||
2219:src/mxml-file.c **** 	    ch == '?')
2220:src/mxml-file.c ****           break;
2221:src/mxml-file.c **** 	else
2222:src/mxml-file.c **** 	{
2223:src/mxml-file.c ****           if (ch == '&')
2224:src/mxml-file.c **** 	    if ((ch = mxml_get_entity(node, p, encoding, getc_cb)) == EOF)
2225:src/mxml-file.c **** 	      goto error;
2226:src/mxml-file.c **** 
2227:src/mxml-file.c **** 	  if (mxml_add_char(ch, &ptr, &name, &namesize))
2228:src/mxml-file.c **** 	    goto error;
2229:src/mxml-file.c **** 	}
2230:src/mxml-file.c ****     }
2231:src/mxml-file.c **** 
2232:src/mxml-file.c ****     *ptr = '\0';
2233:src/mxml-file.c **** 
2234:src/mxml-file.c ****     if (mxmlElementGetAttr(node, name))
2235:src/mxml-file.c ****       goto error;
2236:src/mxml-file.c **** 
2237:src/mxml-file.c ****     while (ch != EOF && mxml_isspace(ch))
2238:src/mxml-file.c ****       ch = (*getc_cb)(p, encoding);
2239:src/mxml-file.c **** 
2240:src/mxml-file.c ****     if (ch == '=')
2241:src/mxml-file.c ****     {
2242:src/mxml-file.c ****      /*
2243:src/mxml-file.c ****       * Read the attribute value...
2244:src/mxml-file.c ****       */
2245:src/mxml-file.c **** 
2246:src/mxml-file.c ****       while ((ch = (*getc_cb)(p, encoding)) != EOF && mxml_isspace(ch));
2247:src/mxml-file.c **** 
2248:src/mxml-file.c ****       if (ch == EOF)
2249:src/mxml-file.c ****       {
2250:src/mxml-file.c ****         mxml_error("Missing value for attribute '%s' in element %s!",
2251:src/mxml-file.c **** 	           name, node->value.element.name);
2252:src/mxml-file.c ****         goto error;
2253:src/mxml-file.c ****       }
2254:src/mxml-file.c **** 
2255:src/mxml-file.c ****       if (ch == '\'' || ch == '\"')
ARM GAS  C:\Users\AHMED~1.ELE\AppData\Local\Temp\ccbrMpYT.s 			page 41


2256:src/mxml-file.c ****       {
2257:src/mxml-file.c ****        /*
2258:src/mxml-file.c ****         * Read quoted value...
2259:src/mxml-file.c **** 	*/
2260:src/mxml-file.c **** 
2261:src/mxml-file.c ****         quote = ch;
2262:src/mxml-file.c **** 	ptr   = value;
2263:src/mxml-file.c **** 
2264:src/mxml-file.c ****         while ((ch = (*getc_cb)(p, encoding)) != EOF)
2265:src/mxml-file.c **** 	  if (ch == quote)
2266:src/mxml-file.c **** 	    break;
2267:src/mxml-file.c **** 	  else
2268:src/mxml-file.c **** 	  {
2269:src/mxml-file.c **** 	    if (ch == '&')
2270:src/mxml-file.c **** 	      if ((ch = mxml_get_entity(node, p, encoding, getc_cb)) == EOF)
2271:src/mxml-file.c **** 	        goto error;
2272:src/mxml-file.c **** 
2273:src/mxml-file.c **** 	    if (mxml_add_char(ch, &ptr, &value, &valsize))
2274:src/mxml-file.c **** 	      goto error;
2275:src/mxml-file.c **** 	  }
2276:src/mxml-file.c **** 
2277:src/mxml-file.c ****         *ptr = '\0';
2278:src/mxml-file.c ****       }
2279:src/mxml-file.c ****       else
2280:src/mxml-file.c ****       {
2281:src/mxml-file.c ****        /*
2282:src/mxml-file.c ****         * Read unquoted value...
2283:src/mxml-file.c **** 	*/
2284:src/mxml-file.c **** 
2285:src/mxml-file.c **** 	value[0] = ch;
2286:src/mxml-file.c **** 	ptr      = value + 1;
2287:src/mxml-file.c **** 
2288:src/mxml-file.c **** 	while ((ch = (*getc_cb)(p, encoding)) != EOF)
2289:src/mxml-file.c **** 	  if (mxml_isspace(ch) || ch == '=' || ch == '/' || ch == '>')
2290:src/mxml-file.c ****             break;
2291:src/mxml-file.c **** 	  else
2292:src/mxml-file.c **** 	  {
2293:src/mxml-file.c **** 	    if (ch == '&')
2294:src/mxml-file.c **** 	      if ((ch = mxml_get_entity(node, p, encoding, getc_cb)) == EOF)
2295:src/mxml-file.c **** 	        goto error;
2296:src/mxml-file.c **** 
2297:src/mxml-file.c **** 	    if (mxml_add_char(ch, &ptr, &value, &valsize))
2298:src/mxml-file.c **** 	      goto error;
2299:src/mxml-file.c **** 	  }
2300:src/mxml-file.c **** 
2301:src/mxml-file.c ****         *ptr = '\0';
2302:src/mxml-file.c ****       }
2303:src/mxml-file.c **** 
2304:src/mxml-file.c ****      /*
2305:src/mxml-file.c ****       * Set the attribute with the given string value...
2306:src/mxml-file.c ****       */
2307:src/mxml-file.c **** 
2308:src/mxml-file.c ****       mxmlElementSetAttr(node, name, value);
2309:src/mxml-file.c ****     }
2310:src/mxml-file.c ****     else
2311:src/mxml-file.c ****     {
2312:src/mxml-file.c ****       mxml_error("Missing value for attribute '%s' in element %s!",
ARM GAS  C:\Users\AHMED~1.ELE\AppData\Local\Temp\ccbrMpYT.s 			page 42


2313:src/mxml-file.c **** 	         name, node->value.element.name);
2314:src/mxml-file.c ****       goto error;
2315:src/mxml-file.c ****     }
2316:src/mxml-file.c **** 
2317:src/mxml-file.c ****    /*
2318:src/mxml-file.c ****     * Check the end character...
2319:src/mxml-file.c ****     */
2320:src/mxml-file.c **** 
2321:src/mxml-file.c ****     if (ch == '/' || ch == '?')
2322:src/mxml-file.c ****     {
2323:src/mxml-file.c ****      /*
2324:src/mxml-file.c ****       * Grab the > character and print an error if it isn't there...
2325:src/mxml-file.c ****       */
2326:src/mxml-file.c **** 
2327:src/mxml-file.c ****       quote = (*getc_cb)(p, encoding);
2328:src/mxml-file.c **** 
2329:src/mxml-file.c ****       if (quote != '>')
2330:src/mxml-file.c ****       {
2331:src/mxml-file.c ****         mxml_error("Expected '>' after '%c' for element %s, but got '%c'!",
2332:src/mxml-file.c **** 	           ch, node->value.element.name, quote);
2333:src/mxml-file.c ****         ch = EOF;
2334:src/mxml-file.c ****       }
2335:src/mxml-file.c **** 
2336:src/mxml-file.c ****       break;
2337:src/mxml-file.c ****     }
2338:src/mxml-file.c ****     else if (ch == '>')
2339:src/mxml-file.c ****       break;
2340:src/mxml-file.c ****   }
2341:src/mxml-file.c **** 
2342:src/mxml-file.c ****  /*
2343:src/mxml-file.c ****   * Free the name and value buffers and return...
2344:src/mxml-file.c ****   */
2345:src/mxml-file.c **** 
2346:src/mxml-file.c ****   os_free(name);
2347:src/mxml-file.c ****   os_free(value);
2348:src/mxml-file.c **** 
2349:src/mxml-file.c ****   return (ch);
2350:src/mxml-file.c **** 
2351:src/mxml-file.c ****  /*
2352:src/mxml-file.c ****   * Common error return point...
2353:src/mxml-file.c ****   */
2354:src/mxml-file.c **** 
2355:src/mxml-file.c **** error:
2356:src/mxml-file.c **** 
2357:src/mxml-file.c ****   os_free(name);
2358:src/mxml-file.c ****   os_free(value);
2359:src/mxml-file.c **** 
2360:src/mxml-file.c ****   return (EOF);
2361:src/mxml-file.c **** }
2362:src/mxml-file.c **** 
2363:src/mxml-file.c **** 
2364:src/mxml-file.c **** /*
2365:src/mxml-file.c ****  * 'mxml_string_getc()' - Get a character from a string.
2366:src/mxml-file.c ****  */
2367:src/mxml-file.c **** 
2368:src/mxml-file.c **** static int				/* O  - Character or EOF */
2369:src/mxml-file.c **** mxml_string_getc(void *p,		/* I  - Pointer to file */
ARM GAS  C:\Users\AHMED~1.ELE\AppData\Local\Temp\ccbrMpYT.s 			page 43


2370:src/mxml-file.c ****                  int  *encoding)	/* IO - Encoding */
2371:src/mxml-file.c **** {
  26              		.loc 1 2371 0
  27              		.cfi_startproc
  28              		@ args = 0, pretend = 0, frame = 0
  29              		@ frame_needed = 0, uses_anonymous_args = 0
  30              	.LVL0:
  31 0000 F8B5     		push	{r3, r4, r5, r6, r7, lr}
  32              		.cfi_def_cfa_offset 24
  33              		.cfi_offset 3, -24
  34              		.cfi_offset 4, -20
  35              		.cfi_offset 5, -16
  36              		.cfi_offset 6, -12
  37              		.cfi_offset 7, -8
  38              		.cfi_offset 14, -4
  39 0002 0E46     		mov	r6, r1
  40              	.LVL1:
  41              	.L2:
2372:src/mxml-file.c ****   int		ch;			/* Character */
2373:src/mxml-file.c ****   const char	**s;			/* Pointer to string pointer */
2374:src/mxml-file.c **** 
2375:src/mxml-file.c **** 
2376:src/mxml-file.c ****   s = (const char **)p;
2377:src/mxml-file.c **** 
2378:src/mxml-file.c ****   if ((ch = (*s)[0] & 255) != 0 || *encoding == ENCODE_UTF16LE)
  42              		.loc 1 2378 0
  43 0004 0268     		ldr	r2, [r0]
  44 0006 3568     		ldr	r5, [r6]
  45 0008 1478     		ldrb	r4, [r2]	@ zero_extendqisi2
  46 000a 63B2     		sxtb	r3, r4
  47              	.LVL2:
  48 000c 13F0FF01 		ands	r1, r3, #255
  49 0010 02D1     		bne	.L3
  50              		.loc 1 2378 0 is_stmt 0 discriminator 1
  51 0012 022D     		cmp	r5, #2
  52 0014 40F0E680 		bne	.L43
  53              	.L3:
2379:src/mxml-file.c ****   {
2380:src/mxml-file.c ****    /*
2381:src/mxml-file.c ****     * Got character; convert UTF-8 to integer and return...
2382:src/mxml-file.c ****     */
2383:src/mxml-file.c **** 
2384:src/mxml-file.c ****     (*s)++;
  54              		.loc 1 2384 0 is_stmt 1
  55 0018 571C     		adds	r7, r2, #1
2385:src/mxml-file.c **** 
2386:src/mxml-file.c ****     switch (*encoding)
  56              		.loc 1 2386 0
  57 001a 012D     		cmp	r5, #1
2384:src/mxml-file.c **** 
  58              		.loc 1 2384 0
  59 001c 0760     		str	r7, [r0]
  60              		.loc 1 2386 0
  61 001e 00F08C80 		beq	.L5
  62 0022 022D     		cmp	r5, #2
  63 0024 00F0B380 		beq	.L6
  64 0028 002D     		cmp	r5, #0
ARM GAS  C:\Users\AHMED~1.ELE\AppData\Local\Temp\ccbrMpYT.s 			page 44


  65 002a 40F0DB80 		bne	.L43
2387:src/mxml-file.c ****     {
2388:src/mxml-file.c ****       case ENCODE_UTF8 :
2389:src/mxml-file.c **** 	  if (!(ch & 0x80))
  66              		.loc 1 2389 0
  67 002e 1D06     		lsls	r5, r3, #24
  68 0030 0CD4     		bmi	.L8
2390:src/mxml-file.c **** 	  {
2391:src/mxml-file.c **** #if DEBUG > 1
2392:src/mxml-file.c ****             printf("mxml_string_getc: %c (0x%04x)\n", ch < ' ' ? '.' : ch, ch);
2393:src/mxml-file.c **** #endif /* DEBUG > 1 */
2394:src/mxml-file.c **** 
2395:src/mxml-file.c **** 	    if (mxml_bad_char(ch))
  69              		.loc 1 2395 0
  70 0032 1F29     		cmp	r1, #31
  71 0034 00F3D980 		bgt	.L27
  72              		.loc 1 2395 0 is_stmt 0 discriminator 1
  73 0038 0A29     		cmp	r1, #10
  74 003a 00F0D680 		beq	.L27
  75              		.loc 1 2395 0 discriminator 2
  76 003e 0D29     		cmp	r1, #13
  77 0040 00F0D380 		beq	.L27
  78              		.loc 1 2395 0 discriminator 3
  79 0044 0929     		cmp	r1, #9
  80 0046 00F0D080 		beq	.L27
  81 004a 84E0     		b	.L47
  82              	.L8:
2396:src/mxml-file.c **** 	    {
2397:src/mxml-file.c **** 	      mxml_error("Bad control character 0x%02x not allowed by XML standard!",
2398:src/mxml-file.c ****         		 ch);
2399:src/mxml-file.c **** 	      return (EOF);
2400:src/mxml-file.c **** 	    }
2401:src/mxml-file.c **** 
2402:src/mxml-file.c **** 	    return (ch);
2403:src/mxml-file.c ****           }
2404:src/mxml-file.c **** 	  else if (ch == 0xfe)
  83              		.loc 1 2404 0 is_stmt 1
  84 004c FE29     		cmp	r1, #254
  85 004e 07D1     		bne	.L9
2405:src/mxml-file.c **** 	  {
2406:src/mxml-file.c **** 	   /*
2407:src/mxml-file.c **** 	    * UTF-16 big-endian BOM?
2408:src/mxml-file.c **** 	    */
2409:src/mxml-file.c **** 
2410:src/mxml-file.c ****             if (((*s)[0] & 255) != 0xff)
  86              		.loc 1 2410 0
  87 0050 5378     		ldrb	r3, [r2, #1]	@ zero_extendqisi2
  88              	.LVL3:
  89 0052 FF2B     		cmp	r3, #255
  90 0054 40F0C680 		bne	.L43
2411:src/mxml-file.c **** 	      return (EOF);
2412:src/mxml-file.c **** 
2413:src/mxml-file.c **** 	    *encoding = ENCODE_UTF16BE;
  91              		.loc 1 2413 0
  92 0058 0123     		movs	r3, #1
2414:src/mxml-file.c **** 	    (*s)++;
  93              		.loc 1 2414 0
ARM GAS  C:\Users\AHMED~1.ELE\AppData\Local\Temp\ccbrMpYT.s 			page 45


  94 005a 0232     		adds	r2, r2, #2
2413:src/mxml-file.c **** 	    (*s)++;
  95              		.loc 1 2413 0
  96 005c 3360     		str	r3, [r6]
  97 005e 08E0     		b	.L44
  98              	.LVL4:
  99              	.L9:
2415:src/mxml-file.c **** 
2416:src/mxml-file.c **** 	    return (mxml_string_getc(p, encoding));
2417:src/mxml-file.c **** 	  }
2418:src/mxml-file.c **** 	  else if (ch == 0xff)
 100              		.loc 1 2418 0
 101 0060 FF29     		cmp	r1, #255
 102 0062 08D1     		bne	.L12
2419:src/mxml-file.c **** 	  {
2420:src/mxml-file.c **** 	   /*
2421:src/mxml-file.c **** 	    * UTF-16 little-endian BOM?
2422:src/mxml-file.c **** 	    */
2423:src/mxml-file.c **** 
2424:src/mxml-file.c ****             if (((*s)[0] & 255) != 0xfe)
 103              		.loc 1 2424 0
 104 0064 5378     		ldrb	r3, [r2, #1]	@ zero_extendqisi2
 105              	.LVL5:
 106 0066 FE2B     		cmp	r3, #254
 107 0068 40F0BC80 		bne	.L43
2425:src/mxml-file.c **** 	      return (EOF);
2426:src/mxml-file.c **** 
2427:src/mxml-file.c **** 	    *encoding = ENCODE_UTF16LE;
 108              		.loc 1 2427 0
 109 006c 0223     		movs	r3, #2
2428:src/mxml-file.c **** 	    (*s)++;
 110              		.loc 1 2428 0
 111 006e 1A44     		add	r2, r2, r3
2427:src/mxml-file.c **** 	    (*s)++;
 112              		.loc 1 2427 0
 113 0070 3360     		str	r3, [r6]
 114              	.L44:
 115              		.loc 1 2428 0
 116 0072 0260     		str	r2, [r0]
2429:src/mxml-file.c **** 
2430:src/mxml-file.c **** 	    return (mxml_string_getc(p, encoding));
 117              		.loc 1 2430 0
 118 0074 C6E7     		b	.L2
 119              	.LVL6:
 120              	.L12:
2431:src/mxml-file.c **** 	  }
2432:src/mxml-file.c **** 	  else if ((ch & 0xe0) == 0xc0)
 121              		.loc 1 2432 0
 122 0076 03F0E001 		and	r1, r3, #224
 123 007a C029     		cmp	r1, #192
 124 007c 11D1     		bne	.L13
2433:src/mxml-file.c **** 	  {
2434:src/mxml-file.c **** 	   /*
2435:src/mxml-file.c **** 	    * Two-byte value...
2436:src/mxml-file.c **** 	    */
2437:src/mxml-file.c **** 
2438:src/mxml-file.c **** 	    if (((*s)[0] & 0xc0) != 0x80)
ARM GAS  C:\Users\AHMED~1.ELE\AppData\Local\Temp\ccbrMpYT.s 			page 46


 125              		.loc 1 2438 0
 126 007e 5378     		ldrb	r3, [r2, #1]	@ zero_extendqisi2
 127              	.LVL7:
 128 0080 03F0C001 		and	r1, r3, #192
 129 0084 8029     		cmp	r1, #128
 130 0086 40F0AD80 		bne	.L43
2439:src/mxml-file.c ****               return (EOF);
2440:src/mxml-file.c **** 
2441:src/mxml-file.c **** 	    ch = ((ch & 0x1f) << 6) | ((*s)[0] & 0x3f);
 131              		.loc 1 2441 0
 132 008a 04F01F01 		and	r1, r4, #31
 133 008e 03F03F03 		and	r3, r3, #63
 134 0092 43EA8111 		orr	r1, r3, r1, lsl #6
 135              	.LVL8:
2442:src/mxml-file.c **** 
2443:src/mxml-file.c **** 	    (*s)++;
 136              		.loc 1 2443 0
 137 0096 0232     		adds	r2, r2, #2
2444:src/mxml-file.c **** 
2445:src/mxml-file.c **** 	    if (ch < 0x80)
 138              		.loc 1 2445 0
 139 0098 7F29     		cmp	r1, #127
2443:src/mxml-file.c **** 
 140              		.loc 1 2443 0
 141 009a 0260     		str	r2, [r0]
 142              		.loc 1 2445 0
 143 009c 00F3A580 		bgt	.L27
 144 00a0 49E0     		b	.L48
 145              	.LVL9:
 146              	.L13:
2446:src/mxml-file.c **** 	    {
2447:src/mxml-file.c **** 	      mxml_error("Invalid UTF-8 sequence for character 0x%04x!", ch);
2448:src/mxml-file.c **** 	      return (EOF);
2449:src/mxml-file.c **** 	    }
2450:src/mxml-file.c **** 
2451:src/mxml-file.c **** #if DEBUG > 1
2452:src/mxml-file.c ****             printf("mxml_string_getc: %c (0x%04x)\n", ch < ' ' ? '.' : ch, ch);
2453:src/mxml-file.c **** #endif /* DEBUG > 1 */
2454:src/mxml-file.c **** 
2455:src/mxml-file.c **** 	    return (ch);
2456:src/mxml-file.c **** 	  }
2457:src/mxml-file.c **** 	  else if ((ch & 0xf0) == 0xe0)
 147              		.loc 1 2457 0
 148 00a2 03F0F001 		and	r1, r3, #240
 149 00a6 E029     		cmp	r1, #224
 150 00a8 1FD1     		bne	.L14
2458:src/mxml-file.c **** 	  {
2459:src/mxml-file.c **** 	   /*
2460:src/mxml-file.c **** 	    * Three-byte value...
2461:src/mxml-file.c **** 	    */
2462:src/mxml-file.c **** 
2463:src/mxml-file.c **** 	    if (((*s)[0] & 0xc0) != 0x80 ||
 151              		.loc 1 2463 0
 152 00aa 5578     		ldrb	r5, [r2, #1]	@ zero_extendqisi2
 153 00ac 05F0C003 		and	r3, r5, #192
 154              	.LVL10:
 155 00b0 802B     		cmp	r3, #128
ARM GAS  C:\Users\AHMED~1.ELE\AppData\Local\Temp\ccbrMpYT.s 			page 47


 156 00b2 40F09780 		bne	.L43
2464:src/mxml-file.c ****         	((*s)[1] & 0xc0) != 0x80)
 157              		.loc 1 2464 0 discriminator 1
 158 00b6 9378     		ldrb	r3, [r2, #2]	@ zero_extendqisi2
 159 00b8 03F0C001 		and	r1, r3, #192
2463:src/mxml-file.c ****         	((*s)[1] & 0xc0) != 0x80)
 160              		.loc 1 2463 0 discriminator 1
 161 00bc 8029     		cmp	r1, #128
 162 00be 40F09180 		bne	.L43
2465:src/mxml-file.c ****               return (EOF);
2466:src/mxml-file.c **** 
2467:src/mxml-file.c **** 	    ch = ((((ch & 0x0f) << 6) | ((*s)[0] & 0x3f)) << 6) | ((*s)[1] & 0x3f);
 163              		.loc 1 2467 0
 164 00c2 04F00F01 		and	r1, r4, #15
 165 00c6 05F03F05 		and	r5, r5, #63
 166 00ca 45EA8114 		orr	r4, r5, r1, lsl #6
 167              	.LVL11:
 168 00ce 03F03F03 		and	r3, r3, #63
 169 00d2 43EA8411 		orr	r1, r3, r4, lsl #6
 170              	.LVL12:
2468:src/mxml-file.c **** 
2469:src/mxml-file.c **** 	    (*s) += 2;
 171              		.loc 1 2469 0
 172 00d6 0332     		adds	r2, r2, #3
2470:src/mxml-file.c **** 
2471:src/mxml-file.c **** 	    if (ch < 0x800)
 173              		.loc 1 2471 0
 174 00d8 B1F5006F 		cmp	r1, #2048
2469:src/mxml-file.c **** 
 175              		.loc 1 2469 0
 176 00dc 0260     		str	r2, [r0]
 177              		.loc 1 2471 0
 178 00de 2ADB     		blt	.L48
2472:src/mxml-file.c **** 	    {
2473:src/mxml-file.c **** 	      mxml_error("Invalid UTF-8 sequence for character 0x%04x!", ch);
2474:src/mxml-file.c **** 	      return (EOF);
2475:src/mxml-file.c **** 	    }
2476:src/mxml-file.c **** 
2477:src/mxml-file.c **** 	   /*
2478:src/mxml-file.c **** 	    * Ignore (strip) Byte Order Mark (BOM)...
2479:src/mxml-file.c **** 	    */
2480:src/mxml-file.c **** 
2481:src/mxml-file.c **** 	    if (ch == 0xfeff)
 179              		.loc 1 2481 0
 180 00e0 4FF6FF63 		movw	r3, #65279
 181 00e4 9942     		cmp	r1, r3
 182 00e6 8DD0     		beq	.L2
 183 00e8 7FE0     		b	.L27
 184              	.LVL13:
 185              	.L14:
2482:src/mxml-file.c **** 	      return (mxml_string_getc(p, encoding));
2483:src/mxml-file.c **** 
2484:src/mxml-file.c **** #if DEBUG > 1
2485:src/mxml-file.c ****             printf("mxml_string_getc: %c (0x%04x)\n", ch < ' ' ? '.' : ch, ch);
2486:src/mxml-file.c **** #endif /* DEBUG > 1 */
2487:src/mxml-file.c **** 
2488:src/mxml-file.c **** 	    return (ch);
ARM GAS  C:\Users\AHMED~1.ELE\AppData\Local\Temp\ccbrMpYT.s 			page 48


2489:src/mxml-file.c **** 	  }
2490:src/mxml-file.c **** 	  else if ((ch & 0xf8) == 0xf0)
 186              		.loc 1 2490 0
 187 00ea 03F0F803 		and	r3, r3, #248
 188              	.LVL14:
 189 00ee F02B     		cmp	r3, #240
 190 00f0 78D1     		bne	.L43
2491:src/mxml-file.c **** 	  {
2492:src/mxml-file.c **** 	   /*
2493:src/mxml-file.c **** 	    * Four-byte value...
2494:src/mxml-file.c **** 	    */
2495:src/mxml-file.c **** 
2496:src/mxml-file.c **** 	    if (((*s)[0] & 0xc0) != 0x80 ||
 191              		.loc 1 2496 0
 192 00f2 5178     		ldrb	r1, [r2, #1]	@ zero_extendqisi2
 193 00f4 01F0C003 		and	r3, r1, #192
 194 00f8 802B     		cmp	r3, #128
 195 00fa 73D1     		bne	.L43
2497:src/mxml-file.c ****         	((*s)[1] & 0xc0) != 0x80 ||
 196              		.loc 1 2497 0 discriminator 1
 197 00fc 9578     		ldrb	r5, [r2, #2]	@ zero_extendqisi2
 198 00fe 05F0C003 		and	r3, r5, #192
2496:src/mxml-file.c ****         	((*s)[1] & 0xc0) != 0x80 ||
 199              		.loc 1 2496 0 discriminator 1
 200 0102 802B     		cmp	r3, #128
 201 0104 6ED1     		bne	.L43
2498:src/mxml-file.c ****         	((*s)[2] & 0xc0) != 0x80)
 202              		.loc 1 2498 0
 203 0106 D378     		ldrb	r3, [r2, #3]	@ zero_extendqisi2
 204 0108 03F0C006 		and	r6, r3, #192
 205              	.LVL15:
2497:src/mxml-file.c ****         	((*s)[1] & 0xc0) != 0x80 ||
 206              		.loc 1 2497 0
 207 010c 802E     		cmp	r6, #128
 208 010e 69D1     		bne	.L43
2499:src/mxml-file.c ****               return (EOF);
2500:src/mxml-file.c **** 
2501:src/mxml-file.c **** 	    ch = ((((((ch & 0x07) << 6) | ((*s)[0] & 0x3f)) << 6) |
 209              		.loc 1 2501 0
 210 0110 04F00704 		and	r4, r4, #7
 211              	.LVL16:
 212 0114 01F03F01 		and	r1, r1, #63
 213 0118 41EA8411 		orr	r1, r1, r4, lsl #6
2502:src/mxml-file.c ****         	   ((*s)[1] & 0x3f)) << 6) | ((*s)[2] & 0x3f);
 214              		.loc 1 2502 0
 215 011c 05F03F05 		and	r5, r5, #63
2501:src/mxml-file.c ****         	   ((*s)[1] & 0x3f)) << 6) | ((*s)[2] & 0x3f);
 216              		.loc 1 2501 0
 217 0120 45EA8111 		orr	r1, r5, r1, lsl #6
 218              		.loc 1 2502 0
 219 0124 03F03F03 		and	r3, r3, #63
2501:src/mxml-file.c ****         	   ((*s)[1] & 0x3f)) << 6) | ((*s)[2] & 0x3f);
 220              		.loc 1 2501 0
 221 0128 43EA8111 		orr	r1, r3, r1, lsl #6
 222              	.LVL17:
2503:src/mxml-file.c **** 
2504:src/mxml-file.c **** 	    (*s) += 3;
ARM GAS  C:\Users\AHMED~1.ELE\AppData\Local\Temp\ccbrMpYT.s 			page 49


 223              		.loc 1 2504 0
 224 012c 0432     		adds	r2, r2, #4
2505:src/mxml-file.c **** 
2506:src/mxml-file.c **** 	    if (ch < 0x10000)
 225              		.loc 1 2506 0
 226 012e B1F5803F 		cmp	r1, #65536
2504:src/mxml-file.c **** 
 227              		.loc 1 2504 0
 228 0132 0260     		str	r2, [r0]
 229              		.loc 1 2506 0
 230 0134 59DA     		bge	.L27
 231              	.L48:
2507:src/mxml-file.c **** 	    {
2508:src/mxml-file.c **** 	      mxml_error("Invalid UTF-8 sequence for character 0x%04x!", ch);
 232              		.loc 1 2508 0
 233 0136 2E48     		ldr	r0, .L50
 234              	.LVL18:
 235 0138 0EE0     		b	.L46
 236              	.LVL19:
 237              	.L5:
2509:src/mxml-file.c **** 	      return (EOF);
2510:src/mxml-file.c **** 	    }
2511:src/mxml-file.c **** 
2512:src/mxml-file.c **** #if DEBUG > 1
2513:src/mxml-file.c ****             printf("mxml_string_getc: %c (0x%04x)\n", ch < ' ' ? '.' : ch, ch);
2514:src/mxml-file.c **** #endif /* DEBUG > 1 */
2515:src/mxml-file.c **** 
2516:src/mxml-file.c **** 	    return (ch);
2517:src/mxml-file.c **** 	  }
2518:src/mxml-file.c **** 	  else
2519:src/mxml-file.c **** 	    return (EOF);
2520:src/mxml-file.c **** 
2521:src/mxml-file.c ****       case ENCODE_UTF16BE :
2522:src/mxml-file.c **** 	 /*
2523:src/mxml-file.c ****           * Read UTF-16 big-endian char...
2524:src/mxml-file.c **** 	  */
2525:src/mxml-file.c **** 
2526:src/mxml-file.c **** 	  ch = (ch << 8) | ((*s)[0] & 255);
 238              		.loc 1 2526 0
 239 013a 5378     		ldrb	r3, [r2, #1]	@ zero_extendqisi2
 240              	.LVL20:
 241 013c 43EA0121 		orr	r1, r3, r1, lsl #8
 242              	.LVL21:
2527:src/mxml-file.c **** 	  (*s) ++;
2528:src/mxml-file.c **** 
2529:src/mxml-file.c ****           if (mxml_bad_char(ch))
 243              		.loc 1 2529 0
 244 0140 1F29     		cmp	r1, #31
2527:src/mxml-file.c **** 	  (*s) ++;
 245              		.loc 1 2527 0
 246 0142 02F10203 		add	r3, r2, #2
 247 0146 0360     		str	r3, [r0]
 248              		.loc 1 2529 0
 249 0148 09DC     		bgt	.L16
 250              		.loc 1 2529 0 is_stmt 0 discriminator 2
 251 014a 0D29     		cmp	r1, #13
 252 014c 07D0     		beq	.L16
ARM GAS  C:\Users\AHMED~1.ELE\AppData\Local\Temp\ccbrMpYT.s 			page 50


 253              		.loc 1 2529 0 discriminator 3
 254 014e A1F10903 		sub	r3, r1, #9
 255 0152 012B     		cmp	r3, #1
 256 0154 03D9     		bls	.L16
 257              	.LVL22:
 258              	.L47:
2530:src/mxml-file.c **** 	  {
2531:src/mxml-file.c **** 	    mxml_error("Bad control character 0x%02x not allowed by XML standard!",
 259              		.loc 1 2531 0 is_stmt 1
 260 0156 2748     		ldr	r0, .L50+4
 261              	.LVL23:
 262              	.L46:
 263 0158 FFF7FEFF 		bl	mxml_error
 264              	.LVL24:
 265 015c 42E0     		b	.L43
 266              	.LVL25:
 267              	.L16:
2532:src/mxml-file.c ****         	       ch);
2533:src/mxml-file.c **** 	    return (EOF);
2534:src/mxml-file.c **** 	  }
2535:src/mxml-file.c ****           else if (ch >= 0xd800 && ch <= 0xdbff)
 268              		.loc 1 2535 0
 269 015e A1F55843 		sub	r3, r1, #55296
 270 0162 B3F5806F 		cmp	r3, #1024
 271 0166 40D2     		bcs	.L27
 272              	.LBB6:
2536:src/mxml-file.c **** 	  {
2537:src/mxml-file.c **** 	   /*
2538:src/mxml-file.c **** 	    * Multi-word UTF-16 char...
2539:src/mxml-file.c **** 	    */
2540:src/mxml-file.c **** 
2541:src/mxml-file.c ****             int lch;			/* Lower word */
2542:src/mxml-file.c **** 
2543:src/mxml-file.c **** 
2544:src/mxml-file.c ****             if (!(*s)[0])
 273              		.loc 1 2544 0
 274 0168 9478     		ldrb	r4, [r2, #2]	@ zero_extendqisi2
 275 016a 002C     		cmp	r4, #0
 276 016c 3AD0     		beq	.L43
2545:src/mxml-file.c **** 	      return (EOF);
2546:src/mxml-file.c **** 
2547:src/mxml-file.c ****             lch = (((*s)[0] & 255) << 8) | ((*s)[1] & 255);
 277              		.loc 1 2547 0
 278 016e D378     		ldrb	r3, [r2, #3]	@ zero_extendqisi2
2548:src/mxml-file.c **** 	    (*s) += 2;
 279              		.loc 1 2548 0
 280 0170 0432     		adds	r2, r2, #4
2547:src/mxml-file.c **** 	    (*s) += 2;
 281              		.loc 1 2547 0
 282 0172 43EA0423 		orr	r3, r3, r4, lsl #8
 283              	.LVL26:
 284              		.loc 1 2548 0
 285 0176 0260     		str	r2, [r0]
2549:src/mxml-file.c **** 
2550:src/mxml-file.c ****             if (lch < 0xdc00 || lch >= 0xdfff)
 286              		.loc 1 2550 0
 287 0178 A3F55C40 		sub	r0, r3, #56320
ARM GAS  C:\Users\AHMED~1.ELE\AppData\Local\Temp\ccbrMpYT.s 			page 51


 288              	.LVL27:
 289 017c 40F2FE32 		movw	r2, #1022
 290 0180 9042     		cmp	r0, r2
 291 0182 2FD8     		bhi	.L43
2551:src/mxml-file.c **** 	      return (EOF);
2552:src/mxml-file.c **** 
2553:src/mxml-file.c ****             ch = (((ch & 0x3ff) << 10) | (lch & 0x3ff)) + 0x10000;
 292              		.loc 1 2553 0
 293 0184 C3F30903 		ubfx	r3, r3, #0, #10
 294              	.LVL28:
 295 0188 C1F30901 		ubfx	r1, r1, #0, #10
 296              	.LVL29:
 297 018c 25E0     		b	.L45
 298              	.LVL30:
 299              	.L6:
 300              	.LBE6:
2554:src/mxml-file.c **** 	  }
2555:src/mxml-file.c **** 
2556:src/mxml-file.c **** #if DEBUG > 1
2557:src/mxml-file.c ****           printf("mxml_string_getc: %c (0x%04x)\n", ch < ' ' ? '.' : ch, ch);
2558:src/mxml-file.c **** #endif /* DEBUG > 1 */
2559:src/mxml-file.c **** 
2560:src/mxml-file.c **** 	  return (ch);
2561:src/mxml-file.c **** 
2562:src/mxml-file.c ****       case ENCODE_UTF16LE :
2563:src/mxml-file.c **** 	 /*
2564:src/mxml-file.c ****           * Read UTF-16 little-endian char...
2565:src/mxml-file.c **** 	  */
2566:src/mxml-file.c **** 
2567:src/mxml-file.c **** 	  ch = ch | (((*s)[0] & 255) << 8);
 301              		.loc 1 2567 0
 302 018e 5378     		ldrb	r3, [r2, #1]	@ zero_extendqisi2
 303              	.LVL31:
2568:src/mxml-file.c **** 
2569:src/mxml-file.c **** 	  if (!ch)
 304              		.loc 1 2569 0
 305 0190 51EA0321 		orrs	r1, r1, r3, lsl #8
 306              	.LVL32:
 307 0194 01D1     		bne	.L17
2570:src/mxml-file.c **** 	  {
2571:src/mxml-file.c **** 	    (*s) --;
 308              		.loc 1 2571 0
 309 0196 0260     		str	r2, [r0]
 310 0198 24E0     		b	.L43
 311              	.L17:
2572:src/mxml-file.c **** 	    return (EOF);
2573:src/mxml-file.c **** 	  }
2574:src/mxml-file.c **** 
2575:src/mxml-file.c **** 	  (*s) ++;
 312              		.loc 1 2575 0
 313 019a 931C     		adds	r3, r2, #2
2576:src/mxml-file.c **** 
2577:src/mxml-file.c ****           if (mxml_bad_char(ch))
 314              		.loc 1 2577 0
 315 019c 1F29     		cmp	r1, #31
2575:src/mxml-file.c **** 
 316              		.loc 1 2575 0
ARM GAS  C:\Users\AHMED~1.ELE\AppData\Local\Temp\ccbrMpYT.s 			page 52


 317 019e 0360     		str	r3, [r0]
 318              		.loc 1 2577 0
 319 01a0 05DC     		bgt	.L18
 320              		.loc 1 2577 0 is_stmt 0 discriminator 2
 321 01a2 0D29     		cmp	r1, #13
 322 01a4 03D0     		beq	.L18
 323              		.loc 1 2577 0 discriminator 3
 324 01a6 A1F10903 		sub	r3, r1, #9
 325 01aa 012B     		cmp	r3, #1
 326 01ac D3D8     		bhi	.L47
 327              	.L18:
2578:src/mxml-file.c **** 	  {
2579:src/mxml-file.c **** 	    mxml_error("Bad control character 0x%02x not allowed by XML standard!",
2580:src/mxml-file.c ****         	       ch);
2581:src/mxml-file.c **** 	    return (EOF);
2582:src/mxml-file.c **** 	  }
2583:src/mxml-file.c ****           else if (ch >= 0xd800 && ch <= 0xdbff)
 328              		.loc 1 2583 0 is_stmt 1
 329 01ae A1F55843 		sub	r3, r1, #55296
 330 01b2 B3F5806F 		cmp	r3, #1024
 331 01b6 18D2     		bcs	.L27
 332              	.LBB7:
2584:src/mxml-file.c **** 	  {
2585:src/mxml-file.c **** 	   /*
2586:src/mxml-file.c **** 	    * Multi-word UTF-16 char...
2587:src/mxml-file.c **** 	    */
2588:src/mxml-file.c **** 
2589:src/mxml-file.c ****             int lch;			/* Lower word */
2590:src/mxml-file.c **** 
2591:src/mxml-file.c **** 
2592:src/mxml-file.c ****             if (!(*s)[1])
 333              		.loc 1 2592 0
 334 01b8 D478     		ldrb	r4, [r2, #3]	@ zero_extendqisi2
 335 01ba 9CB1     		cbz	r4, .L43
2593:src/mxml-file.c **** 	      return (EOF);
2594:src/mxml-file.c **** 
2595:src/mxml-file.c ****             lch = (((*s)[1] & 255) << 8) | ((*s)[0] & 255);
 336              		.loc 1 2595 0
 337 01bc 9378     		ldrb	r3, [r2, #2]	@ zero_extendqisi2
2596:src/mxml-file.c **** 	    (*s) += 2;
 338              		.loc 1 2596 0
 339 01be 0432     		adds	r2, r2, #4
2595:src/mxml-file.c **** 	    (*s) += 2;
 340              		.loc 1 2595 0
 341 01c0 43EA0423 		orr	r3, r3, r4, lsl #8
 342              	.LVL33:
 343              		.loc 1 2596 0
 344 01c4 0260     		str	r2, [r0]
2597:src/mxml-file.c **** 
2598:src/mxml-file.c ****             if (lch < 0xdc00 || lch >= 0xdfff)
 345              		.loc 1 2598 0
 346 01c6 A3F55C40 		sub	r0, r3, #56320
 347              	.LVL34:
 348 01ca 40F2FE32 		movw	r2, #1022
 349 01ce 9042     		cmp	r0, r2
 350 01d0 08D8     		bhi	.L43
2599:src/mxml-file.c **** 	      return (EOF);
ARM GAS  C:\Users\AHMED~1.ELE\AppData\Local\Temp\ccbrMpYT.s 			page 53


2600:src/mxml-file.c **** 
2601:src/mxml-file.c ****             ch = (((ch & 0x3ff) << 10) | (lch & 0x3ff)) + 0x10000;
 351              		.loc 1 2601 0
 352 01d2 C1F30901 		ubfx	r1, r1, #0, #10
 353              	.LVL35:
 354 01d6 C3F30903 		ubfx	r3, r3, #0, #10
 355              	.LVL36:
 356              	.L45:
 357 01da 43EA8121 		orr	r1, r3, r1, lsl #10
 358 01de 01F58030 		add	r0, r1, #65536
 359 01e2 F8BD     		pop	{r3, r4, r5, r6, r7, pc}
 360              	.LVL37:
 361              	.L43:
 362              	.LBE7:
2602:src/mxml-file.c **** 	  }
2603:src/mxml-file.c **** 
2604:src/mxml-file.c **** #if DEBUG > 1
2605:src/mxml-file.c ****           printf("mxml_string_getc: %c (0x%04x)\n", ch < ' ' ? '.' : ch, ch);
2606:src/mxml-file.c **** #endif /* DEBUG > 1 */
2607:src/mxml-file.c **** 
2608:src/mxml-file.c **** 	  return (ch);
2609:src/mxml-file.c ****     }
2610:src/mxml-file.c ****   }
2611:src/mxml-file.c **** 
2612:src/mxml-file.c ****   return (EOF);
 363              		.loc 1 2612 0
 364 01e4 4FF0FF30 		mov	r0, #-1
 365 01e8 F8BD     		pop	{r3, r4, r5, r6, r7, pc}
 366              	.LVL38:
 367              	.L27:
 368 01ea 0846     		mov	r0, r1
 369              	.LVL39:
2613:src/mxml-file.c **** }
 370              		.loc 1 2613 0
 371 01ec F8BD     		pop	{r3, r4, r5, r6, r7, pc}
 372              	.L51:
 373 01ee 00BF     		.align	2
 374              	.L50:
 375 01f0 3A000000 		.word	.LC1
 376 01f4 00000000 		.word	.LC0
 377              		.cfi_endproc
 378              	.LFE11:
 379              		.size	mxml_string_getc, .-mxml_string_getc
 380              		.section	.text.mxml_add_char,"ax",%progbits
 381              		.align	1
 382              		.thumb
 383              		.thumb_func
 384              		.type	mxml_add_char, %function
 385              	mxml_add_char:
 386              	.LFB7:
 604:src/mxml-file.c ****   char	*newbuffer;			/* New buffer value */
 387              		.loc 1 604 0
 388              		.cfi_startproc
 389              		@ args = 0, pretend = 0, frame = 0
 390              		@ frame_needed = 0, uses_anonymous_args = 0
 391              	.LVL40:
 392 0000 2DE9F843 		push	{r3, r4, r5, r6, r7, r8, r9, lr}
ARM GAS  C:\Users\AHMED~1.ELE\AppData\Local\Temp\ccbrMpYT.s 			page 54


 393              		.cfi_def_cfa_offset 32
 394              		.cfi_offset 3, -32
 395              		.cfi_offset 4, -28
 396              		.cfi_offset 5, -24
 397              		.cfi_offset 6, -20
 398              		.cfi_offset 7, -16
 399              		.cfi_offset 8, -12
 400              		.cfi_offset 9, -8
 401              		.cfi_offset 14, -4
 608:src/mxml-file.c ****   {
 402              		.loc 1 608 0
 403 0004 1E68     		ldr	r6, [r3]
 604:src/mxml-file.c ****   char	*newbuffer;			/* New buffer value */
 404              		.loc 1 604 0
 405 0006 9046     		mov	r8, r2
 608:src/mxml-file.c ****   {
 406              		.loc 1 608 0
 407 0008 1268     		ldr	r2, [r2]
 408              	.LVL41:
 604:src/mxml-file.c ****   char	*newbuffer;			/* New buffer value */
 409              		.loc 1 604 0
 410 000a 1F46     		mov	r7, r3
 608:src/mxml-file.c ****   {
 411              		.loc 1 608 0
 412 000c 331F     		subs	r3, r6, #4
 413              	.LVL42:
 414 000e 1344     		add	r3, r3, r2
 415 0010 0A68     		ldr	r2, [r1]
 604:src/mxml-file.c ****   char	*newbuffer;			/* New buffer value */
 416              		.loc 1 604 0
 417 0012 0546     		mov	r5, r0
 608:src/mxml-file.c ****   {
 418              		.loc 1 608 0
 419 0014 9A42     		cmp	r2, r3
 604:src/mxml-file.c ****   char	*newbuffer;			/* New buffer value */
 420              		.loc 1 604 0
 421 0016 0C46     		mov	r4, r1
 608:src/mxml-file.c ****   {
 422              		.loc 1 608 0
 423 0018 2BD3     		bcc	.L53
 424              	.LVL43:
 614:src/mxml-file.c ****       (*bufsize) *= 2;
 425              		.loc 1 614 0
 426 001a B6F5806F 		cmp	r6, #1024
 615:src/mxml-file.c ****     else
 427              		.loc 1 615 0
 428 001e B4BF     		ite	lt
 429 0020 7300     		lsllt	r3, r6, #1
 617:src/mxml-file.c **** 
 430              		.loc 1 617 0
 431 0022 06F58063 		addge	r3, r6, #1024
 620:src/mxml-file.c ****     {
 432              		.loc 1 620 0
 433 0026 9220     		movs	r0, #146
 434              	.LVL44:
 617:src/mxml-file.c **** 
 435              		.loc 1 617 0
ARM GAS  C:\Users\AHMED~1.ELE\AppData\Local\Temp\ccbrMpYT.s 			page 55


 436 0028 3B60     		str	r3, [r7]
 620:src/mxml-file.c ****     {
 437              		.loc 1 620 0
 438 002a 3968     		ldr	r1, [r7]
 439              	.LVL45:
 440 002c FFF7FEFF 		bl	sys_func1
 441              	.LVL46:
 442 0030 8146     		mov	r9, r0
 443 0032 60B9     		cbnz	r0, .L56
 622:src/mxml-file.c **** 
 444              		.loc 1 622 0
 445 0034 D8F80010 		ldr	r1, [r8]
 446 0038 9420     		movs	r0, #148
 447              	.LVL47:
 448 003a FFF7FEFF 		bl	sys_func1
 449              	.LVL48:
 624:src/mxml-file.c **** 
 450              		.loc 1 624 0
 451 003e 2F48     		ldr	r0, .L64
 452 0040 3968     		ldr	r1, [r7]
 453 0042 FFF7FEFF 		bl	mxml_error
 454              	.LVL49:
 626:src/mxml-file.c ****     }
 455              		.loc 1 626 0
 456 0046 4FF0FF30 		mov	r0, #-1
 457 004a BDE8F883 		pop	{r3, r4, r5, r6, r7, r8, r9, pc}
 458              	.LVL50:
 459              	.L56:
 628:src/mxml-file.c ****     os_free(*buffer);
 460              		.loc 1 628 0
 461 004e 3246     		mov	r2, r6
 462 0050 D8F80010 		ldr	r1, [r8]
 463 0054 FFF7FEFF 		bl	memcpy
 464              	.LVL51:
 629:src/mxml-file.c ****     *bufptr = newbuffer + (*bufptr - *buffer);
 465              		.loc 1 629 0
 466 0058 9420     		movs	r0, #148
 467 005a D8F80010 		ldr	r1, [r8]
 468 005e FFF7FEFF 		bl	sys_func1
 469              	.LVL52:
 630:src/mxml-file.c ****     *buffer = newbuffer;
 470              		.loc 1 630 0
 471 0062 2368     		ldr	r3, [r4]
 472 0064 D8F80020 		ldr	r2, [r8]
 473 0068 9B1A     		subs	r3, r3, r2
 474 006a 4B44     		add	r3, r3, r9
 475 006c 2360     		str	r3, [r4]
 631:src/mxml-file.c ****   }
 476              		.loc 1 631 0
 477 006e C8F80090 		str	r9, [r8]
 478              	.LVL53:
 479              	.L53:
 634:src/mxml-file.c ****   {
 480              		.loc 1 634 0
 481 0072 7F2D     		cmp	r5, #127
 482 0074 2168     		ldr	r1, [r4]
 483 0076 03DC     		bgt	.L58
ARM GAS  C:\Users\AHMED~1.ELE\AppData\Local\Temp\ccbrMpYT.s 			page 56


 640:src/mxml-file.c ****   }
 484              		.loc 1 640 0
 485 0078 4B1C     		adds	r3, r1, #1
 486 007a 2360     		str	r3, [r4]
 487 007c 0D70     		strb	r5, [r1]
 488 007e 39E0     		b	.L63
 489              	.L58:
 642:src/mxml-file.c ****   {
 490              		.loc 1 642 0
 491 0080 B5F5006F 		cmp	r5, #2048
 492 0084 4FEAA513 		asr	r3, r5, #6
 493 0088 05F03F06 		and	r6, r5, #63
 494 008c 05DA     		bge	.L59
 648:src/mxml-file.c ****     *(*bufptr)++ = 0x80 | (ch & 0x3f);
 495              		.loc 1 648 0
 496 008e 4A1C     		adds	r2, r1, #1
 497 0090 63F03F03 		orn	r3, r3, #63
 498 0094 2260     		str	r2, [r4]
 499 0096 0B70     		strb	r3, [r1]
 500 0098 26E0     		b	.L62
 501              	.L59:
 657:src/mxml-file.c ****     *(*bufptr)++ = 0x80 | ((ch >> 6) & 0x3f);
 502              		.loc 1 657 0
 503 009a 481C     		adds	r0, r1, #1
 651:src/mxml-file.c ****   {
 504              		.loc 1 651 0
 505 009c B5F5803F 		cmp	r5, #65536
 657:src/mxml-file.c ****     *(*bufptr)++ = 0x80 | ((ch >> 6) & 0x3f);
 506              		.loc 1 657 0
 507 00a0 2060     		str	r0, [r4]
 508 00a2 4FEA2532 		asr	r2, r5, #12
 651:src/mxml-file.c ****   {
 509              		.loc 1 651 0
 510 00a6 0BDA     		bge	.L60
 657:src/mxml-file.c ****     *(*bufptr)++ = 0x80 | ((ch >> 6) & 0x3f);
 511              		.loc 1 657 0
 512 00a8 62F01F02 		orn	r2, r2, #31
 658:src/mxml-file.c ****     *(*bufptr)++ = 0x80 | (ch & 0x3f);
 513              		.loc 1 658 0
 514 00ac 03F03F03 		and	r3, r3, #63
 657:src/mxml-file.c ****     *(*bufptr)++ = 0x80 | ((ch >> 6) & 0x3f);
 515              		.loc 1 657 0
 516 00b0 0A70     		strb	r2, [r1]
 658:src/mxml-file.c ****     *(*bufptr)++ = 0x80 | (ch & 0x3f);
 517              		.loc 1 658 0
 518 00b2 2168     		ldr	r1, [r4]
 519 00b4 4A1C     		adds	r2, r1, #1
 520 00b6 2260     		str	r2, [r4]
 521 00b8 63F07F02 		orn	r2, r3, #127
 522 00bc 0A70     		strb	r2, [r1]
 523 00be 13E0     		b	.L62
 524              	.L60:
 667:src/mxml-file.c ****     *(*bufptr)++ = 0x80 | ((ch >> 12) & 0x3f);
 525              		.loc 1 667 0
 526 00c0 A814     		asrs	r0, r5, #18
 527 00c2 60F00F00 		orn	r0, r0, #15
 668:src/mxml-file.c ****     *(*bufptr)++ = 0x80 | ((ch >> 6) & 0x3f);
ARM GAS  C:\Users\AHMED~1.ELE\AppData\Local\Temp\ccbrMpYT.s 			page 57


 528              		.loc 1 668 0
 529 00c6 02F03F02 		and	r2, r2, #63
 667:src/mxml-file.c ****     *(*bufptr)++ = 0x80 | ((ch >> 12) & 0x3f);
 530              		.loc 1 667 0
 531 00ca 0870     		strb	r0, [r1]
 668:src/mxml-file.c ****     *(*bufptr)++ = 0x80 | ((ch >> 6) & 0x3f);
 532              		.loc 1 668 0
 533 00cc 2168     		ldr	r1, [r4]
 534 00ce 62F07F02 		orn	r2, r2, #127
 535 00d2 481C     		adds	r0, r1, #1
 669:src/mxml-file.c ****     *(*bufptr)++ = 0x80 | (ch & 0x3f);
 536              		.loc 1 669 0
 537 00d4 03F03F03 		and	r3, r3, #63
 668:src/mxml-file.c ****     *(*bufptr)++ = 0x80 | ((ch >> 6) & 0x3f);
 538              		.loc 1 668 0
 539 00d8 2060     		str	r0, [r4]
 540 00da 0A70     		strb	r2, [r1]
 669:src/mxml-file.c ****     *(*bufptr)++ = 0x80 | (ch & 0x3f);
 541              		.loc 1 669 0
 542 00dc 2268     		ldr	r2, [r4]
 543 00de 63F07F03 		orn	r3, r3, #127
 544 00e2 511C     		adds	r1, r2, #1
 545 00e4 2160     		str	r1, [r4]
 546 00e6 1370     		strb	r3, [r2]
 547              	.L62:
 670:src/mxml-file.c ****   }
 548              		.loc 1 670 0
 549 00e8 2268     		ldr	r2, [r4]
 550 00ea 531C     		adds	r3, r2, #1
 551 00ec 2360     		str	r3, [r4]
 552 00ee 66F07F03 		orn	r3, r6, #127
 553 00f2 1370     		strb	r3, [r2]
 554              	.L63:
 673:src/mxml-file.c **** }
 555              		.loc 1 673 0
 556 00f4 0020     		movs	r0, #0
 674:src/mxml-file.c **** 
 557              		.loc 1 674 0
 558 00f6 BDE8F883 		pop	{r3, r4, r5, r6, r7, r8, r9, pc}
 559              	.LVL54:
 560              	.L65:
 561 00fa 00BF     		.align	2
 562              	.L64:
 563 00fc 67000000 		.word	.LC2
 564              		.cfi_endproc
 565              	.LFE7:
 566              		.size	mxml_add_char, .-mxml_add_char
 567              		.section	.text.mxml_isspace,"ax",%progbits
 568              		.align	1
 569              		.thumb
 570              		.thumb_func
 571              		.type	mxml_isspace, %function
 572              	mxml_isspace:
 573              	.LFB0:
  77:src/mxml-file.c **** 			  return (ch == ' ' || ch == '\t' || ch == '\r' ||
 574              		.loc 1 77 0
 575              		.cfi_startproc
ARM GAS  C:\Users\AHMED~1.ELE\AppData\Local\Temp\ccbrMpYT.s 			page 58


 576              		@ args = 0, pretend = 0, frame = 0
 577              		@ frame_needed = 0, uses_anonymous_args = 0
 578              		@ link register save eliminated.
 579              	.LVL55:
  78:src/mxml-file.c **** 			          ch == '\n');
 580              		.loc 1 78 0
 581 0000 2028     		cmp	r0, #32
 582 0002 08D0     		beq	.L69
  78:src/mxml-file.c **** 			          ch == '\n');
 583              		.loc 1 78 0 is_stmt 0 discriminator 2
 584 0004 A0F10903 		sub	r3, r0, #9
 585 0008 012B     		cmp	r3, #1
 586 000a 04D9     		bls	.L69
 587              	.LVL56:
 588              	.LBB10:
 589              	.LBB11:
  78:src/mxml-file.c **** 			          ch == '\n');
 590              		.loc 1 78 0
 591 000c A0F10D03 		sub	r3, r0, #13
 592 0010 5842     		rsbs	r0, r3, #0
 593              	.LVL57:
 594 0012 5841     		adcs	r0, r0, r3
 595 0014 7047     		bx	lr
 596              	.LVL58:
 597              	.L69:
 598              	.LBE11:
 599              	.LBE10:
 600 0016 0120     		movs	r0, #1
 601              	.LVL59:
  80:src/mxml-file.c **** static inline int	mxml_isspace_only(int ch)
 602              		.loc 1 80 0 is_stmt 1
 603 0018 7047     		bx	lr
 604              		.cfi_endproc
 605              	.LFE0:
 606              		.size	mxml_isspace, .-mxml_isspace
 607              		.section	.text.mxml_get_entity.constprop.3,"ax",%progbits
 608              		.align	1
 609              		.thumb
 610              		.thumb_func
 611              		.type	mxml_get_entity.constprop.3, %function
 612              	mxml_get_entity.constprop.3:
 613              	.LFB13:
1330:src/mxml-file.c **** 		void        *p,		/* I  - Pointer to source */
 614              		.loc 1 1330 0
 615              		.cfi_startproc
 616              		@ args = 0, pretend = 0, frame = 64
 617              		@ frame_needed = 0, uses_anonymous_args = 0
 618              	.LVL60:
 619 0000 2DE9F043 		push	{r4, r5, r6, r7, r8, r9, lr}
 620              		.cfi_def_cfa_offset 28
 621              		.cfi_offset 4, -28
 622              		.cfi_offset 5, -24
 623              		.cfi_offset 6, -20
 624              		.cfi_offset 7, -16
 625              		.cfi_offset 8, -12
 626              		.cfi_offset 9, -8
 627              		.cfi_offset 14, -4
ARM GAS  C:\Users\AHMED~1.ELE\AppData\Local\Temp\ccbrMpYT.s 			page 59


 628 0004 0546     		mov	r5, r0
 629 0006 91B0     		sub	sp, sp, #68
 630              		.cfi_def_cfa_offset 96
1330:src/mxml-file.c **** 		void        *p,		/* I  - Pointer to source */
 631              		.loc 1 1330 0
 632 0008 8946     		mov	r9, r1
 633 000a 9046     		mov	r8, r2
1350:src/mxml-file.c **** 	         parent ? parent->value.element.name : "null");
 634              		.loc 1 1350 0
 635 000c 0026     		movs	r6, #0
 636              	.LVL61:
 637              	.L71:
1343:src/mxml-file.c ****     if (ch > 126 || (!isalnum(ch) && ch != '#'))
 638              		.loc 1 1343 0
 639 000e 4846     		mov	r0, r9
 640 0010 4146     		mov	r1, r8
 641 0012 FFF7FEFF 		bl	mxml_string_getc
 642              	.LVL62:
 643 0016 0DEB0607 		add	r7, sp, r6
 644              	.LVL63:
 645 001a 431C     		adds	r3, r0, #1
 646 001c 0446     		mov	r4, r0
 647              	.LVL64:
 648 001e 16D0     		beq	.L72
1344:src/mxml-file.c ****       break;
 649              		.loc 1 1344 0
 650 0020 7E2C     		cmp	r4, #126
 651 0022 14DC     		bgt	.L72
 652 0024 2B4B     		ldr	r3, .L96
 653 0026 1B68     		ldr	r3, [r3]
 654 0028 2344     		add	r3, r3, r4
 655 002a 5B78     		ldrb	r3, [r3, #1]	@ zero_extendqisi2
 656 002c 5A07     		lsls	r2, r3, #29
 657 002e 01D1     		bne	.L73
 658 0030 232C     		cmp	r4, #35
 659 0032 0CD1     		bne	.L72
 660              	.L73:
1346:src/mxml-file.c ****       *entptr++ = ch;
 661              		.loc 1 1346 0
 662 0034 3F2E     		cmp	r6, #63
 663 0036 03D0     		beq	.L74
 664              	.LVL65:
1347:src/mxml-file.c ****     else
 665              		.loc 1 1347 0
 666 0038 0DF80640 		strb	r4, [sp, r6]
 667 003c 0136     		adds	r6, r6, #1
 668              	.LVL66:
 669 003e E6E7     		b	.L71
 670              	.LVL67:
 671              	.L74:
1350:src/mxml-file.c **** 	         parent ? parent->value.element.name : "null");
 672              		.loc 1 1350 0
 673 0040 0DB1     		cbz	r5, .L86
 674 0042 A969     		ldr	r1, [r5, #24]
 675 0044 00E0     		b	.L75
 676              	.L86:
 677 0046 2449     		ldr	r1, .L96+4
ARM GAS  C:\Users\AHMED~1.ELE\AppData\Local\Temp\ccbrMpYT.s 			page 60


 678              	.L75:
 679 0048 2448     		ldr	r0, .L96+8
 680              	.LVL68:
 681 004a FFF7FEFF 		bl	mxml_error
 682              	.LVL69:
 683              	.L72:
1355:src/mxml-file.c **** 
 684              		.loc 1 1355 0
 685 004e 0021     		movs	r1, #0
1357:src/mxml-file.c ****   {
 686              		.loc 1 1357 0
 687 0050 3B2C     		cmp	r4, #59
1355:src/mxml-file.c **** 
 688              		.loc 1 1355 0
 689 0052 3970     		strb	r1, [r7]
1357:src/mxml-file.c ****   {
 690              		.loc 1 1357 0
 691 0054 06D0     		beq	.L77
1359:src/mxml-file.c **** 	       entity, parent ? parent->value.element.name : "null");
 692              		.loc 1 1359 0
 693 0056 0DB1     		cbz	r5, .L87
 694 0058 AA69     		ldr	r2, [r5, #24]
 695 005a 00E0     		b	.L78
 696              	.L87:
 697 005c 1E4A     		ldr	r2, .L96+4
 698              	.L78:
 699 005e 2048     		ldr	r0, .L96+12
 700 0060 6946     		mov	r1, sp
 701 0062 2DE0     		b	.L95
 702              	.L77:
1364:src/mxml-file.c ****   {
 703              		.loc 1 1364 0
 704 0064 9DF90030 		ldrsb	r3, [sp]
 705 0068 232B     		cmp	r3, #35
 706 006a 0DD1     		bne	.L80
1366:src/mxml-file.c ****       ch = strtol(entity + 2, NULL, 16);
 707              		.loc 1 1366 0
 708 006c 9DF90130 		ldrsb	r3, [sp, #1]
 709 0070 782B     		cmp	r3, #120
1367:src/mxml-file.c ****     else
 710              		.loc 1 1367 0
 711 0072 07BF     		ittee	eq
 712 0074 0DF10200 		addeq	r0, sp, #2
 713 0078 1022     		moveq	r2, #16
1369:src/mxml-file.c ****   }
 714              		.loc 1 1369 0
 715 007a 0DF10100 		addne	r0, sp, #1
 716 007e 0A22     		movne	r2, #10
 717 0080 FFF7FEFF 		bl	strtol
 718              	.LVL70:
 719 0084 0446     		mov	r4, r0
 720              	.LVL71:
 721 0086 0DE0     		b	.L82
 722              	.LVL72:
 723              	.L80:
1371:src/mxml-file.c ****     mxml_error("Entity name \"%s;\" not supported under parent <%s>!",
 724              		.loc 1 1371 0
ARM GAS  C:\Users\AHMED~1.ELE\AppData\Local\Temp\ccbrMpYT.s 			page 61


 725 0088 6846     		mov	r0, sp
 726 008a FFF7FEFF 		bl	mxmlEntityGetValue
 727              	.LVL73:
 728 008e 041E     		subs	r4, r0, #0
 729 0090 08DA     		bge	.L82
1372:src/mxml-file.c **** 	       entity, parent ? parent->value.element.name : "null");
 730              		.loc 1 1372 0
 731 0092 0DB1     		cbz	r5, .L88
 732 0094 AA69     		ldr	r2, [r5, #24]
 733 0096 00E0     		b	.L83
 734              	.L88:
 735 0098 0F4A     		ldr	r2, .L96+4
 736              	.L83:
 737 009a 1248     		ldr	r0, .L96+16
 738              	.LVL74:
 739 009c 6946     		mov	r1, sp
 740 009e FFF7FEFF 		bl	mxml_error
 741              	.LVL75:
 742 00a2 03E0     		b	.L84
 743              	.LVL76:
 744              	.L82:
1375:src/mxml-file.c ****   {
 745              		.loc 1 1375 0
 746 00a4 1F2C     		cmp	r4, #31
 747 00a6 10DC     		bgt	.L92
 748 00a8 0A2C     		cmp	r4, #10
 749 00aa 0ED0     		beq	.L92
 750              	.LVL77:
 751              	.L84:
 752 00ac 0D2C     		cmp	r4, #13
 753 00ae 0CD0     		beq	.L92
 754 00b0 092C     		cmp	r4, #9
 755 00b2 0AD0     		beq	.L92
1377:src/mxml-file.c ****                ch, parent ? parent->value.element.name : "null");
 756              		.loc 1 1377 0
 757 00b4 0DB1     		cbz	r5, .L93
 758 00b6 AA69     		ldr	r2, [r5, #24]
 759 00b8 00E0     		b	.L85
 760              	.L93:
 761 00ba 074A     		ldr	r2, .L96+4
 762              	.L85:
 763 00bc 0A48     		ldr	r0, .L96+20
 764 00be 2146     		mov	r1, r4
 765              	.L95:
 766 00c0 FFF7FEFF 		bl	mxml_error
 767              	.LVL78:
1379:src/mxml-file.c ****   }
 768              		.loc 1 1379 0
 769 00c4 4FF0FF30 		mov	r0, #-1
 770 00c8 00E0     		b	.L79
 771              	.L92:
1375:src/mxml-file.c ****   {
 772              		.loc 1 1375 0
 773 00ca 2046     		mov	r0, r4
 774              	.L79:
1383:src/mxml-file.c **** 
 775              		.loc 1 1383 0
ARM GAS  C:\Users\AHMED~1.ELE\AppData\Local\Temp\ccbrMpYT.s 			page 62


 776 00cc 11B0     		add	sp, sp, #68
 777              		.cfi_def_cfa_offset 28
 778              		@ sp needed
 779 00ce BDE8F083 		pop	{r4, r5, r6, r7, r8, r9, pc}
 780              	.LVL79:
 781              	.L97:
 782 00d2 00BF     		.align	2
 783              	.L96:
 784 00d4 00000000 		.word	__ctype_ptr__
 785 00d8 93000000 		.word	.LC3
 786 00dc 98000000 		.word	.LC4
 787 00e0 C0000000 		.word	.LC5
 788 00e4 F8000000 		.word	.LC6
 789 00e8 2B010000 		.word	.LC7
 790              		.cfi_endproc
 791              	.LFE13:
 792              		.size	mxml_get_entity.constprop.3, .-mxml_get_entity.constprop.3
 793              		.section	.text.mxml_load_data.constprop.1,"ax",%progbits
 794              		.align	1
 795              		.thumb
 796              		.thumb_func
 797              		.type	mxml_load_data.constprop.1, %function
 798              	mxml_load_data.constprop.1:
 799              	.LFB15:
1391:src/mxml-file.c ****     mxml_node_t     *top,		/* I - Top node */
 800              		.loc 1 1391 0
 801              		.cfi_startproc
 802              		@ args = 4, pretend = 0, frame = 56
 803              		@ frame_needed = 0, uses_anonymous_args = 0
 804              	.LVL80:
 805 0000 2DE9F04F 		push	{r4, r5, r6, r7, r8, r9, r10, fp, lr}
 806              		.cfi_def_cfa_offset 36
 807              		.cfi_offset 4, -36
 808              		.cfi_offset 5, -32
 809              		.cfi_offset 6, -28
 810              		.cfi_offset 7, -24
 811              		.cfi_offset 8, -20
 812              		.cfi_offset 9, -16
 813              		.cfi_offset 10, -12
 814              		.cfi_offset 11, -8
 815              		.cfi_offset 14, -4
 816 0004 8FB0     		sub	sp, sp, #60
 817              		.cfi_def_cfa_offset 96
1391:src/mxml-file.c ****     mxml_node_t     *top,		/* I - Top node */
 818              		.loc 1 1391 0
 819 0006 0E46     		mov	r6, r1
 820 0008 0192     		str	r2, [sp, #4]
 821 000a 9A46     		mov	r10, r3
 822 000c 0290     		str	r0, [sp, #8]
1409:src/mxml-file.c **** 					/* Global data */
 823              		.loc 1 1409 0
 824 000e FFF7FEFF 		bl	_mxml_global
 825              	.LVL81:
1426:src/mxml-file.c ****   {
 826              		.loc 1 1426 0
 827 0012 4021     		movs	r1, #64
1409:src/mxml-file.c **** 					/* Global data */
ARM GAS  C:\Users\AHMED~1.ELE\AppData\Local\Temp\ccbrMpYT.s 			page 63


 828              		.loc 1 1409 0
 829 0014 0390     		str	r0, [sp, #12]
 830              	.LVL82:
1426:src/mxml-file.c ****   {
 831              		.loc 1 1426 0
 832 0016 9220     		movs	r0, #146
 833              	.LVL83:
 834 0018 FFF7FEFF 		bl	sys_func1
 835              	.LVL84:
 836 001c 0546     		mov	r5, r0
 837 001e 0590     		str	r0, [sp, #20]
 838 0020 18B9     		cbnz	r0, .L99
1428:src/mxml-file.c ****     return (NULL);
 839              		.loc 1 1428 0
 840 0022 A448     		ldr	r0, .L534
 841 0024 FFF7FEFF 		bl	mxml_error
 842              	.LVL85:
 843 0028 0CE2     		b	.L287
 844              	.L99:
1432:src/mxml-file.c ****   bufptr     = buffer;
 845              		.loc 1 1432 0
 846 002a 4023     		movs	r3, #64
1433:src/mxml-file.c ****   parent     = top;
 847              		.loc 1 1433 0
 848 002c 0690     		str	r0, [sp, #24]
 849              	.LVL86:
1432:src/mxml-file.c ****   bufptr     = buffer;
 850              		.loc 1 1432 0
 851 002e 0793     		str	r3, [sp, #28]
1437:src/mxml-file.c **** 
 852              		.loc 1 1437 0
 853 0030 0023     		movs	r3, #0
 854 0032 0893     		str	r3, [sp, #32]
1439:src/mxml-file.c ****     type = (*cb)(parent);
 855              		.loc 1 1439 0
 856 0034 019B     		ldr	r3, [sp, #4]
 857 0036 6BB1     		cbz	r3, .L101
 858 0038 029B     		ldr	r3, [sp, #8]
 859 003a 23B1     		cbz	r3, .L261
1440:src/mxml-file.c ****   else if (parent)
 860              		.loc 1 1440 0
 861 003c 1846     		mov	r0, r3
 862 003e 019B     		ldr	r3, [sp, #4]
 863 0040 9847     		blx	r3
 864              	.LVL87:
 865 0042 8146     		mov	r9, r0
 866              	.LVL88:
 867 0044 01E0     		b	.L102
 868              	.LVL89:
 869              	.L261:
1444:src/mxml-file.c **** 
 870              		.loc 1 1444 0
 871 0046 4FF0FF09 		mov	r9, #255
 872              	.LVL90:
 873              	.L102:
1539:src/mxml-file.c **** 
 874              		.loc 1 1539 0
ARM GAS  C:\Users\AHMED~1.ELE\AppData\Local\Temp\ccbrMpYT.s 			page 64


 875 004a 0023     		movs	r3, #0
 876 004c 029C     		ldr	r4, [sp, #8]
 877 004e 0093     		str	r3, [sp]
 878 0050 1D46     		mov	r5, r3
 879 0052 70E0     		b	.L103
 880              	.L101:
1444:src/mxml-file.c **** 
 881              		.loc 1 1444 0
 882 0054 029B     		ldr	r3, [sp, #8]
 883 0056 002B     		cmp	r3, #0
 884 0058 14BF     		ite	ne
 885 005a 4FF00409 		movne	r9, #4
 886 005e 4FF0FF09 		moveq	r9, #255
 887 0062 F2E7     		b	.L102
 888              	.LVL91:
 889              	.L137:
1583:src/mxml-file.c **** 	{
 890              		.loc 1 1583 0
 891 0064 BBF1260F 		cmp	fp, #38
 892 0068 40F0DB81 		bne	.L136
1585:src/mxml-file.c **** 	    goto error;
 893              		.loc 1 1585 0
 894 006c 2046     		mov	r0, r4
 895 006e 3146     		mov	r1, r6
 896 0070 08AA     		add	r2, sp, #32
 897 0072 FFF7FEFF 		bl	mxml_get_entity.constprop.3
 898              	.LVL92:
 899 0076 431C     		adds	r3, r0, #1
 900 0078 00F0DB81 		beq	.L121
1588:src/mxml-file.c **** 	    goto error;
 901              		.loc 1 1588 0
 902 007c 06A9     		add	r1, sp, #24
 903 007e 05AA     		add	r2, sp, #20
 904 0080 07AB     		add	r3, sp, #28
 905 0082 FFF7FEFF 		bl	mxml_add_char
 906              	.LVL93:
 907 0086 0028     		cmp	r0, #0
 908 0088 40F0D381 		bne	.L121
 909              	.L138:
1575:src/mxml-file.c ****         if (mxml_isspace(ch) || ch == '>' || (ch == '/' && bufptr > buffer))
 910              		.loc 1 1575 0
 911 008c 3046     		mov	r0, r6
 912 008e 08A9     		add	r1, sp, #32
 913 0090 FFF7FEFF 		bl	mxml_string_getc
 914              	.LVL94:
 915 0094 B0F1FF3F 		cmp	r0, #-1
 916 0098 8346     		mov	fp, r0
 917              	.LVL95:
 918 009a 04D0     		beq	.L134
1576:src/mxml-file.c **** 	  break;
 919              		.loc 1 1576 0
 920 009c FFF7FEFF 		bl	mxml_isspace
 921              	.LVL96:
 922 00a0 0028     		cmp	r0, #0
 923 00a2 00F0B281 		beq	.L515
 924              	.L134:
1598:src/mxml-file.c **** 
ARM GAS  C:\Users\AHMED~1.ELE\AppData\Local\Temp\ccbrMpYT.s 			page 65


 925              		.loc 1 1598 0
 926 00a6 0022     		movs	r2, #0
 927 00a8 069B     		ldr	r3, [sp, #24]
1600:src/mxml-file.c ****       {
 928              		.loc 1 1600 0
 929 00aa 8349     		ldr	r1, .L534+4
1598:src/mxml-file.c **** 
 930              		.loc 1 1598 0
 931 00ac 1A70     		strb	r2, [r3]
1600:src/mxml-file.c ****       {
 932              		.loc 1 1600 0
 933 00ae DDF81480 		ldr	r8, [sp, #20]
 934 00b2 4046     		mov	r0, r8
 935 00b4 FFF7FEFF 		bl	strcmp
 936              	.LVL97:
 937 00b8 0028     		cmp	r0, #0
 938 00ba 40F03C81 		bne	.L516
 939              	.LVL98:
 940              	.L143:
1606:src/mxml-file.c **** 	{
 941              		.loc 1 1606 0
 942 00be 3046     		mov	r0, r6
 943 00c0 08A9     		add	r1, sp, #32
 944 00c2 FFF7FEFF 		bl	mxml_string_getc
 945              	.LVL99:
 946 00c6 471C     		adds	r7, r0, #1
 947 00c8 00F05A84 		beq	.L517
1608:src/mxml-file.c **** 	      bufptr[-3] != '-' && bufptr[-2] == '-' && bufptr[-1] == '-')
 948              		.loc 1 1608 0
 949 00cc 3E28     		cmp	r0, #62
 950 00ce 40F01C82 		bne	.L145
 951 00d2 059A     		ldr	r2, [sp, #20]
 952 00d4 069B     		ldr	r3, [sp, #24]
 953 00d6 0432     		adds	r2, r2, #4
 954 00d8 9342     		cmp	r3, r2
 955 00da 40F21682 		bls	.L145
 956 00de 13F9032C 		ldrsb	r2, [r3, #-3]
 957 00e2 2D2A     		cmp	r2, #45
 958 00e4 00F01182 		beq	.L145
1609:src/mxml-file.c **** 	    break;
 959              		.loc 1 1609 0
 960 00e8 13F9022C 		ldrsb	r2, [r3, #-2]
 961 00ec 2D2A     		cmp	r2, #45
 962 00ee 40F00C82 		bne	.L145
 963 00f2 13F9012C 		ldrsb	r2, [r3, #-1]
 964 00f6 2D2A     		cmp	r2, #45
 965 00f8 40F00782 		bne	.L145
1634:src/mxml-file.c **** 
 966              		.loc 1 1634 0
 967 00fc 0022     		movs	r2, #0
 968 00fe 1A70     		strb	r2, [r3]
1636:src/mxml-file.c **** 	{
 969              		.loc 1 1636 0
 970 0100 14B9     		cbnz	r4, .L149
 971 0102 002D     		cmp	r5, #0
 972 0104 40F03E81 		bne	.L501
 973              	.L149:
ARM GAS  C:\Users\AHMED~1.ELE\AppData\Local\Temp\ccbrMpYT.s 			page 66


1647:src/mxml-file.c **** 	{
 974              		.loc 1 1647 0
 975 0108 2046     		mov	r0, r4
 976              	.LVL100:
 977 010a 0599     		ldr	r1, [sp, #20]
 978 010c FFF7FEFF 		bl	mxmlNewElement
 979              	.LVL101:
 980 0110 8046     		mov	r8, r0
 981 0112 0028     		cmp	r0, #0
 982 0114 00F02B84 		beq	.L518
1658:src/mxml-file.c ****         {
 983              		.loc 1 1658 0
 984 0118 BAF1000F 		cmp	r10, #0
 985 011c 00F04884 		beq	.L163
1660:src/mxml-file.c **** 
 986              		.loc 1 1660 0
 987 0120 0121     		movs	r1, #1
 988              	.LVL102:
 989              	.L509:
1728:src/mxml-file.c **** 
 990              		.loc 1 1728 0
 991 0122 189A     		ldr	r2, [sp, #96]
 992 0124 D047     		blx	r10
 993              	.LVL103:
1730:src/mxml-file.c ****             node = NULL;
 994              		.loc 1 1730 0
 995 0126 4046     		mov	r0, r8
 996 0128 FFF7FEFF 		bl	mxmlRelease
 997              	.LVL104:
 998 012c 0028     		cmp	r0, #0
 999 012e 40F03F84 		bne	.L163
 1000              	.LVL105:
 1001              	.L153:
2022:src/mxml-file.c ****     }
 1002              		.loc 1 2022 0
 1003 0132 059B     		ldr	r3, [sp, #20]
 1004 0134 0693     		str	r3, [sp, #24]
 1005              	.LVL106:
 1006              	.L103:
1446:src/mxml-file.c ****   {
 1007              		.loc 1 1446 0
 1008 0136 3046     		mov	r0, r6
 1009 0138 08A9     		add	r1, sp, #32
 1010 013a FFF7FEFF 		bl	mxml_string_getc
 1011              	.LVL107:
 1012 013e B0F1FF3F 		cmp	r0, #-1
 1013 0142 8046     		mov	r8, r0
 1014              	.LVL108:
 1015 0144 00F04281 		beq	.L285
1448:src/mxml-file.c **** //         (mxml_isspace(ch) && type != MXML_OPAQUE && type != MXML_CUSTOM)) &&
 1016              		.loc 1 1448 0
 1017 0148 B8F13C0F 		cmp	r8, #60
 1018 014c 12D0     		beq	.L104
1450:src/mxml-file.c ****         bufptr > buffer)
 1019              		.loc 1 1450 0
 1020 014e FFF7FEFF 		bl	mxml_isspace
 1021              	.LVL109:
ARM GAS  C:\Users\AHMED~1.ELE\AppData\Local\Temp\ccbrMpYT.s 			page 67


1448:src/mxml-file.c **** //         (mxml_isspace(ch) && type != MXML_OPAQUE && type != MXML_CUSTOM)) &&
 1022              		.loc 1 1448 0
 1023 0152 0028     		cmp	r0, #0
 1024 0154 00F0A580 		beq	.L105
1450:src/mxml-file.c ****         bufptr > buffer)
 1025              		.loc 1 1450 0
 1026 0158 4FFA89F3 		sxtb	r3, r9
 1027 015c 022B     		cmp	r3, #2
 1028 015e 00F0A080 		beq	.L105
 1029 0162 052B     		cmp	r3, #5
 1030 0164 00F09D80 		beq	.L105
 1031              	.LVL110:
 1032 0168 B8F1200F 		cmp	r8, #32
 1033 016c 02D1     		bne	.L104
 1034 016e 042B     		cmp	r3, #4
 1035 0170 00F09780 		beq	.L105
 1036              	.LVL111:
 1037              	.L104:
1451:src/mxml-file.c ****     {
 1038              		.loc 1 1451 0
 1039 0174 069B     		ldr	r3, [sp, #24]
1450:src/mxml-file.c ****         bufptr > buffer)
 1040              		.loc 1 1450 0
 1041 0176 059A     		ldr	r2, [sp, #20]
 1042 0178 9342     		cmp	r3, r2
 1043 017a 40F29280 		bls	.L105
1457:src/mxml-file.c **** 
 1044              		.loc 1 1457 0
 1045 017e 0022     		movs	r2, #0
 1046 0180 1A70     		strb	r2, [r3]
1459:src/mxml-file.c ****       {
 1047              		.loc 1 1459 0
 1048 0182 4FFA89F3 		sxtb	r3, r9
 1049 0186 013B     		subs	r3, r3, #1
 1050 0188 042B     		cmp	r3, #4
 1051 018a 3FD8     		bhi	.L263
 1052 018c DFE803F0 		tbb	[pc, r3]
 1053              	.L108:
 1054 0190 03       		.byte	(.L107-.L108)/2
 1055 0191 0D       		.byte	(.L109-.L108)/2
 1056 0192 12       		.byte	(.L110-.L108)/2
 1057 0193 1C       		.byte	(.L111-.L108)/2
 1058 0194 23       		.byte	(.L112-.L108)/2
 1059 0195 00       		.p2align 1
 1060              	.L107:
1462:src/mxml-file.c **** 	    break;
 1061              		.loc 1 1462 0
 1062 0196 06A9     		add	r1, sp, #24
 1063 0198 0598     		ldr	r0, [sp, #20]
 1064 019a 0022     		movs	r2, #0
 1065 019c FFF7FEFF 		bl	strtol
 1066              	.LVL112:
 1067 01a0 0146     		mov	r1, r0
 1068 01a2 2046     		mov	r0, r4
 1069 01a4 FFF7FEFF 		bl	mxmlNewInteger
 1070              	.LVL113:
 1071 01a8 13E0     		b	.L496
ARM GAS  C:\Users\AHMED~1.ELE\AppData\Local\Temp\ccbrMpYT.s 			page 68


 1072              	.L109:
1466:src/mxml-file.c **** 	    break;
 1073              		.loc 1 1466 0
 1074 01aa 2046     		mov	r0, r4
 1075 01ac 0599     		ldr	r1, [sp, #20]
 1076 01ae FFF7FEFF 		bl	mxmlNewOpaque
 1077              	.LVL114:
 1078 01b2 0EE0     		b	.L496
 1079              	.L110:
1470:src/mxml-file.c **** 	    break;
 1080              		.loc 1 1470 0
 1081 01b4 0598     		ldr	r0, [sp, #20]
 1082 01b6 06A9     		add	r1, sp, #24
 1083 01b8 FFF7FEFF 		bl	strtod
 1084              	.LVL115:
 1085 01bc 0246     		mov	r2, r0
 1086 01be 0B46     		mov	r3, r1
 1087 01c0 2046     		mov	r0, r4
 1088 01c2 FFF7FEFF 		bl	mxmlNewReal
 1089              	.LVL116:
 1090 01c6 04E0     		b	.L496
 1091              	.L111:
1474:src/mxml-file.c **** 	    break;
 1092              		.loc 1 1474 0
 1093 01c8 2046     		mov	r0, r4
 1094 01ca 0099     		ldr	r1, [sp]
 1095 01cc 059A     		ldr	r2, [sp, #20]
 1096 01ce FFF7FEFF 		bl	mxmlNewText
 1097              	.LVL117:
 1098              	.L496:
 1099 01d2 8346     		mov	fp, r0
 1100              	.LVL118:
 1101 01d4 1EE0     		b	.L106
 1102              	.LVL119:
 1103              	.L112:
1478:src/mxml-file.c **** 	    {
 1104              		.loc 1 1478 0
 1105 01d6 039B     		ldr	r3, [sp, #12]
 1106 01d8 D3F89C31 		ldr	r3, [r3, #412]
 1107 01dc CBB1     		cbz	r3, .L264
1484:src/mxml-file.c **** 
 1108              		.loc 1 1484 0
 1109 01de 0021     		movs	r1, #0
 1110 01e0 0A46     		mov	r2, r1
 1111 01e2 2046     		mov	r0, r4
 1112 01e4 FFF7FEFF 		bl	mxmlNewCustom
 1113              	.LVL120:
1486:src/mxml-file.c **** 	      {
 1114              		.loc 1 1486 0
 1115 01e8 039B     		ldr	r3, [sp, #12]
 1116 01ea 0599     		ldr	r1, [sp, #20]
 1117 01ec D3F89C31 		ldr	r3, [r3, #412]
1484:src/mxml-file.c **** 
 1118              		.loc 1 1484 0
 1119 01f0 8346     		mov	fp, r0
 1120              	.LVL121:
1486:src/mxml-file.c **** 	      {
ARM GAS  C:\Users\AHMED~1.ELE\AppData\Local\Temp\ccbrMpYT.s 			page 69


 1121              		.loc 1 1486 0
 1122 01f2 9847     		blx	r3
 1123              	.LVL122:
 1124 01f4 70B1     		cbz	r0, .L106
1488:src/mxml-file.c **** 		           buffer, parent ? parent->value.element.name : "null");
 1125              		.loc 1 1488 0
 1126 01f6 0599     		ldr	r1, [sp, #20]
 1127 01f8 0CB1     		cbz	r4, .L265
 1128 01fa A269     		ldr	r2, [r4, #24]
 1129 01fc 00E0     		b	.L113
 1130              	.L265:
 1131 01fe 2F4A     		ldr	r2, .L534+8
 1132              	.L113:
 1133 0200 2F48     		ldr	r0, .L534+12
 1134 0202 FFF7FEFF 		bl	mxml_error
 1135              	.LVL123:
1490:src/mxml-file.c **** 		node = NULL;
 1136              		.loc 1 1490 0
 1137 0206 5846     		mov	r0, fp
 1138 0208 FFF7FEFF 		bl	mxmlDelete
 1139              	.LVL124:
 1140              	.L263:
1497:src/mxml-file.c **** 	    break;
 1141              		.loc 1 1497 0
 1142 020c 4FF0000B 		mov	fp, #0
 1143 0210 00E0     		b	.L106
 1144              	.L264:
 1145 0212 9B46     		mov	fp, r3
 1146              	.L106:
 1147              	.LVL125:
1501:src/mxml-file.c ****       {
 1148              		.loc 1 1501 0
 1149 0214 069B     		ldr	r3, [sp, #24]
 1150 0216 059A     		ldr	r2, [sp, #20]
 1151 0218 93F90030 		ldrsb	r3, [r3]
 1152 021c 7BB1     		cbz	r3, .L114
1507:src/mxml-file.c **** 	           type == MXML_INTEGER ? "integer" : "real", buffer,
 1153              		.loc 1 1507 0
 1154 021e 2948     		ldr	r0, .L534+16
 1155 0220 294B     		ldr	r3, .L534+20
 1156 0222 4FFA89F1 		sxtb	r1, r9
 1157 0226 0129     		cmp	r1, #1
 1158 0228 0CBF     		ite	eq
 1159 022a 1946     		moveq	r1, r3
 1160 022c 0146     		movne	r1, r0
 1161 022e 0CB1     		cbz	r4, .L267
 1162 0230 A369     		ldr	r3, [r4, #24]
 1163 0232 00E0     		b	.L116
 1164              	.L267:
 1165 0234 214B     		ldr	r3, .L534+8
 1166              	.L116:
 1167 0236 2548     		ldr	r0, .L534+24
 1168 0238 FFF7FEFF 		bl	mxml_error
 1169              	.LVL126:
 1170 023c C6E0     		b	.L285
 1171              	.L114:
1514:src/mxml-file.c **** 
ARM GAS  C:\Users\AHMED~1.ELE\AppData\Local\Temp\ccbrMpYT.s 			page 70


 1172              		.loc 1 1514 0
 1173 023e 4046     		mov	r0, r8
1513:src/mxml-file.c ****       whitespace = mxml_isspace(ch) && type == MXML_TEXT;
 1174              		.loc 1 1513 0
 1175 0240 0692     		str	r2, [sp, #24]
1514:src/mxml-file.c **** 
 1176              		.loc 1 1514 0
 1177 0242 FFF7FEFF 		bl	mxml_isspace
 1178              	.LVL127:
 1179 0246 30B1     		cbz	r0, .L268
 1180 0248 4FFA89F7 		sxtb	r7, r9
 1181 024c 391F     		subs	r1, r7, #4
 1182 024e 4B42     		rsbs	r3, r1, #0
 1183 0250 4B41     		adcs	r3, r3, r1
 1184 0252 0093     		str	r3, [sp]
 1185              	.LVL128:
 1186 0254 00E0     		b	.L118
 1187              	.LVL129:
 1188              	.L268:
 1189 0256 0090     		str	r0, [sp]
 1190              	.LVL130:
 1191              	.L118:
1516:src/mxml-file.c ****       {
 1192              		.loc 1 1516 0
 1193 0258 BBF1000F 		cmp	fp, #0
 1194 025c 0CD1     		bne	.L119
 1195 025e 4FFA89F3 		sxtb	r3, r9
 1196 0262 5A1C     		adds	r2, r3, #1
 1197 0264 08D0     		beq	.L119
1522:src/mxml-file.c **** 	           types[type], parent ? parent->value.element.name : "null");
 1198              		.loc 1 1522 0
 1199 0266 1A4A     		ldr	r2, .L534+28
 1200 0268 52F82310 		ldr	r1, [r2, r3, lsl #2]
 1201 026c 0CB1     		cbz	r4, .L269
 1202 026e A269     		ldr	r2, [r4, #24]
 1203 0270 00E0     		b	.L120
 1204              	.L269:
 1205 0272 124A     		ldr	r2, .L534+8
 1206              	.L120:
 1207 0274 1748     		ldr	r0, .L534+32
 1208 0276 88E0     		b	.L500
 1209              	.L119:
1527:src/mxml-file.c ****       {
 1210              		.loc 1 1527 0
 1211 0278 BAF1000F 		cmp	r10, #0
 1212 027c 01D1     		bne	.L122
 1213              	.L126:
1535:src/mxml-file.c ****         first = node;
 1214              		.loc 1 1535 0
 1215 027e 65BB     		cbnz	r5, .L124
 1216 0280 0AE0     		b	.L519
 1217              	.L122:
1529:src/mxml-file.c **** 
 1218              		.loc 1 1529 0
 1219 0282 5846     		mov	r0, fp
 1220 0284 0221     		movs	r1, #2
 1221 0286 189A     		ldr	r2, [sp, #96]
ARM GAS  C:\Users\AHMED~1.ELE\AppData\Local\Temp\ccbrMpYT.s 			page 71


 1222 0288 D047     		blx	r10
 1223              	.LVL131:
1531:src/mxml-file.c ****           node = NULL;
 1224              		.loc 1 1531 0
 1225 028a 5846     		mov	r0, fp
 1226 028c FFF7FEFF 		bl	mxmlRelease
 1227              	.LVL132:
 1228 0290 0028     		cmp	r0, #0
 1229 0292 00F0DB80 		beq	.L125
 1230 0296 F2E7     		b	.L126
 1231              	.L519:
1535:src/mxml-file.c ****         first = node;
 1232              		.loc 1 1535 0
 1233 0298 BBF1000F 		cmp	fp, #0
 1234 029c 1CD1     		bne	.L270
 1235              	.LVL133:
 1236              	.L245:
1522:src/mxml-file.c **** 	           types[type], parent ? parent->value.element.name : "null");
 1237              		.loc 1 1522 0
 1238 029e 0025     		movs	r5, #0
 1239              	.LVL134:
 1240 02a0 1BE0     		b	.L124
 1241              	.LVL135:
 1242              	.L105:
1538:src/mxml-file.c ****       whitespace = 1;
 1243              		.loc 1 1538 0
 1244 02a2 4046     		mov	r0, r8
 1245 02a4 FFF7FEFF 		bl	mxml_isspace
 1246              	.LVL136:
 1247 02a8 B8B1     		cbz	r0, .L124
 1248 02aa 4FFA89F3 		sxtb	r3, r9
 1249 02ae 042B     		cmp	r3, #4
 1250 02b0 13D1     		bne	.L124
 1251 02b2 CFE0     		b	.L520
 1252              	.L535:
 1253              		.align	2
 1254              	.L534:
 1255 02b4 8B010000 		.word	.LC11
 1256 02b8 3D020000 		.word	.LC17
 1257 02bc 93000000 		.word	.LC3
 1258 02c0 AD010000 		.word	.LC12
 1259 02c4 7F010000 		.word	.LC9
 1260 02c8 77010000 		.word	.LC8
 1261 02cc D3010000 		.word	.LC13
 1262 02d0 00000000 		.word	.LANCHOR0
 1263 02d4 F5010000 		.word	.LC14
 1264              	.LVL137:
 1265              	.L270:
1535:src/mxml-file.c ****         first = node;
 1266              		.loc 1 1535 0
 1267 02d8 5D46     		mov	r5, fp
 1268              	.LVL138:
 1269              	.L124:
1546:src/mxml-file.c ****     {
 1270              		.loc 1 1546 0
 1271 02da B8F13C0F 		cmp	r8, #60
 1272 02de 40F0C380 		bne	.L128
ARM GAS  C:\Users\AHMED~1.ELE\AppData\Local\Temp\ccbrMpYT.s 			page 72


 1273 02e2 009B     		ldr	r3, [sp]
 1274 02e4 002B     		cmp	r3, #0
 1275 02e6 00F0EE80 		beq	.L129
 1276 02ea 4FFA89F3 		sxtb	r3, r9
 1277 02ee 042B     		cmp	r3, #4
 1278 02f0 40F0E280 		bne	.L271
 1279              	.LVL139:
 1280              	.L246:
1548:src/mxml-file.c ****       {
 1281              		.loc 1 1548 0
 1282 02f4 002C     		cmp	r4, #0
 1283 02f6 00F0E180 		beq	.L272
1550:src/mxml-file.c **** 
 1284              		.loc 1 1550 0
 1285 02fa 2046     		mov	r0, r4
 1286 02fc 0121     		movs	r1, #1
 1287 02fe AE4A     		ldr	r2, .L536
 1288 0300 FFF7FEFF 		bl	mxmlNewText
 1289              	.LVL140:
 1290 0304 0746     		mov	r7, r0
 1291              	.LVL141:
1552:src/mxml-file.c **** 	{
 1292              		.loc 1 1552 0
 1293 0306 BAF1000F 		cmp	r10, #0
 1294 030a 03D1     		bne	.L130
 1295              	.LVL142:
 1296              	.L133:
1560:src/mxml-file.c **** 	  first = node;
 1297              		.loc 1 1560 0
 1298 030c 002D     		cmp	r5, #0
 1299 030e 40F0D880 		bne	.L504
 1300 0312 09E0     		b	.L131
 1301              	.LVL143:
 1302              	.L130:
1554:src/mxml-file.c **** 
 1303              		.loc 1 1554 0
 1304 0314 0221     		movs	r1, #2
 1305 0316 189A     		ldr	r2, [sp, #96]
 1306 0318 D047     		blx	r10
 1307              	.LVL144:
1556:src/mxml-file.c **** 	    node = NULL;
 1308              		.loc 1 1556 0
 1309 031a 3846     		mov	r0, r7
 1310 031c FFF7FEFF 		bl	mxmlRelease
 1311              	.LVL145:
 1312 0320 0028     		cmp	r0, #0
 1313 0322 00F09C80 		beq	.L132
 1314 0326 F1E7     		b	.L133
 1315              	.L131:
1560:src/mxml-file.c **** 	  first = node;
 1316              		.loc 1 1560 0
 1317 0328 002F     		cmp	r7, #0
 1318 032a 40F0C980 		bne	.L273
 1319              	.LVL146:
 1320              	.L248:
1564:src/mxml-file.c ****     }
 1321              		.loc 1 1564 0
ARM GAS  C:\Users\AHMED~1.ELE\AppData\Local\Temp\ccbrMpYT.s 			page 73


 1322 032e 0023     		movs	r3, #0
 1323 0330 1D46     		mov	r5, r3
 1324              	.LVL147:
 1325 0332 0093     		str	r3, [sp]
 1326 0334 C7E0     		b	.L129
 1327              	.LVL148:
 1328              	.L516:
1669:src/mxml-file.c ****       {
 1329              		.loc 1 1669 0
 1330 0336 4046     		mov	r0, r8
 1331 0338 A049     		ldr	r1, .L536+4
 1332 033a FFF7FEFF 		bl	strcmp
 1333              	.LVL149:
 1334 033e 0028     		cmp	r0, #0
 1335 0340 40F0F680 		bne	.L521
 1336              	.LVL150:
 1337              	.L154:
1675:src/mxml-file.c **** 	{
 1338              		.loc 1 1675 0
 1339 0344 3046     		mov	r0, r6
 1340 0346 08A9     		add	r1, sp, #32
 1341 0348 FFF7FEFF 		bl	mxml_string_getc
 1342              	.LVL151:
 1343 034c B0F1FF3F 		cmp	r0, #-1
 1344 0350 8046     		mov	r8, r0
 1345              	.LVL152:
 1346 0352 00F02B83 		beq	.L522
1677:src/mxml-file.c **** 	    break;
 1347              		.loc 1 1677 0
 1348 0356 B8F13E0F 		cmp	r8, #62
 1349 035a 40F0DF80 		bne	.L156
 1350 035e DDF818B0 		ldr	fp, [sp, #24]
 1351 0362 9749     		ldr	r1, .L536+8
 1352 0364 ABF10200 		sub	r0, fp, #2
 1353              	.LVL153:
 1354 0368 0222     		movs	r2, #2
 1355 036a FFF7FEFF 		bl	strncmp
 1356              	.LVL154:
 1357 036e 0028     		cmp	r0, #0
 1358 0370 40F0D480 		bne	.L156
1702:src/mxml-file.c **** 
 1359              		.loc 1 1702 0
 1360 0374 8BF80000 		strb	r0, [fp]
1704:src/mxml-file.c **** 	{
 1361              		.loc 1 1704 0
 1362 0378 002C     		cmp	r4, #0
 1363 037a 40F00583 		bne	.L160
 1364 037e 002D     		cmp	r5, #0
 1365 0380 00F00283 		beq	.L160
 1366              	.LVL155:
 1367              	.L501:
1642:src/mxml-file.c **** 	             buffer, first->value.element.name);
 1368              		.loc 1 1642 0
 1369 0384 8F48     		ldr	r0, .L536+12
 1370 0386 0599     		ldr	r1, [sp, #20]
 1371              	.L503:
 1372 0388 AA69     		ldr	r2, [r5, #24]
ARM GAS  C:\Users\AHMED~1.ELE\AppData\Local\Temp\ccbrMpYT.s 			page 74


 1373              	.L500:
 1374 038a FFF7FEFF 		bl	mxml_error
 1375              	.LVL156:
 1376 038e 50E0     		b	.L121
 1377              	.LVL157:
 1378              	.L203:
 1379              	.LBB14:
 1380              	.LBB15:
2180:src/mxml-file.c ****       break;
 1381              		.loc 1 2180 0
 1382 0390 3E2F     		cmp	r7, #62
 1383 0392 40F0AE81 		bne	.L204
 1384              	.L233:
2321:src/mxml-file.c ****     {
 1385              		.loc 1 2321 0
 1386 0396 4FF03E0B 		mov	fp, #62
 1387              	.LVL158:
 1388              	.L201:
2346:src/mxml-file.c ****   os_free(value);
 1389              		.loc 1 2346 0
 1390 039a 0999     		ldr	r1, [sp, #36]
 1391 039c 9420     		movs	r0, #148
 1392 039e FFF7FEFF 		bl	sys_func1
 1393              	.LVL159:
2347:src/mxml-file.c **** 
 1394              		.loc 1 2347 0
 1395 03a2 9420     		movs	r0, #148
 1396 03a4 0A99     		ldr	r1, [sp, #40]
 1397 03a6 FFF7FEFF 		bl	sys_func1
 1398              	.LVL160:
 1399              	.LBE15:
 1400              	.LBE14:
1977:src/mxml-file.c **** 	    goto error;
 1401              		.loc 1 1977 0
 1402 03aa BBF1FF3F 		cmp	fp, #-1
 1403 03ae 40D0     		beq	.L121
 1404              	.LVL161:
 1405              	.L235:
1993:src/mxml-file.c ****           (*sax_cb)(node, MXML_SAX_ELEMENT_OPEN, sax_data);
 1406              		.loc 1 1993 0
 1407 03b0 BAF1000F 		cmp	r10, #0
 1408 03b4 03D0     		beq	.L236
1994:src/mxml-file.c **** 
 1409              		.loc 1 1994 0
 1410 03b6 4046     		mov	r0, r8
 1411 03b8 0521     		movs	r1, #5
 1412 03ba 189A     		ldr	r2, [sp, #96]
 1413 03bc D047     		blx	r10
 1414              	.LVL162:
 1415              	.L236:
1996:src/mxml-file.c **** 	  first = node;
 1416              		.loc 1 1996 0
 1417 03be 002D     		cmp	r5, #0
 1418 03c0 08BF     		it	eq
 1419 03c2 4546     		moveq	r5, r8
 1420              	.LVL163:
1999:src/mxml-file.c **** 	  break;
ARM GAS  C:\Users\AHMED~1.ELE\AppData\Local\Temp\ccbrMpYT.s 			page 75


 1421              		.loc 1 1999 0
 1422 03c4 BBF1FF3F 		cmp	fp, #-1
 1423 03c8 40F0B282 		bne	.L523
 1424              	.LVL164:
 1425              	.L285:
 1426 03cc 2646     		mov	r6, r4
 1427              	.LVL165:
 1428              	.L117:
2052:src/mxml-file.c **** 
 1429              		.loc 1 2052 0
 1430 03ce 9420     		movs	r0, #148
 1431 03d0 0599     		ldr	r1, [sp, #20]
 1432 03d2 FFF7FEFF 		bl	sys_func1
 1433              	.LVL166:
2058:src/mxml-file.c ****   {
 1434              		.loc 1 2058 0
 1435 03d6 002C     		cmp	r4, #0
 1436 03d8 34D0     		beq	.L287
 1437              	.LVL167:
 1438              	.L243:
2062:src/mxml-file.c ****       parent = parent->parent;
 1439              		.loc 1 2062 0
 1440 03da 029B     		ldr	r3, [sp, #8]
 1441 03dc 9C42     		cmp	r4, r3
 1442 03de 04D0     		beq	.L242
 1443 03e0 E368     		ldr	r3, [r4, #12]
 1444 03e2 0BB1     		cbz	r3, .L524
 1445 03e4 1C46     		mov	r4, r3
 1446              	.LVL168:
 1447 03e6 F8E7     		b	.L243
 1448              	.LVL169:
 1449              	.L524:
 1450 03e8 0294     		str	r4, [sp, #8]
 1451              	.L242:
2065:src/mxml-file.c ****     {
 1452              		.loc 1 2065 0
 1453 03ea 029B     		ldr	r3, [sp, #8]
 1454 03ec 9E42     		cmp	r6, r3
 1455 03ee 2BD0     		beq	.L289
2069:src/mxml-file.c **** 
 1456              		.loc 1 2069 0
 1457 03f0 F368     		ldr	r3, [r6, #12]
2067:src/mxml-file.c **** 	         node->value.element.name,
 1458              		.loc 1 2067 0
 1459 03f2 B169     		ldr	r1, [r6, #24]
 1460 03f4 0BB1     		cbz	r3, .L290
 1461 03f6 9A69     		ldr	r2, [r3, #24]
 1462 03f8 00E0     		b	.L244
 1463              	.L290:
 1464 03fa 734A     		ldr	r2, .L536+16
 1465              	.L244:
 1466 03fc 7348     		ldr	r0, .L536+20
 1467 03fe FFF7FEFF 		bl	mxml_error
 1468              	.LVL170:
2071:src/mxml-file.c **** 
 1469              		.loc 1 2071 0
 1470 0402 2846     		mov	r0, r5
ARM GAS  C:\Users\AHMED~1.ELE\AppData\Local\Temp\ccbrMpYT.s 			page 76


 1471 0404 FFF7FEFF 		bl	mxmlDelete
 1472              	.LVL171:
 1473 0408 1AE0     		b	.L506
 1474              	.LVL172:
 1475              	.L515:
1576:src/mxml-file.c **** 	  break;
 1476              		.loc 1 1576 0
 1477 040a BBF13E0F 		cmp	fp, #62
 1478 040e 3FF44AAE 		beq	.L134
 1479 0412 BBF12F0F 		cmp	fp, #47
 1480 0416 59D1     		bne	.L135
 1481 0418 059B     		ldr	r3, [sp, #20]
 1482 041a 069A     		ldr	r2, [sp, #24]
 1483 041c 9A42     		cmp	r2, r3
 1484 041e 3FF642AE 		bhi	.L134
 1485              	.L136:
1591:src/mxml-file.c **** 	  goto error;
 1486              		.loc 1 1591 0
 1487 0422 5846     		mov	r0, fp
 1488 0424 06A9     		add	r1, sp, #24
 1489 0426 05AA     		add	r2, sp, #20
 1490 0428 07AB     		add	r3, sp, #28
 1491 042a FFF7FEFF 		bl	mxml_add_char
 1492              	.LVL173:
 1493 042e 0028     		cmp	r0, #0
 1494 0430 52D0     		beq	.L525
 1495              	.LVL174:
 1496              	.L121:
2088:src/mxml-file.c **** 
 1497              		.loc 1 2088 0
 1498 0432 2846     		mov	r0, r5
 1499 0434 FFF7FEFF 		bl	mxmlDelete
 1500              	.LVL175:
2090:src/mxml-file.c **** 
 1501              		.loc 1 2090 0
 1502 0438 9420     		movs	r0, #148
 1503 043a 0599     		ldr	r1, [sp, #20]
 1504 043c FFF7FEFF 		bl	sys_func1
 1505              	.LVL176:
 1506              	.L506:
2092:src/mxml-file.c **** }
 1507              		.loc 1 2092 0
 1508 0440 0020     		movs	r0, #0
 1509 0442 09E3     		b	.L483
 1510              	.LVL177:
 1511              	.L287:
2080:src/mxml-file.c **** 
 1512              		.loc 1 2080 0
 1513 0444 2846     		mov	r0, r5
 1514 0446 07E3     		b	.L483
 1515              	.LVL178:
 1516              	.L289:
2065:src/mxml-file.c ****     {
 1517              		.loc 1 2065 0
 1518 0448 3046     		mov	r0, r6
 1519 044a 05E3     		b	.L483
 1520              	.LVL179:
ARM GAS  C:\Users\AHMED~1.ELE\AppData\Local\Temp\ccbrMpYT.s 			page 77


 1521              	.L125:
1535:src/mxml-file.c ****         first = node;
 1522              		.loc 1 1535 0
 1523 044c 002D     		cmp	r5, #0
 1524 044e 7FF444AF 		bne	.L124
 1525 0452 24E7     		b	.L245
 1526              	.LVL180:
 1527              	.L520:
1546:src/mxml-file.c ****     {
 1528              		.loc 1 1546 0
 1529 0454 B8F13C0F 		cmp	r8, #60
 1530 0458 40F0F182 		bne	.L492
 1531 045c 4AE7     		b	.L246
 1532              	.LVL181:
 1533              	.L132:
1560:src/mxml-file.c **** 	  first = node;
 1534              		.loc 1 1560 0
 1535 045e 002D     		cmp	r5, #0
 1536 0460 3FF465AF 		beq	.L248
1564:src/mxml-file.c ****     }
 1537              		.loc 1 1564 0
 1538 0464 0090     		str	r0, [sp]
 1539 0466 2EE0     		b	.L129
 1540              	.LVL182:
 1541              	.L128:
2024:src/mxml-file.c ****     {
 1542              		.loc 1 2024 0
 1543 0468 B8F1260F 		cmp	r8, #38
 1544 046c 07D1     		bne	.L493
 1545              	.LVL183:
 1546              	.L249:
2030:src/mxml-file.c **** 	goto error;
 1547              		.loc 1 2030 0
 1548 046e 2046     		mov	r0, r4
 1549 0470 3146     		mov	r1, r6
 1550 0472 08AA     		add	r2, sp, #32
 1551 0474 FFF7FEFF 		bl	mxml_get_entity.constprop.3
 1552              	.LVL184:
 1553 0478 431C     		adds	r3, r0, #1
 1554 047a 14D1     		bne	.L498
 1555 047c D9E7     		b	.L121
 1556              	.LVL185:
 1557              	.L493:
2037:src/mxml-file.c ****     {
 1558              		.loc 1 2037 0
 1559 047e 4FFA89F3 		sxtb	r3, r9
 1560 0482 022B     		cmp	r3, #2
 1561 0484 0ED0     		beq	.L240
 1562 0486 052B     		cmp	r3, #5
 1563 0488 0CD0     		beq	.L240
 1564              	.LVL186:
 1565              	.L259:
 1566 048a 4046     		mov	r0, r8
 1567 048c FFF7FEFF 		bl	mxml_isspace
 1568              	.LVL187:
 1569 0490 40B1     		cbz	r0, .L240
 1570              	.LVL188:
ARM GAS  C:\Users\AHMED~1.ELE\AppData\Local\Temp\ccbrMpYT.s 			page 78


 1571 0492 B8F1200F 		cmp	r8, #32
 1572 0496 7FF44EAE 		bne	.L103
 1573 049a 4FFA89F3 		sxtb	r3, r9
 1574 049e 042B     		cmp	r3, #4
 1575 04a0 7FF449AE 		bne	.L103
 1576              	.LVL189:
 1577              	.L240:
2043:src/mxml-file.c **** 	goto error;
 1578              		.loc 1 2043 0
 1579 04a4 4046     		mov	r0, r8
 1580              	.LVL190:
 1581              	.L498:
 1582 04a6 06A9     		add	r1, sp, #24
 1583 04a8 05AA     		add	r2, sp, #20
 1584 04aa 07AB     		add	r3, sp, #28
 1585 04ac FFF7FEFF 		bl	mxml_add_char
 1586              	.LVL191:
 1587 04b0 0028     		cmp	r0, #0
 1588 04b2 3FF440AE 		beq	.L103
 1589 04b6 BCE7     		b	.L121
 1590              	.LVL192:
 1591              	.L271:
1546:src/mxml-file.c ****     {
 1592              		.loc 1 1546 0
 1593 04b8 0123     		movs	r3, #1
 1594 04ba 03E0     		b	.L505
 1595              	.LVL193:
 1596              	.L272:
1564:src/mxml-file.c ****     }
 1597              		.loc 1 1564 0
 1598 04bc 0094     		str	r4, [sp]
 1599 04be 02E0     		b	.L129
 1600              	.LVL194:
 1601              	.L273:
1560:src/mxml-file.c **** 	  first = node;
 1602              		.loc 1 1560 0
 1603 04c0 3D46     		mov	r5, r7
 1604              	.LVL195:
 1605              	.L504:
1564:src/mxml-file.c ****     }
 1606              		.loc 1 1564 0
 1607 04c2 0023     		movs	r3, #0
 1608              	.LVL196:
 1609              	.L505:
 1610 04c4 0093     		str	r3, [sp]
 1611              	.L129:
 1612              	.LVL197:
1573:src/mxml-file.c **** 
 1613              		.loc 1 1573 0
 1614 04c6 059B     		ldr	r3, [sp, #20]
 1615 04c8 0693     		str	r3, [sp, #24]
 1616 04ca DFE5     		b	.L138
 1617              	.LVL198:
 1618              	.L135:
1578:src/mxml-file.c **** 	{
 1619              		.loc 1 1578 0
 1620 04cc BBF13C0F 		cmp	fp, #60
ARM GAS  C:\Users\AHMED~1.ELE\AppData\Local\Temp\ccbrMpYT.s 			page 79


 1621 04d0 7FF4C8AD 		bne	.L137
1580:src/mxml-file.c **** 	  goto error;
 1622              		.loc 1 1580 0
 1623 04d4 3E48     		ldr	r0, .L536+24
 1624 04d6 54E2     		b	.L499
 1625              	.L525:
1593:src/mxml-file.c **** 	         ((bufptr - buffer) == 3 && !strncmp(buffer, "!--", 3)) ||
 1626              		.loc 1 1593 0
 1627 04d8 0598     		ldr	r0, [sp, #20]
 1628 04da 069A     		ldr	r2, [sp, #24]
 1629 04dc 121A     		subs	r2, r2, r0
 1630 04de 012A     		cmp	r2, #1
 1631 04e0 05D1     		bne	.L139
 1632 04e2 90F90030 		ldrsb	r3, [r0]
 1633 04e6 3F2B     		cmp	r3, #63
 1634 04e8 7FF4D0AD 		bne	.L138
 1635 04ec DBE5     		b	.L134
 1636              	.L139:
 1637 04ee 032A     		cmp	r2, #3
 1638 04f0 01D1     		bne	.L141
1594:src/mxml-file.c **** 	         ((bufptr - buffer) == 8 && !strncmp(buffer, "![CDATA[", 8)))
 1639              		.loc 1 1594 0
 1640 04f2 3849     		ldr	r1, .L536+28
 1641 04f4 03E0     		b	.L497
 1642              	.L141:
 1643 04f6 082A     		cmp	r2, #8
 1644 04f8 7FF4C8AD 		bne	.L138
1595:src/mxml-file.c **** 	  break;
 1645              		.loc 1 1595 0
 1646 04fc 2F49     		ldr	r1, .L536+4
 1647              	.L497:
 1648 04fe FFF7FEFF 		bl	strncmp
 1649              	.LVL199:
 1650 0502 0028     		cmp	r0, #0
 1651 0504 7FF4C2AD 		bne	.L138
 1652 0508 CDE5     		b	.L134
 1653              	.LVL200:
 1654              	.L145:
1611:src/mxml-file.c **** 	    goto error;
 1655              		.loc 1 1611 0
 1656 050a 06A9     		add	r1, sp, #24
 1657 050c 05AA     		add	r2, sp, #20
 1658 050e 07AB     		add	r3, sp, #28
 1659 0510 FFF7FEFF 		bl	mxml_add_char
 1660              	.LVL201:
 1661 0514 0028     		cmp	r0, #0
 1662 0516 3FF4D2AD 		beq	.L143
 1663 051a 8AE7     		b	.L121
 1664              	.LVL202:
 1665              	.L156:
1679:src/mxml-file.c **** 	    goto error;
 1666              		.loc 1 1679 0
 1667 051c 4046     		mov	r0, r8
 1668 051e 06A9     		add	r1, sp, #24
 1669 0520 05AA     		add	r2, sp, #20
 1670 0522 07AB     		add	r3, sp, #28
 1671 0524 FFF7FEFF 		bl	mxml_add_char
ARM GAS  C:\Users\AHMED~1.ELE\AppData\Local\Temp\ccbrMpYT.s 			page 80


 1672              	.LVL203:
 1673 0528 0028     		cmp	r0, #0
 1674 052a 3FF40BAF 		beq	.L154
 1675 052e 80E7     		b	.L121
 1676              	.LVL204:
 1677              	.L521:
1737:src/mxml-file.c ****       {
 1678              		.loc 1 1737 0
 1679 0530 98F90030 		ldrsb	r3, [r8]
 1680 0534 3F2B     		cmp	r3, #63
 1681 0536 19D1     		bne	.L488
 1682              	.LVL205:
 1683              	.L164:
1743:src/mxml-file.c **** 	{
 1684              		.loc 1 1743 0
 1685 0538 08A9     		add	r1, sp, #32
 1686 053a 3046     		mov	r0, r6
 1687 053c FFF7FEFF 		bl	mxml_string_getc
 1688              	.LVL206:
 1689 0540 411C     		adds	r1, r0, #1
 1690 0542 00F03A82 		beq	.L526
1745:src/mxml-file.c **** 	    break;
 1691              		.loc 1 1745 0
 1692 0546 3E28     		cmp	r0, #62
 1693 0548 08D1     		bne	.L166
 1694 054a 069B     		ldr	r3, [sp, #24]
 1695 054c 059A     		ldr	r2, [sp, #20]
 1696 054e 9342     		cmp	r3, r2
 1697 0550 04D9     		bls	.L166
 1698 0552 13F9012C 		ldrsb	r2, [r3, #-1]
 1699 0556 3F2A     		cmp	r2, #63
 1700 0558 00F03182 		beq	.L167
 1701              	.L166:
1747:src/mxml-file.c **** 	    goto error;
 1702              		.loc 1 1747 0
 1703 055c 06A9     		add	r1, sp, #24
 1704 055e 05AA     		add	r2, sp, #20
 1705 0560 07AB     		add	r3, sp, #28
 1706 0562 FFF7FEFF 		bl	mxml_add_char
 1707              	.LVL207:
 1708 0566 0028     		cmp	r0, #0
 1709 0568 E6D0     		beq	.L164
 1710 056a 62E7     		b	.L121
 1711              	.LVL208:
 1712              	.L488:
1817:src/mxml-file.c ****       {
 1713              		.loc 1 1817 0
 1714 056c 212B     		cmp	r3, #33
 1715 056e 35D1     		bne	.L174
 1716              	.L177:
1825:src/mxml-file.c **** 	    break;
 1717              		.loc 1 1825 0
 1718 0570 BBF13E0F 		cmp	fp, #62
 1719 0574 00F03582 		beq	.L175
1829:src/mxml-file.c **** 	      if ((ch = mxml_get_entity(parent, p, &encoding, getc_cb)) == EOF)
 1720              		.loc 1 1829 0
 1721 0578 BBF1260F 		cmp	fp, #38
ARM GAS  C:\Users\AHMED~1.ELE\AppData\Local\Temp\ccbrMpYT.s 			page 81


 1722 057c 09D1     		bne	.L176
1830:src/mxml-file.c **** 		goto error;
 1723              		.loc 1 1830 0
 1724 057e 2046     		mov	r0, r4
 1725 0580 3146     		mov	r1, r6
 1726 0582 08AA     		add	r2, sp, #32
 1727 0584 FFF7FEFF 		bl	mxml_get_entity.constprop.3
 1728              	.LVL209:
 1729 0588 B0F1FF3F 		cmp	r0, #-1
 1730 058c 8346     		mov	fp, r0
 1731              	.LVL210:
 1732 058e 3FF450AF 		beq	.L121
 1733              	.LVL211:
 1734              	.L176:
1833:src/mxml-file.c **** 	      goto error;
 1735              		.loc 1 1833 0
 1736 0592 5846     		mov	r0, fp
 1737 0594 06A9     		add	r1, sp, #24
 1738 0596 05AA     		add	r2, sp, #20
 1739 0598 07AB     		add	r3, sp, #28
 1740 059a FFF7FEFF 		bl	mxml_add_char
 1741              	.LVL212:
 1742 059e 0028     		cmp	r0, #0
 1743 05a0 7FF447AF 		bne	.L121
1837:src/mxml-file.c **** 
 1744              		.loc 1 1837 0
 1745 05a4 3046     		mov	r0, r6
 1746 05a6 08A9     		add	r1, sp, #32
 1747 05a8 FFF7FEFF 		bl	mxml_string_getc
 1748              	.LVL213:
 1749 05ac B0F1FF3F 		cmp	r0, #-1
 1750 05b0 8346     		mov	fp, r0
 1751              	.LVL214:
 1752 05b2 DDD1     		bne	.L177
 1753              	.LVL215:
1849:src/mxml-file.c **** 	  goto error;
 1754              		.loc 1 1849 0
 1755 05b4 0848     		ldr	r0, .L536+32
 1756 05b6 E4E1     		b	.L499
 1757              	.L537:
 1758              		.align	2
 1759              	.L536:
 1760 05b8 29020000 		.word	.LC15
 1761 05bc 41020000 		.word	.LC18
 1762 05c0 A2020000 		.word	.LC21
 1763 05c4 4A020000 		.word	.LC19
 1764 05c8 84010000 		.word	.LC10
 1765 05cc 87040000 		.word	.LC33
 1766 05d0 2A020000 		.word	.LC16
 1767 05d4 3D020000 		.word	.LC17
 1768 05d8 10050000 		.word	.LC37
 1769              	.LVL216:
 1770              	.L174:
1905:src/mxml-file.c ****       {
 1771              		.loc 1 1905 0
 1772 05dc 2F2B     		cmp	r3, #47
 1773 05de 2FD1     		bne	.L183
ARM GAS  C:\Users\AHMED~1.ELE\AppData\Local\Temp\ccbrMpYT.s 			page 82


1911:src/mxml-file.c **** 	{
 1774              		.loc 1 1911 0
 1775 05e0 002C     		cmp	r4, #0
 1776 05e2 00F03782 		beq	.L184
 1777 05e6 08F10100 		add	r0, r8, #1
 1778 05ea A169     		ldr	r1, [r4, #24]
 1779 05ec FFF7FEFF 		bl	strcmp
 1780              	.LVL217:
 1781 05f0 0028     		cmp	r0, #0
 1782 05f2 40F02B82 		bne	.L527
 1783              	.L186:
1926:src/mxml-file.c **** 	  ch = (*getc_cb)(p, &encoding);
 1784              		.loc 1 1926 0
 1785 05f6 BBF13E0F 		cmp	fp, #62
 1786 05fa 08D0     		beq	.L187
 1787 05fc BBF1FF3F 		cmp	fp, #-1
 1788 0600 05D0     		beq	.L187
1927:src/mxml-file.c **** 
 1789              		.loc 1 1927 0
 1790 0602 3046     		mov	r0, r6
 1791 0604 08A9     		add	r1, sp, #32
 1792 0606 FFF7FEFF 		bl	mxml_string_getc
 1793              	.LVL218:
 1794 060a 8346     		mov	fp, r0
 1795              	.LVL219:
 1796 060c F3E7     		b	.L186
 1797              	.LVL220:
 1798              	.L187:
1930:src/mxml-file.c **** 
 1799              		.loc 1 1930 0
 1800 060e D4F80C80 		ldr	r8, [r4, #12]
 1801              	.LVL221:
1932:src/mxml-file.c ****         {
 1802              		.loc 1 1932 0
 1803 0612 BAF1000F 		cmp	r10, #0
 1804 0616 0AD0     		beq	.L189
1934:src/mxml-file.c **** 
 1805              		.loc 1 1934 0
 1806 0618 2046     		mov	r0, r4
 1807 061a 0421     		movs	r1, #4
 1808 061c 189A     		ldr	r2, [sp, #96]
 1809 061e D047     		blx	r10
 1810              	.LVL222:
1936:src/mxml-file.c **** 	    first = NULL;
 1811              		.loc 1 1936 0
 1812 0620 2046     		mov	r0, r4
 1813 0622 FFF7FEFF 		bl	mxmlRelease
 1814              	.LVL223:
 1815 0626 10B9     		cbnz	r0, .L189
1937:src/mxml-file.c ****         }
 1816              		.loc 1 1937 0
 1817 0628 A542     		cmp	r5, r4
 1818 062a 08BF     		it	eq
 1819 062c 0025     		moveq	r5, #0
 1820              	.LVL224:
 1821              	.L189:
1944:src/mxml-file.c **** 	  type = (*cb)(parent);
ARM GAS  C:\Users\AHMED~1.ELE\AppData\Local\Temp\ccbrMpYT.s 			page 83


 1822              		.loc 1 1944 0
 1823 062e 019B     		ldr	r3, [sp, #4]
 1824 0630 002B     		cmp	r3, #0
 1825 0632 00F09981 		beq	.L286
 1826 0636 B8F1000F 		cmp	r8, #0
 1827 063a 40F07E81 		bne	.L507
 1828 063e 93E1     		b	.L286
 1829              	.LVL225:
 1830              	.L183:
1953:src/mxml-file.c **** 	{
 1831              		.loc 1 1953 0
 1832 0640 1CB9     		cbnz	r4, .L190
 1833 0642 15B1     		cbz	r5, .L190
1959:src/mxml-file.c **** 	             buffer, first->value.element.name);
 1834              		.loc 1 1959 0
 1835 0644 B148     		ldr	r0, .L538
 1836 0646 4146     		mov	r1, r8
 1837 0648 9EE6     		b	.L503
 1838              	.L190:
1964:src/mxml-file.c **** 	{
 1839              		.loc 1 1964 0
 1840 064a 4146     		mov	r1, r8
 1841 064c 2046     		mov	r0, r4
 1842 064e FFF7FEFF 		bl	mxmlNewElement
 1843              	.LVL226:
 1844 0652 8046     		mov	r8, r0
 1845 0654 38B9     		cbnz	r0, .L191
1970:src/mxml-file.c **** 	             parent ? parent->value.element.name : "null");
 1846              		.loc 1 1970 0
 1847 0656 0CB1     		cbz	r4, .L282
 1848 0658 A169     		ldr	r1, [r4, #24]
 1849 065a 00E0     		b	.L192
 1850              	.L282:
 1851 065c AC49     		ldr	r1, .L538+4
 1852              	.L192:
 1853 065e AD48     		ldr	r0, .L538+8
 1854              	.LVL227:
 1855              	.L502:
 1856 0660 FFF7FEFF 		bl	mxml_error
 1857              	.LVL228:
 1858 0664 E5E6     		b	.L121
 1859              	.LVL229:
 1860              	.L191:
1975:src/mxml-file.c ****         {
 1861              		.loc 1 1975 0
 1862 0666 5846     		mov	r0, fp
 1863              	.LVL230:
 1864 0668 FFF7FEFF 		bl	mxml_isspace
 1865              	.LVL231:
 1866 066c 0028     		cmp	r0, #0
 1867 066e 00F03981 		beq	.L193
 1868              	.LVL232:
 1869              	.LBB17:
 1870              	.LBB16:
2120:src/mxml-file.c ****   {
 1871              		.loc 1 2120 0
 1872 0672 9220     		movs	r0, #146
ARM GAS  C:\Users\AHMED~1.ELE\AppData\Local\Temp\ccbrMpYT.s 			page 84


 1873 0674 4021     		movs	r1, #64
 1874 0676 FFF7FEFF 		bl	sys_func1
 1875              	.LVL233:
 1876 067a 0990     		str	r0, [sp, #36]
 1877 067c 08B9     		cbnz	r0, .L194
2122:src/mxml-file.c ****     return (EOF);
 1878              		.loc 1 2122 0
 1879 067e A648     		ldr	r0, .L538+12
 1880 0680 7FE1     		b	.L499
 1881              	.L194:
2126:src/mxml-file.c **** 
 1882              		.loc 1 2126 0
 1883 0682 4027     		movs	r7, #64
2128:src/mxml-file.c ****   {
 1884              		.loc 1 2128 0
 1885 0684 9220     		movs	r0, #146
 1886 0686 3946     		mov	r1, r7
2126:src/mxml-file.c **** 
 1887              		.loc 1 2126 0
 1888 0688 0C97     		str	r7, [sp, #48]
2128:src/mxml-file.c ****   {
 1889              		.loc 1 2128 0
 1890 068a FFF7FEFF 		bl	sys_func1
 1891              	.LVL234:
 1892 068e 0A90     		str	r0, [sp, #40]
 1893 0690 28B9     		cbnz	r0, .L196
2130:src/mxml-file.c ****     mxml_error("Unable to allocate memory for value!");
 1894              		.loc 1 2130 0
 1895 0692 9420     		movs	r0, #148
 1896 0694 0999     		ldr	r1, [sp, #36]
 1897 0696 FFF7FEFF 		bl	sys_func1
 1898              	.LVL235:
2131:src/mxml-file.c ****     return (EOF);
 1899              		.loc 1 2131 0
 1900 069a A048     		ldr	r0, .L538+16
 1901 069c 71E1     		b	.L499
 1902              	.L196:
2135:src/mxml-file.c **** 
 1903              		.loc 1 2135 0
 1904 069e 0D97     		str	r7, [sp, #52]
 1905              	.LVL236:
 1906              	.L198:
2141:src/mxml-file.c ****   {
 1907              		.loc 1 2141 0
 1908 06a0 3046     		mov	r0, r6
 1909 06a2 08A9     		add	r1, sp, #32
 1910              	.LVL237:
 1911 06a4 FFF7FEFF 		bl	mxml_string_getc
 1912              	.LVL238:
 1913 06a8 421C     		adds	r2, r0, #1
 1914 06aa 0746     		mov	r7, r0
 1915              	.LVL239:
 1916 06ac 00F00981 		beq	.L528
2151:src/mxml-file.c ****       continue;
 1917              		.loc 1 2151 0
 1918 06b0 FFF7FEFF 		bl	mxml_isspace
 1919              	.LVL240:
ARM GAS  C:\Users\AHMED~1.ELE\AppData\Local\Temp\ccbrMpYT.s 			page 85


 1920 06b4 0028     		cmp	r0, #0
 1921 06b6 F3D1     		bne	.L198
2158:src/mxml-file.c ****     {
 1922              		.loc 1 2158 0
 1923 06b8 2F2F     		cmp	r7, #47
 1924 06ba 01D0     		beq	.L283
 1925 06bc 3F2F     		cmp	r7, #63
 1926 06be 0FD1     		bne	.L200
 1927              	.L283:
2164:src/mxml-file.c **** 
 1928              		.loc 1 2164 0
 1929 06c0 3046     		mov	r0, r6
 1930 06c2 08A9     		add	r1, sp, #32
 1931              	.LVL241:
 1932 06c4 FFF7FEFF 		bl	mxml_string_getc
 1933              	.LVL242:
2158:src/mxml-file.c ****     {
 1934              		.loc 1 2158 0
 1935 06c8 BB46     		mov	fp, r7
2166:src/mxml-file.c ****       {
 1936              		.loc 1 2166 0
 1937 06ca 3E28     		cmp	r0, #62
2164:src/mxml-file.c **** 
 1938              		.loc 1 2164 0
 1939 06cc 0346     		mov	r3, r0
 1940              	.LVL243:
2166:src/mxml-file.c ****       {
 1941              		.loc 1 2166 0
 1942 06ce 3FF464AE 		beq	.L201
2168:src/mxml-file.c **** 	           ch, node->value.element.name, quote);
 1943              		.loc 1 2168 0
 1944 06d2 9348     		ldr	r0, .L538+20
 1945              	.LVL244:
 1946 06d4 3946     		mov	r1, r7
 1947 06d6 D8F81820 		ldr	r2, [r8, #24]
 1948 06da FFF7FEFF 		bl	mxml_error
 1949              	.LVL245:
 1950 06de F8E0     		b	.L202
 1951              	.L200:
2175:src/mxml-file.c ****     {
 1952              		.loc 1 2175 0
 1953 06e0 3C2F     		cmp	r7, #60
 1954 06e2 7FF455AE 		bne	.L203
2177:src/mxml-file.c ****       goto error;
 1955              		.loc 1 2177 0
 1956 06e6 8F48     		ldr	r0, .L538+24
 1957 06e8 D8F81810 		ldr	r1, [r8, #24]
 1958 06ec FFF7FEFF 		bl	mxml_error
 1959              	.LVL246:
 1960 06f0 EFE0     		b	.L202
 1961              	.L204:
2187:src/mxml-file.c ****     ptr     = name + 1;
 1962              		.loc 1 2187 0
 1963 06f2 099B     		ldr	r3, [sp, #36]
2190:src/mxml-file.c ****     {
 1964              		.loc 1 2190 0
 1965 06f4 222F     		cmp	r7, #34
ARM GAS  C:\Users\AHMED~1.ELE\AppData\Local\Temp\ccbrMpYT.s 			page 86


2187:src/mxml-file.c ****     ptr     = name + 1;
 1966              		.loc 1 2187 0
 1967 06f6 1F70     		strb	r7, [r3]
2188:src/mxml-file.c **** 
 1968              		.loc 1 2188 0
 1969 06f8 099B     		ldr	r3, [sp, #36]
 1970 06fa 03F10103 		add	r3, r3, #1
 1971 06fe 0B93     		str	r3, [sp, #44]
2190:src/mxml-file.c ****     {
 1972              		.loc 1 2190 0
 1973 0700 10D0     		beq	.L418
 1974 0702 272F     		cmp	r7, #39
 1975 0704 37D1     		bne	.L206
 1976 0706 0DE0     		b	.L418
 1977              	.LVL247:
 1978              	.L210:
2200:src/mxml-file.c **** 	  if ((ch = mxml_get_entity(node, p, encoding, getc_cb)) == EOF)
 1979              		.loc 1 2200 0
 1980 0708 BBF1260F 		cmp	fp, #38
 1981 070c 13D0     		beq	.L529
 1982              	.L207:
2204:src/mxml-file.c **** 	  goto error;
 1983              		.loc 1 2204 0
 1984 070e 5846     		mov	r0, fp
 1985 0710 0BA9     		add	r1, sp, #44
 1986 0712 09AA     		add	r2, sp, #36
 1987 0714 0CAB     		add	r3, sp, #48
 1988 0716 FFF7FEFF 		bl	mxml_add_char
 1989              	.LVL248:
 1990 071a 0028     		cmp	r0, #0
 1991 071c 40F0D980 		bne	.L202
2207:src/mxml-file.c ****           break;
 1992              		.loc 1 2207 0
 1993 0720 BB45     		cmp	fp, r7
 1994 0722 3BD0     		beq	.L209
 1995              	.LVL249:
 1996              	.L418:
2198:src/mxml-file.c ****       {
 1997              		.loc 1 2198 0
 1998 0724 3046     		mov	r0, r6
 1999 0726 08A9     		add	r1, sp, #32
 2000              	.LVL250:
 2001 0728 FFF7FEFF 		bl	mxml_string_getc
 2002              	.LVL251:
 2003 072c B0F1FF3F 		cmp	r0, #-1
 2004 0730 8346     		mov	fp, r0
 2005              	.LVL252:
 2006 0732 E9D1     		bne	.L210
 2007 0734 26E0     		b	.L213
 2008              	.L529:
2201:src/mxml-file.c **** 	    goto error;
 2009              		.loc 1 2201 0
 2010 0736 4046     		mov	r0, r8
 2011              	.LVL253:
 2012 0738 3146     		mov	r1, r6
 2013 073a 08AA     		add	r2, sp, #32
 2014              	.LVL254:
ARM GAS  C:\Users\AHMED~1.ELE\AppData\Local\Temp\ccbrMpYT.s 			page 87


 2015 073c FFF7FEFF 		bl	mxml_get_entity.constprop.3
 2016              	.LVL255:
 2017 0740 B0F1FF3F 		cmp	r0, #-1
 2018 0744 8346     		mov	fp, r0
 2019              	.LVL256:
 2020 0746 E2D1     		bne	.L207
 2021 0748 C3E0     		b	.L202
 2022              	.L212:
2218:src/mxml-file.c **** 	    ch == '?')
 2023              		.loc 1 2218 0
 2024 074a FFF7FEFF 		bl	mxml_isspace
 2025              	.LVL257:
 2026 074e 28BB     		cbnz	r0, .L209
 2027 0750 3D2F     		cmp	r7, #61
 2028 0752 23D0     		beq	.L209
 2029 0754 2F2F     		cmp	r7, #47
 2030 0756 21D0     		beq	.L209
 2031 0758 3E2F     		cmp	r7, #62
 2032 075a 1FD0     		beq	.L209
 2033 075c 3F2F     		cmp	r7, #63
 2034 075e 1DD0     		beq	.L209
2223:src/mxml-file.c **** 	    if ((ch = mxml_get_entity(node, p, encoding, getc_cb)) == EOF)
 2035              		.loc 1 2223 0
 2036 0760 262F     		cmp	r7, #38
 2037 0762 12D0     		beq	.L530
 2038              	.L211:
2227:src/mxml-file.c **** 	    goto error;
 2039              		.loc 1 2227 0
 2040 0764 3846     		mov	r0, r7
 2041 0766 0BA9     		add	r1, sp, #44
 2042 0768 09AA     		add	r2, sp, #36
 2043 076a 0CAB     		add	r3, sp, #48
 2044 076c FFF7FEFF 		bl	mxml_add_char
 2045              	.LVL258:
 2046 0770 0028     		cmp	r0, #0
 2047 0772 40F0AE80 		bne	.L202
 2048              	.L206:
2217:src/mxml-file.c **** 	if (mxml_isspace(ch) || ch == '=' || ch == '/' || ch == '>' ||
 2049              		.loc 1 2217 0
 2050 0776 3046     		mov	r0, r6
 2051 0778 08A9     		add	r1, sp, #32
 2052              	.LVL259:
 2053 077a FFF7FEFF 		bl	mxml_string_getc
 2054              	.LVL260:
 2055 077e 431C     		adds	r3, r0, #1
 2056 0780 0746     		mov	r7, r0
 2057              	.LVL261:
 2058 0782 E2D1     		bne	.L212
 2059              	.L213:
2158:src/mxml-file.c ****     {
 2060              		.loc 1 2158 0
 2061 0784 4FF0FF37 		mov	r7, #-1
 2062 0788 08E0     		b	.L209
 2063              	.LVL262:
 2064              	.L530:
2224:src/mxml-file.c **** 	      goto error;
 2065              		.loc 1 2224 0
ARM GAS  C:\Users\AHMED~1.ELE\AppData\Local\Temp\ccbrMpYT.s 			page 88


 2066 078a 08AA     		add	r2, sp, #32
 2067              	.LVL263:
 2068 078c 4046     		mov	r0, r8
 2069 078e 3146     		mov	r1, r6
 2070 0790 FFF7FEFF 		bl	mxml_get_entity.constprop.3
 2071              	.LVL264:
 2072 0794 421C     		adds	r2, r0, #1
 2073 0796 0746     		mov	r7, r0
 2074              	.LVL265:
 2075 0798 E4D1     		bne	.L211
 2076 079a 9AE0     		b	.L202
 2077              	.LVL266:
 2078              	.L209:
2232:src/mxml-file.c **** 
 2079              		.loc 1 2232 0
 2080 079c 0022     		movs	r2, #0
 2081 079e 0B9B     		ldr	r3, [sp, #44]
2234:src/mxml-file.c ****       goto error;
 2082              		.loc 1 2234 0
 2083 07a0 4046     		mov	r0, r8
2232:src/mxml-file.c **** 
 2084              		.loc 1 2232 0
 2085 07a2 1A70     		strb	r2, [r3]
2234:src/mxml-file.c ****       goto error;
 2086              		.loc 1 2234 0
 2087 07a4 0999     		ldr	r1, [sp, #36]
 2088 07a6 FFF7FEFF 		bl	mxmlElementGetAttr
 2089              	.LVL267:
 2090 07aa 0028     		cmp	r0, #0
 2091 07ac 40F09180 		bne	.L202
 2092              	.L214:
2237:src/mxml-file.c ****       ch = (*getc_cb)(p, encoding);
 2093              		.loc 1 2237 0
 2094 07b0 791C     		adds	r1, r7, #1
 2095 07b2 00F08880 		beq	.L217
 2096 07b6 3846     		mov	r0, r7
 2097 07b8 FFF7FEFF 		bl	mxml_isspace
 2098              	.LVL268:
 2099 07bc 28B1     		cbz	r0, .L531
2238:src/mxml-file.c **** 
 2100              		.loc 1 2238 0
 2101 07be 3046     		mov	r0, r6
 2102 07c0 08A9     		add	r1, sp, #32
 2103              	.LVL269:
 2104 07c2 FFF7FEFF 		bl	mxml_string_getc
 2105              	.LVL270:
 2106 07c6 0746     		mov	r7, r0
 2107              	.LVL271:
 2108 07c8 F2E7     		b	.L214
 2109              	.LVL272:
 2110              	.L531:
2240:src/mxml-file.c ****     {
 2111              		.loc 1 2240 0
 2112 07ca 3D2F     		cmp	r7, #61
 2113 07cc 7BD1     		bne	.L217
 2114              	.LVL273:
 2115              	.L218:
ARM GAS  C:\Users\AHMED~1.ELE\AppData\Local\Temp\ccbrMpYT.s 			page 89


2246:src/mxml-file.c **** 
 2116              		.loc 1 2246 0
 2117 07ce 3046     		mov	r0, r6
 2118 07d0 08A9     		add	r1, sp, #32
 2119              	.LVL274:
 2120 07d2 FFF7FEFF 		bl	mxml_string_getc
 2121              	.LVL275:
 2122 07d6 B0F1FF3F 		cmp	r0, #-1
 2123 07da 8346     		mov	fp, r0
 2124              	.LVL276:
 2125 07dc 73D0     		beq	.L217
 2126 07de FFF7FEFF 		bl	mxml_isspace
 2127              	.LVL277:
 2128 07e2 0028     		cmp	r0, #0
 2129 07e4 F3D1     		bne	.L218
2255:src/mxml-file.c ****       {
 2130              		.loc 1 2255 0
 2131 07e6 BBF1270F 		cmp	fp, #39
2246:src/mxml-file.c **** 
 2132              		.loc 1 2246 0
 2133 07ea 5F46     		mov	r7, fp
 2134 07ec 0A9B     		ldr	r3, [sp, #40]
2255:src/mxml-file.c ****       {
 2135              		.loc 1 2255 0
 2136 07ee 02D0     		beq	.L257
 2137 07f0 BBF1220F 		cmp	fp, #34
 2138 07f4 1BD1     		bne	.L220
 2139              	.L257:
 2140              	.LVL278:
2262:src/mxml-file.c **** 
 2141              		.loc 1 2262 0
 2142 07f6 0B93     		str	r3, [sp, #44]
 2143              	.LVL279:
 2144              	.L221:
2264:src/mxml-file.c **** 	  if (ch == quote)
 2145              		.loc 1 2264 0
 2146 07f8 3046     		mov	r0, r6
 2147 07fa 08A9     		add	r1, sp, #32
 2148              	.LVL280:
 2149 07fc FFF7FEFF 		bl	mxml_string_getc
 2150              	.LVL281:
 2151 0800 431C     		adds	r3, r0, #1
 2152 0802 12D0     		beq	.L532
2265:src/mxml-file.c **** 	    break;
 2153              		.loc 1 2265 0
 2154 0804 5845     		cmp	r0, fp
 2155 0806 3AD0     		beq	.L227
2269:src/mxml-file.c **** 	      if ((ch = mxml_get_entity(node, p, encoding, getc_cb)) == EOF)
 2156              		.loc 1 2269 0
 2157 0808 2628     		cmp	r0, #38
 2158 080a 06D1     		bne	.L223
2270:src/mxml-file.c **** 	        goto error;
 2159              		.loc 1 2270 0
 2160 080c 08AA     		add	r2, sp, #32
 2161              	.LVL282:
 2162 080e 4046     		mov	r0, r8
 2163              	.LVL283:
ARM GAS  C:\Users\AHMED~1.ELE\AppData\Local\Temp\ccbrMpYT.s 			page 90


 2164 0810 3146     		mov	r1, r6
 2165 0812 FFF7FEFF 		bl	mxml_get_entity.constprop.3
 2166              	.LVL284:
 2167 0816 421C     		adds	r2, r0, #1
 2168 0818 5BD0     		beq	.L202
 2169              	.L223:
2273:src/mxml-file.c **** 	      goto error;
 2170              		.loc 1 2273 0
 2171 081a 0BA9     		add	r1, sp, #44
 2172 081c 0AAA     		add	r2, sp, #40
 2173 081e 0DAB     		add	r3, sp, #52
 2174 0820 FFF7FEFF 		bl	mxml_add_char
 2175              	.LVL285:
 2176 0824 0028     		cmp	r0, #0
 2177 0826 E7D0     		beq	.L221
 2178 0828 53E0     		b	.L202
 2179              	.LVL286:
 2180              	.L532:
2264:src/mxml-file.c **** 	  if (ch == quote)
 2181              		.loc 1 2264 0
 2182 082a 0746     		mov	r7, r0
 2183              	.LVL287:
 2184 082c 27E0     		b	.L227
 2185              	.LVL288:
 2186              	.L220:
2285:src/mxml-file.c **** 	ptr      = value + 1;
 2187              		.loc 1 2285 0
 2188 082e 83F800B0 		strb	fp, [r3]
2286:src/mxml-file.c **** 
 2189              		.loc 1 2286 0
 2190 0832 0A9B     		ldr	r3, [sp, #40]
 2191 0834 0133     		adds	r3, r3, #1
 2192 0836 0B93     		str	r3, [sp, #44]
 2193              	.L226:
2288:src/mxml-file.c **** 	  if (mxml_isspace(ch) || ch == '=' || ch == '/' || ch == '>')
 2194              		.loc 1 2288 0
 2195 0838 08A9     		add	r1, sp, #32
 2196              	.LVL289:
 2197 083a 3046     		mov	r0, r6
 2198 083c FFF7FEFF 		bl	mxml_string_getc
 2199              	.LVL290:
 2200 0840 411C     		adds	r1, r0, #1
 2201 0842 0746     		mov	r7, r0
 2202              	.LVL291:
 2203 0844 1BD0     		beq	.L227
2289:src/mxml-file.c ****             break;
 2204              		.loc 1 2289 0
 2205 0846 FFF7FEFF 		bl	mxml_isspace
 2206              	.LVL292:
 2207 084a C0B9     		cbnz	r0, .L227
 2208 084c 3D2F     		cmp	r7, #61
 2209 084e 16D0     		beq	.L227
 2210 0850 2F2F     		cmp	r7, #47
 2211 0852 14D0     		beq	.L227
 2212 0854 3E2F     		cmp	r7, #62
 2213 0856 12D0     		beq	.L227
2293:src/mxml-file.c **** 	      if ((ch = mxml_get_entity(node, p, encoding, getc_cb)) == EOF)
ARM GAS  C:\Users\AHMED~1.ELE\AppData\Local\Temp\ccbrMpYT.s 			page 91


 2214              		.loc 1 2293 0
 2215 0858 262F     		cmp	r7, #38
 2216 085a 07D1     		bne	.L228
2294:src/mxml-file.c **** 	        goto error;
 2217              		.loc 1 2294 0
 2218 085c 4046     		mov	r0, r8
 2219 085e 3146     		mov	r1, r6
 2220 0860 08AA     		add	r2, sp, #32
 2221              	.LVL293:
 2222 0862 FFF7FEFF 		bl	mxml_get_entity.constprop.3
 2223              	.LVL294:
 2224 0866 0746     		mov	r7, r0
 2225              	.LVL295:
 2226 0868 0130     		adds	r0, r0, #1
 2227              	.LVL296:
 2228 086a 32D0     		beq	.L202
 2229              	.L228:
2297:src/mxml-file.c **** 	      goto error;
 2230              		.loc 1 2297 0
 2231 086c 3846     		mov	r0, r7
 2232 086e 0BA9     		add	r1, sp, #44
 2233 0870 0AAA     		add	r2, sp, #40
 2234 0872 0DAB     		add	r3, sp, #52
 2235 0874 FFF7FEFF 		bl	mxml_add_char
 2236              	.LVL297:
 2237 0878 0028     		cmp	r0, #0
 2238 087a DDD0     		beq	.L226
 2239 087c 29E0     		b	.L202
 2240              	.LVL298:
 2241              	.L227:
2301:src/mxml-file.c ****       }
 2242              		.loc 1 2301 0
 2243 087e 0022     		movs	r2, #0
 2244 0880 0B9B     		ldr	r3, [sp, #44]
2308:src/mxml-file.c ****     }
 2245              		.loc 1 2308 0
 2246 0882 4046     		mov	r0, r8
2301:src/mxml-file.c ****       }
 2247              		.loc 1 2301 0
 2248 0884 1A70     		strb	r2, [r3]
 2249              	.LVL299:
2308:src/mxml-file.c ****     }
 2250              		.loc 1 2308 0
 2251 0886 0999     		ldr	r1, [sp, #36]
 2252 0888 0A9A     		ldr	r2, [sp, #40]
 2253 088a FFF7FEFF 		bl	mxmlElementSetAttr
 2254              	.LVL300:
2321:src/mxml-file.c ****     {
 2255              		.loc 1 2321 0
 2256 088e 2F2F     		cmp	r7, #47
 2257 0890 01D0     		beq	.L284
 2258 0892 3F2F     		cmp	r7, #63
 2259 0894 11D1     		bne	.L232
 2260              	.L284:
2327:src/mxml-file.c **** 
 2261              		.loc 1 2327 0
 2262 0896 3046     		mov	r0, r6
ARM GAS  C:\Users\AHMED~1.ELE\AppData\Local\Temp\ccbrMpYT.s 			page 92


 2263 0898 08A9     		add	r1, sp, #32
 2264              	.LVL301:
 2265 089a FFF7FEFF 		bl	mxml_string_getc
 2266              	.LVL302:
2321:src/mxml-file.c ****     {
 2267              		.loc 1 2321 0
 2268 089e BB46     		mov	fp, r7
2329:src/mxml-file.c ****       {
 2269              		.loc 1 2329 0
 2270 08a0 3E28     		cmp	r0, #62
2327:src/mxml-file.c **** 
 2271              		.loc 1 2327 0
 2272 08a2 0346     		mov	r3, r0
 2273              	.LVL303:
2329:src/mxml-file.c ****       {
 2274              		.loc 1 2329 0
 2275 08a4 3FF479AD 		beq	.L201
2331:src/mxml-file.c **** 	           ch, node->value.element.name, quote);
 2276              		.loc 1 2331 0
 2277 08a8 1D48     		ldr	r0, .L538+20
 2278              	.LVL304:
 2279 08aa 3946     		mov	r1, r7
 2280 08ac D8F81820 		ldr	r2, [r8, #24]
 2281 08b0 FFF7FEFF 		bl	mxml_error
 2282              	.LVL305:
2333:src/mxml-file.c ****       }
 2283              		.loc 1 2333 0
 2284 08b4 4FF0FF3B 		mov	fp, #-1
 2285 08b8 6FE5     		b	.L201
 2286              	.LVL306:
 2287              	.L232:
2338:src/mxml-file.c ****       break;
 2288              		.loc 1 2338 0
 2289 08ba 3E2F     		cmp	r7, #62
 2290 08bc 7FF4F0AE 		bne	.L198
 2291 08c0 69E5     		b	.L233
 2292              	.LVL307:
 2293              	.L528:
2141:src/mxml-file.c ****   {
 2294              		.loc 1 2141 0
 2295 08c2 8346     		mov	fp, r0
 2296 08c4 69E5     		b	.L201
 2297              	.LVL308:
 2298              	.L217:
2250:src/mxml-file.c **** 	           name, node->value.element.name);
 2299              		.loc 1 2250 0
 2300 08c6 1848     		ldr	r0, .L538+28
 2301 08c8 0999     		ldr	r1, [sp, #36]
 2302 08ca D8F81820 		ldr	r2, [r8, #24]
 2303 08ce FFF7FEFF 		bl	mxml_error
 2304              	.LVL309:
 2305              	.L202:
2357:src/mxml-file.c ****   os_free(value);
 2306              		.loc 1 2357 0
 2307 08d2 0999     		ldr	r1, [sp, #36]
 2308 08d4 9420     		movs	r0, #148
 2309 08d6 FFF7FEFF 		bl	sys_func1
ARM GAS  C:\Users\AHMED~1.ELE\AppData\Local\Temp\ccbrMpYT.s 			page 93


 2310              	.LVL310:
2358:src/mxml-file.c **** 
 2311              		.loc 1 2358 0
 2312 08da 0A99     		ldr	r1, [sp, #40]
 2313 08dc 9420     		movs	r0, #148
 2314 08de FFF7FEFF 		bl	sys_func1
 2315              	.LVL311:
 2316 08e2 A6E5     		b	.L121
 2317              	.LVL312:
 2318              	.L193:
 2319              	.LBE16:
 2320              	.LBE17:
1980:src/mxml-file.c **** 	{
 2321              		.loc 1 1980 0
 2322 08e4 BBF12F0F 		cmp	fp, #47
 2323 08e8 7FF462AD 		bne	.L235
1982:src/mxml-file.c **** 	  {
 2324              		.loc 1 1982 0
 2325 08ec 08A9     		add	r1, sp, #32
 2326 08ee 3046     		mov	r0, r6
 2327 08f0 FFF7FEFF 		bl	mxml_string_getc
 2328              	.LVL313:
 2329 08f4 3E28     		cmp	r0, #62
 2330 08f6 0146     		mov	r1, r0
 2331              	.LVL314:
 2332 08f8 3FF45AAD 		beq	.L235
1984:src/mxml-file.c **** 	               ch, buffer);
 2333              		.loc 1 1984 0
 2334 08fc 0B48     		ldr	r0, .L538+32
 2335              	.LVL315:
 2336 08fe 059A     		ldr	r2, [sp, #20]
 2337 0900 FFF7FEFF 		bl	mxml_error
 2338              	.LVL316:
1986:src/mxml-file.c ****             goto error;
 2339              		.loc 1 1986 0
 2340 0904 4046     		mov	r0, r8
 2341 0906 FFF7FEFF 		bl	mxmlDelete
 2342              	.LVL317:
 2343 090a 92E5     		b	.L121
 2344              	.L539:
 2345              		.align	2
 2346              	.L538:
 2347 090c 4A020000 		.word	.LC19
 2348 0910 93000000 		.word	.LC3
 2349 0914 64030000 		.word	.LC26
 2350 0918 8F030000 		.word	.LC27
 2351 091c B3030000 		.word	.LC28
 2352 0920 D8030000 		.word	.LC29
 2353 0924 0E040000 		.word	.LC30
 2354 0928 24040000 		.word	.LC31
 2355 092c 54040000 		.word	.LC32
 2356              	.LVL318:
 2357              	.L523:
2002:src/mxml-file.c **** 	{
 2358              		.loc 1 2002 0
 2359 0930 BBF12F0F 		cmp	fp, #47
 2360 0934 05D0     		beq	.L238
ARM GAS  C:\Users\AHMED~1.ELE\AppData\Local\Temp\ccbrMpYT.s 			page 94


 2361              	.LVL319:
2010:src/mxml-file.c **** 	    type = (*cb)(parent);
 2362              		.loc 1 2010 0
 2363 0936 019B     		ldr	r3, [sp, #4]
 2364 0938 B3B1     		cbz	r3, .L286
 2365              	.LVL320:
 2366              	.L507:
2011:src/mxml-file.c **** 	}
 2367              		.loc 1 2011 0
 2368 093a 4046     		mov	r0, r8
 2369 093c 9847     		blx	r3
 2370              	.LVL321:
 2371 093e 8146     		mov	r9, r0
 2372              	.LVL322:
 2373 0940 12E0     		b	.L286
 2374              	.LVL323:
 2375              	.L238:
2013:src/mxml-file.c ****         {
 2376              		.loc 1 2013 0
 2377 0942 BAF1000F 		cmp	r10, #0
 2378 0946 3FF4F4AB 		beq	.L153
2015:src/mxml-file.c **** 
 2379              		.loc 1 2015 0
 2380 094a 4046     		mov	r0, r8
 2381 094c 0421     		movs	r1, #4
 2382 094e 189A     		ldr	r2, [sp, #96]
 2383 0950 D047     		blx	r10
 2384              	.LVL324:
2017:src/mxml-file.c ****             first = NULL;
 2385              		.loc 1 2017 0
 2386 0952 4046     		mov	r0, r8
 2387 0954 FFF7FEFF 		bl	mxmlRelease
 2388              	.LVL325:
 2389 0958 0028     		cmp	r0, #0
 2390 095a 7FF4EAAB 		bne	.L153
2018:src/mxml-file.c ****         }
 2391              		.loc 1 2018 0
 2392 095e 4545     		cmp	r5, r8
 2393 0960 08BF     		it	eq
 2394 0962 0025     		moveq	r5, #0
 2395              	.LVL326:
 2396 0964 FFF7E5BB 		b	.L153
 2397              	.LVL327:
 2398              	.L286:
2010:src/mxml-file.c **** 	    type = (*cb)(parent);
 2399              		.loc 1 2010 0
 2400 0968 4446     		mov	r4, r8
 2401 096a FFF7E2BB 		b	.L153
 2402              	.LVL328:
 2403              	.L518:
1647:src/mxml-file.c **** 	{
 2404              		.loc 1 1647 0
 2405 096e 2646     		mov	r6, r4
 2406              	.LVL329:
1653:src/mxml-file.c **** 	             parent ? parent->value.element.name : "null");
 2407              		.loc 1 1653 0
 2408 0970 0CB1     		cbz	r4, .L274
ARM GAS  C:\Users\AHMED~1.ELE\AppData\Local\Temp\ccbrMpYT.s 			page 95


 2409 0972 A169     		ldr	r1, [r4, #24]
 2410 0974 00E0     		b	.L151
 2411              	.L274:
 2412 0976 3A49     		ldr	r1, .L540
 2413              	.L151:
 2414 0978 3A48     		ldr	r0, .L540+4
 2415              	.LVL330:
 2416 097a FFF7FEFF 		bl	mxml_error
 2417              	.LVL331:
 2418 097e 26E5     		b	.L117
 2419              	.LVL332:
 2420              	.L517:
1625:src/mxml-file.c **** 	  goto error;
 2421              		.loc 1 1625 0
 2422 0980 3948     		ldr	r0, .L540+8
 2423              	.LVL333:
 2424              	.L499:
 2425 0982 FFF7FEFF 		bl	mxml_error
 2426              	.LVL334:
 2427 0986 54E5     		b	.L121
 2428              	.LVL335:
 2429              	.L160:
1715:src/mxml-file.c **** 	{
 2430              		.loc 1 1715 0
 2431 0988 2046     		mov	r0, r4
 2432 098a 0599     		ldr	r1, [sp, #20]
 2433 098c FFF7FEFF 		bl	mxmlNewElement
 2434              	.LVL336:
 2435 0990 8046     		mov	r8, r0
 2436              	.LVL337:
 2437 0992 28B9     		cbnz	r0, .L161
1721:src/mxml-file.c **** 	             parent ? parent->value.element.name : "null");
 2438              		.loc 1 1721 0
 2439 0994 0CB1     		cbz	r4, .L275
 2440 0996 A169     		ldr	r1, [r4, #24]
 2441 0998 00E0     		b	.L162
 2442              	.L275:
 2443 099a 3149     		ldr	r1, .L540
 2444              	.L162:
 2445 099c 3348     		ldr	r0, .L540+12
 2446              	.LVL338:
 2447 099e 5FE6     		b	.L502
 2448              	.LVL339:
 2449              	.L161:
1726:src/mxml-file.c ****         {
 2450              		.loc 1 1726 0
 2451 09a0 BAF1000F 		cmp	r10, #0
 2452 09a4 04D0     		beq	.L163
1728:src/mxml-file.c **** 
 2453              		.loc 1 1728 0
 2454 09a6 0021     		movs	r1, #0
 2455 09a8 FFF7BBBB 		b	.L509
 2456              	.LVL340:
 2457              	.L522:
1693:src/mxml-file.c **** 	  goto error;
 2458              		.loc 1 1693 0
 2459 09ac 3048     		ldr	r0, .L540+16
ARM GAS  C:\Users\AHMED~1.ELE\AppData\Local\Temp\ccbrMpYT.s 			page 96


 2460              	.LVL341:
 2461 09ae E8E7     		b	.L499
 2462              	.LVL342:
 2463              	.L163:
1734:src/mxml-file.c **** 	  first = node;
 2464              		.loc 1 1734 0
 2465 09b0 002D     		cmp	r5, #0
 2466 09b2 08BF     		it	eq
 2467 09b4 4546     		moveq	r5, r8
 2468              	.LVL343:
 2469 09b6 FFF7BCBB 		b	.L153
 2470              	.LVL344:
 2471              	.L526:
1761:src/mxml-file.c **** 	  goto error;
 2472              		.loc 1 1761 0
 2473 09ba 2E48     		ldr	r0, .L540+20
 2474              	.LVL345:
 2475 09bc E1E7     		b	.L499
 2476              	.LVL346:
 2477              	.L167:
1769:src/mxml-file.c **** 
 2478              		.loc 1 1769 0
 2479 09be 0022     		movs	r2, #0
 2480 09c0 1A70     		strb	r2, [r3]
1771:src/mxml-file.c **** 	{
 2481              		.loc 1 1771 0
 2482 09c2 14B9     		cbnz	r4, .L170
 2483 09c4 002D     		cmp	r5, #0
 2484 09c6 7FF4DDAC 		bne	.L501
 2485              	.L170:
1782:src/mxml-file.c **** 	{
 2486              		.loc 1 1782 0
 2487 09ca 2046     		mov	r0, r4
 2488              	.LVL347:
 2489 09cc 0599     		ldr	r1, [sp, #20]
 2490              	.LVL348:
 2491 09ce FFF7FEFF 		bl	mxmlNewElement
 2492              	.LVL349:
 2493 09d2 8046     		mov	r8, r0
 2494 09d4 90B9     		cbnz	r0, .L180
1788:src/mxml-file.c **** 	             parent ? parent->value.element.name : "null");
 2495              		.loc 1 1788 0
 2496 09d6 0CB1     		cbz	r4, .L276
 2497 09d8 A169     		ldr	r1, [r4, #24]
 2498 09da 00E0     		b	.L172
 2499              	.L276:
 2500 09dc 2049     		ldr	r1, .L540
 2501              	.L172:
 2502 09de 2648     		ldr	r0, .L540+24
 2503              	.LVL350:
 2504 09e0 3EE6     		b	.L502
 2505              	.LVL351:
 2506              	.L175:
1857:src/mxml-file.c **** 
 2507              		.loc 1 1857 0
 2508 09e2 0022     		movs	r2, #0
 2509 09e4 069B     		ldr	r3, [sp, #24]
ARM GAS  C:\Users\AHMED~1.ELE\AppData\Local\Temp\ccbrMpYT.s 			page 97


 2510 09e6 1A70     		strb	r2, [r3]
1859:src/mxml-file.c **** 	{
 2511              		.loc 1 1859 0
 2512 09e8 14B9     		cbnz	r4, .L179
 2513 09ea 002D     		cmp	r5, #0
 2514 09ec 7FF4CAAC 		bne	.L501
 2515              	.L179:
1870:src/mxml-file.c **** 	{
 2516              		.loc 1 1870 0
 2517 09f0 2046     		mov	r0, r4
 2518 09f2 0599     		ldr	r1, [sp, #20]
 2519 09f4 FFF7FEFF 		bl	mxmlNewElement
 2520              	.LVL352:
 2521 09f8 8046     		mov	r8, r0
 2522 09fa 60B1     		cbz	r0, .L533
 2523              	.LVL353:
 2524              	.L180:
1881:src/mxml-file.c ****         {
 2525              		.loc 1 1881 0
 2526 09fc BAF1000F 		cmp	r10, #0
 2527 0a00 0FD0     		beq	.L182
1883:src/mxml-file.c **** 
 2528              		.loc 1 1883 0
 2529 0a02 0321     		movs	r1, #3
 2530 0a04 189A     		ldr	r2, [sp, #96]
 2531 0a06 D047     		blx	r10
 2532              	.LVL354:
1885:src/mxml-file.c ****             node = NULL;
 2533              		.loc 1 1885 0
 2534 0a08 4046     		mov	r0, r8
 2535 0a0a FFF7FEFF 		bl	mxmlRelease
 2536              	.LVL355:
 2537 0a0e 0028     		cmp	r0, #0
 2538 0a10 3FF48FAB 		beq	.L153
 2539 0a14 05E0     		b	.L182
 2540              	.LVL356:
 2541              	.L533:
1876:src/mxml-file.c **** 	             parent ? parent->value.element.name : "null");
 2542              		.loc 1 1876 0
 2543 0a16 0CB1     		cbz	r4, .L278
 2544 0a18 A169     		ldr	r1, [r4, #24]
 2545 0a1a 00E0     		b	.L181
 2546              	.L278:
 2547 0a1c 1049     		ldr	r1, .L540
 2548              	.L181:
 2549 0a1e 1748     		ldr	r0, .L540+28
 2550              	.LVL357:
 2551 0a20 1EE6     		b	.L502
 2552              	.LVL358:
 2553              	.L182:
1891:src/mxml-file.c ****             first = node;
 2554              		.loc 1 1891 0
 2555 0a22 002D     		cmp	r5, #0
 2556 0a24 08BF     		it	eq
 2557 0a26 4546     		moveq	r5, r8
 2558              	.LVL359:
1894:src/mxml-file.c **** 	  {
ARM GAS  C:\Users\AHMED~1.ELE\AppData\Local\Temp\ccbrMpYT.s 			page 98


 2559              		.loc 1 1894 0
 2560 0a28 002C     		cmp	r4, #0
 2561 0a2a 7FF482AB 		bne	.L153
 2562              	.LVL360:
1898:src/mxml-file.c **** 	      type = (*cb)(parent);
 2563              		.loc 1 1898 0
 2564 0a2e 019B     		ldr	r3, [sp, #4]
 2565 0a30 002B     		cmp	r3, #0
 2566 0a32 82D1     		bne	.L507
 2567 0a34 4446     		mov	r4, r8
1901:src/mxml-file.c **** 	  }
 2568              		.loc 1 1901 0
 2569 0a36 4FF00409 		mov	r9, #4
 2570              	.LVL361:
 2571 0a3a FFF77ABB 		b	.L153
 2572              	.LVL362:
 2573              	.L492:
1539:src/mxml-file.c **** 
 2574              		.loc 1 1539 0
 2575 0a3e 0123     		movs	r3, #1
2024:src/mxml-file.c ****     {
 2576              		.loc 1 2024 0
 2577 0a40 B8F1260F 		cmp	r8, #38
1539:src/mxml-file.c **** 
 2578              		.loc 1 1539 0
 2579 0a44 0093     		str	r3, [sp]
2024:src/mxml-file.c ****     {
 2580              		.loc 1 2024 0
 2581 0a46 7FF420AD 		bne	.L259
 2582 0a4a 10E5     		b	.L249
 2583              	.LVL363:
 2584              	.L527:
1917:src/mxml-file.c **** 	             buffer, parent ? parent->value.element.name : "(null)");
 2585              		.loc 1 1917 0
 2586 0a4c A269     		ldr	r2, [r4, #24]
 2587              	.L260:
 2588 0a4e 0C48     		ldr	r0, .L540+32
 2589 0a50 4146     		mov	r1, r8
 2590 0a52 9AE4     		b	.L500
 2591              	.L184:
 2592 0a54 0B4A     		ldr	r2, .L540+36
 2593 0a56 FAE7     		b	.L260
 2594              	.LVL364:
 2595              	.L483:
2093:src/mxml-file.c **** 
 2596              		.loc 1 2093 0
 2597 0a58 0FB0     		add	sp, sp, #60
 2598              		.cfi_def_cfa_offset 36
 2599              		@ sp needed
 2600 0a5a BDE8F08F 		pop	{r4, r5, r6, r7, r8, r9, r10, fp, pc}
 2601              	.LVL365:
 2602              	.L541:
 2603 0a5e 00BF     		.align	2
 2604              	.L540:
 2605 0a60 93000000 		.word	.LC3
 2606 0a64 77020000 		.word	.LC20
 2607 0a68 B2040000 		.word	.LC34
ARM GAS  C:\Users\AHMED~1.ELE\AppData\Local\Temp\ccbrMpYT.s 			page 99


 2608 0a6c A5020000 		.word	.LC22
 2609 0a70 CD040000 		.word	.LC35
 2610 0a74 E6040000 		.word	.LC36
 2611 0a78 CE020000 		.word	.LC23
 2612 0a7c 08030000 		.word	.LC24
 2613 0a80 37030000 		.word	.LC25
 2614 0a84 84010000 		.word	.LC10
 2615              		.cfi_endproc
 2616              	.LFE15:
 2617              		.size	mxml_load_data.constprop.1, .-mxml_load_data.constprop.1
 2618              		.section	.text.mxmlLoadString,"ax",%progbits
 2619              		.align	1
 2620              		.global	mxmlLoadString
 2621              		.thumb
 2622              		.thumb_func
 2623              		.type	mxmlLoadString, %function
 2624              	mxmlLoadString:
 2625              	.LFB2:
 196:src/mxml-file.c ****  /*
 2626              		.loc 1 196 0
 2627              		.cfi_startproc
 2628              		@ args = 0, pretend = 0, frame = 8
 2629              		@ frame_needed = 0, uses_anonymous_args = 0
 2630              	.LVL366:
 2631 0000 1FB5     		push	{r0, r1, r2, r3, r4, lr}
 2632              		.cfi_def_cfa_offset 24
 2633              		.cfi_offset 4, -8
 2634              		.cfi_offset 14, -4
 201:src/mxml-file.c ****                          NULL));
 2635              		.loc 1 201 0
 2636 0002 0023     		movs	r3, #0
 196:src/mxml-file.c ****  /*
 2637              		.loc 1 196 0
 2638 0004 04AC     		add	r4, sp, #16
 2639 0006 44F8041D 		str	r1, [r4, #-4]!
 201:src/mxml-file.c ****                          NULL));
 2640              		.loc 1 201 0
 2641 000a 0093     		str	r3, [sp]
 2642 000c 2146     		mov	r1, r4
 2643              	.LVL367:
 2644 000e FFF7FEFF 		bl	mxml_load_data.constprop.1
 2645              	.LVL368:
 203:src/mxml-file.c **** 
 2646              		.loc 1 203 0
 2647 0012 04B0     		add	sp, sp, #16
 2648              		.cfi_def_cfa_offset 8
 2649              		@ sp needed
 2650 0014 10BD     		pop	{r4, pc}
 2651              		.cfi_endproc
 2652              	.LFE2:
 2653              		.size	mxmlLoadString, .-mxmlLoadString
 2654              		.section	.text.mxmlSAXLoadString,"ax",%progbits
 2655              		.align	1
 2656              		.global	mxmlSAXLoadString
 2657              		.thumb
 2658              		.thumb_func
 2659              		.type	mxmlSAXLoadString, %function
ARM GAS  C:\Users\AHMED~1.ELE\AppData\Local\Temp\ccbrMpYT.s 			page 100


 2660              	mxmlSAXLoadString:
 2661              	.LFB3:
 527:src/mxml-file.c ****  /*
 2662              		.loc 1 527 0
 2663              		.cfi_startproc
 2664              		@ args = 4, pretend = 0, frame = 8
 2665              		@ frame_needed = 0, uses_anonymous_args = 0
 2666              	.LVL369:
 2667 0000 1FB5     		push	{r0, r1, r2, r3, r4, lr}
 2668              		.cfi_def_cfa_offset 24
 2669              		.cfi_offset 4, -8
 2670              		.cfi_offset 14, -4
 527:src/mxml-file.c ****  /*
 2671              		.loc 1 527 0
 2672 0002 04AC     		add	r4, sp, #16
 2673 0004 44F8041D 		str	r1, [r4, #-4]!
 532:src/mxml-file.c **** }
 2674              		.loc 1 532 0
 2675 0008 0699     		ldr	r1, [sp, #24]
 2676              	.LVL370:
 2677 000a 0091     		str	r1, [sp]
 2678 000c 2146     		mov	r1, r4
 2679 000e FFF7FEFF 		bl	mxml_load_data.constprop.1
 2680              	.LVL371:
 533:src/mxml-file.c **** 
 2681              		.loc 1 533 0
 2682 0012 04B0     		add	sp, sp, #16
 2683              		.cfi_def_cfa_offset 8
 2684              		@ sp needed
 2685 0014 10BD     		pop	{r4, pc}
 2686              		.cfi_endproc
 2687              	.LFE3:
 2688              		.size	mxmlSAXLoadString, .-mxmlSAXLoadString
 2689              		.section	.text.mxmlSetCustomHandlers,"ax",%progbits
 2690              		.align	1
 2691              		.global	mxmlSetCustomHandlers
 2692              		.thumb
 2693              		.thumb_func
 2694              		.type	mxmlSetCustomHandlers, %function
 2695              	mxmlSetCustomHandlers:
 2696              	.LFB4:
 551:src/mxml-file.c ****   _mxml_global_t *global = _mxml_global();
 2697              		.loc 1 551 0
 2698              		.cfi_startproc
 2699              		@ args = 0, pretend = 0, frame = 0
 2700              		@ frame_needed = 0, uses_anonymous_args = 0
 2701              	.LVL372:
 2702 0000 38B5     		push	{r3, r4, r5, lr}
 2703              		.cfi_def_cfa_offset 16
 2704              		.cfi_offset 3, -16
 2705              		.cfi_offset 4, -12
 2706              		.cfi_offset 5, -8
 2707              		.cfi_offset 14, -4
 551:src/mxml-file.c ****   _mxml_global_t *global = _mxml_global();
 2708              		.loc 1 551 0
 2709 0002 0546     		mov	r5, r0
 2710 0004 0C46     		mov	r4, r1
ARM GAS  C:\Users\AHMED~1.ELE\AppData\Local\Temp\ccbrMpYT.s 			page 101


 552:src/mxml-file.c **** 					/* Global data */
 2711              		.loc 1 552 0
 2712 0006 FFF7FEFF 		bl	_mxml_global
 2713              	.LVL373:
 556:src/mxml-file.c ****   global->custom_save_cb = save;
 2714              		.loc 1 556 0
 2715 000a C0F89C51 		str	r5, [r0, #412]
 557:src/mxml-file.c **** }
 2716              		.loc 1 557 0
 2717 000e C0F8A041 		str	r4, [r0, #416]
 2718 0012 38BD     		pop	{r3, r4, r5, pc}
 2719              		.cfi_endproc
 2720              	.LFE4:
 2721              		.size	mxmlSetCustomHandlers, .-mxmlSetCustomHandlers
 2722              		.section	.text.mxmlSetErrorCallback,"ax",%progbits
 2723              		.align	1
 2724              		.global	mxmlSetErrorCallback
 2725              		.thumb
 2726              		.thumb_func
 2727              		.type	mxmlSetErrorCallback, %function
 2728              	mxmlSetErrorCallback:
 2729              	.LFB5:
 567:src/mxml-file.c ****   _mxml_global_t *global = _mxml_global();
 2730              		.loc 1 567 0
 2731              		.cfi_startproc
 2732              		@ args = 0, pretend = 0, frame = 0
 2733              		@ frame_needed = 0, uses_anonymous_args = 0
 2734              	.LVL374:
 2735 0000 10B5     		push	{r4, lr}
 2736              		.cfi_def_cfa_offset 8
 2737              		.cfi_offset 4, -8
 2738              		.cfi_offset 14, -4
 567:src/mxml-file.c ****   _mxml_global_t *global = _mxml_global();
 2739              		.loc 1 567 0
 2740 0002 0446     		mov	r4, r0
 568:src/mxml-file.c **** 					/* Global data */
 2741              		.loc 1 568 0
 2742 0004 FFF7FEFF 		bl	_mxml_global
 2743              	.LVL375:
 572:src/mxml-file.c **** }
 2744              		.loc 1 572 0
 2745 0008 0460     		str	r4, [r0]
 2746 000a 10BD     		pop	{r4, pc}
 2747              		.cfi_endproc
 2748              	.LFE5:
 2749              		.size	mxmlSetErrorCallback, .-mxmlSetErrorCallback
 2750              		.section	.text.mxmlSetWrapMargin,"ax",%progbits
 2751              		.align	1
 2752              		.global	mxmlSetWrapMargin
 2753              		.thumb
 2754              		.thumb_func
 2755              		.type	mxmlSetWrapMargin, %function
 2756              	mxmlSetWrapMargin:
 2757              	.LFB6:
 586:src/mxml-file.c ****   _mxml_global_t *global = _mxml_global();
 2758              		.loc 1 586 0
 2759              		.cfi_startproc
ARM GAS  C:\Users\AHMED~1.ELE\AppData\Local\Temp\ccbrMpYT.s 			page 102


 2760              		@ args = 0, pretend = 0, frame = 0
 2761              		@ frame_needed = 0, uses_anonymous_args = 0
 2762              	.LVL376:
 2763 0000 10B5     		push	{r4, lr}
 2764              		.cfi_def_cfa_offset 8
 2765              		.cfi_offset 4, -8
 2766              		.cfi_offset 14, -4
 586:src/mxml-file.c ****   _mxml_global_t *global = _mxml_global();
 2767              		.loc 1 586 0
 2768 0002 0446     		mov	r4, r0
 587:src/mxml-file.c **** 					/* Global data */
 2769              		.loc 1 587 0
 2770 0004 FFF7FEFF 		bl	_mxml_global
 2771              	.LVL377:
 591:src/mxml-file.c **** }
 2772              		.loc 1 591 0
 2773 0008 C0F89841 		str	r4, [r0, #408]
 2774 000c 10BD     		pop	{r4, pc}
 2775              		.cfi_endproc
 2776              	.LFE6:
 2777              		.size	mxmlSetWrapMargin, .-mxmlSetWrapMargin
 2778              		.section	.rodata
 2779              		.align	2
 2780              		.set	.LANCHOR0,. + 0
 2781              		.type	types.11198, %object
 2782              		.size	types.11198, 24
 2783              	types.11198:
 2784 0000 2F050000 		.word	.LC38
 2785 0004 3C050000 		.word	.LC39
 2786 0008 49050000 		.word	.LC40
 2787 000c 55050000 		.word	.LC41
 2788 0010 5F050000 		.word	.LC42
 2789 0014 69050000 		.word	.LC43
 2790              		.section	.rodata.str1.1,"aMS",%progbits,1
 2791              	.LC0:
 2792 0000 42616420 		.ascii	"Bad control character 0x%02x not allowed by XML sta"
 2792      636F6E74 
 2792      726F6C20 
 2792      63686172 
 2792      61637465 
 2793 0033 6E646172 		.ascii	"ndard!\000"
 2793      642100
 2794              	.LC1:
 2795 003a 496E7661 		.ascii	"Invalid UTF-8 sequence for character 0x%04x!\000"
 2795      6C696420 
 2795      5554462D 
 2795      38207365 
 2795      7175656E 
 2796              	.LC2:
 2797 0067 556E6162 		.ascii	"Unable to expand string buffer to %d bytes!\000"
 2797      6C652074 
 2797      6F206578 
 2797      70616E64 
 2797      20737472 
 2798              	.LC3:
 2799 0093 6E756C6C 		.ascii	"null\000"
 2799      00
ARM GAS  C:\Users\AHMED~1.ELE\AppData\Local\Temp\ccbrMpYT.s 			page 103


 2800              	.LC4:
 2801 0098 456E7469 		.ascii	"Entity name too long under parent <%s>!\000"
 2801      7479206E 
 2801      616D6520 
 2801      746F6F20 
 2801      6C6F6E67 
 2802              	.LC5:
 2803 00c0 43686172 		.ascii	"Character entity \"%s\" not terminated under parent"
 2803      61637465 
 2803      7220656E 
 2803      74697479 
 2803      20222573 
 2804 00f1 203C2573 		.ascii	" <%s>!\000"
 2804      3E2100
 2805              	.LC6:
 2806 00f8 456E7469 		.ascii	"Entity name \"%s;\" not supported under parent <%s>"
 2806      7479206E 
 2806      616D6520 
 2806      2225733B 
 2806      22206E6F 
 2807 0129 2100     		.ascii	"!\000"
 2808              	.LC7:
 2809 012b 42616420 		.ascii	"Bad control character 0x%02x under parent <%s> not "
 2809      636F6E74 
 2809      726F6C20 
 2809      63686172 
 2809      61637465 
 2810 015e 616C6C6F 		.ascii	"allowed by XML standard!\000"
 2810      77656420 
 2810      62792058 
 2810      4D4C2073 
 2810      74616E64 
 2811              	.LC8:
 2812 0177 696E7465 		.ascii	"integer\000"
 2812      67657200 
 2813              	.LC9:
 2814 017f 7265616C 		.ascii	"real\000"
 2814      00
 2815              	.LC10:
 2816 0184 286E756C 		.ascii	"(null)\000"
 2816      6C2900
 2817              	.LC11:
 2818 018b 556E6162 		.ascii	"Unable to allocate string buffer!\000"
 2818      6C652074 
 2818      6F20616C 
 2818      6C6F6361 
 2818      74652073 
 2819              	.LC12:
 2820 01ad 42616420 		.ascii	"Bad custom value '%s' in parent <%s>!\000"
 2820      63757374 
 2820      6F6D2076 
 2820      616C7565 
 2820      20272573 
 2821              	.LC13:
 2822 01d3 42616420 		.ascii	"Bad %s value '%s' in parent <%s>!\000"
 2822      25732076 
 2822      616C7565 
ARM GAS  C:\Users\AHMED~1.ELE\AppData\Local\Temp\ccbrMpYT.s 			page 104


 2822      20272573 
 2822      2720696E 
 2823              	.LC14:
 2824 01f5 556E6162 		.ascii	"Unable to add value node of type %s to parent <%s>!"
 2824      6C652074 
 2824      6F206164 
 2824      64207661 
 2824      6C756520 
 2825 0228 00       		.ascii	"\000"
 2826              	.LC15:
 2827 0229 00       		.ascii	"\000"
 2828              	.LC16:
 2829 022a 42617265 		.ascii	"Bare < in element!\000"
 2829      203C2069 
 2829      6E20656C 
 2829      656D656E 
 2829      742100
 2830              	.LC17:
 2831 023d 212D2D00 		.ascii	"!--\000"
 2832              	.LC18:
 2833 0241 215B4344 		.ascii	"![CDATA[\000"
 2833      4154415B 
 2833      00
 2834              	.LC19:
 2835 024a 3C25733E 		.ascii	"<%s> cannot be a second root node after <%s>\000"
 2835      2063616E 
 2835      6E6F7420 
 2835      62652061 
 2835      20736563 
 2836              	.LC20:
 2837 0277 556E6162 		.ascii	"Unable to add comment node to parent <%s>!\000"
 2837      6C652074 
 2837      6F206164 
 2837      6420636F 
 2837      6D6D656E 
 2838              	.LC21:
 2839 02a2 5D5D00   		.ascii	"]]\000"
 2840              	.LC22:
 2841 02a5 556E6162 		.ascii	"Unable to add CDATA node to parent <%s>!\000"
 2841      6C652074 
 2841      6F206164 
 2841      64204344 
 2841      41544120 
 2842              	.LC23:
 2843 02ce 556E6162 		.ascii	"Unable to add processing instruction node to parent"
 2843      6C652074 
 2843      6F206164 
 2843      64207072 
 2843      6F636573 
 2844 0301 203C2573 		.ascii	" <%s>!\000"
 2844      3E2100
 2845              	.LC24:
 2846 0308 556E6162 		.ascii	"Unable to add declaration node to parent <%s>!\000"
 2846      6C652074 
 2846      6F206164 
 2846      64206465 
 2846      636C6172 
ARM GAS  C:\Users\AHMED~1.ELE\AppData\Local\Temp\ccbrMpYT.s 			page 105


 2847              	.LC25:
 2848 0337 4D69736D 		.ascii	"Mismatched close tag <%s> under parent <%s>!\000"
 2848      61746368 
 2848      65642063 
 2848      6C6F7365 
 2848      20746167 
 2849              	.LC26:
 2850 0364 556E6162 		.ascii	"Unable to add element node to parent <%s>!\000"
 2850      6C652074 
 2850      6F206164 
 2850      6420656C 
 2850      656D656E 
 2851              	.LC27:
 2852 038f 556E6162 		.ascii	"Unable to allocate memory for name!\000"
 2852      6C652074 
 2852      6F20616C 
 2852      6C6F6361 
 2852      7465206D 
 2853              	.LC28:
 2854 03b3 556E6162 		.ascii	"Unable to allocate memory for value!\000"
 2854      6C652074 
 2854      6F20616C 
 2854      6C6F6361 
 2854      7465206D 
 2855              	.LC29:
 2856 03d8 45787065 		.ascii	"Expected '>' after '%c' for element %s, but got '%c"
 2856      63746564 
 2856      20273E27 
 2856      20616674 
 2856      65722027 
 2857 040b 272100   		.ascii	"'!\000"
 2858              	.LC30:
 2859 040e 42617265 		.ascii	"Bare < in element %s!\000"
 2859      203C2069 
 2859      6E20656C 
 2859      656D656E 
 2859      74202573 
 2860              	.LC31:
 2861 0424 4D697373 		.ascii	"Missing value for attribute '%s' in element %s!\000"
 2861      696E6720 
 2861      76616C75 
 2861      6520666F 
 2861      72206174 
 2862              	.LC32:
 2863 0454 45787065 		.ascii	"Expected > but got '%c' instead for element <%s/>!\000"
 2863      63746564 
 2863      203E2062 
 2863      75742067 
 2863      6F742027 
 2864              	.LC33:
 2865 0487 4D697373 		.ascii	"Missing close tag </%s> under parent <%s>!\000"
 2865      696E6720 
 2865      636C6F73 
 2865      65207461 
 2865      67203C2F 
 2866              	.LC34:
 2867 04b2 4561726C 		.ascii	"Early EOF in comment node!\000"
ARM GAS  C:\Users\AHMED~1.ELE\AppData\Local\Temp\ccbrMpYT.s 			page 106


 2867      7920454F 
 2867      4620696E 
 2867      20636F6D 
 2867      6D656E74 
 2868              	.LC35:
 2869 04cd 4561726C 		.ascii	"Early EOF in CDATA node!\000"
 2869      7920454F 
 2869      4620696E 
 2869      20434441 
 2869      5441206E 
 2870              	.LC36:
 2871 04e6 4561726C 		.ascii	"Early EOF in processing instruction node!\000"
 2871      7920454F 
 2871      4620696E 
 2871      2070726F 
 2871      63657373 
 2872              	.LC37:
 2873 0510 4561726C 		.ascii	"Early EOF in declaration node!\000"
 2873      7920454F 
 2873      4620696E 
 2873      20646563 
 2873      6C617261 
 2874              	.LC38:
 2875 052f 4D584D4C 		.ascii	"MXML_ELEMENT\000"
 2875      5F454C45 
 2875      4D454E54 
 2875      00
 2876              	.LC39:
 2877 053c 4D584D4C 		.ascii	"MXML_INTEGER\000"
 2877      5F494E54 
 2877      45474552 
 2877      00
 2878              	.LC40:
 2879 0549 4D584D4C 		.ascii	"MXML_OPAQUE\000"
 2879      5F4F5041 
 2879      51554500 
 2880              	.LC41:
 2881 0555 4D584D4C 		.ascii	"MXML_REAL\000"
 2881      5F524541 
 2881      4C00
 2882              	.LC42:
 2883 055f 4D584D4C 		.ascii	"MXML_TEXT\000"
 2883      5F544558 
 2883      5400
 2884              	.LC43:
 2885 0569 4D584D4C 		.ascii	"MXML_CUSTOM\000"
 2885      5F435553 
 2885      544F4D00 
 2886              		.text
 2887              	.Letext0:
 2888              		.file 2 "c:\\devtools\\gcc_v49_2014q4\\lib\\gcc\\arm-none-eabi\\4.9.3\\include\\stddef.h"
 2889              		.file 3 "../LibA5T1000/common.h"
 2890              		.file 4 "../LibA5T1000/system.h"
 2891              		.file 5 "src/mxml.h"
 2892              		.file 6 "src/mxml-private.h"
 2893              		.file 7 "c:\\devtools\\gcc_v49_2014q4\\arm-none-eabi\\include\\stdlib.h"
 2894              		.file 8 "c:\\devtools\\gcc_v49_2014q4\\arm-none-eabi\\include\\string.h"
ARM GAS  C:\Users\AHMED~1.ELE\AppData\Local\Temp\ccbrMpYT.s 			page 107


 2895              		.file 9 "c:\\devtools\\gcc_v49_2014q4\\arm-none-eabi\\include\\ctype.h"
 2896              		.section	.debug_info,"",%progbits
 2897              	.Ldebug_info0:
 2898 0000 4B250000 		.4byte	0x254b
 2899 0004 0400     		.2byte	0x4
 2900 0006 00000000 		.4byte	.Ldebug_abbrev0
 2901 000a 04       		.byte	0x4
 2902 000b 01       		.uleb128 0x1
 2903 000c 0B120000 		.4byte	.LASF606
 2904 0010 01       		.byte	0x1
 2905 0011 C10C0000 		.4byte	.LASF607
 2906 0015 930A0000 		.4byte	.LASF608
 2907 0019 18000000 		.4byte	.Ldebug_ranges0+0x18
 2908 001d 00000000 		.4byte	0
 2909 0021 00000000 		.4byte	.Ldebug_line0
 2910 0025 02       		.uleb128 0x2
 2911 0026 01       		.byte	0x1
 2912 0027 06       		.byte	0x6
 2913 0028 C6240000 		.4byte	.LASF0
 2914 002c 02       		.uleb128 0x2
 2915 002d 01       		.byte	0x1
 2916 002e 08       		.byte	0x8
 2917 002f 6A090000 		.4byte	.LASF1
 2918 0033 02       		.uleb128 0x2
 2919 0034 02       		.byte	0x2
 2920 0035 05       		.byte	0x5
 2921 0036 A5220000 		.4byte	.LASF2
 2922 003a 02       		.uleb128 0x2
 2923 003b 02       		.byte	0x2
 2924 003c 07       		.byte	0x7
 2925 003d 04270000 		.4byte	.LASF3
 2926 0041 02       		.uleb128 0x2
 2927 0042 04       		.byte	0x4
 2928 0043 05       		.byte	0x5
 2929 0044 7C060000 		.4byte	.LASF4
 2930 0048 02       		.uleb128 0x2
 2931 0049 04       		.byte	0x4
 2932 004a 07       		.byte	0x7
 2933 004b 72110000 		.4byte	.LASF5
 2934 004f 02       		.uleb128 0x2
 2935 0050 08       		.byte	0x8
 2936 0051 05       		.byte	0x5
 2937 0052 18150000 		.4byte	.LASF6
 2938 0056 02       		.uleb128 0x2
 2939 0057 08       		.byte	0x8
 2940 0058 07       		.byte	0x7
 2941 0059 AB1D0000 		.4byte	.LASF7
 2942 005d 03       		.uleb128 0x3
 2943 005e 04       		.byte	0x4
 2944 005f 05       		.byte	0x5
 2945 0060 696E7400 		.ascii	"int\000"
 2946 0064 02       		.uleb128 0x2
 2947 0065 04       		.byte	0x4
 2948 0066 07       		.byte	0x7
 2949 0067 A2170000 		.4byte	.LASF8
 2950 006b 04       		.uleb128 0x4
 2951 006c 55000000 		.4byte	.LASF11
ARM GAS  C:\Users\AHMED~1.ELE\AppData\Local\Temp\ccbrMpYT.s 			page 108


 2952 0070 02       		.byte	0x2
 2953 0071 D4       		.byte	0xd4
 2954 0072 64000000 		.4byte	0x64
 2955 0076 02       		.uleb128 0x2
 2956 0077 04       		.byte	0x4
 2957 0078 07       		.byte	0x7
 2958 0079 78000000 		.4byte	.LASF9
 2959 007d 05       		.uleb128 0x5
 2960 007e 04       		.byte	0x4
 2961 007f 06       		.uleb128 0x6
 2962 0080 04       		.byte	0x4
 2963 0081 85000000 		.4byte	0x85
 2964 0085 02       		.uleb128 0x2
 2965 0086 01       		.byte	0x1
 2966 0087 06       		.byte	0x6
 2967 0088 16000000 		.4byte	.LASF10
 2968 008c 06       		.uleb128 0x6
 2969 008d 04       		.byte	0x4
 2970 008e 92000000 		.4byte	0x92
 2971 0092 07       		.uleb128 0x7
 2972 0093 85000000 		.4byte	0x85
 2973 0097 06       		.uleb128 0x6
 2974 0098 04       		.byte	0x4
 2975 0099 9D000000 		.4byte	0x9d
 2976 009d 08       		.uleb128 0x8
 2977 009e 04       		.uleb128 0x4
 2978 009f 48050000 		.4byte	.LASF12
 2979 00a3 03       		.byte	0x3
 2980 00a4 0E       		.byte	0xe
 2981 00a5 2C000000 		.4byte	0x2c
 2982 00a9 04       		.uleb128 0x4
 2983 00aa 65260000 		.4byte	.LASF13
 2984 00ae 03       		.byte	0x3
 2985 00af 10       		.byte	0x10
 2986 00b0 64000000 		.4byte	0x64
 2987 00b4 09       		.uleb128 0x9
 2988 00b5 0B100000 		.4byte	.LASF487
 2989 00b9 02       		.byte	0x2
 2990 00ba 04       		.byte	0x4
 2991 00bb 9A04     		.2byte	0x49a
 2992 00bd 710D0000 		.4byte	0xd71
 2993 00c1 0A       		.uleb128 0xa
 2994 00c2 9C280000 		.4byte	.LASF14
 2995 00c6 00       		.sleb128 0
 2996 00c7 0A       		.uleb128 0xa
 2997 00c8 C8110000 		.4byte	.LASF15
 2998 00cc 01       		.sleb128 1
 2999 00cd 0A       		.uleb128 0xa
 3000 00ce C1140000 		.4byte	.LASF16
 3001 00d2 02       		.sleb128 2
 3002 00d3 0A       		.uleb128 0xa
 3003 00d4 7E090000 		.4byte	.LASF17
 3004 00d8 03       		.sleb128 3
 3005 00d9 0A       		.uleb128 0xa
 3006 00da 08150000 		.4byte	.LASF18
 3007 00de 04       		.sleb128 4
 3008 00df 0A       		.uleb128 0xa
ARM GAS  C:\Users\AHMED~1.ELE\AppData\Local\Temp\ccbrMpYT.s 			page 109


 3009 00e0 A21B0000 		.4byte	.LASF19
 3010 00e4 05       		.sleb128 5
 3011 00e5 0A       		.uleb128 0xa
 3012 00e6 550C0000 		.4byte	.LASF20
 3013 00ea 06       		.sleb128 6
 3014 00eb 0A       		.uleb128 0xa
 3015 00ec 581D0000 		.4byte	.LASF21
 3016 00f0 07       		.sleb128 7
 3017 00f1 0A       		.uleb128 0xa
 3018 00f2 3E130000 		.4byte	.LASF22
 3019 00f6 08       		.sleb128 8
 3020 00f7 0A       		.uleb128 0xa
 3021 00f8 A6250000 		.4byte	.LASF23
 3022 00fc 09       		.sleb128 9
 3023 00fd 0A       		.uleb128 0xa
 3024 00fe FD250000 		.4byte	.LASF24
 3025 0102 0A       		.sleb128 10
 3026 0103 0A       		.uleb128 0xa
 3027 0104 EE1F0000 		.4byte	.LASF25
 3028 0108 0B       		.sleb128 11
 3029 0109 0A       		.uleb128 0xa
 3030 010a 4F1B0000 		.4byte	.LASF26
 3031 010e 0C       		.sleb128 12
 3032 010f 0A       		.uleb128 0xa
 3033 0110 B21B0000 		.4byte	.LASF27
 3034 0114 0D       		.sleb128 13
 3035 0115 0A       		.uleb128 0xa
 3036 0116 DF0A0000 		.4byte	.LASF28
 3037 011a 0E       		.sleb128 14
 3038 011b 0A       		.uleb128 0xa
 3039 011c F7280000 		.4byte	.LASF29
 3040 0120 0F       		.sleb128 15
 3041 0121 0A       		.uleb128 0xa
 3042 0122 80140000 		.4byte	.LASF30
 3043 0126 10       		.sleb128 16
 3044 0127 0A       		.uleb128 0xa
 3045 0128 99200000 		.4byte	.LASF31
 3046 012c 11       		.sleb128 17
 3047 012d 0A       		.uleb128 0xa
 3048 012e 1A0E0000 		.4byte	.LASF32
 3049 0132 12       		.sleb128 18
 3050 0133 0A       		.uleb128 0xa
 3051 0134 CA200000 		.4byte	.LASF33
 3052 0138 13       		.sleb128 19
 3053 0139 0A       		.uleb128 0xa
 3054 013a BB070000 		.4byte	.LASF34
 3055 013e 14       		.sleb128 20
 3056 013f 0A       		.uleb128 0xa
 3057 0140 26150000 		.4byte	.LASF35
 3058 0144 15       		.sleb128 21
 3059 0145 0A       		.uleb128 0xa
 3060 0146 CB070000 		.4byte	.LASF36
 3061 014a 16       		.sleb128 22
 3062 014b 0A       		.uleb128 0xa
 3063 014c 85080000 		.4byte	.LASF37
 3064 0150 17       		.sleb128 23
 3065 0151 0A       		.uleb128 0xa
ARM GAS  C:\Users\AHMED~1.ELE\AppData\Local\Temp\ccbrMpYT.s 			page 110


 3066 0152 2D080000 		.4byte	.LASF38
 3067 0156 18       		.sleb128 24
 3068 0157 0A       		.uleb128 0xa
 3069 0158 0F1B0000 		.4byte	.LASF39
 3070 015c 19       		.sleb128 25
 3071 015d 0A       		.uleb128 0xa
 3072 015e EF070000 		.4byte	.LASF40
 3073 0162 1A       		.sleb128 26
 3074 0163 0A       		.uleb128 0xa
 3075 0164 58080000 		.4byte	.LASF41
 3076 0168 1B       		.sleb128 27
 3077 0169 0A       		.uleb128 0xa
 3078 016a 95110000 		.4byte	.LASF42
 3079 016e 1C       		.sleb128 28
 3080 016f 0A       		.uleb128 0xa
 3081 0170 61170000 		.4byte	.LASF43
 3082 0174 1D       		.sleb128 29
 3083 0175 0A       		.uleb128 0xa
 3084 0176 1A290000 		.4byte	.LASF44
 3085 017a 1E       		.sleb128 30
 3086 017b 0A       		.uleb128 0xa
 3087 017c 78070000 		.4byte	.LASF45
 3088 0180 1F       		.sleb128 31
 3089 0181 0A       		.uleb128 0xa
 3090 0182 84110000 		.4byte	.LASF46
 3091 0186 20       		.sleb128 32
 3092 0187 0A       		.uleb128 0xa
 3093 0188 57030000 		.4byte	.LASF47
 3094 018c 21       		.sleb128 33
 3095 018d 0A       		.uleb128 0xa
 3096 018e 781A0000 		.4byte	.LASF48
 3097 0192 22       		.sleb128 34
 3098 0193 0A       		.uleb128 0xa
 3099 0194 F4010000 		.4byte	.LASF49
 3100 0198 23       		.sleb128 35
 3101 0199 0A       		.uleb128 0xa
 3102 019a CA090000 		.4byte	.LASF50
 3103 019e 24       		.sleb128 36
 3104 019f 0A       		.uleb128 0xa
 3105 01a0 DD0E0000 		.4byte	.LASF51
 3106 01a4 25       		.sleb128 37
 3107 01a5 0A       		.uleb128 0xa
 3108 01a6 96240000 		.4byte	.LASF52
 3109 01aa 26       		.sleb128 38
 3110 01ab 0A       		.uleb128 0xa
 3111 01ac 2F160000 		.4byte	.LASF53
 3112 01b0 27       		.sleb128 39
 3113 01b1 0A       		.uleb128 0xa
 3114 01b2 BC060000 		.4byte	.LASF54
 3115 01b6 28       		.sleb128 40
 3116 01b7 0A       		.uleb128 0xa
 3117 01b8 2C1D0000 		.4byte	.LASF55
 3118 01bc 29       		.sleb128 41
 3119 01bd 0A       		.uleb128 0xa
 3120 01be 81160000 		.4byte	.LASF56
 3121 01c2 2A       		.sleb128 42
 3122 01c3 0A       		.uleb128 0xa
ARM GAS  C:\Users\AHMED~1.ELE\AppData\Local\Temp\ccbrMpYT.s 			page 111


 3123 01c4 D7160000 		.4byte	.LASF57
 3124 01c8 2B       		.sleb128 43
 3125 01c9 0A       		.uleb128 0xa
 3126 01ca 450D0000 		.4byte	.LASF58
 3127 01ce 2C       		.sleb128 44
 3128 01cf 0A       		.uleb128 0xa
 3129 01d0 750A0000 		.4byte	.LASF59
 3130 01d4 2D       		.sleb128 45
 3131 01d5 0A       		.uleb128 0xa
 3132 01d6 F1240000 		.4byte	.LASF60
 3133 01da 2E       		.sleb128 46
 3134 01db 0A       		.uleb128 0xa
 3135 01dc 54270000 		.4byte	.LASF61
 3136 01e0 2F       		.sleb128 47
 3137 01e1 0A       		.uleb128 0xa
 3138 01e2 D9220000 		.4byte	.LASF62
 3139 01e6 30       		.sleb128 48
 3140 01e7 0A       		.uleb128 0xa
 3141 01e8 18040000 		.4byte	.LASF63
 3142 01ec 31       		.sleb128 49
 3143 01ed 0A       		.uleb128 0xa
 3144 01ee 451F0000 		.4byte	.LASF64
 3145 01f2 32       		.sleb128 50
 3146 01f3 0A       		.uleb128 0xa
 3147 01f4 21260000 		.4byte	.LASF65
 3148 01f8 33       		.sleb128 51
 3149 01f9 0A       		.uleb128 0xa
 3150 01fa AB130000 		.4byte	.LASF66
 3151 01fe 34       		.sleb128 52
 3152 01ff 0A       		.uleb128 0xa
 3153 0200 C90A0000 		.4byte	.LASF67
 3154 0204 35       		.sleb128 53
 3155 0205 0A       		.uleb128 0xa
 3156 0206 131C0000 		.4byte	.LASF68
 3157 020a 36       		.sleb128 54
 3158 020b 0A       		.uleb128 0xa
 3159 020c 5B150000 		.4byte	.LASF69
 3160 0210 37       		.sleb128 55
 3161 0211 0A       		.uleb128 0xa
 3162 0212 45290000 		.4byte	.LASF70
 3163 0216 38       		.sleb128 56
 3164 0217 0A       		.uleb128 0xa
 3165 0218 9C260000 		.4byte	.LASF71
 3166 021c 39       		.sleb128 57
 3167 021d 0A       		.uleb128 0xa
 3168 021e A91E0000 		.4byte	.LASF72
 3169 0222 3A       		.sleb128 58
 3170 0223 0A       		.uleb128 0xa
 3171 0224 07040000 		.4byte	.LASF73
 3172 0228 3B       		.sleb128 59
 3173 0229 0A       		.uleb128 0xa
 3174 022a EB270000 		.4byte	.LASF74
 3175 022e 3C       		.sleb128 60
 3176 022f 0A       		.uleb128 0xa
 3177 0230 C21B0000 		.4byte	.LASF75
 3178 0234 3D       		.sleb128 61
 3179 0235 0A       		.uleb128 0xa
ARM GAS  C:\Users\AHMED~1.ELE\AppData\Local\Temp\ccbrMpYT.s 			page 112


 3180 0236 1B250000 		.4byte	.LASF76
 3181 023a 3E       		.sleb128 62
 3182 023b 0A       		.uleb128 0xa
 3183 023c 2F220000 		.4byte	.LASF77
 3184 0240 3F       		.sleb128 63
 3185 0241 0A       		.uleb128 0xa
 3186 0242 82220000 		.4byte	.LASF78
 3187 0246 C000     		.sleb128 64
 3188 0248 0A       		.uleb128 0xa
 3189 0249 74010000 		.4byte	.LASF79
 3190 024d C100     		.sleb128 65
 3191 024f 0A       		.uleb128 0xa
 3192 0250 6A280000 		.4byte	.LASF80
 3193 0254 C200     		.sleb128 66
 3194 0256 0A       		.uleb128 0xa
 3195 0257 9D270000 		.4byte	.LASF81
 3196 025b C300     		.sleb128 67
 3197 025d 0A       		.uleb128 0xa
 3198 025e 0B1D0000 		.4byte	.LASF82
 3199 0262 C400     		.sleb128 68
 3200 0264 0A       		.uleb128 0xa
 3201 0265 F10C0000 		.4byte	.LASF83
 3202 0269 C500     		.sleb128 69
 3203 026b 0A       		.uleb128 0xa
 3204 026c 92100000 		.4byte	.LASF84
 3205 0270 C600     		.sleb128 70
 3206 0272 0A       		.uleb128 0xa
 3207 0273 8A1E0000 		.4byte	.LASF85
 3208 0277 C700     		.sleb128 71
 3209 0279 0A       		.uleb128 0xa
 3210 027a 6D150000 		.4byte	.LASF86
 3211 027e C800     		.sleb128 72
 3212 0280 0A       		.uleb128 0xa
 3213 0281 18190000 		.4byte	.LASF87
 3214 0285 C900     		.sleb128 73
 3215 0287 0A       		.uleb128 0xa
 3216 0288 E1260000 		.4byte	.LASF88
 3217 028c CA00     		.sleb128 74
 3218 028e 0A       		.uleb128 0xa
 3219 028f 8E270000 		.4byte	.LASF89
 3220 0293 CB00     		.sleb128 75
 3221 0295 0A       		.uleb128 0xa
 3222 0296 74050000 		.4byte	.LASF90
 3223 029a CC00     		.sleb128 76
 3224 029c 0A       		.uleb128 0xa
 3225 029d E4180000 		.4byte	.LASF91
 3226 02a1 CD00     		.sleb128 77
 3227 02a3 0A       		.uleb128 0xa
 3228 02a4 4E040000 		.4byte	.LASF92
 3229 02a8 CE00     		.sleb128 78
 3230 02aa 0A       		.uleb128 0xa
 3231 02ab 22050000 		.4byte	.LASF93
 3232 02af CF00     		.sleb128 79
 3233 02b1 0A       		.uleb128 0xa
 3234 02b2 F2250000 		.4byte	.LASF94
 3235 02b6 D000     		.sleb128 80
 3236 02b8 0A       		.uleb128 0xa
ARM GAS  C:\Users\AHMED~1.ELE\AppData\Local\Temp\ccbrMpYT.s 			page 113


 3237 02b9 28210000 		.4byte	.LASF95
 3238 02bd D100     		.sleb128 81
 3239 02bf 0A       		.uleb128 0xa
 3240 02c0 A4160000 		.4byte	.LASF96
 3241 02c4 D200     		.sleb128 82
 3242 02c6 0A       		.uleb128 0xa
 3243 02c7 730E0000 		.4byte	.LASF97
 3244 02cb D300     		.sleb128 83
 3245 02cd 0A       		.uleb128 0xa
 3246 02ce E1210000 		.4byte	.LASF98
 3247 02d2 D400     		.sleb128 84
 3248 02d4 0A       		.uleb128 0xa
 3249 02d5 E61C0000 		.4byte	.LASF99
 3250 02d9 D500     		.sleb128 85
 3251 02db 0A       		.uleb128 0xa
 3252 02dc C5040000 		.4byte	.LASF100
 3253 02e0 D600     		.sleb128 86
 3254 02e2 0A       		.uleb128 0xa
 3255 02e3 65270000 		.4byte	.LASF101
 3256 02e7 D700     		.sleb128 87
 3257 02e9 0A       		.uleb128 0xa
 3258 02ea 38200000 		.4byte	.LASF102
 3259 02ee D800     		.sleb128 88
 3260 02f0 0A       		.uleb128 0xa
 3261 02f1 FC0C0000 		.4byte	.LASF103
 3262 02f5 D900     		.sleb128 89
 3263 02f7 0A       		.uleb128 0xa
 3264 02f8 981E0000 		.4byte	.LASF104
 3265 02fc DA00     		.sleb128 90
 3266 02fe 0A       		.uleb128 0xa
 3267 02ff 831C0000 		.4byte	.LASF105
 3268 0303 DB00     		.sleb128 91
 3269 0305 0A       		.uleb128 0xa
 3270 0306 28070000 		.4byte	.LASF106
 3271 030a DC00     		.sleb128 92
 3272 030c 0A       		.uleb128 0xa
 3273 030d EF030000 		.4byte	.LASF107
 3274 0311 DD00     		.sleb128 93
 3275 0313 0A       		.uleb128 0xa
 3276 0314 07050000 		.4byte	.LASF108
 3277 0318 DE00     		.sleb128 94
 3278 031a 0A       		.uleb128 0xa
 3279 031b E1060000 		.4byte	.LASF109
 3280 031f DF00     		.sleb128 95
 3281 0321 0A       		.uleb128 0xa
 3282 0322 E0190000 		.4byte	.LASF110
 3283 0326 E000     		.sleb128 96
 3284 0328 0A       		.uleb128 0xa
 3285 0329 AD230000 		.4byte	.LASF111
 3286 032d E100     		.sleb128 97
 3287 032f 0A       		.uleb128 0xa
 3288 0330 71230000 		.4byte	.LASF112
 3289 0334 E200     		.sleb128 98
 3290 0336 0A       		.uleb128 0xa
 3291 0337 D30B0000 		.4byte	.LASF113
 3292 033b E300     		.sleb128 99
 3293 033d 0A       		.uleb128 0xa
ARM GAS  C:\Users\AHMED~1.ELE\AppData\Local\Temp\ccbrMpYT.s 			page 114


 3294 033e 84240000 		.4byte	.LASF114
 3295 0342 E400     		.sleb128 100
 3296 0344 0A       		.uleb128 0xa
 3297 0345 221A0000 		.4byte	.LASF115
 3298 0349 E500     		.sleb128 101
 3299 034b 0A       		.uleb128 0xa
 3300 034c B0010000 		.4byte	.LASF116
 3301 0350 E600     		.sleb128 102
 3302 0352 0A       		.uleb128 0xa
 3303 0353 65050000 		.4byte	.LASF117
 3304 0357 E700     		.sleb128 103
 3305 0359 0A       		.uleb128 0xa
 3306 035a A4140000 		.4byte	.LASF118
 3307 035e E800     		.sleb128 104
 3308 0360 0A       		.uleb128 0xa
 3309 0361 3A050000 		.4byte	.LASF119
 3310 0365 E900     		.sleb128 105
 3311 0367 0A       		.uleb128 0xa
 3312 0368 74100000 		.4byte	.LASF120
 3313 036c EA00     		.sleb128 106
 3314 036e 0A       		.uleb128 0xa
 3315 036f 9D230000 		.4byte	.LASF121
 3316 0373 EB00     		.sleb128 107
 3317 0375 0A       		.uleb128 0xa
 3318 0376 46220000 		.4byte	.LASF122
 3319 037a EC00     		.sleb128 108
 3320 037c 0A       		.uleb128 0xa
 3321 037d 0B170000 		.4byte	.LASF123
 3322 0381 ED00     		.sleb128 109
 3323 0383 0A       		.uleb128 0xa
 3324 0384 A7090000 		.4byte	.LASF124
 3325 0388 EE00     		.sleb128 110
 3326 038a 0A       		.uleb128 0xa
 3327 038b D2180000 		.4byte	.LASF125
 3328 038f EF00     		.sleb128 111
 3329 0391 0A       		.uleb128 0xa
 3330 0392 20140000 		.4byte	.LASF126
 3331 0396 F000     		.sleb128 112
 3332 0398 0A       		.uleb128 0xa
 3333 0399 B0030000 		.4byte	.LASF127
 3334 039d F100     		.sleb128 113
 3335 039f 0A       		.uleb128 0xa
 3336 03a0 97190000 		.4byte	.LASF128
 3337 03a4 F200     		.sleb128 114
 3338 03a6 0A       		.uleb128 0xa
 3339 03a7 731E0000 		.4byte	.LASF129
 3340 03ab F300     		.sleb128 115
 3341 03ad 0A       		.uleb128 0xa
 3342 03ae FF070000 		.4byte	.LASF130
 3343 03b2 F400     		.sleb128 116
 3344 03b4 0A       		.uleb128 0xa
 3345 03b5 51240000 		.4byte	.LASF131
 3346 03b9 F500     		.sleb128 117
 3347 03bb 0A       		.uleb128 0xa
 3348 03bc 03250000 		.4byte	.LASF132
 3349 03c0 F600     		.sleb128 118
 3350 03c2 0A       		.uleb128 0xa
ARM GAS  C:\Users\AHMED~1.ELE\AppData\Local\Temp\ccbrMpYT.s 			page 115


 3351 03c3 850A0000 		.4byte	.LASF133
 3352 03c7 F700     		.sleb128 119
 3353 03c9 0A       		.uleb128 0xa
 3354 03ca 250A0000 		.4byte	.LASF134
 3355 03ce F800     		.sleb128 120
 3356 03d0 0A       		.uleb128 0xa
 3357 03d1 890B0000 		.4byte	.LASF135
 3358 03d5 F900     		.sleb128 121
 3359 03d7 0A       		.uleb128 0xa
 3360 03d8 17270000 		.4byte	.LASF136
 3361 03dc FA00     		.sleb128 122
 3362 03de 0A       		.uleb128 0xa
 3363 03df F70D0000 		.4byte	.LASF137
 3364 03e3 FB00     		.sleb128 123
 3365 03e5 0A       		.uleb128 0xa
 3366 03e6 BC130000 		.4byte	.LASF138
 3367 03ea FC00     		.sleb128 124
 3368 03ec 0A       		.uleb128 0xa
 3369 03ed 5E220000 		.4byte	.LASF139
 3370 03f1 FD00     		.sleb128 125
 3371 03f3 0A       		.uleb128 0xa
 3372 03f4 1D090000 		.4byte	.LASF140
 3373 03f8 FE00     		.sleb128 126
 3374 03fa 0A       		.uleb128 0xa
 3375 03fb BA0F0000 		.4byte	.LASF141
 3376 03ff FF00     		.sleb128 127
 3377 0401 0A       		.uleb128 0xa
 3378 0402 57210000 		.4byte	.LASF142
 3379 0406 8001     		.sleb128 128
 3380 0408 0A       		.uleb128 0xa
 3381 0409 A9060000 		.4byte	.LASF143
 3382 040d 8101     		.sleb128 129
 3383 040f 0A       		.uleb128 0xa
 3384 0410 B8020000 		.4byte	.LASF144
 3385 0414 8201     		.sleb128 130
 3386 0416 0A       		.uleb128 0xa
 3387 0417 591C0000 		.4byte	.LASF145
 3388 041b 8301     		.sleb128 131
 3389 041d 0A       		.uleb128 0xa
 3390 041e 00200000 		.4byte	.LASF146
 3391 0422 8401     		.sleb128 132
 3392 0424 0A       		.uleb128 0xa
 3393 0425 0B0E0000 		.4byte	.LASF147
 3394 0429 8501     		.sleb128 133
 3395 042b 0A       		.uleb128 0xa
 3396 042c C6270000 		.4byte	.LASF148
 3397 0430 8601     		.sleb128 134
 3398 0432 0A       		.uleb128 0xa
 3399 0433 B80A0000 		.4byte	.LASF149
 3400 0437 8701     		.sleb128 135
 3401 0439 0A       		.uleb128 0xa
 3402 043a 61130000 		.4byte	.LASF150
 3403 043e 8801     		.sleb128 136
 3404 0440 0A       		.uleb128 0xa
 3405 0441 3B0E0000 		.4byte	.LASF151
 3406 0445 8901     		.sleb128 137
 3407 0447 0A       		.uleb128 0xa
ARM GAS  C:\Users\AHMED~1.ELE\AppData\Local\Temp\ccbrMpYT.s 			page 116


 3408 0448 F0080000 		.4byte	.LASF152
 3409 044c 8A01     		.sleb128 138
 3410 044e 0A       		.uleb128 0xa
 3411 044f 01210000 		.4byte	.LASF153
 3412 0453 8B01     		.sleb128 139
 3413 0455 0A       		.uleb128 0xa
 3414 0456 D7250000 		.4byte	.LASF154
 3415 045a 8C01     		.sleb128 140
 3416 045c 0A       		.uleb128 0xa
 3417 045d 09160000 		.4byte	.LASF155
 3418 0461 8D01     		.sleb128 141
 3419 0463 0A       		.uleb128 0xa
 3420 0464 BD1C0000 		.4byte	.LASF156
 3421 0468 8E01     		.sleb128 142
 3422 046a 0A       		.uleb128 0xa
 3423 046b 8B0D0000 		.4byte	.LASF157
 3424 046f 8F01     		.sleb128 143
 3425 0471 0A       		.uleb128 0xa
 3426 0472 760D0000 		.4byte	.LASF158
 3427 0476 9001     		.sleb128 144
 3428 0478 0A       		.uleb128 0xa
 3429 0479 78250000 		.4byte	.LASF159
 3430 047d 9101     		.sleb128 145
 3431 047f 0A       		.uleb128 0xa
 3432 0480 C8000000 		.4byte	.LASF160
 3433 0484 9201     		.sleb128 146
 3434 0486 0A       		.uleb128 0xa
 3435 0487 D3230000 		.4byte	.LASF161
 3436 048b 9301     		.sleb128 147
 3437 048d 0A       		.uleb128 0xa
 3438 048e FD140000 		.4byte	.LASF162
 3439 0492 9401     		.sleb128 148
 3440 0494 0A       		.uleb128 0xa
 3441 0495 9F000000 		.4byte	.LASF163
 3442 0499 9501     		.sleb128 149
 3443 049b 0A       		.uleb128 0xa
 3444 049c FD080000 		.4byte	.LASF164
 3445 04a0 9601     		.sleb128 150
 3446 04a2 0A       		.uleb128 0xa
 3447 04a3 150F0000 		.4byte	.LASF165
 3448 04a7 9701     		.sleb128 151
 3449 04a9 0A       		.uleb128 0xa
 3450 04aa EC140000 		.4byte	.LASF166
 3451 04ae 9801     		.sleb128 152
 3452 04b0 0A       		.uleb128 0xa
 3453 04b1 85010000 		.4byte	.LASF167
 3454 04b5 9901     		.sleb128 153
 3455 04b7 0A       		.uleb128 0xa
 3456 04b8 E8160000 		.4byte	.LASF168
 3457 04bc 9A01     		.sleb128 154
 3458 04be 0A       		.uleb128 0xa
 3459 04bf 471C0000 		.4byte	.LASF169
 3460 04c3 9B01     		.sleb128 155
 3461 04c5 0A       		.uleb128 0xa
 3462 04c6 07290000 		.4byte	.LASF170
 3463 04ca 9C01     		.sleb128 156
 3464 04cc 0A       		.uleb128 0xa
ARM GAS  C:\Users\AHMED~1.ELE\AppData\Local\Temp\ccbrMpYT.s 			page 117


 3465 04cd 68000000 		.4byte	.LASF171
 3466 04d1 9D01     		.sleb128 157
 3467 04d3 0A       		.uleb128 0xa
 3468 04d4 AA0F0000 		.4byte	.LASF172
 3469 04d8 9E01     		.sleb128 158
 3470 04da 0A       		.uleb128 0xa
 3471 04db 370A0000 		.4byte	.LASF173
 3472 04df 9F01     		.sleb128 159
 3473 04e1 0A       		.uleb128 0xa
 3474 04e2 0D090000 		.4byte	.LASF174
 3475 04e6 A001     		.sleb128 160
 3476 04e8 0A       		.uleb128 0xa
 3477 04e9 25180000 		.4byte	.LASF175
 3478 04ed A101     		.sleb128 161
 3479 04ef 0A       		.uleb128 0xa
 3480 04f0 D31B0000 		.4byte	.LASF176
 3481 04f4 A201     		.sleb128 162
 3482 04f6 0A       		.uleb128 0xa
 3483 04f7 66040000 		.4byte	.LASF177
 3484 04fb A301     		.sleb128 163
 3485 04fd 0A       		.uleb128 0xa
 3486 04fe E21D0000 		.4byte	.LASF178
 3487 0502 A401     		.sleb128 164
 3488 0504 0A       		.uleb128 0xa
 3489 0505 99210000 		.4byte	.LASF179
 3490 0509 A501     		.sleb128 165
 3491 050b 0A       		.uleb128 0xa
 3492 050c 67020000 		.4byte	.LASF180
 3493 0510 A601     		.sleb128 166
 3494 0512 0A       		.uleb128 0xa
 3495 0513 26190000 		.4byte	.LASF181
 3496 0517 A701     		.sleb128 167
 3497 0519 0A       		.uleb128 0xa
 3498 051a 4D170000 		.4byte	.LASF182
 3499 051e A801     		.sleb128 168
 3500 0520 0A       		.uleb128 0xa
 3501 0521 F3040000 		.4byte	.LASF183
 3502 0525 A901     		.sleb128 169
 3503 0527 0A       		.uleb128 0xa
 3504 0528 F0260000 		.4byte	.LASF184
 3505 052c AA01     		.sleb128 170
 3506 052e 0A       		.uleb128 0xa
 3507 052f 721B0000 		.4byte	.LASF185
 3508 0533 AB01     		.sleb128 171
 3509 0535 0A       		.uleb128 0xa
 3510 0536 E5130000 		.4byte	.LASF186
 3511 053a AC01     		.sleb128 172
 3512 053c 0A       		.uleb128 0xa
 3513 053d 96030000 		.4byte	.LASF187
 3514 0541 AD01     		.sleb128 173
 3515 0543 0A       		.uleb128 0xa
 3516 0544 2F140000 		.4byte	.LASF188
 3517 0548 AE01     		.sleb128 174
 3518 054a 0A       		.uleb128 0xa
 3519 054b B4210000 		.4byte	.LASF189
 3520 054f AF01     		.sleb128 175
 3521 0551 0A       		.uleb128 0xa
ARM GAS  C:\Users\AHMED~1.ELE\AppData\Local\Temp\ccbrMpYT.s 			page 118


 3522 0552 640B0000 		.4byte	.LASF190
 3523 0556 B001     		.sleb128 176
 3524 0558 0A       		.uleb128 0xa
 3525 0559 3E000000 		.4byte	.LASF191
 3526 055d B101     		.sleb128 177
 3527 055f 0A       		.uleb128 0xa
 3528 0560 6D140000 		.4byte	.LASF192
 3529 0564 B201     		.sleb128 178
 3530 0566 0A       		.uleb128 0xa
 3531 0567 C6250000 		.4byte	.LASF193
 3532 056b B301     		.sleb128 179
 3533 056d 0A       		.uleb128 0xa
 3534 056e 93050000 		.4byte	.LASF194
 3535 0572 B401     		.sleb128 180
 3536 0574 0A       		.uleb128 0xa
 3537 0575 CB100000 		.4byte	.LASF195
 3538 0579 B501     		.sleb128 181
 3539 057b 0A       		.uleb128 0xa
 3540 057c 00060000 		.4byte	.LASF196
 3541 0580 B601     		.sleb128 182
 3542 0582 0A       		.uleb128 0xa
 3543 0583 D11D0000 		.4byte	.LASF197
 3544 0587 B701     		.sleb128 183
 3545 0589 0A       		.uleb128 0xa
 3546 058a DF090000 		.4byte	.LASF198
 3547 058e B801     		.sleb128 184
 3548 0590 0A       		.uleb128 0xa
 3549 0591 95080000 		.4byte	.LASF199
 3550 0595 B901     		.sleb128 185
 3551 0597 0A       		.uleb128 0xa
 3552 0598 78290000 		.4byte	.LASF200
 3553 059c BA01     		.sleb128 186
 3554 059e 0A       		.uleb128 0xa
 3555 059f 6B210000 		.4byte	.LASF201
 3556 05a3 BB01     		.sleb128 187
 3557 05a5 0A       		.uleb128 0xa
 3558 05a6 B6040000 		.4byte	.LASF202
 3559 05aa BC01     		.sleb128 188
 3560 05ac 0A       		.uleb128 0xa
 3561 05ad 82100000 		.4byte	.LASF203
 3562 05b1 BD01     		.sleb128 189
 3563 05b3 0A       		.uleb128 0xa
 3564 05b4 7E040000 		.4byte	.LASF204
 3565 05b8 BE01     		.sleb128 190
 3566 05ba 0A       		.uleb128 0xa
 3567 05bb AF220000 		.4byte	.LASF205
 3568 05bf BF01     		.sleb128 191
 3569 05c1 0A       		.uleb128 0xa
 3570 05c2 A50D0000 		.4byte	.LASF206
 3571 05c6 C001     		.sleb128 192
 3572 05c8 0A       		.uleb128 0xa
 3573 05c9 81230000 		.4byte	.LASF207
 3574 05cd C101     		.sleb128 193
 3575 05cf 0A       		.uleb128 0xa
 3576 05d0 60140000 		.4byte	.LASF208
 3577 05d4 C201     		.sleb128 194
 3578 05d6 0A       		.uleb128 0xa
ARM GAS  C:\Users\AHMED~1.ELE\AppData\Local\Temp\ccbrMpYT.s 			page 119


 3579 05d7 3C170000 		.4byte	.LASF209
 3580 05db C301     		.sleb128 195
 3581 05dd 0A       		.uleb128 0xa
 3582 05de D8200000 		.4byte	.LASF210
 3583 05e2 C401     		.sleb128 196
 3584 05e4 0A       		.uleb128 0xa
 3585 05e5 55160000 		.4byte	.LASF211
 3586 05e9 C501     		.sleb128 197
 3587 05eb 0A       		.uleb128 0xa
 3588 05ec 0E260000 		.4byte	.LASF212
 3589 05f0 C601     		.sleb128 198
 3590 05f2 0A       		.uleb128 0xa
 3591 05f3 58020000 		.4byte	.LASF213
 3592 05f7 C701     		.sleb128 199
 3593 05f9 0A       		.uleb128 0xa
 3594 05fa 341A0000 		.4byte	.LASF214
 3595 05fe C801     		.sleb128 200
 3596 0600 0A       		.uleb128 0xa
 3597 0601 15210000 		.4byte	.LASF215
 3598 0605 C901     		.sleb128 201
 3599 0607 0A       		.uleb128 0xa
 3600 0608 3B1B0000 		.4byte	.LASF216
 3601 060c CA01     		.sleb128 202
 3602 060e 0A       		.uleb128 0xa
 3603 060f B8260000 		.4byte	.LASF217
 3604 0613 CB01     		.sleb128 203
 3605 0615 0A       		.uleb128 0xa
 3606 0616 C30B0000 		.4byte	.LASF218
 3607 061a CC01     		.sleb128 204
 3608 061c 0A       		.uleb128 0xa
 3609 061d 561F0000 		.4byte	.LASF219
 3610 0621 CD01     		.sleb128 205
 3611 0623 0A       		.uleb128 0xa
 3612 0624 48030000 		.4byte	.LASF220
 3613 0628 CE01     		.sleb128 206
 3614 062a 0A       		.uleb128 0xa
 3615 062b 550D0000 		.4byte	.LASF221
 3616 062f CF01     		.sleb128 207
 3617 0631 0A       		.uleb128 0xa
 3618 0632 F2190000 		.4byte	.LASF222
 3619 0636 D001     		.sleb128 208
 3620 0638 0A       		.uleb128 0xa
 3621 0639 1C100000 		.4byte	.LASF223
 3622 063d D101     		.sleb128 209
 3623 063f 0A       		.uleb128 0xa
 3624 0640 120B0000 		.4byte	.LASF224
 3625 0644 D201     		.sleb128 210
 3626 0646 0A       		.uleb128 0xa
 3627 0647 E2250000 		.4byte	.LASF225
 3628 064b D301     		.sleb128 211
 3629 064d 0A       		.uleb128 0xa
 3630 064e BA200000 		.4byte	.LASF226
 3631 0652 D401     		.sleb128 212
 3632 0654 0A       		.uleb128 0xa
 3633 0655 790B0000 		.4byte	.LASF227
 3634 0659 D501     		.sleb128 213
 3635 065b 0A       		.uleb128 0xa
ARM GAS  C:\Users\AHMED~1.ELE\AppData\Local\Temp\ccbrMpYT.s 			page 120


 3636 065c FC110000 		.4byte	.LASF228
 3637 0660 D601     		.sleb128 214
 3638 0662 0A       		.uleb128 0xa
 3639 0663 450F0000 		.4byte	.LASF229
 3640 0667 D701     		.sleb128 215
 3641 0669 0A       		.uleb128 0xa
 3642 066a 650D0000 		.4byte	.LASF230
 3643 066e D801     		.sleb128 216
 3644 0670 0A       		.uleb128 0xa
 3645 0671 6B260000 		.4byte	.LASF231
 3646 0675 D901     		.sleb128 217
 3647 0677 0A       		.uleb128 0xa
 3648 0678 D3110000 		.4byte	.LASF232
 3649 067c DA01     		.sleb128 218
 3650 067e 0A       		.uleb128 0xa
 3651 067f 3E040000 		.4byte	.LASF233
 3652 0683 DB01     		.sleb128 219
 3653 0685 0A       		.uleb128 0xa
 3654 0686 20060000 		.4byte	.LASF234
 3655 068a DC01     		.sleb128 220
 3656 068c 0A       		.uleb128 0xa
 3657 068d 87250000 		.4byte	.LASF235
 3658 0691 DD01     		.sleb128 221
 3659 0693 0A       		.uleb128 0xa
 3660 0694 1B110000 		.4byte	.LASF236
 3661 0698 DE01     		.sleb128 222
 3662 069a 0A       		.uleb128 0xa
 3663 069b 270F0000 		.4byte	.LASF237
 3664 069f DF01     		.sleb128 223
 3665 06a1 0A       		.uleb128 0xa
 3666 06a2 56100000 		.4byte	.LASF238
 3667 06a6 E001     		.sleb128 224
 3668 06a8 0A       		.uleb128 0xa
 3669 06a9 360F0000 		.4byte	.LASF239
 3670 06ad E101     		.sleb128 225
 3671 06af 0A       		.uleb128 0xa
 3672 06b0 2E130000 		.4byte	.LASF240
 3673 06b4 E201     		.sleb128 226
 3674 06b6 0A       		.uleb128 0xa
 3675 06b7 CB150000 		.4byte	.LASF241
 3676 06bb E301     		.sleb128 227
 3677 06bd 0A       		.uleb128 0xa
 3678 06be 890F0000 		.4byte	.LASF242
 3679 06c2 E401     		.sleb128 228
 3680 06c4 0A       		.uleb128 0xa
 3681 06c5 C20D0000 		.4byte	.LASF243
 3682 06c9 E501     		.sleb128 229
 3683 06cb 0A       		.uleb128 0xa
 3684 06cc 92160000 		.4byte	.LASF244
 3685 06d0 E601     		.sleb128 230
 3686 06d2 0A       		.uleb128 0xa
 3687 06d3 4E110000 		.4byte	.LASF245
 3688 06d7 E701     		.sleb128 231
 3689 06d9 0A       		.uleb128 0xa
 3690 06da AE080000 		.4byte	.LASF246
 3691 06de E801     		.sleb128 232
 3692 06e0 0A       		.uleb128 0xa
ARM GAS  C:\Users\AHMED~1.ELE\AppData\Local\Temp\ccbrMpYT.s 			page 121


 3693 06e1 0F280000 		.4byte	.LASF247
 3694 06e5 E901     		.sleb128 233
 3695 06e7 0A       		.uleb128 0xa
 3696 06e8 34230000 		.4byte	.LASF248
 3697 06ec EA01     		.sleb128 234
 3698 06ee 0A       		.uleb128 0xa
 3699 06ef AD190000 		.4byte	.LASF249
 3700 06f3 EB01     		.sleb128 235
 3701 06f5 0A       		.uleb128 0xa
 3702 06f6 C0230000 		.4byte	.LASF250
 3703 06fa EC01     		.sleb128 236
 3704 06fc 0A       		.uleb128 0xa
 3705 06fd 37210000 		.4byte	.LASF251
 3706 0701 ED01     		.sleb128 237
 3707 0703 0A       		.uleb128 0xa
 3708 0704 86050000 		.4byte	.LASF252
 3709 0708 EE01     		.sleb128 238
 3710 070a 0A       		.uleb128 0xa
 3711 070b 10240000 		.4byte	.LASF253
 3712 070f EF01     		.sleb128 239
 3713 0711 0A       		.uleb128 0xa
 3714 0712 8D260000 		.4byte	.LASF254
 3715 0716 F001     		.sleb128 240
 3716 0718 0A       		.uleb128 0xa
 3717 0719 4C190000 		.4byte	.LASF255
 3718 071d F101     		.sleb128 241
 3719 071f 0A       		.uleb128 0xa
 3720 0720 521A0000 		.4byte	.LASF256
 3721 0724 F201     		.sleb128 242
 3722 0726 0A       		.uleb128 0xa
 3723 0727 A8150000 		.4byte	.LASF257
 3724 072b F301     		.sleb128 243
 3725 072d 0A       		.uleb128 0xa
 3726 072e 63070000 		.4byte	.LASF258
 3727 0732 F401     		.sleb128 244
 3728 0734 0A       		.uleb128 0xa
 3729 0735 D21E0000 		.4byte	.LASF259
 3730 0739 F501     		.sleb128 245
 3731 073b 0A       		.uleb128 0xa
 3732 073c 321F0000 		.4byte	.LASF260
 3733 0740 F601     		.sleb128 246
 3734 0742 0A       		.uleb128 0xa
 3735 0743 F3090000 		.4byte	.LASF261
 3736 0747 F701     		.sleb128 247
 3737 0749 0A       		.uleb128 0xa
 3738 074a 5D190000 		.4byte	.LASF262
 3739 074e F801     		.sleb128 248
 3740 0750 0A       		.uleb128 0xa
 3741 0751 08110000 		.4byte	.LASF263
 3742 0755 F901     		.sleb128 249
 3743 0757 0A       		.uleb128 0xa
 3744 0758 901B0000 		.4byte	.LASF264
 3745 075c FA01     		.sleb128 250
 3746 075e 0A       		.uleb128 0xa
 3747 075f EE120000 		.4byte	.LASF265
 3748 0763 FB01     		.sleb128 251
 3749 0765 0A       		.uleb128 0xa
ARM GAS  C:\Users\AHMED~1.ELE\AppData\Local\Temp\ccbrMpYT.s 			page 122


 3750 0766 D6280000 		.4byte	.LASF266
 3751 076a FC01     		.sleb128 252
 3752 076c 0A       		.uleb128 0xa
 3753 076d E80D0000 		.4byte	.LASF267
 3754 0771 FD01     		.sleb128 253
 3755 0773 0A       		.uleb128 0xa
 3756 0774 D2260000 		.4byte	.LASF268
 3757 0778 FE01     		.sleb128 254
 3758 077a 0A       		.uleb128 0xa
 3759 077b 29100000 		.4byte	.LASF269
 3760 077f FF01     		.sleb128 255
 3761 0781 0A       		.uleb128 0xa
 3762 0782 41260000 		.4byte	.LASF270
 3763 0786 8002     		.sleb128 256
 3764 0788 0A       		.uleb128 0xa
 3765 0789 FD120000 		.4byte	.LASF271
 3766 078d 8102     		.sleb128 257
 3767 078f 0A       		.uleb128 0xa
 3768 0790 971C0000 		.4byte	.LASF272
 3769 0794 8202     		.sleb128 258
 3770 0796 0A       		.uleb128 0xa
 3771 0797 27200000 		.4byte	.LASF273
 3772 079b 8302     		.sleb128 259
 3773 079d 0A       		.uleb128 0xa
 3774 079e 270C0000 		.4byte	.LASF274
 3775 07a2 8402     		.sleb128 260
 3776 07a4 0A       		.uleb128 0xa
 3777 07a5 45100000 		.4byte	.LASF275
 3778 07a9 8502     		.sleb128 261
 3779 07ab 0A       		.uleb128 0xa
 3780 07ac 2B030000 		.4byte	.LASF276
 3781 07b0 8602     		.sleb128 262
 3782 07b2 0A       		.uleb128 0xa
 3783 07b3 0F140000 		.4byte	.LASF277
 3784 07b7 8702     		.sleb128 263
 3785 07b9 0A       		.uleb128 0xa
 3786 07ba C8050000 		.4byte	.LASF278
 3787 07be 8802     		.sleb128 264
 3788 07c0 0A       		.uleb128 0xa
 3789 07c1 CB0E0000 		.4byte	.LASF279
 3790 07c5 8902     		.sleb128 265
 3791 07c7 0A       		.uleb128 0xa
 3792 07c8 03230000 		.4byte	.LASF280
 3793 07cc 8A02     		.sleb128 266
 3794 07ce 0A       		.uleb128 0xa
 3795 07cf B20D0000 		.4byte	.LASF281
 3796 07d3 8B02     		.sleb128 267
 3797 07d5 0A       		.uleb128 0xa
 3798 07d6 350B0000 		.4byte	.LASF282
 3799 07da 8C02     		.sleb128 268
 3800 07dc 0A       		.uleb128 0xa
 3801 07dd CB1F0000 		.4byte	.LASF283
 3802 07e1 8D02     		.sleb128 269
 3803 07e3 0A       		.uleb128 0xa
 3804 07e4 9C0B0000 		.4byte	.LASF284
 3805 07e8 8E02     		.sleb128 270
 3806 07ea 0A       		.uleb128 0xa
ARM GAS  C:\Users\AHMED~1.ELE\AppData\Local\Temp\ccbrMpYT.s 			page 123


 3807 07eb 3B060000 		.4byte	.LASF285
 3808 07ef 8F02     		.sleb128 271
 3809 07f1 0A       		.uleb128 0xa
 3810 07f2 19080000 		.4byte	.LASF286
 3811 07f6 9002     		.sleb128 272
 3812 07f8 0A       		.uleb128 0xa
 3813 07f9 43020000 		.4byte	.LASF287
 3814 07fd 9102     		.sleb128 273
 3815 07ff 0A       		.uleb128 0xa
 3816 0800 B8280000 		.4byte	.LASF288
 3817 0804 9202     		.sleb128 274
 3818 0806 0A       		.uleb128 0xa
 3819 0807 22230000 		.4byte	.LASF289
 3820 080b 9302     		.sleb128 275
 3821 080d 0A       		.uleb128 0xa
 3822 080e 58280000 		.4byte	.LASF290
 3823 0812 9402     		.sleb128 276
 3824 0814 0A       		.uleb128 0xa
 3825 0815 A3100000 		.4byte	.LASF291
 3826 0819 9502     		.sleb128 277
 3827 081b 0A       		.uleb128 0xa
 3828 081c CA020000 		.4byte	.LASF292
 3829 0820 9602     		.sleb128 278
 3830 0822 0A       		.uleb128 0xa
 3831 0823 BB150000 		.4byte	.LASF293
 3832 0827 9702     		.sleb128 279
 3833 0829 0A       		.uleb128 0xa
 3834 082a 81030000 		.4byte	.LASF294
 3835 082e 9802     		.sleb128 280
 3836 0830 0A       		.uleb128 0xa
 3837 0831 7C150000 		.4byte	.LASF295
 3838 0835 9902     		.sleb128 281
 3839 0837 0A       		.uleb128 0xa
 3840 0838 94180000 		.4byte	.LASF296
 3841 083c 9A02     		.sleb128 282
 3842 083e 0A       		.uleb128 0xa
 3843 083f 0A020000 		.4byte	.LASF297
 3844 0843 9B02     		.sleb128 283
 3845 0845 0A       		.uleb128 0xa
 3846 0846 CC060000 		.4byte	.LASF298
 3847 084a 9C02     		.sleb128 284
 3848 084c 0A       		.uleb128 0xa
 3849 084d F9130000 		.4byte	.LASF299
 3850 0851 9D02     		.sleb128 285
 3851 0853 0A       		.uleb128 0xa
 3852 0854 B5110000 		.4byte	.LASF300
 3853 0858 9E02     		.sleb128 286
 3854 085a 0A       		.uleb128 0xa
 3855 085b D5000000 		.4byte	.LASF301
 3856 085f 9F02     		.sleb128 287
 3857 0861 0A       		.uleb128 0xa
 3858 0862 0E180000 		.4byte	.LASF302
 3859 0866 A002     		.sleb128 288
 3860 0868 0A       		.uleb128 0xa
 3861 0869 6D030000 		.4byte	.LASF303
 3862 086d A102     		.sleb128 289
 3863 086f 0A       		.uleb128 0xa
ARM GAS  C:\Users\AHMED~1.ELE\AppData\Local\Temp\ccbrMpYT.s 			page 124


 3864 0870 BD190000 		.4byte	.LASF304
 3865 0874 A202     		.sleb128 290
 3866 0876 0A       		.uleb128 0xa
 3867 0877 94220000 		.4byte	.LASF305
 3868 087b A302     		.sleb128 291
 3869 087d 0A       		.uleb128 0xa
 3870 087e 8C1D0000 		.4byte	.LASF306
 3871 0882 A402     		.sleb128 292
 3872 0884 0A       		.uleb128 0xa
 3873 0885 760F0000 		.4byte	.LASF307
 3874 0889 A502     		.sleb128 293
 3875 088b 0A       		.uleb128 0xa
 3876 088c B6240000 		.4byte	.LASF308
 3877 0890 A602     		.sleb128 294
 3878 0892 0A       		.uleb128 0xa
 3879 0893 5B1E0000 		.4byte	.LASF309
 3880 0897 A702     		.sleb128 295
 3881 0899 0A       		.uleb128 0xa
 3882 089a 6E1C0000 		.4byte	.LASF310
 3883 089e A802     		.sleb128 296
 3884 08a0 0A       		.uleb128 0xa
 3885 08a1 42160000 		.4byte	.LASF311
 3886 08a5 A902     		.sleb128 297
 3887 08a7 0A       		.uleb128 0xa
 3888 08a8 4A010000 		.4byte	.LASF312
 3889 08ac AA02     		.sleb128 298
 3890 08ae 0A       		.uleb128 0xa
 3891 08af 1B000000 		.4byte	.LASF313
 3892 08b3 AB02     		.sleb128 299
 3893 08b5 0A       		.uleb128 0xa
 3894 08b6 671A0000 		.4byte	.LASF314
 3895 08ba AC02     		.sleb128 300
 3896 08bc 0A       		.uleb128 0xa
 3897 08bd B60E0000 		.4byte	.LASF315
 3898 08c1 AD02     		.sleb128 301
 3899 08c3 0A       		.uleb128 0xa
 3900 08c4 74080000 		.4byte	.LASF316
 3901 08c8 AE02     		.sleb128 302
 3902 08ca 0A       		.uleb128 0xa
 3903 08cb BB1A0000 		.4byte	.LASF317
 3904 08cf AF02     		.sleb128 303
 3905 08d1 0A       		.uleb128 0xa
 3906 08d2 6F130000 		.4byte	.LASF318
 3907 08d6 B002     		.sleb128 304
 3908 08d8 0A       		.uleb128 0xa
 3909 08d9 34290000 		.4byte	.LASF319
 3910 08dd B102     		.sleb128 305
 3911 08df 0A       		.uleb128 0xa
 3912 08e0 7A260000 		.4byte	.LASF320
 3913 08e4 B202     		.sleb128 306
 3914 08e6 0A       		.uleb128 0xa
 3915 08e7 CB0F0000 		.4byte	.LASF321
 3916 08eb B302     		.sleb128 307
 3917 08ed 0A       		.uleb128 0xa
 3918 08ee E8170000 		.4byte	.LASF322
 3919 08f2 B402     		.sleb128 308
 3920 08f4 0A       		.uleb128 0xa
ARM GAS  C:\Users\AHMED~1.ELE\AppData\Local\Temp\ccbrMpYT.s 			page 125


 3921 08f5 1F1B0000 		.4byte	.LASF323
 3922 08f9 B502     		.sleb128 309
 3923 08fb 0A       		.uleb128 0xa
 3924 08fc DB070000 		.4byte	.LASF324
 3925 0900 B602     		.sleb128 310
 3926 0902 0A       		.uleb128 0xa
 3927 0903 42230000 		.4byte	.LASF325
 3928 0907 B702     		.sleb128 311
 3929 0909 0A       		.uleb128 0xa
 3930 090a EE0A0000 		.4byte	.LASF326
 3931 090e B802     		.sleb128 312
 3932 0910 0A       		.uleb128 0xa
 3933 0911 C2220000 		.4byte	.LASF327
 3934 0915 B902     		.sleb128 313
 3935 0917 0A       		.uleb128 0xa
 3936 0918 DD1A0000 		.4byte	.LASF328
 3937 091c BA02     		.sleb128 314
 3938 091e 0A       		.uleb128 0xa
 3939 091f A71C0000 		.4byte	.LASF329
 3940 0923 BB02     		.sleb128 315
 3941 0925 0A       		.uleb128 0xa
 3942 0926 F3000000 		.4byte	.LASF330
 3943 092a BC02     		.sleb128 316
 3944 092c 0A       		.uleb128 0xa
 3945 092d 56290000 		.4byte	.LASF331
 3946 0931 BD02     		.sleb128 317
 3947 0933 0A       		.uleb128 0xa
 3948 0934 A1290000 		.4byte	.LASF332
 3949 0938 BE02     		.sleb128 318
 3950 093a 0A       		.uleb128 0xa
 3951 093b 691D0000 		.4byte	.LASF333
 3952 093f BF02     		.sleb128 319
 3953 0941 0A       		.uleb128 0xa
 3954 0942 DD0F0000 		.4byte	.LASF334
 3955 0946 C002     		.sleb128 320
 3956 0948 0A       		.uleb128 0xa
 3957 0949 AA270000 		.4byte	.LASF335
 3958 094d C102     		.sleb128 321
 3959 094f 0A       		.uleb128 0xa
 3960 0950 28040000 		.4byte	.LASF336
 3961 0954 C202     		.sleb128 322
 3962 0956 0A       		.uleb128 0xa
 3963 0957 06010000 		.4byte	.LASF337
 3964 095b C302     		.sleb128 323
 3965 095d 0A       		.uleb128 0xa
 3966 095e 00000000 		.4byte	.LASF338
 3967 0962 C402     		.sleb128 324
 3968 0964 0A       		.uleb128 0xa
 3969 0965 211E0000 		.4byte	.LASF339
 3970 0969 C502     		.sleb128 325
 3971 096b 0A       		.uleb128 0xa
 3972 096c D9050000 		.4byte	.LASF340
 3973 0970 C602     		.sleb128 326
 3974 0972 0A       		.uleb128 0xa
 3975 0973 280D0000 		.4byte	.LASF341
 3976 0977 C702     		.sleb128 327
 3977 0979 0A       		.uleb128 0xa
ARM GAS  C:\Users\AHMED~1.ELE\AppData\Local\Temp\ccbrMpYT.s 			page 126


 3978 097a 09070000 		.4byte	.LASF342
 3979 097e C802     		.sleb128 328
 3980 0980 0A       		.uleb128 0xa
 3981 0981 F5210000 		.4byte	.LASF343
 3982 0985 C902     		.sleb128 329
 3983 0987 0A       		.uleb128 0xa
 3984 0988 EE200000 		.4byte	.LASF344
 3985 098c CA02     		.sleb128 330
 3986 098e 0A       		.uleb128 0xa
 3987 098f EA220000 		.4byte	.LASF345
 3988 0993 CB02     		.sleb128 331
 3989 0995 0A       		.uleb128 0xa
 3990 0996 1E010000 		.4byte	.LASF346
 3991 099a CC02     		.sleb128 332
 3992 099c 0A       		.uleb128 0xa
 3993 099d 1D160000 		.4byte	.LASF347
 3994 09a1 CD02     		.sleb128 333
 3995 09a3 0A       		.uleb128 0xa
 3996 09a4 05190000 		.4byte	.LASF348
 3997 09a8 CE02     		.sleb128 334
 3998 09aa 0A       		.uleb128 0xa
 3999 09ab D6270000 		.4byte	.LASF349
 4000 09af CF02     		.sleb128 335
 4001 09b1 0A       		.uleb128 0xa
 4002 09b2 23170000 		.4byte	.LASF350
 4003 09b6 D002     		.sleb128 336
 4004 09b8 0A       		.uleb128 0xa
 4005 09b9 55180000 		.4byte	.LASF351
 4006 09bd D102     		.sleb128 337
 4007 09bf 0A       		.uleb128 0xa
 4008 09c0 630E0000 		.4byte	.LASF352
 4009 09c4 D202     		.sleb128 338
 4010 09c6 0A       		.uleb128 0xa
 4011 09c7 D6130000 		.4byte	.LASF353
 4012 09cb D302     		.sleb128 339
 4013 09cd 0A       		.uleb128 0xa
 4014 09ce 65060000 		.4byte	.LASF354
 4015 09d2 D402     		.sleb128 340
 4016 09d4 0A       		.uleb128 0xa
 4017 09d5 941A0000 		.4byte	.LASF355
 4018 09d9 D502     		.sleb128 341
 4019 09db 0A       		.uleb128 0xa
 4020 09dc 2B270000 		.4byte	.LASF356
 4021 09e0 D602     		.sleb128 342
 4022 09e2 0A       		.uleb128 0xa
 4023 09e3 65160000 		.4byte	.LASF357
 4024 09e7 D702     		.sleb128 343
 4025 09e9 0A       		.uleb128 0xa
 4026 09ea 48150000 		.4byte	.LASF358
 4027 09ee D802     		.sleb128 344
 4028 09f0 0A       		.uleb128 0xa
 4029 09f1 F81C0000 		.4byte	.LASF359
 4030 09f5 D902     		.sleb128 345
 4031 09f7 0A       		.uleb128 0xa
 4032 09f8 AF0C0000 		.4byte	.LASF360
 4033 09fc DA02     		.sleb128 346
 4034 09fe 0A       		.uleb128 0xa
ARM GAS  C:\Users\AHMED~1.ELE\AppData\Local\Temp\ccbrMpYT.s 			page 127


 4035 09ff 5F1B0000 		.4byte	.LASF361
 4036 0a03 DB02     		.sleb128 347
 4037 0a05 0A       		.uleb128 0xa
 4038 0a06 98130000 		.4byte	.LASF362
 4039 0a0a DC02     		.sleb128 348
 4040 0a0c 0A       		.uleb128 0xa
 4041 0a0d FF1B0000 		.4byte	.LASF363
 4042 0a11 DD02     		.sleb128 349
 4043 0a13 0A       		.uleb128 0xa
 4044 0a14 3C190000 		.4byte	.LASF364
 4045 0a18 DE02     		.sleb128 350
 4046 0a1a 0A       		.uleb128 0xa
 4047 0a1b C2010000 		.4byte	.LASF365
 4048 0a1f DF02     		.sleb128 351
 4049 0a21 0A       		.uleb128 0xa
 4050 0a22 1D020000 		.4byte	.LASF366
 4051 0a26 E002     		.sleb128 352
 4052 0a28 0A       		.uleb128 0xa
 4053 0a29 791F0000 		.4byte	.LASF367
 4054 0a2d E102     		.sleb128 353
 4055 0a2f 0A       		.uleb128 0xa
 4056 0a30 72220000 		.4byte	.LASF368
 4057 0a34 E202     		.sleb128 354
 4058 0a36 0A       		.uleb128 0xa
 4059 0a37 61110000 		.4byte	.LASF369
 4060 0a3b E302     		.sleb128 355
 4061 0a3d 0A       		.uleb128 0xa
 4062 0a3e F9100000 		.4byte	.LASF370
 4063 0a42 E402     		.sleb128 356
 4064 0a44 0A       		.uleb128 0xa
 4065 0a45 AF0B0000 		.4byte	.LASF371
 4066 0a49 E502     		.sleb128 357
 4067 0a4b 0A       		.uleb128 0xa
 4068 0a4c 540F0000 		.4byte	.LASF372
 4069 0a50 E602     		.sleb128 358
 4070 0a52 0A       		.uleb128 0xa
 4071 0a53 B9090000 		.4byte	.LASF373
 4072 0a57 E702     		.sleb128 359
 4073 0a59 0A       		.uleb128 0xa
 4074 0a5a FD230000 		.4byte	.LASF374
 4075 0a5e E802     		.sleb128 360
 4076 0a60 0A       		.uleb128 0xa
 4077 0a61 37150000 		.4byte	.LASF375
 4078 0a65 E902     		.sleb128 361
 4079 0a67 0A       		.uleb128 0xa
 4080 0a68 CE210000 		.4byte	.LASF376
 4081 0a6c EA02     		.sleb128 362
 4082 0a6e 0A       		.uleb128 0xa
 4083 0a6f D10C0000 		.4byte	.LASF377
 4084 0a73 EB02     		.sleb128 363
 4085 0a75 0A       		.uleb128 0xa
 4086 0a76 E10C0000 		.4byte	.LASF378
 4087 0a7a EC02     		.sleb128 364
 4088 0a7c 0A       		.uleb128 0xa
 4089 0a7d B7250000 		.4byte	.LASF379
 4090 0a81 ED02     		.sleb128 365
 4091 0a83 0A       		.uleb128 0xa
ARM GAS  C:\Users\AHMED~1.ELE\AppData\Local\Temp\ccbrMpYT.s 			page 128


 4092 0a84 96250000 		.4byte	.LASF380
 4093 0a88 EE02     		.sleb128 366
 4094 0a8a 0A       		.uleb128 0xa
 4095 0a8b D6040000 		.4byte	.LASF381
 4096 0a8f EF02     		.sleb128 367
 4097 0a91 0A       		.uleb128 0xa
 4098 0a92 040B0000 		.4byte	.LASF382
 4099 0a96 F002     		.sleb128 368
 4100 0a98 0A       		.uleb128 0xa
 4101 0a99 B6050000 		.4byte	.LASF383
 4102 0a9d F102     		.sleb128 369
 4103 0a9f 0A       		.uleb128 0xa
 4104 0aa0 DB1F0000 		.4byte	.LASF384
 4105 0aa4 F202     		.sleb128 370
 4106 0aa6 0A       		.uleb128 0xa
 4107 0aa7 140D0000 		.4byte	.LASF385
 4108 0aab F302     		.sleb128 371
 4109 0aad 0A       		.uleb128 0xa
 4110 0aae 89190000 		.4byte	.LASF386
 4111 0ab2 F402     		.sleb128 372
 4112 0ab4 0A       		.uleb128 0xa
 4113 0ab5 430C0000 		.4byte	.LASF387
 4114 0ab9 F502     		.sleb128 373
 4115 0abb 0A       		.uleb128 0xa
 4116 0abc 5B250000 		.4byte	.LASF388
 4117 0ac0 F602     		.sleb128 374
 4118 0ac2 0A       		.uleb128 0xa
 4119 0ac3 52060000 		.4byte	.LASF389
 4120 0ac7 F702     		.sleb128 375
 4121 0ac9 0A       		.uleb128 0xa
 4122 0aca FC270000 		.4byte	.LASF390
 4123 0ace F802     		.sleb128 376
 4124 0ad0 0A       		.uleb128 0xa
 4125 0ad1 39280000 		.4byte	.LASF391
 4126 0ad5 F902     		.sleb128 377
 4127 0ad7 0A       		.uleb128 0xa
 4128 0ad8 8D150000 		.4byte	.LASF392
 4129 0adc FA02     		.sleb128 378
 4130 0ade 0A       		.uleb128 0xa
 4131 0adf 6F200000 		.4byte	.LASF393
 4132 0ae3 FB02     		.sleb128 379
 4133 0ae5 0A       		.uleb128 0xa
 4134 0ae6 3D1D0000 		.4byte	.LASF394
 4135 0aea FC02     		.sleb128 380
 4136 0aec 0A       		.uleb128 0xa
 4137 0aed 42180000 		.4byte	.LASF395
 4138 0af1 FD02     		.sleb128 381
 4139 0af3 0A       		.uleb128 0xa
 4140 0af4 4A200000 		.4byte	.LASF396
 4141 0af8 FE02     		.sleb128 382
 4142 0afa 0A       		.uleb128 0xa
 4143 0afb A1040000 		.4byte	.LASF397
 4144 0aff FF02     		.sleb128 383
 4145 0b01 0A       		.uleb128 0xa
 4146 0b02 311C0000 		.4byte	.LASF398
 4147 0b06 8003     		.sleb128 384
 4148 0b08 0A       		.uleb128 0xa
ARM GAS  C:\Users\AHMED~1.ELE\AppData\Local\Temp\ccbrMpYT.s 			page 129


 4149 0b09 280E0000 		.4byte	.LASF399
 4150 0b0d 8103     		.sleb128 385
 4151 0b0f 0A       		.uleb128 0xa
 4152 0b10 D2240000 		.4byte	.LASF400
 4153 0b14 8203     		.sleb128 386
 4154 0b16 0A       		.uleb128 0xa
 4155 0b17 E3110000 		.4byte	.LASF401
 4156 0b1b 8303     		.sleb128 387
 4157 0b1d 0A       		.uleb128 0xa
 4158 0b1e 8F070000 		.4byte	.LASF402
 4159 0b22 8403     		.sleb128 388
 4160 0b24 0A       		.uleb128 0xa
 4161 0b25 D3140000 		.4byte	.LASF403
 4162 0b29 8503     		.sleb128 389
 4163 0b2b 0A       		.uleb128 0xa
 4164 0b2c 091F0000 		.4byte	.LASF404
 4165 0b30 8603     		.sleb128 390
 4166 0b32 0A       		.uleb128 0xa
 4167 0b33 DA080000 		.4byte	.LASF405
 4168 0b37 8703     		.sleb128 391
 4169 0b39 0A       		.uleb128 0xa
 4170 0b3a F11A0000 		.4byte	.LASF406
 4171 0b3e 8803     		.sleb128 392
 4172 0b40 0A       		.uleb128 0xa
 4173 0b41 480A0000 		.4byte	.LASF407
 4174 0b45 8903     		.sleb128 393
 4175 0b47 0A       		.uleb128 0xa
 4176 0b48 8C280000 		.4byte	.LASF408
 4177 0b4c 8A03     		.sleb128 394
 4178 0b4e 0A       		.uleb128 0xa
 4179 0b4f F41D0000 		.4byte	.LASF409
 4180 0b53 8B03     		.sleb128 395
 4181 0b55 0A       		.uleb128 0xa
 4182 0b56 7F210000 		.4byte	.LASF410
 4183 0b5a 8C03     		.sleb128 396
 4184 0b5c 0A       		.uleb128 0xa
 4185 0b5d 23240000 		.4byte	.LASF411
 4186 0b61 8D03     		.sleb128 397
 4187 0b63 0A       		.uleb128 0xa
 4188 0b64 81000000 		.4byte	.LASF412
 4189 0b68 8E03     		.sleb128 398
 4190 0b6a 0A       		.uleb128 0xa
 4191 0b6b 6C190000 		.4byte	.LASF413
 4192 0b6f 8F03     		.sleb128 399
 4193 0b71 0A       		.uleb128 0xa
 4194 0b72 9A0E0000 		.4byte	.LASF414
 4195 0b76 9003     		.sleb128 400
 4196 0b78 0A       		.uleb128 0xa
 4197 0b79 8F230000 		.4byte	.LASF415
 4198 0b7d 9103     		.sleb128 401
 4199 0b7f 0A       		.uleb128 0xa
 4200 0b80 D50D0000 		.4byte	.LASF416
 4201 0b84 9203     		.sleb128 402
 4202 0b86 0A       		.uleb128 0xa
 4203 0b87 A7180000 		.4byte	.LASF417
 4204 0b8b 9303     		.sleb128 403
 4205 0b8d 0A       		.uleb128 0xa
ARM GAS  C:\Users\AHMED~1.ELE\AppData\Local\Temp\ccbrMpYT.s 			page 130


 4206 0b8e 231C0000 		.4byte	.LASF418
 4207 0b92 9403     		.sleb128 404
 4208 0b94 0A       		.uleb128 0xa
 4209 0b95 E4040000 		.4byte	.LASF419
 4210 0b99 9503     		.sleb128 405
 4211 0b9b 0A       		.uleb128 0xa
 4212 0b9c 691F0000 		.4byte	.LASF420
 4213 0ba0 9603     		.sleb128 406
 4214 0ba2 0A       		.uleb128 0xa
 4215 0ba3 8F040000 		.4byte	.LASF421
 4216 0ba7 9703     		.sleb128 407
 4217 0ba9 0A       		.uleb128 0xa
 4218 0baa A5110000 		.4byte	.LASF422
 4219 0bae 9803     		.sleb128 408
 4220 0bb0 0A       		.uleb128 0xa
 4221 0bb1 011A0000 		.4byte	.LASF423
 4222 0bb5 9903     		.sleb128 409
 4223 0bb7 0A       		.uleb128 0xa
 4224 0bb8 840E0000 		.4byte	.LASF424
 4225 0bbc 9A03     		.sleb128 410
 4226 0bbe 0A       		.uleb128 0xa
 4227 0bbf 2D000000 		.4byte	.LASF425
 4228 0bc3 9B03     		.sleb128 411
 4229 0bc5 0A       		.uleb128 0xa
 4230 0bc6 16130000 		.4byte	.LASF426
 4231 0bca 9C03     		.sleb128 412
 4232 0bcc 0A       		.uleb128 0xa
 4233 0bcd F30E0000 		.4byte	.LASF427
 4234 0bd1 9D03     		.sleb128 413
 4235 0bd3 0A       		.uleb128 0xa
 4236 0bd4 461A0000 		.4byte	.LASF428
 4237 0bd8 9E03     		.sleb128 414
 4238 0bda 0A       		.uleb128 0xa
 4239 0bdb 13230000 		.4byte	.LASF429
 4240 0bdf 9F03     		.sleb128 415
 4241 0be1 0A       		.uleb128 0xa
 4242 0be2 460B0000 		.4byte	.LASF430
 4243 0be6 A003     		.sleb128 416
 4244 0be8 0A       		.uleb128 0xa
 4245 0be9 9B0F0000 		.4byte	.LASF431
 4246 0bed A103     		.sleb128 417
 4247 0bef 0A       		.uleb128 0xa
 4248 0bf0 68080000 		.4byte	.LASF432
 4249 0bf4 A203     		.sleb128 418
 4250 0bf6 0A       		.uleb128 0xa
 4251 0bf7 60090000 		.4byte	.LASF433
 4252 0bfb A303     		.sleb128 419
 4253 0bfd 0A       		.uleb128 0xa
 4254 0bfe 7E020000 		.4byte	.LASF434
 4255 0c02 A403     		.sleb128 420
 4256 0c04 0A       		.uleb128 0xa
 4257 0c05 00180000 		.4byte	.LASF435
 4258 0c09 A503     		.sleb128 421
 4259 0c0b 0A       		.uleb128 0xa
 4260 0c0c 32260000 		.4byte	.LASF436
 4261 0c10 A603     		.sleb128 422
 4262 0c12 0A       		.uleb128 0xa
ARM GAS  C:\Users\AHMED~1.ELE\AppData\Local\Temp\ccbrMpYT.s 			page 131


 4263 0c13 DD030000 		.4byte	.LASF437
 4264 0c17 A703     		.sleb128 423
 4265 0c19 0A       		.uleb128 0xa
 4266 0c1a 8F140000 		.4byte	.LASF438
 4267 0c1e A803     		.sleb128 424
 4268 0c20 0A       		.uleb128 0xa
 4269 0c21 37020000 		.4byte	.LASF439
 4270 0c25 A903     		.sleb128 425
 4271 0c27 0A       		.uleb128 0xa
 4272 0c28 A4050000 		.4byte	.LASF440
 4273 0c2c AA03     		.sleb128 426
 4274 0c2e 0A       		.uleb128 0xa
 4275 0c2f E6280000 		.4byte	.LASF441
 4276 0c33 AB03     		.sleb128 427
 4277 0c35 0A       		.uleb128 0xa
 4278 0c36 B91E0000 		.4byte	.LASF442
 4279 0c3a AC03     		.sleb128 428
 4280 0c3c 0A       		.uleb128 0xa
 4281 0c3d 4B0E0000 		.4byte	.LASF443
 4282 0c41 AD03     		.sleb128 429
 4283 0c43 0A       		.uleb128 0xa
 4284 0c44 D0170000 		.4byte	.LASF444
 4285 0c48 AE03     		.sleb128 430
 4286 0c4a 0A       		.uleb128 0xa
 4287 0c4b 23280000 		.4byte	.LASF445
 4288 0c4f AF03     		.sleb128 431
 4289 0c51 0A       		.uleb128 0xa
 4290 0c52 210B0000 		.4byte	.LASF446
 4291 0c56 B003     		.sleb128 432
 4292 0c58 0A       		.uleb128 0xa
 4293 0c59 10060000 		.4byte	.LASF447
 4294 0c5d B103     		.sleb128 433
 4295 0c5f 0A       		.uleb128 0xa
 4296 0c60 FA160000 		.4byte	.LASF448
 4297 0c64 B203     		.sleb128 434
 4298 0c66 0A       		.uleb128 0xa
 4299 0c67 620F0000 		.4byte	.LASF449
 4300 0c6b B303     		.sleb128 435
 4301 0c6d 0A       		.uleb128 0xa
 4302 0c6e 89170000 		.4byte	.LASF450
 4303 0c72 B403     		.sleb128 436
 4304 0c74 0A       		.uleb128 0xa
 4305 0c75 EC050000 		.4byte	.LASF451
 4306 0c79 B503     		.sleb128 437
 4307 0c7b 0A       		.uleb128 0xa
 4308 0c7c 0C0C0000 		.4byte	.LASF452
 4309 0c80 B603     		.sleb128 438
 4310 0c82 0A       		.uleb128 0xa
 4311 0c83 80130000 		.4byte	.LASF453
 4312 0c87 B703     		.sleb128 439
 4313 0c89 0A       		.uleb128 0xa
 4314 0c8a 950C0000 		.4byte	.LASF454
 4315 0c8e B803     		.sleb128 440
 4316 0c90 0A       		.uleb128 0xa
 4317 0c91 37010000 		.4byte	.LASF455
 4318 0c95 B903     		.sleb128 441
 4319 0c97 0A       		.uleb128 0xa
ARM GAS  C:\Users\AHMED~1.ELE\AppData\Local\Temp\ccbrMpYT.s 			page 132


 4320 0c98 881F0000 		.4byte	.LASF456
 4321 0c9c BA03     		.sleb128 442
 4322 0c9e 0A       		.uleb128 0xa
 4323 0c9f 0E220000 		.4byte	.LASF457
 4324 0ca3 BB03     		.sleb128 443
 4325 0ca5 0A       		.uleb128 0xa
 4326 0ca6 F3060000 		.4byte	.LASF458
 4327 0caa BC03     		.sleb128 444
 4328 0cac 0A       		.uleb128 0xa
 4329 0cad A61A0000 		.4byte	.LASF459
 4330 0cb1 BD03     		.sleb128 445
 4331 0cb3 0A       		.uleb128 0xa
 4332 0cb4 DA120000 		.4byte	.LASF460
 4333 0cb8 BE03     		.sleb128 446
 4334 0cba 0A       		.uleb128 0xa
 4335 0cbb A0020000 		.4byte	.LASF461
 4336 0cbf BF03     		.sleb128 447
 4337 0cc1 0A       		.uleb128 0xa
 4338 0cc2 7B0C0000 		.4byte	.LASF462
 4339 0cc6 C003     		.sleb128 448
 4340 0cc8 0A       		.uleb128 0xa
 4341 0cc9 391E0000 		.4byte	.LASF463
 4342 0ccd C103     		.sleb128 449
 4343 0ccf 0A       		.uleb128 0xa
 4344 0cd0 E1230000 		.4byte	.LASF464
 4345 0cd4 C203     		.sleb128 450
 4346 0cd6 0A       		.uleb128 0xa
 4347 0cd7 36240000 		.4byte	.LASF465
 4348 0cdb C303     		.sleb128 451
 4349 0cdd 0A       		.uleb128 0xa
 4350 0cde C2030000 		.4byte	.LASF466
 4351 0ce2 C403     		.sleb128 452
 4352 0ce4 0A       		.uleb128 0xa
 4353 0ce5 590A0000 		.4byte	.LASF467
 4354 0ce9 C503     		.sleb128 453
 4355 0ceb 0A       		.uleb128 0xa
 4356 0cec 67240000 		.4byte	.LASF468
 4357 0cf0 C603     		.sleb128 454
 4358 0cf2 0A       		.uleb128 0xa
 4359 0cf3 35110000 		.4byte	.LASF469
 4360 0cf7 C703     		.sleb128 455
 4361 0cf9 0A       		.uleb128 0xa
 4362 0cfa 3E270000 		.4byte	.LASF470
 4363 0cfe C803     		.sleb128 456
 4364 0d00 0A       		.uleb128 0xa
 4365 0d01 3D080000 		.4byte	.LASF471
 4366 0d05 C903     		.sleb128 457
 4367 0d07 0A       		.uleb128 0xa
 4368 0d08 70180000 		.4byte	.LASF472
 4369 0d0c CA03     		.sleb128 458
 4370 0d0e 0A       		.uleb128 0xa
 4371 0d0f 151D0000 		.4byte	.LASF473
 4372 0d13 CB03     		.sleb128 459
 4373 0d15 0A       		.uleb128 0xa
 4374 0d16 4D130000 		.4byte	.LASF474
 4375 0d1a CC03     		.sleb128 460
 4376 0d1c 0A       		.uleb128 0xa
ARM GAS  C:\Users\AHMED~1.ELE\AppData\Local\Temp\ccbrMpYT.s 			page 133


 4377 0d1d FD020000 		.4byte	.LASF475
 4378 0d21 CD03     		.sleb128 461
 4379 0d23 0A       		.uleb128 0xa
 4380 0d24 57230000 		.4byte	.LASF476
 4381 0d28 CE03     		.sleb128 462
 4382 0d2a 0A       		.uleb128 0xa
 4383 0d2b 96010000 		.4byte	.LASF477
 4384 0d2f CF03     		.sleb128 463
 4385 0d31 0A       		.uleb128 0xa
 4386 0d32 F20F0000 		.4byte	.LASF478
 4387 0d36 D003     		.sleb128 464
 4388 0d38 0A       		.uleb128 0xa
 4389 0d39 B5100000 		.4byte	.LASF479
 4390 0d3d D103     		.sleb128 465
 4391 0d3f 0A       		.uleb128 0xa
 4392 0d40 2B250000 		.4byte	.LASF480
 4393 0d44 D203     		.sleb128 466
 4394 0d46 0A       		.uleb128 0xa
 4395 0d47 AA1F0000 		.4byte	.LASF481
 4396 0d4b D303     		.sleb128 467
 4397 0d4d 0A       		.uleb128 0xa
 4398 0d4e 0D1E0000 		.4byte	.LASF482
 4399 0d52 D403     		.sleb128 468
 4400 0d54 0A       		.uleb128 0xa
 4401 0d55 3D070000 		.4byte	.LASF483
 4402 0d59 D503     		.sleb128 469
 4403 0d5b 0A       		.uleb128 0xa
 4404 0d5c E51E0000 		.4byte	.LASF484
 4405 0d60 D603     		.sleb128 470
 4406 0d62 0A       		.uleb128 0xa
 4407 0d63 DA010000 		.4byte	.LASF485
 4408 0d67 D703     		.sleb128 471
 4409 0d69 0A       		.uleb128 0xa
 4410 0d6a E51B0000 		.4byte	.LASF486
 4411 0d6e D803     		.sleb128 472
 4412 0d70 00       		.byte	0
 4413 0d71 0B       		.uleb128 0xb
 4414 0d72 85000000 		.4byte	0x85
 4415 0d76 810D0000 		.4byte	0xd81
 4416 0d7a 0C       		.uleb128 0xc
 4417 0d7b 76000000 		.4byte	0x76
 4418 0d7f 3F       		.byte	0x3f
 4419 0d80 00       		.byte	0
 4420 0d81 0D       		.uleb128 0xd
 4421 0d82 5E200000 		.4byte	.LASF488
 4422 0d86 01       		.byte	0x1
 4423 0d87 05       		.byte	0x5
 4424 0d88 4D       		.byte	0x4d
 4425 0d89 B20D0000 		.4byte	0xdb2
 4426 0d8d 0A       		.uleb128 0xa
 4427 0d8e CE1A0000 		.4byte	.LASF489
 4428 0d92 00       		.sleb128 0
 4429 0d93 0A       		.uleb128 0xa
 4430 0d94 DD0B0000 		.4byte	.LASF490
 4431 0d98 01       		.sleb128 1
 4432 0d99 0A       		.uleb128 0xa
 4433 0d9a E2020000 		.4byte	.LASF491
ARM GAS  C:\Users\AHMED~1.ELE\AppData\Local\Temp\ccbrMpYT.s 			page 134


 4434 0d9e 02       		.sleb128 2
 4435 0d9f 0A       		.uleb128 0xa
 4436 0da0 BF180000 		.4byte	.LASF492
 4437 0da4 03       		.sleb128 3
 4438 0da5 0A       		.uleb128 0xa
 4439 0da6 B9170000 		.4byte	.LASF493
 4440 0daa 04       		.sleb128 4
 4441 0dab 0A       		.uleb128 0xa
 4442 0dac C1160000 		.4byte	.LASF494
 4443 0db0 05       		.sleb128 5
 4444 0db1 00       		.byte	0
 4445 0db2 04       		.uleb128 0x4
 4446 0db3 A9200000 		.4byte	.LASF495
 4447 0db7 05       		.byte	0x5
 4448 0db8 55       		.byte	0x55
 4449 0db9 810D0000 		.4byte	0xd81
 4450 0dbd 0D       		.uleb128 0xd
 4451 0dbe 80280000 		.4byte	.LASF496
 4452 0dc2 01       		.byte	0x1
 4453 0dc3 05       		.byte	0x5
 4454 0dc4 57       		.byte	0x57
 4455 0dc5 F40D0000 		.4byte	0xdf4
 4456 0dc9 0A       		.uleb128 0xa
 4457 0dca 3C030000 		.4byte	.LASF497
 4458 0dce 7F       		.sleb128 -1
 4459 0dcf 0A       		.uleb128 0xa
 4460 0dd0 F8180000 		.4byte	.LASF498
 4461 0dd4 00       		.sleb128 0
 4462 0dd5 0A       		.uleb128 0xa
 4463 0dd6 F0020000 		.4byte	.LASF499
 4464 0dda 01       		.sleb128 1
 4465 0ddb 0A       		.uleb128 0xa
 4466 0ddc 4C280000 		.4byte	.LASF500
 4467 0de0 02       		.sleb128 2
 4468 0de1 0A       		.uleb128 0xa
 4469 0de2 FF1E0000 		.4byte	.LASF501
 4470 0de6 03       		.sleb128 3
 4471 0de7 0A       		.uleb128 0xa
 4472 0de8 B7140000 		.4byte	.LASF502
 4473 0dec 04       		.sleb128 4
 4474 0ded 0A       		.uleb128 0xa
 4475 0dee 5C000000 		.4byte	.LASF503
 4476 0df2 05       		.sleb128 5
 4477 0df3 00       		.byte	0
 4478 0df4 04       		.uleb128 0x4
 4479 0df5 CA280000 		.4byte	.LASF504
 4480 0df9 05       		.byte	0x5
 4481 0dfa 60       		.byte	0x60
 4482 0dfb BD0D0000 		.4byte	0xdbd
 4483 0dff 04       		.uleb128 0x4
 4484 0e00 E2150000 		.4byte	.LASF505
 4485 0e04 05       		.byte	0x5
 4486 0e05 62       		.byte	0x62
 4487 0e06 0A0E0000 		.4byte	0xe0a
 4488 0e0a 06       		.uleb128 0x6
 4489 0e0b 04       		.byte	0x4
 4490 0e0c 100E0000 		.4byte	0xe10
ARM GAS  C:\Users\AHMED~1.ELE\AppData\Local\Temp\ccbrMpYT.s 			page 135


 4491 0e10 0E       		.uleb128 0xe
 4492 0e11 1B0E0000 		.4byte	0xe1b
 4493 0e15 0F       		.uleb128 0xf
 4494 0e16 7D000000 		.4byte	0x7d
 4495 0e1a 00       		.byte	0
 4496 0e1b 04       		.uleb128 0x4
 4497 0e1c 8D090000 		.4byte	.LASF506
 4498 0e20 05       		.byte	0x5
 4499 0e21 65       		.byte	0x65
 4500 0e22 260E0000 		.4byte	0xe26
 4501 0e26 06       		.uleb128 0x6
 4502 0e27 04       		.byte	0x4
 4503 0e28 2C0E0000 		.4byte	0xe2c
 4504 0e2c 0E       		.uleb128 0xe
 4505 0e2d 370E0000 		.4byte	0xe37
 4506 0e31 0F       		.uleb128 0xf
 4507 0e32 8C000000 		.4byte	0x8c
 4508 0e36 00       		.byte	0
 4509 0e37 10       		.uleb128 0x10
 4510 0e38 81200000 		.4byte	.LASF510
 4511 0e3c 08       		.byte	0x8
 4512 0e3d 05       		.byte	0x5
 4513 0e3e 68       		.byte	0x68
 4514 0e3f 5C0E0000 		.4byte	0xe5c
 4515 0e43 11       		.uleb128 0x11
 4516 0e44 F0210000 		.4byte	.LASF507
 4517 0e48 05       		.byte	0x5
 4518 0e49 6A       		.byte	0x6a
 4519 0e4a 7F000000 		.4byte	0x7f
 4520 0e4e 00       		.byte	0
 4521 0e4f 11       		.uleb128 0x11
 4522 0e50 D90A0000 		.4byte	.LASF508
 4523 0e54 05       		.byte	0x5
 4524 0e55 6B       		.byte	0x6b
 4525 0e56 7F000000 		.4byte	0x7f
 4526 0e5a 04       		.byte	0x4
 4527 0e5b 00       		.byte	0
 4528 0e5c 04       		.uleb128 0x4
 4529 0e5d 8D200000 		.4byte	.LASF509
 4530 0e61 05       		.byte	0x5
 4531 0e62 6C       		.byte	0x6c
 4532 0e63 370E0000 		.4byte	0xe37
 4533 0e67 10       		.uleb128 0x10
 4534 0e68 070A0000 		.4byte	.LASF511
 4535 0e6c 0C       		.byte	0xc
 4536 0e6d 05       		.byte	0x5
 4537 0e6e 6E       		.byte	0x6e
 4538 0e6f 980E0000 		.4byte	0xe98
 4539 0e73 11       		.uleb128 0x11
 4540 0e74 F0210000 		.4byte	.LASF507
 4541 0e78 05       		.byte	0x5
 4542 0e79 70       		.byte	0x70
 4543 0e7a 7F000000 		.4byte	0x7f
 4544 0e7e 00       		.byte	0
 4545 0e7f 11       		.uleb128 0x11
 4546 0e80 390C0000 		.4byte	.LASF512
 4547 0e84 05       		.byte	0x5
ARM GAS  C:\Users\AHMED~1.ELE\AppData\Local\Temp\ccbrMpYT.s 			page 136


 4548 0e85 71       		.byte	0x71
 4549 0e86 5D000000 		.4byte	0x5d
 4550 0e8a 04       		.byte	0x4
 4551 0e8b 11       		.uleb128 0x11
 4552 0e8c 0E0D0000 		.4byte	.LASF513
 4553 0e90 05       		.byte	0x5
 4554 0e91 72       		.byte	0x72
 4555 0e92 980E0000 		.4byte	0xe98
 4556 0e96 08       		.byte	0x8
 4557 0e97 00       		.byte	0
 4558 0e98 06       		.uleb128 0x6
 4559 0e99 04       		.byte	0x4
 4560 0e9a 5C0E0000 		.4byte	0xe5c
 4561 0e9e 04       		.uleb128 0x4
 4562 0e9f 160A0000 		.4byte	.LASF514
 4563 0ea3 05       		.byte	0x5
 4564 0ea4 73       		.byte	0x73
 4565 0ea5 670E0000 		.4byte	0xe67
 4566 0ea9 10       		.uleb128 0x10
 4567 0eaa 9F1D0000 		.4byte	.LASF515
 4568 0eae 08       		.byte	0x8
 4569 0eaf 05       		.byte	0x5
 4570 0eb0 75       		.byte	0x75
 4571 0eb1 CE0E0000 		.4byte	0xece
 4572 0eb5 11       		.uleb128 0x11
 4573 0eb6 97060000 		.4byte	.LASF516
 4574 0eba 05       		.byte	0x5
 4575 0ebb 77       		.byte	0x77
 4576 0ebc 5D000000 		.4byte	0x5d
 4577 0ec0 00       		.byte	0
 4578 0ec1 11       		.uleb128 0x11
 4579 0ec2 82170000 		.4byte	.LASF517
 4580 0ec6 05       		.byte	0x5
 4581 0ec7 78       		.byte	0x78
 4582 0ec8 7F000000 		.4byte	0x7f
 4583 0ecc 04       		.byte	0x4
 4584 0ecd 00       		.byte	0
 4585 0ece 04       		.uleb128 0x4
 4586 0ecf 2F060000 		.4byte	.LASF518
 4587 0ed3 05       		.byte	0x5
 4588 0ed4 79       		.byte	0x79
 4589 0ed5 A90E0000 		.4byte	0xea9
 4590 0ed9 10       		.uleb128 0x10
 4591 0eda FB150000 		.4byte	.LASF519
 4592 0ede 08       		.byte	0x8
 4593 0edf 05       		.byte	0x5
 4594 0ee0 7B       		.byte	0x7b
 4595 0ee1 FE0E0000 		.4byte	0xefe
 4596 0ee5 11       		.uleb128 0x11
 4597 0ee6 B3280000 		.4byte	.LASF520
 4598 0eea 05       		.byte	0x5
 4599 0eeb 7D       		.byte	0x7d
 4600 0eec 7D000000 		.4byte	0x7d
 4601 0ef0 00       		.byte	0
 4602 0ef1 11       		.uleb128 0x11
 4603 0ef2 C91D0000 		.4byte	.LASF521
 4604 0ef6 05       		.byte	0x5
ARM GAS  C:\Users\AHMED~1.ELE\AppData\Local\Temp\ccbrMpYT.s 			page 137


 4605 0ef7 7E       		.byte	0x7e
 4606 0ef8 FF0D0000 		.4byte	0xdff
 4607 0efc 04       		.byte	0x4
 4608 0efd 00       		.byte	0
 4609 0efe 04       		.uleb128 0x4
 4610 0eff 37100000 		.4byte	.LASF522
 4611 0f03 05       		.byte	0x5
 4612 0f04 7F       		.byte	0x7f
 4613 0f05 D90E0000 		.4byte	0xed9
 4614 0f09 12       		.uleb128 0x12
 4615 0f0a AE070000 		.4byte	.LASF609
 4616 0f0e 10       		.byte	0x10
 4617 0f0f 05       		.byte	0x5
 4618 0f10 81       		.byte	0x81
 4619 0f11 580F0000 		.4byte	0xf58
 4620 0f15 13       		.uleb128 0x13
 4621 0f16 501D0000 		.4byte	.LASF523
 4622 0f1a 05       		.byte	0x5
 4623 0f1b 83       		.byte	0x83
 4624 0f1c 9E0E0000 		.4byte	0xe9e
 4625 0f20 13       		.uleb128 0x13
 4626 0f21 5B070000 		.4byte	.LASF524
 4627 0f25 05       		.byte	0x5
 4628 0f26 84       		.byte	0x84
 4629 0f27 5D000000 		.4byte	0x5d
 4630 0f2b 13       		.uleb128 0x13
 4631 0f2c 21070000 		.4byte	.LASF525
 4632 0f30 05       		.byte	0x5
 4633 0f31 85       		.byte	0x85
 4634 0f32 7F000000 		.4byte	0x7f
 4635 0f36 13       		.uleb128 0x13
 4636 0f37 9D170000 		.4byte	.LASF526
 4637 0f3b 05       		.byte	0x5
 4638 0f3c 86       		.byte	0x86
 4639 0f3d 580F0000 		.4byte	0xf58
 4640 0f41 13       		.uleb128 0x13
 4641 0f42 DD020000 		.4byte	.LASF527
 4642 0f46 05       		.byte	0x5
 4643 0f47 87       		.byte	0x87
 4644 0f48 CE0E0000 		.4byte	0xece
 4645 0f4c 13       		.uleb128 0x13
 4646 0f4d C21D0000 		.4byte	.LASF528
 4647 0f51 05       		.byte	0x5
 4648 0f52 88       		.byte	0x88
 4649 0f53 FE0E0000 		.4byte	0xefe
 4650 0f57 00       		.byte	0
 4651 0f58 02       		.uleb128 0x2
 4652 0f59 08       		.byte	0x8
 4653 0f5a 04       		.byte	0x4
 4654 0f5b A1150000 		.4byte	.LASF529
 4655 0f5f 04       		.uleb128 0x4
 4656 0f60 A1070000 		.4byte	.LASF530
 4657 0f64 05       		.byte	0x5
 4658 0f65 89       		.byte	0x89
 4659 0f66 090F0000 		.4byte	0xf09
 4660 0f6a 10       		.uleb128 0x10
 4661 0f6b 4D050000 		.4byte	.LASF531
ARM GAS  C:\Users\AHMED~1.ELE\AppData\Local\Temp\ccbrMpYT.s 			page 138


 4662 0f6f 30       		.byte	0x30
 4663 0f70 05       		.byte	0x5
 4664 0f71 8B       		.byte	0x8b
 4665 0f72 E30F0000 		.4byte	0xfe3
 4666 0f76 11       		.uleb128 0x11
 4667 0f77 91030000 		.4byte	.LASF532
 4668 0f7b 05       		.byte	0x5
 4669 0f7c 8D       		.byte	0x8d
 4670 0f7d F40D0000 		.4byte	0xdf4
 4671 0f81 00       		.byte	0
 4672 0f82 11       		.uleb128 0x11
 4673 0f83 AE280000 		.4byte	.LASF533
 4674 0f87 05       		.byte	0x5
 4675 0f88 8E       		.byte	0x8e
 4676 0f89 E30F0000 		.4byte	0xfe3
 4677 0f8d 04       		.byte	0x4
 4678 0f8e 11       		.uleb128 0x11
 4679 0f8f 7B280000 		.4byte	.LASF534
 4680 0f93 05       		.byte	0x5
 4681 0f94 8F       		.byte	0x8f
 4682 0f95 E30F0000 		.4byte	0xfe3
 4683 0f99 08       		.byte	0x8
 4684 0f9a 11       		.uleb128 0x11
 4685 0f9b 7A160000 		.4byte	.LASF535
 4686 0f9f 05       		.byte	0x5
 4687 0fa0 90       		.byte	0x90
 4688 0fa1 E30F0000 		.4byte	0xfe3
 4689 0fa5 0C       		.byte	0xc
 4690 0fa6 11       		.uleb128 0x11
 4691 0fa7 DC150000 		.4byte	.LASF536
 4692 0fab 05       		.byte	0x5
 4693 0fac 91       		.byte	0x91
 4694 0fad E30F0000 		.4byte	0xfe3
 4695 0fb1 10       		.byte	0x10
 4696 0fb2 11       		.uleb128 0x11
 4697 0fb3 C7260000 		.4byte	.LASF537
 4698 0fb7 05       		.byte	0x5
 4699 0fb8 92       		.byte	0x92
 4700 0fb9 E30F0000 		.4byte	0xfe3
 4701 0fbd 14       		.byte	0x14
 4702 0fbe 11       		.uleb128 0x11
 4703 0fbf D90A0000 		.4byte	.LASF508
 4704 0fc3 05       		.byte	0x5
 4705 0fc4 93       		.byte	0x93
 4706 0fc5 5F0F0000 		.4byte	0xf5f
 4707 0fc9 18       		.byte	0x18
 4708 0fca 11       		.uleb128 0x11
 4709 0fcb 9D090000 		.4byte	.LASF538
 4710 0fcf 05       		.byte	0x5
 4711 0fd0 94       		.byte	0x94
 4712 0fd1 5D000000 		.4byte	0x5d
 4713 0fd5 28       		.byte	0x28
 4714 0fd6 11       		.uleb128 0x11
 4715 0fd7 E9000000 		.4byte	.LASF539
 4716 0fdb 05       		.byte	0x5
 4717 0fdc 95       		.byte	0x95
 4718 0fdd 7D000000 		.4byte	0x7d
ARM GAS  C:\Users\AHMED~1.ELE\AppData\Local\Temp\ccbrMpYT.s 			page 139


 4719 0fe1 2C       		.byte	0x2c
 4720 0fe2 00       		.byte	0
 4721 0fe3 06       		.uleb128 0x6
 4722 0fe4 04       		.byte	0x4
 4723 0fe5 6A0F0000 		.4byte	0xf6a
 4724 0fe9 04       		.uleb128 0x4
 4725 0fea 59050000 		.4byte	.LASF540
 4726 0fee 05       		.byte	0x5
 4727 0fef 98       		.byte	0x98
 4728 0ff0 6A0F0000 		.4byte	0xf6a
 4729 0ff4 06       		.uleb128 0x6
 4730 0ff5 04       		.byte	0x4
 4731 0ff6 E90F0000 		.4byte	0xfe9
 4732 0ffa 04       		.uleb128 0x4
 4733 0ffb 8B290000 		.4byte	.LASF541
 4734 0fff 05       		.byte	0x5
 4735 1000 A6       		.byte	0xa6
 4736 1001 05100000 		.4byte	0x1005
 4737 1005 06       		.uleb128 0x6
 4738 1006 04       		.byte	0x4
 4739 1007 0B100000 		.4byte	0x100b
 4740 100b 14       		.uleb128 0x14
 4741 100c 5D000000 		.4byte	0x5d
 4742 1010 1F100000 		.4byte	0x101f
 4743 1014 0F       		.uleb128 0xf
 4744 1015 F40F0000 		.4byte	0xff4
 4745 1019 0F       		.uleb128 0xf
 4746 101a 8C000000 		.4byte	0x8c
 4747 101e 00       		.byte	0
 4748 101f 04       		.uleb128 0x4
 4749 1020 650C0000 		.4byte	.LASF542
 4750 1024 05       		.byte	0x5
 4751 1025 A9       		.byte	0xa9
 4752 1026 2A100000 		.4byte	0x102a
 4753 102a 06       		.uleb128 0x6
 4754 102b 04       		.byte	0x4
 4755 102c 30100000 		.4byte	0x1030
 4756 1030 14       		.uleb128 0x14
 4757 1031 7F000000 		.4byte	0x7f
 4758 1035 3F100000 		.4byte	0x103f
 4759 1039 0F       		.uleb128 0xf
 4760 103a F40F0000 		.4byte	0xff4
 4761 103e 00       		.byte	0
 4762 103f 06       		.uleb128 0x6
 4763 1040 04       		.byte	0x4
 4764 1041 45100000 		.4byte	0x1045
 4765 1045 14       		.uleb128 0x14
 4766 1046 5D000000 		.4byte	0x5d
 4767 104a 54100000 		.4byte	0x1054
 4768 104e 0F       		.uleb128 0xf
 4769 104f 8C000000 		.4byte	0x8c
 4770 1053 00       		.byte	0
 4771 1054 04       		.uleb128 0x4
 4772 1055 9B1F0000 		.4byte	.LASF543
 4773 1059 05       		.byte	0x5
 4774 105a AF       		.byte	0xaf
 4775 105b 5F100000 		.4byte	0x105f
ARM GAS  C:\Users\AHMED~1.ELE\AppData\Local\Temp\ccbrMpYT.s 			page 140


 4776 105f 06       		.uleb128 0x6
 4777 1060 04       		.byte	0x4
 4778 1061 65100000 		.4byte	0x1065
 4779 1065 14       		.uleb128 0x14
 4780 1066 F40D0000 		.4byte	0xdf4
 4781 106a 74100000 		.4byte	0x1074
 4782 106e 0F       		.uleb128 0xf
 4783 106f F40F0000 		.4byte	0xff4
 4784 1073 00       		.byte	0
 4785 1074 04       		.uleb128 0x4
 4786 1075 560B0000 		.4byte	.LASF544
 4787 1079 05       		.byte	0x5
 4788 107a B5       		.byte	0xb5
 4789 107b 7F100000 		.4byte	0x107f
 4790 107f 06       		.uleb128 0x6
 4791 1080 04       		.byte	0x4
 4792 1081 85100000 		.4byte	0x1085
 4793 1085 0E       		.uleb128 0xe
 4794 1086 9A100000 		.4byte	0x109a
 4795 108a 0F       		.uleb128 0xf
 4796 108b F40F0000 		.4byte	0xff4
 4797 108f 0F       		.uleb128 0xf
 4798 1090 B20D0000 		.4byte	0xdb2
 4799 1094 0F       		.uleb128 0xf
 4800 1095 7D000000 		.4byte	0x7d
 4801 1099 00       		.byte	0
 4802 109a 15       		.uleb128 0x15
 4803 109b EE0B0000 		.4byte	.LASF545
 4804 109f A401     		.2byte	0x1a4
 4805 10a1 06       		.byte	0x6
 4806 10a2 1D       		.byte	0x1d
 4807 10a3 F3100000 		.4byte	0x10f3
 4808 10a7 11       		.uleb128 0x11
 4809 10a8 75040000 		.4byte	.LASF546
 4810 10ac 06       		.byte	0x6
 4811 10ad 1F       		.byte	0x1f
 4812 10ae 260E0000 		.4byte	0xe26
 4813 10b2 00       		.byte	0
 4814 10b3 11       		.uleb128 0x11
 4815 10b4 69250000 		.4byte	.LASF547
 4816 10b8 06       		.byte	0x6
 4817 10b9 20       		.byte	0x20
 4818 10ba 5D000000 		.4byte	0x5d
 4819 10be 04       		.byte	0x4
 4820 10bf 11       		.uleb128 0x11
 4821 10c0 B6160000 		.4byte	.LASF548
 4822 10c4 06       		.byte	0x6
 4823 10c5 21       		.byte	0x21
 4824 10c6 F3100000 		.4byte	0x10f3
 4825 10ca 08       		.byte	0x8
 4826 10cb 16       		.uleb128 0x16
 4827 10cc 561E0000 		.4byte	.LASF549
 4828 10d0 06       		.byte	0x6
 4829 10d1 22       		.byte	0x22
 4830 10d2 5D000000 		.4byte	0x5d
 4831 10d6 9801     		.2byte	0x198
 4832 10d8 16       		.uleb128 0x16
ARM GAS  C:\Users\AHMED~1.ELE\AppData\Local\Temp\ccbrMpYT.s 			page 141


 4833 10d9 A70E0000 		.4byte	.LASF550
 4834 10dd 06       		.byte	0x6
 4835 10de 23       		.byte	0x23
 4836 10df FA0F0000 		.4byte	0xffa
 4837 10e3 9C01     		.2byte	0x19c
 4838 10e5 16       		.uleb128 0x16
 4839 10e6 65010000 		.4byte	.LASF551
 4840 10ea 06       		.byte	0x6
 4841 10eb 24       		.byte	0x24
 4842 10ec 1F100000 		.4byte	0x101f
 4843 10f0 A001     		.2byte	0x1a0
 4844 10f2 00       		.byte	0
 4845 10f3 0B       		.uleb128 0xb
 4846 10f4 3F100000 		.4byte	0x103f
 4847 10f8 03110000 		.4byte	0x1103
 4848 10fc 0C       		.uleb128 0xc
 4849 10fd 76000000 		.4byte	0x76
 4850 1101 63       		.byte	0x63
 4851 1102 00       		.byte	0
 4852 1103 04       		.uleb128 0x4
 4853 1104 FD0B0000 		.4byte	.LASF552
 4854 1108 06       		.byte	0x6
 4855 1109 25       		.byte	0x25
 4856 110a 9A100000 		.4byte	0x109a
 4857 110e 04       		.uleb128 0x4
 4858 110f 121A0000 		.4byte	.LASF553
 4859 1113 01       		.byte	0x1
 4860 1114 2F       		.byte	0x2f
 4861 1115 19110000 		.4byte	0x1119
 4862 1119 06       		.uleb128 0x6
 4863 111a 04       		.byte	0x4
 4864 111b 1F110000 		.4byte	0x111f
 4865 111f 14       		.uleb128 0x14
 4866 1120 5D000000 		.4byte	0x5d
 4867 1124 33110000 		.4byte	0x1133
 4868 1128 0F       		.uleb128 0xf
 4869 1129 7D000000 		.4byte	0x7d
 4870 112d 0F       		.uleb128 0xf
 4871 112e 33110000 		.4byte	0x1133
 4872 1132 00       		.byte	0
 4873 1133 06       		.uleb128 0x6
 4874 1134 04       		.byte	0x4
 4875 1135 5D000000 		.4byte	0x5d
 4876 1139 17       		.uleb128 0x17
 4877 113a 81270000 		.4byte	.LASF554
 4878 113e 01       		.byte	0x1
 4879 113f 4C       		.byte	0x4c
 4880 1140 5D000000 		.4byte	0x5d
 4881 1144 01       		.byte	0x1
 4882 1145 54110000 		.4byte	0x1154
 4883 1149 18       		.uleb128 0x18
 4884 114a 636800   		.ascii	"ch\000"
 4885 114d 01       		.byte	0x1
 4886 114e 4C       		.byte	0x4c
 4887 114f 5D000000 		.4byte	0x5d
 4888 1153 00       		.byte	0
 4889 1154 17       		.uleb128 0x17
ARM GAS  C:\Users\AHMED~1.ELE\AppData\Local\Temp\ccbrMpYT.s 			page 142


 4890 1155 19030000 		.4byte	.LASF555
 4891 1159 01       		.byte	0x1
 4892 115a 51       		.byte	0x51
 4893 115b 5D000000 		.4byte	0x5d
 4894 115f 01       		.byte	0x1
 4895 1160 6F110000 		.4byte	0x116f
 4896 1164 18       		.uleb128 0x18
 4897 1165 636800   		.ascii	"ch\000"
 4898 1168 01       		.byte	0x1
 4899 1169 51       		.byte	0x51
 4900 116a 5D000000 		.4byte	0x5d
 4901 116e 00       		.byte	0
 4902 116f 19       		.uleb128 0x19
 4903 1170 2F090000 		.4byte	.LASF556
 4904 1174 01       		.byte	0x1
 4905 1175 3205     		.2byte	0x532
 4906 1177 5D000000 		.4byte	0x5d
 4907 117b 01       		.byte	0x1
 4908 117c D2110000 		.4byte	0x11d2
 4909 1180 1A       		.uleb128 0x1a
 4910 1181 7A160000 		.4byte	.LASF535
 4911 1185 01       		.byte	0x1
 4912 1186 3205     		.2byte	0x532
 4913 1188 F40F0000 		.4byte	0xff4
 4914 118c 1B       		.uleb128 0x1b
 4915 118d 7000     		.ascii	"p\000"
 4916 118f 01       		.byte	0x1
 4917 1190 3305     		.2byte	0x533
 4918 1192 7D000000 		.4byte	0x7d
 4919 1196 1A       		.uleb128 0x1a
 4920 1197 050F0000 		.4byte	.LASF557
 4921 119b 01       		.byte	0x1
 4922 119c 3405     		.2byte	0x534
 4923 119e 33110000 		.4byte	0x1133
 4924 11a2 1A       		.uleb128 0x1a
 4925 11a3 CE130000 		.4byte	.LASF558
 4926 11a7 01       		.byte	0x1
 4927 11a8 3505     		.2byte	0x535
 4928 11aa 19110000 		.4byte	0x1119
 4929 11ae 1C       		.uleb128 0x1c
 4930 11af 636800   		.ascii	"ch\000"
 4931 11b2 01       		.byte	0x1
 4932 11b3 3805     		.2byte	0x538
 4933 11b5 5D000000 		.4byte	0x5d
 4934 11b9 1D       		.uleb128 0x1d
 4935 11ba 92210000 		.4byte	.LASF559
 4936 11be 01       		.byte	0x1
 4937 11bf 3905     		.2byte	0x539
 4938 11c1 710D0000 		.4byte	0xd71
 4939 11c5 1D       		.uleb128 0x1d
 4940 11c6 A7080000 		.4byte	.LASF560
 4941 11ca 01       		.byte	0x1
 4942 11cb 3A05     		.2byte	0x53a
 4943 11cd 7F000000 		.4byte	0x7f
 4944 11d1 00       		.byte	0
 4945 11d2 19       		.uleb128 0x19
 4946 11d3 CD190000 		.4byte	.LASF561
ARM GAS  C:\Users\AHMED~1.ELE\AppData\Local\Temp\ccbrMpYT.s 			page 143


 4947 11d7 01       		.byte	0x1
 4948 11d8 3508     		.2byte	0x835
 4949 11da 5D000000 		.4byte	0x5d
 4950 11de 01       		.byte	0x1
 4951 11df 6D120000 		.4byte	0x126d
 4952 11e3 1A       		.uleb128 0x1a
 4953 11e4 A00D0000 		.4byte	.LASF562
 4954 11e8 01       		.byte	0x1
 4955 11e9 3608     		.2byte	0x836
 4956 11eb F40F0000 		.4byte	0xff4
 4957 11ef 1B       		.uleb128 0x1b
 4958 11f0 7000     		.ascii	"p\000"
 4959 11f2 01       		.byte	0x1
 4960 11f3 3708     		.2byte	0x837
 4961 11f5 7D000000 		.4byte	0x7d
 4962 11f9 1A       		.uleb128 0x1a
 4963 11fa 050F0000 		.4byte	.LASF557
 4964 11fe 01       		.byte	0x1
 4965 11ff 3808     		.2byte	0x838
 4966 1201 33110000 		.4byte	0x1133
 4967 1205 1A       		.uleb128 0x1a
 4968 1206 CE130000 		.4byte	.LASF558
 4969 120a 01       		.byte	0x1
 4970 120b 3908     		.2byte	0x839
 4971 120d 0E110000 		.4byte	0x110e
 4972 1211 1C       		.uleb128 0x1c
 4973 1212 636800   		.ascii	"ch\000"
 4974 1215 01       		.byte	0x1
 4975 1216 3B08     		.2byte	0x83b
 4976 1218 5D000000 		.4byte	0x5d
 4977 121c 1D       		.uleb128 0x1d
 4978 121d 72290000 		.4byte	.LASF563
 4979 1221 01       		.byte	0x1
 4980 1222 3C08     		.2byte	0x83c
 4981 1224 5D000000 		.4byte	0x5d
 4982 1228 1D       		.uleb128 0x1d
 4983 1229 F0210000 		.4byte	.LASF507
 4984 122d 01       		.byte	0x1
 4985 122e 3D08     		.2byte	0x83d
 4986 1230 7F000000 		.4byte	0x7f
 4987 1234 1D       		.uleb128 0x1d
 4988 1235 D90A0000 		.4byte	.LASF508
 4989 1239 01       		.byte	0x1
 4990 123a 3E08     		.2byte	0x83e
 4991 123c 7F000000 		.4byte	0x7f
 4992 1240 1C       		.uleb128 0x1c
 4993 1241 70747200 		.ascii	"ptr\000"
 4994 1245 01       		.byte	0x1
 4995 1246 3F08     		.2byte	0x83f
 4996 1248 7F000000 		.4byte	0x7f
 4997 124c 1D       		.uleb128 0x1d
 4998 124d 2C110000 		.4byte	.LASF564
 4999 1251 01       		.byte	0x1
 5000 1252 4008     		.2byte	0x840
 5001 1254 5D000000 		.4byte	0x5d
 5002 1258 1D       		.uleb128 0x1d
 5003 1259 AC210000 		.4byte	.LASF565
ARM GAS  C:\Users\AHMED~1.ELE\AppData\Local\Temp\ccbrMpYT.s 			page 144


 5004 125d 01       		.byte	0x1
 5005 125e 4108     		.2byte	0x841
 5006 1260 5D000000 		.4byte	0x5d
 5007 1264 1E       		.uleb128 0x1e
 5008 1265 89070000 		.4byte	.LASF575
 5009 1269 01       		.byte	0x1
 5010 126a 3309     		.2byte	0x933
 5011 126c 00       		.byte	0
 5012 126d 19       		.uleb128 0x19
 5013 126e 231F0000 		.4byte	.LASF566
 5014 1272 01       		.byte	0x1
 5015 1273 6F05     		.2byte	0x56f
 5016 1275 F40F0000 		.4byte	0xff4
 5017 1279 01       		.byte	0x1
 5018 127a 5B130000 		.4byte	0x135b
 5019 127e 1B       		.uleb128 0x1b
 5020 127f 746F7000 		.ascii	"top\000"
 5021 1283 01       		.byte	0x1
 5022 1284 7005     		.2byte	0x570
 5023 1286 F40F0000 		.4byte	0xff4
 5024 128a 1B       		.uleb128 0x1b
 5025 128b 7000     		.ascii	"p\000"
 5026 128d 01       		.byte	0x1
 5027 128e 7105     		.2byte	0x571
 5028 1290 7D000000 		.4byte	0x7d
 5029 1294 1B       		.uleb128 0x1b
 5030 1295 636200   		.ascii	"cb\000"
 5031 1298 01       		.byte	0x1
 5032 1299 7205     		.2byte	0x572
 5033 129b 54100000 		.4byte	0x1054
 5034 129f 1A       		.uleb128 0x1a
 5035 12a0 CE130000 		.4byte	.LASF558
 5036 12a4 01       		.byte	0x1
 5037 12a5 7305     		.2byte	0x573
 5038 12a7 0E110000 		.4byte	0x110e
 5039 12ab 1A       		.uleb128 0x1a
 5040 12ac A2060000 		.4byte	.LASF567
 5041 12b0 01       		.byte	0x1
 5042 12b1 7405     		.2byte	0x574
 5043 12b3 74100000 		.4byte	0x1074
 5044 12b7 1A       		.uleb128 0x1a
 5045 12b8 C2080000 		.4byte	.LASF568
 5046 12bc 01       		.byte	0x1
 5047 12bd 7505     		.2byte	0x575
 5048 12bf 7D000000 		.4byte	0x7d
 5049 12c3 1D       		.uleb128 0x1d
 5050 12c4 A00D0000 		.4byte	.LASF562
 5051 12c8 01       		.byte	0x1
 5052 12c9 7705     		.2byte	0x577
 5053 12cb F40F0000 		.4byte	0xff4
 5054 12cf 1D       		.uleb128 0x1d
 5055 12d0 8E1A0000 		.4byte	.LASF569
 5056 12d4 01       		.byte	0x1
 5057 12d5 7805     		.2byte	0x578
 5058 12d7 F40F0000 		.4byte	0xff4
 5059 12db 1D       		.uleb128 0x1d
 5060 12dc 7A160000 		.4byte	.LASF535
ARM GAS  C:\Users\AHMED~1.ELE\AppData\Local\Temp\ccbrMpYT.s 			page 145


 5061 12e0 01       		.byte	0x1
 5062 12e1 7905     		.2byte	0x579
 5063 12e3 F40F0000 		.4byte	0xff4
 5064 12e7 1C       		.uleb128 0x1c
 5065 12e8 636800   		.ascii	"ch\000"
 5066 12eb 01       		.byte	0x1
 5067 12ec 7A05     		.2byte	0x57a
 5068 12ee 5D000000 		.4byte	0x5d
 5069 12f2 1D       		.uleb128 0x1d
 5070 12f3 97060000 		.4byte	.LASF516
 5071 12f7 01       		.byte	0x1
 5072 12f8 7B05     		.2byte	0x57b
 5073 12fa 5D000000 		.4byte	0x5d
 5074 12fe 1D       		.uleb128 0x1d
 5075 12ff 0E0F0000 		.4byte	.LASF570
 5076 1303 01       		.byte	0x1
 5077 1304 7C05     		.2byte	0x57c
 5078 1306 7F000000 		.4byte	0x7f
 5079 130a 1D       		.uleb128 0x1d
 5080 130b EA240000 		.4byte	.LASF571
 5081 130f 01       		.byte	0x1
 5082 1310 7D05     		.2byte	0x57d
 5083 1312 7F000000 		.4byte	0x7f
 5084 1316 1D       		.uleb128 0x1d
 5085 1317 841D0000 		.4byte	.LASF572
 5086 131b 01       		.byte	0x1
 5087 131c 7E05     		.2byte	0x57e
 5088 131e 5D000000 		.4byte	0x5d
 5089 1322 1D       		.uleb128 0x1d
 5090 1323 91030000 		.4byte	.LASF532
 5091 1327 01       		.byte	0x1
 5092 1328 7F05     		.2byte	0x57f
 5093 132a F40D0000 		.4byte	0xdf4
 5094 132e 1D       		.uleb128 0x1d
 5095 132f 050F0000 		.4byte	.LASF557
 5096 1333 01       		.byte	0x1
 5097 1334 8005     		.2byte	0x580
 5098 1336 5D000000 		.4byte	0x5d
 5099 133a 1D       		.uleb128 0x1d
 5100 133b E7200000 		.4byte	.LASF573
 5101 133f 01       		.byte	0x1
 5102 1340 8105     		.2byte	0x581
 5103 1342 5B130000 		.4byte	0x135b
 5104 1346 1D       		.uleb128 0x1d
 5105 1347 78090000 		.4byte	.LASF574
 5106 134b 01       		.byte	0x1
 5107 134c 8305     		.2byte	0x583
 5108 134e 71130000 		.4byte	0x1371
 5109 1352 1E       		.uleb128 0x1e
 5110 1353 89070000 		.4byte	.LASF575
 5111 1357 01       		.byte	0x1
 5112 1358 2608     		.2byte	0x826
 5113 135a 00       		.byte	0
 5114 135b 06       		.uleb128 0x6
 5115 135c 04       		.byte	0x4
 5116 135d 03110000 		.4byte	0x1103
 5117 1361 0B       		.uleb128 0xb
ARM GAS  C:\Users\AHMED~1.ELE\AppData\Local\Temp\ccbrMpYT.s 			page 146


 5118 1362 8C000000 		.4byte	0x8c
 5119 1366 71130000 		.4byte	0x1371
 5120 136a 0C       		.uleb128 0xc
 5121 136b 76000000 		.4byte	0x76
 5122 136f 05       		.byte	0x5
 5123 1370 00       		.byte	0
 5124 1371 07       		.uleb128 0x7
 5125 1372 61130000 		.4byte	0x1361
 5126 1376 1F       		.uleb128 0x1f
 5127 1377 B7000000 		.4byte	.LASF576
 5128 137b 01       		.byte	0x1
 5129 137c 4109     		.2byte	0x941
 5130 137e 5D000000 		.4byte	0x5d
 5131 1382 00000000 		.4byte	.LFB11
 5132 1386 F8010000 		.4byte	.LFE11-.LFB11
 5133 138a 01       		.uleb128 0x1
 5134 138b 9C       		.byte	0x9c
 5135 138c 11140000 		.4byte	0x1411
 5136 1390 20       		.uleb128 0x20
 5137 1391 7000     		.ascii	"p\000"
 5138 1393 01       		.byte	0x1
 5139 1394 4109     		.2byte	0x941
 5140 1396 7D000000 		.4byte	0x7d
 5141 139a 00000000 		.4byte	.LLST0
 5142 139e 21       		.uleb128 0x21
 5143 139f 050F0000 		.4byte	.LASF557
 5144 13a3 01       		.byte	0x1
 5145 13a4 4209     		.2byte	0x942
 5146 13a6 33110000 		.4byte	0x1133
 5147 13aa 85000000 		.4byte	.LLST1
 5148 13ae 22       		.uleb128 0x22
 5149 13af 636800   		.ascii	"ch\000"
 5150 13b2 01       		.byte	0x1
 5151 13b3 4409     		.2byte	0x944
 5152 13b5 5D000000 		.4byte	0x5d
 5153 13b9 E3000000 		.4byte	.LLST2
 5154 13bd 22       		.uleb128 0x22
 5155 13be 7300     		.ascii	"s\000"
 5156 13c0 01       		.byte	0x1
 5157 13c1 4509     		.2byte	0x945
 5158 13c3 11140000 		.4byte	0x1411
 5159 13c7 0F020000 		.4byte	.LLST3
 5160 13cb 23       		.uleb128 0x23
 5161 13cc 68010000 		.4byte	.LBB6
 5162 13d0 26000000 		.4byte	.LBE6-.LBB6
 5163 13d4 E9130000 		.4byte	0x13e9
 5164 13d8 22       		.uleb128 0x22
 5165 13d9 6C636800 		.ascii	"lch\000"
 5166 13dd 01       		.byte	0x1
 5167 13de ED09     		.2byte	0x9ed
 5168 13e0 5D000000 		.4byte	0x5d
 5169 13e4 94020000 		.4byte	.LLST4
 5170 13e8 00       		.byte	0
 5171 13e9 23       		.uleb128 0x23
 5172 13ea B8010000 		.4byte	.LBB7
 5173 13ee 2C000000 		.4byte	.LBE7-.LBB7
 5174 13f2 07140000 		.4byte	0x1407
ARM GAS  C:\Users\AHMED~1.ELE\AppData\Local\Temp\ccbrMpYT.s 			page 147


 5175 13f6 22       		.uleb128 0x22
 5176 13f7 6C636800 		.ascii	"lch\000"
 5177 13fb 01       		.byte	0x1
 5178 13fc 1D0A     		.2byte	0xa1d
 5179 13fe 5D000000 		.4byte	0x5d
 5180 1402 B6020000 		.4byte	.LLST5
 5181 1406 00       		.byte	0
 5182 1407 24       		.uleb128 0x24
 5183 1408 5C010000 		.4byte	.LVL24
 5184 140c 73230000 		.4byte	0x2373
 5185 1410 00       		.byte	0
 5186 1411 06       		.uleb128 0x6
 5187 1412 04       		.byte	0x4
 5188 1413 8C000000 		.4byte	0x8c
 5189 1417 1F       		.uleb128 0x1f
 5190 1418 52140000 		.4byte	.LASF577
 5191 141c 01       		.byte	0x1
 5192 141d 5802     		.2byte	0x258
 5193 141f 5D000000 		.4byte	0x5d
 5194 1423 00000000 		.4byte	.LFB7
 5195 1427 00010000 		.4byte	.LFE7-.LFB7
 5196 142b 01       		.uleb128 0x1
 5197 142c 9C       		.byte	0x9c
 5198 142d F4140000 		.4byte	0x14f4
 5199 1431 20       		.uleb128 0x20
 5200 1432 636800   		.ascii	"ch\000"
 5201 1435 01       		.byte	0x1
 5202 1436 5802     		.2byte	0x258
 5203 1438 5D000000 		.4byte	0x5d
 5204 143c C9020000 		.4byte	.LLST6
 5205 1440 21       		.uleb128 0x21
 5206 1441 EA240000 		.4byte	.LASF571
 5207 1445 01       		.byte	0x1
 5208 1446 5902     		.2byte	0x259
 5209 1448 F4140000 		.4byte	0x14f4
 5210 144c F5020000 		.4byte	.LLST7
 5211 1450 21       		.uleb128 0x21
 5212 1451 0E0F0000 		.4byte	.LASF570
 5213 1455 01       		.byte	0x1
 5214 1456 5A02     		.2byte	0x25a
 5215 1458 F4140000 		.4byte	0x14f4
 5216 145c 21030000 		.4byte	.LLST8
 5217 1460 21       		.uleb128 0x21
 5218 1461 841D0000 		.4byte	.LASF572
 5219 1465 01       		.byte	0x1
 5220 1466 5B02     		.2byte	0x25b
 5221 1468 33110000 		.4byte	0x1133
 5222 146c 4D030000 		.4byte	.LLST9
 5223 1470 25       		.uleb128 0x25
 5224 1471 5B010000 		.4byte	.LASF578
 5225 1475 01       		.byte	0x1
 5226 1476 5D02     		.2byte	0x25d
 5227 1478 7F000000 		.4byte	0x7f
 5228 147c 79030000 		.4byte	.LLST10
 5229 1480 25       		.uleb128 0x25
 5230 1481 4C250000 		.4byte	.LASF579
 5231 1485 01       		.byte	0x1
ARM GAS  C:\Users\AHMED~1.ELE\AppData\Local\Temp\ccbrMpYT.s 			page 148


 5232 1486 5E02     		.2byte	0x25e
 5233 1488 5D000000 		.4byte	0x5d
 5234 148c AD030000 		.4byte	.LLST11
 5235 1490 26       		.uleb128 0x26
 5236 1491 30000000 		.4byte	.LVL46
 5237 1495 86230000 		.4byte	0x2386
 5238 1499 A4140000 		.4byte	0x14a4
 5239 149d 27       		.uleb128 0x27
 5240 149e 01       		.uleb128 0x1
 5241 149f 50       		.byte	0x50
 5242 14a0 02       		.uleb128 0x2
 5243 14a1 08       		.byte	0x8
 5244 14a2 92       		.byte	0x92
 5245 14a3 00       		.byte	0
 5246 14a4 26       		.uleb128 0x26
 5247 14a5 3E000000 		.4byte	.LVL48
 5248 14a9 86230000 		.4byte	0x2386
 5249 14ad B8140000 		.4byte	0x14b8
 5250 14b1 27       		.uleb128 0x27
 5251 14b2 01       		.uleb128 0x1
 5252 14b3 50       		.byte	0x50
 5253 14b4 02       		.uleb128 0x2
 5254 14b5 08       		.byte	0x8
 5255 14b6 94       		.byte	0x94
 5256 14b7 00       		.byte	0
 5257 14b8 26       		.uleb128 0x26
 5258 14b9 46000000 		.4byte	.LVL49
 5259 14bd 73230000 		.4byte	0x2373
 5260 14c1 CF140000 		.4byte	0x14cf
 5261 14c5 27       		.uleb128 0x27
 5262 14c6 01       		.uleb128 0x1
 5263 14c7 50       		.byte	0x50
 5264 14c8 05       		.uleb128 0x5
 5265 14c9 03       		.byte	0x3
 5266 14ca 67000000 		.4byte	.LC2
 5267 14ce 00       		.byte	0
 5268 14cf 26       		.uleb128 0x26
 5269 14d0 58000000 		.4byte	.LVL51
 5270 14d4 A0230000 		.4byte	0x23a0
 5271 14d8 E3140000 		.4byte	0x14e3
 5272 14dc 27       		.uleb128 0x27
 5273 14dd 01       		.uleb128 0x1
 5274 14de 52       		.byte	0x52
 5275 14df 02       		.uleb128 0x2
 5276 14e0 76       		.byte	0x76
 5277 14e1 00       		.sleb128 0
 5278 14e2 00       		.byte	0
 5279 14e3 28       		.uleb128 0x28
 5280 14e4 62000000 		.4byte	.LVL52
 5281 14e8 86230000 		.4byte	0x2386
 5282 14ec 27       		.uleb128 0x27
 5283 14ed 01       		.uleb128 0x1
 5284 14ee 50       		.byte	0x50
 5285 14ef 02       		.uleb128 0x2
 5286 14f0 08       		.byte	0x8
 5287 14f1 94       		.byte	0x94
 5288 14f2 00       		.byte	0
ARM GAS  C:\Users\AHMED~1.ELE\AppData\Local\Temp\ccbrMpYT.s 			page 149


 5289 14f3 00       		.byte	0
 5290 14f4 06       		.uleb128 0x6
 5291 14f5 04       		.byte	0x4
 5292 14f6 7F000000 		.4byte	0x7f
 5293 14fa 29       		.uleb128 0x29
 5294 14fb 39110000 		.4byte	0x1139
 5295 14ff 00000000 		.4byte	.LFB0
 5296 1503 1A000000 		.4byte	.LFE0-.LFB0
 5297 1507 01       		.uleb128 0x1
 5298 1508 9C       		.byte	0x9c
 5299 1509 2A150000 		.4byte	0x152a
 5300 150d 2A       		.uleb128 0x2a
 5301 150e 49110000 		.4byte	0x1149
 5302 1512 C0030000 		.4byte	.LLST12
 5303 1516 2B       		.uleb128 0x2b
 5304 1517 0C000000 		.4byte	.LBB10
 5305 151b 0A000000 		.4byte	.LBE10-.LBB10
 5306 151f 2A       		.uleb128 0x2a
 5307 1520 49110000 		.4byte	0x1149
 5308 1524 F9030000 		.4byte	.LLST13
 5309 1528 00       		.byte	0
 5310 1529 00       		.byte	0
 5311 152a 29       		.uleb128 0x29
 5312 152b 6F110000 		.4byte	0x116f
 5313 152f 00000000 		.4byte	.LFB13
 5314 1533 EC000000 		.4byte	.LFE13-.LFB13
 5315 1537 01       		.uleb128 0x1
 5316 1538 9C       		.byte	0x9c
 5317 1539 F4150000 		.4byte	0x15f4
 5318 153d 2A       		.uleb128 0x2a
 5319 153e 80110000 		.4byte	0x1180
 5320 1542 19040000 		.4byte	.LLST14
 5321 1546 2A       		.uleb128 0x2a
 5322 1547 8C110000 		.4byte	0x118c
 5323 154b 45040000 		.4byte	.LLST15
 5324 154f 2A       		.uleb128 0x2a
 5325 1550 96110000 		.4byte	0x1196
 5326 1554 71040000 		.4byte	.LLST16
 5327 1558 2C       		.uleb128 0x2c
 5328 1559 AE110000 		.4byte	0x11ae
 5329 155d 9D040000 		.4byte	.LLST17
 5330 1561 2D       		.uleb128 0x2d
 5331 1562 B9110000 		.4byte	0x11b9
 5332 1566 03       		.uleb128 0x3
 5333 1567 91       		.byte	0x91
 5334 1568 A07F     		.sleb128 -96
 5335 156a 2C       		.uleb128 0x2c
 5336 156b C5110000 		.4byte	0x11c5
 5337 156f FD040000 		.4byte	.LLST18
 5338 1573 2E       		.uleb128 0x2e
 5339 1574 A2110000 		.4byte	0x11a2
 5340 1578 06       		.uleb128 0x6
 5341 1579 03       		.byte	0x3
 5342 157a 00000000 		.4byte	mxml_string_getc
 5343 157e 9F       		.byte	0x9f
 5344 157f 26       		.uleb128 0x26
 5345 1580 16000000 		.4byte	.LVL62
ARM GAS  C:\Users\AHMED~1.ELE\AppData\Local\Temp\ccbrMpYT.s 			page 150


 5346 1584 76130000 		.4byte	0x1376
 5347 1588 99150000 		.4byte	0x1599
 5348 158c 27       		.uleb128 0x27
 5349 158d 01       		.uleb128 0x1
 5350 158e 51       		.byte	0x51
 5351 158f 02       		.uleb128 0x2
 5352 1590 78       		.byte	0x78
 5353 1591 00       		.sleb128 0
 5354 1592 27       		.uleb128 0x27
 5355 1593 01       		.uleb128 0x1
 5356 1594 50       		.byte	0x50
 5357 1595 02       		.uleb128 0x2
 5358 1596 79       		.byte	0x79
 5359 1597 00       		.sleb128 0
 5360 1598 00       		.byte	0
 5361 1599 26       		.uleb128 0x26
 5362 159a 4E000000 		.4byte	.LVL69
 5363 159e 73230000 		.4byte	0x2373
 5364 15a2 B0150000 		.4byte	0x15b0
 5365 15a6 27       		.uleb128 0x27
 5366 15a7 01       		.uleb128 0x1
 5367 15a8 50       		.byte	0x50
 5368 15a9 05       		.uleb128 0x5
 5369 15aa 03       		.byte	0x3
 5370 15ab 98000000 		.4byte	.LC4
 5371 15af 00       		.byte	0
 5372 15b0 24       		.uleb128 0x24
 5373 15b1 84000000 		.4byte	.LVL70
 5374 15b5 BD230000 		.4byte	0x23bd
 5375 15b9 26       		.uleb128 0x26
 5376 15ba 8E000000 		.4byte	.LVL73
 5377 15be DC230000 		.4byte	0x23dc
 5378 15c2 CD150000 		.4byte	0x15cd
 5379 15c6 27       		.uleb128 0x27
 5380 15c7 01       		.uleb128 0x1
 5381 15c8 50       		.byte	0x50
 5382 15c9 02       		.uleb128 0x2
 5383 15ca 7D       		.byte	0x7d
 5384 15cb 00       		.sleb128 0
 5385 15cc 00       		.byte	0
 5386 15cd 26       		.uleb128 0x26
 5387 15ce A2000000 		.4byte	.LVL75
 5388 15d2 73230000 		.4byte	0x2373
 5389 15d6 EA150000 		.4byte	0x15ea
 5390 15da 27       		.uleb128 0x27
 5391 15db 01       		.uleb128 0x1
 5392 15dc 51       		.byte	0x51
 5393 15dd 02       		.uleb128 0x2
 5394 15de 7D       		.byte	0x7d
 5395 15df 00       		.sleb128 0
 5396 15e0 27       		.uleb128 0x27
 5397 15e1 01       		.uleb128 0x1
 5398 15e2 50       		.byte	0x50
 5399 15e3 05       		.uleb128 0x5
 5400 15e4 03       		.byte	0x3
 5401 15e5 F8000000 		.4byte	.LC6
 5402 15e9 00       		.byte	0
ARM GAS  C:\Users\AHMED~1.ELE\AppData\Local\Temp\ccbrMpYT.s 			page 151


 5403 15ea 24       		.uleb128 0x24
 5404 15eb C4000000 		.4byte	.LVL78
 5405 15ef 73230000 		.4byte	0x2373
 5406 15f3 00       		.byte	0
 5407 15f4 29       		.uleb128 0x29
 5408 15f5 6D120000 		.4byte	0x126d
 5409 15f9 00000000 		.4byte	.LFB15
 5410 15fd 880A0000 		.4byte	.LFE15-.LFB15
 5411 1601 01       		.uleb128 0x1
 5412 1602 9C       		.byte	0x9c
 5413 1603 9E210000 		.4byte	0x219e
 5414 1607 2A       		.uleb128 0x2a
 5415 1608 7E120000 		.4byte	0x127e
 5416 160c 41050000 		.4byte	.LLST19
 5417 1610 2A       		.uleb128 0x2a
 5418 1611 8A120000 		.4byte	0x128a
 5419 1615 6F050000 		.4byte	.LLST20
 5420 1619 2A       		.uleb128 0x2a
 5421 161a 94120000 		.4byte	0x1294
 5422 161e E6050000 		.4byte	.LLST21
 5423 1622 2A       		.uleb128 0x2a
 5424 1623 AB120000 		.4byte	0x12ab
 5425 1627 14060000 		.4byte	.LLST22
 5426 162b 2A       		.uleb128 0x2a
 5427 162c B7120000 		.4byte	0x12b7
 5428 1630 40060000 		.4byte	.LLST23
 5429 1634 2C       		.uleb128 0x2c
 5430 1635 C3120000 		.4byte	0x12c3
 5431 1639 60060000 		.4byte	.LLST24
 5432 163d 2C       		.uleb128 0x2c
 5433 163e CF120000 		.4byte	0x12cf
 5434 1642 D5070000 		.4byte	.LLST25
 5435 1646 2C       		.uleb128 0x2c
 5436 1647 DB120000 		.4byte	0x12db
 5437 164b 36080000 		.4byte	.LLST26
 5438 164f 2C       		.uleb128 0x2c
 5439 1650 E7120000 		.4byte	0x12e7
 5440 1654 DC080000 		.4byte	.LLST27
 5441 1658 2C       		.uleb128 0x2c
 5442 1659 F2120000 		.4byte	0x12f2
 5443 165d 250B0000 		.4byte	.LLST28
 5444 1661 2D       		.uleb128 0x2d
 5445 1662 FE120000 		.4byte	0x12fe
 5446 1666 03       		.uleb128 0x3
 5447 1667 91       		.byte	0x91
 5448 1668 B47F     		.sleb128 -76
 5449 166a 2D       		.uleb128 0x2d
 5450 166b 0A130000 		.4byte	0x130a
 5451 166f 03       		.uleb128 0x3
 5452 1670 91       		.byte	0x91
 5453 1671 B87F     		.sleb128 -72
 5454 1673 2D       		.uleb128 0x2d
 5455 1674 16130000 		.4byte	0x1316
 5456 1678 03       		.uleb128 0x3
 5457 1679 91       		.byte	0x91
 5458 167a BC7F     		.sleb128 -68
 5459 167c 2C       		.uleb128 0x2c
ARM GAS  C:\Users\AHMED~1.ELE\AppData\Local\Temp\ccbrMpYT.s 			page 152


 5460 167d 22130000 		.4byte	0x1322
 5461 1681 ED0B0000 		.4byte	.LLST29
 5462 1685 2D       		.uleb128 0x2d
 5463 1686 2E130000 		.4byte	0x132e
 5464 168a 02       		.uleb128 0x2
 5465 168b 91       		.byte	0x91
 5466 168c 40       		.sleb128 -64
 5467 168d 2C       		.uleb128 0x2c
 5468 168e 3A130000 		.4byte	0x133a
 5469 1692 210C0000 		.4byte	.LLST30
 5470 1696 2F       		.uleb128 0x2f
 5471 1697 52130000 		.4byte	0x1352
 5472 169b 32040000 		.4byte	.L121
 5473 169f 2E       		.uleb128 0x2e
 5474 16a0 9F120000 		.4byte	0x129f
 5475 16a4 06       		.uleb128 0x6
 5476 16a5 03       		.byte	0x3
 5477 16a6 00000000 		.4byte	mxml_string_getc
 5478 16aa 9F       		.byte	0x9f
 5479 16ab 2D       		.uleb128 0x2d
 5480 16ac 46130000 		.4byte	0x1346
 5481 16b0 05       		.uleb128 0x5
 5482 16b1 03       		.byte	0x3
 5483 16b2 00000000 		.4byte	types.11198
 5484 16b6 30       		.uleb128 0x30
 5485 16b7 D2110000 		.4byte	0x11d2
 5486 16bb 90030000 		.4byte	.LBB14
 5487 16bf 00000000 		.4byte	.Ldebug_ranges0+0
 5488 16c3 01       		.byte	0x1
 5489 16c4 B907     		.2byte	0x7b9
 5490 16c6 AD1A0000 		.4byte	0x1aad
 5491 16ca 2A       		.uleb128 0x2a
 5492 16cb 05120000 		.4byte	0x1205
 5493 16cf 410C0000 		.4byte	.LLST31
 5494 16d3 2A       		.uleb128 0x2a
 5495 16d4 F9110000 		.4byte	0x11f9
 5496 16d8 690C0000 		.4byte	.LLST32
 5497 16dc 31       		.uleb128 0x31
 5498 16dd EF110000 		.4byte	0x11ef
 5499 16e1 2A       		.uleb128 0x2a
 5500 16e2 E3110000 		.4byte	0x11e3
 5501 16e6 C30D0000 		.4byte	.LLST33
 5502 16ea 32       		.uleb128 0x32
 5503 16eb 00000000 		.4byte	.Ldebug_ranges0+0
 5504 16ef 2C       		.uleb128 0x2c
 5505 16f0 11120000 		.4byte	0x1211
 5506 16f4 E10D0000 		.4byte	.LLST34
 5507 16f8 2C       		.uleb128 0x2c
 5508 16f9 1C120000 		.4byte	0x121c
 5509 16fd 420F0000 		.4byte	.LLST35
 5510 1701 2D       		.uleb128 0x2d
 5511 1702 28120000 		.4byte	0x1228
 5512 1706 02       		.uleb128 0x2
 5513 1707 91       		.byte	0x91
 5514 1708 44       		.sleb128 -60
 5515 1709 2D       		.uleb128 0x2d
 5516 170a 34120000 		.4byte	0x1234
ARM GAS  C:\Users\AHMED~1.ELE\AppData\Local\Temp\ccbrMpYT.s 			page 153


 5517 170e 02       		.uleb128 0x2
 5518 170f 91       		.byte	0x91
 5519 1710 48       		.sleb128 -56
 5520 1711 2D       		.uleb128 0x2d
 5521 1712 40120000 		.4byte	0x1240
 5522 1716 02       		.uleb128 0x2
 5523 1717 91       		.byte	0x91
 5524 1718 4C       		.sleb128 -52
 5525 1719 2D       		.uleb128 0x2d
 5526 171a 4C120000 		.4byte	0x124c
 5527 171e 02       		.uleb128 0x2
 5528 171f 91       		.byte	0x91
 5529 1720 50       		.sleb128 -48
 5530 1721 2D       		.uleb128 0x2d
 5531 1722 58120000 		.4byte	0x1258
 5532 1726 02       		.uleb128 0x2
 5533 1727 91       		.byte	0x91
 5534 1728 54       		.sleb128 -44
 5535 1729 2F       		.uleb128 0x2f
 5536 172a 64120000 		.4byte	0x1264
 5537 172e D2080000 		.4byte	.L202
 5538 1732 26       		.uleb128 0x26
 5539 1733 A2030000 		.4byte	.LVL159
 5540 1737 86230000 		.4byte	0x2386
 5541 173b 46170000 		.4byte	0x1746
 5542 173f 27       		.uleb128 0x27
 5543 1740 01       		.uleb128 0x1
 5544 1741 50       		.byte	0x50
 5545 1742 02       		.uleb128 0x2
 5546 1743 08       		.byte	0x8
 5547 1744 94       		.byte	0x94
 5548 1745 00       		.byte	0
 5549 1746 26       		.uleb128 0x26
 5550 1747 AA030000 		.4byte	.LVL160
 5551 174b 86230000 		.4byte	0x2386
 5552 174f 5A170000 		.4byte	0x175a
 5553 1753 27       		.uleb128 0x27
 5554 1754 01       		.uleb128 0x1
 5555 1755 50       		.byte	0x50
 5556 1756 02       		.uleb128 0x2
 5557 1757 08       		.byte	0x8
 5558 1758 94       		.byte	0x94
 5559 1759 00       		.byte	0
 5560 175a 26       		.uleb128 0x26
 5561 175b 7A060000 		.4byte	.LVL233
 5562 175f 86230000 		.4byte	0x2386
 5563 1763 74170000 		.4byte	0x1774
 5564 1767 27       		.uleb128 0x27
 5565 1768 01       		.uleb128 0x1
 5566 1769 51       		.byte	0x51
 5567 176a 02       		.uleb128 0x2
 5568 176b 08       		.byte	0x8
 5569 176c 40       		.byte	0x40
 5570 176d 27       		.uleb128 0x27
 5571 176e 01       		.uleb128 0x1
 5572 176f 50       		.byte	0x50
 5573 1770 02       		.uleb128 0x2
ARM GAS  C:\Users\AHMED~1.ELE\AppData\Local\Temp\ccbrMpYT.s 			page 154


 5574 1771 08       		.byte	0x8
 5575 1772 92       		.byte	0x92
 5576 1773 00       		.byte	0
 5577 1774 26       		.uleb128 0x26
 5578 1775 8E060000 		.4byte	.LVL234
 5579 1779 86230000 		.4byte	0x2386
 5580 177d 8E170000 		.4byte	0x178e
 5581 1781 27       		.uleb128 0x27
 5582 1782 01       		.uleb128 0x1
 5583 1783 51       		.byte	0x51
 5584 1784 02       		.uleb128 0x2
 5585 1785 77       		.byte	0x77
 5586 1786 00       		.sleb128 0
 5587 1787 27       		.uleb128 0x27
 5588 1788 01       		.uleb128 0x1
 5589 1789 50       		.byte	0x50
 5590 178a 02       		.uleb128 0x2
 5591 178b 08       		.byte	0x8
 5592 178c 92       		.byte	0x92
 5593 178d 00       		.byte	0
 5594 178e 26       		.uleb128 0x26
 5595 178f 9A060000 		.4byte	.LVL235
 5596 1793 86230000 		.4byte	0x2386
 5597 1797 A2170000 		.4byte	0x17a2
 5598 179b 27       		.uleb128 0x27
 5599 179c 01       		.uleb128 0x1
 5600 179d 50       		.byte	0x50
 5601 179e 02       		.uleb128 0x2
 5602 179f 08       		.byte	0x8
 5603 17a0 94       		.byte	0x94
 5604 17a1 00       		.byte	0
 5605 17a2 26       		.uleb128 0x26
 5606 17a3 A8060000 		.4byte	.LVL238
 5607 17a7 76130000 		.4byte	0x1376
 5608 17ab BC170000 		.4byte	0x17bc
 5609 17af 27       		.uleb128 0x27
 5610 17b0 01       		.uleb128 0x1
 5611 17b1 51       		.byte	0x51
 5612 17b2 02       		.uleb128 0x2
 5613 17b3 91       		.byte	0x91
 5614 17b4 40       		.sleb128 -64
 5615 17b5 27       		.uleb128 0x27
 5616 17b6 01       		.uleb128 0x1
 5617 17b7 50       		.byte	0x50
 5618 17b8 02       		.uleb128 0x2
 5619 17b9 76       		.byte	0x76
 5620 17ba 00       		.sleb128 0
 5621 17bb 00       		.byte	0
 5622 17bc 26       		.uleb128 0x26
 5623 17bd B4060000 		.4byte	.LVL240
 5624 17c1 39110000 		.4byte	0x1139
 5625 17c5 D0170000 		.4byte	0x17d0
 5626 17c9 27       		.uleb128 0x27
 5627 17ca 01       		.uleb128 0x1
 5628 17cb 50       		.byte	0x50
 5629 17cc 02       		.uleb128 0x2
 5630 17cd 77       		.byte	0x77
ARM GAS  C:\Users\AHMED~1.ELE\AppData\Local\Temp\ccbrMpYT.s 			page 155


 5631 17ce 00       		.sleb128 0
 5632 17cf 00       		.byte	0
 5633 17d0 26       		.uleb128 0x26
 5634 17d1 C8060000 		.4byte	.LVL242
 5635 17d5 76130000 		.4byte	0x1376
 5636 17d9 EA170000 		.4byte	0x17ea
 5637 17dd 27       		.uleb128 0x27
 5638 17de 01       		.uleb128 0x1
 5639 17df 51       		.byte	0x51
 5640 17e0 02       		.uleb128 0x2
 5641 17e1 91       		.byte	0x91
 5642 17e2 40       		.sleb128 -64
 5643 17e3 27       		.uleb128 0x27
 5644 17e4 01       		.uleb128 0x1
 5645 17e5 50       		.byte	0x50
 5646 17e6 02       		.uleb128 0x2
 5647 17e7 76       		.byte	0x76
 5648 17e8 00       		.sleb128 0
 5649 17e9 00       		.byte	0
 5650 17ea 26       		.uleb128 0x26
 5651 17eb DE060000 		.4byte	.LVL245
 5652 17ef 73230000 		.4byte	0x2373
 5653 17f3 07180000 		.4byte	0x1807
 5654 17f7 27       		.uleb128 0x27
 5655 17f8 01       		.uleb128 0x1
 5656 17f9 51       		.byte	0x51
 5657 17fa 02       		.uleb128 0x2
 5658 17fb 77       		.byte	0x77
 5659 17fc 00       		.sleb128 0
 5660 17fd 27       		.uleb128 0x27
 5661 17fe 01       		.uleb128 0x1
 5662 17ff 50       		.byte	0x50
 5663 1800 05       		.uleb128 0x5
 5664 1801 03       		.byte	0x3
 5665 1802 D8030000 		.4byte	.LC29
 5666 1806 00       		.byte	0
 5667 1807 26       		.uleb128 0x26
 5668 1808 F0060000 		.4byte	.LVL246
 5669 180c 73230000 		.4byte	0x2373
 5670 1810 1E180000 		.4byte	0x181e
 5671 1814 27       		.uleb128 0x27
 5672 1815 01       		.uleb128 0x1
 5673 1816 50       		.byte	0x50
 5674 1817 05       		.uleb128 0x5
 5675 1818 03       		.byte	0x3
 5676 1819 0E040000 		.4byte	.LC30
 5677 181d 00       		.byte	0
 5678 181e 26       		.uleb128 0x26
 5679 181f 1A070000 		.4byte	.LVL248
 5680 1823 17140000 		.4byte	0x1417
 5681 1827 44180000 		.4byte	0x1844
 5682 182b 27       		.uleb128 0x27
 5683 182c 01       		.uleb128 0x1
 5684 182d 53       		.byte	0x53
 5685 182e 02       		.uleb128 0x2
 5686 182f 91       		.byte	0x91
 5687 1830 50       		.sleb128 -48
ARM GAS  C:\Users\AHMED~1.ELE\AppData\Local\Temp\ccbrMpYT.s 			page 156


 5688 1831 27       		.uleb128 0x27
 5689 1832 01       		.uleb128 0x1
 5690 1833 52       		.byte	0x52
 5691 1834 02       		.uleb128 0x2
 5692 1835 91       		.byte	0x91
 5693 1836 44       		.sleb128 -60
 5694 1837 27       		.uleb128 0x27
 5695 1838 01       		.uleb128 0x1
 5696 1839 51       		.byte	0x51
 5697 183a 02       		.uleb128 0x2
 5698 183b 91       		.byte	0x91
 5699 183c 4C       		.sleb128 -52
 5700 183d 27       		.uleb128 0x27
 5701 183e 01       		.uleb128 0x1
 5702 183f 50       		.byte	0x50
 5703 1840 02       		.uleb128 0x2
 5704 1841 7B       		.byte	0x7b
 5705 1842 00       		.sleb128 0
 5706 1843 00       		.byte	0
 5707 1844 26       		.uleb128 0x26
 5708 1845 2C070000 		.4byte	.LVL251
 5709 1849 76130000 		.4byte	0x1376
 5710 184d 5E180000 		.4byte	0x185e
 5711 1851 27       		.uleb128 0x27
 5712 1852 01       		.uleb128 0x1
 5713 1853 51       		.byte	0x51
 5714 1854 02       		.uleb128 0x2
 5715 1855 91       		.byte	0x91
 5716 1856 40       		.sleb128 -64
 5717 1857 27       		.uleb128 0x27
 5718 1858 01       		.uleb128 0x1
 5719 1859 50       		.byte	0x50
 5720 185a 02       		.uleb128 0x2
 5721 185b 76       		.byte	0x76
 5722 185c 00       		.sleb128 0
 5723 185d 00       		.byte	0
 5724 185e 26       		.uleb128 0x26
 5725 185f 40070000 		.4byte	.LVL255
 5726 1863 2A150000 		.4byte	0x152a
 5727 1867 7E180000 		.4byte	0x187e
 5728 186b 27       		.uleb128 0x27
 5729 186c 01       		.uleb128 0x1
 5730 186d 52       		.byte	0x52
 5731 186e 02       		.uleb128 0x2
 5732 186f 91       		.byte	0x91
 5733 1870 40       		.sleb128 -64
 5734 1871 27       		.uleb128 0x27
 5735 1872 01       		.uleb128 0x1
 5736 1873 51       		.byte	0x51
 5737 1874 02       		.uleb128 0x2
 5738 1875 76       		.byte	0x76
 5739 1876 00       		.sleb128 0
 5740 1877 27       		.uleb128 0x27
 5741 1878 01       		.uleb128 0x1
 5742 1879 50       		.byte	0x50
 5743 187a 02       		.uleb128 0x2
 5744 187b 78       		.byte	0x78
ARM GAS  C:\Users\AHMED~1.ELE\AppData\Local\Temp\ccbrMpYT.s 			page 157


 5745 187c 00       		.sleb128 0
 5746 187d 00       		.byte	0
 5747 187e 24       		.uleb128 0x24
 5748 187f 4E070000 		.4byte	.LVL257
 5749 1883 39110000 		.4byte	0x1139
 5750 1887 26       		.uleb128 0x26
 5751 1888 70070000 		.4byte	.LVL258
 5752 188c 17140000 		.4byte	0x1417
 5753 1890 AD180000 		.4byte	0x18ad
 5754 1894 27       		.uleb128 0x27
 5755 1895 01       		.uleb128 0x1
 5756 1896 53       		.byte	0x53
 5757 1897 02       		.uleb128 0x2
 5758 1898 91       		.byte	0x91
 5759 1899 50       		.sleb128 -48
 5760 189a 27       		.uleb128 0x27
 5761 189b 01       		.uleb128 0x1
 5762 189c 52       		.byte	0x52
 5763 189d 02       		.uleb128 0x2
 5764 189e 91       		.byte	0x91
 5765 189f 44       		.sleb128 -60
 5766 18a0 27       		.uleb128 0x27
 5767 18a1 01       		.uleb128 0x1
 5768 18a2 51       		.byte	0x51
 5769 18a3 02       		.uleb128 0x2
 5770 18a4 91       		.byte	0x91
 5771 18a5 4C       		.sleb128 -52
 5772 18a6 27       		.uleb128 0x27
 5773 18a7 01       		.uleb128 0x1
 5774 18a8 50       		.byte	0x50
 5775 18a9 02       		.uleb128 0x2
 5776 18aa 77       		.byte	0x77
 5777 18ab 00       		.sleb128 0
 5778 18ac 00       		.byte	0
 5779 18ad 26       		.uleb128 0x26
 5780 18ae 7E070000 		.4byte	.LVL260
 5781 18b2 76130000 		.4byte	0x1376
 5782 18b6 C7180000 		.4byte	0x18c7
 5783 18ba 27       		.uleb128 0x27
 5784 18bb 01       		.uleb128 0x1
 5785 18bc 51       		.byte	0x51
 5786 18bd 02       		.uleb128 0x2
 5787 18be 91       		.byte	0x91
 5788 18bf 40       		.sleb128 -64
 5789 18c0 27       		.uleb128 0x27
 5790 18c1 01       		.uleb128 0x1
 5791 18c2 50       		.byte	0x50
 5792 18c3 02       		.uleb128 0x2
 5793 18c4 76       		.byte	0x76
 5794 18c5 00       		.sleb128 0
 5795 18c6 00       		.byte	0
 5796 18c7 26       		.uleb128 0x26
 5797 18c8 94070000 		.4byte	.LVL264
 5798 18cc 2A150000 		.4byte	0x152a
 5799 18d0 E7180000 		.4byte	0x18e7
 5800 18d4 27       		.uleb128 0x27
 5801 18d5 01       		.uleb128 0x1
ARM GAS  C:\Users\AHMED~1.ELE\AppData\Local\Temp\ccbrMpYT.s 			page 158


 5802 18d6 52       		.byte	0x52
 5803 18d7 02       		.uleb128 0x2
 5804 18d8 91       		.byte	0x91
 5805 18d9 40       		.sleb128 -64
 5806 18da 27       		.uleb128 0x27
 5807 18db 01       		.uleb128 0x1
 5808 18dc 51       		.byte	0x51
 5809 18dd 02       		.uleb128 0x2
 5810 18de 76       		.byte	0x76
 5811 18df 00       		.sleb128 0
 5812 18e0 27       		.uleb128 0x27
 5813 18e1 01       		.uleb128 0x1
 5814 18e2 50       		.byte	0x50
 5815 18e3 02       		.uleb128 0x2
 5816 18e4 78       		.byte	0x78
 5817 18e5 00       		.sleb128 0
 5818 18e6 00       		.byte	0
 5819 18e7 26       		.uleb128 0x26
 5820 18e8 AA070000 		.4byte	.LVL267
 5821 18ec F1230000 		.4byte	0x23f1
 5822 18f0 FB180000 		.4byte	0x18fb
 5823 18f4 27       		.uleb128 0x27
 5824 18f5 01       		.uleb128 0x1
 5825 18f6 50       		.byte	0x50
 5826 18f7 02       		.uleb128 0x2
 5827 18f8 78       		.byte	0x78
 5828 18f9 00       		.sleb128 0
 5829 18fa 00       		.byte	0
 5830 18fb 26       		.uleb128 0x26
 5831 18fc BC070000 		.4byte	.LVL268
 5832 1900 39110000 		.4byte	0x1139
 5833 1904 0F190000 		.4byte	0x190f
 5834 1908 27       		.uleb128 0x27
 5835 1909 01       		.uleb128 0x1
 5836 190a 50       		.byte	0x50
 5837 190b 02       		.uleb128 0x2
 5838 190c 77       		.byte	0x77
 5839 190d 00       		.sleb128 0
 5840 190e 00       		.byte	0
 5841 190f 26       		.uleb128 0x26
 5842 1910 C6070000 		.4byte	.LVL270
 5843 1914 76130000 		.4byte	0x1376
 5844 1918 29190000 		.4byte	0x1929
 5845 191c 27       		.uleb128 0x27
 5846 191d 01       		.uleb128 0x1
 5847 191e 51       		.byte	0x51
 5848 191f 02       		.uleb128 0x2
 5849 1920 91       		.byte	0x91
 5850 1921 40       		.sleb128 -64
 5851 1922 27       		.uleb128 0x27
 5852 1923 01       		.uleb128 0x1
 5853 1924 50       		.byte	0x50
 5854 1925 02       		.uleb128 0x2
 5855 1926 76       		.byte	0x76
 5856 1927 00       		.sleb128 0
 5857 1928 00       		.byte	0
 5858 1929 26       		.uleb128 0x26
ARM GAS  C:\Users\AHMED~1.ELE\AppData\Local\Temp\ccbrMpYT.s 			page 159


 5859 192a D6070000 		.4byte	.LVL275
 5860 192e 76130000 		.4byte	0x1376
 5861 1932 43190000 		.4byte	0x1943
 5862 1936 27       		.uleb128 0x27
 5863 1937 01       		.uleb128 0x1
 5864 1938 51       		.byte	0x51
 5865 1939 02       		.uleb128 0x2
 5866 193a 91       		.byte	0x91
 5867 193b 40       		.sleb128 -64
 5868 193c 27       		.uleb128 0x27
 5869 193d 01       		.uleb128 0x1
 5870 193e 50       		.byte	0x50
 5871 193f 02       		.uleb128 0x2
 5872 1940 76       		.byte	0x76
 5873 1941 00       		.sleb128 0
 5874 1942 00       		.byte	0
 5875 1943 26       		.uleb128 0x26
 5876 1944 E2070000 		.4byte	.LVL277
 5877 1948 39110000 		.4byte	0x1139
 5878 194c 57190000 		.4byte	0x1957
 5879 1950 27       		.uleb128 0x27
 5880 1951 01       		.uleb128 0x1
 5881 1952 50       		.byte	0x50
 5882 1953 02       		.uleb128 0x2
 5883 1954 7B       		.byte	0x7b
 5884 1955 00       		.sleb128 0
 5885 1956 00       		.byte	0
 5886 1957 26       		.uleb128 0x26
 5887 1958 00080000 		.4byte	.LVL281
 5888 195c 76130000 		.4byte	0x1376
 5889 1960 71190000 		.4byte	0x1971
 5890 1964 27       		.uleb128 0x27
 5891 1965 01       		.uleb128 0x1
 5892 1966 51       		.byte	0x51
 5893 1967 02       		.uleb128 0x2
 5894 1968 91       		.byte	0x91
 5895 1969 40       		.sleb128 -64
 5896 196a 27       		.uleb128 0x27
 5897 196b 01       		.uleb128 0x1
 5898 196c 50       		.byte	0x50
 5899 196d 02       		.uleb128 0x2
 5900 196e 76       		.byte	0x76
 5901 196f 00       		.sleb128 0
 5902 1970 00       		.byte	0
 5903 1971 26       		.uleb128 0x26
 5904 1972 16080000 		.4byte	.LVL284
 5905 1976 2A150000 		.4byte	0x152a
 5906 197a 91190000 		.4byte	0x1991
 5907 197e 27       		.uleb128 0x27
 5908 197f 01       		.uleb128 0x1
 5909 1980 52       		.byte	0x52
 5910 1981 02       		.uleb128 0x2
 5911 1982 91       		.byte	0x91
 5912 1983 40       		.sleb128 -64
 5913 1984 27       		.uleb128 0x27
 5914 1985 01       		.uleb128 0x1
 5915 1986 51       		.byte	0x51
ARM GAS  C:\Users\AHMED~1.ELE\AppData\Local\Temp\ccbrMpYT.s 			page 160


 5916 1987 02       		.uleb128 0x2
 5917 1988 76       		.byte	0x76
 5918 1989 00       		.sleb128 0
 5919 198a 27       		.uleb128 0x27
 5920 198b 01       		.uleb128 0x1
 5921 198c 50       		.byte	0x50
 5922 198d 02       		.uleb128 0x2
 5923 198e 78       		.byte	0x78
 5924 198f 00       		.sleb128 0
 5925 1990 00       		.byte	0
 5926 1991 26       		.uleb128 0x26
 5927 1992 24080000 		.4byte	.LVL285
 5928 1996 17140000 		.4byte	0x1417
 5929 199a B1190000 		.4byte	0x19b1
 5930 199e 27       		.uleb128 0x27
 5931 199f 01       		.uleb128 0x1
 5932 19a0 53       		.byte	0x53
 5933 19a1 02       		.uleb128 0x2
 5934 19a2 91       		.byte	0x91
 5935 19a3 54       		.sleb128 -44
 5936 19a4 27       		.uleb128 0x27
 5937 19a5 01       		.uleb128 0x1
 5938 19a6 52       		.byte	0x52
 5939 19a7 02       		.uleb128 0x2
 5940 19a8 91       		.byte	0x91
 5941 19a9 48       		.sleb128 -56
 5942 19aa 27       		.uleb128 0x27
 5943 19ab 01       		.uleb128 0x1
 5944 19ac 51       		.byte	0x51
 5945 19ad 02       		.uleb128 0x2
 5946 19ae 91       		.byte	0x91
 5947 19af 4C       		.sleb128 -52
 5948 19b0 00       		.byte	0
 5949 19b1 26       		.uleb128 0x26
 5950 19b2 40080000 		.4byte	.LVL290
 5951 19b6 76130000 		.4byte	0x1376
 5952 19ba CB190000 		.4byte	0x19cb
 5953 19be 27       		.uleb128 0x27
 5954 19bf 01       		.uleb128 0x1
 5955 19c0 51       		.byte	0x51
 5956 19c1 02       		.uleb128 0x2
 5957 19c2 91       		.byte	0x91
 5958 19c3 40       		.sleb128 -64
 5959 19c4 27       		.uleb128 0x27
 5960 19c5 01       		.uleb128 0x1
 5961 19c6 50       		.byte	0x50
 5962 19c7 02       		.uleb128 0x2
 5963 19c8 76       		.byte	0x76
 5964 19c9 00       		.sleb128 0
 5965 19ca 00       		.byte	0
 5966 19cb 26       		.uleb128 0x26
 5967 19cc 4A080000 		.4byte	.LVL292
 5968 19d0 39110000 		.4byte	0x1139
 5969 19d4 DF190000 		.4byte	0x19df
 5970 19d8 27       		.uleb128 0x27
 5971 19d9 01       		.uleb128 0x1
 5972 19da 50       		.byte	0x50
ARM GAS  C:\Users\AHMED~1.ELE\AppData\Local\Temp\ccbrMpYT.s 			page 161


 5973 19db 02       		.uleb128 0x2
 5974 19dc 77       		.byte	0x77
 5975 19dd 00       		.sleb128 0
 5976 19de 00       		.byte	0
 5977 19df 26       		.uleb128 0x26
 5978 19e0 66080000 		.4byte	.LVL294
 5979 19e4 2A150000 		.4byte	0x152a
 5980 19e8 FF190000 		.4byte	0x19ff
 5981 19ec 27       		.uleb128 0x27
 5982 19ed 01       		.uleb128 0x1
 5983 19ee 52       		.byte	0x52
 5984 19ef 02       		.uleb128 0x2
 5985 19f0 91       		.byte	0x91
 5986 19f1 40       		.sleb128 -64
 5987 19f2 27       		.uleb128 0x27
 5988 19f3 01       		.uleb128 0x1
 5989 19f4 51       		.byte	0x51
 5990 19f5 02       		.uleb128 0x2
 5991 19f6 76       		.byte	0x76
 5992 19f7 00       		.sleb128 0
 5993 19f8 27       		.uleb128 0x27
 5994 19f9 01       		.uleb128 0x1
 5995 19fa 50       		.byte	0x50
 5996 19fb 02       		.uleb128 0x2
 5997 19fc 78       		.byte	0x78
 5998 19fd 00       		.sleb128 0
 5999 19fe 00       		.byte	0
 6000 19ff 26       		.uleb128 0x26
 6001 1a00 78080000 		.4byte	.LVL297
 6002 1a04 17140000 		.4byte	0x1417
 6003 1a08 251A0000 		.4byte	0x1a25
 6004 1a0c 27       		.uleb128 0x27
 6005 1a0d 01       		.uleb128 0x1
 6006 1a0e 53       		.byte	0x53
 6007 1a0f 02       		.uleb128 0x2
 6008 1a10 91       		.byte	0x91
 6009 1a11 54       		.sleb128 -44
 6010 1a12 27       		.uleb128 0x27
 6011 1a13 01       		.uleb128 0x1
 6012 1a14 52       		.byte	0x52
 6013 1a15 02       		.uleb128 0x2
 6014 1a16 91       		.byte	0x91
 6015 1a17 48       		.sleb128 -56
 6016 1a18 27       		.uleb128 0x27
 6017 1a19 01       		.uleb128 0x1
 6018 1a1a 51       		.byte	0x51
 6019 1a1b 02       		.uleb128 0x2
 6020 1a1c 91       		.byte	0x91
 6021 1a1d 4C       		.sleb128 -52
 6022 1a1e 27       		.uleb128 0x27
 6023 1a1f 01       		.uleb128 0x1
 6024 1a20 50       		.byte	0x50
 6025 1a21 02       		.uleb128 0x2
 6026 1a22 77       		.byte	0x77
 6027 1a23 00       		.sleb128 0
 6028 1a24 00       		.byte	0
 6029 1a25 26       		.uleb128 0x26
ARM GAS  C:\Users\AHMED~1.ELE\AppData\Local\Temp\ccbrMpYT.s 			page 162


 6030 1a26 8E080000 		.4byte	.LVL300
 6031 1a2a 0B240000 		.4byte	0x240b
 6032 1a2e 391A0000 		.4byte	0x1a39
 6033 1a32 27       		.uleb128 0x27
 6034 1a33 01       		.uleb128 0x1
 6035 1a34 50       		.byte	0x50
 6036 1a35 02       		.uleb128 0x2
 6037 1a36 78       		.byte	0x78
 6038 1a37 00       		.sleb128 0
 6039 1a38 00       		.byte	0
 6040 1a39 26       		.uleb128 0x26
 6041 1a3a 9E080000 		.4byte	.LVL302
 6042 1a3e 76130000 		.4byte	0x1376
 6043 1a42 531A0000 		.4byte	0x1a53
 6044 1a46 27       		.uleb128 0x27
 6045 1a47 01       		.uleb128 0x1
 6046 1a48 51       		.byte	0x51
 6047 1a49 02       		.uleb128 0x2
 6048 1a4a 91       		.byte	0x91
 6049 1a4b 40       		.sleb128 -64
 6050 1a4c 27       		.uleb128 0x27
 6051 1a4d 01       		.uleb128 0x1
 6052 1a4e 50       		.byte	0x50
 6053 1a4f 02       		.uleb128 0x2
 6054 1a50 76       		.byte	0x76
 6055 1a51 00       		.sleb128 0
 6056 1a52 00       		.byte	0
 6057 1a53 26       		.uleb128 0x26
 6058 1a54 B4080000 		.4byte	.LVL305
 6059 1a58 73230000 		.4byte	0x2373
 6060 1a5c 701A0000 		.4byte	0x1a70
 6061 1a60 27       		.uleb128 0x27
 6062 1a61 01       		.uleb128 0x1
 6063 1a62 51       		.byte	0x51
 6064 1a63 02       		.uleb128 0x2
 6065 1a64 77       		.byte	0x77
 6066 1a65 00       		.sleb128 0
 6067 1a66 27       		.uleb128 0x27
 6068 1a67 01       		.uleb128 0x1
 6069 1a68 50       		.byte	0x50
 6070 1a69 05       		.uleb128 0x5
 6071 1a6a 03       		.byte	0x3
 6072 1a6b D8030000 		.4byte	.LC29
 6073 1a6f 00       		.byte	0
 6074 1a70 26       		.uleb128 0x26
 6075 1a71 D2080000 		.4byte	.LVL309
 6076 1a75 73230000 		.4byte	0x2373
 6077 1a79 871A0000 		.4byte	0x1a87
 6078 1a7d 27       		.uleb128 0x27
 6079 1a7e 01       		.uleb128 0x1
 6080 1a7f 50       		.byte	0x50
 6081 1a80 05       		.uleb128 0x5
 6082 1a81 03       		.byte	0x3
 6083 1a82 24040000 		.4byte	.LC31
 6084 1a86 00       		.byte	0
 6085 1a87 26       		.uleb128 0x26
 6086 1a88 DA080000 		.4byte	.LVL310
ARM GAS  C:\Users\AHMED~1.ELE\AppData\Local\Temp\ccbrMpYT.s 			page 163


 6087 1a8c 86230000 		.4byte	0x2386
 6088 1a90 9B1A0000 		.4byte	0x1a9b
 6089 1a94 27       		.uleb128 0x27
 6090 1a95 01       		.uleb128 0x1
 6091 1a96 50       		.byte	0x50
 6092 1a97 02       		.uleb128 0x2
 6093 1a98 08       		.byte	0x8
 6094 1a99 94       		.byte	0x94
 6095 1a9a 00       		.byte	0
 6096 1a9b 28       		.uleb128 0x28
 6097 1a9c E2080000 		.4byte	.LVL311
 6098 1aa0 86230000 		.4byte	0x2386
 6099 1aa4 27       		.uleb128 0x27
 6100 1aa5 01       		.uleb128 0x1
 6101 1aa6 50       		.byte	0x50
 6102 1aa7 02       		.uleb128 0x2
 6103 1aa8 08       		.byte	0x8
 6104 1aa9 94       		.byte	0x94
 6105 1aaa 00       		.byte	0
 6106 1aab 00       		.byte	0
 6107 1aac 00       		.byte	0
 6108 1aad 24       		.uleb128 0x24
 6109 1aae 12000000 		.4byte	.LVL81
 6110 1ab2 26240000 		.4byte	0x2426
 6111 1ab6 26       		.uleb128 0x26
 6112 1ab7 1C000000 		.4byte	.LVL84
 6113 1abb 86230000 		.4byte	0x2386
 6114 1abf D01A0000 		.4byte	0x1ad0
 6115 1ac3 27       		.uleb128 0x27
 6116 1ac4 01       		.uleb128 0x1
 6117 1ac5 51       		.byte	0x51
 6118 1ac6 02       		.uleb128 0x2
 6119 1ac7 08       		.byte	0x8
 6120 1ac8 40       		.byte	0x40
 6121 1ac9 27       		.uleb128 0x27
 6122 1aca 01       		.uleb128 0x1
 6123 1acb 50       		.byte	0x50
 6124 1acc 02       		.uleb128 0x2
 6125 1acd 08       		.byte	0x8
 6126 1ace 92       		.byte	0x92
 6127 1acf 00       		.byte	0
 6128 1ad0 26       		.uleb128 0x26
 6129 1ad1 28000000 		.4byte	.LVL85
 6130 1ad5 73230000 		.4byte	0x2373
 6131 1ad9 E71A0000 		.4byte	0x1ae7
 6132 1add 27       		.uleb128 0x27
 6133 1ade 01       		.uleb128 0x1
 6134 1adf 50       		.byte	0x50
 6135 1ae0 05       		.uleb128 0x5
 6136 1ae1 03       		.byte	0x3
 6137 1ae2 8B010000 		.4byte	.LC11
 6138 1ae6 00       		.byte	0
 6139 1ae7 33       		.uleb128 0x33
 6140 1ae8 42000000 		.4byte	.LVL87
 6141 1aec 04       		.uleb128 0x4
 6142 1aed 91       		.byte	0x91
 6143 1aee A47F     		.sleb128 -92
ARM GAS  C:\Users\AHMED~1.ELE\AppData\Local\Temp\ccbrMpYT.s 			page 164


 6144 1af0 06       		.byte	0x6
 6145 1af1 FE1A0000 		.4byte	0x1afe
 6146 1af5 27       		.uleb128 0x27
 6147 1af6 01       		.uleb128 0x1
 6148 1af7 50       		.byte	0x50
 6149 1af8 04       		.uleb128 0x4
 6150 1af9 91       		.byte	0x91
 6151 1afa A87F     		.sleb128 -88
 6152 1afc 06       		.byte	0x6
 6153 1afd 00       		.byte	0
 6154 1afe 26       		.uleb128 0x26
 6155 1aff 76000000 		.4byte	.LVL92
 6156 1b03 2A150000 		.4byte	0x152a
 6157 1b07 1E1B0000 		.4byte	0x1b1e
 6158 1b0b 27       		.uleb128 0x27
 6159 1b0c 01       		.uleb128 0x1
 6160 1b0d 52       		.byte	0x52
 6161 1b0e 02       		.uleb128 0x2
 6162 1b0f 91       		.byte	0x91
 6163 1b10 40       		.sleb128 -64
 6164 1b11 27       		.uleb128 0x27
 6165 1b12 01       		.uleb128 0x1
 6166 1b13 51       		.byte	0x51
 6167 1b14 02       		.uleb128 0x2
 6168 1b15 76       		.byte	0x76
 6169 1b16 00       		.sleb128 0
 6170 1b17 27       		.uleb128 0x27
 6171 1b18 01       		.uleb128 0x1
 6172 1b19 50       		.byte	0x50
 6173 1b1a 02       		.uleb128 0x2
 6174 1b1b 74       		.byte	0x74
 6175 1b1c 00       		.sleb128 0
 6176 1b1d 00       		.byte	0
 6177 1b1e 26       		.uleb128 0x26
 6178 1b1f 86000000 		.4byte	.LVL93
 6179 1b23 17140000 		.4byte	0x1417
 6180 1b27 411B0000 		.4byte	0x1b41
 6181 1b2b 27       		.uleb128 0x27
 6182 1b2c 01       		.uleb128 0x1
 6183 1b2d 53       		.byte	0x53
 6184 1b2e 03       		.uleb128 0x3
 6185 1b2f 91       		.byte	0x91
 6186 1b30 BC7F     		.sleb128 -68
 6187 1b32 27       		.uleb128 0x27
 6188 1b33 01       		.uleb128 0x1
 6189 1b34 52       		.byte	0x52
 6190 1b35 03       		.uleb128 0x3
 6191 1b36 91       		.byte	0x91
 6192 1b37 B47F     		.sleb128 -76
 6193 1b39 27       		.uleb128 0x27
 6194 1b3a 01       		.uleb128 0x1
 6195 1b3b 51       		.byte	0x51
 6196 1b3c 03       		.uleb128 0x3
 6197 1b3d 91       		.byte	0x91
 6198 1b3e B87F     		.sleb128 -72
 6199 1b40 00       		.byte	0
 6200 1b41 26       		.uleb128 0x26
ARM GAS  C:\Users\AHMED~1.ELE\AppData\Local\Temp\ccbrMpYT.s 			page 165


 6201 1b42 94000000 		.4byte	.LVL94
 6202 1b46 76130000 		.4byte	0x1376
 6203 1b4a 5B1B0000 		.4byte	0x1b5b
 6204 1b4e 27       		.uleb128 0x27
 6205 1b4f 01       		.uleb128 0x1
 6206 1b50 51       		.byte	0x51
 6207 1b51 02       		.uleb128 0x2
 6208 1b52 91       		.byte	0x91
 6209 1b53 40       		.sleb128 -64
 6210 1b54 27       		.uleb128 0x27
 6211 1b55 01       		.uleb128 0x1
 6212 1b56 50       		.byte	0x50
 6213 1b57 02       		.uleb128 0x2
 6214 1b58 76       		.byte	0x76
 6215 1b59 00       		.sleb128 0
 6216 1b5a 00       		.byte	0
 6217 1b5b 26       		.uleb128 0x26
 6218 1b5c A0000000 		.4byte	.LVL96
 6219 1b60 39110000 		.4byte	0x1139
 6220 1b64 6F1B0000 		.4byte	0x1b6f
 6221 1b68 27       		.uleb128 0x27
 6222 1b69 01       		.uleb128 0x1
 6223 1b6a 50       		.byte	0x50
 6224 1b6b 02       		.uleb128 0x2
 6225 1b6c 7B       		.byte	0x7b
 6226 1b6d 00       		.sleb128 0
 6227 1b6e 00       		.byte	0
 6228 1b6f 26       		.uleb128 0x26
 6229 1b70 B8000000 		.4byte	.LVL97
 6230 1b74 31240000 		.4byte	0x2431
 6231 1b78 8C1B0000 		.4byte	0x1b8c
 6232 1b7c 27       		.uleb128 0x27
 6233 1b7d 01       		.uleb128 0x1
 6234 1b7e 51       		.byte	0x51
 6235 1b7f 05       		.uleb128 0x5
 6236 1b80 03       		.byte	0x3
 6237 1b81 3D020000 		.4byte	.LC17
 6238 1b85 27       		.uleb128 0x27
 6239 1b86 01       		.uleb128 0x1
 6240 1b87 50       		.byte	0x50
 6241 1b88 02       		.uleb128 0x2
 6242 1b89 78       		.byte	0x78
 6243 1b8a 00       		.sleb128 0
 6244 1b8b 00       		.byte	0
 6245 1b8c 26       		.uleb128 0x26
 6246 1b8d C6000000 		.4byte	.LVL99
 6247 1b91 76130000 		.4byte	0x1376
 6248 1b95 A61B0000 		.4byte	0x1ba6
 6249 1b99 27       		.uleb128 0x27
 6250 1b9a 01       		.uleb128 0x1
 6251 1b9b 51       		.byte	0x51
 6252 1b9c 02       		.uleb128 0x2
 6253 1b9d 91       		.byte	0x91
 6254 1b9e 40       		.sleb128 -64
 6255 1b9f 27       		.uleb128 0x27
 6256 1ba0 01       		.uleb128 0x1
 6257 1ba1 50       		.byte	0x50
ARM GAS  C:\Users\AHMED~1.ELE\AppData\Local\Temp\ccbrMpYT.s 			page 166


 6258 1ba2 02       		.uleb128 0x2
 6259 1ba3 76       		.byte	0x76
 6260 1ba4 00       		.sleb128 0
 6261 1ba5 00       		.byte	0
 6262 1ba6 26       		.uleb128 0x26
 6263 1ba7 10010000 		.4byte	.LVL101
 6264 1bab 4B240000 		.4byte	0x244b
 6265 1baf BA1B0000 		.4byte	0x1bba
 6266 1bb3 27       		.uleb128 0x27
 6267 1bb4 01       		.uleb128 0x1
 6268 1bb5 50       		.byte	0x50
 6269 1bb6 02       		.uleb128 0x2
 6270 1bb7 74       		.byte	0x74
 6271 1bb8 00       		.sleb128 0
 6272 1bb9 00       		.byte	0
 6273 1bba 34       		.uleb128 0x34
 6274 1bbb 26010000 		.4byte	.LVL103
 6275 1bbf CB1B0000 		.4byte	0x1bcb
 6276 1bc3 27       		.uleb128 0x27
 6277 1bc4 01       		.uleb128 0x1
 6278 1bc5 52       		.byte	0x52
 6279 1bc6 03       		.uleb128 0x3
 6280 1bc7 91       		.byte	0x91
 6281 1bc8 00       		.sleb128 0
 6282 1bc9 06       		.byte	0x6
 6283 1bca 00       		.byte	0
 6284 1bcb 26       		.uleb128 0x26
 6285 1bcc 2C010000 		.4byte	.LVL104
 6286 1bd0 65240000 		.4byte	0x2465
 6287 1bd4 DF1B0000 		.4byte	0x1bdf
 6288 1bd8 27       		.uleb128 0x27
 6289 1bd9 01       		.uleb128 0x1
 6290 1bda 50       		.byte	0x50
 6291 1bdb 02       		.uleb128 0x2
 6292 1bdc 78       		.byte	0x78
 6293 1bdd 00       		.sleb128 0
 6294 1bde 00       		.byte	0
 6295 1bdf 26       		.uleb128 0x26
 6296 1be0 3E010000 		.4byte	.LVL107
 6297 1be4 76130000 		.4byte	0x1376
 6298 1be8 F91B0000 		.4byte	0x1bf9
 6299 1bec 27       		.uleb128 0x27
 6300 1bed 01       		.uleb128 0x1
 6301 1bee 51       		.byte	0x51
 6302 1bef 02       		.uleb128 0x2
 6303 1bf0 91       		.byte	0x91
 6304 1bf1 40       		.sleb128 -64
 6305 1bf2 27       		.uleb128 0x27
 6306 1bf3 01       		.uleb128 0x1
 6307 1bf4 50       		.byte	0x50
 6308 1bf5 02       		.uleb128 0x2
 6309 1bf6 76       		.byte	0x76
 6310 1bf7 00       		.sleb128 0
 6311 1bf8 00       		.byte	0
 6312 1bf9 26       		.uleb128 0x26
 6313 1bfa 52010000 		.4byte	.LVL109
 6314 1bfe 39110000 		.4byte	0x1139
ARM GAS  C:\Users\AHMED~1.ELE\AppData\Local\Temp\ccbrMpYT.s 			page 167


 6315 1c02 0D1C0000 		.4byte	0x1c0d
 6316 1c06 27       		.uleb128 0x27
 6317 1c07 01       		.uleb128 0x1
 6318 1c08 50       		.byte	0x50
 6319 1c09 02       		.uleb128 0x2
 6320 1c0a 78       		.byte	0x78
 6321 1c0b 00       		.sleb128 0
 6322 1c0c 00       		.byte	0
 6323 1c0d 26       		.uleb128 0x26
 6324 1c0e A0010000 		.4byte	.LVL112
 6325 1c12 BD230000 		.4byte	0x23bd
 6326 1c16 271C0000 		.4byte	0x1c27
 6327 1c1a 27       		.uleb128 0x27
 6328 1c1b 01       		.uleb128 0x1
 6329 1c1c 52       		.byte	0x52
 6330 1c1d 01       		.uleb128 0x1
 6331 1c1e 30       		.byte	0x30
 6332 1c1f 27       		.uleb128 0x27
 6333 1c20 01       		.uleb128 0x1
 6334 1c21 51       		.byte	0x51
 6335 1c22 03       		.uleb128 0x3
 6336 1c23 91       		.byte	0x91
 6337 1c24 B87F     		.sleb128 -72
 6338 1c26 00       		.byte	0
 6339 1c27 26       		.uleb128 0x26
 6340 1c28 A8010000 		.4byte	.LVL113
 6341 1c2c 7B240000 		.4byte	0x247b
 6342 1c30 3B1C0000 		.4byte	0x1c3b
 6343 1c34 27       		.uleb128 0x27
 6344 1c35 01       		.uleb128 0x1
 6345 1c36 50       		.byte	0x50
 6346 1c37 02       		.uleb128 0x2
 6347 1c38 74       		.byte	0x74
 6348 1c39 00       		.sleb128 0
 6349 1c3a 00       		.byte	0
 6350 1c3b 26       		.uleb128 0x26
 6351 1c3c B2010000 		.4byte	.LVL114
 6352 1c40 95240000 		.4byte	0x2495
 6353 1c44 4F1C0000 		.4byte	0x1c4f
 6354 1c48 27       		.uleb128 0x27
 6355 1c49 01       		.uleb128 0x1
 6356 1c4a 50       		.byte	0x50
 6357 1c4b 02       		.uleb128 0x2
 6358 1c4c 74       		.byte	0x74
 6359 1c4d 00       		.sleb128 0
 6360 1c4e 00       		.byte	0
 6361 1c4f 26       		.uleb128 0x26
 6362 1c50 BC010000 		.4byte	.LVL115
 6363 1c54 AF240000 		.4byte	0x24af
 6364 1c58 641C0000 		.4byte	0x1c64
 6365 1c5c 27       		.uleb128 0x27
 6366 1c5d 01       		.uleb128 0x1
 6367 1c5e 51       		.byte	0x51
 6368 1c5f 03       		.uleb128 0x3
 6369 1c60 91       		.byte	0x91
 6370 1c61 B87F     		.sleb128 -72
 6371 1c63 00       		.byte	0
ARM GAS  C:\Users\AHMED~1.ELE\AppData\Local\Temp\ccbrMpYT.s 			page 168


 6372 1c64 26       		.uleb128 0x26
 6373 1c65 C6010000 		.4byte	.LVL116
 6374 1c69 C9240000 		.4byte	0x24c9
 6375 1c6d 781C0000 		.4byte	0x1c78
 6376 1c71 27       		.uleb128 0x27
 6377 1c72 01       		.uleb128 0x1
 6378 1c73 50       		.byte	0x50
 6379 1c74 02       		.uleb128 0x2
 6380 1c75 74       		.byte	0x74
 6381 1c76 00       		.sleb128 0
 6382 1c77 00       		.byte	0
 6383 1c78 26       		.uleb128 0x26
 6384 1c79 D2010000 		.4byte	.LVL117
 6385 1c7d E3240000 		.4byte	0x24e3
 6386 1c81 931C0000 		.4byte	0x1c93
 6387 1c85 27       		.uleb128 0x27
 6388 1c86 01       		.uleb128 0x1
 6389 1c87 51       		.byte	0x51
 6390 1c88 03       		.uleb128 0x3
 6391 1c89 7D       		.byte	0x7d
 6392 1c8a 00       		.sleb128 0
 6393 1c8b 06       		.byte	0x6
 6394 1c8c 27       		.uleb128 0x27
 6395 1c8d 01       		.uleb128 0x1
 6396 1c8e 50       		.byte	0x50
 6397 1c8f 02       		.uleb128 0x2
 6398 1c90 74       		.byte	0x74
 6399 1c91 00       		.sleb128 0
 6400 1c92 00       		.byte	0
 6401 1c93 26       		.uleb128 0x26
 6402 1c94 E8010000 		.4byte	.LVL120
 6403 1c98 03250000 		.4byte	0x2503
 6404 1c9c B11C0000 		.4byte	0x1cb1
 6405 1ca0 27       		.uleb128 0x27
 6406 1ca1 01       		.uleb128 0x1
 6407 1ca2 52       		.byte	0x52
 6408 1ca3 01       		.uleb128 0x1
 6409 1ca4 30       		.byte	0x30
 6410 1ca5 27       		.uleb128 0x27
 6411 1ca6 01       		.uleb128 0x1
 6412 1ca7 51       		.byte	0x51
 6413 1ca8 01       		.uleb128 0x1
 6414 1ca9 30       		.byte	0x30
 6415 1caa 27       		.uleb128 0x27
 6416 1cab 01       		.uleb128 0x1
 6417 1cac 50       		.byte	0x50
 6418 1cad 02       		.uleb128 0x2
 6419 1cae 74       		.byte	0x74
 6420 1caf 00       		.sleb128 0
 6421 1cb0 00       		.byte	0
 6422 1cb1 34       		.uleb128 0x34
 6423 1cb2 F4010000 		.4byte	.LVL122
 6424 1cb6 C11C0000 		.4byte	0x1cc1
 6425 1cba 27       		.uleb128 0x27
 6426 1cbb 01       		.uleb128 0x1
 6427 1cbc 50       		.byte	0x50
 6428 1cbd 02       		.uleb128 0x2
ARM GAS  C:\Users\AHMED~1.ELE\AppData\Local\Temp\ccbrMpYT.s 			page 169


 6429 1cbe 7B       		.byte	0x7b
 6430 1cbf 00       		.sleb128 0
 6431 1cc0 00       		.byte	0
 6432 1cc1 26       		.uleb128 0x26
 6433 1cc2 06020000 		.4byte	.LVL123
 6434 1cc6 73230000 		.4byte	0x2373
 6435 1cca D81C0000 		.4byte	0x1cd8
 6436 1cce 27       		.uleb128 0x27
 6437 1ccf 01       		.uleb128 0x1
 6438 1cd0 50       		.byte	0x50
 6439 1cd1 05       		.uleb128 0x5
 6440 1cd2 03       		.byte	0x3
 6441 1cd3 AD010000 		.4byte	.LC12
 6442 1cd7 00       		.byte	0
 6443 1cd8 26       		.uleb128 0x26
 6444 1cd9 0C020000 		.4byte	.LVL124
 6445 1cdd 22250000 		.4byte	0x2522
 6446 1ce1 EC1C0000 		.4byte	0x1cec
 6447 1ce5 27       		.uleb128 0x27
 6448 1ce6 01       		.uleb128 0x1
 6449 1ce7 50       		.byte	0x50
 6450 1ce8 02       		.uleb128 0x2
 6451 1ce9 7B       		.byte	0x7b
 6452 1cea 00       		.sleb128 0
 6453 1ceb 00       		.byte	0
 6454 1cec 26       		.uleb128 0x26
 6455 1ced 3C020000 		.4byte	.LVL126
 6456 1cf1 73230000 		.4byte	0x2373
 6457 1cf5 031D0000 		.4byte	0x1d03
 6458 1cf9 27       		.uleb128 0x27
 6459 1cfa 01       		.uleb128 0x1
 6460 1cfb 50       		.byte	0x50
 6461 1cfc 05       		.uleb128 0x5
 6462 1cfd 03       		.byte	0x3
 6463 1cfe D3010000 		.4byte	.LC13
 6464 1d02 00       		.byte	0
 6465 1d03 26       		.uleb128 0x26
 6466 1d04 46020000 		.4byte	.LVL127
 6467 1d08 39110000 		.4byte	0x1139
 6468 1d0c 171D0000 		.4byte	0x1d17
 6469 1d10 27       		.uleb128 0x27
 6470 1d11 01       		.uleb128 0x1
 6471 1d12 50       		.byte	0x50
 6472 1d13 02       		.uleb128 0x2
 6473 1d14 78       		.byte	0x78
 6474 1d15 00       		.sleb128 0
 6475 1d16 00       		.byte	0
 6476 1d17 34       		.uleb128 0x34
 6477 1d18 8A020000 		.4byte	.LVL131
 6478 1d1c 331D0000 		.4byte	0x1d33
 6479 1d20 27       		.uleb128 0x27
 6480 1d21 01       		.uleb128 0x1
 6481 1d22 52       		.byte	0x52
 6482 1d23 03       		.uleb128 0x3
 6483 1d24 91       		.byte	0x91
 6484 1d25 00       		.sleb128 0
 6485 1d26 06       		.byte	0x6
ARM GAS  C:\Users\AHMED~1.ELE\AppData\Local\Temp\ccbrMpYT.s 			page 170


 6486 1d27 27       		.uleb128 0x27
 6487 1d28 01       		.uleb128 0x1
 6488 1d29 51       		.byte	0x51
 6489 1d2a 01       		.uleb128 0x1
 6490 1d2b 32       		.byte	0x32
 6491 1d2c 27       		.uleb128 0x27
 6492 1d2d 01       		.uleb128 0x1
 6493 1d2e 50       		.byte	0x50
 6494 1d2f 02       		.uleb128 0x2
 6495 1d30 7B       		.byte	0x7b
 6496 1d31 00       		.sleb128 0
 6497 1d32 00       		.byte	0
 6498 1d33 26       		.uleb128 0x26
 6499 1d34 90020000 		.4byte	.LVL132
 6500 1d38 65240000 		.4byte	0x2465
 6501 1d3c 471D0000 		.4byte	0x1d47
 6502 1d40 27       		.uleb128 0x27
 6503 1d41 01       		.uleb128 0x1
 6504 1d42 50       		.byte	0x50
 6505 1d43 02       		.uleb128 0x2
 6506 1d44 7B       		.byte	0x7b
 6507 1d45 00       		.sleb128 0
 6508 1d46 00       		.byte	0
 6509 1d47 26       		.uleb128 0x26
 6510 1d48 A8020000 		.4byte	.LVL136
 6511 1d4c 39110000 		.4byte	0x1139
 6512 1d50 5B1D0000 		.4byte	0x1d5b
 6513 1d54 27       		.uleb128 0x27
 6514 1d55 01       		.uleb128 0x1
 6515 1d56 50       		.byte	0x50
 6516 1d57 02       		.uleb128 0x2
 6517 1d58 78       		.byte	0x78
 6518 1d59 00       		.sleb128 0
 6519 1d5a 00       		.byte	0
 6520 1d5b 26       		.uleb128 0x26
 6521 1d5c 04030000 		.4byte	.LVL140
 6522 1d60 E3240000 		.4byte	0x24e3
 6523 1d64 7D1D0000 		.4byte	0x1d7d
 6524 1d68 27       		.uleb128 0x27
 6525 1d69 01       		.uleb128 0x1
 6526 1d6a 52       		.byte	0x52
 6527 1d6b 05       		.uleb128 0x5
 6528 1d6c 03       		.byte	0x3
 6529 1d6d 29020000 		.4byte	.LC15
 6530 1d71 27       		.uleb128 0x27
 6531 1d72 01       		.uleb128 0x1
 6532 1d73 51       		.byte	0x51
 6533 1d74 01       		.uleb128 0x1
 6534 1d75 31       		.byte	0x31
 6535 1d76 27       		.uleb128 0x27
 6536 1d77 01       		.uleb128 0x1
 6537 1d78 50       		.byte	0x50
 6538 1d79 02       		.uleb128 0x2
 6539 1d7a 74       		.byte	0x74
 6540 1d7b 00       		.sleb128 0
 6541 1d7c 00       		.byte	0
 6542 1d7d 34       		.uleb128 0x34
ARM GAS  C:\Users\AHMED~1.ELE\AppData\Local\Temp\ccbrMpYT.s 			page 171


 6543 1d7e 1A030000 		.4byte	.LVL144
 6544 1d82 931D0000 		.4byte	0x1d93
 6545 1d86 27       		.uleb128 0x27
 6546 1d87 01       		.uleb128 0x1
 6547 1d88 52       		.byte	0x52
 6548 1d89 03       		.uleb128 0x3
 6549 1d8a 91       		.byte	0x91
 6550 1d8b 00       		.sleb128 0
 6551 1d8c 06       		.byte	0x6
 6552 1d8d 27       		.uleb128 0x27
 6553 1d8e 01       		.uleb128 0x1
 6554 1d8f 51       		.byte	0x51
 6555 1d90 01       		.uleb128 0x1
 6556 1d91 32       		.byte	0x32
 6557 1d92 00       		.byte	0
 6558 1d93 26       		.uleb128 0x26
 6559 1d94 20030000 		.4byte	.LVL145
 6560 1d98 65240000 		.4byte	0x2465
 6561 1d9c A71D0000 		.4byte	0x1da7
 6562 1da0 27       		.uleb128 0x27
 6563 1da1 01       		.uleb128 0x1
 6564 1da2 50       		.byte	0x50
 6565 1da3 02       		.uleb128 0x2
 6566 1da4 77       		.byte	0x77
 6567 1da5 00       		.sleb128 0
 6568 1da6 00       		.byte	0
 6569 1da7 26       		.uleb128 0x26
 6570 1da8 3E030000 		.4byte	.LVL149
 6571 1dac 31240000 		.4byte	0x2431
 6572 1db0 C41D0000 		.4byte	0x1dc4
 6573 1db4 27       		.uleb128 0x27
 6574 1db5 01       		.uleb128 0x1
 6575 1db6 51       		.byte	0x51
 6576 1db7 05       		.uleb128 0x5
 6577 1db8 03       		.byte	0x3
 6578 1db9 41020000 		.4byte	.LC18
 6579 1dbd 27       		.uleb128 0x27
 6580 1dbe 01       		.uleb128 0x1
 6581 1dbf 50       		.byte	0x50
 6582 1dc0 02       		.uleb128 0x2
 6583 1dc1 78       		.byte	0x78
 6584 1dc2 00       		.sleb128 0
 6585 1dc3 00       		.byte	0
 6586 1dc4 26       		.uleb128 0x26
 6587 1dc5 4C030000 		.4byte	.LVL151
 6588 1dc9 76130000 		.4byte	0x1376
 6589 1dcd DE1D0000 		.4byte	0x1dde
 6590 1dd1 27       		.uleb128 0x27
 6591 1dd2 01       		.uleb128 0x1
 6592 1dd3 51       		.byte	0x51
 6593 1dd4 02       		.uleb128 0x2
 6594 1dd5 91       		.byte	0x91
 6595 1dd6 40       		.sleb128 -64
 6596 1dd7 27       		.uleb128 0x27
 6597 1dd8 01       		.uleb128 0x1
 6598 1dd9 50       		.byte	0x50
 6599 1dda 02       		.uleb128 0x2
ARM GAS  C:\Users\AHMED~1.ELE\AppData\Local\Temp\ccbrMpYT.s 			page 172


 6600 1ddb 76       		.byte	0x76
 6601 1ddc 00       		.sleb128 0
 6602 1ddd 00       		.byte	0
 6603 1dde 26       		.uleb128 0x26
 6604 1ddf 6E030000 		.4byte	.LVL154
 6605 1de3 33250000 		.4byte	0x2533
 6606 1de7 001E0000 		.4byte	0x1e00
 6607 1deb 27       		.uleb128 0x27
 6608 1dec 01       		.uleb128 0x1
 6609 1ded 52       		.byte	0x52
 6610 1dee 01       		.uleb128 0x1
 6611 1def 32       		.byte	0x32
 6612 1df0 27       		.uleb128 0x27
 6613 1df1 01       		.uleb128 0x1
 6614 1df2 51       		.byte	0x51
 6615 1df3 05       		.uleb128 0x5
 6616 1df4 03       		.byte	0x3
 6617 1df5 A2020000 		.4byte	.LC21
 6618 1df9 27       		.uleb128 0x27
 6619 1dfa 01       		.uleb128 0x1
 6620 1dfb 50       		.byte	0x50
 6621 1dfc 02       		.uleb128 0x2
 6622 1dfd 7B       		.byte	0x7b
 6623 1dfe 7E       		.sleb128 -2
 6624 1dff 00       		.byte	0
 6625 1e00 24       		.uleb128 0x24
 6626 1e01 8E030000 		.4byte	.LVL156
 6627 1e05 73230000 		.4byte	0x2373
 6628 1e09 34       		.uleb128 0x34
 6629 1e0a BE030000 		.4byte	.LVL162
 6630 1e0e 251E0000 		.4byte	0x1e25
 6631 1e12 27       		.uleb128 0x27
 6632 1e13 01       		.uleb128 0x1
 6633 1e14 52       		.byte	0x52
 6634 1e15 03       		.uleb128 0x3
 6635 1e16 91       		.byte	0x91
 6636 1e17 00       		.sleb128 0
 6637 1e18 06       		.byte	0x6
 6638 1e19 27       		.uleb128 0x27
 6639 1e1a 01       		.uleb128 0x1
 6640 1e1b 51       		.byte	0x51
 6641 1e1c 01       		.uleb128 0x1
 6642 1e1d 35       		.byte	0x35
 6643 1e1e 27       		.uleb128 0x27
 6644 1e1f 01       		.uleb128 0x1
 6645 1e20 50       		.byte	0x50
 6646 1e21 02       		.uleb128 0x2
 6647 1e22 78       		.byte	0x78
 6648 1e23 00       		.sleb128 0
 6649 1e24 00       		.byte	0
 6650 1e25 26       		.uleb128 0x26
 6651 1e26 D6030000 		.4byte	.LVL166
 6652 1e2a 86230000 		.4byte	0x2386
 6653 1e2e 391E0000 		.4byte	0x1e39
 6654 1e32 27       		.uleb128 0x27
 6655 1e33 01       		.uleb128 0x1
 6656 1e34 50       		.byte	0x50
ARM GAS  C:\Users\AHMED~1.ELE\AppData\Local\Temp\ccbrMpYT.s 			page 173


 6657 1e35 02       		.uleb128 0x2
 6658 1e36 08       		.byte	0x8
 6659 1e37 94       		.byte	0x94
 6660 1e38 00       		.byte	0
 6661 1e39 26       		.uleb128 0x26
 6662 1e3a 02040000 		.4byte	.LVL170
 6663 1e3e 73230000 		.4byte	0x2373
 6664 1e42 501E0000 		.4byte	0x1e50
 6665 1e46 27       		.uleb128 0x27
 6666 1e47 01       		.uleb128 0x1
 6667 1e48 50       		.byte	0x50
 6668 1e49 05       		.uleb128 0x5
 6669 1e4a 03       		.byte	0x3
 6670 1e4b 87040000 		.4byte	.LC33
 6671 1e4f 00       		.byte	0
 6672 1e50 26       		.uleb128 0x26
 6673 1e51 08040000 		.4byte	.LVL171
 6674 1e55 22250000 		.4byte	0x2522
 6675 1e59 641E0000 		.4byte	0x1e64
 6676 1e5d 27       		.uleb128 0x27
 6677 1e5e 01       		.uleb128 0x1
 6678 1e5f 50       		.byte	0x50
 6679 1e60 02       		.uleb128 0x2
 6680 1e61 75       		.byte	0x75
 6681 1e62 00       		.sleb128 0
 6682 1e63 00       		.byte	0
 6683 1e64 26       		.uleb128 0x26
 6684 1e65 2E040000 		.4byte	.LVL173
 6685 1e69 17140000 		.4byte	0x1417
 6686 1e6d 8D1E0000 		.4byte	0x1e8d
 6687 1e71 27       		.uleb128 0x27
 6688 1e72 01       		.uleb128 0x1
 6689 1e73 53       		.byte	0x53
 6690 1e74 03       		.uleb128 0x3
 6691 1e75 91       		.byte	0x91
 6692 1e76 BC7F     		.sleb128 -68
 6693 1e78 27       		.uleb128 0x27
 6694 1e79 01       		.uleb128 0x1
 6695 1e7a 52       		.byte	0x52
 6696 1e7b 03       		.uleb128 0x3
 6697 1e7c 91       		.byte	0x91
 6698 1e7d B47F     		.sleb128 -76
 6699 1e7f 27       		.uleb128 0x27
 6700 1e80 01       		.uleb128 0x1
 6701 1e81 51       		.byte	0x51
 6702 1e82 03       		.uleb128 0x3
 6703 1e83 91       		.byte	0x91
 6704 1e84 B87F     		.sleb128 -72
 6705 1e86 27       		.uleb128 0x27
 6706 1e87 01       		.uleb128 0x1
 6707 1e88 50       		.byte	0x50
 6708 1e89 02       		.uleb128 0x2
 6709 1e8a 7B       		.byte	0x7b
 6710 1e8b 00       		.sleb128 0
 6711 1e8c 00       		.byte	0
 6712 1e8d 26       		.uleb128 0x26
 6713 1e8e 38040000 		.4byte	.LVL175
ARM GAS  C:\Users\AHMED~1.ELE\AppData\Local\Temp\ccbrMpYT.s 			page 174


 6714 1e92 22250000 		.4byte	0x2522
 6715 1e96 A11E0000 		.4byte	0x1ea1
 6716 1e9a 27       		.uleb128 0x27
 6717 1e9b 01       		.uleb128 0x1
 6718 1e9c 50       		.byte	0x50
 6719 1e9d 02       		.uleb128 0x2
 6720 1e9e 75       		.byte	0x75
 6721 1e9f 00       		.sleb128 0
 6722 1ea0 00       		.byte	0
 6723 1ea1 26       		.uleb128 0x26
 6724 1ea2 40040000 		.4byte	.LVL176
 6725 1ea6 86230000 		.4byte	0x2386
 6726 1eaa B51E0000 		.4byte	0x1eb5
 6727 1eae 27       		.uleb128 0x27
 6728 1eaf 01       		.uleb128 0x1
 6729 1eb0 50       		.byte	0x50
 6730 1eb1 02       		.uleb128 0x2
 6731 1eb2 08       		.byte	0x8
 6732 1eb3 94       		.byte	0x94
 6733 1eb4 00       		.byte	0
 6734 1eb5 26       		.uleb128 0x26
 6735 1eb6 78040000 		.4byte	.LVL184
 6736 1eba 2A150000 		.4byte	0x152a
 6737 1ebe D51E0000 		.4byte	0x1ed5
 6738 1ec2 27       		.uleb128 0x27
 6739 1ec3 01       		.uleb128 0x1
 6740 1ec4 52       		.byte	0x52
 6741 1ec5 02       		.uleb128 0x2
 6742 1ec6 91       		.byte	0x91
 6743 1ec7 40       		.sleb128 -64
 6744 1ec8 27       		.uleb128 0x27
 6745 1ec9 01       		.uleb128 0x1
 6746 1eca 51       		.byte	0x51
 6747 1ecb 02       		.uleb128 0x2
 6748 1ecc 76       		.byte	0x76
 6749 1ecd 00       		.sleb128 0
 6750 1ece 27       		.uleb128 0x27
 6751 1ecf 01       		.uleb128 0x1
 6752 1ed0 50       		.byte	0x50
 6753 1ed1 02       		.uleb128 0x2
 6754 1ed2 74       		.byte	0x74
 6755 1ed3 00       		.sleb128 0
 6756 1ed4 00       		.byte	0
 6757 1ed5 26       		.uleb128 0x26
 6758 1ed6 90040000 		.4byte	.LVL187
 6759 1eda 39110000 		.4byte	0x1139
 6760 1ede E91E0000 		.4byte	0x1ee9
 6761 1ee2 27       		.uleb128 0x27
 6762 1ee3 01       		.uleb128 0x1
 6763 1ee4 50       		.byte	0x50
 6764 1ee5 02       		.uleb128 0x2
 6765 1ee6 78       		.byte	0x78
 6766 1ee7 00       		.sleb128 0
 6767 1ee8 00       		.byte	0
 6768 1ee9 26       		.uleb128 0x26
 6769 1eea B0040000 		.4byte	.LVL191
 6770 1eee 17140000 		.4byte	0x1417
ARM GAS  C:\Users\AHMED~1.ELE\AppData\Local\Temp\ccbrMpYT.s 			page 175


 6771 1ef2 0C1F0000 		.4byte	0x1f0c
 6772 1ef6 27       		.uleb128 0x27
 6773 1ef7 01       		.uleb128 0x1
 6774 1ef8 53       		.byte	0x53
 6775 1ef9 03       		.uleb128 0x3
 6776 1efa 91       		.byte	0x91
 6777 1efb BC7F     		.sleb128 -68
 6778 1efd 27       		.uleb128 0x27
 6779 1efe 01       		.uleb128 0x1
 6780 1eff 52       		.byte	0x52
 6781 1f00 03       		.uleb128 0x3
 6782 1f01 91       		.byte	0x91
 6783 1f02 B47F     		.sleb128 -76
 6784 1f04 27       		.uleb128 0x27
 6785 1f05 01       		.uleb128 0x1
 6786 1f06 51       		.byte	0x51
 6787 1f07 03       		.uleb128 0x3
 6788 1f08 91       		.byte	0x91
 6789 1f09 B87F     		.sleb128 -72
 6790 1f0b 00       		.byte	0
 6791 1f0c 24       		.uleb128 0x24
 6792 1f0d 02050000 		.4byte	.LVL199
 6793 1f11 33250000 		.4byte	0x2533
 6794 1f15 26       		.uleb128 0x26
 6795 1f16 14050000 		.4byte	.LVL201
 6796 1f1a 17140000 		.4byte	0x1417
 6797 1f1e 381F0000 		.4byte	0x1f38
 6798 1f22 27       		.uleb128 0x27
 6799 1f23 01       		.uleb128 0x1
 6800 1f24 53       		.byte	0x53
 6801 1f25 03       		.uleb128 0x3
 6802 1f26 91       		.byte	0x91
 6803 1f27 BC7F     		.sleb128 -68
 6804 1f29 27       		.uleb128 0x27
 6805 1f2a 01       		.uleb128 0x1
 6806 1f2b 52       		.byte	0x52
 6807 1f2c 03       		.uleb128 0x3
 6808 1f2d 91       		.byte	0x91
 6809 1f2e B47F     		.sleb128 -76
 6810 1f30 27       		.uleb128 0x27
 6811 1f31 01       		.uleb128 0x1
 6812 1f32 51       		.byte	0x51
 6813 1f33 03       		.uleb128 0x3
 6814 1f34 91       		.byte	0x91
 6815 1f35 B87F     		.sleb128 -72
 6816 1f37 00       		.byte	0
 6817 1f38 26       		.uleb128 0x26
 6818 1f39 28050000 		.4byte	.LVL203
 6819 1f3d 17140000 		.4byte	0x1417
 6820 1f41 611F0000 		.4byte	0x1f61
 6821 1f45 27       		.uleb128 0x27
 6822 1f46 01       		.uleb128 0x1
 6823 1f47 53       		.byte	0x53
 6824 1f48 03       		.uleb128 0x3
 6825 1f49 91       		.byte	0x91
 6826 1f4a BC7F     		.sleb128 -68
 6827 1f4c 27       		.uleb128 0x27
ARM GAS  C:\Users\AHMED~1.ELE\AppData\Local\Temp\ccbrMpYT.s 			page 176


 6828 1f4d 01       		.uleb128 0x1
 6829 1f4e 52       		.byte	0x52
 6830 1f4f 03       		.uleb128 0x3
 6831 1f50 91       		.byte	0x91
 6832 1f51 B47F     		.sleb128 -76
 6833 1f53 27       		.uleb128 0x27
 6834 1f54 01       		.uleb128 0x1
 6835 1f55 51       		.byte	0x51
 6836 1f56 03       		.uleb128 0x3
 6837 1f57 91       		.byte	0x91
 6838 1f58 B87F     		.sleb128 -72
 6839 1f5a 27       		.uleb128 0x27
 6840 1f5b 01       		.uleb128 0x1
 6841 1f5c 50       		.byte	0x50
 6842 1f5d 02       		.uleb128 0x2
 6843 1f5e 78       		.byte	0x78
 6844 1f5f 00       		.sleb128 0
 6845 1f60 00       		.byte	0
 6846 1f61 26       		.uleb128 0x26
 6847 1f62 40050000 		.4byte	.LVL206
 6848 1f66 76130000 		.4byte	0x1376
 6849 1f6a 7B1F0000 		.4byte	0x1f7b
 6850 1f6e 27       		.uleb128 0x27
 6851 1f6f 01       		.uleb128 0x1
 6852 1f70 51       		.byte	0x51
 6853 1f71 02       		.uleb128 0x2
 6854 1f72 91       		.byte	0x91
 6855 1f73 40       		.sleb128 -64
 6856 1f74 27       		.uleb128 0x27
 6857 1f75 01       		.uleb128 0x1
 6858 1f76 50       		.byte	0x50
 6859 1f77 02       		.uleb128 0x2
 6860 1f78 76       		.byte	0x76
 6861 1f79 00       		.sleb128 0
 6862 1f7a 00       		.byte	0
 6863 1f7b 26       		.uleb128 0x26
 6864 1f7c 66050000 		.4byte	.LVL207
 6865 1f80 17140000 		.4byte	0x1417
 6866 1f84 9E1F0000 		.4byte	0x1f9e
 6867 1f88 27       		.uleb128 0x27
 6868 1f89 01       		.uleb128 0x1
 6869 1f8a 53       		.byte	0x53
 6870 1f8b 03       		.uleb128 0x3
 6871 1f8c 91       		.byte	0x91
 6872 1f8d BC7F     		.sleb128 -68
 6873 1f8f 27       		.uleb128 0x27
 6874 1f90 01       		.uleb128 0x1
 6875 1f91 52       		.byte	0x52
 6876 1f92 03       		.uleb128 0x3
 6877 1f93 91       		.byte	0x91
 6878 1f94 B47F     		.sleb128 -76
 6879 1f96 27       		.uleb128 0x27
 6880 1f97 01       		.uleb128 0x1
 6881 1f98 51       		.byte	0x51
 6882 1f99 03       		.uleb128 0x3
 6883 1f9a 91       		.byte	0x91
 6884 1f9b B87F     		.sleb128 -72
ARM GAS  C:\Users\AHMED~1.ELE\AppData\Local\Temp\ccbrMpYT.s 			page 177


 6885 1f9d 00       		.byte	0
 6886 1f9e 26       		.uleb128 0x26
 6887 1f9f 88050000 		.4byte	.LVL209
 6888 1fa3 2A150000 		.4byte	0x152a
 6889 1fa7 BE1F0000 		.4byte	0x1fbe
 6890 1fab 27       		.uleb128 0x27
 6891 1fac 01       		.uleb128 0x1
 6892 1fad 52       		.byte	0x52
 6893 1fae 02       		.uleb128 0x2
 6894 1faf 91       		.byte	0x91
 6895 1fb0 40       		.sleb128 -64
 6896 1fb1 27       		.uleb128 0x27
 6897 1fb2 01       		.uleb128 0x1
 6898 1fb3 51       		.byte	0x51
 6899 1fb4 02       		.uleb128 0x2
 6900 1fb5 76       		.byte	0x76
 6901 1fb6 00       		.sleb128 0
 6902 1fb7 27       		.uleb128 0x27
 6903 1fb8 01       		.uleb128 0x1
 6904 1fb9 50       		.byte	0x50
 6905 1fba 02       		.uleb128 0x2
 6906 1fbb 74       		.byte	0x74
 6907 1fbc 00       		.sleb128 0
 6908 1fbd 00       		.byte	0
 6909 1fbe 26       		.uleb128 0x26
 6910 1fbf 9E050000 		.4byte	.LVL212
 6911 1fc3 17140000 		.4byte	0x1417
 6912 1fc7 E71F0000 		.4byte	0x1fe7
 6913 1fcb 27       		.uleb128 0x27
 6914 1fcc 01       		.uleb128 0x1
 6915 1fcd 53       		.byte	0x53
 6916 1fce 03       		.uleb128 0x3
 6917 1fcf 91       		.byte	0x91
 6918 1fd0 BC7F     		.sleb128 -68
 6919 1fd2 27       		.uleb128 0x27
 6920 1fd3 01       		.uleb128 0x1
 6921 1fd4 52       		.byte	0x52
 6922 1fd5 03       		.uleb128 0x3
 6923 1fd6 91       		.byte	0x91
 6924 1fd7 B47F     		.sleb128 -76
 6925 1fd9 27       		.uleb128 0x27
 6926 1fda 01       		.uleb128 0x1
 6927 1fdb 51       		.byte	0x51
 6928 1fdc 03       		.uleb128 0x3
 6929 1fdd 91       		.byte	0x91
 6930 1fde B87F     		.sleb128 -72
 6931 1fe0 27       		.uleb128 0x27
 6932 1fe1 01       		.uleb128 0x1
 6933 1fe2 50       		.byte	0x50
 6934 1fe3 02       		.uleb128 0x2
 6935 1fe4 7B       		.byte	0x7b
 6936 1fe5 00       		.sleb128 0
 6937 1fe6 00       		.byte	0
 6938 1fe7 26       		.uleb128 0x26
 6939 1fe8 AC050000 		.4byte	.LVL213
 6940 1fec 76130000 		.4byte	0x1376
 6941 1ff0 01200000 		.4byte	0x2001
ARM GAS  C:\Users\AHMED~1.ELE\AppData\Local\Temp\ccbrMpYT.s 			page 178


 6942 1ff4 27       		.uleb128 0x27
 6943 1ff5 01       		.uleb128 0x1
 6944 1ff6 51       		.byte	0x51
 6945 1ff7 02       		.uleb128 0x2
 6946 1ff8 91       		.byte	0x91
 6947 1ff9 40       		.sleb128 -64
 6948 1ffa 27       		.uleb128 0x27
 6949 1ffb 01       		.uleb128 0x1
 6950 1ffc 50       		.byte	0x50
 6951 1ffd 02       		.uleb128 0x2
 6952 1ffe 76       		.byte	0x76
 6953 1fff 00       		.sleb128 0
 6954 2000 00       		.byte	0
 6955 2001 26       		.uleb128 0x26
 6956 2002 F0050000 		.4byte	.LVL217
 6957 2006 31240000 		.4byte	0x2431
 6958 200a 15200000 		.4byte	0x2015
 6959 200e 27       		.uleb128 0x27
 6960 200f 01       		.uleb128 0x1
 6961 2010 50       		.byte	0x50
 6962 2011 02       		.uleb128 0x2
 6963 2012 78       		.byte	0x78
 6964 2013 01       		.sleb128 1
 6965 2014 00       		.byte	0
 6966 2015 26       		.uleb128 0x26
 6967 2016 0A060000 		.4byte	.LVL218
 6968 201a 76130000 		.4byte	0x1376
 6969 201e 2F200000 		.4byte	0x202f
 6970 2022 27       		.uleb128 0x27
 6971 2023 01       		.uleb128 0x1
 6972 2024 51       		.byte	0x51
 6973 2025 02       		.uleb128 0x2
 6974 2026 91       		.byte	0x91
 6975 2027 40       		.sleb128 -64
 6976 2028 27       		.uleb128 0x27
 6977 2029 01       		.uleb128 0x1
 6978 202a 50       		.byte	0x50
 6979 202b 02       		.uleb128 0x2
 6980 202c 76       		.byte	0x76
 6981 202d 00       		.sleb128 0
 6982 202e 00       		.byte	0
 6983 202f 34       		.uleb128 0x34
 6984 2030 20060000 		.4byte	.LVL222
 6985 2034 4B200000 		.4byte	0x204b
 6986 2038 27       		.uleb128 0x27
 6987 2039 01       		.uleb128 0x1
 6988 203a 52       		.byte	0x52
 6989 203b 03       		.uleb128 0x3
 6990 203c 91       		.byte	0x91
 6991 203d 00       		.sleb128 0
 6992 203e 06       		.byte	0x6
 6993 203f 27       		.uleb128 0x27
 6994 2040 01       		.uleb128 0x1
 6995 2041 51       		.byte	0x51
 6996 2042 01       		.uleb128 0x1
 6997 2043 34       		.byte	0x34
 6998 2044 27       		.uleb128 0x27
ARM GAS  C:\Users\AHMED~1.ELE\AppData\Local\Temp\ccbrMpYT.s 			page 179


 6999 2045 01       		.uleb128 0x1
 7000 2046 50       		.byte	0x50
 7001 2047 02       		.uleb128 0x2
 7002 2048 74       		.byte	0x74
 7003 2049 00       		.sleb128 0
 7004 204a 00       		.byte	0
 7005 204b 26       		.uleb128 0x26
 7006 204c 26060000 		.4byte	.LVL223
 7007 2050 65240000 		.4byte	0x2465
 7008 2054 5F200000 		.4byte	0x205f
 7009 2058 27       		.uleb128 0x27
 7010 2059 01       		.uleb128 0x1
 7011 205a 50       		.byte	0x50
 7012 205b 02       		.uleb128 0x2
 7013 205c 74       		.byte	0x74
 7014 205d 00       		.sleb128 0
 7015 205e 00       		.byte	0
 7016 205f 26       		.uleb128 0x26
 7017 2060 52060000 		.4byte	.LVL226
 7018 2064 4B240000 		.4byte	0x244b
 7019 2068 79200000 		.4byte	0x2079
 7020 206c 27       		.uleb128 0x27
 7021 206d 01       		.uleb128 0x1
 7022 206e 51       		.byte	0x51
 7023 206f 02       		.uleb128 0x2
 7024 2070 78       		.byte	0x78
 7025 2071 00       		.sleb128 0
 7026 2072 27       		.uleb128 0x27
 7027 2073 01       		.uleb128 0x1
 7028 2074 50       		.byte	0x50
 7029 2075 02       		.uleb128 0x2
 7030 2076 74       		.byte	0x74
 7031 2077 00       		.sleb128 0
 7032 2078 00       		.byte	0
 7033 2079 24       		.uleb128 0x24
 7034 207a 64060000 		.4byte	.LVL228
 7035 207e 73230000 		.4byte	0x2373
 7036 2082 26       		.uleb128 0x26
 7037 2083 6C060000 		.4byte	.LVL231
 7038 2087 39110000 		.4byte	0x1139
 7039 208b 96200000 		.4byte	0x2096
 7040 208f 27       		.uleb128 0x27
 7041 2090 01       		.uleb128 0x1
 7042 2091 50       		.byte	0x50
 7043 2092 02       		.uleb128 0x2
 7044 2093 7B       		.byte	0x7b
 7045 2094 00       		.sleb128 0
 7046 2095 00       		.byte	0
 7047 2096 26       		.uleb128 0x26
 7048 2097 F4080000 		.4byte	.LVL313
 7049 209b 76130000 		.4byte	0x1376
 7050 209f B0200000 		.4byte	0x20b0
 7051 20a3 27       		.uleb128 0x27
 7052 20a4 01       		.uleb128 0x1
 7053 20a5 51       		.byte	0x51
 7054 20a6 02       		.uleb128 0x2
 7055 20a7 91       		.byte	0x91
ARM GAS  C:\Users\AHMED~1.ELE\AppData\Local\Temp\ccbrMpYT.s 			page 180


 7056 20a8 40       		.sleb128 -64
 7057 20a9 27       		.uleb128 0x27
 7058 20aa 01       		.uleb128 0x1
 7059 20ab 50       		.byte	0x50
 7060 20ac 02       		.uleb128 0x2
 7061 20ad 76       		.byte	0x76
 7062 20ae 00       		.sleb128 0
 7063 20af 00       		.byte	0
 7064 20b0 26       		.uleb128 0x26
 7065 20b1 04090000 		.4byte	.LVL316
 7066 20b5 73230000 		.4byte	0x2373
 7067 20b9 C7200000 		.4byte	0x20c7
 7068 20bd 27       		.uleb128 0x27
 7069 20be 01       		.uleb128 0x1
 7070 20bf 50       		.byte	0x50
 7071 20c0 05       		.uleb128 0x5
 7072 20c1 03       		.byte	0x3
 7073 20c2 54040000 		.4byte	.LC32
 7074 20c6 00       		.byte	0
 7075 20c7 26       		.uleb128 0x26
 7076 20c8 0A090000 		.4byte	.LVL317
 7077 20cc 22250000 		.4byte	0x2522
 7078 20d0 DB200000 		.4byte	0x20db
 7079 20d4 27       		.uleb128 0x27
 7080 20d5 01       		.uleb128 0x1
 7081 20d6 50       		.byte	0x50
 7082 20d7 02       		.uleb128 0x2
 7083 20d8 78       		.byte	0x78
 7084 20d9 00       		.sleb128 0
 7085 20da 00       		.byte	0
 7086 20db 34       		.uleb128 0x34
 7087 20dc 3E090000 		.4byte	.LVL321
 7088 20e0 EB200000 		.4byte	0x20eb
 7089 20e4 27       		.uleb128 0x27
 7090 20e5 01       		.uleb128 0x1
 7091 20e6 50       		.byte	0x50
 7092 20e7 02       		.uleb128 0x2
 7093 20e8 78       		.byte	0x78
 7094 20e9 00       		.sleb128 0
 7095 20ea 00       		.byte	0
 7096 20eb 34       		.uleb128 0x34
 7097 20ec 52090000 		.4byte	.LVL324
 7098 20f0 07210000 		.4byte	0x2107
 7099 20f4 27       		.uleb128 0x27
 7100 20f5 01       		.uleb128 0x1
 7101 20f6 52       		.byte	0x52
 7102 20f7 03       		.uleb128 0x3
 7103 20f8 91       		.byte	0x91
 7104 20f9 00       		.sleb128 0
 7105 20fa 06       		.byte	0x6
 7106 20fb 27       		.uleb128 0x27
 7107 20fc 01       		.uleb128 0x1
 7108 20fd 51       		.byte	0x51
 7109 20fe 01       		.uleb128 0x1
 7110 20ff 34       		.byte	0x34
 7111 2100 27       		.uleb128 0x27
 7112 2101 01       		.uleb128 0x1
ARM GAS  C:\Users\AHMED~1.ELE\AppData\Local\Temp\ccbrMpYT.s 			page 181


 7113 2102 50       		.byte	0x50
 7114 2103 02       		.uleb128 0x2
 7115 2104 78       		.byte	0x78
 7116 2105 00       		.sleb128 0
 7117 2106 00       		.byte	0
 7118 2107 26       		.uleb128 0x26
 7119 2108 58090000 		.4byte	.LVL325
 7120 210c 65240000 		.4byte	0x2465
 7121 2110 1B210000 		.4byte	0x211b
 7122 2114 27       		.uleb128 0x27
 7123 2115 01       		.uleb128 0x1
 7124 2116 50       		.byte	0x50
 7125 2117 02       		.uleb128 0x2
 7126 2118 78       		.byte	0x78
 7127 2119 00       		.sleb128 0
 7128 211a 00       		.byte	0
 7129 211b 26       		.uleb128 0x26
 7130 211c 7E090000 		.4byte	.LVL331
 7131 2120 73230000 		.4byte	0x2373
 7132 2124 32210000 		.4byte	0x2132
 7133 2128 27       		.uleb128 0x27
 7134 2129 01       		.uleb128 0x1
 7135 212a 50       		.byte	0x50
 7136 212b 05       		.uleb128 0x5
 7137 212c 03       		.byte	0x3
 7138 212d 77020000 		.4byte	.LC20
 7139 2131 00       		.byte	0
 7140 2132 24       		.uleb128 0x24
 7141 2133 86090000 		.4byte	.LVL334
 7142 2137 73230000 		.4byte	0x2373
 7143 213b 26       		.uleb128 0x26
 7144 213c 90090000 		.4byte	.LVL336
 7145 2140 4B240000 		.4byte	0x244b
 7146 2144 4F210000 		.4byte	0x214f
 7147 2148 27       		.uleb128 0x27
 7148 2149 01       		.uleb128 0x1
 7149 214a 50       		.byte	0x50
 7150 214b 02       		.uleb128 0x2
 7151 214c 74       		.byte	0x74
 7152 214d 00       		.sleb128 0
 7153 214e 00       		.byte	0
 7154 214f 26       		.uleb128 0x26
 7155 2150 D2090000 		.4byte	.LVL349
 7156 2154 4B240000 		.4byte	0x244b
 7157 2158 63210000 		.4byte	0x2163
 7158 215c 27       		.uleb128 0x27
 7159 215d 01       		.uleb128 0x1
 7160 215e 50       		.byte	0x50
 7161 215f 02       		.uleb128 0x2
 7162 2160 74       		.byte	0x74
 7163 2161 00       		.sleb128 0
 7164 2162 00       		.byte	0
 7165 2163 26       		.uleb128 0x26
 7166 2164 F8090000 		.4byte	.LVL352
 7167 2168 4B240000 		.4byte	0x244b
 7168 216c 77210000 		.4byte	0x2177
 7169 2170 27       		.uleb128 0x27
ARM GAS  C:\Users\AHMED~1.ELE\AppData\Local\Temp\ccbrMpYT.s 			page 182


 7170 2171 01       		.uleb128 0x1
 7171 2172 50       		.byte	0x50
 7172 2173 02       		.uleb128 0x2
 7173 2174 74       		.byte	0x74
 7174 2175 00       		.sleb128 0
 7175 2176 00       		.byte	0
 7176 2177 34       		.uleb128 0x34
 7177 2178 080A0000 		.4byte	.LVL354
 7178 217c 8D210000 		.4byte	0x218d
 7179 2180 27       		.uleb128 0x27
 7180 2181 01       		.uleb128 0x1
 7181 2182 52       		.byte	0x52
 7182 2183 03       		.uleb128 0x3
 7183 2184 91       		.byte	0x91
 7184 2185 00       		.sleb128 0
 7185 2186 06       		.byte	0x6
 7186 2187 27       		.uleb128 0x27
 7187 2188 01       		.uleb128 0x1
 7188 2189 51       		.byte	0x51
 7189 218a 01       		.uleb128 0x1
 7190 218b 33       		.byte	0x33
 7191 218c 00       		.byte	0
 7192 218d 28       		.uleb128 0x28
 7193 218e 0E0A0000 		.4byte	.LVL355
 7194 2192 65240000 		.4byte	0x2465
 7195 2196 27       		.uleb128 0x27
 7196 2197 01       		.uleb128 0x1
 7197 2198 50       		.byte	0x50
 7198 2199 02       		.uleb128 0x2
 7199 219a 78       		.byte	0x78
 7200 219b 00       		.sleb128 0
 7201 219c 00       		.byte	0
 7202 219d 00       		.byte	0
 7203 219e 35       		.uleb128 0x35
 7204 219f CB080000 		.4byte	.LASF580
 7205 21a3 01       		.byte	0x1
 7206 21a4 C1       		.byte	0xc1
 7207 21a5 F40F0000 		.4byte	0xff4
 7208 21a9 00000000 		.4byte	.LFB2
 7209 21ad 16000000 		.4byte	.LFE2-.LFB2
 7210 21b1 01       		.uleb128 0x1
 7211 21b2 9C       		.byte	0x9c
 7212 21b3 0B220000 		.4byte	0x220b
 7213 21b7 36       		.uleb128 0x36
 7214 21b8 746F7000 		.ascii	"top\000"
 7215 21bc 01       		.byte	0x1
 7216 21bd C1       		.byte	0xc1
 7217 21be F40F0000 		.4byte	0xff4
 7218 21c2 970F0000 		.4byte	.LLST36
 7219 21c6 36       		.uleb128 0x36
 7220 21c7 7300     		.ascii	"s\000"
 7221 21c9 01       		.byte	0x1
 7222 21ca C2       		.byte	0xc2
 7223 21cb 8C000000 		.4byte	0x8c
 7224 21cf B80F0000 		.4byte	.LLST37
 7225 21d3 36       		.uleb128 0x36
 7226 21d4 636200   		.ascii	"cb\000"
ARM GAS  C:\Users\AHMED~1.ELE\AppData\Local\Temp\ccbrMpYT.s 			page 183


 7227 21d7 01       		.byte	0x1
 7228 21d8 C3       		.byte	0xc3
 7229 21d9 54100000 		.4byte	0x1054
 7230 21dd E30F0000 		.4byte	.LLST38
 7231 21e1 28       		.uleb128 0x28
 7232 21e2 12000000 		.4byte	.LVL368
 7233 21e6 F4150000 		.4byte	0x15f4
 7234 21ea 27       		.uleb128 0x27
 7235 21eb 01       		.uleb128 0x1
 7236 21ec 53       		.byte	0x53
 7237 21ed 01       		.uleb128 0x1
 7238 21ee 30       		.byte	0x30
 7239 21ef 27       		.uleb128 0x27
 7240 21f0 01       		.uleb128 0x1
 7241 21f1 52       		.byte	0x52
 7242 21f2 03       		.uleb128 0x3
 7243 21f3 F3       		.byte	0xf3
 7244 21f4 01       		.uleb128 0x1
 7245 21f5 52       		.byte	0x52
 7246 21f6 27       		.uleb128 0x27
 7247 21f7 01       		.uleb128 0x1
 7248 21f8 51       		.byte	0x51
 7249 21f9 02       		.uleb128 0x2
 7250 21fa 74       		.byte	0x74
 7251 21fb 00       		.sleb128 0
 7252 21fc 27       		.uleb128 0x27
 7253 21fd 01       		.uleb128 0x1
 7254 21fe 50       		.byte	0x50
 7255 21ff 03       		.uleb128 0x3
 7256 2200 F3       		.byte	0xf3
 7257 2201 01       		.uleb128 0x1
 7258 2202 50       		.byte	0x50
 7259 2203 27       		.uleb128 0x27
 7260 2204 02       		.uleb128 0x2
 7261 2205 7D       		.byte	0x7d
 7262 2206 00       		.sleb128 0
 7263 2207 01       		.uleb128 0x1
 7264 2208 30       		.byte	0x30
 7265 2209 00       		.byte	0
 7266 220a 00       		.byte	0
 7267 220b 37       		.uleb128 0x37
 7268 220c 85060000 		.4byte	.LASF581
 7269 2210 01       		.byte	0x1
 7270 2211 0902     		.2byte	0x209
 7271 2213 F40F0000 		.4byte	0xff4
 7272 2217 00000000 		.4byte	.LFB3
 7273 221b 16000000 		.4byte	.LFE3-.LFB3
 7274 221f 01       		.uleb128 0x1
 7275 2220 9C       		.byte	0x9c
 7276 2221 9F220000 		.4byte	0x229f
 7277 2225 20       		.uleb128 0x20
 7278 2226 746F7000 		.ascii	"top\000"
 7279 222a 01       		.byte	0x1
 7280 222b 0A02     		.2byte	0x20a
 7281 222d F40F0000 		.4byte	0xff4
 7282 2231 04100000 		.4byte	.LLST39
 7283 2235 20       		.uleb128 0x20
ARM GAS  C:\Users\AHMED~1.ELE\AppData\Local\Temp\ccbrMpYT.s 			page 184


 7284 2236 7300     		.ascii	"s\000"
 7285 2238 01       		.byte	0x1
 7286 2239 0B02     		.2byte	0x20b
 7287 223b 8C000000 		.4byte	0x8c
 7288 223f 25100000 		.4byte	.LLST40
 7289 2243 20       		.uleb128 0x20
 7290 2244 636200   		.ascii	"cb\000"
 7291 2247 01       		.byte	0x1
 7292 2248 0C02     		.2byte	0x20c
 7293 224a 54100000 		.4byte	0x1054
 7294 224e 44100000 		.4byte	.LLST41
 7295 2252 21       		.uleb128 0x21
 7296 2253 A2060000 		.4byte	.LASF567
 7297 2257 01       		.byte	0x1
 7298 2258 0D02     		.2byte	0x20d
 7299 225a 74100000 		.4byte	0x1074
 7300 225e 65100000 		.4byte	.LLST42
 7301 2262 38       		.uleb128 0x38
 7302 2263 C2080000 		.4byte	.LASF568
 7303 2267 01       		.byte	0x1
 7304 2268 0E02     		.2byte	0x20e
 7305 226a 7D000000 		.4byte	0x7d
 7306 226e 02       		.uleb128 0x2
 7307 226f 91       		.byte	0x91
 7308 2270 00       		.sleb128 0
 7309 2271 28       		.uleb128 0x28
 7310 2272 12000000 		.4byte	.LVL371
 7311 2276 F4150000 		.4byte	0x15f4
 7312 227a 27       		.uleb128 0x27
 7313 227b 01       		.uleb128 0x1
 7314 227c 53       		.byte	0x53
 7315 227d 03       		.uleb128 0x3
 7316 227e F3       		.byte	0xf3
 7317 227f 01       		.uleb128 0x1
 7318 2280 53       		.byte	0x53
 7319 2281 27       		.uleb128 0x27
 7320 2282 01       		.uleb128 0x1
 7321 2283 52       		.byte	0x52
 7322 2284 03       		.uleb128 0x3
 7323 2285 F3       		.byte	0xf3
 7324 2286 01       		.uleb128 0x1
 7325 2287 52       		.byte	0x52
 7326 2288 27       		.uleb128 0x27
 7327 2289 01       		.uleb128 0x1
 7328 228a 51       		.byte	0x51
 7329 228b 02       		.uleb128 0x2
 7330 228c 74       		.byte	0x74
 7331 228d 00       		.sleb128 0
 7332 228e 27       		.uleb128 0x27
 7333 228f 01       		.uleb128 0x1
 7334 2290 50       		.byte	0x50
 7335 2291 03       		.uleb128 0x3
 7336 2292 F3       		.byte	0xf3
 7337 2293 01       		.uleb128 0x1
 7338 2294 50       		.byte	0x50
 7339 2295 27       		.uleb128 0x27
 7340 2296 02       		.uleb128 0x2
ARM GAS  C:\Users\AHMED~1.ELE\AppData\Local\Temp\ccbrMpYT.s 			page 185


 7341 2297 7D       		.byte	0x7d
 7342 2298 00       		.sleb128 0
 7343 2299 03       		.uleb128 0x3
 7344 229a 91       		.byte	0x91
 7345 229b 00       		.sleb128 0
 7346 229c 06       		.byte	0x6
 7347 229d 00       		.byte	0
 7348 229e 00       		.byte	0
 7349 229f 39       		.uleb128 0x39
 7350 22a0 E3100000 		.4byte	.LASF584
 7351 22a4 01       		.byte	0x1
 7352 22a5 2402     		.2byte	0x224
 7353 22a7 00000000 		.4byte	.LFB4
 7354 22ab 14000000 		.4byte	.LFE4-.LFB4
 7355 22af 01       		.uleb128 0x1
 7356 22b0 9C       		.byte	0x9c
 7357 22b1 ED220000 		.4byte	0x22ed
 7358 22b5 21       		.uleb128 0x21
 7359 22b6 3F090000 		.4byte	.LASF582
 7360 22ba 01       		.byte	0x1
 7361 22bb 2502     		.2byte	0x225
 7362 22bd FA0F0000 		.4byte	0xffa
 7363 22c1 86100000 		.4byte	.LLST43
 7364 22c5 21       		.uleb128 0x21
 7365 22c6 98270000 		.4byte	.LASF583
 7366 22ca 01       		.byte	0x1
 7367 22cb 2602     		.2byte	0x226
 7368 22cd 1F100000 		.4byte	0x101f
 7369 22d1 A4100000 		.4byte	.LLST44
 7370 22d5 3A       		.uleb128 0x3a
 7371 22d6 E7200000 		.4byte	.LASF573
 7372 22da 01       		.byte	0x1
 7373 22db 2802     		.2byte	0x228
 7374 22dd 5B130000 		.4byte	0x135b
 7375 22e1 01       		.uleb128 0x1
 7376 22e2 50       		.byte	0x50
 7377 22e3 24       		.uleb128 0x24
 7378 22e4 0A000000 		.4byte	.LVL373
 7379 22e8 26240000 		.4byte	0x2426
 7380 22ec 00       		.byte	0
 7381 22ed 39       		.uleb128 0x39
 7382 22ee 4B090000 		.4byte	.LASF585
 7383 22f2 01       		.byte	0x1
 7384 22f3 3602     		.2byte	0x236
 7385 22f5 00000000 		.4byte	.LFB5
 7386 22f9 0C000000 		.4byte	.LFE5-.LFB5
 7387 22fd 01       		.uleb128 0x1
 7388 22fe 9C       		.byte	0x9c
 7389 22ff 2A230000 		.4byte	0x232a
 7390 2303 20       		.uleb128 0x20
 7391 2304 636200   		.ascii	"cb\000"
 7392 2307 01       		.byte	0x1
 7393 2308 3602     		.2byte	0x236
 7394 230a 1B0E0000 		.4byte	0xe1b
 7395 230e C2100000 		.4byte	.LLST45
 7396 2312 3A       		.uleb128 0x3a
 7397 2313 E7200000 		.4byte	.LASF573
ARM GAS  C:\Users\AHMED~1.ELE\AppData\Local\Temp\ccbrMpYT.s 			page 186


 7398 2317 01       		.byte	0x1
 7399 2318 3802     		.2byte	0x238
 7400 231a 5B130000 		.4byte	0x135b
 7401 231e 01       		.uleb128 0x1
 7402 231f 50       		.byte	0x50
 7403 2320 24       		.uleb128 0x24
 7404 2321 08000000 		.4byte	.LVL375
 7405 2325 26240000 		.4byte	0x2426
 7406 2329 00       		.byte	0
 7407 232a 39       		.uleb128 0x39
 7408 232b 45210000 		.4byte	.LASF586
 7409 232f 01       		.byte	0x1
 7410 2330 4902     		.2byte	0x249
 7411 2332 00000000 		.4byte	.LFB6
 7412 2336 0E000000 		.4byte	.LFE6-.LFB6
 7413 233a 01       		.uleb128 0x1
 7414 233b 9C       		.byte	0x9c
 7415 233c 68230000 		.4byte	0x2368
 7416 2340 21       		.uleb128 0x21
 7417 2341 44090000 		.4byte	.LASF587
 7418 2345 01       		.byte	0x1
 7419 2346 4902     		.2byte	0x249
 7420 2348 5D000000 		.4byte	0x5d
 7421 234c E0100000 		.4byte	.LLST46
 7422 2350 3A       		.uleb128 0x3a
 7423 2351 E7200000 		.4byte	.LASF573
 7424 2355 01       		.byte	0x1
 7425 2356 4B02     		.2byte	0x24b
 7426 2358 5B130000 		.4byte	0x135b
 7427 235c 01       		.uleb128 0x1
 7428 235d 50       		.byte	0x50
 7429 235e 24       		.uleb128 0x24
 7430 235f 08000000 		.4byte	.LVL377
 7431 2363 26240000 		.4byte	0x2426
 7432 2367 00       		.byte	0
 7433 2368 3B       		.uleb128 0x3b
 7434 2369 821B0000 		.4byte	.LASF610
 7435 236d 09       		.byte	0x9
 7436 236e 2D       		.byte	0x2d
 7437 236f 8C000000 		.4byte	0x8c
 7438 2373 3C       		.uleb128 0x3c
 7439 2374 301B0000 		.4byte	.LASF588
 7440 2378 05       		.byte	0x5
 7441 2379 3B01     		.2byte	0x13b
 7442 237b 86230000 		.4byte	0x2386
 7443 237f 0F       		.uleb128 0xf
 7444 2380 8C000000 		.4byte	0x8c
 7445 2384 3D       		.uleb128 0x3d
 7446 2385 00       		.byte	0
 7447 2386 3E       		.uleb128 0x3e
 7448 2387 AF170000 		.4byte	.LASF590
 7449 238b 04       		.byte	0x4
 7450 238c A2       		.byte	0xa2
 7451 238d A9000000 		.4byte	0xa9
 7452 2391 A0230000 		.4byte	0x23a0
 7453 2395 0F       		.uleb128 0xf
 7454 2396 A9000000 		.4byte	0xa9
ARM GAS  C:\Users\AHMED~1.ELE\AppData\Local\Temp\ccbrMpYT.s 			page 187


 7455 239a 0F       		.uleb128 0xf
 7456 239b A9000000 		.4byte	0xa9
 7457 239f 00       		.byte	0
 7458 23a0 3F       		.uleb128 0x3f
 7459 23a1 54250000 		.4byte	.LASF589
 7460 23a5 7D000000 		.4byte	0x7d
 7461 23a9 BD230000 		.4byte	0x23bd
 7462 23ad 0F       		.uleb128 0xf
 7463 23ae 7D000000 		.4byte	0x7d
 7464 23b2 0F       		.uleb128 0xf
 7465 23b3 97000000 		.4byte	0x97
 7466 23b7 0F       		.uleb128 0xf
 7467 23b8 76000000 		.4byte	0x76
 7468 23bc 00       		.byte	0
 7469 23bd 3E       		.uleb128 0x3e
 7470 23be 3F220000 		.4byte	.LASF591
 7471 23c2 07       		.byte	0x7
 7472 23c3 90       		.byte	0x90
 7473 23c4 41000000 		.4byte	0x41
 7474 23c8 DC230000 		.4byte	0x23dc
 7475 23cc 0F       		.uleb128 0xf
 7476 23cd 8C000000 		.4byte	0x8c
 7477 23d1 0F       		.uleb128 0xf
 7478 23d2 F4140000 		.4byte	0x14f4
 7479 23d6 0F       		.uleb128 0xf
 7480 23d7 5D000000 		.4byte	0x5d
 7481 23db 00       		.byte	0
 7482 23dc 3E       		.uleb128 0x3e
 7483 23dd 52260000 		.4byte	.LASF592
 7484 23e1 05       		.byte	0x5
 7485 23e2 D5       		.byte	0xd5
 7486 23e3 5D000000 		.4byte	0x5d
 7487 23e7 F1230000 		.4byte	0x23f1
 7488 23eb 0F       		.uleb128 0xf
 7489 23ec 8C000000 		.4byte	0x8c
 7490 23f0 00       		.byte	0
 7491 23f1 3E       		.uleb128 0x3e
 7492 23f2 14200000 		.4byte	.LASF593
 7493 23f6 05       		.byte	0x5
 7494 23f7 CA       		.byte	0xca
 7495 23f8 8C000000 		.4byte	0x8c
 7496 23fc 0B240000 		.4byte	0x240b
 7497 2400 0F       		.uleb128 0xf
 7498 2401 F40F0000 		.4byte	0xff4
 7499 2405 0F       		.uleb128 0xf
 7500 2406 8C000000 		.4byte	0x8c
 7501 240a 00       		.byte	0
 7502 240b 40       		.uleb128 0x40
 7503 240c D31C0000 		.4byte	.LASF594
 7504 2410 05       		.byte	0x5
 7505 2411 CB       		.byte	0xcb
 7506 2412 26240000 		.4byte	0x2426
 7507 2416 0F       		.uleb128 0xf
 7508 2417 F40F0000 		.4byte	0xff4
 7509 241b 0F       		.uleb128 0xf
 7510 241c 8C000000 		.4byte	0x8c
 7511 2420 0F       		.uleb128 0xf
ARM GAS  C:\Users\AHMED~1.ELE\AppData\Local\Temp\ccbrMpYT.s 			page 188


 7512 2421 8C000000 		.4byte	0x8c
 7513 2425 00       		.byte	0
 7514 2426 41       		.uleb128 0x41
 7515 2427 35180000 		.4byte	.LASF611
 7516 242b 06       		.byte	0x6
 7517 242c 2C       		.byte	0x2c
 7518 242d 5B130000 		.4byte	0x135b
 7519 2431 3E       		.uleb128 0x3e
 7520 2432 3E0D0000 		.4byte	.LASF595
 7521 2436 08       		.byte	0x8
 7522 2437 1C       		.byte	0x1c
 7523 2438 5D000000 		.4byte	0x5d
 7524 243c 4B240000 		.4byte	0x244b
 7525 2440 0F       		.uleb128 0xf
 7526 2441 8C000000 		.4byte	0x8c
 7527 2445 0F       		.uleb128 0xf
 7528 2446 8C000000 		.4byte	0x8c
 7529 244a 00       		.byte	0
 7530 244b 3E       		.uleb128 0x3e
 7531 244c 91020000 		.4byte	.LASF596
 7532 2450 05       		.byte	0x5
 7533 2451 FC       		.byte	0xfc
 7534 2452 F40F0000 		.4byte	0xff4
 7535 2456 65240000 		.4byte	0x2465
 7536 245a 0F       		.uleb128 0xf
 7537 245b F40F0000 		.4byte	0xff4
 7538 245f 0F       		.uleb128 0xf
 7539 2460 8C000000 		.4byte	0x8c
 7540 2464 00       		.byte	0
 7541 2465 42       		.uleb128 0x42
 7542 2466 22130000 		.4byte	.LASF597
 7543 246a 05       		.byte	0x5
 7544 246b 0901     		.2byte	0x109
 7545 246d 5D000000 		.4byte	0x5d
 7546 2471 7B240000 		.4byte	0x247b
 7547 2475 0F       		.uleb128 0xf
 7548 2476 F40F0000 		.4byte	0xff4
 7549 247a 00       		.byte	0
 7550 247b 3E       		.uleb128 0x3e
 7551 247c 73170000 		.4byte	.LASF598
 7552 2480 05       		.byte	0x5
 7553 2481 FD       		.byte	0xfd
 7554 2482 F40F0000 		.4byte	0xff4
 7555 2486 95240000 		.4byte	0x2495
 7556 248a 0F       		.uleb128 0xf
 7557 248b F40F0000 		.4byte	0xff4
 7558 248f 0F       		.uleb128 0xf
 7559 2490 5D000000 		.4byte	0x5d
 7560 2494 00       		.byte	0
 7561 2495 3E       		.uleb128 0x3e
 7562 2496 44140000 		.4byte	.LASF599
 7563 249a 05       		.byte	0x5
 7564 249b FE       		.byte	0xfe
 7565 249c F40F0000 		.4byte	0xff4
 7566 24a0 AF240000 		.4byte	0x24af
 7567 24a4 0F       		.uleb128 0xf
 7568 24a5 F40F0000 		.4byte	0xff4
ARM GAS  C:\Users\AHMED~1.ELE\AppData\Local\Temp\ccbrMpYT.s 			page 189


 7569 24a9 0F       		.uleb128 0xf
 7570 24aa 8C000000 		.4byte	0x8c
 7571 24ae 00       		.byte	0
 7572 24af 3E       		.uleb128 0x3e
 7573 24b0 28220000 		.4byte	.LASF600
 7574 24b4 07       		.byte	0x7
 7575 24b5 83       		.byte	0x83
 7576 24b6 580F0000 		.4byte	0xf58
 7577 24ba C9240000 		.4byte	0x24c9
 7578 24be 0F       		.uleb128 0xf
 7579 24bf 8C000000 		.4byte	0x8c
 7580 24c3 0F       		.uleb128 0xf
 7581 24c4 F4140000 		.4byte	0x14f4
 7582 24c8 00       		.byte	0
 7583 24c9 3E       		.uleb128 0x3e
 7584 24ca 4F070000 		.4byte	.LASF601
 7585 24ce 05       		.byte	0x5
 7586 24cf FF       		.byte	0xff
 7587 24d0 F40F0000 		.4byte	0xff4
 7588 24d4 E3240000 		.4byte	0x24e3
 7589 24d8 0F       		.uleb128 0xf
 7590 24d9 F40F0000 		.4byte	0xff4
 7591 24dd 0F       		.uleb128 0xf
 7592 24de 580F0000 		.4byte	0xf58
 7593 24e2 00       		.byte	0
 7594 24e3 42       		.uleb128 0x42
 7595 24e4 75270000 		.4byte	.LASF602
 7596 24e8 05       		.byte	0x5
 7597 24e9 0001     		.2byte	0x100
 7598 24eb F40F0000 		.4byte	0xff4
 7599 24ef 03250000 		.4byte	0x2503
 7600 24f3 0F       		.uleb128 0xf
 7601 24f4 F40F0000 		.4byte	0xff4
 7602 24f8 0F       		.uleb128 0xf
 7603 24f9 5D000000 		.4byte	0x5d
 7604 24fd 0F       		.uleb128 0xf
 7605 24fe 8C000000 		.4byte	0x8c
 7606 2502 00       		.byte	0
 7607 2503 3E       		.uleb128 0x3e
 7608 2504 66100000 		.4byte	.LASF603
 7609 2508 05       		.byte	0x5
 7610 2509 FA       		.byte	0xfa
 7611 250a F40F0000 		.4byte	0xff4
 7612 250e 22250000 		.4byte	0x2522
 7613 2512 0F       		.uleb128 0xf
 7614 2513 F40F0000 		.4byte	0xff4
 7615 2517 0F       		.uleb128 0xf
 7616 2518 7D000000 		.4byte	0x7d
 7617 251c 0F       		.uleb128 0xf
 7618 251d FF0D0000 		.4byte	0xdff
 7619 2521 00       		.byte	0
 7620 2522 40       		.uleb128 0x40
 7621 2523 AD260000 		.4byte	.LASF604
 7622 2527 05       		.byte	0x5
 7623 2528 C7       		.byte	0xc7
 7624 2529 33250000 		.4byte	0x2533
 7625 252d 0F       		.uleb128 0xf
ARM GAS  C:\Users\AHMED~1.ELE\AppData\Local\Temp\ccbrMpYT.s 			page 190


 7626 252e F40F0000 		.4byte	0xff4
 7627 2532 00       		.byte	0
 7628 2533 43       		.uleb128 0x43
 7629 2534 F71B0000 		.4byte	.LASF605
 7630 2538 08       		.byte	0x8
 7631 2539 23       		.byte	0x23
 7632 253a 5D000000 		.4byte	0x5d
 7633 253e 0F       		.uleb128 0xf
 7634 253f 8C000000 		.4byte	0x8c
 7635 2543 0F       		.uleb128 0xf
 7636 2544 8C000000 		.4byte	0x8c
 7637 2548 0F       		.uleb128 0xf
 7638 2549 6B000000 		.4byte	0x6b
 7639 254d 00       		.byte	0
 7640 254e 00       		.byte	0
 7641              		.section	.debug_abbrev,"",%progbits
 7642              	.Ldebug_abbrev0:
 7643 0000 01       		.uleb128 0x1
 7644 0001 11       		.uleb128 0x11
 7645 0002 01       		.byte	0x1
 7646 0003 25       		.uleb128 0x25
 7647 0004 0E       		.uleb128 0xe
 7648 0005 13       		.uleb128 0x13
 7649 0006 0B       		.uleb128 0xb
 7650 0007 03       		.uleb128 0x3
 7651 0008 0E       		.uleb128 0xe
 7652 0009 1B       		.uleb128 0x1b
 7653 000a 0E       		.uleb128 0xe
 7654 000b 55       		.uleb128 0x55
 7655 000c 17       		.uleb128 0x17
 7656 000d 11       		.uleb128 0x11
 7657 000e 01       		.uleb128 0x1
 7658 000f 10       		.uleb128 0x10
 7659 0010 17       		.uleb128 0x17
 7660 0011 00       		.byte	0
 7661 0012 00       		.byte	0
 7662 0013 02       		.uleb128 0x2
 7663 0014 24       		.uleb128 0x24
 7664 0015 00       		.byte	0
 7665 0016 0B       		.uleb128 0xb
 7666 0017 0B       		.uleb128 0xb
 7667 0018 3E       		.uleb128 0x3e
 7668 0019 0B       		.uleb128 0xb
 7669 001a 03       		.uleb128 0x3
 7670 001b 0E       		.uleb128 0xe
 7671 001c 00       		.byte	0
 7672 001d 00       		.byte	0
 7673 001e 03       		.uleb128 0x3
 7674 001f 24       		.uleb128 0x24
 7675 0020 00       		.byte	0
 7676 0021 0B       		.uleb128 0xb
 7677 0022 0B       		.uleb128 0xb
 7678 0023 3E       		.uleb128 0x3e
 7679 0024 0B       		.uleb128 0xb
 7680 0025 03       		.uleb128 0x3
 7681 0026 08       		.uleb128 0x8
 7682 0027 00       		.byte	0
ARM GAS  C:\Users\AHMED~1.ELE\AppData\Local\Temp\ccbrMpYT.s 			page 191


 7683 0028 00       		.byte	0
 7684 0029 04       		.uleb128 0x4
 7685 002a 16       		.uleb128 0x16
 7686 002b 00       		.byte	0
 7687 002c 03       		.uleb128 0x3
 7688 002d 0E       		.uleb128 0xe
 7689 002e 3A       		.uleb128 0x3a
 7690 002f 0B       		.uleb128 0xb
 7691 0030 3B       		.uleb128 0x3b
 7692 0031 0B       		.uleb128 0xb
 7693 0032 49       		.uleb128 0x49
 7694 0033 13       		.uleb128 0x13
 7695 0034 00       		.byte	0
 7696 0035 00       		.byte	0
 7697 0036 05       		.uleb128 0x5
 7698 0037 0F       		.uleb128 0xf
 7699 0038 00       		.byte	0
 7700 0039 0B       		.uleb128 0xb
 7701 003a 0B       		.uleb128 0xb
 7702 003b 00       		.byte	0
 7703 003c 00       		.byte	0
 7704 003d 06       		.uleb128 0x6
 7705 003e 0F       		.uleb128 0xf
 7706 003f 00       		.byte	0
 7707 0040 0B       		.uleb128 0xb
 7708 0041 0B       		.uleb128 0xb
 7709 0042 49       		.uleb128 0x49
 7710 0043 13       		.uleb128 0x13
 7711 0044 00       		.byte	0
 7712 0045 00       		.byte	0
 7713 0046 07       		.uleb128 0x7
 7714 0047 26       		.uleb128 0x26
 7715 0048 00       		.byte	0
 7716 0049 49       		.uleb128 0x49
 7717 004a 13       		.uleb128 0x13
 7718 004b 00       		.byte	0
 7719 004c 00       		.byte	0
 7720 004d 08       		.uleb128 0x8
 7721 004e 26       		.uleb128 0x26
 7722 004f 00       		.byte	0
 7723 0050 00       		.byte	0
 7724 0051 00       		.byte	0
 7725 0052 09       		.uleb128 0x9
 7726 0053 04       		.uleb128 0x4
 7727 0054 01       		.byte	0x1
 7728 0055 03       		.uleb128 0x3
 7729 0056 0E       		.uleb128 0xe
 7730 0057 0B       		.uleb128 0xb
 7731 0058 0B       		.uleb128 0xb
 7732 0059 3A       		.uleb128 0x3a
 7733 005a 0B       		.uleb128 0xb
 7734 005b 3B       		.uleb128 0x3b
 7735 005c 05       		.uleb128 0x5
 7736 005d 01       		.uleb128 0x1
 7737 005e 13       		.uleb128 0x13
 7738 005f 00       		.byte	0
 7739 0060 00       		.byte	0
ARM GAS  C:\Users\AHMED~1.ELE\AppData\Local\Temp\ccbrMpYT.s 			page 192


 7740 0061 0A       		.uleb128 0xa
 7741 0062 28       		.uleb128 0x28
 7742 0063 00       		.byte	0
 7743 0064 03       		.uleb128 0x3
 7744 0065 0E       		.uleb128 0xe
 7745 0066 1C       		.uleb128 0x1c
 7746 0067 0D       		.uleb128 0xd
 7747 0068 00       		.byte	0
 7748 0069 00       		.byte	0
 7749 006a 0B       		.uleb128 0xb
 7750 006b 01       		.uleb128 0x1
 7751 006c 01       		.byte	0x1
 7752 006d 49       		.uleb128 0x49
 7753 006e 13       		.uleb128 0x13
 7754 006f 01       		.uleb128 0x1
 7755 0070 13       		.uleb128 0x13
 7756 0071 00       		.byte	0
 7757 0072 00       		.byte	0
 7758 0073 0C       		.uleb128 0xc
 7759 0074 21       		.uleb128 0x21
 7760 0075 00       		.byte	0
 7761 0076 49       		.uleb128 0x49
 7762 0077 13       		.uleb128 0x13
 7763 0078 2F       		.uleb128 0x2f
 7764 0079 0B       		.uleb128 0xb
 7765 007a 00       		.byte	0
 7766 007b 00       		.byte	0
 7767 007c 0D       		.uleb128 0xd
 7768 007d 04       		.uleb128 0x4
 7769 007e 01       		.byte	0x1
 7770 007f 03       		.uleb128 0x3
 7771 0080 0E       		.uleb128 0xe
 7772 0081 0B       		.uleb128 0xb
 7773 0082 0B       		.uleb128 0xb
 7774 0083 3A       		.uleb128 0x3a
 7775 0084 0B       		.uleb128 0xb
 7776 0085 3B       		.uleb128 0x3b
 7777 0086 0B       		.uleb128 0xb
 7778 0087 01       		.uleb128 0x1
 7779 0088 13       		.uleb128 0x13
 7780 0089 00       		.byte	0
 7781 008a 00       		.byte	0
 7782 008b 0E       		.uleb128 0xe
 7783 008c 15       		.uleb128 0x15
 7784 008d 01       		.byte	0x1
 7785 008e 27       		.uleb128 0x27
 7786 008f 19       		.uleb128 0x19
 7787 0090 01       		.uleb128 0x1
 7788 0091 13       		.uleb128 0x13
 7789 0092 00       		.byte	0
 7790 0093 00       		.byte	0
 7791 0094 0F       		.uleb128 0xf
 7792 0095 05       		.uleb128 0x5
 7793 0096 00       		.byte	0
 7794 0097 49       		.uleb128 0x49
 7795 0098 13       		.uleb128 0x13
 7796 0099 00       		.byte	0
ARM GAS  C:\Users\AHMED~1.ELE\AppData\Local\Temp\ccbrMpYT.s 			page 193


 7797 009a 00       		.byte	0
 7798 009b 10       		.uleb128 0x10
 7799 009c 13       		.uleb128 0x13
 7800 009d 01       		.byte	0x1
 7801 009e 03       		.uleb128 0x3
 7802 009f 0E       		.uleb128 0xe
 7803 00a0 0B       		.uleb128 0xb
 7804 00a1 0B       		.uleb128 0xb
 7805 00a2 3A       		.uleb128 0x3a
 7806 00a3 0B       		.uleb128 0xb
 7807 00a4 3B       		.uleb128 0x3b
 7808 00a5 0B       		.uleb128 0xb
 7809 00a6 01       		.uleb128 0x1
 7810 00a7 13       		.uleb128 0x13
 7811 00a8 00       		.byte	0
 7812 00a9 00       		.byte	0
 7813 00aa 11       		.uleb128 0x11
 7814 00ab 0D       		.uleb128 0xd
 7815 00ac 00       		.byte	0
 7816 00ad 03       		.uleb128 0x3
 7817 00ae 0E       		.uleb128 0xe
 7818 00af 3A       		.uleb128 0x3a
 7819 00b0 0B       		.uleb128 0xb
 7820 00b1 3B       		.uleb128 0x3b
 7821 00b2 0B       		.uleb128 0xb
 7822 00b3 49       		.uleb128 0x49
 7823 00b4 13       		.uleb128 0x13
 7824 00b5 38       		.uleb128 0x38
 7825 00b6 0B       		.uleb128 0xb
 7826 00b7 00       		.byte	0
 7827 00b8 00       		.byte	0
 7828 00b9 12       		.uleb128 0x12
 7829 00ba 17       		.uleb128 0x17
 7830 00bb 01       		.byte	0x1
 7831 00bc 03       		.uleb128 0x3
 7832 00bd 0E       		.uleb128 0xe
 7833 00be 0B       		.uleb128 0xb
 7834 00bf 0B       		.uleb128 0xb
 7835 00c0 3A       		.uleb128 0x3a
 7836 00c1 0B       		.uleb128 0xb
 7837 00c2 3B       		.uleb128 0x3b
 7838 00c3 0B       		.uleb128 0xb
 7839 00c4 01       		.uleb128 0x1
 7840 00c5 13       		.uleb128 0x13
 7841 00c6 00       		.byte	0
 7842 00c7 00       		.byte	0
 7843 00c8 13       		.uleb128 0x13
 7844 00c9 0D       		.uleb128 0xd
 7845 00ca 00       		.byte	0
 7846 00cb 03       		.uleb128 0x3
 7847 00cc 0E       		.uleb128 0xe
 7848 00cd 3A       		.uleb128 0x3a
 7849 00ce 0B       		.uleb128 0xb
 7850 00cf 3B       		.uleb128 0x3b
 7851 00d0 0B       		.uleb128 0xb
 7852 00d1 49       		.uleb128 0x49
 7853 00d2 13       		.uleb128 0x13
ARM GAS  C:\Users\AHMED~1.ELE\AppData\Local\Temp\ccbrMpYT.s 			page 194


 7854 00d3 00       		.byte	0
 7855 00d4 00       		.byte	0
 7856 00d5 14       		.uleb128 0x14
 7857 00d6 15       		.uleb128 0x15
 7858 00d7 01       		.byte	0x1
 7859 00d8 27       		.uleb128 0x27
 7860 00d9 19       		.uleb128 0x19
 7861 00da 49       		.uleb128 0x49
 7862 00db 13       		.uleb128 0x13
 7863 00dc 01       		.uleb128 0x1
 7864 00dd 13       		.uleb128 0x13
 7865 00de 00       		.byte	0
 7866 00df 00       		.byte	0
 7867 00e0 15       		.uleb128 0x15
 7868 00e1 13       		.uleb128 0x13
 7869 00e2 01       		.byte	0x1
 7870 00e3 03       		.uleb128 0x3
 7871 00e4 0E       		.uleb128 0xe
 7872 00e5 0B       		.uleb128 0xb
 7873 00e6 05       		.uleb128 0x5
 7874 00e7 3A       		.uleb128 0x3a
 7875 00e8 0B       		.uleb128 0xb
 7876 00e9 3B       		.uleb128 0x3b
 7877 00ea 0B       		.uleb128 0xb
 7878 00eb 01       		.uleb128 0x1
 7879 00ec 13       		.uleb128 0x13
 7880 00ed 00       		.byte	0
 7881 00ee 00       		.byte	0
 7882 00ef 16       		.uleb128 0x16
 7883 00f0 0D       		.uleb128 0xd
 7884 00f1 00       		.byte	0
 7885 00f2 03       		.uleb128 0x3
 7886 00f3 0E       		.uleb128 0xe
 7887 00f4 3A       		.uleb128 0x3a
 7888 00f5 0B       		.uleb128 0xb
 7889 00f6 3B       		.uleb128 0x3b
 7890 00f7 0B       		.uleb128 0xb
 7891 00f8 49       		.uleb128 0x49
 7892 00f9 13       		.uleb128 0x13
 7893 00fa 38       		.uleb128 0x38
 7894 00fb 05       		.uleb128 0x5
 7895 00fc 00       		.byte	0
 7896 00fd 00       		.byte	0
 7897 00fe 17       		.uleb128 0x17
 7898 00ff 2E       		.uleb128 0x2e
 7899 0100 01       		.byte	0x1
 7900 0101 03       		.uleb128 0x3
 7901 0102 0E       		.uleb128 0xe
 7902 0103 3A       		.uleb128 0x3a
 7903 0104 0B       		.uleb128 0xb
 7904 0105 3B       		.uleb128 0x3b
 7905 0106 0B       		.uleb128 0xb
 7906 0107 27       		.uleb128 0x27
 7907 0108 19       		.uleb128 0x19
 7908 0109 49       		.uleb128 0x49
 7909 010a 13       		.uleb128 0x13
 7910 010b 20       		.uleb128 0x20
ARM GAS  C:\Users\AHMED~1.ELE\AppData\Local\Temp\ccbrMpYT.s 			page 195


 7911 010c 0B       		.uleb128 0xb
 7912 010d 01       		.uleb128 0x1
 7913 010e 13       		.uleb128 0x13
 7914 010f 00       		.byte	0
 7915 0110 00       		.byte	0
 7916 0111 18       		.uleb128 0x18
 7917 0112 05       		.uleb128 0x5
 7918 0113 00       		.byte	0
 7919 0114 03       		.uleb128 0x3
 7920 0115 08       		.uleb128 0x8
 7921 0116 3A       		.uleb128 0x3a
 7922 0117 0B       		.uleb128 0xb
 7923 0118 3B       		.uleb128 0x3b
 7924 0119 0B       		.uleb128 0xb
 7925 011a 49       		.uleb128 0x49
 7926 011b 13       		.uleb128 0x13
 7927 011c 00       		.byte	0
 7928 011d 00       		.byte	0
 7929 011e 19       		.uleb128 0x19
 7930 011f 2E       		.uleb128 0x2e
 7931 0120 01       		.byte	0x1
 7932 0121 03       		.uleb128 0x3
 7933 0122 0E       		.uleb128 0xe
 7934 0123 3A       		.uleb128 0x3a
 7935 0124 0B       		.uleb128 0xb
 7936 0125 3B       		.uleb128 0x3b
 7937 0126 05       		.uleb128 0x5
 7938 0127 27       		.uleb128 0x27
 7939 0128 19       		.uleb128 0x19
 7940 0129 49       		.uleb128 0x49
 7941 012a 13       		.uleb128 0x13
 7942 012b 20       		.uleb128 0x20
 7943 012c 0B       		.uleb128 0xb
 7944 012d 01       		.uleb128 0x1
 7945 012e 13       		.uleb128 0x13
 7946 012f 00       		.byte	0
 7947 0130 00       		.byte	0
 7948 0131 1A       		.uleb128 0x1a
 7949 0132 05       		.uleb128 0x5
 7950 0133 00       		.byte	0
 7951 0134 03       		.uleb128 0x3
 7952 0135 0E       		.uleb128 0xe
 7953 0136 3A       		.uleb128 0x3a
 7954 0137 0B       		.uleb128 0xb
 7955 0138 3B       		.uleb128 0x3b
 7956 0139 05       		.uleb128 0x5
 7957 013a 49       		.uleb128 0x49
 7958 013b 13       		.uleb128 0x13
 7959 013c 00       		.byte	0
 7960 013d 00       		.byte	0
 7961 013e 1B       		.uleb128 0x1b
 7962 013f 05       		.uleb128 0x5
 7963 0140 00       		.byte	0
 7964 0141 03       		.uleb128 0x3
 7965 0142 08       		.uleb128 0x8
 7966 0143 3A       		.uleb128 0x3a
 7967 0144 0B       		.uleb128 0xb
ARM GAS  C:\Users\AHMED~1.ELE\AppData\Local\Temp\ccbrMpYT.s 			page 196


 7968 0145 3B       		.uleb128 0x3b
 7969 0146 05       		.uleb128 0x5
 7970 0147 49       		.uleb128 0x49
 7971 0148 13       		.uleb128 0x13
 7972 0149 00       		.byte	0
 7973 014a 00       		.byte	0
 7974 014b 1C       		.uleb128 0x1c
 7975 014c 34       		.uleb128 0x34
 7976 014d 00       		.byte	0
 7977 014e 03       		.uleb128 0x3
 7978 014f 08       		.uleb128 0x8
 7979 0150 3A       		.uleb128 0x3a
 7980 0151 0B       		.uleb128 0xb
 7981 0152 3B       		.uleb128 0x3b
 7982 0153 05       		.uleb128 0x5
 7983 0154 49       		.uleb128 0x49
 7984 0155 13       		.uleb128 0x13
 7985 0156 00       		.byte	0
 7986 0157 00       		.byte	0
 7987 0158 1D       		.uleb128 0x1d
 7988 0159 34       		.uleb128 0x34
 7989 015a 00       		.byte	0
 7990 015b 03       		.uleb128 0x3
 7991 015c 0E       		.uleb128 0xe
 7992 015d 3A       		.uleb128 0x3a
 7993 015e 0B       		.uleb128 0xb
 7994 015f 3B       		.uleb128 0x3b
 7995 0160 05       		.uleb128 0x5
 7996 0161 49       		.uleb128 0x49
 7997 0162 13       		.uleb128 0x13
 7998 0163 00       		.byte	0
 7999 0164 00       		.byte	0
 8000 0165 1E       		.uleb128 0x1e
 8001 0166 0A       		.uleb128 0xa
 8002 0167 00       		.byte	0
 8003 0168 03       		.uleb128 0x3
 8004 0169 0E       		.uleb128 0xe
 8005 016a 3A       		.uleb128 0x3a
 8006 016b 0B       		.uleb128 0xb
 8007 016c 3B       		.uleb128 0x3b
 8008 016d 05       		.uleb128 0x5
 8009 016e 00       		.byte	0
 8010 016f 00       		.byte	0
 8011 0170 1F       		.uleb128 0x1f
 8012 0171 2E       		.uleb128 0x2e
 8013 0172 01       		.byte	0x1
 8014 0173 03       		.uleb128 0x3
 8015 0174 0E       		.uleb128 0xe
 8016 0175 3A       		.uleb128 0x3a
 8017 0176 0B       		.uleb128 0xb
 8018 0177 3B       		.uleb128 0x3b
 8019 0178 05       		.uleb128 0x5
 8020 0179 27       		.uleb128 0x27
 8021 017a 19       		.uleb128 0x19
 8022 017b 49       		.uleb128 0x49
 8023 017c 13       		.uleb128 0x13
 8024 017d 11       		.uleb128 0x11
ARM GAS  C:\Users\AHMED~1.ELE\AppData\Local\Temp\ccbrMpYT.s 			page 197


 8025 017e 01       		.uleb128 0x1
 8026 017f 12       		.uleb128 0x12
 8027 0180 06       		.uleb128 0x6
 8028 0181 40       		.uleb128 0x40
 8029 0182 18       		.uleb128 0x18
 8030 0183 9742     		.uleb128 0x2117
 8031 0185 19       		.uleb128 0x19
 8032 0186 01       		.uleb128 0x1
 8033 0187 13       		.uleb128 0x13
 8034 0188 00       		.byte	0
 8035 0189 00       		.byte	0
 8036 018a 20       		.uleb128 0x20
 8037 018b 05       		.uleb128 0x5
 8038 018c 00       		.byte	0
 8039 018d 03       		.uleb128 0x3
 8040 018e 08       		.uleb128 0x8
 8041 018f 3A       		.uleb128 0x3a
 8042 0190 0B       		.uleb128 0xb
 8043 0191 3B       		.uleb128 0x3b
 8044 0192 05       		.uleb128 0x5
 8045 0193 49       		.uleb128 0x49
 8046 0194 13       		.uleb128 0x13
 8047 0195 02       		.uleb128 0x2
 8048 0196 17       		.uleb128 0x17
 8049 0197 00       		.byte	0
 8050 0198 00       		.byte	0
 8051 0199 21       		.uleb128 0x21
 8052 019a 05       		.uleb128 0x5
 8053 019b 00       		.byte	0
 8054 019c 03       		.uleb128 0x3
 8055 019d 0E       		.uleb128 0xe
 8056 019e 3A       		.uleb128 0x3a
 8057 019f 0B       		.uleb128 0xb
 8058 01a0 3B       		.uleb128 0x3b
 8059 01a1 05       		.uleb128 0x5
 8060 01a2 49       		.uleb128 0x49
 8061 01a3 13       		.uleb128 0x13
 8062 01a4 02       		.uleb128 0x2
 8063 01a5 17       		.uleb128 0x17
 8064 01a6 00       		.byte	0
 8065 01a7 00       		.byte	0
 8066 01a8 22       		.uleb128 0x22
 8067 01a9 34       		.uleb128 0x34
 8068 01aa 00       		.byte	0
 8069 01ab 03       		.uleb128 0x3
 8070 01ac 08       		.uleb128 0x8
 8071 01ad 3A       		.uleb128 0x3a
 8072 01ae 0B       		.uleb128 0xb
 8073 01af 3B       		.uleb128 0x3b
 8074 01b0 05       		.uleb128 0x5
 8075 01b1 49       		.uleb128 0x49
 8076 01b2 13       		.uleb128 0x13
 8077 01b3 02       		.uleb128 0x2
 8078 01b4 17       		.uleb128 0x17
 8079 01b5 00       		.byte	0
 8080 01b6 00       		.byte	0
 8081 01b7 23       		.uleb128 0x23
ARM GAS  C:\Users\AHMED~1.ELE\AppData\Local\Temp\ccbrMpYT.s 			page 198


 8082 01b8 0B       		.uleb128 0xb
 8083 01b9 01       		.byte	0x1
 8084 01ba 11       		.uleb128 0x11
 8085 01bb 01       		.uleb128 0x1
 8086 01bc 12       		.uleb128 0x12
 8087 01bd 06       		.uleb128 0x6
 8088 01be 01       		.uleb128 0x1
 8089 01bf 13       		.uleb128 0x13
 8090 01c0 00       		.byte	0
 8091 01c1 00       		.byte	0
 8092 01c2 24       		.uleb128 0x24
 8093 01c3 898201   		.uleb128 0x4109
 8094 01c6 00       		.byte	0
 8095 01c7 11       		.uleb128 0x11
 8096 01c8 01       		.uleb128 0x1
 8097 01c9 31       		.uleb128 0x31
 8098 01ca 13       		.uleb128 0x13
 8099 01cb 00       		.byte	0
 8100 01cc 00       		.byte	0
 8101 01cd 25       		.uleb128 0x25
 8102 01ce 34       		.uleb128 0x34
 8103 01cf 00       		.byte	0
 8104 01d0 03       		.uleb128 0x3
 8105 01d1 0E       		.uleb128 0xe
 8106 01d2 3A       		.uleb128 0x3a
 8107 01d3 0B       		.uleb128 0xb
 8108 01d4 3B       		.uleb128 0x3b
 8109 01d5 05       		.uleb128 0x5
 8110 01d6 49       		.uleb128 0x49
 8111 01d7 13       		.uleb128 0x13
 8112 01d8 02       		.uleb128 0x2
 8113 01d9 17       		.uleb128 0x17
 8114 01da 00       		.byte	0
 8115 01db 00       		.byte	0
 8116 01dc 26       		.uleb128 0x26
 8117 01dd 898201   		.uleb128 0x4109
 8118 01e0 01       		.byte	0x1
 8119 01e1 11       		.uleb128 0x11
 8120 01e2 01       		.uleb128 0x1
 8121 01e3 31       		.uleb128 0x31
 8122 01e4 13       		.uleb128 0x13
 8123 01e5 01       		.uleb128 0x1
 8124 01e6 13       		.uleb128 0x13
 8125 01e7 00       		.byte	0
 8126 01e8 00       		.byte	0
 8127 01e9 27       		.uleb128 0x27
 8128 01ea 8A8201   		.uleb128 0x410a
 8129 01ed 00       		.byte	0
 8130 01ee 02       		.uleb128 0x2
 8131 01ef 18       		.uleb128 0x18
 8132 01f0 9142     		.uleb128 0x2111
 8133 01f2 18       		.uleb128 0x18
 8134 01f3 00       		.byte	0
 8135 01f4 00       		.byte	0
 8136 01f5 28       		.uleb128 0x28
 8137 01f6 898201   		.uleb128 0x4109
 8138 01f9 01       		.byte	0x1
ARM GAS  C:\Users\AHMED~1.ELE\AppData\Local\Temp\ccbrMpYT.s 			page 199


 8139 01fa 11       		.uleb128 0x11
 8140 01fb 01       		.uleb128 0x1
 8141 01fc 31       		.uleb128 0x31
 8142 01fd 13       		.uleb128 0x13
 8143 01fe 00       		.byte	0
 8144 01ff 00       		.byte	0
 8145 0200 29       		.uleb128 0x29
 8146 0201 2E       		.uleb128 0x2e
 8147 0202 01       		.byte	0x1
 8148 0203 31       		.uleb128 0x31
 8149 0204 13       		.uleb128 0x13
 8150 0205 11       		.uleb128 0x11
 8151 0206 01       		.uleb128 0x1
 8152 0207 12       		.uleb128 0x12
 8153 0208 06       		.uleb128 0x6
 8154 0209 40       		.uleb128 0x40
 8155 020a 18       		.uleb128 0x18
 8156 020b 9742     		.uleb128 0x2117
 8157 020d 19       		.uleb128 0x19
 8158 020e 01       		.uleb128 0x1
 8159 020f 13       		.uleb128 0x13
 8160 0210 00       		.byte	0
 8161 0211 00       		.byte	0
 8162 0212 2A       		.uleb128 0x2a
 8163 0213 05       		.uleb128 0x5
 8164 0214 00       		.byte	0
 8165 0215 31       		.uleb128 0x31
 8166 0216 13       		.uleb128 0x13
 8167 0217 02       		.uleb128 0x2
 8168 0218 17       		.uleb128 0x17
 8169 0219 00       		.byte	0
 8170 021a 00       		.byte	0
 8171 021b 2B       		.uleb128 0x2b
 8172 021c 0B       		.uleb128 0xb
 8173 021d 01       		.byte	0x1
 8174 021e 11       		.uleb128 0x11
 8175 021f 01       		.uleb128 0x1
 8176 0220 12       		.uleb128 0x12
 8177 0221 06       		.uleb128 0x6
 8178 0222 00       		.byte	0
 8179 0223 00       		.byte	0
 8180 0224 2C       		.uleb128 0x2c
 8181 0225 34       		.uleb128 0x34
 8182 0226 00       		.byte	0
 8183 0227 31       		.uleb128 0x31
 8184 0228 13       		.uleb128 0x13
 8185 0229 02       		.uleb128 0x2
 8186 022a 17       		.uleb128 0x17
 8187 022b 00       		.byte	0
 8188 022c 00       		.byte	0
 8189 022d 2D       		.uleb128 0x2d
 8190 022e 34       		.uleb128 0x34
 8191 022f 00       		.byte	0
 8192 0230 31       		.uleb128 0x31
 8193 0231 13       		.uleb128 0x13
 8194 0232 02       		.uleb128 0x2
 8195 0233 18       		.uleb128 0x18
ARM GAS  C:\Users\AHMED~1.ELE\AppData\Local\Temp\ccbrMpYT.s 			page 200


 8196 0234 00       		.byte	0
 8197 0235 00       		.byte	0
 8198 0236 2E       		.uleb128 0x2e
 8199 0237 05       		.uleb128 0x5
 8200 0238 00       		.byte	0
 8201 0239 31       		.uleb128 0x31
 8202 023a 13       		.uleb128 0x13
 8203 023b 02       		.uleb128 0x2
 8204 023c 18       		.uleb128 0x18
 8205 023d 00       		.byte	0
 8206 023e 00       		.byte	0
 8207 023f 2F       		.uleb128 0x2f
 8208 0240 0A       		.uleb128 0xa
 8209 0241 00       		.byte	0
 8210 0242 31       		.uleb128 0x31
 8211 0243 13       		.uleb128 0x13
 8212 0244 11       		.uleb128 0x11
 8213 0245 01       		.uleb128 0x1
 8214 0246 00       		.byte	0
 8215 0247 00       		.byte	0
 8216 0248 30       		.uleb128 0x30
 8217 0249 1D       		.uleb128 0x1d
 8218 024a 01       		.byte	0x1
 8219 024b 31       		.uleb128 0x31
 8220 024c 13       		.uleb128 0x13
 8221 024d 52       		.uleb128 0x52
 8222 024e 01       		.uleb128 0x1
 8223 024f 55       		.uleb128 0x55
 8224 0250 17       		.uleb128 0x17
 8225 0251 58       		.uleb128 0x58
 8226 0252 0B       		.uleb128 0xb
 8227 0253 59       		.uleb128 0x59
 8228 0254 05       		.uleb128 0x5
 8229 0255 01       		.uleb128 0x1
 8230 0256 13       		.uleb128 0x13
 8231 0257 00       		.byte	0
 8232 0258 00       		.byte	0
 8233 0259 31       		.uleb128 0x31
 8234 025a 05       		.uleb128 0x5
 8235 025b 00       		.byte	0
 8236 025c 31       		.uleb128 0x31
 8237 025d 13       		.uleb128 0x13
 8238 025e 00       		.byte	0
 8239 025f 00       		.byte	0
 8240 0260 32       		.uleb128 0x32
 8241 0261 0B       		.uleb128 0xb
 8242 0262 01       		.byte	0x1
 8243 0263 55       		.uleb128 0x55
 8244 0264 17       		.uleb128 0x17
 8245 0265 00       		.byte	0
 8246 0266 00       		.byte	0
 8247 0267 33       		.uleb128 0x33
 8248 0268 898201   		.uleb128 0x4109
 8249 026b 01       		.byte	0x1
 8250 026c 11       		.uleb128 0x11
 8251 026d 01       		.uleb128 0x1
 8252 026e 9342     		.uleb128 0x2113
ARM GAS  C:\Users\AHMED~1.ELE\AppData\Local\Temp\ccbrMpYT.s 			page 201


 8253 0270 18       		.uleb128 0x18
 8254 0271 01       		.uleb128 0x1
 8255 0272 13       		.uleb128 0x13
 8256 0273 00       		.byte	0
 8257 0274 00       		.byte	0
 8258 0275 34       		.uleb128 0x34
 8259 0276 898201   		.uleb128 0x4109
 8260 0279 01       		.byte	0x1
 8261 027a 11       		.uleb128 0x11
 8262 027b 01       		.uleb128 0x1
 8263 027c 01       		.uleb128 0x1
 8264 027d 13       		.uleb128 0x13
 8265 027e 00       		.byte	0
 8266 027f 00       		.byte	0
 8267 0280 35       		.uleb128 0x35
 8268 0281 2E       		.uleb128 0x2e
 8269 0282 01       		.byte	0x1
 8270 0283 3F       		.uleb128 0x3f
 8271 0284 19       		.uleb128 0x19
 8272 0285 03       		.uleb128 0x3
 8273 0286 0E       		.uleb128 0xe
 8274 0287 3A       		.uleb128 0x3a
 8275 0288 0B       		.uleb128 0xb
 8276 0289 3B       		.uleb128 0x3b
 8277 028a 0B       		.uleb128 0xb
 8278 028b 27       		.uleb128 0x27
 8279 028c 19       		.uleb128 0x19
 8280 028d 49       		.uleb128 0x49
 8281 028e 13       		.uleb128 0x13
 8282 028f 11       		.uleb128 0x11
 8283 0290 01       		.uleb128 0x1
 8284 0291 12       		.uleb128 0x12
 8285 0292 06       		.uleb128 0x6
 8286 0293 40       		.uleb128 0x40
 8287 0294 18       		.uleb128 0x18
 8288 0295 9742     		.uleb128 0x2117
 8289 0297 19       		.uleb128 0x19
 8290 0298 01       		.uleb128 0x1
 8291 0299 13       		.uleb128 0x13
 8292 029a 00       		.byte	0
 8293 029b 00       		.byte	0
 8294 029c 36       		.uleb128 0x36
 8295 029d 05       		.uleb128 0x5
 8296 029e 00       		.byte	0
 8297 029f 03       		.uleb128 0x3
 8298 02a0 08       		.uleb128 0x8
 8299 02a1 3A       		.uleb128 0x3a
 8300 02a2 0B       		.uleb128 0xb
 8301 02a3 3B       		.uleb128 0x3b
 8302 02a4 0B       		.uleb128 0xb
 8303 02a5 49       		.uleb128 0x49
 8304 02a6 13       		.uleb128 0x13
 8305 02a7 02       		.uleb128 0x2
 8306 02a8 17       		.uleb128 0x17
 8307 02a9 00       		.byte	0
 8308 02aa 00       		.byte	0
 8309 02ab 37       		.uleb128 0x37
ARM GAS  C:\Users\AHMED~1.ELE\AppData\Local\Temp\ccbrMpYT.s 			page 202


 8310 02ac 2E       		.uleb128 0x2e
 8311 02ad 01       		.byte	0x1
 8312 02ae 3F       		.uleb128 0x3f
 8313 02af 19       		.uleb128 0x19
 8314 02b0 03       		.uleb128 0x3
 8315 02b1 0E       		.uleb128 0xe
 8316 02b2 3A       		.uleb128 0x3a
 8317 02b3 0B       		.uleb128 0xb
 8318 02b4 3B       		.uleb128 0x3b
 8319 02b5 05       		.uleb128 0x5
 8320 02b6 27       		.uleb128 0x27
 8321 02b7 19       		.uleb128 0x19
 8322 02b8 49       		.uleb128 0x49
 8323 02b9 13       		.uleb128 0x13
 8324 02ba 11       		.uleb128 0x11
 8325 02bb 01       		.uleb128 0x1
 8326 02bc 12       		.uleb128 0x12
 8327 02bd 06       		.uleb128 0x6
 8328 02be 40       		.uleb128 0x40
 8329 02bf 18       		.uleb128 0x18
 8330 02c0 9742     		.uleb128 0x2117
 8331 02c2 19       		.uleb128 0x19
 8332 02c3 01       		.uleb128 0x1
 8333 02c4 13       		.uleb128 0x13
 8334 02c5 00       		.byte	0
 8335 02c6 00       		.byte	0
 8336 02c7 38       		.uleb128 0x38
 8337 02c8 05       		.uleb128 0x5
 8338 02c9 00       		.byte	0
 8339 02ca 03       		.uleb128 0x3
 8340 02cb 0E       		.uleb128 0xe
 8341 02cc 3A       		.uleb128 0x3a
 8342 02cd 0B       		.uleb128 0xb
 8343 02ce 3B       		.uleb128 0x3b
 8344 02cf 05       		.uleb128 0x5
 8345 02d0 49       		.uleb128 0x49
 8346 02d1 13       		.uleb128 0x13
 8347 02d2 02       		.uleb128 0x2
 8348 02d3 18       		.uleb128 0x18
 8349 02d4 00       		.byte	0
 8350 02d5 00       		.byte	0
 8351 02d6 39       		.uleb128 0x39
 8352 02d7 2E       		.uleb128 0x2e
 8353 02d8 01       		.byte	0x1
 8354 02d9 3F       		.uleb128 0x3f
 8355 02da 19       		.uleb128 0x19
 8356 02db 03       		.uleb128 0x3
 8357 02dc 0E       		.uleb128 0xe
 8358 02dd 3A       		.uleb128 0x3a
 8359 02de 0B       		.uleb128 0xb
 8360 02df 3B       		.uleb128 0x3b
 8361 02e0 05       		.uleb128 0x5
 8362 02e1 27       		.uleb128 0x27
 8363 02e2 19       		.uleb128 0x19
 8364 02e3 11       		.uleb128 0x11
 8365 02e4 01       		.uleb128 0x1
 8366 02e5 12       		.uleb128 0x12
ARM GAS  C:\Users\AHMED~1.ELE\AppData\Local\Temp\ccbrMpYT.s 			page 203


 8367 02e6 06       		.uleb128 0x6
 8368 02e7 40       		.uleb128 0x40
 8369 02e8 18       		.uleb128 0x18
 8370 02e9 9742     		.uleb128 0x2117
 8371 02eb 19       		.uleb128 0x19
 8372 02ec 01       		.uleb128 0x1
 8373 02ed 13       		.uleb128 0x13
 8374 02ee 00       		.byte	0
 8375 02ef 00       		.byte	0
 8376 02f0 3A       		.uleb128 0x3a
 8377 02f1 34       		.uleb128 0x34
 8378 02f2 00       		.byte	0
 8379 02f3 03       		.uleb128 0x3
 8380 02f4 0E       		.uleb128 0xe
 8381 02f5 3A       		.uleb128 0x3a
 8382 02f6 0B       		.uleb128 0xb
 8383 02f7 3B       		.uleb128 0x3b
 8384 02f8 05       		.uleb128 0x5
 8385 02f9 49       		.uleb128 0x49
 8386 02fa 13       		.uleb128 0x13
 8387 02fb 02       		.uleb128 0x2
 8388 02fc 18       		.uleb128 0x18
 8389 02fd 00       		.byte	0
 8390 02fe 00       		.byte	0
 8391 02ff 3B       		.uleb128 0x3b
 8392 0300 34       		.uleb128 0x34
 8393 0301 00       		.byte	0
 8394 0302 03       		.uleb128 0x3
 8395 0303 0E       		.uleb128 0xe
 8396 0304 3A       		.uleb128 0x3a
 8397 0305 0B       		.uleb128 0xb
 8398 0306 3B       		.uleb128 0x3b
 8399 0307 0B       		.uleb128 0xb
 8400 0308 49       		.uleb128 0x49
 8401 0309 13       		.uleb128 0x13
 8402 030a 3F       		.uleb128 0x3f
 8403 030b 19       		.uleb128 0x19
 8404 030c 3C       		.uleb128 0x3c
 8405 030d 19       		.uleb128 0x19
 8406 030e 00       		.byte	0
 8407 030f 00       		.byte	0
 8408 0310 3C       		.uleb128 0x3c
 8409 0311 2E       		.uleb128 0x2e
 8410 0312 01       		.byte	0x1
 8411 0313 3F       		.uleb128 0x3f
 8412 0314 19       		.uleb128 0x19
 8413 0315 03       		.uleb128 0x3
 8414 0316 0E       		.uleb128 0xe
 8415 0317 3A       		.uleb128 0x3a
 8416 0318 0B       		.uleb128 0xb
 8417 0319 3B       		.uleb128 0x3b
 8418 031a 05       		.uleb128 0x5
 8419 031b 27       		.uleb128 0x27
 8420 031c 19       		.uleb128 0x19
 8421 031d 3C       		.uleb128 0x3c
 8422 031e 19       		.uleb128 0x19
 8423 031f 01       		.uleb128 0x1
ARM GAS  C:\Users\AHMED~1.ELE\AppData\Local\Temp\ccbrMpYT.s 			page 204


 8424 0320 13       		.uleb128 0x13
 8425 0321 00       		.byte	0
 8426 0322 00       		.byte	0
 8427 0323 3D       		.uleb128 0x3d
 8428 0324 18       		.uleb128 0x18
 8429 0325 00       		.byte	0
 8430 0326 00       		.byte	0
 8431 0327 00       		.byte	0
 8432 0328 3E       		.uleb128 0x3e
 8433 0329 2E       		.uleb128 0x2e
 8434 032a 01       		.byte	0x1
 8435 032b 3F       		.uleb128 0x3f
 8436 032c 19       		.uleb128 0x19
 8437 032d 03       		.uleb128 0x3
 8438 032e 0E       		.uleb128 0xe
 8439 032f 3A       		.uleb128 0x3a
 8440 0330 0B       		.uleb128 0xb
 8441 0331 3B       		.uleb128 0x3b
 8442 0332 0B       		.uleb128 0xb
 8443 0333 27       		.uleb128 0x27
 8444 0334 19       		.uleb128 0x19
 8445 0335 49       		.uleb128 0x49
 8446 0336 13       		.uleb128 0x13
 8447 0337 3C       		.uleb128 0x3c
 8448 0338 19       		.uleb128 0x19
 8449 0339 01       		.uleb128 0x1
 8450 033a 13       		.uleb128 0x13
 8451 033b 00       		.byte	0
 8452 033c 00       		.byte	0
 8453 033d 3F       		.uleb128 0x3f
 8454 033e 2E       		.uleb128 0x2e
 8455 033f 01       		.byte	0x1
 8456 0340 3F       		.uleb128 0x3f
 8457 0341 19       		.uleb128 0x19
 8458 0342 03       		.uleb128 0x3
 8459 0343 0E       		.uleb128 0xe
 8460 0344 27       		.uleb128 0x27
 8461 0345 19       		.uleb128 0x19
 8462 0346 49       		.uleb128 0x49
 8463 0347 13       		.uleb128 0x13
 8464 0348 34       		.uleb128 0x34
 8465 0349 19       		.uleb128 0x19
 8466 034a 3C       		.uleb128 0x3c
 8467 034b 19       		.uleb128 0x19
 8468 034c 01       		.uleb128 0x1
 8469 034d 13       		.uleb128 0x13
 8470 034e 00       		.byte	0
 8471 034f 00       		.byte	0
 8472 0350 40       		.uleb128 0x40
 8473 0351 2E       		.uleb128 0x2e
 8474 0352 01       		.byte	0x1
 8475 0353 3F       		.uleb128 0x3f
 8476 0354 19       		.uleb128 0x19
 8477 0355 03       		.uleb128 0x3
 8478 0356 0E       		.uleb128 0xe
 8479 0357 3A       		.uleb128 0x3a
 8480 0358 0B       		.uleb128 0xb
ARM GAS  C:\Users\AHMED~1.ELE\AppData\Local\Temp\ccbrMpYT.s 			page 205


 8481 0359 3B       		.uleb128 0x3b
 8482 035a 0B       		.uleb128 0xb
 8483 035b 27       		.uleb128 0x27
 8484 035c 19       		.uleb128 0x19
 8485 035d 3C       		.uleb128 0x3c
 8486 035e 19       		.uleb128 0x19
 8487 035f 01       		.uleb128 0x1
 8488 0360 13       		.uleb128 0x13
 8489 0361 00       		.byte	0
 8490 0362 00       		.byte	0
 8491 0363 41       		.uleb128 0x41
 8492 0364 2E       		.uleb128 0x2e
 8493 0365 00       		.byte	0
 8494 0366 3F       		.uleb128 0x3f
 8495 0367 19       		.uleb128 0x19
 8496 0368 03       		.uleb128 0x3
 8497 0369 0E       		.uleb128 0xe
 8498 036a 3A       		.uleb128 0x3a
 8499 036b 0B       		.uleb128 0xb
 8500 036c 3B       		.uleb128 0x3b
 8501 036d 0B       		.uleb128 0xb
 8502 036e 27       		.uleb128 0x27
 8503 036f 19       		.uleb128 0x19
 8504 0370 49       		.uleb128 0x49
 8505 0371 13       		.uleb128 0x13
 8506 0372 3C       		.uleb128 0x3c
 8507 0373 19       		.uleb128 0x19
 8508 0374 00       		.byte	0
 8509 0375 00       		.byte	0
 8510 0376 42       		.uleb128 0x42
 8511 0377 2E       		.uleb128 0x2e
 8512 0378 01       		.byte	0x1
 8513 0379 3F       		.uleb128 0x3f
 8514 037a 19       		.uleb128 0x19
 8515 037b 03       		.uleb128 0x3
 8516 037c 0E       		.uleb128 0xe
 8517 037d 3A       		.uleb128 0x3a
 8518 037e 0B       		.uleb128 0xb
 8519 037f 3B       		.uleb128 0x3b
 8520 0380 05       		.uleb128 0x5
 8521 0381 27       		.uleb128 0x27
 8522 0382 19       		.uleb128 0x19
 8523 0383 49       		.uleb128 0x49
 8524 0384 13       		.uleb128 0x13
 8525 0385 3C       		.uleb128 0x3c
 8526 0386 19       		.uleb128 0x19
 8527 0387 01       		.uleb128 0x1
 8528 0388 13       		.uleb128 0x13
 8529 0389 00       		.byte	0
 8530 038a 00       		.byte	0
 8531 038b 43       		.uleb128 0x43
 8532 038c 2E       		.uleb128 0x2e
 8533 038d 01       		.byte	0x1
 8534 038e 3F       		.uleb128 0x3f
 8535 038f 19       		.uleb128 0x19
 8536 0390 03       		.uleb128 0x3
 8537 0391 0E       		.uleb128 0xe
ARM GAS  C:\Users\AHMED~1.ELE\AppData\Local\Temp\ccbrMpYT.s 			page 206


 8538 0392 3A       		.uleb128 0x3a
 8539 0393 0B       		.uleb128 0xb
 8540 0394 3B       		.uleb128 0x3b
 8541 0395 0B       		.uleb128 0xb
 8542 0396 27       		.uleb128 0x27
 8543 0397 19       		.uleb128 0x19
 8544 0398 49       		.uleb128 0x49
 8545 0399 13       		.uleb128 0x13
 8546 039a 3C       		.uleb128 0x3c
 8547 039b 19       		.uleb128 0x19
 8548 039c 00       		.byte	0
 8549 039d 00       		.byte	0
 8550 039e 00       		.byte	0
 8551              		.section	.debug_loc,"",%progbits
 8552              	.Ldebug_loc0:
 8553              	.LLST0:
 8554 0000 00000000 		.4byte	.LVL0
 8555 0004 38010000 		.4byte	.LVL18
 8556 0008 0100     		.2byte	0x1
 8557 000a 50       		.byte	0x50
 8558 000b 38010000 		.4byte	.LVL18
 8559 000f 3A010000 		.4byte	.LVL19
 8560 0013 0400     		.2byte	0x4
 8561 0015 F3       		.byte	0xf3
 8562 0016 01       		.uleb128 0x1
 8563 0017 50       		.byte	0x50
 8564 0018 9F       		.byte	0x9f
 8565 0019 3A010000 		.4byte	.LVL19
 8566 001d 58010000 		.4byte	.LVL23
 8567 0021 0100     		.2byte	0x1
 8568 0023 50       		.byte	0x50
 8569 0024 58010000 		.4byte	.LVL23
 8570 0028 5E010000 		.4byte	.LVL25
 8571 002c 0400     		.2byte	0x4
 8572 002e F3       		.byte	0xf3
 8573 002f 01       		.uleb128 0x1
 8574 0030 50       		.byte	0x50
 8575 0031 9F       		.byte	0x9f
 8576 0032 5E010000 		.4byte	.LVL25
 8577 0036 7C010000 		.4byte	.LVL27
 8578 003a 0100     		.2byte	0x1
 8579 003c 50       		.byte	0x50
 8580 003d 7C010000 		.4byte	.LVL27
 8581 0041 8E010000 		.4byte	.LVL30
 8582 0045 0400     		.2byte	0x4
 8583 0047 F3       		.byte	0xf3
 8584 0048 01       		.uleb128 0x1
 8585 0049 50       		.byte	0x50
 8586 004a 9F       		.byte	0x9f
 8587 004b 8E010000 		.4byte	.LVL30
 8588 004f CA010000 		.4byte	.LVL34
 8589 0053 0100     		.2byte	0x1
 8590 0055 50       		.byte	0x50
 8591 0056 CA010000 		.4byte	.LVL34
 8592 005a EA010000 		.4byte	.LVL38
 8593 005e 0400     		.2byte	0x4
 8594 0060 F3       		.byte	0xf3
ARM GAS  C:\Users\AHMED~1.ELE\AppData\Local\Temp\ccbrMpYT.s 			page 207


 8595 0061 01       		.uleb128 0x1
 8596 0062 50       		.byte	0x50
 8597 0063 9F       		.byte	0x9f
 8598 0064 EA010000 		.4byte	.LVL38
 8599 0068 EC010000 		.4byte	.LVL39
 8600 006c 0100     		.2byte	0x1
 8601 006e 50       		.byte	0x50
 8602 006f EC010000 		.4byte	.LVL39
 8603 0073 F8010000 		.4byte	.LFE11
 8604 0077 0400     		.2byte	0x4
 8605 0079 F3       		.byte	0xf3
 8606 007a 01       		.uleb128 0x1
 8607 007b 50       		.byte	0x50
 8608 007c 9F       		.byte	0x9f
 8609 007d 00000000 		.4byte	0
 8610 0081 00000000 		.4byte	0
 8611              	.LLST1:
 8612 0085 00000000 		.4byte	.LVL0
 8613 0089 04000000 		.4byte	.LVL1
 8614 008d 0100     		.2byte	0x1
 8615 008f 51       		.byte	0x51
 8616 0090 04000000 		.4byte	.LVL1
 8617 0094 0C010000 		.4byte	.LVL15
 8618 0098 0100     		.2byte	0x1
 8619 009a 56       		.byte	0x56
 8620 009b 0C010000 		.4byte	.LVL15
 8621 009f 3A010000 		.4byte	.LVL19
 8622 00a3 0400     		.2byte	0x4
 8623 00a5 F3       		.byte	0xf3
 8624 00a6 01       		.uleb128 0x1
 8625 00a7 51       		.byte	0x51
 8626 00a8 9F       		.byte	0x9f
 8627 00a9 3A010000 		.4byte	.LVL19
 8628 00ad 58010000 		.4byte	.LVL23
 8629 00b1 0100     		.2byte	0x1
 8630 00b3 56       		.byte	0x56
 8631 00b4 58010000 		.4byte	.LVL23
 8632 00b8 5E010000 		.4byte	.LVL25
 8633 00bc 0400     		.2byte	0x4
 8634 00be F3       		.byte	0xf3
 8635 00bf 01       		.uleb128 0x1
 8636 00c0 51       		.byte	0x51
 8637 00c1 9F       		.byte	0x9f
 8638 00c2 5E010000 		.4byte	.LVL25
 8639 00c6 E4010000 		.4byte	.LVL37
 8640 00ca 0100     		.2byte	0x1
 8641 00cc 56       		.byte	0x56
 8642 00cd E4010000 		.4byte	.LVL37
 8643 00d1 F8010000 		.4byte	.LFE11
 8644 00d5 0400     		.2byte	0x4
 8645 00d7 F3       		.byte	0xf3
 8646 00d8 01       		.uleb128 0x1
 8647 00d9 51       		.byte	0x51
 8648 00da 9F       		.byte	0x9f
 8649 00db 00000000 		.4byte	0
 8650 00df 00000000 		.4byte	0
 8651              	.LLST2:
ARM GAS  C:\Users\AHMED~1.ELE\AppData\Local\Temp\ccbrMpYT.s 			page 208


 8652 00e3 0C000000 		.4byte	.LVL2
 8653 00e7 52000000 		.4byte	.LVL3
 8654 00eb 0600     		.2byte	0x6
 8655 00ed 73       		.byte	0x73
 8656 00ee 00       		.sleb128 0
 8657 00ef 08       		.byte	0x8
 8658 00f0 FF       		.byte	0xff
 8659 00f1 1A       		.byte	0x1a
 8660 00f2 9F       		.byte	0x9f
 8661 00f3 52000000 		.4byte	.LVL3
 8662 00f7 60000000 		.4byte	.LVL4
 8663 00fb 0600     		.2byte	0x6
 8664 00fd 74       		.byte	0x74
 8665 00fe 00       		.sleb128 0
 8666 00ff 08       		.byte	0x8
 8667 0100 FF       		.byte	0xff
 8668 0101 1A       		.byte	0x1a
 8669 0102 9F       		.byte	0x9f
 8670 0103 60000000 		.4byte	.LVL4
 8671 0107 66000000 		.4byte	.LVL5
 8672 010b 0600     		.2byte	0x6
 8673 010d 73       		.byte	0x73
 8674 010e 00       		.sleb128 0
 8675 010f 08       		.byte	0x8
 8676 0110 FF       		.byte	0xff
 8677 0111 1A       		.byte	0x1a
 8678 0112 9F       		.byte	0x9f
 8679 0113 66000000 		.4byte	.LVL5
 8680 0117 76000000 		.4byte	.LVL6
 8681 011b 0600     		.2byte	0x6
 8682 011d 74       		.byte	0x74
 8683 011e 00       		.sleb128 0
 8684 011f 08       		.byte	0x8
 8685 0120 FF       		.byte	0xff
 8686 0121 1A       		.byte	0x1a
 8687 0122 9F       		.byte	0x9f
 8688 0123 76000000 		.4byte	.LVL6
 8689 0127 80000000 		.4byte	.LVL7
 8690 012b 0600     		.2byte	0x6
 8691 012d 73       		.byte	0x73
 8692 012e 00       		.sleb128 0
 8693 012f 08       		.byte	0x8
 8694 0130 FF       		.byte	0xff
 8695 0131 1A       		.byte	0x1a
 8696 0132 9F       		.byte	0x9f
 8697 0133 80000000 		.4byte	.LVL7
 8698 0137 96000000 		.4byte	.LVL8
 8699 013b 0600     		.2byte	0x6
 8700 013d 74       		.byte	0x74
 8701 013e 00       		.sleb128 0
 8702 013f 08       		.byte	0x8
 8703 0140 FF       		.byte	0xff
 8704 0141 1A       		.byte	0x1a
 8705 0142 9F       		.byte	0x9f
 8706 0143 96000000 		.4byte	.LVL8
 8707 0147 A2000000 		.4byte	.LVL9
 8708 014b 0100     		.2byte	0x1
ARM GAS  C:\Users\AHMED~1.ELE\AppData\Local\Temp\ccbrMpYT.s 			page 209


 8709 014d 51       		.byte	0x51
 8710 014e A2000000 		.4byte	.LVL9
 8711 0152 B0000000 		.4byte	.LVL10
 8712 0156 0600     		.2byte	0x6
 8713 0158 73       		.byte	0x73
 8714 0159 00       		.sleb128 0
 8715 015a 08       		.byte	0x8
 8716 015b FF       		.byte	0xff
 8717 015c 1A       		.byte	0x1a
 8718 015d 9F       		.byte	0x9f
 8719 015e B0000000 		.4byte	.LVL10
 8720 0162 CE000000 		.4byte	.LVL11
 8721 0166 0600     		.2byte	0x6
 8722 0168 74       		.byte	0x74
 8723 0169 00       		.sleb128 0
 8724 016a 08       		.byte	0x8
 8725 016b FF       		.byte	0xff
 8726 016c 1A       		.byte	0x1a
 8727 016d 9F       		.byte	0x9f
 8728 016e D6000000 		.4byte	.LVL12
 8729 0172 EA000000 		.4byte	.LVL13
 8730 0176 0100     		.2byte	0x1
 8731 0178 51       		.byte	0x51
 8732 0179 EA000000 		.4byte	.LVL13
 8733 017d EE000000 		.4byte	.LVL14
 8734 0181 0600     		.2byte	0x6
 8735 0183 73       		.byte	0x73
 8736 0184 00       		.sleb128 0
 8737 0185 08       		.byte	0x8
 8738 0186 FF       		.byte	0xff
 8739 0187 1A       		.byte	0x1a
 8740 0188 9F       		.byte	0x9f
 8741 0189 EE000000 		.4byte	.LVL14
 8742 018d 14010000 		.4byte	.LVL16
 8743 0191 0600     		.2byte	0x6
 8744 0193 74       		.byte	0x74
 8745 0194 00       		.sleb128 0
 8746 0195 08       		.byte	0x8
 8747 0196 FF       		.byte	0xff
 8748 0197 1A       		.byte	0x1a
 8749 0198 9F       		.byte	0x9f
 8750 0199 2C010000 		.4byte	.LVL17
 8751 019d 3A010000 		.4byte	.LVL19
 8752 01a1 0100     		.2byte	0x1
 8753 01a3 51       		.byte	0x51
 8754 01a4 3A010000 		.4byte	.LVL19
 8755 01a8 3C010000 		.4byte	.LVL20
 8756 01ac 0600     		.2byte	0x6
 8757 01ae 73       		.byte	0x73
 8758 01af 00       		.sleb128 0
 8759 01b0 08       		.byte	0x8
 8760 01b1 FF       		.byte	0xff
 8761 01b2 1A       		.byte	0x1a
 8762 01b3 9F       		.byte	0x9f
 8763 01b4 3C010000 		.4byte	.LVL20
 8764 01b8 40010000 		.4byte	.LVL21
 8765 01bc 0600     		.2byte	0x6
ARM GAS  C:\Users\AHMED~1.ELE\AppData\Local\Temp\ccbrMpYT.s 			page 210


 8766 01be 74       		.byte	0x74
 8767 01bf 00       		.sleb128 0
 8768 01c0 08       		.byte	0x8
 8769 01c1 FF       		.byte	0xff
 8770 01c2 1A       		.byte	0x1a
 8771 01c3 9F       		.byte	0x9f
 8772 01c4 40010000 		.4byte	.LVL21
 8773 01c8 56010000 		.4byte	.LVL22
 8774 01cc 0100     		.2byte	0x1
 8775 01ce 51       		.byte	0x51
 8776 01cf 5E010000 		.4byte	.LVL25
 8777 01d3 8C010000 		.4byte	.LVL29
 8778 01d7 0100     		.2byte	0x1
 8779 01d9 51       		.byte	0x51
 8780 01da 8E010000 		.4byte	.LVL30
 8781 01de 90010000 		.4byte	.LVL31
 8782 01e2 0600     		.2byte	0x6
 8783 01e4 73       		.byte	0x73
 8784 01e5 00       		.sleb128 0
 8785 01e6 08       		.byte	0x8
 8786 01e7 FF       		.byte	0xff
 8787 01e8 1A       		.byte	0x1a
 8788 01e9 9F       		.byte	0x9f
 8789 01ea 90010000 		.4byte	.LVL31
 8790 01ee 94010000 		.4byte	.LVL32
 8791 01f2 0800     		.2byte	0x8
 8792 01f4 73       		.byte	0x73
 8793 01f5 00       		.sleb128 0
 8794 01f6 38       		.byte	0x38
 8795 01f7 24       		.byte	0x24
 8796 01f8 71       		.byte	0x71
 8797 01f9 00       		.sleb128 0
 8798 01fa 21       		.byte	0x21
 8799 01fb 9F       		.byte	0x9f
 8800 01fc 94010000 		.4byte	.LVL32
 8801 0200 D6010000 		.4byte	.LVL35
 8802 0204 0100     		.2byte	0x1
 8803 0206 51       		.byte	0x51
 8804 0207 00000000 		.4byte	0
 8805 020b 00000000 		.4byte	0
 8806              	.LLST3:
 8807 020f 04000000 		.4byte	.LVL1
 8808 0213 38010000 		.4byte	.LVL18
 8809 0217 0100     		.2byte	0x1
 8810 0219 50       		.byte	0x50
 8811 021a 38010000 		.4byte	.LVL18
 8812 021e 3A010000 		.4byte	.LVL19
 8813 0222 0400     		.2byte	0x4
 8814 0224 F3       		.byte	0xf3
 8815 0225 01       		.uleb128 0x1
 8816 0226 50       		.byte	0x50
 8817 0227 9F       		.byte	0x9f
 8818 0228 3A010000 		.4byte	.LVL19
 8819 022c 58010000 		.4byte	.LVL23
 8820 0230 0100     		.2byte	0x1
 8821 0232 50       		.byte	0x50
 8822 0233 58010000 		.4byte	.LVL23
ARM GAS  C:\Users\AHMED~1.ELE\AppData\Local\Temp\ccbrMpYT.s 			page 211


 8823 0237 5E010000 		.4byte	.LVL25
 8824 023b 0400     		.2byte	0x4
 8825 023d F3       		.byte	0xf3
 8826 023e 01       		.uleb128 0x1
 8827 023f 50       		.byte	0x50
 8828 0240 9F       		.byte	0x9f
 8829 0241 5E010000 		.4byte	.LVL25
 8830 0245 7C010000 		.4byte	.LVL27
 8831 0249 0100     		.2byte	0x1
 8832 024b 50       		.byte	0x50
 8833 024c 7C010000 		.4byte	.LVL27
 8834 0250 8E010000 		.4byte	.LVL30
 8835 0254 0400     		.2byte	0x4
 8836 0256 F3       		.byte	0xf3
 8837 0257 01       		.uleb128 0x1
 8838 0258 50       		.byte	0x50
 8839 0259 9F       		.byte	0x9f
 8840 025a 8E010000 		.4byte	.LVL30
 8841 025e CA010000 		.4byte	.LVL34
 8842 0262 0100     		.2byte	0x1
 8843 0264 50       		.byte	0x50
 8844 0265 CA010000 		.4byte	.LVL34
 8845 0269 EA010000 		.4byte	.LVL38
 8846 026d 0400     		.2byte	0x4
 8847 026f F3       		.byte	0xf3
 8848 0270 01       		.uleb128 0x1
 8849 0271 50       		.byte	0x50
 8850 0272 9F       		.byte	0x9f
 8851 0273 EA010000 		.4byte	.LVL38
 8852 0277 EC010000 		.4byte	.LVL39
 8853 027b 0100     		.2byte	0x1
 8854 027d 50       		.byte	0x50
 8855 027e EC010000 		.4byte	.LVL39
 8856 0282 F8010000 		.4byte	.LFE11
 8857 0286 0400     		.2byte	0x4
 8858 0288 F3       		.byte	0xf3
 8859 0289 01       		.uleb128 0x1
 8860 028a 50       		.byte	0x50
 8861 028b 9F       		.byte	0x9f
 8862 028c 00000000 		.4byte	0
 8863 0290 00000000 		.4byte	0
 8864              	.LLST4:
 8865 0294 76010000 		.4byte	.LVL26
 8866 0298 88010000 		.4byte	.LVL28
 8867 029c 0100     		.2byte	0x1
 8868 029e 53       		.byte	0x53
 8869 029f 88010000 		.4byte	.LVL28
 8870 02a3 8E010000 		.4byte	.LVL30
 8871 02a7 0500     		.2byte	0x5
 8872 02a9 70       		.byte	0x70
 8873 02aa 80B803   		.sleb128 56320
 8874 02ad 9F       		.byte	0x9f
 8875 02ae 00000000 		.4byte	0
 8876 02b2 00000000 		.4byte	0
 8877              	.LLST5:
 8878 02b6 C4010000 		.4byte	.LVL33
 8879 02ba DA010000 		.4byte	.LVL36
ARM GAS  C:\Users\AHMED~1.ELE\AppData\Local\Temp\ccbrMpYT.s 			page 212


 8880 02be 0100     		.2byte	0x1
 8881 02c0 53       		.byte	0x53
 8882 02c1 00000000 		.4byte	0
 8883 02c5 00000000 		.4byte	0
 8884              	.LLST6:
 8885 02c9 00000000 		.4byte	.LVL40
 8886 02cd 28000000 		.4byte	.LVL44
 8887 02d1 0100     		.2byte	0x1
 8888 02d3 50       		.byte	0x50
 8889 02d4 28000000 		.4byte	.LVL44
 8890 02d8 FA000000 		.4byte	.LVL54
 8891 02dc 0100     		.2byte	0x1
 8892 02de 55       		.byte	0x55
 8893 02df FA000000 		.4byte	.LVL54
 8894 02e3 00010000 		.4byte	.LFE7
 8895 02e7 0400     		.2byte	0x4
 8896 02e9 F3       		.byte	0xf3
 8897 02ea 01       		.uleb128 0x1
 8898 02eb 50       		.byte	0x50
 8899 02ec 9F       		.byte	0x9f
 8900 02ed 00000000 		.4byte	0
 8901 02f1 00000000 		.4byte	0
 8902              	.LLST7:
 8903 02f5 00000000 		.4byte	.LVL40
 8904 02f9 2C000000 		.4byte	.LVL45
 8905 02fd 0100     		.2byte	0x1
 8906 02ff 51       		.byte	0x51
 8907 0300 2C000000 		.4byte	.LVL45
 8908 0304 FA000000 		.4byte	.LVL54
 8909 0308 0100     		.2byte	0x1
 8910 030a 54       		.byte	0x54
 8911 030b FA000000 		.4byte	.LVL54
 8912 030f 00010000 		.4byte	.LFE7
 8913 0313 0400     		.2byte	0x4
 8914 0315 F3       		.byte	0xf3
 8915 0316 01       		.uleb128 0x1
 8916 0317 51       		.byte	0x51
 8917 0318 9F       		.byte	0x9f
 8918 0319 00000000 		.4byte	0
 8919 031d 00000000 		.4byte	0
 8920              	.LLST8:
 8921 0321 00000000 		.4byte	.LVL40
 8922 0325 0A000000 		.4byte	.LVL41
 8923 0329 0100     		.2byte	0x1
 8924 032b 52       		.byte	0x52
 8925 032c 0A000000 		.4byte	.LVL41
 8926 0330 FA000000 		.4byte	.LVL54
 8927 0334 0100     		.2byte	0x1
 8928 0336 58       		.byte	0x58
 8929 0337 FA000000 		.4byte	.LVL54
 8930 033b 00010000 		.4byte	.LFE7
 8931 033f 0400     		.2byte	0x4
 8932 0341 F3       		.byte	0xf3
 8933 0342 01       		.uleb128 0x1
 8934 0343 52       		.byte	0x52
 8935 0344 9F       		.byte	0x9f
 8936 0345 00000000 		.4byte	0
ARM GAS  C:\Users\AHMED~1.ELE\AppData\Local\Temp\ccbrMpYT.s 			page 213


 8937 0349 00000000 		.4byte	0
 8938              	.LLST9:
 8939 034d 00000000 		.4byte	.LVL40
 8940 0351 0E000000 		.4byte	.LVL42
 8941 0355 0100     		.2byte	0x1
 8942 0357 53       		.byte	0x53
 8943 0358 0E000000 		.4byte	.LVL42
 8944 035c FA000000 		.4byte	.LVL54
 8945 0360 0100     		.2byte	0x1
 8946 0362 57       		.byte	0x57
 8947 0363 FA000000 		.4byte	.LVL54
 8948 0367 00010000 		.4byte	.LFE7
 8949 036b 0400     		.2byte	0x4
 8950 036d F3       		.byte	0xf3
 8951 036e 01       		.uleb128 0x1
 8952 036f 53       		.byte	0x53
 8953 0370 9F       		.byte	0x9f
 8954 0371 00000000 		.4byte	0
 8955 0375 00000000 		.4byte	0
 8956              	.LLST10:
 8957 0379 30000000 		.4byte	.LVL46
 8958 037d 3A000000 		.4byte	.LVL47
 8959 0381 0100     		.2byte	0x1
 8960 0383 50       		.byte	0x50
 8961 0384 3A000000 		.4byte	.LVL47
 8962 0388 4E000000 		.4byte	.LVL50
 8963 038c 0100     		.2byte	0x1
 8964 038e 59       		.byte	0x59
 8965 038f 4E000000 		.4byte	.LVL50
 8966 0393 57000000 		.4byte	.LVL51-1
 8967 0397 0100     		.2byte	0x1
 8968 0399 50       		.byte	0x50
 8969 039a 57000000 		.4byte	.LVL51-1
 8970 039e 72000000 		.4byte	.LVL53
 8971 03a2 0100     		.2byte	0x1
 8972 03a4 59       		.byte	0x59
 8973 03a5 00000000 		.4byte	0
 8974 03a9 00000000 		.4byte	0
 8975              	.LLST11:
 8976 03ad 1A000000 		.4byte	.LVL43
 8977 03b1 72000000 		.4byte	.LVL53
 8978 03b5 0100     		.2byte	0x1
 8979 03b7 56       		.byte	0x56
 8980 03b8 00000000 		.4byte	0
 8981 03bc 00000000 		.4byte	0
 8982              	.LLST12:
 8983 03c0 00000000 		.4byte	.LVL55
 8984 03c4 12000000 		.4byte	.LVL57
 8985 03c8 0100     		.2byte	0x1
 8986 03ca 50       		.byte	0x50
 8987 03cb 12000000 		.4byte	.LVL57
 8988 03cf 16000000 		.4byte	.LVL58
 8989 03d3 0300     		.2byte	0x3
 8990 03d5 73       		.byte	0x73
 8991 03d6 0D       		.sleb128 13
 8992 03d7 9F       		.byte	0x9f
 8993 03d8 16000000 		.4byte	.LVL58
ARM GAS  C:\Users\AHMED~1.ELE\AppData\Local\Temp\ccbrMpYT.s 			page 214


 8994 03dc 18000000 		.4byte	.LVL59
 8995 03e0 0100     		.2byte	0x1
 8996 03e2 50       		.byte	0x50
 8997 03e3 18000000 		.4byte	.LVL59
 8998 03e7 1A000000 		.4byte	.LFE0
 8999 03eb 0400     		.2byte	0x4
 9000 03ed F3       		.byte	0xf3
 9001 03ee 01       		.uleb128 0x1
 9002 03ef 50       		.byte	0x50
 9003 03f0 9F       		.byte	0x9f
 9004 03f1 00000000 		.4byte	0
 9005 03f5 00000000 		.4byte	0
 9006              	.LLST13:
 9007 03f9 0C000000 		.4byte	.LVL56
 9008 03fd 12000000 		.4byte	.LVL57
 9009 0401 0100     		.2byte	0x1
 9010 0403 50       		.byte	0x50
 9011 0404 12000000 		.4byte	.LVL57
 9012 0408 16000000 		.4byte	.LVL58
 9013 040c 0300     		.2byte	0x3
 9014 040e 73       		.byte	0x73
 9015 040f 0D       		.sleb128 13
 9016 0410 9F       		.byte	0x9f
 9017 0411 00000000 		.4byte	0
 9018 0415 00000000 		.4byte	0
 9019              	.LLST14:
 9020 0419 00000000 		.4byte	.LVL60
 9021 041d 0E000000 		.4byte	.LVL61
 9022 0421 0100     		.2byte	0x1
 9023 0423 50       		.byte	0x50
 9024 0424 0E000000 		.4byte	.LVL61
 9025 0428 D2000000 		.4byte	.LVL79
 9026 042c 0100     		.2byte	0x1
 9027 042e 55       		.byte	0x55
 9028 042f D2000000 		.4byte	.LVL79
 9029 0433 EC000000 		.4byte	.LFE13
 9030 0437 0400     		.2byte	0x4
 9031 0439 F3       		.byte	0xf3
 9032 043a 01       		.uleb128 0x1
 9033 043b 50       		.byte	0x50
 9034 043c 9F       		.byte	0x9f
 9035 043d 00000000 		.4byte	0
 9036 0441 00000000 		.4byte	0
 9037              	.LLST15:
 9038 0445 00000000 		.4byte	.LVL60
 9039 0449 0E000000 		.4byte	.LVL61
 9040 044d 0100     		.2byte	0x1
 9041 044f 51       		.byte	0x51
 9042 0450 0E000000 		.4byte	.LVL61
 9043 0454 D2000000 		.4byte	.LVL79
 9044 0458 0100     		.2byte	0x1
 9045 045a 59       		.byte	0x59
 9046 045b D2000000 		.4byte	.LVL79
 9047 045f EC000000 		.4byte	.LFE13
 9048 0463 0400     		.2byte	0x4
 9049 0465 F3       		.byte	0xf3
 9050 0466 01       		.uleb128 0x1
ARM GAS  C:\Users\AHMED~1.ELE\AppData\Local\Temp\ccbrMpYT.s 			page 215


 9051 0467 51       		.byte	0x51
 9052 0468 9F       		.byte	0x9f
 9053 0469 00000000 		.4byte	0
 9054 046d 00000000 		.4byte	0
 9055              	.LLST16:
 9056 0471 00000000 		.4byte	.LVL60
 9057 0475 0E000000 		.4byte	.LVL61
 9058 0479 0100     		.2byte	0x1
 9059 047b 52       		.byte	0x52
 9060 047c 0E000000 		.4byte	.LVL61
 9061 0480 D2000000 		.4byte	.LVL79
 9062 0484 0100     		.2byte	0x1
 9063 0486 58       		.byte	0x58
 9064 0487 D2000000 		.4byte	.LVL79
 9065 048b EC000000 		.4byte	.LFE13
 9066 048f 0400     		.2byte	0x4
 9067 0491 F3       		.byte	0xf3
 9068 0492 01       		.uleb128 0x1
 9069 0493 52       		.byte	0x52
 9070 0494 9F       		.byte	0x9f
 9071 0495 00000000 		.4byte	0
 9072 0499 00000000 		.4byte	0
 9073              	.LLST17:
 9074 049d 1E000000 		.4byte	.LVL64
 9075 04a1 4A000000 		.4byte	.LVL68
 9076 04a5 0100     		.2byte	0x1
 9077 04a7 50       		.byte	0x50
 9078 04a8 4A000000 		.4byte	.LVL68
 9079 04ac 86000000 		.4byte	.LVL71
 9080 04b0 0100     		.2byte	0x1
 9081 04b2 54       		.byte	0x54
 9082 04b3 86000000 		.4byte	.LVL71
 9083 04b7 88000000 		.4byte	.LVL72
 9084 04bb 0100     		.2byte	0x1
 9085 04bd 50       		.byte	0x50
 9086 04be 88000000 		.4byte	.LVL72
 9087 04c2 8E000000 		.4byte	.LVL73
 9088 04c6 0100     		.2byte	0x1
 9089 04c8 54       		.byte	0x54
 9090 04c9 8E000000 		.4byte	.LVL73
 9091 04cd 9C000000 		.4byte	.LVL74
 9092 04d1 0100     		.2byte	0x1
 9093 04d3 50       		.byte	0x50
 9094 04d4 9C000000 		.4byte	.LVL74
 9095 04d8 A4000000 		.4byte	.LVL76
 9096 04dc 0100     		.2byte	0x1
 9097 04de 54       		.byte	0x54
 9098 04df A4000000 		.4byte	.LVL76
 9099 04e3 AC000000 		.4byte	.LVL77
 9100 04e7 0100     		.2byte	0x1
 9101 04e9 50       		.byte	0x50
 9102 04ea AC000000 		.4byte	.LVL77
 9103 04ee D2000000 		.4byte	.LVL79
 9104 04f2 0100     		.2byte	0x1
 9105 04f4 54       		.byte	0x54
 9106 04f5 00000000 		.4byte	0
 9107 04f9 00000000 		.4byte	0
ARM GAS  C:\Users\AHMED~1.ELE\AppData\Local\Temp\ccbrMpYT.s 			page 216


 9108              	.LLST18:
 9109 04fd 1A000000 		.4byte	.LVL63
 9110 0501 38000000 		.4byte	.LVL65
 9111 0505 0100     		.2byte	0x1
 9112 0507 57       		.byte	0x57
 9113 0508 38000000 		.4byte	.LVL65
 9114 050c 3E000000 		.4byte	.LVL66
 9115 0510 0900     		.2byte	0x9
 9116 0512 91       		.byte	0x91
 9117 0513 00       		.sleb128 0
 9118 0514 76       		.byte	0x76
 9119 0515 00       		.sleb128 0
 9120 0516 22       		.byte	0x22
 9121 0517 08       		.byte	0x8
 9122 0518 5F       		.byte	0x5f
 9123 0519 1C       		.byte	0x1c
 9124 051a 9F       		.byte	0x9f
 9125 051b 3E000000 		.4byte	.LVL66
 9126 051f 40000000 		.4byte	.LVL67
 9127 0523 0900     		.2byte	0x9
 9128 0525 91       		.byte	0x91
 9129 0526 00       		.sleb128 0
 9130 0527 76       		.byte	0x76
 9131 0528 00       		.sleb128 0
 9132 0529 22       		.byte	0x22
 9133 052a 08       		.byte	0x8
 9134 052b 60       		.byte	0x60
 9135 052c 1C       		.byte	0x1c
 9136 052d 9F       		.byte	0x9f
 9137 052e 40000000 		.4byte	.LVL67
 9138 0532 D2000000 		.4byte	.LVL79
 9139 0536 0100     		.2byte	0x1
 9140 0538 57       		.byte	0x57
 9141 0539 00000000 		.4byte	0
 9142 053d 00000000 		.4byte	0
 9143              	.LLST19:
 9144 0541 00000000 		.4byte	.LVL80
 9145 0545 11000000 		.4byte	.LVL81-1
 9146 0549 0100     		.2byte	0x1
 9147 054b 50       		.byte	0x50
 9148 054c 11000000 		.4byte	.LVL81-1
 9149 0550 64000000 		.4byte	.LVL91
 9150 0554 0300     		.2byte	0x3
 9151 0556 91       		.byte	0x91
 9152 0557 A87F     		.sleb128 -88
 9153 0559 64000000 		.4byte	.LVL91
 9154 055d 880A0000 		.4byte	.LFE15
 9155 0561 0400     		.2byte	0x4
 9156 0563 F3       		.byte	0xf3
 9157 0564 01       		.uleb128 0x1
 9158 0565 50       		.byte	0x50
 9159 0566 9F       		.byte	0x9f
 9160 0567 00000000 		.4byte	0
 9161 056b 00000000 		.4byte	0
 9162              	.LLST20:
 9163 056f 00000000 		.4byte	.LVL80
 9164 0573 11000000 		.4byte	.LVL81-1
ARM GAS  C:\Users\AHMED~1.ELE\AppData\Local\Temp\ccbrMpYT.s 			page 217


 9165 0577 0100     		.2byte	0x1
 9166 0579 51       		.byte	0x51
 9167 057a 11000000 		.4byte	.LVL81-1
 9168 057e CE030000 		.4byte	.LVL165
 9169 0582 0100     		.2byte	0x1
 9170 0584 56       		.byte	0x56
 9171 0585 CE030000 		.4byte	.LVL165
 9172 0589 0A040000 		.4byte	.LVL172
 9173 058d 0400     		.2byte	0x4
 9174 058f F3       		.byte	0xf3
 9175 0590 01       		.uleb128 0x1
 9176 0591 51       		.byte	0x51
 9177 0592 9F       		.byte	0x9f
 9178 0593 0A040000 		.4byte	.LVL172
 9179 0597 40040000 		.4byte	.LVL176
 9180 059b 0100     		.2byte	0x1
 9181 059d 56       		.byte	0x56
 9182 059e 40040000 		.4byte	.LVL176
 9183 05a2 4C040000 		.4byte	.LVL179
 9184 05a6 0400     		.2byte	0x4
 9185 05a8 F3       		.byte	0xf3
 9186 05a9 01       		.uleb128 0x1
 9187 05aa 51       		.byte	0x51
 9188 05ab 9F       		.byte	0x9f
 9189 05ac 4C040000 		.4byte	.LVL179
 9190 05b0 70090000 		.4byte	.LVL329
 9191 05b4 0100     		.2byte	0x1
 9192 05b6 56       		.byte	0x56
 9193 05b7 70090000 		.4byte	.LVL329
 9194 05bb 80090000 		.4byte	.LVL332
 9195 05bf 0400     		.2byte	0x4
 9196 05c1 F3       		.byte	0xf3
 9197 05c2 01       		.uleb128 0x1
 9198 05c3 51       		.byte	0x51
 9199 05c4 9F       		.byte	0x9f
 9200 05c5 80090000 		.4byte	.LVL332
 9201 05c9 580A0000 		.4byte	.LVL364
 9202 05cd 0100     		.2byte	0x1
 9203 05cf 56       		.byte	0x56
 9204 05d0 580A0000 		.4byte	.LVL364
 9205 05d4 880A0000 		.4byte	.LFE15
 9206 05d8 0400     		.2byte	0x4
 9207 05da F3       		.byte	0xf3
 9208 05db 01       		.uleb128 0x1
 9209 05dc 51       		.byte	0x51
 9210 05dd 9F       		.byte	0x9f
 9211 05de 00000000 		.4byte	0
 9212 05e2 00000000 		.4byte	0
 9213              	.LLST21:
 9214 05e6 00000000 		.4byte	.LVL80
 9215 05ea 11000000 		.4byte	.LVL81-1
 9216 05ee 0100     		.2byte	0x1
 9217 05f0 52       		.byte	0x52
 9218 05f1 11000000 		.4byte	.LVL81-1
 9219 05f5 64000000 		.4byte	.LVL91
 9220 05f9 0300     		.2byte	0x3
 9221 05fb 91       		.byte	0x91
ARM GAS  C:\Users\AHMED~1.ELE\AppData\Local\Temp\ccbrMpYT.s 			page 218


 9222 05fc A47F     		.sleb128 -92
 9223 05fe 64000000 		.4byte	.LVL91
 9224 0602 880A0000 		.4byte	.LFE15
 9225 0606 0400     		.2byte	0x4
 9226 0608 F3       		.byte	0xf3
 9227 0609 01       		.uleb128 0x1
 9228 060a 52       		.byte	0x52
 9229 060b 9F       		.byte	0x9f
 9230 060c 00000000 		.4byte	0
 9231 0610 00000000 		.4byte	0
 9232              	.LLST22:
 9233 0614 00000000 		.4byte	.LVL80
 9234 0618 11000000 		.4byte	.LVL81-1
 9235 061c 0100     		.2byte	0x1
 9236 061e 53       		.byte	0x53
 9237 061f 11000000 		.4byte	.LVL81-1
 9238 0623 5E0A0000 		.4byte	.LVL365
 9239 0627 0100     		.2byte	0x1
 9240 0629 5A       		.byte	0x5a
 9241 062a 5E0A0000 		.4byte	.LVL365
 9242 062e 880A0000 		.4byte	.LFE15
 9243 0632 0400     		.2byte	0x4
 9244 0634 F3       		.byte	0xf3
 9245 0635 01       		.uleb128 0x1
 9246 0636 53       		.byte	0x53
 9247 0637 9F       		.byte	0x9f
 9248 0638 00000000 		.4byte	0
 9249 063c 00000000 		.4byte	0
 9250              	.LLST23:
 9251 0640 00000000 		.4byte	.LVL80
 9252 0644 5E0A0000 		.4byte	.LVL365
 9253 0648 0200     		.2byte	0x2
 9254 064a 91       		.byte	0x91
 9255 064b 00       		.sleb128 0
 9256 064c 5E0A0000 		.4byte	.LVL365
 9257 0650 880A0000 		.4byte	.LFE15
 9258 0654 0200     		.2byte	0x2
 9259 0656 7D       		.byte	0x7d
 9260 0657 00       		.sleb128 0
 9261 0658 00000000 		.4byte	0
 9262 065c 00000000 		.4byte	0
 9263              	.LLST24:
 9264 0660 10010000 		.4byte	.LVL101
 9265 0664 25010000 		.4byte	.LVL103-1
 9266 0668 0100     		.2byte	0x1
 9267 066a 50       		.byte	0x50
 9268 066b 25010000 		.4byte	.LVL103-1
 9269 066f 32010000 		.4byte	.LVL105
 9270 0673 0100     		.2byte	0x1
 9271 0675 58       		.byte	0x58
 9272 0676 D4010000 		.4byte	.LVL118
 9273 067a D6010000 		.4byte	.LVL119
 9274 067e 0100     		.2byte	0x1
 9275 0680 50       		.byte	0x50
 9276 0681 F2010000 		.4byte	.LVL121
 9277 0685 F3010000 		.4byte	.LVL122-1
 9278 0689 0100     		.2byte	0x1
ARM GAS  C:\Users\AHMED~1.ELE\AppData\Local\Temp\ccbrMpYT.s 			page 219


 9279 068b 50       		.byte	0x50
 9280 068c F3010000 		.4byte	.LVL122-1
 9281 0690 0C020000 		.4byte	.LVL124
 9282 0694 0100     		.2byte	0x1
 9283 0696 5B       		.byte	0x5b
 9284 0697 14020000 		.4byte	.LVL125
 9285 069b 9E020000 		.4byte	.LVL133
 9286 069f 0100     		.2byte	0x1
 9287 06a1 5B       		.byte	0x5b
 9288 06a2 D8020000 		.4byte	.LVL137
 9289 06a6 DA020000 		.4byte	.LVL138
 9290 06aa 0100     		.2byte	0x1
 9291 06ac 5B       		.byte	0x5b
 9292 06ad 06030000 		.4byte	.LVL141
 9293 06b1 0C030000 		.4byte	.LVL142
 9294 06b5 0100     		.2byte	0x1
 9295 06b7 50       		.byte	0x50
 9296 06b8 0C030000 		.4byte	.LVL142
 9297 06bc 14030000 		.4byte	.LVL143
 9298 06c0 0100     		.2byte	0x1
 9299 06c2 57       		.byte	0x57
 9300 06c3 14030000 		.4byte	.LVL143
 9301 06c7 19030000 		.4byte	.LVL144-1
 9302 06cb 0100     		.2byte	0x1
 9303 06cd 50       		.byte	0x50
 9304 06ce 19030000 		.4byte	.LVL144-1
 9305 06d2 2E030000 		.4byte	.LVL146
 9306 06d6 0100     		.2byte	0x1
 9307 06d8 57       		.byte	0x57
 9308 06d9 90030000 		.4byte	.LVL157
 9309 06dd CC030000 		.4byte	.LVL164
 9310 06e1 0100     		.2byte	0x1
 9311 06e3 58       		.byte	0x58
 9312 06e4 4C040000 		.4byte	.LVL179
 9313 06e8 54040000 		.4byte	.LVL180
 9314 06ec 0200     		.2byte	0x2
 9315 06ee 30       		.byte	0x30
 9316 06ef 9F       		.byte	0x9f
 9317 06f0 5E040000 		.4byte	.LVL181
 9318 06f4 68040000 		.4byte	.LVL182
 9319 06f8 0200     		.2byte	0x2
 9320 06fa 30       		.byte	0x30
 9321 06fb 9F       		.byte	0x9f
 9322 06fc C0040000 		.4byte	.LVL194
 9323 0700 C4040000 		.4byte	.LVL196
 9324 0704 0100     		.2byte	0x1
 9325 0706 57       		.byte	0x57
 9326 0707 0E060000 		.4byte	.LVL220
 9327 070b 40060000 		.4byte	.LVL225
 9328 070f 0100     		.2byte	0x1
 9329 0711 54       		.byte	0x54
 9330 0712 52060000 		.4byte	.LVL226
 9331 0716 60060000 		.4byte	.LVL227
 9332 071a 0100     		.2byte	0x1
 9333 071c 50       		.byte	0x50
 9334 071d 60060000 		.4byte	.LVL227
 9335 0721 66060000 		.4byte	.LVL229
ARM GAS  C:\Users\AHMED~1.ELE\AppData\Local\Temp\ccbrMpYT.s 			page 220


 9336 0725 0100     		.2byte	0x1
 9337 0727 58       		.byte	0x58
 9338 0728 66060000 		.4byte	.LVL229
 9339 072c 68060000 		.4byte	.LVL230
 9340 0730 0100     		.2byte	0x1
 9341 0732 50       		.byte	0x50
 9342 0733 68060000 		.4byte	.LVL230
 9343 0737 3A090000 		.4byte	.LVL320
 9344 073b 0100     		.2byte	0x1
 9345 073d 58       		.byte	0x58
 9346 073e 42090000 		.4byte	.LVL323
 9347 0742 68090000 		.4byte	.LVL327
 9348 0746 0100     		.2byte	0x1
 9349 0748 58       		.byte	0x58
 9350 0749 6E090000 		.4byte	.LVL328
 9351 074d 7A090000 		.4byte	.LVL330
 9352 0751 0100     		.2byte	0x1
 9353 0753 50       		.byte	0x50
 9354 0754 7A090000 		.4byte	.LVL330
 9355 0758 80090000 		.4byte	.LVL332
 9356 075c 0100     		.2byte	0x1
 9357 075e 58       		.byte	0x58
 9358 075f 90090000 		.4byte	.LVL336
 9359 0763 9E090000 		.4byte	.LVL338
 9360 0767 0100     		.2byte	0x1
 9361 0769 50       		.byte	0x50
 9362 076a 9E090000 		.4byte	.LVL338
 9363 076e A0090000 		.4byte	.LVL339
 9364 0772 0100     		.2byte	0x1
 9365 0774 58       		.byte	0x58
 9366 0775 A0090000 		.4byte	.LVL339
 9367 0779 AC090000 		.4byte	.LVL340
 9368 077d 0100     		.2byte	0x1
 9369 077f 50       		.byte	0x50
 9370 0780 B0090000 		.4byte	.LVL342
 9371 0784 BA090000 		.4byte	.LVL344
 9372 0788 0100     		.2byte	0x1
 9373 078a 58       		.byte	0x58
 9374 078b D2090000 		.4byte	.LVL349
 9375 078f E0090000 		.4byte	.LVL350
 9376 0793 0100     		.2byte	0x1
 9377 0795 50       		.byte	0x50
 9378 0796 E0090000 		.4byte	.LVL350
 9379 079a E2090000 		.4byte	.LVL351
 9380 079e 0100     		.2byte	0x1
 9381 07a0 58       		.byte	0x58
 9382 07a1 F8090000 		.4byte	.LVL352
 9383 07a5 070A0000 		.4byte	.LVL354-1
 9384 07a9 0100     		.2byte	0x1
 9385 07ab 50       		.byte	0x50
 9386 07ac 070A0000 		.4byte	.LVL354-1
 9387 07b0 160A0000 		.4byte	.LVL356
 9388 07b4 0100     		.2byte	0x1
 9389 07b6 58       		.byte	0x58
 9390 07b7 160A0000 		.4byte	.LVL356
 9391 07bb 200A0000 		.4byte	.LVL357
 9392 07bf 0100     		.2byte	0x1
ARM GAS  C:\Users\AHMED~1.ELE\AppData\Local\Temp\ccbrMpYT.s 			page 221


 9393 07c1 50       		.byte	0x50
 9394 07c2 200A0000 		.4byte	.LVL357
 9395 07c6 3E0A0000 		.4byte	.LVL362
 9396 07ca 0100     		.2byte	0x1
 9397 07cc 58       		.byte	0x58
 9398 07cd 00000000 		.4byte	0
 9399 07d1 00000000 		.4byte	0
 9400              	.LLST25:
 9401 07d5 2E000000 		.4byte	.LVL86
 9402 07d9 64000000 		.4byte	.LVL91
 9403 07dd 0200     		.2byte	0x2
 9404 07df 30       		.byte	0x30
 9405 07e0 9F       		.byte	0x9f
 9406 07e1 64000000 		.4byte	.LVL91
 9407 07e5 A0020000 		.4byte	.LVL134
 9408 07e9 0100     		.2byte	0x1
 9409 07eb 55       		.byte	0x55
 9410 07ec A2020000 		.4byte	.LVL135
 9411 07f0 32030000 		.4byte	.LVL147
 9412 07f4 0100     		.2byte	0x1
 9413 07f6 55       		.byte	0x55
 9414 07f7 36030000 		.4byte	.LVL148
 9415 07fb 44040000 		.4byte	.LVL177
 9416 07ff 0100     		.2byte	0x1
 9417 0801 55       		.byte	0x55
 9418 0802 48040000 		.4byte	.LVL178
 9419 0806 C2040000 		.4byte	.LVL195
 9420 080a 0100     		.2byte	0x1
 9421 080c 55       		.byte	0x55
 9422 080d C6040000 		.4byte	.LVL197
 9423 0811 64090000 		.4byte	.LVL326
 9424 0815 0100     		.2byte	0x1
 9425 0817 55       		.byte	0x55
 9426 0818 68090000 		.4byte	.LVL327
 9427 081c B6090000 		.4byte	.LVL343
 9428 0820 0100     		.2byte	0x1
 9429 0822 55       		.byte	0x55
 9430 0823 BA090000 		.4byte	.LVL344
 9431 0827 580A0000 		.4byte	.LVL364
 9432 082b 0100     		.2byte	0x1
 9433 082d 55       		.byte	0x55
 9434 082e 00000000 		.4byte	0
 9435 0832 00000000 		.4byte	0
 9436              	.LLST26:
 9437 0836 2E000000 		.4byte	.LVL86
 9438 083a 46000000 		.4byte	.LVL89
 9439 083e 0300     		.2byte	0x3
 9440 0840 91       		.byte	0x91
 9441 0841 A87F     		.sleb128 -88
 9442 0843 46000000 		.4byte	.LVL89
 9443 0847 4A000000 		.4byte	.LVL90
 9444 084b 0100     		.2byte	0x1
 9445 084d 53       		.byte	0x53
 9446 084e 4A000000 		.4byte	.LVL90
 9447 0852 64000000 		.4byte	.LVL91
 9448 0856 0300     		.2byte	0x3
 9449 0858 91       		.byte	0x91
ARM GAS  C:\Users\AHMED~1.ELE\AppData\Local\Temp\ccbrMpYT.s 			page 222


 9450 0859 A87F     		.sleb128 -88
 9451 085b 64000000 		.4byte	.LVL91
 9452 085f E6030000 		.4byte	.LVL168
 9453 0863 0100     		.2byte	0x1
 9454 0865 54       		.byte	0x54
 9455 0866 E8030000 		.4byte	.LVL169
 9456 086a 44040000 		.4byte	.LVL177
 9457 086e 0100     		.2byte	0x1
 9458 0870 54       		.byte	0x54
 9459 0871 48040000 		.4byte	.LVL178
 9460 0875 12060000 		.4byte	.LVL221
 9461 0879 0100     		.2byte	0x1
 9462 087b 54       		.byte	0x54
 9463 087c 12060000 		.4byte	.LVL221
 9464 0880 40060000 		.4byte	.LVL225
 9465 0884 0100     		.2byte	0x1
 9466 0886 58       		.byte	0x58
 9467 0887 40060000 		.4byte	.LVL225
 9468 088b 36090000 		.4byte	.LVL319
 9469 088f 0100     		.2byte	0x1
 9470 0891 54       		.byte	0x54
 9471 0892 36090000 		.4byte	.LVL319
 9472 0896 42090000 		.4byte	.LVL323
 9473 089a 0100     		.2byte	0x1
 9474 089c 58       		.byte	0x58
 9475 089d 42090000 		.4byte	.LVL323
 9476 08a1 68090000 		.4byte	.LVL327
 9477 08a5 0100     		.2byte	0x1
 9478 08a7 54       		.byte	0x54
 9479 08a8 68090000 		.4byte	.LVL327
 9480 08ac 6E090000 		.4byte	.LVL328
 9481 08b0 0100     		.2byte	0x1
 9482 08b2 58       		.byte	0x58
 9483 08b3 6E090000 		.4byte	.LVL328
 9484 08b7 2E0A0000 		.4byte	.LVL360
 9485 08bb 0100     		.2byte	0x1
 9486 08bd 54       		.byte	0x54
 9487 08be 2E0A0000 		.4byte	.LVL360
 9488 08c2 3E0A0000 		.4byte	.LVL362
 9489 08c6 0100     		.2byte	0x1
 9490 08c8 58       		.byte	0x58
 9491 08c9 3E0A0000 		.4byte	.LVL362
 9492 08cd 580A0000 		.4byte	.LVL364
 9493 08d1 0100     		.2byte	0x1
 9494 08d3 54       		.byte	0x54
 9495 08d4 00000000 		.4byte	0
 9496 08d8 00000000 		.4byte	0
 9497              	.LLST27:
 9498 08dc 64000000 		.4byte	.LVL91
 9499 08e0 76000000 		.4byte	.LVL92
 9500 08e4 0100     		.2byte	0x1
 9501 08e6 5B       		.byte	0x5b
 9502 08e7 76000000 		.4byte	.LVL92
 9503 08eb 85000000 		.4byte	.LVL93-1
 9504 08ef 0100     		.2byte	0x1
 9505 08f1 50       		.byte	0x50
 9506 08f2 9A000000 		.4byte	.LVL95
ARM GAS  C:\Users\AHMED~1.ELE\AppData\Local\Temp\ccbrMpYT.s 			page 223


 9507 08f6 9F000000 		.4byte	.LVL96-1
 9508 08fa 0100     		.2byte	0x1
 9509 08fc 50       		.byte	0x50
 9510 08fd 9F000000 		.4byte	.LVL96-1
 9511 0901 BE000000 		.4byte	.LVL98
 9512 0905 0100     		.2byte	0x1
 9513 0907 5B       		.byte	0x5b
 9514 0908 C6000000 		.4byte	.LVL99
 9515 090c 0A010000 		.4byte	.LVL100
 9516 0910 0100     		.2byte	0x1
 9517 0912 50       		.byte	0x50
 9518 0913 0A010000 		.4byte	.LVL100
 9519 0917 22010000 		.4byte	.LVL102
 9520 091b 0300     		.2byte	0x3
 9521 091d 77       		.byte	0x77
 9522 091e 7F       		.sleb128 -1
 9523 091f 9F       		.byte	0x9f
 9524 0920 44010000 		.4byte	.LVL108
 9525 0924 51010000 		.4byte	.LVL109-1
 9526 0928 0100     		.2byte	0x1
 9527 092a 50       		.byte	0x50
 9528 092b 51010000 		.4byte	.LVL109-1
 9529 092f 36030000 		.4byte	.LVL148
 9530 0933 0100     		.2byte	0x1
 9531 0935 58       		.byte	0x58
 9532 0936 36030000 		.4byte	.LVL148
 9533 093a 44030000 		.4byte	.LVL150
 9534 093e 0100     		.2byte	0x1
 9535 0940 5B       		.byte	0x5b
 9536 0941 52030000 		.4byte	.LVL152
 9537 0945 68030000 		.4byte	.LVL153
 9538 0949 0100     		.2byte	0x1
 9539 094b 50       		.byte	0x50
 9540 094c 68030000 		.4byte	.LVL153
 9541 0950 84030000 		.4byte	.LVL155
 9542 0954 0100     		.2byte	0x1
 9543 0956 58       		.byte	0x58
 9544 0957 B0030000 		.4byte	.LVL161
 9545 095b CC030000 		.4byte	.LVL164
 9546 095f 0100     		.2byte	0x1
 9547 0961 5B       		.byte	0x5b
 9548 0962 0A040000 		.4byte	.LVL172
 9549 0966 32040000 		.4byte	.LVL174
 9550 096a 0100     		.2byte	0x1
 9551 096c 5B       		.byte	0x5b
 9552 096d 4C040000 		.4byte	.LVL179
 9553 0971 78040000 		.4byte	.LVL184
 9554 0975 0100     		.2byte	0x1
 9555 0977 58       		.byte	0x58
 9556 0978 78040000 		.4byte	.LVL184
 9557 097c 7E040000 		.4byte	.LVL185
 9558 0980 0100     		.2byte	0x1
 9559 0982 50       		.byte	0x50
 9560 0983 7E040000 		.4byte	.LVL185
 9561 0987 A6040000 		.4byte	.LVL190
 9562 098b 0100     		.2byte	0x1
 9563 098d 58       		.byte	0x58
ARM GAS  C:\Users\AHMED~1.ELE\AppData\Local\Temp\ccbrMpYT.s 			page 224


 9564 098e A6040000 		.4byte	.LVL190
 9565 0992 AF040000 		.4byte	.LVL191-1
 9566 0996 0100     		.2byte	0x1
 9567 0998 50       		.byte	0x50
 9568 0999 B8040000 		.4byte	.LVL192
 9569 099d CC040000 		.4byte	.LVL198
 9570 09a1 0100     		.2byte	0x1
 9571 09a3 58       		.byte	0x58
 9572 09a4 CC040000 		.4byte	.LVL198
 9573 09a8 0A050000 		.4byte	.LVL200
 9574 09ac 0100     		.2byte	0x1
 9575 09ae 5B       		.byte	0x5b
 9576 09af 0A050000 		.4byte	.LVL200
 9577 09b3 13050000 		.4byte	.LVL201-1
 9578 09b7 0100     		.2byte	0x1
 9579 09b9 50       		.byte	0x50
 9580 09ba 13050000 		.4byte	.LVL201-1
 9581 09be 1C050000 		.4byte	.LVL202
 9582 09c2 0300     		.2byte	0x3
 9583 09c4 77       		.byte	0x77
 9584 09c5 7F       		.sleb128 -1
 9585 09c6 9F       		.byte	0x9f
 9586 09c7 1C050000 		.4byte	.LVL202
 9587 09cb 30050000 		.4byte	.LVL204
 9588 09cf 0100     		.2byte	0x1
 9589 09d1 58       		.byte	0x58
 9590 09d2 30050000 		.4byte	.LVL204
 9591 09d6 38050000 		.4byte	.LVL205
 9592 09da 0100     		.2byte	0x1
 9593 09dc 5B       		.byte	0x5b
 9594 09dd 40050000 		.4byte	.LVL206
 9595 09e1 65050000 		.4byte	.LVL207-1
 9596 09e5 0100     		.2byte	0x1
 9597 09e7 50       		.byte	0x50
 9598 09e8 6C050000 		.4byte	.LVL208
 9599 09ec 8E050000 		.4byte	.LVL210
 9600 09f0 0100     		.2byte	0x1
 9601 09f2 5B       		.byte	0x5b
 9602 09f3 8E050000 		.4byte	.LVL210
 9603 09f7 92050000 		.4byte	.LVL211
 9604 09fb 0100     		.2byte	0x1
 9605 09fd 50       		.byte	0x50
 9606 09fe 92050000 		.4byte	.LVL211
 9607 0a02 B2050000 		.4byte	.LVL214
 9608 0a06 0100     		.2byte	0x1
 9609 0a08 5B       		.byte	0x5b
 9610 0a09 B2050000 		.4byte	.LVL214
 9611 0a0d B4050000 		.4byte	.LVL215
 9612 0a11 0100     		.2byte	0x1
 9613 0a13 50       		.byte	0x50
 9614 0a14 B4050000 		.4byte	.LVL215
 9615 0a18 DC050000 		.4byte	.LVL216
 9616 0a1c 0300     		.2byte	0x3
 9617 0a1e 09       		.byte	0x9
 9618 0a1f FF       		.byte	0xff
 9619 0a20 9F       		.byte	0x9f
 9620 0a21 DC050000 		.4byte	.LVL216
ARM GAS  C:\Users\AHMED~1.ELE\AppData\Local\Temp\ccbrMpYT.s 			page 225


 9621 0a25 0C060000 		.4byte	.LVL219
 9622 0a29 0100     		.2byte	0x1
 9623 0a2b 5B       		.byte	0x5b
 9624 0a2c 0C060000 		.4byte	.LVL219
 9625 0a30 0E060000 		.4byte	.LVL220
 9626 0a34 0100     		.2byte	0x1
 9627 0a36 50       		.byte	0x50
 9628 0a37 0E060000 		.4byte	.LVL220
 9629 0a3b 60060000 		.4byte	.LVL227
 9630 0a3f 0100     		.2byte	0x1
 9631 0a41 5B       		.byte	0x5b
 9632 0a42 66060000 		.4byte	.LVL229
 9633 0a46 A0060000 		.4byte	.LVL236
 9634 0a4a 0100     		.2byte	0x1
 9635 0a4c 5B       		.byte	0x5b
 9636 0a4d E4080000 		.4byte	.LVL312
 9637 0a51 F8080000 		.4byte	.LVL314
 9638 0a55 0100     		.2byte	0x1
 9639 0a57 5B       		.byte	0x5b
 9640 0a58 F8080000 		.4byte	.LVL314
 9641 0a5c FE080000 		.4byte	.LVL315
 9642 0a60 0100     		.2byte	0x1
 9643 0a62 50       		.byte	0x50
 9644 0a63 FE080000 		.4byte	.LVL315
 9645 0a67 03090000 		.4byte	.LVL316-1
 9646 0a6b 0100     		.2byte	0x1
 9647 0a6d 51       		.byte	0x51
 9648 0a6e 30090000 		.4byte	.LVL318
 9649 0a72 3A090000 		.4byte	.LVL320
 9650 0a76 0100     		.2byte	0x1
 9651 0a78 5B       		.byte	0x5b
 9652 0a79 42090000 		.4byte	.LVL323
 9653 0a7d 68090000 		.4byte	.LVL327
 9654 0a81 0100     		.2byte	0x1
 9655 0a83 5B       		.byte	0x5b
 9656 0a84 6E090000 		.4byte	.LVL328
 9657 0a88 80090000 		.4byte	.LVL332
 9658 0a8c 0300     		.2byte	0x3
 9659 0a8e 77       		.byte	0x77
 9660 0a8f 7F       		.sleb128 -1
 9661 0a90 9F       		.byte	0x9f
 9662 0a91 80090000 		.4byte	.LVL332
 9663 0a95 82090000 		.4byte	.LVL333
 9664 0a99 0100     		.2byte	0x1
 9665 0a9b 50       		.byte	0x50
 9666 0a9c 88090000 		.4byte	.LVL335
 9667 0aa0 92090000 		.4byte	.LVL337
 9668 0aa4 0100     		.2byte	0x1
 9669 0aa6 58       		.byte	0x58
 9670 0aa7 AC090000 		.4byte	.LVL340
 9671 0aab AE090000 		.4byte	.LVL341
 9672 0aaf 0100     		.2byte	0x1
 9673 0ab1 50       		.byte	0x50
 9674 0ab2 AE090000 		.4byte	.LVL341
 9675 0ab6 B0090000 		.4byte	.LVL342
 9676 0aba 0100     		.2byte	0x1
 9677 0abc 58       		.byte	0x58
ARM GAS  C:\Users\AHMED~1.ELE\AppData\Local\Temp\ccbrMpYT.s 			page 226


 9678 0abd BA090000 		.4byte	.LVL344
 9679 0ac1 BC090000 		.4byte	.LVL345
 9680 0ac5 0100     		.2byte	0x1
 9681 0ac7 50       		.byte	0x50
 9682 0ac8 BC090000 		.4byte	.LVL345
 9683 0acc BE090000 		.4byte	.LVL346
 9684 0ad0 0300     		.2byte	0x3
 9685 0ad2 71       		.byte	0x71
 9686 0ad3 7F       		.sleb128 -1
 9687 0ad4 9F       		.byte	0x9f
 9688 0ad5 BE090000 		.4byte	.LVL346
 9689 0ad9 CC090000 		.4byte	.LVL347
 9690 0add 0100     		.2byte	0x1
 9691 0adf 50       		.byte	0x50
 9692 0ae0 CC090000 		.4byte	.LVL347
 9693 0ae4 CE090000 		.4byte	.LVL348
 9694 0ae8 0300     		.2byte	0x3
 9695 0aea 71       		.byte	0x71
 9696 0aeb 7F       		.sleb128 -1
 9697 0aec 9F       		.byte	0x9f
 9698 0aed E2090000 		.4byte	.LVL351
 9699 0af1 FC090000 		.4byte	.LVL353
 9700 0af5 0300     		.2byte	0x3
 9701 0af7 08       		.byte	0x8
 9702 0af8 3E       		.byte	0x3e
 9703 0af9 9F       		.byte	0x9f
 9704 0afa 160A0000 		.4byte	.LVL356
 9705 0afe 220A0000 		.4byte	.LVL358
 9706 0b02 0300     		.2byte	0x3
 9707 0b04 08       		.byte	0x8
 9708 0b05 3E       		.byte	0x3e
 9709 0b06 9F       		.byte	0x9f
 9710 0b07 3E0A0000 		.4byte	.LVL362
 9711 0b0b 4C0A0000 		.4byte	.LVL363
 9712 0b0f 0100     		.2byte	0x1
 9713 0b11 58       		.byte	0x58
 9714 0b12 4C0A0000 		.4byte	.LVL363
 9715 0b16 580A0000 		.4byte	.LVL364
 9716 0b1a 0100     		.2byte	0x1
 9717 0b1c 5B       		.byte	0x5b
 9718 0b1d 00000000 		.4byte	0
 9719 0b21 00000000 		.4byte	0
 9720              	.LLST28:
 9721 0b25 2E000000 		.4byte	.LVL86
 9722 0b29 64000000 		.4byte	.LVL91
 9723 0b2d 0200     		.2byte	0x2
 9724 0b2f 30       		.byte	0x30
 9725 0b30 9F       		.byte	0x9f
 9726 0b31 64000000 		.4byte	.LVL91
 9727 0b35 32010000 		.4byte	.LVL105
 9728 0b39 0200     		.2byte	0x2
 9729 0b3b 7D       		.byte	0x7d
 9730 0b3c 00       		.sleb128 0
 9731 0b3d 36010000 		.4byte	.LVL106
 9732 0b41 54020000 		.4byte	.LVL128
 9733 0b45 0200     		.2byte	0x2
 9734 0b47 7D       		.byte	0x7d
ARM GAS  C:\Users\AHMED~1.ELE\AppData\Local\Temp\ccbrMpYT.s 			page 227


 9735 0b48 00       		.sleb128 0
 9736 0b49 56020000 		.4byte	.LVL129
 9737 0b4d F4020000 		.4byte	.LVL139
 9738 0b51 0200     		.2byte	0x2
 9739 0b53 7D       		.byte	0x7d
 9740 0b54 00       		.sleb128 0
 9741 0b55 36030000 		.4byte	.LVL148
 9742 0b59 90030000 		.4byte	.LVL157
 9743 0b5d 0200     		.2byte	0x2
 9744 0b5f 7D       		.byte	0x7d
 9745 0b60 00       		.sleb128 0
 9746 0b61 0A040000 		.4byte	.LVL172
 9747 0b65 32040000 		.4byte	.LVL174
 9748 0b69 0200     		.2byte	0x2
 9749 0b6b 7D       		.byte	0x7d
 9750 0b6c 00       		.sleb128 0
 9751 0b6d 4C040000 		.4byte	.LVL179
 9752 0b71 54040000 		.4byte	.LVL180
 9753 0b75 0200     		.2byte	0x2
 9754 0b77 7D       		.byte	0x7d
 9755 0b78 00       		.sleb128 0
 9756 0b79 54040000 		.4byte	.LVL180
 9757 0b7d 5E040000 		.4byte	.LVL181
 9758 0b81 0200     		.2byte	0x2
 9759 0b83 31       		.byte	0x31
 9760 0b84 9F       		.byte	0x9f
 9761 0b85 68040000 		.4byte	.LVL182
 9762 0b89 6E040000 		.4byte	.LVL183
 9763 0b8d 0200     		.2byte	0x2
 9764 0b8f 7D       		.byte	0x7d
 9765 0b90 00       		.sleb128 0
 9766 0b91 7E040000 		.4byte	.LVL185
 9767 0b95 8A040000 		.4byte	.LVL186
 9768 0b99 0200     		.2byte	0x2
 9769 0b9b 7D       		.byte	0x7d
 9770 0b9c 00       		.sleb128 0
 9771 0b9d B8040000 		.4byte	.LVL192
 9772 0ba1 BC040000 		.4byte	.LVL193
 9773 0ba5 0200     		.2byte	0x2
 9774 0ba7 7D       		.byte	0x7d
 9775 0ba8 00       		.sleb128 0
 9776 0ba9 C6040000 		.4byte	.LVL197
 9777 0bad A0060000 		.4byte	.LVL236
 9778 0bb1 0200     		.2byte	0x2
 9779 0bb3 7D       		.byte	0x7d
 9780 0bb4 00       		.sleb128 0
 9781 0bb5 E4080000 		.4byte	.LVL312
 9782 0bb9 30090000 		.4byte	.LVL318
 9783 0bbd 0200     		.2byte	0x2
 9784 0bbf 7D       		.byte	0x7d
 9785 0bc0 00       		.sleb128 0
 9786 0bc1 6E090000 		.4byte	.LVL328
 9787 0bc5 3E0A0000 		.4byte	.LVL362
 9788 0bc9 0200     		.2byte	0x2
 9789 0bcb 7D       		.byte	0x7d
 9790 0bcc 00       		.sleb128 0
 9791 0bcd 3E0A0000 		.4byte	.LVL362
ARM GAS  C:\Users\AHMED~1.ELE\AppData\Local\Temp\ccbrMpYT.s 			page 228


 9792 0bd1 4C0A0000 		.4byte	.LVL363
 9793 0bd5 0200     		.2byte	0x2
 9794 0bd7 31       		.byte	0x31
 9795 0bd8 9F       		.byte	0x9f
 9796 0bd9 4C0A0000 		.4byte	.LVL363
 9797 0bdd 580A0000 		.4byte	.LVL364
 9798 0be1 0200     		.2byte	0x2
 9799 0be3 7D       		.byte	0x7d
 9800 0be4 00       		.sleb128 0
 9801 0be5 00000000 		.4byte	0
 9802 0be9 00000000 		.4byte	0
 9803              	.LLST29:
 9804 0bed 44000000 		.4byte	.LVL88
 9805 0bf1 46000000 		.4byte	.LVL89
 9806 0bf5 0100     		.2byte	0x1
 9807 0bf7 59       		.byte	0x59
 9808 0bf8 64000000 		.4byte	.LVL91
 9809 0bfc 44040000 		.4byte	.LVL177
 9810 0c00 0100     		.2byte	0x1
 9811 0c02 59       		.byte	0x59
 9812 0c03 48040000 		.4byte	.LVL178
 9813 0c07 3A0A0000 		.4byte	.LVL361
 9814 0c0b 0100     		.2byte	0x1
 9815 0c0d 59       		.byte	0x59
 9816 0c0e 3E0A0000 		.4byte	.LVL362
 9817 0c12 580A0000 		.4byte	.LVL364
 9818 0c16 0100     		.2byte	0x1
 9819 0c18 59       		.byte	0x59
 9820 0c19 00000000 		.4byte	0
 9821 0c1d 00000000 		.4byte	0
 9822              	.LLST30:
 9823 0c21 16000000 		.4byte	.LVL82
 9824 0c25 18000000 		.4byte	.LVL83
 9825 0c29 0100     		.2byte	0x1
 9826 0c2b 50       		.byte	0x50
 9827 0c2c 18000000 		.4byte	.LVL83
 9828 0c30 64000000 		.4byte	.LVL91
 9829 0c34 0300     		.2byte	0x3
 9830 0c36 91       		.byte	0x91
 9831 0c37 AC7F     		.sleb128 -84
 9832 0c39 00000000 		.4byte	0
 9833 0c3d 00000000 		.4byte	0
 9834              	.LLST31:
 9835 0c41 90030000 		.4byte	.LVL157
 9836 0c45 B0030000 		.4byte	.LVL161
 9837 0c49 0600     		.2byte	0x6
 9838 0c4b 03       		.byte	0x3
 9839 0c4c 00000000 		.4byte	mxml_string_getc
 9840 0c50 9F       		.byte	0x9f
 9841 0c51 72060000 		.4byte	.LVL232
 9842 0c55 E4080000 		.4byte	.LVL312
 9843 0c59 0600     		.2byte	0x6
 9844 0c5b 03       		.byte	0x3
 9845 0c5c 00000000 		.4byte	mxml_string_getc
 9846 0c60 9F       		.byte	0x9f
 9847 0c61 00000000 		.4byte	0
 9848 0c65 00000000 		.4byte	0
ARM GAS  C:\Users\AHMED~1.ELE\AppData\Local\Temp\ccbrMpYT.s 			page 229


 9849              	.LLST32:
 9850 0c69 90030000 		.4byte	.LVL157
 9851 0c6d B0030000 		.4byte	.LVL161
 9852 0c71 0300     		.2byte	0x3
 9853 0c73 91       		.byte	0x91
 9854 0c74 40       		.sleb128 -64
 9855 0c75 9F       		.byte	0x9f
 9856 0c76 72060000 		.4byte	.LVL232
 9857 0c7a A4060000 		.4byte	.LVL237
 9858 0c7e 0300     		.2byte	0x3
 9859 0c80 91       		.byte	0x91
 9860 0c81 40       		.sleb128 -64
 9861 0c82 9F       		.byte	0x9f
 9862 0c83 A4060000 		.4byte	.LVL237
 9863 0c87 A7060000 		.4byte	.LVL238-1
 9864 0c8b 0100     		.2byte	0x1
 9865 0c8d 51       		.byte	0x51
 9866 0c8e A7060000 		.4byte	.LVL238-1
 9867 0c92 C4060000 		.4byte	.LVL241
 9868 0c96 0300     		.2byte	0x3
 9869 0c98 91       		.byte	0x91
 9870 0c99 40       		.sleb128 -64
 9871 0c9a 9F       		.byte	0x9f
 9872 0c9b C4060000 		.4byte	.LVL241
 9873 0c9f C7060000 		.4byte	.LVL242-1
 9874 0ca3 0100     		.2byte	0x1
 9875 0ca5 51       		.byte	0x51
 9876 0ca6 C7060000 		.4byte	.LVL242-1
 9877 0caa 28070000 		.4byte	.LVL250
 9878 0cae 0300     		.2byte	0x3
 9879 0cb0 91       		.byte	0x91
 9880 0cb1 40       		.sleb128 -64
 9881 0cb2 9F       		.byte	0x9f
 9882 0cb3 28070000 		.4byte	.LVL250
 9883 0cb7 2B070000 		.4byte	.LVL251-1
 9884 0cbb 0100     		.2byte	0x1
 9885 0cbd 51       		.byte	0x51
 9886 0cbe 2B070000 		.4byte	.LVL251-1
 9887 0cc2 3C070000 		.4byte	.LVL254
 9888 0cc6 0300     		.2byte	0x3
 9889 0cc8 91       		.byte	0x91
 9890 0cc9 40       		.sleb128 -64
 9891 0cca 9F       		.byte	0x9f
 9892 0ccb 3C070000 		.4byte	.LVL254
 9893 0ccf 3F070000 		.4byte	.LVL255-1
 9894 0cd3 0100     		.2byte	0x1
 9895 0cd5 52       		.byte	0x52
 9896 0cd6 3F070000 		.4byte	.LVL255-1
 9897 0cda 7A070000 		.4byte	.LVL259
 9898 0cde 0300     		.2byte	0x3
 9899 0ce0 91       		.byte	0x91
 9900 0ce1 40       		.sleb128 -64
 9901 0ce2 9F       		.byte	0x9f
 9902 0ce3 7A070000 		.4byte	.LVL259
 9903 0ce7 7D070000 		.4byte	.LVL260-1
 9904 0ceb 0100     		.2byte	0x1
 9905 0ced 51       		.byte	0x51
ARM GAS  C:\Users\AHMED~1.ELE\AppData\Local\Temp\ccbrMpYT.s 			page 230


 9906 0cee 7D070000 		.4byte	.LVL260-1
 9907 0cf2 8C070000 		.4byte	.LVL263
 9908 0cf6 0300     		.2byte	0x3
 9909 0cf8 91       		.byte	0x91
 9910 0cf9 40       		.sleb128 -64
 9911 0cfa 9F       		.byte	0x9f
 9912 0cfb 8C070000 		.4byte	.LVL263
 9913 0cff 93070000 		.4byte	.LVL264-1
 9914 0d03 0100     		.2byte	0x1
 9915 0d05 52       		.byte	0x52
 9916 0d06 93070000 		.4byte	.LVL264-1
 9917 0d0a C2070000 		.4byte	.LVL269
 9918 0d0e 0300     		.2byte	0x3
 9919 0d10 91       		.byte	0x91
 9920 0d11 40       		.sleb128 -64
 9921 0d12 9F       		.byte	0x9f
 9922 0d13 C2070000 		.4byte	.LVL269
 9923 0d17 C5070000 		.4byte	.LVL270-1
 9924 0d1b 0100     		.2byte	0x1
 9925 0d1d 51       		.byte	0x51
 9926 0d1e C5070000 		.4byte	.LVL270-1
 9927 0d22 D2070000 		.4byte	.LVL274
 9928 0d26 0300     		.2byte	0x3
 9929 0d28 91       		.byte	0x91
 9930 0d29 40       		.sleb128 -64
 9931 0d2a 9F       		.byte	0x9f
 9932 0d2b D2070000 		.4byte	.LVL274
 9933 0d2f D5070000 		.4byte	.LVL275-1
 9934 0d33 0100     		.2byte	0x1
 9935 0d35 51       		.byte	0x51
 9936 0d36 D5070000 		.4byte	.LVL275-1
 9937 0d3a FC070000 		.4byte	.LVL280
 9938 0d3e 0300     		.2byte	0x3
 9939 0d40 91       		.byte	0x91
 9940 0d41 40       		.sleb128 -64
 9941 0d42 9F       		.byte	0x9f
 9942 0d43 FC070000 		.4byte	.LVL280
 9943 0d47 FF070000 		.4byte	.LVL281-1
 9944 0d4b 0100     		.2byte	0x1
 9945 0d4d 51       		.byte	0x51
 9946 0d4e FF070000 		.4byte	.LVL281-1
 9947 0d52 0E080000 		.4byte	.LVL282
 9948 0d56 0300     		.2byte	0x3
 9949 0d58 91       		.byte	0x91
 9950 0d59 40       		.sleb128 -64
 9951 0d5a 9F       		.byte	0x9f
 9952 0d5b 0E080000 		.4byte	.LVL282
 9953 0d5f 15080000 		.4byte	.LVL284-1
 9954 0d63 0100     		.2byte	0x1
 9955 0d65 52       		.byte	0x52
 9956 0d66 15080000 		.4byte	.LVL284-1
 9957 0d6a 3A080000 		.4byte	.LVL289
 9958 0d6e 0300     		.2byte	0x3
 9959 0d70 91       		.byte	0x91
 9960 0d71 40       		.sleb128 -64
 9961 0d72 9F       		.byte	0x9f
 9962 0d73 3A080000 		.4byte	.LVL289
ARM GAS  C:\Users\AHMED~1.ELE\AppData\Local\Temp\ccbrMpYT.s 			page 231


 9963 0d77 3F080000 		.4byte	.LVL290-1
 9964 0d7b 0100     		.2byte	0x1
 9965 0d7d 51       		.byte	0x51
 9966 0d7e 3F080000 		.4byte	.LVL290-1
 9967 0d82 62080000 		.4byte	.LVL293
 9968 0d86 0300     		.2byte	0x3
 9969 0d88 91       		.byte	0x91
 9970 0d89 40       		.sleb128 -64
 9971 0d8a 9F       		.byte	0x9f
 9972 0d8b 62080000 		.4byte	.LVL293
 9973 0d8f 65080000 		.4byte	.LVL294-1
 9974 0d93 0100     		.2byte	0x1
 9975 0d95 52       		.byte	0x52
 9976 0d96 65080000 		.4byte	.LVL294-1
 9977 0d9a 9A080000 		.4byte	.LVL301
 9978 0d9e 0300     		.2byte	0x3
 9979 0da0 91       		.byte	0x91
 9980 0da1 40       		.sleb128 -64
 9981 0da2 9F       		.byte	0x9f
 9982 0da3 9A080000 		.4byte	.LVL301
 9983 0da7 9D080000 		.4byte	.LVL302-1
 9984 0dab 0100     		.2byte	0x1
 9985 0dad 51       		.byte	0x51
 9986 0dae 9D080000 		.4byte	.LVL302-1
 9987 0db2 E4080000 		.4byte	.LVL312
 9988 0db6 0300     		.2byte	0x3
 9989 0db8 91       		.byte	0x91
 9990 0db9 40       		.sleb128 -64
 9991 0dba 9F       		.byte	0x9f
 9992 0dbb 00000000 		.4byte	0
 9993 0dbf 00000000 		.4byte	0
 9994              	.LLST33:
 9995 0dc3 90030000 		.4byte	.LVL157
 9996 0dc7 B0030000 		.4byte	.LVL161
 9997 0dcb 0100     		.2byte	0x1
 9998 0dcd 58       		.byte	0x58
 9999 0dce 72060000 		.4byte	.LVL232
 10000 0dd2 E4080000 		.4byte	.LVL312
 10001 0dd6 0100     		.2byte	0x1
 10002 0dd8 58       		.byte	0x58
 10003 0dd9 00000000 		.4byte	0
 10004 0ddd 00000000 		.4byte	0
 10005              	.LLST34:
 10006 0de1 90030000 		.4byte	.LVL157
 10007 0de5 9A030000 		.4byte	.LVL158
 10008 0de9 0100     		.2byte	0x1
 10009 0deb 57       		.byte	0x57
 10010 0dec 9A030000 		.4byte	.LVL158
 10011 0df0 B0030000 		.4byte	.LVL161
 10012 0df4 0100     		.2byte	0x1
 10013 0df6 5B       		.byte	0x5b
 10014 0df7 AC060000 		.4byte	.LVL239
 10015 0dfb B3060000 		.4byte	.LVL240-1
 10016 0dff 0100     		.2byte	0x1
 10017 0e01 50       		.byte	0x50
 10018 0e02 B3060000 		.4byte	.LVL240-1
 10019 0e06 08070000 		.4byte	.LVL247
ARM GAS  C:\Users\AHMED~1.ELE\AppData\Local\Temp\ccbrMpYT.s 			page 232


 10020 0e0a 0100     		.2byte	0x1
 10021 0e0c 57       		.byte	0x57
 10022 0e0d 08070000 		.4byte	.LVL247
 10023 0e11 19070000 		.4byte	.LVL248-1
 10024 0e15 0100     		.2byte	0x1
 10025 0e17 50       		.byte	0x50
 10026 0e18 19070000 		.4byte	.LVL248-1
 10027 0e1c 24070000 		.4byte	.LVL249
 10028 0e20 0100     		.2byte	0x1
 10029 0e22 5B       		.byte	0x5b
 10030 0e23 32070000 		.4byte	.LVL252
 10031 0e27 38070000 		.4byte	.LVL253
 10032 0e2b 0100     		.2byte	0x1
 10033 0e2d 50       		.byte	0x50
 10034 0e2e 38070000 		.4byte	.LVL253
 10035 0e32 46070000 		.4byte	.LVL256
 10036 0e36 0100     		.2byte	0x1
 10037 0e38 5B       		.byte	0x5b
 10038 0e39 46070000 		.4byte	.LVL256
 10039 0e3d 4D070000 		.4byte	.LVL257-1
 10040 0e41 0100     		.2byte	0x1
 10041 0e43 50       		.byte	0x50
 10042 0e44 4D070000 		.4byte	.LVL257-1
 10043 0e48 82070000 		.4byte	.LVL261
 10044 0e4c 0100     		.2byte	0x1
 10045 0e4e 57       		.byte	0x57
 10046 0e4f 82070000 		.4byte	.LVL261
 10047 0e53 8A070000 		.4byte	.LVL262
 10048 0e57 0100     		.2byte	0x1
 10049 0e59 50       		.byte	0x50
 10050 0e5a 8A070000 		.4byte	.LVL262
 10051 0e5e 98070000 		.4byte	.LVL265
 10052 0e62 0100     		.2byte	0x1
 10053 0e64 57       		.byte	0x57
 10054 0e65 98070000 		.4byte	.LVL265
 10055 0e69 9C070000 		.4byte	.LVL266
 10056 0e6d 0100     		.2byte	0x1
 10057 0e6f 50       		.byte	0x50
 10058 0e70 9C070000 		.4byte	.LVL266
 10059 0e74 C8070000 		.4byte	.LVL271
 10060 0e78 0100     		.2byte	0x1
 10061 0e7a 57       		.byte	0x57
 10062 0e7b C8070000 		.4byte	.LVL271
 10063 0e7f CA070000 		.4byte	.LVL272
 10064 0e83 0100     		.2byte	0x1
 10065 0e85 50       		.byte	0x50
 10066 0e86 CA070000 		.4byte	.LVL272
 10067 0e8a CE070000 		.4byte	.LVL273
 10068 0e8e 0100     		.2byte	0x1
 10069 0e90 57       		.byte	0x57
 10070 0e91 DC070000 		.4byte	.LVL276
 10071 0e95 E1070000 		.4byte	.LVL277-1
 10072 0e99 0100     		.2byte	0x1
 10073 0e9b 50       		.byte	0x50
 10074 0e9c E1070000 		.4byte	.LVL277-1
 10075 0ea0 F8070000 		.4byte	.LVL279
 10076 0ea4 0100     		.2byte	0x1
ARM GAS  C:\Users\AHMED~1.ELE\AppData\Local\Temp\ccbrMpYT.s 			page 233


 10077 0ea6 5B       		.byte	0x5b
 10078 0ea7 00080000 		.4byte	.LVL281
 10079 0eab 10080000 		.4byte	.LVL283
 10080 0eaf 0100     		.2byte	0x1
 10081 0eb1 50       		.byte	0x50
 10082 0eb2 10080000 		.4byte	.LVL283
 10083 0eb6 15080000 		.4byte	.LVL284-1
 10084 0eba 0300     		.2byte	0x3
 10085 0ebc 73       		.byte	0x73
 10086 0ebd 7F       		.sleb128 -1
 10087 0ebe 9F       		.byte	0x9f
 10088 0ebf 16080000 		.4byte	.LVL284
 10089 0ec3 23080000 		.4byte	.LVL285-1
 10090 0ec7 0100     		.2byte	0x1
 10091 0ec9 50       		.byte	0x50
 10092 0eca 2A080000 		.4byte	.LVL286
 10093 0ece 2E080000 		.4byte	.LVL288
 10094 0ed2 0100     		.2byte	0x1
 10095 0ed4 50       		.byte	0x50
 10096 0ed5 2E080000 		.4byte	.LVL288
 10097 0ed9 44080000 		.4byte	.LVL291
 10098 0edd 0100     		.2byte	0x1
 10099 0edf 57       		.byte	0x57
 10100 0ee0 44080000 		.4byte	.LVL291
 10101 0ee4 49080000 		.4byte	.LVL292-1
 10102 0ee8 0100     		.2byte	0x1
 10103 0eea 50       		.byte	0x50
 10104 0eeb 49080000 		.4byte	.LVL292-1
 10105 0eef 68080000 		.4byte	.LVL295
 10106 0ef3 0100     		.2byte	0x1
 10107 0ef5 57       		.byte	0x57
 10108 0ef6 68080000 		.4byte	.LVL295
 10109 0efa 6A080000 		.4byte	.LVL296
 10110 0efe 0100     		.2byte	0x1
 10111 0f00 50       		.byte	0x50
 10112 0f01 6A080000 		.4byte	.LVL296
 10113 0f05 7E080000 		.4byte	.LVL298
 10114 0f09 0100     		.2byte	0x1
 10115 0f0b 57       		.byte	0x57
 10116 0f0c 86080000 		.4byte	.LVL299
 10117 0f10 B4080000 		.4byte	.LVL305
 10118 0f14 0100     		.2byte	0x1
 10119 0f16 57       		.byte	0x57
 10120 0f17 B4080000 		.4byte	.LVL305
 10121 0f1b BA080000 		.4byte	.LVL306
 10122 0f1f 0300     		.2byte	0x3
 10123 0f21 09       		.byte	0x9
 10124 0f22 FF       		.byte	0xff
 10125 0f23 9F       		.byte	0x9f
 10126 0f24 BA080000 		.4byte	.LVL306
 10127 0f28 C2080000 		.4byte	.LVL307
 10128 0f2c 0100     		.2byte	0x1
 10129 0f2e 57       		.byte	0x57
 10130 0f2f C2080000 		.4byte	.LVL307
 10131 0f33 C6080000 		.4byte	.LVL308
 10132 0f37 0100     		.2byte	0x1
 10133 0f39 50       		.byte	0x50
ARM GAS  C:\Users\AHMED~1.ELE\AppData\Local\Temp\ccbrMpYT.s 			page 234


 10134 0f3a 00000000 		.4byte	0
 10135 0f3e 00000000 		.4byte	0
 10136              	.LLST35:
 10137 0f42 CE060000 		.4byte	.LVL243
 10138 0f46 D4060000 		.4byte	.LVL244
 10139 0f4a 0100     		.2byte	0x1
 10140 0f4c 50       		.byte	0x50
 10141 0f4d D4060000 		.4byte	.LVL244
 10142 0f51 DD060000 		.4byte	.LVL245-1
 10143 0f55 0100     		.2byte	0x1
 10144 0f57 53       		.byte	0x53
 10145 0f58 F6070000 		.4byte	.LVL278
 10146 0f5c 2A080000 		.4byte	.LVL286
 10147 0f60 0100     		.2byte	0x1
 10148 0f62 5B       		.byte	0x5b
 10149 0f63 2A080000 		.4byte	.LVL286
 10150 0f67 2C080000 		.4byte	.LVL287
 10151 0f6b 0100     		.2byte	0x1
 10152 0f6d 57       		.byte	0x57
 10153 0f6e 2C080000 		.4byte	.LVL287
 10154 0f72 2E080000 		.4byte	.LVL288
 10155 0f76 0100     		.2byte	0x1
 10156 0f78 5B       		.byte	0x5b
 10157 0f79 A4080000 		.4byte	.LVL303
 10158 0f7d AA080000 		.4byte	.LVL304
 10159 0f81 0100     		.2byte	0x1
 10160 0f83 50       		.byte	0x50
 10161 0f84 AA080000 		.4byte	.LVL304
 10162 0f88 B3080000 		.4byte	.LVL305-1
 10163 0f8c 0100     		.2byte	0x1
 10164 0f8e 53       		.byte	0x53
 10165 0f8f 00000000 		.4byte	0
 10166 0f93 00000000 		.4byte	0
 10167              	.LLST36:
 10168 0f97 00000000 		.4byte	.LVL366
 10169 0f9b 11000000 		.4byte	.LVL368-1
 10170 0f9f 0100     		.2byte	0x1
 10171 0fa1 50       		.byte	0x50
 10172 0fa2 11000000 		.4byte	.LVL368-1
 10173 0fa6 16000000 		.4byte	.LFE2
 10174 0faa 0400     		.2byte	0x4
 10175 0fac F3       		.byte	0xf3
 10176 0fad 01       		.uleb128 0x1
 10177 0fae 50       		.byte	0x50
 10178 0faf 9F       		.byte	0x9f
 10179 0fb0 00000000 		.4byte	0
 10180 0fb4 00000000 		.4byte	0
 10181              	.LLST37:
 10182 0fb8 00000000 		.4byte	.LVL366
 10183 0fbc 0E000000 		.4byte	.LVL367
 10184 0fc0 0100     		.2byte	0x1
 10185 0fc2 51       		.byte	0x51
 10186 0fc3 0E000000 		.4byte	.LVL367
 10187 0fc7 11000000 		.4byte	.LVL368-1
 10188 0fcb 0200     		.2byte	0x2
 10189 0fcd 71       		.byte	0x71
 10190 0fce 00       		.sleb128 0
ARM GAS  C:\Users\AHMED~1.ELE\AppData\Local\Temp\ccbrMpYT.s 			page 235


 10191 0fcf 11000000 		.4byte	.LVL368-1
 10192 0fd3 16000000 		.4byte	.LFE2
 10193 0fd7 0200     		.2byte	0x2
 10194 0fd9 74       		.byte	0x74
 10195 0fda 00       		.sleb128 0
 10196 0fdb 00000000 		.4byte	0
 10197 0fdf 00000000 		.4byte	0
 10198              	.LLST38:
 10199 0fe3 00000000 		.4byte	.LVL366
 10200 0fe7 11000000 		.4byte	.LVL368-1
 10201 0feb 0100     		.2byte	0x1
 10202 0fed 52       		.byte	0x52
 10203 0fee 11000000 		.4byte	.LVL368-1
 10204 0ff2 16000000 		.4byte	.LFE2
 10205 0ff6 0400     		.2byte	0x4
 10206 0ff8 F3       		.byte	0xf3
 10207 0ff9 01       		.uleb128 0x1
 10208 0ffa 52       		.byte	0x52
 10209 0ffb 9F       		.byte	0x9f
 10210 0ffc 00000000 		.4byte	0
 10211 1000 00000000 		.4byte	0
 10212              	.LLST39:
 10213 1004 00000000 		.4byte	.LVL369
 10214 1008 11000000 		.4byte	.LVL371-1
 10215 100c 0100     		.2byte	0x1
 10216 100e 50       		.byte	0x50
 10217 100f 11000000 		.4byte	.LVL371-1
 10218 1013 16000000 		.4byte	.LFE3
 10219 1017 0400     		.2byte	0x4
 10220 1019 F3       		.byte	0xf3
 10221 101a 01       		.uleb128 0x1
 10222 101b 50       		.byte	0x50
 10223 101c 9F       		.byte	0x9f
 10224 101d 00000000 		.4byte	0
 10225 1021 00000000 		.4byte	0
 10226              	.LLST40:
 10227 1025 00000000 		.4byte	.LVL369
 10228 1029 0A000000 		.4byte	.LVL370
 10229 102d 0100     		.2byte	0x1
 10230 102f 51       		.byte	0x51
 10231 1030 0A000000 		.4byte	.LVL370
 10232 1034 16000000 		.4byte	.LFE3
 10233 1038 0200     		.2byte	0x2
 10234 103a 74       		.byte	0x74
 10235 103b 00       		.sleb128 0
 10236 103c 00000000 		.4byte	0
 10237 1040 00000000 		.4byte	0
 10238              	.LLST41:
 10239 1044 00000000 		.4byte	.LVL369
 10240 1048 11000000 		.4byte	.LVL371-1
 10241 104c 0100     		.2byte	0x1
 10242 104e 52       		.byte	0x52
 10243 104f 11000000 		.4byte	.LVL371-1
 10244 1053 16000000 		.4byte	.LFE3
 10245 1057 0400     		.2byte	0x4
 10246 1059 F3       		.byte	0xf3
 10247 105a 01       		.uleb128 0x1
ARM GAS  C:\Users\AHMED~1.ELE\AppData\Local\Temp\ccbrMpYT.s 			page 236


 10248 105b 52       		.byte	0x52
 10249 105c 9F       		.byte	0x9f
 10250 105d 00000000 		.4byte	0
 10251 1061 00000000 		.4byte	0
 10252              	.LLST42:
 10253 1065 00000000 		.4byte	.LVL369
 10254 1069 11000000 		.4byte	.LVL371-1
 10255 106d 0100     		.2byte	0x1
 10256 106f 53       		.byte	0x53
 10257 1070 11000000 		.4byte	.LVL371-1
 10258 1074 16000000 		.4byte	.LFE3
 10259 1078 0400     		.2byte	0x4
 10260 107a F3       		.byte	0xf3
 10261 107b 01       		.uleb128 0x1
 10262 107c 53       		.byte	0x53
 10263 107d 9F       		.byte	0x9f
 10264 107e 00000000 		.4byte	0
 10265 1082 00000000 		.4byte	0
 10266              	.LLST43:
 10267 1086 00000000 		.4byte	.LVL372
 10268 108a 09000000 		.4byte	.LVL373-1
 10269 108e 0100     		.2byte	0x1
 10270 1090 50       		.byte	0x50
 10271 1091 09000000 		.4byte	.LVL373-1
 10272 1095 14000000 		.4byte	.LFE4
 10273 1099 0100     		.2byte	0x1
 10274 109b 55       		.byte	0x55
 10275 109c 00000000 		.4byte	0
 10276 10a0 00000000 		.4byte	0
 10277              	.LLST44:
 10278 10a4 00000000 		.4byte	.LVL372
 10279 10a8 09000000 		.4byte	.LVL373-1
 10280 10ac 0100     		.2byte	0x1
 10281 10ae 51       		.byte	0x51
 10282 10af 09000000 		.4byte	.LVL373-1
 10283 10b3 14000000 		.4byte	.LFE4
 10284 10b7 0100     		.2byte	0x1
 10285 10b9 54       		.byte	0x54
 10286 10ba 00000000 		.4byte	0
 10287 10be 00000000 		.4byte	0
 10288              	.LLST45:
 10289 10c2 00000000 		.4byte	.LVL374
 10290 10c6 07000000 		.4byte	.LVL375-1
 10291 10ca 0100     		.2byte	0x1
 10292 10cc 50       		.byte	0x50
 10293 10cd 07000000 		.4byte	.LVL375-1
 10294 10d1 0C000000 		.4byte	.LFE5
 10295 10d5 0100     		.2byte	0x1
 10296 10d7 54       		.byte	0x54
 10297 10d8 00000000 		.4byte	0
 10298 10dc 00000000 		.4byte	0
 10299              	.LLST46:
 10300 10e0 00000000 		.4byte	.LVL376
 10301 10e4 07000000 		.4byte	.LVL377-1
 10302 10e8 0100     		.2byte	0x1
 10303 10ea 50       		.byte	0x50
 10304 10eb 07000000 		.4byte	.LVL377-1
ARM GAS  C:\Users\AHMED~1.ELE\AppData\Local\Temp\ccbrMpYT.s 			page 237


 10305 10ef 0E000000 		.4byte	.LFE6
 10306 10f3 0100     		.2byte	0x1
 10307 10f5 54       		.byte	0x54
 10308 10f6 00000000 		.4byte	0
 10309 10fa 00000000 		.4byte	0
 10310              		.section	.debug_aranges,"",%progbits
 10311 0000 64000000 		.4byte	0x64
 10312 0004 0200     		.2byte	0x2
 10313 0006 00000000 		.4byte	.Ldebug_info0
 10314 000a 04       		.byte	0x4
 10315 000b 00       		.byte	0
 10316 000c 0000     		.2byte	0
 10317 000e 0000     		.2byte	0
 10318 0010 00000000 		.4byte	.LFB11
 10319 0014 F8010000 		.4byte	.LFE11-.LFB11
 10320 0018 00000000 		.4byte	.LFB7
 10321 001c 00010000 		.4byte	.LFE7-.LFB7
 10322 0020 00000000 		.4byte	.LFB0
 10323 0024 1A000000 		.4byte	.LFE0-.LFB0
 10324 0028 00000000 		.4byte	.LFB13
 10325 002c EC000000 		.4byte	.LFE13-.LFB13
 10326 0030 00000000 		.4byte	.LFB15
 10327 0034 880A0000 		.4byte	.LFE15-.LFB15
 10328 0038 00000000 		.4byte	.LFB2
 10329 003c 16000000 		.4byte	.LFE2-.LFB2
 10330 0040 00000000 		.4byte	.LFB3
 10331 0044 16000000 		.4byte	.LFE3-.LFB3
 10332 0048 00000000 		.4byte	.LFB4
 10333 004c 14000000 		.4byte	.LFE4-.LFB4
 10334 0050 00000000 		.4byte	.LFB5
 10335 0054 0C000000 		.4byte	.LFE5-.LFB5
 10336 0058 00000000 		.4byte	.LFB6
 10337 005c 0E000000 		.4byte	.LFE6-.LFB6
 10338 0060 00000000 		.4byte	0
 10339 0064 00000000 		.4byte	0
 10340              		.section	.debug_ranges,"",%progbits
 10341              	.Ldebug_ranges0:
 10342 0000 90030000 		.4byte	.LBB14
 10343 0004 AA030000 		.4byte	.LBE14
 10344 0008 72060000 		.4byte	.LBB17
 10345 000c E4080000 		.4byte	.LBE17
 10346 0010 00000000 		.4byte	0
 10347 0014 00000000 		.4byte	0
 10348 0018 00000000 		.4byte	.LFB11
 10349 001c F8010000 		.4byte	.LFE11
 10350 0020 00000000 		.4byte	.LFB7
 10351 0024 00010000 		.4byte	.LFE7
 10352 0028 00000000 		.4byte	.LFB0
 10353 002c 1A000000 		.4byte	.LFE0
 10354 0030 00000000 		.4byte	.LFB13
 10355 0034 EC000000 		.4byte	.LFE13
 10356 0038 00000000 		.4byte	.LFB15
 10357 003c 880A0000 		.4byte	.LFE15
 10358 0040 00000000 		.4byte	.LFB2
 10359 0044 16000000 		.4byte	.LFE2
 10360 0048 00000000 		.4byte	.LFB3
 10361 004c 16000000 		.4byte	.LFE3
ARM GAS  C:\Users\AHMED~1.ELE\AppData\Local\Temp\ccbrMpYT.s 			page 238


 10362 0050 00000000 		.4byte	.LFB4
 10363 0054 14000000 		.4byte	.LFE4
 10364 0058 00000000 		.4byte	.LFB5
 10365 005c 0C000000 		.4byte	.LFE5
 10366 0060 00000000 		.4byte	.LFB6
 10367 0064 0E000000 		.4byte	.LFE6
 10368 0068 00000000 		.4byte	0
 10369 006c 00000000 		.4byte	0
 10370              		.section	.debug_line,"",%progbits
 10371              	.Ldebug_line0:
 10372 0000 AB040000 		.section	.debug_str,"MS",%progbits,1
 10372      02000701 
 10372      00000201 
 10372      FB0E0D00 
 10372      01010101 
 10373              	.LASF338:
 10374 0000 4F535F46 		.ascii	"OS_FN_DRIVER_REGISTER\000"
 10374      4E5F4452 
 10374      49564552 
 10374      5F524547 
 10374      49535445 
 10375              	.LASF10:
 10376 0016 63686172 		.ascii	"char\000"
 10376      00
 10377              	.LASF313:
 10378 001b 4F535F46 		.ascii	"OS_FN_CODEC_CLOSE\000"
 10378      4E5F434F 
 10378      4445435F 
 10378      434C4F53 
 10378      4500
 10379              	.LASF425:
 10380 002d 4F535F46 		.ascii	"OS_FN_GET_CALLID\000"
 10380      4E5F4745 
 10380      545F4341 
 10380      4C4C4944 
 10380      00
 10381              	.LASF191:
 10382 003e 4F535F46 		.ascii	"OS_FN_FILE_INIT_SEARCH\000"
 10382      4E5F4649 
 10382      4C455F49 
 10382      4E49545F 
 10382      53454152 
 10383              	.LASF11:
 10384 0055 73697A65 		.ascii	"size_t\000"
 10384      5F7400
 10385              	.LASF503:
 10386 005c 4D584D4C 		.ascii	"MXML_CUSTOM\000"
 10386      5F435553 
 10386      544F4D00 
 10387              	.LASF171:
 10388 0068 4F535F46 		.ascii	"OS_FN_FILE_SEEK\000"
 10388      4E5F4649 
 10388      4C455F53 
 10388      45454B00 
 10389              	.LASF9:
 10390 0078 73697A65 		.ascii	"sizetype\000"
 10390      74797065 
ARM GAS  C:\Users\AHMED~1.ELE\AppData\Local\Temp\ccbrMpYT.s 			page 239


 10390      00
 10391              	.LASF412:
 10392 0081 4F535F46 		.ascii	"OS_FN_NFC_IC_REG_DIRECT_WRITE\000"
 10392      4E5F4E46 
 10392      435F4943 
 10392      5F524547 
 10392      5F444952 
 10393              	.LASF163:
 10394 009f 4F535F46 		.ascii	"OS_FN_FILE_CREATE_OWNER\000"
 10394      4E5F4649 
 10394      4C455F43 
 10394      52454154 
 10394      455F4F57 
 10395              	.LASF576:
 10396 00b7 6D786D6C 		.ascii	"mxml_string_getc\000"
 10396      5F737472 
 10396      696E675F 
 10396      67657463 
 10396      00
 10397              	.LASF160:
 10398 00c8 4F535F46 		.ascii	"OS_FN_MALLOC\000"
 10398      4E5F4D41 
 10398      4C4C4F43 
 10398      00
 10399              	.LASF301:
 10400 00d5 4F535F46 		.ascii	"OS_FN_GPRS_SMS_SEND\000"
 10400      4E5F4750 
 10400      52535F53 
 10400      4D535F53 
 10400      454E4400 
 10401              	.LASF539:
 10402 00e9 75736572 		.ascii	"user_data\000"
 10402      5F646174 
 10402      6100
 10403              	.LASF330:
 10404 00f3 4F535F46 		.ascii	"OS_FN_CLICC_LED_ON\000"
 10404      4E5F434C 
 10404      4943435F 
 10404      4C45445F 
 10404      4F4E00
 10405              	.LASF337:
 10406 0106 4F535F46 		.ascii	"OS_FN_USBHOST_DEVICEMAP\000"
 10406      4E5F5553 
 10406      42484F53 
 10406      545F4445 
 10406      56494345 
 10407              	.LASF346:
 10408 011e 4F535F46 		.ascii	"OS_FN_DEVICE_SEARCH_NEXT\000"
 10408      4E5F4445 
 10408      56494345 
 10408      5F534541 
 10408      5243485F 
 10409              	.LASF455:
 10410 0137 4F535F46 		.ascii	"OS_FN_GCM_AES_OPEN\000"
 10410      4E5F4743 
 10410      4D5F4145 
 10410      535F4F50 
ARM GAS  C:\Users\AHMED~1.ELE\AppData\Local\Temp\ccbrMpYT.s 			page 240


 10410      454E00
 10411              	.LASF312:
 10412 014a 4F535F46 		.ascii	"OS_FN_CODEC_OPEN\000"
 10412      4E5F434F 
 10412      4445435F 
 10412      4F50454E 
 10412      00
 10413              	.LASF578:
 10414 015b 6E657762 		.ascii	"newbuffer\000"
 10414      75666665 
 10414      7200
 10415              	.LASF551:
 10416 0165 63757374 		.ascii	"custom_save_cb\000"
 10416      6F6D5F73 
 10416      6176655F 
 10416      636200
 10417              	.LASF79:
 10418 0174 4F535F46 		.ascii	"OS_FN_COM3_SREAD\000"
 10418      4E5F434F 
 10418      4D335F53 
 10418      52454144 
 10418      00
 10419              	.LASF167:
 10420 0185 4F535F46 		.ascii	"OS_FN_FILE_EXIST\000"
 10420      4E5F4649 
 10420      4C455F45 
 10420      58495354 
 10420      00
 10421              	.LASF477:
 10422 0196 4F535F46 		.ascii	"OS_FN_IMG_SENSOR_LED_OPEN\000"
 10422      4E5F494D 
 10422      475F5345 
 10422      4E534F52 
 10422      5F4C4544 
 10423              	.LASF116:
 10424 01b0 4F535F46 		.ascii	"OS_FN_SM4_DECRYPT\000"
 10424      4E5F534D 
 10424      345F4445 
 10424      43525950 
 10424      5400
 10425              	.LASF365:
 10426 01c2 4F535F46 		.ascii	"OS_FN_TAMPER_GET_STATUS\000"
 10426      4E5F5441 
 10426      4D504552 
 10426      5F474554 
 10426      5F535441 
 10427              	.LASF485:
 10428 01da 4F535F46 		.ascii	"OS_FN_GPS_GET_DETAIL_INFO\000"
 10428      4E5F4750 
 10428      535F4745 
 10428      545F4445 
 10428      5441494C 
 10429              	.LASF49:
 10430 01f4 4F535F46 		.ascii	"OS_FN_DISP_ICON_COLOR\000"
 10430      4E5F4449 
 10430      53505F49 
 10430      434F4E5F 
ARM GAS  C:\Users\AHMED~1.ELE\AppData\Local\Temp\ccbrMpYT.s 			page 241


 10430      434F4C4F 
 10431              	.LASF297:
 10432 020a 4F535F46 		.ascii	"OS_FN_GPRS_GET_CID\000"
 10432      4E5F4750 
 10432      52535F47 
 10432      45545F43 
 10432      494400
 10433              	.LASF366:
 10434 021d 4F535F46 		.ascii	"OS_FN_TAMPER_RESET_STATUS\000"
 10434      4E5F5441 
 10434      4D504552 
 10434      5F524553 
 10434      45545F53 
 10435              	.LASF439:
 10436 0237 4F535F46 		.ascii	"OS_FN_POWER\000"
 10436      4E5F504F 
 10436      57455200 
 10437              	.LASF287:
 10438 0243 4F535F46 		.ascii	"OS_FN_ADC_CH_DISABLE\000"
 10438      4E5F4144 
 10438      435F4348 
 10438      5F444953 
 10438      41424C45 
 10439              	.LASF213:
 10440 0258 4F535F46 		.ascii	"OS_FN_MMC_SIZE\000"
 10440      4E5F4D4D 
 10440      435F5349 
 10440      5A4500
 10441              	.LASF180:
 10442 0267 4F535F46 		.ascii	"OS_FN_FILE_DSEARCH_ALL\000"
 10442      4E5F4649 
 10442      4C455F44 
 10442      53454152 
 10442      43485F41 
 10443              	.LASF434:
 10444 027e 4F535F46 		.ascii	"OS_FN_DMK_KVC_READ\000"
 10444      4E5F444D 
 10444      4B5F4B56 
 10444      435F5245 
 10444      414400
 10445              	.LASF596:
 10446 0291 6D786D6C 		.ascii	"mxmlNewElement\000"
 10446      4E657745 
 10446      6C656D65 
 10446      6E7400
 10447              	.LASF461:
 10448 02a0 4F535F46 		.ascii	"OS_FN_SYS_THREAD_CREATE\000"
 10448      4E5F5359 
 10448      535F5448 
 10448      52454144 
 10448      5F435245 
 10449              	.LASF144:
 10450 02b8 4F535F46 		.ascii	"OS_FN_BUFMAN_FREE\000"
 10450      4E5F4255 
 10450      464D414E 
 10450      5F465245 
 10450      4500
ARM GAS  C:\Users\AHMED~1.ELE\AppData\Local\Temp\ccbrMpYT.s 			page 242


 10451              	.LASF292:
 10452 02ca 4F535F46 		.ascii	"OS_FN_GPRS_AT_RESP\000"
 10452      4E5F4750 
 10452      52535F41 
 10452      545F5245 
 10452      535000
 10453              	.LASF527:
 10454 02dd 74657874 		.ascii	"text\000"
 10454      00
 10455              	.LASF491:
 10456 02e2 4D584D4C 		.ascii	"MXML_SAX_DATA\000"
 10456      5F534158 
 10456      5F444154 
 10456      4100
 10457              	.LASF499:
 10458 02f0 4D584D4C 		.ascii	"MXML_INTEGER\000"
 10458      5F494E54 
 10458      45474552 
 10458      00
 10459              	.LASF475:
 10460 02fd 4F535F46 		.ascii	"OS_FN_GPRS_IS_HL6RD_OLD_FRM\000"
 10460      4E5F4750 
 10460      52535F49 
 10460      535F484C 
 10460      3652445F 
 10461              	.LASF555:
 10462 0319 6D786D6C 		.ascii	"mxml_isspace_only\000"
 10462      5F697373 
 10462      70616365 
 10462      5F6F6E6C 
 10462      7900
 10463              	.LASF276:
 10464 032b 4F535F46 		.ascii	"OS_FN_MCOM_TXRDY\000"
 10464      4E5F4D43 
 10464      4F4D5F54 
 10464      58524459 
 10464      00
 10465              	.LASF497:
 10466 033c 4D584D4C 		.ascii	"MXML_IGNORE\000"
 10466      5F49474E 
 10466      4F524500 
 10467              	.LASF220:
 10468 0348 4F535F46 		.ascii	"OS_FN_SLE_OPEN\000"
 10468      4E5F534C 
 10468      455F4F50 
 10468      454E00
 10469              	.LASF47:
 10470 0357 4F535F46 		.ascii	"OS_FN_DISP_BRIGHTNESS\000"
 10470      4E5F4449 
 10470      53505F42 
 10470      52494748 
 10470      544E4553 
 10471              	.LASF303:
 10472 036d 4F535F46 		.ascii	"OS_FN_GPRS_SMS_READ\000"
 10472      4E5F4750 
 10472      52535F53 
 10472      4D535F52 
ARM GAS  C:\Users\AHMED~1.ELE\AppData\Local\Temp\ccbrMpYT.s 			page 243


 10472      45414400 
 10473              	.LASF294:
 10474 0381 4F535F46 		.ascii	"OS_FN_GPRS_READ\000"
 10474      4E5F4750 
 10474      52535F52 
 10474      45414400 
 10475              	.LASF532:
 10476 0391 74797065 		.ascii	"type\000"
 10476      00
 10477              	.LASF187:
 10478 0396 4F535F46 		.ascii	"OS_FN_FILE_GET_FREE_SPACE\000"
 10478      4E5F4649 
 10478      4C455F47 
 10478      45545F46 
 10478      5245455F 
 10479              	.LASF127:
 10480 03b0 4F535F46 		.ascii	"OS_FN_KEY_SAVE_NC\000"
 10480      4E5F4B45 
 10480      595F5341 
 10480      56455F4E 
 10480      4300
 10481              	.LASF466:
 10482 03c2 4F535F46 		.ascii	"OS_FN_WIFI_SOCKET_SEND_UDP\000"
 10482      4E5F5749 
 10482      46495F53 
 10482      4F434B45 
 10482      545F5345 
 10483              	.LASF437:
 10484 03dd 4F535F46 		.ascii	"OS_FN_RMB_CONTROL\000"
 10484      4E5F524D 
 10484      425F434F 
 10484      4E54524F 
 10484      4C00
 10485              	.LASF107:
 10486 03ef 4F535F46 		.ascii	"OS_FN_SM2_GET_SIGNATURE\000"
 10486      4E5F534D 
 10486      325F4745 
 10486      545F5349 
 10486      474E4154 
 10487              	.LASF73:
 10488 0407 4F535F46 		.ascii	"OS_FN_COM3_CLOSE\000"
 10488      4E5F434F 
 10488      4D335F43 
 10488      4C4F5345 
 10488      00
 10489              	.LASF63:
 10490 0418 4F535F46 		.ascii	"OS_FN_COM2_OPEN\000"
 10490      4E5F434F 
 10490      4D325F4F 
 10490      50454E00 
 10491              	.LASF336:
 10492 0428 4F535F46 		.ascii	"OS_FN_USBHOST_DEVINFO\000"
 10492      4E5F5553 
 10492      42484F53 
 10492      545F4445 
 10492      56494E46 
 10493              	.LASF233:
ARM GAS  C:\Users\AHMED~1.ELE\AppData\Local\Temp\ccbrMpYT.s 			page 244


 10494 043e 4F535F46 		.ascii	"OS_FN_MSR_RXLEN\000"
 10494      4E5F4D53 
 10494      525F5258 
 10494      4C454E00 
 10495              	.LASF92:
 10496 044e 4F535F46 		.ascii	"OS_FN_AES_ENCRYPT_BLOCK\000"
 10496      4E5F4145 
 10496      535F454E 
 10496      43525950 
 10496      545F424C 
 10497              	.LASF177:
 10498 0466 4F535F46 		.ascii	"OS_FN_FILE_END\000"
 10498      4E5F4649 
 10498      4C455F45 
 10498      4E4400
 10499              	.LASF546:
 10500 0475 6572726F 		.ascii	"error_cb\000"
 10500      725F6362 
 10500      00
 10501              	.LASF204:
 10502 047e 4F535F46 		.ascii	"OS_FN_SAM_SELECT\000"
 10502      4E5F5341 
 10502      4D5F5345 
 10502      4C454354 
 10502      00
 10503              	.LASF421:
 10504 048f 4F535F46 		.ascii	"OS_FN_GPS_ENABLED\000"
 10504      4E5F4750 
 10504      535F454E 
 10504      41424C45 
 10504      4400
 10505              	.LASF397:
 10506 04a1 4F535F46 		.ascii	"OS_FN_BARCODE_STATUS\000"
 10506      4E5F4241 
 10506      52434F44 
 10506      455F5354 
 10506      41545553 
 10507              	.LASF202:
 10508 04b6 4F535F46 		.ascii	"OS_FN_SAM_OPEN\000"
 10508      4E5F5341 
 10508      4D5F4F50 
 10508      454E00
 10509              	.LASF100:
 10510 04c5 4F535F46 		.ascii	"OS_FN_SHA_FINISH\000"
 10510      4E5F5348 
 10510      415F4649 
 10510      4E495348 
 10510      00
 10511              	.LASF381:
 10512 04d6 4F535F46 		.ascii	"OS_FN_MIF_INC\000"
 10512      4E5F4D49 
 10512      465F494E 
 10512      4300
 10513              	.LASF419:
 10514 04e4 4F535F46 		.ascii	"OS_FN_GPS_RESP\000"
 10514      4E5F4750 
 10514      535F5245 
ARM GAS  C:\Users\AHMED~1.ELE\AppData\Local\Temp\ccbrMpYT.s 			page 245


 10514      535000
 10515              	.LASF183:
 10516 04f3 4F535F46 		.ascii	"OS_FN_FILE_GET_NAME\000"
 10516      4E5F4649 
 10516      4C455F47 
 10516      45545F4E 
 10516      414D4500 
 10517              	.LASF108:
 10518 0507 4F535F46 		.ascii	"OS_FN_SM2_VERIFY_SIGNATURE\000"
 10518      4E5F534D 
 10518      325F5645 
 10518      52494659 
 10518      5F534947 
 10519              	.LASF93:
 10520 0522 4F535F46 		.ascii	"OS_FN_AES_DECRYPT_BLOCK\000"
 10520      4E5F4145 
 10520      535F4445 
 10520      43525950 
 10520      545F424C 
 10521              	.LASF119:
 10522 053a 4F535F46 		.ascii	"OS_FN_KEY_DES\000"
 10522      4E5F4B45 
 10522      595F4445 
 10522      5300
 10523              	.LASF12:
 10524 0548 42595445 		.ascii	"BYTE\000"
 10524      00
 10525              	.LASF531:
 10526 054d 6D786D6C 		.ascii	"mxml_node_s\000"
 10526      5F6E6F64 
 10526      655F7300 
 10527              	.LASF540:
 10528 0559 6D786D6C 		.ascii	"mxml_node_t\000"
 10528      5F6E6F64 
 10528      655F7400 
 10529              	.LASF117:
 10530 0565 4F535F46 		.ascii	"OS_FN_KEY_SAVE\000"
 10530      4E5F4B45 
 10530      595F5341 
 10530      564500
 10531              	.LASF90:
 10532 0574 4F535F46 		.ascii	"OS_FN_RSA_PRIVATE\000"
 10532      4E5F5253 
 10532      415F5052 
 10532      49564154 
 10532      4500
 10533              	.LASF252:
 10534 0586 4F535F46 		.ascii	"OS_FN_FL_PGM\000"
 10534      4E5F464C 
 10534      5F50474D 
 10534      00
 10535              	.LASF194:
 10536 0593 4F535F46 		.ascii	"OS_FN_FILE_RMDIR\000"
 10536      4E5F4649 
 10536      4C455F52 
 10536      4D444952 
 10536      00
ARM GAS  C:\Users\AHMED~1.ELE\AppData\Local\Temp\ccbrMpYT.s 			page 246


 10537              	.LASF440:
 10538 05a4 4F535F46 		.ascii	"OS_FN_CLICC_DEBUG\000"
 10538      4E5F434C 
 10538      4943435F 
 10538      44454255 
 10538      4700
 10539              	.LASF383:
 10540 05b6 4F535F46 		.ascii	"OS_FN_MIF_RESTORE\000"
 10540      4E5F4D49 
 10540      465F5245 
 10540      53544F52 
 10540      4500
 10541              	.LASF278:
 10542 05c8 4F535F46 		.ascii	"OS_FN_MCOM_SSEND\000"
 10542      4E5F4D43 
 10542      4F4D5F53 
 10542      53454E44 
 10542      00
 10543              	.LASF340:
 10544 05d9 4F535F46 		.ascii	"OS_FN_DEVICE_ALLOC\000"
 10544      4E5F4445 
 10544      56494345 
 10544      5F414C4C 
 10544      4F4300
 10545              	.LASF451:
 10546 05ec 4F535F46 		.ascii	"OS_FN_FPRT_INFO_GET\000"
 10546      4E5F4650 
 10546      52545F49 
 10546      4E464F5F 
 10546      47455400 
 10547              	.LASF196:
 10548 0600 4F535F46 		.ascii	"OS_FN_FILE_SYNC\000"
 10548      4E5F4649 
 10548      4C455F53 
 10548      594E4300 
 10549              	.LASF447:
 10550 0610 4F535F46 		.ascii	"OS_FN_FPRT_OPEN\000"
 10550      4E5F4650 
 10550      52545F4F 
 10550      50454E00 
 10551              	.LASF234:
 10552 0620 4F535F46 		.ascii	"OS_FN_MSR_GETC\000"
 10552      4E5F4D53 
 10552      525F4745 
 10552      544300
 10553              	.LASF518:
 10554 062f 6D786D6C 		.ascii	"mxml_text_t\000"
 10554      5F746578 
 10554      745F7400 
 10555              	.LASF285:
 10556 063b 4F535F46 		.ascii	"OS_FN_BATT_CHARGE_MODE\000"
 10556      4E5F4241 
 10556      54545F43 
 10556      48415247 
 10556      455F4D4F 
 10557              	.LASF389:
 10558 0652 4F535F46 		.ascii	"OS_FN_MIF_INFO_SET\000"
ARM GAS  C:\Users\AHMED~1.ELE\AppData\Local\Temp\ccbrMpYT.s 			page 247


 10558      4E5F4D49 
 10558      465F494E 
 10558      464F5F53 
 10558      455400
 10559              	.LASF354:
 10560 0665 4F535F46 		.ascii	"OS_FN_USBOTG_GET_STATE\000"
 10560      4E5F5553 
 10560      424F5447 
 10560      5F474554 
 10560      5F535441 
 10561              	.LASF4:
 10562 067c 6C6F6E67 		.ascii	"long int\000"
 10562      20696E74 
 10562      00
 10563              	.LASF581:
 10564 0685 6D786D6C 		.ascii	"mxmlSAXLoadString\000"
 10564      5341584C 
 10564      6F616453 
 10564      7472696E 
 10564      6700
 10565              	.LASF516:
 10566 0697 77686974 		.ascii	"whitespace\000"
 10566      65737061 
 10566      636500
 10567              	.LASF567:
 10568 06a2 7361785F 		.ascii	"sax_cb\000"
 10568      636200
 10569              	.LASF143:
 10570 06a9 4F535F46 		.ascii	"OS_FN_BUFMAN_ALLOC\000"
 10570      4E5F4255 
 10570      464D414E 
 10570      5F414C4C 
 10570      4F4300
 10571              	.LASF54:
 10572 06bc 4F535F46 		.ascii	"OS_FN_COM1_OPEN\000"
 10572      4E5F434F 
 10572      4D315F4F 
 10572      50454E00 
 10573              	.LASF298:
 10574 06cc 4F535F46 		.ascii	"OS_FN_GPRS_READ_USSD\000"
 10574      4E5F4750 
 10574      52535F52 
 10574      4541445F 
 10574      55535344 
 10575              	.LASF109:
 10576 06e1 4F535F46 		.ascii	"OS_FN_SM2_ENCRYPT\000"
 10576      4E5F534D 
 10576      325F454E 
 10576      43525950 
 10576      5400
 10577              	.LASF458:
 10578 06f3 4F535F46 		.ascii	"OS_FN_GCM_AES_PROCESS\000"
 10578      4E5F4743 
 10578      4D5F4145 
 10578      535F5052 
 10578      4F434553 
 10579              	.LASF342:
ARM GAS  C:\Users\AHMED~1.ELE\AppData\Local\Temp\ccbrMpYT.s 			page 248


 10580 0709 4F535F46 		.ascii	"OS_FN_DEVICE_UNREGISTER\000"
 10580      4E5F4445 
 10580      56494345 
 10580      5F554E52 
 10580      45474953 
 10581              	.LASF525:
 10582 0721 6F706171 		.ascii	"opaque\000"
 10582      756500
 10583              	.LASF106:
 10584 0728 4F535F46 		.ascii	"OS_FN_SM2_FREE_CURVE\000"
 10584      4E5F534D 
 10584      325F4652 
 10584      45455F43 
 10584      55525645 
 10585              	.LASF483:
 10586 073d 4F535F46 		.ascii	"OS_FN_BATT_LEVEL2\000"
 10586      4E5F4241 
 10586      54545F4C 
 10586      4556454C 
 10586      3200
 10587              	.LASF601:
 10588 074f 6D786D6C 		.ascii	"mxmlNewReal\000"
 10588      4E657752 
 10588      65616C00 
 10589              	.LASF524:
 10590 075b 696E7465 		.ascii	"integer\000"
 10590      67657200 
 10591              	.LASF258:
 10592 0763 4F535F46 		.ascii	"OS_FN_FL_COPYB_START\000"
 10592      4E5F464C 
 10592      5F434F50 
 10592      59425F53 
 10592      54415254 
 10593              	.LASF45:
 10594 0778 4F535F46 		.ascii	"OS_FN_DISP_TEXTC\000"
 10594      4E5F4449 
 10594      53505F54 
 10594      45585443 
 10594      00
 10595              	.LASF575:
 10596 0789 6572726F 		.ascii	"error\000"
 10596      7200
 10597              	.LASF402:
 10598 078f 4F535F46 		.ascii	"OS_FN_WIFI_STATUS\000"
 10598      4E5F5749 
 10598      46495F53 
 10598      54415455 
 10598      5300
 10599              	.LASF530:
 10600 07a1 6D786D6C 		.ascii	"mxml_value_t\000"
 10600      5F76616C 
 10600      75655F74 
 10600      00
 10601              	.LASF609:
 10602 07ae 6D786D6C 		.ascii	"mxml_value_u\000"
 10602      5F76616C 
 10602      75655F75 
ARM GAS  C:\Users\AHMED~1.ELE\AppData\Local\Temp\ccbrMpYT.s 			page 249


 10602      00
 10603              	.LASF34:
 10604 07bb 4F535F46 		.ascii	"OS_FN_DISP_OPEN\000"
 10604      4E5F4449 
 10604      53505F4F 
 10604      50454E00 
 10605              	.LASF36:
 10606 07cb 4F535F46 		.ascii	"OS_FN_DISP_PUTC\000"
 10606      4E5F4449 
 10606      53505F50 
 10606      55544300 
 10607              	.LASF324:
 10608 07db 4F535F46 		.ascii	"OS_FN_CLICC_EMV_LV1\000"
 10608      4E5F434C 
 10608      4943435F 
 10608      454D565F 
 10608      4C563100 
 10609              	.LASF40:
 10610 07ef 4F535F46 		.ascii	"OS_FN_DISP_PUTG\000"
 10610      4E5F4449 
 10610      53505F50 
 10610      55544700 
 10611              	.LASF130:
 10612 07ff 4F535F46 		.ascii	"OS_FN_KEY_SAVE_TMK_CBC_NC\000"
 10612      4E5F4B45 
 10612      595F5341 
 10612      56455F54 
 10612      4D4B5F43 
 10613              	.LASF286:
 10614 0819 4F535F46 		.ascii	"OS_FN_ADC_CH_ENABLE\000"
 10614      4E5F4144 
 10614      435F4348 
 10614      5F454E41 
 10614      424C4500 
 10615              	.LASF38:
 10616 082d 4F535F46 		.ascii	"OS_FN_DISP_PUTN\000"
 10616      4E5F4449 
 10616      53505F50 
 10616      55544E00 
 10617              	.LASF471:
 10618 083d 4F535F46 		.ascii	"OS_FN_IMG_SENSOR_GET_FRAME\000"
 10618      4E5F494D 
 10618      475F5345 
 10618      4E534F52 
 10618      5F474554 
 10619              	.LASF41:
 10620 0858 4F535F46 		.ascii	"OS_FN_DISP_PUTP\000"
 10620      4E5F4449 
 10620      53505F50 
 10620      55545000 
 10621              	.LASF432:
 10622 0868 4F535F46 		.ascii	"OS_FN_DUMMY\000"
 10622      4E5F4455 
 10622      4D4D5900 
 10623              	.LASF316:
 10624 0874 4F535F46 		.ascii	"OS_FN_CODEC_STOP\000"
 10624      4E5F434F 
ARM GAS  C:\Users\AHMED~1.ELE\AppData\Local\Temp\ccbrMpYT.s 			page 250


 10624      4445435F 
 10624      53544F50 
 10624      00
 10625              	.LASF37:
 10626 0885 4F535F46 		.ascii	"OS_FN_DISP_PUTS\000"
 10626      4E5F4449 
 10626      53505F50 
 10626      55545300 
 10627              	.LASF199:
 10628 0895 4F535F46 		.ascii	"OS_FN_CONFIG_READ\000"
 10628      4E5F434F 
 10628      4E464947 
 10628      5F524541 
 10628      4400
 10629              	.LASF560:
 10630 08a7 656E7470 		.ascii	"entptr\000"
 10630      747200
 10631              	.LASF246:
 10632 08ae 4F535F46 		.ascii	"OS_FN_USBSER_STATUS\000"
 10632      4E5F5553 
 10632      42534552 
 10632      5F535441 
 10632      54555300 
 10633              	.LASF568:
 10634 08c2 7361785F 		.ascii	"sax_data\000"
 10634      64617461 
 10634      00
 10635              	.LASF580:
 10636 08cb 6D786D6C 		.ascii	"mxmlLoadString\000"
 10636      4C6F6164 
 10636      53747269 
 10636      6E6700
 10637              	.LASF405:
 10638 08da 4F535F46 		.ascii	"OS_FN_NFC_OPEN_FELICA\000"
 10638      4E5F4E46 
 10638      435F4F50 
 10638      454E5F46 
 10638      454C4943 
 10639              	.LASF152:
 10640 08f0 4F535F46 		.ascii	"OS_FN_LED_ON\000"
 10640      4E5F4C45 
 10640      445F4F4E 
 10640      00
 10641              	.LASF164:
 10642 08fd 4F535F46 		.ascii	"OS_FN_FILE_OPEN\000"
 10642      4E5F4649 
 10642      4C455F4F 
 10642      50454E00 
 10643              	.LASF174:
 10644 090d 4F535F46 		.ascii	"OS_FN_FILE_PUTC\000"
 10644      4E5F4649 
 10644      4C455F50 
 10644      55544300 
 10645              	.LASF140:
 10646 091d 4F535F46 		.ascii	"OS_FN_THREAD_PUSH\000"
 10646      4E5F5448 
 10646      52454144 
ARM GAS  C:\Users\AHMED~1.ELE\AppData\Local\Temp\ccbrMpYT.s 			page 251


 10646      5F505553 
 10646      4800
 10647              	.LASF556:
 10648 092f 6D786D6C 		.ascii	"mxml_get_entity\000"
 10648      5F676574 
 10648      5F656E74 
 10648      69747900 
 10649              	.LASF582:
 10650 093f 6C6F6164 		.ascii	"load\000"
 10650      00
 10651              	.LASF587:
 10652 0944 636F6C75 		.ascii	"column\000"
 10652      6D6E00
 10653              	.LASF585:
 10654 094b 6D786D6C 		.ascii	"mxmlSetErrorCallback\000"
 10654      53657445 
 10654      72726F72 
 10654      43616C6C 
 10654      6261636B 
 10655              	.LASF433:
 10656 0960 4F535F46 		.ascii	"OS_FN_OFF\000"
 10656      4E5F4F46 
 10656      4600
 10657              	.LASF1:
 10658 096a 756E7369 		.ascii	"unsigned char\000"
 10658      676E6564 
 10658      20636861 
 10658      7200
 10659              	.LASF574:
 10660 0978 74797065 		.ascii	"types\000"
 10660      7300
 10661              	.LASF17:
 10662 097e 4F535F46 		.ascii	"OS_FN_KBD_OPEN\000"
 10662      4E5F4B42 
 10662      445F4F50 
 10662      454E00
 10663              	.LASF506:
 10664 098d 6D786D6C 		.ascii	"mxml_error_cb_t\000"
 10664      5F657272 
 10664      6F725F63 
 10664      625F7400 
 10665              	.LASF538:
 10666 099d 7265665F 		.ascii	"ref_count\000"
 10666      636F756E 
 10666      7400
 10667              	.LASF124:
 10668 09a7 4F535F46 		.ascii	"OS_FN_KEY_CUP_MAC\000"
 10668      4E5F4B45 
 10668      595F4355 
 10668      505F4D41 
 10668      4300
 10669              	.LASF373:
 10670 09b9 4F535F46 		.ascii	"OS_FN_MIF_STATUS\000"
 10670      4E5F4D49 
 10670      465F5354 
 10670      41545553 
 10670      00
ARM GAS  C:\Users\AHMED~1.ELE\AppData\Local\Temp\ccbrMpYT.s 			page 252


 10671              	.LASF50:
 10672 09ca 4F535F46 		.ascii	"OS_FN_DISP_ICON_PUTC\000"
 10672      4E5F4449 
 10672      53505F49 
 10672      434F4E5F 
 10672      50555443 
 10673              	.LASF198:
 10674 09df 4F535F46 		.ascii	"OS_FN_CONFIG_LENGTH\000"
 10674      4E5F434F 
 10674      4E464947 
 10674      5F4C454E 
 10674      47544800 
 10675              	.LASF261:
 10676 09f3 4F535F46 		.ascii	"OS_FN_FL_CREAD_RAND\000"
 10676      4E5F464C 
 10676      5F435245 
 10676      41445F52 
 10676      414E4400 
 10677              	.LASF511:
 10678 0a07 6D786D6C 		.ascii	"mxml_element_s\000"
 10678      5F656C65 
 10678      6D656E74 
 10678      5F7300
 10679              	.LASF514:
 10680 0a16 6D786D6C 		.ascii	"mxml_element_t\000"
 10680      5F656C65 
 10680      6D656E74 
 10680      5F7400
 10681              	.LASF134:
 10682 0a25 4F535F46 		.ascii	"OS_FN_THREAD_OPEN\000"
 10682      4E5F5448 
 10682      52454144 
 10682      5F4F5045 
 10682      4E00
 10683              	.LASF173:
 10684 0a37 4F535F46 		.ascii	"OS_FN_FILE_WRITE\000"
 10684      4E5F4649 
 10684      4C455F57 
 10684      52495445 
 10684      00
 10685              	.LASF407:
 10686 0a48 4F535F46 		.ascii	"OS_FN_NFC_CANCEL\000"
 10686      4E5F4E46 
 10686      435F4341 
 10686      4E43454C 
 10686      00
 10687              	.LASF467:
 10688 0a59 4F535F46 		.ascii	"OS_FN_WIFI_GET_DEVICE_STATE\000"
 10688      4E5F5749 
 10688      46495F47 
 10688      45545F44 
 10688      45564943 
 10689              	.LASF59:
 10690 0a75 4F535F46 		.ascii	"OS_FN_COM1_SEND\000"
 10690      4E5F434F 
 10690      4D315F53 
 10690      454E4400 
ARM GAS  C:\Users\AHMED~1.ELE\AppData\Local\Temp\ccbrMpYT.s 			page 253


 10691              	.LASF133:
 10692 0a85 4F535F46 		.ascii	"OS_FN_PCI_DSS\000"
 10692      4E5F5043 
 10692      495F4453 
 10692      5300
 10693              	.LASF608:
 10694 0a93 433A5C54 		.ascii	"C:\\T1000-A5\\Projects\\APM\\apm_v3.0s03\000"
 10694      31303030 
 10694      2D41355C 
 10694      50726F6A 
 10694      65637473 
 10695              	.LASF149:
 10696 0ab8 4F535F46 		.ascii	"OS_FN_LED_STATUS\000"
 10696      4E5F4C45 
 10696      445F5354 
 10696      41545553 
 10696      00
 10697              	.LASF67:
 10698 0ac9 4F535F46 		.ascii	"OS_FN_COM2_READ\000"
 10698      4E5F434F 
 10698      4D325F52 
 10698      45414400 
 10699              	.LASF508:
 10700 0ad9 76616C75 		.ascii	"value\000"
 10700      6500
 10701              	.LASF28:
 10702 0adf 4F535F46 		.ascii	"OS_FN_BUZ_OPEN\000"
 10702      4E5F4255 
 10702      5A5F4F50 
 10702      454E00
 10703              	.LASF326:
 10704 0aee 4F535F46 		.ascii	"OS_FN_CLICC_LED_CLOSE\000"
 10704      4E5F434C 
 10704      4943435F 
 10704      4C45445F 
 10704      434C4F53 
 10705              	.LASF382:
 10706 0b04 4F535F46 		.ascii	"OS_FN_MIF_DEC\000"
 10706      4E5F4D49 
 10706      465F4445 
 10706      4300
 10707              	.LASF224:
 10708 0b12 4F535F46 		.ascii	"OS_FN_LAN_OPEN\000"
 10708      4E5F4C41 
 10708      4E5F4F50 
 10708      454E00
 10709              	.LASF446:
 10710 0b21 4F535F46 		.ascii	"OS_FN_LPT_GET_COUNT\000"
 10710      4E5F4C50 
 10710      545F4745 
 10710      545F434F 
 10710      554E5400 
 10711              	.LASF282:
 10712 0b35 4F535F46 		.ascii	"OS_FN_BATT_LEVEL\000"
 10712      4E5F4241 
 10712      54545F4C 
 10712      4556454C 
ARM GAS  C:\Users\AHMED~1.ELE\AppData\Local\Temp\ccbrMpYT.s 			page 254


 10712      00
 10713              	.LASF430:
 10714 0b46 4F535F46 		.ascii	"OS_FN_HD_CONFIG\000"
 10714      4E5F4844 
 10714      5F434F4E 
 10714      46494700 
 10715              	.LASF544:
 10716 0b56 6D786D6C 		.ascii	"mxml_sax_cb_t\000"
 10716      5F736178 
 10716      5F63625F 
 10716      7400
 10717              	.LASF190:
 10718 0b64 4F535F46 		.ascii	"OS_FN_FILE_FTRUNCATE\000"
 10718      4E5F4649 
 10718      4C455F46 
 10718      5452554E 
 10718      43415445 
 10719              	.LASF227:
 10720 0b79 4F535F46 		.ascii	"OS_FN_LAN_TXRDY\000"
 10720      4E5F4C41 
 10720      4E5F5458 
 10720      52445900 
 10721              	.LASF135:
 10722 0b89 4F535F46 		.ascii	"OS_FN_THREAD_CLOSE\000"
 10722      4E5F5448 
 10722      52454144 
 10722      5F434C4F 
 10722      534500
 10723              	.LASF284:
 10724 0b9c 4F535F46 		.ascii	"OS_FN_BATT_CONTROL\000"
 10724      4E5F4241 
 10724      54545F43 
 10724      4F4E5452 
 10724      4F4C00
 10725              	.LASF371:
 10726 0baf 4F535F46 		.ascii	"OS_FN_MIF_CARD_TYPE\000"
 10726      4E5F4D49 
 10726      465F4341 
 10726      52445F54 
 10726      59504500 
 10727              	.LASF218:
 10728 0bc3 4F535F46 		.ascii	"OS_FN_MMC_WRITE\000"
 10728      4E5F4D4D 
 10728      435F5752 
 10728      49544500 
 10729              	.LASF113:
 10730 0bd3 4F535F46 		.ascii	"OS_FN_SM3\000"
 10730      4E5F534D 
 10730      3300
 10731              	.LASF490:
 10732 0bdd 4D584D4C 		.ascii	"MXML_SAX_COMMENT\000"
 10732      5F534158 
 10732      5F434F4D 
 10732      4D454E54 
 10732      00
 10733              	.LASF545:
 10734 0bee 5F6D786D 		.ascii	"_mxml_global_s\000"
ARM GAS  C:\Users\AHMED~1.ELE\AppData\Local\Temp\ccbrMpYT.s 			page 255


 10734      6C5F676C 
 10734      6F62616C 
 10734      5F7300
 10735              	.LASF552:
 10736 0bfd 5F6D786D 		.ascii	"_mxml_global_t\000"
 10736      6C5F676C 
 10736      6F62616C 
 10736      5F7400
 10737              	.LASF452:
 10738 0c0c 4F535F46 		.ascii	"OS_FN_ECC_KEYPAIR_GENERATE\000"
 10738      4E5F4543 
 10738      435F4B45 
 10738      59504149 
 10738      525F4745 
 10739              	.LASF274:
 10740 0c27 4F535F46 		.ascii	"OS_FN_MCOM_PERMIT\000"
 10740      4E5F4D43 
 10740      4F4D5F50 
 10740      45524D49 
 10740      5400
 10741              	.LASF512:
 10742 0c39 6E756D5F 		.ascii	"num_attrs\000"
 10742      61747472 
 10742      7300
 10743              	.LASF387:
 10744 0c43 4F535F46 		.ascii	"OS_FN_MIF_SENDCMD\000"
 10744      4E5F4D49 
 10744      465F5345 
 10744      4E44434D 
 10744      4400
 10745              	.LASF20:
 10746 0c55 4F535F46 		.ascii	"OS_FN_KBD_SCODE\000"
 10746      4E5F4B42 
 10746      445F5343 
 10746      4F444500 
 10747              	.LASF542:
 10748 0c65 6D786D6C 		.ascii	"mxml_custom_save_cb_t\000"
 10748      5F637573 
 10748      746F6D5F 
 10748      73617665 
 10748      5F63625F 
 10749              	.LASF462:
 10750 0c7b 4F535F46 		.ascii	"OS_FN_WIFI_SOCKET_CONNECT\000"
 10750      4E5F5749 
 10750      46495F53 
 10750      4F434B45 
 10750      545F434F 
 10751              	.LASF454:
 10752 0c95 4F535F46 		.ascii	"OS_FN_ECC_SCALAR_MULTIPLY\000"
 10752      4E5F4543 
 10752      435F5343 
 10752      414C4152 
 10752      5F4D554C 
 10753              	.LASF360:
 10754 0caf 4F535F46 		.ascii	"OS_FN_USBKBD_OPEN\000"
 10754      4E5F5553 
 10754      424B4244 
ARM GAS  C:\Users\AHMED~1.ELE\AppData\Local\Temp\ccbrMpYT.s 			page 256


 10754      5F4F5045 
 10754      4E00
 10755              	.LASF607:
 10756 0cc1 7372632F 		.ascii	"src/mxml-file.c\000"
 10756      6D786D6C 
 10756      2D66696C 
 10756      652E6300 
 10757              	.LASF377:
 10758 0cd1 4F535F46 		.ascii	"OS_FN_MIF_AUTH1\000"
 10758      4E5F4D49 
 10758      465F4155 
 10758      54483100 
 10759              	.LASF378:
 10760 0ce1 4F535F46 		.ascii	"OS_FN_MIF_AUTH2\000"
 10760      4E5F4D49 
 10760      465F4155 
 10760      54483200 
 10761              	.LASF83:
 10762 0cf1 4F535F46 		.ascii	"OS_FN_DES2\000"
 10762      4E5F4445 
 10762      533200
 10763              	.LASF103:
 10764 0cfc 4F535F46 		.ascii	"OS_FN_MD4_PROCESS\000"
 10764      4E5F4D44 
 10764      345F5052 
 10764      4F434553 
 10764      5300
 10765              	.LASF513:
 10766 0d0e 61747472 		.ascii	"attrs\000"
 10766      7300
 10767              	.LASF385:
 10768 0d14 4F535F46 		.ascii	"OS_FN_MIF_DEC_TRANS\000"
 10768      4E5F4D49 
 10768      465F4445 
 10768      435F5452 
 10768      414E5300 
 10769              	.LASF341:
 10770 0d28 4F535F46 		.ascii	"OS_FN_DEVICE_REGISTER\000"
 10770      4E5F4445 
 10770      56494345 
 10770      5F524547 
 10770      49535445 
 10771              	.LASF595:
 10772 0d3e 73747263 		.ascii	"strcmp\000"
 10772      6D7000
 10773              	.LASF58:
 10774 0d45 4F535F46 		.ascii	"OS_FN_COM1_READ\000"
 10774      4E5F434F 
 10774      4D315F52 
 10774      45414400 
 10775              	.LASF221:
 10776 0d55 4F535F46 		.ascii	"OS_FN_SLE_CLOSE\000"
 10776      4E5F534C 
 10776      455F434C 
 10776      4F534500 
 10777              	.LASF230:
 10778 0d65 4F535F46 		.ascii	"OS_FN_LAN_STATUS\000"
ARM GAS  C:\Users\AHMED~1.ELE\AppData\Local\Temp\ccbrMpYT.s 			page 257


 10778      4E5F4C41 
 10778      4E5F5354 
 10778      41545553 
 10778      00
 10779              	.LASF158:
 10780 0d76 4F535F46 		.ascii	"OS_FN_APP_CLR_VIRGIN\000"
 10780      4E5F4150 
 10780      505F434C 
 10780      525F5649 
 10780      5247494E 
 10781              	.LASF157:
 10782 0d8b 4F535F46 		.ascii	"OS_FN_APP_GET_VIRGIN\000"
 10782      4E5F4150 
 10782      505F4745 
 10782      545F5649 
 10782      5247494E 
 10783              	.LASF562:
 10784 0da0 6E6F6465 		.ascii	"node\000"
 10784      00
 10785              	.LASF206:
 10786 0da5 4F535F46 		.ascii	"OS_FN_SAM_ON\000"
 10786      4E5F5341 
 10786      4D5F4F4E 
 10786      00
 10787              	.LASF281:
 10788 0db2 4F535F46 		.ascii	"OS_FN_MCOM_SEND\000"
 10788      4E5F4D43 
 10788      4F4D5F53 
 10788      454E4400 
 10789              	.LASF243:
 10790 0dc2 4F535F46 		.ascii	"OS_FN_USBSER_CLOSE\000"
 10790      4E5F5553 
 10790      42534552 
 10790      5F434C4F 
 10790      534500
 10791              	.LASF416:
 10792 0dd5 4F535F46 		.ascii	"OS_FN_GPS_GET_INFO\000"
 10792      4E5F4750 
 10792      535F4745 
 10792      545F494E 
 10792      464F00
 10793              	.LASF267:
 10794 0de8 4F535F46 		.ascii	"OS_FN_MDM_DIAL\000"
 10794      4E5F4D44 
 10794      4D5F4449 
 10794      414C00
 10795              	.LASF137:
 10796 0df7 4F535F46 		.ascii	"OS_FN_THREAD_DELETE\000"
 10796      4E5F5448 
 10796      52454144 
 10796      5F44454C 
 10796      45544500 
 10797              	.LASF147:
 10798 0e0b 4F535F46 		.ascii	"OS_FN_LED_OPEN\000"
 10798      4E5F4C45 
 10798      445F4F50 
 10798      454E00
ARM GAS  C:\Users\AHMED~1.ELE\AppData\Local\Temp\ccbrMpYT.s 			page 258


 10799              	.LASF32:
 10800 0e1a 4F535F46 		.ascii	"OS_FN_RTC_GET\000"
 10800      4E5F5254 
 10800      435F4745 
 10800      5400
 10801              	.LASF399:
 10802 0e28 4F535F46 		.ascii	"OS_FN_WIFI_CONTROL\000"
 10802      4E5F5749 
 10802      46495F43 
 10802      4F4E5452 
 10802      4F4C00
 10803              	.LASF151:
 10804 0e3b 4F535F46 		.ascii	"OS_FN_LED_CLEAR\000"
 10804      4E5F4C45 
 10804      445F434C 
 10804      45415200 
 10805              	.LASF443:
 10806 0e4b 4F535F46 		.ascii	"OS_FN_DTIMER_LATCH_STOP\000"
 10806      4E5F4454 
 10806      494D4552 
 10806      5F4C4154 
 10806      43485F53 
 10807              	.LASF352:
 10808 0e63 4F535F46 		.ascii	"OS_FN_BUS_START\000"
 10808      4E5F4255 
 10808      535F5354 
 10808      41525400 
 10809              	.LASF97:
 10810 0e73 4F535F46 		.ascii	"OS_FN_MD5_FINISH\000"
 10810      4E5F4D44 
 10810      355F4649 
 10810      4E495348 
 10810      00
 10811              	.LASF424:
 10812 0e84 4F535F46 		.ascii	"OS_FN_APPDL_WRITE_APP\000"
 10812      4E5F4150 
 10812      50444C5F 
 10812      57524954 
 10812      455F4150 
 10813              	.LASF414:
 10814 0e9a 4F535F46 		.ascii	"OS_FN_GPS_ON\000"
 10814      4E5F4750 
 10814      535F4F4E 
 10814      00
 10815              	.LASF550:
 10816 0ea7 63757374 		.ascii	"custom_load_cb\000"
 10816      6F6D5F6C 
 10816      6F61645F 
 10816      636200
 10817              	.LASF315:
 10818 0eb6 4F535F46 		.ascii	"OS_FN_CODEC_PLAY_RAM\000"
 10818      4E5F434F 
 10818      4445435F 
 10818      504C4159 
 10818      5F52414D 
 10819              	.LASF279:
 10820 0ecb 4F535F46 		.ascii	"OS_FN_MCOM_STATUS\000"
ARM GAS  C:\Users\AHMED~1.ELE\AppData\Local\Temp\ccbrMpYT.s 			page 259


 10820      4E5F4D43 
 10820      4F4D5F53 
 10820      54415455 
 10820      5300
 10821              	.LASF51:
 10822 0edd 4F535F46 		.ascii	"OS_FN_DISP_ICON_TEXTC\000"
 10822      4E5F4449 
 10822      53505F49 
 10822      434F4E5F 
 10822      54455854 
 10823              	.LASF427:
 10824 0ef3 4F535F46 		.ascii	"OS_FN_POWER_SLEEP\000"
 10824      4E5F504F 
 10824      5745525F 
 10824      534C4545 
 10824      5000
 10825              	.LASF557:
 10826 0f05 656E636F 		.ascii	"encoding\000"
 10826      64696E67 
 10826      00
 10827              	.LASF570:
 10828 0f0e 62756666 		.ascii	"buffer\000"
 10828      657200
 10829              	.LASF165:
 10830 0f15 4F535F46 		.ascii	"OS_FN_FILE_CREATE\000"
 10830      4E5F4649 
 10830      4C455F43 
 10830      52454154 
 10830      4500
 10831              	.LASF237:
 10832 0f27 4F535F46 		.ascii	"OS_FN_LPT_OPEN\000"
 10832      4E5F4C50 
 10832      545F4F50 
 10832      454E00
 10833              	.LASF239:
 10834 0f36 4F535F46 		.ascii	"OS_FN_LPT_PUTC\000"
 10834      4E5F4C50 
 10834      545F5055 
 10834      544300
 10835              	.LASF229:
 10836 0f45 4F535F46 		.ascii	"OS_FN_LAN_SEND\000"
 10836      4E5F4C41 
 10836      4E5F5345 
 10836      4E4400
 10837              	.LASF372:
 10838 0f54 4F535F46 		.ascii	"OS_FN_MIF_TAG\000"
 10838      4E5F4D49 
 10838      465F5441 
 10838      4700
 10839              	.LASF449:
 10840 0f62 4F535F46 		.ascii	"OS_FN_FPRT_SCAN_IMG\000"
 10840      4E5F4650 
 10840      52545F53 
 10840      43414E5F 
 10840      494D4700 
 10841              	.LASF307:
 10842 0f76 4F535F46 		.ascii	"OS_FN_TPAD_DEL_OBJ\000"
ARM GAS  C:\Users\AHMED~1.ELE\AppData\Local\Temp\ccbrMpYT.s 			page 260


 10842      4E5F5450 
 10842      41445F44 
 10842      454C5F4F 
 10842      424A00
 10843              	.LASF242:
 10844 0f89 4F535F46 		.ascii	"OS_FN_USBSER_OPEN\000"
 10844      4E5F5553 
 10844      42534552 
 10844      5F4F5045 
 10844      4E00
 10845              	.LASF431:
 10846 0f9b 4F535F46 		.ascii	"OS_FN_RDLL_APP\000"
 10846      4E5F5244 
 10846      4C4C5F41 
 10846      505000
 10847              	.LASF172:
 10848 0faa 4F535F46 		.ascii	"OS_FN_FILE_READ\000"
 10848      4E5F4649 
 10848      4C455F52 
 10848      45414400 
 10849              	.LASF141:
 10850 0fba 4F535F46 		.ascii	"OS_FN_THREAD_POP\000"
 10850      4E5F5448 
 10850      52454144 
 10850      5F504F50 
 10850      00
 10851              	.LASF321:
 10852 0fcb 4F535F46 		.ascii	"OS_FN_CLICC_CLOSE\000"
 10852      4E5F434C 
 10852      4943435F 
 10852      434C4F53 
 10852      4500
 10853              	.LASF334:
 10854 0fdd 4F535F46 		.ascii	"OS_FN_USBHOST_STATUS\000"
 10854      4E5F5553 
 10854      42484F53 
 10854      545F5354 
 10854      41545553 
 10855              	.LASF478:
 10856 0ff2 4F535F46 		.ascii	"OS_FN_DISP_PUTS_ANYWHERE\000"
 10856      4E5F4449 
 10856      53505F50 
 10856      5554535F 
 10856      414E5957 
 10857              	.LASF487:
 10858 100b 73797374 		.ascii	"system_call_list\000"
 10858      656D5F63 
 10858      616C6C5F 
 10858      6C697374 
 10858      00
 10859              	.LASF223:
 10860 101c 4F535F46 		.ascii	"OS_FN_SLE_IO\000"
 10860      4E5F534C 
 10860      455F494F 
 10860      00
 10861              	.LASF269:
 10862 1029 4F535F46 		.ascii	"OS_FN_MDM_CID\000"
ARM GAS  C:\Users\AHMED~1.ELE\AppData\Local\Temp\ccbrMpYT.s 			page 261


 10862      4E5F4D44 
 10862      4D5F4349 
 10862      4400
 10863              	.LASF522:
 10864 1037 6D786D6C 		.ascii	"mxml_custom_t\000"
 10864      5F637573 
 10864      746F6D5F 
 10864      7400
 10865              	.LASF275:
 10866 1045 4F535F46 		.ascii	"OS_FN_MCOM_RXRDY\000"
 10866      4E5F4D43 
 10866      4F4D5F52 
 10866      58524459 
 10866      00
 10867              	.LASF238:
 10868 1056 4F535F46 		.ascii	"OS_FN_LPT_CLOSE\000"
 10868      4E5F4C50 
 10868      545F434C 
 10868      4F534500 
 10869              	.LASF603:
 10870 1066 6D786D6C 		.ascii	"mxmlNewCustom\000"
 10870      4E657743 
 10870      7573746F 
 10870      6D00
 10871              	.LASF120:
 10872 1074 4F535F46 		.ascii	"OS_FN_KEY_RSA\000"
 10872      4E5F4B45 
 10872      595F5253 
 10872      4100
 10873              	.LASF203:
 10874 1082 4F535F46 		.ascii	"OS_FN_SAM_CLOSE\000"
 10874      4E5F5341 
 10874      4D5F434C 
 10874      4F534500 
 10875              	.LASF84:
 10876 1092 4F535F46 		.ascii	"OS_FN_COM_DESKEY\000"
 10876      4E5F434F 
 10876      4D5F4445 
 10876      534B4559 
 10876      00
 10877              	.LASF291:
 10878 10a3 4F535F46 		.ascii	"OS_FN_GPRS_AT_CMD\000"
 10878      4E5F4750 
 10878      52535F41 
 10878      545F434D 
 10878      4400
 10879              	.LASF479:
 10880 10b5 4F535F46 		.ascii	"OS_FN_BATT_CHARGE_NOW\000"
 10880      4E5F4241 
 10880      54545F43 
 10880      48415247 
 10880      455F4E4F 
 10881              	.LASF195:
 10882 10cb 4F535F46 		.ascii	"OS_FN_FILE_GET_LONGNAME\000"
 10882      4E5F4649 
 10882      4C455F47 
 10882      45545F4C 
ARM GAS  C:\Users\AHMED~1.ELE\AppData\Local\Temp\ccbrMpYT.s 			page 262


 10882      4F4E474E 
 10883              	.LASF584:
 10884 10e3 6D786D6C 		.ascii	"mxmlSetCustomHandlers\000"
 10884      53657443 
 10884      7573746F 
 10884      6D48616E 
 10884      646C6572 
 10885              	.LASF370:
 10886 10f9 4F535F46 		.ascii	"OS_FN_MIF_HALT\000"
 10886      4E5F4D49 
 10886      465F4841 
 10886      4C5400
 10887              	.LASF263:
 10888 1108 4F535F46 		.ascii	"OS_FN_FL_CREAD_END\000"
 10888      4E5F464C 
 10888      5F435245 
 10888      41445F45 
 10888      4E4400
 10889              	.LASF236:
 10890 111b 4F535F46 		.ascii	"OS_FN_MSR_STATUS\000"
 10890      4E5F4D53 
 10890      525F5354 
 10890      41545553 
 10890      00
 10891              	.LASF564:
 10892 112c 6E616D65 		.ascii	"namesize\000"
 10892      73697A65 
 10892      00
 10893              	.LASF469:
 10894 1135 4F535F46 		.ascii	"OS_FN_WIFI_SOCKET_LISTEN\000"
 10894      4E5F5749 
 10894      46495F53 
 10894      4F434B45 
 10894      545F4C49 
 10895              	.LASF245:
 10896 114e 4F535F46 		.ascii	"OS_FN_USBSER_WRITE\000"
 10896      4E5F5553 
 10896      42534552 
 10896      5F575249 
 10896      544500
 10897              	.LASF369:
 10898 1161 4F535F46 		.ascii	"OS_FN_MIF_CANCEL\000"
 10898      4E5F4D49 
 10898      465F4341 
 10898      4E43454C 
 10898      00
 10899              	.LASF5:
 10900 1172 6C6F6E67 		.ascii	"long unsigned int\000"
 10900      20756E73 
 10900      69676E65 
 10900      6420696E 
 10900      7400
 10901              	.LASF46:
 10902 1184 4F535F46 		.ascii	"OS_FN_DISP_BACKC\000"
 10902      4E5F4449 
 10902      53505F42 
 10902      41434B43 
ARM GAS  C:\Users\AHMED~1.ELE\AppData\Local\Temp\ccbrMpYT.s 			page 263


 10902      00
 10903              	.LASF42:
 10904 1195 4F535F46 		.ascii	"OS_FN_DISP_GETP\000"
 10904      4E5F4449 
 10904      53505F47 
 10904      45545000 
 10905              	.LASF422:
 10906 11a5 4F535F46 		.ascii	"OS_FN_BREG_READ\000"
 10906      4E5F4252 
 10906      45475F52 
 10906      45414400 
 10907              	.LASF300:
 10908 11b5 4F535F46 		.ascii	"OS_FN_GPRS_SMS_ACK\000"
 10908      4E5F4750 
 10908      52535F53 
 10908      4D535F41 
 10908      434B00
 10909              	.LASF15:
 10910 11c8 4F535F46 		.ascii	"OS_FN_RAND\000"
 10910      4E5F5241 
 10910      4E4400
 10911              	.LASF232:
 10912 11d3 4F535F46 		.ascii	"OS_FN_MSR_CLOSE\000"
 10912      4E5F4D53 
 10912      525F434C 
 10912      4F534500 
 10913              	.LASF401:
 10914 11e3 4F535F46 		.ascii	"OS_FN_WIFI_RECV_RESPONSE\000"
 10914      4E5F5749 
 10914      46495F52 
 10914      4543565F 
 10914      52455350 
 10915              	.LASF228:
 10916 11fc 4F535F46 		.ascii	"OS_FN_LAN_READ\000"
 10916      4E5F4C41 
 10916      4E5F5245 
 10916      414400
 10917              	.LASF606:
 10918 120b 474E5520 		.ascii	"GNU C 4.9.3 20141119 (release) [ARM/embedded-4_9-br"
 10918      4320342E 
 10918      392E3320 
 10918      32303134 
 10918      31313139 
 10919 123e 616E6368 		.ascii	"anch revision 218278] -mthumb -mcpu=cortex-a5 -mthu"
 10919      20726576 
 10919      6973696F 
 10919      6E203231 
 10919      38323738 
 10920 1271 6D622D69 		.ascii	"mb-interwork -mstructure-size-boundary=32 -mno-unal"
 10920      6E746572 
 10920      776F726B 
 10920      202D6D73 
 10920      74727563 
 10921 12a4 69676E65 		.ascii	"igned-access -g -Os -ffunction-sections -fsigned-ch"
 10921      642D6163 
 10921      63657373 
 10921      202D6720 
ARM GAS  C:\Users\AHMED~1.ELE\AppData\Local\Temp\ccbrMpYT.s 			page 264


 10921      2D4F7320 
 10922 12d7 617200   		.ascii	"ar\000"
 10923              	.LASF460:
 10924 12da 4F535F46 		.ascii	"OS_FN_GCM_AES_CLOSE\000"
 10924      4E5F4743 
 10924      4D5F4145 
 10924      535F434C 
 10924      4F534500 
 10925              	.LASF265:
 10926 12ee 4F535F46 		.ascii	"OS_FN_MDM_OPEN\000"
 10926      4E5F4D44 
 10926      4D5F4F50 
 10926      454E00
 10927              	.LASF271:
 10928 12fd 4F535F46 		.ascii	"OS_FN_MDM_LAST_CONN_STAT\000"
 10928      4E5F4D44 
 10928      4D5F4C41 
 10928      53545F43 
 10928      4F4E4E5F 
 10929              	.LASF426:
 10930 1316 4F535F46 		.ascii	"OS_FN_SLEEP\000"
 10930      4E5F534C 
 10930      45455000 
 10931              	.LASF597:
 10932 1322 6D786D6C 		.ascii	"mxmlRelease\000"
 10932      52656C65 
 10932      61736500 
 10933              	.LASF240:
 10934 132e 4F535F46 		.ascii	"OS_FN_LPT_PUTDW\000"
 10934      4E5F4C50 
 10934      545F5055 
 10934      54445700 
 10935              	.LASF22:
 10936 133e 4F535F46 		.ascii	"OS_FN_KBD_LOCK\000"
 10936      4E5F4B42 
 10936      445F4C4F 
 10936      434B00
 10937              	.LASF474:
 10938 134d 4F535F46 		.ascii	"OS_FN_GPRS_IS_HL6RD\000"
 10938      4E5F4750 
 10938      52535F49 
 10938      535F484C 
 10938      36524400 
 10939              	.LASF150:
 10940 1361 4F535F46 		.ascii	"OS_FN_LED_SET\000"
 10940      4E5F4C45 
 10940      445F5345 
 10940      5400
 10941              	.LASF318:
 10942 136f 4F535F46 		.ascii	"OS_FN_CLICC_OPEN\000"
 10942      4E5F434C 
 10942      4943435F 
 10942      4F50454E 
 10942      00
 10943              	.LASF453:
 10944 1380 4F535F46 		.ascii	"OS_FN_ECC_PUBKEY_VERIFY\000"
 10944      4E5F4543 
ARM GAS  C:\Users\AHMED~1.ELE\AppData\Local\Temp\ccbrMpYT.s 			page 265


 10944      435F5055 
 10944      424B4559 
 10944      5F564552 
 10945              	.LASF362:
 10946 1398 4F535F46 		.ascii	"OS_FN_USBKBD_INKEY\000"
 10946      4E5F5553 
 10946      424B4244 
 10946      5F494E4B 
 10946      455900
 10947              	.LASF66:
 10948 13ab 4F535F46 		.ascii	"OS_FN_COM2_TXRDY\000"
 10948      4E5F434F 
 10948      4D325F54 
 10948      58524459 
 10948      00
 10949              	.LASF138:
 10950 13bc 4F535F46 		.ascii	"OS_FN_THREAD_LOCK\000"
 10950      4E5F5448 
 10950      52454144 
 10950      5F4C4F43 
 10950      4B00
 10951              	.LASF558:
 10952 13ce 67657463 		.ascii	"getc_cb\000"
 10952      5F636200 
 10953              	.LASF353:
 10954 13d6 4F535F46 		.ascii	"OS_FN_BUS_STOP\000"
 10954      4E5F4255 
 10954      535F5354 
 10954      4F5000
 10955              	.LASF186:
 10956 13e5 4F535F46 		.ascii	"OS_FN_FILE_SET_LOCK\000"
 10956      4E5F4649 
 10956      4C455F53 
 10956      45545F4C 
 10956      4F434B00 
 10957              	.LASF299:
 10958 13f9 4F535F46 		.ascii	"OS_FN_GPRS_SMS_DECODE\000"
 10958      4E5F4750 
 10958      52535F53 
 10958      4D535F44 
 10958      45434F44 
 10959              	.LASF277:
 10960 140f 4F535F46 		.ascii	"OS_FN_MCOM_SREAD\000"
 10960      4E5F4D43 
 10960      4F4D5F53 
 10960      52454144 
 10960      00
 10961              	.LASF126:
 10962 1420 4F535F46 		.ascii	"OS_FN_KEY_HASH\000"
 10962      4E5F4B45 
 10962      595F4841 
 10962      534800
 10963              	.LASF188:
 10964 142f 4F535F46 		.ascii	"OS_FN_FILE_FREESPACE\000"
 10964      4E5F4649 
 10964      4C455F46 
 10964      52454553 
ARM GAS  C:\Users\AHMED~1.ELE\AppData\Local\Temp\ccbrMpYT.s 			page 266


 10964      50414345 
 10965              	.LASF599:
 10966 1444 6D786D6C 		.ascii	"mxmlNewOpaque\000"
 10966      4E65774F 
 10966      70617175 
 10966      6500
 10967              	.LASF577:
 10968 1452 6D786D6C 		.ascii	"mxml_add_char\000"
 10968      5F616464 
 10968      5F636861 
 10968      7200
 10969              	.LASF208:
 10970 1460 4F535F46 		.ascii	"OS_FN_SAM_T1\000"
 10970      4E5F5341 
 10970      4D5F5431 
 10970      00
 10971              	.LASF192:
 10972 146d 4F535F46 		.ascii	"OS_FN_FILE_READDIR\000"
 10972      4E5F4649 
 10972      4C455F52 
 10972      45414444 
 10972      495200
 10973              	.LASF30:
 10974 1480 4F535F46 		.ascii	"OS_FN_BUZ_BEEP\000"
 10974      4E5F4255 
 10974      5A5F4245 
 10974      455000
 10975              	.LASF438:
 10976 148f 4F535F46 		.ascii	"OS_FN_APPCALL_RETURN\000"
 10976      4E5F4150 
 10976      5043414C 
 10976      4C5F5245 
 10976      5455524E 
 10977              	.LASF118:
 10978 14a4 4F535F46 		.ascii	"OS_FN_KEY_SAVE_TMK\000"
 10978      4E5F4B45 
 10978      595F5341 
 10978      56455F54 
 10978      4D4B00
 10979              	.LASF502:
 10980 14b7 4D584D4C 		.ascii	"MXML_TEXT\000"
 10980      5F544558 
 10980      5400
 10981              	.LASF16:
 10982 14c1 4F535F46 		.ascii	"OS_FN_RAND_UPDATE\000"
 10982      4E5F5241 
 10982      4E445F55 
 10982      50444154 
 10982      4500
 10983              	.LASF403:
 10984 14d3 4F535F46 		.ascii	"OS_FN_WIFI_PROFILES_READ\000"
 10984      4E5F5749 
 10984      46495F50 
 10984      524F4649 
 10984      4C45535F 
 10985              	.LASF166:
 10986 14ec 4F535F46 		.ascii	"OS_FN_FILE_CLOSE\000"
ARM GAS  C:\Users\AHMED~1.ELE\AppData\Local\Temp\ccbrMpYT.s 			page 267


 10986      4E5F4649 
 10986      4C455F43 
 10986      4C4F5345 
 10986      00
 10987              	.LASF162:
 10988 14fd 4F535F46 		.ascii	"OS_FN_FREE\000"
 10988      4E5F4652 
 10988      454500
 10989              	.LASF18:
 10990 1508 4F535F46 		.ascii	"OS_FN_KBD_CLOSE\000"
 10990      4E5F4B42 
 10990      445F434C 
 10990      4F534500 
 10991              	.LASF6:
 10992 1518 6C6F6E67 		.ascii	"long long int\000"
 10992      206C6F6E 
 10992      6720696E 
 10992      7400
 10993              	.LASF35:
 10994 1526 4F535F46 		.ascii	"OS_FN_DISP_CLOSE\000"
 10994      4E5F4449 
 10994      53505F43 
 10994      4C4F5345 
 10994      00
 10995              	.LASF375:
 10996 1537 4F535F46 		.ascii	"OS_FN_MIF_SELECT\000"
 10996      4E5F4D49 
 10996      465F5345 
 10996      4C454354 
 10996      00
 10997              	.LASF358:
 10998 1548 4F535F46 		.ascii	"OS_FN_NETDEV_EVENT\000"
 10998      4E5F4E45 
 10998      54444556 
 10998      5F455645 
 10998      4E5400
 10999              	.LASF69:
 11000 155b 4F535F46 		.ascii	"OS_FN_COM2_STATUS\000"
 11000      4E5F434F 
 11000      4D325F53 
 11000      54415455 
 11000      5300
 11001              	.LASF86:
 11002 156d 4F535F46 		.ascii	"OS_FN_COM_DES2\000"
 11002      4E5F434F 
 11002      4D5F4445 
 11002      533200
 11003              	.LASF295:
 11004 157c 4F535F46 		.ascii	"OS_FN_GPRS_RESET\000"
 11004      4E5F4750 
 11004      52535F52 
 11004      45534554 
 11004      00
 11005              	.LASF392:
 11006 158d 4F535F46 		.ascii	"OS_FN_BARCODE_CLOSE\000"
 11006      4E5F4241 
 11006      52434F44 
ARM GAS  C:\Users\AHMED~1.ELE\AppData\Local\Temp\ccbrMpYT.s 			page 268


 11006      455F434C 
 11006      4F534500 
 11007              	.LASF529:
 11008 15a1 646F7562 		.ascii	"double\000"
 11008      6C6500
 11009              	.LASF257:
 11010 15a8 4F535F46 		.ascii	"OS_FN_FL_ERASE_END\000"
 11010      4E5F464C 
 11010      5F455241 
 11010      53455F45 
 11010      4E4400
 11011              	.LASF293:
 11012 15bb 4F535F46 		.ascii	"OS_FN_GPRS_SEND\000"
 11012      4E5F4750 
 11012      52535F53 
 11012      454E4400 
 11013              	.LASF241:
 11014 15cb 4F535F46 		.ascii	"OS_FN_LPT_STATUS\000"
 11014      4E5F4C50 
 11014      545F5354 
 11014      41545553 
 11014      00
 11015              	.LASF536:
 11016 15dc 6368696C 		.ascii	"child\000"
 11016      6400
 11017              	.LASF505:
 11018 15e2 6D786D6C 		.ascii	"mxml_custom_destroy_cb_t\000"
 11018      5F637573 
 11018      746F6D5F 
 11018      64657374 
 11018      726F795F 
 11019              	.LASF519:
 11020 15fb 6D786D6C 		.ascii	"mxml_custom_s\000"
 11020      5F637573 
 11020      746F6D5F 
 11020      7300
 11021              	.LASF155:
 11022 1609 4F535F46 		.ascii	"OS_FN_APP_SEARCH_ID\000"
 11022      4E5F4150 
 11022      505F5345 
 11022      41524348 
 11022      5F494400 
 11023              	.LASF347:
 11024 161d 4F535F46 		.ascii	"OS_FN_DEVICE_OPEN\000"
 11024      4E5F4445 
 11024      56494345 
 11024      5F4F5045 
 11024      4E00
 11025              	.LASF53:
 11026 162f 4F535F46 		.ascii	"OS_FN_DISP_OVERLAY\000"
 11026      4E5F4449 
 11026      53505F4F 
 11026      5645524C 
 11026      415900
 11027              	.LASF311:
 11028 1642 4F535F46 		.ascii	"OS_FN_TPAD_RAW_POS\000"
 11028      4E5F5450 
ARM GAS  C:\Users\AHMED~1.ELE\AppData\Local\Temp\ccbrMpYT.s 			page 269


 11028      41445F52 
 11028      41575F50 
 11028      4F5300
 11029              	.LASF211:
 11030 1655 4F535F46 		.ascii	"OS_FN_MMC_CLOSE\000"
 11030      4E5F4D4D 
 11030      435F434C 
 11030      4F534500 
 11031              	.LASF357:
 11032 1665 4F535F46 		.ascii	"OS_FN_NETDEV_GETLINK\000"
 11032      4E5F4E45 
 11032      54444556 
 11032      5F474554 
 11032      4C494E4B 
 11033              	.LASF535:
 11034 167a 70617265 		.ascii	"parent\000"
 11034      6E7400
 11035              	.LASF56:
 11036 1681 4F535F46 		.ascii	"OS_FN_COM1_RXRDY\000"
 11036      4E5F434F 
 11036      4D315F52 
 11036      58524459 
 11036      00
 11037              	.LASF244:
 11038 1692 4F535F46 		.ascii	"OS_FN_USBSER_READ\000"
 11038      4E5F5553 
 11038      42534552 
 11038      5F524541 
 11038      4400
 11039              	.LASF96:
 11040 16a4 4F535F46 		.ascii	"OS_FN_MD5_PROCESS\000"
 11040      4E5F4D44 
 11040      355F5052 
 11040      4F434553 
 11040      5300
 11041              	.LASF548:
 11042 16b6 656E7469 		.ascii	"entity_cbs\000"
 11042      74795F63 
 11042      627300
 11043              	.LASF494:
 11044 16c1 4D584D4C 		.ascii	"MXML_SAX_ELEMENT_OPEN\000"
 11044      5F534158 
 11044      5F454C45 
 11044      4D454E54 
 11044      5F4F5045 
 11045              	.LASF57:
 11046 16d7 4F535F46 		.ascii	"OS_FN_COM1_TXRDY\000"
 11046      4E5F434F 
 11046      4D315F54 
 11046      58524459 
 11046      00
 11047              	.LASF168:
 11048 16e8 4F535F46 		.ascii	"OS_FN_FILE_RENAME\000"
 11048      4E5F4649 
 11048      4C455F52 
 11048      454E414D 
 11048      4500
ARM GAS  C:\Users\AHMED~1.ELE\AppData\Local\Temp\ccbrMpYT.s 			page 270


 11049              	.LASF448:
 11050 16fa 4F535F46 		.ascii	"OS_FN_FPRT_CLOSE\000"
 11050      4E5F4650 
 11050      52545F43 
 11050      4C4F5345 
 11050      00
 11051              	.LASF123:
 11052 170b 4F535F46 		.ascii	"OS_FN_KEY_DUKPT_MAC_CAL\000"
 11052      4E5F4B45 
 11052      595F4455 
 11052      4B50545F 
 11052      4D41435F 
 11053              	.LASF350:
 11054 1723 4F535F46 		.ascii	"OS_FN_INTERRUPT_REGISTER\000"
 11054      4E5F494E 
 11054      54455252 
 11054      5550545F 
 11054      52454749 
 11055              	.LASF209:
 11056 173c 4F535F46 		.ascii	"OS_FN_SAM_CHANGE\000"
 11056      4E5F5341 
 11056      4D5F4348 
 11056      414E4745 
 11056      00
 11057              	.LASF182:
 11058 174d 4F535F46 		.ascii	"OS_FN_FILE_ACTIVATE\000"
 11058      4E5F4649 
 11058      4C455F41 
 11058      43544956 
 11058      41544500 
 11059              	.LASF43:
 11060 1761 4F535F46 		.ascii	"OS_FN_DISP_LENGTH\000"
 11060      4E5F4449 
 11060      53505F4C 
 11060      454E4754 
 11060      4800
 11061              	.LASF598:
 11062 1773 6D786D6C 		.ascii	"mxmlNewInteger\000"
 11062      4E657749 
 11062      6E746567 
 11062      657200
 11063              	.LASF517:
 11064 1782 73747269 		.ascii	"string\000"
 11064      6E6700
 11065              	.LASF450:
 11066 1789 4F535F46 		.ascii	"OS_FN_FPRT_INFO_SET\000"
 11066      4E5F4650 
 11066      52545F49 
 11066      4E464F5F 
 11066      53455400 
 11067              	.LASF526:
 11068 179d 7265616C 		.ascii	"real\000"
 11068      00
 11069              	.LASF8:
 11070 17a2 756E7369 		.ascii	"unsigned int\000"
 11070      676E6564 
 11070      20696E74 
ARM GAS  C:\Users\AHMED~1.ELE\AppData\Local\Temp\ccbrMpYT.s 			page 271


 11070      00
 11071              	.LASF590:
 11072 17af 7379735F 		.ascii	"sys_func1\000"
 11072      66756E63 
 11072      3100
 11073              	.LASF493:
 11074 17b9 4D584D4C 		.ascii	"MXML_SAX_ELEMENT_CLOSE\000"
 11074      5F534158 
 11074      5F454C45 
 11074      4D454E54 
 11074      5F434C4F 
 11075              	.LASF444:
 11076 17d0 4F535F46 		.ascii	"OS_FN_DTIMER_LATCH_TIME\000"
 11076      4E5F4454 
 11076      494D4552 
 11076      5F4C4154 
 11076      43485F54 
 11077              	.LASF322:
 11078 17e8 4F535F46 		.ascii	"OS_FN_CLICC_SENDCOMMAND\000"
 11078      4E5F434C 
 11078      4943435F 
 11078      53454E44 
 11078      434F4D4D 
 11079              	.LASF435:
 11080 1800 4F535F46 		.ascii	"OS_FN_DLL_REQ\000"
 11080      4E5F444C 
 11080      4C5F5245 
 11080      5100
 11081              	.LASF302:
 11082 180e 4F535F46 		.ascii	"OS_FN_GPRS_SMS_CONTROL\000"
 11082      4E5F4750 
 11082      52535F53 
 11082      4D535F43 
 11082      4F4E5452 
 11083              	.LASF175:
 11084 1825 4F535F46 		.ascii	"OS_FN_FILE_GETC\000"
 11084      4E5F4649 
 11084      4C455F47 
 11084      45544300 
 11085              	.LASF611:
 11086 1835 5F6D786D 		.ascii	"_mxml_global\000"
 11086      6C5F676C 
 11086      6F62616C 
 11086      00
 11087              	.LASF395:
 11088 1842 4F535F46 		.ascii	"OS_FN_BARCODE_READ\000"
 11088      4E5F4241 
 11088      52434F44 
 11088      455F5245 
 11088      414400
 11089              	.LASF351:
 11090 1855 4F535F46 		.ascii	"OS_FN_INTERRUPT_UNREGISTER\000"
 11090      4E5F494E 
 11090      54455252 
 11090      5550545F 
 11090      554E5245 
 11091              	.LASF472:
ARM GAS  C:\Users\AHMED~1.ELE\AppData\Local\Temp\ccbrMpYT.s 			page 272


 11092 1870 4F535F46 		.ascii	"OS_FN_IMG_SENSOR_GET_FRAME_COMPLETE\000"
 11092      4E5F494D 
 11092      475F5345 
 11092      4E534F52 
 11092      5F474554 
 11093              	.LASF296:
 11094 1894 4F535F46 		.ascii	"OS_FN_GPRS_CONTROL\000"
 11094      4E5F4750 
 11094      52535F43 
 11094      4F4E5452 
 11094      4F4C00
 11095              	.LASF417:
 11096 18a7 4F535F46 		.ascii	"OS_FN_GPRS_GET_GPS_INFO\000"
 11096      4E5F4750 
 11096      52535F47 
 11096      45545F47 
 11096      50535F49 
 11097              	.LASF492:
 11098 18bf 4D584D4C 		.ascii	"MXML_SAX_DIRECTIVE\000"
 11098      5F534158 
 11098      5F444952 
 11098      45435449 
 11098      564500
 11099              	.LASF125:
 11100 18d2 4F535F46 		.ascii	"OS_FN_KEY_CBC_MAC\000"
 11100      4E5F4B45 
 11100      595F4342 
 11100      435F4D41 
 11100      4300
 11101              	.LASF91:
 11102 18e4 4F535F46 		.ascii	"OS_FN_AES_SETUP_KEY\000"
 11102      4E5F4145 
 11102      535F5345 
 11102      5455505F 
 11102      4B455900 
 11103              	.LASF498:
 11104 18f8 4D584D4C 		.ascii	"MXML_ELEMENT\000"
 11104      5F454C45 
 11104      4D454E54 
 11104      00
 11105              	.LASF348:
 11106 1905 4F535F46 		.ascii	"OS_FN_DEVICE_MOUNT\000"
 11106      4E5F4445 
 11106      56494345 
 11106      5F4D4F55 
 11106      4E5400
 11107              	.LASF87:
 11108 1918 4F535F46 		.ascii	"OS_FN_NEW_DES\000"
 11108      4E5F4E45 
 11108      575F4445 
 11108      5300
 11109              	.LASF181:
 11110 1926 4F535F46 		.ascii	"OS_FN_FILE_DEACTIVATE\000"
 11110      4E5F4649 
 11110      4C455F44 
 11110      45414354 
 11110      49564154 
ARM GAS  C:\Users\AHMED~1.ELE\AppData\Local\Temp\ccbrMpYT.s 			page 273


 11111              	.LASF364:
 11112 193c 4F535F46 		.ascii	"OS_FN_TAMPER_ON\000"
 11112      4E5F5441 
 11112      4D504552 
 11112      5F4F4E00 
 11113              	.LASF255:
 11114 194c 4F535F46 		.ascii	"OS_FN_FL_PGM_END\000"
 11114      4E5F464C 
 11114      5F50474D 
 11114      5F454E44 
 11114      00
 11115              	.LASF262:
 11116 195d 4F535F46 		.ascii	"OS_FN_FL_CREAD\000"
 11116      4E5F464C 
 11116      5F435245 
 11116      414400
 11117              	.LASF413:
 11118 196c 4F535F46 		.ascii	"OS_FN_NFC_IC_REG_DIRECT_READ\000"
 11118      4E5F4E46 
 11118      435F4943 
 11118      5F524547 
 11118      5F444952 
 11119              	.LASF386:
 11120 1989 4F535F46 		.ascii	"OS_FN_MIF_SNO\000"
 11120      4E5F4D49 
 11120      465F534E 
 11120      4F00
 11121              	.LASF128:
 11122 1997 4F535F46 		.ascii	"OS_FN_KEY_SAVE_TMK_NC\000"
 11122      4E5F4B45 
 11122      595F5341 
 11122      56455F54 
 11122      4D4B5F4E 
 11123              	.LASF249:
 11124 19ad 4F535F46 		.ascii	"OS_FN_FL_STATUS\000"
 11124      4E5F464C 
 11124      5F535441 
 11124      54555300 
 11125              	.LASF304:
 11126 19bd 4F535F46 		.ascii	"OS_FN_TPAD_OPEN\000"
 11126      4E5F5450 
 11126      41445F4F 
 11126      50454E00 
 11127              	.LASF561:
 11128 19cd 6D786D6C 		.ascii	"mxml_parse_element\000"
 11128      5F706172 
 11128      73655F65 
 11128      6C656D65 
 11128      6E7400
 11129              	.LASF110:
 11130 19e0 4F535F46 		.ascii	"OS_FN_SM2_DECRYPT\000"
 11130      4E5F534D 
 11130      325F4445 
 11130      43525950 
 11130      5400
 11131              	.LASF222:
 11132 19f2 4F535F46 		.ascii	"OS_FN_SLE_HIST\000"
ARM GAS  C:\Users\AHMED~1.ELE\AppData\Local\Temp\ccbrMpYT.s 			page 274


 11132      4E5F534C 
 11132      455F4849 
 11132      535400
 11133              	.LASF423:
 11134 1a01 4F535F46 		.ascii	"OS_FN_BREG_WRITE\000"
 11134      4E5F4252 
 11134      45475F57 
 11134      52495445 
 11134      00
 11135              	.LASF553:
 11136 1a12 5F6D786D 		.ascii	"_mxml_getc_cb_t\000"
 11136      6C5F6765 
 11136      74635F63 
 11136      625F7400 
 11137              	.LASF115:
 11138 1a22 4F535F46 		.ascii	"OS_FN_SM4_ENCRYPT\000"
 11138      4E5F534D 
 11138      345F454E 
 11138      43525950 
 11138      5400
 11139              	.LASF214:
 11140 1a34 4F535F46 		.ascii	"OS_FN_MMC_PSTATUS\000"
 11140      4E5F4D4D 
 11140      435F5053 
 11140      54415455 
 11140      5300
 11141              	.LASF428:
 11142 1a46 4F535F46 		.ascii	"OS_FN_RESET\000"
 11142      4E5F5245 
 11142      53455400 
 11143              	.LASF256:
 11144 1a52 4F535F46 		.ascii	"OS_FN_FL_ERASE_START\000"
 11144      4E5F464C 
 11144      5F455241 
 11144      53455F53 
 11144      54415254 
 11145              	.LASF314:
 11146 1a67 4F535F46 		.ascii	"OS_FN_CODEC_PLAY\000"
 11146      4E5F434F 
 11146      4445435F 
 11146      504C4159 
 11146      00
 11147              	.LASF48:
 11148 1a78 4F535F46 		.ascii	"OS_FN_DISP_BL_CONTROL\000"
 11148      4E5F4449 
 11148      53505F42 
 11148      4C5F434F 
 11148      4E54524F 
 11149              	.LASF569:
 11150 1a8e 66697273 		.ascii	"first\000"
 11150      7400
 11151              	.LASF355:
 11152 1a94 4F535F46 		.ascii	"OS_FN_NETDEV_OPEN\000"
 11152      4E5F4E45 
 11152      54444556 
 11152      5F4F5045 
 11152      4E00
ARM GAS  C:\Users\AHMED~1.ELE\AppData\Local\Temp\ccbrMpYT.s 			page 275


 11153              	.LASF459:
 11154 1aa6 4F535F46 		.ascii	"OS_FN_GCM_AES_FINISH\000"
 11154      4E5F4743 
 11154      4D5F4145 
 11154      535F4649 
 11154      4E495348 
 11155              	.LASF317:
 11156 1abb 4F535F46 		.ascii	"OS_FN_CODEC_STATUS\000"
 11156      4E5F434F 
 11156      4445435F 
 11156      53544154 
 11156      555300
 11157              	.LASF489:
 11158 1ace 4D584D4C 		.ascii	"MXML_SAX_CDATA\000"
 11158      5F534158 
 11158      5F434441 
 11158      544100
 11159              	.LASF328:
 11160 1add 4F535F46 		.ascii	"OS_FN_CLICC_LED_SET\000"
 11160      4E5F434C 
 11160      4943435F 
 11160      4C45445F 
 11160      53455400 
 11161              	.LASF406:
 11162 1af1 4F535F46 		.ascii	"OS_FN_NFC_SEND_FELICA_COMMAND\000"
 11162      4E5F4E46 
 11162      435F5345 
 11162      4E445F46 
 11162      454C4943 
 11163              	.LASF39:
 11164 1b0f 4F535F46 		.ascii	"OS_FN_DISP_GETG\000"
 11164      4E5F4449 
 11164      53505F47 
 11164      45544700 
 11165              	.LASF323:
 11166 1b1f 4F535F46 		.ascii	"OS_FN_CLICC_CTRL\000"
 11166      4E5F434C 
 11166      4943435F 
 11166      4354524C 
 11166      00
 11167              	.LASF588:
 11168 1b30 6D786D6C 		.ascii	"mxml_error\000"
 11168      5F657272 
 11168      6F7200
 11169              	.LASF216:
 11170 1b3b 4F535F46 		.ascii	"OS_FN_MMC_BLK_WRITE\000"
 11170      4E5F4D4D 
 11170      435F424C 
 11170      4B5F5752 
 11170      49544500 
 11171              	.LASF26:
 11172 1b4f 4F535F46 		.ascii	"OS_FN_TIMER_SET\000"
 11172      4E5F5449 
 11172      4D45525F 
 11172      53455400 
 11173              	.LASF361:
 11174 1b5f 4F535F46 		.ascii	"OS_FN_USBKBD_CLOSE\000"
ARM GAS  C:\Users\AHMED~1.ELE\AppData\Local\Temp\ccbrMpYT.s 			page 276


 11174      4E5F5553 
 11174      424B4244 
 11174      5F434C4F 
 11174      534500
 11175              	.LASF185:
 11176 1b72 4F535F46 		.ascii	"OS_FN_FILE_AUTH\000"
 11176      4E5F4649 
 11176      4C455F41 
 11176      55544800 
 11177              	.LASF610:
 11178 1b82 5F5F6374 		.ascii	"__ctype_ptr__\000"
 11178      7970655F 
 11178      7074725F 
 11178      5F00
 11179              	.LASF264:
 11180 1b90 4F535F46 		.ascii	"OS_FN_FL_COPYBACK\000"
 11180      4E5F464C 
 11180      5F434F50 
 11180      59424143 
 11180      4B00
 11181              	.LASF19:
 11182 1ba2 4F535F46 		.ascii	"OS_FN_KBD_INKEY\000"
 11182      4E5F4B42 
 11182      445F494E 
 11182      4B455900 
 11183              	.LASF27:
 11184 1bb2 4F535F46 		.ascii	"OS_FN_TIMER_GET\000"
 11184      4E5F5449 
 11184      4D45525F 
 11184      47455400 
 11185              	.LASF75:
 11186 1bc2 4F535F46 		.ascii	"OS_FN_COM3_TXRDY\000"
 11186      4E5F434F 
 11186      4D335F54 
 11186      58524459 
 11186      00
 11187              	.LASF176:
 11188 1bd3 4F535F46 		.ascii	"OS_FN_FILE_LENGTH\000"
 11188      4E5F4649 
 11188      4C455F4C 
 11188      454E4754 
 11188      4800
 11189              	.LASF486:
 11190 1be5 454E445F 		.ascii	"END_OF_OS_FN_LIST\000"
 11190      4F465F4F 
 11190      535F464E 
 11190      5F4C4953 
 11190      5400
 11191              	.LASF605:
 11192 1bf7 7374726E 		.ascii	"strncmp\000"
 11192      636D7000 
 11193              	.LASF363:
 11194 1bff 4F535F46 		.ascii	"OS_FN_USBKBD_GETKEY\000"
 11194      4E5F5553 
 11194      424B4244 
 11194      5F474554 
 11194      4B455900 
ARM GAS  C:\Users\AHMED~1.ELE\AppData\Local\Temp\ccbrMpYT.s 			page 277


 11195              	.LASF68:
 11196 1c13 4F535F46 		.ascii	"OS_FN_COM2_SEND\000"
 11196      4E5F434F 
 11196      4D325F53 
 11196      454E4400 
 11197              	.LASF418:
 11198 1c23 4F535F46 		.ascii	"OS_FN_GPS_CMD\000"
 11198      4E5F4750 
 11198      535F434D 
 11198      4400
 11199              	.LASF398:
 11200 1c31 4F535F46 		.ascii	"OS_FN_BARCODE_ENABLED\000"
 11200      4E5F4241 
 11200      52434F44 
 11200      455F454E 
 11200      41424C45 
 11201              	.LASF169:
 11202 1c47 4F535F46 		.ascii	"OS_FN_FILE_DELETE\000"
 11202      4E5F4649 
 11202      4C455F44 
 11202      454C4554 
 11202      4500
 11203              	.LASF145:
 11204 1c59 4F535F46 		.ascii	"OS_FN_BUFMAN_REALLOC\000"
 11204      4E5F4255 
 11204      464D414E 
 11204      5F524541 
 11204      4C4C4F43 
 11205              	.LASF310:
 11206 1c6e 4F535F46 		.ascii	"OS_FN_TPAD_CALIBRATE\000"
 11206      4E5F5450 
 11206      41445F43 
 11206      414C4942 
 11206      52415445 
 11207              	.LASF105:
 11208 1c83 4F535F46 		.ascii	"OS_FN_SM2_SET_CURVE\000"
 11208      4E5F534D 
 11208      325F5345 
 11208      545F4355 
 11208      52564500 
 11209              	.LASF272:
 11210 1c97 4F535F46 		.ascii	"OS_FN_MCOM_OPEN\000"
 11210      4E5F4D43 
 11210      4F4D5F4F 
 11210      50454E00 
 11211              	.LASF329:
 11212 1ca7 4F535F46 		.ascii	"OS_FN_CLICC_LED_CLEAR\000"
 11212      4E5F434C 
 11212      4943435F 
 11212      4C45445F 
 11212      434C4541 
 11213              	.LASF156:
 11214 1cbd 4F535F46 		.ascii	"OS_FN_APP_SEARCH_NAME\000"
 11214      4E5F4150 
 11214      505F5345 
 11214      41524348 
 11214      5F4E414D 
ARM GAS  C:\Users\AHMED~1.ELE\AppData\Local\Temp\ccbrMpYT.s 			page 278


 11215              	.LASF594:
 11216 1cd3 6D786D6C 		.ascii	"mxmlElementSetAttr\000"
 11216      456C656D 
 11216      656E7453 
 11216      65744174 
 11216      747200
 11217              	.LASF99:
 11218 1ce6 4F535F46 		.ascii	"OS_FN_SHA_PROCESS\000"
 11218      4E5F5348 
 11218      415F5052 
 11218      4F434553 
 11218      5300
 11219              	.LASF359:
 11220 1cf8 4F535F46 		.ascii	"OS_FN_NETDEV_IOCTL\000"
 11220      4E5F4E45 
 11220      54444556 
 11220      5F494F43 
 11220      544C00
 11221              	.LASF82:
 11222 1d0b 4F535F46 		.ascii	"OS_FN_DES\000"
 11222      4E5F4445 
 11222      5300
 11223              	.LASF473:
 11224 1d15 4F535F46 		.ascii	"OS_FN_IMG_SENSOR_CLOSE\000"
 11224      4E5F494D 
 11224      475F5345 
 11224      4E534F52 
 11224      5F434C4F 
 11225              	.LASF55:
 11226 1d2c 4F535F46 		.ascii	"OS_FN_COM1_CLOSE\000"
 11226      4E5F434F 
 11226      4D315F43 
 11226      4C4F5345 
 11226      00
 11227              	.LASF394:
 11228 1d3d 4F535F46 		.ascii	"OS_FN_BARCODE_SCAN\000"
 11228      4E5F4241 
 11228      52434F44 
 11228      455F5343 
 11228      414E00
 11229              	.LASF523:
 11230 1d50 656C656D 		.ascii	"element\000"
 11230      656E7400 
 11231              	.LASF21:
 11232 1d58 4F535F46 		.ascii	"OS_FN_KBD_GETKEY\000"
 11232      4E5F4B42 
 11232      445F4745 
 11232      544B4559 
 11232      00
 11233              	.LASF333:
 11234 1d69 4F535F46 		.ascii	"OS_FN_USBHOST_RESET_DEVICE\000"
 11234      4E5F5553 
 11234      42484F53 
 11234      545F5245 
 11234      5345545F 
 11235              	.LASF572:
 11236 1d84 62756673 		.ascii	"bufsize\000"
ARM GAS  C:\Users\AHMED~1.ELE\AppData\Local\Temp\ccbrMpYT.s 			page 279


 11236      697A6500 
 11237              	.LASF306:
 11238 1d8c 4F535F46 		.ascii	"OS_FN_TPAD_ADD_OBJ\000"
 11238      4E5F5450 
 11238      41445F41 
 11238      44445F4F 
 11238      424A00
 11239              	.LASF515:
 11240 1d9f 6D786D6C 		.ascii	"mxml_text_s\000"
 11240      5F746578 
 11240      745F7300 
 11241              	.LASF7:
 11242 1dab 6C6F6E67 		.ascii	"long long unsigned int\000"
 11242      206C6F6E 
 11242      6720756E 
 11242      7369676E 
 11242      65642069 
 11243              	.LASF528:
 11244 1dc2 63757374 		.ascii	"custom\000"
 11244      6F6D00
 11245              	.LASF521:
 11246 1dc9 64657374 		.ascii	"destroy\000"
 11246      726F7900 
 11247              	.LASF197:
 11248 1dd1 4F535F46 		.ascii	"OS_FN_FILE_IOCTL\000"
 11248      4E5F4649 
 11248      4C455F49 
 11248      4F43544C 
 11248      00
 11249              	.LASF178:
 11250 1de2 4F535F46 		.ascii	"OS_FN_FILE_SEARCH\000"
 11250      4E5F4649 
 11250      4C455F53 
 11250      45415243 
 11250      4800
 11251              	.LASF409:
 11252 1df4 4F535F46 		.ascii	"OS_FN_NFC_GET_VALID_RESP\000"
 11252      4E5F4E46 
 11252      435F4745 
 11252      545F5641 
 11252      4C49445F 
 11253              	.LASF482:
 11254 1e0d 4F535F46 		.ascii	"OS_FN_TAMPER_UNLOCK\000"
 11254      4E5F5441 
 11254      4D504552 
 11254      5F554E4C 
 11254      4F434B00 
 11255              	.LASF339:
 11256 1e21 4F535F46 		.ascii	"OS_FN_DRIVER_UNREGISTER\000"
 11256      4E5F4452 
 11256      49564552 
 11256      5F554E52 
 11256      45474953 
 11257              	.LASF463:
 11258 1e39 4F535F46 		.ascii	"OS_FN_WIFI_SOCKET_DISCONNECT\000"
 11258      4E5F5749 
 11258      46495F53 
ARM GAS  C:\Users\AHMED~1.ELE\AppData\Local\Temp\ccbrMpYT.s 			page 280


 11258      4F434B45 
 11258      545F4449 
 11259              	.LASF549:
 11260 1e56 77726170 		.ascii	"wrap\000"
 11260      00
 11261              	.LASF309:
 11262 1e5b 4F535F46 		.ascii	"OS_FN_TPAD_ALERT_RETURN\000"
 11262      4E5F5450 
 11262      41445F41 
 11262      4C455254 
 11262      5F524554 
 11263              	.LASF129:
 11264 1e73 4F535F46 		.ascii	"OS_FN_KEY_SAVE_TMK_CBC\000"
 11264      4E5F4B45 
 11264      595F5341 
 11264      56455F54 
 11264      4D4B5F43 
 11265              	.LASF85:
 11266 1e8a 4F535F46 		.ascii	"OS_FN_COM_DES\000"
 11266      4E5F434F 
 11266      4D5F4445 
 11266      5300
 11267              	.LASF104:
 11268 1e98 4F535F46 		.ascii	"OS_FN_MD4_FINISH\000"
 11268      4E5F4D44 
 11268      345F4649 
 11268      4E495348 
 11268      00
 11269              	.LASF72:
 11270 1ea9 4F535F46 		.ascii	"OS_FN_COM3_OPEN\000"
 11270      4E5F434F 
 11270      4D335F4F 
 11270      50454E00 
 11271              	.LASF442:
 11272 1eb9 4F535F46 		.ascii	"OS_FN_DTIMER_LATCH_START\000"
 11272      4E5F4454 
 11272      494D4552 
 11272      5F4C4154 
 11272      43485F53 
 11273              	.LASF259:
 11274 1ed2 4F535F46 		.ascii	"OS_FN_FL_COPYB_PGM\000"
 11274      4E5F464C 
 11274      5F434F50 
 11274      59425F50 
 11274      474D00
 11275              	.LASF484:
 11276 1ee5 4F535F46 		.ascii	"OS_FN_IMG_SENSOR_SET_MODE\000"
 11276      4E5F494D 
 11276      475F5345 
 11276      4E534F52 
 11276      5F534554 
 11277              	.LASF501:
 11278 1eff 4D584D4C 		.ascii	"MXML_REAL\000"
 11278      5F524541 
 11278      4C00
 11279              	.LASF404:
 11280 1f09 4F535F46 		.ascii	"OS_FN_WIFI_PROFILES_WRITE\000"
ARM GAS  C:\Users\AHMED~1.ELE\AppData\Local\Temp\ccbrMpYT.s 			page 281


 11280      4E5F5749 
 11280      46495F50 
 11280      524F4649 
 11280      4C45535F 
 11281              	.LASF566:
 11282 1f23 6D786D6C 		.ascii	"mxml_load_data\000"
 11282      5F6C6F61 
 11282      645F6461 
 11282      746100
 11283              	.LASF260:
 11284 1f32 4F535F46 		.ascii	"OS_FN_FL_COPYB_END\000"
 11284      4E5F464C 
 11284      5F434F50 
 11284      59425F45 
 11284      4E4400
 11285              	.LASF64:
 11286 1f45 4F535F46 		.ascii	"OS_FN_COM2_CLOSE\000"
 11286      4E5F434F 
 11286      4D325F43 
 11286      4C4F5345 
 11286      00
 11287              	.LASF219:
 11288 1f56 4F535F46 		.ascii	"OS_FN_MMC_INSERTED\000"
 11288      4E5F4D4D 
 11288      435F494E 
 11288      53455254 
 11288      454400
 11289              	.LASF420:
 11290 1f69 4F535F46 		.ascii	"OS_FN_GPS_RESET\000"
 11290      4E5F4750 
 11290      535F5245 
 11290      53455400 
 11291              	.LASF367:
 11292 1f79 4F535F46 		.ascii	"OS_FN_MIF_OPEN\000"
 11292      4E5F4D49 
 11292      465F4F50 
 11292      454E00
 11293              	.LASF456:
 11294 1f88 4F535F46 		.ascii	"OS_FN_GCM_AES_INIT\000"
 11294      4E5F4743 
 11294      4D5F4145 
 11294      535F494E 
 11294      495400
 11295              	.LASF543:
 11296 1f9b 6D786D6C 		.ascii	"mxml_load_cb_t\000"
 11296      5F6C6F61 
 11296      645F6362 
 11296      5F7400
 11297              	.LASF481:
 11298 1faa 4F535F46 		.ascii	"OS_FN_WIFI_SET_REGULATORY_DOMAIN\000"
 11298      4E5F5749 
 11298      46495F53 
 11298      45545F52 
 11298      4547554C 
 11299              	.LASF283:
 11300 1fcb 4F535F46 		.ascii	"OS_FN_BATT_TEMP\000"
 11300      4E5F4241 
ARM GAS  C:\Users\AHMED~1.ELE\AppData\Local\Temp\ccbrMpYT.s 			page 282


 11300      54545F54 
 11300      454D5000 
 11301              	.LASF384:
 11302 1fdb 4F535F46 		.ascii	"OS_FN_MIF_TRANSFER\000"
 11302      4E5F4D49 
 11302      465F5452 
 11302      414E5346 
 11302      455200
 11303              	.LASF25:
 11304 1fee 4F535F46 		.ascii	"OS_FN_TIMER_CLOSE\000"
 11304      4E5F5449 
 11304      4D45525F 
 11304      434C4F53 
 11304      4500
 11305              	.LASF146:
 11306 2000 4F535F46 		.ascii	"OS_FN_BUFMAN_SHRINK\000"
 11306      4E5F4255 
 11306      464D414E 
 11306      5F534852 
 11306      494E4B00 
 11307              	.LASF593:
 11308 2014 6D786D6C 		.ascii	"mxmlElementGetAttr\000"
 11308      456C656D 
 11308      656E7447 
 11308      65744174 
 11308      747200
 11309              	.LASF273:
 11310 2027 4F535F46 		.ascii	"OS_FN_MCOM_CLOSE\000"
 11310      4E5F4D43 
 11310      4F4D5F43 
 11310      4C4F5345 
 11310      00
 11311              	.LASF102:
 11312 2038 4F535F46 		.ascii	"OS_FN_RC4_ENCRYPT\000"
 11312      4E5F5243 
 11312      345F454E 
 11312      43525950 
 11312      5400
 11313              	.LASF396:
 11314 204a 4F535F46 		.ascii	"OS_FN_BARCODE_ABORT\000"
 11314      4E5F4241 
 11314      52434F44 
 11314      455F4142 
 11314      4F525400 
 11315              	.LASF488:
 11316 205e 6D786D6C 		.ascii	"mxml_sax_event_e\000"
 11316      5F736178 
 11316      5F657665 
 11316      6E745F65 
 11316      00
 11317              	.LASF393:
 11318 206f 4F535F46 		.ascii	"OS_FN_BARCODE_CMD\000"
 11318      4E5F4241 
 11318      52434F44 
 11318      455F434D 
 11318      4400
 11319              	.LASF510:
ARM GAS  C:\Users\AHMED~1.ELE\AppData\Local\Temp\ccbrMpYT.s 			page 283


 11320 2081 6D786D6C 		.ascii	"mxml_attr_s\000"
 11320      5F617474 
 11320      725F7300 
 11321              	.LASF509:
 11322 208d 6D786D6C 		.ascii	"mxml_attr_t\000"
 11322      5F617474 
 11322      725F7400 
 11323              	.LASF31:
 11324 2099 4F535F46 		.ascii	"OS_FN_BUZ_STATE\000"
 11324      4E5F4255 
 11324      5A5F5354 
 11324      41544500 
 11325              	.LASF495:
 11326 20a9 6D786D6C 		.ascii	"mxml_sax_event_t\000"
 11326      5F736178 
 11326      5F657665 
 11326      6E745F74 
 11326      00
 11327              	.LASF226:
 11328 20ba 4F535F46 		.ascii	"OS_FN_LAN_RXRDY\000"
 11328      4E5F4C41 
 11328      4E5F5258 
 11328      52445900 
 11329              	.LASF33:
 11330 20ca 4F535F46 		.ascii	"OS_FN_RTC_SET\000"
 11330      4E5F5254 
 11330      435F5345 
 11330      5400
 11331              	.LASF210:
 11332 20d8 4F535F46 		.ascii	"OS_FN_MMC_OPEN\000"
 11332      4E5F4D4D 
 11332      435F4F50 
 11332      454E00
 11333              	.LASF573:
 11334 20e7 676C6F62 		.ascii	"global\000"
 11334      616C00
 11335              	.LASF344:
 11336 20ee 4F535F46 		.ascii	"OS_FN_DEVICE_IOCTL\000"
 11336      4E5F4445 
 11336      56494345 
 11336      5F494F43 
 11336      544C00
 11337              	.LASF153:
 11338 2101 4F535F46 		.ascii	"OS_FN_GET_CHALLENGE\000"
 11338      4E5F4745 
 11338      545F4348 
 11338      414C4C45 
 11338      4E474500 
 11339              	.LASF215:
 11340 2115 4F535F46 		.ascii	"OS_FN_MMC_BLK_READ\000"
 11340      4E5F4D4D 
 11340      435F424C 
 11340      4B5F5245 
 11340      414400
 11341              	.LASF95:
 11342 2128 4F535F46 		.ascii	"OS_FN_MD5_INIT\000"
 11342      4E5F4D44 
ARM GAS  C:\Users\AHMED~1.ELE\AppData\Local\Temp\ccbrMpYT.s 			page 284


 11342      355F494E 
 11342      495400
 11343              	.LASF251:
 11344 2137 4F535F46 		.ascii	"OS_FN_FL_PAGE\000"
 11344      4E5F464C 
 11344      5F504147 
 11344      4500
 11345              	.LASF586:
 11346 2145 6D786D6C 		.ascii	"mxmlSetWrapMargin\000"
 11346      53657457 
 11346      7261704D 
 11346      61726769 
 11346      6E00
 11347              	.LASF142:
 11348 2157 4F535F46 		.ascii	"OS_FN_THREAD_RETURN\000"
 11348      4E5F5448 
 11348      52454144 
 11348      5F524554 
 11348      55524E00 
 11349              	.LASF201:
 11350 216b 4F535F46 		.ascii	"OS_FN_CONFIG_UPDATE\000"
 11350      4E5F434F 
 11350      4E464947 
 11350      5F555044 
 11350      41544500 
 11351              	.LASF410:
 11352 217f 4F535F46 		.ascii	"OS_FN_NFC_INFO_GET\000"
 11352      4E5F4E46 
 11352      435F494E 
 11352      464F5F47 
 11352      455400
 11353              	.LASF559:
 11354 2192 656E7469 		.ascii	"entity\000"
 11354      747900
 11355              	.LASF179:
 11356 2199 4F535F46 		.ascii	"OS_FN_FILE_DSEARCH\000"
 11356      4E5F4649 
 11356      4C455F44 
 11356      53454152 
 11356      434800
 11357              	.LASF565:
 11358 21ac 76616C73 		.ascii	"valsize\000"
 11358      697A6500 
 11359              	.LASF189:
 11360 21b4 4F535F46 		.ascii	"OS_FN_FILE_GET_SYSTEMINFO\000"
 11360      4E5F4649 
 11360      4C455F47 
 11360      45545F53 
 11360      59535445 
 11361              	.LASF376:
 11362 21ce 4F535F46 		.ascii	"OS_FN_MIF_LOAD_KEY\000"
 11362      4E5F4D49 
 11362      465F4C4F 
 11362      41445F4B 
 11362      455900
 11363              	.LASF98:
 11364 21e1 4F535F46 		.ascii	"OS_FN_SHA_INIT\000"
ARM GAS  C:\Users\AHMED~1.ELE\AppData\Local\Temp\ccbrMpYT.s 			page 285


 11364      4E5F5348 
 11364      415F494E 
 11364      495400
 11365              	.LASF507:
 11366 21f0 6E616D65 		.ascii	"name\000"
 11366      00
 11367              	.LASF343:
 11368 21f5 4F535F46 		.ascii	"OS_FN_DEVICE_ALLOC_MEDIA\000"
 11368      4E5F4445 
 11368      56494345 
 11368      5F414C4C 
 11368      4F435F4D 
 11369              	.LASF457:
 11370 220e 4F535F46 		.ascii	"OS_FN_GCM_AES_PROCESS_AAD\000"
 11370      4E5F4743 
 11370      4D5F4145 
 11370      535F5052 
 11370      4F434553 
 11371              	.LASF600:
 11372 2228 73747274 		.ascii	"strtod\000"
 11372      6F6400
 11373              	.LASF77:
 11374 222f 4F535F46 		.ascii	"OS_FN_COM3_SEND\000"
 11374      4E5F434F 
 11374      4D335F53 
 11374      454E4400 
 11375              	.LASF591:
 11376 223f 73747274 		.ascii	"strtol\000"
 11376      6F6C00
 11377              	.LASF122:
 11378 2246 4F535F46 		.ascii	"OS_FN_KEY_DUKPT_ENCRYPT\000"
 11378      4E5F4B45 
 11378      595F4455 
 11378      4B50545F 
 11378      454E4352 
 11379              	.LASF139:
 11380 225e 4F535F46 		.ascii	"OS_FN_THREAD_UNLOCK\000"
 11380      4E5F5448 
 11380      52454144 
 11380      5F554E4C 
 11380      4F434B00 
 11381              	.LASF368:
 11382 2272 4F535F46 		.ascii	"OS_FN_MIF_CLOSE\000"
 11382      4E5F4D49 
 11382      465F434C 
 11382      4F534500 
 11383              	.LASF78:
 11384 2282 4F535F46 		.ascii	"OS_FN_COM3_STATUS\000"
 11384      4E5F434F 
 11384      4D335F53 
 11384      54415455 
 11384      5300
 11385              	.LASF305:
 11386 2294 4F535F46 		.ascii	"OS_FN_TPAD_CLOSE\000"
 11386      4E5F5450 
 11386      41445F43 
 11386      4C4F5345 
ARM GAS  C:\Users\AHMED~1.ELE\AppData\Local\Temp\ccbrMpYT.s 			page 286


 11386      00
 11387              	.LASF2:
 11388 22a5 73686F72 		.ascii	"short int\000"
 11388      7420696E 
 11388      7400
 11389              	.LASF205:
 11390 22af 4F535F46 		.ascii	"OS_FN_SAM_INSERTED\000"
 11390      4E5F5341 
 11390      4D5F494E 
 11390      53455254 
 11390      454400
 11391              	.LASF327:
 11392 22c2 4F535F46 		.ascii	"OS_FN_CLICC_LED_STATUS\000"
 11392      4E5F434C 
 11392      4943435F 
 11392      4C45445F 
 11392      53544154 
 11393              	.LASF62:
 11394 22d9 4F535F46 		.ascii	"OS_FN_COM1_SSEND\000"
 11394      4E5F434F 
 11394      4D315F53 
 11394      53454E44 
 11394      00
 11395              	.LASF345:
 11396 22ea 4F535F46 		.ascii	"OS_FN_DEVICE_SEARCH_INIT\000"
 11396      4E5F4445 
 11396      56494345 
 11396      5F534541 
 11396      5243485F 
 11397              	.LASF280:
 11398 2303 4F535F46 		.ascii	"OS_FN_MCOM_READ\000"
 11398      4E5F4D43 
 11398      4F4D5F52 
 11398      45414400 
 11399              	.LASF429:
 11400 2313 4F535F46 		.ascii	"OS_FN_FREE_RUN\000"
 11400      4E5F4652 
 11400      45455F52 
 11400      554E00
 11401              	.LASF289:
 11402 2322 4F535F46 		.ascii	"OS_FN_GPRS_SIGNAL\000"
 11402      4E5F4750 
 11402      52535F53 
 11402      49474E41 
 11402      4C00
 11403              	.LASF248:
 11404 2334 4F535F46 		.ascii	"OS_FN_FL_INFO\000"
 11404      4E5F464C 
 11404      5F494E46 
 11404      4F00
 11405              	.LASF325:
 11406 2342 4F535F46 		.ascii	"OS_FN_CLICC_LED_OPEN\000"
 11406      4E5F434C 
 11406      4943435F 
 11406      4C45445F 
 11406      4F50454E 
 11407              	.LASF476:
ARM GAS  C:\Users\AHMED~1.ELE\AppData\Local\Temp\ccbrMpYT.s 			page 287


 11408 2357 4F535F46 		.ascii	"OS_FN_GPRS_SET_PIN_STATUS\000"
 11408      4E5F4750 
 11408      52535F53 
 11408      45545F50 
 11408      494E5F53 
 11409              	.LASF112:
 11410 2371 4F535F46 		.ascii	"OS_FN_SM3_ASCII\000"
 11410      4E5F534D 
 11410      335F4153 
 11410      43494900 
 11411              	.LASF207:
 11412 2381 4F535F46 		.ascii	"OS_FN_SAM_OFF\000"
 11412      4E5F5341 
 11412      4D5F4F46 
 11412      4600
 11413              	.LASF415:
 11414 238f 4F535F46 		.ascii	"OS_FN_GPS_OFF\000"
 11414      4E5F4750 
 11414      535F4F46 
 11414      4600
 11415              	.LASF121:
 11416 239d 4F535F46 		.ascii	"OS_FN_KEY_FLUSH\000"
 11416      4E5F4B45 
 11416      595F464C 
 11416      55534800 
 11417              	.LASF111:
 11418 23ad 4F535F46 		.ascii	"OS_FN_SM2_GET_MESS\000"
 11418      4E5F534D 
 11418      325F4745 
 11418      545F4D45 
 11418      535300
 11419              	.LASF250:
 11420 23c0 4F535F46 		.ascii	"OS_FN_FL_PAGE_READ\000"
 11420      4E5F464C 
 11420      5F504147 
 11420      455F5245 
 11420      414400
 11421              	.LASF161:
 11422 23d3 4F535F46 		.ascii	"OS_FN_REALLOC\000"
 11422      4E5F5245 
 11422      414C4C4F 
 11422      4300
 11423              	.LASF464:
 11424 23e1 4F535F46 		.ascii	"OS_FN_WIFI_SOCKET_GET_STATE\000"
 11424      4E5F5749 
 11424      46495F53 
 11424      4F434B45 
 11424      545F4745 
 11425              	.LASF374:
 11426 23fd 4F535F46 		.ascii	"OS_FN_MIF_ANTICOLL\000"
 11426      4E5F4D49 
 11426      465F414E 
 11426      5449434F 
 11426      4C4C00
 11427              	.LASF253:
 11428 2410 4F535F46 		.ascii	"OS_FN_FL_PGM_START\000"
 11428      4E5F464C 
ARM GAS  C:\Users\AHMED~1.ELE\AppData\Local\Temp\ccbrMpYT.s 			page 288


 11428      5F50474D 
 11428      5F535441 
 11428      525400
 11429              	.LASF411:
 11430 2423 4F535F46 		.ascii	"OS_FN_NFC_INFO_SET\000"
 11430      4E5F4E46 
 11430      435F494E 
 11430      464F5F53 
 11430      455400
 11431              	.LASF465:
 11432 2436 4F535F46 		.ascii	"OS_FN_WIFI_SOCKET_SEND_TCP\000"
 11432      4E5F5749 
 11432      46495F53 
 11432      4F434B45 
 11432      545F5345 
 11433              	.LASF131:
 11434 2451 4F535F46 		.ascii	"OS_FN_PCI_DSS_GET_KVC\000"
 11434      4E5F5043 
 11434      495F4453 
 11434      535F4745 
 11434      545F4B56 
 11435              	.LASF468:
 11436 2467 4F535F46 		.ascii	"OS_FN_WIFI_SOCKET_GET_STATUS\000"
 11436      4E5F5749 
 11436      46495F53 
 11436      4F434B45 
 11436      545F4745 
 11437              	.LASF114:
 11438 2484 4F535F46 		.ascii	"OS_FN_SM4_SET_KEY\000"
 11438      4E5F534D 
 11438      345F5345 
 11438      545F4B45 
 11438      5900
 11439              	.LASF52:
 11440 2496 4F535F46 		.ascii	"OS_FN_DISP_ICON_SET_SIGNAL_TYPE\000"
 11440      4E5F4449 
 11440      53505F49 
 11440      434F4E5F 
 11440      5345545F 
 11441              	.LASF308:
 11442 24b6 4F535F46 		.ascii	"OS_FN_TPAD_CPOS\000"
 11442      4E5F5450 
 11442      41445F43 
 11442      504F5300 
 11443              	.LASF0:
 11444 24c6 7369676E 		.ascii	"signed char\000"
 11444      65642063 
 11444      68617200 
 11445              	.LASF400:
 11446 24d2 4F535F46 		.ascii	"OS_FN_WIFI_SEND_COMMAND\000"
 11446      4E5F5749 
 11446      46495F53 
 11446      454E445F 
 11446      434F4D4D 
 11447              	.LASF571:
 11448 24ea 62756670 		.ascii	"bufptr\000"
 11448      747200
ARM GAS  C:\Users\AHMED~1.ELE\AppData\Local\Temp\ccbrMpYT.s 			page 289


 11449              	.LASF60:
 11450 24f1 4F535F46 		.ascii	"OS_FN_COM1_STATUS\000"
 11450      4E5F434F 
 11450      4D315F53 
 11450      54415455 
 11450      5300
 11451              	.LASF132:
 11452 2503 4F535F46 		.ascii	"OS_FN_PCI_DSS_REGEN_KEY\000"
 11452      4E5F5043 
 11452      495F4453 
 11452      535F5245 
 11452      47454E5F 
 11453              	.LASF76:
 11454 251b 4F535F46 		.ascii	"OS_FN_COM3_READ\000"
 11454      4E5F434F 
 11454      4D335F52 
 11454      45414400 
 11455              	.LASF480:
 11456 252b 4F535F46 		.ascii	"OS_FN_WIFI_GET_REGULATORY_DOMAIN\000"
 11456      4E5F5749 
 11456      46495F47 
 11456      45545F52 
 11456      4547554C 
 11457              	.LASF579:
 11458 254c 6F6C6473 		.ascii	"oldsize\000"
 11458      697A6500 
 11459              	.LASF589:
 11460 2554 6D656D63 		.ascii	"memcpy\000"
 11460      707900
 11461              	.LASF388:
 11462 255b 4F535F46 		.ascii	"OS_FN_MIF_GET\000"
 11462      4E5F4D49 
 11462      465F4745 
 11462      5400
 11463              	.LASF547:
 11464 2569 6E756D5F 		.ascii	"num_entity_cbs\000"
 11464      656E7469 
 11464      74795F63 
 11464      627300
 11465              	.LASF159:
 11466 2578 4F535F46 		.ascii	"OS_FN_APP_INFO\000"
 11466      4E5F4150 
 11466      505F494E 
 11466      464F00
 11467              	.LASF235:
 11468 2587 4F535F46 		.ascii	"OS_FN_MSR_READ\000"
 11468      4E5F4D53 
 11468      525F5245 
 11468      414400
 11469              	.LASF380:
 11470 2596 4F535F46 		.ascii	"OS_FN_MIF_WRITE\000"
 11470      4E5F4D49 
 11470      465F5752 
 11470      49544500 
 11471              	.LASF23:
 11472 25a6 4F535F46 		.ascii	"OS_FN_KBD_UNLOCK\000"
 11472      4E5F4B42 
ARM GAS  C:\Users\AHMED~1.ELE\AppData\Local\Temp\ccbrMpYT.s 			page 290


 11472      445F554E 
 11472      4C4F434B 
 11472      00
 11473              	.LASF379:
 11474 25b7 4F535F46 		.ascii	"OS_FN_MIF_READ\000"
 11474      4E5F4D49 
 11474      465F5245 
 11474      414400
 11475              	.LASF193:
 11476 25c6 4F535F46 		.ascii	"OS_FN_FILE_MKDIR\000"
 11476      4E5F4649 
 11476      4C455F4D 
 11476      4B444952 
 11476      00
 11477              	.LASF154:
 11478 25d7 4F535F46 		.ascii	"OS_FN_AUTH\000"
 11478      4E5F4155 
 11478      544800
 11479              	.LASF225:
 11480 25e2 4F535F46 		.ascii	"OS_FN_LAN_CLOSE\000"
 11480      4E5F4C41 
 11480      4E5F434C 
 11480      4F534500 
 11481              	.LASF94:
 11482 25f2 4F535F46 		.ascii	"OS_FN_SHA1\000"
 11482      4E5F5348 
 11482      413100
 11483              	.LASF24:
 11484 25fd 4F535F46 		.ascii	"OS_FN_TIMER_OPEN\000"
 11484      4E5F5449 
 11484      4D45525F 
 11484      4F50454E 
 11484      00
 11485              	.LASF212:
 11486 260e 4F535F46 		.ascii	"OS_FN_MMC_BLK_SIZE\000"
 11486      4E5F4D4D 
 11486      435F424C 
 11486      4B5F5349 
 11486      5A4500
 11487              	.LASF65:
 11488 2621 4F535F46 		.ascii	"OS_FN_COM2_RXRDY\000"
 11488      4E5F434F 
 11488      4D325F52 
 11488      58524459 
 11488      00
 11489              	.LASF436:
 11490 2632 4F535F46 		.ascii	"OS_FN_GET_MCLK\000"
 11490      4E5F4745 
 11490      545F4D43 
 11490      4C4B00
 11491              	.LASF270:
 11492 2641 4F535F46 		.ascii	"OS_FN_MDM_STATUS\000"
 11492      4E5F4D44 
 11492      4D5F5354 
 11492      41545553 
 11492      00
 11493              	.LASF592:
ARM GAS  C:\Users\AHMED~1.ELE\AppData\Local\Temp\ccbrMpYT.s 			page 291


 11494 2652 6D786D6C 		.ascii	"mxmlEntityGetValue\000"
 11494      456E7469 
 11494      74794765 
 11494      7456616C 
 11494      756500
 11495              	.LASF13:
 11496 2665 44574F52 		.ascii	"DWORD\000"
 11496      4400
 11497              	.LASF231:
 11498 266b 4F535F46 		.ascii	"OS_FN_MSR_OPEN\000"
 11498      4E5F4D53 
 11498      525F4F50 
 11498      454E00
 11499              	.LASF320:
 11500 267a 4F535F46 		.ascii	"OS_FN_CLICC_REMOVE\000"
 11500      4E5F434C 
 11500      4943435F 
 11500      52454D4F 
 11500      564500
 11501              	.LASF254:
 11502 268d 4F535F46 		.ascii	"OS_FN_FL_WRITE\000"
 11502      4E5F464C 
 11502      5F575249 
 11502      544500
 11503              	.LASF71:
 11504 269c 4F535F46 		.ascii	"OS_FN_COM2_SSEND\000"
 11504      4E5F434F 
 11504      4D325F53 
 11504      53454E44 
 11504      00
 11505              	.LASF604:
 11506 26ad 6D786D6C 		.ascii	"mxmlDelete\000"
 11506      44656C65 
 11506      746500
 11507              	.LASF217:
 11508 26b8 4F535F46 		.ascii	"OS_FN_MMC_READ\000"
 11508      4E5F4D4D 
 11508      435F5245 
 11508      414400
 11509              	.LASF537:
 11510 26c7 6C617374 		.ascii	"last_child\000"
 11510      5F636869 
 11510      6C6400
 11511              	.LASF268:
 11512 26d2 4F535F46 		.ascii	"OS_FN_MDM_DISC\000"
 11512      4E5F4D44 
 11512      4D5F4449 
 11512      534300
 11513              	.LASF88:
 11514 26e1 4F535F46 		.ascii	"OS_FN_NEW_DES2\000"
 11514      4E5F4E45 
 11514      575F4445 
 11514      533200
 11515              	.LASF184:
 11516 26f0 4F535F46 		.ascii	"OS_FN_FILE_TRUNCATE\000"
 11516      4E5F4649 
 11516      4C455F54 
ARM GAS  C:\Users\AHMED~1.ELE\AppData\Local\Temp\ccbrMpYT.s 			page 292


 11516      52554E43 
 11516      41544500 
 11517              	.LASF3:
 11518 2704 73686F72 		.ascii	"short unsigned int\000"
 11518      7420756E 
 11518      7369676E 
 11518      65642069 
 11518      6E7400
 11519              	.LASF136:
 11520 2717 4F535F46 		.ascii	"OS_FN_THREAD_CREATE\000"
 11520      4E5F5448 
 11520      52454144 
 11520      5F435245 
 11520      41544500 
 11521              	.LASF356:
 11522 272b 4F535F46 		.ascii	"OS_FN_NETDEV_CLOSE\000"
 11522      4E5F4E45 
 11522      54444556 
 11522      5F434C4F 
 11522      534500
 11523              	.LASF470:
 11524 273e 4F535F46 		.ascii	"OS_FN_IMG_SENSOR_OPEN\000"
 11524      4E5F494D 
 11524      475F5345 
 11524      4E534F52 
 11524      5F4F5045 
 11525              	.LASF61:
 11526 2754 4F535F46 		.ascii	"OS_FN_COM1_SREAD\000"
 11526      4E5F434F 
 11526      4D315F53 
 11526      52454144 
 11526      00
 11527              	.LASF101:
 11528 2765 4F535F46 		.ascii	"OS_FN_RC4_SETUP\000"
 11528      4E5F5243 
 11528      345F5345 
 11528      54555000 
 11529              	.LASF602:
 11530 2775 6D786D6C 		.ascii	"mxmlNewText\000"
 11530      4E657754 
 11530      65787400 
 11531              	.LASF554:
 11532 2781 6D786D6C 		.ascii	"mxml_isspace\000"
 11532      5F697373 
 11532      70616365 
 11532      00
 11533              	.LASF89:
 11534 278e 4F535F46 		.ascii	"OS_FN_RSA\000"
 11534      4E5F5253 
 11534      4100
 11535              	.LASF583:
 11536 2798 73617665 		.ascii	"save\000"
 11536      00
 11537              	.LASF81:
 11538 279d 4F535F46 		.ascii	"OS_FN_DESKEY\000"
 11538      4E5F4445 
 11538      534B4559 
ARM GAS  C:\Users\AHMED~1.ELE\AppData\Local\Temp\ccbrMpYT.s 			page 293


 11538      00
 11539              	.LASF335:
 11540 27aa 4F535F46 		.ascii	"OS_FN_USBHOST_RHPORT_STATUS\000"
 11540      4E5F5553 
 11540      42484F53 
 11540      545F5248 
 11540      504F5254 
 11541              	.LASF148:
 11542 27c6 4F535F46 		.ascii	"OS_FN_LED_CLOSE\000"
 11542      4E5F4C45 
 11542      445F434C 
 11542      4F534500 
 11543              	.LASF349:
 11544 27d6 4F535F46 		.ascii	"OS_FN_DEVICE_UNMOUNT\000"
 11544      4E5F4445 
 11544      56494345 
 11544      5F554E4D 
 11544      4F554E54 
 11545              	.LASF74:
 11546 27eb 4F535F46 		.ascii	"OS_FN_COM3_RXRDY\000"
 11546      4E5F434F 
 11546      4D335F52 
 11546      58524459 
 11546      00
 11547              	.LASF390:
 11548 27fc 4F535F46 		.ascii	"OS_FN_MIF_INFO_GET\000"
 11548      4E5F4D49 
 11548      465F494E 
 11548      464F5F47 
 11548      455400
 11549              	.LASF247:
 11550 280f 4F535F46 		.ascii	"OS_FN_USBSER_ENABLE\000"
 11550      4E5F5553 
 11550      42534552 
 11550      5F454E41 
 11550      424C4500 
 11551              	.LASF445:
 11552 2823 4F535F46 		.ascii	"OS_FN_LPT_RESET_COUNT\000"
 11552      4E5F4C50 
 11552      545F5245 
 11552      5345545F 
 11552      434F554E 
 11553              	.LASF391:
 11554 2839 4F535F46 		.ascii	"OS_FN_BARCODE_OPEN\000"
 11554      4E5F4241 
 11554      52434F44 
 11554      455F4F50 
 11554      454E00
 11555              	.LASF500:
 11556 284c 4D584D4C 		.ascii	"MXML_OPAQUE\000"
 11556      5F4F5041 
 11556      51554500 
 11557              	.LASF290:
 11558 2858 4F535F46 		.ascii	"OS_FN_GPRS_STATUS\000"
 11558      4E5F4750 
 11558      52535F53 
 11558      54415455 
ARM GAS  C:\Users\AHMED~1.ELE\AppData\Local\Temp\ccbrMpYT.s 			page 294


 11558      5300
 11559              	.LASF80:
 11560 286a 4F535F46 		.ascii	"OS_FN_COM3_SSEND\000"
 11560      4E5F434F 
 11560      4D335F53 
 11560      53454E44 
 11560      00
 11561              	.LASF534:
 11562 287b 70726576 		.ascii	"prev\000"
 11562      00
 11563              	.LASF496:
 11564 2880 6D786D6C 		.ascii	"mxml_type_e\000"
 11564      5F747970 
 11564      655F6500 
 11565              	.LASF408:
 11566 288c 4F535F46 		.ascii	"OS_FN_NFC_CLOSE\000"
 11566      4E5F4E46 
 11566      435F434C 
 11566      4F534500 
 11567              	.LASF14:
 11568 289c 4F535F46 		.ascii	"OS_FN_GET_VERSION\000"
 11568      4E5F4745 
 11568      545F5645 
 11568      5253494F 
 11568      4E00
 11569              	.LASF533:
 11570 28ae 6E657874 		.ascii	"next\000"
 11570      00
 11571              	.LASF520:
 11572 28b3 64617461 		.ascii	"data\000"
 11572      00
 11573              	.LASF288:
 11574 28b8 4F535F46 		.ascii	"OS_FN_ADC_CH_READ\000"
 11574      4E5F4144 
 11574      435F4348 
 11574      5F524541 
 11574      4400
 11575              	.LASF504:
 11576 28ca 6D786D6C 		.ascii	"mxml_type_t\000"
 11576      5F747970 
 11576      655F7400 
 11577              	.LASF266:
 11578 28d6 4F535F46 		.ascii	"OS_FN_MDM_CLOSE\000"
 11578      4E5F4D44 
 11578      4D5F434C 
 11578      4F534500 
 11579              	.LASF441:
 11580 28e6 4F535F46 		.ascii	"OS_FN_DMK_INJECT\000"
 11580      4E5F444D 
 11580      4B5F494E 
 11580      4A454354 
 11580      00
 11581              	.LASF29:
 11582 28f7 4F535F46 		.ascii	"OS_FN_BUZ_CLOSE\000"
 11582      4E5F4255 
 11582      5A5F434C 
 11582      4F534500 
ARM GAS  C:\Users\AHMED~1.ELE\AppData\Local\Temp\ccbrMpYT.s 			page 295


 11583              	.LASF170:
 11584 2907 4F535F46 		.ascii	"OS_FN_FILE_FLUSHED\000"
 11584      4E5F4649 
 11584      4C455F46 
 11584      4C555348 
 11584      454400
 11585              	.LASF44:
 11586 291a 4F535F46 		.ascii	"OS_FN_DISP_GET_LCD_BUFFER\000"
 11586      4E5F4449 
 11586      53505F47 
 11586      45545F4C 
 11586      43445F42 
 11587              	.LASF319:
 11588 2934 4F535F46 		.ascii	"OS_FN_CLICC_POLL\000"
 11588      4E5F434C 
 11588      4943435F 
 11588      504F4C4C 
 11588      00
 11589              	.LASF70:
 11590 2945 4F535F46 		.ascii	"OS_FN_COM2_SREAD\000"
 11590      4E5F434F 
 11590      4D325F53 
 11590      52454144 
 11590      00
 11591              	.LASF331:
 11592 2956 4F535F46 		.ascii	"OS_FN_USBHOST_SUBMIT_BUFFER\000"
 11592      4E5F5553 
 11592      42484F53 
 11592      545F5355 
 11592      424D4954 
 11593              	.LASF563:
 11594 2972 71756F74 		.ascii	"quote\000"
 11594      6500
 11595              	.LASF200:
 11596 2978 4F535F46 		.ascii	"OS_FN_CONFIG_WRITE\000"
 11596      4E5F434F 
 11596      4E464947 
 11596      5F575249 
 11596      544500
 11597              	.LASF541:
 11598 298b 6D786D6C 		.ascii	"mxml_custom_load_cb_t\000"
 11598      5F637573 
 11598      746F6D5F 
 11598      6C6F6164 
 11598      5F63625F 
 11599              	.LASF332:
 11600 29a1 4F535F46 		.ascii	"OS_FN_USBHOST_UNLINK_BUFFER\000"
 11600      4E5F5553 
 11600      42484F53 
 11600      545F554E 
 11600      4C494E4B 
 11601              		.ident	"GCC: (GNU Tools for ARM Embedded Processors) 4.9.3 20141119 (release) [ARM/embedded-4_9-br
ARM GAS  C:\Users\AHMED~1.ELE\AppData\Local\Temp\ccbrMpYT.s 			page 296


DEFINED SYMBOLS
                            *ABS*:00000000 mxml-file.c
C:\Users\AHMED~1.ELE\AppData\Local\Temp\ccbrMpYT.s:19     .text.mxml_string_getc:00000000 $t
C:\Users\AHMED~1.ELE\AppData\Local\Temp\ccbrMpYT.s:23     .text.mxml_string_getc:00000000 mxml_string_getc
C:\Users\AHMED~1.ELE\AppData\Local\Temp\ccbrMpYT.s:375    .text.mxml_string_getc:000001f0 $d
C:\Users\AHMED~1.ELE\AppData\Local\Temp\ccbrMpYT.s:381    .text.mxml_add_char:00000000 $t
C:\Users\AHMED~1.ELE\AppData\Local\Temp\ccbrMpYT.s:385    .text.mxml_add_char:00000000 mxml_add_char
C:\Users\AHMED~1.ELE\AppData\Local\Temp\ccbrMpYT.s:563    .text.mxml_add_char:000000fc $d
C:\Users\AHMED~1.ELE\AppData\Local\Temp\ccbrMpYT.s:568    .text.mxml_isspace:00000000 $t
C:\Users\AHMED~1.ELE\AppData\Local\Temp\ccbrMpYT.s:572    .text.mxml_isspace:00000000 mxml_isspace
C:\Users\AHMED~1.ELE\AppData\Local\Temp\ccbrMpYT.s:608    .text.mxml_get_entity.constprop.3:00000000 $t
C:\Users\AHMED~1.ELE\AppData\Local\Temp\ccbrMpYT.s:612    .text.mxml_get_entity.constprop.3:00000000 mxml_get_entity.constprop.3
C:\Users\AHMED~1.ELE\AppData\Local\Temp\ccbrMpYT.s:784    .text.mxml_get_entity.constprop.3:000000d4 $d
C:\Users\AHMED~1.ELE\AppData\Local\Temp\ccbrMpYT.s:794    .text.mxml_load_data.constprop.1:00000000 $t
C:\Users\AHMED~1.ELE\AppData\Local\Temp\ccbrMpYT.s:798    .text.mxml_load_data.constprop.1:00000000 mxml_load_data.constprop.1
C:\Users\AHMED~1.ELE\AppData\Local\Temp\ccbrMpYT.s:1054   .text.mxml_load_data.constprop.1:00000190 $d
C:\Users\AHMED~1.ELE\AppData\Local\Temp\ccbrMpYT.s:1255   .text.mxml_load_data.constprop.1:000002b4 $d
C:\Users\AHMED~1.ELE\AppData\Local\Temp\ccbrMpYT.s:1267   .text.mxml_load_data.constprop.1:000002d8 $t
C:\Users\AHMED~1.ELE\AppData\Local\Temp\ccbrMpYT.s:1760   .text.mxml_load_data.constprop.1:000005b8 $d
C:\Users\AHMED~1.ELE\AppData\Local\Temp\ccbrMpYT.s:1772   .text.mxml_load_data.constprop.1:000005dc $t
C:\Users\AHMED~1.ELE\AppData\Local\Temp\ccbrMpYT.s:2347   .text.mxml_load_data.constprop.1:0000090c $d
C:\Users\AHMED~1.ELE\AppData\Local\Temp\ccbrMpYT.s:2359   .text.mxml_load_data.constprop.1:00000930 $t
C:\Users\AHMED~1.ELE\AppData\Local\Temp\ccbrMpYT.s:2605   .text.mxml_load_data.constprop.1:00000a60 $d
C:\Users\AHMED~1.ELE\AppData\Local\Temp\ccbrMpYT.s:2619   .text.mxmlLoadString:00000000 $t
C:\Users\AHMED~1.ELE\AppData\Local\Temp\ccbrMpYT.s:2624   .text.mxmlLoadString:00000000 mxmlLoadString
C:\Users\AHMED~1.ELE\AppData\Local\Temp\ccbrMpYT.s:2655   .text.mxmlSAXLoadString:00000000 $t
C:\Users\AHMED~1.ELE\AppData\Local\Temp\ccbrMpYT.s:2660   .text.mxmlSAXLoadString:00000000 mxmlSAXLoadString
C:\Users\AHMED~1.ELE\AppData\Local\Temp\ccbrMpYT.s:2690   .text.mxmlSetCustomHandlers:00000000 $t
C:\Users\AHMED~1.ELE\AppData\Local\Temp\ccbrMpYT.s:2695   .text.mxmlSetCustomHandlers:00000000 mxmlSetCustomHandlers
C:\Users\AHMED~1.ELE\AppData\Local\Temp\ccbrMpYT.s:2723   .text.mxmlSetErrorCallback:00000000 $t
C:\Users\AHMED~1.ELE\AppData\Local\Temp\ccbrMpYT.s:2728   .text.mxmlSetErrorCallback:00000000 mxmlSetErrorCallback
C:\Users\AHMED~1.ELE\AppData\Local\Temp\ccbrMpYT.s:2751   .text.mxmlSetWrapMargin:00000000 $t
C:\Users\AHMED~1.ELE\AppData\Local\Temp\ccbrMpYT.s:2756   .text.mxmlSetWrapMargin:00000000 mxmlSetWrapMargin
C:\Users\AHMED~1.ELE\AppData\Local\Temp\ccbrMpYT.s:2779   .rodata:00000000 $d
C:\Users\AHMED~1.ELE\AppData\Local\Temp\ccbrMpYT.s:2783   .rodata:00000000 types.11198
                     .debug_frame:00000010 $d
C:\Users\AHMED~1.ELE\AppData\Local\Temp\ccbrMpYT.s:1059   .text.mxml_load_data.constprop.1:00000195 $d
C:\Users\AHMED~1.ELE\AppData\Local\Temp\ccbrMpYT.s:1059   .text.mxml_load_data.constprop.1:00000196 $t

UNDEFINED SYMBOLS
mxml_error
sys_func1
memcpy
strtol
mxmlEntityGetValue
__ctype_ptr__
_mxml_global
strcmp
mxmlNewElement
mxmlRelease
mxmlNewInteger
mxmlNewOpaque
strtod
mxmlNewReal
mxmlNewText
mxmlNewCustom
mxmlDelete
ARM GAS  C:\Users\AHMED~1.ELE\AppData\Local\Temp\ccbrMpYT.s 			page 297


strncmp
mxmlElementGetAttr
mxmlElementSetAttr
