ARM GAS  C:\Users\AHMED~1.ELE\AppData\Local\Temp\ccHW1nYs.s 			page 1


   1              		.syntax unified
   2              		.cpu cortex-a5
   3              		.fpu softvfp
   4              		.eabi_attribute 20, 1
   5              		.eabi_attribute 21, 1
   6              		.eabi_attribute 23, 3
   7              		.eabi_attribute 24, 1
   8              		.eabi_attribute 25, 1
   9              		.eabi_attribute 26, 1
  10              		.eabi_attribute 30, 4
  11              		.eabi_attribute 34, 0
  12              		.eabi_attribute 18, 4
  13              		.thumb
  14              		.file	"mxml-search.c"
  15              		.text
  16              	.Ltext0:
  17              		.cfi_sections	.debug_frame
  18              		.section	.text.mxmlWalkNext,"ax",%progbits
  19              		.align	1
  20              		.global	mxmlWalkNext
  21              		.thumb
  22              		.thumb_func
  23              		.type	mxmlWalkNext, %function
  24              	mxmlWalkNext:
  25              	.LFB2:
  26              		.file 1 "src/mxml-search.c"
   1:src/mxml-search.c **** /*
   2:src/mxml-search.c ****  * "$Id: mxml-search.c 451 2014-01-04 21:50:06Z msweet $"
   3:src/mxml-search.c ****  *
   4:src/mxml-search.c ****  * Search/navigation functions for Mini-XML, a small XML-like file
   5:src/mxml-search.c ****  * parsing library.
   6:src/mxml-search.c ****  *
   7:src/mxml-search.c ****  * Copyright 2003-2014 by Michael R Sweet.
   8:src/mxml-search.c ****  *
   9:src/mxml-search.c ****  * These coded instructions, statements, and computer programs are the
  10:src/mxml-search.c ****  * property of Michael R Sweet and are protected by Federal copyright
  11:src/mxml-search.c ****  * law.  Distribution and use rights are outlined in the file "COPYING"
  12:src/mxml-search.c ****  * which should have been included with this file.  If this file is
  13:src/mxml-search.c ****  * missing or damaged, see the license at:
  14:src/mxml-search.c ****  *
  15:src/mxml-search.c ****  *     http://www.msweet.org/projects.php/Mini-XML
  16:src/mxml-search.c ****  */
  17:src/mxml-search.c **** 
  18:src/mxml-search.c **** /*
  19:src/mxml-search.c ****  * Include necessary headers...
  20:src/mxml-search.c ****  */
  21:src/mxml-search.c **** 
  22:src/mxml-search.c **** #include "mxml-config.h"
  23:src/mxml-search.c **** #include "mxml.h"
  24:src/mxml-search.c **** 
  25:src/mxml-search.c **** 
  26:src/mxml-search.c **** /*
  27:src/mxml-search.c ****  * 'mxmlFindElement()' - Find the named element.
  28:src/mxml-search.c ****  *
  29:src/mxml-search.c ****  * The search is constrained by the name, attribute name, and value; any
  30:src/mxml-search.c ****  * NULL names or values are treated as wildcards, so different kinds of
  31:src/mxml-search.c ****  * searches can be implemented by looking for all elements of a given name
ARM GAS  C:\Users\AHMED~1.ELE\AppData\Local\Temp\ccHW1nYs.s 			page 2


  32:src/mxml-search.c ****  * or all elements with a specific attribute. The descend argument determines
  33:src/mxml-search.c ****  * whether the search descends into child nodes; normally you will use
  34:src/mxml-search.c ****  * MXML_DESCEND_FIRST for the initial search and MXML_NO_DESCEND to find
  35:src/mxml-search.c ****  * additional direct descendents of the node. The top node argument
  36:src/mxml-search.c ****  * constrains the search to a particular node's children.
  37:src/mxml-search.c ****  */
  38:src/mxml-search.c **** 
  39:src/mxml-search.c **** mxml_node_t *				/* O - Element node or NULL */
  40:src/mxml-search.c **** mxmlFindElement(mxml_node_t *node,	/* I - Current node */
  41:src/mxml-search.c ****                 mxml_node_t *top,	/* I - Top node */
  42:src/mxml-search.c ****                 const char  *name,	/* I - Element name or NULL for any */
  43:src/mxml-search.c **** 		const char  *attr,	/* I - Attribute name, or NULL for none */
  44:src/mxml-search.c **** 		const char  *value,	/* I - Attribute value, or NULL for any */
  45:src/mxml-search.c **** 		int         descend)	/* I - Descend into tree - MXML_DESCEND, MXML_NO_DESCEND, or MXML_DESCEND_FI
  46:src/mxml-search.c **** {
  47:src/mxml-search.c ****   const char	*temp;			/* Current attribute value */
  48:src/mxml-search.c **** 
  49:src/mxml-search.c **** 
  50:src/mxml-search.c ****  /*
  51:src/mxml-search.c ****   * Range check input...
  52:src/mxml-search.c ****   */
  53:src/mxml-search.c **** 
  54:src/mxml-search.c ****   if (!node || !top || (!attr && value))
  55:src/mxml-search.c ****     return (NULL);
  56:src/mxml-search.c **** 
  57:src/mxml-search.c ****  /*
  58:src/mxml-search.c ****   * Start with the next node...
  59:src/mxml-search.c ****   */
  60:src/mxml-search.c **** 
  61:src/mxml-search.c ****   node = mxmlWalkNext(node, top, descend);
  62:src/mxml-search.c **** 
  63:src/mxml-search.c ****  /*
  64:src/mxml-search.c ****   * Loop until we find a matching element...
  65:src/mxml-search.c ****   */
  66:src/mxml-search.c **** 
  67:src/mxml-search.c ****   while (node != NULL)
  68:src/mxml-search.c ****   {
  69:src/mxml-search.c ****    /*
  70:src/mxml-search.c ****     * See if this node matches...
  71:src/mxml-search.c ****     */
  72:src/mxml-search.c **** 
  73:src/mxml-search.c ****     if (node->type == MXML_ELEMENT &&
  74:src/mxml-search.c ****         node->value.element.name &&
  75:src/mxml-search.c **** 	(!name || !strcmp(node->value.element.name, name)))
  76:src/mxml-search.c ****     {
  77:src/mxml-search.c ****      /*
  78:src/mxml-search.c ****       * See if we need to check for an attribute...
  79:src/mxml-search.c ****       */
  80:src/mxml-search.c **** 
  81:src/mxml-search.c ****       if (!attr)
  82:src/mxml-search.c ****         return (node);			/* No attribute search, return it... */
  83:src/mxml-search.c **** 
  84:src/mxml-search.c ****      /*
  85:src/mxml-search.c ****       * Check for the attribute...
  86:src/mxml-search.c ****       */
  87:src/mxml-search.c **** 
  88:src/mxml-search.c ****       if ((temp = mxmlElementGetAttr(node, attr)) != NULL)
ARM GAS  C:\Users\AHMED~1.ELE\AppData\Local\Temp\ccHW1nYs.s 			page 3


  89:src/mxml-search.c ****       {
  90:src/mxml-search.c ****        /*
  91:src/mxml-search.c ****         * OK, we have the attribute, does it match?
  92:src/mxml-search.c **** 	*/
  93:src/mxml-search.c **** 
  94:src/mxml-search.c **** 	if (!value || !strcmp(value, temp))
  95:src/mxml-search.c **** 	  return (node);		/* Yes, return it... */
  96:src/mxml-search.c ****       }
  97:src/mxml-search.c ****     }
  98:src/mxml-search.c **** 
  99:src/mxml-search.c ****    /*
 100:src/mxml-search.c ****     * No match, move on to the next node...
 101:src/mxml-search.c ****     */
 102:src/mxml-search.c **** 
 103:src/mxml-search.c ****     if (descend == MXML_DESCEND)
 104:src/mxml-search.c ****       node = mxmlWalkNext(node, top, MXML_DESCEND);
 105:src/mxml-search.c ****     else
 106:src/mxml-search.c ****       node = node->next;
 107:src/mxml-search.c ****   }
 108:src/mxml-search.c **** 
 109:src/mxml-search.c ****   return (NULL);
 110:src/mxml-search.c **** }
 111:src/mxml-search.c **** 
 112:src/mxml-search.c **** 
 113:src/mxml-search.c **** /*
 114:src/mxml-search.c ****  * 'mxmlFindPath()' - Find a node with the given path.
 115:src/mxml-search.c ****  *
 116:src/mxml-search.c ****  * The "path" is a slash-separated list of element names. The name "*" is
 117:src/mxml-search.c ****  * considered a wildcard for one or more levels of elements.  For example,
 118:src/mxml-search.c ****  * "foo/one/two", "bar/two/one", "*\/one", and so forth.
 119:src/mxml-search.c ****  *
 120:src/mxml-search.c ****  * The first child node of the found node is returned if the given node has
 121:src/mxml-search.c ****  * children and the first child is a value node.
 122:src/mxml-search.c ****  *
 123:src/mxml-search.c ****  * @since Mini-XML 2.7@
 124:src/mxml-search.c ****  */
 125:src/mxml-search.c **** 
 126:src/mxml-search.c **** mxml_node_t *				/* O - Found node or NULL */
 127:src/mxml-search.c **** mxmlFindPath(mxml_node_t *top,		/* I - Top node */
 128:src/mxml-search.c **** 	     const char  *path)		/* I - Path to element */
 129:src/mxml-search.c **** {
 130:src/mxml-search.c ****   mxml_node_t	*node;			/* Current node */
 131:src/mxml-search.c ****   char		element[256];		/* Current element name */
 132:src/mxml-search.c ****   const char	*pathsep;		/* Separator in path */
 133:src/mxml-search.c ****   int		descend;		/* mxmlFindElement option */
 134:src/mxml-search.c **** 
 135:src/mxml-search.c **** 
 136:src/mxml-search.c ****  /*
 137:src/mxml-search.c ****   * Range check input...
 138:src/mxml-search.c ****   */
 139:src/mxml-search.c ****   if (!top || !path || !*path)
 140:src/mxml-search.c ****     return (NULL);
 141:src/mxml-search.c **** 
 142:src/mxml-search.c ****  /*
 143:src/mxml-search.c ****   * Search each element in the path...
 144:src/mxml-search.c ****   */
 145:src/mxml-search.c **** 
ARM GAS  C:\Users\AHMED~1.ELE\AppData\Local\Temp\ccHW1nYs.s 			page 4


 146:src/mxml-search.c ****   node = top;
 147:src/mxml-search.c ****   while (*path)
 148:src/mxml-search.c ****   {
 149:src/mxml-search.c ****    /*
 150:src/mxml-search.c ****     * Handle wildcards...
 151:src/mxml-search.c ****     */
 152:src/mxml-search.c **** 
 153:src/mxml-search.c ****     if (!strncmp(path, "*/", 2))
 154:src/mxml-search.c ****     {
 155:src/mxml-search.c ****       path += 2;
 156:src/mxml-search.c ****       descend = MXML_DESCEND;
 157:src/mxml-search.c ****     }
 158:src/mxml-search.c ****     else
 159:src/mxml-search.c ****       descend = MXML_DESCEND_FIRST;
 160:src/mxml-search.c **** 
 161:src/mxml-search.c ****    /*
 162:src/mxml-search.c ****     * Get the next element in the path...
 163:src/mxml-search.c ****     */
 164:src/mxml-search.c **** 
 165:src/mxml-search.c ****     if ((pathsep = strchr(path, '/')) == NULL)
 166:src/mxml-search.c ****       pathsep = path + strlen(path);
 167:src/mxml-search.c **** 
 168:src/mxml-search.c ****     if (pathsep == path || (pathsep - path) >= sizeof(element))
 169:src/mxml-search.c ****       return (NULL);
 170:src/mxml-search.c **** 
 171:src/mxml-search.c ****     memcpy(element, path, pathsep - path);
 172:src/mxml-search.c ****     element[pathsep - path] = '\0';
 173:src/mxml-search.c **** 
 174:src/mxml-search.c ****     if (*pathsep)
 175:src/mxml-search.c ****       path = pathsep + 1;
 176:src/mxml-search.c ****     else
 177:src/mxml-search.c ****       path = pathsep;
 178:src/mxml-search.c **** 
 179:src/mxml-search.c ****    /*
 180:src/mxml-search.c ****     * Search for the element...
 181:src/mxml-search.c ****     */
 182:src/mxml-search.c **** 
 183:src/mxml-search.c ****     if ((node = mxmlFindElement(node, node, element, NULL, NULL,
 184:src/mxml-search.c ****                                 descend)) == NULL)
 185:src/mxml-search.c ****       return (NULL);
 186:src/mxml-search.c ****   }
 187:src/mxml-search.c **** 
 188:src/mxml-search.c ****  /*
 189:src/mxml-search.c ****   * If we get this far, return the node or its first child...
 190:src/mxml-search.c ****   */
 191:src/mxml-search.c **** 
 192:src/mxml-search.c ****   if (node->child && node->child->type != MXML_ELEMENT)
 193:src/mxml-search.c ****     return (node->child);
 194:src/mxml-search.c ****   else
 195:src/mxml-search.c ****     return (node);
 196:src/mxml-search.c **** }
 197:src/mxml-search.c **** 
 198:src/mxml-search.c **** 
 199:src/mxml-search.c **** /*
 200:src/mxml-search.c ****  * 'mxmlWalkNext()' - Walk to the next logical node in the tree.
 201:src/mxml-search.c ****  *
 202:src/mxml-search.c ****  * The descend argument controls whether the first child is considered
ARM GAS  C:\Users\AHMED~1.ELE\AppData\Local\Temp\ccHW1nYs.s 			page 5


 203:src/mxml-search.c ****  * to be the next node. The top node argument constrains the walk to
 204:src/mxml-search.c ****  * the node's children.
 205:src/mxml-search.c ****  */
 206:src/mxml-search.c **** 
 207:src/mxml-search.c **** mxml_node_t *				/* O - Next node or NULL */
 208:src/mxml-search.c **** mxmlWalkNext(mxml_node_t *node,		/* I - Current node */
 209:src/mxml-search.c ****              mxml_node_t *top,		/* I - Top node */
 210:src/mxml-search.c ****              int         descend)	/* I - Descend into tree - MXML_DESCEND, MXML_NO_DESCEND, or MXML
 211:src/mxml-search.c **** {
  27              		.loc 1 211 0
  28              		.cfi_startproc
  29              		@ args = 0, pretend = 0, frame = 0
  30              		@ frame_needed = 0, uses_anonymous_args = 0
  31              		@ link register save eliminated.
  32              	.LVL0:
 212:src/mxml-search.c ****   if (!node)
  33              		.loc 1 212 0
  34 0000 90B1     		cbz	r0, .L7
 213:src/mxml-search.c ****     return (NULL);
 214:src/mxml-search.c ****   else if (node->child && descend)
  35              		.loc 1 214 0
  36 0002 0369     		ldr	r3, [r0, #16]
  37 0004 03B1     		cbz	r3, .L3
  38              		.loc 1 214 0 is_stmt 0 discriminator 1
  39 0006 92B9     		cbnz	r2, .L2
  40              	.L3:
 215:src/mxml-search.c ****     return (node->child);
 216:src/mxml-search.c ****   else if (node == top)
  41              		.loc 1 216 0 is_stmt 1
  42 0008 8842     		cmp	r0, r1
  43 000a 0FD0     		beq	.L8
 217:src/mxml-search.c ****     return (NULL);
 218:src/mxml-search.c ****   else if (node->next)
  44              		.loc 1 218 0
  45 000c 4368     		ldr	r3, [r0, #4]
  46 000e 73B9     		cbnz	r3, .L2
  47              	.LVL1:
  48              	.LBB4:
  49              	.LBB5:
 219:src/mxml-search.c ****     return (node->next);
 220:src/mxml-search.c ****   else if (node->parent && node->parent != top)
  50              		.loc 1 220 0
  51 0010 C268     		ldr	r2, [r0, #12]
  52              	.LVL2:
  53 0012 62B1     		cbz	r2, .L2
  54 0014 8A42     		cmp	r2, r1
  55 0016 0AD0     		beq	.L2
  56              	.LVL3:
  57              	.L5:
 221:src/mxml-search.c ****   {
 222:src/mxml-search.c ****     node = node->parent;
 223:src/mxml-search.c **** 
 224:src/mxml-search.c ****     while (!node->next)
  58              		.loc 1 224 0
  59 0018 5368     		ldr	r3, [r2, #4]
  60 001a 43B9     		cbnz	r3, .L2
 225:src/mxml-search.c ****       if (node->parent == top || !node->parent)
ARM GAS  C:\Users\AHMED~1.ELE\AppData\Local\Temp\ccHW1nYs.s 			page 6


  61              		.loc 1 225 0
  62 001c D268     		ldr	r2, [r2, #12]
  63              	.LVL4:
  64 001e 8A42     		cmp	r2, r1
  65 0020 05D0     		beq	.L2
  66 0022 002A     		cmp	r2, #0
  67 0024 F8D1     		bne	.L5
  68 0026 02E0     		b	.L2
  69              	.LVL5:
  70              	.L7:
  71              	.LBE5:
  72              	.LBE4:
 213:src/mxml-search.c ****   else if (node->child && descend)
  73              		.loc 1 213 0
  74 0028 0346     		mov	r3, r0
  75 002a 00E0     		b	.L2
  76              	.L8:
  77 002c 0023     		movs	r3, #0
  78              	.LVL6:
  79              	.L2:
 226:src/mxml-search.c ****         return (NULL);
 227:src/mxml-search.c ****       else
 228:src/mxml-search.c ****         node = node->parent;
 229:src/mxml-search.c **** 
 230:src/mxml-search.c ****     return (node->next);
 231:src/mxml-search.c ****   }
 232:src/mxml-search.c ****   else
 233:src/mxml-search.c ****     return (NULL);
 234:src/mxml-search.c **** }
  80              		.loc 1 234 0
  81 002e 1846     		mov	r0, r3
  82              	.LVL7:
  83 0030 7047     		bx	lr
  84              		.cfi_endproc
  85              	.LFE2:
  86              		.size	mxmlWalkNext, .-mxmlWalkNext
  87              		.section	.text.mxmlFindElement,"ax",%progbits
  88              		.align	1
  89              		.global	mxmlFindElement
  90              		.thumb
  91              		.thumb_func
  92              		.type	mxmlFindElement, %function
  93              	mxmlFindElement:
  94              	.LFB0:
  46:src/mxml-search.c ****   const char	*temp;			/* Current attribute value */
  95              		.loc 1 46 0
  96              		.cfi_startproc
  97              		@ args = 8, pretend = 0, frame = 0
  98              		@ frame_needed = 0, uses_anonymous_args = 0
  99              	.LVL8:
 100 0000 2DE9F843 		push	{r3, r4, r5, r6, r7, r8, r9, lr}
 101              		.cfi_def_cfa_offset 32
 102              		.cfi_offset 3, -32
 103              		.cfi_offset 4, -28
 104              		.cfi_offset 5, -24
 105              		.cfi_offset 6, -20
 106              		.cfi_offset 7, -16
ARM GAS  C:\Users\AHMED~1.ELE\AppData\Local\Temp\ccHW1nYs.s 			page 7


 107              		.cfi_offset 8, -12
 108              		.cfi_offset 9, -8
 109              		.cfi_offset 14, -4
  46:src/mxml-search.c ****   const char	*temp;			/* Current attribute value */
 110              		.loc 1 46 0
 111 0004 0D46     		mov	r5, r1
 112 0006 9146     		mov	r9, r2
 113 0008 1E46     		mov	r6, r3
 114 000a 089F     		ldr	r7, [sp, #32]
 115 000c DDF82480 		ldr	r8, [sp, #36]
  54:src/mxml-search.c ****     return (NULL);
 116              		.loc 1 54 0
 117 0010 10B9     		cbnz	r0, .L20
 118              	.LVL9:
 119              	.L22:
  55:src/mxml-search.c **** 
 120              		.loc 1 55 0
 121 0012 0020     		movs	r0, #0
 122 0014 BDE8F883 		pop	{r3, r4, r5, r6, r7, r8, r9, pc}
 123              	.LVL10:
 124              	.L20:
  54:src/mxml-search.c ****     return (NULL);
 125              		.loc 1 54 0 discriminator 1
 126 0018 0029     		cmp	r1, #0
 127 001a FAD0     		beq	.L22
  54:src/mxml-search.c ****     return (NULL);
 128              		.loc 1 54 0 is_stmt 0 discriminator 2
 129 001c 5BB9     		cbnz	r3, .L45
  54:src/mxml-search.c ****     return (NULL);
 130              		.loc 1 54 0 discriminator 3
 131 001e 57B1     		cbz	r7, .L45
 132 0020 F7E7     		b	.L22
 133              	.LVL11:
 134              	.L27:
 106:src/mxml-search.c ****   }
 135              		.loc 1 106 0 is_stmt 1
 136 0022 6468     		ldr	r4, [r4, #4]
 137              	.LVL12:
 138              	.L24:
  67:src/mxml-search.c ****   {
 139              		.loc 1 67 0
 140 0024 002C     		cmp	r4, #0
 141 0026 F4D0     		beq	.L22
  73:src/mxml-search.c ****         node->value.element.name &&
 142              		.loc 1 73 0
 143 0028 94F90030 		ldrsb	r3, [r4]
 144 002c 4BB1     		cbz	r3, .L46
 145              	.L25:
 103:src/mxml-search.c ****       node = mxmlWalkNext(node, top, MXML_DESCEND);
 146              		.loc 1 103 0
 147 002e B8F1010F 		cmp	r8, #1
 148 0032 F6D1     		bne	.L27
 104:src/mxml-search.c ****     else
 149              		.loc 1 104 0
 150 0034 2046     		mov	r0, r4
 151              	.LVL13:
 152              	.L45:
ARM GAS  C:\Users\AHMED~1.ELE\AppData\Local\Temp\ccHW1nYs.s 			page 8


 153 0036 2946     		mov	r1, r5
 154 0038 4246     		mov	r2, r8
 155 003a FFF7FEFF 		bl	mxmlWalkNext
 156              	.LVL14:
 157 003e 0446     		mov	r4, r0
 158              	.LVL15:
 159 0040 F0E7     		b	.L24
 160              	.LVL16:
 161              	.L46:
  74:src/mxml-search.c **** 	(!name || !strcmp(node->value.element.name, name)))
 162              		.loc 1 74 0 discriminator 1
 163 0042 A069     		ldr	r0, [r4, #24]
  73:src/mxml-search.c ****         node->value.element.name &&
 164              		.loc 1 73 0 discriminator 1
 165 0044 0028     		cmp	r0, #0
 166 0046 F2D0     		beq	.L25
  74:src/mxml-search.c **** 	(!name || !strcmp(node->value.element.name, name)))
 167              		.loc 1 74 0
 168 0048 B9F1000F 		cmp	r9, #0
 169 004c 04D0     		beq	.L26
  75:src/mxml-search.c ****     {
 170              		.loc 1 75 0
 171 004e 4946     		mov	r1, r9
 172 0050 FFF7FEFF 		bl	strcmp
 173              	.LVL17:
 174 0054 0028     		cmp	r0, #0
 175 0056 EAD1     		bne	.L25
 176              	.L26:
 177 0058 2046     		mov	r0, r4
  81:src/mxml-search.c ****         return (node);			/* No attribute search, return it... */
 178              		.loc 1 81 0
 179 005a 66B1     		cbz	r6, .L30
 180              	.LVL18:
  88:src/mxml-search.c ****       {
 181              		.loc 1 88 0
 182 005c 3146     		mov	r1, r6
 183 005e FFF7FEFF 		bl	mxmlElementGetAttr
 184              	.LVL19:
 185 0062 0146     		mov	r1, r0
 186 0064 0028     		cmp	r0, #0
 187 0066 E2D0     		beq	.L25
  94:src/mxml-search.c **** 	  return (node);		/* Yes, return it... */
 188              		.loc 1 94 0
 189 0068 3FB1     		cbz	r7, .L32
  94:src/mxml-search.c **** 	  return (node);		/* Yes, return it... */
 190              		.loc 1 94 0 is_stmt 0 discriminator 1
 191 006a 3846     		mov	r0, r7
 192              	.LVL20:
 193 006c FFF7FEFF 		bl	strcmp
 194              	.LVL21:
 195 0070 0028     		cmp	r0, #0
 196 0072 DCD1     		bne	.L25
 197 0074 01E0     		b	.L32
 198              	.LVL22:
 199              	.L30:
 200 0076 BDE8F883 		pop	{r3, r4, r5, r6, r7, r8, r9, pc}
 201              	.LVL23:
ARM GAS  C:\Users\AHMED~1.ELE\AppData\Local\Temp\ccHW1nYs.s 			page 9


 202              	.L32:
 203 007a 2046     		mov	r0, r4
 110:src/mxml-search.c **** 
 204              		.loc 1 110 0 is_stmt 1
 205 007c BDE8F883 		pop	{r3, r4, r5, r6, r7, r8, r9, pc}
 206              		.cfi_endproc
 207              	.LFE0:
 208              		.size	mxmlFindElement, .-mxmlFindElement
 209              		.section	.text.mxmlFindPath,"ax",%progbits
 210              		.align	1
 211              		.global	mxmlFindPath
 212              		.thumb
 213              		.thumb_func
 214              		.type	mxmlFindPath, %function
 215              	mxmlFindPath:
 216              	.LFB1:
 129:src/mxml-search.c ****   mxml_node_t	*node;			/* Current node */
 217              		.loc 1 129 0
 218              		.cfi_startproc
 219              		@ args = 0, pretend = 0, frame = 256
 220              		@ frame_needed = 0, uses_anonymous_args = 0
 221              	.LVL24:
 222 0000 2DE9F043 		push	{r4, r5, r6, r7, r8, r9, lr}
 223              		.cfi_def_cfa_offset 28
 224              		.cfi_offset 4, -28
 225              		.cfi_offset 5, -24
 226              		.cfi_offset 6, -20
 227              		.cfi_offset 7, -16
 228              		.cfi_offset 8, -12
 229              		.cfi_offset 9, -8
 230              		.cfi_offset 14, -4
 231 0004 0C46     		mov	r4, r1
 232 0006 C3B0     		sub	sp, sp, #268
 233              		.cfi_def_cfa_offset 296
 139:src/mxml-search.c ****     return (NULL);
 234              		.loc 1 139 0
 235 0008 0546     		mov	r5, r0
 236 000a 08B9     		cbnz	r0, .L48
 237              	.LVL25:
 238              	.L50:
 140:src/mxml-search.c **** 
 239              		.loc 1 140 0
 240 000c 0020     		movs	r0, #0
 241 000e 49E0     		b	.L49
 242              	.LVL26:
 243              	.L48:
 139:src/mxml-search.c ****     return (NULL);
 244              		.loc 1 139 0 discriminator 1
 245 0010 0029     		cmp	r1, #0
 246 0012 FBD0     		beq	.L50
 139:src/mxml-search.c ****     return (NULL);
 247              		.loc 1 139 0 is_stmt 0 discriminator 2
 248 0014 91F90030 		ldrsb	r3, [r1]
 249 0018 002B     		cmp	r3, #0
 250 001a F7D0     		beq	.L50
 251              	.LVL27:
 252              	.L55:
ARM GAS  C:\Users\AHMED~1.ELE\AppData\Local\Temp\ccHW1nYs.s 			page 10


 147:src/mxml-search.c ****   {
 253              		.loc 1 147 0 is_stmt 1
 254 001c 94F90030 		ldrsb	r3, [r4]
 255 0020 BBB3     		cbz	r3, .L70
 153:src/mxml-search.c ****     {
 256              		.loc 1 153 0
 257 0022 2046     		mov	r0, r4
 258 0024 2149     		ldr	r1, .L71
 259 0026 0222     		movs	r2, #2
 260 0028 FFF7FEFF 		bl	strncmp
 261              	.LVL28:
 262 002c 18B9     		cbnz	r0, .L57
 155:src/mxml-search.c ****       descend = MXML_DESCEND;
 263              		.loc 1 155 0
 264 002e 0234     		adds	r4, r4, #2
 265              	.LVL29:
 156:src/mxml-search.c ****     }
 266              		.loc 1 156 0
 267 0030 4FF00109 		mov	r9, #1
 268 0034 01E0     		b	.L52
 269              	.LVL30:
 270              	.L57:
 159:src/mxml-search.c **** 
 271              		.loc 1 159 0
 272 0036 4FF0FF39 		mov	r9, #-1
 273              	.L52:
 274              	.LVL31:
 165:src/mxml-search.c ****       pathsep = path + strlen(path);
 275              		.loc 1 165 0
 276 003a 2046     		mov	r0, r4
 277 003c 2F21     		movs	r1, #47
 278 003e FFF7FEFF 		bl	strchr
 279              	.LVL32:
 280 0042 0646     		mov	r6, r0
 281 0044 18B9     		cbnz	r0, .L53
 166:src/mxml-search.c **** 
 282              		.loc 1 166 0
 283 0046 2046     		mov	r0, r4
 284              	.LVL33:
 285 0048 FFF7FEFF 		bl	strlen
 286              	.LVL34:
 287 004c 2618     		adds	r6, r4, r0
 288              	.LVL35:
 289              	.L53:
 168:src/mxml-search.c ****       return (NULL);
 290              		.loc 1 168 0
 291 004e A642     		cmp	r6, r4
 292 0050 DCD0     		beq	.L50
 168:src/mxml-search.c ****       return (NULL);
 293              		.loc 1 168 0 is_stmt 0 discriminator 1
 294 0052 C4EB0608 		rsb	r8, r4, r6
 295 0056 B8F1FF0F 		cmp	r8, #255
 296 005a D7D8     		bhi	.L50
 171:src/mxml-search.c ****     element[pathsep - path] = '\0';
 297              		.loc 1 171 0 is_stmt 1
 298 005c 02AF     		add	r7, sp, #8
 299 005e 4246     		mov	r2, r8
ARM GAS  C:\Users\AHMED~1.ELE\AppData\Local\Temp\ccHW1nYs.s 			page 11


 300 0060 3846     		mov	r0, r7
 301 0062 2146     		mov	r1, r4
 302 0064 FFF7FEFF 		bl	memcpy
 303              	.LVL36:
 172:src/mxml-search.c **** 
 304              		.loc 1 172 0
 305 0068 0023     		movs	r3, #0
 174:src/mxml-search.c ****       path = pathsep + 1;
 306              		.loc 1 174 0
 307 006a 96F90020 		ldrsb	r2, [r6]
 172:src/mxml-search.c **** 
 308              		.loc 1 172 0
 309 006e 07F80830 		strb	r3, [r7, r8]
 174:src/mxml-search.c ****       path = pathsep + 1;
 310              		.loc 1 174 0
 311 0072 0AB1     		cbz	r2, .L58
 175:src/mxml-search.c ****     else
 312              		.loc 1 175 0
 313 0074 741C     		adds	r4, r6, #1
 314              	.LVL37:
 315 0076 00E0     		b	.L54
 316              	.L58:
 317 0078 3446     		mov	r4, r6
 318              	.LVL38:
 319              	.L54:
 183:src/mxml-search.c ****                                 descend)) == NULL)
 320              		.loc 1 183 0
 321 007a 8DE80802 		stmia	sp, {r3, r9}
 322 007e 2846     		mov	r0, r5
 323 0080 2946     		mov	r1, r5
 324 0082 3A46     		mov	r2, r7
 325 0084 0023     		movs	r3, #0
 326 0086 FFF7FEFF 		bl	mxmlFindElement
 327              	.LVL39:
 328 008a 0546     		mov	r5, r0
 329 008c 0028     		cmp	r0, #0
 330 008e C5D1     		bne	.L55
 331 0090 BCE7     		b	.L50
 332              	.LVL40:
 333              	.L70:
 192:src/mxml-search.c ****     return (node->child);
 334              		.loc 1 192 0
 335 0092 2869     		ldr	r0, [r5, #16]
 336 0094 28B1     		cbz	r0, .L59
 192:src/mxml-search.c ****     return (node->child);
 337              		.loc 1 192 0 is_stmt 0 discriminator 1
 338 0096 90F90030 		ldrsb	r3, [r0]
 339 009a 002B     		cmp	r3, #0
 340 009c 08BF     		it	eq
 341 009e 2846     		moveq	r0, r5
 342 00a0 00E0     		b	.L49
 343              	.L59:
 344 00a2 2846     		mov	r0, r5
 345              	.LVL41:
 346              	.L49:
 196:src/mxml-search.c **** 
 347              		.loc 1 196 0 is_stmt 1
ARM GAS  C:\Users\AHMED~1.ELE\AppData\Local\Temp\ccHW1nYs.s 			page 12


 348 00a4 43B0     		add	sp, sp, #268
 349              		.cfi_def_cfa_offset 28
 350              		@ sp needed
 351 00a6 BDE8F083 		pop	{r4, r5, r6, r7, r8, r9, pc}
 352              	.LVL42:
 353              	.L72:
 354 00aa 00BF     		.align	2
 355              	.L71:
 356 00ac 00000000 		.word	.LC0
 357              		.cfi_endproc
 358              	.LFE1:
 359              		.size	mxmlFindPath, .-mxmlFindPath
 360              		.section	.text.mxmlWalkPrev,"ax",%progbits
 361              		.align	1
 362              		.global	mxmlWalkPrev
 363              		.thumb
 364              		.thumb_func
 365              		.type	mxmlWalkPrev, %function
 366              	mxmlWalkPrev:
 367              	.LFB3:
 235:src/mxml-search.c **** 
 236:src/mxml-search.c **** 
 237:src/mxml-search.c **** /*
 238:src/mxml-search.c ****  * 'mxmlWalkPrev()' - Walk to the previous logical node in the tree.
 239:src/mxml-search.c ****  *
 240:src/mxml-search.c ****  * The descend argument controls whether the previous node's last child
 241:src/mxml-search.c ****  * is considered to be the previous node. The top node argument constrains
 242:src/mxml-search.c ****  * the walk to the node's children.
 243:src/mxml-search.c ****  */
 244:src/mxml-search.c **** 
 245:src/mxml-search.c **** mxml_node_t *				/* O - Previous node or NULL */
 246:src/mxml-search.c **** mxmlWalkPrev(mxml_node_t *node,		/* I - Current node */
 247:src/mxml-search.c ****              mxml_node_t *top,		/* I - Top node */
 248:src/mxml-search.c ****              int         descend)	/* I - Descend into tree - MXML_DESCEND, MXML_NO_DESCEND, or MXML
 249:src/mxml-search.c **** {
 368              		.loc 1 249 0
 369              		.cfi_startproc
 370              		@ args = 0, pretend = 0, frame = 0
 371              		@ frame_needed = 0, uses_anonymous_args = 0
 372              		@ link register save eliminated.
 373              	.LVL43:
 250:src/mxml-search.c ****   if (!node || node == top)
 374              		.loc 1 250 0
 375 0000 0346     		mov	r3, r0
 376 0002 80B1     		cbz	r0, .L77
 377              		.loc 1 250 0 is_stmt 0 discriminator 1
 378 0004 8842     		cmp	r0, r1
 379 0006 10D0     		beq	.L78
 251:src/mxml-search.c ****     return (NULL);
 252:src/mxml-search.c ****   else if (node->prev)
 380              		.loc 1 252 0 is_stmt 1
 381 0008 8068     		ldr	r0, [r0, #8]
 382              	.LVL44:
 383 000a 38B1     		cbz	r0, .L75
 253:src/mxml-search.c ****   {
 254:src/mxml-search.c ****     if (node->prev->last_child && descend)
 384              		.loc 1 254 0
ARM GAS  C:\Users\AHMED~1.ELE\AppData\Local\Temp\ccHW1nYs.s 			page 13


 385 000c 4369     		ldr	r3, [r0, #20]
 386              	.LVL45:
 387 000e 6BB1     		cbz	r3, .L74
 388              		.loc 1 254 0 is_stmt 0 discriminator 1
 389 0010 02B9     		cbnz	r2, .L76
 390 0012 7047     		bx	lr
 391              	.LVL46:
 392              	.L76:
 255:src/mxml-search.c ****     {
 256:src/mxml-search.c ****      /*
 257:src/mxml-search.c ****       * Find the last child under the previous node...
 258:src/mxml-search.c ****       */
 259:src/mxml-search.c **** 
 260:src/mxml-search.c ****       node = node->prev->last_child;
 261:src/mxml-search.c **** 
 262:src/mxml-search.c ****       while (node->last_child)
 393              		.loc 1 262 0 is_stmt 1
 394 0014 5A69     		ldr	r2, [r3, #20]
 395 0016 32B1     		cbz	r2, .L77
 396 0018 1346     		mov	r3, r2
 397              	.LVL47:
 398 001a FBE7     		b	.L76
 399              	.LVL48:
 400              	.L75:
 263:src/mxml-search.c ****         node = node->last_child;
 264:src/mxml-search.c **** 
 265:src/mxml-search.c ****       return (node);
 266:src/mxml-search.c ****     }
 267:src/mxml-search.c ****     else
 268:src/mxml-search.c ****       return (node->prev);
 269:src/mxml-search.c ****   }
 270:src/mxml-search.c ****   else if (node->parent != top)
 401              		.loc 1 270 0
 402 001c D868     		ldr	r0, [r3, #12]
 403 001e 8842     		cmp	r0, r1
 404 0020 08BF     		it	eq
 405 0022 0020     		moveq	r0, #0
 406 0024 7047     		bx	lr
 407              	.LVL49:
 408              	.L77:
 251:src/mxml-search.c ****   else if (node->prev)
 409              		.loc 1 251 0
 410 0026 1846     		mov	r0, r3
 411 0028 7047     		bx	lr
 412              	.LVL50:
 413              	.L78:
 414 002a 0020     		movs	r0, #0
 415              	.LVL51:
 416              	.L74:
 271:src/mxml-search.c ****     return (node->parent);
 272:src/mxml-search.c ****   else
 273:src/mxml-search.c ****     return (NULL);
 274:src/mxml-search.c **** }
 417              		.loc 1 274 0
 418 002c 7047     		bx	lr
 419              		.cfi_endproc
 420              	.LFE3:
ARM GAS  C:\Users\AHMED~1.ELE\AppData\Local\Temp\ccHW1nYs.s 			page 14


 421              		.size	mxmlWalkPrev, .-mxmlWalkPrev
 422              		.section	.rodata.str1.1,"aMS",%progbits,1
 423              	.LC0:
 424 0000 2A2F00   		.ascii	"*/\000"
 425              		.text
 426              	.Letext0:
 427              		.file 2 "c:\\devtools\\gcc_v49_2014q4\\lib\\gcc\\arm-none-eabi\\4.9.3\\include\\stddef.h"
 428              		.file 3 "src/mxml.h"
 429              		.file 4 "c:\\devtools\\gcc_v49_2014q4\\arm-none-eabi\\include\\string.h"