ARM GAS  C:\Users\AHMED~1.ELE\AppData\Local\Temp\ccGIKLzk.s 			page 1


   1              		.syntax unified
   2              		.cpu cortex-a5
   3              		.fpu softvfp
   4              		.eabi_attribute 20, 1
   5              		.eabi_attribute 21, 1
   6              		.eabi_attribute 23, 3
   7              		.eabi_attribute 24, 1
   8              		.eabi_attribute 25, 1
   9              		.eabi_attribute 26, 1
  10              		.eabi_attribute 30, 4
  11              		.eabi_attribute 34, 0
  12              		.eabi_attribute 18, 4
  13              		.thumb
  14              		.file	"mxml-private.c"
  15              		.text
  16              	.Ltext0:
  17              		.cfi_sections	.debug_frame
  18              		.section	.text.mxml_error,"ax",%progbits
  19              		.align	1
  20              		.global	mxml_error
  21              		.thumb
  22              		.thumb_func
  23              		.type	mxml_error, %function
  24              	mxml_error:
  25              	.LFB0:
  26              		.file 1 "src/mxml-private.c"
   1:src/mxml-private.c **** /*
   2:src/mxml-private.c ****  * "$Id: mxml-private.c 451 2014-01-04 21:50:06Z msweet $"
   3:src/mxml-private.c ****  *
   4:src/mxml-private.c ****  * Private functions for Mini-XML, a small XML-like file parsing library.
   5:src/mxml-private.c ****  *
   6:src/mxml-private.c ****  * Copyright 2003-2014 by Michael R Sweet.
   7:src/mxml-private.c ****  *
   8:src/mxml-private.c ****  * These coded instructions, statements, and computer programs are the
   9:src/mxml-private.c ****  * property of Michael R Sweet and are protected by Federal copyright
  10:src/mxml-private.c ****  * law.  Distribution and use rights are outlined in the file "COPYING"
  11:src/mxml-private.c ****  * which should have been included with this file.  If this file is
  12:src/mxml-private.c ****  * missing or damaged, see the license at:
  13:src/mxml-private.c ****  *
  14:src/mxml-private.c ****  *     http://www.msweet.org/projects.php/Mini-XML
  15:src/mxml-private.c ****  */
  16:src/mxml-private.c **** 
  17:src/mxml-private.c **** /*
  18:src/mxml-private.c ****  * Include necessary headers...
  19:src/mxml-private.c ****  */
  20:src/mxml-private.c **** 
  21:src/mxml-private.c **** #include "mxml-private.h"
  22:src/mxml-private.c **** #include "system.h"
  23:src/mxml-private.c **** 
  24:src/mxml-private.c **** 
  25:src/mxml-private.c **** /*
  26:src/mxml-private.c ****  * Some crazy people think that unloading a shared object is a good or safe
  27:src/mxml-private.c ****  * thing to do.  Unfortunately, most objects are simply *not* safe to unload
  28:src/mxml-private.c ****  * and bad things *will* happen.
  29:src/mxml-private.c ****  *
  30:src/mxml-private.c ****  * The following mess of conditional code allows us to provide a destructor
  31:src/mxml-private.c ****  * function in Mini-XML for our thread-global storage so that it can possibly
ARM GAS  C:\Users\AHMED~1.ELE\AppData\Local\Temp\ccGIKLzk.s 			page 2


  32:src/mxml-private.c ****  * be unloaded safely, although since there is no standard way to do so I
  33:src/mxml-private.c ****  * can't even provide any guarantees that you can do it safely on all platforms.
  34:src/mxml-private.c ****  *
  35:src/mxml-private.c ****  * This code currently supports AIX, HP-UX, Linux, Mac OS X, Solaris, and
  36:src/mxml-private.c ****  * Windows.  It might work on the BSDs and IRIX, but I haven't tested that.
  37:src/mxml-private.c ****  */
  38:src/mxml-private.c **** 
  39:src/mxml-private.c **** #if defined(__sun) || defined(_AIX)
  40:src/mxml-private.c **** #  pragma fini(_mxml_fini)
  41:src/mxml-private.c **** #  define _MXML_FINI _mxml_fini
  42:src/mxml-private.c **** #elif defined(__hpux)
  43:src/mxml-private.c **** #  pragma FINI _mxml_fini
  44:src/mxml-private.c **** #  define _MXML_FINI _mxml_fini
  45:src/mxml-private.c **** #elif defined(__GNUC__) /* Linux and Mac OS X */
  46:src/mxml-private.c **** #  define _MXML_FINI __attribute((destructor)) _mxml_fini
  47:src/mxml-private.c **** #else
  48:src/mxml-private.c **** #  define _MXML_FINI _fini
  49:src/mxml-private.c **** #endif /* __sun */
  50:src/mxml-private.c **** 
  51:src/mxml-private.c **** 
  52:src/mxml-private.c **** /*
  53:src/mxml-private.c ****  * 'mxml_error()' - Display an error message.
  54:src/mxml-private.c ****  */
  55:src/mxml-private.c **** 
  56:src/mxml-private.c **** void
  57:src/mxml-private.c **** mxml_error(const char *format,		/* I - Printf-style format string */
  58:src/mxml-private.c ****            ...)				/* I - Additional arguments as needed */
  59:src/mxml-private.c **** {
  27              		.loc 1 59 0
  28              		.cfi_startproc
  29              		@ args = 4, pretend = 16, frame = 2064
  30              		@ frame_needed = 0, uses_anonymous_args = 1
  31              	.LVL0:
  32 0000 0FB4     		push	{r0, r1, r2, r3}
  33              		.cfi_def_cfa_offset 16
  34              		.cfi_offset 0, -16
  35              		.cfi_offset 1, -12
  36              		.cfi_offset 2, -8
  37              		.cfi_offset 3, -4
  38 0002 00B5     		push	{lr}
  39              		.cfi_def_cfa_offset 20
  40              		.cfi_offset 14, -20
  41 0004 ADF6140D 		subw	sp, sp, #2068
  42              		.cfi_def_cfa_offset 2088
  43              		.loc 1 59 0
  44 0008 DDF81828 		ldr	r2, [sp, #2072]
  60:src/mxml-private.c ****   va_list	ap;			/* Pointer to arguments */
  61:src/mxml-private.c ****   char		s[1024];		/* Message string */
  62:src/mxml-private.c ****   _mxml_global_t *global = _mxml_global();
  63:src/mxml-private.c ****   char    buf[1036];
  64:src/mxml-private.c **** 					/* Global data */
  65:src/mxml-private.c **** 
  66:src/mxml-private.c **** 
  67:src/mxml-private.c ****  /*
  68:src/mxml-private.c ****   * Range check input...
  69:src/mxml-private.c ****   */
  70:src/mxml-private.c **** 
ARM GAS  C:\Users\AHMED~1.ELE\AppData\Local\Temp\ccGIKLzk.s 			page 3


  71:src/mxml-private.c ****   if (!format)
  45              		.loc 1 71 0
  46 000c EAB1     		cbz	r2, .L1
  72:src/mxml-private.c ****     return;
  73:src/mxml-private.c **** 
  74:src/mxml-private.c ****  /*
  75:src/mxml-private.c ****   * Format the error message string...
  76:src/mxml-private.c ****   */
  77:src/mxml-private.c **** 
  78:src/mxml-private.c ****   va_start(ap, format);
  47              		.loc 1 78 0
  48 000e 0DF61C03 		addw	r3, sp, #2076
  79:src/mxml-private.c **** 
  80:src/mxml-private.c ****   vsnprintf(s, sizeof(s), format, ap);
  49              		.loc 1 80 0
  50 0012 01A8     		add	r0, sp, #4
  51 0014 4FF48061 		mov	r1, #1024
  78:src/mxml-private.c **** 
  52              		.loc 1 78 0
  53 0018 0093     		str	r3, [sp]
  54              		.loc 1 80 0
  55 001a FFF7FEFF 		bl	_mxml_vsnprintf
  56              	.LVL1:
  81:src/mxml-private.c **** 
  82:src/mxml-private.c ****   va_end(ap);
  83:src/mxml-private.c **** 
  84:src/mxml-private.c ****  /*
  85:src/mxml-private.c ****   * And then display the error message...
  86:src/mxml-private.c ****   */
  87:src/mxml-private.c **** 
  88:src/mxml-private.c ****   if (global->error_cb)
  57              		.loc 1 88 0
  58 001e 0E4B     		ldr	r3, .L13
  59 0020 1B68     		ldr	r3, [r3]
  60 0022 13B1     		cbz	r3, .L3
  89:src/mxml-private.c ****     (*global->error_cb)(s);
  61              		.loc 1 89 0
  62 0024 01A8     		add	r0, sp, #4
  63 0026 9847     		blx	r3
  64              	.LVL2:
  65 0028 0FE0     		b	.L1
  66              	.L3:
  90:src/mxml-private.c ****   else {
  91:src/mxml-private.c ****     //fprintf(stderr, "mxml: %s\n", s);
  92:src/mxml-private.c ****     sprintf(buf, "\x12\fmxml: %s\n", s);
  67              		.loc 1 92 0
  68 002a 0C49     		ldr	r1, .L13+4
  69 002c 0DF20440 		addw	r0, sp, #1028
  70 0030 01AA     		add	r2, sp, #4
  71 0032 FFF7FEFF 		bl	sprintf
  72              	.LVL3:
  93:src/mxml-private.c ****     os_disp_puts(buf);
  73              		.loc 1 93 0
  74 0036 1720     		movs	r0, #23
  75 0038 0DF20441 		addw	r1, sp, #1028
  76 003c FFF7FEFF 		bl	sys_func1
  77              	.LVL4:
ARM GAS  C:\Users\AHMED~1.ELE\AppData\Local\Temp\ccGIKLzk.s 			page 4


  78              	.L5:
  94:src/mxml-private.c ****     while (os_kbd_getkey() == 0) {};
  79              		.loc 1 94 0 discriminator 1
  80 0040 0720     		movs	r0, #7
  81 0042 FFF7FEFF 		bl	sys_func0
  82              	.LVL5:
  83 0046 0028     		cmp	r0, #0
  84 0048 FAD0     		beq	.L5
  85              	.L1:
  95:src/mxml-private.c ****   }
  96:src/mxml-private.c **** }
  86              		.loc 1 96 0
  87 004a 0DF6140D 		addw	sp, sp, #2068
  88              		.cfi_def_cfa_offset 20
  89              		@ sp needed
  90 004e 5DF804EB 		ldr	lr, [sp], #4
  91              		.cfi_restore 14
  92              		.cfi_def_cfa_offset 16
  93 0052 04B0     		add	sp, sp, #16
  94              		.cfi_restore 3
  95              		.cfi_restore 2
  96              		.cfi_restore 1
  97              		.cfi_restore 0
  98              		.cfi_def_cfa_offset 0
  99 0054 7047     		bx	lr
 100              	.L14:
 101 0056 00BF     		.align	2
 102              	.L13:
 103 0058 00000000 		.word	.LANCHOR0
 104 005c 00000000 		.word	.LC0
 105              		.cfi_endproc
 106              	.LFE0:
 107              		.size	mxml_error, .-mxml_error
 108              		.section	.text.mxml_ignore_cb,"ax",%progbits
 109              		.align	1
 110              		.global	mxml_ignore_cb
 111              		.thumb
 112              		.thumb_func
 113              		.type	mxml_ignore_cb, %function
 114              	mxml_ignore_cb:
 115              	.LFB1:
  97:src/mxml-private.c **** 
  98:src/mxml-private.c **** 
  99:src/mxml-private.c **** /*
 100:src/mxml-private.c ****  * 'mxml_ignore_cb()' - Default callback for ignored values.
 101:src/mxml-private.c ****  */
 102:src/mxml-private.c **** 
 103:src/mxml-private.c **** mxml_type_t				/* O - Node type */
 104:src/mxml-private.c **** mxml_ignore_cb(mxml_node_t *node)	/* I - Current node */
 105:src/mxml-private.c **** {
 116              		.loc 1 105 0
 117              		.cfi_startproc
 118              		@ args = 0, pretend = 0, frame = 0
 119              		@ frame_needed = 0, uses_anonymous_args = 0
 120              		@ link register save eliminated.
 121              	.LVL6:
 106:src/mxml-private.c ****   (void)node;
ARM GAS  C:\Users\AHMED~1.ELE\AppData\Local\Temp\ccGIKLzk.s 			page 5


 107:src/mxml-private.c **** 
 108:src/mxml-private.c ****   return (MXML_IGNORE);
 109:src/mxml-private.c **** }
 122              		.loc 1 109 0
 123 0000 4FF0FF30 		mov	r0, #-1
 124              	.LVL7:
 125 0004 7047     		bx	lr
 126              		.cfi_endproc
 127              	.LFE1:
 128              		.size	mxml_ignore_cb, .-mxml_ignore_cb
 129              		.section	.text.mxml_integer_cb,"ax",%progbits
 130              		.align	1
 131              		.global	mxml_integer_cb
 132              		.thumb
 133              		.thumb_func
 134              		.type	mxml_integer_cb, %function
 135              	mxml_integer_cb:
 136              	.LFB2:
 110:src/mxml-private.c **** 
 111:src/mxml-private.c **** 
 112:src/mxml-private.c **** /*
 113:src/mxml-private.c ****  * 'mxml_integer_cb()' - Default callback for integer values.
 114:src/mxml-private.c ****  */
 115:src/mxml-private.c **** 
 116:src/mxml-private.c **** mxml_type_t				/* O - Node type */
 117:src/mxml-private.c **** mxml_integer_cb(mxml_node_t *node)	/* I - Current node */
 118:src/mxml-private.c **** {
 137              		.loc 1 118 0
 138              		.cfi_startproc
 139              		@ args = 0, pretend = 0, frame = 0
 140              		@ frame_needed = 0, uses_anonymous_args = 0
 141              		@ link register save eliminated.
 142              	.LVL8:
 119:src/mxml-private.c ****   (void)node;
 120:src/mxml-private.c **** 
 121:src/mxml-private.c ****   return (MXML_INTEGER);
 122:src/mxml-private.c **** }
 143              		.loc 1 122 0
 144 0000 0120     		movs	r0, #1
 145              	.LVL9:
 146 0002 7047     		bx	lr
 147              		.cfi_endproc
 148              	.LFE2:
 149              		.size	mxml_integer_cb, .-mxml_integer_cb
 150              		.section	.text.mxml_opaque_cb,"ax",%progbits
 151              		.align	1
 152              		.global	mxml_opaque_cb
 153              		.thumb
 154              		.thumb_func
 155              		.type	mxml_opaque_cb, %function
 156              	mxml_opaque_cb:
 157              	.LFB3:
 123:src/mxml-private.c **** 
 124:src/mxml-private.c **** 
 125:src/mxml-private.c **** /*
 126:src/mxml-private.c ****  * 'mxml_opaque_cb()' - Default callback for opaque values.
 127:src/mxml-private.c ****  */
ARM GAS  C:\Users\AHMED~1.ELE\AppData\Local\Temp\ccGIKLzk.s 			page 6


 128:src/mxml-private.c **** 
 129:src/mxml-private.c **** mxml_type_t				/* O - Node type */
 130:src/mxml-private.c **** mxml_opaque_cb(mxml_node_t *node)	/* I - Current node */
 131:src/mxml-private.c **** {
 158              		.loc 1 131 0
 159              		.cfi_startproc
 160              		@ args = 0, pretend = 0, frame = 0
 161              		@ frame_needed = 0, uses_anonymous_args = 0
 162              		@ link register save eliminated.
 163              	.LVL10:
 132:src/mxml-private.c ****   (void)node;
 133:src/mxml-private.c **** 
 134:src/mxml-private.c ****   return (MXML_OPAQUE);
 135:src/mxml-private.c **** }
 164              		.loc 1 135 0
 165 0000 0220     		movs	r0, #2
 166              	.LVL11:
 167 0002 7047     		bx	lr
 168              		.cfi_endproc
 169              	.LFE3:
 170              		.size	mxml_opaque_cb, .-mxml_opaque_cb
 171              		.section	.text.mxml_real_cb,"ax",%progbits
 172              		.align	1
 173              		.global	mxml_real_cb
 174              		.thumb
 175              		.thumb_func
 176              		.type	mxml_real_cb, %function
 177              	mxml_real_cb:
 178              	.LFB4:
 136:src/mxml-private.c **** 
 137:src/mxml-private.c **** 
 138:src/mxml-private.c **** /*
 139:src/mxml-private.c ****  * 'mxml_real_cb()' - Default callback for real number values.
 140:src/mxml-private.c ****  */
 141:src/mxml-private.c **** 
 142:src/mxml-private.c **** mxml_type_t				/* O - Node type */
 143:src/mxml-private.c **** mxml_real_cb(mxml_node_t *node)		/* I - Current node */
 144:src/mxml-private.c **** {
 179              		.loc 1 144 0
 180              		.cfi_startproc
 181              		@ args = 0, pretend = 0, frame = 0
 182              		@ frame_needed = 0, uses_anonymous_args = 0
 183              		@ link register save eliminated.
 184              	.LVL12:
 145:src/mxml-private.c ****   (void)node;
 146:src/mxml-private.c **** 
 147:src/mxml-private.c ****   return (MXML_REAL);
 148:src/mxml-private.c **** }
 185              		.loc 1 148 0
 186 0000 0320     		movs	r0, #3
 187              	.LVL13:
 188 0002 7047     		bx	lr
 189              		.cfi_endproc
 190              	.LFE4:
 191              		.size	mxml_real_cb, .-mxml_real_cb
 192              		.section	.text._mxml_global,"ax",%progbits
 193              		.align	1
ARM GAS  C:\Users\AHMED~1.ELE\AppData\Local\Temp\ccGIKLzk.s 			page 7


 194              		.global	_mxml_global
 195              		.thumb
 196              		.thumb_func
 197              		.type	_mxml_global, %function
 198              	_mxml_global:
 199              	.LFB5:
 149:src/mxml-private.c **** 
 150:src/mxml-private.c **** 
 151:src/mxml-private.c **** #ifdef HAVE_PTHREAD_H			/**** POSIX threading ****/
 152:src/mxml-private.c **** #  include <pthread.h>
 153:src/mxml-private.c **** 
 154:src/mxml-private.c **** static pthread_key_t	_mxml_key = -1;	/* Thread local storage key */
 155:src/mxml-private.c **** static pthread_once_t	_mxml_key_once = PTHREAD_ONCE_INIT;
 156:src/mxml-private.c **** 					/* One-time initialization object */
 157:src/mxml-private.c **** static void		_mxml_init(void);
 158:src/mxml-private.c **** static void		_mxml_destructor(void *g);
 159:src/mxml-private.c **** 
 160:src/mxml-private.c **** 
 161:src/mxml-private.c **** /*
 162:src/mxml-private.c ****  * '_mxml_destructor()' - Free memory used for globals...
 163:src/mxml-private.c ****  */
 164:src/mxml-private.c **** 
 165:src/mxml-private.c **** static void
 166:src/mxml-private.c **** _mxml_destructor(void *g)		/* I - Global data */
 167:src/mxml-private.c **** {
 168:src/mxml-private.c ****   free(g);
 169:src/mxml-private.c **** }
 170:src/mxml-private.c **** 
 171:src/mxml-private.c **** 
 172:src/mxml-private.c **** /*
 173:src/mxml-private.c ****  * '_mxml_fini()' - Clean up when unloaded.
 174:src/mxml-private.c ****  */
 175:src/mxml-private.c **** 
 176:src/mxml-private.c **** static void
 177:src/mxml-private.c **** _MXML_FINI(void)
 178:src/mxml-private.c **** {
 179:src/mxml-private.c ****   _mxml_global_t	*global;	/* Global data */
 180:src/mxml-private.c **** 
 181:src/mxml-private.c **** 
 182:src/mxml-private.c ****   if (_mxml_key != -1)
 183:src/mxml-private.c ****   {
 184:src/mxml-private.c ****     if ((global = (_mxml_global_t *)pthread_getspecific(_mxml_key)) != NULL)
 185:src/mxml-private.c ****       _mxml_destructor(global);
 186:src/mxml-private.c **** 
 187:src/mxml-private.c ****     pthread_key_delete(_mxml_key);
 188:src/mxml-private.c ****     _mxml_key = -1;
 189:src/mxml-private.c ****   }
 190:src/mxml-private.c **** }
 191:src/mxml-private.c **** 
 192:src/mxml-private.c **** 
 193:src/mxml-private.c **** /*
 194:src/mxml-private.c ****  * '_mxml_global()' - Get global data.
 195:src/mxml-private.c ****  */
 196:src/mxml-private.c **** 
 197:src/mxml-private.c **** _mxml_global_t *			/* O - Global data */
 198:src/mxml-private.c **** _mxml_global(void)
 199:src/mxml-private.c **** {
ARM GAS  C:\Users\AHMED~1.ELE\AppData\Local\Temp\ccGIKLzk.s 			page 8


 200:src/mxml-private.c ****   _mxml_global_t	*global;	/* Global data */
 201:src/mxml-private.c **** 
 202:src/mxml-private.c **** 
 203:src/mxml-private.c ****   pthread_once(&_mxml_key_once, _mxml_init);
 204:src/mxml-private.c **** 
 205:src/mxml-private.c ****   if ((global = (_mxml_global_t *)pthread_getspecific(_mxml_key)) == NULL)
 206:src/mxml-private.c ****   {
 207:src/mxml-private.c ****     //global = (_mxml_global_t *)calloc(1, sizeof(_mxml_global_t));
 208:src/mxml-private.c ****     global = (_mxml_global_t *)os_malloc(sizeof(_mxml_global_t));
 209:src/mxml-private.c ****     memset(global, 0, sizeof(_mxml_global_t));
 210:src/mxml-private.c ****     pthread_setspecific(_mxml_key, global);
 211:src/mxml-private.c **** 
 212:src/mxml-private.c ****     global->num_entity_cbs = 1;
 213:src/mxml-private.c ****     global->entity_cbs[0]  = _mxml_entity_cb;
 214:src/mxml-private.c ****     global->wrap           = 72;
 215:src/mxml-private.c ****   }
 216:src/mxml-private.c **** 
 217:src/mxml-private.c ****   return (global);
 218:src/mxml-private.c **** }
 219:src/mxml-private.c **** 
 220:src/mxml-private.c **** 
 221:src/mxml-private.c **** /*
 222:src/mxml-private.c ****  * '_mxml_init()' - Initialize global data...
 223:src/mxml-private.c ****  */
 224:src/mxml-private.c **** 
 225:src/mxml-private.c **** static void
 226:src/mxml-private.c **** _mxml_init(void)
 227:src/mxml-private.c **** {
 228:src/mxml-private.c ****   pthread_key_create(&_mxml_key, _mxml_destructor);
 229:src/mxml-private.c **** }
 230:src/mxml-private.c **** 
 231:src/mxml-private.c **** 
 232:src/mxml-private.c **** #elif defined(WIN32) && defined(MXML1_EXPORTS) /**** WIN32 threading ****/
 233:src/mxml-private.c **** #  include <windows.h>
 234:src/mxml-private.c **** 
 235:src/mxml-private.c **** static DWORD _mxml_tls_index;		/* Index for global storage */
 236:src/mxml-private.c **** 
 237:src/mxml-private.c **** 
 238:src/mxml-private.c **** /*
 239:src/mxml-private.c ****  * 'DllMain()' - Main entry for library.
 240:src/mxml-private.c ****  */
 241:src/mxml-private.c **** 
 242:src/mxml-private.c **** BOOL WINAPI				/* O - Success/failure */
 243:src/mxml-private.c **** DllMain(HINSTANCE hinst,		/* I - DLL module handle */
 244:src/mxml-private.c ****         DWORD     reason,		/* I - Reason */
 245:src/mxml-private.c ****         LPVOID    reserved)		/* I - Unused */
 246:src/mxml-private.c **** {
 247:src/mxml-private.c ****   _mxml_global_t	*global;	/* Global data */
 248:src/mxml-private.c **** 
 249:src/mxml-private.c **** 
 250:src/mxml-private.c ****   (void)hinst;
 251:src/mxml-private.c ****   (void)reserved;
 252:src/mxml-private.c **** 
 253:src/mxml-private.c ****   switch (reason)
 254:src/mxml-private.c ****   {
 255:src/mxml-private.c ****     case DLL_PROCESS_ATTACH :		/* Called on library initialization */
 256:src/mxml-private.c ****         if ((_mxml_tls_index = TlsAlloc()) == TLS_OUT_OF_INDEXES)
ARM GAS  C:\Users\AHMED~1.ELE\AppData\Local\Temp\ccGIKLzk.s 			page 9


 257:src/mxml-private.c ****           return (FALSE);
 258:src/mxml-private.c ****         break;
 259:src/mxml-private.c **** 
 260:src/mxml-private.c ****     case DLL_THREAD_DETACH :		/* Called when a thread terminates */
 261:src/mxml-private.c ****         if ((global = (_mxml_global_t *)TlsGetValue(_mxml_tls_index)) != NULL)
 262:src/mxml-private.c ****           free(global);
 263:src/mxml-private.c ****         break;
 264:src/mxml-private.c **** 
 265:src/mxml-private.c ****     case DLL_PROCESS_DETACH :		/* Called when library is unloaded */
 266:src/mxml-private.c ****         if ((global = (_mxml_global_t *)TlsGetValue(_mxml_tls_index)) != NULL)
 267:src/mxml-private.c ****           free(global);
 268:src/mxml-private.c **** 
 269:src/mxml-private.c ****         TlsFree(_mxml_tls_index);
 270:src/mxml-private.c ****         break;
 271:src/mxml-private.c **** 
 272:src/mxml-private.c ****     default:
 273:src/mxml-private.c ****         break;
 274:src/mxml-private.c ****   }
 275:src/mxml-private.c **** 
 276:src/mxml-private.c ****   return (TRUE);
 277:src/mxml-private.c **** }
 278:src/mxml-private.c **** 
 279:src/mxml-private.c **** 
 280:src/mxml-private.c **** /*
 281:src/mxml-private.c ****  * '_mxml_global()' - Get global data.
 282:src/mxml-private.c ****  */
 283:src/mxml-private.c **** 
 284:src/mxml-private.c **** _mxml_global_t *			/* O - Global data */
 285:src/mxml-private.c **** _mxml_global(void)
 286:src/mxml-private.c **** {
 287:src/mxml-private.c ****   _mxml_global_t	*global;	/* Global data */
 288:src/mxml-private.c **** 
 289:src/mxml-private.c **** 
 290:src/mxml-private.c ****   if ((global = (_mxml_global_t *)TlsGetValue(_mxml_tls_index)) == NULL)
 291:src/mxml-private.c ****   {
 292:src/mxml-private.c ****     //global = (_mxml_global_t *)calloc(1, sizeof(_mxml_global_t));
 293:src/mxml-private.c ****     global = (_mxml_global_t *)os_malloc(sizeof(_mxml_global_t));
 294:src/mxml-private.c ****     memset(global, 0, sizeof(_mxml_global_t));
 295:src/mxml-private.c **** 
 296:src/mxml-private.c ****     global->num_entity_cbs = 1;
 297:src/mxml-private.c ****     global->entity_cbs[0]  = _mxml_entity_cb;
 298:src/mxml-private.c ****     global->wrap           = 72;
 299:src/mxml-private.c **** 
 300:src/mxml-private.c ****     TlsSetValue(_mxml_tls_index, (LPVOID)global);
 301:src/mxml-private.c ****   }
 302:src/mxml-private.c **** 
 303:src/mxml-private.c ****   return (global);
 304:src/mxml-private.c **** }
 305:src/mxml-private.c **** 
 306:src/mxml-private.c **** 
 307:src/mxml-private.c **** #else					/**** No threading ****/
 308:src/mxml-private.c **** /*
 309:src/mxml-private.c ****  * '_mxml_global()' - Get global data.
 310:src/mxml-private.c ****  */
 311:src/mxml-private.c **** 
 312:src/mxml-private.c **** _mxml_global_t *			/* O - Global data */
 313:src/mxml-private.c **** _mxml_global(void)
ARM GAS  C:\Users\AHMED~1.ELE\AppData\Local\Temp\ccGIKLzk.s 			page 10


 314:src/mxml-private.c **** {
 200              		.loc 1 314 0
 201              		.cfi_startproc
 202              		@ args = 0, pretend = 0, frame = 0
 203              		@ frame_needed = 0, uses_anonymous_args = 0
 204              		@ link register save eliminated.
 315:src/mxml-private.c ****   static _mxml_global_t	global =	/* Global data */
 316:src/mxml-private.c ****   {
 317:src/mxml-private.c ****     NULL,				/* error_cb */
 318:src/mxml-private.c ****     1,					/* num_entity_cbs */
 319:src/mxml-private.c ****     { _mxml_entity_cb },		/* entity_cbs */
 320:src/mxml-private.c ****     72,					/* wrap */
 321:src/mxml-private.c ****     NULL,				/* custom_load_cb */
 322:src/mxml-private.c ****     NULL				/* custom_save_cb */
 323:src/mxml-private.c ****   };
 324:src/mxml-private.c **** 
 325:src/mxml-private.c **** 
 326:src/mxml-private.c ****   return (&global);
 327:src/mxml-private.c **** }
 205              		.loc 1 327 0
 206 0000 0048     		ldr	r0, .L20
 207 0002 7047     		bx	lr
 208              	.L21:
 209              		.align	2
 210              	.L20:
 211 0004 00000000 		.word	.LANCHOR0
 212              		.cfi_endproc
 213              	.LFE5:
 214              		.size	_mxml_global, .-_mxml_global
 215              		.section	.rodata.str1.1,"aMS",%progbits,1
 216              	.LC0:
 217 0000 120C6D78 		.ascii	"\022\014mxml: %s\012\000"
 217      6D6C3A20 
 217      25730A00 
 218              		.data
 219              		.align	2
 220              		.set	.LANCHOR0,. + 0
 221              		.type	global.10890, %object
 222              		.size	global.10890, 420
 223              	global.10890:
 224 0000 00000000 		.word	0
 225 0004 01000000 		.word	1
 226 0008 00000000 		.word	_mxml_entity_cb
 227 000c 00000000 		.space	396
 227      00000000 
 227      00000000 
 227      00000000 
 227      00000000 
 228 0198 48000000 		.word	72
 229 019c 00000000 		.word	0
 230 01a0 00000000 		.word	0
 231              		.text
 232              	.Letext0:
 233              		.file 2 "c:\\devtools\\gcc_v49_2014q4\\lib\\gcc\\arm-none-eabi\\4.9.3\\include\\stddef.h"
 234              		.file 3 "c:\\devtools\\gcc_v49_2014q4\\lib\\gcc\\arm-none-eabi\\4.9.3\\include\\stdarg.h"
 235              		.file 4 "../LibA5T1000/common.h"
 236              		.file 5 "../LibA5T1000/system.h"
ARM GAS  C:\Users\AHMED~1.ELE\AppData\Local\Temp\ccGIKLzk.s 			page 11


 237              		.file 6 "src/mxml.h"
 238              		.file 7 "<built-in>"
 239              		.file 8 "src/mxml-private.h"
 240              		.file 9 "src/mxml-config.h"
 241              		.file 10 "c:\\devtools\\gcc_v49_2014q4\\arm-none-eabi\\include\\stdio.h"