ARM GAS  C:\Users\AHMED~1.ELE\AppData\Local\Temp\ccodDkDv.s 			page 1


   1              		.syntax unified
   2              		.cpu cortex-a5
   3              		.fpu softvfp
   4              		.eabi_attribute 20, 1
   5              		.eabi_attribute 21, 1
   6              		.eabi_attribute 23, 3
   7              		.eabi_attribute 24, 1
   8              		.eabi_attribute 25, 1
   9              		.eabi_attribute 26, 1
  10              		.eabi_attribute 30, 4
  11              		.eabi_attribute 34, 0
  12              		.eabi_attribute 18, 4
  13              		.thumb
  14              		.file	"mxml-get.c"
  15              		.text
  16              	.Ltext0:
  17              		.cfi_sections	.debug_frame
  18              		.section	.text.mxmlGetCDATA,"ax",%progbits
  19              		.align	1
  20              		.global	mxmlGetCDATA
  21              		.thumb
  22              		.thumb_func
  23              		.type	mxmlGetCDATA, %function
  24              	mxmlGetCDATA:
  25              	.LFB0:
  26              		.file 1 "src/mxml-get.c"
   1:src/mxml-get.c **** /*
   2:src/mxml-get.c ****  * "$Id: mxml-get.c 451 2014-01-04 21:50:06Z msweet $"
   3:src/mxml-get.c ****  *
   4:src/mxml-get.c ****  * Node get functions for Mini-XML, a small XML-like file parsing library.
   5:src/mxml-get.c ****  *
   6:src/mxml-get.c ****  * Copyright 2014 by Michael R Sweet.
   7:src/mxml-get.c ****  *
   8:src/mxml-get.c ****  * These coded instructions, statements, and computer programs are the
   9:src/mxml-get.c ****  * property of Michael R Sweet and are protected by Federal copyright
  10:src/mxml-get.c ****  * law.  Distribution and use rights are outlined in the file "COPYING"
  11:src/mxml-get.c ****  * which should have been included with this file.  If this file is
  12:src/mxml-get.c ****  * missing or damaged, see the license at:
  13:src/mxml-get.c ****  *
  14:src/mxml-get.c ****  *     http://www.msweet.org/projects.php/Mini-XML
  15:src/mxml-get.c ****  */
  16:src/mxml-get.c **** 
  17:src/mxml-get.c **** /*
  18:src/mxml-get.c ****  * Include necessary headers...
  19:src/mxml-get.c ****  */
  20:src/mxml-get.c **** 
  21:src/mxml-get.c **** #include "mxml-config.h"
  22:src/mxml-get.c **** #include "mxml.h"
  23:src/mxml-get.c **** 
  24:src/mxml-get.c **** 
  25:src/mxml-get.c **** /*
  26:src/mxml-get.c ****  * 'mxmlGetCDATA()' - Get the value for a CDATA node.
  27:src/mxml-get.c ****  *
  28:src/mxml-get.c ****  * @code NULL@ is returned if the node is not a CDATA element.
  29:src/mxml-get.c ****  *
  30:src/mxml-get.c ****  * @since Mini-XML 2.7@
  31:src/mxml-get.c ****  */
ARM GAS  C:\Users\AHMED~1.ELE\AppData\Local\Temp\ccodDkDv.s 			page 2


  32:src/mxml-get.c **** 
  33:src/mxml-get.c **** const char *				/* O - CDATA value or NULL */
  34:src/mxml-get.c **** mxmlGetCDATA(mxml_node_t *node)		/* I - Node to get */
  35:src/mxml-get.c **** {
  27              		.loc 1 35 0
  28              		.cfi_startproc
  29              		@ args = 0, pretend = 0, frame = 0
  30              		@ frame_needed = 0, uses_anonymous_args = 0
  31              	.LVL0:
  32 0000 38B5     		push	{r3, r4, r5, lr}
  33              		.cfi_def_cfa_offset 16
  34              		.cfi_offset 3, -16
  35              		.cfi_offset 4, -12
  36              		.cfi_offset 5, -8
  37              		.cfi_offset 14, -4
  36:src/mxml-get.c ****  /*
  37:src/mxml-get.c ****   * Range check input...
  38:src/mxml-get.c ****   */
  39:src/mxml-get.c **** 
  40:src/mxml-get.c ****   if (!node || node->type != MXML_ELEMENT ||
  38              		.loc 1 40 0
  39 0002 78B1     		cbz	r0, .L2
  40              		.loc 1 40 0 is_stmt 0 discriminator 1
  41 0004 90F90040 		ldrsb	r4, [r0]
  42 0008 4CB9     		cbnz	r4, .L4
  41:src/mxml-get.c ****       strncmp(node->value.element.name, "![CDATA[", 8))
  43              		.loc 1 41 0 is_stmt 1 discriminator 2
  44 000a 8569     		ldr	r5, [r0, #24]
  45 000c 0649     		ldr	r1, .L7
  46 000e 2846     		mov	r0, r5
  47              	.LVL1:
  48 0010 0822     		movs	r2, #8
  49 0012 FFF7FEFF 		bl	strncmp
  50              	.LVL2:
  40:src/mxml-get.c ****       strncmp(node->value.element.name, "![CDATA[", 8))
  51              		.loc 1 40 0 discriminator 2
  52 0016 20B9     		cbnz	r0, .L5
  42:src/mxml-get.c ****     return (NULL);
  43:src/mxml-get.c **** 
  44:src/mxml-get.c ****  /*
  45:src/mxml-get.c ****   * Return the text following the CDATA declaration...
  46:src/mxml-get.c ****   */
  47:src/mxml-get.c **** 
  48:src/mxml-get.c ****   return (node->value.element.name + 8);
  53              		.loc 1 48 0
  54 0018 05F10800 		add	r0, r5, #8
  55 001c 38BD     		pop	{r3, r4, r5, pc}
  56              	.LVL3:
  57              	.L4:
  42:src/mxml-get.c ****     return (NULL);
  58              		.loc 1 42 0
  59 001e 0020     		movs	r0, #0
  60              	.LVL4:
  61 0020 38BD     		pop	{r3, r4, r5, pc}
  62              	.L5:
  63 0022 2046     		mov	r0, r4
  64              	.L2:
ARM GAS  C:\Users\AHMED~1.ELE\AppData\Local\Temp\ccodDkDv.s 			page 3


  49:src/mxml-get.c **** }
  65              		.loc 1 49 0
  66 0024 38BD     		pop	{r3, r4, r5, pc}
  67              	.L8:
  68 0026 00BF     		.align	2
  69              	.L7:
  70 0028 00000000 		.word	.LC0
  71              		.cfi_endproc
  72              	.LFE0:
  73              		.size	mxmlGetCDATA, .-mxmlGetCDATA
  74              		.section	.text.mxmlGetCustom,"ax",%progbits
  75              		.align	1
  76              		.global	mxmlGetCustom
  77              		.thumb
  78              		.thumb_func
  79              		.type	mxmlGetCustom, %function
  80              	mxmlGetCustom:
  81              	.LFB1:
  50:src/mxml-get.c **** 
  51:src/mxml-get.c **** 
  52:src/mxml-get.c **** /*
  53:src/mxml-get.c ****  * 'mxmlGetCustom()' - Get the value for a custom node.
  54:src/mxml-get.c ****  *
  55:src/mxml-get.c ****  * @code NULL@ is returned if the node (or its first child) is not a custom
  56:src/mxml-get.c ****  * value node.
  57:src/mxml-get.c ****  *
  58:src/mxml-get.c ****  * @since Mini-XML 2.7@
  59:src/mxml-get.c ****  */
  60:src/mxml-get.c **** 
  61:src/mxml-get.c **** const void *				/* O - Custom value or NULL */
  62:src/mxml-get.c **** mxmlGetCustom(mxml_node_t *node)	/* I - Node to get */
  63:src/mxml-get.c **** {
  82              		.loc 1 63 0
  83              		.cfi_startproc
  84              		@ args = 0, pretend = 0, frame = 0
  85              		@ frame_needed = 0, uses_anonymous_args = 0
  86              		@ link register save eliminated.
  87              	.LVL5:
  64:src/mxml-get.c ****  /*
  65:src/mxml-get.c ****   * Range check input...
  66:src/mxml-get.c ****   */
  67:src/mxml-get.c **** 
  68:src/mxml-get.c ****   if (!node)
  88              		.loc 1 68 0
  89 0000 70B1     		cbz	r0, .L10
  69:src/mxml-get.c ****     return (NULL);
  70:src/mxml-get.c **** 
  71:src/mxml-get.c ****  /*
  72:src/mxml-get.c ****   * Return the integer value...
  73:src/mxml-get.c ****   */
  74:src/mxml-get.c **** 
  75:src/mxml-get.c ****   if (node->type == MXML_CUSTOM)
  90              		.loc 1 75 0
  91 0002 0378     		ldrb	r3, [r0]	@ zero_extendqisi2
  92 0004 052B     		cmp	r3, #5
  93 0006 06D0     		beq	.L16
  76:src/mxml-get.c ****     return (node->value.custom.data);
ARM GAS  C:\Users\AHMED~1.ELE\AppData\Local\Temp\ccodDkDv.s 			page 4


  77:src/mxml-get.c ****   else if (node->type == MXML_ELEMENT &&
  94              		.loc 1 77 0
  95 0008 3BB9     		cbnz	r3, .L13
  78:src/mxml-get.c ****            node->child &&
  96              		.loc 1 78 0 discriminator 1
  97 000a 0069     		ldr	r0, [r0, #16]
  98              	.LVL6:
  77:src/mxml-get.c ****            node->child &&
  99              		.loc 1 77 0 discriminator 1
 100 000c 40B1     		cbz	r0, .L10
 101              		.loc 1 78 0
 102 000e 90F90020 		ldrsb	r2, [r0]
 103 0012 052A     		cmp	r2, #5
 104 0014 03D1     		bne	.L15
 105              	.L16:
  79:src/mxml-get.c **** 	   node->child->type == MXML_CUSTOM)
  80:src/mxml-get.c ****     return (node->child->value.custom.data);
 106              		.loc 1 80 0
 107 0016 8069     		ldr	r0, [r0, #24]
 108 0018 7047     		bx	lr
 109              	.LVL7:
 110              	.L13:
  69:src/mxml-get.c **** 
 111              		.loc 1 69 0
 112 001a 0020     		movs	r0, #0
 113              	.LVL8:
 114 001c 7047     		bx	lr
 115              	.L15:
 116 001e 1846     		mov	r0, r3
 117              	.L10:
  81:src/mxml-get.c ****   else
  82:src/mxml-get.c ****     return (NULL);
  83:src/mxml-get.c **** }
 118              		.loc 1 83 0
 119 0020 7047     		bx	lr
 120              		.cfi_endproc
 121              	.LFE1:
 122              		.size	mxmlGetCustom, .-mxmlGetCustom
 123              		.section	.text.mxmlGetElement,"ax",%progbits
 124              		.align	1
 125              		.global	mxmlGetElement
 126              		.thumb
 127              		.thumb_func
 128              		.type	mxmlGetElement, %function
 129              	mxmlGetElement:
 130              	.LFB2:
  84:src/mxml-get.c **** 
  85:src/mxml-get.c **** 
  86:src/mxml-get.c **** /*
  87:src/mxml-get.c ****  * 'mxmlGetElement()' - Get the name for an element node.
  88:src/mxml-get.c ****  *
  89:src/mxml-get.c ****  * @code NULL@ is returned if the node is not an element node.
  90:src/mxml-get.c ****  *
  91:src/mxml-get.c ****  * @since Mini-XML 2.7@
  92:src/mxml-get.c ****  */
  93:src/mxml-get.c **** 
  94:src/mxml-get.c **** const char *				/* O - Element name or NULL */
ARM GAS  C:\Users\AHMED~1.ELE\AppData\Local\Temp\ccodDkDv.s 			page 5


  95:src/mxml-get.c **** mxmlGetElement(mxml_node_t *node)	/* I - Node to get */
  96:src/mxml-get.c **** {
 131              		.loc 1 96 0
 132              		.cfi_startproc
 133              		@ args = 0, pretend = 0, frame = 0
 134              		@ frame_needed = 0, uses_anonymous_args = 0
 135              		@ link register save eliminated.
 136              	.LVL9:
  97:src/mxml-get.c ****  /*
  98:src/mxml-get.c ****   * Range check input...
  99:src/mxml-get.c ****   */
 100:src/mxml-get.c **** 
 101:src/mxml-get.c ****   if (!node || node->type != MXML_ELEMENT)
 137              		.loc 1 101 0
 138 0000 28B1     		cbz	r0, .L18
 139              		.loc 1 101 0 is_stmt 0 discriminator 1
 140 0002 90F90030 		ldrsb	r3, [r0]
 141 0006 0BB9     		cbnz	r3, .L20
 102:src/mxml-get.c ****     return (NULL);
 103:src/mxml-get.c **** 
 104:src/mxml-get.c ****  /*
 105:src/mxml-get.c ****   * Return the element name...
 106:src/mxml-get.c ****   */
 107:src/mxml-get.c **** 
 108:src/mxml-get.c ****   return (node->value.element.name);
 142              		.loc 1 108 0 is_stmt 1
 143 0008 8069     		ldr	r0, [r0, #24]
 144              	.LVL10:
 145 000a 7047     		bx	lr
 146              	.LVL11:
 147              	.L20:
 102:src/mxml-get.c ****     return (NULL);
 148              		.loc 1 102 0
 149 000c 0020     		movs	r0, #0
 150              	.LVL12:
 151              	.L18:
 109:src/mxml-get.c **** }
 152              		.loc 1 109 0
 153 000e 7047     		bx	lr
 154              		.cfi_endproc
 155              	.LFE2:
 156              		.size	mxmlGetElement, .-mxmlGetElement
 157              		.section	.text.mxmlGetFirstChild,"ax",%progbits
 158              		.align	1
 159              		.global	mxmlGetFirstChild
 160              		.thumb
 161              		.thumb_func
 162              		.type	mxmlGetFirstChild, %function
 163              	mxmlGetFirstChild:
 164              	.LFB3:
 110:src/mxml-get.c **** 
 111:src/mxml-get.c **** 
 112:src/mxml-get.c **** /*
 113:src/mxml-get.c ****  * 'mxmlGetFirstChild()' - Get the first child of an element node.
 114:src/mxml-get.c ****  *
 115:src/mxml-get.c ****  * @code NULL@ is returned if the node is not an element node or if the node
 116:src/mxml-get.c ****  * has no children.
ARM GAS  C:\Users\AHMED~1.ELE\AppData\Local\Temp\ccodDkDv.s 			page 6


 117:src/mxml-get.c ****  *
 118:src/mxml-get.c ****  * @since Mini-XML 2.7@
 119:src/mxml-get.c ****  */
 120:src/mxml-get.c **** 
 121:src/mxml-get.c **** mxml_node_t *				/* O - First child or NULL */
 122:src/mxml-get.c **** mxmlGetFirstChild(mxml_node_t *node)	/* I - Node to get */
 123:src/mxml-get.c **** {
 165              		.loc 1 123 0
 166              		.cfi_startproc
 167              		@ args = 0, pretend = 0, frame = 0
 168              		@ frame_needed = 0, uses_anonymous_args = 0
 169              		@ link register save eliminated.
 170              	.LVL13:
 124:src/mxml-get.c ****  /*
 125:src/mxml-get.c ****   * Range check input...
 126:src/mxml-get.c ****   */
 127:src/mxml-get.c **** 
 128:src/mxml-get.c ****   if (!node || node->type != MXML_ELEMENT)
 171              		.loc 1 128 0
 172 0000 28B1     		cbz	r0, .L22
 173              		.loc 1 128 0 is_stmt 0 discriminator 1
 174 0002 90F90030 		ldrsb	r3, [r0]
 175 0006 0BB9     		cbnz	r3, .L24
 129:src/mxml-get.c ****     return (NULL);
 130:src/mxml-get.c **** 
 131:src/mxml-get.c ****  /*
 132:src/mxml-get.c ****   * Return the first child node...
 133:src/mxml-get.c ****   */
 134:src/mxml-get.c **** 
 135:src/mxml-get.c ****   return (node->child);
 176              		.loc 1 135 0 is_stmt 1
 177 0008 0069     		ldr	r0, [r0, #16]
 178              	.LVL14:
 179 000a 7047     		bx	lr
 180              	.LVL15:
 181              	.L24:
 129:src/mxml-get.c ****     return (NULL);
 182              		.loc 1 129 0
 183 000c 0020     		movs	r0, #0
 184              	.LVL16:
 185              	.L22:
 136:src/mxml-get.c **** }
 186              		.loc 1 136 0
 187 000e 7047     		bx	lr
 188              		.cfi_endproc
 189              	.LFE3:
 190              		.size	mxmlGetFirstChild, .-mxmlGetFirstChild
 191              		.section	.text.mxmlGetInteger,"ax",%progbits
 192              		.align	1
 193              		.global	mxmlGetInteger
 194              		.thumb
 195              		.thumb_func
 196              		.type	mxmlGetInteger, %function
 197              	mxmlGetInteger:
 198              	.LFB4:
 137:src/mxml-get.c **** 
 138:src/mxml-get.c **** 
ARM GAS  C:\Users\AHMED~1.ELE\AppData\Local\Temp\ccodDkDv.s 			page 7


 139:src/mxml-get.c **** /*
 140:src/mxml-get.c ****  * 'mxmlGetInteger()' - Get the integer value from the specified node or its
 141:src/mxml-get.c ****  *                      first child.
 142:src/mxml-get.c ****  *
 143:src/mxml-get.c ****  * 0 is returned if the node (or its first child) is not an integer value node.
 144:src/mxml-get.c ****  *
 145:src/mxml-get.c ****  * @since Mini-XML 2.7@
 146:src/mxml-get.c ****  */
 147:src/mxml-get.c **** 
 148:src/mxml-get.c **** int					/* O - Integer value or 0 */
 149:src/mxml-get.c **** mxmlGetInteger(mxml_node_t *node)	/* I - Node to get */
 150:src/mxml-get.c **** {
 199              		.loc 1 150 0
 200              		.cfi_startproc
 201              		@ args = 0, pretend = 0, frame = 0
 202              		@ frame_needed = 0, uses_anonymous_args = 0
 203              		@ link register save eliminated.
 204              	.LVL17:
 151:src/mxml-get.c ****  /*
 152:src/mxml-get.c ****   * Range check input...
 153:src/mxml-get.c ****   */
 154:src/mxml-get.c **** 
 155:src/mxml-get.c ****   if (!node)
 205              		.loc 1 155 0
 206 0000 70B1     		cbz	r0, .L26
 156:src/mxml-get.c ****     return (0);
 157:src/mxml-get.c **** 
 158:src/mxml-get.c ****  /*
 159:src/mxml-get.c ****   * Return the integer value...
 160:src/mxml-get.c ****   */
 161:src/mxml-get.c **** 
 162:src/mxml-get.c ****   if (node->type == MXML_INTEGER)
 207              		.loc 1 162 0
 208 0002 0378     		ldrb	r3, [r0]	@ zero_extendqisi2
 209 0004 012B     		cmp	r3, #1
 210 0006 06D0     		beq	.L32
 163:src/mxml-get.c ****     return (node->value.integer);
 164:src/mxml-get.c ****   else if (node->type == MXML_ELEMENT &&
 211              		.loc 1 164 0
 212 0008 3BB9     		cbnz	r3, .L29
 165:src/mxml-get.c ****            node->child &&
 213              		.loc 1 165 0 discriminator 1
 214 000a 0069     		ldr	r0, [r0, #16]
 215              	.LVL18:
 164:src/mxml-get.c ****            node->child &&
 216              		.loc 1 164 0 discriminator 1
 217 000c 40B1     		cbz	r0, .L26
 218              		.loc 1 165 0
 219 000e 90F90020 		ldrsb	r2, [r0]
 220 0012 012A     		cmp	r2, #1
 221 0014 03D1     		bne	.L31
 222              	.L32:
 166:src/mxml-get.c **** 	   node->child->type == MXML_INTEGER)
 167:src/mxml-get.c ****     return (node->child->value.integer);
 223              		.loc 1 167 0
 224 0016 8069     		ldr	r0, [r0, #24]
 225 0018 7047     		bx	lr
ARM GAS  C:\Users\AHMED~1.ELE\AppData\Local\Temp\ccodDkDv.s 			page 8


 226              	.LVL19:
 227              	.L29:
 156:src/mxml-get.c **** 
 228              		.loc 1 156 0
 229 001a 0020     		movs	r0, #0
 230              	.LVL20:
 231 001c 7047     		bx	lr
 232              	.L31:
 233 001e 1846     		mov	r0, r3
 234              	.L26:
 168:src/mxml-get.c ****   else
 169:src/mxml-get.c ****     return (0);
 170:src/mxml-get.c **** }
 235              		.loc 1 170 0
 236 0020 7047     		bx	lr
 237              		.cfi_endproc
 238              	.LFE4:
 239              		.size	mxmlGetInteger, .-mxmlGetInteger
 240              		.section	.text.mxmlGetLastChild,"ax",%progbits
 241              		.align	1
 242              		.global	mxmlGetLastChild
 243              		.thumb
 244              		.thumb_func
 245              		.type	mxmlGetLastChild, %function
 246              	mxmlGetLastChild:
 247              	.LFB5:
 171:src/mxml-get.c **** 
 172:src/mxml-get.c **** 
 173:src/mxml-get.c **** /*
 174:src/mxml-get.c ****  * 'mxmlGetLastChild()' - Get the last child of an element node.
 175:src/mxml-get.c ****  *
 176:src/mxml-get.c ****  * @code NULL@ is returned if the node is not an element node or if the node
 177:src/mxml-get.c ****  * has no children.
 178:src/mxml-get.c ****  *
 179:src/mxml-get.c ****  * @since Mini-XML 2.7@
 180:src/mxml-get.c ****  */
 181:src/mxml-get.c **** 
 182:src/mxml-get.c **** mxml_node_t *				/* O - Last child or NULL */
 183:src/mxml-get.c **** mxmlGetLastChild(mxml_node_t *node)	/* I - Node to get */
 184:src/mxml-get.c **** {
 248              		.loc 1 184 0
 249              		.cfi_startproc
 250              		@ args = 0, pretend = 0, frame = 0
 251              		@ frame_needed = 0, uses_anonymous_args = 0
 252              		@ link register save eliminated.
 253              	.LVL21:
 185:src/mxml-get.c ****  /*
 186:src/mxml-get.c ****   * Range check input...
 187:src/mxml-get.c ****   */
 188:src/mxml-get.c **** 
 189:src/mxml-get.c ****   if (!node || node->type != MXML_ELEMENT)
 254              		.loc 1 189 0
 255 0000 28B1     		cbz	r0, .L34
 256              		.loc 1 189 0 is_stmt 0 discriminator 1
 257 0002 90F90030 		ldrsb	r3, [r0]
 258 0006 0BB9     		cbnz	r3, .L36
 190:src/mxml-get.c ****     return (NULL);
ARM GAS  C:\Users\AHMED~1.ELE\AppData\Local\Temp\ccodDkDv.s 			page 9


 191:src/mxml-get.c **** 
 192:src/mxml-get.c ****  /*
 193:src/mxml-get.c ****   * Return the node type...
 194:src/mxml-get.c ****   */
 195:src/mxml-get.c **** 
 196:src/mxml-get.c ****   return (node->last_child);
 259              		.loc 1 196 0 is_stmt 1
 260 0008 4069     		ldr	r0, [r0, #20]
 261              	.LVL22:
 262 000a 7047     		bx	lr
 263              	.LVL23:
 264              	.L36:
 190:src/mxml-get.c ****     return (NULL);
 265              		.loc 1 190 0
 266 000c 0020     		movs	r0, #0
 267              	.LVL24:
 268              	.L34:
 197:src/mxml-get.c **** }
 269              		.loc 1 197 0
 270 000e 7047     		bx	lr
 271              		.cfi_endproc
 272              	.LFE5:
 273              		.size	mxmlGetLastChild, .-mxmlGetLastChild
 274              		.section	.text.mxmlGetNextSibling,"ax",%progbits
 275              		.align	1
 276              		.global	mxmlGetNextSibling
 277              		.thumb
 278              		.thumb_func
 279              		.type	mxmlGetNextSibling, %function
 280              	mxmlGetNextSibling:
 281              	.LFB6:
 198:src/mxml-get.c **** 
 199:src/mxml-get.c **** 
 200:src/mxml-get.c **** /*
 201:src/mxml-get.c ****  * 'mxmlGetNextSibling()' - Get the next node for the current parent.
 202:src/mxml-get.c ****  *
 203:src/mxml-get.c ****  * @code NULL@ is returned if this is the last child for the current parent.
 204:src/mxml-get.c ****  *
 205:src/mxml-get.c ****  * @since Mini-XML 2.7@
 206:src/mxml-get.c ****  */
 207:src/mxml-get.c **** 
 208:src/mxml-get.c **** mxml_node_t *
 209:src/mxml-get.c **** mxmlGetNextSibling(mxml_node_t *node)	/* I - Node to get */
 210:src/mxml-get.c **** {
 282              		.loc 1 210 0
 283              		.cfi_startproc
 284              		@ args = 0, pretend = 0, frame = 0
 285              		@ frame_needed = 0, uses_anonymous_args = 0
 286              		@ link register save eliminated.
 287              	.LVL25:
 211:src/mxml-get.c ****  /*
 212:src/mxml-get.c ****   * Range check input...
 213:src/mxml-get.c ****   */
 214:src/mxml-get.c **** 
 215:src/mxml-get.c ****   if (!node)
 288              		.loc 1 215 0
 289 0000 00B1     		cbz	r0, .L38
ARM GAS  C:\Users\AHMED~1.ELE\AppData\Local\Temp\ccodDkDv.s 			page 10


 216:src/mxml-get.c ****     return (NULL);
 217:src/mxml-get.c **** 
 218:src/mxml-get.c ****  /*
 219:src/mxml-get.c ****   * Return the node type...
 220:src/mxml-get.c ****   */
 221:src/mxml-get.c **** 
 222:src/mxml-get.c ****   return (node->next);
 290              		.loc 1 222 0
 291 0002 4068     		ldr	r0, [r0, #4]
 292              	.LVL26:
 293              	.L38:
 223:src/mxml-get.c **** }
 294              		.loc 1 223 0
 295 0004 7047     		bx	lr
 296              		.cfi_endproc
 297              	.LFE6:
 298              		.size	mxmlGetNextSibling, .-mxmlGetNextSibling
 299              		.section	.text.mxmlGetOpaque,"ax",%progbits
 300              		.align	1
 301              		.global	mxmlGetOpaque
 302              		.thumb
 303              		.thumb_func
 304              		.type	mxmlGetOpaque, %function
 305              	mxmlGetOpaque:
 306              	.LFB7:
 224:src/mxml-get.c **** 
 225:src/mxml-get.c **** 
 226:src/mxml-get.c **** /*
 227:src/mxml-get.c ****  * 'mxmlGetOpaque()' - Get an opaque string value for a node or its first child.
 228:src/mxml-get.c ****  *
 229:src/mxml-get.c ****  * @code NULL@ is returned if the node (or its first child) is not an opaque
 230:src/mxml-get.c ****  * value node.
 231:src/mxml-get.c ****  *
 232:src/mxml-get.c ****  * @since Mini-XML 2.7@
 233:src/mxml-get.c ****  */
 234:src/mxml-get.c **** 
 235:src/mxml-get.c **** const char *				/* O - Opaque string or NULL */
 236:src/mxml-get.c **** mxmlGetOpaque(mxml_node_t *node)	/* I - Node to get */
 237:src/mxml-get.c **** {
 307              		.loc 1 237 0
 308              		.cfi_startproc
 309              		@ args = 0, pretend = 0, frame = 0
 310              		@ frame_needed = 0, uses_anonymous_args = 0
 311              		@ link register save eliminated.
 312              	.LVL27:
 238:src/mxml-get.c ****  /*
 239:src/mxml-get.c ****   * Range check input...
 240:src/mxml-get.c ****   */
 241:src/mxml-get.c **** 
 242:src/mxml-get.c ****   if (!node)
 313              		.loc 1 242 0
 314 0000 70B1     		cbz	r0, .L41
 243:src/mxml-get.c ****     return (NULL);
 244:src/mxml-get.c **** 
 245:src/mxml-get.c ****  /*
 246:src/mxml-get.c ****   * Return the integer value...
 247:src/mxml-get.c ****   */
ARM GAS  C:\Users\AHMED~1.ELE\AppData\Local\Temp\ccodDkDv.s 			page 11


 248:src/mxml-get.c **** 
 249:src/mxml-get.c ****   if (node->type == MXML_OPAQUE)
 315              		.loc 1 249 0
 316 0002 0378     		ldrb	r3, [r0]	@ zero_extendqisi2
 317 0004 022B     		cmp	r3, #2
 318 0006 06D0     		beq	.L47
 250:src/mxml-get.c ****     return (node->value.opaque);
 251:src/mxml-get.c ****   else if (node->type == MXML_ELEMENT &&
 319              		.loc 1 251 0
 320 0008 3BB9     		cbnz	r3, .L44
 252:src/mxml-get.c ****            node->child &&
 321              		.loc 1 252 0 discriminator 1
 322 000a 0069     		ldr	r0, [r0, #16]
 323              	.LVL28:
 251:src/mxml-get.c ****            node->child &&
 324              		.loc 1 251 0 discriminator 1
 325 000c 40B1     		cbz	r0, .L41
 326              		.loc 1 252 0
 327 000e 90F90020 		ldrsb	r2, [r0]
 328 0012 022A     		cmp	r2, #2
 329 0014 03D1     		bne	.L46
 330              	.L47:
 253:src/mxml-get.c **** 	   node->child->type == MXML_OPAQUE)
 254:src/mxml-get.c ****     return (node->child->value.opaque);
 331              		.loc 1 254 0
 332 0016 8069     		ldr	r0, [r0, #24]
 333 0018 7047     		bx	lr
 334              	.LVL29:
 335              	.L44:
 243:src/mxml-get.c **** 
 336              		.loc 1 243 0
 337 001a 0020     		movs	r0, #0
 338              	.LVL30:
 339 001c 7047     		bx	lr
 340              	.L46:
 341 001e 1846     		mov	r0, r3
 342              	.L41:
 255:src/mxml-get.c ****   else
 256:src/mxml-get.c ****     return (NULL);
 257:src/mxml-get.c **** }
 343              		.loc 1 257 0
 344 0020 7047     		bx	lr
 345              		.cfi_endproc
 346              	.LFE7:
 347              		.size	mxmlGetOpaque, .-mxmlGetOpaque
 348              		.section	.text.mxmlGetParent,"ax",%progbits
 349              		.align	1
 350              		.global	mxmlGetParent
 351              		.thumb
 352              		.thumb_func
 353              		.type	mxmlGetParent, %function
 354              	mxmlGetParent:
 355              	.LFB8:
 258:src/mxml-get.c **** 
 259:src/mxml-get.c **** 
 260:src/mxml-get.c **** /*
 261:src/mxml-get.c ****  * 'mxmlGetParent()' - Get the parent node.
ARM GAS  C:\Users\AHMED~1.ELE\AppData\Local\Temp\ccodDkDv.s 			page 12


 262:src/mxml-get.c ****  *
 263:src/mxml-get.c ****  * @code NULL@ is returned for a root node.
 264:src/mxml-get.c ****  *
 265:src/mxml-get.c ****  * @since Mini-XML 2.7@
 266:src/mxml-get.c ****  */
 267:src/mxml-get.c **** 
 268:src/mxml-get.c **** mxml_node_t *				/* O - Parent node or NULL */
 269:src/mxml-get.c **** mxmlGetParent(mxml_node_t *node)	/* I - Node to get */
 270:src/mxml-get.c **** {
 356              		.loc 1 270 0
 357              		.cfi_startproc
 358              		@ args = 0, pretend = 0, frame = 0
 359              		@ frame_needed = 0, uses_anonymous_args = 0
 360              		@ link register save eliminated.
 361              	.LVL31:
 271:src/mxml-get.c ****  /*
 272:src/mxml-get.c ****   * Range check input...
 273:src/mxml-get.c ****   */
 274:src/mxml-get.c **** 
 275:src/mxml-get.c ****   if (!node)
 362              		.loc 1 275 0
 363 0000 00B1     		cbz	r0, .L49
 276:src/mxml-get.c ****     return (NULL);
 277:src/mxml-get.c **** 
 278:src/mxml-get.c ****  /*
 279:src/mxml-get.c ****   * Return the node type...
 280:src/mxml-get.c ****   */
 281:src/mxml-get.c **** 
 282:src/mxml-get.c ****   return (node->parent);
 364              		.loc 1 282 0
 365 0002 C068     		ldr	r0, [r0, #12]
 366              	.LVL32:
 367              	.L49:
 283:src/mxml-get.c **** }
 368              		.loc 1 283 0
 369 0004 7047     		bx	lr
 370              		.cfi_endproc
 371              	.LFE8:
 372              		.size	mxmlGetParent, .-mxmlGetParent
 373              		.section	.text.mxmlGetPrevSibling,"ax",%progbits
 374              		.align	1
 375              		.global	mxmlGetPrevSibling
 376              		.thumb
 377              		.thumb_func
 378              		.type	mxmlGetPrevSibling, %function
 379              	mxmlGetPrevSibling:
 380              	.LFB9:
 284:src/mxml-get.c **** 
 285:src/mxml-get.c **** 
 286:src/mxml-get.c **** /*
 287:src/mxml-get.c ****  * 'mxmlGetPrevSibling()' - Get the previous node for the current parent.
 288:src/mxml-get.c ****  *
 289:src/mxml-get.c ****  * @code NULL@ is returned if this is the first child for the current parent.
 290:src/mxml-get.c ****  *
 291:src/mxml-get.c ****  * @since Mini-XML 2.7@
 292:src/mxml-get.c ****  */
 293:src/mxml-get.c **** 
ARM GAS  C:\Users\AHMED~1.ELE\AppData\Local\Temp\ccodDkDv.s 			page 13


 294:src/mxml-get.c **** mxml_node_t *				/* O - Previous node or NULL */
 295:src/mxml-get.c **** mxmlGetPrevSibling(mxml_node_t *node)	/* I - Node to get */
 296:src/mxml-get.c **** {
 381              		.loc 1 296 0
 382              		.cfi_startproc
 383              		@ args = 0, pretend = 0, frame = 0
 384              		@ frame_needed = 0, uses_anonymous_args = 0
 385              		@ link register save eliminated.
 386              	.LVL33:
 297:src/mxml-get.c ****  /*
 298:src/mxml-get.c ****   * Range check input...
 299:src/mxml-get.c ****   */
 300:src/mxml-get.c **** 
 301:src/mxml-get.c ****   if (!node)
 387              		.loc 1 301 0
 388 0000 00B1     		cbz	r0, .L52
 302:src/mxml-get.c ****     return (NULL);
 303:src/mxml-get.c **** 
 304:src/mxml-get.c ****  /*
 305:src/mxml-get.c ****   * Return the node type...
 306:src/mxml-get.c ****   */
 307:src/mxml-get.c **** 
 308:src/mxml-get.c ****   return (node->prev);
 389              		.loc 1 308 0
 390 0002 8068     		ldr	r0, [r0, #8]
 391              	.LVL34:
 392              	.L52:
 309:src/mxml-get.c **** }
 393              		.loc 1 309 0
 394 0004 7047     		bx	lr
 395              		.cfi_endproc
 396              	.LFE9:
 397              		.size	mxmlGetPrevSibling, .-mxmlGetPrevSibling
 398              		.section	.text.mxmlGetReal,"ax",%progbits
 399              		.align	1
 400              		.global	mxmlGetReal
 401              		.thumb
 402              		.thumb_func
 403              		.type	mxmlGetReal, %function
 404              	mxmlGetReal:
 405              	.LFB10:
 310:src/mxml-get.c **** 
 311:src/mxml-get.c **** 
 312:src/mxml-get.c **** /*
 313:src/mxml-get.c ****  * 'mxmlGetReal()' - Get the real value for a node or its first child.
 314:src/mxml-get.c ****  *
 315:src/mxml-get.c ****  * 0.0 is returned if the node (or its first child) is not a real value node.
 316:src/mxml-get.c ****  *
 317:src/mxml-get.c ****  * @since Mini-XML 2.7@
 318:src/mxml-get.c ****  */
 319:src/mxml-get.c **** 
 320:src/mxml-get.c **** double					/* O - Real value or 0.0 */
 321:src/mxml-get.c **** mxmlGetReal(mxml_node_t *node)		/* I - Node to get */
 322:src/mxml-get.c **** {
 406              		.loc 1 322 0
 407              		.cfi_startproc
 408              		@ args = 0, pretend = 0, frame = 0
ARM GAS  C:\Users\AHMED~1.ELE\AppData\Local\Temp\ccodDkDv.s 			page 14


 409              		@ frame_needed = 0, uses_anonymous_args = 0
 410              		@ link register save eliminated.
 411              	.LVL35:
 323:src/mxml-get.c ****  /*
 324:src/mxml-get.c ****   * Range check input...
 325:src/mxml-get.c ****   */
 326:src/mxml-get.c **** 
 327:src/mxml-get.c ****   if (!node)
 412              		.loc 1 327 0
 413 0000 78B1     		cbz	r0, .L60
 328:src/mxml-get.c ****     return (0.0);
 329:src/mxml-get.c **** 
 330:src/mxml-get.c ****  /*
 331:src/mxml-get.c ****   * Return the integer value...
 332:src/mxml-get.c ****   */
 333:src/mxml-get.c **** 
 334:src/mxml-get.c ****   if (node->type == MXML_REAL)
 414              		.loc 1 334 0
 415 0002 0378     		ldrb	r3, [r0]	@ zero_extendqisi2
 416 0004 032B     		cmp	r3, #3
 417 0006 02D1     		bne	.L56
 335:src/mxml-get.c ****     return (node->value.real);
 418              		.loc 1 335 0
 419 0008 D0E90601 		ldrd	r0, [r0, #24]
 420              	.LVL36:
 421 000c 7047     		bx	lr
 422              	.LVL37:
 423              	.L56:
 336:src/mxml-get.c ****   else if (node->type == MXML_ELEMENT &&
 424              		.loc 1 336 0
 425 000e 43B9     		cbnz	r3, .L60
 337:src/mxml-get.c ****            node->child &&
 426              		.loc 1 337 0 discriminator 1
 427 0010 0369     		ldr	r3, [r0, #16]
 336:src/mxml-get.c ****   else if (node->type == MXML_ELEMENT &&
 428              		.loc 1 336 0 discriminator 1
 429 0012 33B1     		cbz	r3, .L60
 430              		.loc 1 337 0
 431 0014 93F90020 		ldrsb	r2, [r3]
 432 0018 032A     		cmp	r2, #3
 433 001a 02D1     		bne	.L60
 338:src/mxml-get.c **** 	   node->child->type == MXML_REAL)
 339:src/mxml-get.c ****     return (node->child->value.real);
 434              		.loc 1 339 0
 435 001c D3E90601 		ldrd	r0, [r3, #24]
 436              	.LVL38:
 437 0020 7047     		bx	lr
 438              	.LVL39:
 439              	.L60:
 328:src/mxml-get.c **** 
 440              		.loc 1 328 0
 441 0022 0020     		movs	r0, #0
 442              	.LVL40:
 443 0024 0021     		movs	r1, #0
 340:src/mxml-get.c ****   else
 341:src/mxml-get.c ****     return (0.0);
 342:src/mxml-get.c **** }
ARM GAS  C:\Users\AHMED~1.ELE\AppData\Local\Temp\ccodDkDv.s 			page 15


 444              		.loc 1 342 0
 445 0026 7047     		bx	lr
 446              		.cfi_endproc
 447              	.LFE10:
 448              		.size	mxmlGetReal, .-mxmlGetReal
 449              		.section	.text.mxmlGetText,"ax",%progbits
 450              		.align	1
 451              		.global	mxmlGetText
 452              		.thumb
 453              		.thumb_func
 454              		.type	mxmlGetText, %function
 455              	mxmlGetText:
 456              	.LFB11:
 343:src/mxml-get.c **** 
 344:src/mxml-get.c **** 
 345:src/mxml-get.c **** /*
 346:src/mxml-get.c ****  * 'mxmlGetText()' - Get the text value for a node or its first child.
 347:src/mxml-get.c ****  *
 348:src/mxml-get.c ****  * @code NULL@ is returned if the node (or its first child) is not a text node.
 349:src/mxml-get.c ****  * The "whitespace" argument can be NULL.
 350:src/mxml-get.c ****  *
 351:src/mxml-get.c ****  * @since Mini-XML 2.7@
 352:src/mxml-get.c ****  */
 353:src/mxml-get.c **** 
 354:src/mxml-get.c **** const char *				/* O - Text string or NULL */
 355:src/mxml-get.c **** mxmlGetText(mxml_node_t *node,		/* I - Node to get */
 356:src/mxml-get.c ****             int         *whitespace)	/* O - 1 if string is preceded by whitespace, 0 otherwise */
 357:src/mxml-get.c **** {
 457              		.loc 1 357 0
 458              		.cfi_startproc
 459              		@ args = 0, pretend = 0, frame = 0
 460              		@ frame_needed = 0, uses_anonymous_args = 0
 461              		@ link register save eliminated.
 462              	.LVL41:
 358:src/mxml-get.c ****  /*
 359:src/mxml-get.c ****   * Range check input...
 360:src/mxml-get.c ****   */
 361:src/mxml-get.c **** 
 362:src/mxml-get.c ****   if (!node)
 463              		.loc 1 362 0
 464 0000 18B9     		cbnz	r0, .L62
 465              	.L66:
 466 0002 0020     		movs	r0, #0
 467              	.LVL42:
 363:src/mxml-get.c ****   {
 364:src/mxml-get.c ****     if (whitespace)
 468              		.loc 1 364 0
 469 0004 B9B1     		cbz	r1, .L68
 365:src/mxml-get.c ****       *whitespace = 0;
 470              		.loc 1 365 0
 471 0006 0860     		str	r0, [r1]
 472 0008 7047     		bx	lr
 473              	.LVL43:
 474              	.L62:
 366:src/mxml-get.c **** 
 367:src/mxml-get.c ****     return (NULL);
 368:src/mxml-get.c ****   }
ARM GAS  C:\Users\AHMED~1.ELE\AppData\Local\Temp\ccodDkDv.s 			page 16


 369:src/mxml-get.c **** 
 370:src/mxml-get.c ****  /*
 371:src/mxml-get.c ****   * Return the integer value...
 372:src/mxml-get.c ****   */
 373:src/mxml-get.c **** 
 374:src/mxml-get.c ****   if (node->type == MXML_TEXT)
 475              		.loc 1 374 0
 476 000a 0378     		ldrb	r3, [r0]	@ zero_extendqisi2
 477 000c 042B     		cmp	r3, #4
 478 000e 04D1     		bne	.L64
 375:src/mxml-get.c ****   {
 376:src/mxml-get.c ****     if (whitespace)
 479              		.loc 1 376 0
 480 0010 09B1     		cbz	r1, .L65
 377:src/mxml-get.c ****       *whitespace = node->value.text.whitespace;
 481              		.loc 1 377 0
 482 0012 8369     		ldr	r3, [r0, #24]
 483 0014 0B60     		str	r3, [r1]
 484              	.L65:
 378:src/mxml-get.c **** 
 379:src/mxml-get.c ****     return (node->value.text.string);
 485              		.loc 1 379 0
 486 0016 C069     		ldr	r0, [r0, #28]
 487              	.LVL44:
 488 0018 7047     		bx	lr
 489              	.LVL45:
 490              	.L64:
 380:src/mxml-get.c ****   }
 381:src/mxml-get.c ****   else if (node->type == MXML_ELEMENT &&
 491              		.loc 1 381 0
 492 001a 002B     		cmp	r3, #0
 493 001c F1D1     		bne	.L66
 382:src/mxml-get.c ****            node->child &&
 494              		.loc 1 382 0 discriminator 1
 495 001e 0369     		ldr	r3, [r0, #16]
 381:src/mxml-get.c ****            node->child &&
 496              		.loc 1 381 0 discriminator 1
 497 0020 002B     		cmp	r3, #0
 498 0022 EED0     		beq	.L66
 499              		.loc 1 382 0
 500 0024 93F90020 		ldrsb	r2, [r3]
 501 0028 042A     		cmp	r2, #4
 502 002a EAD1     		bne	.L66
 383:src/mxml-get.c **** 	   node->child->type == MXML_TEXT)
 384:src/mxml-get.c ****   {
 385:src/mxml-get.c ****     if (whitespace)
 503              		.loc 1 385 0
 504 002c 09B1     		cbz	r1, .L67
 386:src/mxml-get.c ****       *whitespace = node->child->value.text.whitespace;
 505              		.loc 1 386 0
 506 002e 9A69     		ldr	r2, [r3, #24]
 507 0030 0A60     		str	r2, [r1]
 508              	.L67:
 387:src/mxml-get.c **** 
 388:src/mxml-get.c ****     return (node->child->value.text.string);
 509              		.loc 1 388 0
 510 0032 D869     		ldr	r0, [r3, #28]
ARM GAS  C:\Users\AHMED~1.ELE\AppData\Local\Temp\ccodDkDv.s 			page 17


 511              	.LVL46:
 512 0034 7047     		bx	lr
 513              	.L68:
 367:src/mxml-get.c ****   }
 514              		.loc 1 367 0
 515 0036 0846     		mov	r0, r1
 389:src/mxml-get.c ****   }
 390:src/mxml-get.c ****   else
 391:src/mxml-get.c ****   {
 392:src/mxml-get.c ****     if (whitespace)
 393:src/mxml-get.c ****       *whitespace = 0;
 394:src/mxml-get.c **** 
 395:src/mxml-get.c ****     return (NULL);
 396:src/mxml-get.c ****   }
 397:src/mxml-get.c **** }
 516              		.loc 1 397 0
 517 0038 7047     		bx	lr
 518              		.cfi_endproc
 519              	.LFE11:
 520              		.size	mxmlGetText, .-mxmlGetText
 521              		.section	.text.mxmlGetType,"ax",%progbits
 522              		.align	1
 523              		.global	mxmlGetType
 524              		.thumb
 525              		.thumb_func
 526              		.type	mxmlGetType, %function
 527              	mxmlGetType:
 528              	.LFB12:
 398:src/mxml-get.c **** 
 399:src/mxml-get.c **** 
 400:src/mxml-get.c **** /*
 401:src/mxml-get.c ****  * 'mxmlGetType()' - Get the node type.
 402:src/mxml-get.c ****  *
 403:src/mxml-get.c ****  * @code MXML_IGNORE@ is returned if "node" is @code NULL@.
 404:src/mxml-get.c ****  *
 405:src/mxml-get.c ****  * @since Mini-XML 2.7@
 406:src/mxml-get.c ****  */
 407:src/mxml-get.c **** 
 408:src/mxml-get.c **** mxml_type_t				/* O - Type of node */
 409:src/mxml-get.c **** mxmlGetType(mxml_node_t *node)		/* I - Node to get */
 410:src/mxml-get.c **** {
 529              		.loc 1 410 0
 530              		.cfi_startproc
 531              		@ args = 0, pretend = 0, frame = 0
 532              		@ frame_needed = 0, uses_anonymous_args = 0
 533              		@ link register save eliminated.
 534              	.LVL47:
 411:src/mxml-get.c ****  /*
 412:src/mxml-get.c ****   * Range check input...
 413:src/mxml-get.c ****   */
 414:src/mxml-get.c **** 
 415:src/mxml-get.c ****   if (!node)
 535              		.loc 1 415 0
 536 0000 08B1     		cbz	r0, .L80
 416:src/mxml-get.c ****     return (MXML_IGNORE);
 417:src/mxml-get.c **** 
 418:src/mxml-get.c ****  /*
ARM GAS  C:\Users\AHMED~1.ELE\AppData\Local\Temp\ccodDkDv.s 			page 18


 419:src/mxml-get.c ****   * Return the node type...
 420:src/mxml-get.c ****   */
 421:src/mxml-get.c **** 
 422:src/mxml-get.c ****   return (node->type);
 537              		.loc 1 422 0
 538 0002 0078     		ldrb	r0, [r0]	@ zero_extendqisi2
 539              	.LVL48:
 540 0004 00E0     		b	.L79
 541              	.LVL49:
 542              	.L80:
 416:src/mxml-get.c ****     return (MXML_IGNORE);
 543              		.loc 1 416 0
 544 0006 FF20     		movs	r0, #255
 545              	.LVL50:
 546              	.L79:
 423:src/mxml-get.c **** }
 547              		.loc 1 423 0
 548 0008 40B2     		sxtb	r0, r0
 549 000a 7047     		bx	lr
 550              		.cfi_endproc
 551              	.LFE12:
 552              		.size	mxmlGetType, .-mxmlGetType
 553              		.section	.text.mxmlGetUserData,"ax",%progbits
 554              		.align	1
 555              		.global	mxmlGetUserData
 556              		.thumb
 557              		.thumb_func
 558              		.type	mxmlGetUserData, %function
 559              	mxmlGetUserData:
 560              	.LFB13:
 424:src/mxml-get.c **** 
 425:src/mxml-get.c **** 
 426:src/mxml-get.c **** /*
 427:src/mxml-get.c ****  * 'mxmlGetUserData()' - Get the user data pointer for a node.
 428:src/mxml-get.c ****  *
 429:src/mxml-get.c ****  * @since Mini-XML 2.7@
 430:src/mxml-get.c ****  */
 431:src/mxml-get.c **** 
 432:src/mxml-get.c **** void *					/* O - User data pointer */
 433:src/mxml-get.c **** mxmlGetUserData(mxml_node_t *node)	/* I - Node to get */
 434:src/mxml-get.c **** {
 561              		.loc 1 434 0
 562              		.cfi_startproc
 563              		@ args = 0, pretend = 0, frame = 0
 564              		@ frame_needed = 0, uses_anonymous_args = 0
 565              		@ link register save eliminated.
 566              	.LVL51:
 435:src/mxml-get.c ****  /*
 436:src/mxml-get.c ****   * Range check input...
 437:src/mxml-get.c ****   */
 438:src/mxml-get.c **** 
 439:src/mxml-get.c ****   if (!node)
 567              		.loc 1 439 0
 568 0000 00B1     		cbz	r0, .L82
 440:src/mxml-get.c ****     return (NULL);
 441:src/mxml-get.c **** 
 442:src/mxml-get.c ****  /*
ARM GAS  C:\Users\AHMED~1.ELE\AppData\Local\Temp\ccodDkDv.s 			page 19


 443:src/mxml-get.c ****   * Return the user data pointer...
 444:src/mxml-get.c ****   */
 445:src/mxml-get.c **** 
 446:src/mxml-get.c ****   return (node->user_data);
 569              		.loc 1 446 0
 570 0002 C06A     		ldr	r0, [r0, #44]
 571              	.LVL52:
 572              	.L82:
 447:src/mxml-get.c **** }
 573              		.loc 1 447 0
 574 0004 7047     		bx	lr
 575              		.cfi_endproc
 576              	.LFE13:
 577              		.size	mxmlGetUserData, .-mxmlGetUserData
 578              		.section	.rodata.str1.1,"aMS",%progbits,1
 579              	.LC0:
 580 0000 215B4344 		.ascii	"![CDATA[\000"
 580      4154415B 
 580      00
 581              		.text
 582              	.Letext0:
 583              		.file 2 "c:\\devtools\\gcc_v49_2014q4\\lib\\gcc\\arm-none-eabi\\4.9.3\\include\\stddef.h"
 584              		.file 3 "src/mxml.h"
 585              		.file 4 "c:\\devtools\\gcc_v49_2014q4\\arm-none-eabi\\include\\string.h"
 586              		.section	.debug_info,"",%progbits
 587              	.Ldebug_info0:
 588 0000 53050000 		.4byte	0x553
 589 0004 0400     		.2byte	0x4
 590 0006 00000000 		.4byte	.Ldebug_abbrev0
 591 000a 04       		.byte	0x4
 592 000b 01       		.uleb128 0x1
 593 000c 18000000 		.4byte	.LASF70
 594 0010 01       		.byte	0x1
 595 0011 2F040000 		.4byte	.LASF71
 596 0015 3F030000 		.4byte	.LASF72
 597 0019 00000000 		.4byte	.Ldebug_ranges0+0
 598 001d 00000000 		.4byte	0
 599 0021 00000000 		.4byte	.Ldebug_line0
 600 0025 02       		.uleb128 0x2
 601 0026 01       		.byte	0x1
 602 0027 06       		.byte	0x6
 603 0028 58020000 		.4byte	.LASF0
 604 002c 02       		.uleb128 0x2
 605 002d 01       		.byte	0x1
 606 002e 08       		.byte	0x8
 607 002f 3E020000 		.4byte	.LASF1
 608 0033 02       		.uleb128 0x2
 609 0034 02       		.byte	0x2
 610 0035 05       		.byte	0x5
 611 0036 5C010000 		.4byte	.LASF2
 612 003a 02       		.uleb128 0x2
 613 003b 02       		.byte	0x2
 614 003c 07       		.byte	0x7
 615 003d BD020000 		.4byte	.LASF3
 616 0041 02       		.uleb128 0x2
 617 0042 04       		.byte	0x4
 618 0043 05       		.byte	0x5
ARM GAS  C:\Users\AHMED~1.ELE\AppData\Local\Temp\ccodDkDv.s 			page 20


 619 0044 E0010000 		.4byte	.LASF4
 620 0048 02       		.uleb128 0x2
 621 0049 04       		.byte	0x4
 622 004a 07       		.byte	0x7
 623 004b 2D030000 		.4byte	.LASF5
 624 004f 02       		.uleb128 0x2
 625 0050 08       		.byte	0x8
 626 0051 05       		.byte	0x5
 627 0052 BF010000 		.4byte	.LASF6
 628 0056 02       		.uleb128 0x2
 629 0057 08       		.byte	0x8
 630 0058 07       		.byte	0x7
 631 0059 64020000 		.4byte	.LASF7
 632 005d 03       		.uleb128 0x3
 633 005e 04       		.byte	0x4
 634 005f 05       		.byte	0x5
 635 0060 696E7400 		.ascii	"int\000"
 636 0064 02       		.uleb128 0x2
 637 0065 04       		.byte	0x4
 638 0066 07       		.byte	0x7
 639 0067 F0030000 		.4byte	.LASF8
 640 006b 04       		.uleb128 0x4
 641 006c 2B010000 		.4byte	.LASF18
 642 0070 02       		.byte	0x2
 643 0071 D4       		.byte	0xd4
 644 0072 64000000 		.4byte	0x64
 645 0076 05       		.uleb128 0x5
 646 0077 04       		.byte	0x4
 647 0078 02       		.uleb128 0x2
 648 0079 04       		.byte	0x4
 649 007a 07       		.byte	0x7
 650 007b F0010000 		.4byte	.LASF9
 651 007f 06       		.uleb128 0x6
 652 0080 04       		.byte	0x4
 653 0081 85000000 		.4byte	0x85
 654 0085 02       		.uleb128 0x2
 655 0086 01       		.byte	0x1
 656 0087 06       		.byte	0x6
 657 0088 ED020000 		.4byte	.LASF10
 658 008c 06       		.uleb128 0x6
 659 008d 04       		.byte	0x4
 660 008e 92000000 		.4byte	0x92
 661 0092 07       		.uleb128 0x7
 662 0093 85000000 		.4byte	0x85
 663 0097 06       		.uleb128 0x6
 664 0098 04       		.byte	0x4
 665 0099 9D000000 		.4byte	0x9d
 666 009d 08       		.uleb128 0x8
 667 009e 09       		.uleb128 0x9
 668 009f E1020000 		.4byte	.LASF73
 669 00a3 01       		.byte	0x1
 670 00a4 03       		.byte	0x3
 671 00a5 57       		.byte	0x57
 672 00a6 D5000000 		.4byte	0xd5
 673 00aa 0A       		.uleb128 0xa
 674 00ab AD030000 		.4byte	.LASF11
 675 00af 7F       		.sleb128 -1
ARM GAS  C:\Users\AHMED~1.ELE\AppData\Local\Temp\ccodDkDv.s 			page 21


 676 00b0 0A       		.uleb128 0xa
 677 00b1 31020000 		.4byte	.LASF12
 678 00b5 00       		.sleb128 0
 679 00b6 0A       		.uleb128 0xa
 680 00b7 FD020000 		.4byte	.LASF13
 681 00bb 01       		.sleb128 1
 682 00bc 0A       		.uleb128 0xa
 683 00bd E4030000 		.4byte	.LASF14
 684 00c1 02       		.sleb128 2
 685 00c2 0A       		.uleb128 0xa
 686 00c3 D7020000 		.4byte	.LASF15
 687 00c7 03       		.sleb128 3
 688 00c8 0A       		.uleb128 0xa
 689 00c9 B5010000 		.4byte	.LASF16
 690 00cd 04       		.sleb128 4
 691 00ce 0A       		.uleb128 0xa
 692 00cf 4C020000 		.4byte	.LASF17
 693 00d3 05       		.sleb128 5
 694 00d4 00       		.byte	0
 695 00d5 04       		.uleb128 0x4
 696 00d6 0A030000 		.4byte	.LASF19
 697 00da 03       		.byte	0x3
 698 00db 60       		.byte	0x60
 699 00dc 9E000000 		.4byte	0x9e
 700 00e0 04       		.uleb128 0x4
 701 00e1 7E030000 		.4byte	.LASF20
 702 00e5 03       		.byte	0x3
 703 00e6 62       		.byte	0x62
 704 00e7 EB000000 		.4byte	0xeb
 705 00eb 06       		.uleb128 0x6
 706 00ec 04       		.byte	0x4
 707 00ed F1000000 		.4byte	0xf1
 708 00f1 0B       		.uleb128 0xb
 709 00f2 FC000000 		.4byte	0xfc
 710 00f6 0C       		.uleb128 0xc
 711 00f7 76000000 		.4byte	0x76
 712 00fb 00       		.byte	0
 713 00fc 0D       		.uleb128 0xd
 714 00fd 13010000 		.4byte	.LASF24
 715 0101 08       		.byte	0x8
 716 0102 03       		.byte	0x3
 717 0103 68       		.byte	0x68
 718 0104 21010000 		.4byte	0x121
 719 0108 0E       		.uleb128 0xe
 720 0109 24020000 		.4byte	.LASF21
 721 010d 03       		.byte	0x3
 722 010e 6A       		.byte	0x6a
 723 010f 7F000000 		.4byte	0x7f
 724 0113 00       		.byte	0
 725 0114 0E       		.uleb128 0xe
 726 0115 66010000 		.4byte	.LASF22
 727 0119 03       		.byte	0x3
 728 011a 6B       		.byte	0x6b
 729 011b 7F000000 		.4byte	0x7f
 730 011f 04       		.byte	0x4
 731 0120 00       		.byte	0
 732 0121 04       		.uleb128 0x4
ARM GAS  C:\Users\AHMED~1.ELE\AppData\Local\Temp\ccodDkDv.s 			page 22


 733 0122 1F010000 		.4byte	.LASF23
 734 0126 03       		.byte	0x3
 735 0127 6C       		.byte	0x6c
 736 0128 FC000000 		.4byte	0xfc
 737 012c 0D       		.uleb128 0xd
 738 012d 97010000 		.4byte	.LASF25
 739 0131 0C       		.byte	0xc
 740 0132 03       		.byte	0x3
 741 0133 6E       		.byte	0x6e
 742 0134 5D010000 		.4byte	0x15d
 743 0138 0E       		.uleb128 0xe
 744 0139 24020000 		.4byte	.LASF21
 745 013d 03       		.byte	0x3
 746 013e 70       		.byte	0x70
 747 013f 7F000000 		.4byte	0x7f
 748 0143 00       		.byte	0
 749 0144 0E       		.uleb128 0xe
 750 0145 4A010000 		.4byte	.LASF26
 751 0149 03       		.byte	0x3
 752 014a 71       		.byte	0x71
 753 014b 5D000000 		.4byte	0x5d
 754 014f 04       		.byte	0x4
 755 0150 0E       		.uleb128 0xe
 756 0151 B7020000 		.4byte	.LASF27
 757 0155 03       		.byte	0x3
 758 0156 72       		.byte	0x72
 759 0157 5D010000 		.4byte	0x15d
 760 015b 08       		.byte	0x8
 761 015c 00       		.byte	0
 762 015d 06       		.uleb128 0x6
 763 015e 04       		.byte	0x4
 764 015f 21010000 		.4byte	0x121
 765 0163 04       		.uleb128 0x4
 766 0164 A6010000 		.4byte	.LASF28
 767 0168 03       		.byte	0x3
 768 0169 73       		.byte	0x73
 769 016a 2C010000 		.4byte	0x12c
 770 016e 0D       		.uleb128 0xd
 771 016f 00000000 		.4byte	.LASF29
 772 0173 08       		.byte	0x8
 773 0174 03       		.byte	0x3
 774 0175 75       		.byte	0x75
 775 0176 93010000 		.4byte	0x193
 776 017a 0E       		.uleb128 0xe
 777 017b 80020000 		.4byte	.LASF30
 778 017f 03       		.byte	0x3
 779 0180 77       		.byte	0x77
 780 0181 5D000000 		.4byte	0x5d
 781 0185 00       		.byte	0
 782 0186 0E       		.uleb128 0xe
 783 0187 E9010000 		.4byte	.LASF31
 784 018b 03       		.byte	0x3
 785 018c 78       		.byte	0x78
 786 018d 7F000000 		.4byte	0x7f
 787 0191 04       		.byte	0x4
 788 0192 00       		.byte	0
 789 0193 04       		.uleb128 0x4
ARM GAS  C:\Users\AHMED~1.ELE\AppData\Local\Temp\ccodDkDv.s 			page 23


 790 0194 0C000000 		.4byte	.LASF32
 791 0198 03       		.byte	0x3
 792 0199 79       		.byte	0x79
 793 019a 6E010000 		.4byte	0x16e
 794 019e 0D       		.uleb128 0xd
 795 019f D2010000 		.4byte	.LASF33
 796 01a3 08       		.byte	0x8
 797 01a4 03       		.byte	0x3
 798 01a5 7B       		.byte	0x7b
 799 01a6 C3010000 		.4byte	0x1c3
 800 01aa 0E       		.uleb128 0xe
 801 01ab 28030000 		.4byte	.LASF34
 802 01af 03       		.byte	0x3
 803 01b0 7D       		.byte	0x7d
 804 01b1 76000000 		.4byte	0x76
 805 01b5 00       		.byte	0
 806 01b6 0E       		.uleb128 0xe
 807 01b7 29020000 		.4byte	.LASF35
 808 01bb 03       		.byte	0x3
 809 01bc 7E       		.byte	0x7e
 810 01bd E0000000 		.4byte	0xe0
 811 01c1 04       		.byte	0x4
 812 01c2 00       		.byte	0
 813 01c3 04       		.uleb128 0x4
 814 01c4 09040000 		.4byte	.LASF36
 815 01c8 03       		.byte	0x3
 816 01c9 7F       		.byte	0x7f
 817 01ca 9E010000 		.4byte	0x19e
 818 01ce 0F       		.uleb128 0xf
 819 01cf C6030000 		.4byte	.LASF74
 820 01d3 10       		.byte	0x10
 821 01d4 03       		.byte	0x3
 822 01d5 81       		.byte	0x81
 823 01d6 1D020000 		.4byte	0x21d
 824 01da 10       		.uleb128 0x10
 825 01db 97030000 		.4byte	.LASF37
 826 01df 03       		.byte	0x3
 827 01e0 83       		.byte	0x83
 828 01e1 63010000 		.4byte	0x163
 829 01e5 10       		.uleb128 0x10
 830 01e6 06010000 		.4byte	.LASF38
 831 01ea 03       		.byte	0x3
 832 01eb 84       		.byte	0x84
 833 01ec 5D000000 		.4byte	0x5d
 834 01f0 10       		.uleb128 0x10
 835 01f1 E7000000 		.4byte	.LASF39
 836 01f5 03       		.byte	0x3
 837 01f6 85       		.byte	0x85
 838 01f7 7F000000 		.4byte	0x7f
 839 01fb 10       		.uleb128 0x10
 840 01fc CD010000 		.4byte	.LASF40
 841 0200 03       		.byte	0x3
 842 0201 86       		.byte	0x86
 843 0202 1D020000 		.4byte	0x21d
 844 0206 10       		.uleb128 0x10
 845 0207 EE000000 		.4byte	.LASF41
 846 020b 03       		.byte	0x3
ARM GAS  C:\Users\AHMED~1.ELE\AppData\Local\Temp\ccodDkDv.s 			page 24


 847 020c 87       		.byte	0x87
 848 020d 93010000 		.4byte	0x193
 849 0211 10       		.uleb128 0x10
 850 0212 D0020000 		.4byte	.LASF42
 851 0216 03       		.byte	0x3
 852 0217 88       		.byte	0x88
 853 0218 C3010000 		.4byte	0x1c3
 854 021c 00       		.byte	0
 855 021d 02       		.uleb128 0x2
 856 021e 08       		.byte	0x8
 857 021f 04       		.byte	0x4
 858 0220 71030000 		.4byte	.LASF43
 859 0224 04       		.uleb128 0x4
 860 0225 B9030000 		.4byte	.LASF44
 861 0229 03       		.byte	0x3
 862 022a 89       		.byte	0x89
 863 022b CE010000 		.4byte	0x1ce
 864 022f 0D       		.uleb128 0xd
 865 0230 32010000 		.4byte	.LASF45
 866 0234 30       		.byte	0x30
 867 0235 03       		.byte	0x3
 868 0236 8B       		.byte	0x8b
 869 0237 A8020000 		.4byte	0x2a8
 870 023b 0E       		.uleb128 0xe
 871 023c 7B020000 		.4byte	.LASF46
 872 0240 03       		.byte	0x3
 873 0241 8D       		.byte	0x8d
 874 0242 D5000000 		.4byte	0xd5
 875 0246 00       		.byte	0
 876 0247 0E       		.uleb128 0xe
 877 0248 2A040000 		.4byte	.LASF47
 878 024c 03       		.byte	0x3
 879 024d 8E       		.byte	0x8e
 880 024e A8020000 		.4byte	0x2a8
 881 0252 04       		.byte	0x4
 882 0253 0E       		.uleb128 0xe
 883 0254 0E010000 		.4byte	.LASF48
 884 0258 03       		.byte	0x3
 885 0259 8F       		.byte	0x8f
 886 025a A8020000 		.4byte	0x2a8
 887 025e 08       		.byte	0x8
 888 025f 0E       		.uleb128 0xe
 889 0260 76010000 		.4byte	.LASF49
 890 0264 03       		.byte	0x3
 891 0265 90       		.byte	0x90
 892 0266 A8020000 		.4byte	0x2a8
 893 026a 0C       		.byte	0xc
 894 026b 0E       		.uleb128 0xe
 895 026c 78030000 		.4byte	.LASF50
 896 0270 03       		.byte	0x3
 897 0271 91       		.byte	0x91
 898 0272 A8020000 		.4byte	0x2a8
 899 0276 10       		.byte	0x10
 900 0277 0E       		.uleb128 0xe
 901 0278 F2020000 		.4byte	.LASF51
 902 027c 03       		.byte	0x3
 903 027d 92       		.byte	0x92
ARM GAS  C:\Users\AHMED~1.ELE\AppData\Local\Temp\ccodDkDv.s 			page 25


 904 027e A8020000 		.4byte	0x2a8
 905 0282 14       		.byte	0x14
 906 0283 0E       		.uleb128 0xe
 907 0284 66010000 		.4byte	.LASF22
 908 0288 03       		.byte	0x3
 909 0289 93       		.byte	0x93
 910 028a 24020000 		.4byte	0x224
 911 028e 18       		.byte	0x18
 912 028f 0E       		.uleb128 0xe
 913 0290 F9010000 		.4byte	.LASF52
 914 0294 03       		.byte	0x3
 915 0295 94       		.byte	0x94
 916 0296 5D000000 		.4byte	0x5d
 917 029a 28       		.byte	0x28
 918 029b 0E       		.uleb128 0xe
 919 029c 6C010000 		.4byte	.LASF53
 920 02a0 03       		.byte	0x3
 921 02a1 95       		.byte	0x95
 922 02a2 76000000 		.4byte	0x76
 923 02a6 2C       		.byte	0x2c
 924 02a7 00       		.byte	0
 925 02a8 06       		.uleb128 0x6
 926 02a9 04       		.byte	0x4
 927 02aa 2F020000 		.4byte	0x22f
 928 02ae 04       		.uleb128 0x4
 929 02af 3E010000 		.4byte	.LASF54
 930 02b3 03       		.byte	0x3
 931 02b4 98       		.byte	0x98
 932 02b5 2F020000 		.4byte	0x22f
 933 02b9 06       		.uleb128 0x6
 934 02ba 04       		.byte	0x4
 935 02bb AE020000 		.4byte	0x2ae
 936 02bf 11       		.uleb128 0x11
 937 02c0 64030000 		.4byte	.LASF55
 938 02c4 01       		.byte	0x1
 939 02c5 22       		.byte	0x22
 940 02c6 8C000000 		.4byte	0x8c
 941 02ca 00000000 		.4byte	.LFB0
 942 02ce 2C000000 		.4byte	.LFE0-.LFB0
 943 02d2 01       		.uleb128 0x1
 944 02d3 9C       		.byte	0x9c
 945 02d4 06030000 		.4byte	0x306
 946 02d8 12       		.uleb128 0x12
 947 02d9 13020000 		.4byte	.LASF57
 948 02dd 01       		.byte	0x1
 949 02de 22       		.byte	0x22
 950 02df B9020000 		.4byte	0x2b9
 951 02e3 00000000 		.4byte	.LLST0
 952 02e7 13       		.uleb128 0x13
 953 02e8 16000000 		.4byte	.LVL2
 954 02ec 3B050000 		.4byte	0x53b
 955 02f0 14       		.uleb128 0x14
 956 02f1 01       		.uleb128 0x1
 957 02f2 52       		.byte	0x52
 958 02f3 01       		.uleb128 0x1
 959 02f4 38       		.byte	0x38
 960 02f5 14       		.uleb128 0x14
ARM GAS  C:\Users\AHMED~1.ELE\AppData\Local\Temp\ccodDkDv.s 			page 26


 961 02f6 01       		.uleb128 0x1
 962 02f7 51       		.byte	0x51
 963 02f8 05       		.uleb128 0x5
 964 02f9 03       		.byte	0x3
 965 02fa 00000000 		.4byte	.LC0
 966 02fe 14       		.uleb128 0x14
 967 02ff 01       		.uleb128 0x1
 968 0300 50       		.byte	0x50
 969 0301 02       		.uleb128 0x2
 970 0302 75       		.byte	0x75
 971 0303 00       		.sleb128 0
 972 0304 00       		.byte	0
 973 0305 00       		.byte	0
 974 0306 11       		.uleb128 0x11
 975 0307 9F030000 		.4byte	.LASF56
 976 030b 01       		.byte	0x1
 977 030c 3E       		.byte	0x3e
 978 030d 97000000 		.4byte	0x97
 979 0311 00000000 		.4byte	.LFB1
 980 0315 22000000 		.4byte	.LFE1-.LFB1
 981 0319 01       		.uleb128 0x1
 982 031a 9C       		.byte	0x9c
 983 031b 2F030000 		.4byte	0x32f
 984 031f 12       		.uleb128 0x12
 985 0320 13020000 		.4byte	.LASF57
 986 0324 01       		.byte	0x1
 987 0325 3E       		.byte	0x3e
 988 0326 B9020000 		.4byte	0x2b9
 989 032a 3A000000 		.4byte	.LLST1
 990 032e 00       		.byte	0
 991 032f 11       		.uleb128 0x11
 992 0330 8B020000 		.4byte	.LASF58
 993 0334 01       		.byte	0x1
 994 0335 5F       		.byte	0x5f
 995 0336 8C000000 		.4byte	0x8c
 996 033a 00000000 		.4byte	.LFB2
 997 033e 10000000 		.4byte	.LFE2-.LFB2
 998 0342 01       		.uleb128 0x1
 999 0343 9C       		.byte	0x9c
 1000 0344 58030000 		.4byte	0x358
 1001 0348 12       		.uleb128 0x12
 1002 0349 13020000 		.4byte	.LASF57
 1003 034d 01       		.byte	0x1
 1004 034e 5F       		.byte	0x5f
 1005 034f B9020000 		.4byte	0x2b9
 1006 0353 74000000 		.4byte	.LLST2
 1007 0357 00       		.byte	0
 1008 0358 11       		.uleb128 0x11
 1009 0359 16030000 		.4byte	.LASF59
 1010 035d 01       		.byte	0x1
 1011 035e 7A       		.byte	0x7a
 1012 035f B9020000 		.4byte	0x2b9
 1013 0363 00000000 		.4byte	.LFB3
 1014 0367 10000000 		.4byte	.LFE3-.LFB3
 1015 036b 01       		.uleb128 0x1
 1016 036c 9C       		.byte	0x9c
 1017 036d 81030000 		.4byte	0x381
ARM GAS  C:\Users\AHMED~1.ELE\AppData\Local\Temp\ccodDkDv.s 			page 27


 1018 0371 12       		.uleb128 0x12
 1019 0372 13020000 		.4byte	.LASF57
 1020 0376 01       		.byte	0x1
 1021 0377 7A       		.byte	0x7a
 1022 0378 B9020000 		.4byte	0x2b9
 1023 037c AE000000 		.4byte	.LLST3
 1024 0380 00       		.byte	0
 1025 0381 11       		.uleb128 0x11
 1026 0382 9A020000 		.4byte	.LASF60
 1027 0386 01       		.byte	0x1
 1028 0387 95       		.byte	0x95
 1029 0388 5D000000 		.4byte	0x5d
 1030 038c 00000000 		.4byte	.LFB4
 1031 0390 22000000 		.4byte	.LFE4-.LFB4
 1032 0394 01       		.uleb128 0x1
 1033 0395 9C       		.byte	0x9c
 1034 0396 AA030000 		.4byte	0x3aa
 1035 039a 12       		.uleb128 0x12
 1036 039b 13020000 		.4byte	.LASF57
 1037 039f 01       		.byte	0x1
 1038 03a0 95       		.byte	0x95
 1039 03a1 B9020000 		.4byte	0x2b9
 1040 03a5 E8000000 		.4byte	.LLST4
 1041 03a9 00       		.byte	0
 1042 03aa 11       		.uleb128 0x11
 1043 03ab D3030000 		.4byte	.LASF61
 1044 03af 01       		.byte	0x1
 1045 03b0 B7       		.byte	0xb7
 1046 03b1 B9020000 		.4byte	0x2b9
 1047 03b5 00000000 		.4byte	.LFB5
 1048 03b9 10000000 		.4byte	.LFE5-.LFB5
 1049 03bd 01       		.uleb128 0x1
 1050 03be 9C       		.byte	0x9c
 1051 03bf D3030000 		.4byte	0x3d3
 1052 03c3 12       		.uleb128 0x12
 1053 03c4 13020000 		.4byte	.LASF57
 1054 03c8 01       		.byte	0x1
 1055 03c9 B7       		.byte	0xb7
 1056 03ca B9020000 		.4byte	0x2b9
 1057 03ce 22010000 		.4byte	.LLST5
 1058 03d2 00       		.byte	0
 1059 03d3 11       		.uleb128 0x11
 1060 03d4 17040000 		.4byte	.LASF62
 1061 03d8 01       		.byte	0x1
 1062 03d9 D1       		.byte	0xd1
 1063 03da B9020000 		.4byte	0x2b9
 1064 03de 00000000 		.4byte	.LFB6
 1065 03e2 06000000 		.4byte	.LFE6-.LFB6
 1066 03e6 01       		.uleb128 0x1
 1067 03e7 9C       		.byte	0x9c
 1068 03e8 FC030000 		.4byte	0x3fc
 1069 03ec 12       		.uleb128 0x12
 1070 03ed 13020000 		.4byte	.LASF57
 1071 03f1 01       		.byte	0x1
 1072 03f2 D1       		.byte	0xd1
 1073 03f3 B9020000 		.4byte	0x2b9
 1074 03f7 5C010000 		.4byte	.LLST6
ARM GAS  C:\Users\AHMED~1.ELE\AppData\Local\Temp\ccodDkDv.s 			page 28


 1075 03fb 00       		.byte	0
 1076 03fc 11       		.uleb128 0x11
 1077 03fd 89010000 		.4byte	.LASF63
 1078 0401 01       		.byte	0x1
 1079 0402 EC       		.byte	0xec
 1080 0403 8C000000 		.4byte	0x8c
 1081 0407 00000000 		.4byte	.LFB7
 1082 040b 22000000 		.4byte	.LFE7-.LFB7
 1083 040f 01       		.uleb128 0x1
 1084 0410 9C       		.byte	0x9c
 1085 0411 25040000 		.4byte	0x425
 1086 0415 12       		.uleb128 0x12
 1087 0416 13020000 		.4byte	.LASF57
 1088 041a 01       		.byte	0x1
 1089 041b EC       		.byte	0xec
 1090 041c B9020000 		.4byte	0x2b9
 1091 0420 7D010000 		.4byte	.LLST7
 1092 0424 00       		.byte	0
 1093 0425 15       		.uleb128 0x15
 1094 0426 A9020000 		.4byte	.LASF64
 1095 042a 01       		.byte	0x1
 1096 042b 0D01     		.2byte	0x10d
 1097 042d B9020000 		.4byte	0x2b9
 1098 0431 00000000 		.4byte	.LFB8
 1099 0435 06000000 		.4byte	.LFE8-.LFB8
 1100 0439 01       		.uleb128 0x1
 1101 043a 9C       		.byte	0x9c
 1102 043b 50040000 		.4byte	0x450
 1103 043f 16       		.uleb128 0x16
 1104 0440 13020000 		.4byte	.LASF57
 1105 0444 01       		.byte	0x1
 1106 0445 0D01     		.2byte	0x10d
 1107 0447 B9020000 		.4byte	0x2b9
 1108 044b B7010000 		.4byte	.LLST8
 1109 044f 00       		.byte	0
 1110 0450 15       		.uleb128 0x15
 1111 0451 F3000000 		.4byte	.LASF65
 1112 0455 01       		.byte	0x1
 1113 0456 2701     		.2byte	0x127
 1114 0458 B9020000 		.4byte	0x2b9
 1115 045c 00000000 		.4byte	.LFB9
 1116 0460 06000000 		.4byte	.LFE9-.LFB9
 1117 0464 01       		.uleb128 0x1
 1118 0465 9C       		.byte	0x9c
 1119 0466 7B040000 		.4byte	0x47b
 1120 046a 16       		.uleb128 0x16
 1121 046b 13020000 		.4byte	.LASF57
 1122 046f 01       		.byte	0x1
 1123 0470 2701     		.2byte	0x127
 1124 0472 B9020000 		.4byte	0x2b9
 1125 0476 D8010000 		.4byte	.LLST9
 1126 047a 00       		.byte	0
 1127 047b 15       		.uleb128 0x15
 1128 047c 7D010000 		.4byte	.LASF66
 1129 0480 01       		.byte	0x1
 1130 0481 4101     		.2byte	0x141
 1131 0483 1D020000 		.4byte	0x21d
ARM GAS  C:\Users\AHMED~1.ELE\AppData\Local\Temp\ccodDkDv.s 			page 29


 1132 0487 00000000 		.4byte	.LFB10
 1133 048b 28000000 		.4byte	.LFE10-.LFB10
 1134 048f 01       		.uleb128 0x1
 1135 0490 9C       		.byte	0x9c
 1136 0491 A6040000 		.4byte	0x4a6
 1137 0495 16       		.uleb128 0x16
 1138 0496 13020000 		.4byte	.LASF57
 1139 049a 01       		.byte	0x1
 1140 049b 4101     		.2byte	0x141
 1141 049d B9020000 		.4byte	0x2b9
 1142 04a1 F9010000 		.4byte	.LLST10
 1143 04a5 00       		.byte	0
 1144 04a6 15       		.uleb128 0x15
 1145 04a7 FD030000 		.4byte	.LASF67
 1146 04ab 01       		.byte	0x1
 1147 04ac 6301     		.2byte	0x163
 1148 04ae 8C000000 		.4byte	0x8c
 1149 04b2 00000000 		.4byte	.LFB11
 1150 04b6 3A000000 		.4byte	.LFE11-.LFB11
 1151 04ba 01       		.uleb128 0x1
 1152 04bb 9C       		.byte	0x9c
 1153 04bc DF040000 		.4byte	0x4df
 1154 04c0 16       		.uleb128 0x16
 1155 04c1 13020000 		.4byte	.LASF57
 1156 04c5 01       		.byte	0x1
 1157 04c6 6301     		.2byte	0x163
 1158 04c8 B9020000 		.4byte	0x2b9
 1159 04cc 4C020000 		.4byte	.LLST11
 1160 04d0 17       		.uleb128 0x17
 1161 04d1 80020000 		.4byte	.LASF30
 1162 04d5 01       		.byte	0x1
 1163 04d6 6401     		.2byte	0x164
 1164 04d8 DF040000 		.4byte	0x4df
 1165 04dc 01       		.uleb128 0x1
 1166 04dd 51       		.byte	0x51
 1167 04de 00       		.byte	0
 1168 04df 06       		.uleb128 0x6
 1169 04e0 04       		.byte	0x4
 1170 04e1 5D000000 		.4byte	0x5d
 1171 04e5 15       		.uleb128 0x15
 1172 04e6 18020000 		.4byte	.LASF68
 1173 04ea 01       		.byte	0x1
 1174 04eb 9901     		.2byte	0x199
 1175 04ed D5000000 		.4byte	0xd5
 1176 04f1 00000000 		.4byte	.LFB12
 1177 04f5 0C000000 		.4byte	.LFE12-.LFB12
 1178 04f9 01       		.uleb128 0x1
 1179 04fa 9C       		.byte	0x9c
 1180 04fb 10050000 		.4byte	0x510
 1181 04ff 16       		.uleb128 0x16
 1182 0500 13020000 		.4byte	.LASF57
 1183 0504 01       		.byte	0x1
 1184 0505 9901     		.2byte	0x199
 1185 0507 B9020000 		.4byte	0x2b9
 1186 050b 9F020000 		.4byte	.LLST12
 1187 050f 00       		.byte	0
 1188 0510 15       		.uleb128 0x15
ARM GAS  C:\Users\AHMED~1.ELE\AppData\Local\Temp\ccodDkDv.s 			page 30


 1189 0511 03020000 		.4byte	.LASF69
 1190 0515 01       		.byte	0x1
 1191 0516 B101     		.2byte	0x1b1
 1192 0518 76000000 		.4byte	0x76
 1193 051c 00000000 		.4byte	.LFB13
 1194 0520 06000000 		.4byte	.LFE13-.LFB13
 1195 0524 01       		.uleb128 0x1
 1196 0525 9C       		.byte	0x9c
 1197 0526 3B050000 		.4byte	0x53b
 1198 052a 16       		.uleb128 0x16
 1199 052b 13020000 		.4byte	.LASF57
 1200 052f 01       		.byte	0x1
 1201 0530 B101     		.2byte	0x1b1
 1202 0532 B9020000 		.4byte	0x2b9
 1203 0536 D9020000 		.4byte	.LLST13
 1204 053a 00       		.byte	0
 1205 053b 18       		.uleb128 0x18
 1206 053c 54010000 		.4byte	.LASF75
 1207 0540 04       		.byte	0x4
 1208 0541 23       		.byte	0x23
 1209 0542 5D000000 		.4byte	0x5d
 1210 0546 0C       		.uleb128 0xc
 1211 0547 8C000000 		.4byte	0x8c
 1212 054b 0C       		.uleb128 0xc
 1213 054c 8C000000 		.4byte	0x8c
 1214 0550 0C       		.uleb128 0xc
 1215 0551 6B000000 		.4byte	0x6b
 1216 0555 00       		.byte	0
 1217 0556 00       		.byte	0
 1218              		.section	.debug_abbrev,"",%progbits
 1219              	.Ldebug_abbrev0:
 1220 0000 01       		.uleb128 0x1
 1221 0001 11       		.uleb128 0x11
 1222 0002 01       		.byte	0x1
 1223 0003 25       		.uleb128 0x25
 1224 0004 0E       		.uleb128 0xe
 1225 0005 13       		.uleb128 0x13
 1226 0006 0B       		.uleb128 0xb
 1227 0007 03       		.uleb128 0x3
 1228 0008 0E       		.uleb128 0xe
 1229 0009 1B       		.uleb128 0x1b
 1230 000a 0E       		.uleb128 0xe
 1231 000b 55       		.uleb128 0x55
 1232 000c 17       		.uleb128 0x17
 1233 000d 11       		.uleb128 0x11
 1234 000e 01       		.uleb128 0x1
 1235 000f 10       		.uleb128 0x10
 1236 0010 17       		.uleb128 0x17
 1237 0011 00       		.byte	0
 1238 0012 00       		.byte	0
 1239 0013 02       		.uleb128 0x2
 1240 0014 24       		.uleb128 0x24
 1241 0015 00       		.byte	0
 1242 0016 0B       		.uleb128 0xb
 1243 0017 0B       		.uleb128 0xb
 1244 0018 3E       		.uleb128 0x3e
 1245 0019 0B       		.uleb128 0xb
ARM GAS  C:\Users\AHMED~1.ELE\AppData\Local\Temp\ccodDkDv.s 			page 31


 1246 001a 03       		.uleb128 0x3
 1247 001b 0E       		.uleb128 0xe
 1248 001c 00       		.byte	0
 1249 001d 00       		.byte	0
 1250 001e 03       		.uleb128 0x3
 1251 001f 24       		.uleb128 0x24
 1252 0020 00       		.byte	0
 1253 0021 0B       		.uleb128 0xb
 1254 0022 0B       		.uleb128 0xb
 1255 0023 3E       		.uleb128 0x3e
 1256 0024 0B       		.uleb128 0xb
 1257 0025 03       		.uleb128 0x3
 1258 0026 08       		.uleb128 0x8
 1259 0027 00       		.byte	0
 1260 0028 00       		.byte	0
 1261 0029 04       		.uleb128 0x4
 1262 002a 16       		.uleb128 0x16
 1263 002b 00       		.byte	0
 1264 002c 03       		.uleb128 0x3
 1265 002d 0E       		.uleb128 0xe
 1266 002e 3A       		.uleb128 0x3a
 1267 002f 0B       		.uleb128 0xb
 1268 0030 3B       		.uleb128 0x3b
 1269 0031 0B       		.uleb128 0xb
 1270 0032 49       		.uleb128 0x49
 1271 0033 13       		.uleb128 0x13
 1272 0034 00       		.byte	0
 1273 0035 00       		.byte	0
 1274 0036 05       		.uleb128 0x5
 1275 0037 0F       		.uleb128 0xf
 1276 0038 00       		.byte	0
 1277 0039 0B       		.uleb128 0xb
 1278 003a 0B       		.uleb128 0xb
 1279 003b 00       		.byte	0
 1280 003c 00       		.byte	0
 1281 003d 06       		.uleb128 0x6
 1282 003e 0F       		.uleb128 0xf
 1283 003f 00       		.byte	0
 1284 0040 0B       		.uleb128 0xb
 1285 0041 0B       		.uleb128 0xb
 1286 0042 49       		.uleb128 0x49
 1287 0043 13       		.uleb128 0x13
 1288 0044 00       		.byte	0
 1289 0045 00       		.byte	0
 1290 0046 07       		.uleb128 0x7
 1291 0047 26       		.uleb128 0x26
 1292 0048 00       		.byte	0
 1293 0049 49       		.uleb128 0x49
 1294 004a 13       		.uleb128 0x13
 1295 004b 00       		.byte	0
 1296 004c 00       		.byte	0
 1297 004d 08       		.uleb128 0x8
 1298 004e 26       		.uleb128 0x26
 1299 004f 00       		.byte	0
 1300 0050 00       		.byte	0
 1301 0051 00       		.byte	0
 1302 0052 09       		.uleb128 0x9
ARM GAS  C:\Users\AHMED~1.ELE\AppData\Local\Temp\ccodDkDv.s 			page 32


 1303 0053 04       		.uleb128 0x4
 1304 0054 01       		.byte	0x1
 1305 0055 03       		.uleb128 0x3
 1306 0056 0E       		.uleb128 0xe
 1307 0057 0B       		.uleb128 0xb
 1308 0058 0B       		.uleb128 0xb
 1309 0059 3A       		.uleb128 0x3a
 1310 005a 0B       		.uleb128 0xb
 1311 005b 3B       		.uleb128 0x3b
 1312 005c 0B       		.uleb128 0xb
 1313 005d 01       		.uleb128 0x1
 1314 005e 13       		.uleb128 0x13
 1315 005f 00       		.byte	0
 1316 0060 00       		.byte	0
 1317 0061 0A       		.uleb128 0xa
 1318 0062 28       		.uleb128 0x28
 1319 0063 00       		.byte	0
 1320 0064 03       		.uleb128 0x3
 1321 0065 0E       		.uleb128 0xe
 1322 0066 1C       		.uleb128 0x1c
 1323 0067 0D       		.uleb128 0xd
 1324 0068 00       		.byte	0
 1325 0069 00       		.byte	0
 1326 006a 0B       		.uleb128 0xb
 1327 006b 15       		.uleb128 0x15
 1328 006c 01       		.byte	0x1
 1329 006d 27       		.uleb128 0x27
 1330 006e 19       		.uleb128 0x19
 1331 006f 01       		.uleb128 0x1
 1332 0070 13       		.uleb128 0x13
 1333 0071 00       		.byte	0
 1334 0072 00       		.byte	0
 1335 0073 0C       		.uleb128 0xc
 1336 0074 05       		.uleb128 0x5
 1337 0075 00       		.byte	0
 1338 0076 49       		.uleb128 0x49
 1339 0077 13       		.uleb128 0x13
 1340 0078 00       		.byte	0
 1341 0079 00       		.byte	0
 1342 007a 0D       		.uleb128 0xd
 1343 007b 13       		.uleb128 0x13
 1344 007c 01       		.byte	0x1
 1345 007d 03       		.uleb128 0x3
 1346 007e 0E       		.uleb128 0xe
 1347 007f 0B       		.uleb128 0xb
 1348 0080 0B       		.uleb128 0xb
 1349 0081 3A       		.uleb128 0x3a
 1350 0082 0B       		.uleb128 0xb
 1351 0083 3B       		.uleb128 0x3b
 1352 0084 0B       		.uleb128 0xb
 1353 0085 01       		.uleb128 0x1
 1354 0086 13       		.uleb128 0x13
 1355 0087 00       		.byte	0
 1356 0088 00       		.byte	0
 1357 0089 0E       		.uleb128 0xe
 1358 008a 0D       		.uleb128 0xd
 1359 008b 00       		.byte	0
ARM GAS  C:\Users\AHMED~1.ELE\AppData\Local\Temp\ccodDkDv.s 			page 33


 1360 008c 03       		.uleb128 0x3
 1361 008d 0E       		.uleb128 0xe
 1362 008e 3A       		.uleb128 0x3a
 1363 008f 0B       		.uleb128 0xb
 1364 0090 3B       		.uleb128 0x3b
 1365 0091 0B       		.uleb128 0xb
 1366 0092 49       		.uleb128 0x49
 1367 0093 13       		.uleb128 0x13
 1368 0094 38       		.uleb128 0x38
 1369 0095 0B       		.uleb128 0xb
 1370 0096 00       		.byte	0
 1371 0097 00       		.byte	0
 1372 0098 0F       		.uleb128 0xf
 1373 0099 17       		.uleb128 0x17
 1374 009a 01       		.byte	0x1
 1375 009b 03       		.uleb128 0x3
 1376 009c 0E       		.uleb128 0xe
 1377 009d 0B       		.uleb128 0xb
 1378 009e 0B       		.uleb128 0xb
 1379 009f 3A       		.uleb128 0x3a
 1380 00a0 0B       		.uleb128 0xb
 1381 00a1 3B       		.uleb128 0x3b
 1382 00a2 0B       		.uleb128 0xb
 1383 00a3 01       		.uleb128 0x1
 1384 00a4 13       		.uleb128 0x13
 1385 00a5 00       		.byte	0
 1386 00a6 00       		.byte	0
 1387 00a7 10       		.uleb128 0x10
 1388 00a8 0D       		.uleb128 0xd
 1389 00a9 00       		.byte	0
 1390 00aa 03       		.uleb128 0x3
 1391 00ab 0E       		.uleb128 0xe
 1392 00ac 3A       		.uleb128 0x3a
 1393 00ad 0B       		.uleb128 0xb
 1394 00ae 3B       		.uleb128 0x3b
 1395 00af 0B       		.uleb128 0xb
 1396 00b0 49       		.uleb128 0x49
 1397 00b1 13       		.uleb128 0x13
 1398 00b2 00       		.byte	0
 1399 00b3 00       		.byte	0
 1400 00b4 11       		.uleb128 0x11
 1401 00b5 2E       		.uleb128 0x2e
 1402 00b6 01       		.byte	0x1
 1403 00b7 3F       		.uleb128 0x3f
 1404 00b8 19       		.uleb128 0x19
 1405 00b9 03       		.uleb128 0x3
 1406 00ba 0E       		.uleb128 0xe
 1407 00bb 3A       		.uleb128 0x3a
 1408 00bc 0B       		.uleb128 0xb
 1409 00bd 3B       		.uleb128 0x3b
 1410 00be 0B       		.uleb128 0xb
 1411 00bf 27       		.uleb128 0x27
 1412 00c0 19       		.uleb128 0x19
 1413 00c1 49       		.uleb128 0x49
 1414 00c2 13       		.uleb128 0x13
 1415 00c3 11       		.uleb128 0x11
 1416 00c4 01       		.uleb128 0x1
ARM GAS  C:\Users\AHMED~1.ELE\AppData\Local\Temp\ccodDkDv.s 			page 34


 1417 00c5 12       		.uleb128 0x12
 1418 00c6 06       		.uleb128 0x6
 1419 00c7 40       		.uleb128 0x40
 1420 00c8 18       		.uleb128 0x18
 1421 00c9 9742     		.uleb128 0x2117
 1422 00cb 19       		.uleb128 0x19
 1423 00cc 01       		.uleb128 0x1
 1424 00cd 13       		.uleb128 0x13
 1425 00ce 00       		.byte	0
 1426 00cf 00       		.byte	0
 1427 00d0 12       		.uleb128 0x12
 1428 00d1 05       		.uleb128 0x5
 1429 00d2 00       		.byte	0
 1430 00d3 03       		.uleb128 0x3
 1431 00d4 0E       		.uleb128 0xe
 1432 00d5 3A       		.uleb128 0x3a
 1433 00d6 0B       		.uleb128 0xb
 1434 00d7 3B       		.uleb128 0x3b
 1435 00d8 0B       		.uleb128 0xb
 1436 00d9 49       		.uleb128 0x49
 1437 00da 13       		.uleb128 0x13
 1438 00db 02       		.uleb128 0x2
 1439 00dc 17       		.uleb128 0x17
 1440 00dd 00       		.byte	0
 1441 00de 00       		.byte	0
 1442 00df 13       		.uleb128 0x13
 1443 00e0 898201   		.uleb128 0x4109
 1444 00e3 01       		.byte	0x1
 1445 00e4 11       		.uleb128 0x11
 1446 00e5 01       		.uleb128 0x1
 1447 00e6 31       		.uleb128 0x31
 1448 00e7 13       		.uleb128 0x13
 1449 00e8 00       		.byte	0
 1450 00e9 00       		.byte	0
 1451 00ea 14       		.uleb128 0x14
 1452 00eb 8A8201   		.uleb128 0x410a
 1453 00ee 00       		.byte	0
 1454 00ef 02       		.uleb128 0x2
 1455 00f0 18       		.uleb128 0x18
 1456 00f1 9142     		.uleb128 0x2111
 1457 00f3 18       		.uleb128 0x18
 1458 00f4 00       		.byte	0
 1459 00f5 00       		.byte	0
 1460 00f6 15       		.uleb128 0x15
 1461 00f7 2E       		.uleb128 0x2e
 1462 00f8 01       		.byte	0x1
 1463 00f9 3F       		.uleb128 0x3f
 1464 00fa 19       		.uleb128 0x19
 1465 00fb 03       		.uleb128 0x3
 1466 00fc 0E       		.uleb128 0xe
 1467 00fd 3A       		.uleb128 0x3a
 1468 00fe 0B       		.uleb128 0xb
 1469 00ff 3B       		.uleb128 0x3b
 1470 0100 05       		.uleb128 0x5
 1471 0101 27       		.uleb128 0x27
 1472 0102 19       		.uleb128 0x19
 1473 0103 49       		.uleb128 0x49
ARM GAS  C:\Users\AHMED~1.ELE\AppData\Local\Temp\ccodDkDv.s 			page 35


 1474 0104 13       		.uleb128 0x13
 1475 0105 11       		.uleb128 0x11
 1476 0106 01       		.uleb128 0x1
 1477 0107 12       		.uleb128 0x12
 1478 0108 06       		.uleb128 0x6
 1479 0109 40       		.uleb128 0x40
 1480 010a 18       		.uleb128 0x18
 1481 010b 9742     		.uleb128 0x2117
 1482 010d 19       		.uleb128 0x19
 1483 010e 01       		.uleb128 0x1
 1484 010f 13       		.uleb128 0x13
 1485 0110 00       		.byte	0
 1486 0111 00       		.byte	0
 1487 0112 16       		.uleb128 0x16
 1488 0113 05       		.uleb128 0x5
 1489 0114 00       		.byte	0
 1490 0115 03       		.uleb128 0x3
 1491 0116 0E       		.uleb128 0xe
 1492 0117 3A       		.uleb128 0x3a
 1493 0118 0B       		.uleb128 0xb
 1494 0119 3B       		.uleb128 0x3b
 1495 011a 05       		.uleb128 0x5
 1496 011b 49       		.uleb128 0x49
 1497 011c 13       		.uleb128 0x13
 1498 011d 02       		.uleb128 0x2
 1499 011e 17       		.uleb128 0x17
 1500 011f 00       		.byte	0
 1501 0120 00       		.byte	0
 1502 0121 17       		.uleb128 0x17
 1503 0122 05       		.uleb128 0x5
 1504 0123 00       		.byte	0
 1505 0124 03       		.uleb128 0x3
 1506 0125 0E       		.uleb128 0xe
 1507 0126 3A       		.uleb128 0x3a
 1508 0127 0B       		.uleb128 0xb
 1509 0128 3B       		.uleb128 0x3b
 1510 0129 05       		.uleb128 0x5
 1511 012a 49       		.uleb128 0x49
 1512 012b 13       		.uleb128 0x13
 1513 012c 02       		.uleb128 0x2
 1514 012d 18       		.uleb128 0x18
 1515 012e 00       		.byte	0
 1516 012f 00       		.byte	0
 1517 0130 18       		.uleb128 0x18
 1518 0131 2E       		.uleb128 0x2e
 1519 0132 01       		.byte	0x1
 1520 0133 3F       		.uleb128 0x3f
 1521 0134 19       		.uleb128 0x19
 1522 0135 03       		.uleb128 0x3
 1523 0136 0E       		.uleb128 0xe
 1524 0137 3A       		.uleb128 0x3a
 1525 0138 0B       		.uleb128 0xb
 1526 0139 3B       		.uleb128 0x3b
 1527 013a 0B       		.uleb128 0xb
 1528 013b 27       		.uleb128 0x27
 1529 013c 19       		.uleb128 0x19
 1530 013d 49       		.uleb128 0x49
ARM GAS  C:\Users\AHMED~1.ELE\AppData\Local\Temp\ccodDkDv.s 			page 36


 1531 013e 13       		.uleb128 0x13
 1532 013f 3C       		.uleb128 0x3c
 1533 0140 19       		.uleb128 0x19
 1534 0141 00       		.byte	0
 1535 0142 00       		.byte	0
 1536 0143 00       		.byte	0
 1537              		.section	.debug_loc,"",%progbits
 1538              	.Ldebug_loc0:
 1539              	.LLST0:
 1540 0000 00000000 		.4byte	.LVL0
 1541 0004 10000000 		.4byte	.LVL1
 1542 0008 0100     		.2byte	0x1
 1543 000a 50       		.byte	0x50
 1544 000b 10000000 		.4byte	.LVL1
 1545 000f 1E000000 		.4byte	.LVL3
 1546 0013 0400     		.2byte	0x4
 1547 0015 F3       		.byte	0xf3
 1548 0016 01       		.uleb128 0x1
 1549 0017 50       		.byte	0x50
 1550 0018 9F       		.byte	0x9f
 1551 0019 1E000000 		.4byte	.LVL3
 1552 001d 20000000 		.4byte	.LVL4
 1553 0021 0100     		.2byte	0x1
 1554 0023 50       		.byte	0x50
 1555 0024 20000000 		.4byte	.LVL4
 1556 0028 2C000000 		.4byte	.LFE0
 1557 002c 0400     		.2byte	0x4
 1558 002e F3       		.byte	0xf3
 1559 002f 01       		.uleb128 0x1
 1560 0030 50       		.byte	0x50
 1561 0031 9F       		.byte	0x9f
 1562 0032 00000000 		.4byte	0
 1563 0036 00000000 		.4byte	0
 1564              	.LLST1:
 1565 003a 00000000 		.4byte	.LVL5
 1566 003e 0C000000 		.4byte	.LVL6
 1567 0042 0100     		.2byte	0x1
 1568 0044 50       		.byte	0x50
 1569 0045 0C000000 		.4byte	.LVL6
 1570 0049 1A000000 		.4byte	.LVL7
 1571 004d 0400     		.2byte	0x4
 1572 004f F3       		.byte	0xf3
 1573 0050 01       		.uleb128 0x1
 1574 0051 50       		.byte	0x50
 1575 0052 9F       		.byte	0x9f
 1576 0053 1A000000 		.4byte	.LVL7
 1577 0057 1C000000 		.4byte	.LVL8
 1578 005b 0100     		.2byte	0x1
 1579 005d 50       		.byte	0x50
 1580 005e 1C000000 		.4byte	.LVL8
 1581 0062 22000000 		.4byte	.LFE1
 1582 0066 0400     		.2byte	0x4
 1583 0068 F3       		.byte	0xf3
 1584 0069 01       		.uleb128 0x1
 1585 006a 50       		.byte	0x50
 1586 006b 9F       		.byte	0x9f
 1587 006c 00000000 		.4byte	0
ARM GAS  C:\Users\AHMED~1.ELE\AppData\Local\Temp\ccodDkDv.s 			page 37


 1588 0070 00000000 		.4byte	0
 1589              	.LLST2:
 1590 0074 00000000 		.4byte	.LVL9
 1591 0078 0A000000 		.4byte	.LVL10
 1592 007c 0100     		.2byte	0x1
 1593 007e 50       		.byte	0x50
 1594 007f 0A000000 		.4byte	.LVL10
 1595 0083 0C000000 		.4byte	.LVL11
 1596 0087 0400     		.2byte	0x4
 1597 0089 F3       		.byte	0xf3
 1598 008a 01       		.uleb128 0x1
 1599 008b 50       		.byte	0x50
 1600 008c 9F       		.byte	0x9f
 1601 008d 0C000000 		.4byte	.LVL11
 1602 0091 0E000000 		.4byte	.LVL12
 1603 0095 0100     		.2byte	0x1
 1604 0097 50       		.byte	0x50
 1605 0098 0E000000 		.4byte	.LVL12
 1606 009c 10000000 		.4byte	.LFE2
 1607 00a0 0400     		.2byte	0x4
 1608 00a2 F3       		.byte	0xf3
 1609 00a3 01       		.uleb128 0x1
 1610 00a4 50       		.byte	0x50
 1611 00a5 9F       		.byte	0x9f
 1612 00a6 00000000 		.4byte	0
 1613 00aa 00000000 		.4byte	0
 1614              	.LLST3:
 1615 00ae 00000000 		.4byte	.LVL13
 1616 00b2 0A000000 		.4byte	.LVL14
 1617 00b6 0100     		.2byte	0x1
 1618 00b8 50       		.byte	0x50
 1619 00b9 0A000000 		.4byte	.LVL14
 1620 00bd 0C000000 		.4byte	.LVL15
 1621 00c1 0400     		.2byte	0x4
 1622 00c3 F3       		.byte	0xf3
 1623 00c4 01       		.uleb128 0x1
 1624 00c5 50       		.byte	0x50
 1625 00c6 9F       		.byte	0x9f
 1626 00c7 0C000000 		.4byte	.LVL15
 1627 00cb 0E000000 		.4byte	.LVL16
 1628 00cf 0100     		.2byte	0x1
 1629 00d1 50       		.byte	0x50
 1630 00d2 0E000000 		.4byte	.LVL16
 1631 00d6 10000000 		.4byte	.LFE3
 1632 00da 0400     		.2byte	0x4
 1633 00dc F3       		.byte	0xf3
 1634 00dd 01       		.uleb128 0x1
 1635 00de 50       		.byte	0x50
 1636 00df 9F       		.byte	0x9f
 1637 00e0 00000000 		.4byte	0
 1638 00e4 00000000 		.4byte	0
 1639              	.LLST4:
 1640 00e8 00000000 		.4byte	.LVL17
 1641 00ec 0C000000 		.4byte	.LVL18
 1642 00f0 0100     		.2byte	0x1
 1643 00f2 50       		.byte	0x50
 1644 00f3 0C000000 		.4byte	.LVL18
ARM GAS  C:\Users\AHMED~1.ELE\AppData\Local\Temp\ccodDkDv.s 			page 38


 1645 00f7 1A000000 		.4byte	.LVL19
 1646 00fb 0400     		.2byte	0x4
 1647 00fd F3       		.byte	0xf3
 1648 00fe 01       		.uleb128 0x1
 1649 00ff 50       		.byte	0x50
 1650 0100 9F       		.byte	0x9f
 1651 0101 1A000000 		.4byte	.LVL19
 1652 0105 1C000000 		.4byte	.LVL20
 1653 0109 0100     		.2byte	0x1
 1654 010b 50       		.byte	0x50
 1655 010c 1C000000 		.4byte	.LVL20
 1656 0110 22000000 		.4byte	.LFE4
 1657 0114 0400     		.2byte	0x4
 1658 0116 F3       		.byte	0xf3
 1659 0117 01       		.uleb128 0x1
 1660 0118 50       		.byte	0x50
 1661 0119 9F       		.byte	0x9f
 1662 011a 00000000 		.4byte	0
 1663 011e 00000000 		.4byte	0
 1664              	.LLST5:
 1665 0122 00000000 		.4byte	.LVL21
 1666 0126 0A000000 		.4byte	.LVL22
 1667 012a 0100     		.2byte	0x1
 1668 012c 50       		.byte	0x50
 1669 012d 0A000000 		.4byte	.LVL22
 1670 0131 0C000000 		.4byte	.LVL23
 1671 0135 0400     		.2byte	0x4
 1672 0137 F3       		.byte	0xf3
 1673 0138 01       		.uleb128 0x1
 1674 0139 50       		.byte	0x50
 1675 013a 9F       		.byte	0x9f
 1676 013b 0C000000 		.4byte	.LVL23
 1677 013f 0E000000 		.4byte	.LVL24
 1678 0143 0100     		.2byte	0x1
 1679 0145 50       		.byte	0x50
 1680 0146 0E000000 		.4byte	.LVL24
 1681 014a 10000000 		.4byte	.LFE5
 1682 014e 0400     		.2byte	0x4
 1683 0150 F3       		.byte	0xf3
 1684 0151 01       		.uleb128 0x1
 1685 0152 50       		.byte	0x50
 1686 0153 9F       		.byte	0x9f
 1687 0154 00000000 		.4byte	0
 1688 0158 00000000 		.4byte	0
 1689              	.LLST6:
 1690 015c 00000000 		.4byte	.LVL25
 1691 0160 04000000 		.4byte	.LVL26
 1692 0164 0100     		.2byte	0x1
 1693 0166 50       		.byte	0x50
 1694 0167 04000000 		.4byte	.LVL26
 1695 016b 06000000 		.4byte	.LFE6
 1696 016f 0400     		.2byte	0x4
 1697 0171 F3       		.byte	0xf3
 1698 0172 01       		.uleb128 0x1
 1699 0173 50       		.byte	0x50
 1700 0174 9F       		.byte	0x9f
 1701 0175 00000000 		.4byte	0
ARM GAS  C:\Users\AHMED~1.ELE\AppData\Local\Temp\ccodDkDv.s 			page 39


 1702 0179 00000000 		.4byte	0
 1703              	.LLST7:
 1704 017d 00000000 		.4byte	.LVL27
 1705 0181 0C000000 		.4byte	.LVL28
 1706 0185 0100     		.2byte	0x1
 1707 0187 50       		.byte	0x50
 1708 0188 0C000000 		.4byte	.LVL28
 1709 018c 1A000000 		.4byte	.LVL29
 1710 0190 0400     		.2byte	0x4
 1711 0192 F3       		.byte	0xf3
 1712 0193 01       		.uleb128 0x1
 1713 0194 50       		.byte	0x50
 1714 0195 9F       		.byte	0x9f
 1715 0196 1A000000 		.4byte	.LVL29
 1716 019a 1C000000 		.4byte	.LVL30
 1717 019e 0100     		.2byte	0x1
 1718 01a0 50       		.byte	0x50
 1719 01a1 1C000000 		.4byte	.LVL30
 1720 01a5 22000000 		.4byte	.LFE7
 1721 01a9 0400     		.2byte	0x4
 1722 01ab F3       		.byte	0xf3
 1723 01ac 01       		.uleb128 0x1
 1724 01ad 50       		.byte	0x50
 1725 01ae 9F       		.byte	0x9f
 1726 01af 00000000 		.4byte	0
 1727 01b3 00000000 		.4byte	0
 1728              	.LLST8:
 1729 01b7 00000000 		.4byte	.LVL31
 1730 01bb 04000000 		.4byte	.LVL32
 1731 01bf 0100     		.2byte	0x1
 1732 01c1 50       		.byte	0x50
 1733 01c2 04000000 		.4byte	.LVL32
 1734 01c6 06000000 		.4byte	.LFE8
 1735 01ca 0400     		.2byte	0x4
 1736 01cc F3       		.byte	0xf3
 1737 01cd 01       		.uleb128 0x1
 1738 01ce 50       		.byte	0x50
 1739 01cf 9F       		.byte	0x9f
 1740 01d0 00000000 		.4byte	0
 1741 01d4 00000000 		.4byte	0
 1742              	.LLST9:
 1743 01d8 00000000 		.4byte	.LVL33
 1744 01dc 04000000 		.4byte	.LVL34
 1745 01e0 0100     		.2byte	0x1
 1746 01e2 50       		.byte	0x50
 1747 01e3 04000000 		.4byte	.LVL34
 1748 01e7 06000000 		.4byte	.LFE9
 1749 01eb 0400     		.2byte	0x4
 1750 01ed F3       		.byte	0xf3
 1751 01ee 01       		.uleb128 0x1
 1752 01ef 50       		.byte	0x50
 1753 01f0 9F       		.byte	0x9f
 1754 01f1 00000000 		.4byte	0
 1755 01f5 00000000 		.4byte	0
 1756              	.LLST10:
 1757 01f9 00000000 		.4byte	.LVL35
 1758 01fd 0C000000 		.4byte	.LVL36
ARM GAS  C:\Users\AHMED~1.ELE\AppData\Local\Temp\ccodDkDv.s 			page 40


 1759 0201 0100     		.2byte	0x1
 1760 0203 50       		.byte	0x50
 1761 0204 0C000000 		.4byte	.LVL36
 1762 0208 0E000000 		.4byte	.LVL37
 1763 020c 0400     		.2byte	0x4
 1764 020e F3       		.byte	0xf3
 1765 020f 01       		.uleb128 0x1
 1766 0210 50       		.byte	0x50
 1767 0211 9F       		.byte	0x9f
 1768 0212 0E000000 		.4byte	.LVL37
 1769 0216 20000000 		.4byte	.LVL38
 1770 021a 0100     		.2byte	0x1
 1771 021c 50       		.byte	0x50
 1772 021d 20000000 		.4byte	.LVL38
 1773 0221 22000000 		.4byte	.LVL39
 1774 0225 0400     		.2byte	0x4
 1775 0227 F3       		.byte	0xf3
 1776 0228 01       		.uleb128 0x1
 1777 0229 50       		.byte	0x50
 1778 022a 9F       		.byte	0x9f
 1779 022b 22000000 		.4byte	.LVL39
 1780 022f 24000000 		.4byte	.LVL40
 1781 0233 0100     		.2byte	0x1
 1782 0235 50       		.byte	0x50
 1783 0236 24000000 		.4byte	.LVL40
 1784 023a 28000000 		.4byte	.LFE10
 1785 023e 0400     		.2byte	0x4
 1786 0240 F3       		.byte	0xf3
 1787 0241 01       		.uleb128 0x1
 1788 0242 50       		.byte	0x50
 1789 0243 9F       		.byte	0x9f
 1790 0244 00000000 		.4byte	0
 1791 0248 00000000 		.4byte	0
 1792              	.LLST11:
 1793 024c 00000000 		.4byte	.LVL41
 1794 0250 04000000 		.4byte	.LVL42
 1795 0254 0100     		.2byte	0x1
 1796 0256 50       		.byte	0x50
 1797 0257 04000000 		.4byte	.LVL42
 1798 025b 0A000000 		.4byte	.LVL43
 1799 025f 0400     		.2byte	0x4
 1800 0261 F3       		.byte	0xf3
 1801 0262 01       		.uleb128 0x1
 1802 0263 50       		.byte	0x50
 1803 0264 9F       		.byte	0x9f
 1804 0265 0A000000 		.4byte	.LVL43
 1805 0269 18000000 		.4byte	.LVL44
 1806 026d 0100     		.2byte	0x1
 1807 026f 50       		.byte	0x50
 1808 0270 18000000 		.4byte	.LVL44
 1809 0274 1A000000 		.4byte	.LVL45
 1810 0278 0400     		.2byte	0x4
 1811 027a F3       		.byte	0xf3
 1812 027b 01       		.uleb128 0x1
 1813 027c 50       		.byte	0x50
 1814 027d 9F       		.byte	0x9f
 1815 027e 1A000000 		.4byte	.LVL45
ARM GAS  C:\Users\AHMED~1.ELE\AppData\Local\Temp\ccodDkDv.s 			page 41


 1816 0282 34000000 		.4byte	.LVL46
 1817 0286 0100     		.2byte	0x1
 1818 0288 50       		.byte	0x50
 1819 0289 34000000 		.4byte	.LVL46
 1820 028d 3A000000 		.4byte	.LFE11
 1821 0291 0400     		.2byte	0x4
 1822 0293 F3       		.byte	0xf3
 1823 0294 01       		.uleb128 0x1
 1824 0295 50       		.byte	0x50
 1825 0296 9F       		.byte	0x9f
 1826 0297 00000000 		.4byte	0
 1827 029b 00000000 		.4byte	0
 1828              	.LLST12:
 1829 029f 00000000 		.4byte	.LVL47
 1830 02a3 04000000 		.4byte	.LVL48
 1831 02a7 0100     		.2byte	0x1
 1832 02a9 50       		.byte	0x50
 1833 02aa 04000000 		.4byte	.LVL48
 1834 02ae 06000000 		.4byte	.LVL49
 1835 02b2 0400     		.2byte	0x4
 1836 02b4 F3       		.byte	0xf3
 1837 02b5 01       		.uleb128 0x1
 1838 02b6 50       		.byte	0x50
 1839 02b7 9F       		.byte	0x9f
 1840 02b8 06000000 		.4byte	.LVL49
 1841 02bc 08000000 		.4byte	.LVL50
 1842 02c0 0100     		.2byte	0x1
 1843 02c2 50       		.byte	0x50
 1844 02c3 08000000 		.4byte	.LVL50
 1845 02c7 0C000000 		.4byte	.LFE12
 1846 02cb 0400     		.2byte	0x4
 1847 02cd F3       		.byte	0xf3
 1848 02ce 01       		.uleb128 0x1
 1849 02cf 50       		.byte	0x50
 1850 02d0 9F       		.byte	0x9f
 1851 02d1 00000000 		.4byte	0
 1852 02d5 00000000 		.4byte	0
 1853              	.LLST13:
 1854 02d9 00000000 		.4byte	.LVL51
 1855 02dd 04000000 		.4byte	.LVL52
 1856 02e1 0100     		.2byte	0x1
 1857 02e3 50       		.byte	0x50
 1858 02e4 04000000 		.4byte	.LVL52
 1859 02e8 06000000 		.4byte	.LFE13
 1860 02ec 0400     		.2byte	0x4
 1861 02ee F3       		.byte	0xf3
 1862 02ef 01       		.uleb128 0x1
 1863 02f0 50       		.byte	0x50
 1864 02f1 9F       		.byte	0x9f
 1865 02f2 00000000 		.4byte	0
 1866 02f6 00000000 		.4byte	0
 1867              		.section	.debug_aranges,"",%progbits
 1868 0000 84000000 		.4byte	0x84
 1869 0004 0200     		.2byte	0x2
 1870 0006 00000000 		.4byte	.Ldebug_info0
 1871 000a 04       		.byte	0x4
 1872 000b 00       		.byte	0
ARM GAS  C:\Users\AHMED~1.ELE\AppData\Local\Temp\ccodDkDv.s 			page 42


 1873 000c 0000     		.2byte	0
 1874 000e 0000     		.2byte	0
 1875 0010 00000000 		.4byte	.LFB0
 1876 0014 2C000000 		.4byte	.LFE0-.LFB0
 1877 0018 00000000 		.4byte	.LFB1
 1878 001c 22000000 		.4byte	.LFE1-.LFB1
 1879 0020 00000000 		.4byte	.LFB2
 1880 0024 10000000 		.4byte	.LFE2-.LFB2
 1881 0028 00000000 		.4byte	.LFB3
 1882 002c 10000000 		.4byte	.LFE3-.LFB3
 1883 0030 00000000 		.4byte	.LFB4
 1884 0034 22000000 		.4byte	.LFE4-.LFB4
 1885 0038 00000000 		.4byte	.LFB5
 1886 003c 10000000 		.4byte	.LFE5-.LFB5
 1887 0040 00000000 		.4byte	.LFB6
 1888 0044 06000000 		.4byte	.LFE6-.LFB6
 1889 0048 00000000 		.4byte	.LFB7
 1890 004c 22000000 		.4byte	.LFE7-.LFB7
 1891 0050 00000000 		.4byte	.LFB8
 1892 0054 06000000 		.4byte	.LFE8-.LFB8
 1893 0058 00000000 		.4byte	.LFB9
 1894 005c 06000000 		.4byte	.LFE9-.LFB9
 1895 0060 00000000 		.4byte	.LFB10
 1896 0064 28000000 		.4byte	.LFE10-.LFB10
 1897 0068 00000000 		.4byte	.LFB11
 1898 006c 3A000000 		.4byte	.LFE11-.LFB11
 1899 0070 00000000 		.4byte	.LFB12
 1900 0074 0C000000 		.4byte	.LFE12-.LFB12
 1901 0078 00000000 		.4byte	.LFB13
 1902 007c 06000000 		.4byte	.LFE13-.LFB13
 1903 0080 00000000 		.4byte	0
 1904 0084 00000000 		.4byte	0
 1905              		.section	.debug_ranges,"",%progbits
 1906              	.Ldebug_ranges0:
 1907 0000 00000000 		.4byte	.LFB0
 1908 0004 2C000000 		.4byte	.LFE0
 1909 0008 00000000 		.4byte	.LFB1
 1910 000c 22000000 		.4byte	.LFE1
 1911 0010 00000000 		.4byte	.LFB2
 1912 0014 10000000 		.4byte	.LFE2
 1913 0018 00000000 		.4byte	.LFB3
 1914 001c 10000000 		.4byte	.LFE3
 1915 0020 00000000 		.4byte	.LFB4
 1916 0024 22000000 		.4byte	.LFE4
 1917 0028 00000000 		.4byte	.LFB5
 1918 002c 10000000 		.4byte	.LFE5
 1919 0030 00000000 		.4byte	.LFB6
 1920 0034 06000000 		.4byte	.LFE6
 1921 0038 00000000 		.4byte	.LFB7
 1922 003c 22000000 		.4byte	.LFE7
 1923 0040 00000000 		.4byte	.LFB8
 1924 0044 06000000 		.4byte	.LFE8
 1925 0048 00000000 		.4byte	.LFB9
 1926 004c 06000000 		.4byte	.LFE9
 1927 0050 00000000 		.4byte	.LFB10
 1928 0054 28000000 		.4byte	.LFE10
 1929 0058 00000000 		.4byte	.LFB11
ARM GAS  C:\Users\AHMED~1.ELE\AppData\Local\Temp\ccodDkDv.s 			page 43


 1930 005c 3A000000 		.4byte	.LFE11
 1931 0060 00000000 		.4byte	.LFB12
 1932 0064 0C000000 		.4byte	.LFE12
 1933 0068 00000000 		.4byte	.LFB13
 1934 006c 06000000 		.4byte	.LFE13
 1935 0070 00000000 		.4byte	0
 1936 0074 00000000 		.4byte	0
 1937              		.section	.debug_line,"",%progbits
 1938              	.Ldebug_line0:
 1939 0000 5E020000 		.section	.debug_str,"MS",%progbits,1
 1939      0200B700 
 1939      00000201 
 1939      FB0E0D00 
 1939      01010101 
 1940              	.LASF29:
 1941 0000 6D786D6C 		.ascii	"mxml_text_s\000"
 1941      5F746578 
 1941      745F7300 
 1942              	.LASF32:
 1943 000c 6D786D6C 		.ascii	"mxml_text_t\000"
 1943      5F746578 
 1943      745F7400 
 1944              	.LASF70:
 1945 0018 474E5520 		.ascii	"GNU C 4.9.3 20141119 (release) [ARM/embedded-4_9-br"
 1945      4320342E 
 1945      392E3320 
 1945      32303134 
 1945      31313139 
 1946 004b 616E6368 		.ascii	"anch revision 218278] -mthumb -mcpu=cortex-a5 -mthu"
 1946      20726576 
 1946      6973696F 
 1946      6E203231 
 1946      38323738 
 1947 007e 6D622D69 		.ascii	"mb-interwork -mstructure-size-boundary=32 -mno-unal"
 1947      6E746572 
 1947      776F726B 
 1947      202D6D73 
 1947      74727563 
 1948 00b1 69676E65 		.ascii	"igned-access -g -Os -ffunction-sections -fsigned-ch"
 1948      642D6163 
 1948      63657373 
 1948      202D6720 
 1948      2D4F7320 
 1949 00e4 617200   		.ascii	"ar\000"
 1950              	.LASF39:
 1951 00e7 6F706171 		.ascii	"opaque\000"
 1951      756500
 1952              	.LASF41:
 1953 00ee 74657874 		.ascii	"text\000"
 1953      00
 1954              	.LASF65:
 1955 00f3 6D786D6C 		.ascii	"mxmlGetPrevSibling\000"
 1955      47657450 
 1955      72657653 
 1955      69626C69 
 1955      6E6700
 1956              	.LASF38:
ARM GAS  C:\Users\AHMED~1.ELE\AppData\Local\Temp\ccodDkDv.s 			page 44


 1957 0106 696E7465 		.ascii	"integer\000"
 1957      67657200 
 1958              	.LASF48:
 1959 010e 70726576 		.ascii	"prev\000"
 1959      00
 1960              	.LASF24:
 1961 0113 6D786D6C 		.ascii	"mxml_attr_s\000"
 1961      5F617474 
 1961      725F7300 
 1962              	.LASF23:
 1963 011f 6D786D6C 		.ascii	"mxml_attr_t\000"
 1963      5F617474 
 1963      725F7400 
 1964              	.LASF18:
 1965 012b 73697A65 		.ascii	"size_t\000"
 1965      5F7400
 1966              	.LASF45:
 1967 0132 6D786D6C 		.ascii	"mxml_node_s\000"
 1967      5F6E6F64 
 1967      655F7300 
 1968              	.LASF54:
 1969 013e 6D786D6C 		.ascii	"mxml_node_t\000"
 1969      5F6E6F64 
 1969      655F7400 
 1970              	.LASF26:
 1971 014a 6E756D5F 		.ascii	"num_attrs\000"
 1971      61747472 
 1971      7300
 1972              	.LASF75:
 1973 0154 7374726E 		.ascii	"strncmp\000"
 1973      636D7000 
 1974              	.LASF2:
 1975 015c 73686F72 		.ascii	"short int\000"
 1975      7420696E 
 1975      7400
 1976              	.LASF22:
 1977 0166 76616C75 		.ascii	"value\000"
 1977      6500
 1978              	.LASF53:
 1979 016c 75736572 		.ascii	"user_data\000"
 1979      5F646174 
 1979      6100
 1980              	.LASF49:
 1981 0176 70617265 		.ascii	"parent\000"
 1981      6E7400
 1982              	.LASF66:
 1983 017d 6D786D6C 		.ascii	"mxmlGetReal\000"
 1983      47657452 
 1983      65616C00 
 1984              	.LASF63:
 1985 0189 6D786D6C 		.ascii	"mxmlGetOpaque\000"
 1985      4765744F 
 1985      70617175 
 1985      6500
 1986              	.LASF25:
 1987 0197 6D786D6C 		.ascii	"mxml_element_s\000"
 1987      5F656C65 
ARM GAS  C:\Users\AHMED~1.ELE\AppData\Local\Temp\ccodDkDv.s 			page 45


 1987      6D656E74 
 1987      5F7300
 1988              	.LASF28:
 1989 01a6 6D786D6C 		.ascii	"mxml_element_t\000"
 1989      5F656C65 
 1989      6D656E74 
 1989      5F7400
 1990              	.LASF16:
 1991 01b5 4D584D4C 		.ascii	"MXML_TEXT\000"
 1991      5F544558 
 1991      5400
 1992              	.LASF6:
 1993 01bf 6C6F6E67 		.ascii	"long long int\000"
 1993      206C6F6E 
 1993      6720696E 
 1993      7400
 1994              	.LASF40:
 1995 01cd 7265616C 		.ascii	"real\000"
 1995      00
 1996              	.LASF33:
 1997 01d2 6D786D6C 		.ascii	"mxml_custom_s\000"
 1997      5F637573 
 1997      746F6D5F 
 1997      7300
 1998              	.LASF4:
 1999 01e0 6C6F6E67 		.ascii	"long int\000"
 1999      20696E74 
 1999      00
 2000              	.LASF31:
 2001 01e9 73747269 		.ascii	"string\000"
 2001      6E6700
 2002              	.LASF9:
 2003 01f0 73697A65 		.ascii	"sizetype\000"
 2003      74797065 
 2003      00
 2004              	.LASF52:
 2005 01f9 7265665F 		.ascii	"ref_count\000"
 2005      636F756E 
 2005      7400
 2006              	.LASF69:
 2007 0203 6D786D6C 		.ascii	"mxmlGetUserData\000"
 2007      47657455 
 2007      73657244 
 2007      61746100 
 2008              	.LASF57:
 2009 0213 6E6F6465 		.ascii	"node\000"
 2009      00
 2010              	.LASF68:
 2011 0218 6D786D6C 		.ascii	"mxmlGetType\000"
 2011      47657454 
 2011      79706500 
 2012              	.LASF21:
 2013 0224 6E616D65 		.ascii	"name\000"
 2013      00
 2014              	.LASF35:
 2015 0229 64657374 		.ascii	"destroy\000"
 2015      726F7900 
ARM GAS  C:\Users\AHMED~1.ELE\AppData\Local\Temp\ccodDkDv.s 			page 46


 2016              	.LASF12:
 2017 0231 4D584D4C 		.ascii	"MXML_ELEMENT\000"
 2017      5F454C45 
 2017      4D454E54 
 2017      00
 2018              	.LASF1:
 2019 023e 756E7369 		.ascii	"unsigned char\000"
 2019      676E6564 
 2019      20636861 
 2019      7200
 2020              	.LASF17:
 2021 024c 4D584D4C 		.ascii	"MXML_CUSTOM\000"
 2021      5F435553 
 2021      544F4D00 
 2022              	.LASF0:
 2023 0258 7369676E 		.ascii	"signed char\000"
 2023      65642063 
 2023      68617200 
 2024              	.LASF7:
 2025 0264 6C6F6E67 		.ascii	"long long unsigned int\000"
 2025      206C6F6E 
 2025      6720756E 
 2025      7369676E 
 2025      65642069 
 2026              	.LASF46:
 2027 027b 74797065 		.ascii	"type\000"
 2027      00
 2028              	.LASF30:
 2029 0280 77686974 		.ascii	"whitespace\000"
 2029      65737061 
 2029      636500
 2030              	.LASF58:
 2031 028b 6D786D6C 		.ascii	"mxmlGetElement\000"
 2031      47657445 
 2031      6C656D65 
 2031      6E7400
 2032              	.LASF60:
 2033 029a 6D786D6C 		.ascii	"mxmlGetInteger\000"
 2033      47657449 
 2033      6E746567 
 2033      657200
 2034              	.LASF64:
 2035 02a9 6D786D6C 		.ascii	"mxmlGetParent\000"
 2035      47657450 
 2035      6172656E 
 2035      7400
 2036              	.LASF27:
 2037 02b7 61747472 		.ascii	"attrs\000"
 2037      7300
 2038              	.LASF3:
 2039 02bd 73686F72 		.ascii	"short unsigned int\000"
 2039      7420756E 
 2039      7369676E 
 2039      65642069 
 2039      6E7400
 2040              	.LASF42:
 2041 02d0 63757374 		.ascii	"custom\000"
ARM GAS  C:\Users\AHMED~1.ELE\AppData\Local\Temp\ccodDkDv.s 			page 47


 2041      6F6D00
 2042              	.LASF15:
 2043 02d7 4D584D4C 		.ascii	"MXML_REAL\000"
 2043      5F524541 
 2043      4C00
 2044              	.LASF73:
 2045 02e1 6D786D6C 		.ascii	"mxml_type_e\000"
 2045      5F747970 
 2045      655F6500 
 2046              	.LASF10:
 2047 02ed 63686172 		.ascii	"char\000"
 2047      00
 2048              	.LASF51:
 2049 02f2 6C617374 		.ascii	"last_child\000"
 2049      5F636869 
 2049      6C6400
 2050              	.LASF13:
 2051 02fd 4D584D4C 		.ascii	"MXML_INTEGER\000"
 2051      5F494E54 
 2051      45474552 
 2051      00
 2052              	.LASF19:
 2053 030a 6D786D6C 		.ascii	"mxml_type_t\000"
 2053      5F747970 
 2053      655F7400 
 2054              	.LASF59:
 2055 0316 6D786D6C 		.ascii	"mxmlGetFirstChild\000"
 2055      47657446 
 2055      69727374 
 2055      4368696C 
 2055      6400
 2056              	.LASF34:
 2057 0328 64617461 		.ascii	"data\000"
 2057      00
 2058              	.LASF5:
 2059 032d 6C6F6E67 		.ascii	"long unsigned int\000"
 2059      20756E73 
 2059      69676E65 
 2059      6420696E 
 2059      7400
 2060              	.LASF72:
 2061 033f 433A5C54 		.ascii	"C:\\T1000-A5\\Projects\\APM\\apm_v3.0s03\000"
 2061      31303030 
 2061      2D41355C 
 2061      50726F6A 
 2061      65637473 
 2062              	.LASF55:
 2063 0364 6D786D6C 		.ascii	"mxmlGetCDATA\000"
 2063      47657443 
 2063      44415441 
 2063      00
 2064              	.LASF43:
 2065 0371 646F7562 		.ascii	"double\000"
 2065      6C6500
 2066              	.LASF50:
 2067 0378 6368696C 		.ascii	"child\000"
 2067      6400
ARM GAS  C:\Users\AHMED~1.ELE\AppData\Local\Temp\ccodDkDv.s 			page 48


 2068              	.LASF20:
 2069 037e 6D786D6C 		.ascii	"mxml_custom_destroy_cb_t\000"
 2069      5F637573 
 2069      746F6D5F 
 2069      64657374 
 2069      726F795F 
 2070              	.LASF37:
 2071 0397 656C656D 		.ascii	"element\000"
 2071      656E7400 
 2072              	.LASF56:
 2073 039f 6D786D6C 		.ascii	"mxmlGetCustom\000"
 2073      47657443 
 2073      7573746F 
 2073      6D00
 2074              	.LASF11:
 2075 03ad 4D584D4C 		.ascii	"MXML_IGNORE\000"
 2075      5F49474E 
 2075      4F524500 
 2076              	.LASF44:
 2077 03b9 6D786D6C 		.ascii	"mxml_value_t\000"
 2077      5F76616C 
 2077      75655F74 
 2077      00
 2078              	.LASF74:
 2079 03c6 6D786D6C 		.ascii	"mxml_value_u\000"
 2079      5F76616C 
 2079      75655F75 
 2079      00
 2080              	.LASF61:
 2081 03d3 6D786D6C 		.ascii	"mxmlGetLastChild\000"
 2081      4765744C 
 2081      61737443 
 2081      68696C64 
 2081      00
 2082              	.LASF14:
 2083 03e4 4D584D4C 		.ascii	"MXML_OPAQUE\000"
 2083      5F4F5041 
 2083      51554500 
 2084              	.LASF8:
 2085 03f0 756E7369 		.ascii	"unsigned int\000"
 2085      676E6564 
 2085      20696E74 
 2085      00
 2086              	.LASF67:
 2087 03fd 6D786D6C 		.ascii	"mxmlGetText\000"
 2087      47657454 
 2087      65787400 
 2088              	.LASF36:
 2089 0409 6D786D6C 		.ascii	"mxml_custom_t\000"
 2089      5F637573 
 2089      746F6D5F 
 2089      7400
 2090              	.LASF62:
 2091 0417 6D786D6C 		.ascii	"mxmlGetNextSibling\000"
 2091      4765744E 
 2091      65787453 
 2091      69626C69 
ARM GAS  C:\Users\AHMED~1.ELE\AppData\Local\Temp\ccodDkDv.s 			page 49


 2091      6E6700
 2092              	.LASF47:
 2093 042a 6E657874 		.ascii	"next\000"
 2093      00
 2094              	.LASF71:
 2095 042f 7372632F 		.ascii	"src/mxml-get.c\000"
 2095      6D786D6C 
 2095      2D676574 
 2095      2E6300
 2096              		.ident	"GCC: (GNU Tools for ARM Embedded Processors) 4.9.3 20141119 (release) [ARM/embedded-4_9-br
ARM GAS  C:\Users\AHMED~1.ELE\AppData\Local\Temp\ccodDkDv.s 			page 50


DEFINED SYMBOLS
                            *ABS*:00000000 mxml-get.c
C:\Users\AHMED~1.ELE\AppData\Local\Temp\ccodDkDv.s:19     .text.mxmlGetCDATA:00000000 $t
C:\Users\AHMED~1.ELE\AppData\Local\Temp\ccodDkDv.s:24     .text.mxmlGetCDATA:00000000 mxmlGetCDATA
C:\Users\AHMED~1.ELE\AppData\Local\Temp\ccodDkDv.s:70     .text.mxmlGetCDATA:00000028 $d
C:\Users\AHMED~1.ELE\AppData\Local\Temp\ccodDkDv.s:75     .text.mxmlGetCustom:00000000 $t
C:\Users\AHMED~1.ELE\AppData\Local\Temp\ccodDkDv.s:80     .text.mxmlGetCustom:00000000 mxmlGetCustom
C:\Users\AHMED~1.ELE\AppData\Local\Temp\ccodDkDv.s:124    .text.mxmlGetElement:00000000 $t
C:\Users\AHMED~1.ELE\AppData\Local\Temp\ccodDkDv.s:129    .text.mxmlGetElement:00000000 mxmlGetElement
C:\Users\AHMED~1.ELE\AppData\Local\Temp\ccodDkDv.s:158    .text.mxmlGetFirstChild:00000000 $t
C:\Users\AHMED~1.ELE\AppData\Local\Temp\ccodDkDv.s:163    .text.mxmlGetFirstChild:00000000 mxmlGetFirstChild
C:\Users\AHMED~1.ELE\AppData\Local\Temp\ccodDkDv.s:192    .text.mxmlGetInteger:00000000 $t
C:\Users\AHMED~1.ELE\AppData\Local\Temp\ccodDkDv.s:197    .text.mxmlGetInteger:00000000 mxmlGetInteger
C:\Users\AHMED~1.ELE\AppData\Local\Temp\ccodDkDv.s:241    .text.mxmlGetLastChild:00000000 $t
C:\Users\AHMED~1.ELE\AppData\Local\Temp\ccodDkDv.s:246    .text.mxmlGetLastChild:00000000 mxmlGetLastChild
C:\Users\AHMED~1.ELE\AppData\Local\Temp\ccodDkDv.s:275    .text.mxmlGetNextSibling:00000000 $t
C:\Users\AHMED~1.ELE\AppData\Local\Temp\ccodDkDv.s:280    .text.mxmlGetNextSibling:00000000 mxmlGetNextSibling
C:\Users\AHMED~1.ELE\AppData\Local\Temp\ccodDkDv.s:300    .text.mxmlGetOpaque:00000000 $t
C:\Users\AHMED~1.ELE\AppData\Local\Temp\ccodDkDv.s:305    .text.mxmlGetOpaque:00000000 mxmlGetOpaque
C:\Users\AHMED~1.ELE\AppData\Local\Temp\ccodDkDv.s:349    .text.mxmlGetParent:00000000 $t
C:\Users\AHMED~1.ELE\AppData\Local\Temp\ccodDkDv.s:354    .text.mxmlGetParent:00000000 mxmlGetParent
C:\Users\AHMED~1.ELE\AppData\Local\Temp\ccodDkDv.s:374    .text.mxmlGetPrevSibling:00000000 $t
C:\Users\AHMED~1.ELE\AppData\Local\Temp\ccodDkDv.s:379    .text.mxmlGetPrevSibling:00000000 mxmlGetPrevSibling
C:\Users\AHMED~1.ELE\AppData\Local\Temp\ccodDkDv.s:399    .text.mxmlGetReal:00000000 $t
C:\Users\AHMED~1.ELE\AppData\Local\Temp\ccodDkDv.s:404    .text.mxmlGetReal:00000000 mxmlGetReal
C:\Users\AHMED~1.ELE\AppData\Local\Temp\ccodDkDv.s:450    .text.mxmlGetText:00000000 $t
C:\Users\AHMED~1.ELE\AppData\Local\Temp\ccodDkDv.s:455    .text.mxmlGetText:00000000 mxmlGetText
C:\Users\AHMED~1.ELE\AppData\Local\Temp\ccodDkDv.s:522    .text.mxmlGetType:00000000 $t
C:\Users\AHMED~1.ELE\AppData\Local\Temp\ccodDkDv.s:527    .text.mxmlGetType:00000000 mxmlGetType
C:\Users\AHMED~1.ELE\AppData\Local\Temp\ccodDkDv.s:554    .text.mxmlGetUserData:00000000 $t
C:\Users\AHMED~1.ELE\AppData\Local\Temp\ccodDkDv.s:559    .text.mxmlGetUserData:00000000 mxmlGetUserData
                     .debug_frame:00000010 $d

UNDEFINED SYMBOLS
strncmp
