ARM GAS  C:\Users\AHMED~1.ELE\AppData\Local\Temp\ccJtYU5O.s 			page 1


   1              		.syntax unified
   2              		.cpu cortex-a5
   3              		.fpu softvfp
   4              		.eabi_attribute 20, 1
   5              		.eabi_attribute 21, 1
   6              		.eabi_attribute 23, 3
   7              		.eabi_attribute 24, 1
   8              		.eabi_attribute 25, 1
   9              		.eabi_attribute 26, 1
  10              		.eabi_attribute 30, 4
  11              		.eabi_attribute 34, 0
  12              		.eabi_attribute 18, 4
  13              		.thumb
  14              		.file	"mxml-string.c"
  15              		.text
  16              	.Ltext0:
  17              		.cfi_sections	.debug_frame
  18              		.section	.text._mxml_strdup,"ax",%progbits
  19              		.align	1
  20              		.global	_mxml_strdup
  21              		.thumb
  22              		.thumb_func
  23              		.type	_mxml_strdup, %function
  24              	_mxml_strdup:
  25              	.LFB1:
  26              		.file 1 "src/mxml-string.c"
   1:src/mxml-string.c **** /*
   2:src/mxml-string.c ****  * "$Id: mxml-string.c 454 2014-01-05 03:25:07Z msweet $"
   3:src/mxml-string.c ****  *
   4:src/mxml-string.c ****  * String functions for Mini-XML, a small XML-like file parsing library.
   5:src/mxml-string.c ****  *
   6:src/mxml-string.c ****  * Copyright 2003-2014 by Michael R Sweet.
   7:src/mxml-string.c ****  *
   8:src/mxml-string.c ****  * These coded instructions, statements, and computer programs are the
   9:src/mxml-string.c ****  * property of Michael R Sweet and are protected by Federal copyright
  10:src/mxml-string.c ****  * law.  Distribution and use rights are outlined in the file "COPYING"
  11:src/mxml-string.c ****  * which should have been included with this file.  If this file is
  12:src/mxml-string.c ****  * missing or damaged, see the license at:
  13:src/mxml-string.c ****  *
  14:src/mxml-string.c ****  *     http://www.msweet.org/projects.php/Mini-XML
  15:src/mxml-string.c ****  */
  16:src/mxml-string.c **** 
  17:src/mxml-string.c **** /*
  18:src/mxml-string.c ****  * Include necessary headers...
  19:src/mxml-string.c ****  */
  20:src/mxml-string.c **** 
  21:src/mxml-string.c **** #include "mxml-config.h"
  22:src/mxml-string.c **** #include "system.h"
  23:src/mxml-string.c **** 
  24:src/mxml-string.c **** 
  25:src/mxml-string.c **** /*
  26:src/mxml-string.c ****  * The va_copy macro is part of C99, but many compilers don't implement it.
  27:src/mxml-string.c ****  * Provide a "direct assignment" implmentation when va_copy isn't defined...
  28:src/mxml-string.c ****  */
  29:src/mxml-string.c **** 
  30:src/mxml-string.c **** #ifndef va_copy
  31:src/mxml-string.c **** #  ifdef __va_copy
ARM GAS  C:\Users\AHMED~1.ELE\AppData\Local\Temp\ccJtYU5O.s 			page 2


  32:src/mxml-string.c **** #    define va_copy(dst,src) __va_copy(dst,src)
  33:src/mxml-string.c **** #  else
  34:src/mxml-string.c **** #    define va_copy(dst,src) memcpy(&dst, src, sizeof(va_list))
  35:src/mxml-string.c **** #  endif /* __va_copy */
  36:src/mxml-string.c **** #endif /* va_copy */
  37:src/mxml-string.c **** 
  38:src/mxml-string.c **** 
  39:src/mxml-string.c **** #ifndef HAVE_SNPRINTF
  40:src/mxml-string.c **** /*
  41:src/mxml-string.c ****  * '_mxml_snprintf()' - Format a string.
  42:src/mxml-string.c ****  */
  43:src/mxml-string.c **** 
  44:src/mxml-string.c **** int					/* O - Number of bytes formatted */
  45:src/mxml-string.c **** _mxml_snprintf(char       *buffer,	/* I - Output buffer */
  46:src/mxml-string.c ****                size_t     bufsize,	/* I - Size of output buffer */
  47:src/mxml-string.c **** 	       const char *format,	/* I - Printf-style format string */
  48:src/mxml-string.c **** 	       ...)			/* I - Additional arguments as needed */
  49:src/mxml-string.c **** {
  50:src/mxml-string.c ****   va_list	ap;			/* Argument list */
  51:src/mxml-string.c ****   int		bytes;			/* Number of bytes formatted */
  52:src/mxml-string.c **** 
  53:src/mxml-string.c **** 
  54:src/mxml-string.c ****   va_start(ap, format);
  55:src/mxml-string.c ****   bytes = vsnprintf(buffer, bufsize, format, ap);
  56:src/mxml-string.c ****   va_end(ap);
  57:src/mxml-string.c **** 
  58:src/mxml-string.c ****   return (bytes);
  59:src/mxml-string.c **** }
  60:src/mxml-string.c **** #endif /* !HAVE_SNPRINTF */
  61:src/mxml-string.c **** 
  62:src/mxml-string.c **** 
  63:src/mxml-string.c **** /*
  64:src/mxml-string.c ****  * '_mxml_strdup()' - Duplicate a string.
  65:src/mxml-string.c ****  */
  66:src/mxml-string.c **** 
  67:src/mxml-string.c **** #ifndef HAVE_STRDUP
  68:src/mxml-string.c **** char *					/* O - New string pointer */
  69:src/mxml-string.c **** _mxml_strdup(const char *s)		/* I - String to duplicate */
  70:src/mxml-string.c **** {
  27              		.loc 1 70 0
  28              		.cfi_startproc
  29              		@ args = 0, pretend = 0, frame = 0
  30              		@ frame_needed = 0, uses_anonymous_args = 0
  31              	.LVL0:
  32 0000 10B5     		push	{r4, lr}
  33              		.cfi_def_cfa_offset 8
  34              		.cfi_offset 4, -8
  35              		.cfi_offset 14, -4
  71:src/mxml-string.c ****   char	*t;				/* New string pointer */
  72:src/mxml-string.c **** 
  73:src/mxml-string.c ****   if (s == NULL)
  36              		.loc 1 73 0
  37 0002 0446     		mov	r4, r0
  38 0004 58B1     		cbz	r0, .L3
  74:src/mxml-string.c ****     return (NULL);
  75:src/mxml-string.c **** 
  76:src/mxml-string.c ****   if ((t = os_malloc(strlen(s) + 1)) == NULL)
ARM GAS  C:\Users\AHMED~1.ELE\AppData\Local\Temp\ccJtYU5O.s 			page 3


  39              		.loc 1 76 0
  40 0006 FFF7FEFF 		bl	strlen
  41              	.LVL1:
  42 000a 411C     		adds	r1, r0, #1
  43 000c 9220     		movs	r0, #146
  44 000e FFF7FEFF 		bl	sys_func1
  45              	.LVL2:
  46 0012 20B1     		cbz	r0, .L3
  77:src/mxml-string.c ****     return (NULL);
  78:src/mxml-string.c **** 
  79:src/mxml-string.c ****   return (strcpy(t, s));
  47              		.loc 1 79 0
  48 0014 2146     		mov	r1, r4
  80:src/mxml-string.c **** }
  49              		.loc 1 80 0
  50 0016 BDE81040 		pop	{r4, lr}
  51              		.cfi_remember_state
  52              		.cfi_restore 14
  53              		.cfi_restore 4
  54              		.cfi_def_cfa_offset 0
  55              	.LVL3:
  79:src/mxml-string.c **** }
  56              		.loc 1 79 0
  57 001a FFF7FEBF 		b	strcpy
  58              	.LVL4:
  59              	.L3:
  60              		.cfi_restore_state
  61              		.loc 1 80 0
  62 001e 0020     		movs	r0, #0
  63 0020 10BD     		pop	{r4, pc}
  64              		.cfi_endproc
  65              	.LFE1:
  66              		.size	_mxml_strdup, .-_mxml_strdup
  67              		.section	.text._mxml_vsnprintf,"ax",%progbits
  68              		.align	1
  69              		.global	_mxml_vsnprintf
  70              		.thumb
  71              		.thumb_func
  72              		.type	_mxml_vsnprintf, %function
  73              	_mxml_vsnprintf:
  74              	.LFB3:
  81:src/mxml-string.c **** #endif /* !HAVE_STRDUP */
  82:src/mxml-string.c **** 
  83:src/mxml-string.c **** 
  84:src/mxml-string.c **** /*
  85:src/mxml-string.c ****  * '_mxml_strdupf()' - Format and duplicate a string.
  86:src/mxml-string.c ****  */
  87:src/mxml-string.c **** 
  88:src/mxml-string.c **** char *					/* O - New string pointer */
  89:src/mxml-string.c **** _mxml_strdupf(const char *format,	/* I - Printf-style format string */
  90:src/mxml-string.c ****               ...)			/* I - Additional arguments as needed */
  91:src/mxml-string.c **** {
  92:src/mxml-string.c ****   va_list	ap;			/* Pointer to additional arguments */
  93:src/mxml-string.c ****   char		*s;			/* Pointer to formatted string */
  94:src/mxml-string.c **** 
  95:src/mxml-string.c **** 
  96:src/mxml-string.c ****  /*
ARM GAS  C:\Users\AHMED~1.ELE\AppData\Local\Temp\ccJtYU5O.s 			page 4


  97:src/mxml-string.c ****   * Get a pointer to the additional arguments, format the string,
  98:src/mxml-string.c ****   * and return it...
  99:src/mxml-string.c ****   */
 100:src/mxml-string.c **** 
 101:src/mxml-string.c ****   va_start(ap, format);
 102:src/mxml-string.c ****   s = _mxml_vstrdupf(format, ap);
 103:src/mxml-string.c ****   va_end(ap);
 104:src/mxml-string.c **** 
 105:src/mxml-string.c ****   return (s);
 106:src/mxml-string.c **** }
 107:src/mxml-string.c **** 
 108:src/mxml-string.c **** 
 109:src/mxml-string.c **** #ifndef HAVE_VSNPRINTF
 110:src/mxml-string.c **** /*
 111:src/mxml-string.c ****  * '_mxml_vsnprintf()' - Format a string into a fixed size buffer.
 112:src/mxml-string.c ****  */
 113:src/mxml-string.c **** 
 114:src/mxml-string.c **** int					/* O - Number of bytes formatted */
 115:src/mxml-string.c **** _mxml_vsnprintf(char       *buffer,	/* O - Output buffer */
 116:src/mxml-string.c ****                 size_t     bufsize,	/* O - Size of output buffer */
 117:src/mxml-string.c **** 		const char *format,	/* I - Printf-style format string */
 118:src/mxml-string.c ****  		va_list    ap)		/* I - Pointer to additional arguments */
 119:src/mxml-string.c **** {
  75              		.loc 1 119 0
  76              		.cfi_startproc
  77              		@ args = 0, pretend = 0, frame = 1144
  78              		@ frame_needed = 0, uses_anonymous_args = 0
  79              	.LVL5:
 120:src/mxml-string.c ****   char		*bufptr,		/* Pointer to position in buffer */
 121:src/mxml-string.c **** 		*bufend,		/* Pointer to end of buffer */
 122:src/mxml-string.c **** 		sign,			/* Sign of format width */
 123:src/mxml-string.c **** 		size,			/* Size character (h, l, L) */
 124:src/mxml-string.c **** 		type;			/* Format type character */
 125:src/mxml-string.c ****   int		width,			/* Width of field */
 126:src/mxml-string.c **** 		prec;			/* Number of characters of precision */
 127:src/mxml-string.c ****   char		tformat[100],		/* Temporary format string for sprintf() */
 128:src/mxml-string.c **** 		*tptr,			/* Pointer into temporary format */
 129:src/mxml-string.c **** 		temp[1024];		/* Buffer for formatted numbers */
 130:src/mxml-string.c ****   char		*s;			/* Pointer to string */
 131:src/mxml-string.c ****   int		slen;			/* Length of string */
 132:src/mxml-string.c ****   int		bytes;			/* Total number of bytes needed */
 133:src/mxml-string.c **** 
 134:src/mxml-string.c ****  /*
 135:src/mxml-string.c ****   * Loop through the format string, formatting as needed...
 136:src/mxml-string.c ****   */
 137:src/mxml-string.c **** 
 138:src/mxml-string.c ****   bufptr = buffer;
 139:src/mxml-string.c ****   bufend = buffer + bufsize - 1;
  80              		.loc 1 139 0
  81 0000 0139     		subs	r1, r1, #1
  82              	.LVL6:
 119:src/mxml-string.c ****   char		*bufptr,		/* Pointer to position in buffer */
  83              		.loc 1 119 0
  84 0002 2DE9F04F 		push	{r4, r5, r6, r7, r8, r9, r10, fp, lr}
  85              		.cfi_def_cfa_offset 36
  86              		.cfi_offset 4, -36
  87              		.cfi_offset 5, -32
ARM GAS  C:\Users\AHMED~1.ELE\AppData\Local\Temp\ccJtYU5O.s 			page 5


  88              		.cfi_offset 6, -28
  89              		.cfi_offset 7, -24
  90              		.cfi_offset 8, -20
  91              		.cfi_offset 9, -16
  92              		.cfi_offset 10, -12
  93              		.cfi_offset 11, -8
  94              		.cfi_offset 14, -4
  95 0006 0446     		mov	r4, r0
  96 0008 ADF27C4D 		subw	sp, sp, #1148
  97              		.cfi_def_cfa_offset 1184
 119:src/mxml-string.c ****   char		*bufptr,		/* Pointer to position in buffer */
  98              		.loc 1 119 0
  99 000c 9346     		mov	fp, r2
 100 000e 1E46     		mov	r6, r3
 101              	.LVL7:
 102              		.loc 1 139 0
 103 0010 00EB0109 		add	r9, r0, r1
 104              	.LVL8:
 140:src/mxml-string.c ****   bytes  = 0;
 105              		.loc 1 140 0
 106 0014 4FF0000A 		mov	r10, #0
 107              	.LVL9:
 108              	.L10:
 141:src/mxml-string.c **** 
 142:src/mxml-string.c ****   while (*format)
 109              		.loc 1 142 0
 110 0018 9BF80030 		ldrb	r3, [fp]	@ zero_extendqisi2
 111              	.LVL10:
 112 001c 002B     		cmp	r3, #0
 113 001e 00F0BD81 		beq	.L56
 143:src/mxml-string.c ****   {
 144:src/mxml-string.c ****     if (*format == '%')
 114              		.loc 1 144 0
 115 0022 5AB2     		sxtb	r2, r3
 116 0024 252A     		cmp	r2, #37
 117 0026 40F0AB81 		bne	.L11
 118              	.LVL11:
 145:src/mxml-string.c ****     {
 146:src/mxml-string.c ****       tptr = tformat;
 147:src/mxml-string.c ****       *tptr++ = *format++;
 148:src/mxml-string.c **** 
 149:src/mxml-string.c ****       if (*format == '%')
 119              		.loc 1 149 0
 120 002a 9BF80150 		ldrb	r5, [fp, #1]	@ zero_extendqisi2
 147:src/mxml-string.c **** 
 121              		.loc 1 147 0
 122 002e 0DF1140C 		add	ip, sp, #20
 123              		.loc 1 149 0
 124 0032 69B2     		sxtb	r1, r5
 125 0034 2529     		cmp	r1, #37
 147:src/mxml-string.c **** 
 126              		.loc 1 147 0
 127 0036 8CF80020 		strb	r2, [ip]
 128              		.loc 1 149 0
 129 003a 09D1     		bne	.L12
 150:src/mxml-string.c ****       {
 151:src/mxml-string.c ****         if (bufptr && bufptr < bufend)
ARM GAS  C:\Users\AHMED~1.ELE\AppData\Local\Temp\ccJtYU5O.s 			page 6


 130              		.loc 1 151 0
 131 003c 1CB1     		cbz	r4, .L13
 132              	.LVL12:
 133              		.loc 1 151 0 is_stmt 0 discriminator 1
 134 003e 4C45     		cmp	r4, r9
 152:src/mxml-string.c ****           *bufptr++ = *format;
 135              		.loc 1 152 0 is_stmt 1 discriminator 1
 136 0040 3CBF     		itt	cc
 137 0042 2170     		strbcc	r1, [r4]
 138 0044 0134     		addcc	r4, r4, #1
 139              	.LVL13:
 140              	.L13:
 153:src/mxml-string.c ****         bytes ++;
 141              		.loc 1 153 0
 142 0046 0AF1010A 		add	r10, r10, #1
 143              	.LVL14:
 154:src/mxml-string.c ****         format ++;
 144              		.loc 1 154 0
 145 004a 0BF1020B 		add	fp, fp, #2
 146              	.LVL15:
 155:src/mxml-string.c **** 	continue;
 147              		.loc 1 155 0
 148 004e E3E7     		b	.L10
 149              	.LVL16:
 150              	.L12:
 156:src/mxml-string.c ****       }
 157:src/mxml-string.c ****       else if (strchr(" -+#\'", *format))
 151              		.loc 1 157 0
 152 0050 C748     		ldr	r0, .L113
 153 0052 CDF804C0 		str	ip, [sp, #4]
 154 0056 FFF7FEFF 		bl	strchr
 155              	.LVL17:
 156 005a DDF804C0 		ldr	ip, [sp, #4]
 157 005e 28B9     		cbnz	r0, .L15
 147:src/mxml-string.c **** 
 158              		.loc 1 147 0
 159 0060 0BF10108 		add	r8, fp, #1
 160 0064 0CF10105 		add	r5, ip, #1
 158:src/mxml-string.c ****       {
 159:src/mxml-string.c ****         *tptr++ = *format;
 160:src/mxml-string.c ****         sign = *format++;
 161:src/mxml-string.c ****       }
 162:src/mxml-string.c ****       else
 163:src/mxml-string.c ****         sign = 0;
 161              		.loc 1 163 0
 162 0068 0290     		str	r0, [sp, #8]
 163 006a 08E0     		b	.L16
 164              	.L15:
 165              	.LVL18:
 159:src/mxml-string.c ****         sign = *format++;
 166              		.loc 1 159 0
 167 006c 8CF80150 		strb	r5, [ip, #1]
 160:src/mxml-string.c ****       }
 168              		.loc 1 160 0
 169 0070 0BF10208 		add	r8, fp, #2
 170              	.LVL19:
 171 0074 9BF80130 		ldrb	r3, [fp, #1]	@ zero_extendqisi2
ARM GAS  C:\Users\AHMED~1.ELE\AppData\Local\Temp\ccJtYU5O.s 			page 7


 159:src/mxml-string.c ****         sign = *format++;
 172              		.loc 1 159 0
 173 0078 0CF10205 		add	r5, ip, #2
 160:src/mxml-string.c ****       }
 174              		.loc 1 160 0
 175 007c 0293     		str	r3, [sp, #8]
 176              	.LVL20:
 177              	.L16:
 164:src/mxml-string.c **** 
 165:src/mxml-string.c ****       if (*format == '*')
 178              		.loc 1 165 0
 179 007e 98F90030 		ldrsb	r3, [r8]
 180 0082 2A2B     		cmp	r3, #42
 181 0084 01D0     		beq	.L17
 182 0086 0027     		movs	r7, #0
 183 0088 16E0     		b	.L18
 184              	.L17:
 166:src/mxml-string.c ****       {
 167:src/mxml-string.c ****        /*
 168:src/mxml-string.c ****         * Get width from argument...
 169:src/mxml-string.c **** 	*/
 170:src/mxml-string.c **** 
 171:src/mxml-string.c **** 	format ++;
 172:src/mxml-string.c **** 	width = va_arg(ap, int);
 185              		.loc 1 172 0
 186 008a 3768     		ldr	r7, [r6]
 173:src/mxml-string.c **** 
 174:src/mxml-string.c **** 	snprintf(tptr, sizeof(tformat) - (tptr - tformat), "%d", width);
 187              		.loc 1 174 0
 188 008c C5EB0C01 		rsb	r1, r5, ip
 189 0090 2846     		mov	r0, r5
 190 0092 6431     		adds	r1, r1, #100
 191 0094 B74A     		ldr	r2, .L113+4
 192 0096 3B46     		mov	r3, r7
 193 0098 CDF804C0 		str	ip, [sp, #4]
 194 009c FFF7FEFF 		bl	_mxml_snprintf
 195              	.LVL21:
 175:src/mxml-string.c **** 	tptr += strlen(tptr);
 196              		.loc 1 175 0
 197 00a0 2846     		mov	r0, r5
 198 00a2 FFF7FEFF 		bl	strlen
 199              	.LVL22:
 172:src/mxml-string.c **** 
 200              		.loc 1 172 0
 201 00a6 06F1040B 		add	fp, r6, #4
 171:src/mxml-string.c **** 	width = va_arg(ap, int);
 202              		.loc 1 171 0
 203 00aa 08F10108 		add	r8, r8, #1
 204              	.LVL23:
 172:src/mxml-string.c **** 
 205              		.loc 1 172 0
 206 00ae 5E46     		mov	r6, fp
 207              		.loc 1 175 0
 208 00b0 0544     		add	r5, r5, r0
 209              	.LVL24:
 210 00b2 DDF804C0 		ldr	ip, [sp, #4]
 211 00b6 16E0     		b	.L19
ARM GAS  C:\Users\AHMED~1.ELE\AppData\Local\Temp\ccJtYU5O.s 			page 8


 212              	.LVL25:
 213              	.L18:
 176:src/mxml-string.c ****       }
 177:src/mxml-string.c ****       else
 178:src/mxml-string.c ****       {
 179:src/mxml-string.c **** 	width = 0;
 180:src/mxml-string.c **** 
 181:src/mxml-string.c **** 	while (isdigit(*format & 255))
 214              		.loc 1 181 0
 215 00b8 AF4B     		ldr	r3, .L113+8
 216 00ba 98F80020 		ldrb	r2, [r8]	@ zero_extendqisi2
 217 00be 1B68     		ldr	r3, [r3]
 218 00c0 1344     		add	r3, r3, r2
 219 00c2 5B78     		ldrb	r3, [r3, #1]	@ zero_extendqisi2
 220 00c4 5907     		lsls	r1, r3, #29
 221 00c6 0ED5     		bpl	.L19
 222              	.LVL26:
 182:src/mxml-string.c **** 	{
 183:src/mxml-string.c **** 	  if (tptr < (tformat + sizeof(tformat) - 1))
 223              		.loc 1 183 0
 224 00c8 0CF16303 		add	r3, ip, #99
 225 00cc 9D42     		cmp	r5, r3
 184:src/mxml-string.c **** 	    *tptr++ = *format;
 185:src/mxml-string.c **** 
 186:src/mxml-string.c **** 	  width = width * 10 + *format++ - '0';
 226              		.loc 1 186 0
 227 00ce 4FF00A03 		mov	r3, #10
 184:src/mxml-string.c **** 	    *tptr++ = *format;
 228              		.loc 1 184 0
 229 00d2 38BF     		it	cc
 230 00d4 2A70     		strbcc	r2, [r5]
 231              		.loc 1 186 0
 232 00d6 18F9012B 		ldrsb	r2, [r8], #1
 233              	.LVL27:
 184:src/mxml-string.c **** 	    *tptr++ = *format;
 234              		.loc 1 184 0
 235 00da 38BF     		it	cc
 236 00dc 0135     		addcc	r5, r5, #1
 237              	.LVL28:
 238              		.loc 1 186 0
 239 00de 03FB0727 		mla	r7, r3, r7, r2
 240              	.LVL29:
 241 00e2 303F     		subs	r7, r7, #48
 242              	.LVL30:
 243 00e4 E8E7     		b	.L18
 244              	.LVL31:
 245              	.L19:
 187:src/mxml-string.c **** 	}
 188:src/mxml-string.c ****       }
 189:src/mxml-string.c **** 
 190:src/mxml-string.c ****       if (*format == '.')
 246              		.loc 1 190 0
 247 00e6 98F90030 		ldrsb	r3, [r8]
 248 00ea 2E2B     		cmp	r3, #46
 249 00ec 3FD1     		bne	.L57
 250              	.LVL32:
 191:src/mxml-string.c ****       {
ARM GAS  C:\Users\AHMED~1.ELE\AppData\Local\Temp\ccJtYU5O.s 			page 9


 192:src/mxml-string.c **** 	if (tptr < (tformat + sizeof(tformat) - 1))
 251              		.loc 1 192 0
 252 00ee 0CF16302 		add	r2, ip, #99
 253 00f2 9542     		cmp	r5, r2
 193:src/mxml-string.c **** 	  *tptr++ = *format;
 254              		.loc 1 193 0
 255 00f4 38BF     		it	cc
 256 00f6 2B70     		strbcc	r3, [r5]
 194:src/mxml-string.c **** 
 195:src/mxml-string.c ****         format ++;
 196:src/mxml-string.c **** 
 197:src/mxml-string.c ****         if (*format == '*')
 257              		.loc 1 197 0
 258 00f8 98F90120 		ldrsb	r2, [r8, #1]
 193:src/mxml-string.c **** 	  *tptr++ = *format;
 259              		.loc 1 193 0
 260 00fc 38BF     		it	cc
 261 00fe 0135     		addcc	r5, r5, #1
 262              	.LVL33:
 263              		.loc 1 197 0
 264 0100 2A2A     		cmp	r2, #42
 195:src/mxml-string.c **** 
 265              		.loc 1 195 0
 266 0102 08F10103 		add	r3, r8, #1
 267              	.LVL34:
 268              		.loc 1 197 0
 269 0106 02D0     		beq	.L24
 270 0108 9846     		mov	r8, r3
 271 010a 0023     		movs	r3, #0
 272              	.LVL35:
 273 010c 16E0     		b	.L101
 274              	.LVL36:
 275              	.L24:
 198:src/mxml-string.c **** 	{
 199:src/mxml-string.c ****          /*
 200:src/mxml-string.c **** 	  * Get precision from argument...
 201:src/mxml-string.c **** 	  */
 202:src/mxml-string.c **** 
 203:src/mxml-string.c **** 	  format ++;
 204:src/mxml-string.c **** 	  prec = va_arg(ap, int);
 205:src/mxml-string.c **** 
 206:src/mxml-string.c **** 	  snprintf(tptr, sizeof(tformat) - (tptr - tformat), "%d", prec);
 276              		.loc 1 206 0
 277 010e C5EB0C01 		rsb	r1, r5, ip
 204:src/mxml-string.c **** 
 278              		.loc 1 204 0
 279 0112 3368     		ldr	r3, [r6]
 280              	.LVL37:
 281              		.loc 1 206 0
 282 0114 2846     		mov	r0, r5
 283 0116 6431     		adds	r1, r1, #100
 284 0118 964A     		ldr	r2, .L113+4
 285 011a CDF80CC0 		str	ip, [sp, #12]
 204:src/mxml-string.c **** 
 286              		.loc 1 204 0
 287 011e 0193     		str	r3, [sp, #4]
 288              		.loc 1 206 0
ARM GAS  C:\Users\AHMED~1.ELE\AppData\Local\Temp\ccJtYU5O.s 			page 10


 289 0120 FFF7FEFF 		bl	_mxml_snprintf
 290              	.LVL38:
 207:src/mxml-string.c **** 	  tptr += strlen(tptr);
 291              		.loc 1 207 0
 292 0124 2846     		mov	r0, r5
 293 0126 FFF7FEFF 		bl	strlen
 294              	.LVL39:
 204:src/mxml-string.c **** 
 295              		.loc 1 204 0
 296 012a 06F1040B 		add	fp, r6, #4
 203:src/mxml-string.c **** 	  prec = va_arg(ap, int);
 297              		.loc 1 203 0
 298 012e 08F10208 		add	r8, r8, #2
 299              	.LVL40:
 204:src/mxml-string.c **** 
 300              		.loc 1 204 0
 301 0132 5E46     		mov	r6, fp
 302              		.loc 1 207 0
 303 0134 0544     		add	r5, r5, r0
 304              	.LVL41:
 305 0136 DDF80CC0 		ldr	ip, [sp, #12]
 306 013a 1BE0     		b	.L22
 307              	.LVL42:
 308              	.L101:
 208:src/mxml-string.c **** 	}
 209:src/mxml-string.c **** 	else
 210:src/mxml-string.c **** 	{
 211:src/mxml-string.c **** 	  prec = 0;
 212:src/mxml-string.c **** 
 213:src/mxml-string.c **** 	  while (isdigit(*format & 255))
 214:src/mxml-string.c **** 	  {
 215:src/mxml-string.c **** 	    if (tptr < (tformat + sizeof(tformat) - 1))
 216:src/mxml-string.c **** 	      *tptr++ = *format;
 217:src/mxml-string.c **** 
 218:src/mxml-string.c **** 	    prec = prec * 10 + *format++ - '0';
 309              		.loc 1 218 0
 310 013c 0193     		str	r3, [sp, #4]
 311              	.LVL43:
 213:src/mxml-string.c **** 	  {
 312              		.loc 1 213 0
 313 013e 8E4B     		ldr	r3, .L113+8
 314              	.LVL44:
 315 0140 98F80020 		ldrb	r2, [r8]	@ zero_extendqisi2
 316 0144 1B68     		ldr	r3, [r3]
 317 0146 1344     		add	r3, r3, r2
 318 0148 5B78     		ldrb	r3, [r3, #1]	@ zero_extendqisi2
 319 014a 5B07     		lsls	r3, r3, #29
 320 014c 12D5     		bpl	.L22
 321              	.LVL45:
 215:src/mxml-string.c **** 	      *tptr++ = *format;
 322              		.loc 1 215 0
 323 014e 0CF16303 		add	r3, ip, #99
 324 0152 9D42     		cmp	r5, r3
 325              		.loc 1 218 0
 326 0154 0199     		ldr	r1, [sp, #4]
 216:src/mxml-string.c **** 
 327              		.loc 1 216 0
ARM GAS  C:\Users\AHMED~1.ELE\AppData\Local\Temp\ccJtYU5O.s 			page 11


 328 0156 38BF     		it	cc
 329 0158 2A70     		strbcc	r2, [r5]
 330              		.loc 1 218 0
 331 015a 4FF00A03 		mov	r3, #10
 332 015e 18F9012B 		ldrsb	r2, [r8], #1
 333              	.LVL46:
 216:src/mxml-string.c **** 
 334              		.loc 1 216 0
 335 0162 38BF     		it	cc
 336 0164 0135     		addcc	r5, r5, #1
 337              	.LVL47:
 338              		.loc 1 218 0
 339 0166 03FB0123 		mla	r3, r3, r1, r2
 340 016a 303B     		subs	r3, r3, #48
 341 016c E6E7     		b	.L101
 342              	.LVL48:
 343              	.L57:
 219:src/mxml-string.c **** 	  }
 220:src/mxml-string.c **** 	}
 221:src/mxml-string.c ****       }
 222:src/mxml-string.c ****       else
 223:src/mxml-string.c ****         prec = -1;
 344              		.loc 1 223 0
 345 016e 4FF0FF33 		mov	r3, #-1
 346 0172 0193     		str	r3, [sp, #4]
 347              	.L22:
 348              	.LVL49:
 224:src/mxml-string.c **** 
 225:src/mxml-string.c ****       if (*format == 'l' && format[1] == 'l')
 349              		.loc 1 225 0
 350 0174 98F80010 		ldrb	r1, [r8]	@ zero_extendqisi2
 351 0178 4BB2     		sxtb	r3, r1
 352 017a 6C2B     		cmp	r3, #108
 353 017c 10D1     		bne	.L28
 354              		.loc 1 225 0 is_stmt 0 discriminator 1
 355 017e 98F90120 		ldrsb	r2, [r8, #1]
 356 0182 6C2A     		cmp	r2, #108
 357 0184 10D1     		bne	.L29
 358              	.LVL50:
 226:src/mxml-string.c ****       {
 227:src/mxml-string.c ****         size = 'L';
 228:src/mxml-string.c **** 
 229:src/mxml-string.c **** 	if (tptr < (tformat + sizeof(tformat) - 2))
 359              		.loc 1 229 0 is_stmt 1
 360 0186 0CF16203 		add	r3, ip, #98
 361 018a 9D42     		cmp	r5, r3
 362              	.LVL51:
 230:src/mxml-string.c **** 	{
 231:src/mxml-string.c **** 	  *tptr++ = 'l';
 363              		.loc 1 231 0
 364 018c 38BF     		it	cc
 365 018e 2B46     		movcc	r3, r5
 232:src/mxml-string.c **** 	  *tptr++ = 'l';
 233:src/mxml-string.c **** 	}
 234:src/mxml-string.c **** 
 235:src/mxml-string.c **** 	format += 2;
 366              		.loc 1 235 0
ARM GAS  C:\Users\AHMED~1.ELE\AppData\Local\Temp\ccJtYU5O.s 			page 12


 367 0190 08F10208 		add	r8, r8, #2
 368              	.LVL52:
 231:src/mxml-string.c **** 	  *tptr++ = 'l';
 369              		.loc 1 231 0
 370 0194 3EBF     		ittt	cc
 371 0196 03F8022B 		strbcc	r2, [r3], #2
 372              	.LVL53:
 232:src/mxml-string.c **** 	  *tptr++ = 'l';
 373              		.loc 1 232 0
 374 019a 6A70     		strbcc	r2, [r5, #1]
 375 019c 1D46     		movcc	r5, r3
 376              	.LVL54:
 377              		.loc 1 235 0
 378 019e 0BE0     		b	.L31
 379              	.LVL55:
 380              	.L28:
 236:src/mxml-string.c ****       }
 237:src/mxml-string.c ****       else if (*format == 'h' || *format == 'l' || *format == 'L')
 381              		.loc 1 237 0
 382 01a0 682B     		cmp	r3, #104
 383 01a2 01D0     		beq	.L29
 384              		.loc 1 237 0 is_stmt 0 discriminator 2
 385 01a4 4C2B     		cmp	r3, #76
 386 01a6 07D1     		bne	.L31
 387              	.L29:
 388              	.LVL56:
 238:src/mxml-string.c ****       {
 239:src/mxml-string.c **** 	if (tptr < (tformat + sizeof(tformat) - 1))
 389              		.loc 1 239 0 is_stmt 1
 390 01a8 0CF16303 		add	r3, ip, #99
 391 01ac 9D42     		cmp	r5, r3
 240:src/mxml-string.c **** 	  *tptr++ = *format;
 241:src/mxml-string.c **** 
 242:src/mxml-string.c ****         size = *format++;
 392              		.loc 1 242 0
 393 01ae 08F10108 		add	r8, r8, #1
 394              	.LVL57:
 240:src/mxml-string.c **** 	  *tptr++ = *format;
 395              		.loc 1 240 0
 396 01b2 3CBF     		itt	cc
 397 01b4 2970     		strbcc	r1, [r5]
 398 01b6 0135     		addcc	r5, r5, #1
 399              	.LVL58:
 400              	.L31:
 243:src/mxml-string.c ****       }
 244:src/mxml-string.c **** 
 245:src/mxml-string.c ****       if (!*format)
 401              		.loc 1 245 0
 402 01b8 98F80030 		ldrb	r3, [r8]	@ zero_extendqisi2
 403 01bc 002B     		cmp	r3, #0
 404 01be 00F0ED80 		beq	.L56
 405              	.LVL59:
 246:src/mxml-string.c ****         break;
 247:src/mxml-string.c **** 
 248:src/mxml-string.c ****       if (tptr < (tformat + sizeof(tformat) - 1))
 406              		.loc 1 248 0
 407 01c2 0CF16302 		add	r2, ip, #99
ARM GAS  C:\Users\AHMED~1.ELE\AppData\Local\Temp\ccJtYU5O.s 			page 13


 408 01c6 9542     		cmp	r5, r2
 249:src/mxml-string.c ****         *tptr++ = *format;
 250:src/mxml-string.c **** 
 251:src/mxml-string.c ****       type  = *format++;
 252:src/mxml-string.c ****       *tptr = '\0';
 409              		.loc 1 252 0
 410 01c8 4FF00002 		mov	r2, #0
 249:src/mxml-string.c ****         *tptr++ = *format;
 411              		.loc 1 249 0
 412 01cc 38BF     		it	cc
 413 01ce 2B70     		strbcc	r3, [r5]
 251:src/mxml-string.c ****       *tptr = '\0';
 414              		.loc 1 251 0
 415 01d0 98F80030 		ldrb	r3, [r8]	@ zero_extendqisi2
 249:src/mxml-string.c ****         *tptr++ = *format;
 416              		.loc 1 249 0
 417 01d4 38BF     		it	cc
 418 01d6 0135     		addcc	r5, r5, #1
 419              	.LVL60:
 253:src/mxml-string.c **** 
 254:src/mxml-string.c ****       switch (type)
 420              		.loc 1 254 0
 421 01d8 5BB2     		sxtb	r3, r3
 422 01da 672B     		cmp	r3, #103
 251:src/mxml-string.c ****       *tptr = '\0';
 423              		.loc 1 251 0
 424 01dc 08F1010B 		add	fp, r8, #1
 425              	.LVL61:
 252:src/mxml-string.c **** 
 426              		.loc 1 252 0
 427 01e0 2A70     		strb	r2, [r5]
 428              		.loc 1 254 0
 429 01e2 0FDC     		bgt	.L35
 430 01e4 652B     		cmp	r3, #101
 431 01e6 1FDA     		bge	.L36
 432 01e8 582B     		cmp	r3, #88
 433 01ea 45D0     		beq	.L37
 434 01ec 05DC     		bgt	.L38
 435 01ee 452B     		cmp	r3, #69
 436 01f0 1AD0     		beq	.L36
 437 01f2 472B     		cmp	r3, #71
 438 01f4 18D0     		beq	.L36
 439 01f6 422B     		cmp	r3, #66
 440 01f8 0CE0     		b	.L105
 441              	.L38:
 442 01fa 632B     		cmp	r3, #99
 443 01fc 60D0     		beq	.L39
 444 01fe 3BDC     		bgt	.L37
 445 0200 622B     		cmp	r3, #98
 446 0202 07E0     		b	.L105
 447              	.L35:
 448 0204 702B     		cmp	r3, #112
 449 0206 37D0     		beq	.L37
 450 0208 07DC     		bgt	.L41
 451 020a 6E2B     		cmp	r3, #110
 452 020c 00F0AB80 		beq	.L42
 453 0210 32DC     		bgt	.L37
ARM GAS  C:\Users\AHMED~1.ELE\AppData\Local\Temp\ccJtYU5O.s 			page 14


 454 0212 692B     		cmp	r3, #105
 455              	.L105:
 456 0214 7FF400AF 		bne	.L10
 457 0218 2EE0     		b	.L37
 458              	.L41:
 459 021a 752B     		cmp	r3, #117
 460 021c 2CD0     		beq	.L37
 461 021e 782B     		cmp	r3, #120
 462 0220 2AD0     		beq	.L37
 463 0222 732B     		cmp	r3, #115
 464 0224 66D0     		beq	.L43
 465 0226 F7E6     		b	.L10
 466              	.L36:
 255:src/mxml-string.c ****       {
 256:src/mxml-string.c **** 	case 'E' : /* Floating point formats */
 257:src/mxml-string.c **** 	case 'G' :
 258:src/mxml-string.c **** 	case 'e' :
 259:src/mxml-string.c **** 	case 'f' :
 260:src/mxml-string.c **** 	case 'g' :
 261:src/mxml-string.c **** 	    if ((width + 2) > sizeof(temp))
 467              		.loc 1 261 0
 468 0228 0237     		adds	r7, r7, #2
 469              	.LVL62:
 470 022a B7F5806F 		cmp	r7, #1024
 471 022e 3FF6F3AE 		bhi	.L10
 262:src/mxml-string.c **** 	      break;
 263:src/mxml-string.c **** 
 264:src/mxml-string.c **** 	    sprintf(temp, tformat, va_arg(ap, double));
 472              		.loc 1 264 0
 473 0232 0736     		adds	r6, r6, #7
 474 0234 26F00703 		bic	r3, r6, #7
 475 0238 6146     		mov	r1, ip
 476 023a 03F10806 		add	r6, r3, #8
 477 023e 1EA8     		add	r0, sp, #120
 478 0240 D3E90023 		ldrd	r2, [r3]
 479 0244 FFF7FEFF 		bl	sprintf
 480              	.LVL63:
 265:src/mxml-string.c **** 
 266:src/mxml-string.c ****             bytes += strlen(temp);
 481              		.loc 1 266 0
 482 0248 1EA8     		add	r0, sp, #120
 483 024a FFF7FEFF 		bl	strlen
 484              	.LVL64:
 485 024e 8244     		add	r10, r10, r0
 486              	.LVL65:
 267:src/mxml-string.c **** 
 268:src/mxml-string.c ****             if (bufptr)
 487              		.loc 1 268 0
 488 0250 002C     		cmp	r4, #0
 489 0252 3FF4E1AE 		beq	.L10
 269:src/mxml-string.c **** 	    {
 270:src/mxml-string.c **** 	      if ((bufptr + strlen(temp)) > bufend)
 490              		.loc 1 270 0
 491 0256 2044     		add	r0, r0, r4
 492 0258 8145     		cmp	r9, r0
 271:src/mxml-string.c **** 	      {
 272:src/mxml-string.c **** 		strncpy(bufptr, temp, (size_t)(bufend - bufptr));
ARM GAS  C:\Users\AHMED~1.ELE\AppData\Local\Temp\ccJtYU5O.s 			page 15


 493              		.loc 1 272 0
 494 025a 1EA9     		add	r1, sp, #120
 495 025c 2046     		mov	r0, r4
 270:src/mxml-string.c **** 	      {
 496              		.loc 1 270 0
 497 025e 04D2     		bcs	.L44
 498              	.LVL66:
 499              		.loc 1 272 0
 500 0260 C4EB0902 		rsb	r2, r4, r9
 501 0264 FFF7FEFF 		bl	strncpy
 502              	.LVL67:
 503 0268 21E0     		b	.L106
 504              	.LVL68:
 505              	.L44:
 273:src/mxml-string.c **** 		bufptr = bufend;
 274:src/mxml-string.c **** 	      }
 275:src/mxml-string.c **** 	      else
 276:src/mxml-string.c **** 	      {
 277:src/mxml-string.c **** 		strcpy(bufptr, temp);
 506              		.loc 1 277 0
 507 026a FFF7FEFF 		bl	strcpy
 508              	.LVL69:
 278:src/mxml-string.c **** 		bufptr += strlen(temp);
 509              		.loc 1 278 0
 510 026e 1EA8     		add	r0, sp, #120
 511 0270 FFF7FEFF 		bl	strlen
 512              	.LVL70:
 513 0274 0444     		add	r4, r4, r0
 514              	.LVL71:
 515 0276 CFE6     		b	.L10
 516              	.LVL72:
 517              	.L37:
 279:src/mxml-string.c **** 	      }
 280:src/mxml-string.c **** 	    }
 281:src/mxml-string.c **** 	    break;
 282:src/mxml-string.c **** 
 283:src/mxml-string.c ****         case 'B' : /* Integer formats */
 284:src/mxml-string.c **** 	case 'X' :
 285:src/mxml-string.c **** 	case 'b' :
 286:src/mxml-string.c ****         case 'd' :
 287:src/mxml-string.c **** 	case 'i' :
 288:src/mxml-string.c **** 	case 'o' :
 289:src/mxml-string.c **** 	case 'u' :
 290:src/mxml-string.c **** 	case 'x' :
 291:src/mxml-string.c **** 	    if ((width + 2) > sizeof(temp))
 518              		.loc 1 291 0
 519 0278 0237     		adds	r7, r7, #2
 520              	.LVL73:
 521 027a B7F5806F 		cmp	r7, #1024
 522 027e 3FF6CBAE 		bhi	.L10
 292:src/mxml-string.c **** 	      break;
 293:src/mxml-string.c **** 
 294:src/mxml-string.c **** #ifdef HAVE_LONG_LONG
 295:src/mxml-string.c **** 	    if (size == 'L')
 296:src/mxml-string.c **** 	      sprintf(temp, tformat, va_arg(ap, long long));
 297:src/mxml-string.c **** 	    else
 298:src/mxml-string.c **** #endif /* HAVE_LONG_LONG */
ARM GAS  C:\Users\AHMED~1.ELE\AppData\Local\Temp\ccJtYU5O.s 			page 16


 299:src/mxml-string.c **** 	    sprintf(temp, tformat, va_arg(ap, int));
 523              		.loc 1 299 0
 524 0282 6146     		mov	r1, ip
 525 0284 3268     		ldr	r2, [r6]
 526 0286 1EA8     		add	r0, sp, #120
 527 0288 FFF7FEFF 		bl	sprintf
 528              	.LVL74:
 300:src/mxml-string.c **** 
 301:src/mxml-string.c ****             bytes += strlen(temp);
 529              		.loc 1 301 0
 530 028c 1EA8     		add	r0, sp, #120
 531 028e FFF7FEFF 		bl	strlen
 532              	.LVL75:
 299:src/mxml-string.c **** 
 533              		.loc 1 299 0
 534 0292 351D     		adds	r5, r6, #4
 535              	.LVL76:
 536              		.loc 1 301 0
 537 0294 8244     		add	r10, r10, r0
 538              	.LVL77:
 302:src/mxml-string.c **** 
 303:src/mxml-string.c **** 	    if (bufptr)
 539              		.loc 1 303 0
 540 0296 002C     		cmp	r4, #0
 541 0298 7CD0     		beq	.L59
 304:src/mxml-string.c **** 	    {
 305:src/mxml-string.c **** 	      if ((bufptr + strlen(temp)) > bufend)
 542              		.loc 1 305 0
 543 029a 2044     		add	r0, r0, r4
 544 029c 8145     		cmp	r9, r0
 306:src/mxml-string.c **** 	      {
 307:src/mxml-string.c **** 		strncpy(bufptr, temp, (size_t)(bufend - bufptr));
 545              		.loc 1 307 0
 546 029e 1EA9     		add	r1, sp, #120
 547 02a0 2046     		mov	r0, r4
 305:src/mxml-string.c **** 	      {
 548              		.loc 1 305 0
 549 02a2 06D2     		bcs	.L46
 550              	.LVL78:
 551              		.loc 1 307 0
 552 02a4 C4EB0902 		rsb	r2, r4, r9
 553 02a8 FFF7FEFF 		bl	strncpy
 554              	.LVL79:
 299:src/mxml-string.c **** 
 555              		.loc 1 299 0
 556 02ac 2E46     		mov	r6, r5
 557              	.LVL80:
 558              	.L106:
 559 02ae 4C46     		mov	r4, r9
 560 02b0 B2E6     		b	.L10
 561              	.LVL81:
 562              	.L46:
 308:src/mxml-string.c **** 		bufptr = bufend;
 309:src/mxml-string.c **** 	      }
 310:src/mxml-string.c **** 	      else
 311:src/mxml-string.c **** 	      {
 312:src/mxml-string.c **** 		strcpy(bufptr, temp);
ARM GAS  C:\Users\AHMED~1.ELE\AppData\Local\Temp\ccJtYU5O.s 			page 17


 313:src/mxml-string.c **** 		bufptr += strlen(temp);
 314:src/mxml-string.c **** 	      }
 315:src/mxml-string.c **** 	    }
 316:src/mxml-string.c **** 	    break;
 317:src/mxml-string.c **** 
 318:src/mxml-string.c **** 	case 'p' : /* Pointer value */
 319:src/mxml-string.c **** 	    if ((width + 2) > sizeof(temp))
 320:src/mxml-string.c **** 	      break;
 321:src/mxml-string.c **** 
 322:src/mxml-string.c **** 	    sprintf(temp, tformat, va_arg(ap, void *));
 323:src/mxml-string.c **** 
 324:src/mxml-string.c ****             bytes += strlen(temp);
 325:src/mxml-string.c **** 
 326:src/mxml-string.c **** 	    if (bufptr)
 327:src/mxml-string.c **** 	    {
 328:src/mxml-string.c **** 	      if ((bufptr + strlen(temp)) > bufend)
 329:src/mxml-string.c **** 	      {
 330:src/mxml-string.c **** 		strncpy(bufptr, temp, (size_t)(bufend - bufptr));
 331:src/mxml-string.c **** 		bufptr = bufend;
 332:src/mxml-string.c **** 	      }
 333:src/mxml-string.c **** 	      else
 334:src/mxml-string.c **** 	      {
 335:src/mxml-string.c **** 		strcpy(bufptr, temp);
 563              		.loc 1 335 0
 564 02b2 FFF7FEFF 		bl	strcpy
 565              	.LVL82:
 336:src/mxml-string.c **** 		bufptr += strlen(temp);
 566              		.loc 1 336 0
 567 02b6 1EA8     		add	r0, sp, #120
 568 02b8 FFF7FEFF 		bl	strlen
 569              	.LVL83:
 570 02bc 0444     		add	r4, r4, r0
 571              	.LVL84:
 572 02be 69E0     		b	.L59
 573              	.LVL85:
 574              	.L39:
 337:src/mxml-string.c **** 	      }
 338:src/mxml-string.c **** 	    }
 339:src/mxml-string.c **** 	    break;
 340:src/mxml-string.c **** 
 341:src/mxml-string.c ****         case 'c' : /* Character or character array */
 342:src/mxml-string.c **** 	    bytes += width;
 575              		.loc 1 342 0
 576 02c0 BA44     		add	r10, r10, r7
 577              	.LVL86:
 343:src/mxml-string.c **** 
 344:src/mxml-string.c **** 	    if (bufptr)
 578              		.loc 1 344 0
 579 02c2 002C     		cmp	r4, #0
 580 02c4 3FF4A8AE 		beq	.L10
 345:src/mxml-string.c **** 	    {
 346:src/mxml-string.c **** 	      if (width <= 1)
 581              		.loc 1 346 0
 582 02c8 012F     		cmp	r7, #1
 583 02ca 06F10405 		add	r5, r6, #4
 584              	.LVL87:
 585 02ce 05DC     		bgt	.L47
ARM GAS  C:\Users\AHMED~1.ELE\AppData\Local\Temp\ccJtYU5O.s 			page 18


 586              	.LVL88:
 347:src/mxml-string.c **** 	        *bufptr++ = va_arg(ap, int);
 587              		.loc 1 347 0
 588 02d0 3368     		ldr	r3, [r6]
 589 02d2 0134     		adds	r4, r4, #1
 590              	.LVL89:
 591 02d4 04F8013C 		strb	r3, [r4, #-1]
 592 02d8 2E46     		mov	r6, r5
 593 02da 9DE6     		b	.L10
 594              	.L47:
 348:src/mxml-string.c **** 	      else
 349:src/mxml-string.c **** 	      {
 350:src/mxml-string.c **** 		if ((bufptr + width) > bufend)
 595              		.loc 1 350 0
 596 02dc E319     		adds	r3, r4, r7
 597 02de 9945     		cmp	r9, r3
 351:src/mxml-string.c **** 		  width = bufend - bufptr;
 598              		.loc 1 351 0
 599 02e0 38BF     		it	cc
 600 02e2 C4EB0907 		rsbcc	r7, r4, r9
 601              	.LVL90:
 352:src/mxml-string.c **** 
 353:src/mxml-string.c **** 		memcpy(bufptr, va_arg(ap, char *), (size_t)width);
 602              		.loc 1 353 0
 603 02e6 2046     		mov	r0, r4
 604 02e8 3168     		ldr	r1, [r6]
 605 02ea 3A46     		mov	r2, r7
 606 02ec FFF7FEFF 		bl	memcpy
 607              	.LVL91:
 354:src/mxml-string.c **** 		bufptr += width;
 608              		.loc 1 354 0
 609 02f0 3C44     		add	r4, r4, r7
 610              	.LVL92:
 611 02f2 4FE0     		b	.L59
 612              	.LVL93:
 613              	.L43:
 355:src/mxml-string.c **** 	      }
 356:src/mxml-string.c **** 	    }
 357:src/mxml-string.c **** 	    break;
 358:src/mxml-string.c **** 
 359:src/mxml-string.c **** 	case 's' : /* String */
 360:src/mxml-string.c **** 	    if ((s = va_arg(ap, char *)) == NULL)
 614              		.loc 1 360 0
 615 02f4 331D     		adds	r3, r6, #4
 616 02f6 D6F80080 		ldr	r8, [r6]
 617 02fa 0393     		str	r3, [sp, #12]
 618              	.LVL94:
 361:src/mxml-string.c **** 	      s = "(null)";
 619              		.loc 1 361 0
 620 02fc 1F4B     		ldr	r3, .L113+12
 621 02fe B8F1000F 		cmp	r8, #0
 622 0302 08BF     		it	eq
 623 0304 9846     		moveq	r8, r3
 624              	.LVL95:
 362:src/mxml-string.c **** 
 363:src/mxml-string.c **** 	    slen = strlen(s);
 625              		.loc 1 363 0
ARM GAS  C:\Users\AHMED~1.ELE\AppData\Local\Temp\ccJtYU5O.s 			page 19


 626 0306 4046     		mov	r0, r8
 627 0308 FFF7FEFF 		bl	strlen
 628              	.LVL96:
 364:src/mxml-string.c **** 	    if (slen > width && prec != width)
 629              		.loc 1 364 0
 630 030c B842     		cmp	r0, r7
 631 030e 03DD     		ble	.L50
 632              		.loc 1 364 0 is_stmt 0 discriminator 1
 633 0310 019B     		ldr	r3, [sp, #4]
 634 0312 BB42     		cmp	r3, r7
 635 0314 18BF     		it	ne
 636 0316 0746     		movne	r7, r0
 637              	.LVL97:
 638              	.L50:
 365:src/mxml-string.c **** 	      width = slen;
 366:src/mxml-string.c **** 
 367:src/mxml-string.c ****             bytes += width;
 639              		.loc 1 367 0 is_stmt 1
 640 0318 BA44     		add	r10, r10, r7
 641              	.LVL98:
 368:src/mxml-string.c **** 
 369:src/mxml-string.c **** 	    if (bufptr)
 642              		.loc 1 369 0
 643 031a 002C     		cmp	r4, #0
 644 031c 3CD0     		beq	.L60
 370:src/mxml-string.c **** 	    {
 371:src/mxml-string.c **** 	      if ((bufptr + width) > bufend)
 645              		.loc 1 371 0
 646 031e E319     		adds	r3, r4, r7
 647 0320 9945     		cmp	r9, r3
 372:src/mxml-string.c **** 	        width = bufend - bufptr;
 648              		.loc 1 372 0
 649 0322 38BF     		it	cc
 650 0324 C4EB0907 		rsbcc	r7, r4, r9
 651              	.LVL99:
 652 0328 B842     		cmp	r0, r7
 653 032a A8BF     		it	ge
 654 032c 3846     		movge	r0, r7
 655              	.LVL100:
 656 032e 0646     		mov	r6, r0
 657              	.LVL101:
 373:src/mxml-string.c **** 
 374:src/mxml-string.c ****               if (slen > width)
 375:src/mxml-string.c **** 	        slen = width;
 376:src/mxml-string.c **** 
 377:src/mxml-string.c **** 	      if (sign == '-')
 658              		.loc 1 377 0
 659 0330 9DF90800 		ldrsb	r0, [sp, #8]
 660              	.LVL102:
 661 0334 BD1B     		subs	r5, r7, r6
 662              	.LVL103:
 663 0336 2D28     		cmp	r0, #45
 378:src/mxml-string.c **** 	      {
 379:src/mxml-string.c **** 		strncpy(bufptr, s, (size_t)slen);
 664              		.loc 1 379 0
 665 0338 2046     		mov	r0, r4
 377:src/mxml-string.c **** 	      {
ARM GAS  C:\Users\AHMED~1.ELE\AppData\Local\Temp\ccJtYU5O.s 			page 20


 666              		.loc 1 377 0
 667 033a 09D1     		bne	.L52
 668              	.LVL104:
 669              		.loc 1 379 0
 670 033c 4146     		mov	r1, r8
 671 033e 3246     		mov	r2, r6
 672 0340 FFF7FEFF 		bl	strncpy
 673              	.LVL105:
 380:src/mxml-string.c **** 		memset(bufptr + slen, ' ', (size_t)(width - slen));
 674              		.loc 1 380 0
 675 0344 A019     		adds	r0, r4, r6
 676 0346 2021     		movs	r1, #32
 677 0348 2A46     		mov	r2, r5
 678 034a FFF7FEFF 		bl	memset
 679              	.LVL106:
 680 034e 08E0     		b	.L53
 681              	.LVL107:
 682              	.L52:
 381:src/mxml-string.c **** 	      }
 382:src/mxml-string.c **** 	      else
 383:src/mxml-string.c **** 	      {
 384:src/mxml-string.c **** 		memset(bufptr, ' ', (size_t)(width - slen));
 683              		.loc 1 384 0
 684 0350 2021     		movs	r1, #32
 685 0352 2A46     		mov	r2, r5
 686 0354 FFF7FEFF 		bl	memset
 687              	.LVL108:
 385:src/mxml-string.c **** 		strncpy(bufptr + width - slen, s, (size_t)slen);
 688              		.loc 1 385 0
 689 0358 6019     		adds	r0, r4, r5
 690 035a 4146     		mov	r1, r8
 691 035c 3246     		mov	r2, r6
 692 035e FFF7FEFF 		bl	strncpy
 693              	.LVL109:
 694              	.L53:
 386:src/mxml-string.c **** 	      }
 387:src/mxml-string.c **** 
 388:src/mxml-string.c **** 	      bufptr += width;
 695              		.loc 1 388 0
 696 0362 3C44     		add	r4, r4, r7
 697              	.LVL110:
 698 0364 18E0     		b	.L60
 699              	.LVL111:
 700              	.L42:
 389:src/mxml-string.c **** 	    }
 390:src/mxml-string.c **** 	    break;
 391:src/mxml-string.c **** 
 392:src/mxml-string.c **** 	case 'n' : /* Output number of chars so far */
 393:src/mxml-string.c **** 	    *(va_arg(ap, int *)) = bytes;
 701              		.loc 1 393 0
 702 0366 3368     		ldr	r3, [r6]
 703 0368 0436     		adds	r6, r6, #4
 704 036a C3F800A0 		str	r10, [r3]
 394:src/mxml-string.c **** 	    break;
 705              		.loc 1 394 0
 706 036e 53E6     		b	.L10
 707              	.L114:
ARM GAS  C:\Users\AHMED~1.ELE\AppData\Local\Temp\ccJtYU5O.s 			page 21


 708              		.align	2
 709              	.L113:
 710 0370 07000000 		.word	.LC1
 711 0374 0D000000 		.word	.LC2
 712 0378 00000000 		.word	__ctype_ptr__
 713 037c 00000000 		.word	.LC0
 714              	.LVL112:
 715              	.L11:
 395:src/mxml-string.c ****       }
 396:src/mxml-string.c ****     }
 397:src/mxml-string.c ****     else
 398:src/mxml-string.c ****     {
 399:src/mxml-string.c ****       bytes ++;
 716              		.loc 1 399 0
 717 0380 0AF1010A 		add	r10, r10, #1
 718              	.LVL113:
 400:src/mxml-string.c **** 
 401:src/mxml-string.c ****       if (bufptr && bufptr < bufend)
 719              		.loc 1 401 0
 720 0384 1CB1     		cbz	r4, .L54
 721              	.LVL114:
 722              		.loc 1 401 0 is_stmt 0 discriminator 1
 723 0386 4C45     		cmp	r4, r9
 402:src/mxml-string.c ****         *bufptr++ = *format;
 724              		.loc 1 402 0 is_stmt 1 discriminator 1
 725 0388 3CBF     		itt	cc
 726 038a 2370     		strbcc	r3, [r4]
 727 038c 0134     		addcc	r4, r4, #1
 728              	.LVL115:
 729              	.L54:
 403:src/mxml-string.c **** 
 404:src/mxml-string.c ****       format ++;
 730              		.loc 1 404 0
 731 038e 0BF1010B 		add	fp, fp, #1
 732              	.LVL116:
 733 0392 41E6     		b	.L10
 734              	.LVL117:
 735              	.L59:
 322:src/mxml-string.c **** 
 736              		.loc 1 322 0
 737 0394 2E46     		mov	r6, r5
 738 0396 3FE6     		b	.L10
 739              	.LVL118:
 740              	.L60:
 360:src/mxml-string.c **** 	      s = "(null)";
 741              		.loc 1 360 0
 742 0398 039E     		ldr	r6, [sp, #12]
 743 039a 3DE6     		b	.L10
 744              	.LVL119:
 745              	.L56:
 405:src/mxml-string.c ****     }
 406:src/mxml-string.c ****   }
 407:src/mxml-string.c **** 
 408:src/mxml-string.c ****  /*
 409:src/mxml-string.c ****   * Nul-terminate the string and return the number of characters needed.
 410:src/mxml-string.c ****   */
 411:src/mxml-string.c **** 
ARM GAS  C:\Users\AHMED~1.ELE\AppData\Local\Temp\ccJtYU5O.s 			page 22


 412:src/mxml-string.c ****   *bufptr = '\0';
 746              		.loc 1 412 0
 747 039c 0023     		movs	r3, #0
 413:src/mxml-string.c **** 
 414:src/mxml-string.c ****   return (bytes);
 415:src/mxml-string.c **** }
 748              		.loc 1 415 0
 749 039e 5046     		mov	r0, r10
 412:src/mxml-string.c **** 
 750              		.loc 1 412 0
 751 03a0 2370     		strb	r3, [r4]
 752              		.loc 1 415 0
 753 03a2 0DF27C4D 		addw	sp, sp, #1148
 754              		.cfi_def_cfa_offset 36
 755              		@ sp needed
 756 03a6 BDE8F08F 		pop	{r4, r5, r6, r7, r8, r9, r10, fp, pc}
 757              		.cfi_endproc
 758              	.LFE3:
 759              		.size	_mxml_vsnprintf, .-_mxml_vsnprintf
 760 03aa 00BF     		.section	.text._mxml_snprintf,"ax",%progbits
 761              		.align	1
 762              		.global	_mxml_snprintf
 763              		.thumb
 764              		.thumb_func
 765              		.type	_mxml_snprintf, %function
 766              	_mxml_snprintf:
 767              	.LFB0:
  49:src/mxml-string.c ****   va_list	ap;			/* Argument list */
 768              		.loc 1 49 0
 769              		.cfi_startproc
 770              		@ args = 4, pretend = 8, frame = 8
 771              		@ frame_needed = 0, uses_anonymous_args = 1
 772              	.LVL120:
 773 0000 0CB4     		push	{r2, r3}
 774              		.cfi_def_cfa_offset 8
 775              		.cfi_offset 2, -8
 776              		.cfi_offset 3, -4
 777 0002 07B5     		push	{r0, r1, r2, lr}
 778              		.cfi_def_cfa_offset 24
 779              		.cfi_offset 14, -12
  49:src/mxml-string.c ****   va_list	ap;			/* Argument list */
 780              		.loc 1 49 0
 781 0004 04AB     		add	r3, sp, #16
 782 0006 53F8042B 		ldr	r2, [r3], #4
  54:src/mxml-string.c ****   bytes = vsnprintf(buffer, bufsize, format, ap);
 783              		.loc 1 54 0
 784 000a 0193     		str	r3, [sp, #4]
  55:src/mxml-string.c ****   va_end(ap);
 785              		.loc 1 55 0
 786 000c FFF7FEFF 		bl	_mxml_vsnprintf
 787              	.LVL121:
  59:src/mxml-string.c **** #endif /* !HAVE_SNPRINTF */
 788              		.loc 1 59 0
 789 0010 03B0     		add	sp, sp, #12
 790              		.cfi_def_cfa_offset 12
 791              		@ sp needed
 792 0012 5DF804EB 		ldr	lr, [sp], #4
ARM GAS  C:\Users\AHMED~1.ELE\AppData\Local\Temp\ccJtYU5O.s 			page 23


 793              		.cfi_restore 14
 794              		.cfi_def_cfa_offset 8
 795 0016 02B0     		add	sp, sp, #8
 796              		.cfi_restore 3
 797              		.cfi_restore 2
 798              		.cfi_def_cfa_offset 0
 799 0018 7047     		bx	lr
 800              		.cfi_endproc
 801              	.LFE0:
 802              		.size	_mxml_snprintf, .-_mxml_snprintf
 803              		.section	.text._mxml_vstrdupf,"ax",%progbits
 804              		.align	1
 805              		.global	_mxml_vstrdupf
 806              		.thumb
 807              		.thumb_func
 808              		.type	_mxml_vstrdupf, %function
 809              	_mxml_vstrdupf:
 810              	.LFB4:
 416:src/mxml-string.c **** #endif /* !HAVE_VSNPRINTF */
 417:src/mxml-string.c **** 
 418:src/mxml-string.c **** 
 419:src/mxml-string.c **** /*
 420:src/mxml-string.c ****  * '_mxml_vstrdupf()' - Format and duplicate a string.
 421:src/mxml-string.c ****  */
 422:src/mxml-string.c **** 
 423:src/mxml-string.c **** char *					/* O - New string pointer */
 424:src/mxml-string.c **** _mxml_vstrdupf(const char *format,	/* I - Printf-style format string */
 425:src/mxml-string.c ****                va_list    ap)		/* I - Pointer to additional arguments */
 426:src/mxml-string.c **** {
 811              		.loc 1 426 0
 812              		.cfi_startproc
 813              		@ args = 0, pretend = 0, frame = 264
 814              		@ frame_needed = 0, uses_anonymous_args = 0
 815              	.LVL122:
 816 0000 F0B5     		push	{r4, r5, r6, r7, lr}
 817              		.cfi_def_cfa_offset 20
 818              		.cfi_offset 4, -20
 819              		.cfi_offset 5, -16
 820              		.cfi_offset 6, -12
 821              		.cfi_offset 7, -8
 822              		.cfi_offset 14, -4
 823 0002 C3B0     		sub	sp, sp, #268
 824              		.cfi_def_cfa_offset 288
 825              		.loc 1 426 0
 826 0004 0746     		mov	r7, r0
 827 0006 0E46     		mov	r6, r1
 427:src/mxml-string.c ****   int		bytes;			/* Number of bytes required */
 428:src/mxml-string.c ****   char		*buffer,		/* String buffer */
 429:src/mxml-string.c **** 		temp[256];		/* Small buffer for first vsnprintf */
 430:src/mxml-string.c ****   va_list	apcopy;			/* Copy of argument list */
 431:src/mxml-string.c **** 
 432:src/mxml-string.c ****  /*
 433:src/mxml-string.c ****   * First format with a tiny buffer; this will tell us how many bytes are
 434:src/mxml-string.c ****   * needed...
 435:src/mxml-string.c ****   */
 436:src/mxml-string.c **** 
 437:src/mxml-string.c ****   va_copy(apcopy, ap);
ARM GAS  C:\Users\AHMED~1.ELE\AppData\Local\Temp\ccJtYU5O.s 			page 24


 828              		.loc 1 437 0
 829 0008 0191     		str	r1, [sp, #4]
 438:src/mxml-string.c ****   bytes = vsnprintf(temp, sizeof(temp), format, apcopy);
 830              		.loc 1 438 0
 831 000a 02A8     		add	r0, sp, #8
 832              	.LVL123:
 833 000c 4FF48071 		mov	r1, #256
 834              	.LVL124:
 835 0010 3A46     		mov	r2, r7
 836              	.LVL125:
 837 0012 3346     		mov	r3, r6
 838 0014 FFF7FEFF 		bl	_mxml_vsnprintf
 839              	.LVL126:
 439:src/mxml-string.c **** 
 440:src/mxml-string.c ****   if (bytes < sizeof(temp))
 840              		.loc 1 440 0
 841 0018 FF28     		cmp	r0, #255
 842 001a 03D8     		bhi	.L117
 441:src/mxml-string.c ****   {
 442:src/mxml-string.c ****    /*
 443:src/mxml-string.c ****     * Hey, the formatted string fits in the tiny buffer, so just dup that...
 444:src/mxml-string.c ****     */
 445:src/mxml-string.c **** 
 446:src/mxml-string.c ****     return (strdup(temp));
 843              		.loc 1 446 0
 844 001c 02A8     		add	r0, sp, #8
 845              	.LVL127:
 846 001e FFF7FEFF 		bl	_mxml_strdup
 847              	.LVL128:
 848 0022 11E0     		b	.L118
 849              	.LVL129:
 850              	.L117:
 447:src/mxml-string.c ****   }
 448:src/mxml-string.c **** 
 449:src/mxml-string.c ****  /*
 450:src/mxml-string.c ****   * Allocate memory for the whole thing and reformat to the new, larger
 451:src/mxml-string.c ****   * buffer...
 452:src/mxml-string.c ****   */
 453:src/mxml-string.c **** 
 454:src/mxml-string.c ****   //if ((buffer = calloc(1, bytes + 1)) != NULL)
 455:src/mxml-string.c ****   if ((buffer = os_malloc(bytes + 1)) != NULL) {
 851              		.loc 1 455 0
 852 0024 451C     		adds	r5, r0, #1
 853 0026 2946     		mov	r1, r5
 854 0028 9220     		movs	r0, #146
 855              	.LVL130:
 856 002a FFF7FEFF 		bl	sys_func1
 857              	.LVL131:
 858 002e 0446     		mov	r4, r0
 859 0030 48B1     		cbz	r0, .L119
 456:src/mxml-string.c ****     memset(buffer, 0, bytes + 1);
 860              		.loc 1 456 0
 861 0032 0021     		movs	r1, #0
 862 0034 2A46     		mov	r2, r5
 863 0036 FFF7FEFF 		bl	memset
 864              	.LVL132:
 457:src/mxml-string.c ****     vsnprintf(buffer, bytes + 1, format, ap);
ARM GAS  C:\Users\AHMED~1.ELE\AppData\Local\Temp\ccJtYU5O.s 			page 25


 865              		.loc 1 457 0
 866 003a 2046     		mov	r0, r4
 867 003c 2946     		mov	r1, r5
 868 003e 3A46     		mov	r2, r7
 869 0040 3346     		mov	r3, r6
 870 0042 FFF7FEFF 		bl	_mxml_vsnprintf
 871              	.LVL133:
 872              	.L119:
 873 0046 2046     		mov	r0, r4
 874              	.LVL134:
 875              	.L118:
 458:src/mxml-string.c ****   }
 459:src/mxml-string.c **** 
 460:src/mxml-string.c ****  /*
 461:src/mxml-string.c ****   * Return the new string...
 462:src/mxml-string.c ****   */
 463:src/mxml-string.c **** 
 464:src/mxml-string.c ****   return (buffer);
 465:src/mxml-string.c **** }
 876              		.loc 1 465 0
 877 0048 43B0     		add	sp, sp, #268
 878              		.cfi_def_cfa_offset 20
 879              		@ sp needed
 880 004a F0BD     		pop	{r4, r5, r6, r7, pc}
 881              		.cfi_endproc
 882              	.LFE4:
 883              		.size	_mxml_vstrdupf, .-_mxml_vstrdupf
 884              		.section	.text._mxml_strdupf,"ax",%progbits
 885              		.align	1
 886              		.global	_mxml_strdupf
 887              		.thumb
 888              		.thumb_func
 889              		.type	_mxml_strdupf, %function
 890              	_mxml_strdupf:
 891              	.LFB2:
  91:src/mxml-string.c ****   va_list	ap;			/* Pointer to additional arguments */
 892              		.loc 1 91 0
 893              		.cfi_startproc
 894              		@ args = 4, pretend = 16, frame = 8
 895              		@ frame_needed = 0, uses_anonymous_args = 1
 896              	.LVL135:
 897 0000 0FB4     		push	{r0, r1, r2, r3}
 898              		.cfi_def_cfa_offset 16
 899              		.cfi_offset 0, -16
 900              		.cfi_offset 1, -12
 901              		.cfi_offset 2, -8
 902              		.cfi_offset 3, -4
 903 0002 07B5     		push	{r0, r1, r2, lr}
 904              		.cfi_def_cfa_offset 32
 905              		.cfi_offset 14, -20
  91:src/mxml-string.c ****   va_list	ap;			/* Pointer to additional arguments */
 906              		.loc 1 91 0
 907 0004 04A9     		add	r1, sp, #16
 908 0006 51F8040B 		ldr	r0, [r1], #4
 101:src/mxml-string.c ****   s = _mxml_vstrdupf(format, ap);
 909              		.loc 1 101 0
 910 000a 0191     		str	r1, [sp, #4]
ARM GAS  C:\Users\AHMED~1.ELE\AppData\Local\Temp\ccJtYU5O.s 			page 26


 102:src/mxml-string.c ****   va_end(ap);
 911              		.loc 1 102 0
 912 000c FFF7FEFF 		bl	_mxml_vstrdupf
 913              	.LVL136:
 106:src/mxml-string.c **** 
 914              		.loc 1 106 0
 915 0010 03B0     		add	sp, sp, #12
 916              		.cfi_def_cfa_offset 20
 917              		@ sp needed
 918 0012 5DF804EB 		ldr	lr, [sp], #4
 919              		.cfi_restore 14
 920              		.cfi_def_cfa_offset 16
 921 0016 04B0     		add	sp, sp, #16
 922              		.cfi_restore 3
 923              		.cfi_restore 2
 924              		.cfi_restore 1
 925              		.cfi_restore 0
 926              		.cfi_def_cfa_offset 0
 927 0018 7047     		bx	lr
 928              		.cfi_endproc
 929              	.LFE2:
 930              		.size	_mxml_strdupf, .-_mxml_strdupf
 931              		.section	.rodata.str1.1,"aMS",%progbits,1
 932              	.LC0:
 933 0000 286E756C 		.ascii	"(null)\000"
 933      6C2900
 934              	.LC1:
 935 0007 202D2B23 		.ascii	" -+#'\000"
 935      2700
 936              	.LC2:
 937 000d 256400   		.ascii	"%d\000"
 938              		.text
 939              	.Letext0:
 940              		.file 2 "c:\\devtools\\gcc_v49_2014q4\\lib\\gcc\\arm-none-eabi\\4.9.3\\include\\stddef.h"
 941              		.file 3 "c:\\devtools\\gcc_v49_2014q4\\lib\\gcc\\arm-none-eabi\\4.9.3\\include\\stdarg.h"
 942              		.file 4 "../LibA5T1000/common.h"
 943              		.file 5 "c:\\devtools\\gcc_v49_2014q4\\arm-none-eabi\\include\\string.h"
 944              		.file 6 "../LibA5T1000/system.h"
 945              		.file 7 "c:\\devtools\\gcc_v49_2014q4\\arm-none-eabi\\include\\stdio.h"
 946              		.file 8 "<built-in>"
 947              		.file 9 "c:\\devtools\\gcc_v49_2014q4\\arm-none-eabi\\include\\ctype.h"