ARM GAS  C:\Users\AHMED~1.ELE\AppData\Local\Temp\ccHW1nYs.s 			page 1


   1              		.syntax unified
   2              		.cpu cortex-a5
   3              		.fpu softvfp
   4              		.eabi_attribute 20, 1
   5              		.eabi_attribute 21, 1
   6              		.eabi_attribute 23, 3
   7              		.eabi_attribute 24, 1
   8              		.eabi_attribute 25, 1
   9              		.eabi_attribute 26, 1
  10              		.eabi_attribute 30, 4
  11              		.eabi_attribute 34, 0
  12              		.eabi_attribute 18, 4
  13              		.thumb
  14              		.file	"mxml-search.c"
  15              		.text
  16              	.Ltext0:
  17              		.cfi_sections	.debug_frame
  18              		.section	.text.mxmlWalkNext,"ax",%progbits
  19              		.align	1
  20              		.global	mxmlWalkNext
  21              		.thumb
  22              		.thumb_func
  23              		.type	mxmlWalkNext, %function
  24              	mxmlWalkNext:
  25              	.LFB2:
  26              		.file 1 "src/mxml-search.c"
   1:src/mxml-search.c **** /*
   2:src/mxml-search.c ****  * "$Id: mxml-search.c 451 2014-01-04 21:50:06Z msweet $"
   3:src/mxml-search.c ****  *
   4:src/mxml-search.c ****  * Search/navigation functions for Mini-XML, a small XML-like file
   5:src/mxml-search.c ****  * parsing library.
   6:src/mxml-search.c ****  *
   7:src/mxml-search.c ****  * Copyright 2003-2014 by Michael R Sweet.
   8:src/mxml-search.c ****  *
   9:src/mxml-search.c ****  * These coded instructions, statements, and computer programs are the
  10:src/mxml-search.c ****  * property of Michael R Sweet and are protected by Federal copyright
  11:src/mxml-search.c ****  * law.  Distribution and use rights are outlined in the file "COPYING"
  12:src/mxml-search.c ****  * which should have been included with this file.  If this file is
  13:src/mxml-search.c ****  * missing or damaged, see the license at:
  14:src/mxml-search.c ****  *
  15:src/mxml-search.c ****  *     http://www.msweet.org/projects.php/Mini-XML
  16:src/mxml-search.c ****  */
  17:src/mxml-search.c **** 
  18:src/mxml-search.c **** /*
  19:src/mxml-search.c ****  * Include necessary headers...
  20:src/mxml-search.c ****  */
  21:src/mxml-search.c **** 
  22:src/mxml-search.c **** #include "mxml-config.h"
  23:src/mxml-search.c **** #include "mxml.h"
  24:src/mxml-search.c **** 
  25:src/mxml-search.c **** 
  26:src/mxml-search.c **** /*
  27:src/mxml-search.c ****  * 'mxmlFindElement()' - Find the named element.
  28:src/mxml-search.c ****  *
  29:src/mxml-search.c ****  * The search is constrained by the name, attribute name, and value; any
  30:src/mxml-search.c ****  * NULL names or values are treated as wildcards, so different kinds of
  31:src/mxml-search.c ****  * searches can be implemented by looking for all elements of a given name
ARM GAS  C:\Users\AHMED~1.ELE\AppData\Local\Temp\ccHW1nYs.s 			page 2


  32:src/mxml-search.c ****  * or all elements with a specific attribute. The descend argument determines
  33:src/mxml-search.c ****  * whether the search descends into child nodes; normally you will use
  34:src/mxml-search.c ****  * MXML_DESCEND_FIRST for the initial search and MXML_NO_DESCEND to find
  35:src/mxml-search.c ****  * additional direct descendents of the node. The top node argument
  36:src/mxml-search.c ****  * constrains the search to a particular node's children.
  37:src/mxml-search.c ****  */
  38:src/mxml-search.c **** 
  39:src/mxml-search.c **** mxml_node_t *				/* O - Element node or NULL */
  40:src/mxml-search.c **** mxmlFindElement(mxml_node_t *node,	/* I - Current node */
  41:src/mxml-search.c ****                 mxml_node_t *top,	/* I - Top node */
  42:src/mxml-search.c ****                 const char  *name,	/* I - Element name or NULL for any */
  43:src/mxml-search.c **** 		const char  *attr,	/* I - Attribute name, or NULL for none */
  44:src/mxml-search.c **** 		const char  *value,	/* I - Attribute value, or NULL for any */
  45:src/mxml-search.c **** 		int         descend)	/* I - Descend into tree - MXML_DESCEND, MXML_NO_DESCEND, or MXML_DESCEND_FI
  46:src/mxml-search.c **** {
  47:src/mxml-search.c ****   const char	*temp;			/* Current attribute value */
  48:src/mxml-search.c **** 
  49:src/mxml-search.c **** 
  50:src/mxml-search.c ****  /*
  51:src/mxml-search.c ****   * Range check input...
  52:src/mxml-search.c ****   */
  53:src/mxml-search.c **** 
  54:src/mxml-search.c ****   if (!node || !top || (!attr && value))
  55:src/mxml-search.c ****     return (NULL);
  56:src/mxml-search.c **** 
  57:src/mxml-search.c ****  /*
  58:src/mxml-search.c ****   * Start with the next node...
  59:src/mxml-search.c ****   */
  60:src/mxml-search.c **** 
  61:src/mxml-search.c ****   node = mxmlWalkNext(node, top, descend);
  62:src/mxml-search.c **** 
  63:src/mxml-search.c ****  /*
  64:src/mxml-search.c ****   * Loop until we find a matching element...
  65:src/mxml-search.c ****   */
  66:src/mxml-search.c **** 
  67:src/mxml-search.c ****   while (node != NULL)
  68:src/mxml-search.c ****   {
  69:src/mxml-search.c ****    /*
  70:src/mxml-search.c ****     * See if this node matches...
  71:src/mxml-search.c ****     */
  72:src/mxml-search.c **** 
  73:src/mxml-search.c ****     if (node->type == MXML_ELEMENT &&
  74:src/mxml-search.c ****         node->value.element.name &&
  75:src/mxml-search.c **** 	(!name || !strcmp(node->value.element.name, name)))
  76:src/mxml-search.c ****     {
  77:src/mxml-search.c ****      /*
  78:src/mxml-search.c ****       * See if we need to check for an attribute...
  79:src/mxml-search.c ****       */
  80:src/mxml-search.c **** 
  81:src/mxml-search.c ****       if (!attr)
  82:src/mxml-search.c ****         return (node);			/* No attribute search, return it... */
  83:src/mxml-search.c **** 
  84:src/mxml-search.c ****      /*
  85:src/mxml-search.c ****       * Check for the attribute...
  86:src/mxml-search.c ****       */
  87:src/mxml-search.c **** 
  88:src/mxml-search.c ****       if ((temp = mxmlElementGetAttr(node, attr)) != NULL)
ARM GAS  C:\Users\AHMED~1.ELE\AppData\Local\Temp\ccHW1nYs.s 			page 3


  89:src/mxml-search.c ****       {
  90:src/mxml-search.c ****        /*
  91:src/mxml-search.c ****         * OK, we have the attribute, does it match?
  92:src/mxml-search.c **** 	*/
  93:src/mxml-search.c **** 
  94:src/mxml-search.c **** 	if (!value || !strcmp(value, temp))
  95:src/mxml-search.c **** 	  return (node);		/* Yes, return it... */
  96:src/mxml-search.c ****       }
  97:src/mxml-search.c ****     }
  98:src/mxml-search.c **** 
  99:src/mxml-search.c ****    /*
 100:src/mxml-search.c ****     * No match, move on to the next node...
 101:src/mxml-search.c ****     */
 102:src/mxml-search.c **** 
 103:src/mxml-search.c ****     if (descend == MXML_DESCEND)
 104:src/mxml-search.c ****       node = mxmlWalkNext(node, top, MXML_DESCEND);
 105:src/mxml-search.c ****     else
 106:src/mxml-search.c ****       node = node->next;
 107:src/mxml-search.c ****   }
 108:src/mxml-search.c **** 
 109:src/mxml-search.c ****   return (NULL);
 110:src/mxml-search.c **** }
 111:src/mxml-search.c **** 
 112:src/mxml-search.c **** 
 113:src/mxml-search.c **** /*
 114:src/mxml-search.c ****  * 'mxmlFindPath()' - Find a node with the given path.
 115:src/mxml-search.c ****  *
 116:src/mxml-search.c ****  * The "path" is a slash-separated list of element names. The name "*" is
 117:src/mxml-search.c ****  * considered a wildcard for one or more levels of elements.  For example,
 118:src/mxml-search.c ****  * "foo/one/two", "bar/two/one", "*\/one", and so forth.
 119:src/mxml-search.c ****  *
 120:src/mxml-search.c ****  * The first child node of the found node is returned if the given node has
 121:src/mxml-search.c ****  * children and the first child is a value node.
 122:src/mxml-search.c ****  *
 123:src/mxml-search.c ****  * @since Mini-XML 2.7@
 124:src/mxml-search.c ****  */
 125:src/mxml-search.c **** 
 126:src/mxml-search.c **** mxml_node_t *				/* O - Found node or NULL */
 127:src/mxml-search.c **** mxmlFindPath(mxml_node_t *top,		/* I - Top node */
 128:src/mxml-search.c **** 	     const char  *path)		/* I - Path to element */
 129:src/mxml-search.c **** {
 130:src/mxml-search.c ****   mxml_node_t	*node;			/* Current node */
 131:src/mxml-search.c ****   char		element[256];		/* Current element name */
 132:src/mxml-search.c ****   const char	*pathsep;		/* Separator in path */
 133:src/mxml-search.c ****   int		descend;		/* mxmlFindElement option */
 134:src/mxml-search.c **** 
 135:src/mxml-search.c **** 
 136:src/mxml-search.c ****  /*
 137:src/mxml-search.c ****   * Range check input...
 138:src/mxml-search.c ****   */
 139:src/mxml-search.c ****   if (!top || !path || !*path)
 140:src/mxml-search.c ****     return (NULL);
 141:src/mxml-search.c **** 
 142:src/mxml-search.c ****  /*
 143:src/mxml-search.c ****   * Search each element in the path...
 144:src/mxml-search.c ****   */
 145:src/mxml-search.c **** 
ARM GAS  C:\Users\AHMED~1.ELE\AppData\Local\Temp\ccHW1nYs.s 			page 4


 146:src/mxml-search.c ****   node = top;
 147:src/mxml-search.c ****   while (*path)
 148:src/mxml-search.c ****   {
 149:src/mxml-search.c ****    /*
 150:src/mxml-search.c ****     * Handle wildcards...
 151:src/mxml-search.c ****     */
 152:src/mxml-search.c **** 
 153:src/mxml-search.c ****     if (!strncmp(path, "*/", 2))
 154:src/mxml-search.c ****     {
 155:src/mxml-search.c ****       path += 2;
 156:src/mxml-search.c ****       descend = MXML_DESCEND;
 157:src/mxml-search.c ****     }
 158:src/mxml-search.c ****     else
 159:src/mxml-search.c ****       descend = MXML_DESCEND_FIRST;
 160:src/mxml-search.c **** 
 161:src/mxml-search.c ****    /*
 162:src/mxml-search.c ****     * Get the next element in the path...
 163:src/mxml-search.c ****     */
 164:src/mxml-search.c **** 
 165:src/mxml-search.c ****     if ((pathsep = strchr(path, '/')) == NULL)
 166:src/mxml-search.c ****       pathsep = path + strlen(path);
 167:src/mxml-search.c **** 
 168:src/mxml-search.c ****     if (pathsep == path || (pathsep - path) >= sizeof(element))
 169:src/mxml-search.c ****       return (NULL);
 170:src/mxml-search.c **** 
 171:src/mxml-search.c ****     memcpy(element, path, pathsep - path);
 172:src/mxml-search.c ****     element[pathsep - path] = '\0';
 173:src/mxml-search.c **** 
 174:src/mxml-search.c ****     if (*pathsep)
 175:src/mxml-search.c ****       path = pathsep + 1;
 176:src/mxml-search.c ****     else
 177:src/mxml-search.c ****       path = pathsep;
 178:src/mxml-search.c **** 
 179:src/mxml-search.c ****    /*
 180:src/mxml-search.c ****     * Search for the element...
 181:src/mxml-search.c ****     */
 182:src/mxml-search.c **** 
 183:src/mxml-search.c ****     if ((node = mxmlFindElement(node, node, element, NULL, NULL,
 184:src/mxml-search.c ****                                 descend)) == NULL)
 185:src/mxml-search.c ****       return (NULL);
 186:src/mxml-search.c ****   }
 187:src/mxml-search.c **** 
 188:src/mxml-search.c ****  /*
 189:src/mxml-search.c ****   * If we get this far, return the node or its first child...
 190:src/mxml-search.c ****   */
 191:src/mxml-search.c **** 
 192:src/mxml-search.c ****   if (node->child && node->child->type != MXML_ELEMENT)
 193:src/mxml-search.c ****     return (node->child);
 194:src/mxml-search.c ****   else
 195:src/mxml-search.c ****     return (node);
 196:src/mxml-search.c **** }
 197:src/mxml-search.c **** 
 198:src/mxml-search.c **** 
 199:src/mxml-search.c **** /*
 200:src/mxml-search.c ****  * 'mxmlWalkNext()' - Walk to the next logical node in the tree.
 201:src/mxml-search.c ****  *
 202:src/mxml-search.c ****  * The descend argument controls whether the first child is considered
ARM GAS  C:\Users\AHMED~1.ELE\AppData\Local\Temp\ccHW1nYs.s 			page 5


 203:src/mxml-search.c ****  * to be the next node. The top node argument constrains the walk to
 204:src/mxml-search.c ****  * the node's children.
 205:src/mxml-search.c ****  */
 206:src/mxml-search.c **** 
 207:src/mxml-search.c **** mxml_node_t *				/* O - Next node or NULL */
 208:src/mxml-search.c **** mxmlWalkNext(mxml_node_t *node,		/* I - Current node */
 209:src/mxml-search.c ****              mxml_node_t *top,		/* I - Top node */
 210:src/mxml-search.c ****              int         descend)	/* I - Descend into tree - MXML_DESCEND, MXML_NO_DESCEND, or MXML
 211:src/mxml-search.c **** {
  27              		.loc 1 211 0
  28              		.cfi_startproc
  29              		@ args = 0, pretend = 0, frame = 0
  30              		@ frame_needed = 0, uses_anonymous_args = 0
  31              		@ link register save eliminated.
  32              	.LVL0:
 212:src/mxml-search.c ****   if (!node)
  33              		.loc 1 212 0
  34 0000 90B1     		cbz	r0, .L7
 213:src/mxml-search.c ****     return (NULL);
 214:src/mxml-search.c ****   else if (node->child && descend)
  35              		.loc 1 214 0
  36 0002 0369     		ldr	r3, [r0, #16]
  37 0004 03B1     		cbz	r3, .L3
  38              		.loc 1 214 0 is_stmt 0 discriminator 1
  39 0006 92B9     		cbnz	r2, .L2
  40              	.L3:
 215:src/mxml-search.c ****     return (node->child);
 216:src/mxml-search.c ****   else if (node == top)
  41              		.loc 1 216 0 is_stmt 1
  42 0008 8842     		cmp	r0, r1
  43 000a 0FD0     		beq	.L8
 217:src/mxml-search.c ****     return (NULL);
 218:src/mxml-search.c ****   else if (node->next)
  44              		.loc 1 218 0
  45 000c 4368     		ldr	r3, [r0, #4]
  46 000e 73B9     		cbnz	r3, .L2
  47              	.LVL1:
  48              	.LBB4:
  49              	.LBB5:
 219:src/mxml-search.c ****     return (node->next);
 220:src/mxml-search.c ****   else if (node->parent && node->parent != top)
  50              		.loc 1 220 0
  51 0010 C268     		ldr	r2, [r0, #12]
  52              	.LVL2:
  53 0012 62B1     		cbz	r2, .L2
  54 0014 8A42     		cmp	r2, r1
  55 0016 0AD0     		beq	.L2
  56              	.LVL3:
  57              	.L5:
 221:src/mxml-search.c ****   {
 222:src/mxml-search.c ****     node = node->parent;
 223:src/mxml-search.c **** 
 224:src/mxml-search.c ****     while (!node->next)
  58              		.loc 1 224 0
  59 0018 5368     		ldr	r3, [r2, #4]
  60 001a 43B9     		cbnz	r3, .L2
 225:src/mxml-search.c ****       if (node->parent == top || !node->parent)
ARM GAS  C:\Users\AHMED~1.ELE\AppData\Local\Temp\ccHW1nYs.s 			page 6


  61              		.loc 1 225 0
  62 001c D268     		ldr	r2, [r2, #12]
  63              	.LVL4:
  64 001e 8A42     		cmp	r2, r1
  65 0020 05D0     		beq	.L2
  66 0022 002A     		cmp	r2, #0
  67 0024 F8D1     		bne	.L5
  68 0026 02E0     		b	.L2
  69              	.LVL5:
  70              	.L7:
  71              	.LBE5:
  72              	.LBE4:
 213:src/mxml-search.c ****   else if (node->child && descend)
  73              		.loc 1 213 0
  74 0028 0346     		mov	r3, r0
  75 002a 00E0     		b	.L2
  76              	.L8:
  77 002c 0023     		movs	r3, #0
  78              	.LVL6:
  79              	.L2:
 226:src/mxml-search.c ****         return (NULL);
 227:src/mxml-search.c ****       else
 228:src/mxml-search.c ****         node = node->parent;
 229:src/mxml-search.c **** 
 230:src/mxml-search.c ****     return (node->next);
 231:src/mxml-search.c ****   }
 232:src/mxml-search.c ****   else
 233:src/mxml-search.c ****     return (NULL);
 234:src/mxml-search.c **** }
  80              		.loc 1 234 0
  81 002e 1846     		mov	r0, r3
  82              	.LVL7:
  83 0030 7047     		bx	lr
  84              		.cfi_endproc
  85              	.LFE2:
  86              		.size	mxmlWalkNext, .-mxmlWalkNext
  87              		.section	.text.mxmlFindElement,"ax",%progbits
  88              		.align	1
  89              		.global	mxmlFindElement
  90              		.thumb
  91              		.thumb_func
  92              		.type	mxmlFindElement, %function
  93              	mxmlFindElement:
  94              	.LFB0:
  46:src/mxml-search.c ****   const char	*temp;			/* Current attribute value */
  95              		.loc 1 46 0
  96              		.cfi_startproc
  97              		@ args = 8, pretend = 0, frame = 0
  98              		@ frame_needed = 0, uses_anonymous_args = 0
  99              	.LVL8:
 100 0000 2DE9F843 		push	{r3, r4, r5, r6, r7, r8, r9, lr}
 101              		.cfi_def_cfa_offset 32
 102              		.cfi_offset 3, -32
 103              		.cfi_offset 4, -28
 104              		.cfi_offset 5, -24
 105              		.cfi_offset 6, -20
 106              		.cfi_offset 7, -16
ARM GAS  C:\Users\AHMED~1.ELE\AppData\Local\Temp\ccHW1nYs.s 			page 7


 107              		.cfi_offset 8, -12
 108              		.cfi_offset 9, -8
 109              		.cfi_offset 14, -4
  46:src/mxml-search.c ****   const char	*temp;			/* Current attribute value */
 110              		.loc 1 46 0
 111 0004 0D46     		mov	r5, r1
 112 0006 9146     		mov	r9, r2
 113 0008 1E46     		mov	r6, r3
 114 000a 089F     		ldr	r7, [sp, #32]
 115 000c DDF82480 		ldr	r8, [sp, #36]
  54:src/mxml-search.c ****     return (NULL);
 116              		.loc 1 54 0
 117 0010 10B9     		cbnz	r0, .L20
 118              	.LVL9:
 119              	.L22:
  55:src/mxml-search.c **** 
 120              		.loc 1 55 0
 121 0012 0020     		movs	r0, #0
 122 0014 BDE8F883 		pop	{r3, r4, r5, r6, r7, r8, r9, pc}
 123              	.LVL10:
 124              	.L20:
  54:src/mxml-search.c ****     return (NULL);
 125              		.loc 1 54 0 discriminator 1
 126 0018 0029     		cmp	r1, #0
 127 001a FAD0     		beq	.L22
  54:src/mxml-search.c ****     return (NULL);
 128              		.loc 1 54 0 is_stmt 0 discriminator 2
 129 001c 5BB9     		cbnz	r3, .L45
  54:src/mxml-search.c ****     return (NULL);
 130              		.loc 1 54 0 discriminator 3
 131 001e 57B1     		cbz	r7, .L45
 132 0020 F7E7     		b	.L22
 133              	.LVL11:
 134              	.L27:
 106:src/mxml-search.c ****   }
 135              		.loc 1 106 0 is_stmt 1
 136 0022 6468     		ldr	r4, [r4, #4]
 137              	.LVL12:
 138              	.L24:
  67:src/mxml-search.c ****   {
 139              		.loc 1 67 0
 140 0024 002C     		cmp	r4, #0
 141 0026 F4D0     		beq	.L22
  73:src/mxml-search.c ****         node->value.element.name &&
 142              		.loc 1 73 0
 143 0028 94F90030 		ldrsb	r3, [r4]
 144 002c 4BB1     		cbz	r3, .L46
 145              	.L25:
 103:src/mxml-search.c ****       node = mxmlWalkNext(node, top, MXML_DESCEND);
 146              		.loc 1 103 0
 147 002e B8F1010F 		cmp	r8, #1
 148 0032 F6D1     		bne	.L27
 104:src/mxml-search.c ****     else
 149              		.loc 1 104 0
 150 0034 2046     		mov	r0, r4
 151              	.LVL13:
 152              	.L45:
ARM GAS  C:\Users\AHMED~1.ELE\AppData\Local\Temp\ccHW1nYs.s 			page 8


 153 0036 2946     		mov	r1, r5
 154 0038 4246     		mov	r2, r8
 155 003a FFF7FEFF 		bl	mxmlWalkNext
 156              	.LVL14:
 157 003e 0446     		mov	r4, r0
 158              	.LVL15:
 159 0040 F0E7     		b	.L24
 160              	.LVL16:
 161              	.L46:
  74:src/mxml-search.c **** 	(!name || !strcmp(node->value.element.name, name)))
 162              		.loc 1 74 0 discriminator 1
 163 0042 A069     		ldr	r0, [r4, #24]
  73:src/mxml-search.c ****         node->value.element.name &&
 164              		.loc 1 73 0 discriminator 1
 165 0044 0028     		cmp	r0, #0
 166 0046 F2D0     		beq	.L25
  74:src/mxml-search.c **** 	(!name || !strcmp(node->value.element.name, name)))
 167              		.loc 1 74 0
 168 0048 B9F1000F 		cmp	r9, #0
 169 004c 04D0     		beq	.L26
  75:src/mxml-search.c ****     {
 170              		.loc 1 75 0
 171 004e 4946     		mov	r1, r9
 172 0050 FFF7FEFF 		bl	strcmp
 173              	.LVL17:
 174 0054 0028     		cmp	r0, #0
 175 0056 EAD1     		bne	.L25
 176              	.L26:
 177 0058 2046     		mov	r0, r4
  81:src/mxml-search.c ****         return (node);			/* No attribute search, return it... */
 178              		.loc 1 81 0
 179 005a 66B1     		cbz	r6, .L30
 180              	.LVL18:
  88:src/mxml-search.c ****       {
 181              		.loc 1 88 0
 182 005c 3146     		mov	r1, r6
 183 005e FFF7FEFF 		bl	mxmlElementGetAttr
 184              	.LVL19:
 185 0062 0146     		mov	r1, r0
 186 0064 0028     		cmp	r0, #0
 187 0066 E2D0     		beq	.L25
  94:src/mxml-search.c **** 	  return (node);		/* Yes, return it... */
 188              		.loc 1 94 0
 189 0068 3FB1     		cbz	r7, .L32
  94:src/mxml-search.c **** 	  return (node);		/* Yes, return it... */
 190              		.loc 1 94 0 is_stmt 0 discriminator 1
 191 006a 3846     		mov	r0, r7
 192              	.LVL20:
 193 006c FFF7FEFF 		bl	strcmp
 194              	.LVL21:
 195 0070 0028     		cmp	r0, #0
 196 0072 DCD1     		bne	.L25
 197 0074 01E0     		b	.L32
 198              	.LVL22:
 199              	.L30:
 200 0076 BDE8F883 		pop	{r3, r4, r5, r6, r7, r8, r9, pc}
 201              	.LVL23:
ARM GAS  C:\Users\AHMED~1.ELE\AppData\Local\Temp\ccHW1nYs.s 			page 9


 202              	.L32:
 203 007a 2046     		mov	r0, r4
 110:src/mxml-search.c **** 
 204              		.loc 1 110 0 is_stmt 1
 205 007c BDE8F883 		pop	{r3, r4, r5, r6, r7, r8, r9, pc}
 206              		.cfi_endproc
 207              	.LFE0:
 208              		.size	mxmlFindElement, .-mxmlFindElement
 209              		.section	.text.mxmlFindPath,"ax",%progbits
 210              		.align	1
 211              		.global	mxmlFindPath
 212              		.thumb
 213              		.thumb_func
 214              		.type	mxmlFindPath, %function
 215              	mxmlFindPath:
 216              	.LFB1:
 129:src/mxml-search.c ****   mxml_node_t	*node;			/* Current node */
 217              		.loc 1 129 0
 218              		.cfi_startproc
 219              		@ args = 0, pretend = 0, frame = 256
 220              		@ frame_needed = 0, uses_anonymous_args = 0
 221              	.LVL24:
 222 0000 2DE9F043 		push	{r4, r5, r6, r7, r8, r9, lr}
 223              		.cfi_def_cfa_offset 28
 224              		.cfi_offset 4, -28
 225              		.cfi_offset 5, -24
 226              		.cfi_offset 6, -20
 227              		.cfi_offset 7, -16
 228              		.cfi_offset 8, -12
 229              		.cfi_offset 9, -8
 230              		.cfi_offset 14, -4
 231 0004 0C46     		mov	r4, r1
 232 0006 C3B0     		sub	sp, sp, #268
 233              		.cfi_def_cfa_offset 296
 139:src/mxml-search.c ****     return (NULL);
 234              		.loc 1 139 0
 235 0008 0546     		mov	r5, r0
 236 000a 08B9     		cbnz	r0, .L48
 237              	.LVL25:
 238              	.L50:
 140:src/mxml-search.c **** 
 239              		.loc 1 140 0
 240 000c 0020     		movs	r0, #0
 241 000e 49E0     		b	.L49
 242              	.LVL26:
 243              	.L48:
 139:src/mxml-search.c ****     return (NULL);
 244              		.loc 1 139 0 discriminator 1
 245 0010 0029     		cmp	r1, #0
 246 0012 FBD0     		beq	.L50
 139:src/mxml-search.c ****     return (NULL);
 247              		.loc 1 139 0 is_stmt 0 discriminator 2
 248 0014 91F90030 		ldrsb	r3, [r1]
 249 0018 002B     		cmp	r3, #0
 250 001a F7D0     		beq	.L50
 251              	.LVL27:
 252              	.L55:
ARM GAS  C:\Users\AHMED~1.ELE\AppData\Local\Temp\ccHW1nYs.s 			page 10


 147:src/mxml-search.c ****   {
 253              		.loc 1 147 0 is_stmt 1
 254 001c 94F90030 		ldrsb	r3, [r4]
 255 0020 BBB3     		cbz	r3, .L70
 153:src/mxml-search.c ****     {
 256              		.loc 1 153 0
 257 0022 2046     		mov	r0, r4
 258 0024 2149     		ldr	r1, .L71
 259 0026 0222     		movs	r2, #2
 260 0028 FFF7FEFF 		bl	strncmp
 261              	.LVL28:
 262 002c 18B9     		cbnz	r0, .L57
 155:src/mxml-search.c ****       descend = MXML_DESCEND;
 263              		.loc 1 155 0
 264 002e 0234     		adds	r4, r4, #2
 265              	.LVL29:
 156:src/mxml-search.c ****     }
 266              		.loc 1 156 0
 267 0030 4FF00109 		mov	r9, #1
 268 0034 01E0     		b	.L52
 269              	.LVL30:
 270              	.L57:
 159:src/mxml-search.c **** 
 271              		.loc 1 159 0
 272 0036 4FF0FF39 		mov	r9, #-1
 273              	.L52:
 274              	.LVL31:
 165:src/mxml-search.c ****       pathsep = path + strlen(path);
 275              		.loc 1 165 0
 276 003a 2046     		mov	r0, r4
 277 003c 2F21     		movs	r1, #47
 278 003e FFF7FEFF 		bl	strchr
 279              	.LVL32:
 280 0042 0646     		mov	r6, r0
 281 0044 18B9     		cbnz	r0, .L53
 166:src/mxml-search.c **** 
 282              		.loc 1 166 0
 283 0046 2046     		mov	r0, r4
 284              	.LVL33:
 285 0048 FFF7FEFF 		bl	strlen
 286              	.LVL34:
 287 004c 2618     		adds	r6, r4, r0
 288              	.LVL35:
 289              	.L53:
 168:src/mxml-search.c ****       return (NULL);
 290              		.loc 1 168 0
 291 004e A642     		cmp	r6, r4
 292 0050 DCD0     		beq	.L50
 168:src/mxml-search.c ****       return (NULL);
 293              		.loc 1 168 0 is_stmt 0 discriminator 1
 294 0052 C4EB0608 		rsb	r8, r4, r6
 295 0056 B8F1FF0F 		cmp	r8, #255
 296 005a D7D8     		bhi	.L50
 171:src/mxml-search.c ****     element[pathsep - path] = '\0';
 297              		.loc 1 171 0 is_stmt 1
 298 005c 02AF     		add	r7, sp, #8
 299 005e 4246     		mov	r2, r8
ARM GAS  C:\Users\AHMED~1.ELE\AppData\Local\Temp\ccHW1nYs.s 			page 11


 300 0060 3846     		mov	r0, r7
 301 0062 2146     		mov	r1, r4
 302 0064 FFF7FEFF 		bl	memcpy
 303              	.LVL36:
 172:src/mxml-search.c **** 
 304              		.loc 1 172 0
 305 0068 0023     		movs	r3, #0
 174:src/mxml-search.c ****       path = pathsep + 1;
 306              		.loc 1 174 0
 307 006a 96F90020 		ldrsb	r2, [r6]
 172:src/mxml-search.c **** 
 308              		.loc 1 172 0
 309 006e 07F80830 		strb	r3, [r7, r8]
 174:src/mxml-search.c ****       path = pathsep + 1;
 310              		.loc 1 174 0
 311 0072 0AB1     		cbz	r2, .L58
 175:src/mxml-search.c ****     else
 312              		.loc 1 175 0
 313 0074 741C     		adds	r4, r6, #1
 314              	.LVL37:
 315 0076 00E0     		b	.L54
 316              	.L58:
 317 0078 3446     		mov	r4, r6
 318              	.LVL38:
 319              	.L54:
 183:src/mxml-search.c ****                                 descend)) == NULL)
 320              		.loc 1 183 0
 321 007a 8DE80802 		stmia	sp, {r3, r9}
 322 007e 2846     		mov	r0, r5
 323 0080 2946     		mov	r1, r5
 324 0082 3A46     		mov	r2, r7
 325 0084 0023     		movs	r3, #0
 326 0086 FFF7FEFF 		bl	mxmlFindElement
 327              	.LVL39:
 328 008a 0546     		mov	r5, r0
 329 008c 0028     		cmp	r0, #0
 330 008e C5D1     		bne	.L55
 331 0090 BCE7     		b	.L50
 332              	.LVL40:
 333              	.L70:
 192:src/mxml-search.c ****     return (node->child);
 334              		.loc 1 192 0
 335 0092 2869     		ldr	r0, [r5, #16]
 336 0094 28B1     		cbz	r0, .L59
 192:src/mxml-search.c ****     return (node->child);
 337              		.loc 1 192 0 is_stmt 0 discriminator 1
 338 0096 90F90030 		ldrsb	r3, [r0]
 339 009a 002B     		cmp	r3, #0
 340 009c 08BF     		it	eq
 341 009e 2846     		moveq	r0, r5
 342 00a0 00E0     		b	.L49
 343              	.L59:
 344 00a2 2846     		mov	r0, r5
 345              	.LVL41:
 346              	.L49:
 196:src/mxml-search.c **** 
 347              		.loc 1 196 0 is_stmt 1
ARM GAS  C:\Users\AHMED~1.ELE\AppData\Local\Temp\ccHW1nYs.s 			page 12


 348 00a4 43B0     		add	sp, sp, #268
 349              		.cfi_def_cfa_offset 28
 350              		@ sp needed
 351 00a6 BDE8F083 		pop	{r4, r5, r6, r7, r8, r9, pc}
 352              	.LVL42:
 353              	.L72:
 354 00aa 00BF     		.align	2
 355              	.L71:
 356 00ac 00000000 		.word	.LC0
 357              		.cfi_endproc
 358              	.LFE1:
 359              		.size	mxmlFindPath, .-mxmlFindPath
 360              		.section	.text.mxmlWalkPrev,"ax",%progbits
 361              		.align	1
 362              		.global	mxmlWalkPrev
 363              		.thumb
 364              		.thumb_func
 365              		.type	mxmlWalkPrev, %function
 366              	mxmlWalkPrev:
 367              	.LFB3:
 235:src/mxml-search.c **** 
 236:src/mxml-search.c **** 
 237:src/mxml-search.c **** /*
 238:src/mxml-search.c ****  * 'mxmlWalkPrev()' - Walk to the previous logical node in the tree.
 239:src/mxml-search.c ****  *
 240:src/mxml-search.c ****  * The descend argument controls whether the previous node's last child
 241:src/mxml-search.c ****  * is considered to be the previous node. The top node argument constrains
 242:src/mxml-search.c ****  * the walk to the node's children.
 243:src/mxml-search.c ****  */
 244:src/mxml-search.c **** 
 245:src/mxml-search.c **** mxml_node_t *				/* O - Previous node or NULL */
 246:src/mxml-search.c **** mxmlWalkPrev(mxml_node_t *node,		/* I - Current node */
 247:src/mxml-search.c ****              mxml_node_t *top,		/* I - Top node */
 248:src/mxml-search.c ****              int         descend)	/* I - Descend into tree - MXML_DESCEND, MXML_NO_DESCEND, or MXML
 249:src/mxml-search.c **** {
 368              		.loc 1 249 0
 369              		.cfi_startproc
 370              		@ args = 0, pretend = 0, frame = 0
 371              		@ frame_needed = 0, uses_anonymous_args = 0
 372              		@ link register save eliminated.
 373              	.LVL43:
 250:src/mxml-search.c ****   if (!node || node == top)
 374              		.loc 1 250 0
 375 0000 0346     		mov	r3, r0
 376 0002 80B1     		cbz	r0, .L77
 377              		.loc 1 250 0 is_stmt 0 discriminator 1
 378 0004 8842     		cmp	r0, r1
 379 0006 10D0     		beq	.L78
 251:src/mxml-search.c ****     return (NULL);
 252:src/mxml-search.c ****   else if (node->prev)
 380              		.loc 1 252 0 is_stmt 1
 381 0008 8068     		ldr	r0, [r0, #8]
 382              	.LVL44:
 383 000a 38B1     		cbz	r0, .L75
 253:src/mxml-search.c ****   {
 254:src/mxml-search.c ****     if (node->prev->last_child && descend)
 384              		.loc 1 254 0
ARM GAS  C:\Users\AHMED~1.ELE\AppData\Local\Temp\ccHW1nYs.s 			page 13


 385 000c 4369     		ldr	r3, [r0, #20]
 386              	.LVL45:
 387 000e 6BB1     		cbz	r3, .L74
 388              		.loc 1 254 0 is_stmt 0 discriminator 1
 389 0010 02B9     		cbnz	r2, .L76
 390 0012 7047     		bx	lr
 391              	.LVL46:
 392              	.L76:
 255:src/mxml-search.c ****     {
 256:src/mxml-search.c ****      /*
 257:src/mxml-search.c ****       * Find the last child under the previous node...
 258:src/mxml-search.c ****       */
 259:src/mxml-search.c **** 
 260:src/mxml-search.c ****       node = node->prev->last_child;
 261:src/mxml-search.c **** 
 262:src/mxml-search.c ****       while (node->last_child)
 393              		.loc 1 262 0 is_stmt 1
 394 0014 5A69     		ldr	r2, [r3, #20]
 395 0016 32B1     		cbz	r2, .L77
 396 0018 1346     		mov	r3, r2
 397              	.LVL47:
 398 001a FBE7     		b	.L76
 399              	.LVL48:
 400              	.L75:
 263:src/mxml-search.c ****         node = node->last_child;
 264:src/mxml-search.c **** 
 265:src/mxml-search.c ****       return (node);
 266:src/mxml-search.c ****     }
 267:src/mxml-search.c ****     else
 268:src/mxml-search.c ****       return (node->prev);
 269:src/mxml-search.c ****   }
 270:src/mxml-search.c ****   else if (node->parent != top)
 401              		.loc 1 270 0
 402 001c D868     		ldr	r0, [r3, #12]
 403 001e 8842     		cmp	r0, r1
 404 0020 08BF     		it	eq
 405 0022 0020     		moveq	r0, #0
 406 0024 7047     		bx	lr
 407              	.LVL49:
 408              	.L77:
 251:src/mxml-search.c ****   else if (node->prev)
 409              		.loc 1 251 0
 410 0026 1846     		mov	r0, r3
 411 0028 7047     		bx	lr
 412              	.LVL50:
 413              	.L78:
 414 002a 0020     		movs	r0, #0
 415              	.LVL51:
 416              	.L74:
 271:src/mxml-search.c ****     return (node->parent);
 272:src/mxml-search.c ****   else
 273:src/mxml-search.c ****     return (NULL);
 274:src/mxml-search.c **** }
 417              		.loc 1 274 0
 418 002c 7047     		bx	lr
 419              		.cfi_endproc
 420              	.LFE3:
ARM GAS  C:\Users\AHMED~1.ELE\AppData\Local\Temp\ccHW1nYs.s 			page 14


 421              		.size	mxmlWalkPrev, .-mxmlWalkPrev
 422              		.section	.rodata.str1.1,"aMS",%progbits,1
 423              	.LC0:
 424 0000 2A2F00   		.ascii	"*/\000"
 425              		.text
 426              	.Letext0:
 427              		.file 2 "c:\\devtools\\gcc_v49_2014q4\\lib\\gcc\\arm-none-eabi\\4.9.3\\include\\stddef.h"
 428              		.file 3 "src/mxml.h"
 429              		.file 4 "c:\\devtools\\gcc_v49_2014q4\\arm-none-eabi\\include\\string.h"
 430              		.section	.debug_info,"",%progbits
 431              	.Ldebug_info0:
 432 0000 1D060000 		.4byte	0x61d
 433 0004 0400     		.2byte	0x4
 434 0006 00000000 		.4byte	.Ldebug_abbrev0
 435 000a 04       		.byte	0x4
 436 000b 01       		.uleb128 0x1
 437 000c 18000000 		.4byte	.LASF70
 438 0010 01       		.byte	0x1
 439 0011 B5030000 		.4byte	.LASF71
 440 0015 16030000 		.4byte	.LASF72
 441 0019 00000000 		.4byte	.Ldebug_ranges0+0
 442 001d 00000000 		.4byte	0
 443 0021 00000000 		.4byte	.Ldebug_line0
 444 0025 02       		.uleb128 0x2
 445 0026 01       		.byte	0x1
 446 0027 06       		.byte	0x6
 447 0028 42020000 		.4byte	.LASF0
 448 002c 02       		.uleb128 0x2
 449 002d 01       		.byte	0x1
 450 002e 08       		.byte	0x8
 451 002f 28020000 		.4byte	.LASF1
 452 0033 02       		.uleb128 0x2
 453 0034 02       		.byte	0x2
 454 0035 05       		.byte	0x5
 455 0036 58010000 		.4byte	.LASF2
 456 003a 02       		.uleb128 0x2
 457 003b 02       		.byte	0x2
 458 003c 07       		.byte	0x7
 459 003d A6020000 		.4byte	.LASF3
 460 0041 02       		.uleb128 0x2
 461 0042 04       		.byte	0x4
 462 0043 05       		.byte	0x5
 463 0044 B9010000 		.4byte	.LASF4
 464 0048 02       		.uleb128 0x2
 465 0049 04       		.byte	0x4
 466 004a 07       		.byte	0x7
 467 004b 04030000 		.4byte	.LASF5
 468 004f 02       		.uleb128 0x2
 469 0050 08       		.byte	0x8
 470 0051 05       		.byte	0x5
 471 0052 A6010000 		.4byte	.LASF6
 472 0056 02       		.uleb128 0x2
 473 0057 08       		.byte	0x8
 474 0058 07       		.byte	0x7
 475 0059 4E020000 		.4byte	.LASF7
 476 005d 03       		.uleb128 0x3
 477 005e 04       		.byte	0x4
ARM GAS  C:\Users\AHMED~1.ELE\AppData\Local\Temp\ccHW1nYs.s 			page 15


 478 005f 05       		.byte	0x5
 479 0060 696E7400 		.ascii	"int\000"
 480 0064 02       		.uleb128 0x2
 481 0065 04       		.byte	0x4
 482 0066 07       		.byte	0x7
 483 0067 7C020000 		.4byte	.LASF8
 484 006b 04       		.uleb128 0x4
 485 006c 18010000 		.4byte	.LASF18
 486 0070 02       		.byte	0x2
 487 0071 D4       		.byte	0xd4
 488 0072 64000000 		.4byte	0x64
 489 0076 05       		.uleb128 0x5
 490 0077 04       		.byte	0x4
 491 0078 02       		.uleb128 0x2
 492 0079 04       		.byte	0x4
 493 007a 07       		.byte	0x7
 494 007b C9010000 		.4byte	.LASF9
 495 007f 06       		.uleb128 0x6
 496 0080 04       		.byte	0x4
 497 0081 85000000 		.4byte	0x85
 498 0085 02       		.uleb128 0x2
 499 0086 01       		.byte	0x1
 500 0087 06       		.byte	0x6
 501 0088 D6020000 		.4byte	.LASF10
 502 008c 06       		.uleb128 0x6
 503 008d 04       		.byte	0x4
 504 008e 92000000 		.4byte	0x92
 505 0092 07       		.uleb128 0x7
 506 0093 85000000 		.4byte	0x85
 507 0097 06       		.uleb128 0x6
 508 0098 04       		.byte	0x4
 509 0099 9D000000 		.4byte	0x9d
 510 009d 08       		.uleb128 0x8
 511 009e 09       		.uleb128 0x9
 512 009f CA020000 		.4byte	.LASF73
 513 00a3 01       		.byte	0x1
 514 00a4 03       		.byte	0x3
 515 00a5 57       		.byte	0x57
 516 00a6 D5000000 		.4byte	0xd5
 517 00aa 0A       		.uleb128 0xa
 518 00ab 8F030000 		.4byte	.LASF11
 519 00af 7F       		.sleb128 -1
 520 00b0 0A       		.uleb128 0xa
 521 00b1 1B020000 		.4byte	.LASF12
 522 00b5 00       		.sleb128 0
 523 00b6 0A       		.uleb128 0xa
 524 00b7 E6020000 		.4byte	.LASF13
 525 00bb 01       		.sleb128 1
 526 00bc 0A       		.uleb128 0xa
 527 00bd C7030000 		.4byte	.LASF14
 528 00c1 02       		.sleb128 2
 529 00c2 0A       		.uleb128 0xa
 530 00c3 C0020000 		.4byte	.LASF15
 531 00c7 03       		.sleb128 3
 532 00c8 0A       		.uleb128 0xa
 533 00c9 97010000 		.4byte	.LASF16
 534 00cd 04       		.sleb128 4
ARM GAS  C:\Users\AHMED~1.ELE\AppData\Local\Temp\ccHW1nYs.s 			page 16


 535 00ce 0A       		.uleb128 0xa
 536 00cf 36020000 		.4byte	.LASF17
 537 00d3 05       		.sleb128 5
 538 00d4 00       		.byte	0
 539 00d5 04       		.uleb128 0x4
 540 00d6 F3020000 		.4byte	.LASF19
 541 00da 03       		.byte	0x3
 542 00db 60       		.byte	0x60
 543 00dc 9E000000 		.4byte	0x9e
 544 00e0 04       		.uleb128 0x4
 545 00e1 61030000 		.4byte	.LASF20
 546 00e5 03       		.byte	0x3
 547 00e6 62       		.byte	0x62
 548 00e7 EB000000 		.4byte	0xeb
 549 00eb 06       		.uleb128 0x6
 550 00ec 04       		.byte	0x4
 551 00ed F1000000 		.4byte	0xf1
 552 00f1 0B       		.uleb128 0xb
 553 00f2 FC000000 		.4byte	0xfc
 554 00f6 0C       		.uleb128 0xc
 555 00f7 76000000 		.4byte	0x76
 556 00fb 00       		.byte	0
 557 00fc 0D       		.uleb128 0xd
 558 00fd 00010000 		.4byte	.LASF24
 559 0101 08       		.byte	0x8
 560 0102 03       		.byte	0x3
 561 0103 68       		.byte	0x68
 562 0104 21010000 		.4byte	0x121
 563 0108 0E       		.uleb128 0xe
 564 0109 0E020000 		.4byte	.LASF21
 565 010d 03       		.byte	0x3
 566 010e 6A       		.byte	0x6a
 567 010f 7F000000 		.4byte	0x7f
 568 0113 00       		.byte	0
 569 0114 0E       		.uleb128 0xe
 570 0115 62010000 		.4byte	.LASF22
 571 0119 03       		.byte	0x3
 572 011a 6B       		.byte	0x6b
 573 011b 7F000000 		.4byte	0x7f
 574 011f 04       		.byte	0x4
 575 0120 00       		.byte	0
 576 0121 04       		.uleb128 0x4
 577 0122 0C010000 		.4byte	.LASF23
 578 0126 03       		.byte	0x3
 579 0127 6C       		.byte	0x6c
 580 0128 FC000000 		.4byte	0xfc
 581 012c 0D       		.uleb128 0xd
 582 012d 79010000 		.4byte	.LASF25
 583 0131 0C       		.byte	0xc
 584 0132 03       		.byte	0x3
 585 0133 6E       		.byte	0x6e
 586 0134 5D010000 		.4byte	0x15d
 587 0138 0E       		.uleb128 0xe
 588 0139 0E020000 		.4byte	.LASF21
 589 013d 03       		.byte	0x3
 590 013e 70       		.byte	0x70
 591 013f 7F000000 		.4byte	0x7f
ARM GAS  C:\Users\AHMED~1.ELE\AppData\Local\Temp\ccHW1nYs.s 			page 17


 592 0143 00       		.byte	0
 593 0144 0E       		.uleb128 0xe
 594 0145 46010000 		.4byte	.LASF26
 595 0149 03       		.byte	0x3
 596 014a 71       		.byte	0x71
 597 014b 5D000000 		.4byte	0x5d
 598 014f 04       		.byte	0x4
 599 0150 0E       		.uleb128 0xe
 600 0151 90020000 		.4byte	.LASF27
 601 0155 03       		.byte	0x3
 602 0156 72       		.byte	0x72
 603 0157 5D010000 		.4byte	0x15d
 604 015b 08       		.byte	0x8
 605 015c 00       		.byte	0
 606 015d 06       		.uleb128 0x6
 607 015e 04       		.byte	0x4
 608 015f 21010000 		.4byte	0x121
 609 0163 04       		.uleb128 0x4
 610 0164 88010000 		.4byte	.LASF28
 611 0168 03       		.byte	0x3
 612 0169 73       		.byte	0x73
 613 016a 2C010000 		.4byte	0x12c
 614 016e 0D       		.uleb128 0xd
 615 016f 00000000 		.4byte	.LASF29
 616 0173 08       		.byte	0x8
 617 0174 03       		.byte	0x3
 618 0175 75       		.byte	0x75
 619 0176 93010000 		.4byte	0x193
 620 017a 0E       		.uleb128 0xe
 621 017b 6A020000 		.4byte	.LASF30
 622 017f 03       		.byte	0x3
 623 0180 77       		.byte	0x77
 624 0181 5D000000 		.4byte	0x5d
 625 0185 00       		.byte	0
 626 0186 0E       		.uleb128 0xe
 627 0187 C2010000 		.4byte	.LASF31
 628 018b 03       		.byte	0x3
 629 018c 78       		.byte	0x78
 630 018d 7F000000 		.4byte	0x7f
 631 0191 04       		.byte	0x4
 632 0192 00       		.byte	0
 633 0193 04       		.uleb128 0x4
 634 0194 0C000000 		.4byte	.LASF32
 635 0198 03       		.byte	0x3
 636 0199 79       		.byte	0x79
 637 019a 6E010000 		.4byte	0x16e
 638 019e 0D       		.uleb128 0xd
 639 019f D3030000 		.4byte	.LASF33
 640 01a3 08       		.byte	0x8
 641 01a4 03       		.byte	0x3
 642 01a5 7B       		.byte	0x7b
 643 01a6 C3010000 		.4byte	0x1c3
 644 01aa 0E       		.uleb128 0xe
 645 01ab FF020000 		.4byte	.LASF34
 646 01af 03       		.byte	0x3
 647 01b0 7D       		.byte	0x7d
 648 01b1 76000000 		.4byte	0x76
ARM GAS  C:\Users\AHMED~1.ELE\AppData\Local\Temp\ccHW1nYs.s 			page 18


 649 01b5 00       		.byte	0
 650 01b6 0E       		.uleb128 0xe
 651 01b7 13020000 		.4byte	.LASF35
 652 01bb 03       		.byte	0x3
 653 01bc 7E       		.byte	0x7e
 654 01bd E0000000 		.4byte	0xe0
 655 01c1 04       		.byte	0x4
 656 01c2 00       		.byte	0
 657 01c3 04       		.uleb128 0x4
 658 01c4 E1030000 		.4byte	.LASF36
 659 01c8 03       		.byte	0x3
 660 01c9 7F       		.byte	0x7f
 661 01ca 9E010000 		.4byte	0x19e
 662 01ce 0F       		.uleb128 0xf
 663 01cf A8030000 		.4byte	.LASF74
 664 01d3 10       		.byte	0x10
 665 01d4 03       		.byte	0x3
 666 01d5 81       		.byte	0x81
 667 01d6 1D020000 		.4byte	0x21d
 668 01da 10       		.uleb128 0x10
 669 01db 87030000 		.4byte	.LASF37
 670 01df 03       		.byte	0x3
 671 01e0 83       		.byte	0x83
 672 01e1 63010000 		.4byte	0x163
 673 01e5 10       		.uleb128 0x10
 674 01e6 F3000000 		.4byte	.LASF38
 675 01ea 03       		.byte	0x3
 676 01eb 84       		.byte	0x84
 677 01ec 5D000000 		.4byte	0x5d
 678 01f0 10       		.uleb128 0x10
 679 01f1 E7000000 		.4byte	.LASF39
 680 01f5 03       		.byte	0x3
 681 01f6 85       		.byte	0x85
 682 01f7 7F000000 		.4byte	0x7f
 683 01fb 10       		.uleb128 0x10
 684 01fc B4010000 		.4byte	.LASF40
 685 0200 03       		.byte	0x3
 686 0201 86       		.byte	0x86
 687 0202 1D020000 		.4byte	0x21d
 688 0206 10       		.uleb128 0x10
 689 0207 EE000000 		.4byte	.LASF41
 690 020b 03       		.byte	0x3
 691 020c 87       		.byte	0x87
 692 020d 93010000 		.4byte	0x193
 693 0211 10       		.uleb128 0x10
 694 0212 B9020000 		.4byte	.LASF42
 695 0216 03       		.byte	0x3
 696 0217 88       		.byte	0x88
 697 0218 C3010000 		.4byte	0x1c3
 698 021c 00       		.byte	0
 699 021d 02       		.uleb128 0x2
 700 021e 08       		.byte	0x8
 701 021f 04       		.byte	0x4
 702 0220 3B030000 		.4byte	.LASF43
 703 0224 04       		.uleb128 0x4
 704 0225 9B030000 		.4byte	.LASF44
 705 0229 03       		.byte	0x3
ARM GAS  C:\Users\AHMED~1.ELE\AppData\Local\Temp\ccHW1nYs.s 			page 19


 706 022a 89       		.byte	0x89
 707 022b CE010000 		.4byte	0x1ce
 708 022f 0D       		.uleb128 0xd
 709 0230 1F010000 		.4byte	.LASF45
 710 0234 30       		.byte	0x30
 711 0235 03       		.byte	0x3
 712 0236 8B       		.byte	0x8b
 713 0237 A8020000 		.4byte	0x2a8
 714 023b 0E       		.uleb128 0xe
 715 023c 65020000 		.4byte	.LASF46
 716 0240 03       		.byte	0x3
 717 0241 8D       		.byte	0x8d
 718 0242 D5000000 		.4byte	0xd5
 719 0246 00       		.byte	0
 720 0247 0E       		.uleb128 0xe
 721 0248 EF030000 		.4byte	.LASF47
 722 024c 03       		.byte	0x3
 723 024d 8E       		.byte	0x8e
 724 024e A8020000 		.4byte	0x2a8
 725 0252 04       		.byte	0x4
 726 0253 0E       		.uleb128 0xe
 727 0254 FB000000 		.4byte	.LASF48
 728 0258 03       		.byte	0x3
 729 0259 8F       		.byte	0x8f
 730 025a A8020000 		.4byte	0x2a8
 731 025e 08       		.byte	0x8
 732 025f 0E       		.uleb128 0xe
 733 0260 72010000 		.4byte	.LASF49
 734 0264 03       		.byte	0x3
 735 0265 90       		.byte	0x90
 736 0266 A8020000 		.4byte	0x2a8
 737 026a 0C       		.byte	0xc
 738 026b 0E       		.uleb128 0xe
 739 026c 42030000 		.4byte	.LASF50
 740 0270 03       		.byte	0x3
 741 0271 91       		.byte	0x91
 742 0272 A8020000 		.4byte	0x2a8
 743 0276 10       		.byte	0x10
 744 0277 0E       		.uleb128 0xe
 745 0278 DB020000 		.4byte	.LASF51
 746 027c 03       		.byte	0x3
 747 027d 92       		.byte	0x92
 748 027e A8020000 		.4byte	0x2a8
 749 0282 14       		.byte	0x14
 750 0283 0E       		.uleb128 0xe
 751 0284 62010000 		.4byte	.LASF22
 752 0288 03       		.byte	0x3
 753 0289 93       		.byte	0x93
 754 028a 24020000 		.4byte	0x224
 755 028e 18       		.byte	0x18
 756 028f 0E       		.uleb128 0xe
 757 0290 D2010000 		.4byte	.LASF52
 758 0294 03       		.byte	0x3
 759 0295 94       		.byte	0x94
 760 0296 5D000000 		.4byte	0x5d
 761 029a 28       		.byte	0x28
 762 029b 0E       		.uleb128 0xe
ARM GAS  C:\Users\AHMED~1.ELE\AppData\Local\Temp\ccHW1nYs.s 			page 20


 763 029c 68010000 		.4byte	.LASF53
 764 02a0 03       		.byte	0x3
 765 02a1 95       		.byte	0x95
 766 02a2 76000000 		.4byte	0x76
 767 02a6 2C       		.byte	0x2c
 768 02a7 00       		.byte	0
 769 02a8 06       		.uleb128 0x6
 770 02a9 04       		.byte	0x4
 771 02aa 2F020000 		.4byte	0x22f
 772 02ae 04       		.uleb128 0x4
 773 02af 2B010000 		.4byte	.LASF54
 774 02b3 03       		.byte	0x3
 775 02b4 98       		.byte	0x98
 776 02b5 2F020000 		.4byte	0x22f
 777 02b9 06       		.uleb128 0x6
 778 02ba 04       		.byte	0x4
 779 02bb AE020000 		.4byte	0x2ae
 780 02bf 11       		.uleb128 0x11
 781 02c0 01020000 		.4byte	.LASF64
 782 02c4 01       		.byte	0x1
 783 02c5 D0       		.byte	0xd0
 784 02c6 B9020000 		.4byte	0x2b9
 785 02ca 01       		.byte	0x1
 786 02cb F1020000 		.4byte	0x2f1
 787 02cf 12       		.uleb128 0x12
 788 02d0 FC010000 		.4byte	.LASF55
 789 02d4 01       		.byte	0x1
 790 02d5 D0       		.byte	0xd0
 791 02d6 B9020000 		.4byte	0x2b9
 792 02da 13       		.uleb128 0x13
 793 02db 746F7000 		.ascii	"top\000"
 794 02df 01       		.byte	0x1
 795 02e0 D1       		.byte	0xd1
 796 02e1 B9020000 		.4byte	0x2b9
 797 02e5 12       		.uleb128 0x12
 798 02e6 37010000 		.4byte	.LASF56
 799 02ea 01       		.byte	0x1
 800 02eb D2       		.byte	0xd2
 801 02ec 5D000000 		.4byte	0x5d
 802 02f0 00       		.byte	0
 803 02f1 14       		.uleb128 0x14
 804 02f2 BF020000 		.4byte	0x2bf
 805 02f6 00000000 		.4byte	.LFB2
 806 02fa 32000000 		.4byte	.LFE2-.LFB2
 807 02fe 01       		.uleb128 0x1
 808 02ff 9C       		.byte	0x9c
 809 0300 43030000 		.4byte	0x343
 810 0304 15       		.uleb128 0x15
 811 0305 CF020000 		.4byte	0x2cf
 812 0309 00000000 		.4byte	.LLST0
 813 030d 16       		.uleb128 0x16
 814 030e DA020000 		.4byte	0x2da
 815 0312 01       		.uleb128 0x1
 816 0313 51       		.byte	0x51
 817 0314 15       		.uleb128 0x15
 818 0315 E5020000 		.4byte	0x2e5
 819 0319 21000000 		.4byte	.LLST1
ARM GAS  C:\Users\AHMED~1.ELE\AppData\Local\Temp\ccHW1nYs.s 			page 21


 820 031d 17       		.uleb128 0x17
 821 031e 10000000 		.4byte	.LBB4
 822 0322 18000000 		.4byte	.LBE4-.LBB4
 823 0326 15       		.uleb128 0x15
 824 0327 E5020000 		.4byte	0x2e5
 825 032b 5B000000 		.4byte	.LLST2
 826 032f 15       		.uleb128 0x15
 827 0330 DA020000 		.4byte	0x2da
 828 0334 7C000000 		.4byte	.LLST3
 829 0338 15       		.uleb128 0x15
 830 0339 CF020000 		.4byte	0x2cf
 831 033d 8F000000 		.4byte	.LLST4
 832 0341 00       		.byte	0
 833 0342 00       		.byte	0
 834 0343 18       		.uleb128 0x18
 835 0344 96020000 		.4byte	.LASF58
 836 0348 01       		.byte	0x1
 837 0349 28       		.byte	0x28
 838 034a B9020000 		.4byte	0x2b9
 839 034e 00000000 		.4byte	.LFB0
 840 0352 80000000 		.4byte	.LFE0-.LFB0
 841 0356 01       		.uleb128 0x1
 842 0357 9C       		.byte	0x9c
 843 0358 1E040000 		.4byte	0x41e
 844 035c 19       		.uleb128 0x19
 845 035d FC010000 		.4byte	.LASF55
 846 0361 01       		.byte	0x1
 847 0362 28       		.byte	0x28
 848 0363 B9020000 		.4byte	0x2b9
 849 0367 AD000000 		.4byte	.LLST5
 850 036b 1A       		.uleb128 0x1a
 851 036c 746F7000 		.ascii	"top\000"
 852 0370 01       		.byte	0x1
 853 0371 29       		.byte	0x29
 854 0372 B9020000 		.4byte	0x2b9
 855 0376 23010000 		.4byte	.LLST6
 856 037a 19       		.uleb128 0x19
 857 037b 0E020000 		.4byte	.LASF21
 858 037f 01       		.byte	0x1
 859 0380 2A       		.byte	0x2a
 860 0381 8C000000 		.4byte	0x8c
 861 0385 57010000 		.4byte	.LLST7
 862 0389 19       		.uleb128 0x19
 863 038a 48030000 		.4byte	.LASF57
 864 038e 01       		.byte	0x1
 865 038f 2B       		.byte	0x2b
 866 0390 8C000000 		.4byte	0x8c
 867 0394 8B010000 		.4byte	.LLST8
 868 0398 19       		.uleb128 0x19
 869 0399 62010000 		.4byte	.LASF22
 870 039d 01       		.byte	0x1
 871 039e 2C       		.byte	0x2c
 872 039f 8C000000 		.4byte	0x8c
 873 03a3 BF010000 		.4byte	.LLST9
 874 03a7 19       		.uleb128 0x19
 875 03a8 37010000 		.4byte	.LASF56
 876 03ac 01       		.byte	0x1
ARM GAS  C:\Users\AHMED~1.ELE\AppData\Local\Temp\ccHW1nYs.s 			page 22


 877 03ad 2D       		.byte	0x2d
 878 03ae 5D000000 		.4byte	0x5d
 879 03b2 DF010000 		.4byte	.LLST10
 880 03b6 1B       		.uleb128 0x1b
 881 03b7 A1010000 		.4byte	.LASF61
 882 03bb 01       		.byte	0x1
 883 03bc 2F       		.byte	0x2f
 884 03bd 8C000000 		.4byte	0x8c
 885 03c1 FF010000 		.4byte	.LLST11
 886 03c5 1C       		.uleb128 0x1c
 887 03c6 3E000000 		.4byte	.LVL14
 888 03ca BF020000 		.4byte	0x2bf
 889 03ce DF030000 		.4byte	0x3df
 890 03d2 1D       		.uleb128 0x1d
 891 03d3 01       		.uleb128 0x1
 892 03d4 52       		.byte	0x52
 893 03d5 02       		.uleb128 0x2
 894 03d6 78       		.byte	0x78
 895 03d7 00       		.sleb128 0
 896 03d8 1D       		.uleb128 0x1d
 897 03d9 01       		.uleb128 0x1
 898 03da 51       		.byte	0x51
 899 03db 02       		.uleb128 0x2
 900 03dc 75       		.byte	0x75
 901 03dd 00       		.sleb128 0
 902 03de 00       		.byte	0
 903 03df 1C       		.uleb128 0x1c
 904 03e0 54000000 		.4byte	.LVL17
 905 03e4 85050000 		.4byte	0x585
 906 03e8 F3030000 		.4byte	0x3f3
 907 03ec 1D       		.uleb128 0x1d
 908 03ed 01       		.uleb128 0x1
 909 03ee 51       		.byte	0x51
 910 03ef 02       		.uleb128 0x2
 911 03f0 79       		.byte	0x79
 912 03f1 00       		.sleb128 0
 913 03f2 00       		.byte	0
 914 03f3 1C       		.uleb128 0x1c
 915 03f4 62000000 		.4byte	.LVL19
 916 03f8 9F050000 		.4byte	0x59f
 917 03fc 0D040000 		.4byte	0x40d
 918 0400 1D       		.uleb128 0x1d
 919 0401 01       		.uleb128 0x1
 920 0402 51       		.byte	0x51
 921 0403 02       		.uleb128 0x2
 922 0404 76       		.byte	0x76
 923 0405 00       		.sleb128 0
 924 0406 1D       		.uleb128 0x1d
 925 0407 01       		.uleb128 0x1
 926 0408 50       		.byte	0x50
 927 0409 02       		.uleb128 0x2
 928 040a 74       		.byte	0x74
 929 040b 00       		.sleb128 0
 930 040c 00       		.byte	0
 931 040d 1E       		.uleb128 0x1e
 932 040e 70000000 		.4byte	.LVL21
 933 0412 85050000 		.4byte	0x585
ARM GAS  C:\Users\AHMED~1.ELE\AppData\Local\Temp\ccHW1nYs.s 			page 23


 934 0416 1D       		.uleb128 0x1d
 935 0417 01       		.uleb128 0x1
 936 0418 50       		.byte	0x50
 937 0419 02       		.uleb128 0x2
 938 041a 77       		.byte	0x77
 939 041b 00       		.sleb128 0
 940 041c 00       		.byte	0
 941 041d 00       		.byte	0
 942 041e 18       		.uleb128 0x18
 943 041f EF010000 		.4byte	.LASF59
 944 0423 01       		.byte	0x1
 945 0424 7F       		.byte	0x7f
 946 0425 B9020000 		.4byte	0x2b9
 947 0429 00000000 		.4byte	.LFB1
 948 042d B0000000 		.4byte	.LFE1-.LFB1
 949 0431 01       		.uleb128 0x1
 950 0432 9C       		.byte	0x9c
 951 0433 30050000 		.4byte	0x530
 952 0437 1A       		.uleb128 0x1a
 953 0438 746F7000 		.ascii	"top\000"
 954 043c 01       		.byte	0x1
 955 043d 7F       		.byte	0x7f
 956 043e B9020000 		.4byte	0x2b9
 957 0442 1D020000 		.4byte	.LLST12
 958 0446 19       		.uleb128 0x19
 959 0447 5C030000 		.4byte	.LASF60
 960 044b 01       		.byte	0x1
 961 044c 80       		.byte	0x80
 962 044d 8C000000 		.4byte	0x8c
 963 0451 57020000 		.4byte	.LLST13
 964 0455 1B       		.uleb128 0x1b
 965 0456 FC010000 		.4byte	.LASF55
 966 045a 01       		.byte	0x1
 967 045b 82       		.byte	0x82
 968 045c B9020000 		.4byte	0x2b9
 969 0460 8B020000 		.4byte	.LLST14
 970 0464 1F       		.uleb128 0x1f
 971 0465 87030000 		.4byte	.LASF37
 972 0469 01       		.byte	0x1
 973 046a 83       		.byte	0x83
 974 046b 30050000 		.4byte	0x530
 975 046f 03       		.uleb128 0x3
 976 0470 91       		.byte	0x91
 977 0471 E07D     		.sleb128 -288
 978 0473 1B       		.uleb128 0x1b
 979 0474 54030000 		.4byte	.LASF62
 980 0478 01       		.byte	0x1
 981 0479 84       		.byte	0x84
 982 047a 8C000000 		.4byte	0x8c
 983 047e B4020000 		.4byte	.LLST15
 984 0482 1B       		.uleb128 0x1b
 985 0483 37010000 		.4byte	.LASF56
 986 0487 01       		.byte	0x1
 987 0488 85       		.byte	0x85
 988 0489 5D000000 		.4byte	0x5d
 989 048d D2020000 		.4byte	.LLST16
 990 0491 1C       		.uleb128 0x1c
ARM GAS  C:\Users\AHMED~1.ELE\AppData\Local\Temp\ccHW1nYs.s 			page 24


 991 0492 2C000000 		.4byte	.LVL28
 992 0496 B9050000 		.4byte	0x5b9
 993 049a B3040000 		.4byte	0x4b3
 994 049e 1D       		.uleb128 0x1d
 995 049f 01       		.uleb128 0x1
 996 04a0 52       		.byte	0x52
 997 04a1 01       		.uleb128 0x1
 998 04a2 32       		.byte	0x32
 999 04a3 1D       		.uleb128 0x1d
 1000 04a4 01       		.uleb128 0x1
 1001 04a5 51       		.byte	0x51
 1002 04a6 05       		.uleb128 0x5
 1003 04a7 03       		.byte	0x3
 1004 04a8 00000000 		.4byte	.LC0
 1005 04ac 1D       		.uleb128 0x1d
 1006 04ad 01       		.uleb128 0x1
 1007 04ae 50       		.byte	0x50
 1008 04af 02       		.uleb128 0x2
 1009 04b0 74       		.byte	0x74
 1010 04b1 00       		.sleb128 0
 1011 04b2 00       		.byte	0
 1012 04b3 1C       		.uleb128 0x1c
 1013 04b4 42000000 		.4byte	.LVL32
 1014 04b8 D8050000 		.4byte	0x5d8
 1015 04bc CD040000 		.4byte	0x4cd
 1016 04c0 1D       		.uleb128 0x1d
 1017 04c1 01       		.uleb128 0x1
 1018 04c2 51       		.byte	0x51
 1019 04c3 02       		.uleb128 0x2
 1020 04c4 08       		.byte	0x8
 1021 04c5 2F       		.byte	0x2f
 1022 04c6 1D       		.uleb128 0x1d
 1023 04c7 01       		.uleb128 0x1
 1024 04c8 50       		.byte	0x50
 1025 04c9 02       		.uleb128 0x2
 1026 04ca 74       		.byte	0x74
 1027 04cb 00       		.sleb128 0
 1028 04cc 00       		.byte	0
 1029 04cd 1C       		.uleb128 0x1c
 1030 04ce 4C000000 		.4byte	.LVL34
 1031 04d2 F2050000 		.4byte	0x5f2
 1032 04d6 E1040000 		.4byte	0x4e1
 1033 04da 1D       		.uleb128 0x1d
 1034 04db 01       		.uleb128 0x1
 1035 04dc 50       		.byte	0x50
 1036 04dd 02       		.uleb128 0x2
 1037 04de 74       		.byte	0x74
 1038 04df 00       		.sleb128 0
 1039 04e0 00       		.byte	0
 1040 04e1 1C       		.uleb128 0x1c
 1041 04e2 68000000 		.4byte	.LVL36
 1042 04e6 07060000 		.4byte	0x607
 1043 04ea 01050000 		.4byte	0x501
 1044 04ee 1D       		.uleb128 0x1d
 1045 04ef 01       		.uleb128 0x1
 1046 04f0 52       		.byte	0x52
 1047 04f1 02       		.uleb128 0x2
ARM GAS  C:\Users\AHMED~1.ELE\AppData\Local\Temp\ccHW1nYs.s 			page 25


 1048 04f2 78       		.byte	0x78
 1049 04f3 00       		.sleb128 0
 1050 04f4 1D       		.uleb128 0x1d
 1051 04f5 01       		.uleb128 0x1
 1052 04f6 51       		.byte	0x51
 1053 04f7 02       		.uleb128 0x2
 1054 04f8 74       		.byte	0x74
 1055 04f9 00       		.sleb128 0
 1056 04fa 1D       		.uleb128 0x1d
 1057 04fb 01       		.uleb128 0x1
 1058 04fc 50       		.byte	0x50
 1059 04fd 02       		.uleb128 0x2
 1060 04fe 77       		.byte	0x77
 1061 04ff 00       		.sleb128 0
 1062 0500 00       		.byte	0
 1063 0501 1E       		.uleb128 0x1e
 1064 0502 8A000000 		.4byte	.LVL39
 1065 0506 43030000 		.4byte	0x343
 1066 050a 1D       		.uleb128 0x1d
 1067 050b 01       		.uleb128 0x1
 1068 050c 53       		.byte	0x53
 1069 050d 01       		.uleb128 0x1
 1070 050e 30       		.byte	0x30
 1071 050f 1D       		.uleb128 0x1d
 1072 0510 01       		.uleb128 0x1
 1073 0511 52       		.byte	0x52
 1074 0512 02       		.uleb128 0x2
 1075 0513 77       		.byte	0x77
 1076 0514 00       		.sleb128 0
 1077 0515 1D       		.uleb128 0x1d
 1078 0516 01       		.uleb128 0x1
 1079 0517 51       		.byte	0x51
 1080 0518 02       		.uleb128 0x2
 1081 0519 75       		.byte	0x75
 1082 051a 00       		.sleb128 0
 1083 051b 1D       		.uleb128 0x1d
 1084 051c 01       		.uleb128 0x1
 1085 051d 50       		.byte	0x50
 1086 051e 02       		.uleb128 0x2
 1087 051f 75       		.byte	0x75
 1088 0520 00       		.sleb128 0
 1089 0521 1D       		.uleb128 0x1d
 1090 0522 02       		.uleb128 0x2
 1091 0523 7D       		.byte	0x7d
 1092 0524 04       		.sleb128 4
 1093 0525 02       		.uleb128 0x2
 1094 0526 79       		.byte	0x79
 1095 0527 00       		.sleb128 0
 1096 0528 1D       		.uleb128 0x1d
 1097 0529 02       		.uleb128 0x2
 1098 052a 7D       		.byte	0x7d
 1099 052b 00       		.sleb128 0
 1100 052c 01       		.uleb128 0x1
 1101 052d 30       		.byte	0x30
 1102 052e 00       		.byte	0
 1103 052f 00       		.byte	0
 1104 0530 20       		.uleb128 0x20
ARM GAS  C:\Users\AHMED~1.ELE\AppData\Local\Temp\ccHW1nYs.s 			page 26


 1105 0531 85000000 		.4byte	0x85
 1106 0535 40050000 		.4byte	0x540
 1107 0539 21       		.uleb128 0x21
 1108 053a 78000000 		.4byte	0x78
 1109 053e FF       		.byte	0xff
 1110 053f 00       		.byte	0
 1111 0540 18       		.uleb128 0x18
 1112 0541 7A030000 		.4byte	.LASF63
 1113 0545 01       		.byte	0x1
 1114 0546 F6       		.byte	0xf6
 1115 0547 B9020000 		.4byte	0x2b9
 1116 054b 00000000 		.4byte	.LFB3
 1117 054f 2E000000 		.4byte	.LFE3-.LFB3
 1118 0553 01       		.uleb128 0x1
 1119 0554 9C       		.byte	0x9c
 1120 0555 85050000 		.4byte	0x585
 1121 0559 19       		.uleb128 0x19
 1122 055a FC010000 		.4byte	.LASF55
 1123 055e 01       		.byte	0x1
 1124 055f F6       		.byte	0xf6
 1125 0560 B9020000 		.4byte	0x2b9
 1126 0564 F1020000 		.4byte	.LLST17
 1127 0568 22       		.uleb128 0x22
 1128 0569 746F7000 		.ascii	"top\000"
 1129 056d 01       		.byte	0x1
 1130 056e F7       		.byte	0xf7
 1131 056f B9020000 		.4byte	0x2b9
 1132 0573 01       		.uleb128 0x1
 1133 0574 51       		.byte	0x51
 1134 0575 19       		.uleb128 0x19
 1135 0576 37010000 		.4byte	.LASF56
 1136 057a 01       		.byte	0x1
 1137 057b F8       		.byte	0xf8
 1138 057c 5D000000 		.4byte	0x5d
 1139 0580 4C030000 		.4byte	.LLST18
 1140 0584 00       		.byte	0
 1141 0585 23       		.uleb128 0x23
 1142 0586 4D030000 		.4byte	.LASF65
 1143 058a 04       		.byte	0x4
 1144 058b 1C       		.byte	0x1c
 1145 058c 5D000000 		.4byte	0x5d
 1146 0590 9F050000 		.4byte	0x59f
 1147 0594 0C       		.uleb128 0xc
 1148 0595 8C000000 		.4byte	0x8c
 1149 0599 0C       		.uleb128 0xc
 1150 059a 8C000000 		.4byte	0x8c
 1151 059e 00       		.byte	0
 1152 059f 23       		.uleb128 0x23
 1153 05a0 DC010000 		.4byte	.LASF66
 1154 05a4 03       		.byte	0x3
 1155 05a5 CA       		.byte	0xca
 1156 05a6 8C000000 		.4byte	0x8c
 1157 05aa B9050000 		.4byte	0x5b9
 1158 05ae 0C       		.uleb128 0xc
 1159 05af B9020000 		.4byte	0x2b9
 1160 05b3 0C       		.uleb128 0xc
 1161 05b4 8C000000 		.4byte	0x8c
ARM GAS  C:\Users\AHMED~1.ELE\AppData\Local\Temp\ccHW1nYs.s 			page 27


 1162 05b8 00       		.byte	0
 1163 05b9 23       		.uleb128 0x23
 1164 05ba 50010000 		.4byte	.LASF67
 1165 05be 04       		.byte	0x4
 1166 05bf 23       		.byte	0x23
 1167 05c0 5D000000 		.4byte	0x5d
 1168 05c4 D8050000 		.4byte	0x5d8
 1169 05c8 0C       		.uleb128 0xc
 1170 05c9 8C000000 		.4byte	0x8c
 1171 05cd 0C       		.uleb128 0xc
 1172 05ce 8C000000 		.4byte	0x8c
 1173 05d2 0C       		.uleb128 0xc
 1174 05d3 6B000000 		.4byte	0x6b
 1175 05d7 00       		.byte	0
 1176 05d8 23       		.uleb128 0x23
 1177 05d9 75020000 		.4byte	.LASF68
 1178 05dd 04       		.byte	0x4
 1179 05de 1B       		.byte	0x1b
 1180 05df 7F000000 		.4byte	0x7f
 1181 05e3 F2050000 		.4byte	0x5f2
 1182 05e7 0C       		.uleb128 0xc
 1183 05e8 8C000000 		.4byte	0x8c
 1184 05ec 0C       		.uleb128 0xc
 1185 05ed 5D000000 		.4byte	0x5d
 1186 05f1 00       		.byte	0
 1187 05f2 23       		.uleb128 0x23
 1188 05f3 89020000 		.4byte	.LASF69
 1189 05f7 04       		.byte	0x4
 1190 05f8 21       		.byte	0x21
 1191 05f9 6B000000 		.4byte	0x6b
 1192 05fd 07060000 		.4byte	0x607
 1193 0601 0C       		.uleb128 0xc
 1194 0602 8C000000 		.4byte	0x8c
 1195 0606 00       		.byte	0
 1196 0607 24       		.uleb128 0x24
 1197 0608 3F010000 		.4byte	.LASF75
 1198 060c 76000000 		.4byte	0x76
 1199 0610 0C       		.uleb128 0xc
 1200 0611 76000000 		.4byte	0x76
 1201 0615 0C       		.uleb128 0xc
 1202 0616 97000000 		.4byte	0x97
 1203 061a 0C       		.uleb128 0xc
 1204 061b 78000000 		.4byte	0x78
 1205 061f 00       		.byte	0
 1206 0620 00       		.byte	0
 1207              		.section	.debug_abbrev,"",%progbits
 1208              	.Ldebug_abbrev0:
 1209 0000 01       		.uleb128 0x1
 1210 0001 11       		.uleb128 0x11
 1211 0002 01       		.byte	0x1
 1212 0003 25       		.uleb128 0x25
 1213 0004 0E       		.uleb128 0xe
 1214 0005 13       		.uleb128 0x13
 1215 0006 0B       		.uleb128 0xb
 1216 0007 03       		.uleb128 0x3
 1217 0008 0E       		.uleb128 0xe
 1218 0009 1B       		.uleb128 0x1b
ARM GAS  C:\Users\AHMED~1.ELE\AppData\Local\Temp\ccHW1nYs.s 			page 28


 1219 000a 0E       		.uleb128 0xe
 1220 000b 55       		.uleb128 0x55
 1221 000c 17       		.uleb128 0x17
 1222 000d 11       		.uleb128 0x11
 1223 000e 01       		.uleb128 0x1
 1224 000f 10       		.uleb128 0x10
 1225 0010 17       		.uleb128 0x17
 1226 0011 00       		.byte	0
 1227 0012 00       		.byte	0
 1228 0013 02       		.uleb128 0x2
 1229 0014 24       		.uleb128 0x24
 1230 0015 00       		.byte	0
 1231 0016 0B       		.uleb128 0xb
 1232 0017 0B       		.uleb128 0xb
 1233 0018 3E       		.uleb128 0x3e
 1234 0019 0B       		.uleb128 0xb
 1235 001a 03       		.uleb128 0x3
 1236 001b 0E       		.uleb128 0xe
 1237 001c 00       		.byte	0
 1238 001d 00       		.byte	0
 1239 001e 03       		.uleb128 0x3
 1240 001f 24       		.uleb128 0x24
 1241 0020 00       		.byte	0
 1242 0021 0B       		.uleb128 0xb
 1243 0022 0B       		.uleb128 0xb
 1244 0023 3E       		.uleb128 0x3e
 1245 0024 0B       		.uleb128 0xb
 1246 0025 03       		.uleb128 0x3
 1247 0026 08       		.uleb128 0x8
 1248 0027 00       		.byte	0
 1249 0028 00       		.byte	0
 1250 0029 04       		.uleb128 0x4
 1251 002a 16       		.uleb128 0x16
 1252 002b 00       		.byte	0
 1253 002c 03       		.uleb128 0x3
 1254 002d 0E       		.uleb128 0xe
 1255 002e 3A       		.uleb128 0x3a
 1256 002f 0B       		.uleb128 0xb
 1257 0030 3B       		.uleb128 0x3b
 1258 0031 0B       		.uleb128 0xb
 1259 0032 49       		.uleb128 0x49
 1260 0033 13       		.uleb128 0x13
 1261 0034 00       		.byte	0
 1262 0035 00       		.byte	0
 1263 0036 05       		.uleb128 0x5
 1264 0037 0F       		.uleb128 0xf
 1265 0038 00       		.byte	0
 1266 0039 0B       		.uleb128 0xb
 1267 003a 0B       		.uleb128 0xb
 1268 003b 00       		.byte	0
 1269 003c 00       		.byte	0
 1270 003d 06       		.uleb128 0x6
 1271 003e 0F       		.uleb128 0xf
 1272 003f 00       		.byte	0
 1273 0040 0B       		.uleb128 0xb
 1274 0041 0B       		.uleb128 0xb
 1275 0042 49       		.uleb128 0x49
ARM GAS  C:\Users\AHMED~1.ELE\AppData\Local\Temp\ccHW1nYs.s 			page 29


 1276 0043 13       		.uleb128 0x13
 1277 0044 00       		.byte	0
 1278 0045 00       		.byte	0
 1279 0046 07       		.uleb128 0x7
 1280 0047 26       		.uleb128 0x26
 1281 0048 00       		.byte	0
 1282 0049 49       		.uleb128 0x49
 1283 004a 13       		.uleb128 0x13
 1284 004b 00       		.byte	0
 1285 004c 00       		.byte	0
 1286 004d 08       		.uleb128 0x8
 1287 004e 26       		.uleb128 0x26
 1288 004f 00       		.byte	0
 1289 0050 00       		.byte	0
 1290 0051 00       		.byte	0
 1291 0052 09       		.uleb128 0x9
 1292 0053 04       		.uleb128 0x4
 1293 0054 01       		.byte	0x1
 1294 0055 03       		.uleb128 0x3
 1295 0056 0E       		.uleb128 0xe
 1296 0057 0B       		.uleb128 0xb
 1297 0058 0B       		.uleb128 0xb
 1298 0059 3A       		.uleb128 0x3a
 1299 005a 0B       		.uleb128 0xb
 1300 005b 3B       		.uleb128 0x3b
 1301 005c 0B       		.uleb128 0xb
 1302 005d 01       		.uleb128 0x1
 1303 005e 13       		.uleb128 0x13
 1304 005f 00       		.byte	0
 1305 0060 00       		.byte	0
 1306 0061 0A       		.uleb128 0xa
 1307 0062 28       		.uleb128 0x28
 1308 0063 00       		.byte	0
 1309 0064 03       		.uleb128 0x3
 1310 0065 0E       		.uleb128 0xe
 1311 0066 1C       		.uleb128 0x1c
 1312 0067 0D       		.uleb128 0xd
 1313 0068 00       		.byte	0
 1314 0069 00       		.byte	0
 1315 006a 0B       		.uleb128 0xb
 1316 006b 15       		.uleb128 0x15
 1317 006c 01       		.byte	0x1
 1318 006d 27       		.uleb128 0x27
 1319 006e 19       		.uleb128 0x19
 1320 006f 01       		.uleb128 0x1
 1321 0070 13       		.uleb128 0x13
 1322 0071 00       		.byte	0
 1323 0072 00       		.byte	0
 1324 0073 0C       		.uleb128 0xc
 1325 0074 05       		.uleb128 0x5
 1326 0075 00       		.byte	0
 1327 0076 49       		.uleb128 0x49
 1328 0077 13       		.uleb128 0x13
 1329 0078 00       		.byte	0
 1330 0079 00       		.byte	0
 1331 007a 0D       		.uleb128 0xd
 1332 007b 13       		.uleb128 0x13
ARM GAS  C:\Users\AHMED~1.ELE\AppData\Local\Temp\ccHW1nYs.s 			page 30


 1333 007c 01       		.byte	0x1
 1334 007d 03       		.uleb128 0x3
 1335 007e 0E       		.uleb128 0xe
 1336 007f 0B       		.uleb128 0xb
 1337 0080 0B       		.uleb128 0xb
 1338 0081 3A       		.uleb128 0x3a
 1339 0082 0B       		.uleb128 0xb
 1340 0083 3B       		.uleb128 0x3b
 1341 0084 0B       		.uleb128 0xb
 1342 0085 01       		.uleb128 0x1
 1343 0086 13       		.uleb128 0x13
 1344 0087 00       		.byte	0
 1345 0088 00       		.byte	0
 1346 0089 0E       		.uleb128 0xe
 1347 008a 0D       		.uleb128 0xd
 1348 008b 00       		.byte	0
 1349 008c 03       		.uleb128 0x3
 1350 008d 0E       		.uleb128 0xe
 1351 008e 3A       		.uleb128 0x3a
 1352 008f 0B       		.uleb128 0xb
 1353 0090 3B       		.uleb128 0x3b
 1354 0091 0B       		.uleb128 0xb
 1355 0092 49       		.uleb128 0x49
 1356 0093 13       		.uleb128 0x13
 1357 0094 38       		.uleb128 0x38
 1358 0095 0B       		.uleb128 0xb
 1359 0096 00       		.byte	0
 1360 0097 00       		.byte	0
 1361 0098 0F       		.uleb128 0xf
 1362 0099 17       		.uleb128 0x17
 1363 009a 01       		.byte	0x1
 1364 009b 03       		.uleb128 0x3
 1365 009c 0E       		.uleb128 0xe
 1366 009d 0B       		.uleb128 0xb
 1367 009e 0B       		.uleb128 0xb
 1368 009f 3A       		.uleb128 0x3a
 1369 00a0 0B       		.uleb128 0xb
 1370 00a1 3B       		.uleb128 0x3b
 1371 00a2 0B       		.uleb128 0xb
 1372 00a3 01       		.uleb128 0x1
 1373 00a4 13       		.uleb128 0x13
 1374 00a5 00       		.byte	0
 1375 00a6 00       		.byte	0
 1376 00a7 10       		.uleb128 0x10
 1377 00a8 0D       		.uleb128 0xd
 1378 00a9 00       		.byte	0
 1379 00aa 03       		.uleb128 0x3
 1380 00ab 0E       		.uleb128 0xe
 1381 00ac 3A       		.uleb128 0x3a
 1382 00ad 0B       		.uleb128 0xb
 1383 00ae 3B       		.uleb128 0x3b
 1384 00af 0B       		.uleb128 0xb
 1385 00b0 49       		.uleb128 0x49
 1386 00b1 13       		.uleb128 0x13
 1387 00b2 00       		.byte	0
 1388 00b3 00       		.byte	0
 1389 00b4 11       		.uleb128 0x11
ARM GAS  C:\Users\AHMED~1.ELE\AppData\Local\Temp\ccHW1nYs.s 			page 31


 1390 00b5 2E       		.uleb128 0x2e
 1391 00b6 01       		.byte	0x1
 1392 00b7 3F       		.uleb128 0x3f
 1393 00b8 19       		.uleb128 0x19
 1394 00b9 03       		.uleb128 0x3
 1395 00ba 0E       		.uleb128 0xe
 1396 00bb 3A       		.uleb128 0x3a
 1397 00bc 0B       		.uleb128 0xb
 1398 00bd 3B       		.uleb128 0x3b
 1399 00be 0B       		.uleb128 0xb
 1400 00bf 27       		.uleb128 0x27
 1401 00c0 19       		.uleb128 0x19
 1402 00c1 49       		.uleb128 0x49
 1403 00c2 13       		.uleb128 0x13
 1404 00c3 20       		.uleb128 0x20
 1405 00c4 0B       		.uleb128 0xb
 1406 00c5 01       		.uleb128 0x1
 1407 00c6 13       		.uleb128 0x13
 1408 00c7 00       		.byte	0
 1409 00c8 00       		.byte	0
 1410 00c9 12       		.uleb128 0x12
 1411 00ca 05       		.uleb128 0x5
 1412 00cb 00       		.byte	0
 1413 00cc 03       		.uleb128 0x3
 1414 00cd 0E       		.uleb128 0xe
 1415 00ce 3A       		.uleb128 0x3a
 1416 00cf 0B       		.uleb128 0xb
 1417 00d0 3B       		.uleb128 0x3b
 1418 00d1 0B       		.uleb128 0xb
 1419 00d2 49       		.uleb128 0x49
 1420 00d3 13       		.uleb128 0x13
 1421 00d4 00       		.byte	0
 1422 00d5 00       		.byte	0
 1423 00d6 13       		.uleb128 0x13
 1424 00d7 05       		.uleb128 0x5
 1425 00d8 00       		.byte	0
 1426 00d9 03       		.uleb128 0x3
 1427 00da 08       		.uleb128 0x8
 1428 00db 3A       		.uleb128 0x3a
 1429 00dc 0B       		.uleb128 0xb
 1430 00dd 3B       		.uleb128 0x3b
 1431 00de 0B       		.uleb128 0xb
 1432 00df 49       		.uleb128 0x49
 1433 00e0 13       		.uleb128 0x13
 1434 00e1 00       		.byte	0
 1435 00e2 00       		.byte	0
 1436 00e3 14       		.uleb128 0x14
 1437 00e4 2E       		.uleb128 0x2e
 1438 00e5 01       		.byte	0x1
 1439 00e6 31       		.uleb128 0x31
 1440 00e7 13       		.uleb128 0x13
 1441 00e8 11       		.uleb128 0x11
 1442 00e9 01       		.uleb128 0x1
 1443 00ea 12       		.uleb128 0x12
 1444 00eb 06       		.uleb128 0x6
 1445 00ec 40       		.uleb128 0x40
 1446 00ed 18       		.uleb128 0x18
ARM GAS  C:\Users\AHMED~1.ELE\AppData\Local\Temp\ccHW1nYs.s 			page 32


 1447 00ee 9742     		.uleb128 0x2117
 1448 00f0 19       		.uleb128 0x19
 1449 00f1 01       		.uleb128 0x1
 1450 00f2 13       		.uleb128 0x13
 1451 00f3 00       		.byte	0
 1452 00f4 00       		.byte	0
 1453 00f5 15       		.uleb128 0x15
 1454 00f6 05       		.uleb128 0x5
 1455 00f7 00       		.byte	0
 1456 00f8 31       		.uleb128 0x31
 1457 00f9 13       		.uleb128 0x13
 1458 00fa 02       		.uleb128 0x2
 1459 00fb 17       		.uleb128 0x17
 1460 00fc 00       		.byte	0
 1461 00fd 00       		.byte	0
 1462 00fe 16       		.uleb128 0x16
 1463 00ff 05       		.uleb128 0x5
 1464 0100 00       		.byte	0
 1465 0101 31       		.uleb128 0x31
 1466 0102 13       		.uleb128 0x13
 1467 0103 02       		.uleb128 0x2
 1468 0104 18       		.uleb128 0x18
 1469 0105 00       		.byte	0
 1470 0106 00       		.byte	0
 1471 0107 17       		.uleb128 0x17
 1472 0108 0B       		.uleb128 0xb
 1473 0109 01       		.byte	0x1
 1474 010a 11       		.uleb128 0x11
 1475 010b 01       		.uleb128 0x1
 1476 010c 12       		.uleb128 0x12
 1477 010d 06       		.uleb128 0x6
 1478 010e 00       		.byte	0
 1479 010f 00       		.byte	0
 1480 0110 18       		.uleb128 0x18
 1481 0111 2E       		.uleb128 0x2e
 1482 0112 01       		.byte	0x1
 1483 0113 3F       		.uleb128 0x3f
 1484 0114 19       		.uleb128 0x19
 1485 0115 03       		.uleb128 0x3
 1486 0116 0E       		.uleb128 0xe
 1487 0117 3A       		.uleb128 0x3a
 1488 0118 0B       		.uleb128 0xb
 1489 0119 3B       		.uleb128 0x3b
 1490 011a 0B       		.uleb128 0xb
 1491 011b 27       		.uleb128 0x27
 1492 011c 19       		.uleb128 0x19
 1493 011d 49       		.uleb128 0x49
 1494 011e 13       		.uleb128 0x13
 1495 011f 11       		.uleb128 0x11
 1496 0120 01       		.uleb128 0x1
 1497 0121 12       		.uleb128 0x12
 1498 0122 06       		.uleb128 0x6
 1499 0123 40       		.uleb128 0x40
 1500 0124 18       		.uleb128 0x18
 1501 0125 9742     		.uleb128 0x2117
 1502 0127 19       		.uleb128 0x19
 1503 0128 01       		.uleb128 0x1
ARM GAS  C:\Users\AHMED~1.ELE\AppData\Local\Temp\ccHW1nYs.s 			page 33


 1504 0129 13       		.uleb128 0x13
 1505 012a 00       		.byte	0
 1506 012b 00       		.byte	0
 1507 012c 19       		.uleb128 0x19
 1508 012d 05       		.uleb128 0x5
 1509 012e 00       		.byte	0
 1510 012f 03       		.uleb128 0x3
 1511 0130 0E       		.uleb128 0xe
 1512 0131 3A       		.uleb128 0x3a
 1513 0132 0B       		.uleb128 0xb
 1514 0133 3B       		.uleb128 0x3b
 1515 0134 0B       		.uleb128 0xb
 1516 0135 49       		.uleb128 0x49
 1517 0136 13       		.uleb128 0x13
 1518 0137 02       		.uleb128 0x2
 1519 0138 17       		.uleb128 0x17
 1520 0139 00       		.byte	0
 1521 013a 00       		.byte	0
 1522 013b 1A       		.uleb128 0x1a
 1523 013c 05       		.uleb128 0x5
 1524 013d 00       		.byte	0
 1525 013e 03       		.uleb128 0x3
 1526 013f 08       		.uleb128 0x8
 1527 0140 3A       		.uleb128 0x3a
 1528 0141 0B       		.uleb128 0xb
 1529 0142 3B       		.uleb128 0x3b
 1530 0143 0B       		.uleb128 0xb
 1531 0144 49       		.uleb128 0x49
 1532 0145 13       		.uleb128 0x13
 1533 0146 02       		.uleb128 0x2
 1534 0147 17       		.uleb128 0x17
 1535 0148 00       		.byte	0
 1536 0149 00       		.byte	0
 1537 014a 1B       		.uleb128 0x1b
 1538 014b 34       		.uleb128 0x34
 1539 014c 00       		.byte	0
 1540 014d 03       		.uleb128 0x3
 1541 014e 0E       		.uleb128 0xe
 1542 014f 3A       		.uleb128 0x3a
 1543 0150 0B       		.uleb128 0xb
 1544 0151 3B       		.uleb128 0x3b
 1545 0152 0B       		.uleb128 0xb
 1546 0153 49       		.uleb128 0x49
 1547 0154 13       		.uleb128 0x13
 1548 0155 02       		.uleb128 0x2
 1549 0156 17       		.uleb128 0x17
 1550 0157 00       		.byte	0
 1551 0158 00       		.byte	0
 1552 0159 1C       		.uleb128 0x1c
 1553 015a 898201   		.uleb128 0x4109
 1554 015d 01       		.byte	0x1
 1555 015e 11       		.uleb128 0x11
 1556 015f 01       		.uleb128 0x1
 1557 0160 31       		.uleb128 0x31
 1558 0161 13       		.uleb128 0x13
 1559 0162 01       		.uleb128 0x1
 1560 0163 13       		.uleb128 0x13
ARM GAS  C:\Users\AHMED~1.ELE\AppData\Local\Temp\ccHW1nYs.s 			page 34


 1561 0164 00       		.byte	0
 1562 0165 00       		.byte	0
 1563 0166 1D       		.uleb128 0x1d
 1564 0167 8A8201   		.uleb128 0x410a
 1565 016a 00       		.byte	0
 1566 016b 02       		.uleb128 0x2
 1567 016c 18       		.uleb128 0x18
 1568 016d 9142     		.uleb128 0x2111
 1569 016f 18       		.uleb128 0x18
 1570 0170 00       		.byte	0
 1571 0171 00       		.byte	0
 1572 0172 1E       		.uleb128 0x1e
 1573 0173 898201   		.uleb128 0x4109
 1574 0176 01       		.byte	0x1
 1575 0177 11       		.uleb128 0x11
 1576 0178 01       		.uleb128 0x1
 1577 0179 31       		.uleb128 0x31
 1578 017a 13       		.uleb128 0x13
 1579 017b 00       		.byte	0
 1580 017c 00       		.byte	0
 1581 017d 1F       		.uleb128 0x1f
 1582 017e 34       		.uleb128 0x34
 1583 017f 00       		.byte	0
 1584 0180 03       		.uleb128 0x3
 1585 0181 0E       		.uleb128 0xe
 1586 0182 3A       		.uleb128 0x3a
 1587 0183 0B       		.uleb128 0xb
 1588 0184 3B       		.uleb128 0x3b
 1589 0185 0B       		.uleb128 0xb
 1590 0186 49       		.uleb128 0x49
 1591 0187 13       		.uleb128 0x13
 1592 0188 02       		.uleb128 0x2
 1593 0189 18       		.uleb128 0x18
 1594 018a 00       		.byte	0
 1595 018b 00       		.byte	0
 1596 018c 20       		.uleb128 0x20
 1597 018d 01       		.uleb128 0x1
 1598 018e 01       		.byte	0x1
 1599 018f 49       		.uleb128 0x49
 1600 0190 13       		.uleb128 0x13
 1601 0191 01       		.uleb128 0x1
 1602 0192 13       		.uleb128 0x13
 1603 0193 00       		.byte	0
 1604 0194 00       		.byte	0
 1605 0195 21       		.uleb128 0x21
 1606 0196 21       		.uleb128 0x21
 1607 0197 00       		.byte	0
 1608 0198 49       		.uleb128 0x49
 1609 0199 13       		.uleb128 0x13
 1610 019a 2F       		.uleb128 0x2f
 1611 019b 0B       		.uleb128 0xb
 1612 019c 00       		.byte	0
 1613 019d 00       		.byte	0
 1614 019e 22       		.uleb128 0x22
 1615 019f 05       		.uleb128 0x5
 1616 01a0 00       		.byte	0
 1617 01a1 03       		.uleb128 0x3
ARM GAS  C:\Users\AHMED~1.ELE\AppData\Local\Temp\ccHW1nYs.s 			page 35


 1618 01a2 08       		.uleb128 0x8
 1619 01a3 3A       		.uleb128 0x3a
 1620 01a4 0B       		.uleb128 0xb
 1621 01a5 3B       		.uleb128 0x3b
 1622 01a6 0B       		.uleb128 0xb
 1623 01a7 49       		.uleb128 0x49
 1624 01a8 13       		.uleb128 0x13
 1625 01a9 02       		.uleb128 0x2
 1626 01aa 18       		.uleb128 0x18
 1627 01ab 00       		.byte	0
 1628 01ac 00       		.byte	0
 1629 01ad 23       		.uleb128 0x23
 1630 01ae 2E       		.uleb128 0x2e
 1631 01af 01       		.byte	0x1
 1632 01b0 3F       		.uleb128 0x3f
 1633 01b1 19       		.uleb128 0x19
 1634 01b2 03       		.uleb128 0x3
 1635 01b3 0E       		.uleb128 0xe
 1636 01b4 3A       		.uleb128 0x3a
 1637 01b5 0B       		.uleb128 0xb
 1638 01b6 3B       		.uleb128 0x3b
 1639 01b7 0B       		.uleb128 0xb
 1640 01b8 27       		.uleb128 0x27
 1641 01b9 19       		.uleb128 0x19
 1642 01ba 49       		.uleb128 0x49
 1643 01bb 13       		.uleb128 0x13
 1644 01bc 3C       		.uleb128 0x3c
 1645 01bd 19       		.uleb128 0x19
 1646 01be 01       		.uleb128 0x1
 1647 01bf 13       		.uleb128 0x13
 1648 01c0 00       		.byte	0
 1649 01c1 00       		.byte	0
 1650 01c2 24       		.uleb128 0x24
 1651 01c3 2E       		.uleb128 0x2e
 1652 01c4 01       		.byte	0x1
 1653 01c5 3F       		.uleb128 0x3f
 1654 01c6 19       		.uleb128 0x19
 1655 01c7 03       		.uleb128 0x3
 1656 01c8 0E       		.uleb128 0xe
 1657 01c9 27       		.uleb128 0x27
 1658 01ca 19       		.uleb128 0x19
 1659 01cb 49       		.uleb128 0x49
 1660 01cc 13       		.uleb128 0x13
 1661 01cd 34       		.uleb128 0x34
 1662 01ce 19       		.uleb128 0x19
 1663 01cf 3C       		.uleb128 0x3c
 1664 01d0 19       		.uleb128 0x19
 1665 01d1 00       		.byte	0
 1666 01d2 00       		.byte	0
 1667 01d3 00       		.byte	0
 1668              		.section	.debug_loc,"",%progbits
 1669              	.Ldebug_loc0:
 1670              	.LLST0:
 1671 0000 00000000 		.4byte	.LVL0
 1672 0004 30000000 		.4byte	.LVL7
 1673 0008 0100     		.2byte	0x1
 1674 000a 50       		.byte	0x50
ARM GAS  C:\Users\AHMED~1.ELE\AppData\Local\Temp\ccHW1nYs.s 			page 36


 1675 000b 30000000 		.4byte	.LVL7
 1676 000f 32000000 		.4byte	.LFE2
 1677 0013 0400     		.2byte	0x4
 1678 0015 F3       		.byte	0xf3
 1679 0016 01       		.uleb128 0x1
 1680 0017 50       		.byte	0x50
 1681 0018 9F       		.byte	0x9f
 1682 0019 00000000 		.4byte	0
 1683 001d 00000000 		.4byte	0
 1684              	.LLST1:
 1685 0021 00000000 		.4byte	.LVL0
 1686 0025 12000000 		.4byte	.LVL2
 1687 0029 0100     		.2byte	0x1
 1688 002b 52       		.byte	0x52
 1689 002c 12000000 		.4byte	.LVL2
 1690 0030 28000000 		.4byte	.LVL5
 1691 0034 0400     		.2byte	0x4
 1692 0036 F3       		.byte	0xf3
 1693 0037 01       		.uleb128 0x1
 1694 0038 52       		.byte	0x52
 1695 0039 9F       		.byte	0x9f
 1696 003a 28000000 		.4byte	.LVL5
 1697 003e 2E000000 		.4byte	.LVL6
 1698 0042 0100     		.2byte	0x1
 1699 0044 52       		.byte	0x52
 1700 0045 2E000000 		.4byte	.LVL6
 1701 0049 32000000 		.4byte	.LFE2
 1702 004d 0400     		.2byte	0x4
 1703 004f F3       		.byte	0xf3
 1704 0050 01       		.uleb128 0x1
 1705 0051 52       		.byte	0x52
 1706 0052 9F       		.byte	0x9f
 1707 0053 00000000 		.4byte	0
 1708 0057 00000000 		.4byte	0
 1709              	.LLST2:
 1710 005b 10000000 		.4byte	.LVL1
 1711 005f 12000000 		.4byte	.LVL2
 1712 0063 0100     		.2byte	0x1
 1713 0065 52       		.byte	0x52
 1714 0066 12000000 		.4byte	.LVL2
 1715 006a 28000000 		.4byte	.LVL5
 1716 006e 0400     		.2byte	0x4
 1717 0070 F3       		.byte	0xf3
 1718 0071 01       		.uleb128 0x1
 1719 0072 52       		.byte	0x52
 1720 0073 9F       		.byte	0x9f
 1721 0074 00000000 		.4byte	0
 1722 0078 00000000 		.4byte	0
 1723              	.LLST3:
 1724 007c 10000000 		.4byte	.LVL1
 1725 0080 28000000 		.4byte	.LVL5
 1726 0084 0100     		.2byte	0x1
 1727 0086 51       		.byte	0x51
 1728 0087 00000000 		.4byte	0
 1729 008b 00000000 		.4byte	0
 1730              	.LLST4:
 1731 008f 10000000 		.4byte	.LVL1
ARM GAS  C:\Users\AHMED~1.ELE\AppData\Local\Temp\ccHW1nYs.s 			page 37


 1732 0093 18000000 		.4byte	.LVL3
 1733 0097 0100     		.2byte	0x1
 1734 0099 50       		.byte	0x50
 1735 009a 18000000 		.4byte	.LVL3
 1736 009e 1E000000 		.4byte	.LVL4
 1737 00a2 0100     		.2byte	0x1
 1738 00a4 52       		.byte	0x52
 1739 00a5 00000000 		.4byte	0
 1740 00a9 00000000 		.4byte	0
 1741              	.LLST5:
 1742 00ad 00000000 		.4byte	.LVL8
 1743 00b1 12000000 		.4byte	.LVL9
 1744 00b5 0100     		.2byte	0x1
 1745 00b7 50       		.byte	0x50
 1746 00b8 18000000 		.4byte	.LVL10
 1747 00bc 22000000 		.4byte	.LVL11
 1748 00c0 0100     		.2byte	0x1
 1749 00c2 50       		.byte	0x50
 1750 00c3 22000000 		.4byte	.LVL11
 1751 00c7 36000000 		.4byte	.LVL13
 1752 00cb 0100     		.2byte	0x1
 1753 00cd 54       		.byte	0x54
 1754 00ce 36000000 		.4byte	.LVL13
 1755 00d2 3D000000 		.4byte	.LVL14-1
 1756 00d6 0100     		.2byte	0x1
 1757 00d8 50       		.byte	0x50
 1758 00d9 40000000 		.4byte	.LVL15
 1759 00dd 42000000 		.4byte	.LVL16
 1760 00e1 0100     		.2byte	0x1
 1761 00e3 50       		.byte	0x50
 1762 00e4 42000000 		.4byte	.LVL16
 1763 00e8 5C000000 		.4byte	.LVL18
 1764 00ec 0100     		.2byte	0x1
 1765 00ee 54       		.byte	0x54
 1766 00ef 5C000000 		.4byte	.LVL18
 1767 00f3 61000000 		.4byte	.LVL19-1
 1768 00f7 0100     		.2byte	0x1
 1769 00f9 50       		.byte	0x50
 1770 00fa 61000000 		.4byte	.LVL19-1
 1771 00fe 76000000 		.4byte	.LVL22
 1772 0102 0100     		.2byte	0x1
 1773 0104 54       		.byte	0x54
 1774 0105 76000000 		.4byte	.LVL22
 1775 0109 7A000000 		.4byte	.LVL23
 1776 010d 0100     		.2byte	0x1
 1777 010f 50       		.byte	0x50
 1778 0110 7A000000 		.4byte	.LVL23
 1779 0114 80000000 		.4byte	.LFE0
 1780 0118 0100     		.2byte	0x1
 1781 011a 54       		.byte	0x54
 1782 011b 00000000 		.4byte	0
 1783 011f 00000000 		.4byte	0
 1784              	.LLST6:
 1785 0123 00000000 		.4byte	.LVL8
 1786 0127 12000000 		.4byte	.LVL9
 1787 012b 0100     		.2byte	0x1
 1788 012d 51       		.byte	0x51
ARM GAS  C:\Users\AHMED~1.ELE\AppData\Local\Temp\ccHW1nYs.s 			page 38


 1789 012e 12000000 		.4byte	.LVL9
 1790 0132 18000000 		.4byte	.LVL10
 1791 0136 0100     		.2byte	0x1
 1792 0138 55       		.byte	0x55
 1793 0139 18000000 		.4byte	.LVL10
 1794 013d 22000000 		.4byte	.LVL11
 1795 0141 0100     		.2byte	0x1
 1796 0143 51       		.byte	0x51
 1797 0144 22000000 		.4byte	.LVL11
 1798 0148 80000000 		.4byte	.LFE0
 1799 014c 0100     		.2byte	0x1
 1800 014e 55       		.byte	0x55
 1801 014f 00000000 		.4byte	0
 1802 0153 00000000 		.4byte	0
 1803              	.LLST7:
 1804 0157 00000000 		.4byte	.LVL8
 1805 015b 12000000 		.4byte	.LVL9
 1806 015f 0100     		.2byte	0x1
 1807 0161 52       		.byte	0x52
 1808 0162 12000000 		.4byte	.LVL9
 1809 0166 18000000 		.4byte	.LVL10
 1810 016a 0100     		.2byte	0x1
 1811 016c 59       		.byte	0x59
 1812 016d 18000000 		.4byte	.LVL10
 1813 0171 22000000 		.4byte	.LVL11
 1814 0175 0100     		.2byte	0x1
 1815 0177 52       		.byte	0x52
 1816 0178 22000000 		.4byte	.LVL11
 1817 017c 80000000 		.4byte	.LFE0
 1818 0180 0100     		.2byte	0x1
 1819 0182 59       		.byte	0x59
 1820 0183 00000000 		.4byte	0
 1821 0187 00000000 		.4byte	0
 1822              	.LLST8:
 1823 018b 00000000 		.4byte	.LVL8
 1824 018f 12000000 		.4byte	.LVL9
 1825 0193 0100     		.2byte	0x1
 1826 0195 53       		.byte	0x53
 1827 0196 12000000 		.4byte	.LVL9
 1828 019a 18000000 		.4byte	.LVL10
 1829 019e 0100     		.2byte	0x1
 1830 01a0 56       		.byte	0x56
 1831 01a1 18000000 		.4byte	.LVL10
 1832 01a5 22000000 		.4byte	.LVL11
 1833 01a9 0100     		.2byte	0x1
 1834 01ab 53       		.byte	0x53
 1835 01ac 22000000 		.4byte	.LVL11
 1836 01b0 80000000 		.4byte	.LFE0
 1837 01b4 0100     		.2byte	0x1
 1838 01b6 56       		.byte	0x56
 1839 01b7 00000000 		.4byte	0
 1840 01bb 00000000 		.4byte	0
 1841              	.LLST9:
 1842 01bf 00000000 		.4byte	.LVL8
 1843 01c3 18000000 		.4byte	.LVL10
 1844 01c7 0200     		.2byte	0x2
 1845 01c9 91       		.byte	0x91
ARM GAS  C:\Users\AHMED~1.ELE\AppData\Local\Temp\ccHW1nYs.s 			page 39


 1846 01ca 00       		.sleb128 0
 1847 01cb 18000000 		.4byte	.LVL10
 1848 01cf 80000000 		.4byte	.LFE0
 1849 01d3 0200     		.2byte	0x2
 1850 01d5 91       		.byte	0x91
 1851 01d6 00       		.sleb128 0
 1852 01d7 00000000 		.4byte	0
 1853 01db 00000000 		.4byte	0
 1854              	.LLST10:
 1855 01df 00000000 		.4byte	.LVL8
 1856 01e3 18000000 		.4byte	.LVL10
 1857 01e7 0200     		.2byte	0x2
 1858 01e9 91       		.byte	0x91
 1859 01ea 04       		.sleb128 4
 1860 01eb 18000000 		.4byte	.LVL10
 1861 01ef 80000000 		.4byte	.LFE0
 1862 01f3 0200     		.2byte	0x2
 1863 01f5 91       		.byte	0x91
 1864 01f6 04       		.sleb128 4
 1865 01f7 00000000 		.4byte	0
 1866 01fb 00000000 		.4byte	0
 1867              	.LLST11:
 1868 01ff 62000000 		.4byte	.LVL19
 1869 0203 6C000000 		.4byte	.LVL20
 1870 0207 0100     		.2byte	0x1
 1871 0209 50       		.byte	0x50
 1872 020a 6C000000 		.4byte	.LVL20
 1873 020e 6F000000 		.4byte	.LVL21-1
 1874 0212 0100     		.2byte	0x1
 1875 0214 51       		.byte	0x51
 1876 0215 00000000 		.4byte	0
 1877 0219 00000000 		.4byte	0
 1878              	.LLST12:
 1879 021d 00000000 		.4byte	.LVL24
 1880 0221 0C000000 		.4byte	.LVL25
 1881 0225 0100     		.2byte	0x1
 1882 0227 50       		.byte	0x50
 1883 0228 0C000000 		.4byte	.LVL25
 1884 022c 10000000 		.4byte	.LVL26
 1885 0230 0400     		.2byte	0x4
 1886 0232 F3       		.byte	0xf3
 1887 0233 01       		.uleb128 0x1
 1888 0234 50       		.byte	0x50
 1889 0235 9F       		.byte	0x9f
 1890 0236 10000000 		.4byte	.LVL26
 1891 023a 1C000000 		.4byte	.LVL27
 1892 023e 0100     		.2byte	0x1
 1893 0240 50       		.byte	0x50
 1894 0241 1C000000 		.4byte	.LVL27
 1895 0245 B0000000 		.4byte	.LFE1
 1896 0249 0400     		.2byte	0x4
 1897 024b F3       		.byte	0xf3
 1898 024c 01       		.uleb128 0x1
 1899 024d 50       		.byte	0x50
 1900 024e 9F       		.byte	0x9f
 1901 024f 00000000 		.4byte	0
 1902 0253 00000000 		.4byte	0
ARM GAS  C:\Users\AHMED~1.ELE\AppData\Local\Temp\ccHW1nYs.s 			page 40


 1903              	.LLST13:
 1904 0257 00000000 		.4byte	.LVL24
 1905 025b 0C000000 		.4byte	.LVL25
 1906 025f 0100     		.2byte	0x1
 1907 0261 51       		.byte	0x51
 1908 0262 0C000000 		.4byte	.LVL25
 1909 0266 10000000 		.4byte	.LVL26
 1910 026a 0100     		.2byte	0x1
 1911 026c 54       		.byte	0x54
 1912 026d 10000000 		.4byte	.LVL26
 1913 0271 1C000000 		.4byte	.LVL27
 1914 0275 0100     		.2byte	0x1
 1915 0277 51       		.byte	0x51
 1916 0278 1C000000 		.4byte	.LVL27
 1917 027c AA000000 		.4byte	.LVL42
 1918 0280 0100     		.2byte	0x1
 1919 0282 54       		.byte	0x54
 1920 0283 00000000 		.4byte	0
 1921 0287 00000000 		.4byte	0
 1922              	.LLST14:
 1923 028b 1C000000 		.4byte	.LVL27
 1924 028f 8A000000 		.4byte	.LVL39
 1925 0293 0100     		.2byte	0x1
 1926 0295 55       		.byte	0x55
 1927 0296 8A000000 		.4byte	.LVL39
 1928 029a 92000000 		.4byte	.LVL40
 1929 029e 0100     		.2byte	0x1
 1930 02a0 50       		.byte	0x50
 1931 02a1 92000000 		.4byte	.LVL40
 1932 02a5 A4000000 		.4byte	.LVL41
 1933 02a9 0100     		.2byte	0x1
 1934 02ab 55       		.byte	0x55
 1935 02ac 00000000 		.4byte	0
 1936 02b0 00000000 		.4byte	0
 1937              	.LLST15:
 1938 02b4 42000000 		.4byte	.LVL32
 1939 02b8 48000000 		.4byte	.LVL33
 1940 02bc 0100     		.2byte	0x1
 1941 02be 50       		.byte	0x50
 1942 02bf 48000000 		.4byte	.LVL33
 1943 02c3 92000000 		.4byte	.LVL40
 1944 02c7 0100     		.2byte	0x1
 1945 02c9 56       		.byte	0x56
 1946 02ca 00000000 		.4byte	0
 1947 02ce 00000000 		.4byte	0
 1948              	.LLST16:
 1949 02d2 30000000 		.4byte	.LVL29
 1950 02d6 36000000 		.4byte	.LVL30
 1951 02da 0200     		.2byte	0x2
 1952 02dc 31       		.byte	0x31
 1953 02dd 9F       		.byte	0x9f
 1954 02de 3A000000 		.4byte	.LVL31
 1955 02e2 92000000 		.4byte	.LVL40
 1956 02e6 0100     		.2byte	0x1
 1957 02e8 59       		.byte	0x59
 1958 02e9 00000000 		.4byte	0
 1959 02ed 00000000 		.4byte	0
ARM GAS  C:\Users\AHMED~1.ELE\AppData\Local\Temp\ccHW1nYs.s 			page 41


 1960              	.LLST17:
 1961 02f1 00000000 		.4byte	.LVL43
 1962 02f5 0A000000 		.4byte	.LVL44
 1963 02f9 0100     		.2byte	0x1
 1964 02fb 50       		.byte	0x50
 1965 02fc 0A000000 		.4byte	.LVL44
 1966 0300 0E000000 		.4byte	.LVL45
 1967 0304 0100     		.2byte	0x1
 1968 0306 53       		.byte	0x53
 1969 0307 0E000000 		.4byte	.LVL45
 1970 030b 14000000 		.4byte	.LVL46
 1971 030f 0400     		.2byte	0x4
 1972 0311 F3       		.byte	0xf3
 1973 0312 01       		.uleb128 0x1
 1974 0313 50       		.byte	0x50
 1975 0314 9F       		.byte	0x9f
 1976 0315 14000000 		.4byte	.LVL46
 1977 0319 1A000000 		.4byte	.LVL47
 1978 031d 0100     		.2byte	0x1
 1979 031f 53       		.byte	0x53
 1980 0320 1C000000 		.4byte	.LVL48
 1981 0324 2A000000 		.4byte	.LVL50
 1982 0328 0100     		.2byte	0x1
 1983 032a 53       		.byte	0x53
 1984 032b 2A000000 		.4byte	.LVL50
 1985 032f 2C000000 		.4byte	.LVL51
 1986 0333 0100     		.2byte	0x1
 1987 0335 50       		.byte	0x50
 1988 0336 2C000000 		.4byte	.LVL51
 1989 033a 2E000000 		.4byte	.LFE3
 1990 033e 0400     		.2byte	0x4
 1991 0340 F3       		.byte	0xf3
 1992 0341 01       		.uleb128 0x1
 1993 0342 50       		.byte	0x50
 1994 0343 9F       		.byte	0x9f
 1995 0344 00000000 		.4byte	0
 1996 0348 00000000 		.4byte	0
 1997              	.LLST18:
 1998 034c 00000000 		.4byte	.LVL43
 1999 0350 14000000 		.4byte	.LVL46
 2000 0354 0100     		.2byte	0x1
 2001 0356 52       		.byte	0x52
 2002 0357 14000000 		.4byte	.LVL46
 2003 035b 1C000000 		.4byte	.LVL48
 2004 035f 0400     		.2byte	0x4
 2005 0361 F3       		.byte	0xf3
 2006 0362 01       		.uleb128 0x1
 2007 0363 52       		.byte	0x52
 2008 0364 9F       		.byte	0x9f
 2009 0365 1C000000 		.4byte	.LVL48
 2010 0369 26000000 		.4byte	.LVL49
 2011 036d 0100     		.2byte	0x1
 2012 036f 52       		.byte	0x52
 2013 0370 26000000 		.4byte	.LVL49
 2014 0374 2A000000 		.4byte	.LVL50
 2015 0378 0400     		.2byte	0x4
 2016 037a F3       		.byte	0xf3
ARM GAS  C:\Users\AHMED~1.ELE\AppData\Local\Temp\ccHW1nYs.s 			page 42


 2017 037b 01       		.uleb128 0x1
 2018 037c 52       		.byte	0x52
 2019 037d 9F       		.byte	0x9f
 2020 037e 2A000000 		.4byte	.LVL50
 2021 0382 2E000000 		.4byte	.LFE3
 2022 0386 0100     		.2byte	0x1
 2023 0388 52       		.byte	0x52
 2024 0389 00000000 		.4byte	0
 2025 038d 00000000 		.4byte	0
 2026              		.section	.debug_aranges,"",%progbits
 2027 0000 34000000 		.4byte	0x34
 2028 0004 0200     		.2byte	0x2
 2029 0006 00000000 		.4byte	.Ldebug_info0
 2030 000a 04       		.byte	0x4
 2031 000b 00       		.byte	0
 2032 000c 0000     		.2byte	0
 2033 000e 0000     		.2byte	0
 2034 0010 00000000 		.4byte	.LFB2
 2035 0014 32000000 		.4byte	.LFE2-.LFB2
 2036 0018 00000000 		.4byte	.LFB0
 2037 001c 80000000 		.4byte	.LFE0-.LFB0
 2038 0020 00000000 		.4byte	.LFB1
 2039 0024 B0000000 		.4byte	.LFE1-.LFB1
 2040 0028 00000000 		.4byte	.LFB3
 2041 002c 2E000000 		.4byte	.LFE3-.LFB3
 2042 0030 00000000 		.4byte	0
 2043 0034 00000000 		.4byte	0
 2044              		.section	.debug_ranges,"",%progbits
 2045              	.Ldebug_ranges0:
 2046 0000 00000000 		.4byte	.LFB2
 2047 0004 32000000 		.4byte	.LFE2
 2048 0008 00000000 		.4byte	.LFB0
 2049 000c 80000000 		.4byte	.LFE0
 2050 0010 00000000 		.4byte	.LFB1
 2051 0014 B0000000 		.4byte	.LFE1
 2052 0018 00000000 		.4byte	.LFB3
 2053 001c 2E000000 		.4byte	.LFE3
 2054 0020 00000000 		.4byte	0
 2055 0024 00000000 		.4byte	0
 2056              		.section	.debug_line,"",%progbits
 2057              	.Ldebug_line0:
 2058 0000 97010000 		.section	.debug_str,"MS",%progbits,1
 2058      0200BA00 
 2058      00000201 
 2058      FB0E0D00 
 2058      01010101 
 2059              	.LASF29:
 2060 0000 6D786D6C 		.ascii	"mxml_text_s\000"
 2060      5F746578 
 2060      745F7300 
 2061              	.LASF32:
 2062 000c 6D786D6C 		.ascii	"mxml_text_t\000"
 2062      5F746578 
 2062      745F7400 
 2063              	.LASF70:
 2064 0018 474E5520 		.ascii	"GNU C 4.9.3 20141119 (release) [ARM/embedded-4_9-br"
 2064      4320342E 
ARM GAS  C:\Users\AHMED~1.ELE\AppData\Local\Temp\ccHW1nYs.s 			page 43


 2064      392E3320 
 2064      32303134 
 2064      31313139 
 2065 004b 616E6368 		.ascii	"anch revision 218278] -mthumb -mcpu=cortex-a5 -mthu"
 2065      20726576 
 2065      6973696F 
 2065      6E203231 
 2065      38323738 
 2066 007e 6D622D69 		.ascii	"mb-interwork -mstructure-size-boundary=32 -mno-unal"
 2066      6E746572 
 2066      776F726B 
 2066      202D6D73 
 2066      74727563 
 2067 00b1 69676E65 		.ascii	"igned-access -g -Os -ffunction-sections -fsigned-ch"
 2067      642D6163 
 2067      63657373 
 2067      202D6720 
 2067      2D4F7320 
 2068 00e4 617200   		.ascii	"ar\000"
 2069              	.LASF39:
 2070 00e7 6F706171 		.ascii	"opaque\000"
 2070      756500
 2071              	.LASF41:
 2072 00ee 74657874 		.ascii	"text\000"
 2072      00
 2073              	.LASF38:
 2074 00f3 696E7465 		.ascii	"integer\000"
 2074      67657200 
 2075              	.LASF48:
 2076 00fb 70726576 		.ascii	"prev\000"
 2076      00
 2077              	.LASF24:
 2078 0100 6D786D6C 		.ascii	"mxml_attr_s\000"
 2078      5F617474 
 2078      725F7300 
 2079              	.LASF23:
 2080 010c 6D786D6C 		.ascii	"mxml_attr_t\000"
 2080      5F617474 
 2080      725F7400 
 2081              	.LASF18:
 2082 0118 73697A65 		.ascii	"size_t\000"
 2082      5F7400
 2083              	.LASF45:
 2084 011f 6D786D6C 		.ascii	"mxml_node_s\000"
 2084      5F6E6F64 
 2084      655F7300 
 2085              	.LASF54:
 2086 012b 6D786D6C 		.ascii	"mxml_node_t\000"
 2086      5F6E6F64 
 2086      655F7400 
 2087              	.LASF56:
 2088 0137 64657363 		.ascii	"descend\000"
 2088      656E6400 
 2089              	.LASF75:
 2090 013f 6D656D63 		.ascii	"memcpy\000"
 2090      707900
 2091              	.LASF26:
ARM GAS  C:\Users\AHMED~1.ELE\AppData\Local\Temp\ccHW1nYs.s 			page 44


 2092 0146 6E756D5F 		.ascii	"num_attrs\000"
 2092      61747472 
 2092      7300
 2093              	.LASF67:
 2094 0150 7374726E 		.ascii	"strncmp\000"
 2094      636D7000 
 2095              	.LASF2:
 2096 0158 73686F72 		.ascii	"short int\000"
 2096      7420696E 
 2096      7400
 2097              	.LASF22:
 2098 0162 76616C75 		.ascii	"value\000"
 2098      6500
 2099              	.LASF53:
 2100 0168 75736572 		.ascii	"user_data\000"
 2100      5F646174 
 2100      6100
 2101              	.LASF49:
 2102 0172 70617265 		.ascii	"parent\000"
 2102      6E7400
 2103              	.LASF25:
 2104 0179 6D786D6C 		.ascii	"mxml_element_s\000"
 2104      5F656C65 
 2104      6D656E74 
 2104      5F7300
 2105              	.LASF28:
 2106 0188 6D786D6C 		.ascii	"mxml_element_t\000"
 2106      5F656C65 
 2106      6D656E74 
 2106      5F7400
 2107              	.LASF16:
 2108 0197 4D584D4C 		.ascii	"MXML_TEXT\000"
 2108      5F544558 
 2108      5400
 2109              	.LASF61:
 2110 01a1 74656D70 		.ascii	"temp\000"
 2110      00
 2111              	.LASF6:
 2112 01a6 6C6F6E67 		.ascii	"long long int\000"
 2112      206C6F6E 
 2112      6720696E 
 2112      7400
 2113              	.LASF40:
 2114 01b4 7265616C 		.ascii	"real\000"
 2114      00
 2115              	.LASF4:
 2116 01b9 6C6F6E67 		.ascii	"long int\000"
 2116      20696E74 
 2116      00
 2117              	.LASF31:
 2118 01c2 73747269 		.ascii	"string\000"
 2118      6E6700
 2119              	.LASF9:
 2120 01c9 73697A65 		.ascii	"sizetype\000"
 2120      74797065 
 2120      00
 2121              	.LASF52:
ARM GAS  C:\Users\AHMED~1.ELE\AppData\Local\Temp\ccHW1nYs.s 			page 45


 2122 01d2 7265665F 		.ascii	"ref_count\000"
 2122      636F756E 
 2122      7400
 2123              	.LASF66:
 2124 01dc 6D786D6C 		.ascii	"mxmlElementGetAttr\000"
 2124      456C656D 
 2124      656E7447 
 2124      65744174 
 2124      747200
 2125              	.LASF59:
 2126 01ef 6D786D6C 		.ascii	"mxmlFindPath\000"
 2126      46696E64 
 2126      50617468 
 2126      00
 2127              	.LASF55:
 2128 01fc 6E6F6465 		.ascii	"node\000"
 2128      00
 2129              	.LASF64:
 2130 0201 6D786D6C 		.ascii	"mxmlWalkNext\000"
 2130      57616C6B 
 2130      4E657874 
 2130      00
 2131              	.LASF21:
 2132 020e 6E616D65 		.ascii	"name\000"
 2132      00
 2133              	.LASF35:
 2134 0213 64657374 		.ascii	"destroy\000"
 2134      726F7900 
 2135              	.LASF12:
 2136 021b 4D584D4C 		.ascii	"MXML_ELEMENT\000"
 2136      5F454C45 
 2136      4D454E54 
 2136      00
 2137              	.LASF1:
 2138 0228 756E7369 		.ascii	"unsigned char\000"
 2138      676E6564 
 2138      20636861 
 2138      7200
 2139              	.LASF17:
 2140 0236 4D584D4C 		.ascii	"MXML_CUSTOM\000"
 2140      5F435553 
 2140      544F4D00 
 2141              	.LASF0:
 2142 0242 7369676E 		.ascii	"signed char\000"
 2142      65642063 
 2142      68617200 
 2143              	.LASF7:
 2144 024e 6C6F6E67 		.ascii	"long long unsigned int\000"
 2144      206C6F6E 
 2144      6720756E 
 2144      7369676E 
 2144      65642069 
 2145              	.LASF46:
 2146 0265 74797065 		.ascii	"type\000"
 2146      00
 2147              	.LASF30:
 2148 026a 77686974 		.ascii	"whitespace\000"
ARM GAS  C:\Users\AHMED~1.ELE\AppData\Local\Temp\ccHW1nYs.s 			page 46


 2148      65737061 
 2148      636500
 2149              	.LASF68:
 2150 0275 73747263 		.ascii	"strchr\000"
 2150      687200
 2151              	.LASF8:
 2152 027c 756E7369 		.ascii	"unsigned int\000"
 2152      676E6564 
 2152      20696E74 
 2152      00
 2153              	.LASF69:
 2154 0289 7374726C 		.ascii	"strlen\000"
 2154      656E00
 2155              	.LASF27:
 2156 0290 61747472 		.ascii	"attrs\000"
 2156      7300
 2157              	.LASF58:
 2158 0296 6D786D6C 		.ascii	"mxmlFindElement\000"
 2158      46696E64 
 2158      456C656D 
 2158      656E7400 
 2159              	.LASF3:
 2160 02a6 73686F72 		.ascii	"short unsigned int\000"
 2160      7420756E 
 2160      7369676E 
 2160      65642069 
 2160      6E7400
 2161              	.LASF42:
 2162 02b9 63757374 		.ascii	"custom\000"
 2162      6F6D00
 2163              	.LASF15:
 2164 02c0 4D584D4C 		.ascii	"MXML_REAL\000"
 2164      5F524541 
 2164      4C00
 2165              	.LASF73:
 2166 02ca 6D786D6C 		.ascii	"mxml_type_e\000"
 2166      5F747970 
 2166      655F6500 
 2167              	.LASF10:
 2168 02d6 63686172 		.ascii	"char\000"
 2168      00
 2169              	.LASF51:
 2170 02db 6C617374 		.ascii	"last_child\000"
 2170      5F636869 
 2170      6C6400
 2171              	.LASF13:
 2172 02e6 4D584D4C 		.ascii	"MXML_INTEGER\000"
 2172      5F494E54 
 2172      45474552 
 2172      00
 2173              	.LASF19:
 2174 02f3 6D786D6C 		.ascii	"mxml_type_t\000"
 2174      5F747970 
 2174      655F7400 
 2175              	.LASF34:
 2176 02ff 64617461 		.ascii	"data\000"
 2176      00
ARM GAS  C:\Users\AHMED~1.ELE\AppData\Local\Temp\ccHW1nYs.s 			page 47


 2177              	.LASF5:
 2178 0304 6C6F6E67 		.ascii	"long unsigned int\000"
 2178      20756E73 
 2178      69676E65 
 2178      6420696E 
 2178      7400
 2179              	.LASF72:
 2180 0316 433A5C54 		.ascii	"C:\\T1000-A5\\Projects\\APM\\apm_v3.0s03\000"
 2180      31303030 
 2180      2D41355C 
 2180      50726F6A 
 2180      65637473 
 2181              	.LASF43:
 2182 033b 646F7562 		.ascii	"double\000"
 2182      6C6500
 2183              	.LASF50:
 2184 0342 6368696C 		.ascii	"child\000"
 2184      6400
 2185              	.LASF57:
 2186 0348 61747472 		.ascii	"attr\000"
 2186      00
 2187              	.LASF65:
 2188 034d 73747263 		.ascii	"strcmp\000"
 2188      6D7000
 2189              	.LASF62:
 2190 0354 70617468 		.ascii	"pathsep\000"
 2190      73657000 
 2191              	.LASF60:
 2192 035c 70617468 		.ascii	"path\000"
 2192      00
 2193              	.LASF20:
 2194 0361 6D786D6C 		.ascii	"mxml_custom_destroy_cb_t\000"
 2194      5F637573 
 2194      746F6D5F 
 2194      64657374 
 2194      726F795F 
 2195              	.LASF63:
 2196 037a 6D786D6C 		.ascii	"mxmlWalkPrev\000"
 2196      57616C6B 
 2196      50726576 
 2196      00
 2197              	.LASF37:
 2198 0387 656C656D 		.ascii	"element\000"
 2198      656E7400 
 2199              	.LASF11:
 2200 038f 4D584D4C 		.ascii	"MXML_IGNORE\000"
 2200      5F49474E 
 2200      4F524500 
 2201              	.LASF44:
 2202 039b 6D786D6C 		.ascii	"mxml_value_t\000"
 2202      5F76616C 
 2202      75655F74 
 2202      00
 2203              	.LASF74:
 2204 03a8 6D786D6C 		.ascii	"mxml_value_u\000"
 2204      5F76616C 
 2204      75655F75 
ARM GAS  C:\Users\AHMED~1.ELE\AppData\Local\Temp\ccHW1nYs.s 			page 48


 2204      00
 2205              	.LASF71:
 2206 03b5 7372632F 		.ascii	"src/mxml-search.c\000"
 2206      6D786D6C 
 2206      2D736561 
 2206      7263682E 
 2206      6300
 2207              	.LASF14:
 2208 03c7 4D584D4C 		.ascii	"MXML_OPAQUE\000"
 2208      5F4F5041 
 2208      51554500 
 2209              	.LASF33:
 2210 03d3 6D786D6C 		.ascii	"mxml_custom_s\000"
 2210      5F637573 
 2210      746F6D5F 
 2210      7300
 2211              	.LASF36:
 2212 03e1 6D786D6C 		.ascii	"mxml_custom_t\000"
 2212      5F637573 
 2212      746F6D5F 
 2212      7400
 2213              	.LASF47:
 2214 03ef 6E657874 		.ascii	"next\000"
 2214      00
 2215              		.ident	"GCC: (GNU Tools for ARM Embedded Processors) 4.9.3 20141119 (release) [ARM/embedded-4_9-br
ARM GAS  C:\Users\AHMED~1.ELE\AppData\Local\Temp\ccHW1nYs.s 			page 49


DEFINED SYMBOLS
                            *ABS*:00000000 mxml-search.c
C:\Users\AHMED~1.ELE\AppData\Local\Temp\ccHW1nYs.s:19     .text.mxmlWalkNext:00000000 $t
C:\Users\AHMED~1.ELE\AppData\Local\Temp\ccHW1nYs.s:24     .text.mxmlWalkNext:00000000 mxmlWalkNext
C:\Users\AHMED~1.ELE\AppData\Local\Temp\ccHW1nYs.s:88     .text.mxmlFindElement:00000000 $t
C:\Users\AHMED~1.ELE\AppData\Local\Temp\ccHW1nYs.s:93     .text.mxmlFindElement:00000000 mxmlFindElement
C:\Users\AHMED~1.ELE\AppData\Local\Temp\ccHW1nYs.s:210    .text.mxmlFindPath:00000000 $t
C:\Users\AHMED~1.ELE\AppData\Local\Temp\ccHW1nYs.s:215    .text.mxmlFindPath:00000000 mxmlFindPath
C:\Users\AHMED~1.ELE\AppData\Local\Temp\ccHW1nYs.s:356    .text.mxmlFindPath:000000ac $d
C:\Users\AHMED~1.ELE\AppData\Local\Temp\ccHW1nYs.s:361    .text.mxmlWalkPrev:00000000 $t
C:\Users\AHMED~1.ELE\AppData\Local\Temp\ccHW1nYs.s:366    .text.mxmlWalkPrev:00000000 mxmlWalkPrev
                     .debug_frame:00000010 $d

UNDEFINED SYMBOLS
strcmp
mxmlElementGetAttr
strncmp
strchr
strlen
memcpy
