ARM GAS  C:\Users\AHMED~1.ELE\AppData\Local\Temp\ccpjtoUe.s 			page 1


   1              		.syntax unified
   2              		.cpu cortex-a5
   3              		.fpu softvfp
   4              		.eabi_attribute 20, 1
   5              		.eabi_attribute 21, 1
   6              		.eabi_attribute 23, 3
   7              		.eabi_attribute 24, 1
   8              		.eabi_attribute 25, 1
   9              		.eabi_attribute 26, 1
  10              		.eabi_attribute 30, 4
  11              		.eabi_attribute 34, 0
  12              		.eabi_attribute 18, 4
  13              		.thumb
  14              		.file	"param.c"
  15              		.text
  16              	.Ltext0:
  17              		.cfi_sections	.debug_frame
  18              		.section	.text.CheckNodeName,"ax",%progbits
  19              		.align	1
  20              		.global	CheckNodeName
  21              		.thumb
  22              		.thumb_func
  23              		.type	CheckNodeName, %function
  24              	CheckNodeName:
  25              	.LFB0:
  26              		.file 1 "src/param.c"
   1:src/param.c   **** //-----------------------------------------------------------------------------
   2:src/param.c   **** //  File          : param.c
   3:src/param.c   **** //  Module        :
   4:src/param.c   **** //  Description   : Graphic Libary Test Program.
   5:src/param.c   **** //  Author        : Lewis
   6:src/param.c   **** //  Notes         :
   7:src/param.c   **** //
   8:src/param.c   **** // ============================================================================
   9:src/param.c   **** // | Naming conventions                                                       |
  10:src/param.c   **** // | ~~~~~~~~~~~~~~~~~~                                                       |
  11:src/param.c   **** // |         Struct/Array : Leading s                                         |
  12:src/param.c   **** // |             Constant : Leading K                                         |
  13:src/param.c   **** // |      Global Variable : Leading g  (variable use outside one C file)      |
  14:src/param.c   **** // |                                                                          |
  15:src/param.c   **** // |   BYTE( 8 Bits) size : Leading b                                         |
  16:src/param.c   **** // |   CHAR( 8 Bits) size : Leading c                                         |
  17:src/param.c   **** // |   WORD(16 Bits) size : Leading w                                         |
  18:src/param.c   **** // |  DWORD(32 Bits) size : Leading d                                         |
  19:src/param.c   **** // |    int(32 Bits) size : Leading i                                         |
  20:src/param.c   **** // | DDWORD(64 Bits) size : Leading dd                                        |
  21:src/param.c   **** // |              Pointer : Leading p                                         |
  22:src/param.c   **** // |                                                                          |
  23:src/param.c   **** // |    Function argument : Leading a                                         |
  24:src/param.c   **** // |       Local Variable : All lower case                                    |
  25:src/param.c   **** // |                                                                          |
  26:src/param.c   **** // | Examples:                                                                |
  27:src/param.c   **** // |                Array : Leading s, (sb = arrary of byte, etc)             |
  28:src/param.c   **** // |              Pointer : Leading p, (pb = pointer of byte, etc)            |
  29:src/param.c   **** // ============================================================================
  30:src/param.c   **** //
  31:src/param.c   **** //  Date          Who         Action
ARM GAS  C:\Users\AHMED~1.ELE\AppData\Local\Temp\ccpjtoUe.s 			page 2


  32:src/param.c   **** //  ------------  ----------- -------------------------------------------------
  33:src/param.c   **** //  08 Jul  2009  Lewis       Initial Version.
  34:src/param.c   **** //-----------------------------------------------------------------------------
  35:src/param.c   **** #include <stdio.h>
  36:src/param.c   **** #include <string.h>
  37:src/param.c   **** #include "system.h"
  38:src/param.c   **** #include "midware.h"
  39:src/param.c   **** #include "sysutil.h"
  40:src/param.c   **** #include "kbdutil.h"
  41:src/param.c   **** #include "util.h"
  42:src/param.c   **** #include "stis.h"
  43:src/param.c   **** #include "emv2dll.h"
  44:src/param.c   **** #include "emvcl2dll.h"
  45:src/param.c   **** #include "emvtrans.h"
  46:src/param.c   **** #include "ftptran.h"
  47:src/param.c   **** #include "mxml.h"
  48:src/param.c   **** #include "termdata.h"
  49:src/param.c   **** #include "ctlcfg.h"
  50:src/param.c   **** #include "toggle.h"
  51:src/param.c   **** #include "comm.h"
  52:src/param.c   **** 
  53:src/param.c   **** //-----------------------------------------------------------------------------
  54:src/param.c   **** // Defines
  55:src/param.c   **** //-----------------------------------------------------------------------------
  56:src/param.c   **** enum {
  57:src/param.c   ****   ST_TERM_CLEAR=0,
  58:src/param.c   ****   ST_TERM_CFG,
  59:src/param.c   ****   ST_TERM_ACQ,
  60:src/param.c   ****   ST_TERM_ISSUER,
  61:src/param.c   ****   ST_TERM_CARD,
  62:src/param.c   ****   ST_EMV_APP,
  63:src/param.c   ****   ST_CTL_APP,
  64:src/param.c   ****   ST_EMV_KEY,
  65:src/param.c   ****   ST_END,
  66:src/param.c   **** };
  67:src/param.c   **** enum {
  68:src/param.c   ****   TYPE_ASC,
  69:src/param.c   ****   TYPE_VAL,
  70:src/param.c   ****   TYPE_HEX,
  71:src/param.c   ****   TYPE_DDWORD,
  72:src/param.c   **** };
  73:src/param.c   **** 
  74:src/param.c   **** struct XML_PARAM {
  75:src/param.c   ****   BYTE *sbXmlTag;
  76:src/param.c   ****   BYTE bType;
  77:src/param.c   ****   WORD wSize;
  78:src/param.c   **** };
  79:src/param.c   **** 
  80:src/param.c   **** typedef struct {
  81:src/param.c   ****   BYTE      b_key_type;
  82:src/param.c   ****   KEY_ROOM  s_key_room;
  83:src/param.c   **** } KEY_ROOM_T;
  84:src/param.c   **** 
  85:src/param.c   **** //-----------------------------------------------------------------------------
  86:src/param.c   **** // Constant
  87:src/param.c   **** //-----------------------------------------------------------------------------
  88:src/param.c   **** const struct XML_PARAM TermCfgParam[] = {
ARM GAS  C:\Users\AHMED~1.ELE\AppData\Local\Temp\ccpjtoUe.s 			page 3


  89:src/param.c   ****   { "dll",                  TYPE_VAL,   1   },        //BYTE b_dll;
  90:src/param.c   ****   { "init_control",         TYPE_VAL,   1   },        //BYTE b_init_control;
  91:src/param.c   ****   { "rsvd0",                TYPE_HEX,   1   },        //BYTE b_rsvd0;
  92:src/param.c   ****   { "rsvd1",                TYPE_HEX,   1   },        //BYTE b_rsvd1;
  93:src/param.c   ****   { "date_time",            TYPE_HEX,   6   },        //BYTE sb_date_time[6];
  94:src/param.c   ****   { "dial_option",          TYPE_HEX,   1   },        //BYTE b_dial_option;
  95:src/param.c   ****   { "password",             TYPE_ASC,   2   },        //BYTE sb_password[2];
  96:src/param.c   ****   { "help_tel",             TYPE_ASC,   12  },        //BYTE sb_help_tel[12];
  97:src/param.c   ****   { "Option-TermCfg",       TYPE_HEX,   4   },        //BYTE sb_options[4];
  98:src/param.c   ****   { "NameLoc",              TYPE_ASC,   46  },        //BYTE sb_name_loc[46];
  99:src/param.c   ****   { "MerchantName",         TYPE_ASC,   23  },        //BYTE sb_dflt_name[23];
 100:src/param.c   ****   { "CurrSym",              TYPE_ASC,   1   },        //BYTE b_currency;
 101:src/param.c   ****   { "TransAmntLen",         TYPE_VAL,   1   },        //BYTE b_trans_amount_len;
 102:src/param.c   ****   { "DecPoint",             TYPE_VAL,   1   },        //BYTE b_decimal_pos;
 103:src/param.c   ****   { "rsvd2",                TYPE_HEX,   1   },        //BYTE b_rsvd2;
 104:src/param.c   ****   { "SettAmntLen",          TYPE_VAL,   1   },        //BYTE b_settle_amount_len;
 105:src/param.c   ****   { "CurrName",             TYPE_ASC,   3   },        //BYTE sb_currency_name[3];
 106:src/param.c   ****   { "local_option",         TYPE_HEX,   1   },        //BYTE b_local_option;
 107:src/param.c   ****   { "additional_prompt",    TYPE_ASC,   20  },        //BYTE sb_additional_prompt[20];
 108:src/param.c   ****   { "Reserved-TermCfg",     TYPE_HEX,   30  },        //BYTE sb_reserved[30];
 109:src/param.c   ****   { "PswRefund",            TYPE_ASC,   16  },        //BYTE sb_psw_refund[16];
 110:src/param.c   ****   { "PswVoid",              TYPE_ASC,   16  },        //BYTE sb_psw_void[16];
 111:src/param.c   ****   { "apn_username",         TYPE_ASC,   32  },        //BYTE apn_username[32];
 112:src/param.c   ****   { "apn_password",         TYPE_ASC,   32  },        //BYTE apn_password[32];
 113:src/param.c   ****   { "apn2_username",        TYPE_ASC,   32  },        //BYTE apn2_username[32];
 114:src/param.c   ****   { "apn2_password",        TYPE_ASC,   32  },        //BYTE apn2_password[32];
 115:src/param.c   ****   { "apnconfig",            TYPE_ASC,   32  },        //BYTE apnconfig[32];
 116:src/param.c   ****   { "apnconfig2",           TYPE_ASC,   32  },        //BYTE apnconfig2[32];
 117:src/param.c   ****   { "apn2_ip",              TYPE_HEX,   4   },        //BYTE apn2_ip[4];
 118:src/param.c   ****   { "apn2_port",            TYPE_HEX,   2   },        //BYTE apn2_port[2];
 119:src/param.c   ****   { NULL,                   TYPE_ASC,   0   },
 120:src/param.c   **** };
 121:src/param.c   **** 
 122:src/param.c   **** const struct XML_PARAM AcqTableParam[] = {
 123:src/param.c   ****   { "ID",                   TYPE_VAL,   1   },        //BYTE b_id;
 124:src/param.c   ****   { "ProgName",             TYPE_ASC,   10  },        //BYTE sb_program[10];
 125:src/param.c   ****   { "AcqName",              TYPE_ASC,   10  },        //BYTE sb_name[10];
 126:src/param.c   ****   { "PrimTelNo",            TYPE_HEX,   12  },        //BYTE sb_pri_trans_tel[12];
 127:src/param.c   ****   { "PrimTelConnectTO",     TYPE_VAL,   1   },        //BYTE b_pri_trans_conn_time;
 128:src/param.c   ****   { "PrimTelDialAttempt",   TYPE_VAL,   1   },        //BYTE b_pri_trans_redial;
 129:src/param.c   ****   { "SecTelNo",             TYPE_HEX,   12  },        //BYTE sb_sec_trans_tel[12];
 130:src/param.c   ****   { "SecTelConnectTO",      TYPE_VAL,   1   },        //BYTE b_sec_trans_conn_time;
 131:src/param.c   ****   { "SecTelDialAttempt",    TYPE_VAL,   1   },        //BYTE b_sec_trans_redial;
 132:src/param.c   ****   { "pri_settle_tel",       TYPE_HEX,   12  },        //BYTE sb_pri_settle_tel[12];
 133:src/param.c   ****   { "pri_settle_conn_time", TYPE_VAL,   1   },        //BYTE b_pri_settle_conn_time;
 134:src/param.c   ****   { "pri_settle_redial",    TYPE_VAL,   1   },        //BYTE b_pri_settle_redial;
 135:src/param.c   ****   { "sec_settle_tel",       TYPE_HEX,   12  },        //BYTE sb_sec_settle_tel[12];
 136:src/param.c   ****   { "sec_settle_conn_time", TYPE_VAL,   1   },        //BYTE b_sec_settle_conn_time;
 137:src/param.c   ****   { "sec_settle_redial",    TYPE_VAL,   1   },        //BYTE b_sec_settle_redial;
 138:src/param.c   ****   { "ModemMode",            TYPE_VAL,   1   },        //BYTE b_trans_mdm_mode;
 139:src/param.c   ****   { "Option-Acquirer",      TYPE_HEX,   4   },        //BYTE sb_options[4];
 140:src/param.c   ****   { "NII",                  TYPE_HEX,   2   },        //BYTE sb_nii[2];
 141:src/param.c   ****   { "TermID",               TYPE_ASC,   8   },        //BYTE sb_term_id[8];
 142:src/param.c   ****   { "MerchantID",           TYPE_ASC,   15  },        //BYTE sb_acceptor_id[15];
 143:src/param.c   ****   { "HostRspTO",            TYPE_VAL,   1   },        //BYTE b_timeout_val;
 144:src/param.c   ****   { "CurrBatchNo",          TYPE_HEX,   3   },        //BYTE sb_curr_batch_no[3];
 145:src/param.c   ****   { "NextBatchNo",          TYPE_HEX,   3   },        //BYTE sb_next_batch_no[3];
ARM GAS  C:\Users\AHMED~1.ELE\AppData\Local\Temp\ccpjtoUe.s 			page 4


 146:src/param.c   ****   { "visa1_term_id",        TYPE_ASC,   23  },        //BYTE sb_visa1_term_id[23];
 147:src/param.c   ****   { "settle_mdm_mode",      TYPE_VAL,   1   },        //BYTE b_settle_mdm_mode;
 148:src/param.c   **** #if 1
 149:src/param.c   ****   { "Reserved-Acquirer",    TYPE_HEX,   30  },        //BYTE sb_reserved[21];
 150:src/param.c   **** #else
 151:src/param.c   ****   { "Reserved-Acquirer",    TYPE_HEX,   21  },        //BYTE sb_reserved[21];
 152:src/param.c   ****   { "host_type",            TYPE_HEX,   1   },        //BYTE b_host_type;
 153:src/param.c   ****   { "reserved1",            TYPE_HEX,   1   },        //BYTE b_reserved1;
 154:src/param.c   ****   { "ssl_key_idx",          TYPE_HEX,   1   },        //BYTE b_ssl_key_idx;
 155:src/param.c   ****   { "ip",                   TYPE_HEX,   4   },        //BYTE sb_ip[4];
 156:src/param.c   ****   { "port",                 TYPE_HEX,   2   },        //BYTE sb_port[2];
 157:src/param.c   **** #endif
 158:src/param.c   ****   { NULL,                   TYPE_ASC,   0   },
 159:src/param.c   **** };
 160:src/param.c   **** 
 161:src/param.c   **** const struct XML_PARAM IssuerTableParam[] = {
 162:src/param.c   ****   { "ID",                   TYPE_VAL,   1   },        //BYTE b_id;
 163:src/param.c   ****   { "IssName",              TYPE_ASC,   10  },        //BYTE sb_card_name[10];
 164:src/param.c   ****   { "ref_tel_no",           TYPE_ASC,   12  },        //BYTE sb_ref_tel_no[12];
 165:src/param.c   ****   { "Option-Issuer",        TYPE_HEX,   4   },        //BYTE sb_options[4];
 166:src/param.c   ****   { "DefaultAcc",           TYPE_HEX,   1   },        //BYTE b_default_acc;
 167:src/param.c   ****   { "pan_format",           TYPE_HEX,   2   },        //BYTE sb_pan_format[2];
 168:src/param.c   ****   { "FlrLimit",             TYPE_HEX,   2   },        //BYTE sb_floor_limit[2];
 169:src/param.c   ****   { "Reserved-Issuer",      TYPE_HEX,   20  },        //BYTE sb_reserved[20];
 170:src/param.c   ****   { NULL,                   TYPE_ASC,   0   },
 171:src/param.c   **** };
 172:src/param.c   **** 
 173:src/param.c   **** const struct XML_PARAM CardTableParam[] = {
 174:src/param.c   ****   { "CardRangeLow",         TYPE_HEX,   5   },        //BYTE sb_pan_range_low[5];
 175:src/param.c   ****   { "CardRangeHigh",        TYPE_HEX,   5   },        //BYTE sb_pan_range_high[5];
 176:src/param.c   ****   { "IssuerID",             TYPE_VAL,   1   },        //BYTE b_issuer_id;
 177:src/param.c   ****   { "AcquirerID",           TYPE_VAL,   1   },        //BYTE b_acquirer_id;
 178:src/param.c   ****   { "pan_len",              TYPE_VAL,   1   },        //BYTE b_pan_len;
 179:src/param.c   ****   { "reserved",             TYPE_HEX,   20  },        //BYTE sb_reserved[20];
 180:src/param.c   ****   { NULL,                   TYPE_ASC,   0   },
 181:src/param.c   **** };
 182:src/param.c   **** 
 183:src/param.c   **** const struct XML_PARAM EmvAppParam[] = {
 184:src/param.c   ****   { "eType",                TYPE_HEX,   1   },        //BYTE eType;
 185:src/param.c   ****   { "eBitField",            TYPE_HEX,   1   },        //BYTE eBitField;
 186:src/param.c   ****   { "eRSBThresh",           TYPE_VAL,   4   },        //DWORD eRSBThresh;
 187:src/param.c   ****   { "eRSTarget",            TYPE_VAL,   1   },        //BYTE eRSTarget;
 188:src/param.c   ****   { "eRSBMax",              TYPE_VAL,   1   },        //BYTE eRSBMax;
 189:src/param.c   ****   { "eTACDenial",           TYPE_HEX,   5   },        //BYTE eTACDenial[5];
 190:src/param.c   ****   { "eTACOnline",           TYPE_HEX,   5   },        //BYTE eTACOnline[5];
 191:src/param.c   ****   { "eTACDefault",          TYPE_HEX,   5   },        //BYTE eTACDefault[5];
 192:src/param.c   ****   { "eACFG",                TYPE_HEX,   200 },        //BYTE eACFG[APPL_TLEN];
 193:src/param.c   ****   { NULL,                   TYPE_ASC,   0   },
 194:src/param.c   **** };
 195:src/param.c   **** 
 196:src/param.c   **** const struct XML_PARAM CtlAppParam[] = {
 197:src/param.c   ****   { "bEType",               TYPE_HEX,   1   },        //BYTE  bEType;
 198:src/param.c   ****   { "bBitField",            TYPE_HEX,   1   },        //BYTE  bBitField;            
 199:src/param.c   ****   { "dRSBThresh",           TYPE_VAL,   4   },        //DWORD dRSBThresh;
 200:src/param.c   ****   { "bRSTarget",            TYPE_VAL,   1   },        //BYTE  bRSTarget;
 201:src/param.c   ****   { "bRSBMax",              TYPE_VAL,   1   },        //BYTE  bRSBMax;
 202:src/param.c   ****   { "abTACDenial",          TYPE_HEX,   5   },        //BYTE  abTACDenial[5];
ARM GAS  C:\Users\AHMED~1.ELE\AppData\Local\Temp\ccpjtoUe.s 			page 5


 203:src/param.c   ****   { "abTACOnline",          TYPE_HEX,   5   },        //BYTE  abTACOnline[5];
 204:src/param.c   ****   { "abTACDefault",         TYPE_HEX,   5   },        //BYTE  abTACDefault[5];
 205:src/param.c   ****   { "abTLV",                TYPE_HEX,   512 },        //BYTE  abTLV[CLCFGP_TLV_LEN];
 206:src/param.c   ****   { NULL,                   TYPE_ASC,   0   },
 207:src/param.c   **** };
 208:src/param.c   **** 
 209:src/param.c   **** const struct XML_PARAM EmvKeyParam[] = {
 210:src/param.c   ****   { "eKeyIdx",              TYPE_HEX,   1   },        //BYTE KeyIdx;
 211:src/param.c   ****   { "eRID",                 TYPE_HEX,   5   },        //BYTE RID[5];
 212:src/param.c   ****   { "eExponent",            TYPE_HEX,   4   },        //DWORD Exponent;
 213:src/param.c   ****   { "eKeySize",             TYPE_VAL,   4   },        //DWORD KeySize;
 214:src/param.c   ****   { "eKey",                 TYPE_HEX,   256 },        //BYTE Key[256];
 215:src/param.c   ****   { "eExpiryDate",          TYPE_HEX,   2   },        //WORD ExpiryDate;  // in MMYY
 216:src/param.c   ****   { "eEffectiveDate",       TYPE_HEX,   2   },        //WORD EffectDate;  // in MMYY
 217:src/param.c   ****   { "eKeyType",             TYPE_HEX,   1   },        //To distinguish keys for EMV contact & conta
 218:src/param.c   ****   { NULL,                   TYPE_ASC,   0   },
 219:src/param.c   **** };
 220:src/param.c   **** 
 221:src/param.c   **** //-----------------------------------------------------------------------------
 222:src/param.c   **** // Globals
 223:src/param.c   **** //-----------------------------------------------------------------------------
 224:src/param.c   **** static BYTE gCardIdx;
 225:src/param.c   **** 
 226:src/param.c   ****   
 227:src/param.c   **** //*****************************************************************************
 228:src/param.c   **** //  Function        : CheckNodeName
 229:src/param.c   **** //  Description     : Parse node data at current level.
 230:src/param.c   **** //  Input           : N/A
 231:src/param.c   **** //  Return          : N/A
 232:src/param.c   **** //  Note            : N/A
 233:src/param.c   **** //  Globals Changed : N/A
 234:src/param.c   **** //*****************************************************************************
 235:src/param.c   **** BOOLEAN CheckNodeName(struct XML_PARAM *aXmlParam, BYTE *aName, BYTE *aType, WORD *aSize, WORD *aOf
 236:src/param.c   **** {
  27              		.loc 1 236 0
  28              		.cfi_startproc
  29              		@ args = 4, pretend = 0, frame = 0
  30              		@ frame_needed = 0, uses_anonymous_args = 0
  31              	.LVL0:
  32 0000 2DE9F843 		push	{r3, r4, r5, r6, r7, r8, r9, lr}
  33              		.cfi_def_cfa_offset 32
  34              		.cfi_offset 3, -32
  35              		.cfi_offset 4, -28
  36              		.cfi_offset 5, -24
  37              		.cfi_offset 6, -20
  38              		.cfi_offset 7, -16
  39              		.cfi_offset 8, -12
  40              		.cfi_offset 9, -8
  41              		.cfi_offset 14, -4
  42              		.loc 1 236 0
  43 0004 0446     		mov	r4, r0
  44 0006 8946     		mov	r9, r1
  45 0008 9046     		mov	r8, r2
  46 000a 1F46     		mov	r7, r3
  47 000c 089E     		ldr	r6, [sp, #32]
 237:src/param.c   ****   //BYTE buf[32];
 238:src/param.c   ****   WORD offset=0;
ARM GAS  C:\Users\AHMED~1.ELE\AppData\Local\Temp\ccpjtoUe.s 			page 6


  48              		.loc 1 238 0
  49 000e 0025     		movs	r5, #0
  50              	.LVL1:
  51              	.L2:
 239:src/param.c   ****   
 240:src/param.c   ****   while (aXmlParam->sbXmlTag != NULL) {
  52              		.loc 1 240 0
  53 0010 2068     		ldr	r0, [r4]
  54 0012 88B1     		cbz	r0, .L10
 241:src/param.c   ****     if (!strcmp(aXmlParam->sbXmlTag, aName))
  55              		.loc 1 241 0
  56 0014 4946     		mov	r1, r9
  57 0016 FFF7FEFF 		bl	strcmp
  58              	.LVL2:
  59 001a 20B1     		cbz	r0, .L3
 242:src/param.c   ****       break;
 243:src/param.c   ****     offset += aXmlParam->wSize;
  60              		.loc 1 243 0
  61 001c E388     		ldrh	r3, [r4, #6]
 244:src/param.c   ****     aXmlParam++;
  62              		.loc 1 244 0
  63 001e 0834     		adds	r4, r4, #8
  64              	.LVL3:
 243:src/param.c   ****     aXmlParam++;
  65              		.loc 1 243 0
  66 0020 1D44     		add	r5, r5, r3
  67              	.LVL4:
  68 0022 ADB2     		uxth	r5, r5
  69              	.LVL5:
  70 0024 F4E7     		b	.L2
  71              	.L3:
 245:src/param.c   ****   }
 246:src/param.c   ****   if (aXmlParam->sbXmlTag != NULL) {
 247:src/param.c   ****     *aType = aXmlParam->bType;
  72              		.loc 1 247 0
  73 0026 2379     		ldrb	r3, [r4, #4]	@ zero_extendqisi2
 248:src/param.c   ****     *aSize = aXmlParam->wSize;
 249:src/param.c   ****     *aOffset = offset;
 250:src/param.c   **** #if 0
 251:src/param.c   ****     SprintfMW(buf, "ChkF[%d]:\n%s", offset, aXmlParam->sbXmlTag);
 252:src/param.c   ****     DispLineMW(buf, MW_LINE1, MW_CLRDISP|MW_SPFONT);
 253:src/param.c   ****     WaitKey(KBD_TIMEOUT);
 254:src/param.c   **** #endif
 255:src/param.c   ****     return TRUE;
  74              		.loc 1 255 0
  75 0028 0120     		movs	r0, #1
 247:src/param.c   ****     *aSize = aXmlParam->wSize;
  76              		.loc 1 247 0
  77 002a 88F80030 		strb	r3, [r8]
 248:src/param.c   ****     *aSize = aXmlParam->wSize;
  78              		.loc 1 248 0
  79 002e E388     		ldrh	r3, [r4, #6]
  80 0030 3B80     		strh	r3, [r7]	@ movhi
 249:src/param.c   **** #if 0
  81              		.loc 1 249 0
  82 0032 3580     		strh	r5, [r6]	@ movhi
  83              		.loc 1 255 0
ARM GAS  C:\Users\AHMED~1.ELE\AppData\Local\Temp\ccpjtoUe.s 			page 7


  84 0034 BDE8F883 		pop	{r3, r4, r5, r6, r7, r8, r9, pc}
  85              	.LVL6:
  86              	.L10:
 256:src/param.c   ****   }
 257:src/param.c   ****   *aType = 0;
  87              		.loc 1 257 0
  88 0038 88F80000 		strb	r0, [r8]
 258:src/param.c   ****   *aSize = 0;
  89              		.loc 1 258 0
  90 003c 3880     		strh	r0, [r7]	@ movhi
 259:src/param.c   ****   *aOffset = 0;
  91              		.loc 1 259 0
  92 003e 3080     		strh	r0, [r6]	@ movhi
 260:src/param.c   ****   return FALSE;
 261:src/param.c   **** }
  93              		.loc 1 261 0
  94 0040 BDE8F883 		pop	{r3, r4, r5, r6, r7, r8, r9, pc}
  95              		.cfi_endproc
  96              	.LFE0:
  97              		.size	CheckNodeName, .-CheckNodeName
  98              		.section	.text.UpdateNodeParam,"ax",%progbits
  99              		.align	1
 100              		.global	UpdateNodeParam
 101              		.thumb
 102              		.thumb_func
 103              		.type	UpdateNodeParam, %function
 104              	UpdateNodeParam:
 105              	.LFB1:
 262:src/param.c   **** //*****************************************************************************
 263:src/param.c   **** //  Function        : UpdateNodeParam
 264:src/param.c   **** //  Description     : Parse node data at current level.
 265:src/param.c   **** //  Input           : N/A
 266:src/param.c   **** //  Return          : N/A
 267:src/param.c   **** //  Note            : N/A
 268:src/param.c   **** //  Globals Changed : N/A
 269:src/param.c   **** //*****************************************************************************
 270:src/param.c   **** BOOLEAN UpdateNodeParam(BYTE *aParamAddr, BYTE aType, WORD aMaxSize, BYTE *aParam)
 271:src/param.c   **** {
 106              		.loc 1 271 0
 107              		.cfi_startproc
 108              		@ args = 0, pretend = 0, frame = 0
 109              		@ frame_needed = 0, uses_anonymous_args = 0
 110              	.LVL7:
 111 0000 2DE9F041 		push	{r4, r5, r6, r7, r8, lr}
 112              		.cfi_def_cfa_offset 24
 113              		.cfi_offset 4, -24
 114              		.cfi_offset 5, -20
 115              		.cfi_offset 6, -16
 116              		.cfi_offset 7, -12
 117              		.cfi_offset 8, -8
 118              		.cfi_offset 14, -4
 119              		.loc 1 271 0
 120 0004 0446     		mov	r4, r0
 272:src/param.c   ****   //BYTE buf[128];
 273:src/param.c   ****   BYTE odd=0;
 274:src/param.c   ****   DDWORD value;
 275:src/param.c   ****   WORD len;
ARM GAS  C:\Users\AHMED~1.ELE\AppData\Local\Temp\ccpjtoUe.s 			page 8


 276:src/param.c   ****   
 277:src/param.c   ****   len = strlen(aParam);
 121              		.loc 1 277 0
 122 0006 1846     		mov	r0, r3
 123              	.LVL8:
 271:src/param.c   ****   //BYTE buf[128];
 124              		.loc 1 271 0
 125 0008 0D46     		mov	r5, r1
 126 000a 1646     		mov	r6, r2
 127 000c 1F46     		mov	r7, r3
 128              		.loc 1 277 0
 129 000e FFF7FEFF 		bl	strlen
 130              	.LVL9:
 131 0012 1FFA80F8 		uxth	r8, r0
 132              	.LVL10:
 278:src/param.c   ****   if (aType == TYPE_ASC) {
 133              		.loc 1 278 0
 134 0016 7DB9     		cbnz	r5, .L12
 135              	.LVL11:
 279:src/param.c   ****     if (aMaxSize < len)
 280:src/param.c   ****       len = aMaxSize;
 281:src/param.c   ****     memset(aParamAddr, ' ', aMaxSize);
 136              		.loc 1 281 0
 137 0018 2021     		movs	r1, #32
 138 001a 3246     		mov	r2, r6
 139 001c 2046     		mov	r0, r4
 140 001e FFF7FEFF 		bl	memset
 141              	.LVL12:
 282:src/param.c   ****     memcpy(aParamAddr, aParam, len);
 142              		.loc 1 282 0
 143 0022 B045     		cmp	r8, r6
 144 0024 4246     		mov	r2, r8
 145 0026 2046     		mov	r0, r4
 146 0028 3946     		mov	r1, r7
 147 002a 28BF     		it	cs
 148 002c 3246     		movcs	r2, r6
 149 002e FFF7FEFF 		bl	memcpy
 150              	.LVL13:
 151              	.L25:
 283:src/param.c   ****   }
 284:src/param.c   ****   else if (aType == TYPE_VAL) {
 285:src/param.c   ****     value = atoi((char *)aParam);
 286:src/param.c   ****     if (aMaxSize == 1) {
 287:src/param.c   ****       // 1 Byte
 288:src/param.c   ****       *aParamAddr = (BYTE)value;
 289:src/param.c   ****     }
 290:src/param.c   ****     else if (aMaxSize == 2) {
 291:src/param.c   ****       // 2 Bytes (WORD)
 292:src/param.c   ****       *aParamAddr = (BYTE)value;
 293:src/param.c   ****       *(aParamAddr+1) = (BYTE)(value>>8);
 294:src/param.c   ****     }
 295:src/param.c   ****     else if (aMaxSize == 4) {
 296:src/param.c   ****       // 4 Bytes (DWORD)
 297:src/param.c   ****       *aParamAddr = (BYTE)value;
 298:src/param.c   ****       *(aParamAddr+1) = (BYTE)(value>>8);
 299:src/param.c   ****       *(aParamAddr+2) = (BYTE)(value>>16);
 300:src/param.c   ****       *(aParamAddr+3) = (BYTE)(value>>24);
ARM GAS  C:\Users\AHMED~1.ELE\AppData\Local\Temp\ccpjtoUe.s 			page 9


 301:src/param.c   ****     }
 302:src/param.c   ****   }
 303:src/param.c   ****   else if (aType == TYPE_HEX) {
 304:src/param.c   ****     if (len%2)
 305:src/param.c   ****       odd = 1;
 306:src/param.c   ****     len /= 2;
 307:src/param.c   ****     if (aMaxSize < len)
 308:src/param.c   ****       len = aMaxSize;
 309:src/param.c   ****     compress(aParamAddr, aParam, len);
 310:src/param.c   ****     if (odd && (len < aMaxSize)) {
 311:src/param.c   ****       aParamAddr[len] = (aParamAddr[len] & 0x0F) | (hex_value(aParam[len*2]) << 4);
 312:src/param.c   ****     }
 313:src/param.c   ****   }
 314:src/param.c   ****   else if (aType == TYPE_DDWORD) {
 315:src/param.c   ****     if (aMaxSize != 8) {
 316:src/param.c   ****       return FALSE;
 317:src/param.c   ****     }
 318:src/param.c   ****     else {
 319:src/param.c   ****       value = decbin8b(aParam, aMaxSize);
 320:src/param.c   ****       *aParamAddr = (BYTE)value;
 321:src/param.c   ****       *(aParamAddr+1) = (BYTE)(value>>8);
 322:src/param.c   ****       *(aParamAddr+2) = (BYTE)(value>>16);
 323:src/param.c   ****       *(aParamAddr+3) = (BYTE)(value>>24);
 324:src/param.c   ****       *(aParamAddr+4) = (BYTE)(value>>32);
 325:src/param.c   ****       *(aParamAddr+5) = (BYTE)(value>>40);
 326:src/param.c   ****       *(aParamAddr+6) = (BYTE)(value>>48);
 327:src/param.c   ****       *(aParamAddr+7) = (BYTE)(value>>56);
 328:src/param.c   ****     }
 329:src/param.c   ****   }
 330:src/param.c   ****   else
 331:src/param.c   ****     return FALSE;
 332:src/param.c   **** 
 333:src/param.c   **** #if 0
 334:src/param.c   ****   SprintfMW(buf, "Upd-%02x[%d|%d]%02X", *aParamAddr, aType, len, aParam[0]);
 335:src/param.c   ****   DispLineMW(buf, MW_LINE3, MW_CLREOL|MW_SPFONT);
 336:src/param.c   ****   WaitKey(KBD_TIMEOUT);
 337:src/param.c   **** #endif
 338:src/param.c   ****   return TRUE;
 152              		.loc 1 338 0
 153 0032 0120     		movs	r0, #1
 154 0034 BDE8F081 		pop	{r4, r5, r6, r7, r8, pc}
 155              	.LVL14:
 156              	.L12:
 284:src/param.c   ****     value = atoi((char *)aParam);
 157              		.loc 1 284 0
 158 0038 012D     		cmp	r5, #1
 159 003a 17D1     		bne	.L14
 285:src/param.c   ****     if (aMaxSize == 1) {
 160              		.loc 1 285 0
 161 003c 3846     		mov	r0, r7
 162 003e FFF7FEFF 		bl	atoi
 163              	.LVL15:
 286:src/param.c   ****       // 1 Byte
 164              		.loc 1 286 0
 165 0042 012E     		cmp	r6, #1
 166 0044 01D1     		bne	.L15
 288:src/param.c   ****     }
ARM GAS  C:\Users\AHMED~1.ELE\AppData\Local\Temp\ccpjtoUe.s 			page 10


 167              		.loc 1 288 0
 168 0046 2070     		strb	r0, [r4]
 169 0048 F3E7     		b	.L25
 170              	.L15:
 290:src/param.c   ****       // 2 Bytes (WORD)
 171              		.loc 1 290 0
 172 004a 022E     		cmp	r6, #2
 173 004c 03D1     		bne	.L16
 292:src/param.c   ****       *(aParamAddr+1) = (BYTE)(value>>8);
 174              		.loc 1 292 0
 175 004e 2070     		strb	r0, [r4]
 293:src/param.c   ****     }
 176              		.loc 1 293 0
 177 0050 000A     		lsrs	r0, r0, #8
 178 0052 6070     		strb	r0, [r4, #1]
 179 0054 EDE7     		b	.L25
 180              	.L16:
 295:src/param.c   ****       // 4 Bytes (DWORD)
 181              		.loc 1 295 0
 182 0056 042E     		cmp	r6, #4
 298:src/param.c   ****       *(aParamAddr+2) = (BYTE)(value>>16);
 183              		.loc 1 298 0
 184 0058 01BF     		itttt	eq
 185 005a 030A     		lsreq	r3, r0, #8
 297:src/param.c   ****       *(aParamAddr+1) = (BYTE)(value>>8);
 186              		.loc 1 297 0
 187 005c 2070     		strbeq	r0, [r4]
 298:src/param.c   ****       *(aParamAddr+2) = (BYTE)(value>>16);
 188              		.loc 1 298 0
 189 005e 6370     		strbeq	r3, [r4, #1]
 299:src/param.c   ****       *(aParamAddr+3) = (BYTE)(value>>24);
 190              		.loc 1 299 0
 191 0060 030C     		lsreq	r3, r0, #16
 300:src/param.c   ****     }
 192              		.loc 1 300 0
 193 0062 02BF     		ittt	eq
 194 0064 000E     		lsreq	r0, r0, #24
 299:src/param.c   ****       *(aParamAddr+3) = (BYTE)(value>>24);
 195              		.loc 1 299 0
 196 0066 A370     		strbeq	r3, [r4, #2]
 300:src/param.c   ****     }
 197              		.loc 1 300 0
 198 0068 E070     		strbeq	r0, [r4, #3]
 199 006a E2E7     		b	.L25
 200              	.L14:
 303:src/param.c   ****     if (len%2)
 201              		.loc 1 303 0
 202 006c 022D     		cmp	r5, #2
 203 006e 19D1     		bne	.L18
 204              	.LVL16:
 306:src/param.c   ****     if (aMaxSize < len)
 205              		.loc 1 306 0
 206 0070 4FEA5805 		lsr	r5, r8, #1
 207              	.LVL17:
 208 0074 B542     		cmp	r5, r6
 209 0076 28BF     		it	cs
 210 0078 3546     		movcs	r5, r6
ARM GAS  C:\Users\AHMED~1.ELE\AppData\Local\Temp\ccpjtoUe.s 			page 11


 211              	.LVL18:
 309:src/param.c   ****     if (odd && (len < aMaxSize)) {
 212              		.loc 1 309 0
 213 007a 2046     		mov	r0, r4
 214 007c 3946     		mov	r1, r7
 215 007e 2A46     		mov	r2, r5
 216 0080 FFF7FEFF 		bl	compress
 217              	.LVL19:
 310:src/param.c   ****       aParamAddr[len] = (aParamAddr[len] & 0x0F) | (hex_value(aParam[len*2]) << 4);
 218              		.loc 1 310 0
 219 0084 18F0010F 		tst	r8, #1
 220 0088 D3D0     		beq	.L25
 310:src/param.c   ****       aParamAddr[len] = (aParamAddr[len] & 0x0F) | (hex_value(aParam[len*2]) << 4);
 221              		.loc 1 310 0 is_stmt 0 discriminator 1
 222 008a B542     		cmp	r5, r6
 223 008c D1D2     		bcs	.L25
 311:src/param.c   ****     }
 224              		.loc 1 311 0 is_stmt 1
 225 008e 17F81500 		ldrb	r0, [r7, r5, lsl #1]	@ zero_extendqisi2
 226 0092 665D     		ldrb	r6, [r4, r5]	@ zero_extendqisi2
 227 0094 FFF7FEFF 		bl	hex_value
 228              	.LVL20:
 229 0098 06F00F06 		and	r6, r6, #15
 230 009c 46EA0010 		orr	r0, r6, r0, lsl #4
 231 00a0 6055     		strb	r0, [r4, r5]
 232 00a2 C6E7     		b	.L25
 233              	.LVL21:
 234              	.L18:
 314:src/param.c   ****     if (aMaxSize != 8) {
 235              		.loc 1 314 0
 236 00a4 032D     		cmp	r5, #3
 237 00a6 14D1     		bne	.L21
 315:src/param.c   ****       return FALSE;
 238              		.loc 1 315 0
 239 00a8 082E     		cmp	r6, #8
 240 00aa 12D1     		bne	.L21
 319:src/param.c   ****       *aParamAddr = (BYTE)value;
 241              		.loc 1 319 0
 242 00ac 3846     		mov	r0, r7
 243 00ae 3146     		mov	r1, r6
 244 00b0 FFF7FEFF 		bl	decbin8b
 245              	.LVL22:
 321:src/param.c   ****       *(aParamAddr+2) = (BYTE)(value>>16);
 246              		.loc 1 321 0
 247 00b4 030A     		lsrs	r3, r0, #8
 320:src/param.c   ****       *(aParamAddr+1) = (BYTE)(value>>8);
 248              		.loc 1 320 0
 249 00b6 2070     		strb	r0, [r4]
 321:src/param.c   ****       *(aParamAddr+2) = (BYTE)(value>>16);
 250              		.loc 1 321 0
 251 00b8 6370     		strb	r3, [r4, #1]
 322:src/param.c   ****       *(aParamAddr+3) = (BYTE)(value>>24);
 252              		.loc 1 322 0
 253 00ba 030C     		lsrs	r3, r0, #16
 324:src/param.c   ****       *(aParamAddr+5) = (BYTE)(value>>40);
 254              		.loc 1 324 0
 255 00bc 2171     		strb	r1, [r4, #4]
ARM GAS  C:\Users\AHMED~1.ELE\AppData\Local\Temp\ccpjtoUe.s 			page 12


 322:src/param.c   ****       *(aParamAddr+3) = (BYTE)(value>>24);
 256              		.loc 1 322 0
 257 00be A370     		strb	r3, [r4, #2]
 325:src/param.c   ****       *(aParamAddr+6) = (BYTE)(value>>48);
 258              		.loc 1 325 0
 259 00c0 0B0A     		lsrs	r3, r1, #8
 323:src/param.c   ****       *(aParamAddr+4) = (BYTE)(value>>32);
 260              		.loc 1 323 0
 261 00c2 000E     		lsrs	r0, r0, #24
 262              	.LVL23:
 325:src/param.c   ****       *(aParamAddr+6) = (BYTE)(value>>48);
 263              		.loc 1 325 0
 264 00c4 6371     		strb	r3, [r4, #5]
 326:src/param.c   ****       *(aParamAddr+7) = (BYTE)(value>>56);
 265              		.loc 1 326 0
 266 00c6 0B0C     		lsrs	r3, r1, #16
 327:src/param.c   ****     }
 267              		.loc 1 327 0
 268 00c8 090E     		lsrs	r1, r1, #24
 323:src/param.c   ****       *(aParamAddr+4) = (BYTE)(value>>32);
 269              		.loc 1 323 0
 270 00ca E070     		strb	r0, [r4, #3]
 326:src/param.c   ****       *(aParamAddr+7) = (BYTE)(value>>56);
 271              		.loc 1 326 0
 272 00cc A371     		strb	r3, [r4, #6]
 327:src/param.c   ****     }
 273              		.loc 1 327 0
 274 00ce E171     		strb	r1, [r4, #7]
 275 00d0 AFE7     		b	.L25
 276              	.L21:
 331:src/param.c   **** 
 277              		.loc 1 331 0
 278 00d2 0020     		movs	r0, #0
 339:src/param.c   **** }
 279              		.loc 1 339 0
 280 00d4 BDE8F081 		pop	{r4, r5, r6, r7, r8, pc}
 281              		.cfi_endproc
 282              	.LFE1:
 283              		.size	UpdateNodeParam, .-UpdateNodeParam
 284              		.section	.text.UpdateParamEmvApp,"ax",%progbits
 285              		.align	1
 286              		.global	UpdateParamEmvApp
 287              		.thumb
 288              		.thumb_func
 289              		.type	UpdateParamEmvApp, %function
 290              	UpdateParamEmvApp:
 291              	.LFB2:
 340:src/param.c   **** //*****************************************************************************
 341:src/param.c   **** //  Function        : UpdateParamEmvApp
 342:src/param.c   **** //  Description     : Parse node data & update APP_CFG structure.
 343:src/param.c   **** //  Input           : N/A
 344:src/param.c   **** //  Return          : N/A
 345:src/param.c   **** //  Note            : N/A
 346:src/param.c   **** //  Globals Changed : N/A
 347:src/param.c   **** //*****************************************************************************
 348:src/param.c   **** BOOLEAN UpdateParamEmvApp(APP_CFG *aAppCfg, struct XML_PARAM *aXmlParam, BYTE *aName, BYTE *aConten
 349:src/param.c   **** {
ARM GAS  C:\Users\AHMED~1.ELE\AppData\Local\Temp\ccpjtoUe.s 			page 13


 292              		.loc 1 349 0
 293              		.cfi_startproc
 294              		@ args = 0, pretend = 0, frame = 0
 295              		@ frame_needed = 0, uses_anonymous_args = 0
 296              	.LVL24:
 297 0000 F8B5     		push	{r3, r4, r5, r6, r7, lr}
 298              		.cfi_def_cfa_offset 24
 299              		.cfi_offset 3, -24
 300              		.cfi_offset 4, -20
 301              		.cfi_offset 5, -16
 302              		.cfi_offset 6, -12
 303              		.cfi_offset 7, -8
 304              		.cfi_offset 14, -4
 305              		.loc 1 349 0
 306 0002 0446     		mov	r4, r0
 307              	.LVL25:
 308 0004 1646     		mov	r6, r2
 309 0006 1D46     		mov	r5, r3
 310 0008 01F10807 		add	r7, r1, #8
 311              	.LVL26:
 312              	.L27:
 350:src/param.c   ****   //BYTE buf[64];
 351:src/param.c   ****   WORD offset=0;
 352:src/param.c   ****   DWORD value, len;
 353:src/param.c   ****   
 354:src/param.c   ****   while (aXmlParam->sbXmlTag != NULL) {
 313              		.loc 1 354 0
 314 000c 57F8080C 		ldr	r0, [r7, #-8]
 315 0010 30B1     		cbz	r0, .L46
 355:src/param.c   ****     if (!strcmp(aXmlParam->sbXmlTag, aName))
 316              		.loc 1 355 0
 317 0012 3146     		mov	r1, r6
 318 0014 FFF7FEFF 		bl	strcmp
 319              	.LVL27:
 320 0018 0837     		adds	r7, r7, #8
 321              	.LVL28:
 322 001a 0028     		cmp	r0, #0
 323 001c F6D1     		bne	.L27
 324 001e 00E0     		b	.L28
 325              	.LVL29:
 326              	.L46:
 327 0020 F8BD     		pop	{r3, r4, r5, r6, r7, pc}
 328              	.LVL30:
 329              	.L28:
 356:src/param.c   ****       break;
 357:src/param.c   ****     offset += aXmlParam->wSize;
 358:src/param.c   ****     aXmlParam++;
 359:src/param.c   ****   }
 360:src/param.c   ****   if (aXmlParam->sbXmlTag != NULL) {
 361:src/param.c   ****     //*aType = aXmlParam->bType;
 362:src/param.c   ****     //*aSize = aXmlParam->wSize;
 363:src/param.c   **** #if 0
 364:src/param.c   ****     SprintfMW(buf, "ChkF[%d]:\n%s", offset, aXmlParam->sbXmlTag);
 365:src/param.c   ****     DispLineMW(buf, MW_LINE1, MW_CLRDISP|MW_SPFONT);
 366:src/param.c   ****     WaitKey(KBD_TIMEOUT);
 367:src/param.c   **** #endif
 368:src/param.c   ****     if (!strcmp(aName, "eType"))
ARM GAS  C:\Users\AHMED~1.ELE\AppData\Local\Temp\ccpjtoUe.s 			page 14


 330              		.loc 1 368 0
 331 0022 3046     		mov	r0, r6
 332 0024 3149     		ldr	r1, .L47
 333 0026 FFF7FEFF 		bl	strcmp
 334              	.LVL31:
 335 002a 08B9     		cbnz	r0, .L42
 369:src/param.c   ****       compress(&aAppCfg->eType, aContent, 1);
 336              		.loc 1 369 0
 337 002c 2046     		mov	r0, r4
 338 002e 05E0     		b	.L45
 339              	.L42:
 370:src/param.c   ****     else if (!strcmp(aName, "eBitField"))
 340              		.loc 1 370 0
 341 0030 3046     		mov	r0, r6
 342 0032 2F49     		ldr	r1, .L47+4
 343 0034 FFF7FEFF 		bl	strcmp
 344              	.LVL32:
 345 0038 18B9     		cbnz	r0, .L31
 371:src/param.c   ****       compress(&aAppCfg->eBitField, aContent, 1);
 346              		.loc 1 371 0
 347 003a 601C     		adds	r0, r4, #1
 348              	.L45:
 349 003c 2946     		mov	r1, r5
 350 003e 0122     		movs	r2, #1
 351 0040 50E0     		b	.L43
 352              	.L31:
 353              	.LVL33:
 354              	.LBB4:
 355              	.LBB5:
 372:src/param.c   ****     else if (!strcmp(aName, "eRSBThresh")) {
 356              		.loc 1 372 0
 357 0042 3046     		mov	r0, r6
 358 0044 2B49     		ldr	r1, .L47+8
 359 0046 FFF7FEFF 		bl	strcmp
 360              	.LVL34:
 361 004a 60B9     		cbnz	r0, .L32
 373:src/param.c   ****       value = atoi((char *)aContent);
 362              		.loc 1 373 0
 363 004c 2846     		mov	r0, r5
 364 004e FFF7FEFF 		bl	atoi
 365              	.LVL35:
 374:src/param.c   ****       aAppCfg->eRSBThresh = value;
 366              		.loc 1 374 0
 367 0052 C0F30723 		ubfx	r3, r0, #8, #8
 368 0056 A070     		strb	r0, [r4, #2]
 369 0058 E370     		strb	r3, [r4, #3]
 370 005a C0F30743 		ubfx	r3, r0, #16, #8
 371 005e 000E     		lsrs	r0, r0, #24
 372              	.LVL36:
 373 0060 2371     		strb	r3, [r4, #4]
 374 0062 6071     		strb	r0, [r4, #5]
 375 0064 40E0     		b	.L40
 376              	.L32:
 375:src/param.c   ****     }
 376:src/param.c   ****     else if (!strcmp(aName, "eRSTarget")) {
 377              		.loc 1 376 0
 378 0066 3046     		mov	r0, r6
ARM GAS  C:\Users\AHMED~1.ELE\AppData\Local\Temp\ccpjtoUe.s 			page 15


 379 0068 2349     		ldr	r1, .L47+12
 380 006a FFF7FEFF 		bl	strcmp
 381              	.LVL37:
 382 006e 20B9     		cbnz	r0, .L33
 377:src/param.c   ****       value = atoi((char *)aContent);
 383              		.loc 1 377 0
 384 0070 2846     		mov	r0, r5
 385 0072 FFF7FEFF 		bl	atoi
 386              	.LVL38:
 378:src/param.c   ****       aAppCfg->eRSTarget = (BYTE)value;
 387              		.loc 1 378 0
 388 0076 A071     		strb	r0, [r4, #6]
 389 0078 36E0     		b	.L40
 390              	.LVL39:
 391              	.L33:
 379:src/param.c   ****     }
 380:src/param.c   ****     else if (!strcmp(aName, "eRSBMax")) {
 392              		.loc 1 380 0
 393 007a 3046     		mov	r0, r6
 394 007c 1F49     		ldr	r1, .L47+16
 395 007e FFF7FEFF 		bl	strcmp
 396              	.LVL40:
 397 0082 20B9     		cbnz	r0, .L34
 381:src/param.c   ****       value = atoi((char *)aContent);
 398              		.loc 1 381 0
 399 0084 2846     		mov	r0, r5
 400 0086 FFF7FEFF 		bl	atoi
 401              	.LVL41:
 382:src/param.c   ****       aAppCfg->eRSBMax = (BYTE)value;
 402              		.loc 1 382 0
 403 008a E071     		strb	r0, [r4, #7]
 404 008c 2CE0     		b	.L40
 405              	.LVL42:
 406              	.L34:
 383:src/param.c   ****     }
 384:src/param.c   ****     else if (!strcmp(aName, "eTACDenial"))
 407              		.loc 1 384 0
 408 008e 3046     		mov	r0, r6
 409 0090 1B49     		ldr	r1, .L47+20
 410 0092 FFF7FEFF 		bl	strcmp
 411              	.LVL43:
 412 0096 10B9     		cbnz	r0, .L35
 385:src/param.c   ****       compress(aAppCfg->eTACDenial, aContent, 5);
 413              		.loc 1 385 0
 414 0098 04F10800 		add	r0, r4, #8
 415 009c 0EE0     		b	.L44
 416              	.L35:
 386:src/param.c   ****     else if (!strcmp(aName, "eTACOnline"))
 417              		.loc 1 386 0
 418 009e 3046     		mov	r0, r6
 419 00a0 1849     		ldr	r1, .L47+24
 420 00a2 FFF7FEFF 		bl	strcmp
 421              	.LVL44:
 422 00a6 10B9     		cbnz	r0, .L36
 387:src/param.c   ****       compress(aAppCfg->eTACOnline, aContent, 5);
 423              		.loc 1 387 0
 424 00a8 04F10D00 		add	r0, r4, #13
ARM GAS  C:\Users\AHMED~1.ELE\AppData\Local\Temp\ccpjtoUe.s 			page 16


 425 00ac 06E0     		b	.L44
 426              	.L36:
 388:src/param.c   ****     else if (!strcmp(aName, "eTACDefault"))
 427              		.loc 1 388 0
 428 00ae 3046     		mov	r0, r6
 429 00b0 1549     		ldr	r1, .L47+28
 430 00b2 FFF7FEFF 		bl	strcmp
 431              	.LVL45:
 432 00b6 20B9     		cbnz	r0, .L37
 389:src/param.c   ****       compress(aAppCfg->eTACDefault, aContent, 5);
 433              		.loc 1 389 0
 434 00b8 04F11200 		add	r0, r4, #18
 435              	.L44:
 436 00bc 2946     		mov	r1, r5
 437 00be 0522     		movs	r2, #5
 438 00c0 10E0     		b	.L43
 439              	.L37:
 390:src/param.c   ****     else if (!strcmp(aName, "eACFG")) {
 440              		.loc 1 390 0
 441 00c2 3046     		mov	r0, r6
 442 00c4 1149     		ldr	r1, .L47+32
 443 00c6 FFF7FEFF 		bl	strcmp
 444              	.LVL46:
 445 00ca 68B9     		cbnz	r0, .L40
 391:src/param.c   ****       len = strlen(aContent)/2;
 446              		.loc 1 391 0
 447 00cc 2846     		mov	r0, r5
 448 00ce FFF7FEFF 		bl	strlen
 449              	.LVL47:
 392:src/param.c   ****       if (len > sizeof(aAppCfg->eACFG))
 393:src/param.c   ****         len = sizeof(aAppCfg->eACFG);
 394:src/param.c   ****       compress(aAppCfg->eACFG, aContent, len);
 450              		.loc 1 394 0
 451 00d2 2946     		mov	r1, r5
 391:src/param.c   ****       len = strlen(aContent)/2;
 452              		.loc 1 391 0
 453 00d4 4208     		lsrs	r2, r0, #1
 454              	.LVL48:
 455              		.loc 1 394 0
 456 00d6 B2F5007F 		cmp	r2, #512
 457 00da 04F11700 		add	r0, r4, #23
 458 00de 28BF     		it	cs
 459 00e0 4FF40072 		movcs	r2, #512
 460              	.LVL49:
 461              	.L43:
 462 00e4 FFF7FEFF 		bl	compress
 463              	.LVL50:
 464              	.L40:
 390:src/param.c   ****       len = strlen(aContent)/2;
 465              		.loc 1 390 0
 466 00e8 0120     		movs	r0, #1
 467 00ea F8BD     		pop	{r3, r4, r5, r6, r7, pc}
 468              	.LVL51:
 469              	.L48:
 470              		.align	2
 471              	.L47:
 472 00ec 4F000000 		.word	.LC8
ARM GAS  C:\Users\AHMED~1.ELE\AppData\Local\Temp\ccpjtoUe.s 			page 17


 473 00f0 00000000 		.word	.LC0
 474 00f4 0A000000 		.word	.LC1
 475 00f8 15000000 		.word	.LC2
 476 00fc 1F000000 		.word	.LC3
 477 0100 27000000 		.word	.LC4
 478 0104 32000000 		.word	.LC5
 479 0108 3D000000 		.word	.LC6
 480 010c 49000000 		.word	.LC7
 481              	.LBE5:
 482              	.LBE4:
 483              		.cfi_endproc
 484              	.LFE2:
 485              		.size	UpdateParamEmvApp, .-UpdateParamEmvApp
 486              		.section	.text.UpdateParamCtlApp,"ax",%progbits
 487              		.align	1
 488              		.global	UpdateParamCtlApp
 489              		.thumb
 490              		.thumb_func
 491              		.type	UpdateParamCtlApp, %function
 492              	UpdateParamCtlApp:
 493              	.LFB3:
 395:src/param.c   ****     }
 396:src/param.c   ****     
 397:src/param.c   ****     return TRUE;
 398:src/param.c   ****   }
 399:src/param.c   ****   return FALSE;
 400:src/param.c   **** }
 401:src/param.c   **** //*****************************************************************************
 402:src/param.c   **** //  Function        : UpdateParamCtlApp
 403:src/param.c   **** //  Description     : Parse node data & update CL_CFGP structure.
 404:src/param.c   **** //  Input           : N/A
 405:src/param.c   **** //  Return          : N/A
 406:src/param.c   **** //  Note            : N/A
 407:src/param.c   **** //  Globals Changed : N/A
 408:src/param.c   **** //*****************************************************************************
 409:src/param.c   **** BOOLEAN UpdateParamCtlApp(CL_CFGP *aAppCfg, struct XML_PARAM *aXmlParam, BYTE *aName, BYTE *aConten
 410:src/param.c   **** {
 494              		.loc 1 410 0
 495              		.cfi_startproc
 496              		@ args = 0, pretend = 0, frame = 0
 497              		@ frame_needed = 0, uses_anonymous_args = 0
 498              	.LVL52:
 499 0000 F8B5     		push	{r3, r4, r5, r6, r7, lr}
 500              		.cfi_def_cfa_offset 24
 501              		.cfi_offset 3, -24
 502              		.cfi_offset 4, -20
 503              		.cfi_offset 5, -16
 504              		.cfi_offset 6, -12
 505              		.cfi_offset 7, -8
 506              		.cfi_offset 14, -4
 507              		.loc 1 410 0
 508 0002 0446     		mov	r4, r0
 509              	.LVL53:
 510 0004 1646     		mov	r6, r2
 511 0006 1D46     		mov	r5, r3
 512 0008 01F10807 		add	r7, r1, #8
 513              	.LVL54:
ARM GAS  C:\Users\AHMED~1.ELE\AppData\Local\Temp\ccpjtoUe.s 			page 18


 514              	.L50:
 411:src/param.c   ****   //BYTE buf[64];
 412:src/param.c   ****   WORD offset=0;
 413:src/param.c   ****   DWORD value, len;
 414:src/param.c   ****   
 415:src/param.c   ****   while (aXmlParam->sbXmlTag != NULL) {
 515              		.loc 1 415 0
 516 000c 57F8080C 		ldr	r0, [r7, #-8]
 517 0010 30B1     		cbz	r0, .L69
 416:src/param.c   ****     if (!strcmp(aXmlParam->sbXmlTag, aName))
 518              		.loc 1 416 0
 519 0012 3146     		mov	r1, r6
 520 0014 FFF7FEFF 		bl	strcmp
 521              	.LVL55:
 522 0018 0837     		adds	r7, r7, #8
 523              	.LVL56:
 524 001a 0028     		cmp	r0, #0
 525 001c F6D1     		bne	.L50
 526 001e 00E0     		b	.L51
 527              	.LVL57:
 528              	.L69:
 529 0020 F8BD     		pop	{r3, r4, r5, r6, r7, pc}
 530              	.LVL58:
 531              	.L51:
 417:src/param.c   ****       break;
 418:src/param.c   ****     offset += aXmlParam->wSize;
 419:src/param.c   ****     aXmlParam++;
 420:src/param.c   ****   }
 421:src/param.c   ****   if (aXmlParam->sbXmlTag != NULL) {
 422:src/param.c   ****     //*aType = aXmlParam->bType;
 423:src/param.c   ****     //*aSize = aXmlParam->wSize;
 424:src/param.c   **** #if 0
 425:src/param.c   ****     SprintfMW(buf, "ChkF[%d]:\n%s", offset, aXmlParam->sbXmlTag);
 426:src/param.c   ****     DispLineMW(buf, MW_LINE1, MW_CLRDISP|MW_SPFONT);
 427:src/param.c   ****     WaitKey(KBD_TIMEOUT);
 428:src/param.c   **** #endif
 429:src/param.c   ****     if (!strcmp(aName, "bEType"))
 532              		.loc 1 429 0
 533 0022 3046     		mov	r0, r6
 534 0024 3149     		ldr	r1, .L70
 535 0026 FFF7FEFF 		bl	strcmp
 536              	.LVL59:
 537 002a 08B9     		cbnz	r0, .L65
 430:src/param.c   ****       compress(&aAppCfg->bEType, aContent, 1);
 538              		.loc 1 430 0
 539 002c 2046     		mov	r0, r4
 540 002e 05E0     		b	.L68
 541              	.L65:
 431:src/param.c   ****     else if (!strcmp(aName, "bBitField"))
 542              		.loc 1 431 0
 543 0030 3046     		mov	r0, r6
 544 0032 2F49     		ldr	r1, .L70+4
 545 0034 FFF7FEFF 		bl	strcmp
 546              	.LVL60:
 547 0038 18B9     		cbnz	r0, .L54
 432:src/param.c   ****       compress(&aAppCfg->bBitField, aContent, 1);
 548              		.loc 1 432 0
ARM GAS  C:\Users\AHMED~1.ELE\AppData\Local\Temp\ccpjtoUe.s 			page 19


 549 003a 601C     		adds	r0, r4, #1
 550              	.L68:
 551 003c 2946     		mov	r1, r5
 552 003e 0122     		movs	r2, #1
 553 0040 50E0     		b	.L66
 554              	.L54:
 555              	.LVL61:
 556              	.LBB8:
 557              	.LBB9:
 433:src/param.c   ****     else if (!strcmp(aName, "dRSBThresh")) {
 558              		.loc 1 433 0
 559 0042 3046     		mov	r0, r6
 560 0044 2B49     		ldr	r1, .L70+8
 561 0046 FFF7FEFF 		bl	strcmp
 562              	.LVL62:
 563 004a 60B9     		cbnz	r0, .L55
 434:src/param.c   ****       value = atoi((char *)aContent);
 564              		.loc 1 434 0
 565 004c 2846     		mov	r0, r5
 566 004e FFF7FEFF 		bl	atoi
 567              	.LVL63:
 435:src/param.c   ****       aAppCfg->dRSBThresh = value;
 568              		.loc 1 435 0
 569 0052 C0F30723 		ubfx	r3, r0, #8, #8
 570 0056 A070     		strb	r0, [r4, #2]
 571 0058 E370     		strb	r3, [r4, #3]
 572 005a C0F30743 		ubfx	r3, r0, #16, #8
 573 005e 000E     		lsrs	r0, r0, #24
 574              	.LVL64:
 575 0060 2371     		strb	r3, [r4, #4]
 576 0062 6071     		strb	r0, [r4, #5]
 577 0064 40E0     		b	.L63
 578              	.L55:
 436:src/param.c   ****     }
 437:src/param.c   ****     else if (!strcmp(aName, "bRSTarget")) {
 579              		.loc 1 437 0
 580 0066 3046     		mov	r0, r6
 581 0068 2349     		ldr	r1, .L70+12
 582 006a FFF7FEFF 		bl	strcmp
 583              	.LVL65:
 584 006e 20B9     		cbnz	r0, .L56
 438:src/param.c   ****       value = atoi((char *)aContent);
 585              		.loc 1 438 0
 586 0070 2846     		mov	r0, r5
 587 0072 FFF7FEFF 		bl	atoi
 588              	.LVL66:
 439:src/param.c   ****       aAppCfg->bRSTarget = (BYTE)value;
 589              		.loc 1 439 0
 590 0076 A071     		strb	r0, [r4, #6]
 591 0078 36E0     		b	.L63
 592              	.LVL67:
 593              	.L56:
 440:src/param.c   ****     }
 441:src/param.c   ****     else if (!strcmp(aName, "bRSBMax")) {
 594              		.loc 1 441 0
 595 007a 3046     		mov	r0, r6
 596 007c 1F49     		ldr	r1, .L70+16
ARM GAS  C:\Users\AHMED~1.ELE\AppData\Local\Temp\ccpjtoUe.s 			page 20


 597 007e FFF7FEFF 		bl	strcmp
 598              	.LVL68:
 599 0082 20B9     		cbnz	r0, .L57
 442:src/param.c   ****       value = atoi((char *)aContent);
 600              		.loc 1 442 0
 601 0084 2846     		mov	r0, r5
 602 0086 FFF7FEFF 		bl	atoi
 603              	.LVL69:
 443:src/param.c   ****       aAppCfg->bRSBMax = (BYTE)value;
 604              		.loc 1 443 0
 605 008a E071     		strb	r0, [r4, #7]
 606 008c 2CE0     		b	.L63
 607              	.LVL70:
 608              	.L57:
 444:src/param.c   ****     }
 445:src/param.c   ****     else if (!strcmp(aName, "abTACDenial"))
 609              		.loc 1 445 0
 610 008e 3046     		mov	r0, r6
 611 0090 1B49     		ldr	r1, .L70+20
 612 0092 FFF7FEFF 		bl	strcmp
 613              	.LVL71:
 614 0096 10B9     		cbnz	r0, .L58
 446:src/param.c   ****       compress(aAppCfg->abTACDenial, aContent, 5);
 615              		.loc 1 446 0
 616 0098 04F10800 		add	r0, r4, #8
 617 009c 0EE0     		b	.L67
 618              	.L58:
 447:src/param.c   ****     else if (!strcmp(aName, "abTACOnline"))
 619              		.loc 1 447 0
 620 009e 3046     		mov	r0, r6
 621 00a0 1849     		ldr	r1, .L70+24
 622 00a2 FFF7FEFF 		bl	strcmp
 623              	.LVL72:
 624 00a6 10B9     		cbnz	r0, .L59
 448:src/param.c   ****       compress(aAppCfg->abTACOnline, aContent, 5);
 625              		.loc 1 448 0
 626 00a8 04F10D00 		add	r0, r4, #13
 627 00ac 06E0     		b	.L67
 628              	.L59:
 449:src/param.c   ****     else if (!strcmp(aName, "abTACDefault"))
 629              		.loc 1 449 0
 630 00ae 3046     		mov	r0, r6
 631 00b0 1549     		ldr	r1, .L70+28
 632 00b2 FFF7FEFF 		bl	strcmp
 633              	.LVL73:
 634 00b6 20B9     		cbnz	r0, .L60
 450:src/param.c   ****       compress(aAppCfg->abTACDefault, aContent, 5);
 635              		.loc 1 450 0
 636 00b8 04F11200 		add	r0, r4, #18
 637              	.L67:
 638 00bc 2946     		mov	r1, r5
 639 00be 0522     		movs	r2, #5
 640 00c0 10E0     		b	.L66
 641              	.L60:
 451:src/param.c   ****     else if (!strcmp(aName, "abTLV")) {
 642              		.loc 1 451 0
 643 00c2 3046     		mov	r0, r6
ARM GAS  C:\Users\AHMED~1.ELE\AppData\Local\Temp\ccpjtoUe.s 			page 21


 644 00c4 1149     		ldr	r1, .L70+32
 645 00c6 FFF7FEFF 		bl	strcmp
 646              	.LVL74:
 647 00ca 68B9     		cbnz	r0, .L63
 452:src/param.c   ****       len = strlen(aContent)/2;
 648              		.loc 1 452 0
 649 00cc 2846     		mov	r0, r5
 650 00ce FFF7FEFF 		bl	strlen
 651              	.LVL75:
 453:src/param.c   ****       if (len > sizeof(aAppCfg->abTLV))
 454:src/param.c   ****         len = sizeof(aAppCfg->abTLV);
 455:src/param.c   ****       compress(aAppCfg->abTLV, aContent, len);
 652              		.loc 1 455 0
 653 00d2 2946     		mov	r1, r5
 452:src/param.c   ****       len = strlen(aContent)/2;
 654              		.loc 1 452 0
 655 00d4 4208     		lsrs	r2, r0, #1
 656              	.LVL76:
 657              		.loc 1 455 0
 658 00d6 B2F5007F 		cmp	r2, #512
 659 00da 04F11700 		add	r0, r4, #23
 660 00de 28BF     		it	cs
 661 00e0 4FF40072 		movcs	r2, #512
 662              	.LVL77:
 663              	.L66:
 664 00e4 FFF7FEFF 		bl	compress
 665              	.LVL78:
 666              	.L63:
 451:src/param.c   ****       len = strlen(aContent)/2;
 667              		.loc 1 451 0
 668 00e8 0120     		movs	r0, #1
 669 00ea F8BD     		pop	{r3, r4, r5, r6, r7, pc}
 670              	.LVL79:
 671              	.L71:
 672              		.align	2
 673              	.L70:
 674 00ec A7000000 		.word	.LC17
 675 00f0 55000000 		.word	.LC9
 676 00f4 5F000000 		.word	.LC10
 677 00f8 6A000000 		.word	.LC11
 678 00fc 74000000 		.word	.LC12
 679 0100 7C000000 		.word	.LC13
 680 0104 88000000 		.word	.LC14
 681 0108 94000000 		.word	.LC15
 682 010c A1000000 		.word	.LC16
 683              	.LBE9:
 684              	.LBE8:
 685              		.cfi_endproc
 686              	.LFE3:
 687              		.size	UpdateParamCtlApp, .-UpdateParamCtlApp
 688              		.section	.text.UpdateParamEmvKey,"ax",%progbits
 689              		.align	1
 690              		.global	UpdateParamEmvKey
 691              		.thumb
 692              		.thumb_func
 693              		.type	UpdateParamEmvKey, %function
 694              	UpdateParamEmvKey:
ARM GAS  C:\Users\AHMED~1.ELE\AppData\Local\Temp\ccpjtoUe.s 			page 22


 695              	.LFB4:
 456:src/param.c   ****     }
 457:src/param.c   ****     
 458:src/param.c   ****     return TRUE;
 459:src/param.c   ****   }
 460:src/param.c   ****   return FALSE;
 461:src/param.c   **** }
 462:src/param.c   **** //*****************************************************************************
 463:src/param.c   **** //  Function        : UpdateParamEmvKey
 464:src/param.c   **** //  Description     : Parse node data & update KEY_ROOM structure.
 465:src/param.c   **** //  Input           : N/A
 466:src/param.c   **** //  Return          : N/A
 467:src/param.c   **** //  Note            : N/A
 468:src/param.c   **** //  Globals Changed : N/A
 469:src/param.c   **** //*****************************************************************************
 470:src/param.c   **** BOOLEAN UpdateParamEmvKey(KEY_ROOM_T *aKeyRoom, struct XML_PARAM *aXmlParam, BYTE *aName, BYTE *aCo
 471:src/param.c   **** {
 696              		.loc 1 471 0
 697              		.cfi_startproc
 698              		@ args = 0, pretend = 0, frame = 64
 699              		@ frame_needed = 0, uses_anonymous_args = 0
 700              	.LVL80:
 701 0000 F0B5     		push	{r4, r5, r6, r7, lr}
 702              		.cfi_def_cfa_offset 20
 703              		.cfi_offset 4, -20
 704              		.cfi_offset 5, -16
 705              		.cfi_offset 6, -12
 706              		.cfi_offset 7, -8
 707              		.cfi_offset 14, -4
 708 0002 0646     		mov	r6, r0
 709              	.LVL81:
 710 0004 91B0     		sub	sp, sp, #68
 711              		.cfi_def_cfa_offset 88
 712              		.loc 1 471 0
 713 0006 1546     		mov	r5, r2
 714 0008 1C46     		mov	r4, r3
 715 000a 01F10807 		add	r7, r1, #8
 716              	.LVL82:
 717              	.L73:
 472:src/param.c   ****   BYTE buf[64];
 473:src/param.c   ****   WORD offset=0;
 474:src/param.c   ****   DWORD value, len;
 475:src/param.c   ****   
 476:src/param.c   ****   while (aXmlParam->sbXmlTag != NULL) {
 718              		.loc 1 476 0
 719 000e 57F8080C 		ldr	r0, [r7, #-8]
 720 0012 0028     		cmp	r0, #0
 721 0014 68D0     		beq	.L86
 477:src/param.c   ****     if (!strcmp(aXmlParam->sbXmlTag, aName))
 722              		.loc 1 477 0
 723 0016 2946     		mov	r1, r5
 724 0018 FFF7FEFF 		bl	strcmp
 725              	.LVL83:
 726 001c 0837     		adds	r7, r7, #8
 727              	.LVL84:
 728 001e 0028     		cmp	r0, #0
 729 0020 F5D1     		bne	.L73
ARM GAS  C:\Users\AHMED~1.ELE\AppData\Local\Temp\ccpjtoUe.s 			page 23


 478:src/param.c   ****       break;
 479:src/param.c   ****     offset += aXmlParam->wSize;
 480:src/param.c   ****     aXmlParam++;
 481:src/param.c   ****   }
 482:src/param.c   ****   if (aXmlParam->sbXmlTag != NULL) {
 483:src/param.c   ****     //*aType = aXmlParam->bType;
 484:src/param.c   ****     //*aSize = aXmlParam->wSize;
 485:src/param.c   **** #if 0
 486:src/param.c   ****     SprintfMW(buf, "ChkF[%d]:\n%s", offset, aXmlParam->sbXmlTag);
 487:src/param.c   ****     DispLineMW(buf, MW_LINE1, MW_CLRDISP|MW_SPFONT);
 488:src/param.c   ****     WaitKey(KBD_TIMEOUT);
 489:src/param.c   **** #endif
 490:src/param.c   ****     if (!strcmp(aName, "eKeyIdx"))
 730              		.loc 1 490 0
 731 0022 2846     		mov	r0, r5
 732 0024 3149     		ldr	r1, .L91
 733 0026 FFF7FEFF 		bl	strcmp
 734              	.LVL85:
 735 002a 08B9     		cbnz	r0, .L87
 491:src/param.c   ****       compress(&aKeyRoom->s_key_room.KeyIdx, aContent, 1);
 736              		.loc 1 491 0
 737 002c 301D     		adds	r0, r6, #4
 738 002e 56E0     		b	.L89
 739              	.L87:
 492:src/param.c   ****     else if (!strcmp(aName, "eRID"))
 740              		.loc 1 492 0
 741 0030 2846     		mov	r0, r5
 742 0032 2F49     		ldr	r1, .L91+4
 743 0034 FFF7FEFF 		bl	strcmp
 744              	.LVL86:
 745 0038 18B9     		cbnz	r0, .L77
 493:src/param.c   ****       compress(aKeyRoom->s_key_room.RID, aContent, 5);
 746              		.loc 1 493 0
 747 003a 701D     		adds	r0, r6, #5
 748 003c 2146     		mov	r1, r4
 749 003e 0522     		movs	r2, #5
 750 0040 4FE0     		b	.L88
 751              	.L77:
 752              	.LVL87:
 753              	.LBB12:
 754              	.LBB13:
 494:src/param.c   ****     else if (!strcmp(aName, "eExponent")) {
 755              		.loc 1 494 0
 756 0042 2846     		mov	r0, r5
 757 0044 2B49     		ldr	r1, .L91+8
 758 0046 FFF7FEFF 		bl	strcmp
 759              	.LVL88:
 760 004a A0B9     		cbnz	r0, .L78
 495:src/param.c   ****       compress(buf, aContent, 4);
 761              		.loc 1 495 0
 762 004c 0422     		movs	r2, #4
 763 004e 6846     		mov	r0, sp
 764 0050 2146     		mov	r1, r4
 765 0052 FFF7FEFF 		bl	compress
 766              	.LVL89:
 496:src/param.c   ****       aKeyRoom->s_key_room.CAKey.Exponent = (buf[0]<<24) + (buf[1]<<16) + (buf[2]<<8) + buf[3];
 767              		.loc 1 496 0
ARM GAS  C:\Users\AHMED~1.ELE\AppData\Local\Temp\ccpjtoUe.s 			page 24


 768 0056 9DF80130 		ldrb	r3, [sp, #1]	@ zero_extendqisi2
 769 005a 9DF80020 		ldrb	r2, [sp]	@ zero_extendqisi2
 770 005e 1B04     		lsls	r3, r3, #16
 771 0060 03EB0263 		add	r3, r3, r2, lsl #24
 772 0064 9DF80220 		ldrb	r2, [sp, #2]	@ zero_extendqisi2
 773 0068 03EB0223 		add	r3, r3, r2, lsl #8
 774 006c 9DF80320 		ldrb	r2, [sp, #3]	@ zero_extendqisi2
 775 0070 1344     		add	r3, r3, r2
 776 0072 F360     		str	r3, [r6, #12]
 777 0074 37E0     		b	.L79
 778              	.L78:
 497:src/param.c   ****     }
 498:src/param.c   ****     else if (!strcmp(aName, "eKeySize")) {
 779              		.loc 1 498 0
 780 0076 2846     		mov	r0, r5
 781 0078 1F49     		ldr	r1, .L91+12
 782 007a FFF7FEFF 		bl	strcmp
 783              	.LVL90:
 784 007e 20B9     		cbnz	r0, .L80
 499:src/param.c   ****       value = atoi((char *)aContent);
 785              		.loc 1 499 0
 786 0080 2046     		mov	r0, r4
 787 0082 FFF7FEFF 		bl	atoi
 788              	.LVL91:
 500:src/param.c   ****       aKeyRoom->s_key_room.CAKey.KeySize = value;
 789              		.loc 1 500 0
 790 0086 3061     		str	r0, [r6, #16]
 791 0088 2DE0     		b	.L79
 792              	.LVL92:
 793              	.L80:
 501:src/param.c   ****     }
 502:src/param.c   ****     else if (!strcmp(aName, "eKey")) {
 794              		.loc 1 502 0
 795 008a 2846     		mov	r0, r5
 796 008c 1B49     		ldr	r1, .L91+16
 797 008e FFF7FEFF 		bl	strcmp
 798              	.LVL93:
 799 0092 60B9     		cbnz	r0, .L81
 503:src/param.c   ****       len = strlen(aContent)/2;
 800              		.loc 1 503 0
 801 0094 2046     		mov	r0, r4
 802 0096 FFF7FEFF 		bl	strlen
 803              	.LVL94:
 504:src/param.c   ****       if (len > sizeof(aKeyRoom->s_key_room.CAKey.Key))
 505:src/param.c   ****         len = sizeof(aKeyRoom->s_key_room.CAKey.Key);
 506:src/param.c   ****       compress(aKeyRoom->s_key_room.CAKey.Key, aContent, len);
 804              		.loc 1 506 0
 805 009a 2146     		mov	r1, r4
 503:src/param.c   ****       len = strlen(aContent)/2;
 806              		.loc 1 503 0
 807 009c 4208     		lsrs	r2, r0, #1
 808              	.LVL95:
 809              		.loc 1 506 0
 810 009e B2F5807F 		cmp	r2, #256
 811 00a2 06F11400 		add	r0, r6, #20
 812 00a6 28BF     		it	cs
 813 00a8 4FF48072 		movcs	r2, #256
ARM GAS  C:\Users\AHMED~1.ELE\AppData\Local\Temp\ccpjtoUe.s 			page 25


 814              	.LVL96:
 815 00ac 19E0     		b	.L88
 816              	.L81:
 507:src/param.c   ****     }
 508:src/param.c   ****     else if (!strcmp(aName, "eExpiryDate"))
 817              		.loc 1 508 0
 818 00ae 2846     		mov	r0, r5
 819 00b0 1349     		ldr	r1, .L91+20
 820 00b2 FFF7FEFF 		bl	strcmp
 821              	.LVL97:
 822 00b6 10B9     		cbnz	r0, .L82
 509:src/param.c   ****       compress((BYTE *)&aKeyRoom->s_key_room.ExpiryDate, aContent, 2);
 823              		.loc 1 509 0
 824 00b8 06F58A70 		add	r0, r6, #276
 825 00bc 06E0     		b	.L90
 826              	.L82:
 510:src/param.c   ****     else if (!strcmp(aName, "eEffectiveDate"))
 827              		.loc 1 510 0
 828 00be 2846     		mov	r0, r5
 829 00c0 1049     		ldr	r1, .L91+24
 830 00c2 FFF7FEFF 		bl	strcmp
 831              	.LVL98:
 832 00c6 20B9     		cbnz	r0, .L83
 511:src/param.c   ****       compress((BYTE *)&aKeyRoom->s_key_room.EffectDate, aContent, 2);
 833              		.loc 1 511 0
 834 00c8 06F58B70 		add	r0, r6, #278
 835              	.L90:
 836 00cc 2146     		mov	r1, r4
 837 00ce 0222     		movs	r2, #2
 838 00d0 07E0     		b	.L88
 839              	.L83:
 512:src/param.c   ****     else if (!strcmp(aName, "eKeyType"))
 840              		.loc 1 512 0
 841 00d2 2846     		mov	r0, r5
 842 00d4 0C49     		ldr	r1, .L91+28
 843 00d6 FFF7FEFF 		bl	strcmp
 844              	.LVL99:
 845 00da 20B9     		cbnz	r0, .L79
 513:src/param.c   ****       compress(&aKeyRoom->b_key_type, aContent, 1);
 846              		.loc 1 513 0
 847 00dc 3046     		mov	r0, r6
 848              	.LVL100:
 849              	.L89:
 850 00de 2146     		mov	r1, r4
 851 00e0 0122     		movs	r2, #1
 852              	.LVL101:
 853              	.L88:
 854 00e2 FFF7FEFF 		bl	compress
 855              	.LVL102:
 856              	.L79:
 857 00e6 0120     		movs	r0, #1
 858              	.LVL103:
 859              	.L86:
 860              	.LBE13:
 861              	.LBE12:
 514:src/param.c   ****     
 515:src/param.c   ****     return TRUE;
ARM GAS  C:\Users\AHMED~1.ELE\AppData\Local\Temp\ccpjtoUe.s 			page 26


 516:src/param.c   ****   }
 517:src/param.c   ****   return FALSE;
 518:src/param.c   **** }
 862              		.loc 1 518 0
 863 00e8 11B0     		add	sp, sp, #68
 864              		.cfi_def_cfa_offset 20
 865              		@ sp needed
 866 00ea F0BD     		pop	{r4, r5, r6, r7, pc}
 867              	.LVL104:
 868              	.L92:
 869              		.align	2
 870              	.L91:
 871 00ec EF000000 		.word	.LC25
 872 00f0 AE000000 		.word	.LC18
 873 00f4 B3000000 		.word	.LC19
 874 00f8 BD000000 		.word	.LC20
 875 00fc C6000000 		.word	.LC21
 876 0100 CB000000 		.word	.LC22
 877 0104 D7000000 		.word	.LC23
 878 0108 E6000000 		.word	.LC24
 879              		.cfi_endproc
 880              	.LFE4:
 881              		.size	UpdateParamEmvKey, .-UpdateParamEmvKey
 882              		.section	.text.ParseTermCfg,"ax",%progbits
 883              		.align	1
 884              		.global	ParseTermCfg
 885              		.thumb
 886              		.thumb_func
 887              		.type	ParseTermCfg, %function
 888              	ParseTermCfg:
 889              	.LFB5:
 519:src/param.c   **** //*****************************************************************************
 520:src/param.c   **** //  Function        : ParseTermCfg
 521:src/param.c   **** //  Description     : Parse node data at current level.
 522:src/param.c   **** //  Input           : N/A
 523:src/param.c   **** //  Return          : N/A
 524:src/param.c   **** //  Note            : N/A
 525:src/param.c   **** //  Globals Changed : N/A
 526:src/param.c   **** //*****************************************************************************
 527:src/param.c   **** mxml_node_t *ParseTermCfg(mxml_node_t *aTree, mxml_node_t *aCurrNode, mxml_node_t *aEndNode)
 528:src/param.c   **** {
 890              		.loc 1 528 0
 891              		.cfi_startproc
 892              		@ args = 0, pretend = 0, frame = 8
 893              		@ frame_needed = 0, uses_anonymous_args = 0
 894              	.LVL105:
 895 0000 2DE9FF41 		push	{r0, r1, r2, r3, r4, r5, r6, r7, r8, lr}
 896              		.cfi_def_cfa_offset 40
 897              		.cfi_offset 4, -24
 898              		.cfi_offset 5, -20
 899              		.cfi_offset 6, -16
 900              		.cfi_offset 7, -12
 901              		.cfi_offset 8, -8
 902              		.cfi_offset 14, -4
 903              		.loc 1 528 0
 904 0004 0746     		mov	r7, r0
 905 0006 0E46     		mov	r6, r1
ARM GAS  C:\Users\AHMED~1.ELE\AppData\Local\Temp\ccpjtoUe.s 			page 27


 529:src/param.c   ****   BYTE buf[256];
 530:src/param.c   ****   BYTE *string;
 531:src/param.c   ****   BYTE n_type;
 532:src/param.c   ****   WORD n_size, n_offset;
 533:src/param.c   ****   mxml_node_t *curr_node, *end_node;
 534:src/param.c   ****   struct TERM_CFG *pTable;
 535:src/param.c   **** 
 536:src/param.c   ****   if ((pTable = (struct TERM_CFG *)MallocMW(sizeof(struct TERM_CFG))) == NULL)
 906              		.loc 1 536 0
 907 0008 9220     		movs	r0, #146
 908              	.LVL106:
 909 000a 4FF4C471 		mov	r1, #392
 910              	.LVL107:
 911 000e FFF7FEFF 		bl	sys_func1
 912              	.LVL108:
 913 0012 0446     		mov	r4, r0
 914 0014 0028     		cmp	r0, #0
 915 0016 3ED0     		beq	.L99
 537:src/param.c   ****     return FALSE;
 538:src/param.c   ****   memset(pTable, 0, sizeof(struct TERM_CFG));
 916              		.loc 1 538 0
 917 0018 0021     		movs	r1, #0
 918 001a 4FF4C472 		mov	r2, #392
 919 001e FFF7FEFF 		bl	memset
 920              	.LVL109:
 539:src/param.c   ****   
 540:src/param.c   ****   end_node = mxmlWalkNext(aCurrNode, aTree, MXML_NO_DESCEND);
 921              		.loc 1 540 0
 922 0022 3046     		mov	r0, r6
 923 0024 3946     		mov	r1, r7
 924 0026 0022     		movs	r2, #0
 925 0028 FFF7FEFF 		bl	mxmlWalkNext
 926              	.LVL110:
 927 002c 8046     		mov	r8, r0
 928              	.LVL111:
 929              	.L95:
 541:src/param.c   ****   while (1) {
 542:src/param.c   ****     curr_node = mxmlWalkNext(aCurrNode, aTree, MXML_DESCEND);
 930              		.loc 1 542 0
 931 002e 3046     		mov	r0, r6
 932 0030 3946     		mov	r1, r7
 933 0032 0122     		movs	r2, #1
 934 0034 FFF7FEFF 		bl	mxmlWalkNext
 935              	.LVL112:
 543:src/param.c   ****     if (curr_node == end_node)
 936              		.loc 1 543 0
 937 0038 4045     		cmp	r0, r8
 542:src/param.c   ****     if (curr_node == end_node)
 938              		.loc 1 542 0
 939 003a 0546     		mov	r5, r0
 940              	.LVL113:
 941              		.loc 1 543 0
 942 003c 22D0     		beq	.L96
 943              	.LVL114:
 544:src/param.c   ****       break;                    // break if end of current level
 545:src/param.c   ****     aCurrNode = curr_node;
 546:src/param.c   ****     if (aCurrNode != NULL) {
ARM GAS  C:\Users\AHMED~1.ELE\AppData\Local\Temp\ccpjtoUe.s 			page 28


 944              		.loc 1 546 0
 945 003e 00B3     		cbz	r0, .L100
 547:src/param.c   ****       if (aCurrNode->type == MXML_TEXT)
 548:src/param.c   ****         continue;
 549:src/param.c   ****       if (aCurrNode->type == MXML_ELEMENT) {
 946              		.loc 1 549 0
 947 0040 90F90010 		ldrsb	r1, [r0]
 948 0044 09B1     		cbz	r1, .L107
 949              	.LVL115:
 950              	.L98:
 528:src/param.c   ****   BYTE buf[256];
 951              		.loc 1 528 0
 952 0046 2E46     		mov	r6, r5
 953 0048 F1E7     		b	.L95
 954              	.LVL116:
 955              	.L107:
 550:src/param.c   ****         //SprintfMW(buf, "n->name: %s", aCurrNode->value.element.name);
 551:src/param.c   ****         string = (BYTE *)mxmlGetText(aCurrNode, NULL);
 956              		.loc 1 551 0
 957 004a FFF7FEFF 		bl	mxmlGetText
 958              	.LVL117:
 552:src/param.c   ****         if (string != NULL) {
 959              		.loc 1 552 0
 960 004e 0646     		mov	r6, r0
 961 0050 0028     		cmp	r0, #0
 962 0052 F8D0     		beq	.L98
 553:src/param.c   **** #if 0
 554:src/param.c   ****           SprintfMW(buf, "n->text[%d]: %s", strlen(string), string);
 555:src/param.c   ****           DispLineMW(buf, MW_LINE1, MW_CLRDISP|MW_SPFONT);
 556:src/param.c   ****           WaitKey(KBD_TIMEOUT);
 557:src/param.c   **** #endif
 558:src/param.c   ****           if (CheckNodeName((struct XML_PARAM *)&TermCfgParam[0], aCurrNode->value.element.name, &n
 963              		.loc 1 558 0
 964 0054 0DF10E03 		add	r3, sp, #14
 965 0058 1048     		ldr	r0, .L108
 966              	.LVL118:
 967 005a 0093     		str	r3, [sp]
 968 005c 0DF10B02 		add	r2, sp, #11
 969 0060 A969     		ldr	r1, [r5, #24]
 970 0062 03AB     		add	r3, sp, #12
 971 0064 FFF7FEFF 		bl	CheckNodeName
 972              	.LVL119:
 973 0068 0028     		cmp	r0, #0
 974 006a ECD0     		beq	.L98
 559:src/param.c   ****             // XML tag found in Term Cfg Table
 560:src/param.c   ****             UpdateNodeParam((BYTE *)pTable+n_offset, n_type, n_size, string);
 975              		.loc 1 560 0
 976 006c BDF80E00 		ldrh	r0, [sp, #14]
 977 0070 9DF80B10 		ldrb	r1, [sp, #11]	@ zero_extendqisi2
 978 0074 2044     		add	r0, r0, r4
 979 0076 BDF80C20 		ldrh	r2, [sp, #12]
 980 007a 3346     		mov	r3, r6
 981 007c FFF7FEFF 		bl	UpdateNodeParam
 982              	.LVL120:
 983 0080 E1E7     		b	.L98
 984              	.LVL121:
 985              	.L100:
ARM GAS  C:\Users\AHMED~1.ELE\AppData\Local\Temp\ccpjtoUe.s 			page 29


 986 0082 0646     		mov	r6, r0
 987              	.LVL122:
 988              	.L96:
 561:src/param.c   ****           }
 562:src/param.c   ****         }
 563:src/param.c   ****       }
 564:src/param.c   ****     }
 565:src/param.c   ****     else {
 566:src/param.c   ****       //DispLineMW("End of Walk!", MW_LINE5, MW_CLRDISP|MW_CENTER|MW_SMFONT);
 567:src/param.c   ****       //WaitKey(KBD_TIMEOUT);
 568:src/param.c   ****       break;
 569:src/param.c   ****     }
 570:src/param.c   ****   }
 571:src/param.c   ****   UpdTermCfg(pTable);
 989              		.loc 1 571 0
 990 0084 2046     		mov	r0, r4
 991              	.LVL123:
 992 0086 FFF7FEFF 		bl	UpdTermCfg
 993              	.LVL124:
 572:src/param.c   ****   FreeMW(pTable);
 994              		.loc 1 572 0
 995 008a 9420     		movs	r0, #148
 996 008c 2146     		mov	r1, r4
 997 008e FFF7FEFF 		bl	sys_func1
 998              	.LVL125:
 573:src/param.c   ****   return aCurrNode;
 999              		.loc 1 573 0
 1000 0092 3046     		mov	r0, r6
 1001 0094 FFE7     		b	.L94
 1002              	.LVL126:
 1003              	.L99:
 1004              	.L94:
 574:src/param.c   **** }
 1005              		.loc 1 574 0
 1006 0096 04B0     		add	sp, sp, #16
 1007              		.cfi_def_cfa_offset 24
 1008              		@ sp needed
 1009 0098 BDE8F081 		pop	{r4, r5, r6, r7, r8, pc}
 1010              	.LVL127:
 1011              	.L109:
 1012              		.align	2
 1013              	.L108:
 1014 009c 00000000 		.word	.LANCHOR0
 1015              		.cfi_endproc
 1016              	.LFE5:
 1017              		.size	ParseTermCfg, .-ParseTermCfg
 1018              		.section	.text.ParseAcquirer,"ax",%progbits
 1019              		.align	1
 1020              		.global	ParseAcquirer
 1021              		.thumb
 1022              		.thumb_func
 1023              		.type	ParseAcquirer, %function
 1024              	ParseAcquirer:
 1025              	.LFB6:
 575:src/param.c   **** //*****************************************************************************
 576:src/param.c   **** //  Function        : ParseAcquirer
 577:src/param.c   **** //  Description     : Parse node data at current level.
ARM GAS  C:\Users\AHMED~1.ELE\AppData\Local\Temp\ccpjtoUe.s 			page 30


 578:src/param.c   **** //  Input           : N/A
 579:src/param.c   **** //  Return          : N/A
 580:src/param.c   **** //  Note            : N/A
 581:src/param.c   **** //  Globals Changed : N/A
 582:src/param.c   **** //*****************************************************************************
 583:src/param.c   **** mxml_node_t *ParseAcquirer(mxml_node_t *aTree, mxml_node_t *aCurrNode, mxml_node_t *aEndNode)
 584:src/param.c   **** {
 1026              		.loc 1 584 0
 1027              		.cfi_startproc
 1028              		@ args = 0, pretend = 0, frame = 8
 1029              		@ frame_needed = 0, uses_anonymous_args = 0
 1030              	.LVL128:
 1031 0000 2DE9FF41 		push	{r0, r1, r2, r3, r4, r5, r6, r7, r8, lr}
 1032              		.cfi_def_cfa_offset 40
 1033              		.cfi_offset 4, -24
 1034              		.cfi_offset 5, -20
 1035              		.cfi_offset 6, -16
 1036              		.cfi_offset 7, -12
 1037              		.cfi_offset 8, -8
 1038              		.cfi_offset 14, -4
 1039              		.loc 1 584 0
 1040 0004 0746     		mov	r7, r0
 1041 0006 0E46     		mov	r6, r1
 585:src/param.c   ****   //BYTE buf[256];
 586:src/param.c   ****   BYTE *string;
 587:src/param.c   ****   BYTE n_type;
 588:src/param.c   ****   WORD n_size, n_offset;
 589:src/param.c   ****   mxml_node_t *curr_node, *end_node;
 590:src/param.c   ****   struct ACQUIRER_TBL *pTable;
 591:src/param.c   **** 
 592:src/param.c   ****   if ((pTable = (struct ACQUIRER_TBL *)MallocMW(sizeof(struct ACQUIRER_TBL))) == NULL)
 1042              		.loc 1 592 0
 1043 0008 9220     		movs	r0, #146
 1044              	.LVL129:
 1045 000a AC21     		movs	r1, #172
 1046              	.LVL130:
 1047 000c FFF7FEFF 		bl	sys_func1
 1048              	.LVL131:
 1049 0010 0446     		mov	r4, r0
 1050 0012 0028     		cmp	r0, #0
 1051 0014 56D0     		beq	.L116
 593:src/param.c   ****     return FALSE;
 594:src/param.c   ****   memset(pTable, 0, sizeof(struct ACQUIRER_TBL));
 1052              		.loc 1 594 0
 1053 0016 0021     		movs	r1, #0
 1054 0018 AC22     		movs	r2, #172
 1055 001a FFF7FEFF 		bl	memset
 1056              	.LVL132:
 595:src/param.c   ****   memset(pTable->sb_pri_trans_tel, 0xFF, sizeof(pTable->sb_pri_trans_tel));
 1057              		.loc 1 595 0
 1058 001e FF21     		movs	r1, #255
 1059 0020 0C22     		movs	r2, #12
 1060 0022 04F11500 		add	r0, r4, #21
 1061 0026 FFF7FEFF 		bl	memset
 1062              	.LVL133:
 596:src/param.c   ****   memset(pTable->sb_sec_trans_tel, 0xFF, sizeof(pTable->sb_sec_trans_tel));
 1063              		.loc 1 596 0
ARM GAS  C:\Users\AHMED~1.ELE\AppData\Local\Temp\ccpjtoUe.s 			page 31


 1064 002a FF21     		movs	r1, #255
 1065 002c 0C22     		movs	r2, #12
 1066 002e 04F12300 		add	r0, r4, #35
 1067 0032 FFF7FEFF 		bl	memset
 1068              	.LVL134:
 597:src/param.c   ****   memset(pTable->sb_pri_settle_tel, 0xFF, sizeof(pTable->sb_pri_settle_tel));
 1069              		.loc 1 597 0
 1070 0036 FF21     		movs	r1, #255
 1071 0038 0C22     		movs	r2, #12
 1072 003a 04F13100 		add	r0, r4, #49
 1073 003e FFF7FEFF 		bl	memset
 1074              	.LVL135:
 598:src/param.c   ****   memset(pTable->sb_sec_settle_tel, 0xFF, sizeof(pTable->sb_sec_settle_tel));
 1075              		.loc 1 598 0
 1076 0042 FF21     		movs	r1, #255
 1077 0044 0C22     		movs	r2, #12
 1078 0046 04F13F00 		add	r0, r4, #63
 1079 004a FFF7FEFF 		bl	memset
 1080              	.LVL136:
 599:src/param.c   ****   
 600:src/param.c   ****   end_node = mxmlWalkNext(aCurrNode, aTree, MXML_NO_DESCEND);
 1081              		.loc 1 600 0
 1082 004e 3046     		mov	r0, r6
 1083 0050 3946     		mov	r1, r7
 1084 0052 0022     		movs	r2, #0
 1085 0054 FFF7FEFF 		bl	mxmlWalkNext
 1086              	.LVL137:
 1087 0058 8046     		mov	r8, r0
 1088              	.LVL138:
 1089              	.L112:
 601:src/param.c   ****   while (1) {
 602:src/param.c   ****     curr_node = mxmlWalkNext(aCurrNode, aTree, MXML_DESCEND);
 1090              		.loc 1 602 0
 1091 005a 3046     		mov	r0, r6
 1092 005c 3946     		mov	r1, r7
 1093 005e 0122     		movs	r2, #1
 1094 0060 FFF7FEFF 		bl	mxmlWalkNext
 1095              	.LVL139:
 603:src/param.c   ****     if (curr_node == end_node)
 1096              		.loc 1 603 0
 1097 0064 4045     		cmp	r0, r8
 602:src/param.c   ****     if (curr_node == end_node)
 1098              		.loc 1 602 0
 1099 0066 0546     		mov	r5, r0
 1100              	.LVL140:
 1101              		.loc 1 603 0
 1102 0068 22D0     		beq	.L113
 1103              	.LVL141:
 604:src/param.c   ****       break;                    // break if end of current level
 605:src/param.c   ****     aCurrNode = curr_node;
 606:src/param.c   ****     if (aCurrNode != NULL) {
 1104              		.loc 1 606 0
 1105 006a 00B3     		cbz	r0, .L117
 607:src/param.c   ****       if (aCurrNode->type == MXML_TEXT)
 608:src/param.c   ****         continue;
 609:src/param.c   ****       if (aCurrNode->type == MXML_ELEMENT) {
 1106              		.loc 1 609 0
ARM GAS  C:\Users\AHMED~1.ELE\AppData\Local\Temp\ccpjtoUe.s 			page 32


 1107 006c 90F90010 		ldrsb	r1, [r0]
 1108 0070 09B1     		cbz	r1, .L124
 1109              	.LVL142:
 1110              	.L115:
 584:src/param.c   ****   //BYTE buf[256];
 1111              		.loc 1 584 0
 1112 0072 2E46     		mov	r6, r5
 1113 0074 F1E7     		b	.L112
 1114              	.LVL143:
 1115              	.L124:
 610:src/param.c   ****         //SprintfMW(buf, "n->name: %s", aCurrNode->value.element.name);
 611:src/param.c   ****         string = (BYTE *)mxmlGetText(aCurrNode, NULL);
 1116              		.loc 1 611 0
 1117 0076 FFF7FEFF 		bl	mxmlGetText
 1118              	.LVL144:
 612:src/param.c   ****         if (string != NULL) {
 1119              		.loc 1 612 0
 1120 007a 0646     		mov	r6, r0
 1121 007c 0028     		cmp	r0, #0
 1122 007e F8D0     		beq	.L115
 613:src/param.c   **** #if 0
 614:src/param.c   ****           SprintfMW(buf, "n->text[%d]: %s", strlen(string), string);
 615:src/param.c   ****           DispLineMW(buf, MW_LINE1, MW_CLRDISP|MW_SPFONT);
 616:src/param.c   ****           WaitKey(KBD_TIMEOUT);
 617:src/param.c   **** #endif
 618:src/param.c   ****           if (CheckNodeName((struct XML_PARAM *)&AcqTableParam[0], aCurrNode->value.element.name, &
 1123              		.loc 1 618 0
 1124 0080 0DF10E03 		add	r3, sp, #14
 1125 0084 1148     		ldr	r0, .L125
 1126              	.LVL145:
 1127 0086 0093     		str	r3, [sp]
 1128 0088 0DF10B02 		add	r2, sp, #11
 1129 008c A969     		ldr	r1, [r5, #24]
 1130 008e 03AB     		add	r3, sp, #12
 1131 0090 FFF7FEFF 		bl	CheckNodeName
 1132              	.LVL146:
 1133 0094 0028     		cmp	r0, #0
 1134 0096 ECD0     		beq	.L115
 619:src/param.c   ****             // XML tag found in Acquirer Table
 620:src/param.c   ****             UpdateNodeParam((BYTE *)pTable+n_offset, n_type, n_size, string);
 1135              		.loc 1 620 0
 1136 0098 BDF80E00 		ldrh	r0, [sp, #14]
 1137 009c 9DF80B10 		ldrb	r1, [sp, #11]	@ zero_extendqisi2
 1138 00a0 2044     		add	r0, r0, r4
 1139 00a2 BDF80C20 		ldrh	r2, [sp, #12]
 1140 00a6 3346     		mov	r3, r6
 1141 00a8 FFF7FEFF 		bl	UpdateNodeParam
 1142              	.LVL147:
 1143 00ac E1E7     		b	.L115
 1144              	.LVL148:
 1145              	.L117:
 1146 00ae 0646     		mov	r6, r0
 1147              	.LVL149:
 1148              	.L113:
 621:src/param.c   ****           }
 622:src/param.c   ****         }
 623:src/param.c   ****       }
ARM GAS  C:\Users\AHMED~1.ELE\AppData\Local\Temp\ccpjtoUe.s 			page 33


 624:src/param.c   ****     }
 625:src/param.c   ****     else {
 626:src/param.c   ****       //DispLineMW("End of Walk!", MW_LINE5, MW_CLRDISP|MW_CENTER|MW_SMFONT);
 627:src/param.c   ****       //WaitKey(KBD_TIMEOUT);
 628:src/param.c   ****       break;
 629:src/param.c   ****     }
 630:src/param.c   ****   }
 631:src/param.c   **** #if 0
 632:src/param.c   ****   SprintfMW(buf, "AcqTable->id=%d", pTable->b_id);
 633:src/param.c   ****   DispLineMW(buf, MW_LINE3, MW_CLREOL|MW_SPFONT);
 634:src/param.c   ****   WaitKey(KBD_TIMEOUT);
 635:src/param.c   **** #endif
 636:src/param.c   ****   UpdAcqTbl(pTable->b_id, pTable);
 1149              		.loc 1 636 0
 1150 00b0 2146     		mov	r1, r4
 1151 00b2 2078     		ldrb	r0, [r4]	@ zero_extendqisi2
 1152              	.LVL150:
 1153 00b4 FFF7FEFF 		bl	UpdAcqTbl
 1154              	.LVL151:
 637:src/param.c   ****   FreeMW(pTable);
 1155              		.loc 1 637 0
 1156 00b8 9420     		movs	r0, #148
 1157 00ba 2146     		mov	r1, r4
 1158 00bc FFF7FEFF 		bl	sys_func1
 1159              	.LVL152:
 638:src/param.c   ****   return aCurrNode;
 1160              		.loc 1 638 0
 1161 00c0 3046     		mov	r0, r6
 1162 00c2 FFE7     		b	.L111
 1163              	.LVL153:
 1164              	.L116:
 1165              	.L111:
 639:src/param.c   **** }
 1166              		.loc 1 639 0
 1167 00c4 04B0     		add	sp, sp, #16
 1168              		.cfi_def_cfa_offset 24
 1169              		@ sp needed
 1170 00c6 BDE8F081 		pop	{r4, r5, r6, r7, r8, pc}
 1171              	.LVL154:
 1172              	.L126:
 1173 00ca 00BF     		.align	2
 1174              	.L125:
 1175 00cc F8000000 		.word	.LANCHOR0+248
 1176              		.cfi_endproc
 1177              	.LFE6:
 1178              		.size	ParseAcquirer, .-ParseAcquirer
 1179              		.section	.text.ParseIssuer,"ax",%progbits
 1180              		.align	1
 1181              		.global	ParseIssuer
 1182              		.thumb
 1183              		.thumb_func
 1184              		.type	ParseIssuer, %function
 1185              	ParseIssuer:
 1186              	.LFB7:
 640:src/param.c   **** //*****************************************************************************
 641:src/param.c   **** //  Function        : ParseIssuer
 642:src/param.c   **** //  Description     : Parse node data at current level.
ARM GAS  C:\Users\AHMED~1.ELE\AppData\Local\Temp\ccpjtoUe.s 			page 34


 643:src/param.c   **** //  Input           : N/A
 644:src/param.c   **** //  Return          : N/A
 645:src/param.c   **** //  Note            : N/A
 646:src/param.c   **** //  Globals Changed : N/A
 647:src/param.c   **** //*****************************************************************************
 648:src/param.c   **** mxml_node_t *ParseIssuer(mxml_node_t *aTree, mxml_node_t *aCurrNode, mxml_node_t *aEndNode)
 649:src/param.c   **** {
 1187              		.loc 1 649 0
 1188              		.cfi_startproc
 1189              		@ args = 0, pretend = 0, frame = 8
 1190              		@ frame_needed = 0, uses_anonymous_args = 0
 1191              	.LVL155:
 1192 0000 2DE9FF41 		push	{r0, r1, r2, r3, r4, r5, r6, r7, r8, lr}
 1193              		.cfi_def_cfa_offset 40
 1194              		.cfi_offset 4, -24
 1195              		.cfi_offset 5, -20
 1196              		.cfi_offset 6, -16
 1197              		.cfi_offset 7, -12
 1198              		.cfi_offset 8, -8
 1199              		.cfi_offset 14, -4
 1200              		.loc 1 649 0
 1201 0004 0746     		mov	r7, r0
 1202 0006 0E46     		mov	r6, r1
 650:src/param.c   ****   //BYTE buf[256];
 651:src/param.c   ****   BYTE *string;
 652:src/param.c   ****   BYTE n_type;
 653:src/param.c   ****   WORD n_size, n_offset;
 654:src/param.c   ****   mxml_node_t *curr_node, *end_node;
 655:src/param.c   ****   struct ISSUER_TBL *pTable;
 656:src/param.c   **** 
 657:src/param.c   ****   if ((pTable = (struct ISSUER_TBL *)MallocMW(sizeof(struct ISSUER_TBL))) == NULL)
 1203              		.loc 1 657 0
 1204 0008 9220     		movs	r0, #146
 1205              	.LVL156:
 1206 000a 3821     		movs	r1, #56
 1207              	.LVL157:
 1208 000c FFF7FEFF 		bl	sys_func1
 1209              	.LVL158:
 1210 0010 0446     		mov	r4, r0
 1211 0012 0028     		cmp	r0, #0
 1212 0014 3ED0     		beq	.L133
 658:src/param.c   ****     return FALSE;
 659:src/param.c   ****   memset(pTable, 0, sizeof(struct ISSUER_TBL));
 1213              		.loc 1 659 0
 1214 0016 0021     		movs	r1, #0
 1215 0018 3822     		movs	r2, #56
 1216 001a FFF7FEFF 		bl	memset
 1217              	.LVL159:
 660:src/param.c   ****   
 661:src/param.c   ****   end_node = mxmlWalkNext(aCurrNode, aTree, MXML_NO_DESCEND);
 1218              		.loc 1 661 0
 1219 001e 3046     		mov	r0, r6
 1220 0020 3946     		mov	r1, r7
 1221 0022 0022     		movs	r2, #0
 1222 0024 FFF7FEFF 		bl	mxmlWalkNext
 1223              	.LVL160:
 1224 0028 8046     		mov	r8, r0
ARM GAS  C:\Users\AHMED~1.ELE\AppData\Local\Temp\ccpjtoUe.s 			page 35


 1225              	.LVL161:
 1226              	.L129:
 662:src/param.c   ****   while (1) {
 663:src/param.c   ****     curr_node = mxmlWalkNext(aCurrNode, aTree, MXML_DESCEND);
 1227              		.loc 1 663 0
 1228 002a 3046     		mov	r0, r6
 1229 002c 3946     		mov	r1, r7
 1230 002e 0122     		movs	r2, #1
 1231 0030 FFF7FEFF 		bl	mxmlWalkNext
 1232              	.LVL162:
 664:src/param.c   ****     if (curr_node == end_node)
 1233              		.loc 1 664 0
 1234 0034 4045     		cmp	r0, r8
 663:src/param.c   ****     if (curr_node == end_node)
 1235              		.loc 1 663 0
 1236 0036 0546     		mov	r5, r0
 1237              	.LVL163:
 1238              		.loc 1 664 0
 1239 0038 22D0     		beq	.L130
 1240              	.LVL164:
 665:src/param.c   ****       break;                    // break if end of current level
 666:src/param.c   ****     aCurrNode = curr_node;
 667:src/param.c   ****     if (aCurrNode != NULL) {
 1241              		.loc 1 667 0
 1242 003a 00B3     		cbz	r0, .L134
 668:src/param.c   ****       if (aCurrNode->type == MXML_TEXT)
 669:src/param.c   ****         continue;
 670:src/param.c   ****       if (aCurrNode->type == MXML_ELEMENT) {
 1243              		.loc 1 670 0
 1244 003c 90F90010 		ldrsb	r1, [r0]
 1245 0040 09B1     		cbz	r1, .L141
 1246              	.LVL165:
 1247              	.L132:
 649:src/param.c   ****   //BYTE buf[256];
 1248              		.loc 1 649 0
 1249 0042 2E46     		mov	r6, r5
 1250 0044 F1E7     		b	.L129
 1251              	.LVL166:
 1252              	.L141:
 671:src/param.c   ****         //SprintfMW(buf, "n->name: %s", aCurrNode->value.element.name);
 672:src/param.c   ****         string = (BYTE *)mxmlGetText(aCurrNode, NULL);
 1253              		.loc 1 672 0
 1254 0046 FFF7FEFF 		bl	mxmlGetText
 1255              	.LVL167:
 673:src/param.c   ****         if (string != NULL) {
 1256              		.loc 1 673 0
 1257 004a 0646     		mov	r6, r0
 1258 004c 0028     		cmp	r0, #0
 1259 004e F8D0     		beq	.L132
 674:src/param.c   **** #if 0
 675:src/param.c   ****           SprintfMW(buf, "Iss->text[%d]: %s", strlen(string), string);
 676:src/param.c   ****           DispLineMW(buf, MW_LINE1, MW_CLRDISP|MW_SPFONT);
 677:src/param.c   ****           WaitKey(KBD_TIMEOUT);
 678:src/param.c   **** #endif
 679:src/param.c   ****           if (CheckNodeName((struct XML_PARAM *)&IssuerTableParam[0], aCurrNode->value.element.name
 1260              		.loc 1 679 0
 1261 0050 0DF10E03 		add	r3, sp, #14
ARM GAS  C:\Users\AHMED~1.ELE\AppData\Local\Temp\ccpjtoUe.s 			page 36


 1262 0054 1148     		ldr	r0, .L142
 1263              	.LVL168:
 1264 0056 0093     		str	r3, [sp]
 1265 0058 0DF10B02 		add	r2, sp, #11
 1266 005c A969     		ldr	r1, [r5, #24]
 1267 005e 03AB     		add	r3, sp, #12
 1268 0060 FFF7FEFF 		bl	CheckNodeName
 1269              	.LVL169:
 1270 0064 0028     		cmp	r0, #0
 1271 0066 ECD0     		beq	.L132
 680:src/param.c   ****             // XML tag found in Issuer Table
 681:src/param.c   ****             UpdateNodeParam((BYTE *)pTable+n_offset, n_type, n_size, string);
 1272              		.loc 1 681 0
 1273 0068 BDF80E00 		ldrh	r0, [sp, #14]
 1274 006c 9DF80B10 		ldrb	r1, [sp, #11]	@ zero_extendqisi2
 1275 0070 2044     		add	r0, r0, r4
 1276 0072 BDF80C20 		ldrh	r2, [sp, #12]
 1277 0076 3346     		mov	r3, r6
 1278 0078 FFF7FEFF 		bl	UpdateNodeParam
 1279              	.LVL170:
 1280 007c E1E7     		b	.L132
 1281              	.LVL171:
 1282              	.L134:
 1283 007e 0646     		mov	r6, r0
 1284              	.LVL172:
 1285              	.L130:
 682:src/param.c   ****           }
 683:src/param.c   ****         }
 684:src/param.c   ****       }
 685:src/param.c   ****     }
 686:src/param.c   ****     else {
 687:src/param.c   ****       //DispLineMW("End of Walk!", MW_LINE5, MW_CLRDISP|MW_CENTER|MW_SMFONT);
 688:src/param.c   ****       //WaitKey(KBD_TIMEOUT);
 689:src/param.c   ****       break;
 690:src/param.c   ****     }
 691:src/param.c   ****   }
 692:src/param.c   ****   UpdIssuerTbl(pTable->b_id, pTable);
 1286              		.loc 1 692 0
 1287 0080 2146     		mov	r1, r4
 1288 0082 2078     		ldrb	r0, [r4]	@ zero_extendqisi2
 1289              	.LVL173:
 1290 0084 FFF7FEFF 		bl	UpdIssuerTbl
 1291              	.LVL174:
 693:src/param.c   ****   FreeMW(pTable);
 1292              		.loc 1 693 0
 1293 0088 9420     		movs	r0, #148
 1294 008a 2146     		mov	r1, r4
 1295 008c FFF7FEFF 		bl	sys_func1
 1296              	.LVL175:
 694:src/param.c   ****   return aCurrNode;
 1297              		.loc 1 694 0
 1298 0090 3046     		mov	r0, r6
 1299 0092 FFE7     		b	.L128
 1300              	.LVL176:
 1301              	.L133:
 1302              	.L128:
 695:src/param.c   **** }
ARM GAS  C:\Users\AHMED~1.ELE\AppData\Local\Temp\ccpjtoUe.s 			page 37


 1303              		.loc 1 695 0
 1304 0094 04B0     		add	sp, sp, #16
 1305              		.cfi_def_cfa_offset 24
 1306              		@ sp needed
 1307 0096 BDE8F081 		pop	{r4, r5, r6, r7, r8, pc}
 1308              	.LVL177:
 1309              	.L143:
 1310 009a 00BF     		.align	2
 1311              	.L142:
 1312 009c D0010000 		.word	.LANCHOR0+464
 1313              		.cfi_endproc
 1314              	.LFE7:
 1315              		.size	ParseIssuer, .-ParseIssuer
 1316              		.section	.text.ParseCard,"ax",%progbits
 1317              		.align	1
 1318              		.global	ParseCard
 1319              		.thumb
 1320              		.thumb_func
 1321              		.type	ParseCard, %function
 1322              	ParseCard:
 1323              	.LFB8:
 696:src/param.c   **** //*****************************************************************************
 697:src/param.c   **** //  Function        : ParseCard
 698:src/param.c   **** //  Description     : Parse node data at current level.
 699:src/param.c   **** //  Input           : N/A
 700:src/param.c   **** //  Return          : N/A
 701:src/param.c   **** //  Note            : N/A
 702:src/param.c   **** //  Globals Changed : N/A
 703:src/param.c   **** //*****************************************************************************
 704:src/param.c   **** mxml_node_t *ParseCard(mxml_node_t *aTree, mxml_node_t *aCurrNode, mxml_node_t *aEndNode)
 705:src/param.c   **** {
 1324              		.loc 1 705 0
 1325              		.cfi_startproc
 1326              		@ args = 0, pretend = 0, frame = 8
 1327              		@ frame_needed = 0, uses_anonymous_args = 0
 1328              	.LVL178:
 1329 0000 2DE9FF41 		push	{r0, r1, r2, r3, r4, r5, r6, r7, r8, lr}
 1330              		.cfi_def_cfa_offset 40
 1331              		.cfi_offset 4, -24
 1332              		.cfi_offset 5, -20
 1333              		.cfi_offset 6, -16
 1334              		.cfi_offset 7, -12
 1335              		.cfi_offset 8, -8
 1336              		.cfi_offset 14, -4
 1337              		.loc 1 705 0
 1338 0004 0746     		mov	r7, r0
 1339 0006 0E46     		mov	r6, r1
 706:src/param.c   ****   //BYTE buf[256];
 707:src/param.c   ****   BYTE *string;
 708:src/param.c   ****   BYTE n_type;
 709:src/param.c   ****   WORD n_size, n_offset;
 710:src/param.c   ****   mxml_node_t *curr_node, *end_node;
 711:src/param.c   ****   struct CARD_TBL *pTable;
 712:src/param.c   **** 
 713:src/param.c   ****   if ((pTable = (struct CARD_TBL *)MallocMW(sizeof(struct CARD_TBL))) == NULL)
 1340              		.loc 1 713 0
 1341 0008 9220     		movs	r0, #146
ARM GAS  C:\Users\AHMED~1.ELE\AppData\Local\Temp\ccpjtoUe.s 			page 38


 1342              	.LVL179:
 1343 000a 2421     		movs	r1, #36
 1344              	.LVL180:
 1345 000c FFF7FEFF 		bl	sys_func1
 1346              	.LVL181:
 1347 0010 0446     		mov	r4, r0
 1348 0012 0028     		cmp	r0, #0
 1349 0014 41D0     		beq	.L150
 714:src/param.c   ****     return FALSE;
 715:src/param.c   ****   memset(pTable, 0, sizeof(struct CARD_TBL));
 1350              		.loc 1 715 0
 1351 0016 0021     		movs	r1, #0
 1352 0018 2422     		movs	r2, #36
 1353 001a FFF7FEFF 		bl	memset
 1354              	.LVL182:
 716:src/param.c   ****   
 717:src/param.c   ****   end_node = mxmlWalkNext(aCurrNode, aTree, MXML_NO_DESCEND);
 1355              		.loc 1 717 0
 1356 001e 3046     		mov	r0, r6
 1357 0020 3946     		mov	r1, r7
 1358 0022 0022     		movs	r2, #0
 1359 0024 FFF7FEFF 		bl	mxmlWalkNext
 1360              	.LVL183:
 1361 0028 8046     		mov	r8, r0
 1362              	.LVL184:
 1363              	.L146:
 718:src/param.c   ****   while (1) {
 719:src/param.c   ****     curr_node = mxmlWalkNext(aCurrNode, aTree, MXML_DESCEND);
 1364              		.loc 1 719 0
 1365 002a 3046     		mov	r0, r6
 1366 002c 3946     		mov	r1, r7
 1367 002e 0122     		movs	r2, #1
 1368 0030 FFF7FEFF 		bl	mxmlWalkNext
 1369              	.LVL185:
 720:src/param.c   ****     if (curr_node == end_node)
 1370              		.loc 1 720 0
 1371 0034 4045     		cmp	r0, r8
 719:src/param.c   ****     if (curr_node == end_node)
 1372              		.loc 1 719 0
 1373 0036 0546     		mov	r5, r0
 1374              	.LVL186:
 1375              		.loc 1 720 0
 1376 0038 22D0     		beq	.L147
 1377              	.LVL187:
 721:src/param.c   ****       break;                    // break if end of current level
 722:src/param.c   ****     aCurrNode = curr_node;
 723:src/param.c   ****     if (aCurrNode != NULL) {
 1378              		.loc 1 723 0
 1379 003a 00B3     		cbz	r0, .L151
 724:src/param.c   ****       if (aCurrNode->type == MXML_TEXT)
 725:src/param.c   ****         continue;
 726:src/param.c   ****       if (aCurrNode->type == MXML_ELEMENT) {
 1380              		.loc 1 726 0
 1381 003c 90F90010 		ldrsb	r1, [r0]
 1382 0040 09B1     		cbz	r1, .L158
 1383              	.LVL188:
 1384              	.L149:
ARM GAS  C:\Users\AHMED~1.ELE\AppData\Local\Temp\ccpjtoUe.s 			page 39


 705:src/param.c   ****   //BYTE buf[256];
 1385              		.loc 1 705 0
 1386 0042 2E46     		mov	r6, r5
 1387 0044 F1E7     		b	.L146
 1388              	.LVL189:
 1389              	.L158:
 727:src/param.c   ****         //SprintfMW(buf, "n->name: %s", aCurrNode->value.element.name);
 728:src/param.c   ****         string = (BYTE *)mxmlGetText(aCurrNode, NULL);
 1390              		.loc 1 728 0
 1391 0046 FFF7FEFF 		bl	mxmlGetText
 1392              	.LVL190:
 729:src/param.c   ****         if (string != NULL) {
 1393              		.loc 1 729 0
 1394 004a 0646     		mov	r6, r0
 1395 004c 0028     		cmp	r0, #0
 1396 004e F8D0     		beq	.L149
 730:src/param.c   **** #if 0
 731:src/param.c   ****           SprintfMW(buf, "Card->text[%d]: %s", strlen(string), string);
 732:src/param.c   ****           DispLineMW(buf, MW_LINE5, MW_CLREOL|MW_SPFONT);
 733:src/param.c   ****           WaitKey(KBD_TIMEOUT);
 734:src/param.c   **** #endif
 735:src/param.c   ****           if (CheckNodeName((struct XML_PARAM *)&CardTableParam[0], aCurrNode->value.element.name, 
 1397              		.loc 1 735 0
 1398 0050 0DF10E03 		add	r3, sp, #14
 1399 0054 1248     		ldr	r0, .L159
 1400              	.LVL191:
 1401 0056 0093     		str	r3, [sp]
 1402 0058 0DF10B02 		add	r2, sp, #11
 1403 005c A969     		ldr	r1, [r5, #24]
 1404 005e 03AB     		add	r3, sp, #12
 1405 0060 FFF7FEFF 		bl	CheckNodeName
 1406              	.LVL192:
 1407 0064 0028     		cmp	r0, #0
 1408 0066 ECD0     		beq	.L149
 736:src/param.c   ****             // XML tag found in Card Table
 737:src/param.c   ****             UpdateNodeParam((BYTE *)pTable+n_offset, n_type, n_size, string);
 1409              		.loc 1 737 0
 1410 0068 BDF80E00 		ldrh	r0, [sp, #14]
 1411 006c 9DF80B10 		ldrb	r1, [sp, #11]	@ zero_extendqisi2
 1412 0070 2044     		add	r0, r0, r4
 1413 0072 BDF80C20 		ldrh	r2, [sp, #12]
 1414 0076 3346     		mov	r3, r6
 1415 0078 FFF7FEFF 		bl	UpdateNodeParam
 1416              	.LVL193:
 1417 007c E1E7     		b	.L149
 1418              	.LVL194:
 1419              	.L151:
 1420 007e 0646     		mov	r6, r0
 1421              	.LVL195:
 1422              	.L147:
 738:src/param.c   ****           }
 739:src/param.c   ****         }
 740:src/param.c   ****       }
 741:src/param.c   ****     }
 742:src/param.c   ****     else {
 743:src/param.c   ****       //DispLineMW("End of Walk!", MW_LINE5, MW_CLRDISP|MW_CENTER|MW_SMFONT);
 744:src/param.c   ****       //WaitKey(KBD_TIMEOUT);
ARM GAS  C:\Users\AHMED~1.ELE\AppData\Local\Temp\ccpjtoUe.s 			page 40


 745:src/param.c   ****       break;
 746:src/param.c   ****     }
 747:src/param.c   ****   }
 748:src/param.c   ****   UpdCardTbl(gCardIdx++, pTable);
 1423              		.loc 1 748 0
 1424 0080 084B     		ldr	r3, .L159+4
 1425 0082 2146     		mov	r1, r4
 1426 0084 1878     		ldrb	r0, [r3]	@ zero_extendqisi2
 1427              	.LVL196:
 1428 0086 421C     		adds	r2, r0, #1
 1429 0088 1A70     		strb	r2, [r3]
 1430 008a FFF7FEFF 		bl	UpdCardTbl
 1431              	.LVL197:
 749:src/param.c   ****   FreeMW(pTable);
 1432              		.loc 1 749 0
 1433 008e 9420     		movs	r0, #148
 1434 0090 2146     		mov	r1, r4
 1435 0092 FFF7FEFF 		bl	sys_func1
 1436              	.LVL198:
 750:src/param.c   ****   return aCurrNode;
 1437              		.loc 1 750 0
 1438 0096 3046     		mov	r0, r6
 1439 0098 FFE7     		b	.L145
 1440              	.LVL199:
 1441              	.L150:
 1442              	.L145:
 751:src/param.c   **** }
 1443              		.loc 1 751 0
 1444 009a 04B0     		add	sp, sp, #16
 1445              		.cfi_def_cfa_offset 24
 1446              		@ sp needed
 1447 009c BDE8F081 		pop	{r4, r5, r6, r7, r8, pc}
 1448              	.LVL200:
 1449              	.L160:
 1450              		.align	2
 1451              	.L159:
 1452 00a0 18020000 		.word	.LANCHOR0+536
 1453 00a4 00000000 		.word	.LANCHOR1
 1454              		.cfi_endproc
 1455              	.LFE8:
 1456              		.size	ParseCard, .-ParseCard
 1457              		.section	.text.ParseEmvApp,"ax",%progbits
 1458              		.align	1
 1459              		.global	ParseEmvApp
 1460              		.thumb
 1461              		.thumb_func
 1462              		.type	ParseEmvApp, %function
 1463              	ParseEmvApp:
 1464              	.LFB9:
 752:src/param.c   **** //*****************************************************************************
 753:src/param.c   **** //  Function        : ParseEmvApp
 754:src/param.c   **** //  Description     : Parse node data at current level.
 755:src/param.c   **** //  Input           : N/A
 756:src/param.c   **** //  Return          : N/A
 757:src/param.c   **** //  Note            : N/A
 758:src/param.c   **** //  Globals Changed : N/A
 759:src/param.c   **** //*****************************************************************************
ARM GAS  C:\Users\AHMED~1.ELE\AppData\Local\Temp\ccpjtoUe.s 			page 41


 760:src/param.c   **** mxml_node_t *ParseEmvApp(mxml_node_t *aTree, mxml_node_t *aCurrNode, mxml_node_t *aEndNode)
 761:src/param.c   **** {
 1465              		.loc 1 761 0
 1466              		.cfi_startproc
 1467              		@ args = 0, pretend = 0, frame = 0
 1468              		@ frame_needed = 0, uses_anonymous_args = 0
 1469              	.LVL201:
 1470 0000 2DE9F041 		push	{r4, r5, r6, r7, r8, lr}
 1471              		.cfi_def_cfa_offset 24
 1472              		.cfi_offset 4, -24
 1473              		.cfi_offset 5, -20
 1474              		.cfi_offset 6, -16
 1475              		.cfi_offset 7, -12
 1476              		.cfi_offset 8, -8
 1477              		.cfi_offset 14, -4
 1478              		.loc 1 761 0
 1479 0004 0746     		mov	r7, r0
 1480 0006 0E46     		mov	r6, r1
 762:src/param.c   ****   //BYTE buf[2048];
 763:src/param.c   ****   BYTE *string;
 764:src/param.c   ****   mxml_node_t *curr_node, *end_node;
 765:src/param.c   ****   APP_CFG *app_cfg;
 766:src/param.c   **** 
 767:src/param.c   ****   if ((app_cfg = (APP_CFG *)MallocMW(sizeof(APP_CFG))) == NULL)
 1481              		.loc 1 767 0
 1482 0008 9220     		movs	r0, #146
 1483              	.LVL202:
 1484 000a 40F21721 		movw	r1, #535
 1485              	.LVL203:
 1486 000e FFF7FEFF 		bl	sys_func1
 1487              	.LVL204:
 1488 0012 0446     		mov	r4, r0
 1489 0014 B8B3     		cbz	r0, .L167
 768:src/param.c   ****     return FALSE;
 769:src/param.c   ****   memset(app_cfg, 0, sizeof(APP_CFG));
 1490              		.loc 1 769 0
 1491 0016 0021     		movs	r1, #0
 1492 0018 40F21722 		movw	r2, #535
 1493 001c FFF7FEFF 		bl	memset
 1494              	.LVL205:
 770:src/param.c   ****   
 771:src/param.c   ****   SetEMVLoaded(0x80);
 1495              		.loc 1 771 0
 1496 0020 8020     		movs	r0, #128
 1497 0022 FFF7FEFF 		bl	SetEMVLoaded
 1498              	.LVL206:
 772:src/param.c   ****   end_node = mxmlWalkNext(aCurrNode, aTree, MXML_NO_DESCEND);
 1499              		.loc 1 772 0
 1500 0026 3046     		mov	r0, r6
 1501 0028 3946     		mov	r1, r7
 1502 002a 0022     		movs	r2, #0
 1503 002c FFF7FEFF 		bl	mxmlWalkNext
 1504              	.LVL207:
 1505 0030 8046     		mov	r8, r0
 1506              	.LVL208:
 1507              	.L163:
 773:src/param.c   ****   while (1) {
ARM GAS  C:\Users\AHMED~1.ELE\AppData\Local\Temp\ccpjtoUe.s 			page 42


 774:src/param.c   ****     curr_node = mxmlWalkNext(aCurrNode, aTree, MXML_DESCEND);
 1508              		.loc 1 774 0
 1509 0032 3046     		mov	r0, r6
 1510 0034 3946     		mov	r1, r7
 1511 0036 0122     		movs	r2, #1
 1512 0038 FFF7FEFF 		bl	mxmlWalkNext
 1513              	.LVL209:
 775:src/param.c   ****     if (curr_node == end_node)
 1514              		.loc 1 775 0
 1515 003c 4045     		cmp	r0, r8
 774:src/param.c   ****     if (curr_node == end_node)
 1516              		.loc 1 774 0
 1517 003e 0546     		mov	r5, r0
 1518              	.LVL210:
 1519              		.loc 1 775 0
 1520 0040 11D0     		beq	.L164
 1521              	.LVL211:
 776:src/param.c   ****       break;                    // break if end of current level
 777:src/param.c   ****     aCurrNode = curr_node;
 778:src/param.c   ****     if (aCurrNode != NULL) {
 1522              		.loc 1 778 0
 1523 0042 78B1     		cbz	r0, .L168
 779:src/param.c   ****       if (aCurrNode->type == MXML_TEXT)
 780:src/param.c   ****         continue;
 781:src/param.c   ****       if (aCurrNode->type == MXML_ELEMENT) {
 1524              		.loc 1 781 0
 1525 0044 90F90010 		ldrsb	r1, [r0]
 1526 0048 09B1     		cbz	r1, .L172
 1527              	.LVL212:
 1528              	.L166:
 761:src/param.c   ****   //BYTE buf[2048];
 1529              		.loc 1 761 0
 1530 004a 2E46     		mov	r6, r5
 1531 004c F1E7     		b	.L163
 1532              	.LVL213:
 1533              	.L172:
 782:src/param.c   ****         //SprintfMW(buf, "n->name: %s", aCurrNode->value.element.name);
 783:src/param.c   ****         string = (BYTE *)mxmlGetText(aCurrNode, NULL);
 1534              		.loc 1 783 0
 1535 004e FFF7FEFF 		bl	mxmlGetText
 1536              	.LVL214:
 784:src/param.c   ****         if (string != NULL) {
 1537              		.loc 1 784 0
 1538 0052 0346     		mov	r3, r0
 1539 0054 0028     		cmp	r0, #0
 1540 0056 F8D0     		beq	.L166
 785:src/param.c   **** #if 0
 786:src/param.c   ****           SprintfMW(buf, "EmvApp->text[%d]: %s", strlen(string), string);
 787:src/param.c   ****           DispLineMW(buf, MW_LINE5, MW_CLREOL|MW_SPFONT);
 788:src/param.c   ****           WaitKey(KBD_TIMEOUT);
 789:src/param.c   **** #endif
 790:src/param.c   ****           UpdateParamEmvApp(app_cfg, (struct XML_PARAM *)&EmvAppParam[0], aCurrNode->value.element.
 1541              		.loc 1 790 0
 1542 0058 2046     		mov	r0, r4
 1543              	.LVL215:
 1544 005a 0C49     		ldr	r1, .L173
 1545 005c AA69     		ldr	r2, [r5, #24]
ARM GAS  C:\Users\AHMED~1.ELE\AppData\Local\Temp\ccpjtoUe.s 			page 43


 1546 005e FFF7FEFF 		bl	UpdateParamEmvApp
 1547              	.LVL216:
 1548 0062 F2E7     		b	.L166
 1549              	.LVL217:
 1550              	.L168:
 1551 0064 0646     		mov	r6, r0
 1552              	.LVL218:
 1553              	.L164:
 791:src/param.c   ****         }
 792:src/param.c   ****       }
 793:src/param.c   ****     }
 794:src/param.c   ****     else {
 795:src/param.c   ****       //DispLineMW("End of Walk!", MW_LINE5, MW_CLRDISP|MW_CENTER|MW_SMFONT);
 796:src/param.c   ****       //WaitKey(KBD_TIMEOUT);
 797:src/param.c   ****       break;
 798:src/param.c   ****     }
 799:src/param.c   ****   }
 800:src/param.c   ****   EMVData2DnloadBuf(IOCMD_LOAD_AID, (BYTE *)app_cfg, sizeof(APP_CFG));
 1554              		.loc 1 800 0
 1555 0066 2146     		mov	r1, r4
 1556 0068 40F21722 		movw	r2, #535
 1557 006c 0420     		movs	r0, #4
 1558              	.LVL219:
 1559 006e FFF7FEFF 		bl	EMVData2DnloadBuf
 1560              	.LVL220:
 801:src/param.c   ****   SetEMVLoaded(0x01); // lower nibble for status
 1561              		.loc 1 801 0
 1562 0072 0120     		movs	r0, #1
 1563 0074 FFF7FEFF 		bl	SetEMVLoaded
 1564              	.LVL221:
 802:src/param.c   ****   FreeMW(app_cfg);
 1565              		.loc 1 802 0
 1566 0078 2146     		mov	r1, r4
 1567 007a 9420     		movs	r0, #148
 1568 007c FFF7FEFF 		bl	sys_func1
 1569              	.LVL222:
 803:src/param.c   ****   return aCurrNode;
 1570              		.loc 1 803 0
 1571 0080 3046     		mov	r0, r6
 1572 0082 BDE8F081 		pop	{r4, r5, r6, r7, r8, pc}
 1573              	.LVL223:
 1574              	.L167:
 804:src/param.c   **** }
 1575              		.loc 1 804 0
 1576 0086 BDE8F081 		pop	{r4, r5, r6, r7, r8, pc}
 1577              	.LVL224:
 1578              	.L174:
 1579 008a 00BF     		.align	2
 1580              	.L173:
 1581 008c 50020000 		.word	.LANCHOR0+592
 1582              		.cfi_endproc
 1583              	.LFE9:
 1584              		.size	ParseEmvApp, .-ParseEmvApp
 1585              		.section	.text.ParseCtlApp,"ax",%progbits
 1586              		.align	1
 1587              		.global	ParseCtlApp
 1588              		.thumb
ARM GAS  C:\Users\AHMED~1.ELE\AppData\Local\Temp\ccpjtoUe.s 			page 44


 1589              		.thumb_func
 1590              		.type	ParseCtlApp, %function
 1591              	ParseCtlApp:
 1592              	.LFB10:
 805:src/param.c   **** //*****************************************************************************
 806:src/param.c   **** //  Function        : ParseEmvApp
 807:src/param.c   **** //  Description     : Parse node data at current level.
 808:src/param.c   **** //  Input           : N/A
 809:src/param.c   **** //  Return          : N/A
 810:src/param.c   **** //  Note            : N/A
 811:src/param.c   **** //  Globals Changed : N/A
 812:src/param.c   **** //*****************************************************************************
 813:src/param.c   **** mxml_node_t *ParseCtlApp(mxml_node_t *aTree, mxml_node_t *aCurrNode, mxml_node_t *aEndNode)
 814:src/param.c   **** {
 1593              		.loc 1 814 0
 1594              		.cfi_startproc
 1595              		@ args = 0, pretend = 0, frame = 0
 1596              		@ frame_needed = 0, uses_anonymous_args = 0
 1597              	.LVL225:
 1598 0000 2DE9F041 		push	{r4, r5, r6, r7, r8, lr}
 1599              		.cfi_def_cfa_offset 24
 1600              		.cfi_offset 4, -24
 1601              		.cfi_offset 5, -20
 1602              		.cfi_offset 6, -16
 1603              		.cfi_offset 7, -12
 1604              		.cfi_offset 8, -8
 1605              		.cfi_offset 14, -4
 1606              		.loc 1 814 0
 1607 0004 0746     		mov	r7, r0
 1608 0006 0E46     		mov	r6, r1
 815:src/param.c   ****   //BYTE buf[2048];
 816:src/param.c   ****   BYTE *string;
 817:src/param.c   ****   mxml_node_t *curr_node, *end_node;
 818:src/param.c   ****   CL_CFGP *app_cfg;
 819:src/param.c   **** 
 820:src/param.c   ****   if ((app_cfg = (CL_CFGP *)MallocMW(sizeof(CL_CFGP))) == NULL)
 1609              		.loc 1 820 0
 1610 0008 9220     		movs	r0, #146
 1611              	.LVL226:
 1612 000a 40F21721 		movw	r1, #535
 1613              	.LVL227:
 1614 000e FFF7FEFF 		bl	sys_func1
 1615              	.LVL228:
 1616 0012 0446     		mov	r4, r0
 1617 0014 B8B3     		cbz	r0, .L181
 821:src/param.c   ****     return FALSE;
 822:src/param.c   ****   memset(app_cfg, 0, sizeof(CL_CFGP));
 1618              		.loc 1 822 0
 1619 0016 0021     		movs	r1, #0
 1620 0018 40F21722 		movw	r2, #535
 1621 001c FFF7FEFF 		bl	memset
 1622              	.LVL229:
 823:src/param.c   ****   
 824:src/param.c   ****   SetCTLLoaded(0x80);
 1623              		.loc 1 824 0
 1624 0020 8020     		movs	r0, #128
 1625 0022 FFF7FEFF 		bl	SetCTLLoaded
ARM GAS  C:\Users\AHMED~1.ELE\AppData\Local\Temp\ccpjtoUe.s 			page 45


 1626              	.LVL230:
 825:src/param.c   ****   end_node = mxmlWalkNext(aCurrNode, aTree, MXML_NO_DESCEND);
 1627              		.loc 1 825 0
 1628 0026 3046     		mov	r0, r6
 1629 0028 3946     		mov	r1, r7
 1630 002a 0022     		movs	r2, #0
 1631 002c FFF7FEFF 		bl	mxmlWalkNext
 1632              	.LVL231:
 1633 0030 8046     		mov	r8, r0
 1634              	.LVL232:
 1635              	.L177:
 826:src/param.c   ****   while (1) {
 827:src/param.c   ****     curr_node = mxmlWalkNext(aCurrNode, aTree, MXML_DESCEND);
 1636              		.loc 1 827 0
 1637 0032 3046     		mov	r0, r6
 1638 0034 3946     		mov	r1, r7
 1639 0036 0122     		movs	r2, #1
 1640 0038 FFF7FEFF 		bl	mxmlWalkNext
 1641              	.LVL233:
 828:src/param.c   ****     if (curr_node == end_node)
 1642              		.loc 1 828 0
 1643 003c 4045     		cmp	r0, r8
 827:src/param.c   ****     if (curr_node == end_node)
 1644              		.loc 1 827 0
 1645 003e 0546     		mov	r5, r0
 1646              	.LVL234:
 1647              		.loc 1 828 0
 1648 0040 11D0     		beq	.L178
 1649              	.LVL235:
 829:src/param.c   ****       break;                    // break if end of current level
 830:src/param.c   ****     aCurrNode = curr_node;
 831:src/param.c   ****     if (aCurrNode != NULL) {
 1650              		.loc 1 831 0
 1651 0042 78B1     		cbz	r0, .L182
 832:src/param.c   ****       if (aCurrNode->type == MXML_TEXT)
 833:src/param.c   ****         continue;
 834:src/param.c   ****       if (aCurrNode->type == MXML_ELEMENT) {
 1652              		.loc 1 834 0
 1653 0044 90F90010 		ldrsb	r1, [r0]
 1654 0048 09B1     		cbz	r1, .L186
 1655              	.LVL236:
 1656              	.L180:
 814:src/param.c   ****   //BYTE buf[2048];
 1657              		.loc 1 814 0
 1658 004a 2E46     		mov	r6, r5
 1659 004c F1E7     		b	.L177
 1660              	.LVL237:
 1661              	.L186:
 835:src/param.c   ****         //SprintfMW(buf, "n->name: %s", aCurrNode->value.element.name);
 836:src/param.c   ****         string = (BYTE *)mxmlGetText(aCurrNode, NULL);
 1662              		.loc 1 836 0
 1663 004e FFF7FEFF 		bl	mxmlGetText
 1664              	.LVL238:
 837:src/param.c   ****         if (string != NULL) {
 1665              		.loc 1 837 0
 1666 0052 0346     		mov	r3, r0
 1667 0054 0028     		cmp	r0, #0
ARM GAS  C:\Users\AHMED~1.ELE\AppData\Local\Temp\ccpjtoUe.s 			page 46


 1668 0056 F8D0     		beq	.L180
 838:src/param.c   **** #if 0
 839:src/param.c   ****           SprintfMW(buf, "CtlApp->text[%d]: %s", strlen(string), string);
 840:src/param.c   ****           DispLineMW(buf, MW_LINE5, MW_CLREOL|MW_SPFONT);
 841:src/param.c   ****           WaitKey(KBD_TIMEOUT);
 842:src/param.c   **** #endif
 843:src/param.c   ****           UpdateParamCtlApp(app_cfg, (struct XML_PARAM *)&CtlAppParam[0], aCurrNode->value.element.
 1669              		.loc 1 843 0
 1670 0058 2046     		mov	r0, r4
 1671              	.LVL239:
 1672 005a 0C49     		ldr	r1, .L187
 1673 005c AA69     		ldr	r2, [r5, #24]
 1674 005e FFF7FEFF 		bl	UpdateParamCtlApp
 1675              	.LVL240:
 1676 0062 F2E7     		b	.L180
 1677              	.LVL241:
 1678              	.L182:
 1679 0064 0646     		mov	r6, r0
 1680              	.LVL242:
 1681              	.L178:
 844:src/param.c   ****         }
 845:src/param.c   ****       }
 846:src/param.c   ****     }
 847:src/param.c   ****     else {
 848:src/param.c   ****       //DispLineMW("End of Walk!", MW_LINE5, MW_CLRDISP|MW_CENTER|MW_SMFONT);
 849:src/param.c   ****       //WaitKey(KBD_TIMEOUT);
 850:src/param.c   ****       break;
 851:src/param.c   ****     }
 852:src/param.c   ****   }
 853:src/param.c   ****   CTLData2DnloadBuf(CLCMD_LOAD_AID, (BYTE *)app_cfg, sizeof(CL_CFGP));
 1682              		.loc 1 853 0
 1683 0066 2146     		mov	r1, r4
 1684 0068 40F21722 		movw	r2, #535
 1685 006c 0420     		movs	r0, #4
 1686              	.LVL243:
 1687 006e FFF7FEFF 		bl	CTLData2DnloadBuf
 1688              	.LVL244:
 854:src/param.c   ****   SetCTLLoaded(0x01); // lower nibble for status
 1689              		.loc 1 854 0
 1690 0072 0120     		movs	r0, #1
 1691 0074 FFF7FEFF 		bl	SetCTLLoaded
 1692              	.LVL245:
 855:src/param.c   ****   FreeMW(app_cfg);
 1693              		.loc 1 855 0
 1694 0078 2146     		mov	r1, r4
 1695 007a 9420     		movs	r0, #148
 1696 007c FFF7FEFF 		bl	sys_func1
 1697              	.LVL246:
 856:src/param.c   ****   return aCurrNode;
 1698              		.loc 1 856 0
 1699 0080 3046     		mov	r0, r6
 1700 0082 BDE8F081 		pop	{r4, r5, r6, r7, r8, pc}
 1701              	.LVL247:
 1702              	.L181:
 857:src/param.c   **** }
 1703              		.loc 1 857 0
 1704 0086 BDE8F081 		pop	{r4, r5, r6, r7, r8, pc}
ARM GAS  C:\Users\AHMED~1.ELE\AppData\Local\Temp\ccpjtoUe.s 			page 47


 1705              	.LVL248:
 1706              	.L188:
 1707 008a 00BF     		.align	2
 1708              	.L187:
 1709 008c A0020000 		.word	.LANCHOR0+672
 1710              		.cfi_endproc
 1711              	.LFE10:
 1712              		.size	ParseCtlApp, .-ParseCtlApp
 1713              		.section	.text.ParseEmvKey,"ax",%progbits
 1714              		.align	1
 1715              		.global	ParseEmvKey
 1716              		.thumb
 1717              		.thumb_func
 1718              		.type	ParseEmvKey, %function
 1719              	ParseEmvKey:
 1720              	.LFB11:
 858:src/param.c   **** //*****************************************************************************
 859:src/param.c   **** //  Function        : ParseEmvKey
 860:src/param.c   **** //  Description     : Parse node data at current level.
 861:src/param.c   **** //  Input           : N/A
 862:src/param.c   **** //  Return          : N/A
 863:src/param.c   **** //  Note            : N/A
 864:src/param.c   **** //  Globals Changed : N/A
 865:src/param.c   **** //*****************************************************************************
 866:src/param.c   **** mxml_node_t *ParseEmvKey(mxml_node_t *aTree, mxml_node_t *aCurrNode, mxml_node_t *aEndNode)
 867:src/param.c   **** {
 1721              		.loc 1 867 0
 1722              		.cfi_startproc
 1723              		@ args = 0, pretend = 0, frame = 0
 1724              		@ frame_needed = 0, uses_anonymous_args = 0
 1725              	.LVL249:
 1726 0000 2DE9F041 		push	{r4, r5, r6, r7, r8, lr}
 1727              		.cfi_def_cfa_offset 24
 1728              		.cfi_offset 4, -24
 1729              		.cfi_offset 5, -20
 1730              		.cfi_offset 6, -16
 1731              		.cfi_offset 7, -12
 1732              		.cfi_offset 8, -8
 1733              		.cfi_offset 14, -4
 1734              		.loc 1 867 0
 1735 0004 0746     		mov	r7, r0
 1736 0006 0E46     		mov	r6, r1
 868:src/param.c   ****   //BYTE buf[2048];
 869:src/param.c   ****   BYTE *string;
 870:src/param.c   ****   mxml_node_t *curr_node, *end_node;
 871:src/param.c   ****   KEY_ROOM_T *key_room;
 872:src/param.c   **** 
 873:src/param.c   ****   if ((key_room = (KEY_ROOM_T *)MallocMW(sizeof(KEY_ROOM_T))) == NULL)
 1737              		.loc 1 873 0
 1738 0008 9220     		movs	r0, #146
 1739              	.LVL250:
 1740 000a 4FF48E71 		mov	r1, #284
 1741              	.LVL251:
 1742 000e FFF7FEFF 		bl	sys_func1
 1743              	.LVL252:
 1744 0012 0446     		mov	r4, r0
 1745 0014 0028     		cmp	r0, #0
ARM GAS  C:\Users\AHMED~1.ELE\AppData\Local\Temp\ccpjtoUe.s 			page 48


 1746 0016 52D0     		beq	.L198
 874:src/param.c   ****     return FALSE;
 875:src/param.c   ****   memset(key_room, 0, sizeof(KEY_ROOM_T));
 1747              		.loc 1 875 0
 1748 0018 0021     		movs	r1, #0
 1749 001a 4FF48E72 		mov	r2, #284
 1750 001e FFF7FEFF 		bl	memset
 1751              	.LVL253:
 876:src/param.c   ****   
 877:src/param.c   ****   SetEMVLoaded(0x40);
 1752              		.loc 1 877 0
 1753 0022 4020     		movs	r0, #64
 1754 0024 FFF7FEFF 		bl	SetEMVLoaded
 1755              	.LVL254:
 878:src/param.c   ****   SetCTLLoaded(0x40);
 1756              		.loc 1 878 0
 1757 0028 4020     		movs	r0, #64
 1758 002a FFF7FEFF 		bl	SetCTLLoaded
 1759              	.LVL255:
 879:src/param.c   ****   end_node = mxmlWalkNext(aCurrNode, aTree, MXML_NO_DESCEND);
 1760              		.loc 1 879 0
 1761 002e 3046     		mov	r0, r6
 1762 0030 3946     		mov	r1, r7
 1763 0032 0022     		movs	r2, #0
 1764 0034 FFF7FEFF 		bl	mxmlWalkNext
 1765              	.LVL256:
 1766 0038 8046     		mov	r8, r0
 1767              	.LVL257:
 1768              	.L191:
 880:src/param.c   ****   while (1) {
 881:src/param.c   ****     curr_node = mxmlWalkNext(aCurrNode, aTree, MXML_DESCEND);
 1769              		.loc 1 881 0
 1770 003a 3046     		mov	r0, r6
 1771 003c 3946     		mov	r1, r7
 1772 003e 0122     		movs	r2, #1
 1773 0040 FFF7FEFF 		bl	mxmlWalkNext
 1774              	.LVL258:
 882:src/param.c   ****     if (curr_node == end_node)
 1775              		.loc 1 882 0
 1776 0044 4045     		cmp	r0, r8
 881:src/param.c   ****     if (curr_node == end_node)
 1777              		.loc 1 881 0
 1778 0046 0546     		mov	r5, r0
 1779              	.LVL259:
 1780              		.loc 1 882 0
 1781 0048 11D0     		beq	.L192
 1782              	.LVL260:
 883:src/param.c   ****       break;                    // break if end of current level
 884:src/param.c   ****     aCurrNode = curr_node;
 885:src/param.c   ****     if (aCurrNode != NULL) {
 1783              		.loc 1 885 0
 1784 004a 78B1     		cbz	r0, .L199
 886:src/param.c   ****       if (aCurrNode->type == MXML_TEXT)
 887:src/param.c   ****         continue;
 888:src/param.c   ****       if (aCurrNode->type == MXML_ELEMENT) {
 1785              		.loc 1 888 0
 1786 004c 90F90010 		ldrsb	r1, [r0]
ARM GAS  C:\Users\AHMED~1.ELE\AppData\Local\Temp\ccpjtoUe.s 			page 49


 1787 0050 09B1     		cbz	r1, .L210
 1788              	.LVL261:
 1789              	.L194:
 867:src/param.c   ****   //BYTE buf[2048];
 1790              		.loc 1 867 0
 1791 0052 2E46     		mov	r6, r5
 1792 0054 F1E7     		b	.L191
 1793              	.LVL262:
 1794              	.L210:
 889:src/param.c   ****         //SprintfMW(buf, "n->name: %s", aCurrNode->value.element.name);
 890:src/param.c   ****         string = (BYTE *)mxmlGetText(aCurrNode, NULL);
 1795              		.loc 1 890 0
 1796 0056 FFF7FEFF 		bl	mxmlGetText
 1797              	.LVL263:
 891:src/param.c   ****         if (string != NULL) {
 1798              		.loc 1 891 0
 1799 005a 0346     		mov	r3, r0
 1800 005c 0028     		cmp	r0, #0
 1801 005e F8D0     		beq	.L194
 892:src/param.c   **** #if 0
 893:src/param.c   ****           SprintfMW(buf, "n->name: %s", aCurrNode->value.element.name);
 894:src/param.c   ****           DispLineMW(buf, MW_LINE4, MW_CLREOL|MW_SPFONT);
 895:src/param.c   ****           SprintfMW(buf, "EmvKey->text[%d]: %s", strlen(string), string);
 896:src/param.c   ****           DispLineMW(buf, MW_LINE5, MW_CLREOL|MW_SPFONT);
 897:src/param.c   ****           WaitKey(KBD_TIMEOUT);
 898:src/param.c   **** #endif
 899:src/param.c   ****           /*
 900:src/param.c   ****           if (CheckNodeName((struct XML_PARAM *)&EmvKeyParam[0], aCurrNode->value.element.name, &n_
 901:src/param.c   ****             // XML tag found in EMVL2 Key Table
 902:src/param.c   ****             UpdateNodeParam((BYTE *)pTable+n_offset, n_type, n_size, string);
 903:src/param.c   ****           }
 904:src/param.c   ****           */
 905:src/param.c   ****           UpdateParamEmvKey(key_room, (struct XML_PARAM *)&EmvKeyParam[0], aCurrNode->value.element
 1802              		.loc 1 905 0
 1803 0060 2046     		mov	r0, r4
 1804              	.LVL264:
 1805 0062 1849     		ldr	r1, .L211
 1806 0064 AA69     		ldr	r2, [r5, #24]
 1807 0066 FFF7FEFF 		bl	UpdateParamEmvKey
 1808              	.LVL265:
 1809 006a F2E7     		b	.L194
 1810              	.LVL266:
 1811              	.L199:
 1812 006c 0646     		mov	r6, r0
 1813              	.LVL267:
 1814              	.L192:
 906:src/param.c   ****         }
 907:src/param.c   ****       }
 908:src/param.c   ****     }
 909:src/param.c   ****     else {
 910:src/param.c   ****       //DispLineMW("End of Walk!", MW_LINE5, MW_CLRDISP|MW_CENTER|MW_SMFONT);
 911:src/param.c   ****       //WaitKey(KBD_TIMEOUT);
 912:src/param.c   ****       break;
 913:src/param.c   ****     }
 914:src/param.c   ****   }
 915:src/param.c   **** #if 0
 916:src/param.c   ****   SprintfMW(buf, "EmvKey[%02x]:\n", key_room->s_key_room.KeyIdx);
ARM GAS  C:\Users\AHMED~1.ELE\AppData\Local\Temp\ccpjtoUe.s 			page 50


 917:src/param.c   ****   DispLineMW(buf, MW_LINE1, MW_CLRDISP|MW_SPFONT);
 918:src/param.c   ****   SprintfMW(buf, "  RID: %02X%02X%02X%02X%02X\n", key_room->s_key_room.RID[0],key_room->s_key_room.
 919:src/param.c   ****                                                   key_room->s_key_room.RID[3],key_room->s_key_room.
 920:src/param.c   ****   DispLineMW(buf, MW_LINE2, MW_SPFONT);
 921:src/param.c   ****   SprintfMW(buf, "  Exp: 0x%X\n", key_room->s_key_room.CAKey.Exponent);
 922:src/param.c   ****   DispLineMW(buf, MW_LINE3, MW_SPFONT);
 923:src/param.c   ****   SprintfMW(buf, "  Size:%d\n", key_room->s_key_room.CAKey.KeySize);
 924:src/param.c   ****   DispLineMW(buf, MW_LINE4, MW_SPFONT);
 925:src/param.c   ****   SprintfMW(buf, "  Key: %02x %02x %02x %02x\n", key_room->s_key_room.CAKey.Key[0],key_room->s_key_
 926:src/param.c   ****                                                  key_room->s_key_room.CAKey.Key[2],key_room->s_key_
 927:src/param.c   ****   DispLineMW(buf, MW_LINE5, MW_SPFONT);
 928:src/param.c   ****   SprintfMW(buf, "  Type:%d\n", key_room->b_key_type);
 929:src/param.c   ****   DispLineMW(buf, MW_LINE6, MW_SPFONT);
 930:src/param.c   ****   WaitKey(KBD_TIMEOUT);
 931:src/param.c   **** #endif
 932:src/param.c   ****   if (key_room->s_key_room.KeyIdx && key_room->s_key_room.CAKey.KeySize) {
 1815              		.loc 1 932 0
 1816 006e 2379     		ldrb	r3, [r4, #4]	@ zero_extendqisi2
 1817 0070 F3B1     		cbz	r3, .L195
 1818              		.loc 1 932 0 is_stmt 0 discriminator 1
 1819 0072 2369     		ldr	r3, [r4, #16]
 1820 0074 E3B1     		cbz	r3, .L195
 933:src/param.c   ****     if (key_room->b_key_type == 0x01) {           // EMV Contact Key only
 1821              		.loc 1 933 0 is_stmt 1
 1822 0076 2078     		ldrb	r0, [r4]	@ zero_extendqisi2
 1823              	.LVL268:
 1824 0078 0128     		cmp	r0, #1
 1825 007a 06D1     		bne	.L196
 934:src/param.c   ****       EMVData2DnloadBuf(IOCMD_KEY_LOADING, (BYTE *)&key_room->s_key_room, sizeof(KEY_ROOM));
 1826              		.loc 1 934 0
 1827 007c 0220     		movs	r0, #2
 1828 007e 211D     		adds	r1, r4, #4
 1829 0080 4FF48C72 		mov	r2, #280
 1830 0084 FFF7FEFF 		bl	EMVData2DnloadBuf
 1831              	.LVL269:
 1832 0088 12E0     		b	.L195
 1833              	.L196:
 935:src/param.c   ****     }
 936:src/param.c   ****     else if (key_room->b_key_type == 0x02) {      // EMV Contactless Key only
 1834              		.loc 1 936 0
 1835 008a 0228     		cmp	r0, #2
 1836 008c 01D1     		bne	.L197
 937:src/param.c   ****       CTLData2DnloadBuf(CLCMD_KEY_LOADING, (BYTE *)&key_room->s_key_room, sizeof(KEY_ROOM));
 1837              		.loc 1 937 0
 1838 008e 211D     		adds	r1, r4, #4
 1839 0090 0AE0     		b	.L209
 1840              	.L197:
 938:src/param.c   ****     }
 939:src/param.c   ****     else if (key_room->b_key_type == 0x03) {      // Both Contact & Contactless to be injected
 1841              		.loc 1 939 0
 1842 0092 0328     		cmp	r0, #3
 1843 0094 0CD1     		bne	.L195
 940:src/param.c   ****       EMVData2DnloadBuf(IOCMD_KEY_LOADING, (BYTE *)&key_room->s_key_room, sizeof(KEY_ROOM));
 1844              		.loc 1 940 0
 1845 0096 251D     		adds	r5, r4, #4
 1846              	.LVL270:
 1847 0098 0220     		movs	r0, #2
ARM GAS  C:\Users\AHMED~1.ELE\AppData\Local\Temp\ccpjtoUe.s 			page 51


 1848 009a 2946     		mov	r1, r5
 1849 009c 4FF48C72 		mov	r2, #280
 1850 00a0 FFF7FEFF 		bl	EMVData2DnloadBuf
 1851              	.LVL271:
 941:src/param.c   ****       CTLData2DnloadBuf(CLCMD_KEY_LOADING, (BYTE *)&key_room->s_key_room, sizeof(KEY_ROOM));
 1852              		.loc 1 941 0
 1853 00a4 0220     		movs	r0, #2
 1854 00a6 2946     		mov	r1, r5
 1855              	.L209:
 1856 00a8 4FF48C72 		mov	r2, #280
 1857 00ac FFF7FEFF 		bl	CTLData2DnloadBuf
 1858              	.LVL272:
 1859              	.L195:
 942:src/param.c   ****     }
 943:src/param.c   ****   }
 944:src/param.c   ****   FreeMW(key_room);
 1860              		.loc 1 944 0
 1861 00b0 2146     		mov	r1, r4
 1862 00b2 9420     		movs	r0, #148
 1863 00b4 FFF7FEFF 		bl	sys_func1
 1864              	.LVL273:
 945:src/param.c   ****   return aCurrNode;
 1865              		.loc 1 945 0
 1866 00b8 3046     		mov	r0, r6
 1867 00ba BDE8F081 		pop	{r4, r5, r6, r7, r8, pc}
 1868              	.LVL274:
 1869              	.L198:
 946:src/param.c   **** }
 1870              		.loc 1 946 0
 1871 00be BDE8F081 		pop	{r4, r5, r6, r7, r8, pc}
 1872              	.LVL275:
 1873              	.L212:
 1874 00c2 00BF     		.align	2
 1875              	.L211:
 1876 00c4 F0020000 		.word	.LANCHOR0+752
 1877              		.cfi_endproc
 1878              	.LFE11:
 1879              		.size	ParseEmvKey, .-ParseEmvKey
 1880              		.section	.text.SetAPNConfig,"ax",%progbits
 1881              		.align	1
 1882              		.global	SetAPNConfig
 1883              		.thumb
 1884              		.thumb_func
 1885              		.type	SetAPNConfig, %function
 1886              	SetAPNConfig:
 1887              	.LFB12:
 947:src/param.c   **** 
 948:src/param.c   **** //*****************************************************************************
 949:src/param.c   **** //  Function        : SetAPNConfig
 950:src/param.c   **** //  Description     : Load XML string and save params.
 951:src/param.c   **** //  Input           : N/A
 952:src/param.c   **** //  Return          : N/A
 953:src/param.c   **** //  Note            : N/A
 954:src/param.c   **** //  Globals Changed : N/A
 955:src/param.c   **** //*****************************************************************************
 956:src/param.c   **** void SetAPNConfig()
 957:src/param.c   **** {
ARM GAS  C:\Users\AHMED~1.ELE\AppData\Local\Temp\ccpjtoUe.s 			page 52


 1888              		.loc 1 957 0
 1889              		.cfi_startproc
 1890              		@ args = 0, pretend = 0, frame = 632
 1891              		@ frame_needed = 0, uses_anonymous_args = 0
 1892 0000 70B5     		push	{r4, r5, r6, lr}
 1893              		.cfi_def_cfa_offset 16
 1894              		.cfi_offset 4, -16
 1895              		.cfi_offset 5, -12
 1896              		.cfi_offset 6, -8
 1897              		.cfi_offset 14, -4
 1898 0002 ADF5207D 		sub	sp, sp, #640
 1899              		.cfi_def_cfa_offset 656
 958:src/param.c   ****   char user[32 + 1];
 959:src/param.c   ****   char psw[32 + 1];
 960:src/param.c   ****   char apn[32 + 1];
 961:src/param.c   ****   char dispBuf[128];
 962:src/param.c   ****   
 963:src/param.c   ****   /*
 964:src/param.c   ****   BYTE apn_username[32];
 965:src/param.c   ****   BYTE apn_password[32];
 966:src/param.c   ****   BYTE apn2_username[32];
 967:src/param.c   ****   BYTE apn2_password[32];
 968:src/param.c   ****   BYTE apnconfig[32];
 969:src/param.c   ****   BYTE apnconfig2[32];
 970:src/param.c   ****   */
 971:src/param.c   ****   
 972:src/param.c   ****   struct TERM_CFG term_cfg;
 973:src/param.c   **** 
 974:src/param.c   ****   if (!GetTermCfg(&term_cfg))
 1900              		.loc 1 974 0
 1901 0006 3EA8     		add	r0, sp, #248
 1902 0008 FFF7FEFF 		bl	GetTermCfg
 1903              	.LVL276:
 1904 000c 0546     		mov	r5, r0
 1905 000e 38BB     		cbnz	r0, .L214
 1906              	.LVL277:
 1907              	.LBB14:
 975:src/param.c   ****   {
 976:src/param.c   ****     DispLineMW("failed to get term cfg", MW_LINE3, MW_CLREOL | MW_BIGFONT | MW_CENTER);
 1908              		.loc 1 976 0
 1909 0010 9220     		movs	r0, #146
 1910 0012 1721     		movs	r1, #23
 1911 0014 FFF7FEFF 		bl	sys_func1
 1912              	.LVL278:
 1913 0018 0446     		mov	r4, r0
 1914 001a 90B1     		cbz	r0, .L216
 1915              		.loc 1 976 0 is_stmt 0 discriminator 1
 1916 001c B749     		ldr	r1, .L261
 1917 001e 1622     		movs	r2, #22
 1918 0020 FFF7FEFF 		bl	memcpy
 1919              	.LVL279:
 1920 0024 41F22203 		movw	r3, #4130
 1921 0028 A575     		strb	r5, [r4, #22]
 1922 002a 2521     		movs	r1, #37
 1923 002c 0093     		str	r3, [sp]
 1924 002e 0F20     		movs	r0, #15
 1925 0030 2246     		mov	r2, r4
ARM GAS  C:\Users\AHMED~1.ELE\AppData\Local\Temp\ccpjtoUe.s 			page 53


 1926 0032 4FF44073 		mov	r3, #768
 1927 0036 FFF7FEFF 		bl	lib_app_call
 1928              	.LVL280:
 1929 003a 9420     		movs	r0, #148
 1930 003c 2146     		mov	r1, r4
 1931 003e FFF7FEFF 		bl	sys_func1
 1932              	.LVL281:
 1933              	.L216:
 1934              	.LBE14:
 977:src/param.c   ****     while (GetCharMW() == 0)
 1935              		.loc 1 977 0 is_stmt 1
 1936 0042 0022     		movs	r2, #0
 1937 0044 0F20     		movs	r0, #15
 1938 0046 0092     		str	r2, [sp]
 1939 0048 1621     		movs	r1, #22
 1940 004a 1346     		mov	r3, r2
 1941 004c FFF7FEFF 		bl	lib_app_call
 1942              	.LVL282:
 1943 0050 0028     		cmp	r0, #0
 1944 0052 40F0D081 		bne	.L213
 978:src/param.c   ****       SleepMW();
 1945              		.loc 1 978 0
 1946 0056 4FF4CE70 		mov	r0, #412
 1947 005a FFF7FEFF 		bl	sys_func0
 1948              	.LVL283:
 1949 005e F0E7     		b	.L216
 1950              	.LVL284:
 1951              	.L214:
 979:src/param.c   ****     return;
 980:src/param.c   ****   }
 981:src/param.c   ****   
 982:src/param.c   ****   ClearDispMW();
 1952              		.loc 1 982 0
 1953 0060 0C21     		movs	r1, #12
 1954 0062 1620     		movs	r0, #22
 1955 0064 FFF7FEFF 		bl	sys_func1
 1956              	.LVL285:
 983:src/param.c   ****   memset(apn, 0, sizeof(apn));
 1957              		.loc 1 983 0
 1958 0068 0021     		movs	r1, #0
 1959 006a 2122     		movs	r2, #33
 1960 006c 15A8     		add	r0, sp, #84
 1961 006e FFF7FEFF 		bl	memset
 1962              	.LVL286:
 984:src/param.c   ****   memcpy(apn, term_cfg.apnconfig, 32);
 1963              		.loc 1 984 0
 1964 0072 0DF23521 		addw	r1, sp, #565
 1965 0076 2022     		movs	r2, #32
 1966 0078 15A8     		add	r0, sp, #84
 1967 007a FFF7FEFF 		bl	memcpy
 1968              	.LVL287:
 985:src/param.c   ****   sprintf(dispBuf, "apn1: %s", apn);
 1969              		.loc 1 985 0
 1970 007e A049     		ldr	r1, .L261+4
 1971 0080 15AA     		add	r2, sp, #84
 1972 0082 1EA8     		add	r0, sp, #120
 1973 0084 FFF7FEFF 		bl	sprintf
ARM GAS  C:\Users\AHMED~1.ELE\AppData\Local\Temp\ccpjtoUe.s 			page 54


 1974              	.LVL288:
 1975              	.LBB15:
 986:src/param.c   ****   DispLineMW(dispBuf, MW_LINE1, MW_CLREOL | MW_SPFONT);
 1976              		.loc 1 986 0
 1977 0088 1EA8     		add	r0, sp, #120
 1978 008a FFF7FEFF 		bl	strlen
 1979              	.LVL289:
 1980 008e 0546     		mov	r5, r0
 1981              	.LVL290:
 1982 0090 691C     		adds	r1, r5, #1
 1983 0092 9220     		movs	r0, #146
 1984              	.LVL291:
 1985 0094 FFF7FEFF 		bl	sys_func1
 1986              	.LVL292:
 1987 0098 0446     		mov	r4, r0
 1988 009a 98B1     		cbz	r0, .L219
 1989              		.loc 1 986 0 is_stmt 0 discriminator 1
 1990 009c 1EA9     		add	r1, sp, #120
 1991 009e 2A46     		mov	r2, r5
 1992 00a0 FFF7FEFF 		bl	memcpy
 1993              	.LVL293:
 1994 00a4 0023     		movs	r3, #0
 1995 00a6 2521     		movs	r1, #37
 1996 00a8 6355     		strb	r3, [r4, r5]
 1997 00aa 42F22003 		movw	r3, #8224
 1998 00ae 0F20     		movs	r0, #15
 1999 00b0 0093     		str	r3, [sp]
 2000 00b2 2246     		mov	r2, r4
 2001 00b4 4FF48073 		mov	r3, #256
 2002 00b8 FFF7FEFF 		bl	lib_app_call
 2003              	.LVL294:
 2004 00bc 9420     		movs	r0, #148
 2005 00be 2146     		mov	r1, r4
 2006 00c0 FFF7FEFF 		bl	sys_func1
 2007              	.LVL295:
 2008              	.L219:
 2009              	.LBE15:
 987:src/param.c   ****   memset(user, 0, sizeof(user));
 2010              		.loc 1 987 0 is_stmt 1
 2011 00c4 0021     		movs	r1, #0
 2012 00c6 2122     		movs	r2, #33
 2013 00c8 03A8     		add	r0, sp, #12
 2014 00ca FFF7FEFF 		bl	memset
 2015              	.LVL296:
 988:src/param.c   ****   memcpy(user, term_cfg.apn_username, 32);
 2016              		.loc 1 988 0
 2017 00ce 3EAB     		add	r3, sp, #248
 2018 00d0 03F1BD01 		add	r1, r3, #189
 2019 00d4 2022     		movs	r2, #32
 2020 00d6 03A8     		add	r0, sp, #12
 2021 00d8 FFF7FEFF 		bl	memcpy
 2022              	.LVL297:
 989:src/param.c   ****   sprintf(dispBuf, "apn1 user: %s", user);
 2023              		.loc 1 989 0
 2024 00dc 8949     		ldr	r1, .L261+8
 2025 00de 03AA     		add	r2, sp, #12
 2026 00e0 1EA8     		add	r0, sp, #120
ARM GAS  C:\Users\AHMED~1.ELE\AppData\Local\Temp\ccpjtoUe.s 			page 55


 2027 00e2 FFF7FEFF 		bl	sprintf
 2028              	.LVL298:
 2029              	.LBB16:
 990:src/param.c   ****   DispLineMW(dispBuf, MW_LINE2, MW_CLREOL | MW_SPFONT);
 2030              		.loc 1 990 0
 2031 00e6 1EA8     		add	r0, sp, #120
 2032 00e8 FFF7FEFF 		bl	strlen
 2033              	.LVL299:
 2034 00ec 0546     		mov	r5, r0
 2035              	.LVL300:
 2036 00ee 691C     		adds	r1, r5, #1
 2037 00f0 9220     		movs	r0, #146
 2038              	.LVL301:
 2039 00f2 FFF7FEFF 		bl	sys_func1
 2040              	.LVL302:
 2041 00f6 0446     		mov	r4, r0
 2042              	.LVL303:
 2043 00f8 98B1     		cbz	r0, .L220
 2044              		.loc 1 990 0 is_stmt 0 discriminator 1
 2045 00fa 1EA9     		add	r1, sp, #120
 2046 00fc 2A46     		mov	r2, r5
 2047 00fe FFF7FEFF 		bl	memcpy
 2048              	.LVL304:
 2049 0102 0023     		movs	r3, #0
 2050 0104 2521     		movs	r1, #37
 2051 0106 6355     		strb	r3, [r4, r5]
 2052 0108 42F22003 		movw	r3, #8224
 2053 010c 0F20     		movs	r0, #15
 2054 010e 0093     		str	r3, [sp]
 2055 0110 2246     		mov	r2, r4
 2056 0112 4FF40073 		mov	r3, #512
 2057 0116 FFF7FEFF 		bl	lib_app_call
 2058              	.LVL305:
 2059 011a 9420     		movs	r0, #148
 2060 011c 2146     		mov	r1, r4
 2061 011e FFF7FEFF 		bl	sys_func1
 2062              	.LVL306:
 2063              	.L220:
 2064              	.LBE16:
 991:src/param.c   ****   memset(psw, 0, sizeof(psw));
 2065              		.loc 1 991 0 is_stmt 1
 2066 0122 0021     		movs	r1, #0
 2067 0124 2122     		movs	r2, #33
 2068 0126 0CA8     		add	r0, sp, #48
 2069 0128 FFF7FEFF 		bl	memset
 2070              	.LVL307:
 992:src/param.c   ****   memcpy(psw, term_cfg.apn_password, 32);
 2071              		.loc 1 992 0
 2072 012c 3EAB     		add	r3, sp, #248
 2073 012e 03F1DD01 		add	r1, r3, #221
 2074 0132 2022     		movs	r2, #32
 2075 0134 0CA8     		add	r0, sp, #48
 2076 0136 FFF7FEFF 		bl	memcpy
 2077              	.LVL308:
 993:src/param.c   ****   sprintf(dispBuf, "apn1 psw: %s", psw);
 2078              		.loc 1 993 0
 2079 013a 7349     		ldr	r1, .L261+12
ARM GAS  C:\Users\AHMED~1.ELE\AppData\Local\Temp\ccpjtoUe.s 			page 56


 2080 013c 0CAA     		add	r2, sp, #48
 2081 013e 1EA8     		add	r0, sp, #120
 2082 0140 FFF7FEFF 		bl	sprintf
 2083              	.LVL309:
 2084              	.LBB17:
 994:src/param.c   ****   DispLineMW(dispBuf, MW_LINE3, MW_CLREOL | MW_SPFONT);
 2085              		.loc 1 994 0
 2086 0144 1EA8     		add	r0, sp, #120
 2087 0146 FFF7FEFF 		bl	strlen
 2088              	.LVL310:
 2089 014a 0546     		mov	r5, r0
 2090              	.LVL311:
 2091 014c 691C     		adds	r1, r5, #1
 2092 014e 9220     		movs	r0, #146
 2093              	.LVL312:
 2094 0150 FFF7FEFF 		bl	sys_func1
 2095              	.LVL313:
 2096 0154 0446     		mov	r4, r0
 2097              	.LVL314:
 2098 0156 98B1     		cbz	r0, .L221
 2099              		.loc 1 994 0 is_stmt 0 discriminator 1
 2100 0158 1EA9     		add	r1, sp, #120
 2101 015a 2A46     		mov	r2, r5
 2102 015c FFF7FEFF 		bl	memcpy
 2103              	.LVL315:
 2104 0160 0023     		movs	r3, #0
 2105 0162 2521     		movs	r1, #37
 2106 0164 6355     		strb	r3, [r4, r5]
 2107 0166 42F22003 		movw	r3, #8224
 2108 016a 0F20     		movs	r0, #15
 2109 016c 0093     		str	r3, [sp]
 2110 016e 2246     		mov	r2, r4
 2111 0170 4FF44073 		mov	r3, #768
 2112 0174 FFF7FEFF 		bl	lib_app_call
 2113              	.LVL316:
 2114 0178 9420     		movs	r0, #148
 2115 017a 2146     		mov	r1, r4
 2116 017c FFF7FEFF 		bl	sys_func1
 2117              	.LVL317:
 2118              	.L221:
 2119              	.LBE17:
 995:src/param.c   ****   
 996:src/param.c   ****   memset(apn, 0, sizeof(apn));
 2120              		.loc 1 996 0 is_stmt 1
 2121 0180 0021     		movs	r1, #0
 2122 0182 2122     		movs	r2, #33
 2123 0184 15A8     		add	r0, sp, #84
 2124 0186 FFF7FEFF 		bl	memset
 2125              	.LVL318:
 997:src/param.c   ****   memcpy(apn, term_cfg.apnconfig2, 32);
 2126              		.loc 1 997 0
 2127 018a 0DF25521 		addw	r1, sp, #597
 2128 018e 2022     		movs	r2, #32
 2129 0190 15A8     		add	r0, sp, #84
 2130 0192 FFF7FEFF 		bl	memcpy
 2131              	.LVL319:
 998:src/param.c   ****   sprintf(dispBuf, "apn2: %s", apn);
ARM GAS  C:\Users\AHMED~1.ELE\AppData\Local\Temp\ccpjtoUe.s 			page 57


 2132              		.loc 1 998 0
 2133 0196 5D49     		ldr	r1, .L261+16
 2134 0198 15AA     		add	r2, sp, #84
 2135 019a 1EA8     		add	r0, sp, #120
 2136 019c FFF7FEFF 		bl	sprintf
 2137              	.LVL320:
 2138              	.LBB18:
 999:src/param.c   ****   DispLineMW(dispBuf, MW_LINE4, MW_CLREOL | MW_SPFONT);
 2139              		.loc 1 999 0
 2140 01a0 1EA8     		add	r0, sp, #120
 2141 01a2 FFF7FEFF 		bl	strlen
 2142              	.LVL321:
 2143 01a6 0546     		mov	r5, r0
 2144              	.LVL322:
 2145 01a8 691C     		adds	r1, r5, #1
 2146 01aa 9220     		movs	r0, #146
 2147              	.LVL323:
 2148 01ac FFF7FEFF 		bl	sys_func1
 2149              	.LVL324:
 2150 01b0 0446     		mov	r4, r0
 2151              	.LVL325:
 2152 01b2 98B1     		cbz	r0, .L222
 2153              		.loc 1 999 0 is_stmt 0 discriminator 1
 2154 01b4 1EA9     		add	r1, sp, #120
 2155 01b6 2A46     		mov	r2, r5
 2156 01b8 FFF7FEFF 		bl	memcpy
 2157              	.LVL326:
 2158 01bc 0023     		movs	r3, #0
 2159 01be 2521     		movs	r1, #37
 2160 01c0 6355     		strb	r3, [r4, r5]
 2161 01c2 42F22003 		movw	r3, #8224
 2162 01c6 0F20     		movs	r0, #15
 2163 01c8 0093     		str	r3, [sp]
 2164 01ca 2246     		mov	r2, r4
 2165 01cc 4FF48063 		mov	r3, #1024
 2166 01d0 FFF7FEFF 		bl	lib_app_call
 2167              	.LVL327:
 2168 01d4 9420     		movs	r0, #148
 2169 01d6 2146     		mov	r1, r4
 2170 01d8 FFF7FEFF 		bl	sys_func1
 2171              	.LVL328:
 2172              	.L222:
 2173              	.LBE18:
1000:src/param.c   ****   memset(user, 0, sizeof(user));
 2174              		.loc 1 1000 0 is_stmt 1
 2175 01dc 0021     		movs	r1, #0
 2176 01de 2122     		movs	r2, #33
 2177 01e0 03A8     		add	r0, sp, #12
 2178 01e2 FFF7FEFF 		bl	memset
 2179              	.LVL329:
1001:src/param.c   ****   memcpy(user, term_cfg.apn2_username, 32);
 2180              		.loc 1 1001 0
 2181 01e6 3EAB     		add	r3, sp, #248
 2182 01e8 03F1FD01 		add	r1, r3, #253
 2183 01ec 2022     		movs	r2, #32
 2184 01ee 03A8     		add	r0, sp, #12
 2185 01f0 FFF7FEFF 		bl	memcpy
ARM GAS  C:\Users\AHMED~1.ELE\AppData\Local\Temp\ccpjtoUe.s 			page 58


 2186              	.LVL330:
1002:src/param.c   ****   sprintf(dispBuf, "apn2 user: %s", user);
 2187              		.loc 1 1002 0
 2188 01f4 4649     		ldr	r1, .L261+20
 2189 01f6 03AA     		add	r2, sp, #12
 2190 01f8 1EA8     		add	r0, sp, #120
 2191 01fa FFF7FEFF 		bl	sprintf
 2192              	.LVL331:
 2193              	.LBB19:
1003:src/param.c   ****   DispLineMW(dispBuf, MW_LINE5, MW_CLREOL | MW_SPFONT);
 2194              		.loc 1 1003 0
 2195 01fe 1EA8     		add	r0, sp, #120
 2196 0200 FFF7FEFF 		bl	strlen
 2197              	.LVL332:
 2198 0204 0546     		mov	r5, r0
 2199              	.LVL333:
 2200 0206 691C     		adds	r1, r5, #1
 2201 0208 9220     		movs	r0, #146
 2202              	.LVL334:
 2203 020a FFF7FEFF 		bl	sys_func1
 2204              	.LVL335:
 2205 020e 0446     		mov	r4, r0
 2206              	.LVL336:
 2207 0210 98B1     		cbz	r0, .L223
 2208              		.loc 1 1003 0 is_stmt 0 discriminator 1
 2209 0212 1EA9     		add	r1, sp, #120
 2210 0214 2A46     		mov	r2, r5
 2211 0216 FFF7FEFF 		bl	memcpy
 2212              	.LVL337:
 2213 021a 0023     		movs	r3, #0
 2214 021c 2521     		movs	r1, #37
 2215 021e 6355     		strb	r3, [r4, r5]
 2216 0220 42F22003 		movw	r3, #8224
 2217 0224 0F20     		movs	r0, #15
 2218 0226 0093     		str	r3, [sp]
 2219 0228 2246     		mov	r2, r4
 2220 022a 4FF4A063 		mov	r3, #1280
 2221 022e FFF7FEFF 		bl	lib_app_call
 2222              	.LVL338:
 2223 0232 9420     		movs	r0, #148
 2224 0234 2146     		mov	r1, r4
 2225 0236 FFF7FEFF 		bl	sys_func1
 2226              	.LVL339:
 2227              	.L223:
 2228              	.LBE19:
1004:src/param.c   ****   memset(psw, 0, sizeof(psw));
 2229              		.loc 1 1004 0 is_stmt 1
 2230 023a 0021     		movs	r1, #0
 2231 023c 2122     		movs	r2, #33
 2232 023e 0CA8     		add	r0, sp, #48
 2233 0240 FFF7FEFF 		bl	memset
 2234              	.LVL340:
1005:src/param.c   ****   memcpy(psw, term_cfg.apn2_password, 32);
 2235              		.loc 1 1005 0
 2236 0244 0DF21521 		addw	r1, sp, #533
 2237 0248 2022     		movs	r2, #32
 2238 024a 0CA8     		add	r0, sp, #48
ARM GAS  C:\Users\AHMED~1.ELE\AppData\Local\Temp\ccpjtoUe.s 			page 59


 2239 024c FFF7FEFF 		bl	memcpy
 2240              	.LVL341:
1006:src/param.c   ****   sprintf(dispBuf, "apn2 psw: %s", psw);
 2241              		.loc 1 1006 0
 2242 0250 3049     		ldr	r1, .L261+24
 2243 0252 0CAA     		add	r2, sp, #48
 2244 0254 1EA8     		add	r0, sp, #120
 2245 0256 FFF7FEFF 		bl	sprintf
 2246              	.LVL342:
 2247              	.LBB20:
1007:src/param.c   ****   DispLineMW(dispBuf, MW_LINE6, MW_CLREOL | MW_SPFONT);
 2248              		.loc 1 1007 0
 2249 025a 1EA8     		add	r0, sp, #120
 2250 025c FFF7FEFF 		bl	strlen
 2251              	.LVL343:
 2252 0260 0546     		mov	r5, r0
 2253              	.LVL344:
 2254 0262 691C     		adds	r1, r5, #1
 2255 0264 9220     		movs	r0, #146
 2256              	.LVL345:
 2257 0266 FFF7FEFF 		bl	sys_func1
 2258              	.LVL346:
 2259 026a 0446     		mov	r4, r0
 2260              	.LVL347:
 2261 026c 98B1     		cbz	r0, .L224
 2262              		.loc 1 1007 0 is_stmt 0 discriminator 1
 2263 026e 1EA9     		add	r1, sp, #120
 2264 0270 2A46     		mov	r2, r5
 2265 0272 FFF7FEFF 		bl	memcpy
 2266              	.LVL348:
 2267 0276 0023     		movs	r3, #0
 2268 0278 2521     		movs	r1, #37
 2269 027a 6355     		strb	r3, [r4, r5]
 2270 027c 42F22003 		movw	r3, #8224
 2271 0280 0F20     		movs	r0, #15
 2272 0282 0093     		str	r3, [sp]
 2273 0284 2246     		mov	r2, r4
 2274 0286 4FF4C063 		mov	r3, #1536
 2275 028a FFF7FEFF 		bl	lib_app_call
 2276              	.LVL349:
 2277 028e 9420     		movs	r0, #148
 2278 0290 2146     		mov	r1, r4
 2279 0292 FFF7FEFF 		bl	sys_func1
 2280              	.LVL350:
 2281              	.L224:
 2282              	.LBE20:
1008:src/param.c   ****   
1009:src/param.c   ****   char choice = ToggleOption("select APN", KSimSel, TOGGLE_MODE_8LINE);
 2283              		.loc 1 1009 0 is_stmt 1
 2284 0296 2049     		ldr	r1, .L261+28
 2285 0298 4FF48072 		mov	r2, #256
 2286 029c 1F48     		ldr	r0, .L261+32
 2287 029e FFF7FEFF 		bl	ToggleOption
 2288              	.LVL351:
1010:src/param.c   ****   
1011:src/param.c   ****   ClearDispMW();
 2289              		.loc 1 1011 0
ARM GAS  C:\Users\AHMED~1.ELE\AppData\Local\Temp\ccpjtoUe.s 			page 60


 2290 02a2 0C21     		movs	r1, #12
1009:src/param.c   ****   
 2291              		.loc 1 1009 0
 2292 02a4 0446     		mov	r4, r0
 2293              	.LVL352:
 2294              		.loc 1 1011 0
 2295 02a6 1620     		movs	r0, #22
 2296 02a8 FFF7FEFF 		bl	sys_func1
 2297              	.LVL353:
1012:src/param.c   ****   if (choice == (char)-1)
 2298              		.loc 1 1012 0
 2299 02ac 631C     		adds	r3, r4, #1
1013:src/param.c   ****   {
1014:src/param.c   ****     sprintf(dispBuf, "user cancelled");
 2300              		.loc 1 1014 0
 2301 02ae 1EA8     		add	r0, sp, #120
1012:src/param.c   ****   if (choice == (char)-1)
 2302              		.loc 1 1012 0
 2303 02b0 38D1     		bne	.L225
 2304              		.loc 1 1014 0
 2305 02b2 1B49     		ldr	r1, .L261+36
 2306 02b4 FFF7FEFF 		bl	strcpy
 2307              	.LVL354:
 2308              	.LBB21:
1015:src/param.c   ****     DispLineMW(dispBuf, MW_LINE3, MW_CLREOL | MW_BIGFONT | MW_CENTER);
 2309              		.loc 1 1015 0
 2310 02b8 1EA8     		add	r0, sp, #120
 2311 02ba FFF7FEFF 		bl	strlen
 2312              	.LVL355:
 2313 02be 0546     		mov	r5, r0
 2314              	.LVL356:
 2315 02c0 691C     		adds	r1, r5, #1
 2316 02c2 9220     		movs	r0, #146
 2317              	.LVL357:
 2318 02c4 FFF7FEFF 		bl	sys_func1
 2319              	.LVL358:
 2320 02c8 0446     		mov	r4, r0
 2321              	.LVL359:
 2322 02ca 0028     		cmp	r0, #0
 2323 02cc 00F08680 		beq	.L227
 2324              		.loc 1 1015 0 is_stmt 0 discriminator 1
 2325 02d0 1EA9     		add	r1, sp, #120
 2326 02d2 2A46     		mov	r2, r5
 2327 02d4 FFF7FEFF 		bl	memcpy
 2328              	.LVL360:
 2329 02d8 0023     		movs	r3, #0
 2330 02da 2521     		movs	r1, #37
 2331 02dc 6355     		strb	r3, [r4, r5]
 2332 02de 41F22203 		movw	r3, #4130
 2333 02e2 2246     		mov	r2, r4
 2334 02e4 0093     		str	r3, [sp]
 2335 02e6 0F20     		movs	r0, #15
 2336 02e8 4FF44073 		mov	r3, #768
 2337 02ec FFF7FEFF 		bl	lib_app_call
 2338              	.LVL361:
 2339 02f0 2146     		mov	r1, r4
 2340 02f2 9420     		movs	r0, #148
ARM GAS  C:\Users\AHMED~1.ELE\AppData\Local\Temp\ccpjtoUe.s 			page 61


 2341 02f4 FFF7FEFF 		bl	sys_func1
 2342              	.LVL362:
 2343 02f8 70E0     		b	.L227
 2344              	.L262:
 2345 02fa 00BF     		.align	2
 2346              	.L261:
 2347 02fc F7000000 		.word	.LC26
 2348 0300 0E010000 		.word	.LC27
 2349 0304 17010000 		.word	.LC28
 2350 0308 25010000 		.word	.LC29
 2351 030c 32010000 		.word	.LC30
 2352 0310 3B010000 		.word	.LC31
 2353 0314 49010000 		.word	.LC32
 2354 0318 00000000 		.word	KSimSel
 2355 031c 56010000 		.word	.LC33
 2356 0320 61010000 		.word	.LC34
 2357              	.LVL363:
 2358              	.L225:
 2359              	.LBE21:
1016:src/param.c   ****   }
1017:src/param.c   ****   else
1018:src/param.c   ****   {
1019:src/param.c   ****     sprintf(dispBuf, "APN #%d is chosen", choice + 1);
 2360              		.loc 1 1019 0 is_stmt 1
 2361 0324 3549     		ldr	r1, .L263
 2362 0326 621C     		adds	r2, r4, #1
 2363 0328 FFF7FEFF 		bl	sprintf
 2364              	.LVL364:
 2365              	.LBB22:
1020:src/param.c   ****     DispLineMW(dispBuf, MW_LINE3, MW_CLREOL | MW_BIGFONT | MW_CENTER);
 2366              		.loc 1 1020 0
 2367 032c 1EA8     		add	r0, sp, #120
 2368 032e FFF7FEFF 		bl	strlen
 2369              	.LVL365:
 2370 0332 0646     		mov	r6, r0
 2371              	.LVL366:
 2372 0334 711C     		adds	r1, r6, #1
 2373 0336 9220     		movs	r0, #146
 2374              	.LVL367:
 2375 0338 FFF7FEFF 		bl	sys_func1
 2376              	.LVL368:
 2377 033c 0546     		mov	r5, r0
 2378              	.LVL369:
 2379 033e 98B1     		cbz	r0, .L228
 2380              		.loc 1 1020 0 is_stmt 0 discriminator 1
 2381 0340 1EA9     		add	r1, sp, #120
 2382 0342 3246     		mov	r2, r6
 2383 0344 FFF7FEFF 		bl	memcpy
 2384              	.LVL370:
 2385 0348 0023     		movs	r3, #0
 2386 034a 2521     		movs	r1, #37
 2387 034c AB55     		strb	r3, [r5, r6]
 2388 034e 41F22203 		movw	r3, #4130
 2389 0352 0F20     		movs	r0, #15
 2390 0354 0093     		str	r3, [sp]
 2391 0356 2A46     		mov	r2, r5
 2392 0358 4FF44073 		mov	r3, #768
ARM GAS  C:\Users\AHMED~1.ELE\AppData\Local\Temp\ccpjtoUe.s 			page 62


 2393 035c FFF7FEFF 		bl	lib_app_call
 2394              	.LVL371:
 2395 0360 9420     		movs	r0, #148
 2396 0362 2946     		mov	r1, r5
 2397 0364 FFF7FEFF 		bl	sys_func1
 2398              	.LVL372:
 2399              	.L228:
 2400              	.LBE22:
1021:src/param.c   ****     memset(apn, 0, sizeof(apn));
 2401              		.loc 1 1021 0 is_stmt 1
 2402 0368 0021     		movs	r1, #0
 2403 036a 2122     		movs	r2, #33
 2404 036c 15A8     		add	r0, sp, #84
 2405 036e FFF7FEFF 		bl	memset
 2406              	.LVL373:
1022:src/param.c   ****     memset(user, 0, sizeof(user));
 2407              		.loc 1 1022 0
 2408 0372 0021     		movs	r1, #0
 2409 0374 2122     		movs	r2, #33
 2410 0376 03A8     		add	r0, sp, #12
 2411 0378 FFF7FEFF 		bl	memset
 2412              	.LVL374:
1023:src/param.c   ****     memset(psw, 0, sizeof(psw));
 2413              		.loc 1 1023 0
 2414 037c 0CA8     		add	r0, sp, #48
 2415 037e 0021     		movs	r1, #0
 2416 0380 2122     		movs	r2, #33
 2417 0382 FFF7FEFF 		bl	memset
 2418              	.LVL375:
1024:src/param.c   ****     if (choice == 0)
1025:src/param.c   ****     {
1026:src/param.c   ****       memcpy(apn, term_cfg.apnconfig, 32);
 2419              		.loc 1 1026 0
 2420 0386 15A8     		add	r0, sp, #84
1024:src/param.c   ****     if (choice == 0)
 2421              		.loc 1 1024 0
 2422 0388 84B9     		cbnz	r4, .L229
 2423              		.loc 1 1026 0
 2424 038a 0DF23521 		addw	r1, sp, #565
 2425 038e 2022     		movs	r2, #32
 2426 0390 FFF7FEFF 		bl	memcpy
 2427              	.LVL376:
1027:src/param.c   ****       memcpy(user, term_cfg.apn_username, 32);
 2428              		.loc 1 1027 0
 2429 0394 3EAB     		add	r3, sp, #248
 2430 0396 03F1BD01 		add	r1, r3, #189
 2431 039a 03A8     		add	r0, sp, #12
 2432 039c 2022     		movs	r2, #32
 2433 039e FFF7FEFF 		bl	memcpy
 2434              	.LVL377:
1028:src/param.c   ****       memcpy(psw, term_cfg.apn_password, 32);
 2435              		.loc 1 1028 0
 2436 03a2 3EAB     		add	r3, sp, #248
 2437 03a4 0CA8     		add	r0, sp, #48
 2438 03a6 03F1DD01 		add	r1, r3, #221
 2439 03aa 0EE0     		b	.L260
 2440              	.L229:
ARM GAS  C:\Users\AHMED~1.ELE\AppData\Local\Temp\ccpjtoUe.s 			page 63


1029:src/param.c   ****     }
1030:src/param.c   ****     else
1031:src/param.c   ****     {
1032:src/param.c   ****       memcpy(apn, term_cfg.apnconfig2, 32);
 2441              		.loc 1 1032 0
 2442 03ac 0DF25521 		addw	r1, sp, #597
 2443 03b0 2022     		movs	r2, #32
 2444 03b2 FFF7FEFF 		bl	memcpy
 2445              	.LVL378:
1033:src/param.c   ****       memcpy(user, term_cfg.apn2_username, 32);
 2446              		.loc 1 1033 0
 2447 03b6 3EAB     		add	r3, sp, #248
 2448 03b8 03F1FD01 		add	r1, r3, #253
 2449 03bc 03A8     		add	r0, sp, #12
 2450 03be 2022     		movs	r2, #32
 2451 03c0 FFF7FEFF 		bl	memcpy
 2452              	.LVL379:
1034:src/param.c   ****       memcpy(psw, term_cfg.apn2_password, 32);
 2453              		.loc 1 1034 0
 2454 03c4 0CA8     		add	r0, sp, #48
 2455 03c6 0DF21521 		addw	r1, sp, #533
 2456              	.L260:
 2457 03ca 2022     		movs	r2, #32
 2458 03cc FFF7FEFF 		bl	memcpy
 2459              	.LVL380:
1035:src/param.c   ****     }
1036:src/param.c   ****     SetGPRSInfo(user, psw, apn, 0);
 2460              		.loc 1 1036 0
 2461 03d0 03A8     		add	r0, sp, #12
 2462 03d2 0CA9     		add	r1, sp, #48
 2463 03d4 15AA     		add	r2, sp, #84
 2464 03d6 0023     		movs	r3, #0
 2465 03d8 FFF7FEFF 		bl	SetGPRSInfo
 2466              	.LVL381:
 2467              	.L227:
1037:src/param.c   ****   }
1038:src/param.c   **** 
1039:src/param.c   ****   while (GetCharMW() == 0)
 2468              		.loc 1 1039 0
 2469 03dc 0022     		movs	r2, #0
 2470 03de 0F20     		movs	r0, #15
 2471 03e0 0092     		str	r2, [sp]
 2472 03e2 1621     		movs	r1, #22
 2473 03e4 1346     		mov	r3, r2
 2474 03e6 FFF7FEFF 		bl	lib_app_call
 2475              	.LVL382:
 2476 03ea 20B9     		cbnz	r0, .L213
1040:src/param.c   ****     SleepMW();
 2477              		.loc 1 1040 0
 2478 03ec 4FF4CE70 		mov	r0, #412
 2479 03f0 FFF7FEFF 		bl	sys_func0
 2480              	.LVL383:
 2481 03f4 F2E7     		b	.L227
 2482              	.L213:
1041:src/param.c   **** }
 2483              		.loc 1 1041 0
 2484 03f6 0DF5207D 		add	sp, sp, #640
ARM GAS  C:\Users\AHMED~1.ELE\AppData\Local\Temp\ccpjtoUe.s 			page 64


 2485              		.cfi_def_cfa_offset 16
 2486              		@ sp needed
 2487 03fa 70BD     		pop	{r4, r5, r6, pc}
 2488              	.L264:
 2489              		.align	2
 2490              	.L263:
 2491 03fc 70010000 		.word	.LC35
 2492              		.cfi_endproc
 2493              	.LFE12:
 2494              		.size	SetAPNConfig, .-SetAPNConfig
 2495              		.section	.text.XmlStringToCfg,"ax",%progbits
 2496              		.align	1
 2497              		.global	XmlStringToCfg
 2498              		.thumb
 2499              		.thumb_func
 2500              		.type	XmlStringToCfg, %function
 2501              	XmlStringToCfg:
 2502              	.LFB13:
1042:src/param.c   **** //*****************************************************************************
1043:src/param.c   **** //  Function        : XmlStringToCfg
1044:src/param.c   **** //  Description     : Load XML string and save params.
1045:src/param.c   **** //  Input           : N/A
1046:src/param.c   **** //  Return          : N/A
1047:src/param.c   **** //  Note            : N/A
1048:src/param.c   **** //  Globals Changed : N/A
1049:src/param.c   **** //*****************************************************************************
1050:src/param.c   **** BOOLEAN XmlStringToCfg(BYTE *aPtr)
1051:src/param.c   **** {
 2503              		.loc 1 1051 0
 2504              		.cfi_startproc
 2505              		@ args = 0, pretend = 0, frame = 0
 2506              		@ frame_needed = 0, uses_anonymous_args = 0
 2507              	.LVL384:
 2508 0000 F7B5     		push	{r0, r1, r2, r4, r5, r6, r7, lr}
 2509              		.cfi_def_cfa_offset 32
 2510              		.cfi_offset 4, -20
 2511              		.cfi_offset 5, -16
 2512              		.cfi_offset 6, -12
 2513              		.cfi_offset 7, -8
 2514              		.cfi_offset 14, -4
1052:src/param.c   ****   mxml_node_t *tree=NULL, *node=NULL, *next_node=NULL;
1053:src/param.c   ****   //BYTE buf[256];
1054:src/param.c   ****   //BYTE *string;
1055:src/param.c   ****   BYTE start=1;
1056:src/param.c   ****   BYTE state=ST_TERM_CLEAR;
1057:src/param.c   ****   BOOLEAN ret=FALSE;
1058:src/param.c   **** 
1059:src/param.c   ****   gCardIdx = 0;
 2515              		.loc 1 1059 0
 2516 0002 994B     		ldr	r3, .L330
 2517 0004 0026     		movs	r6, #0
1051:src/param.c   ****   mxml_node_t *tree=NULL, *node=NULL, *next_node=NULL;
 2518              		.loc 1 1051 0
 2519 0006 0146     		mov	r1, r0
1060:src/param.c   ****   
1061:src/param.c   ****   // XML parsing
1062:src/param.c   ****   tree = mxmlLoadString(NULL, aPtr, MXML_TEXT_CALLBACK);
ARM GAS  C:\Users\AHMED~1.ELE\AppData\Local\Temp\ccpjtoUe.s 			page 65


 2520              		.loc 1 1062 0
 2521 0008 3246     		mov	r2, r6
 2522 000a 3046     		mov	r0, r6
 2523              	.LVL385:
1059:src/param.c   ****   
 2524              		.loc 1 1059 0
 2525 000c 1E70     		strb	r6, [r3]
 2526              		.loc 1 1062 0
 2527 000e FFF7FEFF 		bl	mxmlLoadString
 2528              	.LVL386:
1063:src/param.c   ****   if (tree != NULL) {
 2529              		.loc 1 1063 0
 2530 0012 0546     		mov	r5, r0
 2531 0014 0028     		cmp	r0, #0
 2532 0016 00F0CA80 		beq	.L322
 2533 001a 3746     		mov	r7, r6
 2534              	.LVL387:
 2535              	.L320:
1064:src/param.c   ****     while (1) {
1065:src/param.c   ****       if (start) {
1066:src/param.c   ****         node = tree;
1067:src/param.c   ****         node = mxmlFindElement(node, tree, "TerminalXML", NULL, NULL, MXML_DESCEND);
 2536              		.loc 1 1067 0
 2537 001c 0122     		movs	r2, #1
 2538 001e 0023     		movs	r3, #0
 2539 0020 0192     		str	r2, [sp, #4]
 2540 0022 0093     		str	r3, [sp]
 2541 0024 2846     		mov	r0, r5
 2542 0026 2946     		mov	r1, r5
 2543 0028 904A     		ldr	r2, .L330+4
 2544 002a FFF7FEFF 		bl	mxmlFindElement
 2545              	.LVL388:
 2546              	.L321:
 2547 002e 0446     		mov	r4, r0
 2548              	.LVL389:
 2549              	.L269:
1068:src/param.c   ****         start = 0;
1069:src/param.c   ****       }
1070:src/param.c   ****       if (node != NULL) {
 2550              		.loc 1 1070 0
 2551 0030 002C     		cmp	r4, #0
 2552 0032 00F0D980 		beq	.L270
 2553 0036 0023     		movs	r3, #0
1071:src/param.c   ****         switch (state) {
 2554              		.loc 1 1071 0
 2555 0038 072E     		cmp	r6, #7
 2556 003a 05D8     		bhi	.L293
 2557 003c DFE806F0 		tbb	[pc, r6]
 2558              	.L272:
 2559 0040 06       		.byte	(.L271-.L272)/2
 2560 0041 14       		.byte	(.L273-.L272)/2
 2561 0042 2D       		.byte	(.L274-.L272)/2
 2562 0043 44       		.byte	(.L275-.L272)/2
 2563 0044 5B       		.byte	(.L276-.L272)/2
 2564 0045 72       		.byte	(.L277-.L272)/2
 2565 0046 89       		.byte	(.L278-.L272)/2
 2566 0047 A0       		.byte	(.L279-.L272)/2
ARM GAS  C:\Users\AHMED~1.ELE\AppData\Local\Temp\ccpjtoUe.s 			page 66


 2567              		.p2align 1
 2568              	.L293:
1072:src/param.c   ****           case ST_TERM_CLEAR:
1073:src/param.c   ****             CloseSTISFiles();
1074:src/param.c   ****             CreateSTISFiles();
1075:src/param.c   ****             SetSTISMode(INIT_MODE);
1076:src/param.c   ****             fCommitAllMW();
1077:src/param.c   ****             state++;              // fall through
1078:src/param.c   ****           case ST_TERM_CFG:
1079:src/param.c   ****             // Search Term Cfg Table
1080:src/param.c   ****             node = mxmlFindElement(node, tree, "Terminal", NULL, NULL, MXML_DESCEND);
1081:src/param.c   ****             if (node != NULL) {
1082:src/param.c   ****               if (node->type == MXML_ELEMENT) {
1083:src/param.c   ****                 //SprintfMW(buf, "T->name: %s", node->value.element.name);
1084:src/param.c   ****                 next_node = node->next;
1085:src/param.c   ****               }
1086:src/param.c   ****               //DispLineMW(buf, MW_LINE1, MW_CLRDISP|MW_SPFONT);
1087:src/param.c   ****               //SprintfMW(buf, "T->type: %d", node->type);
1088:src/param.c   ****               //DispLineMW(buf, MW_LINE2, MW_SPFONT);
1089:src/param.c   **** #if 0
1090:src/param.c   ****               string = (BYTE *)mxmlGetText(node, NULL);
1091:src/param.c   ****               if (string != NULL) {
1092:src/param.c   ****                 SprintfMW(buf, "T->text[%d]: %s", strlen(string), string);
1093:src/param.c   ****               }
1094:src/param.c   ****               else {
1095:src/param.c   ****                 SprintfMW(buf, "T->text: XXX");
1096:src/param.c   ****               }
1097:src/param.c   ****               DispLineMW(buf, MW_LINE3, MW_SPFONT);
1098:src/param.c   ****               WaitKey(KBD_TIMEOUT);
1099:src/param.c   **** #endif
1100:src/param.c   ****               // parse sub-level of "option/choice" only
1101:src/param.c   ****               node = ParseTermCfg(tree, node, next_node);
1102:src/param.c   ****             }
1103:src/param.c   ****             else {
1104:src/param.c   ****               //node = tree = stree;        // search from start for next state
1105:src/param.c   ****               start = 1;
1106:src/param.c   ****               state++;
1107:src/param.c   ****             }
1108:src/param.c   ****             break;
1109:src/param.c   ****           case ST_TERM_ACQ:
1110:src/param.c   ****             // Search Acquirer Table
1111:src/param.c   ****             node = mxmlFindElement(node, tree, "Acquirer", NULL, NULL, MXML_DESCEND);
1112:src/param.c   ****             if (node != NULL) {
1113:src/param.c   ****               if (node->type == MXML_ELEMENT) {
1114:src/param.c   ****                 //SprintfMW(buf, "T->name: %s", node->value.element.name);
1115:src/param.c   ****                 next_node = node->next;
1116:src/param.c   ****               }
1117:src/param.c   ****               //DispLineMW(buf, MW_LINE1, MW_CLRDISP|MW_SPFONT);
1118:src/param.c   ****               //SprintfMW(buf, "T->type: %d", node->type);
1119:src/param.c   ****               //DispLineMW(buf, MW_LINE2, MW_SPFONT);
1120:src/param.c   **** #if 0
1121:src/param.c   ****               string = (BYTE *)mxmlGetText(node, NULL);
1122:src/param.c   ****               if (string != NULL) {
1123:src/param.c   ****                 SprintfMW(buf, "A->text[%d]: %s", strlen(string), string);
1124:src/param.c   ****               }
1125:src/param.c   ****               else {
1126:src/param.c   ****                 SprintfMW(buf, "A->text: XXX");
ARM GAS  C:\Users\AHMED~1.ELE\AppData\Local\Temp\ccpjtoUe.s 			page 67


1127:src/param.c   ****               }
1128:src/param.c   ****               DispLineMW(buf, MW_LINE3, MW_SPFONT);
1129:src/param.c   ****               WaitKey(KBD_TIMEOUT);
1130:src/param.c   **** #endif
1131:src/param.c   ****               // parse sub-level of "option/choice" only
1132:src/param.c   ****               node = ParseAcquirer(tree, node, next_node);
1133:src/param.c   ****             }
1134:src/param.c   ****             else {
1135:src/param.c   ****               //node = tree = stree;        // search from start for next state
1136:src/param.c   ****               start = 1;
1137:src/param.c   ****               state++;
1138:src/param.c   ****             }
1139:src/param.c   ****             break;
1140:src/param.c   ****           case ST_TERM_ISSUER:
1141:src/param.c   ****             // Search Issuer Table
1142:src/param.c   ****             node = mxmlFindElement(node, tree, "Issuer", NULL, NULL, MXML_DESCEND);
1143:src/param.c   ****             if (node != NULL) {
1144:src/param.c   ****               if (node->type == MXML_ELEMENT) {
1145:src/param.c   ****                 //SprintfMW(buf, "I->name: %s", node->value.element.name);
1146:src/param.c   ****                 //DispLineMW(buf, MW_LINE1, MW_CLRDISP|MW_SPFONT);
1147:src/param.c   ****                 next_node = node->next;
1148:src/param.c   ****               }
1149:src/param.c   **** #if 0
1150:src/param.c   ****               string = (BYTE *)mxmlGetText(node, NULL);
1151:src/param.c   ****               if (string != NULL) {
1152:src/param.c   ****                 //SprintfMW(buf, "I->text[%d]: %s", strlen(string), string);
1153:src/param.c   ****                 SprintfMW(buf, "I->text[%d]: %s|%02x%02x", strlen(string), string, string[0],string
1154:src/param.c   ****               }
1155:src/param.c   ****               else {
1156:src/param.c   ****                 SprintfMW(buf, "I->text: XXX");
1157:src/param.c   ****               }
1158:src/param.c   ****               DispLineMW(buf, MW_LINE2, MW_SPFONT);
1159:src/param.c   ****               WaitKey(KBD_TIMEOUT);
1160:src/param.c   **** #endif
1161:src/param.c   ****               // parse sub-level of "option/choice" only
1162:src/param.c   ****               node = ParseIssuer(tree, node, next_node);
1163:src/param.c   ****             }
1164:src/param.c   ****             else {
1165:src/param.c   ****               //DispLineMW("No \"IssuerTable\" Found", MW_LINE5, MW_CLRDISP|MW_CENTER|MW_SPFONT);
1166:src/param.c   ****               //WaitKey(KBD_TIMEOUT);
1167:src/param.c   ****               //node = tree = stree;        // search from start for next state
1168:src/param.c   ****               start = 1;
1169:src/param.c   ****               state++;
1170:src/param.c   ****             }
1171:src/param.c   ****             break;
1172:src/param.c   ****           case ST_TERM_CARD:
1173:src/param.c   ****             // Search Card Table
1174:src/param.c   ****             node = mxmlFindElement(node, tree, "CardRange", NULL, NULL, MXML_DESCEND);
1175:src/param.c   ****             if (node != NULL) {
1176:src/param.c   ****               if (node->type == MXML_ELEMENT) {
1177:src/param.c   ****                 //SprintfMW(buf, "T->name: %s", node->value.element.name);
1178:src/param.c   ****                 next_node = node->next;
1179:src/param.c   ****               }
1180:src/param.c   ****               //DispLineMW(buf, MW_LINE1, MW_CLRDISP|MW_SPFONT);
1181:src/param.c   ****               //SprintfMW(buf, "T->type: %d", node->type);
1182:src/param.c   ****               //DispLineMW(buf, MW_LINE2, MW_SPFONT);
1183:src/param.c   **** #if 0
ARM GAS  C:\Users\AHMED~1.ELE\AppData\Local\Temp\ccpjtoUe.s 			page 68


1184:src/param.c   ****               string = (BYTE *)mxmlGetText(node, NULL);
1185:src/param.c   ****               if (string != NULL) {
1186:src/param.c   ****                 SprintfMW(buf, "C->text[%d]: %s", strlen(string), string);
1187:src/param.c   ****               }
1188:src/param.c   ****               else {
1189:src/param.c   ****                 SprintfMW(buf, "C->text: XXX");
1190:src/param.c   ****               }
1191:src/param.c   ****               DispLineMW(buf, MW_LINE2, MW_SPFONT);
1192:src/param.c   ****               WaitKey(KBD_TIMEOUT);
1193:src/param.c   **** #endif
1194:src/param.c   ****               // parse sub-level of "option/choice" only
1195:src/param.c   ****               node = ParseCard(tree, node, next_node);
1196:src/param.c   ****             }
1197:src/param.c   ****             else {
1198:src/param.c   ****               //node = tree = stree;        // search from start for next state
1199:src/param.c   ****               start = 1;
1200:src/param.c   ****               state++;
1201:src/param.c   ****             }
1202:src/param.c   ****             break;
1203:src/param.c   ****           case ST_EMV_APP:
1204:src/param.c   ****             // Search EMVL2 App
1205:src/param.c   ****             node = mxmlFindElement(node, tree, "EMVLevel2App", NULL, NULL, MXML_DESCEND);
1206:src/param.c   ****             if (node != NULL) {
1207:src/param.c   ****               if (node->type == MXML_ELEMENT) {
1208:src/param.c   ****                 //SprintfMW(buf, "T->name: %s", node->value.element.name);
1209:src/param.c   ****                 next_node = node->next;
1210:src/param.c   ****               }
1211:src/param.c   ****               //DispLineMW(buf, MW_LINE1, MW_CLRDISP|MW_SPFONT);
1212:src/param.c   ****               //SprintfMW(buf, "T->type: %d", node->type);
1213:src/param.c   ****               //DispLineMW(buf, MW_LINE2, MW_SPFONT);
1214:src/param.c   **** #if 0
1215:src/param.c   ****               string = (BYTE *)mxmlGetText(node, NULL);
1216:src/param.c   ****               if (string != NULL) {
1217:src/param.c   ****                 SprintfMW(buf, "C->text[%d]: %s", strlen(string), string);
1218:src/param.c   ****               }
1219:src/param.c   ****               else {
1220:src/param.c   ****                 SprintfMW(buf, "C->text: XXX");
1221:src/param.c   ****               }
1222:src/param.c   ****               DispLineMW(buf, MW_LINE2, MW_SPFONT);
1223:src/param.c   ****               WaitKey(KBD_TIMEOUT);
1224:src/param.c   **** #endif
1225:src/param.c   ****               // parse sub-level of "option/choice" only
1226:src/param.c   ****               node = ParseEmvApp(tree, node, next_node);
1227:src/param.c   ****             }
1228:src/param.c   ****             else {
1229:src/param.c   ****               //node = tree = stree;        // search from start for next state
1230:src/param.c   ****               start = 1;
1231:src/param.c   ****               state++;
1232:src/param.c   ****             }
1233:src/param.c   ****             break;
1234:src/param.c   ****           case ST_CTL_APP:
1235:src/param.c   ****             // Search EMVCTL App
1236:src/param.c   ****             node = mxmlFindElement(node, tree, "EMVCtlApp", NULL, NULL, MXML_DESCEND);
1237:src/param.c   ****             if (node != NULL) {
1238:src/param.c   ****               if (node->type == MXML_ELEMENT) {
1239:src/param.c   ****                 //SprintfMW(buf, "T->name: %s", node->value.element.name);
1240:src/param.c   ****                 next_node = node->next;
ARM GAS  C:\Users\AHMED~1.ELE\AppData\Local\Temp\ccpjtoUe.s 			page 69


1241:src/param.c   ****               }
1242:src/param.c   ****               //DispLineMW(buf, MW_LINE1, MW_CLRDISP|MW_SPFONT);
1243:src/param.c   ****               //SprintfMW(buf, "T->type: %d", node->type);
1244:src/param.c   ****               //DispLineMW(buf, MW_LINE2, MW_SPFONT);
1245:src/param.c   **** #if 0
1246:src/param.c   ****               string = (BYTE *)mxmlGetText(node, NULL);
1247:src/param.c   ****               if (string != NULL) {
1248:src/param.c   ****                 SprintfMW(buf, "C->text[%d]: %s", strlen(string), string);
1249:src/param.c   ****               }
1250:src/param.c   ****               else {
1251:src/param.c   ****                 SprintfMW(buf, "C->text: XXX");
1252:src/param.c   ****               }
1253:src/param.c   ****               DispLineMW(buf, MW_LINE2, MW_SPFONT);
1254:src/param.c   ****               WaitKey(KBD_TIMEOUT);
1255:src/param.c   **** #endif
1256:src/param.c   ****               // parse sub-level of "option/choice" only
1257:src/param.c   ****               node = ParseCtlApp(tree, node, next_node);
1258:src/param.c   ****             }
1259:src/param.c   ****             else {
1260:src/param.c   ****               //node = tree = stree;        // search from start for next state
1261:src/param.c   ****               start = 1;
1262:src/param.c   ****               state++;
1263:src/param.c   ****             }
1264:src/param.c   ****             break;
1265:src/param.c   ****           case ST_EMV_KEY:
1266:src/param.c   ****             // Search EMVL2 Key
1267:src/param.c   ****             node = mxmlFindElement(node, tree, "EMVLevel2Key", NULL, NULL, MXML_DESCEND);
1268:src/param.c   ****             if (node != NULL) {
1269:src/param.c   ****               if (node->type == MXML_ELEMENT) {
1270:src/param.c   ****                 //SprintfMW(buf, "T->name: %s", node->value.element.name);
1271:src/param.c   ****                 next_node = node->next;
1272:src/param.c   ****               }
1273:src/param.c   ****               //DispLineMW(buf, MW_LINE1, MW_CLRDISP|MW_SPFONT);
1274:src/param.c   ****               //SprintfMW(buf, "T->type: %d", node->type);
1275:src/param.c   ****               //DispLineMW(buf, MW_LINE2, MW_SPFONT);
1276:src/param.c   **** #if 0
1277:src/param.c   ****               string = (BYTE *)mxmlGetText(node, NULL);
1278:src/param.c   ****               if (string != NULL) {
1279:src/param.c   ****                 SprintfMW(buf, "C->text[%d]: %s", strlen(string), string);
1280:src/param.c   ****               }
1281:src/param.c   ****               else {
1282:src/param.c   ****                 SprintfMW(buf, "C->text: XXX");
1283:src/param.c   ****               }
1284:src/param.c   ****               DispLineMW(buf, MW_LINE2, MW_SPFONT);
1285:src/param.c   ****               WaitKey(KBD_TIMEOUT);
1286:src/param.c   **** #endif
1287:src/param.c   ****               // parse sub-level of "option/choice" only
1288:src/param.c   ****               node = ParseEmvKey(tree, node, next_node);
1289:src/param.c   ****             }
1290:src/param.c   ****             else {
1291:src/param.c   ****               //node = tree = stree;        // search from start for next state
1292:src/param.c   ****               start = 1;
1293:src/param.c   ****               state++;
1294:src/param.c   ****             }
1295:src/param.c   ****             break;
1296:src/param.c   ****           case ST_END:
1297:src/param.c   ****           default:
ARM GAS  C:\Users\AHMED~1.ELE\AppData\Local\Temp\ccpjtoUe.s 			page 70


1298:src/param.c   ****             node = NULL;
 2569              		.loc 1 1298 0
 2570 0048 0024     		movs	r4, #0
 2571              	.LVL390:
 2572 004a F1E7     		b	.L269
 2573              	.LVL391:
 2574              	.L271:
1073:src/param.c   ****             CreateSTISFiles();
 2575              		.loc 1 1073 0
 2576 004c FFF7FEFF 		bl	CloseSTISFiles
 2577              	.LVL392:
1074:src/param.c   ****             SetSTISMode(INIT_MODE);
 2578              		.loc 1 1074 0
 2579 0050 FFF7FEFF 		bl	CreateSTISFiles
 2580              	.LVL393:
1075:src/param.c   ****             fCommitAllMW();
 2581              		.loc 1 1075 0
 2582 0054 0120     		movs	r0, #1
 2583 0056 FFF7FEFF 		bl	SetSTISMode
 2584              	.LVL394:
1076:src/param.c   ****             state++;              // fall through
 2585              		.loc 1 1076 0
 2586 005a 0022     		movs	r2, #0
 2587 005c 0F20     		movs	r0, #15
 2588 005e 0092     		str	r2, [sp]
 2589 0060 1321     		movs	r1, #19
 2590 0062 1346     		mov	r3, r2
 2591 0064 FFF7FEFF 		bl	lib_app_call
 2592              	.LVL395:
 2593              	.L273:
1080:src/param.c   ****             if (node != NULL) {
 2594              		.loc 1 1080 0
 2595 0068 0023     		movs	r3, #0
 2596 006a 0122     		movs	r2, #1
 2597 006c 2046     		mov	r0, r4
 2598 006e 0192     		str	r2, [sp, #4]
 2599 0070 0093     		str	r3, [sp]
 2600 0072 2946     		mov	r1, r5
 2601 0074 7E4A     		ldr	r2, .L330+8
 2602 0076 FFF7FEFF 		bl	mxmlFindElement
 2603              	.LVL396:
1081:src/param.c   ****               if (node->type == MXML_ELEMENT) {
 2604              		.loc 1 1081 0
 2605 007a 0446     		mov	r4, r0
 2606 007c 08B9     		cbnz	r0, .L323
1106:src/param.c   ****             }
 2607              		.loc 1 1106 0
 2608 007e 0226     		movs	r6, #2
 2609 0080 CCE7     		b	.L320
 2610              	.L323:
1082:src/param.c   ****                 //SprintfMW(buf, "T->name: %s", node->value.element.name);
 2611              		.loc 1 1082 0
 2612 0082 90F90030 		ldrsb	r3, [r0]
 2613 0086 03B9     		cbnz	r3, .L280
1084:src/param.c   ****               }
 2614              		.loc 1 1084 0
 2615 0088 4768     		ldr	r7, [r0, #4]
ARM GAS  C:\Users\AHMED~1.ELE\AppData\Local\Temp\ccpjtoUe.s 			page 71


 2616              	.LVL397:
 2617              	.L280:
1101:src/param.c   ****             }
 2618              		.loc 1 1101 0
 2619 008a 2146     		mov	r1, r4
 2620 008c 2846     		mov	r0, r5
 2621              	.LVL398:
 2622 008e 3A46     		mov	r2, r7
 2623 0090 FFF7FEFF 		bl	ParseTermCfg
 2624              	.LVL399:
 2625 0094 0126     		movs	r6, #1
 2626 0096 0446     		mov	r4, r0
 2627              	.LVL400:
 2628 0098 CAE7     		b	.L269
 2629              	.LVL401:
 2630              	.L274:
1111:src/param.c   ****             if (node != NULL) {
 2631              		.loc 1 1111 0
 2632 009a 0093     		str	r3, [sp]
 2633 009c 0123     		movs	r3, #1
 2634 009e 2046     		mov	r0, r4
 2635 00a0 0193     		str	r3, [sp, #4]
 2636 00a2 2946     		mov	r1, r5
 2637 00a4 734A     		ldr	r2, .L330+12
 2638 00a6 0023     		movs	r3, #0
 2639 00a8 FFF7FEFF 		bl	mxmlFindElement
 2640              	.LVL402:
1112:src/param.c   ****               if (node->type == MXML_ELEMENT) {
 2641              		.loc 1 1112 0
 2642 00ac 0446     		mov	r4, r0
 2643 00ae 08B9     		cbnz	r0, .L324
1137:src/param.c   ****             }
 2644              		.loc 1 1137 0
 2645 00b0 0326     		movs	r6, #3
 2646 00b2 B3E7     		b	.L320
 2647              	.L324:
1113:src/param.c   ****                 //SprintfMW(buf, "T->name: %s", node->value.element.name);
 2648              		.loc 1 1113 0
 2649 00b4 90F90030 		ldrsb	r3, [r0]
 2650 00b8 03B9     		cbnz	r3, .L281
1115:src/param.c   ****               }
 2651              		.loc 1 1115 0
 2652 00ba 4768     		ldr	r7, [r0, #4]
 2653              	.LVL403:
 2654              	.L281:
1132:src/param.c   ****             }
 2655              		.loc 1 1132 0
 2656 00bc 2846     		mov	r0, r5
 2657              	.LVL404:
 2658 00be 2146     		mov	r1, r4
 2659 00c0 3A46     		mov	r2, r7
 2660 00c2 FFF7FEFF 		bl	ParseAcquirer
 2661              	.LVL405:
 2662 00c6 B2E7     		b	.L321
 2663              	.L275:
1142:src/param.c   ****             if (node != NULL) {
 2664              		.loc 1 1142 0
ARM GAS  C:\Users\AHMED~1.ELE\AppData\Local\Temp\ccpjtoUe.s 			page 72


 2665 00c8 0093     		str	r3, [sp]
 2666 00ca 0123     		movs	r3, #1
 2667 00cc 2046     		mov	r0, r4
 2668 00ce 0193     		str	r3, [sp, #4]
 2669 00d0 2946     		mov	r1, r5
 2670 00d2 694A     		ldr	r2, .L330+16
 2671 00d4 0023     		movs	r3, #0
 2672 00d6 FFF7FEFF 		bl	mxmlFindElement
 2673              	.LVL406:
1143:src/param.c   ****               if (node->type == MXML_ELEMENT) {
 2674              		.loc 1 1143 0
 2675 00da 0446     		mov	r4, r0
 2676 00dc 08B9     		cbnz	r0, .L325
1169:src/param.c   ****             }
 2677              		.loc 1 1169 0
 2678 00de 0426     		movs	r6, #4
 2679 00e0 9CE7     		b	.L320
 2680              	.L325:
1144:src/param.c   ****                 //SprintfMW(buf, "I->name: %s", node->value.element.name);
 2681              		.loc 1 1144 0
 2682 00e2 90F90030 		ldrsb	r3, [r0]
 2683 00e6 03B9     		cbnz	r3, .L282
1147:src/param.c   ****               }
 2684              		.loc 1 1147 0
 2685 00e8 4768     		ldr	r7, [r0, #4]
 2686              	.LVL407:
 2687              	.L282:
1162:src/param.c   ****             }
 2688              		.loc 1 1162 0
 2689 00ea 2846     		mov	r0, r5
 2690              	.LVL408:
 2691 00ec 2146     		mov	r1, r4
 2692 00ee 3A46     		mov	r2, r7
 2693 00f0 FFF7FEFF 		bl	ParseIssuer
 2694              	.LVL409:
 2695 00f4 9BE7     		b	.L321
 2696              	.L276:
1174:src/param.c   ****             if (node != NULL) {
 2697              		.loc 1 1174 0
 2698 00f6 0093     		str	r3, [sp]
 2699 00f8 0123     		movs	r3, #1
 2700 00fa 2046     		mov	r0, r4
 2701 00fc 0193     		str	r3, [sp, #4]
 2702 00fe 2946     		mov	r1, r5
 2703 0100 5E4A     		ldr	r2, .L330+20
 2704 0102 0023     		movs	r3, #0
 2705 0104 FFF7FEFF 		bl	mxmlFindElement
 2706              	.LVL410:
1175:src/param.c   ****               if (node->type == MXML_ELEMENT) {
 2707              		.loc 1 1175 0
 2708 0108 0446     		mov	r4, r0
 2709 010a 08B9     		cbnz	r0, .L326
1200:src/param.c   ****             }
 2710              		.loc 1 1200 0
 2711 010c 0526     		movs	r6, #5
 2712 010e 85E7     		b	.L320
 2713              	.L326:
ARM GAS  C:\Users\AHMED~1.ELE\AppData\Local\Temp\ccpjtoUe.s 			page 73


1176:src/param.c   ****                 //SprintfMW(buf, "T->name: %s", node->value.element.name);
 2714              		.loc 1 1176 0
 2715 0110 90F90030 		ldrsb	r3, [r0]
 2716 0114 03B9     		cbnz	r3, .L283
1178:src/param.c   ****               }
 2717              		.loc 1 1178 0
 2718 0116 4768     		ldr	r7, [r0, #4]
 2719              	.LVL411:
 2720              	.L283:
1195:src/param.c   ****             }
 2721              		.loc 1 1195 0
 2722 0118 2846     		mov	r0, r5
 2723              	.LVL412:
 2724 011a 2146     		mov	r1, r4
 2725 011c 3A46     		mov	r2, r7
 2726 011e FFF7FEFF 		bl	ParseCard
 2727              	.LVL413:
 2728 0122 84E7     		b	.L321
 2729              	.L277:
1205:src/param.c   ****             if (node != NULL) {
 2730              		.loc 1 1205 0
 2731 0124 0093     		str	r3, [sp]
 2732 0126 0123     		movs	r3, #1
 2733 0128 2046     		mov	r0, r4
 2734 012a 0193     		str	r3, [sp, #4]
 2735 012c 2946     		mov	r1, r5
 2736 012e 544A     		ldr	r2, .L330+24
 2737 0130 0023     		movs	r3, #0
 2738 0132 FFF7FEFF 		bl	mxmlFindElement
 2739              	.LVL414:
1206:src/param.c   ****               if (node->type == MXML_ELEMENT) {
 2740              		.loc 1 1206 0
 2741 0136 0446     		mov	r4, r0
 2742 0138 08B9     		cbnz	r0, .L327
1231:src/param.c   ****             }
 2743              		.loc 1 1231 0
 2744 013a 0626     		movs	r6, #6
 2745 013c 6EE7     		b	.L320
 2746              	.L327:
1207:src/param.c   ****                 //SprintfMW(buf, "T->name: %s", node->value.element.name);
 2747              		.loc 1 1207 0
 2748 013e 90F90030 		ldrsb	r3, [r0]
 2749 0142 03B9     		cbnz	r3, .L284
1209:src/param.c   ****               }
 2750              		.loc 1 1209 0
 2751 0144 4768     		ldr	r7, [r0, #4]
 2752              	.LVL415:
 2753              	.L284:
1226:src/param.c   ****             }
 2754              		.loc 1 1226 0
 2755 0146 2846     		mov	r0, r5
 2756              	.LVL416:
 2757 0148 2146     		mov	r1, r4
 2758 014a 3A46     		mov	r2, r7
 2759 014c FFF7FEFF 		bl	ParseEmvApp
 2760              	.LVL417:
 2761 0150 6DE7     		b	.L321
ARM GAS  C:\Users\AHMED~1.ELE\AppData\Local\Temp\ccpjtoUe.s 			page 74


 2762              	.L278:
1236:src/param.c   ****             if (node != NULL) {
 2763              		.loc 1 1236 0
 2764 0152 0093     		str	r3, [sp]
 2765 0154 0123     		movs	r3, #1
 2766 0156 2046     		mov	r0, r4
 2767 0158 0193     		str	r3, [sp, #4]
 2768 015a 2946     		mov	r1, r5
 2769 015c 494A     		ldr	r2, .L330+28
 2770 015e 0023     		movs	r3, #0
 2771 0160 FFF7FEFF 		bl	mxmlFindElement
 2772              	.LVL418:
1237:src/param.c   ****               if (node->type == MXML_ELEMENT) {
 2773              		.loc 1 1237 0
 2774 0164 0446     		mov	r4, r0
 2775 0166 08B9     		cbnz	r0, .L328
1262:src/param.c   ****             }
 2776              		.loc 1 1262 0
 2777 0168 0726     		movs	r6, #7
 2778 016a 57E7     		b	.L320
 2779              	.L328:
1238:src/param.c   ****                 //SprintfMW(buf, "T->name: %s", node->value.element.name);
 2780              		.loc 1 1238 0
 2781 016c 90F90030 		ldrsb	r3, [r0]
 2782 0170 03B9     		cbnz	r3, .L285
1240:src/param.c   ****               }
 2783              		.loc 1 1240 0
 2784 0172 4768     		ldr	r7, [r0, #4]
 2785              	.LVL419:
 2786              	.L285:
1257:src/param.c   ****             }
 2787              		.loc 1 1257 0
 2788 0174 2846     		mov	r0, r5
 2789              	.LVL420:
 2790 0176 2146     		mov	r1, r4
 2791 0178 3A46     		mov	r2, r7
 2792 017a FFF7FEFF 		bl	ParseCtlApp
 2793              	.LVL421:
 2794 017e 56E7     		b	.L321
 2795              	.L279:
1267:src/param.c   ****             if (node != NULL) {
 2796              		.loc 1 1267 0
 2797 0180 0093     		str	r3, [sp]
 2798 0182 0123     		movs	r3, #1
 2799 0184 2046     		mov	r0, r4
 2800 0186 0193     		str	r3, [sp, #4]
 2801 0188 2946     		mov	r1, r5
 2802 018a 3F4A     		ldr	r2, .L330+32
 2803 018c 0023     		movs	r3, #0
 2804 018e FFF7FEFF 		bl	mxmlFindElement
 2805              	.LVL422:
1268:src/param.c   ****               if (node->type == MXML_ELEMENT) {
 2806              		.loc 1 1268 0
 2807 0192 0446     		mov	r4, r0
 2808 0194 08B9     		cbnz	r0, .L329
1293:src/param.c   ****             }
 2809              		.loc 1 1293 0
ARM GAS  C:\Users\AHMED~1.ELE\AppData\Local\Temp\ccpjtoUe.s 			page 75


 2810 0196 0826     		movs	r6, #8
 2811 0198 40E7     		b	.L320
 2812              	.L329:
1269:src/param.c   ****                 //SprintfMW(buf, "T->name: %s", node->value.element.name);
 2813              		.loc 1 1269 0
 2814 019a 90F90030 		ldrsb	r3, [r0]
 2815 019e 03B9     		cbnz	r3, .L286
1271:src/param.c   ****               }
 2816              		.loc 1 1271 0
 2817 01a0 4768     		ldr	r7, [r0, #4]
 2818              	.LVL423:
 2819              	.L286:
1288:src/param.c   ****             }
 2820              		.loc 1 1288 0
 2821 01a2 2846     		mov	r0, r5
 2822              	.LVL424:
 2823 01a4 2146     		mov	r1, r4
 2824 01a6 3A46     		mov	r2, r7
 2825 01a8 FFF7FEFF 		bl	ParseEmvKey
 2826              	.LVL425:
 2827 01ac 3FE7     		b	.L321
 2828              	.LVL426:
 2829              	.L322:
 2830              	.LBB23:
1299:src/param.c   ****             break;
1300:src/param.c   ****         }
1301:src/param.c   ****       }
1302:src/param.c   ****       else {
1303:src/param.c   **** #if 0
1304:src/param.c   ****         DispLineMW("No \"TermTable\" Found", MW_LINE5, MW_CLRDISP|MW_CENTER|MW_SPFONT);
1305:src/param.c   ****         WaitKey(KBD_TIMEOUT);
1306:src/param.c   **** #endif
1307:src/param.c   ****         break;
1308:src/param.c   ****       }
1309:src/param.c   ****     }
1310:src/param.c   ****   }
1311:src/param.c   ****   else {
1312:src/param.c   ****     DispLineMW("Load String Fail!", MW_LINE5, MW_CLRDISP|MW_CENTER|MW_SPFONT);
 2831              		.loc 1 1312 0
 2832 01ae 9220     		movs	r0, #146
 2833              	.LVL427:
 2834 01b0 1221     		movs	r1, #18
 2835 01b2 FFF7FEFF 		bl	sys_func1
 2836              	.LVL428:
 2837 01b6 0446     		mov	r4, r0
 2838 01b8 90B1     		cbz	r0, .L287
 2839              		.loc 1 1312 0 is_stmt 0 discriminator 1
 2840 01ba 3449     		ldr	r1, .L330+36
 2841 01bc 1122     		movs	r2, #17
 2842 01be FFF7FEFF 		bl	memcpy
 2843              	.LVL429:
 2844 01c2 42F28203 		movw	r3, #8322
 2845 01c6 6574     		strb	r5, [r4, #17]
 2846 01c8 2521     		movs	r1, #37
 2847 01ca 0093     		str	r3, [sp]
 2848 01cc 0F20     		movs	r0, #15
 2849 01ce 2246     		mov	r2, r4
ARM GAS  C:\Users\AHMED~1.ELE\AppData\Local\Temp\ccpjtoUe.s 			page 76


 2850 01d0 4FF4A063 		mov	r3, #1280
 2851 01d4 FFF7FEFF 		bl	lib_app_call
 2852              	.LVL430:
 2853 01d8 9420     		movs	r0, #148
 2854 01da 2146     		mov	r1, r4
 2855 01dc FFF7FEFF 		bl	sys_func1
 2856              	.LVL431:
 2857              	.L287:
 2858              	.LBE23:
1313:src/param.c   ****     WaitKey(KBD_TIMEOUT);
 2859              		.loc 1 1313 0 is_stmt 1
 2860 01e0 42F22830 		movw	r0, #9000
 2861 01e4 FFF7FEFF 		bl	WaitKey
 2862              	.LVL432:
 2863              	.L270:
1314:src/param.c   ****   }
1315:src/param.c   ****   mxmlDelete(node);
 2864              		.loc 1 1315 0
 2865 01e8 0020     		movs	r0, #0
 2866 01ea FFF7FEFF 		bl	mxmlDelete
 2867              	.LVL433:
1316:src/param.c   ****   mxmlDelete(tree);
 2868              		.loc 1 1316 0
 2869 01ee 2846     		mov	r0, r5
 2870 01f0 FFF7FEFF 		bl	mxmlDelete
 2871              	.LVL434:
1317:src/param.c   ****   if (GetAcqCount() && GetIssuerCount() && GetCardCount()) {
 2872              		.loc 1 1317 0
 2873 01f4 FFF7FEFF 		bl	GetAcqCount
 2874              	.LVL435:
 2875 01f8 08B9     		cbnz	r0, .L288
 2876              	.L290:
1057:src/param.c   **** 
 2877              		.loc 1 1057 0
 2878 01fa 0020     		movs	r0, #0
 2879 01fc 32E0     		b	.L289
 2880              	.L288:
 2881              		.loc 1 1317 0 discriminator 1
 2882 01fe FFF7FEFF 		bl	GetIssuerCount
 2883              	.LVL436:
 2884 0202 0028     		cmp	r0, #0
 2885 0204 F9D0     		beq	.L290
 2886              		.loc 1 1317 0 is_stmt 0 discriminator 2
 2887 0206 FFF7FEFF 		bl	GetCardCount
 2888              	.LVL437:
 2889 020a 0028     		cmp	r0, #0
 2890 020c F5D0     		beq	.L290
1318:src/param.c   ****     SetAPNConfig();
1319:src/param.c   ****     SetSTISMode(TRANS_MODE);
1320:src/param.c   ****     DispClrBelowMW(MW_LINE3);
 2891              		.loc 1 1320 0 is_stmt 1
 2892 020e 0025     		movs	r5, #0
 2893              	.LVL438:
1318:src/param.c   ****     SetAPNConfig();
 2894              		.loc 1 1318 0
 2895 0210 FFF7FEFF 		bl	SetAPNConfig
 2896              	.LVL439:
ARM GAS  C:\Users\AHMED~1.ELE\AppData\Local\Temp\ccpjtoUe.s 			page 77


1319:src/param.c   ****     DispClrBelowMW(MW_LINE3);
 2897              		.loc 1 1319 0
 2898 0214 0220     		movs	r0, #2
 2899 0216 FFF7FEFF 		bl	SetSTISMode
 2900              	.LVL440:
 2901              		.loc 1 1320 0
 2902 021a 2321     		movs	r1, #35
 2903 021c 4FF44072 		mov	r2, #768
 2904 0220 2B46     		mov	r3, r5
 2905 0222 0095     		str	r5, [sp]
 2906 0224 0F20     		movs	r0, #15
 2907 0226 FFF7FEFF 		bl	lib_app_call
 2908              	.LVL441:
 2909              	.LBB24:
1321:src/param.c   ****     DispLineMW("PARAM UPDATED", MW_LINE5, MW_CENTER|MW_SMFONT);
 2910              		.loc 1 1321 0
 2911 022a 9220     		movs	r0, #146
 2912 022c 0E21     		movs	r1, #14
 2913 022e FFF7FEFF 		bl	sys_func1
 2914              	.LVL442:
 2915 0232 0446     		mov	r4, r0
 2916 0234 88B1     		cbz	r0, .L291
 2917              		.loc 1 1321 0 is_stmt 0 discriminator 1
 2918 0236 1649     		ldr	r1, .L330+40
 2919 0238 0D22     		movs	r2, #13
 2920 023a FFF7FEFF 		bl	memcpy
 2921              	.LVL443:
 2922 023e 0223     		movs	r3, #2
 2923 0240 6573     		strb	r5, [r4, #13]
 2924 0242 2521     		movs	r1, #37
 2925 0244 0093     		str	r3, [sp]
 2926 0246 0F20     		movs	r0, #15
 2927 0248 2246     		mov	r2, r4
 2928 024a 4FF4A063 		mov	r3, #1280
 2929 024e FFF7FEFF 		bl	lib_app_call
 2930              	.LVL444:
 2931 0252 9420     		movs	r0, #148
 2932 0254 2146     		mov	r1, r4
 2933 0256 FFF7FEFF 		bl	sys_func1
 2934              	.LVL445:
 2935              	.L291:
 2936              	.LBE24:
1322:src/param.c   ****     WaitKey(300);
 2937              		.loc 1 1322 0 is_stmt 1
 2938 025a 4FF49670 		mov	r0, #300
 2939 025e FFF7FEFF 		bl	WaitKey
 2940              	.LVL446:
1323:src/param.c   ****     ret = TRUE;
 2941              		.loc 1 1323 0
 2942 0262 0120     		movs	r0, #1
 2943              	.LVL447:
 2944              	.L289:
1324:src/param.c   ****   }
1325:src/param.c   ****     
1326:src/param.c   ****   return ret;
1327:src/param.c   **** }
 2945              		.loc 1 1327 0
ARM GAS  C:\Users\AHMED~1.ELE\AppData\Local\Temp\ccpjtoUe.s 			page 78


 2946 0264 03B0     		add	sp, sp, #12
 2947              		.cfi_def_cfa_offset 20
 2948              		@ sp needed
 2949 0266 F0BD     		pop	{r4, r5, r6, r7, pc}
 2950              	.L331:
 2951              		.align	2
 2952              	.L330:
 2953 0268 00000000 		.word	.LANCHOR1
 2954 026c 82010000 		.word	.LC36
 2955 0270 8E010000 		.word	.LC37
 2956 0274 97010000 		.word	.LC38
 2957 0278 A0010000 		.word	.LC39
 2958 027c A7010000 		.word	.LC40
 2959 0280 B1010000 		.word	.LC41
 2960 0284 BE010000 		.word	.LC42
 2961 0288 C8010000 		.word	.LC43
 2962 028c D5010000 		.word	.LC44
 2963 0290 E7010000 		.word	.LC45
 2964              		.cfi_endproc
 2965              	.LFE13:
 2966              		.size	XmlStringToCfg, .-XmlStringToCfg
 2967              		.section	.text.STISLoadParam,"ax",%progbits
 2968              		.align	1
 2969              		.global	STISLoadParam
 2970              		.thumb
 2971              		.thumb_func
 2972              		.type	STISLoadParam, %function
 2973              	STISLoadParam:
 2974              	.LFB14:
1328:src/param.c   **** //*****************************************************************************
1329:src/param.c   **** //  Function        : STISLoadParam
1330:src/param.c   **** //  Description     : Load XML file and save params.
1331:src/param.c   **** //  Input           : N/A
1332:src/param.c   **** //  Return          : N/A
1333:src/param.c   **** //  Note            : N/A
1334:src/param.c   **** //  Globals Changed : N/A
1335:src/param.c   **** //*****************************************************************************
1336:src/param.c   **** BOOLEAN STISLoadParam(void)
1337:src/param.c   **** {
 2975              		.loc 1 1337 0
 2976              		.cfi_startproc
 2977              		@ args = 0, pretend = 0, frame = 96
 2978              		@ frame_needed = 0, uses_anonymous_args = 0
 2979 0000 2DE9F041 		push	{r4, r5, r6, r7, r8, lr}
 2980              		.cfi_def_cfa_offset 24
 2981              		.cfi_offset 4, -24
 2982              		.cfi_offset 5, -20
 2983              		.cfi_offset 6, -16
 2984              		.cfi_offset 7, -12
 2985              		.cfi_offset 8, -8
 2986              		.cfi_offset 14, -4
 2987 0004 9AB0     		sub	sp, sp, #104
 2988              		.cfi_def_cfa_offset 128
1338:src/param.c   ****   T_FILE file_info, *pInfo;
1339:src/param.c   ****   int    fd, fsize, rlen;
1340:src/param.c   ****   BYTE   fname[32], *ptr;
1341:src/param.c   ****   DWORD  ctrl;
ARM GAS  C:\Users\AHMED~1.ELE\AppData\Local\Temp\ccpjtoUe.s 			page 79


1342:src/param.c   **** 
1343:src/param.c   ****   strcpy(fname, "PARAM8");
 2989              		.loc 1 1343 0
 2990 0006 4549     		ldr	r1, .L349
 2991 0008 03A8     		add	r0, sp, #12
 2992 000a FFF7FEFF 		bl	strcpy
 2993              	.LVL448:
1344:src/param.c   ****   ctrl = K_SearchPub|K_SearchReset;
 2994              		.loc 1 1344 0
 2995 000e 0321     		movs	r1, #3
 2996              	.LVL449:
 2997              	.L335:
1345:src/param.c   ****   while (1) {
1346:src/param.c   ****     pInfo = os_file_search_data(ctrl, &file_info);
 2998              		.loc 1 1346 0
 2999 0010 A520     		movs	r0, #165
 3000 0012 0BAA     		add	r2, sp, #44
 3001 0014 FFF7FEFF 		bl	sys_func2
 3002              	.LVL450:
1347:src/param.c   ****     if (pInfo == NULL)
 3003              		.loc 1 1347 0
 3004 0018 0446     		mov	r4, r0
 3005 001a 0028     		cmp	r0, #0
 3006 001c 5BD0     		beq	.L333
1348:src/param.c   ****       break;
1349:src/param.c   ****     if (memcmp(fname, pInfo->s_name, 6) == 0)
 3007              		.loc 1 1349 0
 3008 001e 2146     		mov	r1, r4
 3009 0020 03A8     		add	r0, sp, #12
 3010              	.LVL451:
 3011 0022 0622     		movs	r2, #6
 3012 0024 FFF7FEFF 		bl	memcmp
 3013              	.LVL452:
1350:src/param.c   ****       break;
1351:src/param.c   ****     ctrl = K_SearchPub|K_SearchNext;
 3014              		.loc 1 1351 0
 3015 0028 0221     		movs	r1, #2
1349:src/param.c   ****       break;
 3016              		.loc 1 1349 0
 3017 002a 0646     		mov	r6, r0
 3018 002c 0028     		cmp	r0, #0
 3019 002e EFD1     		bne	.L335
1352:src/param.c   ****   }
1353:src/param.c   ****   if (pInfo == NULL) {
1354:src/param.c   ****     DispLineMW("PARAM8 not found!", MW_LINE5, MW_CLRDISP|MW_CENTER|MW_SPFONT);
1355:src/param.c   ****     WaitKey(KBD_TIMEOUT);
1356:src/param.c   ****     return FALSE;
1357:src/param.c   ****   }
1358:src/param.c   ****   
1359:src/param.c   ****   strcpy(fname, pInfo->s_owner);
 3020              		.loc 1 1359 0
 3021 0030 04F11401 		add	r1, r4, #20
 3022 0034 03A8     		add	r0, sp, #12
 3023 0036 FFF7FEFF 		bl	strcpy
 3024              	.LVL453:
1360:src/param.c   ****   strcat(fname, pInfo->s_name);
 3025              		.loc 1 1360 0
ARM GAS  C:\Users\AHMED~1.ELE\AppData\Local\Temp\ccpjtoUe.s 			page 80


 3026 003a 2146     		mov	r1, r4
 3027 003c 03A8     		add	r0, sp, #12
 3028 003e FFF7FEFF 		bl	strcat
 3029              	.LVL454:
1361:src/param.c   ****   fd = os_file_open(fname, K_O_RDONLY);
 3030              		.loc 1 1361 0
 3031 0042 03A9     		add	r1, sp, #12
 3032 0044 3246     		mov	r2, r6
 3033 0046 9620     		movs	r0, #150
 3034 0048 FFF7FEFF 		bl	sys_func2
 3035              	.LVL455:
 3036 004c 0446     		mov	r4, r0
 3037              	.LVL456:
1362:src/param.c   ****   fsize = os_file_length(fd);
 3038              		.loc 1 1362 0
 3039 004e 2146     		mov	r1, r4
 3040 0050 A220     		movs	r0, #162
 3041              	.LVL457:
 3042 0052 FFF7FEFF 		bl	sys_func1
 3043              	.LVL458:
1363:src/param.c   ****   if ((fd != -1) && (fsize > 0)) {
 3044              		.loc 1 1363 0
 3045 0056 631C     		adds	r3, r4, #1
1362:src/param.c   ****   fsize = os_file_length(fd);
 3046              		.loc 1 1362 0
 3047 0058 0746     		mov	r7, r0
 3048              	.LVL459:
 3049              		.loc 1 1363 0
 3050 005a 01D1     		bne	.L340
 3051              	.LVL460:
 3052              	.L346:
1356:src/param.c   ****   }
 3053              		.loc 1 1356 0
 3054 005c 0024     		movs	r4, #0
 3055 005e 58E0     		b	.L344
 3056              	.LVL461:
 3057              	.L340:
 3058              		.loc 1 1363 0 discriminator 1
 3059 0060 002F     		cmp	r7, #0
 3060 0062 FBDD     		ble	.L346
1364:src/param.c   ****     ptr = (BYTE*) MallocMW(fsize);
 3061              		.loc 1 1364 0
 3062 0064 9220     		movs	r0, #146
 3063              	.LVL462:
 3064 0066 3946     		mov	r1, r7
 3065 0068 FFF7FEFF 		bl	sys_func1
 3066              	.LVL463:
1365:src/param.c   ****     if (ptr == NULL) {
 3067              		.loc 1 1365 0
 3068 006c 0546     		mov	r5, r0
 3069 006e 10B9     		cbnz	r0, .L337
1366:src/param.c   ****       os_file_close(fd);
 3070              		.loc 1 1366 0
 3071 0070 9820     		movs	r0, #152
 3072              	.LVL464:
 3073 0072 2146     		mov	r1, r4
 3074 0074 0EE0     		b	.L347
ARM GAS  C:\Users\AHMED~1.ELE\AppData\Local\Temp\ccpjtoUe.s 			page 81


 3075              	.LVL465:
 3076              	.L337:
1367:src/param.c   ****       return FALSE;
1368:src/param.c   ****     }
1369:src/param.c   ****     rlen = os_file_read(fd, ptr, fsize);
 3077              		.loc 1 1369 0
 3078 0076 2146     		mov	r1, r4
 3079 0078 2A46     		mov	r2, r5
 3080 007a 3B46     		mov	r3, r7
 3081 007c 9E20     		movs	r0, #158
 3082              	.LVL466:
 3083 007e FFF7FEFF 		bl	sys_func3
 3084              	.LVL467:
1370:src/param.c   ****     os_file_close(fd);
 3085              		.loc 1 1370 0
 3086 0082 2146     		mov	r1, r4
1369:src/param.c   ****     os_file_close(fd);
 3087              		.loc 1 1369 0
 3088 0084 8046     		mov	r8, r0
 3089              	.LVL468:
 3090              		.loc 1 1370 0
 3091 0086 9820     		movs	r0, #152
 3092              	.LVL469:
 3093 0088 FFF7FEFF 		bl	sys_func1
 3094              	.LVL470:
1371:src/param.c   ****   }
1372:src/param.c   ****   else
1373:src/param.c   ****     return FALSE;
1374:src/param.c   **** 
1375:src/param.c   ****   if (rlen != fsize) {
 3095              		.loc 1 1375 0
 3096 008c B845     		cmp	r8, r7
 3097 008e 04D0     		beq	.L338
 3098              	.LVL471:
 3099              	.L348:
1376:src/param.c   ****     FreeMW(ptr);
 3100              		.loc 1 1376 0
 3101 0090 9420     		movs	r0, #148
 3102 0092 2946     		mov	r1, r5
 3103              	.LVL472:
 3104              	.L347:
 3105 0094 FFF7FEFF 		bl	sys_func1
 3106              	.LVL473:
 3107 0098 E0E7     		b	.L346
 3108              	.LVL474:
 3109              	.L338:
1377:src/param.c   ****     return FALSE;
1378:src/param.c   ****   }
1379:src/param.c   ****   
1380:src/param.c   ****   EMVClrDnloadBuf();
 3110              		.loc 1 1380 0
 3111 009a FFF7FEFF 		bl	EMVClrDnloadBuf
 3112              	.LVL475:
1381:src/param.c   ****   CTLClrDnloadBuf();
 3113              		.loc 1 1381 0
 3114 009e FFF7FEFF 		bl	CTLClrDnloadBuf
 3115              	.LVL476:
ARM GAS  C:\Users\AHMED~1.ELE\AppData\Local\Temp\ccpjtoUe.s 			page 82


1382:src/param.c   ****   if (XmlStringToCfg(ptr) == TRUE) {
 3116              		.loc 1 1382 0
 3117 00a2 2846     		mov	r0, r5
 3118 00a4 FFF7FEFF 		bl	XmlStringToCfg
 3119              	.LVL477:
 3120 00a8 0128     		cmp	r0, #1
 3121 00aa 0446     		mov	r4, r0
 3122              	.LVL478:
 3123 00ac 0ED1     		bne	.L339
1383:src/param.c   ****     EMVDataUpdate();
 3124              		.loc 1 1383 0
 3125 00ae FFF7FEFF 		bl	EMVDataUpdate
 3126              	.LVL479:
1384:src/param.c   ****     EMVInit();
 3127              		.loc 1 1384 0
 3128 00b2 FFF7FEFF 		bl	EMVInit
 3129              	.LVL480:
1385:src/param.c   ****     EMVKillDnloadBuf();
 3130              		.loc 1 1385 0
 3131 00b6 FFF7FEFF 		bl	EMVKillDnloadBuf
 3132              	.LVL481:
1386:src/param.c   ****     CTLDataUpdate();
 3133              		.loc 1 1386 0
 3134 00ba FFF7FEFF 		bl	CTLDataUpdate
 3135              	.LVL482:
1387:src/param.c   ****     CTLKillDnloadBuf();
 3136              		.loc 1 1387 0
 3137 00be FFF7FEFF 		bl	CTLKillDnloadBuf
 3138              	.LVL483:
1388:src/param.c   ****     FreeMW(ptr);
 3139              		.loc 1 1388 0
 3140 00c2 2946     		mov	r1, r5
 3141 00c4 9420     		movs	r0, #148
 3142 00c6 FFF7FEFF 		bl	sys_func1
 3143              	.LVL484:
1389:src/param.c   ****     return TRUE;
 3144              		.loc 1 1389 0
 3145 00ca 22E0     		b	.L344
 3146              	.L339:
1390:src/param.c   ****   }
1391:src/param.c   ****   EMVKillDnloadBuf();
 3147              		.loc 1 1391 0
 3148 00cc FFF7FEFF 		bl	EMVKillDnloadBuf
 3149              	.LVL485:
1392:src/param.c   ****   CTLKillDnloadBuf();
 3150              		.loc 1 1392 0
 3151 00d0 FFF7FEFF 		bl	CTLKillDnloadBuf
 3152              	.LVL486:
 3153 00d4 DCE7     		b	.L348
 3154              	.LVL487:
 3155              	.L333:
 3156              	.LBB25:
1354:src/param.c   ****     WaitKey(KBD_TIMEOUT);
 3157              		.loc 1 1354 0
 3158 00d6 9220     		movs	r0, #146
 3159              	.LVL488:
 3160 00d8 1221     		movs	r1, #18
ARM GAS  C:\Users\AHMED~1.ELE\AppData\Local\Temp\ccpjtoUe.s 			page 83


 3161 00da FFF7FEFF 		bl	sys_func1
 3162              	.LVL489:
 3163 00de 0546     		mov	r5, r0
 3164 00e0 90B1     		cbz	r0, .L342
1354:src/param.c   ****     WaitKey(KBD_TIMEOUT);
 3165              		.loc 1 1354 0 is_stmt 0 discriminator 1
 3166 00e2 0F49     		ldr	r1, .L349+4
 3167 00e4 1122     		movs	r2, #17
 3168 00e6 FFF7FEFF 		bl	memcpy
 3169              	.LVL490:
 3170 00ea 42F28203 		movw	r3, #8322
 3171 00ee 6C74     		strb	r4, [r5, #17]
 3172 00f0 2521     		movs	r1, #37
 3173 00f2 0093     		str	r3, [sp]
 3174 00f4 0F20     		movs	r0, #15
 3175 00f6 2A46     		mov	r2, r5
 3176 00f8 4FF4A063 		mov	r3, #1280
 3177 00fc FFF7FEFF 		bl	lib_app_call
 3178              	.LVL491:
 3179 0100 9420     		movs	r0, #148
 3180 0102 2946     		mov	r1, r5
 3181 0104 FFF7FEFF 		bl	sys_func1
 3182              	.LVL492:
 3183              	.L342:
 3184              	.LBE25:
1355:src/param.c   ****     return FALSE;
 3185              		.loc 1 1355 0 is_stmt 1
 3186 0108 42F22830 		movw	r0, #9000
 3187 010c FFF7FEFF 		bl	WaitKey
 3188              	.LVL493:
 3189 0110 A4E7     		b	.L346
 3190              	.LVL494:
 3191              	.L344:
1393:src/param.c   ****   FreeMW(ptr);
1394:src/param.c   ****   return FALSE;
1395:src/param.c   **** }
 3192              		.loc 1 1395 0
 3193 0112 2046     		mov	r0, r4
 3194 0114 1AB0     		add	sp, sp, #104
 3195              		.cfi_def_cfa_offset 24
 3196              		@ sp needed
 3197 0116 BDE8F081 		pop	{r4, r5, r6, r7, r8, pc}
 3198              	.L350:
 3199 011a 00BF     		.align	2
 3200              	.L349:
 3201 011c F5010000 		.word	.LC46
 3202 0120 FC010000 		.word	.LC47
 3203              		.cfi_endproc
 3204              	.LFE14:
 3205              		.size	STISLoadParam, .-STISLoadParam
 3206              		.global	EmvKeyParam
 3207              		.global	CtlAppParam
 3208              		.global	EmvAppParam
 3209              		.global	CardTableParam
 3210              		.global	IssuerTableParam
 3211              		.global	AcqTableParam
 3212              		.global	TermCfgParam
ARM GAS  C:\Users\AHMED~1.ELE\AppData\Local\Temp\ccpjtoUe.s 			page 84


 3213              		.section	.rodata
 3214              		.align	2
 3215              		.set	.LANCHOR0,. + 0
 3216              		.type	TermCfgParam, %object
 3217              		.size	TermCfgParam, 248
 3218              	TermCfgParam:
 3219 0000 F9030000 		.word	.LC87
 3220 0004 01       		.byte	1
 3221 0005 00       		.space	1
 3222 0006 0100     		.short	1
 3223 0008 FD030000 		.word	.LC88
 3224 000c 01       		.byte	1
 3225 000d 00       		.space	1
 3226 000e 0100     		.short	1
 3227 0010 0A040000 		.word	.LC89
 3228 0014 02       		.byte	2
 3229 0015 00       		.space	1
 3230 0016 0100     		.short	1
 3231 0018 10040000 		.word	.LC90
 3232 001c 02       		.byte	2
 3233 001d 00       		.space	1
 3234 001e 0100     		.short	1
 3235 0020 16040000 		.word	.LC91
 3236 0024 02       		.byte	2
 3237 0025 00       		.space	1
 3238 0026 0600     		.short	6
 3239 0028 20040000 		.word	.LC92
 3240 002c 02       		.byte	2
 3241 002d 00       		.space	1
 3242 002e 0100     		.short	1
 3243 0030 2C040000 		.word	.LC93
 3244 0034 00       		.byte	0
 3245 0035 00       		.space	1
 3246 0036 0200     		.short	2
 3247 0038 35040000 		.word	.LC94
 3248 003c 00       		.byte	0
 3249 003d 00       		.space	1
 3250 003e 0C00     		.short	12
 3251 0040 3E040000 		.word	.LC95
 3252 0044 02       		.byte	2
 3253 0045 00       		.space	1
 3254 0046 0400     		.short	4
 3255 0048 4D040000 		.word	.LC96
 3256 004c 00       		.byte	0
 3257 004d 00       		.space	1
 3258 004e 2E00     		.short	46
 3259 0050 55040000 		.word	.LC97
 3260 0054 00       		.byte	0
 3261 0055 00       		.space	1
 3262 0056 1700     		.short	23
 3263 0058 62040000 		.word	.LC98
 3264 005c 00       		.byte	0
 3265 005d 00       		.space	1
 3266 005e 0100     		.short	1
 3267 0060 6A040000 		.word	.LC99
 3268 0064 01       		.byte	1
 3269 0065 00       		.space	1
ARM GAS  C:\Users\AHMED~1.ELE\AppData\Local\Temp\ccpjtoUe.s 			page 85


 3270 0066 0100     		.short	1
 3271 0068 77040000 		.word	.LC100
 3272 006c 01       		.byte	1
 3273 006d 00       		.space	1
 3274 006e 0100     		.short	1
 3275 0070 80040000 		.word	.LC101
 3276 0074 02       		.byte	2
 3277 0075 00       		.space	1
 3278 0076 0100     		.short	1
 3279 0078 86040000 		.word	.LC102
 3280 007c 01       		.byte	1
 3281 007d 00       		.space	1
 3282 007e 0100     		.short	1
 3283 0080 92040000 		.word	.LC103
 3284 0084 00       		.byte	0
 3285 0085 00       		.space	1
 3286 0086 0300     		.short	3
 3287 0088 9B040000 		.word	.LC104
 3288 008c 02       		.byte	2
 3289 008d 00       		.space	1
 3290 008e 0100     		.short	1
 3291 0090 A8040000 		.word	.LC105
 3292 0094 00       		.byte	0
 3293 0095 00       		.space	1
 3294 0096 1400     		.short	20
 3295 0098 BA040000 		.word	.LC106
 3296 009c 02       		.byte	2
 3297 009d 00       		.space	1
 3298 009e 1E00     		.short	30
 3299 00a0 CB040000 		.word	.LC107
 3300 00a4 00       		.byte	0
 3301 00a5 00       		.space	1
 3302 00a6 1000     		.short	16
 3303 00a8 D5040000 		.word	.LC108
 3304 00ac 00       		.byte	0
 3305 00ad 00       		.space	1
 3306 00ae 1000     		.short	16
 3307 00b0 DD040000 		.word	.LC109
 3308 00b4 00       		.byte	0
 3309 00b5 00       		.space	1
 3310 00b6 2000     		.short	32
 3311 00b8 EA040000 		.word	.LC110
 3312 00bc 00       		.byte	0
 3313 00bd 00       		.space	1
 3314 00be 2000     		.short	32
 3315 00c0 F7040000 		.word	.LC111
 3316 00c4 00       		.byte	0
 3317 00c5 00       		.space	1
 3318 00c6 2000     		.short	32
 3319 00c8 05050000 		.word	.LC112
 3320 00cc 00       		.byte	0
 3321 00cd 00       		.space	1
 3322 00ce 2000     		.short	32
 3323 00d0 13050000 		.word	.LC113
 3324 00d4 00       		.byte	0
 3325 00d5 00       		.space	1
 3326 00d6 2000     		.short	32
ARM GAS  C:\Users\AHMED~1.ELE\AppData\Local\Temp\ccpjtoUe.s 			page 86


 3327 00d8 1D050000 		.word	.LC114
 3328 00dc 00       		.byte	0
 3329 00dd 00       		.space	1
 3330 00de 2000     		.short	32
 3331 00e0 28050000 		.word	.LC115
 3332 00e4 02       		.byte	2
 3333 00e5 00       		.space	1
 3334 00e6 0400     		.short	4
 3335 00e8 30050000 		.word	.LC116
 3336 00ec 02       		.byte	2
 3337 00ed 00       		.space	1
 3338 00ee 0200     		.short	2
 3339 00f0 00000000 		.word	0
 3340 00f4 00       		.byte	0
 3341 00f5 00       		.space	1
 3342 00f6 0000     		.short	0
 3343              		.type	AcqTableParam, %object
 3344              		.size	AcqTableParam, 216
 3345              	AcqTableParam:
 3346 00f8 4E020000 		.word	.LC54
 3347 00fc 01       		.byte	1
 3348 00fd 00       		.space	1
 3349 00fe 0100     		.short	1
 3350 0100 A1020000 		.word	.LC62
 3351 0104 00       		.byte	0
 3352 0105 00       		.space	1
 3353 0106 0A00     		.short	10
 3354 0108 AA020000 		.word	.LC63
 3355 010c 00       		.byte	0
 3356 010d 00       		.space	1
 3357 010e 0A00     		.short	10
 3358 0110 B2020000 		.word	.LC64
 3359 0114 02       		.byte	2
 3360 0115 00       		.space	1
 3361 0116 0C00     		.short	12
 3362 0118 BC020000 		.word	.LC65
 3363 011c 01       		.byte	1
 3364 011d 00       		.space	1
 3365 011e 0100     		.short	1
 3366 0120 CD020000 		.word	.LC66
 3367 0124 01       		.byte	1
 3368 0125 00       		.space	1
 3369 0126 0100     		.short	1
 3370 0128 E0020000 		.word	.LC67
 3371 012c 02       		.byte	2
 3372 012d 00       		.space	1
 3373 012e 0C00     		.short	12
 3374 0130 E9020000 		.word	.LC68
 3375 0134 01       		.byte	1
 3376 0135 00       		.space	1
 3377 0136 0100     		.short	1
 3378 0138 F9020000 		.word	.LC69
 3379 013c 01       		.byte	1
 3380 013d 00       		.space	1
 3381 013e 0100     		.short	1
 3382 0140 0B030000 		.word	.LC70
 3383 0144 02       		.byte	2
ARM GAS  C:\Users\AHMED~1.ELE\AppData\Local\Temp\ccpjtoUe.s 			page 87


 3384 0145 00       		.space	1
 3385 0146 0C00     		.short	12
 3386 0148 1A030000 		.word	.LC71
 3387 014c 01       		.byte	1
 3388 014d 00       		.space	1
 3389 014e 0100     		.short	1
 3390 0150 2F030000 		.word	.LC72
 3391 0154 01       		.byte	1
 3392 0155 00       		.space	1
 3393 0156 0100     		.short	1
 3394 0158 41030000 		.word	.LC73
 3395 015c 02       		.byte	2
 3396 015d 00       		.space	1
 3397 015e 0C00     		.short	12
 3398 0160 50030000 		.word	.LC74
 3399 0164 01       		.byte	1
 3400 0165 00       		.space	1
 3401 0166 0100     		.short	1
 3402 0168 65030000 		.word	.LC75
 3403 016c 01       		.byte	1
 3404 016d 00       		.space	1
 3405 016e 0100     		.short	1
 3406 0170 77030000 		.word	.LC76
 3407 0174 01       		.byte	1
 3408 0175 00       		.space	1
 3409 0176 0100     		.short	1
 3410 0178 81030000 		.word	.LC77
 3411 017c 02       		.byte	2
 3412 017d 00       		.space	1
 3413 017e 0400     		.short	4
 3414 0180 91030000 		.word	.LC78
 3415 0184 02       		.byte	2
 3416 0185 00       		.space	1
 3417 0186 0200     		.short	2
 3418 0188 95030000 		.word	.LC79
 3419 018c 00       		.byte	0
 3420 018d 00       		.space	1
 3421 018e 0800     		.short	8
 3422 0190 9C030000 		.word	.LC80
 3423 0194 00       		.byte	0
 3424 0195 00       		.space	1
 3425 0196 0F00     		.short	15
 3426 0198 A7030000 		.word	.LC81
 3427 019c 01       		.byte	1
 3428 019d 00       		.space	1
 3429 019e 0100     		.short	1
 3430 01a0 B1030000 		.word	.LC82
 3431 01a4 02       		.byte	2
 3432 01a5 00       		.space	1
 3433 01a6 0300     		.short	3
 3434 01a8 BD030000 		.word	.LC83
 3435 01ac 02       		.byte	2
 3436 01ad 00       		.space	1
 3437 01ae 0300     		.short	3
 3438 01b0 C9030000 		.word	.LC84
 3439 01b4 00       		.byte	0
 3440 01b5 00       		.space	1
ARM GAS  C:\Users\AHMED~1.ELE\AppData\Local\Temp\ccpjtoUe.s 			page 88


 3441 01b6 1700     		.short	23
 3442 01b8 D7030000 		.word	.LC85
 3443 01bc 01       		.byte	1
 3444 01bd 00       		.space	1
 3445 01be 0100     		.short	1
 3446 01c0 E7030000 		.word	.LC86
 3447 01c4 02       		.byte	2
 3448 01c5 00       		.space	1
 3449 01c6 1E00     		.short	30
 3450 01c8 00000000 		.word	0
 3451 01cc 00       		.byte	0
 3452 01cd 00       		.space	1
 3453 01ce 0000     		.short	0
 3454              		.type	IssuerTableParam, %object
 3455              		.size	IssuerTableParam, 72
 3456              	IssuerTableParam:
 3457 01d0 4E020000 		.word	.LC54
 3458 01d4 01       		.byte	1
 3459 01d5 00       		.space	1
 3460 01d6 0100     		.short	1
 3461 01d8 51020000 		.word	.LC55
 3462 01dc 00       		.byte	0
 3463 01dd 00       		.space	1
 3464 01de 0A00     		.short	10
 3465 01e0 59020000 		.word	.LC56
 3466 01e4 00       		.byte	0
 3467 01e5 00       		.space	1
 3468 01e6 0C00     		.short	12
 3469 01e8 64020000 		.word	.LC57
 3470 01ec 02       		.byte	2
 3471 01ed 00       		.space	1
 3472 01ee 0400     		.short	4
 3473 01f0 72020000 		.word	.LC58
 3474 01f4 02       		.byte	2
 3475 01f5 00       		.space	1
 3476 01f6 0100     		.short	1
 3477 01f8 7D020000 		.word	.LC59
 3478 01fc 02       		.byte	2
 3479 01fd 00       		.space	1
 3480 01fe 0200     		.short	2
 3481 0200 88020000 		.word	.LC60
 3482 0204 02       		.byte	2
 3483 0205 00       		.space	1
 3484 0206 0200     		.short	2
 3485 0208 91020000 		.word	.LC61
 3486 020c 02       		.byte	2
 3487 020d 00       		.space	1
 3488 020e 1400     		.short	20
 3489 0210 00000000 		.word	0
 3490 0214 00       		.byte	0
 3491 0215 00       		.space	1
 3492 0216 0000     		.short	0
 3493              		.type	CardTableParam, %object
 3494              		.size	CardTableParam, 56
 3495              	CardTableParam:
 3496 0218 0E020000 		.word	.LC48
 3497 021c 02       		.byte	2
ARM GAS  C:\Users\AHMED~1.ELE\AppData\Local\Temp\ccpjtoUe.s 			page 89


 3498 021d 00       		.space	1
 3499 021e 0500     		.short	5
 3500 0220 1B020000 		.word	.LC49
 3501 0224 02       		.byte	2
 3502 0225 00       		.space	1
 3503 0226 0500     		.short	5
 3504 0228 29020000 		.word	.LC50
 3505 022c 01       		.byte	1
 3506 022d 00       		.space	1
 3507 022e 0100     		.short	1
 3508 0230 32020000 		.word	.LC51
 3509 0234 01       		.byte	1
 3510 0235 00       		.space	1
 3511 0236 0100     		.short	1
 3512 0238 3D020000 		.word	.LC52
 3513 023c 01       		.byte	1
 3514 023d 00       		.space	1
 3515 023e 0100     		.short	1
 3516 0240 45020000 		.word	.LC53
 3517 0244 02       		.byte	2
 3518 0245 00       		.space	1
 3519 0246 1400     		.short	20
 3520 0248 00000000 		.word	0
 3521 024c 00       		.byte	0
 3522 024d 00       		.space	1
 3523 024e 0000     		.short	0
 3524              		.type	EmvAppParam, %object
 3525              		.size	EmvAppParam, 80
 3526              	EmvAppParam:
 3527 0250 4F000000 		.word	.LC8
 3528 0254 02       		.byte	2
 3529 0255 00       		.space	1
 3530 0256 0100     		.short	1
 3531 0258 00000000 		.word	.LC0
 3532 025c 02       		.byte	2
 3533 025d 00       		.space	1
 3534 025e 0100     		.short	1
 3535 0260 0A000000 		.word	.LC1
 3536 0264 01       		.byte	1
 3537 0265 00       		.space	1
 3538 0266 0400     		.short	4
 3539 0268 15000000 		.word	.LC2
 3540 026c 01       		.byte	1
 3541 026d 00       		.space	1
 3542 026e 0100     		.short	1
 3543 0270 1F000000 		.word	.LC3
 3544 0274 01       		.byte	1
 3545 0275 00       		.space	1
 3546 0276 0100     		.short	1
 3547 0278 27000000 		.word	.LC4
 3548 027c 02       		.byte	2
 3549 027d 00       		.space	1
 3550 027e 0500     		.short	5
 3551 0280 32000000 		.word	.LC5
 3552 0284 02       		.byte	2
 3553 0285 00       		.space	1
 3554 0286 0500     		.short	5
ARM GAS  C:\Users\AHMED~1.ELE\AppData\Local\Temp\ccpjtoUe.s 			page 90


 3555 0288 3D000000 		.word	.LC6
 3556 028c 02       		.byte	2
 3557 028d 00       		.space	1
 3558 028e 0500     		.short	5
 3559 0290 49000000 		.word	.LC7
 3560 0294 02       		.byte	2
 3561 0295 00       		.space	1
 3562 0296 C800     		.short	200
 3563 0298 00000000 		.word	0
 3564 029c 00       		.byte	0
 3565 029d 00       		.space	1
 3566 029e 0000     		.short	0
 3567              		.type	CtlAppParam, %object
 3568              		.size	CtlAppParam, 80
 3569              	CtlAppParam:
 3570 02a0 A7000000 		.word	.LC17
 3571 02a4 02       		.byte	2
 3572 02a5 00       		.space	1
 3573 02a6 0100     		.short	1
 3574 02a8 55000000 		.word	.LC9
 3575 02ac 02       		.byte	2
 3576 02ad 00       		.space	1
 3577 02ae 0100     		.short	1
 3578 02b0 5F000000 		.word	.LC10
 3579 02b4 01       		.byte	1
 3580 02b5 00       		.space	1
 3581 02b6 0400     		.short	4
 3582 02b8 6A000000 		.word	.LC11
 3583 02bc 01       		.byte	1
 3584 02bd 00       		.space	1
 3585 02be 0100     		.short	1
 3586 02c0 74000000 		.word	.LC12
 3587 02c4 01       		.byte	1
 3588 02c5 00       		.space	1
 3589 02c6 0100     		.short	1
 3590 02c8 7C000000 		.word	.LC13
 3591 02cc 02       		.byte	2
 3592 02cd 00       		.space	1
 3593 02ce 0500     		.short	5
 3594 02d0 88000000 		.word	.LC14
 3595 02d4 02       		.byte	2
 3596 02d5 00       		.space	1
 3597 02d6 0500     		.short	5
 3598 02d8 94000000 		.word	.LC15
 3599 02dc 02       		.byte	2
 3600 02dd 00       		.space	1
 3601 02de 0500     		.short	5
 3602 02e0 A1000000 		.word	.LC16
 3603 02e4 02       		.byte	2
 3604 02e5 00       		.space	1
 3605 02e6 0002     		.short	512
 3606 02e8 00000000 		.word	0
 3607 02ec 00       		.byte	0
 3608 02ed 00       		.space	1
 3609 02ee 0000     		.short	0
 3610              		.type	EmvKeyParam, %object
 3611              		.size	EmvKeyParam, 72
ARM GAS  C:\Users\AHMED~1.ELE\AppData\Local\Temp\ccpjtoUe.s 			page 91


 3612              	EmvKeyParam:
 3613 02f0 EF000000 		.word	.LC25
 3614 02f4 02       		.byte	2
 3615 02f5 00       		.space	1
 3616 02f6 0100     		.short	1
 3617 02f8 AE000000 		.word	.LC18
 3618 02fc 02       		.byte	2
 3619 02fd 00       		.space	1
 3620 02fe 0500     		.short	5
 3621 0300 B3000000 		.word	.LC19
 3622 0304 02       		.byte	2
 3623 0305 00       		.space	1
 3624 0306 0400     		.short	4
 3625 0308 BD000000 		.word	.LC20
 3626 030c 01       		.byte	1
 3627 030d 00       		.space	1
 3628 030e 0400     		.short	4
 3629 0310 C6000000 		.word	.LC21
 3630 0314 02       		.byte	2
 3631 0315 00       		.space	1
 3632 0316 0001     		.short	256
 3633 0318 CB000000 		.word	.LC22
 3634 031c 02       		.byte	2
 3635 031d 00       		.space	1
 3636 031e 0200     		.short	2
 3637 0320 D7000000 		.word	.LC23
 3638 0324 02       		.byte	2
 3639 0325 00       		.space	1
 3640 0326 0200     		.short	2
 3641 0328 E6000000 		.word	.LC24
 3642 032c 02       		.byte	2
 3643 032d 00       		.space	1
 3644 032e 0100     		.short	1
 3645 0330 00000000 		.word	0
 3646 0334 00       		.byte	0
 3647 0335 00       		.space	1
 3648 0336 0000     		.short	0
 3649              		.section	.rodata.str1.1,"aMS",%progbits,1
 3650              	.LC0:
 3651 0000 65426974 		.ascii	"eBitField\000"
 3651      4669656C 
 3651      6400
 3652              	.LC1:
 3653 000a 65525342 		.ascii	"eRSBThresh\000"
 3653      54687265 
 3653      736800
 3654              	.LC2:
 3655 0015 65525354 		.ascii	"eRSTarget\000"
 3655      61726765 
 3655      7400
 3656              	.LC3:
 3657 001f 65525342 		.ascii	"eRSBMax\000"
 3657      4D617800 
 3658              	.LC4:
 3659 0027 65544143 		.ascii	"eTACDenial\000"
 3659      44656E69 
 3659      616C00
ARM GAS  C:\Users\AHMED~1.ELE\AppData\Local\Temp\ccpjtoUe.s 			page 92


 3660              	.LC5:
 3661 0032 65544143 		.ascii	"eTACOnline\000"
 3661      4F6E6C69 
 3661      6E6500
 3662              	.LC6:
 3663 003d 65544143 		.ascii	"eTACDefault\000"
 3663      44656661 
 3663      756C7400 
 3664              	.LC7:
 3665 0049 65414346 		.ascii	"eACFG\000"
 3665      4700
 3666              	.LC8:
 3667 004f 65547970 		.ascii	"eType\000"
 3667      6500
 3668              	.LC9:
 3669 0055 62426974 		.ascii	"bBitField\000"
 3669      4669656C 
 3669      6400
 3670              	.LC10:
 3671 005f 64525342 		.ascii	"dRSBThresh\000"
 3671      54687265 
 3671      736800
 3672              	.LC11:
 3673 006a 62525354 		.ascii	"bRSTarget\000"
 3673      61726765 
 3673      7400
 3674              	.LC12:
 3675 0074 62525342 		.ascii	"bRSBMax\000"
 3675      4D617800 
 3676              	.LC13:
 3677 007c 61625441 		.ascii	"abTACDenial\000"
 3677      4344656E 
 3677      69616C00 
 3678              	.LC14:
 3679 0088 61625441 		.ascii	"abTACOnline\000"
 3679      434F6E6C 
 3679      696E6500 
 3680              	.LC15:
 3681 0094 61625441 		.ascii	"abTACDefault\000"
 3681      43446566 
 3681      61756C74 
 3681      00
 3682              	.LC16:
 3683 00a1 6162544C 		.ascii	"abTLV\000"
 3683      5600
 3684              	.LC17:
 3685 00a7 62455479 		.ascii	"bEType\000"
 3685      706500
 3686              	.LC18:
 3687 00ae 65524944 		.ascii	"eRID\000"
 3687      00
 3688              	.LC19:
 3689 00b3 65457870 		.ascii	"eExponent\000"
 3689      6F6E656E 
 3689      7400
 3690              	.LC20:
 3691 00bd 654B6579 		.ascii	"eKeySize\000"
ARM GAS  C:\Users\AHMED~1.ELE\AppData\Local\Temp\ccpjtoUe.s 			page 93


 3691      53697A65 
 3691      00
 3692              	.LC21:
 3693 00c6 654B6579 		.ascii	"eKey\000"
 3693      00
 3694              	.LC22:
 3695 00cb 65457870 		.ascii	"eExpiryDate\000"
 3695      69727944 
 3695      61746500 
 3696              	.LC23:
 3697 00d7 65456666 		.ascii	"eEffectiveDate\000"
 3697      65637469 
 3697      76654461 
 3697      746500
 3698              	.LC24:
 3699 00e6 654B6579 		.ascii	"eKeyType\000"
 3699      54797065 
 3699      00
 3700              	.LC25:
 3701 00ef 654B6579 		.ascii	"eKeyIdx\000"
 3701      49647800 
 3702              	.LC26:
 3703 00f7 6661696C 		.ascii	"failed to get term cfg\000"
 3703      65642074 
 3703      6F206765 
 3703      74207465 
 3703      726D2063 
 3704              	.LC27:
 3705 010e 61706E31 		.ascii	"apn1: %s\000"
 3705      3A202573 
 3705      00
 3706              	.LC28:
 3707 0117 61706E31 		.ascii	"apn1 user: %s\000"
 3707      20757365 
 3707      723A2025 
 3707      7300
 3708              	.LC29:
 3709 0125 61706E31 		.ascii	"apn1 psw: %s\000"
 3709      20707377 
 3709      3A202573 
 3709      00
 3710              	.LC30:
 3711 0132 61706E32 		.ascii	"apn2: %s\000"
 3711      3A202573 
 3711      00
 3712              	.LC31:
 3713 013b 61706E32 		.ascii	"apn2 user: %s\000"
 3713      20757365 
 3713      723A2025 
 3713      7300
 3714              	.LC32:
 3715 0149 61706E32 		.ascii	"apn2 psw: %s\000"
 3715      20707377 
 3715      3A202573 
 3715      00
 3716              	.LC33:
 3717 0156 73656C65 		.ascii	"select APN\000"
ARM GAS  C:\Users\AHMED~1.ELE\AppData\Local\Temp\ccpjtoUe.s 			page 94


 3717      63742041 
 3717      504E00
 3718              	.LC34:
 3719 0161 75736572 		.ascii	"user cancelled\000"
 3719      2063616E 
 3719      63656C6C 
 3719      656400
 3720              	.LC35:
 3721 0170 41504E20 		.ascii	"APN #%d is chosen\000"
 3721      23256420 
 3721      69732063 
 3721      686F7365 
 3721      6E00
 3722              	.LC36:
 3723 0182 5465726D 		.ascii	"TerminalXML\000"
 3723      696E616C 
 3723      584D4C00 
 3724              	.LC37:
 3725 018e 5465726D 		.ascii	"Terminal\000"
 3725      696E616C 
 3725      00
 3726              	.LC38:
 3727 0197 41637175 		.ascii	"Acquirer\000"
 3727      69726572 
 3727      00
 3728              	.LC39:
 3729 01a0 49737375 		.ascii	"Issuer\000"
 3729      657200
 3730              	.LC40:
 3731 01a7 43617264 		.ascii	"CardRange\000"
 3731      52616E67 
 3731      6500
 3732              	.LC41:
 3733 01b1 454D564C 		.ascii	"EMVLevel2App\000"
 3733      6576656C 
 3733      32417070 
 3733      00
 3734              	.LC42:
 3735 01be 454D5643 		.ascii	"EMVCtlApp\000"
 3735      746C4170 
 3735      7000
 3736              	.LC43:
 3737 01c8 454D564C 		.ascii	"EMVLevel2Key\000"
 3737      6576656C 
 3737      324B6579 
 3737      00
 3738              	.LC44:
 3739 01d5 4C6F6164 		.ascii	"Load String Fail!\000"
 3739      20537472 
 3739      696E6720 
 3739      4661696C 
 3739      2100
 3740              	.LC45:
 3741 01e7 50415241 		.ascii	"PARAM UPDATED\000"
 3741      4D205550 
 3741      44415445 
 3741      4400
ARM GAS  C:\Users\AHMED~1.ELE\AppData\Local\Temp\ccpjtoUe.s 			page 95


 3742              	.LC46:
 3743 01f5 50415241 		.ascii	"PARAM8\000"
 3743      4D3800
 3744              	.LC47:
 3745 01fc 50415241 		.ascii	"PARAM8 not found!\000"
 3745      4D38206E 
 3745      6F742066 
 3745      6F756E64 
 3745      2100
 3746              	.LC48:
 3747 020e 43617264 		.ascii	"CardRangeLow\000"
 3747      52616E67 
 3747      654C6F77 
 3747      00
 3748              	.LC49:
 3749 021b 43617264 		.ascii	"CardRangeHigh\000"
 3749      52616E67 
 3749      65486967 
 3749      6800
 3750              	.LC50:
 3751 0229 49737375 		.ascii	"IssuerID\000"
 3751      65724944 
 3751      00
 3752              	.LC51:
 3753 0232 41637175 		.ascii	"AcquirerID\000"
 3753      69726572 
 3753      494400
 3754              	.LC52:
 3755 023d 70616E5F 		.ascii	"pan_len\000"
 3755      6C656E00 
 3756              	.LC53:
 3757 0245 72657365 		.ascii	"reserved\000"
 3757      72766564 
 3757      00
 3758              	.LC54:
 3759 024e 494400   		.ascii	"ID\000"
 3760              	.LC55:
 3761 0251 4973734E 		.ascii	"IssName\000"
 3761      616D6500 
 3762              	.LC56:
 3763 0259 7265665F 		.ascii	"ref_tel_no\000"
 3763      74656C5F 
 3763      6E6F00
 3764              	.LC57:
 3765 0264 4F707469 		.ascii	"Option-Issuer\000"
 3765      6F6E2D49 
 3765      73737565 
 3765      7200
 3766              	.LC58:
 3767 0272 44656661 		.ascii	"DefaultAcc\000"
 3767      756C7441 
 3767      636300
 3768              	.LC59:
 3769 027d 70616E5F 		.ascii	"pan_format\000"
 3769      666F726D 
 3769      617400
 3770              	.LC60:
ARM GAS  C:\Users\AHMED~1.ELE\AppData\Local\Temp\ccpjtoUe.s 			page 96


 3771 0288 466C724C 		.ascii	"FlrLimit\000"
 3771      696D6974 
 3771      00
 3772              	.LC61:
 3773 0291 52657365 		.ascii	"Reserved-Issuer\000"
 3773      72766564 
 3773      2D497373 
 3773      75657200 
 3774              	.LC62:
 3775 02a1 50726F67 		.ascii	"ProgName\000"
 3775      4E616D65 
 3775      00
 3776              	.LC63:
 3777 02aa 4163714E 		.ascii	"AcqName\000"
 3777      616D6500 
 3778              	.LC64:
 3779 02b2 5072696D 		.ascii	"PrimTelNo\000"
 3779      54656C4E 
 3779      6F00
 3780              	.LC65:
 3781 02bc 5072696D 		.ascii	"PrimTelConnectTO\000"
 3781      54656C43 
 3781      6F6E6E65 
 3781      6374544F 
 3781      00
 3782              	.LC66:
 3783 02cd 5072696D 		.ascii	"PrimTelDialAttempt\000"
 3783      54656C44 
 3783      69616C41 
 3783      7474656D 
 3783      707400
 3784              	.LC67:
 3785 02e0 53656354 		.ascii	"SecTelNo\000"
 3785      656C4E6F 
 3785      00
 3786              	.LC68:
 3787 02e9 53656354 		.ascii	"SecTelConnectTO\000"
 3787      656C436F 
 3787      6E6E6563 
 3787      74544F00 
 3788              	.LC69:
 3789 02f9 53656354 		.ascii	"SecTelDialAttempt\000"
 3789      656C4469 
 3789      616C4174 
 3789      74656D70 
 3789      7400
 3790              	.LC70:
 3791 030b 7072695F 		.ascii	"pri_settle_tel\000"
 3791      73657474 
 3791      6C655F74 
 3791      656C00
 3792              	.LC71:
 3793 031a 7072695F 		.ascii	"pri_settle_conn_time\000"
 3793      73657474 
 3793      6C655F63 
 3793      6F6E6E5F 
 3793      74696D65 
ARM GAS  C:\Users\AHMED~1.ELE\AppData\Local\Temp\ccpjtoUe.s 			page 97


 3794              	.LC72:
 3795 032f 7072695F 		.ascii	"pri_settle_redial\000"
 3795      73657474 
 3795      6C655F72 
 3795      65646961 
 3795      6C00
 3796              	.LC73:
 3797 0341 7365635F 		.ascii	"sec_settle_tel\000"
 3797      73657474 
 3797      6C655F74 
 3797      656C00
 3798              	.LC74:
 3799 0350 7365635F 		.ascii	"sec_settle_conn_time\000"
 3799      73657474 
 3799      6C655F63 
 3799      6F6E6E5F 
 3799      74696D65 
 3800              	.LC75:
 3801 0365 7365635F 		.ascii	"sec_settle_redial\000"
 3801      73657474 
 3801      6C655F72 
 3801      65646961 
 3801      6C00
 3802              	.LC76:
 3803 0377 4D6F6465 		.ascii	"ModemMode\000"
 3803      6D4D6F64 
 3803      6500
 3804              	.LC77:
 3805 0381 4F707469 		.ascii	"Option-Acquirer\000"
 3805      6F6E2D41 
 3805      63717569 
 3805      72657200 
 3806              	.LC78:
 3807 0391 4E494900 		.ascii	"NII\000"
 3808              	.LC79:
 3809 0395 5465726D 		.ascii	"TermID\000"
 3809      494400
 3810              	.LC80:
 3811 039c 4D657263 		.ascii	"MerchantID\000"
 3811      68616E74 
 3811      494400
 3812              	.LC81:
 3813 03a7 486F7374 		.ascii	"HostRspTO\000"
 3813      52737054 
 3813      4F00
 3814              	.LC82:
 3815 03b1 43757272 		.ascii	"CurrBatchNo\000"
 3815      42617463 
 3815      684E6F00 
 3816              	.LC83:
 3817 03bd 4E657874 		.ascii	"NextBatchNo\000"
 3817      42617463 
 3817      684E6F00 
 3818              	.LC84:
 3819 03c9 76697361 		.ascii	"visa1_term_id\000"
 3819      315F7465 
 3819      726D5F69 
ARM GAS  C:\Users\AHMED~1.ELE\AppData\Local\Temp\ccpjtoUe.s 			page 98


 3819      6400
 3820              	.LC85:
 3821 03d7 73657474 		.ascii	"settle_mdm_mode\000"
 3821      6C655F6D 
 3821      646D5F6D 
 3821      6F646500 
 3822              	.LC86:
 3823 03e7 52657365 		.ascii	"Reserved-Acquirer\000"
 3823      72766564 
 3823      2D416371 
 3823      75697265 
 3823      7200
 3824              	.LC87:
 3825 03f9 646C6C00 		.ascii	"dll\000"
 3826              	.LC88:
 3827 03fd 696E6974 		.ascii	"init_control\000"
 3827      5F636F6E 
 3827      74726F6C 
 3827      00
 3828              	.LC89:
 3829 040a 72737664 		.ascii	"rsvd0\000"
 3829      3000
 3830              	.LC90:
 3831 0410 72737664 		.ascii	"rsvd1\000"
 3831      3100
 3832              	.LC91:
 3833 0416 64617465 		.ascii	"date_time\000"
 3833      5F74696D 
 3833      6500
 3834              	.LC92:
 3835 0420 6469616C 		.ascii	"dial_option\000"
 3835      5F6F7074 
 3835      696F6E00 
 3836              	.LC93:
 3837 042c 70617373 		.ascii	"password\000"
 3837      776F7264 
 3837      00
 3838              	.LC94:
 3839 0435 68656C70 		.ascii	"help_tel\000"
 3839      5F74656C 
 3839      00
 3840              	.LC95:
 3841 043e 4F707469 		.ascii	"Option-TermCfg\000"
 3841      6F6E2D54 
 3841      65726D43 
 3841      666700
 3842              	.LC96:
 3843 044d 4E616D65 		.ascii	"NameLoc\000"
 3843      4C6F6300 
 3844              	.LC97:
 3845 0455 4D657263 		.ascii	"MerchantName\000"
 3845      68616E74 
 3845      4E616D65 
 3845      00
 3846              	.LC98:
 3847 0462 43757272 		.ascii	"CurrSym\000"
 3847      53796D00 
ARM GAS  C:\Users\AHMED~1.ELE\AppData\Local\Temp\ccpjtoUe.s 			page 99


 3848              	.LC99:
 3849 046a 5472616E 		.ascii	"TransAmntLen\000"
 3849      73416D6E 
 3849      744C656E 
 3849      00
 3850              	.LC100:
 3851 0477 44656350 		.ascii	"DecPoint\000"
 3851      6F696E74 
 3851      00
 3852              	.LC101:
 3853 0480 72737664 		.ascii	"rsvd2\000"
 3853      3200
 3854              	.LC102:
 3855 0486 53657474 		.ascii	"SettAmntLen\000"
 3855      416D6E74 
 3855      4C656E00 
 3856              	.LC103:
 3857 0492 43757272 		.ascii	"CurrName\000"
 3857      4E616D65 
 3857      00
 3858              	.LC104:
 3859 049b 6C6F6361 		.ascii	"local_option\000"
 3859      6C5F6F70 
 3859      74696F6E 
 3859      00
 3860              	.LC105:
 3861 04a8 61646469 		.ascii	"additional_prompt\000"
 3861      74696F6E 
 3861      616C5F70 
 3861      726F6D70 
 3861      7400
 3862              	.LC106:
 3863 04ba 52657365 		.ascii	"Reserved-TermCfg\000"
 3863      72766564 
 3863      2D546572 
 3863      6D436667 
 3863      00
 3864              	.LC107:
 3865 04cb 50737752 		.ascii	"PswRefund\000"
 3865      6566756E 
 3865      6400
 3866              	.LC108:
 3867 04d5 50737756 		.ascii	"PswVoid\000"
 3867      6F696400 
 3868              	.LC109:
 3869 04dd 61706E5F 		.ascii	"apn_username\000"
 3869      75736572 
 3869      6E616D65 
 3869      00
 3870              	.LC110:
 3871 04ea 61706E5F 		.ascii	"apn_password\000"
 3871      70617373 
 3871      776F7264 
 3871      00
 3872              	.LC111:
 3873 04f7 61706E32 		.ascii	"apn2_username\000"
 3873      5F757365 
ARM GAS  C:\Users\AHMED~1.ELE\AppData\Local\Temp\ccpjtoUe.s 			page 100


 3873      726E616D 
 3873      6500
 3874              	.LC112:
 3875 0505 61706E32 		.ascii	"apn2_password\000"
 3875      5F706173 
 3875      73776F72 
 3875      6400
 3876              	.LC113:
 3877 0513 61706E63 		.ascii	"apnconfig\000"
 3877      6F6E6669 
 3877      6700
 3878              	.LC114:
 3879 051d 61706E63 		.ascii	"apnconfig2\000"
 3879      6F6E6669 
 3879      673200
 3880              	.LC115:
 3881 0528 61706E32 		.ascii	"apn2_ip\000"
 3881      5F697000 
 3882              	.LC116:
 3883 0530 61706E32 		.ascii	"apn2_port\000"
 3883      5F706F72 
 3883      7400
 3884              		.bss
 3885              		.set	.LANCHOR1,. + 0
 3886              		.type	gCardIdx, %object
 3887              		.size	gCardIdx, 1
 3888              	gCardIdx:
 3889 0000 00       		.space	1
 3890              		.text
 3891              	.Letext0:
 3892              		.file 2 "c:\\devtools\\gcc_v49_2014q4\\lib\\gcc\\arm-none-eabi\\4.9.3\\include\\stddef.h"
 3893              		.file 3 "../LibA5T1000/common.h"
 3894              		.file 4 "../LibA5T1000/system.h"
 3895              		.file 5 "../LibA5T1000/midware.h"
 3896              		.file 6 "../LibA5T1000/apm.h"
 3897              		.file 7 "../LibA5T1000/emv2dll.h"
 3898              		.file 8 "../LibA5T1000/emvcl2dll.h"
 3899              		.file 9 "src/mxml.h"
 3900              		.file 10 "src/toggle.h"
 3901              		.file 11 "c:\\devtools\\gcc_v49_2014q4\\arm-none-eabi\\include\\string.h"
 3902              		.file 12 "c:\\devtools\\gcc_v49_2014q4\\arm-none-eabi\\include\\stdlib.h"
 3903              		.file 13 "../LibA5T1000/util.h"
 3904              		.file 14 "src/stis.h"
 3905              		.file 15 "src/emvtrans.h"
 3906              		.file 16 "src/ctlcfg.h"
 3907              		.file 17 "c:\\devtools\\gcc_v49_2014q4\\arm-none-eabi\\include\\stdio.h"
 3908              		.file 18 "<built-in>"
 3909              		.file 19 "src/comm.h"
 3910              		.file 20 "src/termdata.h"
 3911              		.file 21 "src/kbdutil.h"