ARM GAS  C:\Users\AHMED~1.ELE\AppData\Local\Temp\ccpjtoUe.s 			page 1


   1              		.syntax unified
   2              		.cpu cortex-a5
   3              		.fpu softvfp
   4              		.eabi_attribute 20, 1
   5              		.eabi_attribute 21, 1
   6              		.eabi_attribute 23, 3
   7              		.eabi_attribute 24, 1
   8              		.eabi_attribute 25, 1
   9              		.eabi_attribute 26, 1
  10              		.eabi_attribute 30, 4
  11              		.eabi_attribute 34, 0
  12              		.eabi_attribute 18, 4
  13              		.thumb
  14              		.file	"param.c"
  15              		.text
  16              	.Ltext0:
  17              		.cfi_sections	.debug_frame
  18              		.section	.text.CheckNodeName,"ax",%progbits
  19              		.align	1
  20              		.global	CheckNodeName
  21              		.thumb
  22              		.thumb_func
  23              		.type	CheckNodeName, %function
  24              	CheckNodeName:
  25              	.LFB0:
  26              		.file 1 "src/param.c"
   1:src/param.c   **** //-----------------------------------------------------------------------------
   2:src/param.c   **** //  File          : param.c
   3:src/param.c   **** //  Module        :
   4:src/param.c   **** //  Description   : Graphic Libary Test Program.
   5:src/param.c   **** //  Author        : Lewis
   6:src/param.c   **** //  Notes         :
   7:src/param.c   **** //
   8:src/param.c   **** // ============================================================================
   9:src/param.c   **** // | Naming conventions                                                       |
  10:src/param.c   **** // | ~~~~~~~~~~~~~~~~~~                                                       |
  11:src/param.c   **** // |         Struct/Array : Leading s                                         |
  12:src/param.c   **** // |             Constant : Leading K                                         |
  13:src/param.c   **** // |      Global Variable : Leading g  (variable use outside one C file)      |
  14:src/param.c   **** // |                                                                          |
  15:src/param.c   **** // |   BYTE( 8 Bits) size : Leading b                                         |
  16:src/param.c   **** // |   CHAR( 8 Bits) size : Leading c                                         |
  17:src/param.c   **** // |   WORD(16 Bits) size : Leading w                                         |
  18:src/param.c   **** // |  DWORD(32 Bits) size : Leading d                                         |
  19:src/param.c   **** // |    int(32 Bits) size : Leading i                                         |
  20:src/param.c   **** // | DDWORD(64 Bits) size : Leading dd                                        |
  21:src/param.c   **** // |              Pointer : Leading p                                         |
  22:src/param.c   **** // |                                                                          |
  23:src/param.c   **** // |    Function argument : Leading a                                         |
  24:src/param.c   **** // |       Local Variable : All lower case                                    |
  25:src/param.c   **** // |                                                                          |
  26:src/param.c   **** // | Examples:                                                                |
  27:src/param.c   **** // |                Array : Leading s, (sb = arrary of byte, etc)             |
  28:src/param.c   **** // |              Pointer : Leading p, (pb = pointer of byte, etc)            |
  29:src/param.c   **** // ============================================================================
  30:src/param.c   **** //
  31:src/param.c   **** //  Date          Who         Action
ARM GAS  C:\Users\AHMED~1.ELE\AppData\Local\Temp\ccpjtoUe.s 			page 2


  32:src/param.c   **** //  ------------  ----------- -------------------------------------------------
  33:src/param.c   **** //  08 Jul  2009  Lewis       Initial Version.
  34:src/param.c   **** //-----------------------------------------------------------------------------
  35:src/param.c   **** #include <stdio.h>
  36:src/param.c   **** #include <string.h>
  37:src/param.c   **** #include "system.h"
  38:src/param.c   **** #include "midware.h"
  39:src/param.c   **** #include "sysutil.h"
  40:src/param.c   **** #include "kbdutil.h"
  41:src/param.c   **** #include "util.h"
  42:src/param.c   **** #include "stis.h"
  43:src/param.c   **** #include "emv2dll.h"
  44:src/param.c   **** #include "emvcl2dll.h"
  45:src/param.c   **** #include "emvtrans.h"
  46:src/param.c   **** #include "ftptran.h"
  47:src/param.c   **** #include "mxml.h"
  48:src/param.c   **** #include "termdata.h"
  49:src/param.c   **** #include "ctlcfg.h"
  50:src/param.c   **** #include "toggle.h"
  51:src/param.c   **** #include "comm.h"
  52:src/param.c   **** 
  53:src/param.c   **** //-----------------------------------------------------------------------------
  54:src/param.c   **** // Defines
  55:src/param.c   **** //-----------------------------------------------------------------------------
  56:src/param.c   **** enum {
  57:src/param.c   ****   ST_TERM_CLEAR=0,
  58:src/param.c   ****   ST_TERM_CFG,
  59:src/param.c   ****   ST_TERM_ACQ,
  60:src/param.c   ****   ST_TERM_ISSUER,
  61:src/param.c   ****   ST_TERM_CARD,
  62:src/param.c   ****   ST_EMV_APP,
  63:src/param.c   ****   ST_CTL_APP,
  64:src/param.c   ****   ST_EMV_KEY,
  65:src/param.c   ****   ST_END,
  66:src/param.c   **** };
  67:src/param.c   **** enum {
  68:src/param.c   ****   TYPE_ASC,
  69:src/param.c   ****   TYPE_VAL,
  70:src/param.c   ****   TYPE_HEX,
  71:src/param.c   ****   TYPE_DDWORD,
  72:src/param.c   **** };
  73:src/param.c   **** 
  74:src/param.c   **** struct XML_PARAM {
  75:src/param.c   ****   BYTE *sbXmlTag;
  76:src/param.c   ****   BYTE bType;
  77:src/param.c   ****   WORD wSize;
  78:src/param.c   **** };
  79:src/param.c   **** 
  80:src/param.c   **** typedef struct {
  81:src/param.c   ****   BYTE      b_key_type;
  82:src/param.c   ****   KEY_ROOM  s_key_room;
  83:src/param.c   **** } KEY_ROOM_T;
  84:src/param.c   **** 
  85:src/param.c   **** //-----------------------------------------------------------------------------
  86:src/param.c   **** // Constant
  87:src/param.c   **** //-----------------------------------------------------------------------------
  88:src/param.c   **** const struct XML_PARAM TermCfgParam[] = {
ARM GAS  C:\Users\AHMED~1.ELE\AppData\Local\Temp\ccpjtoUe.s 			page 3


  89:src/param.c   ****   { "dll",                  TYPE_VAL,   1   },        //BYTE b_dll;
  90:src/param.c   ****   { "init_control",         TYPE_VAL,   1   },        //BYTE b_init_control;
  91:src/param.c   ****   { "rsvd0",                TYPE_HEX,   1   },        //BYTE b_rsvd0;
  92:src/param.c   ****   { "rsvd1",                TYPE_HEX,   1   },        //BYTE b_rsvd1;
  93:src/param.c   ****   { "date_time",            TYPE_HEX,   6   },        //BYTE sb_date_time[6];
  94:src/param.c   ****   { "dial_option",          TYPE_HEX,   1   },        //BYTE b_dial_option;
  95:src/param.c   ****   { "password",             TYPE_ASC,   2   },        //BYTE sb_password[2];
  96:src/param.c   ****   { "help_tel",             TYPE_ASC,   12  },        //BYTE sb_help_tel[12];
  97:src/param.c   ****   { "Option-TermCfg",       TYPE_HEX,   4   },        //BYTE sb_options[4];
  98:src/param.c   ****   { "NameLoc",              TYPE_ASC,   46  },        //BYTE sb_name_loc[46];
  99:src/param.c   ****   { "MerchantName",         TYPE_ASC,   23  },        //BYTE sb_dflt_name[23];
 100:src/param.c   ****   { "CurrSym",              TYPE_ASC,   1   },        //BYTE b_currency;
 101:src/param.c   ****   { "TransAmntLen",         TYPE_VAL,   1   },        //BYTE b_trans_amount_len;
 102:src/param.c   ****   { "DecPoint",             TYPE_VAL,   1   },        //BYTE b_decimal_pos;
 103:src/param.c   ****   { "rsvd2",                TYPE_HEX,   1   },        //BYTE b_rsvd2;
 104:src/param.c   ****   { "SettAmntLen",          TYPE_VAL,   1   },        //BYTE b_settle_amount_len;
 105:src/param.c   ****   { "CurrName",             TYPE_ASC,   3   },        //BYTE sb_currency_name[3];
 106:src/param.c   ****   { "local_option",         TYPE_HEX,   1   },        //BYTE b_local_option;
 107:src/param.c   ****   { "additional_prompt",    TYPE_ASC,   20  },        //BYTE sb_additional_prompt[20];
 108:src/param.c   ****   { "Reserved-TermCfg",     TYPE_HEX,   30  },        //BYTE sb_reserved[30];
 109:src/param.c   ****   { "PswRefund",            TYPE_ASC,   16  },        //BYTE sb_psw_refund[16];
 110:src/param.c   ****   { "PswVoid",              TYPE_ASC,   16  },        //BYTE sb_psw_void[16];
 111:src/param.c   ****   { "apn_username",         TYPE_ASC,   32  },        //BYTE apn_username[32];
 112:src/param.c   ****   { "apn_password",         TYPE_ASC,   32  },        //BYTE apn_password[32];
 113:src/param.c   ****   { "apn2_username",        TYPE_ASC,   32  },        //BYTE apn2_username[32];
 114:src/param.c   ****   { "apn2_password",        TYPE_ASC,   32  },        //BYTE apn2_password[32];
 115:src/param.c   ****   { "apnconfig",            TYPE_ASC,   32  },        //BYTE apnconfig[32];
 116:src/param.c   ****   { "apnconfig2",           TYPE_ASC,   32  },        //BYTE apnconfig2[32];
 117:src/param.c   ****   { "apn2_ip",              TYPE_HEX,   4   },        //BYTE apn2_ip[4];
 118:src/param.c   ****   { "apn2_port",            TYPE_HEX,   2   },        //BYTE apn2_port[2];
 119:src/param.c   ****   { NULL,                   TYPE_ASC,   0   },
 120:src/param.c   **** };
 121:src/param.c   **** 
 122:src/param.c   **** const struct XML_PARAM AcqTableParam[] = {
 123:src/param.c   ****   { "ID",                   TYPE_VAL,   1   },        //BYTE b_id;
 124:src/param.c   ****   { "ProgName",             TYPE_ASC,   10  },        //BYTE sb_program[10];
 125:src/param.c   ****   { "AcqName",              TYPE_ASC,   10  },        //BYTE sb_name[10];
 126:src/param.c   ****   { "PrimTelNo",            TYPE_HEX,   12  },        //BYTE sb_pri_trans_tel[12];
 127:src/param.c   ****   { "PrimTelConnectTO",     TYPE_VAL,   1   },        //BYTE b_pri_trans_conn_time;
 128:src/param.c   ****   { "PrimTelDialAttempt",   TYPE_VAL,   1   },        //BYTE b_pri_trans_redial;
 129:src/param.c   ****   { "SecTelNo",             TYPE_HEX,   12  },        //BYTE sb_sec_trans_tel[12];
 130:src/param.c   ****   { "SecTelConnectTO",      TYPE_VAL,   1   },        //BYTE b_sec_trans_conn_time;
 131:src/param.c   ****   { "SecTelDialAttempt",    TYPE_VAL,   1   },        //BYTE b_sec_trans_redial;
 132:src/param.c   ****   { "pri_settle_tel",       TYPE_HEX,   12  },        //BYTE sb_pri_settle_tel[12];
 133:src/param.c   ****   { "pri_settle_conn_time", TYPE_VAL,   1   },        //BYTE b_pri_settle_conn_time;
 134:src/param.c   ****   { "pri_settle_redial",    TYPE_VAL,   1   },        //BYTE b_pri_settle_redial;
 135:src/param.c   ****   { "sec_settle_tel",       TYPE_HEX,   12  },        //BYTE sb_sec_settle_tel[12];
 136:src/param.c   ****   { "sec_settle_conn_time", TYPE_VAL,   1   },        //BYTE b_sec_settle_conn_time;
 137:src/param.c   ****   { "sec_settle_redial",    TYPE_VAL,   1   },        //BYTE b_sec_settle_redial;
 138:src/param.c   ****   { "ModemMode",            TYPE_VAL,   1   },        //BYTE b_trans_mdm_mode;
 139:src/param.c   ****   { "Option-Acquirer",      TYPE_HEX,   4   },        //BYTE sb_options[4];
 140:src/param.c   ****   { "NII",                  TYPE_HEX,   2   },        //BYTE sb_nii[2];
 141:src/param.c   ****   { "TermID",               TYPE_ASC,   8   },        //BYTE sb_term_id[8];
 142:src/param.c   ****   { "MerchantID",           TYPE_ASC,   15  },        //BYTE sb_acceptor_id[15];
 143:src/param.c   ****   { "HostRspTO",            TYPE_VAL,   1   },        //BYTE b_timeout_val;
 144:src/param.c   ****   { "CurrBatchNo",          TYPE_HEX,   3   },        //BYTE sb_curr_batch_no[3];
 145:src/param.c   ****   { "NextBatchNo",          TYPE_HEX,   3   },        //BYTE sb_next_batch_no[3];
ARM GAS  C:\Users\AHMED~1.ELE\AppData\Local\Temp\ccpjtoUe.s 			page 4


 146:src/param.c   ****   { "visa1_term_id",        TYPE_ASC,   23  },        //BYTE sb_visa1_term_id[23];
 147:src/param.c   ****   { "settle_mdm_mode",      TYPE_VAL,   1   },        //BYTE b_settle_mdm_mode;
 148:src/param.c   **** #if 1
 149:src/param.c   ****   { "Reserved-Acquirer",    TYPE_HEX,   30  },        //BYTE sb_reserved[21];
 150:src/param.c   **** #else
 151:src/param.c   ****   { "Reserved-Acquirer",    TYPE_HEX,   21  },        //BYTE sb_reserved[21];
 152:src/param.c   ****   { "host_type",            TYPE_HEX,   1   },        //BYTE b_host_type;
 153:src/param.c   ****   { "reserved1",            TYPE_HEX,   1   },        //BYTE b_reserved1;
 154:src/param.c   ****   { "ssl_key_idx",          TYPE_HEX,   1   },        //BYTE b_ssl_key_idx;
 155:src/param.c   ****   { "ip",                   TYPE_HEX,   4   },        //BYTE sb_ip[4];
 156:src/param.c   ****   { "port",                 TYPE_HEX,   2   },        //BYTE sb_port[2];
 157:src/param.c   **** #endif
 158:src/param.c   ****   { NULL,                   TYPE_ASC,   0   },
 159:src/param.c   **** };
 160:src/param.c   **** 
 161:src/param.c   **** const struct XML_PARAM IssuerTableParam[] = {
 162:src/param.c   ****   { "ID",                   TYPE_VAL,   1   },        //BYTE b_id;
 163:src/param.c   ****   { "IssName",              TYPE_ASC,   10  },        //BYTE sb_card_name[10];
 164:src/param.c   ****   { "ref_tel_no",           TYPE_ASC,   12  },        //BYTE sb_ref_tel_no[12];
 165:src/param.c   ****   { "Option-Issuer",        TYPE_HEX,   4   },        //BYTE sb_options[4];
 166:src/param.c   ****   { "DefaultAcc",           TYPE_HEX,   1   },        //BYTE b_default_acc;
 167:src/param.c   ****   { "pan_format",           TYPE_HEX,   2   },        //BYTE sb_pan_format[2];
 168:src/param.c   ****   { "FlrLimit",             TYPE_HEX,   2   },        //BYTE sb_floor_limit[2];
 169:src/param.c   ****   { "Reserved-Issuer",      TYPE_HEX,   20  },        //BYTE sb_reserved[20];
 170:src/param.c   ****   { NULL,                   TYPE_ASC,   0   },
 171:src/param.c   **** };
 172:src/param.c   **** 
 173:src/param.c   **** const struct XML_PARAM CardTableParam[] = {
 174:src/param.c   ****   { "CardRangeLow",         TYPE_HEX,   5   },        //BYTE sb_pan_range_low[5];
 175:src/param.c   ****   { "CardRangeHigh",        TYPE_HEX,   5   },        //BYTE sb_pan_range_high[5];
 176:src/param.c   ****   { "IssuerID",             TYPE_VAL,   1   },        //BYTE b_issuer_id;
 177:src/param.c   ****   { "AcquirerID",           TYPE_VAL,   1   },        //BYTE b_acquirer_id;
 178:src/param.c   ****   { "pan_len",              TYPE_VAL,   1   },        //BYTE b_pan_len;
 179:src/param.c   ****   { "reserved",             TYPE_HEX,   20  },        //BYTE sb_reserved[20];
 180:src/param.c   ****   { NULL,                   TYPE_ASC,   0   },
 181:src/param.c   **** };
 182:src/param.c   **** 
 183:src/param.c   **** const struct XML_PARAM EmvAppParam[] = {
 184:src/param.c   ****   { "eType",                TYPE_HEX,   1   },        //BYTE eType;
 185:src/param.c   ****   { "eBitField",            TYPE_HEX,   1   },        //BYTE eBitField;
 186:src/param.c   ****   { "eRSBThresh",           TYPE_VAL,   4   },        //DWORD eRSBThresh;
 187:src/param.c   ****   { "eRSTarget",            TYPE_VAL,   1   },        //BYTE eRSTarget;
 188:src/param.c   ****   { "eRSBMax",              TYPE_VAL,   1   },        //BYTE eRSBMax;
 189:src/param.c   ****   { "eTACDenial",           TYPE_HEX,   5   },        //BYTE eTACDenial[5];
 190:src/param.c   ****   { "eTACOnline",           TYPE_HEX,   5   },        //BYTE eTACOnline[5];
 191:src/param.c   ****   { "eTACDefault",          TYPE_HEX,   5   },        //BYTE eTACDefault[5];
 192:src/param.c   ****   { "eACFG",                TYPE_HEX,   200 },        //BYTE eACFG[APPL_TLEN];
 193:src/param.c   ****   { NULL,                   TYPE_ASC,   0   },
 194:src/param.c   **** };
 195:src/param.c   **** 
 196:src/param.c   **** const struct XML_PARAM CtlAppParam[] = {
 197:src/param.c   ****   { "bEType",               TYPE_HEX,   1   },        //BYTE  bEType;
 198:src/param.c   ****   { "bBitField",            TYPE_HEX,   1   },        //BYTE  bBitField;            
 199:src/param.c   ****   { "dRSBThresh",           TYPE_VAL,   4   },        //DWORD dRSBThresh;
 200:src/param.c   ****   { "bRSTarget",            TYPE_VAL,   1   },        //BYTE  bRSTarget;
 201:src/param.c   ****   { "bRSBMax",              TYPE_VAL,   1   },        //BYTE  bRSBMax;
 202:src/param.c   ****   { "abTACDenial",          TYPE_HEX,   5   },        //BYTE  abTACDenial[5];
ARM GAS  C:\Users\AHMED~1.ELE\AppData\Local\Temp\ccpjtoUe.s 			page 5


 203:src/param.c   ****   { "abTACOnline",          TYPE_HEX,   5   },        //BYTE  abTACOnline[5];
 204:src/param.c   ****   { "abTACDefault",         TYPE_HEX,   5   },        //BYTE  abTACDefault[5];
 205:src/param.c   ****   { "abTLV",                TYPE_HEX,   512 },        //BYTE  abTLV[CLCFGP_TLV_LEN];
 206:src/param.c   ****   { NULL,                   TYPE_ASC,   0   },
 207:src/param.c   **** };
 208:src/param.c   **** 
 209:src/param.c   **** const struct XML_PARAM EmvKeyParam[] = {
 210:src/param.c   ****   { "eKeyIdx",              TYPE_HEX,   1   },        //BYTE KeyIdx;
 211:src/param.c   ****   { "eRID",                 TYPE_HEX,   5   },        //BYTE RID[5];
 212:src/param.c   ****   { "eExponent",            TYPE_HEX,   4   },        //DWORD Exponent;
 213:src/param.c   ****   { "eKeySize",             TYPE_VAL,   4   },        //DWORD KeySize;
 214:src/param.c   ****   { "eKey",                 TYPE_HEX,   256 },        //BYTE Key[256];
 215:src/param.c   ****   { "eExpiryDate",          TYPE_HEX,   2   },        //WORD ExpiryDate;  // in MMYY
 216:src/param.c   ****   { "eEffectiveDate",       TYPE_HEX,   2   },        //WORD EffectDate;  // in MMYY
 217:src/param.c   ****   { "eKeyType",             TYPE_HEX,   1   },        //To distinguish keys for EMV contact & conta
 218:src/param.c   ****   { NULL,                   TYPE_ASC,   0   },
 219:src/param.c   **** };
 220:src/param.c   **** 
 221:src/param.c   **** //-----------------------------------------------------------------------------
 222:src/param.c   **** // Globals
 223:src/param.c   **** //-----------------------------------------------------------------------------
 224:src/param.c   **** static BYTE gCardIdx;
 225:src/param.c   **** 
 226:src/param.c   ****   
 227:src/param.c   **** //*****************************************************************************
 228:src/param.c   **** //  Function        : CheckNodeName
 229:src/param.c   **** //  Description     : Parse node data at current level.
 230:src/param.c   **** //  Input           : N/A
 231:src/param.c   **** //  Return          : N/A
 232:src/param.c   **** //  Note            : N/A
 233:src/param.c   **** //  Globals Changed : N/A
 234:src/param.c   **** //*****************************************************************************
 235:src/param.c   **** BOOLEAN CheckNodeName(struct XML_PARAM *aXmlParam, BYTE *aName, BYTE *aType, WORD *aSize, WORD *aOf
 236:src/param.c   **** {
  27              		.loc 1 236 0
  28              		.cfi_startproc
  29              		@ args = 4, pretend = 0, frame = 0
  30              		@ frame_needed = 0, uses_anonymous_args = 0
  31              	.LVL0:
  32 0000 2DE9F843 		push	{r3, r4, r5, r6, r7, r8, r9, lr}
  33              		.cfi_def_cfa_offset 32
  34              		.cfi_offset 3, -32
  35              		.cfi_offset 4, -28
  36              		.cfi_offset 5, -24
  37              		.cfi_offset 6, -20
  38              		.cfi_offset 7, -16
  39              		.cfi_offset 8, -12
  40              		.cfi_offset 9, -8
  41              		.cfi_offset 14, -4
  42              		.loc 1 236 0
  43 0004 0446     		mov	r4, r0
  44 0006 8946     		mov	r9, r1
  45 0008 9046     		mov	r8, r2
  46 000a 1F46     		mov	r7, r3
  47 000c 089E     		ldr	r6, [sp, #32]
 237:src/param.c   ****   //BYTE buf[32];
 238:src/param.c   ****   WORD offset=0;
ARM GAS  C:\Users\AHMED~1.ELE\AppData\Local\Temp\ccpjtoUe.s 			page 6


  48              		.loc 1 238 0
  49 000e 0025     		movs	r5, #0
  50              	.LVL1:
  51              	.L2:
 239:src/param.c   ****   
 240:src/param.c   ****   while (aXmlParam->sbXmlTag != NULL) {
  52              		.loc 1 240 0
  53 0010 2068     		ldr	r0, [r4]
  54 0012 88B1     		cbz	r0, .L10
 241:src/param.c   ****     if (!strcmp(aXmlParam->sbXmlTag, aName))
  55              		.loc 1 241 0
  56 0014 4946     		mov	r1, r9
  57 0016 FFF7FEFF 		bl	strcmp
  58              	.LVL2:
  59 001a 20B1     		cbz	r0, .L3
 242:src/param.c   ****       break;
 243:src/param.c   ****     offset += aXmlParam->wSize;
  60              		.loc 1 243 0
  61 001c E388     		ldrh	r3, [r4, #6]
 244:src/param.c   ****     aXmlParam++;
  62              		.loc 1 244 0
  63 001e 0834     		adds	r4, r4, #8
  64              	.LVL3:
 243:src/param.c   ****     aXmlParam++;
  65              		.loc 1 243 0
  66 0020 1D44     		add	r5, r5, r3
  67              	.LVL4:
  68 0022 ADB2     		uxth	r5, r5
  69              	.LVL5:
  70 0024 F4E7     		b	.L2
  71              	.L3:
 245:src/param.c   ****   }
 246:src/param.c   ****   if (aXmlParam->sbXmlTag != NULL) {
 247:src/param.c   ****     *aType = aXmlParam->bType;
  72              		.loc 1 247 0
  73 0026 2379     		ldrb	r3, [r4, #4]	@ zero_extendqisi2
 248:src/param.c   ****     *aSize = aXmlParam->wSize;
 249:src/param.c   ****     *aOffset = offset;
 250:src/param.c   **** #if 0
 251:src/param.c   ****     SprintfMW(buf, "ChkF[%d]:\n%s", offset, aXmlParam->sbXmlTag);
 252:src/param.c   ****     DispLineMW(buf, MW_LINE1, MW_CLRDISP|MW_SPFONT);
 253:src/param.c   ****     WaitKey(KBD_TIMEOUT);
 254:src/param.c   **** #endif
 255:src/param.c   ****     return TRUE;
  74              		.loc 1 255 0
  75 0028 0120     		movs	r0, #1
 247:src/param.c   ****     *aSize = aXmlParam->wSize;
  76              		.loc 1 247 0
  77 002a 88F80030 		strb	r3, [r8]
 248:src/param.c   ****     *aSize = aXmlParam->wSize;
  78              		.loc 1 248 0
  79 002e E388     		ldrh	r3, [r4, #6]
  80 0030 3B80     		strh	r3, [r7]	@ movhi
 249:src/param.c   **** #if 0
  81              		.loc 1 249 0
  82 0032 3580     		strh	r5, [r6]	@ movhi
  83              		.loc 1 255 0
ARM GAS  C:\Users\AHMED~1.ELE\AppData\Local\Temp\ccpjtoUe.s 			page 7


  84 0034 BDE8F883 		pop	{r3, r4, r5, r6, r7, r8, r9, pc}
  85              	.LVL6:
  86              	.L10:
 256:src/param.c   ****   }
 257:src/param.c   ****   *aType = 0;
  87              		.loc 1 257 0
  88 0038 88F80000 		strb	r0, [r8]
 258:src/param.c   ****   *aSize = 0;
  89              		.loc 1 258 0
  90 003c 3880     		strh	r0, [r7]	@ movhi
 259:src/param.c   ****   *aOffset = 0;
  91              		.loc 1 259 0
  92 003e 3080     		strh	r0, [r6]	@ movhi
 260:src/param.c   ****   return FALSE;
 261:src/param.c   **** }
  93              		.loc 1 261 0
  94 0040 BDE8F883 		pop	{r3, r4, r5, r6, r7, r8, r9, pc}
  95              		.cfi_endproc
  96              	.LFE0:
  97              		.size	CheckNodeName, .-CheckNodeName
  98              		.section	.text.UpdateNodeParam,"ax",%progbits
  99              		.align	1
 100              		.global	UpdateNodeParam
 101              		.thumb
 102              		.thumb_func
 103              		.type	UpdateNodeParam, %function
 104              	UpdateNodeParam:
 105              	.LFB1:
 262:src/param.c   **** //*****************************************************************************
 263:src/param.c   **** //  Function        : UpdateNodeParam
 264:src/param.c   **** //  Description     : Parse node data at current level.
 265:src/param.c   **** //  Input           : N/A
 266:src/param.c   **** //  Return          : N/A
 267:src/param.c   **** //  Note            : N/A
 268:src/param.c   **** //  Globals Changed : N/A
 269:src/param.c   **** //*****************************************************************************
 270:src/param.c   **** BOOLEAN UpdateNodeParam(BYTE *aParamAddr, BYTE aType, WORD aMaxSize, BYTE *aParam)
 271:src/param.c   **** {
 106              		.loc 1 271 0
 107              		.cfi_startproc
 108              		@ args = 0, pretend = 0, frame = 0
 109              		@ frame_needed = 0, uses_anonymous_args = 0
 110              	.LVL7:
 111 0000 2DE9F041 		push	{r4, r5, r6, r7, r8, lr}
 112              		.cfi_def_cfa_offset 24
 113              		.cfi_offset 4, -24
 114              		.cfi_offset 5, -20
 115              		.cfi_offset 6, -16
 116              		.cfi_offset 7, -12
 117              		.cfi_offset 8, -8
 118              		.cfi_offset 14, -4
 119              		.loc 1 271 0
 120 0004 0446     		mov	r4, r0
 272:src/param.c   ****   //BYTE buf[128];
 273:src/param.c   ****   BYTE odd=0;
 274:src/param.c   ****   DDWORD value;
 275:src/param.c   ****   WORD len;
ARM GAS  C:\Users\AHMED~1.ELE\AppData\Local\Temp\ccpjtoUe.s 			page 8


 276:src/param.c   ****   
 277:src/param.c   ****   len = strlen(aParam);
 121              		.loc 1 277 0
 122 0006 1846     		mov	r0, r3
 123              	.LVL8:
 271:src/param.c   ****   //BYTE buf[128];
 124              		.loc 1 271 0
 125 0008 0D46     		mov	r5, r1
 126 000a 1646     		mov	r6, r2
 127 000c 1F46     		mov	r7, r3
 128              		.loc 1 277 0
 129 000e FFF7FEFF 		bl	strlen
 130              	.LVL9:
 131 0012 1FFA80F8 		uxth	r8, r0
 132              	.LVL10:
 278:src/param.c   ****   if (aType == TYPE_ASC) {
 133              		.loc 1 278 0
 134 0016 7DB9     		cbnz	r5, .L12
 135              	.LVL11:
 279:src/param.c   ****     if (aMaxSize < len)
 280:src/param.c   ****       len = aMaxSize;
 281:src/param.c   ****     memset(aParamAddr, ' ', aMaxSize);
 136              		.loc 1 281 0
 137 0018 2021     		movs	r1, #32
 138 001a 3246     		mov	r2, r6
 139 001c 2046     		mov	r0, r4
 140 001e FFF7FEFF 		bl	memset
 141              	.LVL12:
 282:src/param.c   ****     memcpy(aParamAddr, aParam, len);
 142              		.loc 1 282 0
 143 0022 B045     		cmp	r8, r6
 144 0024 4246     		mov	r2, r8
 145 0026 2046     		mov	r0, r4
 146 0028 3946     		mov	r1, r7
 147 002a 28BF     		it	cs
 148 002c 3246     		movcs	r2, r6
 149 002e FFF7FEFF 		bl	memcpy
 150              	.LVL13:
 151              	.L25:
 283:src/param.c   ****   }
 284:src/param.c   ****   else if (aType == TYPE_VAL) {
 285:src/param.c   ****     value = atoi((char *)aParam);
 286:src/param.c   ****     if (aMaxSize == 1) {
 287:src/param.c   ****       // 1 Byte
 288:src/param.c   ****       *aParamAddr = (BYTE)value;
 289:src/param.c   ****     }
 290:src/param.c   ****     else if (aMaxSize == 2) {
 291:src/param.c   ****       // 2 Bytes (WORD)
 292:src/param.c   ****       *aParamAddr = (BYTE)value;
 293:src/param.c   ****       *(aParamAddr+1) = (BYTE)(value>>8);
 294:src/param.c   ****     }
 295:src/param.c   ****     else if (aMaxSize == 4) {
 296:src/param.c   ****       // 4 Bytes (DWORD)
 297:src/param.c   ****       *aParamAddr = (BYTE)value;
 298:src/param.c   ****       *(aParamAddr+1) = (BYTE)(value>>8);
 299:src/param.c   ****       *(aParamAddr+2) = (BYTE)(value>>16);
 300:src/param.c   ****       *(aParamAddr+3) = (BYTE)(value>>24);
ARM GAS  C:\Users\AHMED~1.ELE\AppData\Local\Temp\ccpjtoUe.s 			page 9


 301:src/param.c   ****     }
 302:src/param.c   ****   }
 303:src/param.c   ****   else if (aType == TYPE_HEX) {
 304:src/param.c   ****     if (len%2)
 305:src/param.c   ****       odd = 1;
 306:src/param.c   ****     len /= 2;
 307:src/param.c   ****     if (aMaxSize < len)
 308:src/param.c   ****       len = aMaxSize;
 309:src/param.c   ****     compress(aParamAddr, aParam, len);
 310:src/param.c   ****     if (odd && (len < aMaxSize)) {
 311:src/param.c   ****       aParamAddr[len] = (aParamAddr[len] & 0x0F) | (hex_value(aParam[len*2]) << 4);
 312:src/param.c   ****     }
 313:src/param.c   ****   }
 314:src/param.c   ****   else if (aType == TYPE_DDWORD) {
 315:src/param.c   ****     if (aMaxSize != 8) {
 316:src/param.c   ****       return FALSE;
 317:src/param.c   ****     }
 318:src/param.c   ****     else {
 319:src/param.c   ****       value = decbin8b(aParam, aMaxSize);
 320:src/param.c   ****       *aParamAddr = (BYTE)value;
 321:src/param.c   ****       *(aParamAddr+1) = (BYTE)(value>>8);
 322:src/param.c   ****       *(aParamAddr+2) = (BYTE)(value>>16);
 323:src/param.c   ****       *(aParamAddr+3) = (BYTE)(value>>24);
 324:src/param.c   ****       *(aParamAddr+4) = (BYTE)(value>>32);
 325:src/param.c   ****       *(aParamAddr+5) = (BYTE)(value>>40);
 326:src/param.c   ****       *(aParamAddr+6) = (BYTE)(value>>48);
 327:src/param.c   ****       *(aParamAddr+7) = (BYTE)(value>>56);
 328:src/param.c   ****     }
 329:src/param.c   ****   }
 330:src/param.c   ****   else
 331:src/param.c   ****     return FALSE;
 332:src/param.c   **** 
 333:src/param.c   **** #if 0
 334:src/param.c   ****   SprintfMW(buf, "Upd-%02x[%d|%d]%02X", *aParamAddr, aType, len, aParam[0]);
 335:src/param.c   ****   DispLineMW(buf, MW_LINE3, MW_CLREOL|MW_SPFONT);
 336:src/param.c   ****   WaitKey(KBD_TIMEOUT);
 337:src/param.c   **** #endif
 338:src/param.c   ****   return TRUE;
 152              		.loc 1 338 0
 153 0032 0120     		movs	r0, #1
 154 0034 BDE8F081 		pop	{r4, r5, r6, r7, r8, pc}
 155              	.LVL14:
 156              	.L12:
 284:src/param.c   ****     value = atoi((char *)aParam);
 157              		.loc 1 284 0
 158 0038 012D     		cmp	r5, #1
 159 003a 17D1     		bne	.L14
 285:src/param.c   ****     if (aMaxSize == 1) {
 160              		.loc 1 285 0
 161 003c 3846     		mov	r0, r7
 162 003e FFF7FEFF 		bl	atoi
 163              	.LVL15:
 286:src/param.c   ****       // 1 Byte
 164              		.loc 1 286 0
 165 0042 012E     		cmp	r6, #1
 166 0044 01D1     		bne	.L15
 288:src/param.c   ****     }
ARM GAS  C:\Users\AHMED~1.ELE\AppData\Local\Temp\ccpjtoUe.s 			page 10


 167              		.loc 1 288 0
 168 0046 2070     		strb	r0, [r4]
 169 0048 F3E7     		b	.L25
 170              	.L15:
 290:src/param.c   ****       // 2 Bytes (WORD)
 171              		.loc 1 290 0
 172 004a 022E     		cmp	r6, #2
 173 004c 03D1     		bne	.L16
 292:src/param.c   ****       *(aParamAddr+1) = (BYTE)(value>>8);
 174              		.loc 1 292 0
 175 004e 2070     		strb	r0, [r4]
 293:src/param.c   ****     }
 176              		.loc 1 293 0
 177 0050 000A     		lsrs	r0, r0, #8
 178 0052 6070     		strb	r0, [r4, #1]
 179 0054 EDE7     		b	.L25
 180              	.L16:
 295:src/param.c   ****       // 4 Bytes (DWORD)
 181              		.loc 1 295 0
 182 0056 042E     		cmp	r6, #4
 298:src/param.c   ****       *(aParamAddr+2) = (BYTE)(value>>16);
 183              		.loc 1 298 0
 184 0058 01BF     		itttt	eq
 185 005a 030A     		lsreq	r3, r0, #8
 297:src/param.c   ****       *(aParamAddr+1) = (BYTE)(value>>8);
 186              		.loc 1 297 0
 187 005c 2070     		strbeq	r0, [r4]
 298:src/param.c   ****       *(aParamAddr+2) = (BYTE)(value>>16);
 188              		.loc 1 298 0
 189 005e 6370     		strbeq	r3, [r4, #1]
 299:src/param.c   ****       *(aParamAddr+3) = (BYTE)(value>>24);
 190              		.loc 1 299 0
 191 0060 030C     		lsreq	r3, r0, #16
 300:src/param.c   ****     }
 192              		.loc 1 300 0
 193 0062 02BF     		ittt	eq
 194 0064 000E     		lsreq	r0, r0, #24
 299:src/param.c   ****       *(aParamAddr+3) = (BYTE)(value>>24);
 195              		.loc 1 299 0
 196 0066 A370     		strbeq	r3, [r4, #2]
 300:src/param.c   ****     }
 197              		.loc 1 300 0
 198 0068 E070     		strbeq	r0, [r4, #3]
 199 006a E2E7     		b	.L25
 200              	.L14:
 303:src/param.c   ****     if (len%2)
 201              		.loc 1 303 0
 202 006c 022D     		cmp	r5, #2
 203 006e 19D1     		bne	.L18
 204              	.LVL16:
 306:src/param.c   ****     if (aMaxSize < len)
 205              		.loc 1 306 0
 206 0070 4FEA5805 		lsr	r5, r8, #1
 207              	.LVL17:
 208 0074 B542     		cmp	r5, r6
 209 0076 28BF     		it	cs
 210 0078 3546     		movcs	r5, r6
ARM GAS  C:\Users\AHMED~1.ELE\AppData\Local\Temp\ccpjtoUe.s 			page 11


 211              	.LVL18:
 309:src/param.c   ****     if (odd && (len < aMaxSize)) {
 212              		.loc 1 309 0
 213 007a 2046     		mov	r0, r4
 214 007c 3946     		mov	r1, r7
 215 007e 2A46     		mov	r2, r5
 216 0080 FFF7FEFF 		bl	compress
 217              	.LVL19:
 310:src/param.c   ****       aParamAddr[len] = (aParamAddr[len] & 0x0F) | (hex_value(aParam[len*2]) << 4);
 218              		.loc 1 310 0
 219 0084 18F0010F 		tst	r8, #1
 220 0088 D3D0     		beq	.L25
 310:src/param.c   ****       aParamAddr[len] = (aParamAddr[len] & 0x0F) | (hex_value(aParam[len*2]) << 4);
 221              		.loc 1 310 0 is_stmt 0 discriminator 1
 222 008a B542     		cmp	r5, r6
 223 008c D1D2     		bcs	.L25
 311:src/param.c   ****     }
 224              		.loc 1 311 0 is_stmt 1
 225 008e 17F81500 		ldrb	r0, [r7, r5, lsl #1]	@ zero_extendqisi2
 226 0092 665D     		ldrb	r6, [r4, r5]	@ zero_extendqisi2
 227 0094 FFF7FEFF 		bl	hex_value
 228              	.LVL20:
 229 0098 06F00F06 		and	r6, r6, #15
 230 009c 46EA0010 		orr	r0, r6, r0, lsl #4
 231 00a0 6055     		strb	r0, [r4, r5]
 232 00a2 C6E7     		b	.L25
 233              	.LVL21:
 234              	.L18:
 314:src/param.c   ****     if (aMaxSize != 8) {
 235              		.loc 1 314 0
 236 00a4 032D     		cmp	r5, #3
 237 00a6 14D1     		bne	.L21
 315:src/param.c   ****       return FALSE;
 238              		.loc 1 315 0
 239 00a8 082E     		cmp	r6, #8
 240 00aa 12D1     		bne	.L21
 319:src/param.c   ****       *aParamAddr = (BYTE)value;
 241              		.loc 1 319 0
 242 00ac 3846     		mov	r0, r7
 243 00ae 3146     		mov	r1, r6
 244 00b0 FFF7FEFF 		bl	decbin8b
 245              	.LVL22:
 321:src/param.c   ****       *(aParamAddr+2) = (BYTE)(value>>16);
 246              		.loc 1 321 0
 247 00b4 030A     		lsrs	r3, r0, #8
 320:src/param.c   ****       *(aParamAddr+1) = (BYTE)(value>>8);
 248              		.loc 1 320 0
 249 00b6 2070     		strb	r0, [r4]
 321:src/param.c   ****       *(aParamAddr+2) = (BYTE)(value>>16);
 250              		.loc 1 321 0
 251 00b8 6370     		strb	r3, [r4, #1]
 322:src/param.c   ****       *(aParamAddr+3) = (BYTE)(value>>24);
 252              		.loc 1 322 0
 253 00ba 030C     		lsrs	r3, r0, #16
 324:src/param.c   ****       *(aParamAddr+5) = (BYTE)(value>>40);
 254              		.loc 1 324 0
 255 00bc 2171     		strb	r1, [r4, #4]
ARM GAS  C:\Users\AHMED~1.ELE\AppData\Local\Temp\ccpjtoUe.s 			page 12


 322:src/param.c   ****       *(aParamAddr+3) = (BYTE)(value>>24);
 256              		.loc 1 322 0
 257 00be A370     		strb	r3, [r4, #2]
 325:src/param.c   ****       *(aParamAddr+6) = (BYTE)(value>>48);
 258              		.loc 1 325 0
 259 00c0 0B0A     		lsrs	r3, r1, #8
 323:src/param.c   ****       *(aParamAddr+4) = (BYTE)(value>>32);
 260              		.loc 1 323 0
 261 00c2 000E     		lsrs	r0, r0, #24
 262              	.LVL23:
 325:src/param.c   ****       *(aParamAddr+6) = (BYTE)(value>>48);
 263              		.loc 1 325 0
 264 00c4 6371     		strb	r3, [r4, #5]
 326:src/param.c   ****       *(aParamAddr+7) = (BYTE)(value>>56);
 265              		.loc 1 326 0
 266 00c6 0B0C     		lsrs	r3, r1, #16
 327:src/param.c   ****     }
 267              		.loc 1 327 0
 268 00c8 090E     		lsrs	r1, r1, #24
 323:src/param.c   ****       *(aParamAddr+4) = (BYTE)(value>>32);
 269              		.loc 1 323 0
 270 00ca E070     		strb	r0, [r4, #3]
 326:src/param.c   ****       *(aParamAddr+7) = (BYTE)(value>>56);
 271              		.loc 1 326 0
 272 00cc A371     		strb	r3, [r4, #6]
 327:src/param.c   ****     }
 273              		.loc 1 327 0
 274 00ce E171     		strb	r1, [r4, #7]
 275 00d0 AFE7     		b	.L25
 276              	.L21:
 331:src/param.c   **** 
 277              		.loc 1 331 0
 278 00d2 0020     		movs	r0, #0
 339:src/param.c   **** }
 279              		.loc 1 339 0
 280 00d4 BDE8F081 		pop	{r4, r5, r6, r7, r8, pc}
 281              		.cfi_endproc
 282              	.LFE1:
 283              		.size	UpdateNodeParam, .-UpdateNodeParam
 284              		.section	.text.UpdateParamEmvApp,"ax",%progbits
 285              		.align	1
 286              		.global	UpdateParamEmvApp
 287              		.thumb
 288              		.thumb_func
 289              		.type	UpdateParamEmvApp, %function
 290              	UpdateParamEmvApp:
 291              	.LFB2:
 340:src/param.c   **** //*****************************************************************************
 341:src/param.c   **** //  Function        : UpdateParamEmvApp
 342:src/param.c   **** //  Description     : Parse node data & update APP_CFG structure.
 343:src/param.c   **** //  Input           : N/A
 344:src/param.c   **** //  Return          : N/A
 345:src/param.c   **** //  Note            : N/A
 346:src/param.c   **** //  Globals Changed : N/A
 347:src/param.c   **** //*****************************************************************************
 348:src/param.c   **** BOOLEAN UpdateParamEmvApp(APP_CFG *aAppCfg, struct XML_PARAM *aXmlParam, BYTE *aName, BYTE *aConten
 349:src/param.c   **** {
ARM GAS  C:\Users\AHMED~1.ELE\AppData\Local\Temp\ccpjtoUe.s 			page 13


 292              		.loc 1 349 0
 293              		.cfi_startproc
 294              		@ args = 0, pretend = 0, frame = 0
 295              		@ frame_needed = 0, uses_anonymous_args = 0
 296              	.LVL24:
 297 0000 F8B5     		push	{r3, r4, r5, r6, r7, lr}
 298              		.cfi_def_cfa_offset 24
 299              		.cfi_offset 3, -24
 300              		.cfi_offset 4, -20
 301              		.cfi_offset 5, -16
 302              		.cfi_offset 6, -12
 303              		.cfi_offset 7, -8
 304              		.cfi_offset 14, -4
 305              		.loc 1 349 0
 306 0002 0446     		mov	r4, r0
 307              	.LVL25:
 308 0004 1646     		mov	r6, r2
 309 0006 1D46     		mov	r5, r3
 310 0008 01F10807 		add	r7, r1, #8
 311              	.LVL26:
 312              	.L27:
 350:src/param.c   ****   //BYTE buf[64];
 351:src/param.c   ****   WORD offset=0;
 352:src/param.c   ****   DWORD value, len;
 353:src/param.c   ****   
 354:src/param.c   ****   while (aXmlParam->sbXmlTag != NULL) {
 313              		.loc 1 354 0
 314 000c 57F8080C 		ldr	r0, [r7, #-8]
 315 0010 30B1     		cbz	r0, .L46
 355:src/param.c   ****     if (!strcmp(aXmlParam->sbXmlTag, aName))
 316              		.loc 1 355 0
 317 0012 3146     		mov	r1, r6
 318 0014 FFF7FEFF 		bl	strcmp
 319              	.LVL27:
 320 0018 0837     		adds	r7, r7, #8
 321              	.LVL28:
 322 001a 0028     		cmp	r0, #0
 323 001c F6D1     		bne	.L27
 324 001e 00E0     		b	.L28
 325              	.LVL29:
 326              	.L46:
 327 0020 F8BD     		pop	{r3, r4, r5, r6, r7, pc}
 328              	.LVL30:
 329              	.L28:
 356:src/param.c   ****       break;
 357:src/param.c   ****     offset += aXmlParam->wSize;
 358:src/param.c   ****     aXmlParam++;
 359:src/param.c   ****   }
 360:src/param.c   ****   if (aXmlParam->sbXmlTag != NULL) {
 361:src/param.c   ****     //*aType = aXmlParam->bType;
 362:src/param.c   ****     //*aSize = aXmlParam->wSize;
 363:src/param.c   **** #if 0
 364:src/param.c   ****     SprintfMW(buf, "ChkF[%d]:\n%s", offset, aXmlParam->sbXmlTag);
 365:src/param.c   ****     DispLineMW(buf, MW_LINE1, MW_CLRDISP|MW_SPFONT);
 366:src/param.c   ****     WaitKey(KBD_TIMEOUT);
 367:src/param.c   **** #endif
 368:src/param.c   ****     if (!strcmp(aName, "eType"))
ARM GAS  C:\Users\AHMED~1.ELE\AppData\Local\Temp\ccpjtoUe.s 			page 14


 330              		.loc 1 368 0
 331 0022 3046     		mov	r0, r6
 332 0024 3149     		ldr	r1, .L47
 333 0026 FFF7FEFF 		bl	strcmp
 334              	.LVL31:
 335 002a 08B9     		cbnz	r0, .L42
 369:src/param.c   ****       compress(&aAppCfg->eType, aContent, 1);
 336              		.loc 1 369 0
 337 002c 2046     		mov	r0, r4
 338 002e 05E0     		b	.L45
 339              	.L42:
 370:src/param.c   ****     else if (!strcmp(aName, "eBitField"))
 340              		.loc 1 370 0
 341 0030 3046     		mov	r0, r6
 342 0032 2F49     		ldr	r1, .L47+4
 343 0034 FFF7FEFF 		bl	strcmp
 344              	.LVL32:
 345 0038 18B9     		cbnz	r0, .L31
 371:src/param.c   ****       compress(&aAppCfg->eBitField, aContent, 1);
 346              		.loc 1 371 0
 347 003a 601C     		adds	r0, r4, #1
 348              	.L45:
 349 003c 2946     		mov	r1, r5
 350 003e 0122     		movs	r2, #1
 351 0040 50E0     		b	.L43
 352              	.L31:
 353              	.LVL33:
 354              	.LBB4:
 355              	.LBB5:
 372:src/param.c   ****     else if (!strcmp(aName, "eRSBThresh")) {
 356              		.loc 1 372 0
 357 0042 3046     		mov	r0, r6
 358 0044 2B49     		ldr	r1, .L47+8
 359 0046 FFF7FEFF 		bl	strcmp
 360              	.LVL34:
 361 004a 60B9     		cbnz	r0, .L32
 373:src/param.c   ****       value = atoi((char *)aContent);
 362              		.loc 1 373 0
 363 004c 2846     		mov	r0, r5
 364 004e FFF7FEFF 		bl	atoi
 365              	.LVL35:
 374:src/param.c   ****       aAppCfg->eRSBThresh = value;
 366              		.loc 1 374 0
 367 0052 C0F30723 		ubfx	r3, r0, #8, #8
 368 0056 A070     		strb	r0, [r4, #2]
 369 0058 E370     		strb	r3, [r4, #3]
 370 005a C0F30743 		ubfx	r3, r0, #16, #8
 371 005e 000E     		lsrs	r0, r0, #24
 372              	.LVL36:
 373 0060 2371     		strb	r3, [r4, #4]
 374 0062 6071     		strb	r0, [r4, #5]
 375 0064 40E0     		b	.L40
 376              	.L32:
 375:src/param.c   ****     }
 376:src/param.c   ****     else if (!strcmp(aName, "eRSTarget")) {
 377              		.loc 1 376 0
 378 0066 3046     		mov	r0, r6
ARM GAS  C:\Users\AHMED~1.ELE\AppData\Local\Temp\ccpjtoUe.s 			page 15


 379 0068 2349     		ldr	r1, .L47+12
 380 006a FFF7FEFF 		bl	strcmp
 381              	.LVL37:
 382 006e 20B9     		cbnz	r0, .L33
 377:src/param.c   ****       value = atoi((char *)aContent);
 383              		.loc 1 377 0
 384 0070 2846     		mov	r0, r5
 385 0072 FFF7FEFF 		bl	atoi
 386              	.LVL38:
 378:src/param.c   ****       aAppCfg->eRSTarget = (BYTE)value;
 387              		.loc 1 378 0
 388 0076 A071     		strb	r0, [r4, #6]
 389 0078 36E0     		b	.L40
 390              	.LVL39:
 391              	.L33:
 379:src/param.c   ****     }
 380:src/param.c   ****     else if (!strcmp(aName, "eRSBMax")) {
 392              		.loc 1 380 0
 393 007a 3046     		mov	r0, r6
 394 007c 1F49     		ldr	r1, .L47+16
 395 007e FFF7FEFF 		bl	strcmp
 396              	.LVL40:
 397 0082 20B9     		cbnz	r0, .L34
 381:src/param.c   ****       value = atoi((char *)aContent);
 398              		.loc 1 381 0
 399 0084 2846     		mov	r0, r5
 400 0086 FFF7FEFF 		bl	atoi
 401              	.LVL41:
 382:src/param.c   ****       aAppCfg->eRSBMax = (BYTE)value;
 402              		.loc 1 382 0
 403 008a E071     		strb	r0, [r4, #7]
 404 008c 2CE0     		b	.L40
 405              	.LVL42:
 406              	.L34:
 383:src/param.c   ****     }
 384:src/param.c   ****     else if (!strcmp(aName, "eTACDenial"))
 407              		.loc 1 384 0
 408 008e 3046     		mov	r0, r6
 409 0090 1B49     		ldr	r1, .L47+20
 410 0092 FFF7FEFF 		bl	strcmp
 411              	.LVL43:
 412 0096 10B9     		cbnz	r0, .L35
 385:src/param.c   ****       compress(aAppCfg->eTACDenial, aContent, 5);
 413              		.loc 1 385 0
 414 0098 04F10800 		add	r0, r4, #8
 415 009c 0EE0     		b	.L44
 416              	.L35:
 386:src/param.c   ****     else if (!strcmp(aName, "eTACOnline"))
 417              		.loc 1 386 0
 418 009e 3046     		mov	r0, r6
 419 00a0 1849     		ldr	r1, .L47+24
 420 00a2 FFF7FEFF 		bl	strcmp
 421              	.LVL44:
 422 00a6 10B9     		cbnz	r0, .L36
 387:src/param.c   ****       compress(aAppCfg->eTACOnline, aContent, 5);
 423              		.loc 1 387 0
 424 00a8 04F10D00 		add	r0, r4, #13
ARM GAS  C:\Users\AHMED~1.ELE\AppData\Local\Temp\ccpjtoUe.s 			page 16


 425 00ac 06E0     		b	.L44
 426              	.L36:
 388:src/param.c   ****     else if (!strcmp(aName, "eTACDefault"))
 427              		.loc 1 388 0
 428 00ae 3046     		mov	r0, r6
 429 00b0 1549     		ldr	r1, .L47+28
 430 00b2 FFF7FEFF 		bl	strcmp
 431              	.LVL45:
 432 00b6 20B9     		cbnz	r0, .L37
 389:src/param.c   ****       compress(aAppCfg->eTACDefault, aContent, 5);
 433              		.loc 1 389 0
 434 00b8 04F11200 		add	r0, r4, #18
 435              	.L44:
 436 00bc 2946     		mov	r1, r5
 437 00be 0522     		movs	r2, #5
 438 00c0 10E0     		b	.L43
 439              	.L37:
 390:src/param.c   ****     else if (!strcmp(aName, "eACFG")) {
 440              		.loc 1 390 0
 441 00c2 3046     		mov	r0, r6
 442 00c4 1149     		ldr	r1, .L47+32
 443 00c6 FFF7FEFF 		bl	strcmp
 444              	.LVL46:
 445 00ca 68B9     		cbnz	r0, .L40
 391:src/param.c   ****       len = strlen(aContent)/2;
 446              		.loc 1 391 0
 447 00cc 2846     		mov	r0, r5
 448 00ce FFF7FEFF 		bl	strlen
 449              	.LVL47:
 392:src/param.c   ****       if (len > sizeof(aAppCfg->eACFG))
 393:src/param.c   ****         len = sizeof(aAppCfg->eACFG);
 394:src/param.c   ****       compress(aAppCfg->eACFG, aContent, len);
 450              		.loc 1 394 0
 451 00d2 2946     		mov	r1, r5
 391:src/param.c   ****       len = strlen(aContent)/2;
 452              		.loc 1 391 0
 453 00d4 4208     		lsrs	r2, r0, #1
 454              	.LVL48:
 455              		.loc 1 394 0
 456 00d6 B2F5007F 		cmp	r2, #512
 457 00da 04F11700 		add	r0, r4, #23
 458 00de 28BF     		it	cs
 459 00e0 4FF40072 		movcs	r2, #512
 460              	.LVL49:
 461              	.L43:
 462 00e4 FFF7FEFF 		bl	compress
 463              	.LVL50:
 464              	.L40:
 390:src/param.c   ****       len = strlen(aContent)/2;
 465              		.loc 1 390 0
 466 00e8 0120     		movs	r0, #1
 467 00ea F8BD     		pop	{r3, r4, r5, r6, r7, pc}
 468              	.LVL51:
 469              	.L48:
 470              		.align	2
 471              	.L47:
 472 00ec 4F000000 		.word	.LC8
ARM GAS  C:\Users\AHMED~1.ELE\AppData\Local\Temp\ccpjtoUe.s 			page 17


 473 00f0 00000000 		.word	.LC0
 474 00f4 0A000000 		.word	.LC1
 475 00f8 15000000 		.word	.LC2
 476 00fc 1F000000 		.word	.LC3
 477 0100 27000000 		.word	.LC4
 478 0104 32000000 		.word	.LC5
 479 0108 3D000000 		.word	.LC6
 480 010c 49000000 		.word	.LC7
 481              	.LBE5:
 482              	.LBE4:
 483              		.cfi_endproc
 484              	.LFE2:
 485              		.size	UpdateParamEmvApp, .-UpdateParamEmvApp
 486              		.section	.text.UpdateParamCtlApp,"ax",%progbits
 487              		.align	1
 488              		.global	UpdateParamCtlApp
 489              		.thumb
 490              		.thumb_func
 491              		.type	UpdateParamCtlApp, %function
 492              	UpdateParamCtlApp:
 493              	.LFB3:
 395:src/param.c   ****     }
 396:src/param.c   ****     
 397:src/param.c   ****     return TRUE;
 398:src/param.c   ****   }
 399:src/param.c   ****   return FALSE;
 400:src/param.c   **** }
 401:src/param.c   **** //*****************************************************************************
 402:src/param.c   **** //  Function        : UpdateParamCtlApp
 403:src/param.c   **** //  Description     : Parse node data & update CL_CFGP structure.
 404:src/param.c   **** //  Input           : N/A
 405:src/param.c   **** //  Return          : N/A
 406:src/param.c   **** //  Note            : N/A
 407:src/param.c   **** //  Globals Changed : N/A
 408:src/param.c   **** //*****************************************************************************
 409:src/param.c   **** BOOLEAN UpdateParamCtlApp(CL_CFGP *aAppCfg, struct XML_PARAM *aXmlParam, BYTE *aName, BYTE *aConten
 410:src/param.c   **** {
 494              		.loc 1 410 0
 495              		.cfi_startproc
 496              		@ args = 0, pretend = 0, frame = 0
 497              		@ frame_needed = 0, uses_anonymous_args = 0
 498              	.LVL52:
 499 0000 F8B5     		push	{r3, r4, r5, r6, r7, lr}
 500              		.cfi_def_cfa_offset 24
 501              		.cfi_offset 3, -24
 502              		.cfi_offset 4, -20
 503              		.cfi_offset 5, -16
 504              		.cfi_offset 6, -12
 505              		.cfi_offset 7, -8
 506              		.cfi_offset 14, -4
 507              		.loc 1 410 0
 508 0002 0446     		mov	r4, r0
 509              	.LVL53:
 510 0004 1646     		mov	r6, r2
 511 0006 1D46     		mov	r5, r3
 512 0008 01F10807 		add	r7, r1, #8
 513              	.LVL54:
ARM GAS  C:\Users\AHMED~1.ELE\AppData\Local\Temp\ccpjtoUe.s 			page 18


 514              	.L50:
 411:src/param.c   ****   //BYTE buf[64];
 412:src/param.c   ****   WORD offset=0;
 413:src/param.c   ****   DWORD value, len;
 414:src/param.c   ****   
 415:src/param.c   ****   while (aXmlParam->sbXmlTag != NULL) {
 515              		.loc 1 415 0
 516 000c 57F8080C 		ldr	r0, [r7, #-8]
 517 0010 30B1     		cbz	r0, .L69
 416:src/param.c   ****     if (!strcmp(aXmlParam->sbXmlTag, aName))
 518              		.loc 1 416 0
 519 0012 3146     		mov	r1, r6
 520 0014 FFF7FEFF 		bl	strcmp
 521              	.LVL55:
 522 0018 0837     		adds	r7, r7, #8
 523              	.LVL56:
 524 001a 0028     		cmp	r0, #0
 525 001c F6D1     		bne	.L50
 526 001e 00E0     		b	.L51
 527              	.LVL57:
 528              	.L69:
 529 0020 F8BD     		pop	{r3, r4, r5, r6, r7, pc}
 530              	.LVL58:
 531              	.L51:
 417:src/param.c   ****       break;
 418:src/param.c   ****     offset += aXmlParam->wSize;
 419:src/param.c   ****     aXmlParam++;
 420:src/param.c   ****   }
 421:src/param.c   ****   if (aXmlParam->sbXmlTag != NULL) {
 422:src/param.c   ****     //*aType = aXmlParam->bType;
 423:src/param.c   ****     //*aSize = aXmlParam->wSize;
 424:src/param.c   **** #if 0
 425:src/param.c   ****     SprintfMW(buf, "ChkF[%d]:\n%s", offset, aXmlParam->sbXmlTag);
 426:src/param.c   ****     DispLineMW(buf, MW_LINE1, MW_CLRDISP|MW_SPFONT);
 427:src/param.c   ****     WaitKey(KBD_TIMEOUT);
 428:src/param.c   **** #endif
 429:src/param.c   ****     if (!strcmp(aName, "bEType"))
 532              		.loc 1 429 0
 533 0022 3046     		mov	r0, r6
 534 0024 3149     		ldr	r1, .L70
 535 0026 FFF7FEFF 		bl	strcmp
 536              	.LVL59:
 537 002a 08B9     		cbnz	r0, .L65
 430:src/param.c   ****       compress(&aAppCfg->bEType, aContent, 1);
 538              		.loc 1 430 0
 539 002c 2046     		mov	r0, r4
 540 002e 05E0     		b	.L68
 541              	.L65:
 431:src/param.c   ****     else if (!strcmp(aName, "bBitField"))
 542              		.loc 1 431 0
 543 0030 3046     		mov	r0, r6
 544 0032 2F49     		ldr	r1, .L70+4
 545 0034 FFF7FEFF 		bl	strcmp
 546              	.LVL60:
 547 0038 18B9     		cbnz	r0, .L54
 432:src/param.c   ****       compress(&aAppCfg->bBitField, aContent, 1);
 548              		.loc 1 432 0
ARM GAS  C:\Users\AHMED~1.ELE\AppData\Local\Temp\ccpjtoUe.s 			page 19


 549 003a 601C     		adds	r0, r4, #1
 550              	.L68:
 551 003c 2946     		mov	r1, r5
 552 003e 0122     		movs	r2, #1
 553 0040 50E0     		b	.L66
 554              	.L54:
 555              	.LVL61:
 556              	.LBB8:
 557              	.LBB9:
 433:src/param.c   ****     else if (!strcmp(aName, "dRSBThresh")) {
 558              		.loc 1 433 0
 559 0042 3046     		mov	r0, r6
 560 0044 2B49     		ldr	r1, .L70+8
 561 0046 FFF7FEFF 		bl	strcmp
 562              	.LVL62:
 563 004a 60B9     		cbnz	r0, .L55
 434:src/param.c   ****       value = atoi((char *)aContent);
 564              		.loc 1 434 0
 565 004c 2846     		mov	r0, r5
 566 004e FFF7FEFF 		bl	atoi
 567              	.LVL63:
 435:src/param.c   ****       aAppCfg->dRSBThresh = value;
 568              		.loc 1 435 0
 569 0052 C0F30723 		ubfx	r3, r0, #8, #8
 570 0056 A070     		strb	r0, [r4, #2]
 571 0058 E370     		strb	r3, [r4, #3]
 572 005a C0F30743 		ubfx	r3, r0, #16, #8
 573 005e 000E     		lsrs	r0, r0, #24
 574              	.LVL64:
 575 0060 2371     		strb	r3, [r4, #4]
 576 0062 6071     		strb	r0, [r4, #5]
 577 0064 40E0     		b	.L63
 578              	.L55:
 436:src/param.c   ****     }
 437:src/param.c   ****     else if (!strcmp(aName, "bRSTarget")) {
 579              		.loc 1 437 0
 580 0066 3046     		mov	r0, r6
 581 0068 2349     		ldr	r1, .L70+12
 582 006a FFF7FEFF 		bl	strcmp
 583              	.LVL65:
 584 006e 20B9     		cbnz	r0, .L56
 438:src/param.c   ****       value = atoi((char *)aContent);
 585              		.loc 1 438 0
 586 0070 2846     		mov	r0, r5
 587 0072 FFF7FEFF 		bl	atoi
 588              	.LVL66:
 439:src/param.c   ****       aAppCfg->bRSTarget = (BYTE)value;
 589              		.loc 1 439 0
 590 0076 A071     		strb	r0, [r4, #6]
 591 0078 36E0     		b	.L63
 592              	.LVL67:
 593              	.L56:
 440:src/param.c   ****     }
 441:src/param.c   ****     else if (!strcmp(aName, "bRSBMax")) {
 594              		.loc 1 441 0
 595 007a 3046     		mov	r0, r6
 596 007c 1F49     		ldr	r1, .L70+16
ARM GAS  C:\Users\AHMED~1.ELE\AppData\Local\Temp\ccpjtoUe.s 			page 20


 597 007e FFF7FEFF 		bl	strcmp
 598              	.LVL68:
 599 0082 20B9     		cbnz	r0, .L57
 442:src/param.c   ****       value = atoi((char *)aContent);
 600              		.loc 1 442 0
 601 0084 2846     		mov	r0, r5
 602 0086 FFF7FEFF 		bl	atoi
 603              	.LVL69:
 443:src/param.c   ****       aAppCfg->bRSBMax = (BYTE)value;
 604              		.loc 1 443 0
 605 008a E071     		strb	r0, [r4, #7]
 606 008c 2CE0     		b	.L63
 607              	.LVL70:
 608              	.L57:
 444:src/param.c   ****     }
 445:src/param.c   ****     else if (!strcmp(aName, "abTACDenial"))
 609              		.loc 1 445 0
 610 008e 3046     		mov	r0, r6
 611 0090 1B49     		ldr	r1, .L70+20
 612 0092 FFF7FEFF 		bl	strcmp
 613              	.LVL71:
 614 0096 10B9     		cbnz	r0, .L58
 446:src/param.c   ****       compress(aAppCfg->abTACDenial, aContent, 5);
 615              		.loc 1 446 0
 616 0098 04F10800 		add	r0, r4, #8
 617 009c 0EE0     		b	.L67
 618              	.L58:
 447:src/param.c   ****     else if (!strcmp(aName, "abTACOnline"))
 619              		.loc 1 447 0
 620 009e 3046     		mov	r0, r6
 621 00a0 1849     		ldr	r1, .L70+24
 622 00a2 FFF7FEFF 		bl	strcmp
 623              	.LVL72:
 624 00a6 10B9     		cbnz	r0, .L59
 448:src/param.c   ****       compress(aAppCfg->abTACOnline, aContent, 5);
 625              		.loc 1 448 0
 626 00a8 04F10D00 		add	r0, r4, #13
 627 00ac 06E0     		b	.L67
 628              	.L59:
 449:src/param.c   ****     else if (!strcmp(aName, "abTACDefault"))
 629              		.loc 1 449 0
 630 00ae 3046     		mov	r0, r6
 631 00b0 1549     		ldr	r1, .L70+28
 632 00b2 FFF7FEFF 		bl	strcmp
 633              	.LVL73:
 634 00b6 20B9     		cbnz	r0, .L60
 450:src/param.c   ****       compress(aAppCfg->abTACDefault, aContent, 5);
 635              		.loc 1 450 0
 636 00b8 04F11200 		add	r0, r4, #18
 637              	.L67:
 638 00bc 2946     		mov	r1, r5
 639 00be 0522     		movs	r2, #5
 640 00c0 10E0     		b	.L66
 641              	.L60:
 451:src/param.c   ****     else if (!strcmp(aName, "abTLV")) {
 642              		.loc 1 451 0
 643 00c2 3046     		mov	r0, r6
ARM GAS  C:\Users\AHMED~1.ELE\AppData\Local\Temp\ccpjtoUe.s 			page 21


 644 00c4 1149     		ldr	r1, .L70+32
 645 00c6 FFF7FEFF 		bl	strcmp
 646              	.LVL74:
 647 00ca 68B9     		cbnz	r0, .L63
 452:src/param.c   ****       len = strlen(aContent)/2;
 648              		.loc 1 452 0
 649 00cc 2846     		mov	r0, r5
 650 00ce FFF7FEFF 		bl	strlen
 651              	.LVL75:
 453:src/param.c   ****       if (len > sizeof(aAppCfg->abTLV))
 454:src/param.c   ****         len = sizeof(aAppCfg->abTLV);
 455:src/param.c   ****       compress(aAppCfg->abTLV, aContent, len);
 652              		.loc 1 455 0
 653 00d2 2946     		mov	r1, r5
 452:src/param.c   ****       len = strlen(aContent)/2;
 654              		.loc 1 452 0
 655 00d4 4208     		lsrs	r2, r0, #1
 656              	.LVL76:
 657              		.loc 1 455 0
 658 00d6 B2F5007F 		cmp	r2, #512
 659 00da 04F11700 		add	r0, r4, #23
 660 00de 28BF     		it	cs
 661 00e0 4FF40072 		movcs	r2, #512
 662              	.LVL77:
 663              	.L66:
 664 00e4 FFF7FEFF 		bl	compress
 665              	.LVL78:
 666              	.L63:
 451:src/param.c   ****       len = strlen(aContent)/2;
 667              		.loc 1 451 0
 668 00e8 0120     		movs	r0, #1
 669 00ea F8BD     		pop	{r3, r4, r5, r6, r7, pc}
 670              	.LVL79:
 671              	.L71:
 672              		.align	2
 673              	.L70:
 674 00ec A7000000 		.word	.LC17
 675 00f0 55000000 		.word	.LC9
 676 00f4 5F000000 		.word	.LC10
 677 00f8 6A000000 		.word	.LC11
 678 00fc 74000000 		.word	.LC12
 679 0100 7C000000 		.word	.LC13
 680 0104 88000000 		.word	.LC14
 681 0108 94000000 		.word	.LC15
 682 010c A1000000 		.word	.LC16
 683              	.LBE9:
 684              	.LBE8:
 685              		.cfi_endproc
 686              	.LFE3:
 687              		.size	UpdateParamCtlApp, .-UpdateParamCtlApp
 688              		.section	.text.UpdateParamEmvKey,"ax",%progbits
 689              		.align	1
 690              		.global	UpdateParamEmvKey
 691              		.thumb
 692              		.thumb_func
 693              		.type	UpdateParamEmvKey, %function
 694              	UpdateParamEmvKey:
ARM GAS  C:\Users\AHMED~1.ELE\AppData\Local\Temp\ccpjtoUe.s 			page 22


 695              	.LFB4:
 456:src/param.c   ****     }
 457:src/param.c   ****     
 458:src/param.c   ****     return TRUE;
 459:src/param.c   ****   }
 460:src/param.c   ****   return FALSE;
 461:src/param.c   **** }
 462:src/param.c   **** //*****************************************************************************
 463:src/param.c   **** //  Function        : UpdateParamEmvKey
 464:src/param.c   **** //  Description     : Parse node data & update KEY_ROOM structure.
 465:src/param.c   **** //  Input           : N/A
 466:src/param.c   **** //  Return          : N/A
 467:src/param.c   **** //  Note            : N/A
 468:src/param.c   **** //  Globals Changed : N/A
 469:src/param.c   **** //*****************************************************************************
 470:src/param.c   **** BOOLEAN UpdateParamEmvKey(KEY_ROOM_T *aKeyRoom, struct XML_PARAM *aXmlParam, BYTE *aName, BYTE *aCo
 471:src/param.c   **** {
 696              		.loc 1 471 0
 697              		.cfi_startproc
 698              		@ args = 0, pretend = 0, frame = 64
 699              		@ frame_needed = 0, uses_anonymous_args = 0
 700              	.LVL80:
 701 0000 F0B5     		push	{r4, r5, r6, r7, lr}
 702              		.cfi_def_cfa_offset 20
 703              		.cfi_offset 4, -20
 704              		.cfi_offset 5, -16
 705              		.cfi_offset 6, -12
 706              		.cfi_offset 7, -8
 707              		.cfi_offset 14, -4
 708 0002 0646     		mov	r6, r0
 709              	.LVL81:
 710 0004 91B0     		sub	sp, sp, #68
 711              		.cfi_def_cfa_offset 88
 712              		.loc 1 471 0
 713 0006 1546     		mov	r5, r2
 714 0008 1C46     		mov	r4, r3
 715 000a 01F10807 		add	r7, r1, #8
 716              	.LVL82:
 717              	.L73:
 472:src/param.c   ****   BYTE buf[64];
 473:src/param.c   ****   WORD offset=0;
 474:src/param.c   ****   DWORD value, len;
 475:src/param.c   ****   
 476:src/param.c   ****   while (aXmlParam->sbXmlTag != NULL) {
 718              		.loc 1 476 0
 719 000e 57F8080C 		ldr	r0, [r7, #-8]
 720 0012 0028     		cmp	r0, #0
 721 0014 68D0     		beq	.L86
 477:src/param.c   ****     if (!strcmp(aXmlParam->sbXmlTag, aName))
 722              		.loc 1 477 0
 723 0016 2946     		mov	r1, r5
 724 0018 FFF7FEFF 		bl	strcmp
 725              	.LVL83:
 726 001c 0837     		adds	r7, r7, #8
 727              	.LVL84:
 728 001e 0028     		cmp	r0, #0
 729 0020 F5D1     		bne	.L73
ARM GAS  C:\Users\AHMED~1.ELE\AppData\Local\Temp\ccpjtoUe.s 			page 23


 478:src/param.c   ****       break;
 479:src/param.c   ****     offset += aXmlParam->wSize;
 480:src/param.c   ****     aXmlParam++;
 481:src/param.c   ****   }
 482:src/param.c   ****   if (aXmlParam->sbXmlTag != NULL) {
 483:src/param.c   ****     //*aType = aXmlParam->bType;
 484:src/param.c   ****     //*aSize = aXmlParam->wSize;
 485:src/param.c   **** #if 0
 486:src/param.c   ****     SprintfMW(buf, "ChkF[%d]:\n%s", offset, aXmlParam->sbXmlTag);
 487:src/param.c   ****     DispLineMW(buf, MW_LINE1, MW_CLRDISP|MW_SPFONT);
 488:src/param.c   ****     WaitKey(KBD_TIMEOUT);
 489:src/param.c   **** #endif
 490:src/param.c   ****     if (!strcmp(aName, "eKeyIdx"))
 730              		.loc 1 490 0
 731 0022 2846     		mov	r0, r5
 732 0024 3149     		ldr	r1, .L91
 733 0026 FFF7FEFF 		bl	strcmp
 734              	.LVL85:
 735 002a 08B9     		cbnz	r0, .L87
 491:src/param.c   ****       compress(&aKeyRoom->s_key_room.KeyIdx, aContent, 1);
 736              		.loc 1 491 0
 737 002c 301D     		adds	r0, r6, #4
 738 002e 56E0     		b	.L89
 739              	.L87:
 492:src/param.c   ****     else if (!strcmp(aName, "eRID"))
 740              		.loc 1 492 0
 741 0030 2846     		mov	r0, r5
 742 0032 2F49     		ldr	r1, .L91+4
 743 0034 FFF7FEFF 		bl	strcmp
 744              	.LVL86:
 745 0038 18B9     		cbnz	r0, .L77
 493:src/param.c   ****       compress(aKeyRoom->s_key_room.RID, aContent, 5);
 746              		.loc 1 493 0
 747 003a 701D     		adds	r0, r6, #5
 748 003c 2146     		mov	r1, r4
 749 003e 0522     		movs	r2, #5
 750 0040 4FE0     		b	.L88
 751              	.L77:
 752              	.LVL87:
 753              	.LBB12:
 754              	.LBB13:
 494:src/param.c   ****     else if (!strcmp(aName, "eExponent")) {
 755              		.loc 1 494 0
 756 0042 2846     		mov	r0, r5
 757 0044 2B49     		ldr	r1, .L91+8
 758 0046 FFF7FEFF 		bl	strcmp
 759              	.LVL88:
 760 004a A0B9     		cbnz	r0, .L78
 495:src/param.c   ****       compress(buf, aContent, 4);
 761              		.loc 1 495 0
 762 004c 0422     		movs	r2, #4
 763 004e 6846     		mov	r0, sp
 764 0050 2146     		mov	r1, r4
 765 0052 FFF7FEFF 		bl	compress
 766              	.LVL89:
 496:src/param.c   ****       aKeyRoom->s_key_room.CAKey.Exponent = (buf[0]<<24) + (buf[1]<<16) + (buf[2]<<8) + buf[3];
 767              		.loc 1 496 0
ARM GAS  C:\Users\AHMED~1.ELE\AppData\Local\Temp\ccpjtoUe.s 			page 24


 768 0056 9DF80130 		ldrb	r3, [sp, #1]	@ zero_extendqisi2
 769 005a 9DF80020 		ldrb	r2, [sp]	@ zero_extendqisi2
 770 005e 1B04     		lsls	r3, r3, #16
 771 0060 03EB0263 		add	r3, r3, r2, lsl #24
 772 0064 9DF80220 		ldrb	r2, [sp, #2]	@ zero_extendqisi2
 773 0068 03EB0223 		add	r3, r3, r2, lsl #8
 774 006c 9DF80320 		ldrb	r2, [sp, #3]	@ zero_extendqisi2
 775 0070 1344     		add	r3, r3, r2
 776 0072 F360     		str	r3, [r6, #12]
 777 0074 37E0     		b	.L79
 778              	.L78:
 497:src/param.c   ****     }
 498:src/param.c   ****     else if (!strcmp(aName, "eKeySize")) {
 779              		.loc 1 498 0
 780 0076 2846     		mov	r0, r5
 781 0078 1F49     		ldr	r1, .L91+12
 782 007a FFF7FEFF 		bl	strcmp
 783              	.LVL90:
 784 007e 20B9     		cbnz	r0, .L80
 499:src/param.c   ****       value = atoi((char *)aContent);
 785              		.loc 1 499 0
 786 0080 2046     		mov	r0, r4
 787 0082 FFF7FEFF 		bl	atoi
 788              	.LVL91:
 500:src/param.c   ****       aKeyRoom->s_key_room.CAKey.KeySize = value;
 789              		.loc 1 500 0
 790 0086 3061     		str	r0, [r6, #16]
 791 0088 2DE0     		b	.L79
 792              	.LVL92:
 793              	.L80:
 501:src/param.c   ****     }
 502:src/param.c   ****     else if (!strcmp(aName, "eKey")) {
 794              		.loc 1 502 0
 795 008a 2846     		mov	r0, r5
 796 008c 1B49     		ldr	r1, .L91+16
 797 008e FFF7FEFF 		bl	strcmp
 798              	.LVL93:
 799 0092 60B9     		cbnz	r0, .L81
 503:src/param.c   ****       len = strlen(aContent)/2;
 800              		.loc 1 503 0
 801 0094 2046     		mov	r0, r4
 802 0096 FFF7FEFF 		bl	strlen
 803              	.LVL94:
 504:src/param.c   ****       if (len > sizeof(aKeyRoom->s_key_room.CAKey.Key))
 505:src/param.c   ****         len = sizeof(aKeyRoom->s_key_room.CAKey.Key);
 506:src/param.c   ****       compress(aKeyRoom->s_key_room.CAKey.Key, aContent, len);
 804              		.loc 1 506 0
 805 009a 2146     		mov	r1, r4
 503:src/param.c   ****       len = strlen(aContent)/2;
 806              		.loc 1 503 0
 807 009c 4208     		lsrs	r2, r0, #1
 808              	.LVL95:
 809              		.loc 1 506 0
 810 009e B2F5807F 		cmp	r2, #256
 811 00a2 06F11400 		add	r0, r6, #20
 812 00a6 28BF     		it	cs
 813 00a8 4FF48072 		movcs	r2, #256
ARM GAS  C:\Users\AHMED~1.ELE\AppData\Local\Temp\ccpjtoUe.s 			page 25


 814              	.LVL96:
 815 00ac 19E0     		b	.L88
 816              	.L81:
 507:src/param.c   ****     }
 508:src/param.c   ****     else if (!strcmp(aName, "eExpiryDate"))
 817              		.loc 1 508 0
 818 00ae 2846     		mov	r0, r5
 819 00b0 1349     		ldr	r1, .L91+20
 820 00b2 FFF7FEFF 		bl	strcmp
 821              	.LVL97:
 822 00b6 10B9     		cbnz	r0, .L82
 509:src/param.c   ****       compress((BYTE *)&aKeyRoom->s_key_room.ExpiryDate, aContent, 2);
 823              		.loc 1 509 0
 824 00b8 06F58A70 		add	r0, r6, #276
 825 00bc 06E0     		b	.L90
 826              	.L82:
 510:src/param.c   ****     else if (!strcmp(aName, "eEffectiveDate"))
 827              		.loc 1 510 0
 828 00be 2846     		mov	r0, r5
 829 00c0 1049     		ldr	r1, .L91+24
 830 00c2 FFF7FEFF 		bl	strcmp
 831              	.LVL98:
 832 00c6 20B9     		cbnz	r0, .L83
 511:src/param.c   ****       compress((BYTE *)&aKeyRoom->s_key_room.EffectDate, aContent, 2);
 833              		.loc 1 511 0
 834 00c8 06F58B70 		add	r0, r6, #278
 835              	.L90:
 836 00cc 2146     		mov	r1, r4
 837 00ce 0222     		movs	r2, #2
 838 00d0 07E0     		b	.L88
 839              	.L83:
 512:src/param.c   ****     else if (!strcmp(aName, "eKeyType"))
 840              		.loc 1 512 0
 841 00d2 2846     		mov	r0, r5
 842 00d4 0C49     		ldr	r1, .L91+28
 843 00d6 FFF7FEFF 		bl	strcmp
 844              	.LVL99:
 845 00da 20B9     		cbnz	r0, .L79
 513:src/param.c   ****       compress(&aKeyRoom->b_key_type, aContent, 1);
 846              		.loc 1 513 0
 847 00dc 3046     		mov	r0, r6
 848              	.LVL100:
 849              	.L89:
 850 00de 2146     		mov	r1, r4
 851 00e0 0122     		movs	r2, #1
 852              	.LVL101:
 853              	.L88:
 854 00e2 FFF7FEFF 		bl	compress
 855              	.LVL102:
 856              	.L79:
 857 00e6 0120     		movs	r0, #1
 858              	.LVL103:
 859              	.L86:
 860              	.LBE13:
 861              	.LBE12:
 514:src/param.c   ****     
 515:src/param.c   ****     return TRUE;
ARM GAS  C:\Users\AHMED~1.ELE\AppData\Local\Temp\ccpjtoUe.s 			page 26


 516:src/param.c   ****   }
 517:src/param.c   ****   return FALSE;
 518:src/param.c   **** }
 862              		.loc 1 518 0
 863 00e8 11B0     		add	sp, sp, #68
 864              		.cfi_def_cfa_offset 20
 865              		@ sp needed
 866 00ea F0BD     		pop	{r4, r5, r6, r7, pc}
 867              	.LVL104:
 868              	.L92:
 869              		.align	2
 870              	.L91:
 871 00ec EF000000 		.word	.LC25
 872 00f0 AE000000 		.word	.LC18
 873 00f4 B3000000 		.word	.LC19
 874 00f8 BD000000 		.word	.LC20
 875 00fc C6000000 		.word	.LC21
 876 0100 CB000000 		.word	.LC22
 877 0104 D7000000 		.word	.LC23
 878 0108 E6000000 		.word	.LC24
 879              		.cfi_endproc
 880              	.LFE4:
 881              		.size	UpdateParamEmvKey, .-UpdateParamEmvKey
 882              		.section	.text.ParseTermCfg,"ax",%progbits
 883              		.align	1
 884              		.global	ParseTermCfg
 885              		.thumb
 886              		.thumb_func
 887              		.type	ParseTermCfg, %function
 888              	ParseTermCfg:
 889              	.LFB5:
 519:src/param.c   **** //*****************************************************************************
 520:src/param.c   **** //  Function        : ParseTermCfg
 521:src/param.c   **** //  Description     : Parse node data at current level.
 522:src/param.c   **** //  Input           : N/A
 523:src/param.c   **** //  Return          : N/A
 524:src/param.c   **** //  Note            : N/A
 525:src/param.c   **** //  Globals Changed : N/A
 526:src/param.c   **** //*****************************************************************************
 527:src/param.c   **** mxml_node_t *ParseTermCfg(mxml_node_t *aTree, mxml_node_t *aCurrNode, mxml_node_t *aEndNode)
 528:src/param.c   **** {
 890              		.loc 1 528 0
 891              		.cfi_startproc
 892              		@ args = 0, pretend = 0, frame = 8
 893              		@ frame_needed = 0, uses_anonymous_args = 0
 894              	.LVL105:
 895 0000 2DE9FF41 		push	{r0, r1, r2, r3, r4, r5, r6, r7, r8, lr}
 896              		.cfi_def_cfa_offset 40
 897              		.cfi_offset 4, -24
 898              		.cfi_offset 5, -20
 899              		.cfi_offset 6, -16
 900              		.cfi_offset 7, -12
 901              		.cfi_offset 8, -8
 902              		.cfi_offset 14, -4
 903              		.loc 1 528 0
 904 0004 0746     		mov	r7, r0
 905 0006 0E46     		mov	r6, r1
ARM GAS  C:\Users\AHMED~1.ELE\AppData\Local\Temp\ccpjtoUe.s 			page 27


 529:src/param.c   ****   BYTE buf[256];
 530:src/param.c   ****   BYTE *string;
 531:src/param.c   ****   BYTE n_type;
 532:src/param.c   ****   WORD n_size, n_offset;
 533:src/param.c   ****   mxml_node_t *curr_node, *end_node;
 534:src/param.c   ****   struct TERM_CFG *pTable;
 535:src/param.c   **** 
 536:src/param.c   ****   if ((pTable = (struct TERM_CFG *)MallocMW(sizeof(struct TERM_CFG))) == NULL)
 906              		.loc 1 536 0
 907 0008 9220     		movs	r0, #146
 908              	.LVL106:
 909 000a 4FF4C471 		mov	r1, #392
 910              	.LVL107:
 911 000e FFF7FEFF 		bl	sys_func1
 912              	.LVL108:
 913 0012 0446     		mov	r4, r0
 914 0014 0028     		cmp	r0, #0
 915 0016 3ED0     		beq	.L99
 537:src/param.c   ****     return FALSE;
 538:src/param.c   ****   memset(pTable, 0, sizeof(struct TERM_CFG));
 916              		.loc 1 538 0
 917 0018 0021     		movs	r1, #0
 918 001a 4FF4C472 		mov	r2, #392
 919 001e FFF7FEFF 		bl	memset
 920              	.LVL109:
 539:src/param.c   ****   
 540:src/param.c   ****   end_node = mxmlWalkNext(aCurrNode, aTree, MXML_NO_DESCEND);
 921              		.loc 1 540 0
 922 0022 3046     		mov	r0, r6
 923 0024 3946     		mov	r1, r7
 924 0026 0022     		movs	r2, #0
 925 0028 FFF7FEFF 		bl	mxmlWalkNext
 926              	.LVL110:
 927 002c 8046     		mov	r8, r0
 928              	.LVL111:
 929              	.L95:
 541:src/param.c   ****   while (1) {
 542:src/param.c   ****     curr_node = mxmlWalkNext(aCurrNode, aTree, MXML_DESCEND);
 930              		.loc 1 542 0
 931 002e 3046     		mov	r0, r6
 932 0030 3946     		mov	r1, r7
 933 0032 0122     		movs	r2, #1
 934 0034 FFF7FEFF 		bl	mxmlWalkNext
 935              	.LVL112:
 543:src/param.c   ****     if (curr_node == end_node)
 936              		.loc 1 543 0
 937 0038 4045     		cmp	r0, r8
 542:src/param.c   ****     if (curr_node == end_node)
 938              		.loc 1 542 0
 939 003a 0546     		mov	r5, r0
 940              	.LVL113:
 941              		.loc 1 543 0
 942 003c 22D0     		beq	.L96
 943              	.LVL114:
 544:src/param.c   ****       break;                    // break if end of current level
 545:src/param.c   ****     aCurrNode = curr_node;
 546:src/param.c   ****     if (aCurrNode != NULL) {
ARM GAS  C:\Users\AHMED~1.ELE\AppData\Local\Temp\ccpjtoUe.s 			page 28


 944              		.loc 1 546 0
 945 003e 00B3     		cbz	r0, .L100
 547:src/param.c   ****       if (aCurrNode->type == MXML_TEXT)
 548:src/param.c   ****         continue;
 549:src/param.c   ****       if (aCurrNode->type == MXML_ELEMENT) {
 946              		.loc 1 549 0
 947 0040 90F90010 		ldrsb	r1, [r0]
 948 0044 09B1     		cbz	r1, .L107
 949              	.LVL115:
 950              	.L98:
 528:src/param.c   ****   BYTE buf[256];
 951              		.loc 1 528 0
 952 0046 2E46     		mov	r6, r5
 953 0048 F1E7     		b	.L95
 954              	.LVL116:
 955              	.L107:
 550:src/param.c   ****         //SprintfMW(buf, "n->name: %s", aCurrNode->value.element.name);
 551:src/param.c   ****         string = (BYTE *)mxmlGetText(aCurrNode, NULL);
 956              		.loc 1 551 0
 957 004a FFF7FEFF 		bl	mxmlGetText
 958              	.LVL117:
 552:src/param.c   ****         if (string != NULL) {
 959              		.loc 1 552 0
 960 004e 0646     		mov	r6, r0
 961 0050 0028     		cmp	r0, #0
 962 0052 F8D0     		beq	.L98
 553:src/param.c   **** #if 0
 554:src/param.c   ****           SprintfMW(buf, "n->text[%d]: %s", strlen(string), string);
 555:src/param.c   ****           DispLineMW(buf, MW_LINE1, MW_CLRDISP|MW_SPFONT);
 556:src/param.c   ****           WaitKey(KBD_TIMEOUT);
 557:src/param.c   **** #endif
 558:src/param.c   ****           if (CheckNodeName((struct XML_PARAM *)&TermCfgParam[0], aCurrNode->value.element.name, &n
 963              		.loc 1 558 0
 964 0054 0DF10E03 		add	r3, sp, #14
 965 0058 1048     		ldr	r0, .L108
 966              	.LVL118:
 967 005a 0093     		str	r3, [sp]
 968 005c 0DF10B02 		add	r2, sp, #11
 969 0060 A969     		ldr	r1, [r5, #24]
 970 0062 03AB     		add	r3, sp, #12
 971 0064 FFF7FEFF 		bl	CheckNodeName
 972              	.LVL119:
 973 0068 0028     		cmp	r0, #0
 974 006a ECD0     		beq	.L98
 559:src/param.c   ****             // XML tag found in Term Cfg Table
 560:src/param.c   ****             UpdateNodeParam((BYTE *)pTable+n_offset, n_type, n_size, string);
 975              		.loc 1 560 0
 976 006c BDF80E00 		ldrh	r0, [sp, #14]
 977 0070 9DF80B10 		ldrb	r1, [sp, #11]	@ zero_extendqisi2
 978 0074 2044     		add	r0, r0, r4
 979 0076 BDF80C20 		ldrh	r2, [sp, #12]
 980 007a 3346     		mov	r3, r6
 981 007c FFF7FEFF 		bl	UpdateNodeParam
 982              	.LVL120:
 983 0080 E1E7     		b	.L98
 984              	.LVL121:
 985              	.L100:
ARM GAS  C:\Users\AHMED~1.ELE\AppData\Local\Temp\ccpjtoUe.s 			page 29


 986 0082 0646     		mov	r6, r0
 987              	.LVL122:
 988              	.L96:
 561:src/param.c   ****           }
 562:src/param.c   ****         }
 563:src/param.c   ****       }
 564:src/param.c   ****     }
 565:src/param.c   ****     else {
 566:src/param.c   ****       //DispLineMW("End of Walk!", MW_LINE5, MW_CLRDISP|MW_CENTER|MW_SMFONT);
 567:src/param.c   ****       //WaitKey(KBD_TIMEOUT);
 568:src/param.c   ****       break;
 569:src/param.c   ****     }
 570:src/param.c   ****   }
 571:src/param.c   ****   UpdTermCfg(pTable);
 989              		.loc 1 571 0
 990 0084 2046     		mov	r0, r4
 991              	.LVL123:
 992 0086 FFF7FEFF 		bl	UpdTermCfg
 993              	.LVL124:
 572:src/param.c   ****   FreeMW(pTable);
 994              		.loc 1 572 0
 995 008a 9420     		movs	r0, #148
 996 008c 2146     		mov	r1, r4
 997 008e FFF7FEFF 		bl	sys_func1
 998              	.LVL125:
 573:src/param.c   ****   return aCurrNode;
 999              		.loc 1 573 0
 1000 0092 3046     		mov	r0, r6
 1001 0094 FFE7     		b	.L94
 1002              	.LVL126:
 1003              	.L99:
 1004              	.L94:
 574:src/param.c   **** }
 1005              		.loc 1 574 0
 1006 0096 04B0     		add	sp, sp, #16
 1007              		.cfi_def_cfa_offset 24
 1008              		@ sp needed
 1009 0098 BDE8F081 		pop	{r4, r5, r6, r7, r8, pc}
 1010              	.LVL127:
 1011              	.L109:
 1012              		.align	2
 1013              	.L108:
 1014 009c 00000000 		.word	.LANCHOR0
 1015              		.cfi_endproc
 1016              	.LFE5:
 1017              		.size	ParseTermCfg, .-ParseTermCfg
 1018              		.section	.text.ParseAcquirer,"ax",%progbits
 1019              		.align	1
 1020              		.global	ParseAcquirer
 1021              		.thumb
 1022              		.thumb_func
 1023              		.type	ParseAcquirer, %function
 1024              	ParseAcquirer:
 1025              	.LFB6:
 575:src/param.c   **** //*****************************************************************************
 576:src/param.c   **** //  Function        : ParseAcquirer
 577:src/param.c   **** //  Description     : Parse node data at current level.
ARM GAS  C:\Users\AHMED~1.ELE\AppData\Local\Temp\ccpjtoUe.s 			page 30


 578:src/param.c   **** //  Input           : N/A
 579:src/param.c   **** //  Return          : N/A
 580:src/param.c   **** //  Note            : N/A
 581:src/param.c   **** //  Globals Changed : N/A
 582:src/param.c   **** //*****************************************************************************
 583:src/param.c   **** mxml_node_t *ParseAcquirer(mxml_node_t *aTree, mxml_node_t *aCurrNode, mxml_node_t *aEndNode)
 584:src/param.c   **** {
 1026              		.loc 1 584 0
 1027              		.cfi_startproc
 1028              		@ args = 0, pretend = 0, frame = 8
 1029              		@ frame_needed = 0, uses_anonymous_args = 0
 1030              	.LVL128:
 1031 0000 2DE9FF41 		push	{r0, r1, r2, r3, r4, r5, r6, r7, r8, lr}
 1032              		.cfi_def_cfa_offset 40
 1033              		.cfi_offset 4, -24
 1034              		.cfi_offset 5, -20
 1035              		.cfi_offset 6, -16
 1036              		.cfi_offset 7, -12
 1037              		.cfi_offset 8, -8
 1038              		.cfi_offset 14, -4
 1039              		.loc 1 584 0
 1040 0004 0746     		mov	r7, r0
 1041 0006 0E46     		mov	r6, r1
 585:src/param.c   ****   //BYTE buf[256];
 586:src/param.c   ****   BYTE *string;
 587:src/param.c   ****   BYTE n_type;
 588:src/param.c   ****   WORD n_size, n_offset;
 589:src/param.c   ****   mxml_node_t *curr_node, *end_node;
 590:src/param.c   ****   struct ACQUIRER_TBL *pTable;
 591:src/param.c   **** 
 592:src/param.c   ****   if ((pTable = (struct ACQUIRER_TBL *)MallocMW(sizeof(struct ACQUIRER_TBL))) == NULL)
 1042              		.loc 1 592 0
 1043 0008 9220     		movs	r0, #146
 1044              	.LVL129:
 1045 000a AC21     		movs	r1, #172
 1046              	.LVL130:
 1047 000c FFF7FEFF 		bl	sys_func1
 1048              	.LVL131:
 1049 0010 0446     		mov	r4, r0
 1050 0012 0028     		cmp	r0, #0
 1051 0014 56D0     		beq	.L116
 593:src/param.c   ****     return FALSE;
 594:src/param.c   ****   memset(pTable, 0, sizeof(struct ACQUIRER_TBL));
 1052              		.loc 1 594 0
 1053 0016 0021     		movs	r1, #0
 1054 0018 AC22     		movs	r2, #172
 1055 001a FFF7FEFF 		bl	memset
 1056              	.LVL132:
 595:src/param.c   ****   memset(pTable->sb_pri_trans_tel, 0xFF, sizeof(pTable->sb_pri_trans_tel));
 1057              		.loc 1 595 0
 1058 001e FF21     		movs	r1, #255
 1059 0020 0C22     		movs	r2, #12
 1060 0022 04F11500 		add	r0, r4, #21
 1061 0026 FFF7FEFF 		bl	memset
 1062              	.LVL133:
 596:src/param.c   ****   memset(pTable->sb_sec_trans_tel, 0xFF, sizeof(pTable->sb_sec_trans_tel));
 1063              		.loc 1 596 0
ARM GAS  C:\Users\AHMED~1.ELE\AppData\Local\Temp\ccpjtoUe.s 			page 31


 1064 002a FF21     		movs	r1, #255
 1065 002c 0C22     		movs	r2, #12
 1066 002e 04F12300 		add	r0, r4, #35
 1067 0032 FFF7FEFF 		bl	memset
 1068              	.LVL134:
 597:src/param.c   ****   memset(pTable->sb_pri_settle_tel, 0xFF, sizeof(pTable->sb_pri_settle_tel));
 1069              		.loc 1 597 0
 1070 0036 FF21     		movs	r1, #255
 1071 0038 0C22     		movs	r2, #12
 1072 003a 04F13100 		add	r0, r4, #49
 1073 003e FFF7FEFF 		bl	memset
 1074              	.LVL135:
 598:src/param.c   ****   memset(pTable->sb_sec_settle_tel, 0xFF, sizeof(pTable->sb_sec_settle_tel));
 1075              		.loc 1 598 0
 1076 0042 FF21     		movs	r1, #255
 1077 0044 0C22     		movs	r2, #12
 1078 0046 04F13F00 		add	r0, r4, #63
 1079 004a FFF7FEFF 		bl	memset
 1080              	.LVL136:
 599:src/param.c   ****   
 600:src/param.c   ****   end_node = mxmlWalkNext(aCurrNode, aTree, MXML_NO_DESCEND);
 1081              		.loc 1 600 0
 1082 004e 3046     		mov	r0, r6
 1083 0050 3946     		mov	r1, r7
 1084 0052 0022     		movs	r2, #0
 1085 0054 FFF7FEFF 		bl	mxmlWalkNext
 1086              	.LVL137:
 1087 0058 8046     		mov	r8, r0
 1088              	.LVL138:
 1089              	.L112:
 601:src/param.c   ****   while (1) {
 602:src/param.c   ****     curr_node = mxmlWalkNext(aCurrNode, aTree, MXML_DESCEND);
 1090              		.loc 1 602 0
 1091 005a 3046     		mov	r0, r6
 1092 005c 3946     		mov	r1, r7
 1093 005e 0122     		movs	r2, #1
 1094 0060 FFF7FEFF 		bl	mxmlWalkNext
 1095              	.LVL139:
 603:src/param.c   ****     if (curr_node == end_node)
 1096              		.loc 1 603 0
 1097 0064 4045     		cmp	r0, r8
 602:src/param.c   ****     if (curr_node == end_node)
 1098              		.loc 1 602 0
 1099 0066 0546     		mov	r5, r0
 1100              	.LVL140:
 1101              		.loc 1 603 0
 1102 0068 22D0     		beq	.L113
 1103              	.LVL141:
 604:src/param.c   ****       break;                    // break if end of current level
 605:src/param.c   ****     aCurrNode = curr_node;
 606:src/param.c   ****     if (aCurrNode != NULL) {
 1104              		.loc 1 606 0
 1105 006a 00B3     		cbz	r0, .L117
 607:src/param.c   ****       if (aCurrNode->type == MXML_TEXT)
 608:src/param.c   ****         continue;
 609:src/param.c   ****       if (aCurrNode->type == MXML_ELEMENT) {
 1106              		.loc 1 609 0
ARM GAS  C:\Users\AHMED~1.ELE\AppData\Local\Temp\ccpjtoUe.s 			page 32


 1107 006c 90F90010 		ldrsb	r1, [r0]
 1108 0070 09B1     		cbz	r1, .L124
 1109              	.LVL142:
 1110              	.L115:
 584:src/param.c   ****   //BYTE buf[256];
 1111              		.loc 1 584 0
 1112 0072 2E46     		mov	r6, r5
 1113 0074 F1E7     		b	.L112
 1114              	.LVL143:
 1115              	.L124:
 610:src/param.c   ****         //SprintfMW(buf, "n->name: %s", aCurrNode->value.element.name);
 611:src/param.c   ****         string = (BYTE *)mxmlGetText(aCurrNode, NULL);
 1116              		.loc 1 611 0
 1117 0076 FFF7FEFF 		bl	mxmlGetText
 1118              	.LVL144:
 612:src/param.c   ****         if (string != NULL) {
 1119              		.loc 1 612 0
 1120 007a 0646     		mov	r6, r0
 1121 007c 0028     		cmp	r0, #0
 1122 007e F8D0     		beq	.L115
 613:src/param.c   **** #if 0
 614:src/param.c   ****           SprintfMW(buf, "n->text[%d]: %s", strlen(string), string);
 615:src/param.c   ****           DispLineMW(buf, MW_LINE1, MW_CLRDISP|MW_SPFONT);
 616:src/param.c   ****           WaitKey(KBD_TIMEOUT);
 617:src/param.c   **** #endif
 618:src/param.c   ****           if (CheckNodeName((struct XML_PARAM *)&AcqTableParam[0], aCurrNode->value.element.name, &
 1123              		.loc 1 618 0
 1124 0080 0DF10E03 		add	r3, sp, #14
 1125 0084 1148     		ldr	r0, .L125
 1126              	.LVL145:
 1127 0086 0093     		str	r3, [sp]
 1128 0088 0DF10B02 		add	r2, sp, #11
 1129 008c A969     		ldr	r1, [r5, #24]
 1130 008e 03AB     		add	r3, sp, #12
 1131 0090 FFF7FEFF 		bl	CheckNodeName
 1132              	.LVL146:
 1133 0094 0028     		cmp	r0, #0
 1134 0096 ECD0     		beq	.L115
 619:src/param.c   ****             // XML tag found in Acquirer Table
 620:src/param.c   ****             UpdateNodeParam((BYTE *)pTable+n_offset, n_type, n_size, string);
 1135              		.loc 1 620 0
 1136 0098 BDF80E00 		ldrh	r0, [sp, #14]
 1137 009c 9DF80B10 		ldrb	r1, [sp, #11]	@ zero_extendqisi2
 1138 00a0 2044     		add	r0, r0, r4
 1139 00a2 BDF80C20 		ldrh	r2, [sp, #12]
 1140 00a6 3346     		mov	r3, r6
 1141 00a8 FFF7FEFF 		bl	UpdateNodeParam
 1142              	.LVL147:
 1143 00ac E1E7     		b	.L115
 1144              	.LVL148:
 1145              	.L117:
 1146 00ae 0646     		mov	r6, r0
 1147              	.LVL149:
 1148              	.L113:
 621:src/param.c   ****           }
 622:src/param.c   ****         }
 623:src/param.c   ****       }
ARM GAS  C:\Users\AHMED~1.ELE\AppData\Local\Temp\ccpjtoUe.s 			page 33


 624:src/param.c   ****     }
 625:src/param.c   ****     else {
 626:src/param.c   ****       //DispLineMW("End of Walk!", MW_LINE5, MW_CLRDISP|MW_CENTER|MW_SMFONT);
 627:src/param.c   ****       //WaitKey(KBD_TIMEOUT);
 628:src/param.c   ****       break;
 629:src/param.c   ****     }
 630:src/param.c   ****   }
 631:src/param.c   **** #if 0
 632:src/param.c   ****   SprintfMW(buf, "AcqTable->id=%d", pTable->b_id);
 633:src/param.c   ****   DispLineMW(buf, MW_LINE3, MW_CLREOL|MW_SPFONT);
 634:src/param.c   ****   WaitKey(KBD_TIMEOUT);
 635:src/param.c   **** #endif
 636:src/param.c   ****   UpdAcqTbl(pTable->b_id, pTable);
 1149              		.loc 1 636 0
 1150 00b0 2146     		mov	r1, r4
 1151 00b2 2078     		ldrb	r0, [r4]	@ zero_extendqisi2
 1152              	.LVL150:
 1153 00b4 FFF7FEFF 		bl	UpdAcqTbl
 1154              	.LVL151:
 637:src/param.c   ****   FreeMW(pTable);
 1155              		.loc 1 637 0
 1156 00b8 9420     		movs	r0, #148
 1157 00ba 2146     		mov	r1, r4
 1158 00bc FFF7FEFF 		bl	sys_func1
 1159              	.LVL152:
 638:src/param.c   ****   return aCurrNode;
 1160              		.loc 1 638 0
 1161 00c0 3046     		mov	r0, r6
 1162 00c2 FFE7     		b	.L111
 1163              	.LVL153:
 1164              	.L116:
 1165              	.L111:
 639:src/param.c   **** }
 1166              		.loc 1 639 0
 1167 00c4 04B0     		add	sp, sp, #16
 1168              		.cfi_def_cfa_offset 24
 1169              		@ sp needed
 1170 00c6 BDE8F081 		pop	{r4, r5, r6, r7, r8, pc}
 1171              	.LVL154:
 1172              	.L126:
 1173 00ca 00BF     		.align	2
 1174              	.L125:
 1175 00cc F8000000 		.word	.LANCHOR0+248
 1176              		.cfi_endproc
 1177              	.LFE6:
 1178              		.size	ParseAcquirer, .-ParseAcquirer
 1179              		.section	.text.ParseIssuer,"ax",%progbits
 1180              		.align	1
 1181              		.global	ParseIssuer
 1182              		.thumb
 1183              		.thumb_func
 1184              		.type	ParseIssuer, %function
 1185              	ParseIssuer:
 1186              	.LFB7:
 640:src/param.c   **** //*****************************************************************************
 641:src/param.c   **** //  Function        : ParseIssuer
 642:src/param.c   **** //  Description     : Parse node data at current level.
ARM GAS  C:\Users\AHMED~1.ELE\AppData\Local\Temp\ccpjtoUe.s 			page 34


 643:src/param.c   **** //  Input           : N/A
 644:src/param.c   **** //  Return          : N/A
 645:src/param.c   **** //  Note            : N/A
 646:src/param.c   **** //  Globals Changed : N/A
 647:src/param.c   **** //*****************************************************************************
 648:src/param.c   **** mxml_node_t *ParseIssuer(mxml_node_t *aTree, mxml_node_t *aCurrNode, mxml_node_t *aEndNode)
 649:src/param.c   **** {
 1187              		.loc 1 649 0
 1188              		.cfi_startproc
 1189              		@ args = 0, pretend = 0, frame = 8
 1190              		@ frame_needed = 0, uses_anonymous_args = 0
 1191              	.LVL155:
 1192 0000 2DE9FF41 		push	{r0, r1, r2, r3, r4, r5, r6, r7, r8, lr}
 1193              		.cfi_def_cfa_offset 40
 1194              		.cfi_offset 4, -24
 1195              		.cfi_offset 5, -20
 1196              		.cfi_offset 6, -16
 1197              		.cfi_offset 7, -12
 1198              		.cfi_offset 8, -8
 1199              		.cfi_offset 14, -4
 1200              		.loc 1 649 0
 1201 0004 0746     		mov	r7, r0
 1202 0006 0E46     		mov	r6, r1
 650:src/param.c   ****   //BYTE buf[256];
 651:src/param.c   ****   BYTE *string;
 652:src/param.c   ****   BYTE n_type;
 653:src/param.c   ****   WORD n_size, n_offset;
 654:src/param.c   ****   mxml_node_t *curr_node, *end_node;
 655:src/param.c   ****   struct ISSUER_TBL *pTable;
 656:src/param.c   **** 
 657:src/param.c   ****   if ((pTable = (struct ISSUER_TBL *)MallocMW(sizeof(struct ISSUER_TBL))) == NULL)
 1203              		.loc 1 657 0
 1204 0008 9220     		movs	r0, #146
 1205              	.LVL156:
 1206 000a 3821     		movs	r1, #56
 1207              	.LVL157:
 1208 000c FFF7FEFF 		bl	sys_func1
 1209              	.LVL158:
 1210 0010 0446     		mov	r4, r0
 1211 0012 0028     		cmp	r0, #0
 1212 0014 3ED0     		beq	.L133
 658:src/param.c   ****     return FALSE;
 659:src/param.c   ****   memset(pTable, 0, sizeof(struct ISSUER_TBL));
 1213              		.loc 1 659 0
 1214 0016 0021     		movs	r1, #0
 1215 0018 3822     		movs	r2, #56
 1216 001a FFF7FEFF 		bl	memset
 1217              	.LVL159:
 660:src/param.c   ****   
 661:src/param.c   ****   end_node = mxmlWalkNext(aCurrNode, aTree, MXML_NO_DESCEND);
 1218              		.loc 1 661 0
 1219 001e 3046     		mov	r0, r6
 1220 0020 3946     		mov	r1, r7
 1221 0022 0022     		movs	r2, #0
 1222 0024 FFF7FEFF 		bl	mxmlWalkNext
 1223              	.LVL160:
 1224 0028 8046     		mov	r8, r0
ARM GAS  C:\Users\AHMED~1.ELE\AppData\Local\Temp\ccpjtoUe.s 			page 35


 1225              	.LVL161:
 1226              	.L129:
 662:src/param.c   ****   while (1) {
 663:src/param.c   ****     curr_node = mxmlWalkNext(aCurrNode, aTree, MXML_DESCEND);
 1227              		.loc 1 663 0
 1228 002a 3046     		mov	r0, r6
 1229 002c 3946     		mov	r1, r7
 1230 002e 0122     		movs	r2, #1
 1231 0030 FFF7FEFF 		bl	mxmlWalkNext
 1232              	.LVL162:
 664:src/param.c   ****     if (curr_node == end_node)
 1233              		.loc 1 664 0
 1234 0034 4045     		cmp	r0, r8
 663:src/param.c   ****     if (curr_node == end_node)
 1235              		.loc 1 663 0
 1236 0036 0546     		mov	r5, r0
 1237              	.LVL163:
 1238              		.loc 1 664 0
 1239 0038 22D0     		beq	.L130
 1240              	.LVL164:
 665:src/param.c   ****       break;                    // break if end of current level
 666:src/param.c   ****     aCurrNode = curr_node;
 667:src/param.c   ****     if (aCurrNode != NULL) {
 1241              		.loc 1 667 0
 1242 003a 00B3     		cbz	r0, .L134
 668:src/param.c   ****       if (aCurrNode->type == MXML_TEXT)
 669:src/param.c   ****         continue;
 670:src/param.c   ****       if (aCurrNode->type == MXML_ELEMENT) {
 1243              		.loc 1 670 0
 1244 003c 90F90010 		ldrsb	r1, [r0]
 1245 0040 09B1     		cbz	r1, .L141
 1246              	.LVL165:
 1247              	.L132:
 649:src/param.c   ****   //BYTE buf[256];
 1248              		.loc 1 649 0
 1249 0042 2E46     		mov	r6, r5
 1250 0044 F1E7     		b	.L129
 1251              	.LVL166:
 1252              	.L141:
 671:src/param.c   ****         //SprintfMW(buf, "n->name: %s", aCurrNode->value.element.name);
 672:src/param.c   ****         string = (BYTE *)mxmlGetText(aCurrNode, NULL);
 1253              		.loc 1 672 0
 1254 0046 FFF7FEFF 		bl	mxmlGetText
 1255              	.LVL167:
 673:src/param.c   ****         if (string != NULL) {
 1256              		.loc 1 673 0
 1257 004a 0646     		mov	r6, r0
 1258 004c 0028     		cmp	r0, #0
 1259 004e F8D0     		beq	.L132
 674:src/param.c   **** #if 0
 675:src/param.c   ****           SprintfMW(buf, "Iss->text[%d]: %s", strlen(string), string);
 676:src/param.c   ****           DispLineMW(buf, MW_LINE1, MW_CLRDISP|MW_SPFONT);
 677:src/param.c   ****           WaitKey(KBD_TIMEOUT);
 678:src/param.c   **** #endif
 679:src/param.c   ****           if (CheckNodeName((struct XML_PARAM *)&IssuerTableParam[0], aCurrNode->value.element.name
 1260              		.loc 1 679 0
 1261 0050 0DF10E03 		add	r3, sp, #14
ARM GAS  C:\Users\AHMED~1.ELE\AppData\Local\Temp\ccpjtoUe.s 			page 36


 1262 0054 1148     		ldr	r0, .L142
 1263              	.LVL168:
 1264 0056 0093     		str	r3, [sp]
 1265 0058 0DF10B02 		add	r2, sp, #11
 1266 005c A969     		ldr	r1, [r5, #24]
 1267 005e 03AB     		add	r3, sp, #12
 1268 0060 FFF7FEFF 		bl	CheckNodeName
 1269              	.LVL169:
 1270 0064 0028     		cmp	r0, #0
 1271 0066 ECD0     		beq	.L132
 680:src/param.c   ****             // XML tag found in Issuer Table
 681:src/param.c   ****             UpdateNodeParam((BYTE *)pTable+n_offset, n_type, n_size, string);
 1272              		.loc 1 681 0
 1273 0068 BDF80E00 		ldrh	r0, [sp, #14]
 1274 006c 9DF80B10 		ldrb	r1, [sp, #11]	@ zero_extendqisi2
 1275 0070 2044     		add	r0, r0, r4
 1276 0072 BDF80C20 		ldrh	r2, [sp, #12]
 1277 0076 3346     		mov	r3, r6
 1278 0078 FFF7FEFF 		bl	UpdateNodeParam
 1279              	.LVL170:
 1280 007c E1E7     		b	.L132
 1281              	.LVL171:
 1282              	.L134:
 1283 007e 0646     		mov	r6, r0
 1284              	.LVL172:
 1285              	.L130:
 682:src/param.c   ****           }
 683:src/param.c   ****         }
 684:src/param.c   ****       }
 685:src/param.c   ****     }
 686:src/param.c   ****     else {
 687:src/param.c   ****       //DispLineMW("End of Walk!", MW_LINE5, MW_CLRDISP|MW_CENTER|MW_SMFONT);
 688:src/param.c   ****       //WaitKey(KBD_TIMEOUT);
 689:src/param.c   ****       break;
 690:src/param.c   ****     }
 691:src/param.c   ****   }
 692:src/param.c   ****   UpdIssuerTbl(pTable->b_id, pTable);
 1286              		.loc 1 692 0
 1287 0080 2146     		mov	r1, r4
 1288 0082 2078     		ldrb	r0, [r4]	@ zero_extendqisi2
 1289              	.LVL173:
 1290 0084 FFF7FEFF 		bl	UpdIssuerTbl
 1291              	.LVL174:
 693:src/param.c   ****   FreeMW(pTable);
 1292              		.loc 1 693 0
 1293 0088 9420     		movs	r0, #148
 1294 008a 2146     		mov	r1, r4
 1295 008c FFF7FEFF 		bl	sys_func1
 1296              	.LVL175:
 694:src/param.c   ****   return aCurrNode;
 1297              		.loc 1 694 0
 1298 0090 3046     		mov	r0, r6
 1299 0092 FFE7     		b	.L128
 1300              	.LVL176:
 1301              	.L133:
 1302              	.L128:
 695:src/param.c   **** }
ARM GAS  C:\Users\AHMED~1.ELE\AppData\Local\Temp\ccpjtoUe.s 			page 37


 1303              		.loc 1 695 0
 1304 0094 04B0     		add	sp, sp, #16
 1305              		.cfi_def_cfa_offset 24
 1306              		@ sp needed
 1307 0096 BDE8F081 		pop	{r4, r5, r6, r7, r8, pc}
 1308              	.LVL177:
 1309              	.L143:
 1310 009a 00BF     		.align	2
 1311              	.L142:
 1312 009c D0010000 		.word	.LANCHOR0+464
 1313              		.cfi_endproc
 1314              	.LFE7:
 1315              		.size	ParseIssuer, .-ParseIssuer
 1316              		.section	.text.ParseCard,"ax",%progbits
 1317              		.align	1
 1318              		.global	ParseCard
 1319              		.thumb
 1320              		.thumb_func
 1321              		.type	ParseCard, %function
 1322              	ParseCard:
 1323              	.LFB8:
 696:src/param.c   **** //*****************************************************************************
 697:src/param.c   **** //  Function        : ParseCard
 698:src/param.c   **** //  Description     : Parse node data at current level.
 699:src/param.c   **** //  Input           : N/A
 700:src/param.c   **** //  Return          : N/A
 701:src/param.c   **** //  Note            : N/A
 702:src/param.c   **** //  Globals Changed : N/A
 703:src/param.c   **** //*****************************************************************************
 704:src/param.c   **** mxml_node_t *ParseCard(mxml_node_t *aTree, mxml_node_t *aCurrNode, mxml_node_t *aEndNode)
 705:src/param.c   **** {
 1324              		.loc 1 705 0
 1325              		.cfi_startproc
 1326              		@ args = 0, pretend = 0, frame = 8
 1327              		@ frame_needed = 0, uses_anonymous_args = 0
 1328              	.LVL178:
 1329 0000 2DE9FF41 		push	{r0, r1, r2, r3, r4, r5, r6, r7, r8, lr}
 1330              		.cfi_def_cfa_offset 40
 1331              		.cfi_offset 4, -24
 1332              		.cfi_offset 5, -20
 1333              		.cfi_offset 6, -16
 1334              		.cfi_offset 7, -12
 1335              		.cfi_offset 8, -8
 1336              		.cfi_offset 14, -4
 1337              		.loc 1 705 0
 1338 0004 0746     		mov	r7, r0
 1339 0006 0E46     		mov	r6, r1
 706:src/param.c   ****   //BYTE buf[256];
 707:src/param.c   ****   BYTE *string;
 708:src/param.c   ****   BYTE n_type;
 709:src/param.c   ****   WORD n_size, n_offset;
 710:src/param.c   ****   mxml_node_t *curr_node, *end_node;
 711:src/param.c   ****   struct CARD_TBL *pTable;
 712:src/param.c   **** 
 713:src/param.c   ****   if ((pTable = (struct CARD_TBL *)MallocMW(sizeof(struct CARD_TBL))) == NULL)
 1340              		.loc 1 713 0
 1341 0008 9220     		movs	r0, #146
ARM GAS  C:\Users\AHMED~1.ELE\AppData\Local\Temp\ccpjtoUe.s 			page 38


 1342              	.LVL179:
 1343 000a 2421     		movs	r1, #36
 1344              	.LVL180:
 1345 000c FFF7FEFF 		bl	sys_func1
 1346              	.LVL181:
 1347 0010 0446     		mov	r4, r0
 1348 0012 0028     		cmp	r0, #0
 1349 0014 41D0     		beq	.L150
 714:src/param.c   ****     return FALSE;
 715:src/param.c   ****   memset(pTable, 0, sizeof(struct CARD_TBL));
 1350              		.loc 1 715 0
 1351 0016 0021     		movs	r1, #0
 1352 0018 2422     		movs	r2, #36
 1353 001a FFF7FEFF 		bl	memset
 1354              	.LVL182:
 716:src/param.c   ****   
 717:src/param.c   ****   end_node = mxmlWalkNext(aCurrNode, aTree, MXML_NO_DESCEND);
 1355              		.loc 1 717 0
 1356 001e 3046     		mov	r0, r6
 1357 0020 3946     		mov	r1, r7
 1358 0022 0022     		movs	r2, #0
 1359 0024 FFF7FEFF 		bl	mxmlWalkNext
 1360              	.LVL183:
 1361 0028 8046     		mov	r8, r0
 1362              	.LVL184:
 1363              	.L146:
 718:src/param.c   ****   while (1) {
 719:src/param.c   ****     curr_node = mxmlWalkNext(aCurrNode, aTree, MXML_DESCEND);
 1364              		.loc 1 719 0
 1365 002a 3046     		mov	r0, r6
 1366 002c 3946     		mov	r1, r7
 1367 002e 0122     		movs	r2, #1
 1368 0030 FFF7FEFF 		bl	mxmlWalkNext
 1369              	.LVL185:
 720:src/param.c   ****     if (curr_node == end_node)
 1370              		.loc 1 720 0
 1371 0034 4045     		cmp	r0, r8
 719:src/param.c   ****     if (curr_node == end_node)
 1372              		.loc 1 719 0
 1373 0036 0546     		mov	r5, r0
 1374              	.LVL186:
 1375              		.loc 1 720 0
 1376 0038 22D0     		beq	.L147
 1377              	.LVL187:
 721:src/param.c   ****       break;                    // break if end of current level
 722:src/param.c   ****     aCurrNode = curr_node;
 723:src/param.c   ****     if (aCurrNode != NULL) {
 1378              		.loc 1 723 0
 1379 003a 00B3     		cbz	r0, .L151
 724:src/param.c   ****       if (aCurrNode->type == MXML_TEXT)
 725:src/param.c   ****         continue;
 726:src/param.c   ****       if (aCurrNode->type == MXML_ELEMENT) {
 1380              		.loc 1 726 0
 1381 003c 90F90010 		ldrsb	r1, [r0]
 1382 0040 09B1     		cbz	r1, .L158
 1383              	.LVL188:
 1384              	.L149:
ARM GAS  C:\Users\AHMED~1.ELE\AppData\Local\Temp\ccpjtoUe.s 			page 39


 705:src/param.c   ****   //BYTE buf[256];
 1385              		.loc 1 705 0
 1386 0042 2E46     		mov	r6, r5
 1387 0044 F1E7     		b	.L146
 1388              	.LVL189:
 1389              	.L158:
 727:src/param.c   ****         //SprintfMW(buf, "n->name: %s", aCurrNode->value.element.name);
 728:src/param.c   ****         string = (BYTE *)mxmlGetText(aCurrNode, NULL);
 1390              		.loc 1 728 0
 1391 0046 FFF7FEFF 		bl	mxmlGetText
 1392              	.LVL190:
 729:src/param.c   ****         if (string != NULL) {
 1393              		.loc 1 729 0
 1394 004a 0646     		mov	r6, r0
 1395 004c 0028     		cmp	r0, #0
 1396 004e F8D0     		beq	.L149
 730:src/param.c   **** #if 0
 731:src/param.c   ****           SprintfMW(buf, "Card->text[%d]: %s", strlen(string), string);
 732:src/param.c   ****           DispLineMW(buf, MW_LINE5, MW_CLREOL|MW_SPFONT);
 733:src/param.c   ****           WaitKey(KBD_TIMEOUT);
 734:src/param.c   **** #endif
 735:src/param.c   ****           if (CheckNodeName((struct XML_PARAM *)&CardTableParam[0], aCurrNode->value.element.name, 
 1397              		.loc 1 735 0
 1398 0050 0DF10E03 		add	r3, sp, #14
 1399 0054 1248     		ldr	r0, .L159
 1400              	.LVL191:
 1401 0056 0093     		str	r3, [sp]
 1402 0058 0DF10B02 		add	r2, sp, #11
 1403 005c A969     		ldr	r1, [r5, #24]
 1404 005e 03AB     		add	r3, sp, #12
 1405 0060 FFF7FEFF 		bl	CheckNodeName
 1406              	.LVL192:
 1407 0064 0028     		cmp	r0, #0
 1408 0066 ECD0     		beq	.L149
 736:src/param.c   ****             // XML tag found in Card Table
 737:src/param.c   ****             UpdateNodeParam((BYTE *)pTable+n_offset, n_type, n_size, string);
 1409              		.loc 1 737 0
 1410 0068 BDF80E00 		ldrh	r0, [sp, #14]
 1411 006c 9DF80B10 		ldrb	r1, [sp, #11]	@ zero_extendqisi2
 1412 0070 2044     		add	r0, r0, r4
 1413 0072 BDF80C20 		ldrh	r2, [sp, #12]
 1414 0076 3346     		mov	r3, r6
 1415 0078 FFF7FEFF 		bl	UpdateNodeParam
 1416              	.LVL193:
 1417 007c E1E7     		b	.L149
 1418              	.LVL194:
 1419              	.L151:
 1420 007e 0646     		mov	r6, r0
 1421              	.LVL195:
 1422              	.L147:
 738:src/param.c   ****           }
 739:src/param.c   ****         }
 740:src/param.c   ****       }
 741:src/param.c   ****     }
 742:src/param.c   ****     else {
 743:src/param.c   ****       //DispLineMW("End of Walk!", MW_LINE5, MW_CLRDISP|MW_CENTER|MW_SMFONT);
 744:src/param.c   ****       //WaitKey(KBD_TIMEOUT);
ARM GAS  C:\Users\AHMED~1.ELE\AppData\Local\Temp\ccpjtoUe.s 			page 40


 745:src/param.c   ****       break;
 746:src/param.c   ****     }
 747:src/param.c   ****   }
 748:src/param.c   ****   UpdCardTbl(gCardIdx++, pTable);
 1423              		.loc 1 748 0
 1424 0080 084B     		ldr	r3, .L159+4
 1425 0082 2146     		mov	r1, r4
 1426 0084 1878     		ldrb	r0, [r3]	@ zero_extendqisi2
 1427              	.LVL196:
 1428 0086 421C     		adds	r2, r0, #1
 1429 0088 1A70     		strb	r2, [r3]
 1430 008a FFF7FEFF 		bl	UpdCardTbl
 1431              	.LVL197:
 749:src/param.c   ****   FreeMW(pTable);
 1432              		.loc 1 749 0
 1433 008e 9420     		movs	r0, #148
 1434 0090 2146     		mov	r1, r4
 1435 0092 FFF7FEFF 		bl	sys_func1
 1436              	.LVL198:
 750:src/param.c   ****   return aCurrNode;
 1437              		.loc 1 750 0
 1438 0096 3046     		mov	r0, r6
 1439 0098 FFE7     		b	.L145
 1440              	.LVL199:
 1441              	.L150:
 1442              	.L145:
 751:src/param.c   **** }
 1443              		.loc 1 751 0
 1444 009a 04B0     		add	sp, sp, #16
 1445              		.cfi_def_cfa_offset 24
 1446              		@ sp needed
 1447 009c BDE8F081 		pop	{r4, r5, r6, r7, r8, pc}
 1448              	.LVL200:
 1449              	.L160:
 1450              		.align	2
 1451              	.L159:
 1452 00a0 18020000 		.word	.LANCHOR0+536
 1453 00a4 00000000 		.word	.LANCHOR1
 1454              		.cfi_endproc
 1455              	.LFE8:
 1456              		.size	ParseCard, .-ParseCard
 1457              		.section	.text.ParseEmvApp,"ax",%progbits
 1458              		.align	1
 1459              		.global	ParseEmvApp
 1460              		.thumb
 1461              		.thumb_func
 1462              		.type	ParseEmvApp, %function
 1463              	ParseEmvApp:
 1464              	.LFB9:
 752:src/param.c   **** //*****************************************************************************
 753:src/param.c   **** //  Function        : ParseEmvApp
 754:src/param.c   **** //  Description     : Parse node data at current level.
 755:src/param.c   **** //  Input           : N/A
 756:src/param.c   **** //  Return          : N/A
 757:src/param.c   **** //  Note            : N/A
 758:src/param.c   **** //  Globals Changed : N/A
 759:src/param.c   **** //*****************************************************************************
ARM GAS  C:\Users\AHMED~1.ELE\AppData\Local\Temp\ccpjtoUe.s 			page 41


 760:src/param.c   **** mxml_node_t *ParseEmvApp(mxml_node_t *aTree, mxml_node_t *aCurrNode, mxml_node_t *aEndNode)
 761:src/param.c   **** {
 1465              		.loc 1 761 0
 1466              		.cfi_startproc
 1467              		@ args = 0, pretend = 0, frame = 0
 1468              		@ frame_needed = 0, uses_anonymous_args = 0
 1469              	.LVL201:
 1470 0000 2DE9F041 		push	{r4, r5, r6, r7, r8, lr}
 1471              		.cfi_def_cfa_offset 24
 1472              		.cfi_offset 4, -24
 1473              		.cfi_offset 5, -20
 1474              		.cfi_offset 6, -16
 1475              		.cfi_offset 7, -12
 1476              		.cfi_offset 8, -8
 1477              		.cfi_offset 14, -4
 1478              		.loc 1 761 0
 1479 0004 0746     		mov	r7, r0
 1480 0006 0E46     		mov	r6, r1
 762:src/param.c   ****   //BYTE buf[2048];
 763:src/param.c   ****   BYTE *string;
 764:src/param.c   ****   mxml_node_t *curr_node, *end_node;
 765:src/param.c   ****   APP_CFG *app_cfg;
 766:src/param.c   **** 
 767:src/param.c   ****   if ((app_cfg = (APP_CFG *)MallocMW(sizeof(APP_CFG))) == NULL)
 1481              		.loc 1 767 0
 1482 0008 9220     		movs	r0, #146
 1483              	.LVL202:
 1484 000a 40F21721 		movw	r1, #535
 1485              	.LVL203:
 1486 000e FFF7FEFF 		bl	sys_func1
 1487              	.LVL204:
 1488 0012 0446     		mov	r4, r0
 1489 0014 B8B3     		cbz	r0, .L167
 768:src/param.c   ****     return FALSE;
 769:src/param.c   ****   memset(app_cfg, 0, sizeof(APP_CFG));
 1490              		.loc 1 769 0
 1491 0016 0021     		movs	r1, #0
 1492 0018 40F21722 		movw	r2, #535
 1493 001c FFF7FEFF 		bl	memset
 1494              	.LVL205:
 770:src/param.c   ****   
 771:src/param.c   ****   SetEMVLoaded(0x80);
 1495              		.loc 1 771 0
 1496 0020 8020     		movs	r0, #128
 1497 0022 FFF7FEFF 		bl	SetEMVLoaded
 1498              	.LVL206:
 772:src/param.c   ****   end_node = mxmlWalkNext(aCurrNode, aTree, MXML_NO_DESCEND);
 1499              		.loc 1 772 0
 1500 0026 3046     		mov	r0, r6
 1501 0028 3946     		mov	r1, r7
 1502 002a 0022     		movs	r2, #0
 1503 002c FFF7FEFF 		bl	mxmlWalkNext
 1504              	.LVL207:
 1505 0030 8046     		mov	r8, r0
 1506              	.LVL208:
 1507              	.L163:
 773:src/param.c   ****   while (1) {
ARM GAS  C:\Users\AHMED~1.ELE\AppData\Local\Temp\ccpjtoUe.s 			page 42


 774:src/param.c   ****     curr_node = mxmlWalkNext(aCurrNode, aTree, MXML_DESCEND);
 1508              		.loc 1 774 0
 1509 0032 3046     		mov	r0, r6
 1510 0034 3946     		mov	r1, r7
 1511 0036 0122     		movs	r2, #1
 1512 0038 FFF7FEFF 		bl	mxmlWalkNext
 1513              	.LVL209:
 775:src/param.c   ****     if (curr_node == end_node)
 1514              		.loc 1 775 0
 1515 003c 4045     		cmp	r0, r8
 774:src/param.c   ****     if (curr_node == end_node)
 1516              		.loc 1 774 0
 1517 003e 0546     		mov	r5, r0
 1518              	.LVL210:
 1519              		.loc 1 775 0
 1520 0040 11D0     		beq	.L164
 1521              	.LVL211:
 776:src/param.c   ****       break;                    // break if end of current level
 777:src/param.c   ****     aCurrNode = curr_node;
 778:src/param.c   ****     if (aCurrNode != NULL) {
 1522              		.loc 1 778 0
 1523 0042 78B1     		cbz	r0, .L168
 779:src/param.c   ****       if (aCurrNode->type == MXML_TEXT)
 780:src/param.c   ****         continue;
 781:src/param.c   ****       if (aCurrNode->type == MXML_ELEMENT) {
 1524              		.loc 1 781 0
 1525 0044 90F90010 		ldrsb	r1, [r0]
 1526 0048 09B1     		cbz	r1, .L172
 1527              	.LVL212:
 1528              	.L166:
 761:src/param.c   ****   //BYTE buf[2048];
 1529              		.loc 1 761 0
 1530 004a 2E46     		mov	r6, r5
 1531 004c F1E7     		b	.L163
 1532              	.LVL213:
 1533              	.L172:
 782:src/param.c   ****         //SprintfMW(buf, "n->name: %s", aCurrNode->value.element.name);
 783:src/param.c   ****         string = (BYTE *)mxmlGetText(aCurrNode, NULL);
 1534              		.loc 1 783 0
 1535 004e FFF7FEFF 		bl	mxmlGetText
 1536              	.LVL214:
 784:src/param.c   ****         if (string != NULL) {
 1537              		.loc 1 784 0
 1538 0052 0346     		mov	r3, r0
 1539 0054 0028     		cmp	r0, #0
 1540 0056 F8D0     		beq	.L166
 785:src/param.c   **** #if 0
 786:src/param.c   ****           SprintfMW(buf, "EmvApp->text[%d]: %s", strlen(string), string);
 787:src/param.c   ****           DispLineMW(buf, MW_LINE5, MW_CLREOL|MW_SPFONT);
 788:src/param.c   ****           WaitKey(KBD_TIMEOUT);
 789:src/param.c   **** #endif
 790:src/param.c   ****           UpdateParamEmvApp(app_cfg, (struct XML_PARAM *)&EmvAppParam[0], aCurrNode->value.element.
 1541              		.loc 1 790 0
 1542 0058 2046     		mov	r0, r4
 1543              	.LVL215:
 1544 005a 0C49     		ldr	r1, .L173
 1545 005c AA69     		ldr	r2, [r5, #24]
ARM GAS  C:\Users\AHMED~1.ELE\AppData\Local\Temp\ccpjtoUe.s 			page 43


 1546 005e FFF7FEFF 		bl	UpdateParamEmvApp
 1547              	.LVL216:
 1548 0062 F2E7     		b	.L166
 1549              	.LVL217:
 1550              	.L168:
 1551 0064 0646     		mov	r6, r0
 1552              	.LVL218:
 1553              	.L164:
 791:src/param.c   ****         }
 792:src/param.c   ****       }
 793:src/param.c   ****     }
 794:src/param.c   ****     else {
 795:src/param.c   ****       //DispLineMW("End of Walk!", MW_LINE5, MW_CLRDISP|MW_CENTER|MW_SMFONT);
 796:src/param.c   ****       //WaitKey(KBD_TIMEOUT);
 797:src/param.c   ****       break;
 798:src/param.c   ****     }
 799:src/param.c   ****   }
 800:src/param.c   ****   EMVData2DnloadBuf(IOCMD_LOAD_AID, (BYTE *)app_cfg, sizeof(APP_CFG));
 1554              		.loc 1 800 0
 1555 0066 2146     		mov	r1, r4
 1556 0068 40F21722 		movw	r2, #535
 1557 006c 0420     		movs	r0, #4
 1558              	.LVL219:
 1559 006e FFF7FEFF 		bl	EMVData2DnloadBuf
 1560              	.LVL220:
 801:src/param.c   ****   SetEMVLoaded(0x01); // lower nibble for status
 1561              		.loc 1 801 0
 1562 0072 0120     		movs	r0, #1
 1563 0074 FFF7FEFF 		bl	SetEMVLoaded
 1564              	.LVL221:
 802:src/param.c   ****   FreeMW(app_cfg);
 1565              		.loc 1 802 0
 1566 0078 2146     		mov	r1, r4
 1567 007a 9420     		movs	r0, #148
 1568 007c FFF7FEFF 		bl	sys_func1
 1569              	.LVL222:
 803:src/param.c   ****   return aCurrNode;
 1570              		.loc 1 803 0
 1571 0080 3046     		mov	r0, r6
 1572 0082 BDE8F081 		pop	{r4, r5, r6, r7, r8, pc}
 1573              	.LVL223:
 1574              	.L167:
 804:src/param.c   **** }
 1575              		.loc 1 804 0
 1576 0086 BDE8F081 		pop	{r4, r5, r6, r7, r8, pc}
 1577              	.LVL224:
 1578              	.L174:
 1579 008a 00BF     		.align	2
 1580              	.L173:
 1581 008c 50020000 		.word	.LANCHOR0+592
 1582              		.cfi_endproc
 1583              	.LFE9:
 1584              		.size	ParseEmvApp, .-ParseEmvApp
 1585              		.section	.text.ParseCtlApp,"ax",%progbits
 1586              		.align	1
 1587              		.global	ParseCtlApp
 1588              		.thumb
ARM GAS  C:\Users\AHMED~1.ELE\AppData\Local\Temp\ccpjtoUe.s 			page 44


 1589              		.thumb_func
 1590              		.type	ParseCtlApp, %function
 1591              	ParseCtlApp:
 1592              	.LFB10:
 805:src/param.c   **** //*****************************************************************************
 806:src/param.c   **** //  Function        : ParseEmvApp
 807:src/param.c   **** //  Description     : Parse node data at current level.
 808:src/param.c   **** //  Input           : N/A
 809:src/param.c   **** //  Return          : N/A
 810:src/param.c   **** //  Note            : N/A
 811:src/param.c   **** //  Globals Changed : N/A
 812:src/param.c   **** //*****************************************************************************
 813:src/param.c   **** mxml_node_t *ParseCtlApp(mxml_node_t *aTree, mxml_node_t *aCurrNode, mxml_node_t *aEndNode)
 814:src/param.c   **** {
 1593              		.loc 1 814 0
 1594              		.cfi_startproc
 1595              		@ args = 0, pretend = 0, frame = 0
 1596              		@ frame_needed = 0, uses_anonymous_args = 0
 1597              	.LVL225:
 1598 0000 2DE9F041 		push	{r4, r5, r6, r7, r8, lr}
 1599              		.cfi_def_cfa_offset 24
 1600              		.cfi_offset 4, -24
 1601              		.cfi_offset 5, -20
 1602              		.cfi_offset 6, -16
 1603              		.cfi_offset 7, -12
 1604              		.cfi_offset 8, -8
 1605              		.cfi_offset 14, -4
 1606              		.loc 1 814 0
 1607 0004 0746     		mov	r7, r0
 1608 0006 0E46     		mov	r6, r1
 815:src/param.c   ****   //BYTE buf[2048];
 816:src/param.c   ****   BYTE *string;
 817:src/param.c   ****   mxml_node_t *curr_node, *end_node;
 818:src/param.c   ****   CL_CFGP *app_cfg;
 819:src/param.c   **** 
 820:src/param.c   ****   if ((app_cfg = (CL_CFGP *)MallocMW(sizeof(CL_CFGP))) == NULL)
 1609              		.loc 1 820 0
 1610 0008 9220     		movs	r0, #146
 1611              	.LVL226:
 1612 000a 40F21721 		movw	r1, #535
 1613              	.LVL227:
 1614 000e FFF7FEFF 		bl	sys_func1
 1615              	.LVL228:
 1616 0012 0446     		mov	r4, r0
 1617 0014 B8B3     		cbz	r0, .L181
 821:src/param.c   ****     return FALSE;
 822:src/param.c   ****   memset(app_cfg, 0, sizeof(CL_CFGP));
 1618              		.loc 1 822 0
 1619 0016 0021     		movs	r1, #0
 1620 0018 40F21722 		movw	r2, #535
 1621 001c FFF7FEFF 		bl	memset
 1622              	.LVL229:
 823:src/param.c   ****   
 824:src/param.c   ****   SetCTLLoaded(0x80);
 1623              		.loc 1 824 0
 1624 0020 8020     		movs	r0, #128
 1625 0022 FFF7FEFF 		bl	SetCTLLoaded
ARM GAS  C:\Users\AHMED~1.ELE\AppData\Local\Temp\ccpjtoUe.s 			page 45


 1626              	.LVL230:
 825:src/param.c   ****   end_node = mxmlWalkNext(aCurrNode, aTree, MXML_NO_DESCEND);
 1627              		.loc 1 825 0
 1628 0026 3046     		mov	r0, r6
 1629 0028 3946     		mov	r1, r7
 1630 002a 0022     		movs	r2, #0
 1631 002c FFF7FEFF 		bl	mxmlWalkNext
 1632              	.LVL231:
 1633 0030 8046     		mov	r8, r0
 1634              	.LVL232:
 1635              	.L177:
 826:src/param.c   ****   while (1) {
 827:src/param.c   ****     curr_node = mxmlWalkNext(aCurrNode, aTree, MXML_DESCEND);
 1636              		.loc 1 827 0
 1637 0032 3046     		mov	r0, r6
 1638 0034 3946     		mov	r1, r7
 1639 0036 0122     		movs	r2, #1
 1640 0038 FFF7FEFF 		bl	mxmlWalkNext
 1641              	.LVL233:
 828:src/param.c   ****     if (curr_node == end_node)
 1642              		.loc 1 828 0
 1643 003c 4045     		cmp	r0, r8
 827:src/param.c   ****     if (curr_node == end_node)
 1644              		.loc 1 827 0
 1645 003e 0546     		mov	r5, r0
 1646              	.LVL234:
 1647              		.loc 1 828 0
 1648 0040 11D0     		beq	.L178
 1649              	.LVL235:
 829:src/param.c   ****       break;                    // break if end of current level
 830:src/param.c   ****     aCurrNode = curr_node;
 831:src/param.c   ****     if (aCurrNode != NULL) {
 1650              		.loc 1 831 0
 1651 0042 78B1     		cbz	r0, .L182
 832:src/param.c   ****       if (aCurrNode->type == MXML_TEXT)
 833:src/param.c   ****         continue;
 834:src/param.c   ****       if (aCurrNode->type == MXML_ELEMENT) {
 1652              		.loc 1 834 0
 1653 0044 90F90010 		ldrsb	r1, [r0]
 1654 0048 09B1     		cbz	r1, .L186
 1655              	.LVL236:
 1656              	.L180:
 814:src/param.c   ****   //BYTE buf[2048];
 1657              		.loc 1 814 0
 1658 004a 2E46     		mov	r6, r5
 1659 004c F1E7     		b	.L177
 1660              	.LVL237:
 1661              	.L186:
 835:src/param.c   ****         //SprintfMW(buf, "n->name: %s", aCurrNode->value.element.name);
 836:src/param.c   ****         string = (BYTE *)mxmlGetText(aCurrNode, NULL);
 1662              		.loc 1 836 0
 1663 004e FFF7FEFF 		bl	mxmlGetText
 1664              	.LVL238:
 837:src/param.c   ****         if (string != NULL) {
 1665              		.loc 1 837 0
 1666 0052 0346     		mov	r3, r0
 1667 0054 0028     		cmp	r0, #0
ARM GAS  C:\Users\AHMED~1.ELE\AppData\Local\Temp\ccpjtoUe.s 			page 46


 1668 0056 F8D0     		beq	.L180
 838:src/param.c   **** #if 0
 839:src/param.c   ****           SprintfMW(buf, "CtlApp->text[%d]: %s", strlen(string), string);
 840:src/param.c   ****           DispLineMW(buf, MW_LINE5, MW_CLREOL|MW_SPFONT);
 841:src/param.c   ****           WaitKey(KBD_TIMEOUT);
 842:src/param.c   **** #endif
 843:src/param.c   ****           UpdateParamCtlApp(app_cfg, (struct XML_PARAM *)&CtlAppParam[0], aCurrNode->value.element.
 1669              		.loc 1 843 0
 1670 0058 2046     		mov	r0, r4
 1671              	.LVL239:
 1672 005a 0C49     		ldr	r1, .L187
 1673 005c AA69     		ldr	r2, [r5, #24]
 1674 005e FFF7FEFF 		bl	UpdateParamCtlApp
 1675              	.LVL240:
 1676 0062 F2E7     		b	.L180
 1677              	.LVL241:
 1678              	.L182:
 1679 0064 0646     		mov	r6, r0
 1680              	.LVL242:
 1681              	.L178:
 844:src/param.c   ****         }
 845:src/param.c   ****       }
 846:src/param.c   ****     }
 847:src/param.c   ****     else {
 848:src/param.c   ****       //DispLineMW("End of Walk!", MW_LINE5, MW_CLRDISP|MW_CENTER|MW_SMFONT);
 849:src/param.c   ****       //WaitKey(KBD_TIMEOUT);
 850:src/param.c   ****       break;
 851:src/param.c   ****     }
 852:src/param.c   ****   }
 853:src/param.c   ****   CTLData2DnloadBuf(CLCMD_LOAD_AID, (BYTE *)app_cfg, sizeof(CL_CFGP));
 1682              		.loc 1 853 0
 1683 0066 2146     		mov	r1, r4
 1684 0068 40F21722 		movw	r2, #535
 1685 006c 0420     		movs	r0, #4
 1686              	.LVL243:
 1687 006e FFF7FEFF 		bl	CTLData2DnloadBuf
 1688              	.LVL244:
 854:src/param.c   ****   SetCTLLoaded(0x01); // lower nibble for status
 1689              		.loc 1 854 0
 1690 0072 0120     		movs	r0, #1
 1691 0074 FFF7FEFF 		bl	SetCTLLoaded
 1692              	.LVL245:
 855:src/param.c   ****   FreeMW(app_cfg);
 1693              		.loc 1 855 0
 1694 0078 2146     		mov	r1, r4
 1695 007a 9420     		movs	r0, #148
 1696 007c FFF7FEFF 		bl	sys_func1
 1697              	.LVL246:
 856:src/param.c   ****   return aCurrNode;
 1698              		.loc 1 856 0
 1699 0080 3046     		mov	r0, r6
 1700 0082 BDE8F081 		pop	{r4, r5, r6, r7, r8, pc}
 1701              	.LVL247:
 1702              	.L181:
 857:src/param.c   **** }
 1703              		.loc 1 857 0
 1704 0086 BDE8F081 		pop	{r4, r5, r6, r7, r8, pc}
ARM GAS  C:\Users\AHMED~1.ELE\AppData\Local\Temp\ccpjtoUe.s 			page 47


 1705              	.LVL248:
 1706              	.L188:
 1707 008a 00BF     		.align	2
 1708              	.L187:
 1709 008c A0020000 		.word	.LANCHOR0+672
 1710              		.cfi_endproc
 1711              	.LFE10:
 1712              		.size	ParseCtlApp, .-ParseCtlApp
 1713              		.section	.text.ParseEmvKey,"ax",%progbits
 1714              		.align	1
 1715              		.global	ParseEmvKey
 1716              		.thumb
 1717              		.thumb_func
 1718              		.type	ParseEmvKey, %function
 1719              	ParseEmvKey:
 1720              	.LFB11:
 858:src/param.c   **** //*****************************************************************************
 859:src/param.c   **** //  Function        : ParseEmvKey
 860:src/param.c   **** //  Description     : Parse node data at current level.
 861:src/param.c   **** //  Input           : N/A
 862:src/param.c   **** //  Return          : N/A
 863:src/param.c   **** //  Note            : N/A
 864:src/param.c   **** //  Globals Changed : N/A
 865:src/param.c   **** //*****************************************************************************
 866:src/param.c   **** mxml_node_t *ParseEmvKey(mxml_node_t *aTree, mxml_node_t *aCurrNode, mxml_node_t *aEndNode)
 867:src/param.c   **** {
 1721              		.loc 1 867 0
 1722              		.cfi_startproc
 1723              		@ args = 0, pretend = 0, frame = 0
 1724              		@ frame_needed = 0, uses_anonymous_args = 0
 1725              	.LVL249:
 1726 0000 2DE9F041 		push	{r4, r5, r6, r7, r8, lr}
 1727              		.cfi_def_cfa_offset 24
 1728              		.cfi_offset 4, -24
 1729              		.cfi_offset 5, -20
 1730              		.cfi_offset 6, -16
 1731              		.cfi_offset 7, -12
 1732              		.cfi_offset 8, -8
 1733              		.cfi_offset 14, -4
 1734              		.loc 1 867 0
 1735 0004 0746     		mov	r7, r0
 1736 0006 0E46     		mov	r6, r1
 868:src/param.c   ****   //BYTE buf[2048];
 869:src/param.c   ****   BYTE *string;
 870:src/param.c   ****   mxml_node_t *curr_node, *end_node;
 871:src/param.c   ****   KEY_ROOM_T *key_room;
 872:src/param.c   **** 
 873:src/param.c   ****   if ((key_room = (KEY_ROOM_T *)MallocMW(sizeof(KEY_ROOM_T))) == NULL)
 1737              		.loc 1 873 0
 1738 0008 9220     		movs	r0, #146
 1739              	.LVL250:
 1740 000a 4FF48E71 		mov	r1, #284
 1741              	.LVL251:
 1742 000e FFF7FEFF 		bl	sys_func1
 1743              	.LVL252:
 1744 0012 0446     		mov	r4, r0
 1745 0014 0028     		cmp	r0, #0
ARM GAS  C:\Users\AHMED~1.ELE\AppData\Local\Temp\ccpjtoUe.s 			page 48


 1746 0016 52D0     		beq	.L198
 874:src/param.c   ****     return FALSE;
 875:src/param.c   ****   memset(key_room, 0, sizeof(KEY_ROOM_T));
 1747              		.loc 1 875 0
 1748 0018 0021     		movs	r1, #0
 1749 001a 4FF48E72 		mov	r2, #284
 1750 001e FFF7FEFF 		bl	memset
 1751              	.LVL253:
 876:src/param.c   ****   
 877:src/param.c   ****   SetEMVLoaded(0x40);
 1752              		.loc 1 877 0
 1753 0022 4020     		movs	r0, #64
 1754 0024 FFF7FEFF 		bl	SetEMVLoaded
 1755              	.LVL254:
 878:src/param.c   ****   SetCTLLoaded(0x40);
 1756              		.loc 1 878 0
 1757 0028 4020     		movs	r0, #64
 1758 002a FFF7FEFF 		bl	SetCTLLoaded
 1759              	.LVL255:
 879:src/param.c   ****   end_node = mxmlWalkNext(aCurrNode, aTree, MXML_NO_DESCEND);
 1760              		.loc 1 879 0
 1761 002e 3046     		mov	r0, r6
 1762 0030 3946     		mov	r1, r7
 1763 0032 0022     		movs	r2, #0
 1764 0034 FFF7FEFF 		bl	mxmlWalkNext
 1765              	.LVL256:
 1766 0038 8046     		mov	r8, r0
 1767              	.LVL257:
 1768              	.L191:
 880:src/param.c   ****   while (1) {
 881:src/param.c   ****     curr_node = mxmlWalkNext(aCurrNode, aTree, MXML_DESCEND);
 1769              		.loc 1 881 0
 1770 003a 3046     		mov	r0, r6
 1771 003c 3946     		mov	r1, r7
 1772 003e 0122     		movs	r2, #1
 1773 0040 FFF7FEFF 		bl	mxmlWalkNext
 1774              	.LVL258:
 882:src/param.c   ****     if (curr_node == end_node)
 1775              		.loc 1 882 0
 1776 0044 4045     		cmp	r0, r8
 881:src/param.c   ****     if (curr_node == end_node)
 1777              		.loc 1 881 0
 1778 0046 0546     		mov	r5, r0
 1779              	.LVL259:
 1780              		.loc 1 882 0
 1781 0048 11D0     		beq	.L192
 1782              	.LVL260:
 883:src/param.c   ****       break;                    // break if end of current level
 884:src/param.c   ****     aCurrNode = curr_node;
 885:src/param.c   ****     if (aCurrNode != NULL) {
 1783              		.loc 1 885 0
 1784 004a 78B1     		cbz	r0, .L199
 886:src/param.c   ****       if (aCurrNode->type == MXML_TEXT)
 887:src/param.c   ****         continue;
 888:src/param.c   ****       if (aCurrNode->type == MXML_ELEMENT) {
 1785              		.loc 1 888 0
 1786 004c 90F90010 		ldrsb	r1, [r0]
ARM GAS  C:\Users\AHMED~1.ELE\AppData\Local\Temp\ccpjtoUe.s 			page 49


 1787 0050 09B1     		cbz	r1, .L210
 1788              	.LVL261:
 1789              	.L194:
 867:src/param.c   ****   //BYTE buf[2048];
 1790              		.loc 1 867 0
 1791 0052 2E46     		mov	r6, r5
 1792 0054 F1E7     		b	.L191
 1793              	.LVL262:
 1794              	.L210:
 889:src/param.c   ****         //SprintfMW(buf, "n->name: %s", aCurrNode->value.element.name);
 890:src/param.c   ****         string = (BYTE *)mxmlGetText(aCurrNode, NULL);
 1795              		.loc 1 890 0
 1796 0056 FFF7FEFF 		bl	mxmlGetText
 1797              	.LVL263:
 891:src/param.c   ****         if (string != NULL) {
 1798              		.loc 1 891 0
 1799 005a 0346     		mov	r3, r0
 1800 005c 0028     		cmp	r0, #0
 1801 005e F8D0     		beq	.L194
 892:src/param.c   **** #if 0
 893:src/param.c   ****           SprintfMW(buf, "n->name: %s", aCurrNode->value.element.name);
 894:src/param.c   ****           DispLineMW(buf, MW_LINE4, MW_CLREOL|MW_SPFONT);
 895:src/param.c   ****           SprintfMW(buf, "EmvKey->text[%d]: %s", strlen(string), string);
 896:src/param.c   ****           DispLineMW(buf, MW_LINE5, MW_CLREOL|MW_SPFONT);
 897:src/param.c   ****           WaitKey(KBD_TIMEOUT);
 898:src/param.c   **** #endif
 899:src/param.c   ****           /*
 900:src/param.c   ****           if (CheckNodeName((struct XML_PARAM *)&EmvKeyParam[0], aCurrNode->value.element.name, &n_
 901:src/param.c   ****             // XML tag found in EMVL2 Key Table
 902:src/param.c   ****             UpdateNodeParam((BYTE *)pTable+n_offset, n_type, n_size, string);
 903:src/param.c   ****           }
 904:src/param.c   ****           */
 905:src/param.c   ****           UpdateParamEmvKey(key_room, (struct XML_PARAM *)&EmvKeyParam[0], aCurrNode->value.element
 1802              		.loc 1 905 0
 1803 0060 2046     		mov	r0, r4
 1804              	.LVL264:
 1805 0062 1849     		ldr	r1, .L211
 1806 0064 AA69     		ldr	r2, [r5, #24]
 1807 0066 FFF7FEFF 		bl	UpdateParamEmvKey
 1808              	.LVL265:
 1809 006a F2E7     		b	.L194
 1810              	.LVL266:
 1811              	.L199:
 1812 006c 0646     		mov	r6, r0
 1813              	.LVL267:
 1814              	.L192:
 906:src/param.c   ****         }
 907:src/param.c   ****       }
 908:src/param.c   ****     }
 909:src/param.c   ****     else {
 910:src/param.c   ****       //DispLineMW("End of Walk!", MW_LINE5, MW_CLRDISP|MW_CENTER|MW_SMFONT);
 911:src/param.c   ****       //WaitKey(KBD_TIMEOUT);
 912:src/param.c   ****       break;
 913:src/param.c   ****     }
 914:src/param.c   ****   }
 915:src/param.c   **** #if 0
 916:src/param.c   ****   SprintfMW(buf, "EmvKey[%02x]:\n", key_room->s_key_room.KeyIdx);
ARM GAS  C:\Users\AHMED~1.ELE\AppData\Local\Temp\ccpjtoUe.s 			page 50


 917:src/param.c   ****   DispLineMW(buf, MW_LINE1, MW_CLRDISP|MW_SPFONT);
 918:src/param.c   ****   SprintfMW(buf, "  RID: %02X%02X%02X%02X%02X\n", key_room->s_key_room.RID[0],key_room->s_key_room.
 919:src/param.c   ****                                                   key_room->s_key_room.RID[3],key_room->s_key_room.
 920:src/param.c   ****   DispLineMW(buf, MW_LINE2, MW_SPFONT);
 921:src/param.c   ****   SprintfMW(buf, "  Exp: 0x%X\n", key_room->s_key_room.CAKey.Exponent);
 922:src/param.c   ****   DispLineMW(buf, MW_LINE3, MW_SPFONT);
 923:src/param.c   ****   SprintfMW(buf, "  Size:%d\n", key_room->s_key_room.CAKey.KeySize);
 924:src/param.c   ****   DispLineMW(buf, MW_LINE4, MW_SPFONT);
 925:src/param.c   ****   SprintfMW(buf, "  Key: %02x %02x %02x %02x\n", key_room->s_key_room.CAKey.Key[0],key_room->s_key_
 926:src/param.c   ****                                                  key_room->s_key_room.CAKey.Key[2],key_room->s_key_
 927:src/param.c   ****   DispLineMW(buf, MW_LINE5, MW_SPFONT);
 928:src/param.c   ****   SprintfMW(buf, "  Type:%d\n", key_room->b_key_type);
 929:src/param.c   ****   DispLineMW(buf, MW_LINE6, MW_SPFONT);
 930:src/param.c   ****   WaitKey(KBD_TIMEOUT);
 931:src/param.c   **** #endif
 932:src/param.c   ****   if (key_room->s_key_room.KeyIdx && key_room->s_key_room.CAKey.KeySize) {
 1815              		.loc 1 932 0
 1816 006e 2379     		ldrb	r3, [r4, #4]	@ zero_extendqisi2
 1817 0070 F3B1     		cbz	r3, .L195
 1818              		.loc 1 932 0 is_stmt 0 discriminator 1
 1819 0072 2369     		ldr	r3, [r4, #16]
 1820 0074 E3B1     		cbz	r3, .L195
 933:src/param.c   ****     if (key_room->b_key_type == 0x01) {           // EMV Contact Key only
 1821              		.loc 1 933 0 is_stmt 1
 1822 0076 2078     		ldrb	r0, [r4]	@ zero_extendqisi2
 1823              	.LVL268:
 1824 0078 0128     		cmp	r0, #1
 1825 007a 06D1     		bne	.L196
 934:src/param.c   ****       EMVData2DnloadBuf(IOCMD_KEY_LOADING, (BYTE *)&key_room->s_key_room, sizeof(KEY_ROOM));
 1826              		.loc 1 934 0
 1827 007c 0220     		movs	r0, #2
 1828 007e 211D     		adds	r1, r4, #4
 1829 0080 4FF48C72 		mov	r2, #280
 1830 0084 FFF7FEFF 		bl	EMVData2DnloadBuf
 1831              	.LVL269:
 1832 0088 12E0     		b	.L195
 1833              	.L196:
 935:src/param.c   ****     }
 936:src/param.c   ****     else if (key_room->b_key_type == 0x02) {      // EMV Contactless Key only
 1834              		.loc 1 936 0
 1835 008a 0228     		cmp	r0, #2
 1836 008c 01D1     		bne	.L197
 937:src/param.c   ****       CTLData2DnloadBuf(CLCMD_KEY_LOADING, (BYTE *)&key_room->s_key_room, sizeof(KEY_ROOM));
 1837              		.loc 1 937 0
 1838 008e 211D     		adds	r1, r4, #4
 1839 0090 0AE0     		b	.L209
 1840              	.L197:
 938:src/param.c   ****     }
 939:src/param.c   ****     else if (key_room->b_key_type == 0x03) {      // Both Contact & Contactless to be injected
 1841              		.loc 1 939 0
 1842 0092 0328     		cmp	r0, #3
 1843 0094 0CD1     		bne	.L195
 940:src/param.c   ****       EMVData2DnloadBuf(IOCMD_KEY_LOADING, (BYTE *)&key_room->s_key_room, sizeof(KEY_ROOM));
 1844              		.loc 1 940 0
 1845 0096 251D     		adds	r5, r4, #4
 1846              	.LVL270:
 1847 0098 0220     		movs	r0, #2
ARM GAS  C:\Users\AHMED~1.ELE\AppData\Local\Temp\ccpjtoUe.s 			page 51


 1848 009a 2946     		mov	r1, r5
 1849 009c 4FF48C72 		mov	r2, #280
 1850 00a0 FFF7FEFF 		bl	EMVData2DnloadBuf
 1851              	.LVL271:
 941:src/param.c   ****       CTLData2DnloadBuf(CLCMD_KEY_LOADING, (BYTE *)&key_room->s_key_room, sizeof(KEY_ROOM));
 1852              		.loc 1 941 0
 1853 00a4 0220     		movs	r0, #2
 1854 00a6 2946     		mov	r1, r5
 1855              	.L209:
 1856 00a8 4FF48C72 		mov	r2, #280
 1857 00ac FFF7FEFF 		bl	CTLData2DnloadBuf
 1858              	.LVL272:
 1859              	.L195:
 942:src/param.c   ****     }
 943:src/param.c   ****   }
 944:src/param.c   ****   FreeMW(key_room);
 1860              		.loc 1 944 0
 1861 00b0 2146     		mov	r1, r4
 1862 00b2 9420     		movs	r0, #148
 1863 00b4 FFF7FEFF 		bl	sys_func1
 1864              	.LVL273:
 945:src/param.c   ****   return aCurrNode;
 1865              		.loc 1 945 0
 1866 00b8 3046     		mov	r0, r6
 1867 00ba BDE8F081 		pop	{r4, r5, r6, r7, r8, pc}
 1868              	.LVL274:
 1869              	.L198:
 946:src/param.c   **** }
 1870              		.loc 1 946 0
 1871 00be BDE8F081 		pop	{r4, r5, r6, r7, r8, pc}
 1872              	.LVL275:
 1873              	.L212:
 1874 00c2 00BF     		.align	2
 1875              	.L211:
 1876 00c4 F0020000 		.word	.LANCHOR0+752
 1877              		.cfi_endproc
 1878              	.LFE11:
 1879              		.size	ParseEmvKey, .-ParseEmvKey
 1880              		.section	.text.SetAPNConfig,"ax",%progbits
 1881              		.align	1
 1882              		.global	SetAPNConfig
 1883              		.thumb
 1884              		.thumb_func
 1885              		.type	SetAPNConfig, %function
 1886              	SetAPNConfig:
 1887              	.LFB12:
 947:src/param.c   **** 
 948:src/param.c   **** //*****************************************************************************
 949:src/param.c   **** //  Function        : SetAPNConfig
 950:src/param.c   **** //  Description     : Load XML string and save params.
 951:src/param.c   **** //  Input           : N/A
 952:src/param.c   **** //  Return          : N/A
 953:src/param.c   **** //  Note            : N/A
 954:src/param.c   **** //  Globals Changed : N/A
 955:src/param.c   **** //*****************************************************************************
 956:src/param.c   **** void SetAPNConfig()
 957:src/param.c   **** {
ARM GAS  C:\Users\AHMED~1.ELE\AppData\Local\Temp\ccpjtoUe.s 			page 52


 1888              		.loc 1 957 0
 1889              		.cfi_startproc
 1890              		@ args = 0, pretend = 0, frame = 632
 1891              		@ frame_needed = 0, uses_anonymous_args = 0
 1892 0000 70B5     		push	{r4, r5, r6, lr}
 1893              		.cfi_def_cfa_offset 16
 1894              		.cfi_offset 4, -16
 1895              		.cfi_offset 5, -12
 1896              		.cfi_offset 6, -8
 1897              		.cfi_offset 14, -4
 1898 0002 ADF5207D 		sub	sp, sp, #640
 1899              		.cfi_def_cfa_offset 656
 958:src/param.c   ****   char user[32 + 1];
 959:src/param.c   ****   char psw[32 + 1];
 960:src/param.c   ****   char apn[32 + 1];
 961:src/param.c   ****   char dispBuf[128];
 962:src/param.c   ****   
 963:src/param.c   ****   /*
 964:src/param.c   ****   BYTE apn_username[32];
 965:src/param.c   ****   BYTE apn_password[32];
 966:src/param.c   ****   BYTE apn2_username[32];
 967:src/param.c   ****   BYTE apn2_password[32];
 968:src/param.c   ****   BYTE apnconfig[32];
 969:src/param.c   ****   BYTE apnconfig2[32];
 970:src/param.c   ****   */
 971:src/param.c   ****   
 972:src/param.c   ****   struct TERM_CFG term_cfg;
 973:src/param.c   **** 
 974:src/param.c   ****   if (!GetTermCfg(&term_cfg))
 1900              		.loc 1 974 0
 1901 0006 3EA8     		add	r0, sp, #248
 1902 0008 FFF7FEFF 		bl	GetTermCfg
 1903              	.LVL276:
 1904 000c 0546     		mov	r5, r0
 1905 000e 38BB     		cbnz	r0, .L214
 1906              	.LVL277:
 1907              	.LBB14:
 975:src/param.c   ****   {
 976:src/param.c   ****     DispLineMW("failed to get term cfg", MW_LINE3, MW_CLREOL | MW_BIGFONT | MW_CENTER);
 1908              		.loc 1 976 0
 1909 0010 9220     		movs	r0, #146
 1910 0012 1721     		movs	r1, #23
 1911 0014 FFF7FEFF 		bl	sys_func1
 1912              	.LVL278:
 1913 0018 0446     		mov	r4, r0
 1914 001a 90B1     		cbz	r0, .L216
 1915              		.loc 1 976 0 is_stmt 0 discriminator 1
 1916 001c B749     		ldr	r1, .L261
 1917 001e 1622     		movs	r2, #22
 1918 0020 FFF7FEFF 		bl	memcpy
 1919              	.LVL279:
 1920 0024 41F22203 		movw	r3, #4130
 1921 0028 A575     		strb	r5, [r4, #22]
 1922 002a 2521     		movs	r1, #37
 1923 002c 0093     		str	r3, [sp]
 1924 002e 0F20     		movs	r0, #15
 1925 0030 2246     		mov	r2, r4
ARM GAS  C:\Users\AHMED~1.ELE\AppData\Local\Temp\ccpjtoUe.s 			page 53


 1926 0032 4FF44073 		mov	r3, #768
 1927 0036 FFF7FEFF 		bl	lib_app_call
 1928              	.LVL280:
 1929 003a 9420     		movs	r0, #148
 1930 003c 2146     		mov	r1, r4
 1931 003e FFF7FEFF 		bl	sys_func1
 1932              	.LVL281:
 1933              	.L216:
 1934              	.LBE14:
 977:src/param.c   ****     while (GetCharMW() == 0)
 1935              		.loc 1 977 0 is_stmt 1
 1936 0042 0022     		movs	r2, #0
 1937 0044 0F20     		movs	r0, #15
 1938 0046 0092     		str	r2, [sp]
 1939 0048 1621     		movs	r1, #22
 1940 004a 1346     		mov	r3, r2
 1941 004c FFF7FEFF 		bl	lib_app_call
 1942              	.LVL282:
 1943 0050 0028     		cmp	r0, #0
 1944 0052 40F0D081 		bne	.L213
 978:src/param.c   ****       SleepMW();
 1945              		.loc 1 978 0
 1946 0056 4FF4CE70 		mov	r0, #412
 1947 005a FFF7FEFF 		bl	sys_func0
 1948              	.LVL283:
 1949 005e F0E7     		b	.L216
 1950              	.LVL284:
 1951              	.L214:
 979:src/param.c   ****     return;
 980:src/param.c   ****   }
 981:src/param.c   ****   
 982:src/param.c   ****   ClearDispMW();
 1952              		.loc 1 982 0
 1953 0060 0C21     		movs	r1, #12
 1954 0062 1620     		movs	r0, #22
 1955 0064 FFF7FEFF 		bl	sys_func1
 1956              	.LVL285:
 983:src/param.c   ****   memset(apn, 0, sizeof(apn));
 1957              		.loc 1 983 0
 1958 0068 0021     		movs	r1, #0
 1959 006a 2122     		movs	r2, #33
 1960 006c 15A8     		add	r0, sp, #84
 1961 006e FFF7FEFF 		bl	memset
 1962              	.LVL286:
 984:src/param.c   ****   memcpy(apn, term_cfg.apnconfig, 32);
 1963              		.loc 1 984 0
 1964 0072 0DF23521 		addw	r1, sp, #565
 1965 0076 2022     		movs	r2, #32
 1966 0078 15A8     		add	r0, sp, #84
 1967 007a FFF7FEFF 		bl	memcpy
 1968              	.LVL287:
 985:src/param.c   ****   sprintf(dispBuf, "apn1: %s", apn);
 1969              		.loc 1 985 0
 1970 007e A049     		ldr	r1, .L261+4
 1971 0080 15AA     		add	r2, sp, #84
 1972 0082 1EA8     		add	r0, sp, #120
 1973 0084 FFF7FEFF 		bl	sprintf
ARM GAS  C:\Users\AHMED~1.ELE\AppData\Local\Temp\ccpjtoUe.s 			page 54


 1974              	.LVL288:
 1975              	.LBB15:
 986:src/param.c   ****   DispLineMW(dispBuf, MW_LINE1, MW_CLREOL | MW_SPFONT);
 1976              		.loc 1 986 0
 1977 0088 1EA8     		add	r0, sp, #120
 1978 008a FFF7FEFF 		bl	strlen
 1979              	.LVL289:
 1980 008e 0546     		mov	r5, r0
 1981              	.LVL290:
 1982 0090 691C     		adds	r1, r5, #1
 1983 0092 9220     		movs	r0, #146
 1984              	.LVL291:
 1985 0094 FFF7FEFF 		bl	sys_func1
 1986              	.LVL292:
 1987 0098 0446     		mov	r4, r0
 1988 009a 98B1     		cbz	r0, .L219
 1989              		.loc 1 986 0 is_stmt 0 discriminator 1
 1990 009c 1EA9     		add	r1, sp, #120
 1991 009e 2A46     		mov	r2, r5
 1992 00a0 FFF7FEFF 		bl	memcpy
 1993              	.LVL293:
 1994 00a4 0023     		movs	r3, #0
 1995 00a6 2521     		movs	r1, #37
 1996 00a8 6355     		strb	r3, [r4, r5]
 1997 00aa 42F22003 		movw	r3, #8224
 1998 00ae 0F20     		movs	r0, #15
 1999 00b0 0093     		str	r3, [sp]
 2000 00b2 2246     		mov	r2, r4
 2001 00b4 4FF48073 		mov	r3, #256
 2002 00b8 FFF7FEFF 		bl	lib_app_call
 2003              	.LVL294:
 2004 00bc 9420     		movs	r0, #148
 2005 00be 2146     		mov	r1, r4
 2006 00c0 FFF7FEFF 		bl	sys_func1
 2007              	.LVL295:
 2008              	.L219:
 2009              	.LBE15:
 987:src/param.c   ****   memset(user, 0, sizeof(user));
 2010              		.loc 1 987 0 is_stmt 1
 2011 00c4 0021     		movs	r1, #0
 2012 00c6 2122     		movs	r2, #33
 2013 00c8 03A8     		add	r0, sp, #12
 2014 00ca FFF7FEFF 		bl	memset
 2015              	.LVL296:
 988:src/param.c   ****   memcpy(user, term_cfg.apn_username, 32);
 2016              		.loc 1 988 0
 2017 00ce 3EAB     		add	r3, sp, #248
 2018 00d0 03F1BD01 		add	r1, r3, #189
 2019 00d4 2022     		movs	r2, #32
 2020 00d6 03A8     		add	r0, sp, #12
 2021 00d8 FFF7FEFF 		bl	memcpy
 2022              	.LVL297:
 989:src/param.c   ****   sprintf(dispBuf, "apn1 user: %s", user);
 2023              		.loc 1 989 0
 2024 00dc 8949     		ldr	r1, .L261+8
 2025 00de 03AA     		add	r2, sp, #12
 2026 00e0 1EA8     		add	r0, sp, #120
ARM GAS  C:\Users\AHMED~1.ELE\AppData\Local\Temp\ccpjtoUe.s 			page 55


 2027 00e2 FFF7FEFF 		bl	sprintf
 2028              	.LVL298:
 2029              	.LBB16:
 990:src/param.c   ****   DispLineMW(dispBuf, MW_LINE2, MW_CLREOL | MW_SPFONT);
 2030              		.loc 1 990 0
 2031 00e6 1EA8     		add	r0, sp, #120
 2032 00e8 FFF7FEFF 		bl	strlen
 2033              	.LVL299:
 2034 00ec 0546     		mov	r5, r0
 2035              	.LVL300:
 2036 00ee 691C     		adds	r1, r5, #1
 2037 00f0 9220     		movs	r0, #146
 2038              	.LVL301:
 2039 00f2 FFF7FEFF 		bl	sys_func1
 2040              	.LVL302:
 2041 00f6 0446     		mov	r4, r0
 2042              	.LVL303:
 2043 00f8 98B1     		cbz	r0, .L220
 2044              		.loc 1 990 0 is_stmt 0 discriminator 1
 2045 00fa 1EA9     		add	r1, sp, #120
 2046 00fc 2A46     		mov	r2, r5
 2047 00fe FFF7FEFF 		bl	memcpy
 2048              	.LVL304:
 2049 0102 0023     		movs	r3, #0
 2050 0104 2521     		movs	r1, #37
 2051 0106 6355     		strb	r3, [r4, r5]
 2052 0108 42F22003 		movw	r3, #8224
 2053 010c 0F20     		movs	r0, #15
 2054 010e 0093     		str	r3, [sp]
 2055 0110 2246     		mov	r2, r4
 2056 0112 4FF40073 		mov	r3, #512
 2057 0116 FFF7FEFF 		bl	lib_app_call
 2058              	.LVL305:
 2059 011a 9420     		movs	r0, #148
 2060 011c 2146     		mov	r1, r4
 2061 011e FFF7FEFF 		bl	sys_func1
 2062              	.LVL306:
 2063              	.L220:
 2064              	.LBE16:
 991:src/param.c   ****   memset(psw, 0, sizeof(psw));
 2065              		.loc 1 991 0 is_stmt 1
 2066 0122 0021     		movs	r1, #0
 2067 0124 2122     		movs	r2, #33
 2068 0126 0CA8     		add	r0, sp, #48
 2069 0128 FFF7FEFF 		bl	memset
 2070              	.LVL307:
 992:src/param.c   ****   memcpy(psw, term_cfg.apn_password, 32);
 2071              		.loc 1 992 0
 2072 012c 3EAB     		add	r3, sp, #248
 2073 012e 03F1DD01 		add	r1, r3, #221
 2074 0132 2022     		movs	r2, #32
 2075 0134 0CA8     		add	r0, sp, #48
 2076 0136 FFF7FEFF 		bl	memcpy
 2077              	.LVL308:
 993:src/param.c   ****   sprintf(dispBuf, "apn1 psw: %s", psw);
 2078              		.loc 1 993 0
 2079 013a 7349     		ldr	r1, .L261+12
ARM GAS  C:\Users\AHMED~1.ELE\AppData\Local\Temp\ccpjtoUe.s 			page 56


 2080 013c 0CAA     		add	r2, sp, #48
 2081 013e 1EA8     		add	r0, sp, #120
 2082 0140 FFF7FEFF 		bl	sprintf
 2083              	.LVL309:
 2084              	.LBB17:
 994:src/param.c   ****   DispLineMW(dispBuf, MW_LINE3, MW_CLREOL | MW_SPFONT);
 2085              		.loc 1 994 0
 2086 0144 1EA8     		add	r0, sp, #120
 2087 0146 FFF7FEFF 		bl	strlen
 2088              	.LVL310:
 2089 014a 0546     		mov	r5, r0
 2090              	.LVL311:
 2091 014c 691C     		adds	r1, r5, #1
 2092 014e 9220     		movs	r0, #146
 2093              	.LVL312:
 2094 0150 FFF7FEFF 		bl	sys_func1
 2095              	.LVL313:
 2096 0154 0446     		mov	r4, r0
 2097              	.LVL314:
 2098 0156 98B1     		cbz	r0, .L221
 2099              		.loc 1 994 0 is_stmt 0 discriminator 1
 2100 0158 1EA9     		add	r1, sp, #120
 2101 015a 2A46     		mov	r2, r5
 2102 015c FFF7FEFF 		bl	memcpy
 2103              	.LVL315:
 2104 0160 0023     		movs	r3, #0
 2105 0162 2521     		movs	r1, #37
 2106 0164 6355     		strb	r3, [r4, r5]
 2107 0166 42F22003 		movw	r3, #8224
 2108 016a 0F20     		movs	r0, #15
 2109 016c 0093     		str	r3, [sp]
 2110 016e 2246     		mov	r2, r4
 2111 0170 4FF44073 		mov	r3, #768
 2112 0174 FFF7FEFF 		bl	lib_app_call
 2113              	.LVL316:
 2114 0178 9420     		movs	r0, #148
 2115 017a 2146     		mov	r1, r4
 2116 017c FFF7FEFF 		bl	sys_func1
 2117              	.LVL317:
 2118              	.L221:
 2119              	.LBE17:
 995:src/param.c   ****   
 996:src/param.c   ****   memset(apn, 0, sizeof(apn));
 2120              		.loc 1 996 0 is_stmt 1
 2121 0180 0021     		movs	r1, #0
 2122 0182 2122     		movs	r2, #33
 2123 0184 15A8     		add	r0, sp, #84
 2124 0186 FFF7FEFF 		bl	memset
 2125              	.LVL318:
 997:src/param.c   ****   memcpy(apn, term_cfg.apnconfig2, 32);
 2126              		.loc 1 997 0
 2127 018a 0DF25521 		addw	r1, sp, #597
 2128 018e 2022     		movs	r2, #32
 2129 0190 15A8     		add	r0, sp, #84
 2130 0192 FFF7FEFF 		bl	memcpy
 2131              	.LVL319:
 998:src/param.c   ****   sprintf(dispBuf, "apn2: %s", apn);
ARM GAS  C:\Users\AHMED~1.ELE\AppData\Local\Temp\ccpjtoUe.s 			page 57


 2132              		.loc 1 998 0
 2133 0196 5D49     		ldr	r1, .L261+16
 2134 0198 15AA     		add	r2, sp, #84
 2135 019a 1EA8     		add	r0, sp, #120
 2136 019c FFF7FEFF 		bl	sprintf
 2137              	.LVL320:
 2138              	.LBB18:
 999:src/param.c   ****   DispLineMW(dispBuf, MW_LINE4, MW_CLREOL | MW_SPFONT);
 2139              		.loc 1 999 0
 2140 01a0 1EA8     		add	r0, sp, #120
 2141 01a2 FFF7FEFF 		bl	strlen
 2142              	.LVL321:
 2143 01a6 0546     		mov	r5, r0
 2144              	.LVL322:
 2145 01a8 691C     		adds	r1, r5, #1
 2146 01aa 9220     		movs	r0, #146
 2147              	.LVL323:
 2148 01ac FFF7FEFF 		bl	sys_func1
 2149              	.LVL324:
 2150 01b0 0446     		mov	r4, r0
 2151              	.LVL325:
 2152 01b2 98B1     		cbz	r0, .L222
 2153              		.loc 1 999 0 is_stmt 0 discriminator 1
 2154 01b4 1EA9     		add	r1, sp, #120
 2155 01b6 2A46     		mov	r2, r5
 2156 01b8 FFF7FEFF 		bl	memcpy
 2157              	.LVL326:
 2158 01bc 0023     		movs	r3, #0
 2159 01be 2521     		movs	r1, #37
 2160 01c0 6355     		strb	r3, [r4, r5]
 2161 01c2 42F22003 		movw	r3, #8224
 2162 01c6 0F20     		movs	r0, #15
 2163 01c8 0093     		str	r3, [sp]
 2164 01ca 2246     		mov	r2, r4
 2165 01cc 4FF48063 		mov	r3, #1024
 2166 01d0 FFF7FEFF 		bl	lib_app_call
 2167              	.LVL327:
 2168 01d4 9420     		movs	r0, #148
 2169 01d6 2146     		mov	r1, r4
 2170 01d8 FFF7FEFF 		bl	sys_func1
 2171              	.LVL328:
 2172              	.L222:
 2173              	.LBE18:
1000:src/param.c   ****   memset(user, 0, sizeof(user));
 2174              		.loc 1 1000 0 is_stmt 1
 2175 01dc 0021     		movs	r1, #0
 2176 01de 2122     		movs	r2, #33
 2177 01e0 03A8     		add	r0, sp, #12
 2178 01e2 FFF7FEFF 		bl	memset
 2179              	.LVL329:
1001:src/param.c   ****   memcpy(user, term_cfg.apn2_username, 32);
 2180              		.loc 1 1001 0
 2181 01e6 3EAB     		add	r3, sp, #248
 2182 01e8 03F1FD01 		add	r1, r3, #253
 2183 01ec 2022     		movs	r2, #32
 2184 01ee 03A8     		add	r0, sp, #12
 2185 01f0 FFF7FEFF 		bl	memcpy
ARM GAS  C:\Users\AHMED~1.ELE\AppData\Local\Temp\ccpjtoUe.s 			page 58


 2186              	.LVL330:
1002:src/param.c   ****   sprintf(dispBuf, "apn2 user: %s", user);
 2187              		.loc 1 1002 0
 2188 01f4 4649     		ldr	r1, .L261+20
 2189 01f6 03AA     		add	r2, sp, #12
 2190 01f8 1EA8     		add	r0, sp, #120
 2191 01fa FFF7FEFF 		bl	sprintf
 2192              	.LVL331:
 2193              	.LBB19:
1003:src/param.c   ****   DispLineMW(dispBuf, MW_LINE5, MW_CLREOL | MW_SPFONT);
 2194              		.loc 1 1003 0
 2195 01fe 1EA8     		add	r0, sp, #120
 2196 0200 FFF7FEFF 		bl	strlen
 2197              	.LVL332:
 2198 0204 0546     		mov	r5, r0
 2199              	.LVL333:
 2200 0206 691C     		adds	r1, r5, #1
 2201 0208 9220     		movs	r0, #146
 2202              	.LVL334:
 2203 020a FFF7FEFF 		bl	sys_func1
 2204              	.LVL335:
 2205 020e 0446     		mov	r4, r0
 2206              	.LVL336:
 2207 0210 98B1     		cbz	r0, .L223
 2208              		.loc 1 1003 0 is_stmt 0 discriminator 1
 2209 0212 1EA9     		add	r1, sp, #120
 2210 0214 2A46     		mov	r2, r5
 2211 0216 FFF7FEFF 		bl	memcpy
 2212              	.LVL337:
 2213 021a 0023     		movs	r3, #0
 2214 021c 2521     		movs	r1, #37
 2215 021e 6355     		strb	r3, [r4, r5]
 2216 0220 42F22003 		movw	r3, #8224
 2217 0224 0F20     		movs	r0, #15
 2218 0226 0093     		str	r3, [sp]
 2219 0228 2246     		mov	r2, r4
 2220 022a 4FF4A063 		mov	r3, #1280
 2221 022e FFF7FEFF 		bl	lib_app_call
 2222              	.LVL338:
 2223 0232 9420     		movs	r0, #148
 2224 0234 2146     		mov	r1, r4
 2225 0236 FFF7FEFF 		bl	sys_func1
 2226              	.LVL339:
 2227              	.L223:
 2228              	.LBE19:
1004:src/param.c   ****   memset(psw, 0, sizeof(psw));
 2229              		.loc 1 1004 0 is_stmt 1
 2230 023a 0021     		movs	r1, #0
 2231 023c 2122     		movs	r2, #33
 2232 023e 0CA8     		add	r0, sp, #48
 2233 0240 FFF7FEFF 		bl	memset
 2234              	.LVL340:
1005:src/param.c   ****   memcpy(psw, term_cfg.apn2_password, 32);
 2235              		.loc 1 1005 0
 2236 0244 0DF21521 		addw	r1, sp, #533
 2237 0248 2022     		movs	r2, #32
 2238 024a 0CA8     		add	r0, sp, #48
ARM GAS  C:\Users\AHMED~1.ELE\AppData\Local\Temp\ccpjtoUe.s 			page 59


 2239 024c FFF7FEFF 		bl	memcpy
 2240              	.LVL341:
1006:src/param.c   ****   sprintf(dispBuf, "apn2 psw: %s", psw);
 2241              		.loc 1 1006 0
 2242 0250 3049     		ldr	r1, .L261+24
 2243 0252 0CAA     		add	r2, sp, #48
 2244 0254 1EA8     		add	r0, sp, #120
 2245 0256 FFF7FEFF 		bl	sprintf
 2246              	.LVL342:
 2247              	.LBB20:
1007:src/param.c   ****   DispLineMW(dispBuf, MW_LINE6, MW_CLREOL | MW_SPFONT);
 2248              		.loc 1 1007 0
 2249 025a 1EA8     		add	r0, sp, #120
 2250 025c FFF7FEFF 		bl	strlen
 2251              	.LVL343:
 2252 0260 0546     		mov	r5, r0
 2253              	.LVL344:
 2254 0262 691C     		adds	r1, r5, #1
 2255 0264 9220     		movs	r0, #146
 2256              	.LVL345:
 2257 0266 FFF7FEFF 		bl	sys_func1
 2258              	.LVL346:
 2259 026a 0446     		mov	r4, r0
 2260              	.LVL347:
 2261 026c 98B1     		cbz	r0, .L224
 2262              		.loc 1 1007 0 is_stmt 0 discriminator 1
 2263 026e 1EA9     		add	r1, sp, #120
 2264 0270 2A46     		mov	r2, r5
 2265 0272 FFF7FEFF 		bl	memcpy
 2266              	.LVL348:
 2267 0276 0023     		movs	r3, #0
 2268 0278 2521     		movs	r1, #37
 2269 027a 6355     		strb	r3, [r4, r5]
 2270 027c 42F22003 		movw	r3, #8224
 2271 0280 0F20     		movs	r0, #15
 2272 0282 0093     		str	r3, [sp]
 2273 0284 2246     		mov	r2, r4
 2274 0286 4FF4C063 		mov	r3, #1536
 2275 028a FFF7FEFF 		bl	lib_app_call
 2276              	.LVL349:
 2277 028e 9420     		movs	r0, #148
 2278 0290 2146     		mov	r1, r4
 2279 0292 FFF7FEFF 		bl	sys_func1
 2280              	.LVL350:
 2281              	.L224:
 2282              	.LBE20:
1008:src/param.c   ****   
1009:src/param.c   ****   char choice = ToggleOption("select APN", KSimSel, TOGGLE_MODE_8LINE);
 2283              		.loc 1 1009 0 is_stmt 1
 2284 0296 2049     		ldr	r1, .L261+28
 2285 0298 4FF48072 		mov	r2, #256
 2286 029c 1F48     		ldr	r0, .L261+32
 2287 029e FFF7FEFF 		bl	ToggleOption
 2288              	.LVL351:
1010:src/param.c   ****   
1011:src/param.c   ****   ClearDispMW();
 2289              		.loc 1 1011 0
ARM GAS  C:\Users\AHMED~1.ELE\AppData\Local\Temp\ccpjtoUe.s 			page 60


 2290 02a2 0C21     		movs	r1, #12
1009:src/param.c   ****   
 2291              		.loc 1 1009 0
 2292 02a4 0446     		mov	r4, r0
 2293              	.LVL352:
 2294              		.loc 1 1011 0
 2295 02a6 1620     		movs	r0, #22
 2296 02a8 FFF7FEFF 		bl	sys_func1
 2297              	.LVL353:
1012:src/param.c   ****   if (choice == (char)-1)
 2298              		.loc 1 1012 0
 2299 02ac 631C     		adds	r3, r4, #1
1013:src/param.c   ****   {
1014:src/param.c   ****     sprintf(dispBuf, "user cancelled");
 2300              		.loc 1 1014 0
 2301 02ae 1EA8     		add	r0, sp, #120
1012:src/param.c   ****   if (choice == (char)-1)
 2302              		.loc 1 1012 0
 2303 02b0 38D1     		bne	.L225
 2304              		.loc 1 1014 0
 2305 02b2 1B49     		ldr	r1, .L261+36
 2306 02b4 FFF7FEFF 		bl	strcpy
 2307              	.LVL354:
 2308              	.LBB21:
1015:src/param.c   ****     DispLineMW(dispBuf, MW_LINE3, MW_CLREOL | MW_BIGFONT | MW_CENTER);
 2309              		.loc 1 1015 0
 2310 02b8 1EA8     		add	r0, sp, #120
 2311 02ba FFF7FEFF 		bl	strlen
 2312              	.LVL355:
 2313 02be 0546     		mov	r5, r0
 2314              	.LVL356:
 2315 02c0 691C     		adds	r1, r5, #1
 2316 02c2 9220     		movs	r0, #146
 2317              	.LVL357:
 2318 02c4 FFF7FEFF 		bl	sys_func1
 2319              	.LVL358:
 2320 02c8 0446     		mov	r4, r0
 2321              	.LVL359:
 2322 02ca 0028     		cmp	r0, #0
 2323 02cc 00F08680 		beq	.L227
 2324              		.loc 1 1015 0 is_stmt 0 discriminator 1
 2325 02d0 1EA9     		add	r1, sp, #120
 2326 02d2 2A46     		mov	r2, r5
 2327 02d4 FFF7FEFF 		bl	memcpy
 2328              	.LVL360:
 2329 02d8 0023     		movs	r3, #0
 2330 02da 2521     		movs	r1, #37
 2331 02dc 6355     		strb	r3, [r4, r5]
 2332 02de 41F22203 		movw	r3, #4130
 2333 02e2 2246     		mov	r2, r4
 2334 02e4 0093     		str	r3, [sp]
 2335 02e6 0F20     		movs	r0, #15
 2336 02e8 4FF44073 		mov	r3, #768
 2337 02ec FFF7FEFF 		bl	lib_app_call
 2338              	.LVL361:
 2339 02f0 2146     		mov	r1, r4
 2340 02f2 9420     		movs	r0, #148
ARM GAS  C:\Users\AHMED~1.ELE\AppData\Local\Temp\ccpjtoUe.s 			page 61


 2341 02f4 FFF7FEFF 		bl	sys_func1
 2342              	.LVL362:
 2343 02f8 70E0     		b	.L227
 2344              	.L262:
 2345 02fa 00BF     		.align	2
 2346              	.L261:
 2347 02fc F7000000 		.word	.LC26
 2348 0300 0E010000 		.word	.LC27
 2349 0304 17010000 		.word	.LC28
 2350 0308 25010000 		.word	.LC29
 2351 030c 32010000 		.word	.LC30
 2352 0310 3B010000 		.word	.LC31
 2353 0314 49010000 		.word	.LC32
 2354 0318 00000000 		.word	KSimSel
 2355 031c 56010000 		.word	.LC33
 2356 0320 61010000 		.word	.LC34
 2357              	.LVL363:
 2358              	.L225:
 2359              	.LBE21:
1016:src/param.c   ****   }
1017:src/param.c   ****   else
1018:src/param.c   ****   {
1019:src/param.c   ****     sprintf(dispBuf, "APN #%d is chosen", choice + 1);
 2360              		.loc 1 1019 0 is_stmt 1
 2361 0324 3549     		ldr	r1, .L263
 2362 0326 621C     		adds	r2, r4, #1
 2363 0328 FFF7FEFF 		bl	sprintf
 2364              	.LVL364:
 2365              	.LBB22:
1020:src/param.c   ****     DispLineMW(dispBuf, MW_LINE3, MW_CLREOL | MW_BIGFONT | MW_CENTER);
 2366              		.loc 1 1020 0
 2367 032c 1EA8     		add	r0, sp, #120
 2368 032e FFF7FEFF 		bl	strlen
 2369              	.LVL365:
 2370 0332 0646     		mov	r6, r0
 2371              	.LVL366:
 2372 0334 711C     		adds	r1, r6, #1
 2373 0336 9220     		movs	r0, #146
 2374              	.LVL367:
 2375 0338 FFF7FEFF 		bl	sys_func1
 2376              	.LVL368:
 2377 033c 0546     		mov	r5, r0
 2378              	.LVL369:
 2379 033e 98B1     		cbz	r0, .L228
 2380              		.loc 1 1020 0 is_stmt 0 discriminator 1
 2381 0340 1EA9     		add	r1, sp, #120
 2382 0342 3246     		mov	r2, r6
 2383 0344 FFF7FEFF 		bl	memcpy
 2384              	.LVL370:
 2385 0348 0023     		movs	r3, #0
 2386 034a 2521     		movs	r1, #37
 2387 034c AB55     		strb	r3, [r5, r6]
 2388 034e 41F22203 		movw	r3, #4130
 2389 0352 0F20     		movs	r0, #15
 2390 0354 0093     		str	r3, [sp]
 2391 0356 2A46     		mov	r2, r5
 2392 0358 4FF44073 		mov	r3, #768
ARM GAS  C:\Users\AHMED~1.ELE\AppData\Local\Temp\ccpjtoUe.s 			page 62


 2393 035c FFF7FEFF 		bl	lib_app_call
 2394              	.LVL371:
 2395 0360 9420     		movs	r0, #148
 2396 0362 2946     		mov	r1, r5
 2397 0364 FFF7FEFF 		bl	sys_func1
 2398              	.LVL372:
 2399              	.L228:
 2400              	.LBE22:
1021:src/param.c   ****     memset(apn, 0, sizeof(apn));
 2401              		.loc 1 1021 0 is_stmt 1
 2402 0368 0021     		movs	r1, #0
 2403 036a 2122     		movs	r2, #33
 2404 036c 15A8     		add	r0, sp, #84
 2405 036e FFF7FEFF 		bl	memset
 2406              	.LVL373:
1022:src/param.c   ****     memset(user, 0, sizeof(user));
 2407              		.loc 1 1022 0
 2408 0372 0021     		movs	r1, #0
 2409 0374 2122     		movs	r2, #33
 2410 0376 03A8     		add	r0, sp, #12
 2411 0378 FFF7FEFF 		bl	memset
 2412              	.LVL374:
1023:src/param.c   ****     memset(psw, 0, sizeof(psw));
 2413              		.loc 1 1023 0
 2414 037c 0CA8     		add	r0, sp, #48
 2415 037e 0021     		movs	r1, #0
 2416 0380 2122     		movs	r2, #33
 2417 0382 FFF7FEFF 		bl	memset
 2418              	.LVL375:
1024:src/param.c   ****     if (choice == 0)
1025:src/param.c   ****     {
1026:src/param.c   ****       memcpy(apn, term_cfg.apnconfig, 32);
 2419              		.loc 1 1026 0
 2420 0386 15A8     		add	r0, sp, #84
1024:src/param.c   ****     if (choice == 0)
 2421              		.loc 1 1024 0
 2422 0388 84B9     		cbnz	r4, .L229
 2423              		.loc 1 1026 0
 2424 038a 0DF23521 		addw	r1, sp, #565
 2425 038e 2022     		movs	r2, #32
 2426 0390 FFF7FEFF 		bl	memcpy
 2427              	.LVL376:
1027:src/param.c   ****       memcpy(user, term_cfg.apn_username, 32);
 2428              		.loc 1 1027 0
 2429 0394 3EAB     		add	r3, sp, #248
 2430 0396 03F1BD01 		add	r1, r3, #189
 2431 039a 03A8     		add	r0, sp, #12
 2432 039c 2022     		movs	r2, #32
 2433 039e FFF7FEFF 		bl	memcpy
 2434              	.LVL377:
1028:src/param.c   ****       memcpy(psw, term_cfg.apn_password, 32);
 2435              		.loc 1 1028 0
 2436 03a2 3EAB     		add	r3, sp, #248
 2437 03a4 0CA8     		add	r0, sp, #48
 2438 03a6 03F1DD01 		add	r1, r3, #221
 2439 03aa 0EE0     		b	.L260
 2440              	.L229:
ARM GAS  C:\Users\AHMED~1.ELE\AppData\Local\Temp\ccpjtoUe.s 			page 63


1029:src/param.c   ****     }
1030:src/param.c   ****     else
1031:src/param.c   ****     {
1032:src/param.c   ****       memcpy(apn, term_cfg.apnconfig2, 32);
 2441              		.loc 1 1032 0
 2442 03ac 0DF25521 		addw	r1, sp, #597
 2443 03b0 2022     		movs	r2, #32
 2444 03b2 FFF7FEFF 		bl	memcpy
 2445              	.LVL378:
1033:src/param.c   ****       memcpy(user, term_cfg.apn2_username, 32);
 2446              		.loc 1 1033 0
 2447 03b6 3EAB     		add	r3, sp, #248
 2448 03b8 03F1FD01 		add	r1, r3, #253
 2449 03bc 03A8     		add	r0, sp, #12
 2450 03be 2022     		movs	r2, #32
 2451 03c0 FFF7FEFF 		bl	memcpy
 2452              	.LVL379:
1034:src/param.c   ****       memcpy(psw, term_cfg.apn2_password, 32);
 2453              		.loc 1 1034 0
 2454 03c4 0CA8     		add	r0, sp, #48
 2455 03c6 0DF21521 		addw	r1, sp, #533
 2456              	.L260:
 2457 03ca 2022     		movs	r2, #32
 2458 03cc FFF7FEFF 		bl	memcpy
 2459              	.LVL380:
1035:src/param.c   ****     }
1036:src/param.c   ****     SetGPRSInfo(user, psw, apn, 0);
 2460              		.loc 1 1036 0
 2461 03d0 03A8     		add	r0, sp, #12
 2462 03d2 0CA9     		add	r1, sp, #48
 2463 03d4 15AA     		add	r2, sp, #84
 2464 03d6 0023     		movs	r3, #0
 2465 03d8 FFF7FEFF 		bl	SetGPRSInfo
 2466              	.LVL381:
 2467              	.L227:
1037:src/param.c   ****   }
1038:src/param.c   **** 
1039:src/param.c   ****   while (GetCharMW() == 0)
 2468              		.loc 1 1039 0
 2469 03dc 0022     		movs	r2, #0
 2470 03de 0F20     		movs	r0, #15
 2471 03e0 0092     		str	r2, [sp]
 2472 03e2 1621     		movs	r1, #22
 2473 03e4 1346     		mov	r3, r2
 2474 03e6 FFF7FEFF 		bl	lib_app_call
 2475              	.LVL382:
 2476 03ea 20B9     		cbnz	r0, .L213
1040:src/param.c   ****     SleepMW();
 2477              		.loc 1 1040 0
 2478 03ec 4FF4CE70 		mov	r0, #412
 2479 03f0 FFF7FEFF 		bl	sys_func0
 2480              	.LVL383:
 2481 03f4 F2E7     		b	.L227
 2482              	.L213:
1041:src/param.c   **** }
 2483              		.loc 1 1041 0
 2484 03f6 0DF5207D 		add	sp, sp, #640
ARM GAS  C:\Users\AHMED~1.ELE\AppData\Local\Temp\ccpjtoUe.s 			page 64


 2485              		.cfi_def_cfa_offset 16
 2486              		@ sp needed
 2487 03fa 70BD     		pop	{r4, r5, r6, pc}
 2488              	.L264:
 2489              		.align	2
 2490              	.L263:
 2491 03fc 70010000 		.word	.LC35
 2492              		.cfi_endproc
 2493              	.LFE12:
 2494              		.size	SetAPNConfig, .-SetAPNConfig
 2495              		.section	.text.XmlStringToCfg,"ax",%progbits
 2496              		.align	1
 2497              		.global	XmlStringToCfg
 2498              		.thumb
 2499              		.thumb_func
 2500              		.type	XmlStringToCfg, %function
 2501              	XmlStringToCfg:
 2502              	.LFB13:
1042:src/param.c   **** //*****************************************************************************
1043:src/param.c   **** //  Function        : XmlStringToCfg
1044:src/param.c   **** //  Description     : Load XML string and save params.
1045:src/param.c   **** //  Input           : N/A
1046:src/param.c   **** //  Return          : N/A
1047:src/param.c   **** //  Note            : N/A
1048:src/param.c   **** //  Globals Changed : N/A
1049:src/param.c   **** //*****************************************************************************
1050:src/param.c   **** BOOLEAN XmlStringToCfg(BYTE *aPtr)
1051:src/param.c   **** {
 2503              		.loc 1 1051 0
 2504              		.cfi_startproc
 2505              		@ args = 0, pretend = 0, frame = 0
 2506              		@ frame_needed = 0, uses_anonymous_args = 0
 2507              	.LVL384:
 2508 0000 F7B5     		push	{r0, r1, r2, r4, r5, r6, r7, lr}
 2509              		.cfi_def_cfa_offset 32
 2510              		.cfi_offset 4, -20
 2511              		.cfi_offset 5, -16
 2512              		.cfi_offset 6, -12
 2513              		.cfi_offset 7, -8
 2514              		.cfi_offset 14, -4
1052:src/param.c   ****   mxml_node_t *tree=NULL, *node=NULL, *next_node=NULL;
1053:src/param.c   ****   //BYTE buf[256];
1054:src/param.c   ****   //BYTE *string;
1055:src/param.c   ****   BYTE start=1;
1056:src/param.c   ****   BYTE state=ST_TERM_CLEAR;
1057:src/param.c   ****   BOOLEAN ret=FALSE;
1058:src/param.c   **** 
1059:src/param.c   ****   gCardIdx = 0;
 2515              		.loc 1 1059 0
 2516 0002 994B     		ldr	r3, .L330
 2517 0004 0026     		movs	r6, #0
1051:src/param.c   ****   mxml_node_t *tree=NULL, *node=NULL, *next_node=NULL;
 2518              		.loc 1 1051 0
 2519 0006 0146     		mov	r1, r0
1060:src/param.c   ****   
1061:src/param.c   ****   // XML parsing
1062:src/param.c   ****   tree = mxmlLoadString(NULL, aPtr, MXML_TEXT_CALLBACK);
ARM GAS  C:\Users\AHMED~1.ELE\AppData\Local\Temp\ccpjtoUe.s 			page 65


 2520              		.loc 1 1062 0
 2521 0008 3246     		mov	r2, r6
 2522 000a 3046     		mov	r0, r6
 2523              	.LVL385:
1059:src/param.c   ****   
 2524              		.loc 1 1059 0
 2525 000c 1E70     		strb	r6, [r3]
 2526              		.loc 1 1062 0
 2527 000e FFF7FEFF 		bl	mxmlLoadString
 2528              	.LVL386:
1063:src/param.c   ****   if (tree != NULL) {
 2529              		.loc 1 1063 0
 2530 0012 0546     		mov	r5, r0
 2531 0014 0028     		cmp	r0, #0
 2532 0016 00F0CA80 		beq	.L322
 2533 001a 3746     		mov	r7, r6
 2534              	.LVL387:
 2535              	.L320:
1064:src/param.c   ****     while (1) {
1065:src/param.c   ****       if (start) {
1066:src/param.c   ****         node = tree;
1067:src/param.c   ****         node = mxmlFindElement(node, tree, "TerminalXML", NULL, NULL, MXML_DESCEND);
 2536              		.loc 1 1067 0
 2537 001c 0122     		movs	r2, #1
 2538 001e 0023     		movs	r3, #0
 2539 0020 0192     		str	r2, [sp, #4]
 2540 0022 0093     		str	r3, [sp]
 2541 0024 2846     		mov	r0, r5
 2542 0026 2946     		mov	r1, r5
 2543 0028 904A     		ldr	r2, .L330+4
 2544 002a FFF7FEFF 		bl	mxmlFindElement
 2545              	.LVL388:
 2546              	.L321:
 2547 002e 0446     		mov	r4, r0
 2548              	.LVL389:
 2549              	.L269:
1068:src/param.c   ****         start = 0;
1069:src/param.c   ****       }
1070:src/param.c   ****       if (node != NULL) {
 2550              		.loc 1 1070 0
 2551 0030 002C     		cmp	r4, #0
 2552 0032 00F0D980 		beq	.L270
 2553 0036 0023     		movs	r3, #0
1071:src/param.c   ****         switch (state) {
 2554              		.loc 1 1071 0
 2555 0038 072E     		cmp	r6, #7
 2556 003a 05D8     		bhi	.L293
 2557 003c DFE806F0 		tbb	[pc, r6]
 2558              	.L272:
 2559 0040 06       		.byte	(.L271-.L272)/2
 2560 0041 14       		.byte	(.L273-.L272)/2
 2561 0042 2D       		.byte	(.L274-.L272)/2
 2562 0043 44       		.byte	(.L275-.L272)/2
 2563 0044 5B       		.byte	(.L276-.L272)/2
 2564 0045 72       		.byte	(.L277-.L272)/2
 2565 0046 89       		.byte	(.L278-.L272)/2
 2566 0047 A0       		.byte	(.L279-.L272)/2
ARM GAS  C:\Users\AHMED~1.ELE\AppData\Local\Temp\ccpjtoUe.s 			page 66


 2567              		.p2align 1
 2568              	.L293:
1072:src/param.c   ****           case ST_TERM_CLEAR:
1073:src/param.c   ****             CloseSTISFiles();
1074:src/param.c   ****             CreateSTISFiles();
1075:src/param.c   ****             SetSTISMode(INIT_MODE);
1076:src/param.c   ****             fCommitAllMW();
1077:src/param.c   ****             state++;              // fall through
1078:src/param.c   ****           case ST_TERM_CFG:
1079:src/param.c   ****             // Search Term Cfg Table
1080:src/param.c   ****             node = mxmlFindElement(node, tree, "Terminal", NULL, NULL, MXML_DESCEND);
1081:src/param.c   ****             if (node != NULL) {
1082:src/param.c   ****               if (node->type == MXML_ELEMENT) {
1083:src/param.c   ****                 //SprintfMW(buf, "T->name: %s", node->value.element.name);
1084:src/param.c   ****                 next_node = node->next;
1085:src/param.c   ****               }
1086:src/param.c   ****               //DispLineMW(buf, MW_LINE1, MW_CLRDISP|MW_SPFONT);
1087:src/param.c   ****               //SprintfMW(buf, "T->type: %d", node->type);
1088:src/param.c   ****               //DispLineMW(buf, MW_LINE2, MW_SPFONT);
1089:src/param.c   **** #if 0
1090:src/param.c   ****               string = (BYTE *)mxmlGetText(node, NULL);
1091:src/param.c   ****               if (string != NULL) {
1092:src/param.c   ****                 SprintfMW(buf, "T->text[%d]: %s", strlen(string), string);
1093:src/param.c   ****               }
1094:src/param.c   ****               else {
1095:src/param.c   ****                 SprintfMW(buf, "T->text: XXX");
1096:src/param.c   ****               }
1097:src/param.c   ****               DispLineMW(buf, MW_LINE3, MW_SPFONT);
1098:src/param.c   ****               WaitKey(KBD_TIMEOUT);
1099:src/param.c   **** #endif
1100:src/param.c   ****               // parse sub-level of "option/choice" only
1101:src/param.c   ****               node = ParseTermCfg(tree, node, next_node);
1102:src/param.c   ****             }
1103:src/param.c   ****             else {
1104:src/param.c   ****               //node = tree = stree;        // search from start for next state
1105:src/param.c   ****               start = 1;
1106:src/param.c   ****               state++;
1107:src/param.c   ****             }
1108:src/param.c   ****             break;
1109:src/param.c   ****           case ST_TERM_ACQ:
1110:src/param.c   ****             // Search Acquirer Table
1111:src/param.c   ****             node = mxmlFindElement(node, tree, "Acquirer", NULL, NULL, MXML_DESCEND);
1112:src/param.c   ****             if (node != NULL) {
1113:src/param.c   ****               if (node->type == MXML_ELEMENT) {
1114:src/param.c   ****                 //SprintfMW(buf, "T->name: %s", node->value.element.name);
1115:src/param.c   ****                 next_node = node->next;
1116:src/param.c   ****               }
1117:src/param.c   ****               //DispLineMW(buf, MW_LINE1, MW_CLRDISP|MW_SPFONT);
1118:src/param.c   ****               //SprintfMW(buf, "T->type: %d", node->type);
1119:src/param.c   ****               //DispLineMW(buf, MW_LINE2, MW_SPFONT);
1120:src/param.c   **** #if 0
1121:src/param.c   ****               string = (BYTE *)mxmlGetText(node, NULL);
1122:src/param.c   ****               if (string != NULL) {
1123:src/param.c   ****                 SprintfMW(buf, "A->text[%d]: %s", strlen(string), string);
1124:src/param.c   ****               }
1125:src/param.c   ****               else {
1126:src/param.c   ****                 SprintfMW(buf, "A->text: XXX");
ARM GAS  C:\Users\AHMED~1.ELE\AppData\Local\Temp\ccpjtoUe.s 			page 67


1127:src/param.c   ****               }
1128:src/param.c   ****               DispLineMW(buf, MW_LINE3, MW_SPFONT);
1129:src/param.c   ****               WaitKey(KBD_TIMEOUT);
1130:src/param.c   **** #endif
1131:src/param.c   ****               // parse sub-level of "option/choice" only
1132:src/param.c   ****               node = ParseAcquirer(tree, node, next_node);
1133:src/param.c   ****             }
1134:src/param.c   ****             else {
1135:src/param.c   ****               //node = tree = stree;        // search from start for next state
1136:src/param.c   ****               start = 1;
1137:src/param.c   ****               state++;
1138:src/param.c   ****             }
1139:src/param.c   ****             break;
1140:src/param.c   ****           case ST_TERM_ISSUER:
1141:src/param.c   ****             // Search Issuer Table
1142:src/param.c   ****             node = mxmlFindElement(node, tree, "Issuer", NULL, NULL, MXML_DESCEND);
1143:src/param.c   ****             if (node != NULL) {
1144:src/param.c   ****               if (node->type == MXML_ELEMENT) {
1145:src/param.c   ****                 //SprintfMW(buf, "I->name: %s", node->value.element.name);
1146:src/param.c   ****                 //DispLineMW(buf, MW_LINE1, MW_CLRDISP|MW_SPFONT);
1147:src/param.c   ****                 next_node = node->next;
1148:src/param.c   ****               }
1149:src/param.c   **** #if 0
1150:src/param.c   ****               string = (BYTE *)mxmlGetText(node, NULL);
1151:src/param.c   ****               if (string != NULL) {
1152:src/param.c   ****                 //SprintfMW(buf, "I->text[%d]: %s", strlen(string), string);
1153:src/param.c   ****                 SprintfMW(buf, "I->text[%d]: %s|%02x%02x", strlen(string), string, string[0],string
1154:src/param.c   ****               }
1155:src/param.c   ****               else {
1156:src/param.c   ****                 SprintfMW(buf, "I->text: XXX");
1157:src/param.c   ****               }
1158:src/param.c   ****               DispLineMW(buf, MW_LINE2, MW_SPFONT);
1159:src/param.c   ****               WaitKey(KBD_TIMEOUT);
1160:src/param.c   **** #endif
1161:src/param.c   ****               // parse sub-level of "option/choice" only
1162:src/param.c   ****               node = ParseIssuer(tree, node, next_node);
1163:src/param.c   ****             }
1164:src/param.c   ****             else {
1165:src/param.c   ****               //DispLineMW("No \"IssuerTable\" Found", MW_LINE5, MW_CLRDISP|MW_CENTER|MW_SPFONT);
1166:src/param.c   ****               //WaitKey(KBD_TIMEOUT);
1167:src/param.c   ****               //node = tree = stree;        // search from start for next state
1168:src/param.c   ****               start = 1;
1169:src/param.c   ****               state++;
1170:src/param.c   ****             }
1171:src/param.c   ****             break;
1172:src/param.c   ****           case ST_TERM_CARD:
1173:src/param.c   ****             // Search Card Table
1174:src/param.c   ****             node = mxmlFindElement(node, tree, "CardRange", NULL, NULL, MXML_DESCEND);
1175:src/param.c   ****             if (node != NULL) {
1176:src/param.c   ****               if (node->type == MXML_ELEMENT) {
1177:src/param.c   ****                 //SprintfMW(buf, "T->name: %s", node->value.element.name);
1178:src/param.c   ****                 next_node = node->next;
1179:src/param.c   ****               }
1180:src/param.c   ****               //DispLineMW(buf, MW_LINE1, MW_CLRDISP|MW_SPFONT);
1181:src/param.c   ****               //SprintfMW(buf, "T->type: %d", node->type);
1182:src/param.c   ****               //DispLineMW(buf, MW_LINE2, MW_SPFONT);
1183:src/param.c   **** #if 0
ARM GAS  C:\Users\AHMED~1.ELE\AppData\Local\Temp\ccpjtoUe.s 			page 68


1184:src/param.c   ****               string = (BYTE *)mxmlGetText(node, NULL);
1185:src/param.c   ****               if (string != NULL) {
1186:src/param.c   ****                 SprintfMW(buf, "C->text[%d]: %s", strlen(string), string);
1187:src/param.c   ****               }
1188:src/param.c   ****               else {
1189:src/param.c   ****                 SprintfMW(buf, "C->text: XXX");
1190:src/param.c   ****               }
1191:src/param.c   ****               DispLineMW(buf, MW_LINE2, MW_SPFONT);
1192:src/param.c   ****               WaitKey(KBD_TIMEOUT);
1193:src/param.c   **** #endif
1194:src/param.c   ****               // parse sub-level of "option/choice" only
1195:src/param.c   ****               node = ParseCard(tree, node, next_node);
1196:src/param.c   ****             }
1197:src/param.c   ****             else {
1198:src/param.c   ****               //node = tree = stree;        // search from start for next state
1199:src/param.c   ****               start = 1;
1200:src/param.c   ****               state++;
1201:src/param.c   ****             }
1202:src/param.c   ****             break;
1203:src/param.c   ****           case ST_EMV_APP:
1204:src/param.c   ****             // Search EMVL2 App
1205:src/param.c   ****             node = mxmlFindElement(node, tree, "EMVLevel2App", NULL, NULL, MXML_DESCEND);
1206:src/param.c   ****             if (node != NULL) {
1207:src/param.c   ****               if (node->type == MXML_ELEMENT) {
1208:src/param.c   ****                 //SprintfMW(buf, "T->name: %s", node->value.element.name);
1209:src/param.c   ****                 next_node = node->next;
1210:src/param.c   ****               }
1211:src/param.c   ****               //DispLineMW(buf, MW_LINE1, MW_CLRDISP|MW_SPFONT);
1212:src/param.c   ****               //SprintfMW(buf, "T->type: %d", node->type);
1213:src/param.c   ****               //DispLineMW(buf, MW_LINE2, MW_SPFONT);
1214:src/param.c   **** #if 0
1215:src/param.c   ****               string = (BYTE *)mxmlGetText(node, NULL);
1216:src/param.c   ****               if (string != NULL) {
1217:src/param.c   ****                 SprintfMW(buf, "C->text[%d]: %s", strlen(string), string);
1218:src/param.c   ****               }
1219:src/param.c   ****               else {
1220:src/param.c   ****                 SprintfMW(buf, "C->text: XXX");
1221:src/param.c   ****               }
1222:src/param.c   ****               DispLineMW(buf, MW_LINE2, MW_SPFONT);
1223:src/param.c   ****               WaitKey(KBD_TIMEOUT);
1224:src/param.c   **** #endif
1225:src/param.c   ****               // parse sub-level of "option/choice" only
1226:src/param.c   ****               node = ParseEmvApp(tree, node, next_node);
1227:src/param.c   ****             }
1228:src/param.c   ****             else {
1229:src/param.c   ****               //node = tree = stree;        // search from start for next state
1230:src/param.c   ****               start = 1;
1231:src/param.c   ****               state++;
1232:src/param.c   ****             }
1233:src/param.c   ****             break;
1234:src/param.c   ****           case ST_CTL_APP:
1235:src/param.c   ****             // Search EMVCTL App
1236:src/param.c   ****             node = mxmlFindElement(node, tree, "EMVCtlApp", NULL, NULL, MXML_DESCEND);
1237:src/param.c   ****             if (node != NULL) {
1238:src/param.c   ****               if (node->type == MXML_ELEMENT) {
1239:src/param.c   ****                 //SprintfMW(buf, "T->name: %s", node->value.element.name);
1240:src/param.c   ****                 next_node = node->next;
ARM GAS  C:\Users\AHMED~1.ELE\AppData\Local\Temp\ccpjtoUe.s 			page 69


1241:src/param.c   ****               }
1242:src/param.c   ****               //DispLineMW(buf, MW_LINE1, MW_CLRDISP|MW_SPFONT);
1243:src/param.c   ****               //SprintfMW(buf, "T->type: %d", node->type);
1244:src/param.c   ****               //DispLineMW(buf, MW_LINE2, MW_SPFONT);
1245:src/param.c   **** #if 0
1246:src/param.c   ****               string = (BYTE *)mxmlGetText(node, NULL);
1247:src/param.c   ****               if (string != NULL) {
1248:src/param.c   ****                 SprintfMW(buf, "C->text[%d]: %s", strlen(string), string);
1249:src/param.c   ****               }
1250:src/param.c   ****               else {
1251:src/param.c   ****                 SprintfMW(buf, "C->text: XXX");
1252:src/param.c   ****               }
1253:src/param.c   ****               DispLineMW(buf, MW_LINE2, MW_SPFONT);
1254:src/param.c   ****               WaitKey(KBD_TIMEOUT);
1255:src/param.c   **** #endif
1256:src/param.c   ****               // parse sub-level of "option/choice" only
1257:src/param.c   ****               node = ParseCtlApp(tree, node, next_node);
1258:src/param.c   ****             }
1259:src/param.c   ****             else {
1260:src/param.c   ****               //node = tree = stree;        // search from start for next state
1261:src/param.c   ****               start = 1;
1262:src/param.c   ****               state++;
1263:src/param.c   ****             }
1264:src/param.c   ****             break;
1265:src/param.c   ****           case ST_EMV_KEY:
1266:src/param.c   ****             // Search EMVL2 Key
1267:src/param.c   ****             node = mxmlFindElement(node, tree, "EMVLevel2Key", NULL, NULL, MXML_DESCEND);
1268:src/param.c   ****             if (node != NULL) {
1269:src/param.c   ****               if (node->type == MXML_ELEMENT) {
1270:src/param.c   ****                 //SprintfMW(buf, "T->name: %s", node->value.element.name);
1271:src/param.c   ****                 next_node = node->next;
1272:src/param.c   ****               }
1273:src/param.c   ****               //DispLineMW(buf, MW_LINE1, MW_CLRDISP|MW_SPFONT);
1274:src/param.c   ****               //SprintfMW(buf, "T->type: %d", node->type);
1275:src/param.c   ****               //DispLineMW(buf, MW_LINE2, MW_SPFONT);
1276:src/param.c   **** #if 0
1277:src/param.c   ****               string = (BYTE *)mxmlGetText(node, NULL);
1278:src/param.c   ****               if (string != NULL) {
1279:src/param.c   ****                 SprintfMW(buf, "C->text[%d]: %s", strlen(string), string);
1280:src/param.c   ****               }
1281:src/param.c   ****               else {
1282:src/param.c   ****                 SprintfMW(buf, "C->text: XXX");
1283:src/param.c   ****               }
1284:src/param.c   ****               DispLineMW(buf, MW_LINE2, MW_SPFONT);
1285:src/param.c   ****               WaitKey(KBD_TIMEOUT);
1286:src/param.c   **** #endif
1287:src/param.c   ****               // parse sub-level of "option/choice" only
1288:src/param.c   ****               node = ParseEmvKey(tree, node, next_node);
1289:src/param.c   ****             }
1290:src/param.c   ****             else {
1291:src/param.c   ****               //node = tree = stree;        // search from start for next state
1292:src/param.c   ****               start = 1;
1293:src/param.c   ****               state++;
1294:src/param.c   ****             }
1295:src/param.c   ****             break;
1296:src/param.c   ****           case ST_END:
1297:src/param.c   ****           default:
ARM GAS  C:\Users\AHMED~1.ELE\AppData\Local\Temp\ccpjtoUe.s 			page 70


1298:src/param.c   ****             node = NULL;
 2569              		.loc 1 1298 0
 2570 0048 0024     		movs	r4, #0
 2571              	.LVL390:
 2572 004a F1E7     		b	.L269
 2573              	.LVL391:
 2574              	.L271:
1073:src/param.c   ****             CreateSTISFiles();
 2575              		.loc 1 1073 0
 2576 004c FFF7FEFF 		bl	CloseSTISFiles
 2577              	.LVL392:
1074:src/param.c   ****             SetSTISMode(INIT_MODE);
 2578              		.loc 1 1074 0
 2579 0050 FFF7FEFF 		bl	CreateSTISFiles
 2580              	.LVL393:
1075:src/param.c   ****             fCommitAllMW();
 2581              		.loc 1 1075 0
 2582 0054 0120     		movs	r0, #1
 2583 0056 FFF7FEFF 		bl	SetSTISMode
 2584              	.LVL394:
1076:src/param.c   ****             state++;              // fall through
 2585              		.loc 1 1076 0
 2586 005a 0022     		movs	r2, #0
 2587 005c 0F20     		movs	r0, #15
 2588 005e 0092     		str	r2, [sp]
 2589 0060 1321     		movs	r1, #19
 2590 0062 1346     		mov	r3, r2
 2591 0064 FFF7FEFF 		bl	lib_app_call
 2592              	.LVL395:
 2593              	.L273:
1080:src/param.c   ****             if (node != NULL) {
 2594              		.loc 1 1080 0
 2595 0068 0023     		movs	r3, #0
 2596 006a 0122     		movs	r2, #1
 2597 006c 2046     		mov	r0, r4
 2598 006e 0192     		str	r2, [sp, #4]
 2599 0070 0093     		str	r3, [sp]
 2600 0072 2946     		mov	r1, r5
 2601 0074 7E4A     		ldr	r2, .L330+8
 2602 0076 FFF7FEFF 		bl	mxmlFindElement
 2603              	.LVL396:
1081:src/param.c   ****               if (node->type == MXML_ELEMENT) {
 2604              		.loc 1 1081 0
 2605 007a 0446     		mov	r4, r0
 2606 007c 08B9     		cbnz	r0, .L323
1106:src/param.c   ****             }
 2607              		.loc 1 1106 0
 2608 007e 0226     		movs	r6, #2
 2609 0080 CCE7     		b	.L320
 2610              	.L323:
1082:src/param.c   ****                 //SprintfMW(buf, "T->name: %s", node->value.element.name);
 2611              		.loc 1 1082 0
 2612 0082 90F90030 		ldrsb	r3, [r0]
 2613 0086 03B9     		cbnz	r3, .L280
1084:src/param.c   ****               }
 2614              		.loc 1 1084 0
 2615 0088 4768     		ldr	r7, [r0, #4]
ARM GAS  C:\Users\AHMED~1.ELE\AppData\Local\Temp\ccpjtoUe.s 			page 71


 2616              	.LVL397:
 2617              	.L280:
1101:src/param.c   ****             }
 2618              		.loc 1 1101 0
 2619 008a 2146     		mov	r1, r4
 2620 008c 2846     		mov	r0, r5
 2621              	.LVL398:
 2622 008e 3A46     		mov	r2, r7
 2623 0090 FFF7FEFF 		bl	ParseTermCfg
 2624              	.LVL399:
 2625 0094 0126     		movs	r6, #1
 2626 0096 0446     		mov	r4, r0
 2627              	.LVL400:
 2628 0098 CAE7     		b	.L269
 2629              	.LVL401:
 2630              	.L274:
1111:src/param.c   ****             if (node != NULL) {
 2631              		.loc 1 1111 0
 2632 009a 0093     		str	r3, [sp]
 2633 009c 0123     		movs	r3, #1
 2634 009e 2046     		mov	r0, r4
 2635 00a0 0193     		str	r3, [sp, #4]
 2636 00a2 2946     		mov	r1, r5
 2637 00a4 734A     		ldr	r2, .L330+12
 2638 00a6 0023     		movs	r3, #0
 2639 00a8 FFF7FEFF 		bl	mxmlFindElement
 2640              	.LVL402:
1112:src/param.c   ****               if (node->type == MXML_ELEMENT) {
 2641              		.loc 1 1112 0
 2642 00ac 0446     		mov	r4, r0
 2643 00ae 08B9     		cbnz	r0, .L324
1137:src/param.c   ****             }
 2644              		.loc 1 1137 0
 2645 00b0 0326     		movs	r6, #3
 2646 00b2 B3E7     		b	.L320
 2647              	.L324:
1113:src/param.c   ****                 //SprintfMW(buf, "T->name: %s", node->value.element.name);
 2648              		.loc 1 1113 0
 2649 00b4 90F90030 		ldrsb	r3, [r0]
 2650 00b8 03B9     		cbnz	r3, .L281
1115:src/param.c   ****               }
 2651              		.loc 1 1115 0
 2652 00ba 4768     		ldr	r7, [r0, #4]
 2653              	.LVL403:
 2654              	.L281:
1132:src/param.c   ****             }
 2655              		.loc 1 1132 0
 2656 00bc 2846     		mov	r0, r5
 2657              	.LVL404:
 2658 00be 2146     		mov	r1, r4
 2659 00c0 3A46     		mov	r2, r7
 2660 00c2 FFF7FEFF 		bl	ParseAcquirer
 2661              	.LVL405:
 2662 00c6 B2E7     		b	.L321
 2663              	.L275:
1142:src/param.c   ****             if (node != NULL) {
 2664              		.loc 1 1142 0
ARM GAS  C:\Users\AHMED~1.ELE\AppData\Local\Temp\ccpjtoUe.s 			page 72


 2665 00c8 0093     		str	r3, [sp]
 2666 00ca 0123     		movs	r3, #1
 2667 00cc 2046     		mov	r0, r4
 2668 00ce 0193     		str	r3, [sp, #4]
 2669 00d0 2946     		mov	r1, r5
 2670 00d2 694A     		ldr	r2, .L330+16
 2671 00d4 0023     		movs	r3, #0
 2672 00d6 FFF7FEFF 		bl	mxmlFindElement
 2673              	.LVL406:
1143:src/param.c   ****               if (node->type == MXML_ELEMENT) {
 2674              		.loc 1 1143 0
 2675 00da 0446     		mov	r4, r0
 2676 00dc 08B9     		cbnz	r0, .L325
1169:src/param.c   ****             }
 2677              		.loc 1 1169 0
 2678 00de 0426     		movs	r6, #4
 2679 00e0 9CE7     		b	.L320
 2680              	.L325:
1144:src/param.c   ****                 //SprintfMW(buf, "I->name: %s", node->value.element.name);
 2681              		.loc 1 1144 0
 2682 00e2 90F90030 		ldrsb	r3, [r0]
 2683 00e6 03B9     		cbnz	r3, .L282
1147:src/param.c   ****               }
 2684              		.loc 1 1147 0
 2685 00e8 4768     		ldr	r7, [r0, #4]
 2686              	.LVL407:
 2687              	.L282:
1162:src/param.c   ****             }
 2688              		.loc 1 1162 0
 2689 00ea 2846     		mov	r0, r5
 2690              	.LVL408:
 2691 00ec 2146     		mov	r1, r4
 2692 00ee 3A46     		mov	r2, r7
 2693 00f0 FFF7FEFF 		bl	ParseIssuer
 2694              	.LVL409:
 2695 00f4 9BE7     		b	.L321
 2696              	.L276:
1174:src/param.c   ****             if (node != NULL) {
 2697              		.loc 1 1174 0
 2698 00f6 0093     		str	r3, [sp]
 2699 00f8 0123     		movs	r3, #1
 2700 00fa 2046     		mov	r0, r4
 2701 00fc 0193     		str	r3, [sp, #4]
 2702 00fe 2946     		mov	r1, r5
 2703 0100 5E4A     		ldr	r2, .L330+20
 2704 0102 0023     		movs	r3, #0
 2705 0104 FFF7FEFF 		bl	mxmlFindElement
 2706              	.LVL410:
1175:src/param.c   ****               if (node->type == MXML_ELEMENT) {
 2707              		.loc 1 1175 0
 2708 0108 0446     		mov	r4, r0
 2709 010a 08B9     		cbnz	r0, .L326
1200:src/param.c   ****             }
 2710              		.loc 1 1200 0
 2711 010c 0526     		movs	r6, #5
 2712 010e 85E7     		b	.L320
 2713              	.L326:
ARM GAS  C:\Users\AHMED~1.ELE\AppData\Local\Temp\ccpjtoUe.s 			page 73


1176:src/param.c   ****                 //SprintfMW(buf, "T->name: %s", node->value.element.name);
 2714              		.loc 1 1176 0
 2715 0110 90F90030 		ldrsb	r3, [r0]
 2716 0114 03B9     		cbnz	r3, .L283
1178:src/param.c   ****               }
 2717              		.loc 1 1178 0
 2718 0116 4768     		ldr	r7, [r0, #4]
 2719              	.LVL411:
 2720              	.L283:
1195:src/param.c   ****             }
 2721              		.loc 1 1195 0
 2722 0118 2846     		mov	r0, r5
 2723              	.LVL412:
 2724 011a 2146     		mov	r1, r4
 2725 011c 3A46     		mov	r2, r7
 2726 011e FFF7FEFF 		bl	ParseCard
 2727              	.LVL413:
 2728 0122 84E7     		b	.L321
 2729              	.L277:
1205:src/param.c   ****             if (node != NULL) {
 2730              		.loc 1 1205 0
 2731 0124 0093     		str	r3, [sp]
 2732 0126 0123     		movs	r3, #1
 2733 0128 2046     		mov	r0, r4
 2734 012a 0193     		str	r3, [sp, #4]
 2735 012c 2946     		mov	r1, r5
 2736 012e 544A     		ldr	r2, .L330+24
 2737 0130 0023     		movs	r3, #0
 2738 0132 FFF7FEFF 		bl	mxmlFindElement
 2739              	.LVL414:
1206:src/param.c   ****               if (node->type == MXML_ELEMENT) {
 2740              		.loc 1 1206 0
 2741 0136 0446     		mov	r4, r0
 2742 0138 08B9     		cbnz	r0, .L327
1231:src/param.c   ****             }
 2743              		.loc 1 1231 0
 2744 013a 0626     		movs	r6, #6
 2745 013c 6EE7     		b	.L320
 2746              	.L327:
1207:src/param.c   ****                 //SprintfMW(buf, "T->name: %s", node->value.element.name);
 2747              		.loc 1 1207 0
 2748 013e 90F90030 		ldrsb	r3, [r0]
 2749 0142 03B9     		cbnz	r3, .L284
1209:src/param.c   ****               }
 2750              		.loc 1 1209 0
 2751 0144 4768     		ldr	r7, [r0, #4]
 2752              	.LVL415:
 2753              	.L284:
1226:src/param.c   ****             }
 2754              		.loc 1 1226 0
 2755 0146 2846     		mov	r0, r5
 2756              	.LVL416:
 2757 0148 2146     		mov	r1, r4
 2758 014a 3A46     		mov	r2, r7
 2759 014c FFF7FEFF 		bl	ParseEmvApp
 2760              	.LVL417:
 2761 0150 6DE7     		b	.L321
ARM GAS  C:\Users\AHMED~1.ELE\AppData\Local\Temp\ccpjtoUe.s 			page 74


 2762              	.L278:
1236:src/param.c   ****             if (node != NULL) {
 2763              		.loc 1 1236 0
 2764 0152 0093     		str	r3, [sp]
 2765 0154 0123     		movs	r3, #1
 2766 0156 2046     		mov	r0, r4
 2767 0158 0193     		str	r3, [sp, #4]
 2768 015a 2946     		mov	r1, r5
 2769 015c 494A     		ldr	r2, .L330+28
 2770 015e 0023     		movs	r3, #0
 2771 0160 FFF7FEFF 		bl	mxmlFindElement
 2772              	.LVL418:
1237:src/param.c   ****               if (node->type == MXML_ELEMENT) {
 2773              		.loc 1 1237 0
 2774 0164 0446     		mov	r4, r0
 2775 0166 08B9     		cbnz	r0, .L328
1262:src/param.c   ****             }
 2776              		.loc 1 1262 0
 2777 0168 0726     		movs	r6, #7
 2778 016a 57E7     		b	.L320
 2779              	.L328:
1238:src/param.c   ****                 //SprintfMW(buf, "T->name: %s", node->value.element.name);
 2780              		.loc 1 1238 0
 2781 016c 90F90030 		ldrsb	r3, [r0]
 2782 0170 03B9     		cbnz	r3, .L285
1240:src/param.c   ****               }
 2783              		.loc 1 1240 0
 2784 0172 4768     		ldr	r7, [r0, #4]
 2785              	.LVL419:
 2786              	.L285:
1257:src/param.c   ****             }
 2787              		.loc 1 1257 0
 2788 0174 2846     		mov	r0, r5
 2789              	.LVL420:
 2790 0176 2146     		mov	r1, r4
 2791 0178 3A46     		mov	r2, r7
 2792 017a FFF7FEFF 		bl	ParseCtlApp
 2793              	.LVL421:
 2794 017e 56E7     		b	.L321
 2795              	.L279:
1267:src/param.c   ****             if (node != NULL) {
 2796              		.loc 1 1267 0
 2797 0180 0093     		str	r3, [sp]
 2798 0182 0123     		movs	r3, #1
 2799 0184 2046     		mov	r0, r4
 2800 0186 0193     		str	r3, [sp, #4]
 2801 0188 2946     		mov	r1, r5
 2802 018a 3F4A     		ldr	r2, .L330+32
 2803 018c 0023     		movs	r3, #0
 2804 018e FFF7FEFF 		bl	mxmlFindElement
 2805              	.LVL422:
1268:src/param.c   ****               if (node->type == MXML_ELEMENT) {
 2806              		.loc 1 1268 0
 2807 0192 0446     		mov	r4, r0
 2808 0194 08B9     		cbnz	r0, .L329
1293:src/param.c   ****             }
 2809              		.loc 1 1293 0
ARM GAS  C:\Users\AHMED~1.ELE\AppData\Local\Temp\ccpjtoUe.s 			page 75


 2810 0196 0826     		movs	r6, #8
 2811 0198 40E7     		b	.L320
 2812              	.L329:
1269:src/param.c   ****                 //SprintfMW(buf, "T->name: %s", node->value.element.name);
 2813              		.loc 1 1269 0
 2814 019a 90F90030 		ldrsb	r3, [r0]
 2815 019e 03B9     		cbnz	r3, .L286
1271:src/param.c   ****               }
 2816              		.loc 1 1271 0
 2817 01a0 4768     		ldr	r7, [r0, #4]
 2818              	.LVL423:
 2819              	.L286:
1288:src/param.c   ****             }
 2820              		.loc 1 1288 0
 2821 01a2 2846     		mov	r0, r5
 2822              	.LVL424:
 2823 01a4 2146     		mov	r1, r4
 2824 01a6 3A46     		mov	r2, r7
 2825 01a8 FFF7FEFF 		bl	ParseEmvKey
 2826              	.LVL425:
 2827 01ac 3FE7     		b	.L321
 2828              	.LVL426:
 2829              	.L322:
 2830              	.LBB23:
1299:src/param.c   ****             break;
1300:src/param.c   ****         }
1301:src/param.c   ****       }
1302:src/param.c   ****       else {
1303:src/param.c   **** #if 0
1304:src/param.c   ****         DispLineMW("No \"TermTable\" Found", MW_LINE5, MW_CLRDISP|MW_CENTER|MW_SPFONT);
1305:src/param.c   ****         WaitKey(KBD_TIMEOUT);
1306:src/param.c   **** #endif
1307:src/param.c   ****         break;
1308:src/param.c   ****       }
1309:src/param.c   ****     }
1310:src/param.c   ****   }
1311:src/param.c   ****   else {
1312:src/param.c   ****     DispLineMW("Load String Fail!", MW_LINE5, MW_CLRDISP|MW_CENTER|MW_SPFONT);
 2831              		.loc 1 1312 0
 2832 01ae 9220     		movs	r0, #146
 2833              	.LVL427:
 2834 01b0 1221     		movs	r1, #18
 2835 01b2 FFF7FEFF 		bl	sys_func1
 2836              	.LVL428:
 2837 01b6 0446     		mov	r4, r0
 2838 01b8 90B1     		cbz	r0, .L287
 2839              		.loc 1 1312 0 is_stmt 0 discriminator 1
 2840 01ba 3449     		ldr	r1, .L330+36
 2841 01bc 1122     		movs	r2, #17
 2842 01be FFF7FEFF 		bl	memcpy
 2843              	.LVL429:
 2844 01c2 42F28203 		movw	r3, #8322
 2845 01c6 6574     		strb	r5, [r4, #17]
 2846 01c8 2521     		movs	r1, #37
 2847 01ca 0093     		str	r3, [sp]
 2848 01cc 0F20     		movs	r0, #15
 2849 01ce 2246     		mov	r2, r4
ARM GAS  C:\Users\AHMED~1.ELE\AppData\Local\Temp\ccpjtoUe.s 			page 76


 2850 01d0 4FF4A063 		mov	r3, #1280
 2851 01d4 FFF7FEFF 		bl	lib_app_call
 2852              	.LVL430:
 2853 01d8 9420     		movs	r0, #148
 2854 01da 2146     		mov	r1, r4
 2855 01dc FFF7FEFF 		bl	sys_func1
 2856              	.LVL431:
 2857              	.L287:
 2858              	.LBE23:
1313:src/param.c   ****     WaitKey(KBD_TIMEOUT);
 2859              		.loc 1 1313 0 is_stmt 1
 2860 01e0 42F22830 		movw	r0, #9000
 2861 01e4 FFF7FEFF 		bl	WaitKey
 2862              	.LVL432:
 2863              	.L270:
1314:src/param.c   ****   }
1315:src/param.c   ****   mxmlDelete(node);
 2864              		.loc 1 1315 0
 2865 01e8 0020     		movs	r0, #0
 2866 01ea FFF7FEFF 		bl	mxmlDelete
 2867              	.LVL433:
1316:src/param.c   ****   mxmlDelete(tree);
 2868              		.loc 1 1316 0
 2869 01ee 2846     		mov	r0, r5
 2870 01f0 FFF7FEFF 		bl	mxmlDelete
 2871              	.LVL434:
1317:src/param.c   ****   if (GetAcqCount() && GetIssuerCount() && GetCardCount()) {
 2872              		.loc 1 1317 0
 2873 01f4 FFF7FEFF 		bl	GetAcqCount
 2874              	.LVL435:
 2875 01f8 08B9     		cbnz	r0, .L288
 2876              	.L290:
1057:src/param.c   **** 
 2877              		.loc 1 1057 0
 2878 01fa 0020     		movs	r0, #0
 2879 01fc 32E0     		b	.L289
 2880              	.L288:
 2881              		.loc 1 1317 0 discriminator 1
 2882 01fe FFF7FEFF 		bl	GetIssuerCount
 2883              	.LVL436:
 2884 0202 0028     		cmp	r0, #0
 2885 0204 F9D0     		beq	.L290
 2886              		.loc 1 1317 0 is_stmt 0 discriminator 2
 2887 0206 FFF7FEFF 		bl	GetCardCount
 2888              	.LVL437:
 2889 020a 0028     		cmp	r0, #0
 2890 020c F5D0     		beq	.L290
1318:src/param.c   ****     SetAPNConfig();
1319:src/param.c   ****     SetSTISMode(TRANS_MODE);
1320:src/param.c   ****     DispClrBelowMW(MW_LINE3);
 2891              		.loc 1 1320 0 is_stmt 1
 2892 020e 0025     		movs	r5, #0
 2893              	.LVL438:
1318:src/param.c   ****     SetAPNConfig();
 2894              		.loc 1 1318 0
 2895 0210 FFF7FEFF 		bl	SetAPNConfig
 2896              	.LVL439:
ARM GAS  C:\Users\AHMED~1.ELE\AppData\Local\Temp\ccpjtoUe.s 			page 77


1319:src/param.c   ****     DispClrBelowMW(MW_LINE3);
 2897              		.loc 1 1319 0
 2898 0214 0220     		movs	r0, #2
 2899 0216 FFF7FEFF 		bl	SetSTISMode
 2900              	.LVL440:
 2901              		.loc 1 1320 0
 2902 021a 2321     		movs	r1, #35
 2903 021c 4FF44072 		mov	r2, #768
 2904 0220 2B46     		mov	r3, r5
 2905 0222 0095     		str	r5, [sp]
 2906 0224 0F20     		movs	r0, #15
 2907 0226 FFF7FEFF 		bl	lib_app_call
 2908              	.LVL441:
 2909              	.LBB24:
1321:src/param.c   ****     DispLineMW("PARAM UPDATED", MW_LINE5, MW_CENTER|MW_SMFONT);
 2910              		.loc 1 1321 0
 2911 022a 9220     		movs	r0, #146
 2912 022c 0E21     		movs	r1, #14
 2913 022e FFF7FEFF 		bl	sys_func1
 2914              	.LVL442:
 2915 0232 0446     		mov	r4, r0
 2916 0234 88B1     		cbz	r0, .L291
 2917              		.loc 1 1321 0 is_stmt 0 discriminator 1
 2918 0236 1649     		ldr	r1, .L330+40
 2919 0238 0D22     		movs	r2, #13
 2920 023a FFF7FEFF 		bl	memcpy
 2921              	.LVL443:
 2922 023e 0223     		movs	r3, #2
 2923 0240 6573     		strb	r5, [r4, #13]
 2924 0242 2521     		movs	r1, #37
 2925 0244 0093     		str	r3, [sp]
 2926 0246 0F20     		movs	r0, #15
 2927 0248 2246     		mov	r2, r4
 2928 024a 4FF4A063 		mov	r3, #1280
 2929 024e FFF7FEFF 		bl	lib_app_call
 2930              	.LVL444:
 2931 0252 9420     		movs	r0, #148
 2932 0254 2146     		mov	r1, r4
 2933 0256 FFF7FEFF 		bl	sys_func1
 2934              	.LVL445:
 2935              	.L291:
 2936              	.LBE24:
1322:src/param.c   ****     WaitKey(300);
 2937              		.loc 1 1322 0 is_stmt 1
 2938 025a 4FF49670 		mov	r0, #300
 2939 025e FFF7FEFF 		bl	WaitKey
 2940              	.LVL446:
1323:src/param.c   ****     ret = TRUE;
 2941              		.loc 1 1323 0
 2942 0262 0120     		movs	r0, #1
 2943              	.LVL447:
 2944              	.L289:
1324:src/param.c   ****   }
1325:src/param.c   ****     
1326:src/param.c   ****   return ret;
1327:src/param.c   **** }
 2945              		.loc 1 1327 0
ARM GAS  C:\Users\AHMED~1.ELE\AppData\Local\Temp\ccpjtoUe.s 			page 78


 2946 0264 03B0     		add	sp, sp, #12
 2947              		.cfi_def_cfa_offset 20
 2948              		@ sp needed
 2949 0266 F0BD     		pop	{r4, r5, r6, r7, pc}
 2950              	.L331:
 2951              		.align	2
 2952              	.L330:
 2953 0268 00000000 		.word	.LANCHOR1
 2954 026c 82010000 		.word	.LC36
 2955 0270 8E010000 		.word	.LC37
 2956 0274 97010000 		.word	.LC38
 2957 0278 A0010000 		.word	.LC39
 2958 027c A7010000 		.word	.LC40
 2959 0280 B1010000 		.word	.LC41
 2960 0284 BE010000 		.word	.LC42
 2961 0288 C8010000 		.word	.LC43
 2962 028c D5010000 		.word	.LC44
 2963 0290 E7010000 		.word	.LC45
 2964              		.cfi_endproc
 2965              	.LFE13:
 2966              		.size	XmlStringToCfg, .-XmlStringToCfg
 2967              		.section	.text.STISLoadParam,"ax",%progbits
 2968              		.align	1
 2969              		.global	STISLoadParam
 2970              		.thumb
 2971              		.thumb_func
 2972              		.type	STISLoadParam, %function
 2973              	STISLoadParam:
 2974              	.LFB14:
1328:src/param.c   **** //*****************************************************************************
1329:src/param.c   **** //  Function        : STISLoadParam
1330:src/param.c   **** //  Description     : Load XML file and save params.
1331:src/param.c   **** //  Input           : N/A
1332:src/param.c   **** //  Return          : N/A
1333:src/param.c   **** //  Note            : N/A
1334:src/param.c   **** //  Globals Changed : N/A
1335:src/param.c   **** //*****************************************************************************
1336:src/param.c   **** BOOLEAN STISLoadParam(void)
1337:src/param.c   **** {
 2975              		.loc 1 1337 0
 2976              		.cfi_startproc
 2977              		@ args = 0, pretend = 0, frame = 96
 2978              		@ frame_needed = 0, uses_anonymous_args = 0
 2979 0000 2DE9F041 		push	{r4, r5, r6, r7, r8, lr}
 2980              		.cfi_def_cfa_offset 24
 2981              		.cfi_offset 4, -24
 2982              		.cfi_offset 5, -20
 2983              		.cfi_offset 6, -16
 2984              		.cfi_offset 7, -12
 2985              		.cfi_offset 8, -8
 2986              		.cfi_offset 14, -4
 2987 0004 9AB0     		sub	sp, sp, #104
 2988              		.cfi_def_cfa_offset 128
1338:src/param.c   ****   T_FILE file_info, *pInfo;
1339:src/param.c   ****   int    fd, fsize, rlen;
1340:src/param.c   ****   BYTE   fname[32], *ptr;
1341:src/param.c   ****   DWORD  ctrl;
ARM GAS  C:\Users\AHMED~1.ELE\AppData\Local\Temp\ccpjtoUe.s 			page 79


1342:src/param.c   **** 
1343:src/param.c   ****   strcpy(fname, "PARAM8");
 2989              		.loc 1 1343 0
 2990 0006 4549     		ldr	r1, .L349
 2991 0008 03A8     		add	r0, sp, #12
 2992 000a FFF7FEFF 		bl	strcpy
 2993              	.LVL448:
1344:src/param.c   ****   ctrl = K_SearchPub|K_SearchReset;
 2994              		.loc 1 1344 0
 2995 000e 0321     		movs	r1, #3
 2996              	.LVL449:
 2997              	.L335:
1345:src/param.c   ****   while (1) {
1346:src/param.c   ****     pInfo = os_file_search_data(ctrl, &file_info);
 2998              		.loc 1 1346 0
 2999 0010 A520     		movs	r0, #165
 3000 0012 0BAA     		add	r2, sp, #44
 3001 0014 FFF7FEFF 		bl	sys_func2
 3002              	.LVL450:
1347:src/param.c   ****     if (pInfo == NULL)
 3003              		.loc 1 1347 0
 3004 0018 0446     		mov	r4, r0
 3005 001a 0028     		cmp	r0, #0
 3006 001c 5BD0     		beq	.L333
1348:src/param.c   ****       break;
1349:src/param.c   ****     if (memcmp(fname, pInfo->s_name, 6) == 0)
 3007              		.loc 1 1349 0
 3008 001e 2146     		mov	r1, r4
 3009 0020 03A8     		add	r0, sp, #12
 3010              	.LVL451:
 3011 0022 0622     		movs	r2, #6
 3012 0024 FFF7FEFF 		bl	memcmp
 3013              	.LVL452:
1350:src/param.c   ****       break;
1351:src/param.c   ****     ctrl = K_SearchPub|K_SearchNext;
 3014              		.loc 1 1351 0
 3015 0028 0221     		movs	r1, #2
1349:src/param.c   ****       break;
 3016              		.loc 1 1349 0
 3017 002a 0646     		mov	r6, r0
 3018 002c 0028     		cmp	r0, #0
 3019 002e EFD1     		bne	.L335
1352:src/param.c   ****   }
1353:src/param.c   ****   if (pInfo == NULL) {
1354:src/param.c   ****     DispLineMW("PARAM8 not found!", MW_LINE5, MW_CLRDISP|MW_CENTER|MW_SPFONT);
1355:src/param.c   ****     WaitKey(KBD_TIMEOUT);
1356:src/param.c   ****     return FALSE;
1357:src/param.c   ****   }
1358:src/param.c   ****   
1359:src/param.c   ****   strcpy(fname, pInfo->s_owner);
 3020              		.loc 1 1359 0
 3021 0030 04F11401 		add	r1, r4, #20
 3022 0034 03A8     		add	r0, sp, #12
 3023 0036 FFF7FEFF 		bl	strcpy
 3024              	.LVL453:
1360:src/param.c   ****   strcat(fname, pInfo->s_name);
 3025              		.loc 1 1360 0
ARM GAS  C:\Users\AHMED~1.ELE\AppData\Local\Temp\ccpjtoUe.s 			page 80


 3026 003a 2146     		mov	r1, r4
 3027 003c 03A8     		add	r0, sp, #12
 3028 003e FFF7FEFF 		bl	strcat
 3029              	.LVL454:
1361:src/param.c   ****   fd = os_file_open(fname, K_O_RDONLY);
 3030              		.loc 1 1361 0
 3031 0042 03A9     		add	r1, sp, #12
 3032 0044 3246     		mov	r2, r6
 3033 0046 9620     		movs	r0, #150
 3034 0048 FFF7FEFF 		bl	sys_func2
 3035              	.LVL455:
 3036 004c 0446     		mov	r4, r0
 3037              	.LVL456:
1362:src/param.c   ****   fsize = os_file_length(fd);
 3038              		.loc 1 1362 0
 3039 004e 2146     		mov	r1, r4
 3040 0050 A220     		movs	r0, #162
 3041              	.LVL457:
 3042 0052 FFF7FEFF 		bl	sys_func1
 3043              	.LVL458:
1363:src/param.c   ****   if ((fd != -1) && (fsize > 0)) {
 3044              		.loc 1 1363 0
 3045 0056 631C     		adds	r3, r4, #1
1362:src/param.c   ****   fsize = os_file_length(fd);
 3046              		.loc 1 1362 0
 3047 0058 0746     		mov	r7, r0
 3048              	.LVL459:
 3049              		.loc 1 1363 0
 3050 005a 01D1     		bne	.L340
 3051              	.LVL460:
 3052              	.L346:
1356:src/param.c   ****   }
 3053              		.loc 1 1356 0
 3054 005c 0024     		movs	r4, #0
 3055 005e 58E0     		b	.L344
 3056              	.LVL461:
 3057              	.L340:
 3058              		.loc 1 1363 0 discriminator 1
 3059 0060 002F     		cmp	r7, #0
 3060 0062 FBDD     		ble	.L346
1364:src/param.c   ****     ptr = (BYTE*) MallocMW(fsize);
 3061              		.loc 1 1364 0
 3062 0064 9220     		movs	r0, #146
 3063              	.LVL462:
 3064 0066 3946     		mov	r1, r7
 3065 0068 FFF7FEFF 		bl	sys_func1
 3066              	.LVL463:
1365:src/param.c   ****     if (ptr == NULL) {
 3067              		.loc 1 1365 0
 3068 006c 0546     		mov	r5, r0
 3069 006e 10B9     		cbnz	r0, .L337
1366:src/param.c   ****       os_file_close(fd);
 3070              		.loc 1 1366 0
 3071 0070 9820     		movs	r0, #152
 3072              	.LVL464:
 3073 0072 2146     		mov	r1, r4
 3074 0074 0EE0     		b	.L347
ARM GAS  C:\Users\AHMED~1.ELE\AppData\Local\Temp\ccpjtoUe.s 			page 81


 3075              	.LVL465:
 3076              	.L337:
1367:src/param.c   ****       return FALSE;
1368:src/param.c   ****     }
1369:src/param.c   ****     rlen = os_file_read(fd, ptr, fsize);
 3077              		.loc 1 1369 0
 3078 0076 2146     		mov	r1, r4
 3079 0078 2A46     		mov	r2, r5
 3080 007a 3B46     		mov	r3, r7
 3081 007c 9E20     		movs	r0, #158
 3082              	.LVL466:
 3083 007e FFF7FEFF 		bl	sys_func3
 3084              	.LVL467:
1370:src/param.c   ****     os_file_close(fd);
 3085              		.loc 1 1370 0
 3086 0082 2146     		mov	r1, r4
1369:src/param.c   ****     os_file_close(fd);
 3087              		.loc 1 1369 0
 3088 0084 8046     		mov	r8, r0
 3089              	.LVL468:
 3090              		.loc 1 1370 0
 3091 0086 9820     		movs	r0, #152
 3092              	.LVL469:
 3093 0088 FFF7FEFF 		bl	sys_func1
 3094              	.LVL470:
1371:src/param.c   ****   }
1372:src/param.c   ****   else
1373:src/param.c   ****     return FALSE;
1374:src/param.c   **** 
1375:src/param.c   ****   if (rlen != fsize) {
 3095              		.loc 1 1375 0
 3096 008c B845     		cmp	r8, r7
 3097 008e 04D0     		beq	.L338
 3098              	.LVL471:
 3099              	.L348:
1376:src/param.c   ****     FreeMW(ptr);
 3100              		.loc 1 1376 0
 3101 0090 9420     		movs	r0, #148
 3102 0092 2946     		mov	r1, r5
 3103              	.LVL472:
 3104              	.L347:
 3105 0094 FFF7FEFF 		bl	sys_func1
 3106              	.LVL473:
 3107 0098 E0E7     		b	.L346
 3108              	.LVL474:
 3109              	.L338:
1377:src/param.c   ****     return FALSE;
1378:src/param.c   ****   }
1379:src/param.c   ****   
1380:src/param.c   ****   EMVClrDnloadBuf();
 3110              		.loc 1 1380 0
 3111 009a FFF7FEFF 		bl	EMVClrDnloadBuf
 3112              	.LVL475:
1381:src/param.c   ****   CTLClrDnloadBuf();
 3113              		.loc 1 1381 0
 3114 009e FFF7FEFF 		bl	CTLClrDnloadBuf
 3115              	.LVL476:
ARM GAS  C:\Users\AHMED~1.ELE\AppData\Local\Temp\ccpjtoUe.s 			page 82


1382:src/param.c   ****   if (XmlStringToCfg(ptr) == TRUE) {
 3116              		.loc 1 1382 0
 3117 00a2 2846     		mov	r0, r5
 3118 00a4 FFF7FEFF 		bl	XmlStringToCfg
 3119              	.LVL477:
 3120 00a8 0128     		cmp	r0, #1
 3121 00aa 0446     		mov	r4, r0
 3122              	.LVL478:
 3123 00ac 0ED1     		bne	.L339
1383:src/param.c   ****     EMVDataUpdate();
 3124              		.loc 1 1383 0
 3125 00ae FFF7FEFF 		bl	EMVDataUpdate
 3126              	.LVL479:
1384:src/param.c   ****     EMVInit();
 3127              		.loc 1 1384 0
 3128 00b2 FFF7FEFF 		bl	EMVInit
 3129              	.LVL480:
1385:src/param.c   ****     EMVKillDnloadBuf();
 3130              		.loc 1 1385 0
 3131 00b6 FFF7FEFF 		bl	EMVKillDnloadBuf
 3132              	.LVL481:
1386:src/param.c   ****     CTLDataUpdate();
 3133              		.loc 1 1386 0
 3134 00ba FFF7FEFF 		bl	CTLDataUpdate
 3135              	.LVL482:
1387:src/param.c   ****     CTLKillDnloadBuf();
 3136              		.loc 1 1387 0
 3137 00be FFF7FEFF 		bl	CTLKillDnloadBuf
 3138              	.LVL483:
1388:src/param.c   ****     FreeMW(ptr);
 3139              		.loc 1 1388 0
 3140 00c2 2946     		mov	r1, r5
 3141 00c4 9420     		movs	r0, #148
 3142 00c6 FFF7FEFF 		bl	sys_func1
 3143              	.LVL484:
1389:src/param.c   ****     return TRUE;
 3144              		.loc 1 1389 0
 3145 00ca 22E0     		b	.L344
 3146              	.L339:
1390:src/param.c   ****   }
1391:src/param.c   ****   EMVKillDnloadBuf();
 3147              		.loc 1 1391 0
 3148 00cc FFF7FEFF 		bl	EMVKillDnloadBuf
 3149              	.LVL485:
1392:src/param.c   ****   CTLKillDnloadBuf();
 3150              		.loc 1 1392 0
 3151 00d0 FFF7FEFF 		bl	CTLKillDnloadBuf
 3152              	.LVL486:
 3153 00d4 DCE7     		b	.L348
 3154              	.LVL487:
 3155              	.L333:
 3156              	.LBB25:
1354:src/param.c   ****     WaitKey(KBD_TIMEOUT);
 3157              		.loc 1 1354 0
 3158 00d6 9220     		movs	r0, #146
 3159              	.LVL488:
 3160 00d8 1221     		movs	r1, #18
ARM GAS  C:\Users\AHMED~1.ELE\AppData\Local\Temp\ccpjtoUe.s 			page 83


 3161 00da FFF7FEFF 		bl	sys_func1
 3162              	.LVL489:
 3163 00de 0546     		mov	r5, r0
 3164 00e0 90B1     		cbz	r0, .L342
1354:src/param.c   ****     WaitKey(KBD_TIMEOUT);
 3165              		.loc 1 1354 0 is_stmt 0 discriminator 1
 3166 00e2 0F49     		ldr	r1, .L349+4
 3167 00e4 1122     		movs	r2, #17
 3168 00e6 FFF7FEFF 		bl	memcpy
 3169              	.LVL490:
 3170 00ea 42F28203 		movw	r3, #8322
 3171 00ee 6C74     		strb	r4, [r5, #17]
 3172 00f0 2521     		movs	r1, #37
 3173 00f2 0093     		str	r3, [sp]
 3174 00f4 0F20     		movs	r0, #15
 3175 00f6 2A46     		mov	r2, r5
 3176 00f8 4FF4A063 		mov	r3, #1280
 3177 00fc FFF7FEFF 		bl	lib_app_call
 3178              	.LVL491:
 3179 0100 9420     		movs	r0, #148
 3180 0102 2946     		mov	r1, r5
 3181 0104 FFF7FEFF 		bl	sys_func1
 3182              	.LVL492:
 3183              	.L342:
 3184              	.LBE25:
1355:src/param.c   ****     return FALSE;
 3185              		.loc 1 1355 0 is_stmt 1
 3186 0108 42F22830 		movw	r0, #9000
 3187 010c FFF7FEFF 		bl	WaitKey
 3188              	.LVL493:
 3189 0110 A4E7     		b	.L346
 3190              	.LVL494:
 3191              	.L344:
1393:src/param.c   ****   FreeMW(ptr);
1394:src/param.c   ****   return FALSE;
1395:src/param.c   **** }
 3192              		.loc 1 1395 0
 3193 0112 2046     		mov	r0, r4
 3194 0114 1AB0     		add	sp, sp, #104
 3195              		.cfi_def_cfa_offset 24
 3196              		@ sp needed
 3197 0116 BDE8F081 		pop	{r4, r5, r6, r7, r8, pc}
 3198              	.L350:
 3199 011a 00BF     		.align	2
 3200              	.L349:
 3201 011c F5010000 		.word	.LC46
 3202 0120 FC010000 		.word	.LC47
 3203              		.cfi_endproc
 3204              	.LFE14:
 3205              		.size	STISLoadParam, .-STISLoadParam
 3206              		.global	EmvKeyParam
 3207              		.global	CtlAppParam
 3208              		.global	EmvAppParam
 3209              		.global	CardTableParam
 3210              		.global	IssuerTableParam
 3211              		.global	AcqTableParam
 3212              		.global	TermCfgParam
ARM GAS  C:\Users\AHMED~1.ELE\AppData\Local\Temp\ccpjtoUe.s 			page 84


 3213              		.section	.rodata
 3214              		.align	2
 3215              		.set	.LANCHOR0,. + 0
 3216              		.type	TermCfgParam, %object
 3217              		.size	TermCfgParam, 248
 3218              	TermCfgParam:
 3219 0000 F9030000 		.word	.LC87
 3220 0004 01       		.byte	1
 3221 0005 00       		.space	1
 3222 0006 0100     		.short	1
 3223 0008 FD030000 		.word	.LC88
 3224 000c 01       		.byte	1
 3225 000d 00       		.space	1
 3226 000e 0100     		.short	1
 3227 0010 0A040000 		.word	.LC89
 3228 0014 02       		.byte	2
 3229 0015 00       		.space	1
 3230 0016 0100     		.short	1
 3231 0018 10040000 		.word	.LC90
 3232 001c 02       		.byte	2
 3233 001d 00       		.space	1
 3234 001e 0100     		.short	1
 3235 0020 16040000 		.word	.LC91
 3236 0024 02       		.byte	2
 3237 0025 00       		.space	1
 3238 0026 0600     		.short	6
 3239 0028 20040000 		.word	.LC92
 3240 002c 02       		.byte	2
 3241 002d 00       		.space	1
 3242 002e 0100     		.short	1
 3243 0030 2C040000 		.word	.LC93
 3244 0034 00       		.byte	0
 3245 0035 00       		.space	1
 3246 0036 0200     		.short	2
 3247 0038 35040000 		.word	.LC94
 3248 003c 00       		.byte	0
 3249 003d 00       		.space	1
 3250 003e 0C00     		.short	12
 3251 0040 3E040000 		.word	.LC95
 3252 0044 02       		.byte	2
 3253 0045 00       		.space	1
 3254 0046 0400     		.short	4
 3255 0048 4D040000 		.word	.LC96
 3256 004c 00       		.byte	0
 3257 004d 00       		.space	1
 3258 004e 2E00     		.short	46
 3259 0050 55040000 		.word	.LC97
 3260 0054 00       		.byte	0
 3261 0055 00       		.space	1
 3262 0056 1700     		.short	23
 3263 0058 62040000 		.word	.LC98
 3264 005c 00       		.byte	0
 3265 005d 00       		.space	1
 3266 005e 0100     		.short	1
 3267 0060 6A040000 		.word	.LC99
 3268 0064 01       		.byte	1
 3269 0065 00       		.space	1
ARM GAS  C:\Users\AHMED~1.ELE\AppData\Local\Temp\ccpjtoUe.s 			page 85


 3270 0066 0100     		.short	1
 3271 0068 77040000 		.word	.LC100
 3272 006c 01       		.byte	1
 3273 006d 00       		.space	1
 3274 006e 0100     		.short	1
 3275 0070 80040000 		.word	.LC101
 3276 0074 02       		.byte	2
 3277 0075 00       		.space	1
 3278 0076 0100     		.short	1
 3279 0078 86040000 		.word	.LC102
 3280 007c 01       		.byte	1
 3281 007d 00       		.space	1
 3282 007e 0100     		.short	1
 3283 0080 92040000 		.word	.LC103
 3284 0084 00       		.byte	0
 3285 0085 00       		.space	1
 3286 0086 0300     		.short	3
 3287 0088 9B040000 		.word	.LC104
 3288 008c 02       		.byte	2
 3289 008d 00       		.space	1
 3290 008e 0100     		.short	1
 3291 0090 A8040000 		.word	.LC105
 3292 0094 00       		.byte	0
 3293 0095 00       		.space	1
 3294 0096 1400     		.short	20
 3295 0098 BA040000 		.word	.LC106
 3296 009c 02       		.byte	2
 3297 009d 00       		.space	1
 3298 009e 1E00     		.short	30
 3299 00a0 CB040000 		.word	.LC107
 3300 00a4 00       		.byte	0
 3301 00a5 00       		.space	1
 3302 00a6 1000     		.short	16
 3303 00a8 D5040000 		.word	.LC108
 3304 00ac 00       		.byte	0
 3305 00ad 00       		.space	1
 3306 00ae 1000     		.short	16
 3307 00b0 DD040000 		.word	.LC109
 3308 00b4 00       		.byte	0
 3309 00b5 00       		.space	1
 3310 00b6 2000     		.short	32
 3311 00b8 EA040000 		.word	.LC110
 3312 00bc 00       		.byte	0
 3313 00bd 00       		.space	1
 3314 00be 2000     		.short	32
 3315 00c0 F7040000 		.word	.LC111
 3316 00c4 00       		.byte	0
 3317 00c5 00       		.space	1
 3318 00c6 2000     		.short	32
 3319 00c8 05050000 		.word	.LC112
 3320 00cc 00       		.byte	0
 3321 00cd 00       		.space	1
 3322 00ce 2000     		.short	32
 3323 00d0 13050000 		.word	.LC113
 3324 00d4 00       		.byte	0
 3325 00d5 00       		.space	1
 3326 00d6 2000     		.short	32
ARM GAS  C:\Users\AHMED~1.ELE\AppData\Local\Temp\ccpjtoUe.s 			page 86


 3327 00d8 1D050000 		.word	.LC114
 3328 00dc 00       		.byte	0
 3329 00dd 00       		.space	1
 3330 00de 2000     		.short	32
 3331 00e0 28050000 		.word	.LC115
 3332 00e4 02       		.byte	2
 3333 00e5 00       		.space	1
 3334 00e6 0400     		.short	4
 3335 00e8 30050000 		.word	.LC116
 3336 00ec 02       		.byte	2
 3337 00ed 00       		.space	1
 3338 00ee 0200     		.short	2
 3339 00f0 00000000 		.word	0
 3340 00f4 00       		.byte	0
 3341 00f5 00       		.space	1
 3342 00f6 0000     		.short	0
 3343              		.type	AcqTableParam, %object
 3344              		.size	AcqTableParam, 216
 3345              	AcqTableParam:
 3346 00f8 4E020000 		.word	.LC54
 3347 00fc 01       		.byte	1
 3348 00fd 00       		.space	1
 3349 00fe 0100     		.short	1
 3350 0100 A1020000 		.word	.LC62
 3351 0104 00       		.byte	0
 3352 0105 00       		.space	1
 3353 0106 0A00     		.short	10
 3354 0108 AA020000 		.word	.LC63
 3355 010c 00       		.byte	0
 3356 010d 00       		.space	1
 3357 010e 0A00     		.short	10
 3358 0110 B2020000 		.word	.LC64
 3359 0114 02       		.byte	2
 3360 0115 00       		.space	1
 3361 0116 0C00     		.short	12
 3362 0118 BC020000 		.word	.LC65
 3363 011c 01       		.byte	1
 3364 011d 00       		.space	1
 3365 011e 0100     		.short	1
 3366 0120 CD020000 		.word	.LC66
 3367 0124 01       		.byte	1
 3368 0125 00       		.space	1
 3369 0126 0100     		.short	1
 3370 0128 E0020000 		.word	.LC67
 3371 012c 02       		.byte	2
 3372 012d 00       		.space	1
 3373 012e 0C00     		.short	12
 3374 0130 E9020000 		.word	.LC68
 3375 0134 01       		.byte	1
 3376 0135 00       		.space	1
 3377 0136 0100     		.short	1
 3378 0138 F9020000 		.word	.LC69
 3379 013c 01       		.byte	1
 3380 013d 00       		.space	1
 3381 013e 0100     		.short	1
 3382 0140 0B030000 		.word	.LC70
 3383 0144 02       		.byte	2
ARM GAS  C:\Users\AHMED~1.ELE\AppData\Local\Temp\ccpjtoUe.s 			page 87


 3384 0145 00       		.space	1
 3385 0146 0C00     		.short	12
 3386 0148 1A030000 		.word	.LC71
 3387 014c 01       		.byte	1
 3388 014d 00       		.space	1
 3389 014e 0100     		.short	1
 3390 0150 2F030000 		.word	.LC72
 3391 0154 01       		.byte	1
 3392 0155 00       		.space	1
 3393 0156 0100     		.short	1
 3394 0158 41030000 		.word	.LC73
 3395 015c 02       		.byte	2
 3396 015d 00       		.space	1
 3397 015e 0C00     		.short	12
 3398 0160 50030000 		.word	.LC74
 3399 0164 01       		.byte	1
 3400 0165 00       		.space	1
 3401 0166 0100     		.short	1
 3402 0168 65030000 		.word	.LC75
 3403 016c 01       		.byte	1
 3404 016d 00       		.space	1
 3405 016e 0100     		.short	1
 3406 0170 77030000 		.word	.LC76
 3407 0174 01       		.byte	1
 3408 0175 00       		.space	1
 3409 0176 0100     		.short	1
 3410 0178 81030000 		.word	.LC77
 3411 017c 02       		.byte	2
 3412 017d 00       		.space	1
 3413 017e 0400     		.short	4
 3414 0180 91030000 		.word	.LC78
 3415 0184 02       		.byte	2
 3416 0185 00       		.space	1
 3417 0186 0200     		.short	2
 3418 0188 95030000 		.word	.LC79
 3419 018c 00       		.byte	0
 3420 018d 00       		.space	1
 3421 018e 0800     		.short	8
 3422 0190 9C030000 		.word	.LC80
 3423 0194 00       		.byte	0
 3424 0195 00       		.space	1
 3425 0196 0F00     		.short	15
 3426 0198 A7030000 		.word	.LC81
 3427 019c 01       		.byte	1
 3428 019d 00       		.space	1
 3429 019e 0100     		.short	1
 3430 01a0 B1030000 		.word	.LC82
 3431 01a4 02       		.byte	2
 3432 01a5 00       		.space	1
 3433 01a6 0300     		.short	3
 3434 01a8 BD030000 		.word	.LC83
 3435 01ac 02       		.byte	2
 3436 01ad 00       		.space	1
 3437 01ae 0300     		.short	3
 3438 01b0 C9030000 		.word	.LC84
 3439 01b4 00       		.byte	0
 3440 01b5 00       		.space	1
ARM GAS  C:\Users\AHMED~1.ELE\AppData\Local\Temp\ccpjtoUe.s 			page 88


 3441 01b6 1700     		.short	23
 3442 01b8 D7030000 		.word	.LC85
 3443 01bc 01       		.byte	1
 3444 01bd 00       		.space	1
 3445 01be 0100     		.short	1
 3446 01c0 E7030000 		.word	.LC86
 3447 01c4 02       		.byte	2
 3448 01c5 00       		.space	1
 3449 01c6 1E00     		.short	30
 3450 01c8 00000000 		.word	0
 3451 01cc 00       		.byte	0
 3452 01cd 00       		.space	1
 3453 01ce 0000     		.short	0
 3454              		.type	IssuerTableParam, %object
 3455              		.size	IssuerTableParam, 72
 3456              	IssuerTableParam:
 3457 01d0 4E020000 		.word	.LC54
 3458 01d4 01       		.byte	1
 3459 01d5 00       		.space	1
 3460 01d6 0100     		.short	1
 3461 01d8 51020000 		.word	.LC55
 3462 01dc 00       		.byte	0
 3463 01dd 00       		.space	1
 3464 01de 0A00     		.short	10
 3465 01e0 59020000 		.word	.LC56
 3466 01e4 00       		.byte	0
 3467 01e5 00       		.space	1
 3468 01e6 0C00     		.short	12
 3469 01e8 64020000 		.word	.LC57
 3470 01ec 02       		.byte	2
 3471 01ed 00       		.space	1
 3472 01ee 0400     		.short	4
 3473 01f0 72020000 		.word	.LC58
 3474 01f4 02       		.byte	2
 3475 01f5 00       		.space	1
 3476 01f6 0100     		.short	1
 3477 01f8 7D020000 		.word	.LC59
 3478 01fc 02       		.byte	2
 3479 01fd 00       		.space	1
 3480 01fe 0200     		.short	2
 3481 0200 88020000 		.word	.LC60
 3482 0204 02       		.byte	2
 3483 0205 00       		.space	1
 3484 0206 0200     		.short	2
 3485 0208 91020000 		.word	.LC61
 3486 020c 02       		.byte	2
 3487 020d 00       		.space	1
 3488 020e 1400     		.short	20
 3489 0210 00000000 		.word	0
 3490 0214 00       		.byte	0
 3491 0215 00       		.space	1
 3492 0216 0000     		.short	0
 3493              		.type	CardTableParam, %object
 3494              		.size	CardTableParam, 56
 3495              	CardTableParam:
 3496 0218 0E020000 		.word	.LC48
 3497 021c 02       		.byte	2
ARM GAS  C:\Users\AHMED~1.ELE\AppData\Local\Temp\ccpjtoUe.s 			page 89


 3498 021d 00       		.space	1
 3499 021e 0500     		.short	5
 3500 0220 1B020000 		.word	.LC49
 3501 0224 02       		.byte	2
 3502 0225 00       		.space	1
 3503 0226 0500     		.short	5
 3504 0228 29020000 		.word	.LC50
 3505 022c 01       		.byte	1
 3506 022d 00       		.space	1
 3507 022e 0100     		.short	1
 3508 0230 32020000 		.word	.LC51
 3509 0234 01       		.byte	1
 3510 0235 00       		.space	1
 3511 0236 0100     		.short	1
 3512 0238 3D020000 		.word	.LC52
 3513 023c 01       		.byte	1
 3514 023d 00       		.space	1
 3515 023e 0100     		.short	1
 3516 0240 45020000 		.word	.LC53
 3517 0244 02       		.byte	2
 3518 0245 00       		.space	1
 3519 0246 1400     		.short	20
 3520 0248 00000000 		.word	0
 3521 024c 00       		.byte	0
 3522 024d 00       		.space	1
 3523 024e 0000     		.short	0
 3524              		.type	EmvAppParam, %object
 3525              		.size	EmvAppParam, 80
 3526              	EmvAppParam:
 3527 0250 4F000000 		.word	.LC8
 3528 0254 02       		.byte	2
 3529 0255 00       		.space	1
 3530 0256 0100     		.short	1
 3531 0258 00000000 		.word	.LC0
 3532 025c 02       		.byte	2
 3533 025d 00       		.space	1
 3534 025e 0100     		.short	1
 3535 0260 0A000000 		.word	.LC1
 3536 0264 01       		.byte	1
 3537 0265 00       		.space	1
 3538 0266 0400     		.short	4
 3539 0268 15000000 		.word	.LC2
 3540 026c 01       		.byte	1
 3541 026d 00       		.space	1
 3542 026e 0100     		.short	1
 3543 0270 1F000000 		.word	.LC3
 3544 0274 01       		.byte	1
 3545 0275 00       		.space	1
 3546 0276 0100     		.short	1
 3547 0278 27000000 		.word	.LC4
 3548 027c 02       		.byte	2
 3549 027d 00       		.space	1
 3550 027e 0500     		.short	5
 3551 0280 32000000 		.word	.LC5
 3552 0284 02       		.byte	2
 3553 0285 00       		.space	1
 3554 0286 0500     		.short	5
ARM GAS  C:\Users\AHMED~1.ELE\AppData\Local\Temp\ccpjtoUe.s 			page 90


 3555 0288 3D000000 		.word	.LC6
 3556 028c 02       		.byte	2
 3557 028d 00       		.space	1
 3558 028e 0500     		.short	5
 3559 0290 49000000 		.word	.LC7
 3560 0294 02       		.byte	2
 3561 0295 00       		.space	1
 3562 0296 C800     		.short	200
 3563 0298 00000000 		.word	0
 3564 029c 00       		.byte	0
 3565 029d 00       		.space	1
 3566 029e 0000     		.short	0
 3567              		.type	CtlAppParam, %object
 3568              		.size	CtlAppParam, 80
 3569              	CtlAppParam:
 3570 02a0 A7000000 		.word	.LC17
 3571 02a4 02       		.byte	2
 3572 02a5 00       		.space	1
 3573 02a6 0100     		.short	1
 3574 02a8 55000000 		.word	.LC9
 3575 02ac 02       		.byte	2
 3576 02ad 00       		.space	1
 3577 02ae 0100     		.short	1
 3578 02b0 5F000000 		.word	.LC10
 3579 02b4 01       		.byte	1
 3580 02b5 00       		.space	1
 3581 02b6 0400     		.short	4
 3582 02b8 6A000000 		.word	.LC11
 3583 02bc 01       		.byte	1
 3584 02bd 00       		.space	1
 3585 02be 0100     		.short	1
 3586 02c0 74000000 		.word	.LC12
 3587 02c4 01       		.byte	1
 3588 02c5 00       		.space	1
 3589 02c6 0100     		.short	1
 3590 02c8 7C000000 		.word	.LC13
 3591 02cc 02       		.byte	2
 3592 02cd 00       		.space	1
 3593 02ce 0500     		.short	5
 3594 02d0 88000000 		.word	.LC14
 3595 02d4 02       		.byte	2
 3596 02d5 00       		.space	1
 3597 02d6 0500     		.short	5
 3598 02d8 94000000 		.word	.LC15
 3599 02dc 02       		.byte	2
 3600 02dd 00       		.space	1
 3601 02de 0500     		.short	5
 3602 02e0 A1000000 		.word	.LC16
 3603 02e4 02       		.byte	2
 3604 02e5 00       		.space	1
 3605 02e6 0002     		.short	512
 3606 02e8 00000000 		.word	0
 3607 02ec 00       		.byte	0
 3608 02ed 00       		.space	1
 3609 02ee 0000     		.short	0
 3610              		.type	EmvKeyParam, %object
 3611              		.size	EmvKeyParam, 72
ARM GAS  C:\Users\AHMED~1.ELE\AppData\Local\Temp\ccpjtoUe.s 			page 91


 3612              	EmvKeyParam:
 3613 02f0 EF000000 		.word	.LC25
 3614 02f4 02       		.byte	2
 3615 02f5 00       		.space	1
 3616 02f6 0100     		.short	1
 3617 02f8 AE000000 		.word	.LC18
 3618 02fc 02       		.byte	2
 3619 02fd 00       		.space	1
 3620 02fe 0500     		.short	5
 3621 0300 B3000000 		.word	.LC19
 3622 0304 02       		.byte	2
 3623 0305 00       		.space	1
 3624 0306 0400     		.short	4
 3625 0308 BD000000 		.word	.LC20
 3626 030c 01       		.byte	1
 3627 030d 00       		.space	1
 3628 030e 0400     		.short	4
 3629 0310 C6000000 		.word	.LC21
 3630 0314 02       		.byte	2
 3631 0315 00       		.space	1
 3632 0316 0001     		.short	256
 3633 0318 CB000000 		.word	.LC22
 3634 031c 02       		.byte	2
 3635 031d 00       		.space	1
 3636 031e 0200     		.short	2
 3637 0320 D7000000 		.word	.LC23
 3638 0324 02       		.byte	2
 3639 0325 00       		.space	1
 3640 0326 0200     		.short	2
 3641 0328 E6000000 		.word	.LC24
 3642 032c 02       		.byte	2
 3643 032d 00       		.space	1
 3644 032e 0100     		.short	1
 3645 0330 00000000 		.word	0
 3646 0334 00       		.byte	0
 3647 0335 00       		.space	1
 3648 0336 0000     		.short	0
 3649              		.section	.rodata.str1.1,"aMS",%progbits,1
 3650              	.LC0:
 3651 0000 65426974 		.ascii	"eBitField\000"
 3651      4669656C 
 3651      6400
 3652              	.LC1:
 3653 000a 65525342 		.ascii	"eRSBThresh\000"
 3653      54687265 
 3653      736800
 3654              	.LC2:
 3655 0015 65525354 		.ascii	"eRSTarget\000"
 3655      61726765 
 3655      7400
 3656              	.LC3:
 3657 001f 65525342 		.ascii	"eRSBMax\000"
 3657      4D617800 
 3658              	.LC4:
 3659 0027 65544143 		.ascii	"eTACDenial\000"
 3659      44656E69 
 3659      616C00
ARM GAS  C:\Users\AHMED~1.ELE\AppData\Local\Temp\ccpjtoUe.s 			page 92


 3660              	.LC5:
 3661 0032 65544143 		.ascii	"eTACOnline\000"
 3661      4F6E6C69 
 3661      6E6500
 3662              	.LC6:
 3663 003d 65544143 		.ascii	"eTACDefault\000"
 3663      44656661 
 3663      756C7400 
 3664              	.LC7:
 3665 0049 65414346 		.ascii	"eACFG\000"
 3665      4700
 3666              	.LC8:
 3667 004f 65547970 		.ascii	"eType\000"
 3667      6500
 3668              	.LC9:
 3669 0055 62426974 		.ascii	"bBitField\000"
 3669      4669656C 
 3669      6400
 3670              	.LC10:
 3671 005f 64525342 		.ascii	"dRSBThresh\000"
 3671      54687265 
 3671      736800
 3672              	.LC11:
 3673 006a 62525354 		.ascii	"bRSTarget\000"
 3673      61726765 
 3673      7400
 3674              	.LC12:
 3675 0074 62525342 		.ascii	"bRSBMax\000"
 3675      4D617800 
 3676              	.LC13:
 3677 007c 61625441 		.ascii	"abTACDenial\000"
 3677      4344656E 
 3677      69616C00 
 3678              	.LC14:
 3679 0088 61625441 		.ascii	"abTACOnline\000"
 3679      434F6E6C 
 3679      696E6500 
 3680              	.LC15:
 3681 0094 61625441 		.ascii	"abTACDefault\000"
 3681      43446566 
 3681      61756C74 
 3681      00
 3682              	.LC16:
 3683 00a1 6162544C 		.ascii	"abTLV\000"
 3683      5600
 3684              	.LC17:
 3685 00a7 62455479 		.ascii	"bEType\000"
 3685      706500
 3686              	.LC18:
 3687 00ae 65524944 		.ascii	"eRID\000"
 3687      00
 3688              	.LC19:
 3689 00b3 65457870 		.ascii	"eExponent\000"
 3689      6F6E656E 
 3689      7400
 3690              	.LC20:
 3691 00bd 654B6579 		.ascii	"eKeySize\000"
ARM GAS  C:\Users\AHMED~1.ELE\AppData\Local\Temp\ccpjtoUe.s 			page 93


 3691      53697A65 
 3691      00
 3692              	.LC21:
 3693 00c6 654B6579 		.ascii	"eKey\000"
 3693      00
 3694              	.LC22:
 3695 00cb 65457870 		.ascii	"eExpiryDate\000"
 3695      69727944 
 3695      61746500 
 3696              	.LC23:
 3697 00d7 65456666 		.ascii	"eEffectiveDate\000"
 3697      65637469 
 3697      76654461 
 3697      746500
 3698              	.LC24:
 3699 00e6 654B6579 		.ascii	"eKeyType\000"
 3699      54797065 
 3699      00
 3700              	.LC25:
 3701 00ef 654B6579 		.ascii	"eKeyIdx\000"
 3701      49647800 
 3702              	.LC26:
 3703 00f7 6661696C 		.ascii	"failed to get term cfg\000"
 3703      65642074 
 3703      6F206765 
 3703      74207465 
 3703      726D2063 
 3704              	.LC27:
 3705 010e 61706E31 		.ascii	"apn1: %s\000"
 3705      3A202573 
 3705      00
 3706              	.LC28:
 3707 0117 61706E31 		.ascii	"apn1 user: %s\000"
 3707      20757365 
 3707      723A2025 
 3707      7300
 3708              	.LC29:
 3709 0125 61706E31 		.ascii	"apn1 psw: %s\000"
 3709      20707377 
 3709      3A202573 
 3709      00
 3710              	.LC30:
 3711 0132 61706E32 		.ascii	"apn2: %s\000"
 3711      3A202573 
 3711      00
 3712              	.LC31:
 3713 013b 61706E32 		.ascii	"apn2 user: %s\000"
 3713      20757365 
 3713      723A2025 
 3713      7300
 3714              	.LC32:
 3715 0149 61706E32 		.ascii	"apn2 psw: %s\000"
 3715      20707377 
 3715      3A202573 
 3715      00
 3716              	.LC33:
 3717 0156 73656C65 		.ascii	"select APN\000"
ARM GAS  C:\Users\AHMED~1.ELE\AppData\Local\Temp\ccpjtoUe.s 			page 94


 3717      63742041 
 3717      504E00
 3718              	.LC34:
 3719 0161 75736572 		.ascii	"user cancelled\000"
 3719      2063616E 
 3719      63656C6C 
 3719      656400
 3720              	.LC35:
 3721 0170 41504E20 		.ascii	"APN #%d is chosen\000"
 3721      23256420 
 3721      69732063 
 3721      686F7365 
 3721      6E00
 3722              	.LC36:
 3723 0182 5465726D 		.ascii	"TerminalXML\000"
 3723      696E616C 
 3723      584D4C00 
 3724              	.LC37:
 3725 018e 5465726D 		.ascii	"Terminal\000"
 3725      696E616C 
 3725      00
 3726              	.LC38:
 3727 0197 41637175 		.ascii	"Acquirer\000"
 3727      69726572 
 3727      00
 3728              	.LC39:
 3729 01a0 49737375 		.ascii	"Issuer\000"
 3729      657200
 3730              	.LC40:
 3731 01a7 43617264 		.ascii	"CardRange\000"
 3731      52616E67 
 3731      6500
 3732              	.LC41:
 3733 01b1 454D564C 		.ascii	"EMVLevel2App\000"
 3733      6576656C 
 3733      32417070 
 3733      00
 3734              	.LC42:
 3735 01be 454D5643 		.ascii	"EMVCtlApp\000"
 3735      746C4170 
 3735      7000
 3736              	.LC43:
 3737 01c8 454D564C 		.ascii	"EMVLevel2Key\000"
 3737      6576656C 
 3737      324B6579 
 3737      00
 3738              	.LC44:
 3739 01d5 4C6F6164 		.ascii	"Load String Fail!\000"
 3739      20537472 
 3739      696E6720 
 3739      4661696C 
 3739      2100
 3740              	.LC45:
 3741 01e7 50415241 		.ascii	"PARAM UPDATED\000"
 3741      4D205550 
 3741      44415445 
 3741      4400
ARM GAS  C:\Users\AHMED~1.ELE\AppData\Local\Temp\ccpjtoUe.s 			page 95


 3742              	.LC46:
 3743 01f5 50415241 		.ascii	"PARAM8\000"
 3743      4D3800
 3744              	.LC47:
 3745 01fc 50415241 		.ascii	"PARAM8 not found!\000"
 3745      4D38206E 
 3745      6F742066 
 3745      6F756E64 
 3745      2100
 3746              	.LC48:
 3747 020e 43617264 		.ascii	"CardRangeLow\000"
 3747      52616E67 
 3747      654C6F77 
 3747      00
 3748              	.LC49:
 3749 021b 43617264 		.ascii	"CardRangeHigh\000"
 3749      52616E67 
 3749      65486967 
 3749      6800
 3750              	.LC50:
 3751 0229 49737375 		.ascii	"IssuerID\000"
 3751      65724944 
 3751      00
 3752              	.LC51:
 3753 0232 41637175 		.ascii	"AcquirerID\000"
 3753      69726572 
 3753      494400
 3754              	.LC52:
 3755 023d 70616E5F 		.ascii	"pan_len\000"
 3755      6C656E00 
 3756              	.LC53:
 3757 0245 72657365 		.ascii	"reserved\000"
 3757      72766564 
 3757      00
 3758              	.LC54:
 3759 024e 494400   		.ascii	"ID\000"
 3760              	.LC55:
 3761 0251 4973734E 		.ascii	"IssName\000"
 3761      616D6500 
 3762              	.LC56:
 3763 0259 7265665F 		.ascii	"ref_tel_no\000"
 3763      74656C5F 
 3763      6E6F00
 3764              	.LC57:
 3765 0264 4F707469 		.ascii	"Option-Issuer\000"
 3765      6F6E2D49 
 3765      73737565 
 3765      7200
 3766              	.LC58:
 3767 0272 44656661 		.ascii	"DefaultAcc\000"
 3767      756C7441 
 3767      636300
 3768              	.LC59:
 3769 027d 70616E5F 		.ascii	"pan_format\000"
 3769      666F726D 
 3769      617400
 3770              	.LC60:
ARM GAS  C:\Users\AHMED~1.ELE\AppData\Local\Temp\ccpjtoUe.s 			page 96


 3771 0288 466C724C 		.ascii	"FlrLimit\000"
 3771      696D6974 
 3771      00
 3772              	.LC61:
 3773 0291 52657365 		.ascii	"Reserved-Issuer\000"
 3773      72766564 
 3773      2D497373 
 3773      75657200 
 3774              	.LC62:
 3775 02a1 50726F67 		.ascii	"ProgName\000"
 3775      4E616D65 
 3775      00
 3776              	.LC63:
 3777 02aa 4163714E 		.ascii	"AcqName\000"
 3777      616D6500 
 3778              	.LC64:
 3779 02b2 5072696D 		.ascii	"PrimTelNo\000"
 3779      54656C4E 
 3779      6F00
 3780              	.LC65:
 3781 02bc 5072696D 		.ascii	"PrimTelConnectTO\000"
 3781      54656C43 
 3781      6F6E6E65 
 3781      6374544F 
 3781      00
 3782              	.LC66:
 3783 02cd 5072696D 		.ascii	"PrimTelDialAttempt\000"
 3783      54656C44 
 3783      69616C41 
 3783      7474656D 
 3783      707400
 3784              	.LC67:
 3785 02e0 53656354 		.ascii	"SecTelNo\000"
 3785      656C4E6F 
 3785      00
 3786              	.LC68:
 3787 02e9 53656354 		.ascii	"SecTelConnectTO\000"
 3787      656C436F 
 3787      6E6E6563 
 3787      74544F00 
 3788              	.LC69:
 3789 02f9 53656354 		.ascii	"SecTelDialAttempt\000"
 3789      656C4469 
 3789      616C4174 
 3789      74656D70 
 3789      7400
 3790              	.LC70:
 3791 030b 7072695F 		.ascii	"pri_settle_tel\000"
 3791      73657474 
 3791      6C655F74 
 3791      656C00
 3792              	.LC71:
 3793 031a 7072695F 		.ascii	"pri_settle_conn_time\000"
 3793      73657474 
 3793      6C655F63 
 3793      6F6E6E5F 
 3793      74696D65 
ARM GAS  C:\Users\AHMED~1.ELE\AppData\Local\Temp\ccpjtoUe.s 			page 97


 3794              	.LC72:
 3795 032f 7072695F 		.ascii	"pri_settle_redial\000"
 3795      73657474 
 3795      6C655F72 
 3795      65646961 
 3795      6C00
 3796              	.LC73:
 3797 0341 7365635F 		.ascii	"sec_settle_tel\000"
 3797      73657474 
 3797      6C655F74 
 3797      656C00
 3798              	.LC74:
 3799 0350 7365635F 		.ascii	"sec_settle_conn_time\000"
 3799      73657474 
 3799      6C655F63 
 3799      6F6E6E5F 
 3799      74696D65 
 3800              	.LC75:
 3801 0365 7365635F 		.ascii	"sec_settle_redial\000"
 3801      73657474 
 3801      6C655F72 
 3801      65646961 
 3801      6C00
 3802              	.LC76:
 3803 0377 4D6F6465 		.ascii	"ModemMode\000"
 3803      6D4D6F64 
 3803      6500
 3804              	.LC77:
 3805 0381 4F707469 		.ascii	"Option-Acquirer\000"
 3805      6F6E2D41 
 3805      63717569 
 3805      72657200 
 3806              	.LC78:
 3807 0391 4E494900 		.ascii	"NII\000"
 3808              	.LC79:
 3809 0395 5465726D 		.ascii	"TermID\000"
 3809      494400
 3810              	.LC80:
 3811 039c 4D657263 		.ascii	"MerchantID\000"
 3811      68616E74 
 3811      494400
 3812              	.LC81:
 3813 03a7 486F7374 		.ascii	"HostRspTO\000"
 3813      52737054 
 3813      4F00
 3814              	.LC82:
 3815 03b1 43757272 		.ascii	"CurrBatchNo\000"
 3815      42617463 
 3815      684E6F00 
 3816              	.LC83:
 3817 03bd 4E657874 		.ascii	"NextBatchNo\000"
 3817      42617463 
 3817      684E6F00 
 3818              	.LC84:
 3819 03c9 76697361 		.ascii	"visa1_term_id\000"
 3819      315F7465 
 3819      726D5F69 
ARM GAS  C:\Users\AHMED~1.ELE\AppData\Local\Temp\ccpjtoUe.s 			page 98


 3819      6400
 3820              	.LC85:
 3821 03d7 73657474 		.ascii	"settle_mdm_mode\000"
 3821      6C655F6D 
 3821      646D5F6D 
 3821      6F646500 
 3822              	.LC86:
 3823 03e7 52657365 		.ascii	"Reserved-Acquirer\000"
 3823      72766564 
 3823      2D416371 
 3823      75697265 
 3823      7200
 3824              	.LC87:
 3825 03f9 646C6C00 		.ascii	"dll\000"
 3826              	.LC88:
 3827 03fd 696E6974 		.ascii	"init_control\000"
 3827      5F636F6E 
 3827      74726F6C 
 3827      00
 3828              	.LC89:
 3829 040a 72737664 		.ascii	"rsvd0\000"
 3829      3000
 3830              	.LC90:
 3831 0410 72737664 		.ascii	"rsvd1\000"
 3831      3100
 3832              	.LC91:
 3833 0416 64617465 		.ascii	"date_time\000"
 3833      5F74696D 
 3833      6500
 3834              	.LC92:
 3835 0420 6469616C 		.ascii	"dial_option\000"
 3835      5F6F7074 
 3835      696F6E00 
 3836              	.LC93:
 3837 042c 70617373 		.ascii	"password\000"
 3837      776F7264 
 3837      00
 3838              	.LC94:
 3839 0435 68656C70 		.ascii	"help_tel\000"
 3839      5F74656C 
 3839      00
 3840              	.LC95:
 3841 043e 4F707469 		.ascii	"Option-TermCfg\000"
 3841      6F6E2D54 
 3841      65726D43 
 3841      666700
 3842              	.LC96:
 3843 044d 4E616D65 		.ascii	"NameLoc\000"
 3843      4C6F6300 
 3844              	.LC97:
 3845 0455 4D657263 		.ascii	"MerchantName\000"
 3845      68616E74 
 3845      4E616D65 
 3845      00
 3846              	.LC98:
 3847 0462 43757272 		.ascii	"CurrSym\000"
 3847      53796D00 
ARM GAS  C:\Users\AHMED~1.ELE\AppData\Local\Temp\ccpjtoUe.s 			page 99


 3848              	.LC99:
 3849 046a 5472616E 		.ascii	"TransAmntLen\000"
 3849      73416D6E 
 3849      744C656E 
 3849      00
 3850              	.LC100:
 3851 0477 44656350 		.ascii	"DecPoint\000"
 3851      6F696E74 
 3851      00
 3852              	.LC101:
 3853 0480 72737664 		.ascii	"rsvd2\000"
 3853      3200
 3854              	.LC102:
 3855 0486 53657474 		.ascii	"SettAmntLen\000"
 3855      416D6E74 
 3855      4C656E00 
 3856              	.LC103:
 3857 0492 43757272 		.ascii	"CurrName\000"
 3857      4E616D65 
 3857      00
 3858              	.LC104:
 3859 049b 6C6F6361 		.ascii	"local_option\000"
 3859      6C5F6F70 
 3859      74696F6E 
 3859      00
 3860              	.LC105:
 3861 04a8 61646469 		.ascii	"additional_prompt\000"
 3861      74696F6E 
 3861      616C5F70 
 3861      726F6D70 
 3861      7400
 3862              	.LC106:
 3863 04ba 52657365 		.ascii	"Reserved-TermCfg\000"
 3863      72766564 
 3863      2D546572 
 3863      6D436667 
 3863      00
 3864              	.LC107:
 3865 04cb 50737752 		.ascii	"PswRefund\000"
 3865      6566756E 
 3865      6400
 3866              	.LC108:
 3867 04d5 50737756 		.ascii	"PswVoid\000"
 3867      6F696400 
 3868              	.LC109:
 3869 04dd 61706E5F 		.ascii	"apn_username\000"
 3869      75736572 
 3869      6E616D65 
 3869      00
 3870              	.LC110:
 3871 04ea 61706E5F 		.ascii	"apn_password\000"
 3871      70617373 
 3871      776F7264 
 3871      00
 3872              	.LC111:
 3873 04f7 61706E32 		.ascii	"apn2_username\000"
 3873      5F757365 
ARM GAS  C:\Users\AHMED~1.ELE\AppData\Local\Temp\ccpjtoUe.s 			page 100


 3873      726E616D 
 3873      6500
 3874              	.LC112:
 3875 0505 61706E32 		.ascii	"apn2_password\000"
 3875      5F706173 
 3875      73776F72 
 3875      6400
 3876              	.LC113:
 3877 0513 61706E63 		.ascii	"apnconfig\000"
 3877      6F6E6669 
 3877      6700
 3878              	.LC114:
 3879 051d 61706E63 		.ascii	"apnconfig2\000"
 3879      6F6E6669 
 3879      673200
 3880              	.LC115:
 3881 0528 61706E32 		.ascii	"apn2_ip\000"
 3881      5F697000 
 3882              	.LC116:
 3883 0530 61706E32 		.ascii	"apn2_port\000"
 3883      5F706F72 
 3883      7400
 3884              		.bss
 3885              		.set	.LANCHOR1,. + 0
 3886              		.type	gCardIdx, %object
 3887              		.size	gCardIdx, 1
 3888              	gCardIdx:
 3889 0000 00       		.space	1
 3890              		.text
 3891              	.Letext0:
 3892              		.file 2 "c:\\devtools\\gcc_v49_2014q4\\lib\\gcc\\arm-none-eabi\\4.9.3\\include\\stddef.h"
 3893              		.file 3 "../LibA5T1000/common.h"
 3894              		.file 4 "../LibA5T1000/system.h"
 3895              		.file 5 "../LibA5T1000/midware.h"
 3896              		.file 6 "../LibA5T1000/apm.h"
 3897              		.file 7 "../LibA5T1000/emv2dll.h"
 3898              		.file 8 "../LibA5T1000/emvcl2dll.h"
 3899              		.file 9 "src/mxml.h"
 3900              		.file 10 "src/toggle.h"
 3901              		.file 11 "c:\\devtools\\gcc_v49_2014q4\\arm-none-eabi\\include\\string.h"
 3902              		.file 12 "c:\\devtools\\gcc_v49_2014q4\\arm-none-eabi\\include\\stdlib.h"
 3903              		.file 13 "../LibA5T1000/util.h"
 3904              		.file 14 "src/stis.h"
 3905              		.file 15 "src/emvtrans.h"
 3906              		.file 16 "src/ctlcfg.h"
 3907              		.file 17 "c:\\devtools\\gcc_v49_2014q4\\arm-none-eabi\\include\\stdio.h"
 3908              		.file 18 "<built-in>"
 3909              		.file 19 "src/comm.h"
 3910              		.file 20 "src/termdata.h"
 3911              		.file 21 "src/kbdutil.h"
 3912              		.section	.debug_info,"",%progbits
 3913              	.Ldebug_info0:
 3914 0000 DD480000 		.4byte	0x48dd
 3915 0004 0400     		.2byte	0x4
 3916 0006 00000000 		.4byte	.Ldebug_abbrev0
 3917 000a 04       		.byte	0x4
 3918 000b 01       		.uleb128 0x1
ARM GAS  C:\Users\AHMED~1.ELE\AppData\Local\Temp\ccpjtoUe.s 			page 101


 3919 000c 1A170000 		.4byte	.LASF841
 3920 0010 01       		.byte	0x1
 3921 0011 A9110000 		.4byte	.LASF842
 3922 0015 E90D0000 		.4byte	.LASF843
 3923 0019 00000000 		.4byte	.Ldebug_ranges0+0
 3924 001d 00000000 		.4byte	0
 3925 0021 00000000 		.4byte	.Ldebug_line0
 3926 0025 02       		.uleb128 0x2
 3927 0026 01       		.byte	0x1
 3928 0027 06       		.byte	0x6
 3929 0028 082D0000 		.4byte	.LASF0
 3930 002c 02       		.uleb128 0x2
 3931 002d 01       		.byte	0x1
 3932 002e 08       		.byte	0x8
 3933 002f C1200000 		.4byte	.LASF1
 3934 0033 02       		.uleb128 0x2
 3935 0034 02       		.byte	0x2
 3936 0035 05       		.byte	0x5
 3937 0036 562A0000 		.4byte	.LASF2
 3938 003a 02       		.uleb128 0x2
 3939 003b 02       		.byte	0x2
 3940 003c 07       		.byte	0x7
 3941 003d 39300000 		.4byte	.LASF3
 3942 0041 02       		.uleb128 0x2
 3943 0042 04       		.byte	0x4
 3944 0043 05       		.byte	0x5
 3945 0044 76200000 		.4byte	.LASF4
 3946 0048 02       		.uleb128 0x2
 3947 0049 04       		.byte	0x4
 3948 004a 07       		.byte	0x7
 3949 004b 24160000 		.4byte	.LASF5
 3950 004f 02       		.uleb128 0x2
 3951 0050 08       		.byte	0x8
 3952 0051 05       		.byte	0x5
 3953 0052 BE1A0000 		.4byte	.LASF6
 3954 0056 02       		.uleb128 0x2
 3955 0057 08       		.byte	0x8
 3956 0058 07       		.byte	0x7
 3957 0059 DD1A0000 		.4byte	.LASF7
 3958 005d 03       		.uleb128 0x3
 3959 005e 04       		.byte	0x4
 3960 005f 05       		.byte	0x5
 3961 0060 696E7400 		.ascii	"int\000"
 3962 0064 02       		.uleb128 0x2
 3963 0065 04       		.byte	0x4
 3964 0066 07       		.byte	0x7
 3965 0067 A51D0000 		.4byte	.LASF8
 3966 006b 04       		.uleb128 0x4
 3967 006c BA000000 		.4byte	.LASF11
 3968 0070 02       		.byte	0x2
 3969 0071 D4       		.byte	0xd4
 3970 0072 64000000 		.4byte	0x64
 3971 0076 05       		.uleb128 0x5
 3972 0077 04       		.byte	0x4
 3973 0078 02       		.uleb128 0x2
 3974 0079 04       		.byte	0x4
 3975 007a 07       		.byte	0x7
ARM GAS  C:\Users\AHMED~1.ELE\AppData\Local\Temp\ccpjtoUe.s 			page 102


 3976 007b DD000000 		.4byte	.LASF9
 3977 007f 06       		.uleb128 0x6
 3978 0080 04       		.byte	0x4
 3979 0081 85000000 		.4byte	0x85
 3980 0085 02       		.uleb128 0x2
 3981 0086 01       		.byte	0x1
 3982 0087 06       		.byte	0x6
 3983 0088 09140000 		.4byte	.LASF10
 3984 008c 06       		.uleb128 0x6
 3985 008d 04       		.byte	0x4
 3986 008e 92000000 		.4byte	0x92
 3987 0092 07       		.uleb128 0x7
 3988 0093 85000000 		.4byte	0x85
 3989 0097 04       		.uleb128 0x4
 3990 0098 9C100000 		.4byte	.LASF12
 3991 009c 03       		.byte	0x3
 3992 009d 0D       		.byte	0xd
 3993 009e 2C000000 		.4byte	0x2c
 3994 00a2 04       		.uleb128 0x4
 3995 00a3 FA060000 		.4byte	.LASF13
 3996 00a7 03       		.byte	0x3
 3997 00a8 0E       		.byte	0xe
 3998 00a9 2C000000 		.4byte	0x2c
 3999 00ad 04       		.uleb128 0x4
 4000 00ae 95200000 		.4byte	.LASF14
 4001 00b2 03       		.byte	0x3
 4002 00b3 0F       		.byte	0xf
 4003 00b4 3A000000 		.4byte	0x3a
 4004 00b8 04       		.uleb128 0x4
 4005 00b9 582F0000 		.4byte	.LASF15
 4006 00bd 03       		.byte	0x3
 4007 00be 10       		.byte	0x10
 4008 00bf 64000000 		.4byte	0x64
 4009 00c3 04       		.uleb128 0x4
 4010 00c4 D2140000 		.4byte	.LASF16
 4011 00c8 03       		.byte	0x3
 4012 00c9 11       		.byte	0x11
 4013 00ca 56000000 		.4byte	0x56
 4014 00ce 08       		.uleb128 0x8
 4015 00cf A2000000 		.4byte	0xa2
 4016 00d3 DE000000 		.4byte	0xde
 4017 00d7 09       		.uleb128 0x9
 4018 00d8 78000000 		.4byte	0x78
 4019 00dc 01       		.byte	0x1
 4020 00dd 00       		.byte	0
 4021 00de 06       		.uleb128 0x6
 4022 00df 04       		.byte	0x4
 4023 00e0 A2000000 		.4byte	0xa2
 4024 00e4 08       		.uleb128 0x8
 4025 00e5 A2000000 		.4byte	0xa2
 4026 00e9 F4000000 		.4byte	0xf4
 4027 00ed 09       		.uleb128 0x9
 4028 00ee 78000000 		.4byte	0x78
 4029 00f2 03       		.byte	0x3
 4030 00f3 00       		.byte	0
 4031 00f4 08       		.uleb128 0x8
 4032 00f5 A2000000 		.4byte	0xa2
ARM GAS  C:\Users\AHMED~1.ELE\AppData\Local\Temp\ccpjtoUe.s 			page 103


 4033 00f9 04010000 		.4byte	0x104
 4034 00fd 09       		.uleb128 0x9
 4035 00fe 78000000 		.4byte	0x78
 4036 0102 3F       		.byte	0x3f
 4037 0103 00       		.byte	0
 4038 0104 08       		.uleb128 0x8
 4039 0105 A2000000 		.4byte	0xa2
 4040 0109 14010000 		.4byte	0x114
 4041 010d 09       		.uleb128 0x9
 4042 010e 78000000 		.4byte	0x78
 4043 0112 FF       		.byte	0xff
 4044 0113 00       		.byte	0
 4045 0114 08       		.uleb128 0x8
 4046 0115 A2000000 		.4byte	0xa2
 4047 0119 24010000 		.4byte	0x124
 4048 011d 09       		.uleb128 0x9
 4049 011e 78000000 		.4byte	0x78
 4050 0122 09       		.byte	0x9
 4051 0123 00       		.byte	0
 4052 0124 08       		.uleb128 0x8
 4053 0125 A2000000 		.4byte	0xa2
 4054 0129 34010000 		.4byte	0x134
 4055 012d 09       		.uleb128 0x9
 4056 012e 78000000 		.4byte	0x78
 4057 0132 1F       		.byte	0x1f
 4058 0133 00       		.byte	0
 4059 0134 08       		.uleb128 0x8
 4060 0135 A2000000 		.4byte	0xa2
 4061 0139 44010000 		.4byte	0x144
 4062 013d 09       		.uleb128 0x9
 4063 013e 78000000 		.4byte	0x78
 4064 0142 0F       		.byte	0xf
 4065 0143 00       		.byte	0
 4066 0144 08       		.uleb128 0x8
 4067 0145 A2000000 		.4byte	0xa2
 4068 0149 54010000 		.4byte	0x154
 4069 014d 09       		.uleb128 0x9
 4070 014e 78000000 		.4byte	0x78
 4071 0152 07       		.byte	0x7
 4072 0153 00       		.byte	0
 4073 0154 08       		.uleb128 0x8
 4074 0155 A2000000 		.4byte	0xa2
 4075 0159 64010000 		.4byte	0x164
 4076 015d 09       		.uleb128 0x9
 4077 015e 78000000 		.4byte	0x78
 4078 0162 0C       		.byte	0xc
 4079 0163 00       		.byte	0
 4080 0164 08       		.uleb128 0x8
 4081 0165 A2000000 		.4byte	0xa2
 4082 0169 74010000 		.4byte	0x174
 4083 016d 09       		.uleb128 0x9
 4084 016e 78000000 		.4byte	0x78
 4085 0172 13       		.byte	0x13
 4086 0173 00       		.byte	0
 4087 0174 0A       		.uleb128 0xa
 4088 0175 9B140000 		.4byte	.LASF665
 4089 0179 02       		.byte	0x2
ARM GAS  C:\Users\AHMED~1.ELE\AppData\Local\Temp\ccpjtoUe.s 			page 104


 4090 017a 04       		.byte	0x4
 4091 017b 9A04     		.2byte	0x49a
 4092 017d 310E0000 		.4byte	0xe31
 4093 0181 0B       		.uleb128 0xb
 4094 0182 4A320000 		.4byte	.LASF17
 4095 0186 00       		.sleb128 0
 4096 0187 0B       		.uleb128 0xb
 4097 0188 8F160000 		.4byte	.LASF18
 4098 018c 01       		.sleb128 1
 4099 018d 0B       		.uleb128 0xb
 4100 018e 491A0000 		.4byte	.LASF19
 4101 0192 02       		.sleb128 2
 4102 0193 0B       		.uleb128 0xb
 4103 0194 950C0000 		.4byte	.LASF20
 4104 0198 03       		.sleb128 3
 4105 0199 0B       		.uleb128 0xb
 4106 019a 6D0C0000 		.4byte	.LASF21
 4107 019e 04       		.sleb128 4
 4108 019f 0B       		.uleb128 0xb
 4109 01a0 CF210000 		.4byte	.LASF22
 4110 01a4 05       		.sleb128 5
 4111 01a5 0B       		.uleb128 0xb
 4112 01a6 0F100000 		.4byte	.LASF23
 4113 01aa 06       		.sleb128 6
 4114 01ab 0B       		.uleb128 0xb
 4115 01ac E1230000 		.4byte	.LASF24
 4116 01b0 07       		.sleb128 7
 4117 01b1 0B       		.uleb128 0xb
 4118 01b2 78180000 		.4byte	.LASF25
 4119 01b6 08       		.sleb128 8
 4120 01b7 0B       		.uleb128 0xb
 4121 01b8 4F2E0000 		.4byte	.LASF26
 4122 01bc 09       		.sleb128 9
 4123 01bd 0B       		.uleb128 0xb
 4124 01be D8060000 		.4byte	.LASF27
 4125 01c2 0A       		.sleb128 10
 4126 01c3 0B       		.uleb128 0xb
 4127 01c4 1D270000 		.4byte	.LASF28
 4128 01c8 0B       		.sleb128 11
 4129 01c9 0B       		.uleb128 0xb
 4130 01ca 65210000 		.4byte	.LASF29
 4131 01ce 0C       		.sleb128 12
 4132 01cf 0B       		.uleb128 0xb
 4133 01d0 DF210000 		.4byte	.LASF30
 4134 01d4 0D       		.sleb128 13
 4135 01d5 0B       		.uleb128 0xb
 4136 01d6 980E0000 		.4byte	.LASF31
 4137 01da 0E       		.sleb128 14
 4138 01db 0B       		.uleb128 0xb
 4139 01dc D2320000 		.4byte	.LASF32
 4140 01e0 0F       		.sleb128 15
 4141 01e1 0B       		.uleb128 0xb
 4142 01e2 D4190000 		.4byte	.LASF33
 4143 01e6 10       		.sleb128 16
 4144 01e7 0B       		.uleb128 0xb
 4145 01e8 C5270000 		.4byte	.LASF34
 4146 01ec 11       		.sleb128 17
ARM GAS  C:\Users\AHMED~1.ELE\AppData\Local\Temp\ccpjtoUe.s 			page 105


 4147 01ed 0B       		.uleb128 0xb
 4148 01ee 5F120000 		.4byte	.LASF35
 4149 01f2 12       		.sleb128 18
 4150 01f3 0B       		.uleb128 0xb
 4151 01f4 0E280000 		.4byte	.LASF36
 4152 01f8 13       		.sleb128 19
 4153 01f9 0B       		.uleb128 0xb
 4154 01fa 580A0000 		.4byte	.LASF37
 4155 01fe 14       		.sleb128 20
 4156 01ff 0B       		.uleb128 0xb
 4157 0200 CC1A0000 		.4byte	.LASF38
 4158 0204 15       		.sleb128 21
 4159 0205 0B       		.uleb128 0xb
 4160 0206 680A0000 		.4byte	.LASF39
 4161 020a 16       		.sleb128 22
 4162 020b 0B       		.uleb128 0xb
 4163 020c 180B0000 		.4byte	.LASF40
 4164 0210 17       		.sleb128 23
 4165 0211 0B       		.uleb128 0xb
 4166 0212 C00A0000 		.4byte	.LASF41
 4167 0216 18       		.sleb128 24
 4168 0217 0B       		.uleb128 0xb
 4169 0218 25210000 		.4byte	.LASF42
 4170 021c 19       		.sleb128 25
 4171 021d 0B       		.uleb128 0xb
 4172 021e 8C0A0000 		.4byte	.LASF43
 4173 0222 1A       		.sleb128 26
 4174 0223 0B       		.uleb128 0xb
 4175 0224 EB0A0000 		.4byte	.LASF44
 4176 0228 1B       		.sleb128 27
 4177 0229 0B       		.uleb128 0xb
 4178 022a 5C160000 		.4byte	.LASF45
 4179 022e 1C       		.sleb128 28
 4180 022f 0B       		.uleb128 0xb
 4181 0230 621D0000 		.4byte	.LASF46
 4182 0234 1D       		.sleb128 29
 4183 0235 0B       		.uleb128 0xb
 4184 0236 FC320000 		.4byte	.LASF47
 4185 023a 1E       		.sleb128 30
 4186 023b 0B       		.uleb128 0xb
 4187 023c C0090000 		.4byte	.LASF48
 4188 0240 1F       		.sleb128 31
 4189 0241 0B       		.uleb128 0xb
 4190 0242 36160000 		.4byte	.LASF49
 4191 0246 20       		.sleb128 32
 4192 0247 0B       		.uleb128 0xb
 4193 0248 62040000 		.4byte	.LASF50
 4194 024c 21       		.sleb128 33
 4195 024d 0B       		.uleb128 0xb
 4196 024e 7F200000 		.4byte	.LASF51
 4197 0252 22       		.sleb128 34
 4198 0253 0B       		.uleb128 0xb
 4199 0254 431E0000 		.4byte	.LASF52
 4200 0258 23       		.sleb128 35
 4201 0259 0B       		.uleb128 0xb
 4202 025a CD0C0000 		.4byte	.LASF53
 4203 025e 24       		.sleb128 36
ARM GAS  C:\Users\AHMED~1.ELE\AppData\Local\Temp\ccpjtoUe.s 			page 106


 4204 025f 0B       		.uleb128 0xb
 4205 0260 37130000 		.4byte	.LASF54
 4206 0264 25       		.sleb128 37
 4207 0265 0B       		.uleb128 0xb
 4208 0266 D82C0000 		.4byte	.LASF55
 4209 026a 26       		.sleb128 38
 4210 026b 0B       		.uleb128 0xb
 4211 026c 111C0000 		.4byte	.LASF56
 4212 0270 27       		.sleb128 39
 4213 0271 0B       		.uleb128 0xb
 4214 0272 B7020000 		.4byte	.LASF57
 4215 0276 28       		.sleb128 40
 4216 0277 0B       		.uleb128 0xb
 4217 0278 A1230000 		.4byte	.LASF58
 4218 027c 29       		.sleb128 41
 4219 027d 0B       		.uleb128 0xb
 4220 027e 631C0000 		.4byte	.LASF59
 4221 0282 2A       		.sleb128 42
 4222 0283 0B       		.uleb128 0xb
 4223 0284 BE1C0000 		.4byte	.LASF60
 4224 0288 2B       		.sleb128 43
 4225 0289 0B       		.uleb128 0xb
 4226 028a 43110000 		.4byte	.LASF61
 4227 028e 2C       		.sleb128 44
 4228 028f 0B       		.uleb128 0xb
 4229 0290 CB0D0000 		.4byte	.LASF62
 4230 0294 2D       		.sleb128 45
 4231 0295 0B       		.uleb128 0xb
 4232 0296 472D0000 		.4byte	.LASF63
 4233 029a 2E       		.sleb128 46
 4234 029b 0B       		.uleb128 0xb
 4235 029c BD300000 		.4byte	.LASF64
 4236 02a0 2F       		.sleb128 47
 4237 02a1 0B       		.uleb128 0xb
 4238 02a2 BD2A0000 		.4byte	.LASF65
 4239 02a6 30       		.sleb128 48
 4240 02a7 0B       		.uleb128 0xb
 4241 02a8 2A2F0000 		.4byte	.LASF66
 4242 02ac 31       		.sleb128 49
 4243 02ad 0B       		.uleb128 0xb
 4244 02ae 42260000 		.4byte	.LASF67
 4245 02b2 32       		.sleb128 50
 4246 02b3 0B       		.uleb128 0xb
 4247 02b4 0A2F0000 		.4byte	.LASF68
 4248 02b8 33       		.sleb128 51
 4249 02b9 0B       		.uleb128 0xb
 4250 02ba 06190000 		.4byte	.LASF69
 4251 02be 34       		.sleb128 52
 4252 02bf 0B       		.uleb128 0xb
 4253 02c0 590E0000 		.4byte	.LASF70
 4254 02c4 35       		.sleb128 53
 4255 02c5 0B       		.uleb128 0xb
 4256 02c6 14060000 		.4byte	.LASF71
 4257 02ca 36       		.sleb128 54
 4258 02cb 0B       		.uleb128 0xb
 4259 02cc 141B0000 		.4byte	.LASF72
 4260 02d0 37       		.sleb128 55
ARM GAS  C:\Users\AHMED~1.ELE\AppData\Local\Temp\ccpjtoUe.s 			page 107


 4261 02d1 0B       		.uleb128 0xb
 4262 02d2 C5030000 		.4byte	.LASF73
 4263 02d6 38       		.sleb128 56
 4264 02d7 0B       		.uleb128 0xb
 4265 02d8 BE2F0000 		.4byte	.LASF74
 4266 02dc 39       		.sleb128 57
 4267 02dd 0B       		.uleb128 0xb
 4268 02de A4250000 		.4byte	.LASF75
 4269 02e2 3A       		.sleb128 58
 4270 02e3 0B       		.uleb128 0xb
 4271 02e4 4B050000 		.4byte	.LASF76
 4272 02e8 3B       		.sleb128 59
 4273 02e9 0B       		.uleb128 0xb
 4274 02ea 7B310000 		.4byte	.LASF77
 4275 02ee 3C       		.sleb128 60
 4276 02ef 0B       		.uleb128 0xb
 4277 02f0 EF210000 		.4byte	.LASF78
 4278 02f4 3D       		.sleb128 61
 4279 02f5 0B       		.uleb128 0xb
 4280 02f6 7C2D0000 		.4byte	.LASF79
 4281 02fa 3E       		.sleb128 62
 4282 02fb 0B       		.uleb128 0xb
 4283 02fc B2290000 		.4byte	.LASF80
 4284 0300 3F       		.sleb128 63
 4285 0301 0B       		.uleb128 0xb
 4286 0302 231A0000 		.4byte	.LASF81
 4287 0306 C000     		.sleb128 64
 4288 0308 0B       		.uleb128 0xb
 4289 0309 E7010000 		.4byte	.LASF82
 4290 030d C100     		.sleb128 65
 4291 030f 0B       		.uleb128 0xb
 4292 0310 18320000 		.4byte	.LASF83
 4293 0314 C200     		.sleb128 66
 4294 0316 0B       		.uleb128 0xb
 4295 0317 11310000 		.4byte	.LASF84
 4296 031b C300     		.sleb128 67
 4297 031d 0B       		.uleb128 0xb
 4298 031e 7A230000 		.4byte	.LASF85
 4299 0322 C400     		.sleb128 68
 4300 0324 0B       		.uleb128 0xb
 4301 0325 712D0000 		.4byte	.LASF86
 4302 0329 C500     		.sleb128 69
 4303 032b 0B       		.uleb128 0xb
 4304 032c C2290000 		.4byte	.LASF87
 4305 0330 C600     		.sleb128 70
 4306 0332 0B       		.uleb128 0xb
 4307 0333 85250000 		.4byte	.LASF88
 4308 0337 C700     		.sleb128 71
 4309 0339 0B       		.uleb128 0xb
 4310 033a 261B0000 		.4byte	.LASF89
 4311 033e C800     		.sleb128 72
 4312 0340 0B       		.uleb128 0xb
 4313 0341 431F0000 		.4byte	.LASF90
 4314 0345 C900     		.sleb128 73
 4315 0347 0B       		.uleb128 0xb
 4316 0348 12300000 		.4byte	.LASF91
 4317 034c CA00     		.sleb128 74
ARM GAS  C:\Users\AHMED~1.ELE\AppData\Local\Temp\ccpjtoUe.s 			page 108


 4318 034e 0B       		.uleb128 0xb
 4319 034f FE300000 		.4byte	.LASF92
 4320 0353 CB00     		.sleb128 75
 4321 0355 0B       		.uleb128 0xb
 4322 0356 32070000 		.4byte	.LASF93
 4323 035a CC00     		.sleb128 76
 4324 035c 0B       		.uleb128 0xb
 4325 035d 051F0000 		.4byte	.LASF94
 4326 0361 CD00     		.sleb128 77
 4327 0363 0B       		.uleb128 0xb
 4328 0364 A8050000 		.4byte	.LASF95
 4329 0368 CE00     		.sleb128 78
 4330 036a 0B       		.uleb128 0xb
 4331 036b B2060000 		.4byte	.LASF96
 4332 036f CF00     		.sleb128 79
 4333 0371 0B       		.uleb128 0xb
 4334 0372 D02E0000 		.4byte	.LASF97
 4335 0376 D000     		.sleb128 80
 4336 0378 0B       		.uleb128 0xb
 4337 0379 96280000 		.4byte	.LASF98
 4338 037d D100     		.sleb128 81
 4339 037f 0B       		.uleb128 0xb
 4340 0380 861C0000 		.4byte	.LASF99
 4341 0384 D200     		.sleb128 82
 4342 0386 0B       		.uleb128 0xb
 4343 0387 D3120000 		.4byte	.LASF100
 4344 038b D300     		.sleb128 83
 4345 038d 0B       		.uleb128 0xb
 4346 038e 41290000 		.4byte	.LASF101
 4347 0392 D400     		.sleb128 84
 4348 0394 0B       		.uleb128 0xb
 4349 0395 4D230000 		.4byte	.LASF102
 4350 0399 D500     		.sleb128 85
 4351 039b 0B       		.uleb128 0xb
 4352 039c 47060000 		.4byte	.LASF103
 4353 03a0 D600     		.sleb128 86
 4354 03a2 0B       		.uleb128 0xb
 4355 03a3 DC300000 		.4byte	.LASF104
 4356 03a7 D700     		.sleb128 87
 4357 03a9 0B       		.uleb128 0xb
 4358 03aa 5E270000 		.4byte	.LASF105
 4359 03ae D800     		.sleb128 88
 4360 03b0 0B       		.uleb128 0xb
 4361 03b1 D0100000 		.4byte	.LASF106
 4362 03b5 D900     		.sleb128 89
 4363 03b7 0B       		.uleb128 0xb
 4364 03b8 93250000 		.4byte	.LASF107
 4365 03bc DA00     		.sleb128 90
 4366 03be 0B       		.uleb128 0xb
 4367 03bf 5A240000 		.4byte	.LASF108
 4368 03c3 DB00     		.sleb128 91
 4369 03c5 0B       		.uleb128 0xb
 4370 03c6 5C090000 		.4byte	.LASF109
 4371 03ca DC00     		.sleb128 92
 4372 03cc 0B       		.uleb128 0xb
 4373 03cd 33050000 		.4byte	.LASF110
 4374 03d1 DD00     		.sleb128 93
ARM GAS  C:\Users\AHMED~1.ELE\AppData\Local\Temp\ccpjtoUe.s 			page 109


 4375 03d3 0B       		.uleb128 0xb
 4376 03d4 8F060000 		.4byte	.LASF111
 4377 03d8 DE00     		.sleb128 94
 4378 03da 0B       		.uleb128 0xb
 4379 03db F1080000 		.4byte	.LASF112
 4380 03df DF00     		.sleb128 95
 4381 03e1 0B       		.uleb128 0xb
 4382 03e2 FF1F0000 		.4byte	.LASF113
 4383 03e6 E000     		.sleb128 96
 4384 03e8 0B       		.uleb128 0xb
 4385 03e9 B12B0000 		.4byte	.LASF114
 4386 03ed E100     		.sleb128 97
 4387 03ef 0B       		.uleb128 0xb
 4388 03f0 4B2B0000 		.4byte	.LASF115
 4389 03f4 E200     		.sleb128 98
 4390 03f6 0B       		.uleb128 0xb
 4391 03f7 930F0000 		.4byte	.LASF116
 4392 03fb E300     		.sleb128 99
 4393 03fd 0B       		.uleb128 0xb
 4394 03fe C62C0000 		.4byte	.LASF117
 4395 0402 E400     		.sleb128 100
 4396 0404 0B       		.uleb128 0xb
 4397 0405 31200000 		.4byte	.LASF118
 4398 0409 E500     		.sleb128 101
 4399 040b 0B       		.uleb128 0xb
 4400 040c 23020000 		.4byte	.LASF119
 4401 0410 E600     		.sleb128 102
 4402 0412 0B       		.uleb128 0xb
 4403 0413 23070000 		.4byte	.LASF120
 4404 0417 E700     		.sleb128 103
 4405 0419 0B       		.uleb128 0xb
 4406 041a 101A0000 		.4byte	.LASF121
 4407 041e E800     		.sleb128 104
 4408 0420 0B       		.uleb128 0xb
 4409 0421 CA060000 		.4byte	.LASF122
 4410 0425 E900     		.sleb128 105
 4411 0427 0B       		.uleb128 0xb
 4412 0428 28150000 		.4byte	.LASF123
 4413 042c EA00     		.sleb128 106
 4414 042e 0B       		.uleb128 0xb
 4415 042f 882B0000 		.4byte	.LASF124
 4416 0433 EB00     		.sleb128 107
 4417 0435 0B       		.uleb128 0xb
 4418 0436 E2290000 		.4byte	.LASF125
 4419 043a EC00     		.sleb128 108
 4420 043c 0B       		.uleb128 0xb
 4421 043d CF200000 		.4byte	.LASF126
 4422 0441 ED00     		.sleb128 109
 4423 0443 0B       		.uleb128 0xb
 4424 0444 AE0C0000 		.4byte	.LASF127
 4425 0448 EE00     		.sleb128 110
 4426 044a 0B       		.uleb128 0xb
 4427 044b F31E0000 		.4byte	.LASF128
 4428 044f EF00     		.sleb128 111
 4429 0451 0B       		.uleb128 0xb
 4430 0452 7E190000 		.4byte	.LASF129
 4431 0456 F000     		.sleb128 112
ARM GAS  C:\Users\AHMED~1.ELE\AppData\Local\Temp\ccpjtoUe.s 			page 110


 4432 0458 0B       		.uleb128 0xb
 4433 0459 E6040000 		.4byte	.LASF130
 4434 045d F100     		.sleb128 113
 4435 045f 0B       		.uleb128 0xb
 4436 0460 C21F0000 		.4byte	.LASF131
 4437 0464 F200     		.sleb128 114
 4438 0466 0B       		.uleb128 0xb
 4439 0467 6E250000 		.4byte	.LASF132
 4440 046b F300     		.sleb128 115
 4441 046d 0B       		.uleb128 0xb
 4442 046e 9C0A0000 		.4byte	.LASF133
 4443 0472 F400     		.sleb128 116
 4444 0474 0B       		.uleb128 0xb
 4445 0475 812C0000 		.4byte	.LASF134
 4446 0479 F500     		.sleb128 117
 4447 047b 0B       		.uleb128 0xb
 4448 047c 592D0000 		.4byte	.LASF135
 4449 0480 F600     		.sleb128 118
 4450 0482 0B       		.uleb128 0xb
 4451 0483 DB0D0000 		.4byte	.LASF136
 4452 0487 F700     		.sleb128 119
 4453 0489 0B       		.uleb128 0xb
 4454 048a 360D0000 		.4byte	.LASF137
 4455 048e F800     		.sleb128 120
 4456 0490 0B       		.uleb128 0xb
 4457 0491 490F0000 		.4byte	.LASF138
 4458 0495 F900     		.sleb128 121
 4459 0497 0B       		.uleb128 0xb
 4460 0498 4C300000 		.4byte	.LASF139
 4461 049c FA00     		.sleb128 122
 4462 049e 0B       		.uleb128 0xb
 4463 049f 3C120000 		.4byte	.LASF140
 4464 04a3 FB00     		.sleb128 123
 4465 04a5 0B       		.uleb128 0xb
 4466 04a6 17190000 		.4byte	.LASF141
 4467 04aa FC00     		.sleb128 124
 4468 04ac 0B       		.uleb128 0xb
 4469 04ad FA290000 		.4byte	.LASF142
 4470 04b1 FD00     		.sleb128 125
 4471 04b3 0B       		.uleb128 0xb
 4472 04b4 EA0B0000 		.4byte	.LASF143
 4473 04b8 FE00     		.sleb128 126
 4474 04ba 0B       		.uleb128 0xb
 4475 04bb DC090000 		.4byte	.LASF144
 4476 04bf FF00     		.sleb128 127
 4477 04c1 0B       		.uleb128 0xb
 4478 04c2 33060000 		.4byte	.LASF145
 4479 04c6 8001     		.sleb128 128
 4480 04c8 0B       		.uleb128 0xb
 4481 04c9 B9080000 		.4byte	.LASF146
 4482 04cd 8101     		.sleb128 129
 4483 04cf 0B       		.uleb128 0xb
 4484 04d0 78030000 		.4byte	.LASF147
 4485 04d4 8201     		.sleb128 130
 4486 04d6 0B       		.uleb128 0xb
 4487 04d7 AA220000 		.4byte	.LASF148
 4488 04db 8301     		.sleb128 131
ARM GAS  C:\Users\AHMED~1.ELE\AppData\Local\Temp\ccpjtoUe.s 			page 111


 4489 04dd 0B       		.uleb128 0xb
 4490 04de 2F270000 		.4byte	.LASF149
 4491 04e2 8401     		.sleb128 132
 4492 04e4 0B       		.uleb128 0xb
 4493 04e5 50120000 		.4byte	.LASF150
 4494 04e9 8501     		.sleb128 133
 4495 04eb 0B       		.uleb128 0xb
 4496 04ec 3A310000 		.4byte	.LASF151
 4497 04f0 8601     		.sleb128 134
 4498 04f2 0B       		.uleb128 0xb
 4499 04f3 480E0000 		.4byte	.LASF152
 4500 04f7 8701     		.sleb128 135
 4501 04f9 0B       		.uleb128 0xb
 4502 04fa 67070000 		.4byte	.LASF153
 4503 04fe 8801     		.sleb128 136
 4504 0500 0B       		.uleb128 0xb
 4505 0501 8D120000 		.4byte	.LASF154
 4506 0505 8901     		.sleb128 137
 4507 0507 0B       		.uleb128 0xb
 4508 0508 21250000 		.4byte	.LASF155
 4509 050c 8A01     		.sleb128 138
 4510 050e 0B       		.uleb128 0xb
 4511 050f 5B280000 		.4byte	.LASF156
 4512 0513 8B01     		.sleb128 139
 4513 0515 0B       		.uleb128 0xb
 4514 0516 A42E0000 		.4byte	.LASF157
 4515 051a 8C01     		.sleb128 140
 4516 051c 0B       		.uleb128 0xb
 4517 051d EB1B0000 		.4byte	.LASF158
 4518 0521 8D01     		.sleb128 141
 4519 0523 0B       		.uleb128 0xb
 4520 0524 13230000 		.4byte	.LASF159
 4521 0528 8E01     		.sleb128 142
 4522 052a 0B       		.uleb128 0xb
 4523 052b 89110000 		.4byte	.LASF160
 4524 052f 8F01     		.sleb128 143
 4525 0531 0B       		.uleb128 0xb
 4526 0532 74110000 		.4byte	.LASF161
 4527 0536 9001     		.sleb128 144
 4528 0538 0B       		.uleb128 0xb
 4529 0539 012E0000 		.4byte	.LASF162
 4530 053d 9101     		.sleb128 145
 4531 053f 0B       		.uleb128 0xb
 4532 0540 33220000 		.4byte	.LASF163
 4533 0544 9201     		.sleb128 146
 4534 0546 0B       		.uleb128 0xb
 4535 0547 DC2B0000 		.4byte	.LASF164
 4536 054b 9301     		.sleb128 147
 4537 054d 0B       		.uleb128 0xb
 4538 054e 851A0000 		.4byte	.LASF165
 4539 0552 9401     		.sleb128 148
 4540 0554 0B       		.uleb128 0xb
 4541 0555 E3190000 		.4byte	.LASF166
 4542 0559 9501     		.sleb128 149
 4543 055b 0B       		.uleb128 0xb
 4544 055c BC0B0000 		.4byte	.LASF167
 4545 0560 9601     		.sleb128 150
ARM GAS  C:\Users\AHMED~1.ELE\AppData\Local\Temp\ccpjtoUe.s 			page 112


 4546 0562 0B       		.uleb128 0xb
 4547 0563 5F130000 		.4byte	.LASF168
 4548 0567 9701     		.sleb128 151
 4549 0569 0B       		.uleb128 0xb
 4550 056a 741A0000 		.4byte	.LASF169
 4551 056e 9801     		.sleb128 152
 4552 0570 0B       		.uleb128 0xb
 4553 0571 F8010000 		.4byte	.LASF170
 4554 0575 9901     		.sleb128 153
 4555 0577 0B       		.uleb128 0xb
 4556 0578 D81C0000 		.4byte	.LASF171
 4557 057c 9A01     		.sleb128 154
 4558 057e 0B       		.uleb128 0xb
 4559 057f 98220000 		.4byte	.LASF172
 4560 0583 9B01     		.sleb128 155
 4561 0585 0B       		.uleb128 0xb
 4562 0586 E2320000 		.4byte	.LASF173
 4563 058a 9C01     		.sleb128 156
 4564 058c 0B       		.uleb128 0xb
 4565 058d CD000000 		.4byte	.LASF174
 4566 0591 9D01     		.sleb128 157
 4567 0593 0B       		.uleb128 0xb
 4568 0594 0E140000 		.4byte	.LASF175
 4569 0598 9E01     		.sleb128 158
 4570 059a 0B       		.uleb128 0xb
 4571 059b 480D0000 		.4byte	.LASF176
 4572 059f 9F01     		.sleb128 159
 4573 05a1 0B       		.uleb128 0xb
 4574 05a2 CC0B0000 		.4byte	.LASF177
 4575 05a6 A001     		.sleb128 160
 4576 05a8 0B       		.uleb128 0xb
 4577 05a9 331E0000 		.4byte	.LASF178
 4578 05ad A101     		.sleb128 161
 4579 05af 0B       		.uleb128 0xb
 4580 05b0 00220000 		.4byte	.LASF179
 4581 05b4 A201     		.sleb128 162
 4582 05b6 0B       		.uleb128 0xb
 4583 05b7 C0050000 		.4byte	.LASF180
 4584 05bb A301     		.sleb128 163
 4585 05bd 0B       		.uleb128 0xb
 4586 05be A2240000 		.4byte	.LASF181
 4587 05c2 A401     		.sleb128 164
 4588 05c4 0B       		.uleb128 0xb
 4589 05c5 000A0000 		.4byte	.LASF182
 4590 05c9 A501     		.sleb128 165
 4591 05cb 0B       		.uleb128 0xb
 4592 05cc 12030000 		.4byte	.LASF183
 4593 05d0 A601     		.sleb128 166
 4594 05d2 0B       		.uleb128 0xb
 4595 05d3 511F0000 		.4byte	.LASF184
 4596 05d7 A701     		.sleb128 167
 4597 05d9 0B       		.uleb128 0xb
 4598 05da 441D0000 		.4byte	.LASF185
 4599 05de A801     		.sleb128 168
 4600 05e0 0B       		.uleb128 0xb
 4601 05e1 75060000 		.4byte	.LASF186
 4602 05e5 A901     		.sleb128 169
ARM GAS  C:\Users\AHMED~1.ELE\AppData\Local\Temp\ccpjtoUe.s 			page 113


 4603 05e7 0B       		.uleb128 0xb
 4604 05e8 9B180000 		.4byte	.LASF187
 4605 05ec AA01     		.sleb128 170
 4606 05ee 0B       		.uleb128 0xb
 4607 05ef 97210000 		.4byte	.LASF188
 4608 05f3 AB01     		.sleb128 171
 4609 05f5 0B       		.uleb128 0xb
 4610 05f6 D82D0000 		.4byte	.LASF189
 4611 05fa AC01     		.sleb128 172
 4612 05fc 0B       		.uleb128 0xb
 4613 05fd CC040000 		.4byte	.LASF190
 4614 0601 AD01     		.sleb128 173
 4615 0603 0B       		.uleb128 0xb
 4616 0604 8D190000 		.4byte	.LASF191
 4617 0608 AE01     		.sleb128 174
 4618 060a 0B       		.uleb128 0xb
 4619 060b 14290000 		.4byte	.LASF192
 4620 060f AF01     		.sleb128 175
 4621 0611 0B       		.uleb128 0xb
 4622 0612 1F0F0000 		.4byte	.LASF193
 4623 0616 B001     		.sleb128 176
 4624 0618 0B       		.uleb128 0xb
 4625 0619 9A000000 		.4byte	.LASF194
 4626 061d B101     		.sleb128 177
 4627 061f 0B       		.uleb128 0xb
 4628 0620 C1190000 		.4byte	.LASF195
 4629 0624 B201     		.sleb128 178
 4630 0626 0B       		.uleb128 0xb
 4631 0627 932E0000 		.4byte	.LASF196
 4632 062b B301     		.sleb128 179
 4633 062d 0B       		.uleb128 0xb
 4634 062e 51070000 		.4byte	.LASF197
 4635 0632 B401     		.sleb128 180
 4636 0634 0B       		.uleb128 0xb
 4637 0635 7E150000 		.4byte	.LASF198
 4638 0639 B501     		.sleb128 181
 4639 063b 0B       		.uleb128 0xb
 4640 063c DE070000 		.4byte	.LASF199
 4641 0640 B601     		.sleb128 182
 4642 0642 0B       		.uleb128 0xb
 4643 0643 91240000 		.4byte	.LASF200
 4644 0647 B701     		.sleb128 183
 4645 0649 0B       		.uleb128 0xb
 4646 064a 190E0000 		.4byte	.LASF201
 4647 064e B801     		.sleb128 184
 4648 0650 0B       		.uleb128 0xb
 4649 0651 280B0000 		.4byte	.LASF202
 4650 0655 B901     		.sleb128 185
 4651 0657 0B       		.uleb128 0xb
 4652 0658 94330000 		.4byte	.LASF203
 4653 065c BA01     		.sleb128 186
 4654 065e 0B       		.uleb128 0xb
 4655 065f BD280000 		.4byte	.LASF204
 4656 0663 BB01     		.sleb128 187
 4657 0665 0B       		.uleb128 0xb
 4658 0666 24060000 		.4byte	.LASF205
 4659 066a BC01     		.sleb128 188
ARM GAS  C:\Users\AHMED~1.ELE\AppData\Local\Temp\ccpjtoUe.s 			page 114


 4660 066c 0B       		.uleb128 0xb
 4661 066d 36150000 		.4byte	.LASF206
 4662 0671 BD01     		.sleb128 189
 4663 0673 0B       		.uleb128 0xb
 4664 0674 DC050000 		.4byte	.LASF207
 4665 0678 BE01     		.sleb128 190
 4666 067a 0B       		.uleb128 0xb
 4667 067b 692A0000 		.4byte	.LASF208
 4668 067f BF01     		.sleb128 191
 4669 0681 0B       		.uleb128 0xb
 4670 0682 B5110000 		.4byte	.LASF209
 4671 0686 C001     		.sleb128 192
 4672 0688 0B       		.uleb128 0xb
 4673 0689 5B2B0000 		.4byte	.LASF210
 4674 068d C101     		.sleb128 193
 4675 068f 0B       		.uleb128 0xb
 4676 0690 B4190000 		.4byte	.LASF211
 4677 0694 C201     		.sleb128 194
 4678 0696 0B       		.uleb128 0xb
 4679 0697 331D0000 		.4byte	.LASF212
 4680 069b C301     		.sleb128 195
 4681 069d 0B       		.uleb128 0xb
 4682 069e 1C280000 		.4byte	.LASF213
 4683 06a2 C401     		.sleb128 196
 4684 06a4 0B       		.uleb128 0xb
 4685 06a5 371C0000 		.4byte	.LASF214
 4686 06a9 C501     		.sleb128 197
 4687 06ab 0B       		.uleb128 0xb
 4688 06ac F72E0000 		.4byte	.LASF215
 4689 06b0 C601     		.sleb128 198
 4690 06b2 0B       		.uleb128 0xb
 4691 06b3 E2020000 		.4byte	.LASF216
 4692 06b7 C701     		.sleb128 199
 4693 06b9 0B       		.uleb128 0xb
 4694 06ba 43200000 		.4byte	.LASF217
 4695 06be C801     		.sleb128 200
 4696 06c0 0B       		.uleb128 0xb
 4697 06c1 6F280000 		.4byte	.LASF218
 4698 06c5 C901     		.sleb128 201
 4699 06c7 0B       		.uleb128 0xb
 4700 06c8 51210000 		.4byte	.LASF219
 4701 06cc CA01     		.sleb128 202
 4702 06ce 0B       		.uleb128 0xb
 4703 06cf DB2F0000 		.4byte	.LASF220
 4704 06d3 CB01     		.sleb128 203
 4705 06d5 0B       		.uleb128 0xb
 4706 06d6 830F0000 		.4byte	.LASF221
 4707 06da CC01     		.sleb128 204
 4708 06dc 0B       		.uleb128 0xb
 4709 06dd 5E260000 		.4byte	.LASF222
 4710 06e1 CD01     		.sleb128 205
 4711 06e3 0B       		.uleb128 0xb
 4712 06e4 D3290000 		.4byte	.LASF223
 4713 06e8 CE01     		.sleb128 206
 4714 06ea 0B       		.uleb128 0xb
 4715 06eb 53110000 		.4byte	.LASF224
 4716 06ef CF01     		.sleb128 207
ARM GAS  C:\Users\AHMED~1.ELE\AppData\Local\Temp\ccpjtoUe.s 			page 115


 4717 06f1 0B       		.uleb128 0xb
 4718 06f2 11200000 		.4byte	.LASF225
 4719 06f6 D001     		.sleb128 208
 4720 06f8 0B       		.uleb128 0xb
 4721 06f9 C5140000 		.4byte	.LASF226
 4722 06fd D101     		.sleb128 209
 4723 06ff 0B       		.uleb128 0xb
 4724 0700 BD0E0000 		.4byte	.LASF227
 4725 0704 D201     		.sleb128 210
 4726 0706 0B       		.uleb128 0xb
 4727 0707 B82E0000 		.4byte	.LASF228
 4728 070b D301     		.sleb128 211
 4729 070d 0B       		.uleb128 0xb
 4730 070e EC270000 		.4byte	.LASF229
 4731 0712 D401     		.sleb128 212
 4732 0714 0B       		.uleb128 0xb
 4733 0715 C2240000 		.4byte	.LASF230
 4734 0719 D501     		.sleb128 213
 4735 071b 0B       		.uleb128 0xb
 4736 071c E3160000 		.4byte	.LASF231
 4737 0720 D601     		.sleb128 214
 4738 0722 0B       		.uleb128 0xb
 4739 0723 8F130000 		.4byte	.LASF232
 4740 0727 D701     		.sleb128 215
 4741 0729 0B       		.uleb128 0xb
 4742 072a 63110000 		.4byte	.LASF233
 4743 072e D801     		.sleb128 216
 4744 0730 0B       		.uleb128 0xb
 4745 0731 AA080000 		.4byte	.LASF234
 4746 0735 D901     		.sleb128 217
 4747 0737 0B       		.uleb128 0xb
 4748 0738 9A160000 		.4byte	.LASF235
 4749 073c DA01     		.sleb128 218
 4750 073e 0B       		.uleb128 0xb
 4751 073f 81050000 		.4byte	.LASF236
 4752 0743 DB01     		.sleb128 219
 4753 0745 0B       		.uleb128 0xb
 4754 0746 14080000 		.4byte	.LASF237
 4755 074a DC01     		.sleb128 220
 4756 074c 0B       		.uleb128 0xb
 4757 074d 232E0000 		.4byte	.LASF238
 4758 0751 DD01     		.sleb128 221
 4759 0753 0B       		.uleb128 0xb
 4760 0754 B8150000 		.4byte	.LASF239
 4761 0758 DE01     		.sleb128 222
 4762 075a 0B       		.uleb128 0xb
 4763 075b 71130000 		.4byte	.LASF240
 4764 075f DF01     		.sleb128 223
 4765 0761 0B       		.uleb128 0xb
 4766 0762 0D150000 		.4byte	.LASF241
 4767 0766 E001     		.sleb128 224
 4768 0768 0B       		.uleb128 0xb
 4769 0769 80130000 		.4byte	.LASF242
 4770 076d E101     		.sleb128 225
 4771 076f 0B       		.uleb128 0xb
 4772 0770 57180000 		.4byte	.LASF243
 4773 0774 E201     		.sleb128 226
ARM GAS  C:\Users\AHMED~1.ELE\AppData\Local\Temp\ccpjtoUe.s 			page 116


 4774 0776 0B       		.uleb128 0xb
 4775 0777 A51B0000 		.4byte	.LASF244
 4776 077b E301     		.sleb128 227
 4777 077d 0B       		.uleb128 0xb
 4778 077e F7130000 		.4byte	.LASF245
 4779 0782 E401     		.sleb128 228
 4780 0784 0B       		.uleb128 0xb
 4781 0785 F5110000 		.4byte	.LASF246
 4782 0789 E501     		.sleb128 229
 4783 078b 0B       		.uleb128 0xb
 4784 078c 741C0000 		.4byte	.LASF247
 4785 0790 E601     		.sleb128 230
 4786 0792 0B       		.uleb128 0xb
 4787 0793 00160000 		.4byte	.LASF248
 4788 0797 E701     		.sleb128 231
 4789 0799 0B       		.uleb128 0xb
 4790 079a 4B0B0000 		.4byte	.LASF249
 4791 079e E801     		.sleb128 232
 4792 07a0 0B       		.uleb128 0xb
 4793 07a1 9F310000 		.4byte	.LASF250
 4794 07a5 E901     		.sleb128 233
 4795 07a7 0B       		.uleb128 0xb
 4796 07a8 272B0000 		.4byte	.LASF251
 4797 07ac EA01     		.sleb128 234
 4798 07ae 0B       		.uleb128 0xb
 4799 07af DF1F0000 		.4byte	.LASF252
 4800 07b3 EB01     		.sleb128 235
 4801 07b5 0B       		.uleb128 0xb
 4802 07b6 C92B0000 		.4byte	.LASF253
 4803 07ba EC01     		.sleb128 236
 4804 07bc 0B       		.uleb128 0xb
 4805 07bd 55200000 		.4byte	.LASF254
 4806 07c1 ED01     		.sleb128 237
 4807 07c3 0B       		.uleb128 0xb
 4808 07c4 44070000 		.4byte	.LASF255
 4809 07c8 EE01     		.sleb128 238
 4810 07ca 0B       		.uleb128 0xb
 4811 07cb 252C0000 		.4byte	.LASF256
 4812 07cf EF01     		.sleb128 239
 4813 07d1 0B       		.uleb128 0xb
 4814 07d2 AF2F0000 		.4byte	.LASF257
 4815 07d6 F001     		.sleb128 240
 4816 07d8 0B       		.uleb128 0xb
 4817 07d9 67180000 		.4byte	.LASF258
 4818 07dd F101     		.sleb128 241
 4819 07df 0B       		.uleb128 0xb
 4820 07e0 EC2D0000 		.4byte	.LASF259
 4821 07e4 F201     		.sleb128 242
 4822 07e6 0B       		.uleb128 0xb
 4823 07e7 821B0000 		.4byte	.LASF260
 4824 07eb F301     		.sleb128 243
 4825 07ed 0B       		.uleb128 0xb
 4826 07ee AB090000 		.4byte	.LASF261
 4827 07f2 F401     		.sleb128 244
 4828 07f4 0B       		.uleb128 0xb
 4829 07f5 C2250000 		.4byte	.LASF262
 4830 07f9 F501     		.sleb128 245
ARM GAS  C:\Users\AHMED~1.ELE\AppData\Local\Temp\ccpjtoUe.s 			page 117


 4831 07fb 0B       		.uleb128 0xb
 4832 07fc 2F260000 		.4byte	.LASF263
 4833 0800 F601     		.sleb128 246
 4834 0802 0B       		.uleb128 0xb
 4835 0803 B2230000 		.4byte	.LASF264
 4836 0807 F701     		.sleb128 247
 4837 0809 0B       		.uleb128 0xb
 4838 080a 7D1F0000 		.4byte	.LASF265
 4839 080e F801     		.sleb128 248
 4840 0810 0B       		.uleb128 0xb
 4841 0811 A5150000 		.4byte	.LASF266
 4842 0815 F901     		.sleb128 249
 4843 0817 0B       		.uleb128 0xb
 4844 0818 B1210000 		.4byte	.LASF267
 4845 081c FA01     		.sleb128 250
 4846 081e 0B       		.uleb128 0xb
 4847 081f 09180000 		.4byte	.LASF268
 4848 0823 FB01     		.sleb128 251
 4849 0825 0B       		.uleb128 0xb
 4850 0826 84320000 		.4byte	.LASF269
 4851 082a FC01     		.sleb128 252
 4852 082c 0B       		.uleb128 0xb
 4853 082d 2D120000 		.4byte	.LASF270
 4854 0831 FD01     		.sleb128 253
 4855 0833 0B       		.uleb128 0xb
 4856 0834 03300000 		.4byte	.LASF271
 4857 0838 FE01     		.sleb128 254
 4858 083a 0B       		.uleb128 0xb
 4859 083b E0140000 		.4byte	.LASF272
 4860 083f FF01     		.sleb128 255
 4861 0841 0B       		.uleb128 0xb
 4862 0842 472F0000 		.4byte	.LASF273
 4863 0846 8002     		.sleb128 256
 4864 0848 0B       		.uleb128 0xb
 4865 0849 18180000 		.4byte	.LASF274
 4866 084d 8102     		.sleb128 257
 4867 084f 0B       		.uleb128 0xb
 4868 0850 ED220000 		.4byte	.LASF275
 4869 0854 8202     		.sleb128 258
 4870 0856 0B       		.uleb128 0xb
 4871 0857 4D270000 		.4byte	.LASF276
 4872 085b 8302     		.sleb128 259
 4873 085d 0B       		.uleb128 0xb
 4874 085e D90F0000 		.4byte	.LASF277
 4875 0862 8402     		.sleb128 260
 4876 0864 0B       		.uleb128 0xb
 4877 0865 FC140000 		.4byte	.LASF278
 4878 0869 8502     		.sleb128 261
 4879 086b 0B       		.uleb128 0xb
 4880 086c 28040000 		.4byte	.LASF279
 4881 0870 8602     		.sleb128 262
 4882 0872 0B       		.uleb128 0xb
 4883 0873 6D190000 		.4byte	.LASF280
 4884 0877 8702     		.sleb128 263
 4885 0879 0B       		.uleb128 0xb
 4886 087a A6070000 		.4byte	.LASF281
 4887 087e 8802     		.sleb128 264
ARM GAS  C:\Users\AHMED~1.ELE\AppData\Local\Temp\ccpjtoUe.s 			page 118


 4888 0880 0B       		.uleb128 0xb
 4889 0881 25130000 		.4byte	.LASF282
 4890 0885 8902     		.sleb128 265
 4891 0887 0B       		.uleb128 0xb
 4892 0888 E72A0000 		.4byte	.LASF283
 4893 088c 8A02     		.sleb128 266
 4894 088e 0B       		.uleb128 0xb
 4895 088f CA110000 		.4byte	.LASF284
 4896 0893 8B02     		.sleb128 267
 4897 0895 0B       		.uleb128 0xb
 4898 0896 F00E0000 		.4byte	.LASF285
 4899 089a 8C02     		.sleb128 268
 4900 089c 0B       		.uleb128 0xb
 4901 089d F3260000 		.4byte	.LASF286
 4902 08a1 8D02     		.sleb128 269
 4903 08a3 0B       		.uleb128 0xb
 4904 08a4 5C0F0000 		.4byte	.LASF287
 4905 08a8 8E02     		.sleb128 270
 4906 08aa 0B       		.uleb128 0xb
 4907 08ab 2F080000 		.4byte	.LASF288
 4908 08af 8F02     		.sleb128 271
 4909 08b1 0B       		.uleb128 0xb
 4910 08b2 83090000 		.4byte	.LASF289
 4911 08b6 9002     		.sleb128 272
 4912 08b8 0B       		.uleb128 0xb
 4913 08b9 CD020000 		.4byte	.LASF290
 4914 08bd 9102     		.sleb128 273
 4915 08bf 0B       		.uleb128 0xb
 4916 08c0 66320000 		.4byte	.LASF291
 4917 08c4 9202     		.sleb128 274
 4918 08c6 0B       		.uleb128 0xb
 4919 08c7 152B0000 		.4byte	.LASF292
 4920 08cb 9302     		.sleb128 275
 4921 08cd 0B       		.uleb128 0xb
 4922 08ce F5310000 		.4byte	.LASF293
 4923 08d2 9402     		.sleb128 276
 4924 08d4 0B       		.uleb128 0xb
 4925 08d5 56150000 		.4byte	.LASF294
 4926 08d9 9502     		.sleb128 277
 4927 08db 0B       		.uleb128 0xb
 4928 08dc 8A030000 		.4byte	.LASF295
 4929 08e0 9602     		.sleb128 278
 4930 08e2 0B       		.uleb128 0xb
 4931 08e3 951B0000 		.4byte	.LASF296
 4932 08e7 9702     		.sleb128 279
 4933 08e9 0B       		.uleb128 0xb
 4934 08ea 9A040000 		.4byte	.LASF297
 4935 08ee 9802     		.sleb128 280
 4936 08f0 0B       		.uleb128 0xb
 4937 08f1 491B0000 		.4byte	.LASF298
 4938 08f5 9902     		.sleb128 281
 4939 08f7 0B       		.uleb128 0xb
 4940 08f8 9C1E0000 		.4byte	.LASF299
 4941 08fc 9A02     		.sleb128 282
 4942 08fe 0B       		.uleb128 0xb
 4943 08ff 61020000 		.4byte	.LASF300
 4944 0903 9B02     		.sleb128 283
ARM GAS  C:\Users\AHMED~1.ELE\AppData\Local\Temp\ccpjtoUe.s 			page 119


 4945 0905 0B       		.uleb128 0xb
 4946 0906 DC080000 		.4byte	.LASF301
 4947 090a 9C02     		.sleb128 284
 4948 090c 0B       		.uleb128 0xb
 4949 090d 57190000 		.4byte	.LASF302
 4950 0911 9D02     		.sleb128 285
 4951 0913 0B       		.uleb128 0xb
 4952 0914 7C160000 		.4byte	.LASF303
 4953 0918 9E02     		.sleb128 286
 4954 091a 0B       		.uleb128 0xb
 4955 091b 25010000 		.4byte	.LASF304
 4956 091f 9F02     		.sleb128 287
 4957 0921 0B       		.uleb128 0xb
 4958 0922 D5270000 		.4byte	.LASF305
 4959 0926 A002     		.sleb128 288
 4960 0928 0B       		.uleb128 0xb
 4961 0929 78040000 		.4byte	.LASF306
 4962 092d A102     		.sleb128 289
 4963 092f 0B       		.uleb128 0xb
 4964 0930 EF1F0000 		.4byte	.LASF307
 4965 0934 A202     		.sleb128 290
 4966 0936 0B       		.uleb128 0xb
 4967 0937 452A0000 		.4byte	.LASF308
 4968 093b A302     		.sleb128 291
 4969 093d 0B       		.uleb128 0xb
 4970 093e 2F240000 		.4byte	.LASF309
 4971 0942 A402     		.sleb128 292
 4972 0944 0B       		.uleb128 0xb
 4973 0945 D1130000 		.4byte	.LASF310
 4974 0949 A502     		.sleb128 293
 4975 094b 0B       		.uleb128 0xb
 4976 094c F82C0000 		.4byte	.LASF311
 4977 0950 A602     		.sleb128 294
 4978 0952 0B       		.uleb128 0xb
 4979 0953 42250000 		.4byte	.LASF312
 4980 0957 A702     		.sleb128 295
 4981 0959 0B       		.uleb128 0xb
 4982 095a BF220000 		.4byte	.LASF313
 4983 095e A802     		.sleb128 296
 4984 0960 0B       		.uleb128 0xb
 4985 0961 241C0000 		.4byte	.LASF314
 4986 0965 A902     		.sleb128 297
 4987 0967 0B       		.uleb128 0xb
 4988 0968 CC010000 		.4byte	.LASF315
 4989 096c AA02     		.sleb128 298
 4990 096e 0B       		.uleb128 0xb
 4991 096f 60000000 		.4byte	.LASF316
 4992 0973 AB02     		.sleb128 299
 4993 0975 0B       		.uleb128 0xb
 4994 0976 3A0B0000 		.4byte	.LASF317
 4995 097a AC02     		.sleb128 300
 4996 097c 0B       		.uleb128 0xb
 4997 097d FD020000 		.4byte	.LASF318
 4998 0981 AD02     		.sleb128 301
 4999 0983 0B       		.uleb128 0xb
 5000 0984 070B0000 		.4byte	.LASF319
 5001 0988 AE02     		.sleb128 302
ARM GAS  C:\Users\AHMED~1.ELE\AppData\Local\Temp\ccpjtoUe.s 			page 120


 5002 098a 0B       		.uleb128 0xb
 5003 098b ED090000 		.4byte	.LASF320
 5004 098f AF02     		.sleb128 303
 5005 0991 0B       		.uleb128 0xb
 5006 0992 C3180000 		.4byte	.LASF321
 5007 0996 B002     		.sleb128 304
 5008 0998 0B       		.uleb128 0xb
 5009 0999 16330000 		.4byte	.LASF322
 5010 099d B102     		.sleb128 305
 5011 099f 0B       		.uleb128 0xb
 5012 09a0 942F0000 		.4byte	.LASF323
 5013 09a4 B202     		.sleb128 306
 5014 09a6 0B       		.uleb128 0xb
 5015 09a7 5B140000 		.4byte	.LASF324
 5016 09ab B302     		.sleb128 307
 5017 09ad 0B       		.uleb128 0xb
 5018 09ae 031E0000 		.4byte	.LASF325
 5019 09b2 B402     		.sleb128 308
 5020 09b4 0B       		.uleb128 0xb
 5021 09b5 40210000 		.4byte	.LASF326
 5022 09b9 B502     		.sleb128 309
 5023 09bb 0B       		.uleb128 0xb
 5024 09bc 780A0000 		.4byte	.LASF327
 5025 09c0 B602     		.sleb128 310
 5026 09c2 0B       		.uleb128 0xb
 5027 09c3 00000000 		.4byte	.LASF328
 5028 09c7 B702     		.sleb128 311
 5029 09c9 0B       		.uleb128 0xb
 5030 09ca A70E0000 		.4byte	.LASF329
 5031 09ce B802     		.sleb128 312
 5032 09d0 0B       		.uleb128 0xb
 5033 09d1 9B2A0000 		.4byte	.LASF330
 5034 09d5 B902     		.sleb128 313
 5035 09d7 0B       		.uleb128 0xb
 5036 09d8 E7200000 		.4byte	.LASF331
 5037 09dc BA02     		.sleb128 314
 5038 09de 0B       		.uleb128 0xb
 5039 09df FD220000 		.4byte	.LASF332
 5040 09e3 BB02     		.sleb128 315
 5041 09e5 0B       		.uleb128 0xb
 5042 09e6 5F010000 		.4byte	.LASF333
 5043 09ea BC02     		.sleb128 316
 5044 09ec 0B       		.uleb128 0xb
 5045 09ed 6F330000 		.4byte	.LASF334
 5046 09f1 BD02     		.sleb128 317
 5047 09f3 0B       		.uleb128 0xb
 5048 09f4 A7330000 		.4byte	.LASF335
 5049 09f8 BE02     		.sleb128 318
 5050 09fa 0B       		.uleb128 0xb
 5051 09fb F9230000 		.4byte	.LASF336
 5052 09ff BF02     		.sleb128 319
 5053 0a01 0B       		.uleb128 0xb
 5054 0a02 6D140000 		.4byte	.LASF337
 5055 0a06 C002     		.sleb128 320
 5056 0a08 0B       		.uleb128 0xb
 5057 0a09 1E310000 		.4byte	.LASF338
 5058 0a0d C102     		.sleb128 321
ARM GAS  C:\Users\AHMED~1.ELE\AppData\Local\Temp\ccpjtoUe.s 			page 121


 5059 0a0f 0B       		.uleb128 0xb
 5060 0a10 6B050000 		.4byte	.LASF339
 5061 0a14 C202     		.sleb128 322
 5062 0a16 0B       		.uleb128 0xb
 5063 0a17 72010000 		.4byte	.LASF340
 5064 0a1b C302     		.sleb128 323
 5065 0a1d 0B       		.uleb128 0xb
 5066 0a1e 15000000 		.4byte	.LASF341
 5067 0a22 C402     		.sleb128 324
 5068 0a24 0B       		.uleb128 0xb
 5069 0a25 EC240000 		.4byte	.LASF342
 5070 0a29 C502     		.sleb128 325
 5071 0a2b 0B       		.uleb128 0xb
 5072 0a2c B7070000 		.4byte	.LASF343
 5073 0a30 C602     		.sleb128 326
 5074 0a32 0B       		.uleb128 0xb
 5075 0a33 10110000 		.4byte	.LASF344
 5076 0a37 C702     		.sleb128 327
 5077 0a39 0B       		.uleb128 0xb
 5078 0a3a 3D090000 		.4byte	.LASF345
 5079 0a3e C802     		.sleb128 328
 5080 0a40 0B       		.uleb128 0xb
 5081 0a41 64290000 		.4byte	.LASF346
 5082 0a45 C902     		.sleb128 329
 5083 0a47 0B       		.uleb128 0xb
 5084 0a48 48280000 		.4byte	.LASF347
 5085 0a4c CA02     		.sleb128 330
 5086 0a4e 0B       		.uleb128 0xb
 5087 0a4f CE2A0000 		.4byte	.LASF348
 5088 0a53 CB02     		.sleb128 331
 5089 0a55 0B       		.uleb128 0xb
 5090 0a56 780D0000 		.4byte	.LASF349
 5091 0a5a CC02     		.sleb128 332
 5092 0a5c 0B       		.uleb128 0xb
 5093 0a5d FF1B0000 		.4byte	.LASF350
 5094 0a61 CD02     		.sleb128 333
 5095 0a63 0B       		.uleb128 0xb
 5096 0a64 301F0000 		.4byte	.LASF351
 5097 0a68 CE02     		.sleb128 334
 5098 0a6a 0B       		.uleb128 0xb
 5099 0a6b 50310000 		.4byte	.LASF352
 5100 0a6f CF02     		.sleb128 335
 5101 0a71 0B       		.uleb128 0xb
 5102 0a72 1A1D0000 		.4byte	.LASF353
 5103 0a76 D002     		.sleb128 336
 5104 0a78 0B       		.uleb128 0xb
 5105 0a79 2D0E0000 		.4byte	.LASF354
 5106 0a7d D102     		.sleb128 337
 5107 0a7f 0B       		.uleb128 0xb
 5108 0a80 B5120000 		.4byte	.LASF355
 5109 0a84 D202     		.sleb128 338
 5110 0a86 0B       		.uleb128 0xb
 5111 0a87 35190000 		.4byte	.LASF356
 5112 0a8b D302     		.sleb128 339
 5113 0a8d 0B       		.uleb128 0xb
 5114 0a8e 65080000 		.4byte	.LASF357
 5115 0a92 D402     		.sleb128 340
ARM GAS  C:\Users\AHMED~1.ELE\AppData\Local\Temp\ccpjtoUe.s 			page 122


 5116 0a94 0B       		.uleb128 0xb
 5117 0a95 9A200000 		.4byte	.LASF358
 5118 0a99 D502     		.sleb128 341
 5119 0a9b 0B       		.uleb128 0xb
 5120 0a9c 94300000 		.4byte	.LASF359
 5121 0aa0 D602     		.sleb128 342
 5122 0aa2 0B       		.uleb128 0xb
 5123 0aa3 471C0000 		.4byte	.LASF360
 5124 0aa7 D702     		.sleb128 343
 5125 0aa9 0B       		.uleb128 0xb
 5126 0aaa 63200000 		.4byte	.LASF361
 5127 0aae D802     		.sleb128 344
 5128 0ab0 0B       		.uleb128 0xb
 5129 0ab1 67230000 		.4byte	.LASF362
 5130 0ab5 D902     		.sleb128 345
 5131 0ab7 0B       		.uleb128 0xb
 5132 0ab8 6A100000 		.4byte	.LASF363
 5133 0abc DA02     		.sleb128 346
 5134 0abe 0B       		.uleb128 0xb
 5135 0abf 75210000 		.4byte	.LASF364
 5136 0ac3 DB02     		.sleb128 347
 5137 0ac5 0B       		.uleb128 0xb
 5138 0ac6 44190000 		.4byte	.LASF365
 5139 0aca DC02     		.sleb128 348
 5140 0acc 0B       		.uleb128 0xb
 5141 0acd 40220000 		.4byte	.LASF366
 5142 0ad1 DD02     		.sleb128 349
 5143 0ad3 0B       		.uleb128 0xb
 5144 0ad4 671F0000 		.4byte	.LASF367
 5145 0ad8 DE02     		.sleb128 350
 5146 0ada 0B       		.uleb128 0xb
 5147 0adb 8D290000 		.4byte	.LASF368
 5148 0adf DF02     		.sleb128 351
 5149 0ae1 0B       		.uleb128 0xb
 5150 0ae2 74020000 		.4byte	.LASF369
 5151 0ae6 E002     		.sleb128 352
 5152 0ae8 0B       		.uleb128 0xb
 5153 0ae9 9C260000 		.4byte	.LASF370
 5154 0aed E102     		.sleb128 353
 5155 0aef 0B       		.uleb128 0xb
 5156 0af0 152A0000 		.4byte	.LASF371
 5157 0af4 E202     		.sleb128 354
 5158 0af6 0B       		.uleb128 0xb
 5159 0af7 13160000 		.4byte	.LASF372
 5160 0afb E302     		.sleb128 355
 5161 0afd 0B       		.uleb128 0xb
 5162 0afe 88210000 		.4byte	.LASF373
 5163 0b02 E402     		.sleb128 356
 5164 0b04 0B       		.uleb128 0xb
 5165 0b05 6F0F0000 		.4byte	.LASF374
 5166 0b09 E502     		.sleb128 357
 5167 0b0b 0B       		.uleb128 0xb
 5168 0b0c 9E130000 		.4byte	.LASF375
 5169 0b10 E602     		.sleb128 358
 5170 0b12 0B       		.uleb128 0xb
 5171 0b13 47330000 		.4byte	.LASF376
 5172 0b17 E702     		.sleb128 359
ARM GAS  C:\Users\AHMED~1.ELE\AppData\Local\Temp\ccpjtoUe.s 			page 123


 5173 0b19 0B       		.uleb128 0xb
 5174 0b1a 122C0000 		.4byte	.LASF377
 5175 0b1e E802     		.sleb128 360
 5176 0b20 0B       		.uleb128 0xb
 5177 0b21 F41A0000 		.4byte	.LASF378
 5178 0b25 E902     		.sleb128 361
 5179 0b27 0B       		.uleb128 0xb
 5180 0b28 2E290000 		.4byte	.LASF379
 5181 0b2c EA02     		.sleb128 362
 5182 0b2e 0B       		.uleb128 0xb
 5183 0b2f 7C100000 		.4byte	.LASF380
 5184 0b33 EB02     		.sleb128 363
 5185 0b35 0B       		.uleb128 0xb
 5186 0b36 8C100000 		.4byte	.LASF381
 5187 0b3a EC02     		.sleb128 364
 5188 0b3c 0B       		.uleb128 0xb
 5189 0b3d 6E2E0000 		.4byte	.LASF382
 5190 0b41 ED02     		.sleb128 365
 5191 0b43 0B       		.uleb128 0xb
 5192 0b44 322E0000 		.4byte	.LASF383
 5193 0b48 EE02     		.sleb128 366
 5194 0b4a 0B       		.uleb128 0xb
 5195 0b4b 58060000 		.4byte	.LASF384
 5196 0b4f EF02     		.sleb128 367
 5197 0b51 0B       		.uleb128 0xb
 5198 0b52 B01A0000 		.4byte	.LASF385
 5199 0b56 F002     		.sleb128 368
 5200 0b58 0B       		.uleb128 0xb
 5201 0b59 94070000 		.4byte	.LASF386
 5202 0b5d F102     		.sleb128 369
 5203 0b5f 0B       		.uleb128 0xb
 5204 0b60 03270000 		.4byte	.LASF387
 5205 0b64 F202     		.sleb128 370
 5206 0b66 0B       		.uleb128 0xb
 5207 0b67 E8100000 		.4byte	.LASF388
 5208 0b6b F302     		.sleb128 371
 5209 0b6d 0B       		.uleb128 0xb
 5210 0b6e B41F0000 		.4byte	.LASF389
 5211 0b72 F402     		.sleb128 372
 5212 0b74 0B       		.uleb128 0xb
 5213 0b75 FD0F0000 		.4byte	.LASF390
 5214 0b79 F502     		.sleb128 373
 5215 0b7b 0B       		.uleb128 0xb
 5216 0b7c CA2D0000 		.4byte	.LASF391
 5217 0b80 F602     		.sleb128 374
 5218 0b82 0B       		.uleb128 0xb
 5219 0b83 9D0B0000 		.4byte	.LASF392
 5220 0b87 F702     		.sleb128 375
 5221 0b89 0B       		.uleb128 0xb
 5222 0b8a 8C310000 		.4byte	.LASF393
 5223 0b8e F802     		.sleb128 376
 5224 0b90 0B       		.uleb128 0xb
 5225 0b91 C9150000 		.4byte	.LASF394
 5226 0b95 F902     		.sleb128 377
 5227 0b97 0B       		.uleb128 0xb
 5228 0b98 5A1B0000 		.4byte	.LASF395
 5229 0b9c FA02     		.sleb128 378
ARM GAS  C:\Users\AHMED~1.ELE\AppData\Local\Temp\ccpjtoUe.s 			page 124


 5230 0b9e 0B       		.uleb128 0xb
 5231 0b9f 90270000 		.4byte	.LASF396
 5232 0ba3 FB02     		.sleb128 379
 5233 0ba5 0B       		.uleb128 0xb
 5234 0ba6 C6230000 		.4byte	.LASF397
 5235 0baa FC02     		.sleb128 380
 5236 0bac 0B       		.uleb128 0xb
 5237 0bad 591E0000 		.4byte	.LASF398
 5238 0bb1 FD02     		.sleb128 381
 5239 0bb3 0B       		.uleb128 0xb
 5240 0bb4 70270000 		.4byte	.LASF399
 5241 0bb8 FE02     		.sleb128 382
 5242 0bba 0B       		.uleb128 0xb
 5243 0bbb FF050000 		.4byte	.LASF400
 5244 0bbf FF02     		.sleb128 383
 5245 0bc1 0B       		.uleb128 0xb
 5246 0bc2 7B220000 		.4byte	.LASF401
 5247 0bc6 8003     		.sleb128 384
 5248 0bc8 0B       		.uleb128 0xb
 5249 0bc9 6D120000 		.4byte	.LASF402
 5250 0bcd 8103     		.sleb128 385
 5251 0bcf 0B       		.uleb128 0xb
 5252 0bd0 142D0000 		.4byte	.LASF403
 5253 0bd4 8203     		.sleb128 386
 5254 0bd6 0B       		.uleb128 0xb
 5255 0bd7 CA160000 		.4byte	.LASF404
 5256 0bdb 8303     		.sleb128 387
 5257 0bdd 0B       		.uleb128 0xb
 5258 0bde 130A0000 		.4byte	.LASF405
 5259 0be2 8403     		.sleb128 388
 5260 0be4 0B       		.uleb128 0xb
 5261 0be5 5B1A0000 		.4byte	.LASF406
 5262 0be9 8503     		.sleb128 389
 5263 0beb 0B       		.uleb128 0xb
 5264 0bec 03260000 		.4byte	.LASF407
 5265 0bf0 8603     		.sleb128 390
 5266 0bf2 0B       		.uleb128 0xb
 5267 0bf3 820B0000 		.4byte	.LASF408
 5268 0bf7 8703     		.sleb128 391
 5269 0bf9 0B       		.uleb128 0xb
 5270 0bfa FB200000 		.4byte	.LASF409
 5271 0bfe 8803     		.sleb128 392
 5272 0c00 0B       		.uleb128 0xb
 5273 0c01 590D0000 		.4byte	.LASF410
 5274 0c05 8903     		.sleb128 393
 5275 0c07 0B       		.uleb128 0xb
 5276 0c08 3A320000 		.4byte	.LASF411
 5277 0c0c 8A03     		.sleb128 394
 5278 0c0e 0B       		.uleb128 0xb
 5279 0c0f 982B0000 		.4byte	.LASF412
 5280 0c13 8B03     		.sleb128 395
 5281 0c15 0B       		.uleb128 0xb
 5282 0c16 D7280000 		.4byte	.LASF413
 5283 0c1a 8C03     		.sleb128 396
 5284 0c1c 0B       		.uleb128 0xb
 5285 0c1d 4A2C0000 		.4byte	.LASF414
 5286 0c21 8D03     		.sleb128 397
ARM GAS  C:\Users\AHMED~1.ELE\AppData\Local\Temp\ccpjtoUe.s 			page 125


 5287 0c23 0B       		.uleb128 0xb
 5288 0c24 E6000000 		.4byte	.LASF415
 5289 0c28 8E03     		.sleb128 398
 5290 0c2a 0B       		.uleb128 0xb
 5291 0c2b 971F0000 		.4byte	.LASF416
 5292 0c2f 8F03     		.sleb128 399
 5293 0c31 0B       		.uleb128 0xb
 5294 0c32 FF120000 		.4byte	.LASF417
 5295 0c36 9003     		.sleb128 400
 5296 0c38 0B       		.uleb128 0xb
 5297 0c39 7A2B0000 		.4byte	.LASF418
 5298 0c3d 9103     		.sleb128 401
 5299 0c3f 0B       		.uleb128 0xb
 5300 0c40 1A120000 		.4byte	.LASF419
 5301 0c44 9203     		.sleb128 402
 5302 0c46 0B       		.uleb128 0xb
 5303 0c47 AF1E0000 		.4byte	.LASF420
 5304 0c4b 9303     		.sleb128 403
 5305 0c4d 0B       		.uleb128 0xb
 5306 0c4e 6D220000 		.4byte	.LASF421
 5307 0c52 9403     		.sleb128 404
 5308 0c54 0B       		.uleb128 0xb
 5309 0c55 66060000 		.4byte	.LASF422
 5310 0c59 9503     		.sleb128 405
 5311 0c5b 0B       		.uleb128 0xb
 5312 0c5c 71260000 		.4byte	.LASF423
 5313 0c60 9603     		.sleb128 406
 5314 0c62 0B       		.uleb128 0xb
 5315 0c63 ED050000 		.4byte	.LASF424
 5316 0c67 9703     		.sleb128 407
 5317 0c69 0B       		.uleb128 0xb
 5318 0c6a 6C160000 		.4byte	.LASF425
 5319 0c6e 9803     		.sleb128 408
 5320 0c70 0B       		.uleb128 0xb
 5321 0c71 20200000 		.4byte	.LASF426
 5322 0c75 9903     		.sleb128 409
 5323 0c77 0B       		.uleb128 0xb
 5324 0c78 7D2E0000 		.4byte	.LASF427
 5325 0c7c 9A03     		.sleb128 410
 5326 0c7e 0B       		.uleb128 0xb
 5327 0c7f 72000000 		.4byte	.LASF428
 5328 0c83 9B03     		.sleb128 411
 5329 0c85 0B       		.uleb128 0xb
 5330 0c86 31180000 		.4byte	.LASF429
 5331 0c8a 9C03     		.sleb128 412
 5332 0c8c 0B       		.uleb128 0xb
 5333 0c8d 4D130000 		.4byte	.LASF430
 5334 0c91 9D03     		.sleb128 413
 5335 0c93 0B       		.uleb128 0xb
 5336 0c94 4E240000 		.4byte	.LASF431
 5337 0c98 9E03     		.sleb128 414
 5338 0c9a 0B       		.uleb128 0xb
 5339 0c9b 062B0000 		.4byte	.LASF432
 5340 0c9f 9F03     		.sleb128 415
 5341 0ca1 0B       		.uleb128 0xb
 5342 0ca2 010F0000 		.4byte	.LASF433
 5343 0ca6 A003     		.sleb128 416
ARM GAS  C:\Users\AHMED~1.ELE\AppData\Local\Temp\ccpjtoUe.s 			page 126


 5344 0ca8 0B       		.uleb128 0xb
 5345 0ca9 3C030000 		.4byte	.LASF434
 5346 0cad A103     		.sleb128 417
 5347 0caf 0B       		.uleb128 0xb
 5348 0cb0 FB0A0000 		.4byte	.LASF435
 5349 0cb4 A203     		.sleb128 418
 5350 0cb6 0B       		.uleb128 0xb
 5351 0cb7 4B0C0000 		.4byte	.LASF436
 5352 0cbb A303     		.sleb128 419
 5353 0cbd 0B       		.uleb128 0xb
 5354 0cbe 29030000 		.4byte	.LASF437
 5355 0cc2 A403     		.sleb128 420
 5356 0cc4 0B       		.uleb128 0xb
 5357 0cc5 1B1E0000 		.4byte	.LASF438
 5358 0cc9 A503     		.sleb128 421
 5359 0ccb 0B       		.uleb128 0xb
 5360 0ccc 1B2F0000 		.4byte	.LASF439
 5361 0cd0 A603     		.sleb128 422
 5362 0cd2 0B       		.uleb128 0xb
 5363 0cd3 21050000 		.4byte	.LASF440
 5364 0cd7 A703     		.sleb128 423
 5365 0cd9 0B       		.uleb128 0xb
 5366 0cda FB190000 		.4byte	.LASF441
 5367 0cde A803     		.sleb128 424
 5368 0ce0 0B       		.uleb128 0xb
 5369 0ce1 A0020000 		.4byte	.LASF442
 5370 0ce5 A903     		.sleb128 425
 5371 0ce7 0B       		.uleb128 0xb
 5372 0ce8 82070000 		.4byte	.LASF443
 5373 0cec AA03     		.sleb128 426
 5374 0cee 0B       		.uleb128 0xb
 5375 0cef AF320000 		.4byte	.LASF444
 5376 0cf3 AB03     		.sleb128 427
 5377 0cf5 0B       		.uleb128 0xb
 5378 0cf6 54220000 		.4byte	.LASF445
 5379 0cfa AC03     		.sleb128 428
 5380 0cfc 0B       		.uleb128 0xb
 5381 0cfd 9D120000 		.4byte	.LASF446
 5382 0d01 AD03     		.sleb128 429
 5383 0d03 0B       		.uleb128 0xb
 5384 0d04 EB1D0000 		.4byte	.LASF447
 5385 0d08 AE03     		.sleb128 430
 5386 0d0a 0B       		.uleb128 0xb
 5387 0d0b B3310000 		.4byte	.LASF448
 5388 0d0f AF03     		.sleb128 431
 5389 0d11 0B       		.uleb128 0xb
 5390 0d12 DC0E0000 		.4byte	.LASF449
 5391 0d16 B003     		.sleb128 432
 5392 0d18 0B       		.uleb128 0xb
 5393 0d19 EE070000 		.4byte	.LASF450
 5394 0d1d B103     		.sleb128 433
 5395 0d1f 0B       		.uleb128 0xb
 5396 0d20 001D0000 		.4byte	.LASF451
 5397 0d24 B203     		.sleb128 434
 5398 0d26 0B       		.uleb128 0xb
 5399 0d27 B6130000 		.4byte	.LASF452
 5400 0d2b B303     		.sleb128 435
ARM GAS  C:\Users\AHMED~1.ELE\AppData\Local\Temp\ccpjtoUe.s 			page 127


 5401 0d2d 0B       		.uleb128 0xb
 5402 0d2e 8C1D0000 		.4byte	.LASF453
 5403 0d32 B403     		.sleb128 436
 5404 0d34 0B       		.uleb128 0xb
 5405 0d35 CA070000 		.4byte	.LASF454
 5406 0d39 B503     		.sleb128 437
 5407 0d3b 0B       		.uleb128 0xb
 5408 0d3c BE0F0000 		.4byte	.LASF455
 5409 0d40 B603     		.sleb128 438
 5410 0d42 0B       		.uleb128 0xb
 5411 0d43 550C0000 		.4byte	.LASF456
 5412 0d47 B703     		.sleb128 439
 5413 0d49 0B       		.uleb128 0xb
 5414 0d4a 50100000 		.4byte	.LASF457
 5415 0d4e B803     		.sleb128 440
 5416 0d50 0B       		.uleb128 0xb
 5417 0d51 AD010000 		.4byte	.LASF458
 5418 0d55 B903     		.sleb128 441
 5419 0d57 0B       		.uleb128 0xb
 5420 0d58 B7260000 		.4byte	.LASF459
 5421 0d5c BA03     		.sleb128 442
 5422 0d5e 0B       		.uleb128 0xb
 5423 0d5f C71E0000 		.4byte	.LASF460
 5424 0d63 BB03     		.sleb128 443
 5425 0d65 0B       		.uleb128 0xb
 5426 0d66 27090000 		.4byte	.LASF461
 5427 0d6a BC03     		.sleb128 444
 5428 0d6c 0B       		.uleb128 0xb
 5429 0d6d AC200000 		.4byte	.LASF462
 5430 0d71 BD03     		.sleb128 445
 5431 0d73 0B       		.uleb128 0xb
 5432 0d74 E9170000 		.4byte	.LASF463
 5433 0d78 BE03     		.sleb128 446
 5434 0d7a 0B       		.uleb128 0xb
 5435 0d7b 60030000 		.4byte	.LASF464
 5436 0d7f BF03     		.sleb128 447
 5437 0d81 0B       		.uleb128 0xb
 5438 0d82 36100000 		.4byte	.LASF465
 5439 0d86 C003     		.sleb128 448
 5440 0d88 0B       		.uleb128 0xb
 5441 0d89 04250000 		.4byte	.LASF466
 5442 0d8d C103     		.sleb128 449
 5443 0d8f 0B       		.uleb128 0xb
 5444 0d90 F62B0000 		.4byte	.LASF467
 5445 0d94 C203     		.sleb128 450
 5446 0d96 0B       		.uleb128 0xb
 5447 0d97 5D2C0000 		.4byte	.LASF468
 5448 0d9b C303     		.sleb128 451
 5449 0d9d 0B       		.uleb128 0xb
 5450 0d9e F8040000 		.4byte	.LASF469
 5451 0da2 C403     		.sleb128 452
 5452 0da4 0B       		.uleb128 0xb
 5453 0da5 9D0D0000 		.4byte	.LASF470
 5454 0da9 C503     		.sleb128 453
 5455 0dab 0B       		.uleb128 0xb
 5456 0dac A92C0000 		.4byte	.LASF471
 5457 0db0 C603     		.sleb128 454
ARM GAS  C:\Users\AHMED~1.ELE\AppData\Local\Temp\ccpjtoUe.s 			page 128


 5458 0db2 0B       		.uleb128 0xb
 5459 0db3 E7150000 		.4byte	.LASF472
 5460 0db7 C703     		.sleb128 455
 5461 0db9 0B       		.uleb128 0xb
 5462 0dba A7300000 		.4byte	.LASF473
 5463 0dbe C803     		.sleb128 456
 5464 0dc0 0B       		.uleb128 0xb
 5465 0dc1 D00A0000 		.4byte	.LASF474
 5466 0dc5 C903     		.sleb128 457
 5467 0dc7 0B       		.uleb128 0xb
 5468 0dc8 781E0000 		.4byte	.LASF475
 5469 0dcc CA03     		.sleb128 458
 5470 0dce 0B       		.uleb128 0xb
 5471 0dcf 84230000 		.4byte	.LASF476
 5472 0dd3 CB03     		.sleb128 459
 5473 0dd5 0B       		.uleb128 0xb
 5474 0dd6 87180000 		.4byte	.LASF477
 5475 0dda CC03     		.sleb128 460
 5476 0ddc 0B       		.uleb128 0xb
 5477 0ddd 00040000 		.4byte	.LASF478
 5478 0de1 CD03     		.sleb128 461
 5479 0de3 0B       		.uleb128 0xb
 5480 0de4 2B000000 		.4byte	.LASF479
 5481 0de8 CE03     		.sleb128 462
 5482 0dea 0B       		.uleb128 0xb
 5483 0deb 09020000 		.4byte	.LASF480
 5484 0def CF03     		.sleb128 463
 5485 0df1 0B       		.uleb128 0xb
 5486 0df2 82140000 		.4byte	.LASF481
 5487 0df6 D003     		.sleb128 464
 5488 0df8 0B       		.uleb128 0xb
 5489 0df9 68150000 		.4byte	.LASF482
 5490 0dfd D103     		.sleb128 465
 5491 0dff 0B       		.uleb128 0xb
 5492 0e00 A22D0000 		.4byte	.LASF483
 5493 0e04 D203     		.sleb128 466
 5494 0e06 0B       		.uleb128 0xb
 5495 0e07 D2260000 		.4byte	.LASF484
 5496 0e0b D303     		.sleb128 467
 5497 0e0d 0B       		.uleb128 0xb
 5498 0e0e 82280000 		.4byte	.LASF485
 5499 0e12 D403     		.sleb128 468
 5500 0e14 0B       		.uleb128 0xb
 5501 0e15 71090000 		.4byte	.LASF486
 5502 0e19 D503     		.sleb128 469
 5503 0e1b 0B       		.uleb128 0xb
 5504 0e1c D5250000 		.4byte	.LASF487
 5505 0e20 D603     		.sleb128 470
 5506 0e22 0B       		.uleb128 0xb
 5507 0e23 35020000 		.4byte	.LASF488
 5508 0e27 D703     		.sleb128 471
 5509 0e29 0B       		.uleb128 0xb
 5510 0e2a 12220000 		.4byte	.LASF489
 5511 0e2e D803     		.sleb128 472
 5512 0e30 00       		.byte	0
 5513 0e31 0C       		.uleb128 0xc
 5514 0e32 10       		.byte	0x10
ARM GAS  C:\Users\AHMED~1.ELE\AppData\Local\Temp\ccpjtoUe.s 			page 129


 5515 0e33 04       		.byte	0x4
 5516 0e34 050B     		.2byte	0xb05
 5517 0e36 530E0000 		.4byte	0xe53
 5518 0e3a 0D       		.uleb128 0xd
 5519 0e3b 54160000 		.4byte	.LASF490
 5520 0e3f 04       		.byte	0x4
 5521 0e40 060B     		.2byte	0xb06
 5522 0e42 54010000 		.4byte	0x154
 5523 0e46 0D       		.uleb128 0xd
 5524 0e47 DC150000 		.4byte	.LASF491
 5525 0e4b 04       		.byte	0x4
 5526 0e4c 070B     		.2byte	0xb07
 5527 0e4e 44010000 		.4byte	0x144
 5528 0e52 00       		.byte	0
 5529 0e53 0E       		.uleb128 0xe
 5530 0e54 3C       		.byte	0x3c
 5531 0e55 04       		.byte	0x4
 5532 0e56 030B     		.2byte	0xb03
 5533 0e58 A40E0000 		.4byte	0xea4
 5534 0e5c 0F       		.uleb128 0xf
 5535 0e5d 4D080000 		.4byte	.LASF492
 5536 0e61 04       		.byte	0x4
 5537 0e62 040B     		.2byte	0xb04
 5538 0e64 64010000 		.4byte	0x164
 5539 0e68 00       		.byte	0
 5540 0e69 10       		.uleb128 0x10
 5541 0e6a 310E0000 		.4byte	0xe31
 5542 0e6e 14       		.byte	0x14
 5543 0e6f 0F       		.uleb128 0xf
 5544 0e70 F5280000 		.4byte	.LASF493
 5545 0e74 04       		.byte	0x4
 5546 0e75 090B     		.2byte	0xb09
 5547 0e77 B8000000 		.4byte	0xb8
 5548 0e7b 24       		.byte	0x24
 5549 0e7c 0F       		.uleb128 0xf
 5550 0e7d 291E0000 		.4byte	.LASF494
 5551 0e81 04       		.byte	0x4
 5552 0e82 0A0B     		.2byte	0xb0a
 5553 0e84 B8000000 		.4byte	0xb8
 5554 0e88 28       		.byte	0x28
 5555 0e89 0F       		.uleb128 0xf
 5556 0e8a 000D0000 		.4byte	.LASF495
 5557 0e8e 04       		.byte	0x4
 5558 0e8f 0B0B     		.2byte	0xb0b
 5559 0e91 A40E0000 		.4byte	0xea4
 5560 0e95 2C       		.byte	0x2c
 5561 0e96 0F       		.uleb128 0xf
 5562 0e97 B4250000 		.4byte	.LASF496
 5563 0e9b 04       		.byte	0x4
 5564 0e9c 0C0B     		.2byte	0xb0c
 5565 0e9e A40E0000 		.4byte	0xea4
 5566 0ea2 33       		.byte	0x33
 5567 0ea3 00       		.byte	0
 5568 0ea4 08       		.uleb128 0x8
 5569 0ea5 A2000000 		.4byte	0xa2
 5570 0ea9 B40E0000 		.4byte	0xeb4
 5571 0ead 09       		.uleb128 0x9
ARM GAS  C:\Users\AHMED~1.ELE\AppData\Local\Temp\ccpjtoUe.s 			page 130


 5572 0eae 78000000 		.4byte	0x78
 5573 0eb2 06       		.byte	0x6
 5574 0eb3 00       		.byte	0
 5575 0eb4 11       		.uleb128 0x11
 5576 0eb5 F2230000 		.4byte	.LASF497
 5577 0eb9 04       		.byte	0x4
 5578 0eba 0D0B     		.2byte	0xb0d
 5579 0ebc 530E0000 		.4byte	0xe53
 5580 0ec0 06       		.uleb128 0x6
 5581 0ec1 04       		.byte	0x4
 5582 0ec2 C60E0000 		.4byte	0xec6
 5583 0ec6 12       		.uleb128 0x12
 5584 0ec7 08       		.uleb128 0x8
 5585 0ec8 A2000000 		.4byte	0xa2
 5586 0ecc D70E0000 		.4byte	0xed7
 5587 0ed0 09       		.uleb128 0x9
 5588 0ed1 78000000 		.4byte	0x78
 5589 0ed5 05       		.byte	0x5
 5590 0ed6 00       		.byte	0
 5591 0ed7 08       		.uleb128 0x8
 5592 0ed8 85000000 		.4byte	0x85
 5593 0edc E70E0000 		.4byte	0xee7
 5594 0ee0 09       		.uleb128 0x9
 5595 0ee1 78000000 		.4byte	0x78
 5596 0ee5 20       		.byte	0x20
 5597 0ee6 00       		.byte	0
 5598 0ee7 13       		.uleb128 0x13
 5599 0ee8 02       		.byte	0x2
 5600 0ee9 04       		.byte	0x4
 5601 0eea DD18     		.2byte	0x18dd
 5602 0eec 100F0000 		.4byte	0xf10
 5603 0ef0 0B       		.uleb128 0xb
 5604 0ef1 E4120000 		.4byte	.LASF498
 5605 0ef5 00       		.sleb128 0
 5606 0ef6 0B       		.uleb128 0xb
 5607 0ef7 7C2A0000 		.4byte	.LASF499
 5608 0efb 01       		.sleb128 1
 5609 0efc 0B       		.uleb128 0xb
 5610 0efd 60300000 		.4byte	.LASF500
 5611 0f01 02       		.sleb128 2
 5612 0f02 0B       		.uleb128 0xb
 5613 0f03 AA040000 		.4byte	.LASF501
 5614 0f07 03       		.sleb128 3
 5615 0f08 0B       		.uleb128 0xb
 5616 0f09 3F0A0000 		.4byte	.LASF502
 5617 0f0d 8002     		.sleb128 256
 5618 0f0f 00       		.byte	0
 5619 0f10 13       		.uleb128 0x13
 5620 0f11 01       		.byte	0x1
 5621 0f12 05       		.byte	0x5
 5622 0f13 DC07     		.2byte	0x7dc
 5623 0f15 5E100000 		.4byte	0x105e
 5624 0f19 0B       		.uleb128 0xb
 5625 0f1a F2160000 		.4byte	.LASF503
 5626 0f1e 00       		.sleb128 0
 5627 0f1f 0B       		.uleb128 0xb
 5628 0f20 A2270000 		.4byte	.LASF504
ARM GAS  C:\Users\AHMED~1.ELE\AppData\Local\Temp\ccpjtoUe.s 			page 131


 5629 0f24 01       		.sleb128 1
 5630 0f25 0B       		.uleb128 0xb
 5631 0f26 4B030000 		.4byte	.LASF505
 5632 0f2a 02       		.sleb128 2
 5633 0f2b 0B       		.uleb128 0xb
 5634 0f2c AA060000 		.4byte	.LASF506
 5635 0f30 03       		.sleb128 3
 5636 0f31 0B       		.uleb128 0xb
 5637 0f32 CB320000 		.4byte	.LASF507
 5638 0f36 04       		.sleb128 4
 5639 0f37 0B       		.uleb128 0xb
 5640 0f38 110C0000 		.4byte	.LASF508
 5641 0f3c 05       		.sleb128 5
 5642 0f3d 0B       		.uleb128 0xb
 5643 0f3e A31C0000 		.4byte	.LASF509
 5644 0f42 06       		.sleb128 6
 5645 0f43 0B       		.uleb128 0xb
 5646 0f44 EF130000 		.4byte	.LASF510
 5647 0f48 07       		.sleb128 7
 5648 0f49 0B       		.uleb128 0xb
 5649 0f4a 8E0C0000 		.4byte	.LASF511
 5650 0f4e 08       		.sleb128 8
 5651 0f4f 0B       		.uleb128 0xb
 5652 0f50 07080000 		.4byte	.LASF512
 5653 0f54 09       		.sleb128 9
 5654 0f55 0B       		.uleb128 0xb
 5655 0f56 E4130000 		.4byte	.LASF513
 5656 0f5a 0A       		.sleb128 10
 5657 0f5b 0B       		.uleb128 0xb
 5658 0f5c B60A0000 		.4byte	.LASF514
 5659 0f60 0B       		.sleb128 11
 5660 0f61 0B       		.uleb128 0xb
 5661 0f62 3F1B0000 		.4byte	.LASF515
 5662 0f66 0C       		.sleb128 12
 5663 0f67 0B       		.uleb128 0xb
 5664 0f68 8A010000 		.4byte	.LASF516
 5665 0f6c 0D       		.sleb128 13
 5666 0f6d 0B       		.uleb128 0xb
 5667 0f6e FE070000 		.4byte	.LASF517
 5668 0f72 0E       		.sleb128 14
 5669 0f73 0B       		.uleb128 0xb
 5670 0f74 B9180000 		.4byte	.LASF518
 5671 0f78 0F       		.sleb128 15
 5672 0f79 0B       		.uleb128 0xb
 5673 0f7a A72F0000 		.4byte	.LASF519
 5674 0f7e 10       		.sleb128 16
 5675 0f7f 0B       		.uleb128 0xb
 5676 0f80 382D0000 		.4byte	.LASF520
 5677 0f84 11       		.sleb128 17
 5678 0f85 0B       		.uleb128 0xb
 5679 0f86 0E0D0000 		.4byte	.LASF521
 5680 0f8a 12       		.sleb128 18
 5681 0f8b 0B       		.uleb128 0xb
 5682 0f8c 75070000 		.4byte	.LASF522
 5683 0f90 13       		.sleb128 19
 5684 0f91 0B       		.uleb128 0xb
 5685 0f92 EC310000 		.4byte	.LASF523
ARM GAS  C:\Users\AHMED~1.ELE\AppData\Local\Temp\ccpjtoUe.s 			page 132


 5686 0f96 14       		.sleb128 20
 5687 0f97 0B       		.uleb128 0xb
 5688 0f98 1C0D0000 		.4byte	.LASF524
 5689 0f9c 15       		.sleb128 21
 5690 0f9d 0B       		.uleb128 0xb
 5691 0f9e 3F1A0000 		.4byte	.LASF525
 5692 0fa2 16       		.sleb128 22
 5693 0fa3 0B       		.uleb128 0xb
 5694 0fa4 9E110000 		.4byte	.LASF526
 5695 0fa8 17       		.sleb128 23
 5696 0fa9 0B       		.uleb128 0xb
 5697 0faa 051B0000 		.4byte	.LASF527
 5698 0fae 18       		.sleb128 24
 5699 0faf 0B       		.uleb128 0xb
 5700 0fb0 B7160000 		.4byte	.LASF528
 5701 0fb4 19       		.sleb128 25
 5702 0fb5 0B       		.uleb128 0xb
 5703 0fb6 D4220000 		.4byte	.LASF529
 5704 0fba 1A       		.sleb128 26
 5705 0fbb 0B       		.uleb128 0xb
 5706 0fbc 400C0000 		.4byte	.LASF530
 5707 0fc0 1B       		.sleb128 27
 5708 0fc1 0B       		.uleb128 0xb
 5709 0fc2 8C040000 		.4byte	.LASF531
 5710 0fc6 1C       		.sleb128 28
 5711 0fc7 0B       		.uleb128 0xb
 5712 0fc8 3A2F0000 		.4byte	.LASF532
 5713 0fcc 1D       		.sleb128 29
 5714 0fcd 0B       		.uleb128 0xb
 5715 0fce 6A0D0000 		.4byte	.LASF533
 5716 0fd2 1E       		.sleb128 30
 5717 0fd3 0B       		.uleb128 0xb
 5718 0fd4 52140000 		.4byte	.LASF534
 5719 0fd8 1F       		.sleb128 31
 5720 0fd9 0B       		.uleb128 0xb
 5721 0fda D2240000 		.4byte	.LASF535
 5722 0fde 20       		.sleb128 32
 5723 0fdf 0B       		.uleb128 0xb
 5724 0fe0 A3320000 		.4byte	.LASF536
 5725 0fe4 21       		.sleb128 33
 5726 0fe5 0B       		.uleb128 0xb
 5727 0fe6 A11A0000 		.4byte	.LASF537
 5728 0fea 22       		.sleb128 34
 5729 0feb 0B       		.uleb128 0xb
 5730 0fec CC0E0000 		.4byte	.LASF538
 5731 0ff0 23       		.sleb128 35
 5732 0ff1 0B       		.uleb128 0xb
 5733 0ff2 CF2F0000 		.4byte	.LASF539
 5734 0ff6 24       		.sleb128 36
 5735 0ff7 0B       		.uleb128 0xb
 5736 0ff8 B00B0000 		.4byte	.LASF540
 5737 0ffc 25       		.sleb128 37
 5738 0ffd 0B       		.uleb128 0xb
 5739 0ffe C0010000 		.4byte	.LASF541
 5740 1002 26       		.sleb128 38
 5741 1003 0B       		.uleb128 0xb
 5742 1004 2C2D0000 		.4byte	.LASF542
ARM GAS  C:\Users\AHMED~1.ELE\AppData\Local\Temp\ccpjtoUe.s 			page 133


 5743 1008 27       		.sleb128 39
 5744 1009 0B       		.uleb128 0xb
 5745 100a 6C1E0000 		.4byte	.LASF543
 5746 100e 28       		.sleb128 40
 5747 100f 0B       		.uleb128 0xb
 5748 1010 24220000 		.4byte	.LASF544
 5749 1014 29       		.sleb128 41
 5750 1015 0B       		.uleb128 0xb
 5751 1016 8C1F0000 		.4byte	.LASF545
 5752 101a 2A       		.sleb128 42
 5753 101b 0B       		.uleb128 0xb
 5754 101c 0E0E0000 		.4byte	.LASF546
 5755 1020 2B       		.sleb128 43
 5756 1021 0B       		.uleb128 0xb
 5757 1022 53260000 		.4byte	.LASF547
 5758 1026 2C       		.sleb128 44
 5759 1027 0B       		.uleb128 0xb
 5760 1028 39010000 		.4byte	.LASF548
 5761 102c 2D       		.sleb128 45
 5762 102d 0B       		.uleb128 0xb
 5763 102e DD010000 		.4byte	.LASF549
 5764 1032 2E       		.sleb128 46
 5765 1033 0B       		.uleb128 0xb
 5766 1034 4A180000 		.4byte	.LASF550
 5767 1038 2F       		.sleb128 47
 5768 1039 0B       		.uleb128 0xb
 5769 103a 741D0000 		.4byte	.LASF551
 5770 103e 30       		.sleb128 48
 5771 103f 0B       		.uleb128 0xb
 5772 1040 AC140000 		.4byte	.LASF552
 5773 1044 31       		.sleb128 49
 5774 1045 0B       		.uleb128 0xb
 5775 1046 AB260000 		.4byte	.LASF553
 5776 104a 32       		.sleb128 50
 5777 104b 0B       		.uleb128 0xb
 5778 104c B1030000 		.4byte	.LASF554
 5779 1050 33       		.sleb128 51
 5780 1051 0B       		.uleb128 0xb
 5781 1052 602E0000 		.4byte	.LASF555
 5782 1056 34       		.sleb128 52
 5783 1057 0B       		.uleb128 0xb
 5784 1058 DE240000 		.4byte	.LASF556
 5785 105c 35       		.sleb128 53
 5786 105d 00       		.byte	0
 5787 105e 14       		.uleb128 0x14
 5788 105f 01       		.byte	0x1
 5789 1060 06       		.byte	0x6
 5790 1061 FC       		.byte	0xfc
 5791 1062 79100000 		.4byte	0x1079
 5792 1066 0B       		.uleb128 0xb
 5793 1067 81260000 		.4byte	.LASF557
 5794 106b 00       		.sleb128 0
 5795 106c 0B       		.uleb128 0xb
 5796 106d 370C0000 		.4byte	.LASF558
 5797 1071 01       		.sleb128 1
 5798 1072 0B       		.uleb128 0xb
 5799 1073 17070000 		.4byte	.LASF559
ARM GAS  C:\Users\AHMED~1.ELE\AppData\Local\Temp\ccpjtoUe.s 			page 134


 5800 1077 02       		.sleb128 2
 5801 1078 00       		.byte	0
 5802 1079 08       		.uleb128 0x8
 5803 107a 85000000 		.4byte	0x85
 5804 107e 89100000 		.4byte	0x1089
 5805 1082 09       		.uleb128 0x9
 5806 1083 78000000 		.4byte	0x78
 5807 1087 7F       		.byte	0x7f
 5808 1088 00       		.byte	0
 5809 1089 08       		.uleb128 0x8
 5810 108a A2000000 		.4byte	0xa2
 5811 108e 99100000 		.4byte	0x1099
 5812 1092 09       		.uleb128 0x9
 5813 1093 78000000 		.4byte	0x78
 5814 1097 0B       		.byte	0xb
 5815 1098 00       		.byte	0
 5816 1099 08       		.uleb128 0x8
 5817 109a A2000000 		.4byte	0xa2
 5818 109e A9100000 		.4byte	0x10a9
 5819 10a2 09       		.uleb128 0x9
 5820 10a3 78000000 		.4byte	0x78
 5821 10a7 02       		.byte	0x2
 5822 10a8 00       		.byte	0
 5823 10a9 15       		.uleb128 0x15
 5824 10aa 111D0000 		.4byte	.LASF591
 5825 10ae 8801     		.2byte	0x188
 5826 10b0 06       		.byte	0x6
 5827 10b1 AC01     		.2byte	0x1ac
 5828 10b3 51120000 		.4byte	0x1251
 5829 10b7 0F       		.uleb128 0xf
 5830 10b8 E9060000 		.4byte	.LASF560
 5831 10bc 06       		.byte	0x6
 5832 10bd AD01     		.2byte	0x1ad
 5833 10bf A2000000 		.4byte	0xa2
 5834 10c3 00       		.byte	0
 5835 10c4 0F       		.uleb128 0xf
 5836 10c5 96150000 		.4byte	.LASF561
 5837 10c9 06       		.byte	0x6
 5838 10ca AE01     		.2byte	0x1ae
 5839 10cc A2000000 		.4byte	0xa2
 5840 10d0 01       		.byte	0x1
 5841 10d1 0F       		.uleb128 0xf
 5842 10d2 A4100000 		.4byte	.LASF562
 5843 10d6 06       		.byte	0x6
 5844 10d7 AF01     		.2byte	0x1af
 5845 10d9 A2000000 		.4byte	0xa2
 5846 10dd 02       		.byte	0x2
 5847 10de 0F       		.uleb128 0xf
 5848 10df AC100000 		.4byte	.LASF563
 5849 10e3 06       		.byte	0x6
 5850 10e4 B001     		.2byte	0x1b0
 5851 10e6 A2000000 		.4byte	0xa2
 5852 10ea 03       		.byte	0x3
 5853 10eb 0F       		.uleb128 0xf
 5854 10ec 3D180000 		.4byte	.LASF564
 5855 10f0 06       		.byte	0x6
 5856 10f1 B101     		.2byte	0x1b1
ARM GAS  C:\Users\AHMED~1.ELE\AppData\Local\Temp\ccpjtoUe.s 			page 135


 5857 10f3 C70E0000 		.4byte	0xec7
 5858 10f7 04       		.byte	0x4
 5859 10f8 0F       		.uleb128 0xf
 5860 10f9 DC0B0000 		.4byte	.LASF565
 5861 10fd 06       		.byte	0x6
 5862 10fe B201     		.2byte	0x1b2
 5863 1100 A2000000 		.4byte	0xa2
 5864 1104 0A       		.byte	0xa
 5865 1105 0F       		.uleb128 0xf
 5866 1106 7C080000 		.4byte	.LASF566
 5867 110a 06       		.byte	0x6
 5868 110b B301     		.2byte	0x1b3
 5869 110d CE000000 		.4byte	0xce
 5870 1111 0B       		.byte	0xb
 5871 1112 0F       		.uleb128 0xf
 5872 1113 E9110000 		.4byte	.LASF567
 5873 1117 06       		.byte	0x6
 5874 1118 B401     		.2byte	0x1b4
 5875 111a 89100000 		.4byte	0x1089
 5876 111e 0D       		.byte	0xd
 5877 111f 0F       		.uleb128 0xf
 5878 1120 D1090000 		.4byte	.LASF568
 5879 1124 06       		.byte	0x6
 5880 1125 B501     		.2byte	0x1b5
 5881 1127 E4000000 		.4byte	0xe4
 5882 112b 19       		.byte	0x19
 5883 112c 0F       		.uleb128 0xf
 5884 112d 962D0000 		.4byte	.LASF569
 5885 1131 06       		.byte	0x6
 5886 1132 B601     		.2byte	0x1b6
 5887 1134 51120000 		.4byte	0x1251
 5888 1138 1D       		.byte	0x1d
 5889 1139 0F       		.uleb128 0xf
 5890 113a 8D000000 		.4byte	.LASF570
 5891 113e 06       		.byte	0x6
 5892 113f B701     		.2byte	0x1b7
 5893 1141 61120000 		.4byte	0x1261
 5894 1145 4B       		.byte	0x4b
 5895 1146 0F       		.uleb128 0xf
 5896 1147 0C130000 		.4byte	.LASF571
 5897 114b 06       		.byte	0x6
 5898 114c B801     		.2byte	0x1b8
 5899 114e A2000000 		.4byte	0xa2
 5900 1152 62       		.byte	0x62
 5901 1153 0F       		.uleb128 0xf
 5902 1154 43010000 		.4byte	.LASF572
 5903 1158 06       		.byte	0x6
 5904 1159 B901     		.2byte	0x1b9
 5905 115b A2000000 		.4byte	0xa2
 5906 115f 63       		.byte	0x63
 5907 1160 0F       		.uleb128 0xf
 5908 1161 C3330000 		.4byte	.LASF573
 5909 1165 06       		.byte	0x6
 5910 1166 BA01     		.2byte	0x1ba
 5911 1168 A2000000 		.4byte	0xa2
 5912 116c 64       		.byte	0x64
 5913 116d 0F       		.uleb128 0xf
ARM GAS  C:\Users\AHMED~1.ELE\AppData\Local\Temp\ccpjtoUe.s 			page 136


 5914 116e B4100000 		.4byte	.LASF574
 5915 1172 06       		.byte	0x6
 5916 1173 BB01     		.2byte	0x1bb
 5917 1175 A2000000 		.4byte	0xa2
 5918 1179 65       		.byte	0x65
 5919 117a 0F       		.uleb128 0xf
 5920 117b 5F0B0000 		.4byte	.LASF575
 5921 117f 06       		.byte	0x6
 5922 1180 BC01     		.2byte	0x1bc
 5923 1182 A2000000 		.4byte	0xa2
 5924 1186 66       		.byte	0x66
 5925 1187 0F       		.uleb128 0xf
 5926 1188 54080000 		.4byte	.LASF576
 5927 118c 06       		.byte	0x6
 5928 118d BD01     		.2byte	0x1bd
 5929 118f 99100000 		.4byte	0x1099
 5930 1193 67       		.byte	0x67
 5931 1194 0F       		.uleb128 0xf
 5932 1195 F72A0000 		.4byte	.LASF577
 5933 1199 06       		.byte	0x6
 5934 119a BE01     		.2byte	0x1be
 5935 119c A2000000 		.4byte	0xa2
 5936 11a0 6A       		.byte	0x6a
 5937 11a1 0F       		.uleb128 0xf
 5938 11a2 FC0B0000 		.4byte	.LASF578
 5939 11a6 06       		.byte	0x6
 5940 11a7 BF01     		.2byte	0x1bf
 5941 11a9 64010000 		.4byte	0x164
 5942 11ad 6B       		.byte	0x6b
 5943 11ae 0F       		.uleb128 0xf
 5944 11af 910D0000 		.4byte	.LASF579
 5945 11b3 06       		.byte	0x6
 5946 11b4 C001     		.2byte	0x1c0
 5947 11b6 71120000 		.4byte	0x1271
 5948 11ba 7F       		.byte	0x7f
 5949 11bb 0F       		.uleb128 0xf
 5950 11bc F20C0000 		.4byte	.LASF580
 5951 11c0 06       		.byte	0x6
 5952 11c1 C101     		.2byte	0x1c1
 5953 11c3 34010000 		.4byte	0x134
 5954 11c7 9D       		.byte	0x9d
 5955 11c8 0F       		.uleb128 0xf
 5956 11c9 DC180000 		.4byte	.LASF581
 5957 11cd 06       		.byte	0x6
 5958 11ce C201     		.2byte	0x1c2
 5959 11d0 34010000 		.4byte	0x134
 5960 11d4 AD       		.byte	0xad
 5961 11d5 0F       		.uleb128 0xf
 5962 11d6 422E0000 		.4byte	.LASF582
 5963 11da 06       		.byte	0x6
 5964 11db C301     		.2byte	0x1c3
 5965 11dd 24010000 		.4byte	0x124
 5966 11e1 BD       		.byte	0xbd
 5967 11e2 0F       		.uleb128 0xf
 5968 11e3 E8180000 		.4byte	.LASF583
 5969 11e7 06       		.byte	0x6
 5970 11e8 C401     		.2byte	0x1c4
ARM GAS  C:\Users\AHMED~1.ELE\AppData\Local\Temp\ccpjtoUe.s 			page 137


 5971 11ea 24010000 		.4byte	0x124
 5972 11ee DD       		.byte	0xdd
 5973 11ef 0F       		.uleb128 0xf
 5974 11f0 F52F0000 		.4byte	.LASF584
 5975 11f4 06       		.byte	0x6
 5976 11f5 C501     		.2byte	0x1c5
 5977 11f7 24010000 		.4byte	0x124
 5978 11fb FD       		.byte	0xfd
 5979 11fc 16       		.uleb128 0x16
 5980 11fd CE300000 		.4byte	.LASF585
 5981 1201 06       		.byte	0x6
 5982 1202 C601     		.2byte	0x1c6
 5983 1204 24010000 		.4byte	0x124
 5984 1208 1D01     		.2byte	0x11d
 5985 120a 16       		.uleb128 0x16
 5986 120b 43270000 		.4byte	.LASF586
 5987 120f 06       		.byte	0x6
 5988 1210 C701     		.2byte	0x1c7
 5989 1212 24010000 		.4byte	0x124
 5990 1216 3D01     		.2byte	0x13d
 5991 1218 16       		.uleb128 0x16
 5992 1219 FC280000 		.4byte	.LASF587
 5993 121d 06       		.byte	0x6
 5994 121e C801     		.2byte	0x1c8
 5995 1220 24010000 		.4byte	0x124
 5996 1224 5D01     		.2byte	0x15d
 5997 1226 16       		.uleb128 0x16
 5998 1227 6E240000 		.4byte	.LASF588
 5999 122b 06       		.byte	0x6
 6000 122c C901     		.2byte	0x1c9
 6001 122e E4000000 		.4byte	0xe4
 6002 1232 7D01     		.2byte	0x17d
 6003 1234 16       		.uleb128 0x16
 6004 1235 83000000 		.4byte	.LASF589
 6005 1239 06       		.byte	0x6
 6006 123a CA01     		.2byte	0x1ca
 6007 123c CE000000 		.4byte	0xce
 6008 1240 8101     		.2byte	0x181
 6009 1242 16       		.uleb128 0x16
 6010 1243 4A310000 		.4byte	.LASF590
 6011 1247 06       		.byte	0x6
 6012 1248 CB01     		.2byte	0x1cb
 6013 124a AD000000 		.4byte	0xad
 6014 124e 8401     		.2byte	0x184
 6015 1250 00       		.byte	0
 6016 1251 08       		.uleb128 0x8
 6017 1252 A2000000 		.4byte	0xa2
 6018 1256 61120000 		.4byte	0x1261
 6019 125a 09       		.uleb128 0x9
 6020 125b 78000000 		.4byte	0x78
 6021 125f 2D       		.byte	0x2d
 6022 1260 00       		.byte	0
 6023 1261 08       		.uleb128 0x8
 6024 1262 A2000000 		.4byte	0xa2
 6025 1266 71120000 		.4byte	0x1271
 6026 126a 09       		.uleb128 0x9
 6027 126b 78000000 		.4byte	0x78
ARM GAS  C:\Users\AHMED~1.ELE\AppData\Local\Temp\ccpjtoUe.s 			page 138


 6028 126f 16       		.byte	0x16
 6029 1270 00       		.byte	0
 6030 1271 08       		.uleb128 0x8
 6031 1272 A2000000 		.4byte	0xa2
 6032 1276 81120000 		.4byte	0x1281
 6033 127a 09       		.uleb128 0x9
 6034 127b 78000000 		.4byte	0x78
 6035 127f 1D       		.byte	0x1d
 6036 1280 00       		.byte	0
 6037 1281 17       		.uleb128 0x17
 6038 1282 E11E0000 		.4byte	.LASF592
 6039 1286 24       		.byte	0x24
 6040 1287 06       		.byte	0x6
 6041 1288 CE01     		.2byte	0x1ce
 6042 128a EA120000 		.4byte	0x12ea
 6043 128e 0F       		.uleb128 0xf
 6044 128f 260C0000 		.4byte	.LASF593
 6045 1293 06       		.byte	0x6
 6046 1294 CF01     		.2byte	0x1cf
 6047 1296 EA120000 		.4byte	0x12ea
 6048 129a 00       		.byte	0
 6049 129b 0F       		.uleb128 0xf
 6050 129c A2190000 		.4byte	.LASF594
 6051 12a0 06       		.byte	0x6
 6052 12a1 D001     		.2byte	0x1d0
 6053 12a3 EA120000 		.4byte	0x12ea
 6054 12a7 05       		.byte	0x5
 6055 12a8 0F       		.uleb128 0xf
 6056 12a9 FD170000 		.4byte	.LASF595
 6057 12ad 06       		.byte	0x6
 6058 12ae D101     		.2byte	0x1d1
 6059 12b0 A2000000 		.4byte	0xa2
 6060 12b4 0A       		.byte	0xa
 6061 12b5 0F       		.uleb128 0xf
 6062 12b6 13050000 		.4byte	.LASF596
 6063 12ba 06       		.byte	0x6
 6064 12bb D201     		.2byte	0x1d2
 6065 12bd A2000000 		.4byte	0xa2
 6066 12c1 0B       		.byte	0xb
 6067 12c2 0F       		.uleb128 0xf
 6068 12c3 8C2D0000 		.4byte	.LASF597
 6069 12c7 06       		.byte	0x6
 6070 12c8 D301     		.2byte	0x1d3
 6071 12ca A2000000 		.4byte	0xa2
 6072 12ce 0C       		.byte	0xc
 6073 12cf 0F       		.uleb128 0xf
 6074 12d0 910D0000 		.4byte	.LASF579
 6075 12d4 06       		.byte	0x6
 6076 12d5 D401     		.2byte	0x1d4
 6077 12d7 64010000 		.4byte	0x164
 6078 12db 0D       		.byte	0xd
 6079 12dc 0F       		.uleb128 0xf
 6080 12dd 4A310000 		.4byte	.LASF590
 6081 12e1 06       		.byte	0x6
 6082 12e2 D501     		.2byte	0x1d5
 6083 12e4 AD000000 		.4byte	0xad
 6084 12e8 22       		.byte	0x22
ARM GAS  C:\Users\AHMED~1.ELE\AppData\Local\Temp\ccpjtoUe.s 			page 139


 6085 12e9 00       		.byte	0
 6086 12ea 08       		.uleb128 0x8
 6087 12eb A2000000 		.4byte	0xa2
 6088 12ef FA120000 		.4byte	0x12fa
 6089 12f3 09       		.uleb128 0x9
 6090 12f4 78000000 		.4byte	0x78
 6091 12f8 04       		.byte	0x4
 6092 12f9 00       		.byte	0
 6093 12fa 17       		.uleb128 0x17
 6094 12fb EF060000 		.4byte	.LASF598
 6095 12ff 38       		.byte	0x38
 6096 1300 06       		.byte	0x6
 6097 1301 D801     		.2byte	0x1d8
 6098 1303 7D130000 		.4byte	0x137d
 6099 1307 0F       		.uleb128 0xf
 6100 1308 980B0000 		.4byte	.LASF599
 6101 130c 06       		.byte	0x6
 6102 130d D901     		.2byte	0x1d9
 6103 130f A2000000 		.4byte	0xa2
 6104 1313 00       		.byte	0
 6105 1314 0F       		.uleb128 0xf
 6106 1315 29230000 		.4byte	.LASF600
 6107 1319 06       		.byte	0x6
 6108 131a DA01     		.2byte	0x1da
 6109 131c 14010000 		.4byte	0x114
 6110 1320 01       		.byte	0x1
 6111 1321 0F       		.uleb128 0xf
 6112 1322 88080000 		.4byte	.LASF601
 6113 1326 06       		.byte	0x6
 6114 1327 DB01     		.2byte	0x1db
 6115 1329 89100000 		.4byte	0x1089
 6116 132d 0B       		.byte	0xb
 6117 132e 0F       		.uleb128 0xf
 6118 132f D1090000 		.4byte	.LASF568
 6119 1333 06       		.byte	0x6
 6120 1334 DC01     		.2byte	0x1dc
 6121 1336 E4000000 		.4byte	0xe4
 6122 133a 17       		.byte	0x17
 6123 133b 0F       		.uleb128 0xf
 6124 133c 340F0000 		.4byte	.LASF602
 6125 1340 06       		.byte	0x6
 6126 1341 DD01     		.2byte	0x1dd
 6127 1343 A2000000 		.4byte	0xa2
 6128 1347 1B       		.byte	0x1b
 6129 1348 0F       		.uleb128 0xf
 6130 1349 45000000 		.4byte	.LASF603
 6131 134d 06       		.byte	0x6
 6132 134e DE01     		.2byte	0x1de
 6133 1350 CE000000 		.4byte	0xce
 6134 1354 1C       		.byte	0x1c
 6135 1355 0F       		.uleb128 0xf
 6136 1356 94320000 		.4byte	.LASF604
 6137 135a 06       		.byte	0x6
 6138 135b DF01     		.2byte	0x1df
 6139 135d CE000000 		.4byte	0xce
 6140 1361 1E       		.byte	0x1e
 6141 1362 0F       		.uleb128 0xf
ARM GAS  C:\Users\AHMED~1.ELE\AppData\Local\Temp\ccpjtoUe.s 			page 140


 6142 1363 910D0000 		.4byte	.LASF579
 6143 1367 06       		.byte	0x6
 6144 1368 E001     		.2byte	0x1e0
 6145 136a 64010000 		.4byte	0x164
 6146 136e 20       		.byte	0x20
 6147 136f 0F       		.uleb128 0xf
 6148 1370 4A310000 		.4byte	.LASF590
 6149 1374 06       		.byte	0x6
 6150 1375 E101     		.2byte	0x1e1
 6151 1377 AD000000 		.4byte	0xad
 6152 137b 34       		.byte	0x34
 6153 137c 00       		.byte	0
 6154 137d 17       		.uleb128 0x17
 6155 137e EA1C0000 		.4byte	.LASF605
 6156 1382 AC       		.byte	0xac
 6157 1383 06       		.byte	0x6
 6158 1384 EC01     		.2byte	0x1ec
 6159 1386 45150000 		.4byte	0x1545
 6160 138a 0F       		.uleb128 0xf
 6161 138b 980B0000 		.4byte	.LASF599
 6162 138f 06       		.byte	0x6
 6163 1390 ED01     		.2byte	0x1ed
 6164 1392 A2000000 		.4byte	0xa2
 6165 1396 00       		.byte	0
 6166 1397 0F       		.uleb128 0xf
 6167 1398 46150000 		.4byte	.LASF606
 6168 139c 06       		.byte	0x6
 6169 139d EE01     		.2byte	0x1ee
 6170 139f 14010000 		.4byte	0x114
 6171 13a3 01       		.byte	0x1
 6172 13a4 0F       		.uleb128 0xf
 6173 13a5 CC080000 		.4byte	.LASF607
 6174 13a9 06       		.byte	0x6
 6175 13aa EF01     		.2byte	0x1ef
 6176 13ac 14010000 		.4byte	0x114
 6177 13b0 0B       		.byte	0xb
 6178 13b1 0F       		.uleb128 0xf
 6179 13b2 1E140000 		.4byte	.LASF608
 6180 13b6 06       		.byte	0x6
 6181 13b7 F001     		.2byte	0x1f0
 6182 13b9 89100000 		.4byte	0x1089
 6183 13bd 15       		.byte	0x15
 6184 13be 0F       		.uleb128 0xf
 6185 13bf 9D0F0000 		.4byte	.LASF609
 6186 13c3 06       		.byte	0x6
 6187 13c4 F101     		.2byte	0x1f1
 6188 13c6 A2000000 		.4byte	0xa2
 6189 13ca 21       		.byte	0x21
 6190 13cb 0F       		.uleb128 0xf
 6191 13cc C41D0000 		.4byte	.LASF610
 6192 13d0 06       		.byte	0x6
 6193 13d1 F201     		.2byte	0x1f2
 6194 13d3 A2000000 		.4byte	0xa2
 6195 13d7 22       		.byte	0x22
 6196 13d8 0F       		.uleb128 0xf
 6197 13d9 F5180000 		.4byte	.LASF611
 6198 13dd 06       		.byte	0x6
ARM GAS  C:\Users\AHMED~1.ELE\AppData\Local\Temp\ccpjtoUe.s 			page 141


 6199 13de F301     		.2byte	0x1f3
 6200 13e0 89100000 		.4byte	0x1089
 6201 13e4 23       		.byte	0x23
 6202 13e5 0F       		.uleb128 0xf
 6203 13e6 65310000 		.4byte	.LASF612
 6204 13ea 06       		.byte	0x6
 6205 13eb F401     		.2byte	0x1f4
 6206 13ed A2000000 		.4byte	0xa2
 6207 13f1 2F       		.byte	0x2f
 6208 13f2 0F       		.uleb128 0xf
 6209 13f3 2B280000 		.4byte	.LASF613
 6210 13f7 06       		.byte	0x6
 6211 13f8 F501     		.2byte	0x1f5
 6212 13fa A2000000 		.4byte	0xa2
 6213 13fe 30       		.byte	0x30
 6214 13ff 0F       		.uleb128 0xf
 6215 1400 972C0000 		.4byte	.LASF614
 6216 1404 06       		.byte	0x6
 6217 1405 F601     		.2byte	0x1f6
 6218 1407 89100000 		.4byte	0x1089
 6219 140b 31       		.byte	0x31
 6220 140c 0F       		.uleb128 0xf
 6221 140d 36230000 		.4byte	.LASF615
 6222 1411 06       		.byte	0x6
 6223 1412 F701     		.2byte	0x1f7
 6224 1414 A2000000 		.4byte	0xa2
 6225 1418 3D       		.byte	0x3d
 6226 1419 0F       		.uleb128 0xf
 6227 141a 80300000 		.4byte	.LASF616
 6228 141e 06       		.byte	0x6
 6229 141f F801     		.2byte	0x1f8
 6230 1421 A2000000 		.4byte	0xa2
 6231 1425 3E       		.byte	0x3e
 6232 1426 0F       		.uleb128 0xf
 6233 1427 382C0000 		.4byte	.LASF617
 6234 142b 06       		.byte	0x6
 6235 142c F901     		.2byte	0x1f9
 6236 142e 89100000 		.4byte	0x1089
 6237 1432 3F       		.byte	0x3f
 6238 1433 0F       		.uleb128 0xf
 6239 1434 810E0000 		.4byte	.LASF618
 6240 1438 06       		.byte	0x6
 6241 1439 FA01     		.2byte	0x1fa
 6242 143b A2000000 		.4byte	0xa2
 6243 143f 4B       		.byte	0x4b
 6244 1440 0F       		.uleb128 0xf
 6245 1441 5A250000 		.4byte	.LASF619
 6246 1445 06       		.byte	0x6
 6247 1446 FB01     		.2byte	0x1fb
 6248 1448 A2000000 		.4byte	0xa2
 6249 144c 4C       		.byte	0x4c
 6250 144d 0F       		.uleb128 0xf
 6251 144e 7D0C0000 		.4byte	.LASF620
 6252 1452 06       		.byte	0x6
 6253 1453 FC01     		.2byte	0x1fc
 6254 1455 A2000000 		.4byte	0xa2
 6255 1459 4D       		.byte	0x4d
ARM GAS  C:\Users\AHMED~1.ELE\AppData\Local\Temp\ccpjtoUe.s 			page 142


 6256 145a 0F       		.uleb128 0xf
 6257 145b D1090000 		.4byte	.LASF568
 6258 145f 06       		.byte	0x6
 6259 1460 FD01     		.2byte	0x1fd
 6260 1462 E4000000 		.4byte	0xe4
 6261 1466 4E       		.byte	0x4e
 6262 1467 0F       		.uleb128 0xf
 6263 1468 D81F0000 		.4byte	.LASF621
 6264 146c 06       		.byte	0x6
 6265 146d FE01     		.2byte	0x1fe
 6266 146f CE000000 		.4byte	0xce
 6267 1473 52       		.byte	0x52
 6268 1474 0F       		.uleb128 0xf
 6269 1475 32330000 		.4byte	.LASF622
 6270 1479 06       		.byte	0x6
 6271 147a FF01     		.2byte	0x1ff
 6272 147c 44010000 		.4byte	0x144
 6273 1480 54       		.byte	0x54
 6274 1481 0F       		.uleb128 0xf
 6275 1482 A2030000 		.4byte	.LASF623
 6276 1486 06       		.byte	0x6
 6277 1487 0002     		.2byte	0x200
 6278 1489 45150000 		.4byte	0x1545
 6279 148d 5C       		.byte	0x5c
 6280 148e 0F       		.uleb128 0xf
 6281 148f A5280000 		.4byte	.LASF624
 6282 1493 06       		.byte	0x6
 6283 1494 0102     		.2byte	0x201
 6284 1496 A2000000 		.4byte	0xa2
 6285 149a 6B       		.byte	0x6b
 6286 149b 0F       		.uleb128 0xf
 6287 149c 07320000 		.4byte	.LASF625
 6288 14a0 06       		.byte	0x6
 6289 14a1 0202     		.2byte	0x202
 6290 14a3 99100000 		.4byte	0x1099
 6291 14a7 6C       		.byte	0x6c
 6292 14a8 0F       		.uleb128 0xf
 6293 14a9 51040000 		.4byte	.LASF626
 6294 14ad 06       		.byte	0x6
 6295 14ae 0302     		.2byte	0x203
 6296 14b0 99100000 		.4byte	0x1099
 6297 14b4 6F       		.byte	0x6f
 6298 14b5 0F       		.uleb128 0xf
 6299 14b6 14010000 		.4byte	.LASF627
 6300 14ba 06       		.byte	0x6
 6301 14bb 0402     		.2byte	0x204
 6302 14bd 61120000 		.4byte	0x1261
 6303 14c1 72       		.byte	0x72
 6304 14c2 0F       		.uleb128 0xf
 6305 14c3 8A260000 		.4byte	.LASF628
 6306 14c7 06       		.byte	0x6
 6307 14c8 0502     		.2byte	0x205
 6308 14ca A2000000 		.4byte	0xa2
 6309 14ce 89       		.byte	0x89
 6310 14cf 0F       		.uleb128 0xf
 6311 14d0 910D0000 		.4byte	.LASF579
 6312 14d4 06       		.byte	0x6
ARM GAS  C:\Users\AHMED~1.ELE\AppData\Local\Temp\ccpjtoUe.s 			page 143


 6313 14d5 0602     		.2byte	0x206
 6314 14d7 55150000 		.4byte	0x1555
 6315 14db 8A       		.byte	0x8a
 6316 14dc 0F       		.uleb128 0xf
 6317 14dd 9F090000 		.4byte	.LASF629
 6318 14e1 06       		.byte	0x6
 6319 14e2 0702     		.2byte	0x207
 6320 14e4 A2000000 		.4byte	0xa2
 6321 14e8 9F       		.byte	0x9f
 6322 14e9 0F       		.uleb128 0xf
 6323 14ea EA2B0000 		.4byte	.LASF630
 6324 14ee 06       		.byte	0x6
 6325 14ef 0802     		.2byte	0x208
 6326 14f1 A2000000 		.4byte	0xa2
 6327 14f5 A0       		.byte	0xa0
 6328 14f6 0F       		.uleb128 0xf
 6329 14f7 C5120000 		.4byte	.LASF631
 6330 14fb 06       		.byte	0x6
 6331 14fc 0902     		.2byte	0x209
 6332 14fe A2000000 		.4byte	0xa2
 6333 1502 A1       		.byte	0xa1
 6334 1503 0F       		.uleb128 0xf
 6335 1504 C7020000 		.4byte	.LASF632
 6336 1508 06       		.byte	0x6
 6337 1509 0A02     		.2byte	0x20a
 6338 150b E4000000 		.4byte	0xe4
 6339 150f A2       		.byte	0xa2
 6340 1510 0F       		.uleb128 0xf
 6341 1511 13090000 		.4byte	.LASF633
 6342 1515 06       		.byte	0x6
 6343 1516 0B02     		.2byte	0x20b
 6344 1518 CE000000 		.4byte	0xce
 6345 151c A6       		.byte	0xa6
 6346 151d 0F       		.uleb128 0xf
 6347 151e B1000000 		.4byte	.LASF634
 6348 1522 06       		.byte	0x6
 6349 1523 0C02     		.2byte	0x20c
 6350 1525 A2000000 		.4byte	0xa2
 6351 1529 A8       		.byte	0xa8
 6352 152a 0F       		.uleb128 0xf
 6353 152b 97010000 		.4byte	.LASF635
 6354 152f 06       		.byte	0x6
 6355 1530 0D02     		.2byte	0x20d
 6356 1532 A2000000 		.4byte	0xa2
 6357 1536 A9       		.byte	0xa9
 6358 1537 0F       		.uleb128 0xf
 6359 1538 4A310000 		.4byte	.LASF590
 6360 153c 06       		.byte	0x6
 6361 153d 0E02     		.2byte	0x20e
 6362 153f AD000000 		.4byte	0xad
 6363 1543 AA       		.byte	0xaa
 6364 1544 00       		.byte	0
 6365 1545 08       		.uleb128 0x8
 6366 1546 A2000000 		.4byte	0xa2
 6367 154a 55150000 		.4byte	0x1555
 6368 154e 09       		.uleb128 0x9
 6369 154f 78000000 		.4byte	0x78
ARM GAS  C:\Users\AHMED~1.ELE\AppData\Local\Temp\ccpjtoUe.s 			page 144


 6370 1553 0E       		.byte	0xe
 6371 1554 00       		.byte	0
 6372 1555 08       		.uleb128 0x8
 6373 1556 A2000000 		.4byte	0xa2
 6374 155a 65150000 		.4byte	0x1565
 6375 155e 09       		.uleb128 0x9
 6376 155f 78000000 		.4byte	0x78
 6377 1563 14       		.byte	0x14
 6378 1564 00       		.byte	0
 6379 1565 18       		.uleb128 0x18
 6380 1566 0801     		.2byte	0x108
 6381 1568 07       		.byte	0x7
 6382 1569 B6       		.byte	0xb6
 6383 156a 93150000 		.4byte	0x1593
 6384 156e 19       		.uleb128 0x19
 6385 156f F7030000 		.4byte	.LASF636
 6386 1573 07       		.byte	0x7
 6387 1574 B7       		.byte	0xb7
 6388 1575 B8000000 		.4byte	0xb8
 6389 1579 00       		.byte	0
 6390 157a 19       		.uleb128 0x19
 6391 157b F6300000 		.4byte	.LASF637
 6392 157f 07       		.byte	0x7
 6393 1580 B8       		.byte	0xb8
 6394 1581 B8000000 		.4byte	0xb8
 6395 1585 04       		.byte	0x4
 6396 1586 1A       		.uleb128 0x1a
 6397 1587 4B657900 		.ascii	"Key\000"
 6398 158b 07       		.byte	0x7
 6399 158c B9       		.byte	0xb9
 6400 158d 04010000 		.4byte	0x104
 6401 1591 08       		.byte	0x8
 6402 1592 00       		.byte	0
 6403 1593 04       		.uleb128 0x4
 6404 1594 C2110000 		.4byte	.LASF638
 6405 1598 07       		.byte	0x7
 6406 1599 BA       		.byte	0xba
 6407 159a 65150000 		.4byte	0x1565
 6408 159e 18       		.uleb128 0x18
 6409 159f 1801     		.2byte	0x118
 6410 15a1 07       		.byte	0x7
 6411 15a2 BC       		.byte	0xbc
 6412 15a3 F3150000 		.4byte	0x15f3
 6413 15a7 19       		.uleb128 0x19
 6414 15a8 0E2A0000 		.4byte	.LASF639
 6415 15ac 07       		.byte	0x7
 6416 15ad BD       		.byte	0xbd
 6417 15ae A2000000 		.4byte	0xa2
 6418 15b2 00       		.byte	0
 6419 15b3 1A       		.uleb128 0x1a
 6420 15b4 52494400 		.ascii	"RID\000"
 6421 15b8 07       		.byte	0x7
 6422 15b9 BE       		.byte	0xbe
 6423 15ba EA120000 		.4byte	0x12ea
 6424 15be 01       		.byte	0x1
 6425 15bf 19       		.uleb128 0x19
 6426 15c0 D1280000 		.4byte	.LASF640
ARM GAS  C:\Users\AHMED~1.ELE\AppData\Local\Temp\ccpjtoUe.s 			page 145


 6427 15c4 07       		.byte	0x7
 6428 15c5 BF       		.byte	0xbf
 6429 15c6 93150000 		.4byte	0x1593
 6430 15ca 08       		.byte	0x8
 6431 15cb 1B       		.uleb128 0x1b
 6432 15cc 2E300000 		.4byte	.LASF641
 6433 15d0 07       		.byte	0x7
 6434 15d1 C0       		.byte	0xc0
 6435 15d2 AD000000 		.4byte	0xad
 6436 15d6 1001     		.2byte	0x110
 6437 15d8 1B       		.uleb128 0x1b
 6438 15d9 C0320000 		.4byte	.LASF642
 6439 15dd 07       		.byte	0x7
 6440 15de C1       		.byte	0xc1
 6441 15df AD000000 		.4byte	0xad
 6442 15e3 1201     		.2byte	0x112
 6443 15e5 1B       		.uleb128 0x1b
 6444 15e6 28260000 		.4byte	.LASF643
 6445 15ea 07       		.byte	0x7
 6446 15eb C2       		.byte	0xc2
 6447 15ec AD000000 		.4byte	0xad
 6448 15f0 1401     		.2byte	0x114
 6449 15f2 00       		.byte	0
 6450 15f3 04       		.uleb128 0x4
 6451 15f4 8B330000 		.4byte	.LASF644
 6452 15f8 07       		.byte	0x7
 6453 15f9 C3       		.byte	0xc3
 6454 15fa 9E150000 		.4byte	0x159e
 6455 15fe 18       		.uleb128 0x18
 6456 15ff 1702     		.2byte	0x217
 6457 1601 07       		.byte	0x7
 6458 1602 ED       		.byte	0xed
 6459 1603 74160000 		.4byte	0x1674
 6460 1607 19       		.uleb128 0x19
 6461 1608 B1160000 		.4byte	.LASF645
 6462 160c 07       		.byte	0x7
 6463 160d EE       		.byte	0xee
 6464 160e A2000000 		.4byte	0xa2
 6465 1612 00       		.byte	0
 6466 1613 19       		.uleb128 0x19
 6467 1614 351B0000 		.4byte	.LASF646
 6468 1618 07       		.byte	0x7
 6469 1619 EF       		.byte	0xef
 6470 161a A2000000 		.4byte	0xa2
 6471 161e 01       		.byte	0x1
 6472 161f 19       		.uleb128 0x19
 6473 1620 2E250000 		.4byte	.LASF647
 6474 1624 07       		.byte	0x7
 6475 1625 F0       		.byte	0xf0
 6476 1626 B8000000 		.4byte	0xb8
 6477 162a 02       		.byte	0x2
 6478 162b 19       		.uleb128 0x19
 6479 162c 3D330000 		.4byte	.LASF648
 6480 1630 07       		.byte	0x7
 6481 1631 F1       		.byte	0xf1
 6482 1632 A2000000 		.4byte	0xa2
 6483 1636 06       		.byte	0x6
ARM GAS  C:\Users\AHMED~1.ELE\AppData\Local\Temp\ccpjtoUe.s 			page 146


 6484 1637 19       		.uleb128 0x19
 6485 1638 102E0000 		.4byte	.LASF649
 6486 163c 07       		.byte	0x7
 6487 163d F2       		.byte	0xf2
 6488 163e A2000000 		.4byte	0xa2
 6489 1642 07       		.byte	0x7
 6490 1643 19       		.uleb128 0x19
 6491 1644 B30F0000 		.4byte	.LASF650
 6492 1648 07       		.byte	0x7
 6493 1649 F3       		.byte	0xf3
 6494 164a EA120000 		.4byte	0x12ea
 6495 164e 08       		.byte	0x8
 6496 164f 19       		.uleb128 0x19
 6497 1650 AC020000 		.4byte	.LASF651
 6498 1654 07       		.byte	0x7
 6499 1655 F4       		.byte	0xf4
 6500 1656 EA120000 		.4byte	0x12ea
 6501 165a 0D       		.byte	0xd
 6502 165b 19       		.uleb128 0x19
 6503 165c 30110000 		.4byte	.LASF652
 6504 1660 07       		.byte	0x7
 6505 1661 F5       		.byte	0xf5
 6506 1662 EA120000 		.4byte	0x12ea
 6507 1666 12       		.byte	0x12
 6508 1667 19       		.uleb128 0x19
 6509 1668 771F0000 		.4byte	.LASF653
 6510 166c 07       		.byte	0x7
 6511 166d F6       		.byte	0xf6
 6512 166e 74160000 		.4byte	0x1674
 6513 1672 17       		.byte	0x17
 6514 1673 00       		.byte	0
 6515 1674 08       		.uleb128 0x8
 6516 1675 A2000000 		.4byte	0xa2
 6517 1679 85160000 		.4byte	0x1685
 6518 167d 1C       		.uleb128 0x1c
 6519 167e 78000000 		.4byte	0x78
 6520 1682 FF01     		.2byte	0x1ff
 6521 1684 00       		.byte	0
 6522 1685 04       		.uleb128 0x4
 6523 1686 E2030000 		.4byte	.LASF654
 6524 168a 07       		.byte	0x7
 6525 168b F7       		.byte	0xf7
 6526 168c FE150000 		.4byte	0x15fe
 6527 1690 1D       		.uleb128 0x1d
 6528 1691 1702     		.2byte	0x217
 6529 1693 08       		.byte	0x8
 6530 1694 6201     		.2byte	0x162
 6531 1696 10170000 		.4byte	0x1710
 6532 169a 0F       		.uleb128 0xf
 6533 169b B71C0000 		.4byte	.LASF655
 6534 169f 08       		.byte	0x8
 6535 16a0 6301     		.2byte	0x163
 6536 16a2 A2000000 		.4byte	0xa2
 6537 16a6 00       		.byte	0
 6538 16a7 0F       		.uleb128 0xf
 6539 16a8 26110000 		.4byte	.LASF656
 6540 16ac 08       		.byte	0x8
ARM GAS  C:\Users\AHMED~1.ELE\AppData\Local\Temp\ccpjtoUe.s 			page 147


 6541 16ad 6401     		.2byte	0x164
 6542 16af A2000000 		.4byte	0xa2
 6543 16b3 01       		.byte	0x1
 6544 16b4 0F       		.uleb128 0xf
 6545 16b5 182E0000 		.4byte	.LASF657
 6546 16b9 08       		.byte	0x8
 6547 16ba 6501     		.2byte	0x165
 6548 16bc B8000000 		.4byte	0xb8
 6549 16c0 02       		.byte	0x2
 6550 16c1 0F       		.uleb128 0xf
 6551 16c2 3E280000 		.4byte	.LASF658
 6552 16c6 08       		.byte	0x8
 6553 16c7 6601     		.2byte	0x166
 6554 16c9 A2000000 		.4byte	0xa2
 6555 16cd 06       		.byte	0x6
 6556 16ce 0F       		.uleb128 0xf
 6557 16cf CA260000 		.4byte	.LASF659
 6558 16d3 08       		.byte	0x8
 6559 16d4 6701     		.2byte	0x167
 6560 16d6 A2000000 		.4byte	0xa2
 6561 16da 07       		.byte	0x7
 6562 16db 0F       		.uleb128 0xf
 6563 16dc AB1C0000 		.4byte	.LASF660
 6564 16e0 08       		.byte	0x8
 6565 16e1 6801     		.2byte	0x168
 6566 16e3 EA120000 		.4byte	0x12ea
 6567 16e7 08       		.byte	0x8
 6568 16e8 0F       		.uleb128 0xf
 6569 16e9 19210000 		.4byte	.LASF661
 6570 16ed 08       		.byte	0x8
 6571 16ee 6901     		.2byte	0x169
 6572 16f0 EA120000 		.4byte	0x12ea
 6573 16f4 0D       		.byte	0xd
 6574 16f5 0F       		.uleb128 0xf
 6575 16f6 A5290000 		.4byte	.LASF662
 6576 16fa 08       		.byte	0x8
 6577 16fb 6A01     		.2byte	0x16a
 6578 16fd EA120000 		.4byte	0x12ea
 6579 1701 12       		.byte	0x12
 6580 1702 0F       		.uleb128 0xf
 6581 1703 9B230000 		.4byte	.LASF663
 6582 1707 08       		.byte	0x8
 6583 1708 6B01     		.2byte	0x16b
 6584 170a 74160000 		.4byte	0x1674
 6585 170e 17       		.byte	0x17
 6586 170f 00       		.byte	0
 6587 1710 11       		.uleb128 0x11
 6588 1711 B21D0000 		.4byte	.LASF664
 6589 1715 08       		.byte	0x8
 6590 1716 6C01     		.2byte	0x16c
 6591 1718 90160000 		.4byte	0x1690
 6592 171c 1E       		.uleb128 0x1e
 6593 171d 2E320000 		.4byte	.LASF666
 6594 1721 01       		.byte	0x1
 6595 1722 09       		.byte	0x9
 6596 1723 57       		.byte	0x57
 6597 1724 53170000 		.4byte	0x1753
ARM GAS  C:\Users\AHMED~1.ELE\AppData\Local\Temp\ccpjtoUe.s 			page 148


 6598 1728 0B       		.uleb128 0xb
 6599 1729 C3210000 		.4byte	.LASF667
 6600 172d 7F       		.sleb128 -1
 6601 172e 0B       		.uleb128 0xb
 6602 172f 191F0000 		.4byte	.LASF668
 6603 1733 00       		.sleb128 0
 6604 1734 0B       		.uleb128 0xb
 6605 1735 EA030000 		.4byte	.LASF669
 6606 1739 01       		.sleb128 1
 6607 173a 0B       		.uleb128 0xb
 6608 173b D5310000 		.4byte	.LASF670
 6609 173f 02       		.sleb128 2
 6610 1740 0B       		.uleb128 0xb
 6611 1741 EF250000 		.4byte	.LASF671
 6612 1745 03       		.sleb128 3
 6613 1746 0B       		.uleb128 0xb
 6614 1747 351A0000 		.4byte	.LASF672
 6615 174b 04       		.sleb128 4
 6616 174c 0B       		.uleb128 0xb
 6617 174d C1000000 		.4byte	.LASF673
 6618 1751 05       		.sleb128 5
 6619 1752 00       		.byte	0
 6620 1753 04       		.uleb128 0x4
 6621 1754 78320000 		.4byte	.LASF674
 6622 1758 09       		.byte	0x9
 6623 1759 60       		.byte	0x60
 6624 175a 1C170000 		.4byte	0x171c
 6625 175e 04       		.uleb128 0x4
 6626 175f BC1B0000 		.4byte	.LASF675
 6627 1763 09       		.byte	0x9
 6628 1764 62       		.byte	0x62
 6629 1765 69170000 		.4byte	0x1769
 6630 1769 06       		.uleb128 0x6
 6631 176a 04       		.byte	0x4
 6632 176b 6F170000 		.4byte	0x176f
 6633 176f 1F       		.uleb128 0x1f
 6634 1770 7A170000 		.4byte	0x177a
 6635 1774 20       		.uleb128 0x20
 6636 1775 76000000 		.4byte	0x76
 6637 1779 00       		.byte	0
 6638 177a 21       		.uleb128 0x21
 6639 177b AD270000 		.4byte	.LASF676
 6640 177f 08       		.byte	0x8
 6641 1780 09       		.byte	0x9
 6642 1781 68       		.byte	0x68
 6643 1782 9F170000 		.4byte	0x179f
 6644 1786 19       		.uleb128 0x19
 6645 1787 5F290000 		.4byte	.LASF677
 6646 178b 09       		.byte	0x9
 6647 178c 6A       		.byte	0x6a
 6648 178d 7F000000 		.4byte	0x7f
 6649 1791 00       		.byte	0
 6650 1792 19       		.uleb128 0x19
 6651 1793 690E0000 		.4byte	.LASF678
 6652 1797 09       		.byte	0x9
 6653 1798 6B       		.byte	0x6b
 6654 1799 7F000000 		.4byte	0x7f
ARM GAS  C:\Users\AHMED~1.ELE\AppData\Local\Temp\ccpjtoUe.s 			page 149


 6655 179d 04       		.byte	0x4
 6656 179e 00       		.byte	0
 6657 179f 04       		.uleb128 0x4
 6658 17a0 B9270000 		.4byte	.LASF679
 6659 17a4 09       		.byte	0x9
 6660 17a5 6C       		.byte	0x6c
 6661 17a6 7A170000 		.4byte	0x177a
 6662 17aa 21       		.uleb128 0x21
 6663 17ab DA110000 		.4byte	.LASF680
 6664 17af 0C       		.byte	0xc
 6665 17b0 09       		.byte	0x9
 6666 17b1 6E       		.byte	0x6e
 6667 17b2 DB170000 		.4byte	0x17db
 6668 17b6 19       		.uleb128 0x19
 6669 17b7 5F290000 		.4byte	.LASF677
 6670 17bb 09       		.byte	0x9
 6671 17bc 70       		.byte	0x70
 6672 17bd 7F000000 		.4byte	0x7f
 6673 17c1 00       		.byte	0
 6674 17c2 19       		.uleb128 0x19
 6675 17c3 F30F0000 		.4byte	.LASF681
 6676 17c7 09       		.byte	0x9
 6677 17c8 71       		.byte	0x71
 6678 17c9 5D000000 		.4byte	0x5d
 6679 17cd 04       		.byte	0x4
 6680 17ce 19       		.uleb128 0x19
 6681 17cf E2100000 		.4byte	.LASF682
 6682 17d3 09       		.byte	0x9
 6683 17d4 72       		.byte	0x72
 6684 17d5 DB170000 		.4byte	0x17db
 6685 17d9 08       		.byte	0x8
 6686 17da 00       		.byte	0
 6687 17db 06       		.uleb128 0x6
 6688 17dc 04       		.byte	0x4
 6689 17dd 9F170000 		.4byte	0x179f
 6690 17e1 04       		.uleb128 0x4
 6691 17e2 270D0000 		.4byte	.LASF683
 6692 17e6 09       		.byte	0x9
 6693 17e7 73       		.byte	0x73
 6694 17e8 AA170000 		.4byte	0x17aa
 6695 17ec 21       		.uleb128 0x21
 6696 17ed 42240000 		.4byte	.LASF684
 6697 17f1 08       		.byte	0x8
 6698 17f2 09       		.byte	0x9
 6699 17f3 75       		.byte	0x75
 6700 17f4 11180000 		.4byte	0x1811
 6701 17f8 19       		.uleb128 0x19
 6702 17f9 9F080000 		.4byte	.LASF685
 6703 17fd 09       		.byte	0x9
 6704 17fe 77       		.byte	0x77
 6705 17ff 5D000000 		.4byte	0x5d
 6706 1803 00       		.byte	0
 6707 1804 19       		.uleb128 0x19
 6708 1805 851D0000 		.4byte	.LASF686
 6709 1809 09       		.byte	0x9
 6710 180a 78       		.byte	0x78
 6711 180b 7F000000 		.4byte	0x7f
ARM GAS  C:\Users\AHMED~1.ELE\AppData\Local\Temp\ccpjtoUe.s 			page 150


 6712 180f 04       		.byte	0x4
 6713 1810 00       		.byte	0
 6714 1811 04       		.uleb128 0x4
 6715 1812 23080000 		.4byte	.LASF687
 6716 1816 09       		.byte	0x9
 6717 1817 79       		.byte	0x79
 6718 1818 EC170000 		.4byte	0x17ec
 6719 181c 21       		.uleb128 0x21
 6720 181d D51B0000 		.4byte	.LASF688
 6721 1821 08       		.byte	0x8
 6722 1822 09       		.byte	0x9
 6723 1823 7B       		.byte	0x7b
 6724 1824 41180000 		.4byte	0x1841
 6725 1828 19       		.uleb128 0x19
 6726 1829 61320000 		.4byte	.LASF689
 6727 182d 09       		.byte	0x9
 6728 182e 7D       		.byte	0x7d
 6729 182f 76000000 		.4byte	0x76
 6730 1833 00       		.byte	0
 6731 1834 19       		.uleb128 0x19
 6732 1835 89240000 		.4byte	.LASF690
 6733 1839 09       		.byte	0x9
 6734 183a 7E       		.byte	0x7e
 6735 183b 5E170000 		.4byte	0x175e
 6736 183f 04       		.byte	0x4
 6737 1840 00       		.byte	0
 6738 1841 04       		.uleb128 0x4
 6739 1842 EE140000 		.4byte	.LASF691
 6740 1846 09       		.byte	0x9
 6741 1847 7F       		.byte	0x7f
 6742 1848 1C180000 		.4byte	0x181c
 6743 184c 22       		.uleb128 0x22
 6744 184d 320A0000 		.4byte	.LASF844
 6745 1851 10       		.byte	0x10
 6746 1852 09       		.byte	0x9
 6747 1853 81       		.byte	0x81
 6748 1854 9B180000 		.4byte	0x189b
 6749 1858 23       		.uleb128 0x23
 6750 1859 D9230000 		.4byte	.LASF692
 6751 185d 09       		.byte	0x9
 6752 185e 83       		.byte	0x83
 6753 185f E1170000 		.4byte	0x17e1
 6754 1863 23       		.uleb128 0x23
 6755 1864 97090000 		.4byte	.LASF693
 6756 1868 09       		.byte	0x9
 6757 1869 84       		.byte	0x84
 6758 186a 5D000000 		.4byte	0x5d
 6759 186e 23       		.uleb128 0x23
 6760 186f 55090000 		.4byte	.LASF694
 6761 1873 09       		.byte	0x9
 6762 1874 85       		.byte	0x85
 6763 1875 7F000000 		.4byte	0x7f
 6764 1879 23       		.uleb128 0x23
 6765 187a A01D0000 		.4byte	.LASF695
 6766 187e 09       		.byte	0x9
 6767 187f 86       		.byte	0x86
 6768 1880 9B180000 		.4byte	0x189b
ARM GAS  C:\Users\AHMED~1.ELE\AppData\Local\Temp\ccpjtoUe.s 			page 151


 6769 1884 23       		.uleb128 0x23
 6770 1885 9D030000 		.4byte	.LASF696
 6771 1889 09       		.byte	0x9
 6772 188a 87       		.byte	0x87
 6773 188b 11180000 		.4byte	0x1811
 6774 188f 23       		.uleb128 0x23
 6775 1890 82240000 		.4byte	.LASF697
 6776 1894 09       		.byte	0x9
 6777 1895 88       		.byte	0x88
 6778 1896 41180000 		.4byte	0x1841
 6779 189a 00       		.byte	0
 6780 189b 02       		.uleb128 0x2
 6781 189c 08       		.byte	0x8
 6782 189d 04       		.byte	0x4
 6783 189e 6E1B0000 		.4byte	.LASF698
 6784 18a2 04       		.uleb128 0x4
 6785 18a3 250A0000 		.4byte	.LASF699
 6786 18a7 09       		.byte	0x9
 6787 18a8 89       		.byte	0x89
 6788 18a9 4C180000 		.4byte	0x184c
 6789 18ad 21       		.uleb128 0x21
 6790 18ae FF060000 		.4byte	.LASF700
 6791 18b2 30       		.byte	0x30
 6792 18b3 09       		.byte	0x9
 6793 18b4 8B       		.byte	0x8b
 6794 18b5 26190000 		.4byte	0x1926
 6795 18b9 19       		.uleb128 0x19
 6796 18ba C7040000 		.4byte	.LASF701
 6797 18be 09       		.byte	0x9
 6798 18bf 8D       		.byte	0x8d
 6799 18c0 53170000 		.4byte	0x1753
 6800 18c4 00       		.byte	0
 6801 18c5 19       		.uleb128 0x19
 6802 18c6 5C320000 		.4byte	.LASF702
 6803 18ca 09       		.byte	0x9
 6804 18cb 8E       		.byte	0x8e
 6805 18cc 26190000 		.4byte	0x1926
 6806 18d0 04       		.byte	0x4
 6807 18d1 19       		.uleb128 0x19
 6808 18d2 29320000 		.4byte	.LASF703
 6809 18d6 09       		.byte	0x9
 6810 18d7 8F       		.byte	0x8f
 6811 18d8 26190000 		.4byte	0x1926
 6812 18dc 08       		.byte	0x8
 6813 18dd 19       		.uleb128 0x19
 6814 18de 5C1C0000 		.4byte	.LASF704
 6815 18e2 09       		.byte	0x9
 6816 18e3 90       		.byte	0x90
 6817 18e4 26190000 		.4byte	0x1926
 6818 18e8 0C       		.byte	0xc
 6819 18e9 19       		.uleb128 0x19
 6820 18ea B61B0000 		.4byte	.LASF705
 6821 18ee 09       		.byte	0x9
 6822 18ef 91       		.byte	0x91
 6823 18f0 26190000 		.4byte	0x1926
 6824 18f4 10       		.byte	0x10
 6825 18f5 19       		.uleb128 0x19
ARM GAS  C:\Users\AHMED~1.ELE\AppData\Local\Temp\ccpjtoUe.s 			page 152


 6826 18f6 EA2F0000 		.4byte	.LASF706
 6827 18fa 09       		.byte	0x9
 6828 18fb 92       		.byte	0x92
 6829 18fc 26190000 		.4byte	0x1926
 6830 1900 14       		.byte	0x14
 6831 1901 19       		.uleb128 0x19
 6832 1902 690E0000 		.4byte	.LASF678
 6833 1906 09       		.byte	0x9
 6834 1907 93       		.byte	0x93
 6835 1908 A2180000 		.4byte	0x18a2
 6836 190c 18       		.byte	0x18
 6837 190d 19       		.uleb128 0x19
 6838 190e A40C0000 		.4byte	.LASF707
 6839 1912 09       		.byte	0x9
 6840 1913 94       		.byte	0x94
 6841 1914 5D000000 		.4byte	0x5d
 6842 1918 28       		.byte	0x28
 6843 1919 19       		.uleb128 0x19
 6844 191a EC300000 		.4byte	.LASF708
 6845 191e 09       		.byte	0x9
 6846 191f 95       		.byte	0x95
 6847 1920 76000000 		.4byte	0x76
 6848 1924 2C       		.byte	0x2c
 6849 1925 00       		.byte	0
 6850 1926 06       		.uleb128 0x6
 6851 1927 04       		.byte	0x4
 6852 1928 AD180000 		.4byte	0x18ad
 6853 192c 04       		.uleb128 0x4
 6854 192d 0B070000 		.4byte	.LASF709
 6855 1931 09       		.byte	0x9
 6856 1932 98       		.byte	0x98
 6857 1933 AD180000 		.4byte	0x18ad
 6858 1937 06       		.uleb128 0x6
 6859 1938 04       		.byte	0x4
 6860 1939 2C190000 		.4byte	0x192c
 6861 193d 06       		.uleb128 0x6
 6862 193e 04       		.byte	0x4
 6863 193f 43190000 		.4byte	0x1943
 6864 1943 24       		.uleb128 0x24
 6865 1944 53170000 		.4byte	0x1753
 6866 1948 52190000 		.4byte	0x1952
 6867 194c 20       		.uleb128 0x20
 6868 194d 37190000 		.4byte	0x1937
 6869 1951 00       		.byte	0
 6870 1952 14       		.uleb128 0x14
 6871 1953 01       		.byte	0x1
 6872 1954 01       		.byte	0x1
 6873 1955 38       		.byte	0x38
 6874 1956 91190000 		.4byte	0x1991
 6875 195a 0B       		.uleb128 0xb
 6876 195b B4240000 		.4byte	.LASF710
 6877 195f 00       		.sleb128 0
 6878 1960 0B       		.uleb128 0xb
 6879 1961 29190000 		.4byte	.LASF711
 6880 1965 01       		.sleb128 1
 6881 1966 0B       		.uleb128 0xb
 6882 1967 C9310000 		.4byte	.LASF712
ARM GAS  C:\Users\AHMED~1.ELE\AppData\Local\Temp\ccpjtoUe.s 			page 153


 6883 196b 02       		.sleb128 2
 6884 196c 0B       		.uleb128 0xb
 6885 196d 50290000 		.4byte	.LASF713
 6886 1971 03       		.sleb128 3
 6887 1972 0B       		.uleb128 0xb
 6888 1973 80120000 		.4byte	.LASF714
 6889 1977 04       		.sleb128 4
 6890 1978 0B       		.uleb128 0xb
 6891 1979 E1310000 		.4byte	.LASF715
 6892 197d 05       		.sleb128 5
 6893 197e 0B       		.uleb128 0xb
 6894 197f 2F140000 		.4byte	.LASF716
 6895 1983 06       		.sleb128 6
 6896 1984 0B       		.uleb128 0xb
 6897 1985 35210000 		.4byte	.LASF717
 6898 1989 07       		.sleb128 7
 6899 198a 0B       		.uleb128 0xb
 6900 198b 91220000 		.4byte	.LASF718
 6901 198f 08       		.sleb128 8
 6902 1990 00       		.byte	0
 6903 1991 14       		.uleb128 0x14
 6904 1992 01       		.byte	0x1
 6905 1993 01       		.byte	0x1
 6906 1994 43       		.byte	0x43
 6907 1995 B2190000 		.4byte	0x19b2
 6908 1999 0B       		.uleb128 0xb
 6909 199a AF2E0000 		.4byte	.LASF719
 6910 199e 00       		.sleb128 0
 6911 199f 0B       		.uleb128 0xb
 6912 19a0 CF1C0000 		.4byte	.LASF720
 6913 19a4 01       		.sleb128 1
 6914 19a5 0B       		.uleb128 0xb
 6915 19a6 782C0000 		.4byte	.LASF721
 6916 19aa 02       		.sleb128 2
 6917 19ab 0B       		.uleb128 0xb
 6918 19ac DB2E0000 		.4byte	.LASF722
 6919 19b0 03       		.sleb128 3
 6920 19b1 00       		.byte	0
 6921 19b2 21       		.uleb128 0x21
 6922 19b3 AF180000 		.4byte	.LASF723
 6923 19b7 08       		.byte	0x8
 6924 19b8 01       		.byte	0x1
 6925 19b9 4A       		.byte	0x4a
 6926 19ba E3190000 		.4byte	0x19e3
 6927 19be 19       		.uleb128 0x19
 6928 19bf 56010000 		.4byte	.LASF724
 6929 19c3 01       		.byte	0x1
 6930 19c4 4B       		.byte	0x4b
 6931 19c5 DE000000 		.4byte	0xde
 6932 19c9 00       		.byte	0
 6933 19ca 19       		.uleb128 0x19
 6934 19cb 28300000 		.4byte	.LASF725
 6935 19cf 01       		.byte	0x1
 6936 19d0 4C       		.byte	0x4c
 6937 19d1 A2000000 		.4byte	0xa2
 6938 19d5 04       		.byte	0x4
 6939 19d6 19       		.uleb128 0x19
ARM GAS  C:\Users\AHMED~1.ELE\AppData\Local\Temp\ccpjtoUe.s 			page 154


 6940 19d7 5B020000 		.4byte	.LASF726
 6941 19db 01       		.byte	0x1
 6942 19dc 4D       		.byte	0x4d
 6943 19dd AD000000 		.4byte	0xad
 6944 19e1 06       		.byte	0x6
 6945 19e2 00       		.byte	0
 6946 19e3 18       		.uleb128 0x18
 6947 19e4 1C01     		.2byte	0x11c
 6948 19e6 01       		.byte	0x1
 6949 19e7 50       		.byte	0x50
 6950 19e8 051A0000 		.4byte	0x1a05
 6951 19ec 19       		.uleb128 0x19
 6952 19ed EA280000 		.4byte	.LASF727
 6953 19f1 01       		.byte	0x1
 6954 19f2 51       		.byte	0x51
 6955 19f3 A2000000 		.4byte	0xa2
 6956 19f7 00       		.byte	0
 6957 19f8 19       		.uleb128 0x19
 6958 19f9 64330000 		.4byte	.LASF728
 6959 19fd 01       		.byte	0x1
 6960 19fe 52       		.byte	0x52
 6961 19ff F3150000 		.4byte	0x15f3
 6962 1a03 04       		.byte	0x4
 6963 1a04 00       		.byte	0
 6964 1a05 04       		.uleb128 0x4
 6965 1a06 981C0000 		.4byte	.LASF729
 6966 1a0a 01       		.byte	0x1
 6967 1a0b 53       		.byte	0x53
 6968 1a0c E3190000 		.4byte	0x19e3
 6969 1a10 25       		.uleb128 0x25
 6970 1a11 91050000 		.4byte	.LASF735
 6971 1a15 01       		.byte	0x1
 6972 1a16 5C01     		.2byte	0x15c
 6973 1a18 97000000 		.4byte	0x97
 6974 1a1c 01       		.byte	0x1
 6975 1a1d 761A0000 		.4byte	0x1a76
 6976 1a21 26       		.uleb128 0x26
 6977 1a22 D4080000 		.4byte	.LASF730
 6978 1a26 01       		.byte	0x1
 6979 1a27 5C01     		.2byte	0x15c
 6980 1a29 761A0000 		.4byte	0x1a76
 6981 1a2d 26       		.uleb128 0x26
 6982 1a2e AC130000 		.4byte	.LASF731
 6983 1a32 01       		.byte	0x1
 6984 1a33 5C01     		.2byte	0x15c
 6985 1a35 7C1A0000 		.4byte	0x1a7c
 6986 1a39 26       		.uleb128 0x26
 6987 1a3a 89060000 		.4byte	.LASF732
 6988 1a3e 01       		.byte	0x1
 6989 1a3f 5C01     		.2byte	0x15c
 6990 1a41 DE000000 		.4byte	0xde
 6991 1a45 26       		.uleb128 0x26
 6992 1a46 602A0000 		.4byte	.LASF733
 6993 1a4a 01       		.byte	0x1
 6994 1a4b 5C01     		.2byte	0x15c
 6995 1a4d DE000000 		.4byte	0xde
 6996 1a51 27       		.uleb128 0x27
ARM GAS  C:\Users\AHMED~1.ELE\AppData\Local\Temp\ccpjtoUe.s 			page 155


 6997 1a52 46080000 		.4byte	.LASF734
 6998 1a56 01       		.byte	0x1
 6999 1a57 5F01     		.2byte	0x15f
 7000 1a59 AD000000 		.4byte	0xad
 7001 1a5d 27       		.uleb128 0x27
 7002 1a5e 690E0000 		.4byte	.LASF678
 7003 1a62 01       		.byte	0x1
 7004 1a63 6001     		.2byte	0x160
 7005 1a65 B8000000 		.4byte	0xb8
 7006 1a69 28       		.uleb128 0x28
 7007 1a6a 6C656E00 		.ascii	"len\000"
 7008 1a6e 01       		.byte	0x1
 7009 1a6f 6001     		.2byte	0x160
 7010 1a71 B8000000 		.4byte	0xb8
 7011 1a75 00       		.byte	0
 7012 1a76 06       		.uleb128 0x6
 7013 1a77 04       		.byte	0x4
 7014 1a78 85160000 		.4byte	0x1685
 7015 1a7c 06       		.uleb128 0x6
 7016 1a7d 04       		.byte	0x4
 7017 1a7e B2190000 		.4byte	0x19b2
 7018 1a82 25       		.uleb128 0x25
 7019 1a83 6F0E0000 		.4byte	.LASF736
 7020 1a87 01       		.byte	0x1
 7021 1a88 9901     		.2byte	0x199
 7022 1a8a 97000000 		.4byte	0x97
 7023 1a8e 01       		.byte	0x1
 7024 1a8f E81A0000 		.4byte	0x1ae8
 7025 1a93 26       		.uleb128 0x26
 7026 1a94 D4080000 		.4byte	.LASF730
 7027 1a98 01       		.byte	0x1
 7028 1a99 9901     		.2byte	0x199
 7029 1a9b E81A0000 		.4byte	0x1ae8
 7030 1a9f 26       		.uleb128 0x26
 7031 1aa0 AC130000 		.4byte	.LASF731
 7032 1aa4 01       		.byte	0x1
 7033 1aa5 9901     		.2byte	0x199
 7034 1aa7 7C1A0000 		.4byte	0x1a7c
 7035 1aab 26       		.uleb128 0x26
 7036 1aac 89060000 		.4byte	.LASF732
 7037 1ab0 01       		.byte	0x1
 7038 1ab1 9901     		.2byte	0x199
 7039 1ab3 DE000000 		.4byte	0xde
 7040 1ab7 26       		.uleb128 0x26
 7041 1ab8 602A0000 		.4byte	.LASF733
 7042 1abc 01       		.byte	0x1
 7043 1abd 9901     		.2byte	0x199
 7044 1abf DE000000 		.4byte	0xde
 7045 1ac3 27       		.uleb128 0x27
 7046 1ac4 46080000 		.4byte	.LASF734
 7047 1ac8 01       		.byte	0x1
 7048 1ac9 9C01     		.2byte	0x19c
 7049 1acb AD000000 		.4byte	0xad
 7050 1acf 27       		.uleb128 0x27
 7051 1ad0 690E0000 		.4byte	.LASF678
 7052 1ad4 01       		.byte	0x1
 7053 1ad5 9D01     		.2byte	0x19d
ARM GAS  C:\Users\AHMED~1.ELE\AppData\Local\Temp\ccpjtoUe.s 			page 156


 7054 1ad7 B8000000 		.4byte	0xb8
 7055 1adb 28       		.uleb128 0x28
 7056 1adc 6C656E00 		.ascii	"len\000"
 7057 1ae0 01       		.byte	0x1
 7058 1ae1 9D01     		.2byte	0x19d
 7059 1ae3 B8000000 		.4byte	0xb8
 7060 1ae7 00       		.byte	0
 7061 1ae8 06       		.uleb128 0x6
 7062 1ae9 04       		.byte	0x4
 7063 1aea 10170000 		.4byte	0x1710
 7064 1aee 25       		.uleb128 0x25
 7065 1aef FC270000 		.4byte	.LASF737
 7066 1af3 01       		.byte	0x1
 7067 1af4 D601     		.2byte	0x1d6
 7068 1af6 97000000 		.4byte	0x97
 7069 1afa 01       		.byte	0x1
 7070 1afb 601B0000 		.4byte	0x1b60
 7071 1aff 26       		.uleb128 0x26
 7072 1b00 EA1E0000 		.4byte	.LASF738
 7073 1b04 01       		.byte	0x1
 7074 1b05 D601     		.2byte	0x1d6
 7075 1b07 601B0000 		.4byte	0x1b60
 7076 1b0b 26       		.uleb128 0x26
 7077 1b0c AC130000 		.4byte	.LASF731
 7078 1b10 01       		.byte	0x1
 7079 1b11 D601     		.2byte	0x1d6
 7080 1b13 7C1A0000 		.4byte	0x1a7c
 7081 1b17 26       		.uleb128 0x26
 7082 1b18 89060000 		.4byte	.LASF732
 7083 1b1c 01       		.byte	0x1
 7084 1b1d D601     		.2byte	0x1d6
 7085 1b1f DE000000 		.4byte	0xde
 7086 1b23 26       		.uleb128 0x26
 7087 1b24 602A0000 		.4byte	.LASF733
 7088 1b28 01       		.byte	0x1
 7089 1b29 D601     		.2byte	0x1d6
 7090 1b2b DE000000 		.4byte	0xde
 7091 1b2f 28       		.uleb128 0x28
 7092 1b30 62756600 		.ascii	"buf\000"
 7093 1b34 01       		.byte	0x1
 7094 1b35 D801     		.2byte	0x1d8
 7095 1b37 F4000000 		.4byte	0xf4
 7096 1b3b 27       		.uleb128 0x27
 7097 1b3c 46080000 		.4byte	.LASF734
 7098 1b40 01       		.byte	0x1
 7099 1b41 D901     		.2byte	0x1d9
 7100 1b43 AD000000 		.4byte	0xad
 7101 1b47 27       		.uleb128 0x27
 7102 1b48 690E0000 		.4byte	.LASF678
 7103 1b4c 01       		.byte	0x1
 7104 1b4d DA01     		.2byte	0x1da
 7105 1b4f B8000000 		.4byte	0xb8
 7106 1b53 28       		.uleb128 0x28
 7107 1b54 6C656E00 		.ascii	"len\000"
 7108 1b58 01       		.byte	0x1
 7109 1b59 DA01     		.2byte	0x1da
 7110 1b5b B8000000 		.4byte	0xb8
ARM GAS  C:\Users\AHMED~1.ELE\AppData\Local\Temp\ccpjtoUe.s 			page 157


 7111 1b5f 00       		.byte	0
 7112 1b60 06       		.uleb128 0x6
 7113 1b61 04       		.byte	0x4
 7114 1b62 051A0000 		.4byte	0x1a05
 7115 1b66 29       		.uleb128 0x29
 7116 1b67 17130000 		.4byte	.LASF742
 7117 1b6b 01       		.byte	0x1
 7118 1b6c EB       		.byte	0xeb
 7119 1b6d 97000000 		.4byte	0x97
 7120 1b71 00000000 		.4byte	.LFB0
 7121 1b75 44000000 		.4byte	.LFE0-.LFB0
 7122 1b79 01       		.uleb128 0x1
 7123 1b7a 9C       		.byte	0x9c
 7124 1b7b EA1B0000 		.4byte	0x1bea
 7125 1b7f 2A       		.uleb128 0x2a
 7126 1b80 AC130000 		.4byte	.LASF731
 7127 1b84 01       		.byte	0x1
 7128 1b85 EB       		.byte	0xeb
 7129 1b86 7C1A0000 		.4byte	0x1a7c
 7130 1b8a 00000000 		.4byte	.LLST0
 7131 1b8e 2A       		.uleb128 0x2a
 7132 1b8f 89060000 		.4byte	.LASF732
 7133 1b93 01       		.byte	0x1
 7134 1b94 EB       		.byte	0xeb
 7135 1b95 DE000000 		.4byte	0xde
 7136 1b99 36000000 		.4byte	.LLST1
 7137 1b9d 2A       		.uleb128 0x2a
 7138 1b9e 4B040000 		.4byte	.LASF739
 7139 1ba2 01       		.byte	0x1
 7140 1ba3 EB       		.byte	0xeb
 7141 1ba4 DE000000 		.4byte	0xde
 7142 1ba8 54000000 		.4byte	.LLST2
 7143 1bac 2A       		.uleb128 0x2a
 7144 1bad 29240000 		.4byte	.LASF740
 7145 1bb1 01       		.byte	0x1
 7146 1bb2 EB       		.byte	0xeb
 7147 1bb3 EA1B0000 		.4byte	0x1bea
 7148 1bb7 72000000 		.4byte	.LLST3
 7149 1bbb 2A       		.uleb128 0x2a
 7150 1bbc 432B0000 		.4byte	.LASF741
 7151 1bc0 01       		.byte	0x1
 7152 1bc1 EB       		.byte	0xeb
 7153 1bc2 EA1B0000 		.4byte	0x1bea
 7154 1bc6 90000000 		.4byte	.LLST4
 7155 1bca 2B       		.uleb128 0x2b
 7156 1bcb 46080000 		.4byte	.LASF734
 7157 1bcf 01       		.byte	0x1
 7158 1bd0 EE       		.byte	0xee
 7159 1bd1 AD000000 		.4byte	0xad
 7160 1bd5 B0000000 		.4byte	.LLST5
 7161 1bd9 2C       		.uleb128 0x2c
 7162 1bda 1A000000 		.4byte	.LVL2
 7163 1bde 99440000 		.4byte	0x4499
 7164 1be2 2D       		.uleb128 0x2d
 7165 1be3 01       		.uleb128 0x1
 7166 1be4 51       		.byte	0x51
 7167 1be5 02       		.uleb128 0x2
ARM GAS  C:\Users\AHMED~1.ELE\AppData\Local\Temp\ccpjtoUe.s 			page 158


 7168 1be6 79       		.byte	0x79
 7169 1be7 00       		.sleb128 0
 7170 1be8 00       		.byte	0
 7171 1be9 00       		.byte	0
 7172 1bea 06       		.uleb128 0x6
 7173 1beb 04       		.byte	0x4
 7174 1bec AD000000 		.4byte	0xad
 7175 1bf0 2E       		.uleb128 0x2e
 7176 1bf1 03090000 		.4byte	.LASF743
 7177 1bf5 01       		.byte	0x1
 7178 1bf6 0E01     		.2byte	0x10e
 7179 1bf8 97000000 		.4byte	0x97
 7180 1bfc 00000000 		.4byte	.LFB1
 7181 1c00 D8000000 		.4byte	.LFE1-.LFB1
 7182 1c04 01       		.uleb128 0x1
 7183 1c05 9C       		.byte	0x9c
 7184 1c06 361D0000 		.4byte	0x1d36
 7185 1c0a 2F       		.uleb128 0x2f
 7186 1c0b 27330000 		.4byte	.LASF744
 7187 1c0f 01       		.byte	0x1
 7188 1c10 0E01     		.2byte	0x10e
 7189 1c12 DE000000 		.4byte	0xde
 7190 1c16 DA000000 		.4byte	.LLST6
 7191 1c1a 2F       		.uleb128 0x2f
 7192 1c1b 4B040000 		.4byte	.LASF739
 7193 1c1f 01       		.byte	0x1
 7194 1c20 0E01     		.2byte	0x10e
 7195 1c22 A2000000 		.4byte	0xa2
 7196 1c26 F8000000 		.4byte	.LLST7
 7197 1c2a 2F       		.uleb128 0x2f
 7198 1c2b 49140000 		.4byte	.LASF745
 7199 1c2f 01       		.byte	0x1
 7200 1c30 0E01     		.2byte	0x10e
 7201 1c32 AD000000 		.4byte	0xad
 7202 1c36 19010000 		.4byte	.LLST8
 7203 1c3a 2F       		.uleb128 0x2f
 7204 1c3b 8D2F0000 		.4byte	.LASF746
 7205 1c3f 01       		.byte	0x1
 7206 1c40 0E01     		.2byte	0x10e
 7207 1c42 DE000000 		.4byte	0xde
 7208 1c46 3A010000 		.4byte	.LLST9
 7209 1c4a 30       		.uleb128 0x30
 7210 1c4b 6F646400 		.ascii	"odd\000"
 7211 1c4f 01       		.byte	0x1
 7212 1c50 1101     		.2byte	0x111
 7213 1c52 A2000000 		.4byte	0xa2
 7214 1c56 58010000 		.4byte	.LLST10
 7215 1c5a 31       		.uleb128 0x31
 7216 1c5b 690E0000 		.4byte	.LASF678
 7217 1c5f 01       		.byte	0x1
 7218 1c60 1201     		.2byte	0x112
 7219 1c62 C3000000 		.4byte	0xc3
 7220 1c66 93010000 		.4byte	.LLST11
 7221 1c6a 30       		.uleb128 0x30
 7222 1c6b 6C656E00 		.ascii	"len\000"
 7223 1c6f 01       		.byte	0x1
 7224 1c70 1301     		.2byte	0x113
ARM GAS  C:\Users\AHMED~1.ELE\AppData\Local\Temp\ccpjtoUe.s 			page 159


 7225 1c72 AD000000 		.4byte	0xad
 7226 1c76 AB010000 		.4byte	.LLST12
 7227 1c7a 32       		.uleb128 0x32
 7228 1c7b 12000000 		.4byte	.LVL9
 7229 1c7f B3440000 		.4byte	0x44b3
 7230 1c83 8E1C0000 		.4byte	0x1c8e
 7231 1c87 2D       		.uleb128 0x2d
 7232 1c88 01       		.uleb128 0x1
 7233 1c89 50       		.byte	0x50
 7234 1c8a 02       		.uleb128 0x2
 7235 1c8b 77       		.byte	0x77
 7236 1c8c 00       		.sleb128 0
 7237 1c8d 00       		.byte	0
 7238 1c8e 32       		.uleb128 0x32
 7239 1c8f 22000000 		.4byte	.LVL12
 7240 1c93 C8440000 		.4byte	0x44c8
 7241 1c97 AE1C0000 		.4byte	0x1cae
 7242 1c9b 2D       		.uleb128 0x2d
 7243 1c9c 01       		.uleb128 0x1
 7244 1c9d 52       		.byte	0x52
 7245 1c9e 02       		.uleb128 0x2
 7246 1c9f 76       		.byte	0x76
 7247 1ca0 00       		.sleb128 0
 7248 1ca1 2D       		.uleb128 0x2d
 7249 1ca2 01       		.uleb128 0x1
 7250 1ca3 51       		.byte	0x51
 7251 1ca4 02       		.uleb128 0x2
 7252 1ca5 08       		.byte	0x8
 7253 1ca6 20       		.byte	0x20
 7254 1ca7 2D       		.uleb128 0x2d
 7255 1ca8 01       		.uleb128 0x1
 7256 1ca9 50       		.byte	0x50
 7257 1caa 02       		.uleb128 0x2
 7258 1cab 74       		.byte	0x74
 7259 1cac 00       		.sleb128 0
 7260 1cad 00       		.byte	0
 7261 1cae 32       		.uleb128 0x32
 7262 1caf 32000000 		.4byte	.LVL13
 7263 1cb3 E7440000 		.4byte	0x44e7
 7264 1cb7 E21C0000 		.4byte	0x1ce2
 7265 1cbb 2D       		.uleb128 0x2d
 7266 1cbc 01       		.uleb128 0x1
 7267 1cbd 52       		.byte	0x52
 7268 1cbe 16       		.uleb128 0x16
 7269 1cbf 76       		.byte	0x76
 7270 1cc0 00       		.sleb128 0
 7271 1cc1 78       		.byte	0x78
 7272 1cc2 00       		.sleb128 0
 7273 1cc3 78       		.byte	0x78
 7274 1cc4 00       		.sleb128 0
 7275 1cc5 40       		.byte	0x40
 7276 1cc6 4B       		.byte	0x4b
 7277 1cc7 24       		.byte	0x24
 7278 1cc8 22       		.byte	0x22
 7279 1cc9 76       		.byte	0x76
 7280 1cca 00       		.sleb128 0
 7281 1ccb 40       		.byte	0x40
ARM GAS  C:\Users\AHMED~1.ELE\AppData\Local\Temp\ccpjtoUe.s 			page 160


 7282 1ccc 4B       		.byte	0x4b
 7283 1ccd 24       		.byte	0x24
 7284 1cce 22       		.byte	0x22
 7285 1ccf 2A       		.byte	0x2a
 7286 1cd0 28       		.byte	0x28
 7287 1cd1 0100     		.2byte	0x1
 7288 1cd3 16       		.byte	0x16
 7289 1cd4 13       		.byte	0x13
 7290 1cd5 2D       		.uleb128 0x2d
 7291 1cd6 01       		.uleb128 0x1
 7292 1cd7 51       		.byte	0x51
 7293 1cd8 02       		.uleb128 0x2
 7294 1cd9 77       		.byte	0x77
 7295 1cda 00       		.sleb128 0
 7296 1cdb 2D       		.uleb128 0x2d
 7297 1cdc 01       		.uleb128 0x1
 7298 1cdd 50       		.byte	0x50
 7299 1cde 02       		.uleb128 0x2
 7300 1cdf 74       		.byte	0x74
 7301 1ce0 00       		.sleb128 0
 7302 1ce1 00       		.byte	0
 7303 1ce2 32       		.uleb128 0x32
 7304 1ce3 42000000 		.4byte	.LVL15
 7305 1ce7 04450000 		.4byte	0x4504
 7306 1ceb F61C0000 		.4byte	0x1cf6
 7307 1cef 2D       		.uleb128 0x2d
 7308 1cf0 01       		.uleb128 0x1
 7309 1cf1 50       		.byte	0x50
 7310 1cf2 02       		.uleb128 0x2
 7311 1cf3 77       		.byte	0x77
 7312 1cf4 00       		.sleb128 0
 7313 1cf5 00       		.byte	0
 7314 1cf6 32       		.uleb128 0x32
 7315 1cf7 84000000 		.4byte	.LVL19
 7316 1cfb 19450000 		.4byte	0x4519
 7317 1cff 161D0000 		.4byte	0x1d16
 7318 1d03 2D       		.uleb128 0x2d
 7319 1d04 01       		.uleb128 0x1
 7320 1d05 52       		.byte	0x52
 7321 1d06 02       		.uleb128 0x2
 7322 1d07 75       		.byte	0x75
 7323 1d08 00       		.sleb128 0
 7324 1d09 2D       		.uleb128 0x2d
 7325 1d0a 01       		.uleb128 0x1
 7326 1d0b 51       		.byte	0x51
 7327 1d0c 02       		.uleb128 0x2
 7328 1d0d 77       		.byte	0x77
 7329 1d0e 00       		.sleb128 0
 7330 1d0f 2D       		.uleb128 0x2d
 7331 1d10 01       		.uleb128 0x1
 7332 1d11 50       		.byte	0x50
 7333 1d12 02       		.uleb128 0x2
 7334 1d13 74       		.byte	0x74
 7335 1d14 00       		.sleb128 0
 7336 1d15 00       		.byte	0
 7337 1d16 33       		.uleb128 0x33
 7338 1d17 98000000 		.4byte	.LVL20
ARM GAS  C:\Users\AHMED~1.ELE\AppData\Local\Temp\ccpjtoUe.s 			page 161


 7339 1d1b 34450000 		.4byte	0x4534
 7340 1d1f 2C       		.uleb128 0x2c
 7341 1d20 B4000000 		.4byte	.LVL22
 7342 1d24 49450000 		.4byte	0x4549
 7343 1d28 2D       		.uleb128 0x2d
 7344 1d29 01       		.uleb128 0x1
 7345 1d2a 51       		.byte	0x51
 7346 1d2b 02       		.uleb128 0x2
 7347 1d2c 76       		.byte	0x76
 7348 1d2d 00       		.sleb128 0
 7349 1d2e 2D       		.uleb128 0x2d
 7350 1d2f 01       		.uleb128 0x1
 7351 1d30 50       		.byte	0x50
 7352 1d31 02       		.uleb128 0x2
 7353 1d32 77       		.byte	0x77
 7354 1d33 00       		.sleb128 0
 7355 1d34 00       		.byte	0
 7356 1d35 00       		.byte	0
 7357 1d36 34       		.uleb128 0x34
 7358 1d37 101A0000 		.4byte	0x1a10
 7359 1d3b 00000000 		.4byte	.LFB2
 7360 1d3f 10010000 		.4byte	.LFE2-.LFB2
 7361 1d43 01       		.uleb128 0x1
 7362 1d44 9C       		.byte	0x9c
 7363 1d45 421F0000 		.4byte	0x1f42
 7364 1d49 35       		.uleb128 0x35
 7365 1d4a 211A0000 		.4byte	0x1a21
 7366 1d4e FF010000 		.4byte	.LLST13
 7367 1d52 35       		.uleb128 0x35
 7368 1d53 2D1A0000 		.4byte	0x1a2d
 7369 1d57 2B020000 		.4byte	.LLST14
 7370 1d5b 35       		.uleb128 0x35
 7371 1d5c 391A0000 		.4byte	0x1a39
 7372 1d60 72020000 		.4byte	.LLST15
 7373 1d64 35       		.uleb128 0x35
 7374 1d65 451A0000 		.4byte	0x1a45
 7375 1d69 9E020000 		.4byte	.LLST16
 7376 1d6d 36       		.uleb128 0x36
 7377 1d6e 511A0000 		.4byte	0x1a51
 7378 1d72 E0020000 		.4byte	.LLST17
 7379 1d76 37       		.uleb128 0x37
 7380 1d77 5D1A0000 		.4byte	0x1a5d
 7381 1d7b 37       		.uleb128 0x37
 7382 1d7c 691A0000 		.4byte	0x1a69
 7383 1d80 38       		.uleb128 0x38
 7384 1d81 42000000 		.4byte	.LBB4
 7385 1d85 CE000000 		.4byte	.LBE4-.LBB4
 7386 1d89 F71E0000 		.4byte	0x1ef7
 7387 1d8d 35       		.uleb128 0x35
 7388 1d8e 2D1A0000 		.4byte	0x1a2d
 7389 1d92 F4020000 		.4byte	.LLST18
 7390 1d96 35       		.uleb128 0x35
 7391 1d97 451A0000 		.4byte	0x1a45
 7392 1d9b 0A030000 		.4byte	.LLST19
 7393 1d9f 35       		.uleb128 0x35
 7394 1da0 391A0000 		.4byte	0x1a39
 7395 1da4 1D030000 		.4byte	.LLST20
ARM GAS  C:\Users\AHMED~1.ELE\AppData\Local\Temp\ccpjtoUe.s 			page 162


 7396 1da8 35       		.uleb128 0x35
 7397 1da9 211A0000 		.4byte	0x1a21
 7398 1dad 30030000 		.4byte	.LLST21
 7399 1db1 39       		.uleb128 0x39
 7400 1db2 42000000 		.4byte	.LBB5
 7401 1db6 CE000000 		.4byte	.LBE5-.LBB5
 7402 1dba 37       		.uleb128 0x37
 7403 1dbb 511A0000 		.4byte	0x1a51
 7404 1dbf 36       		.uleb128 0x36
 7405 1dc0 5D1A0000 		.4byte	0x1a5d
 7406 1dc4 43030000 		.4byte	.LLST22
 7407 1dc8 36       		.uleb128 0x36
 7408 1dc9 691A0000 		.4byte	0x1a69
 7409 1dcd 6C030000 		.4byte	.LLST23
 7410 1dd1 32       		.uleb128 0x32
 7411 1dd2 4A000000 		.4byte	.LVL34
 7412 1dd6 99440000 		.4byte	0x4499
 7413 1dda EE1D0000 		.4byte	0x1dee
 7414 1dde 2D       		.uleb128 0x2d
 7415 1ddf 01       		.uleb128 0x1
 7416 1de0 51       		.byte	0x51
 7417 1de1 05       		.uleb128 0x5
 7418 1de2 03       		.byte	0x3
 7419 1de3 0A000000 		.4byte	.LC1
 7420 1de7 2D       		.uleb128 0x2d
 7421 1de8 01       		.uleb128 0x1
 7422 1de9 50       		.byte	0x50
 7423 1dea 02       		.uleb128 0x2
 7424 1deb 76       		.byte	0x76
 7425 1dec 00       		.sleb128 0
 7426 1ded 00       		.byte	0
 7427 1dee 32       		.uleb128 0x32
 7428 1def 52000000 		.4byte	.LVL35
 7429 1df3 04450000 		.4byte	0x4504
 7430 1df7 021E0000 		.4byte	0x1e02
 7431 1dfb 2D       		.uleb128 0x2d
 7432 1dfc 01       		.uleb128 0x1
 7433 1dfd 50       		.byte	0x50
 7434 1dfe 02       		.uleb128 0x2
 7435 1dff 75       		.byte	0x75
 7436 1e00 00       		.sleb128 0
 7437 1e01 00       		.byte	0
 7438 1e02 32       		.uleb128 0x32
 7439 1e03 6E000000 		.4byte	.LVL37
 7440 1e07 99440000 		.4byte	0x4499
 7441 1e0b 1F1E0000 		.4byte	0x1e1f
 7442 1e0f 2D       		.uleb128 0x2d
 7443 1e10 01       		.uleb128 0x1
 7444 1e11 51       		.byte	0x51
 7445 1e12 05       		.uleb128 0x5
 7446 1e13 03       		.byte	0x3
 7447 1e14 15000000 		.4byte	.LC2
 7448 1e18 2D       		.uleb128 0x2d
 7449 1e19 01       		.uleb128 0x1
 7450 1e1a 50       		.byte	0x50
 7451 1e1b 02       		.uleb128 0x2
 7452 1e1c 76       		.byte	0x76
ARM GAS  C:\Users\AHMED~1.ELE\AppData\Local\Temp\ccpjtoUe.s 			page 163


 7453 1e1d 00       		.sleb128 0
 7454 1e1e 00       		.byte	0
 7455 1e1f 32       		.uleb128 0x32
 7456 1e20 76000000 		.4byte	.LVL38
 7457 1e24 04450000 		.4byte	0x4504
 7458 1e28 331E0000 		.4byte	0x1e33
 7459 1e2c 2D       		.uleb128 0x2d
 7460 1e2d 01       		.uleb128 0x1
 7461 1e2e 50       		.byte	0x50
 7462 1e2f 02       		.uleb128 0x2
 7463 1e30 75       		.byte	0x75
 7464 1e31 00       		.sleb128 0
 7465 1e32 00       		.byte	0
 7466 1e33 32       		.uleb128 0x32
 7467 1e34 82000000 		.4byte	.LVL40
 7468 1e38 99440000 		.4byte	0x4499
 7469 1e3c 501E0000 		.4byte	0x1e50
 7470 1e40 2D       		.uleb128 0x2d
 7471 1e41 01       		.uleb128 0x1
 7472 1e42 51       		.byte	0x51
 7473 1e43 05       		.uleb128 0x5
 7474 1e44 03       		.byte	0x3
 7475 1e45 1F000000 		.4byte	.LC3
 7476 1e49 2D       		.uleb128 0x2d
 7477 1e4a 01       		.uleb128 0x1
 7478 1e4b 50       		.byte	0x50
 7479 1e4c 02       		.uleb128 0x2
 7480 1e4d 76       		.byte	0x76
 7481 1e4e 00       		.sleb128 0
 7482 1e4f 00       		.byte	0
 7483 1e50 32       		.uleb128 0x32
 7484 1e51 8A000000 		.4byte	.LVL41
 7485 1e55 04450000 		.4byte	0x4504
 7486 1e59 641E0000 		.4byte	0x1e64
 7487 1e5d 2D       		.uleb128 0x2d
 7488 1e5e 01       		.uleb128 0x1
 7489 1e5f 50       		.byte	0x50
 7490 1e60 02       		.uleb128 0x2
 7491 1e61 75       		.byte	0x75
 7492 1e62 00       		.sleb128 0
 7493 1e63 00       		.byte	0
 7494 1e64 32       		.uleb128 0x32
 7495 1e65 96000000 		.4byte	.LVL43
 7496 1e69 99440000 		.4byte	0x4499
 7497 1e6d 811E0000 		.4byte	0x1e81
 7498 1e71 2D       		.uleb128 0x2d
 7499 1e72 01       		.uleb128 0x1
 7500 1e73 51       		.byte	0x51
 7501 1e74 05       		.uleb128 0x5
 7502 1e75 03       		.byte	0x3
 7503 1e76 27000000 		.4byte	.LC4
 7504 1e7a 2D       		.uleb128 0x2d
 7505 1e7b 01       		.uleb128 0x1
 7506 1e7c 50       		.byte	0x50
 7507 1e7d 02       		.uleb128 0x2
 7508 1e7e 76       		.byte	0x76
 7509 1e7f 00       		.sleb128 0
ARM GAS  C:\Users\AHMED~1.ELE\AppData\Local\Temp\ccpjtoUe.s 			page 164


 7510 1e80 00       		.byte	0
 7511 1e81 32       		.uleb128 0x32
 7512 1e82 A6000000 		.4byte	.LVL44
 7513 1e86 99440000 		.4byte	0x4499
 7514 1e8a 9E1E0000 		.4byte	0x1e9e
 7515 1e8e 2D       		.uleb128 0x2d
 7516 1e8f 01       		.uleb128 0x1
 7517 1e90 51       		.byte	0x51
 7518 1e91 05       		.uleb128 0x5
 7519 1e92 03       		.byte	0x3
 7520 1e93 32000000 		.4byte	.LC5
 7521 1e97 2D       		.uleb128 0x2d
 7522 1e98 01       		.uleb128 0x1
 7523 1e99 50       		.byte	0x50
 7524 1e9a 02       		.uleb128 0x2
 7525 1e9b 76       		.byte	0x76
 7526 1e9c 00       		.sleb128 0
 7527 1e9d 00       		.byte	0
 7528 1e9e 32       		.uleb128 0x32
 7529 1e9f B6000000 		.4byte	.LVL45
 7530 1ea3 99440000 		.4byte	0x4499
 7531 1ea7 BB1E0000 		.4byte	0x1ebb
 7532 1eab 2D       		.uleb128 0x2d
 7533 1eac 01       		.uleb128 0x1
 7534 1ead 51       		.byte	0x51
 7535 1eae 05       		.uleb128 0x5
 7536 1eaf 03       		.byte	0x3
 7537 1eb0 3D000000 		.4byte	.LC6
 7538 1eb4 2D       		.uleb128 0x2d
 7539 1eb5 01       		.uleb128 0x1
 7540 1eb6 50       		.byte	0x50
 7541 1eb7 02       		.uleb128 0x2
 7542 1eb8 76       		.byte	0x76
 7543 1eb9 00       		.sleb128 0
 7544 1eba 00       		.byte	0
 7545 1ebb 32       		.uleb128 0x32
 7546 1ebc CA000000 		.4byte	.LVL46
 7547 1ec0 99440000 		.4byte	0x4499
 7548 1ec4 D81E0000 		.4byte	0x1ed8
 7549 1ec8 2D       		.uleb128 0x2d
 7550 1ec9 01       		.uleb128 0x1
 7551 1eca 51       		.byte	0x51
 7552 1ecb 05       		.uleb128 0x5
 7553 1ecc 03       		.byte	0x3
 7554 1ecd 49000000 		.4byte	.LC7
 7555 1ed1 2D       		.uleb128 0x2d
 7556 1ed2 01       		.uleb128 0x1
 7557 1ed3 50       		.byte	0x50
 7558 1ed4 02       		.uleb128 0x2
 7559 1ed5 76       		.byte	0x76
 7560 1ed6 00       		.sleb128 0
 7561 1ed7 00       		.byte	0
 7562 1ed8 32       		.uleb128 0x32
 7563 1ed9 D2000000 		.4byte	.LVL47
 7564 1edd B3440000 		.4byte	0x44b3
 7565 1ee1 EC1E0000 		.4byte	0x1eec
 7566 1ee5 2D       		.uleb128 0x2d
ARM GAS  C:\Users\AHMED~1.ELE\AppData\Local\Temp\ccpjtoUe.s 			page 165


 7567 1ee6 01       		.uleb128 0x1
 7568 1ee7 50       		.byte	0x50
 7569 1ee8 02       		.uleb128 0x2
 7570 1ee9 75       		.byte	0x75
 7571 1eea 00       		.sleb128 0
 7572 1eeb 00       		.byte	0
 7573 1eec 33       		.uleb128 0x33
 7574 1eed E8000000 		.4byte	.LVL50
 7575 1ef1 19450000 		.4byte	0x4519
 7576 1ef5 00       		.byte	0
 7577 1ef6 00       		.byte	0
 7578 1ef7 32       		.uleb128 0x32
 7579 1ef8 18000000 		.4byte	.LVL27
 7580 1efc 99440000 		.4byte	0x4499
 7581 1f00 0B1F0000 		.4byte	0x1f0b
 7582 1f04 2D       		.uleb128 0x2d
 7583 1f05 01       		.uleb128 0x1
 7584 1f06 51       		.byte	0x51
 7585 1f07 02       		.uleb128 0x2
 7586 1f08 76       		.byte	0x76
 7587 1f09 00       		.sleb128 0
 7588 1f0a 00       		.byte	0
 7589 1f0b 32       		.uleb128 0x32
 7590 1f0c 2A000000 		.4byte	.LVL31
 7591 1f10 99440000 		.4byte	0x4499
 7592 1f14 281F0000 		.4byte	0x1f28
 7593 1f18 2D       		.uleb128 0x2d
 7594 1f19 01       		.uleb128 0x1
 7595 1f1a 51       		.byte	0x51
 7596 1f1b 05       		.uleb128 0x5
 7597 1f1c 03       		.byte	0x3
 7598 1f1d 4F000000 		.4byte	.LC8
 7599 1f21 2D       		.uleb128 0x2d
 7600 1f22 01       		.uleb128 0x1
 7601 1f23 50       		.byte	0x50
 7602 1f24 02       		.uleb128 0x2
 7603 1f25 76       		.byte	0x76
 7604 1f26 00       		.sleb128 0
 7605 1f27 00       		.byte	0
 7606 1f28 2C       		.uleb128 0x2c
 7607 1f29 38000000 		.4byte	.LVL32
 7608 1f2d 99440000 		.4byte	0x4499
 7609 1f31 2D       		.uleb128 0x2d
 7610 1f32 01       		.uleb128 0x1
 7611 1f33 51       		.byte	0x51
 7612 1f34 05       		.uleb128 0x5
 7613 1f35 03       		.byte	0x3
 7614 1f36 00000000 		.4byte	.LC0
 7615 1f3a 2D       		.uleb128 0x2d
 7616 1f3b 01       		.uleb128 0x1
 7617 1f3c 50       		.byte	0x50
 7618 1f3d 02       		.uleb128 0x2
 7619 1f3e 76       		.byte	0x76
 7620 1f3f 00       		.sleb128 0
 7621 1f40 00       		.byte	0
 7622 1f41 00       		.byte	0
 7623 1f42 34       		.uleb128 0x34
ARM GAS  C:\Users\AHMED~1.ELE\AppData\Local\Temp\ccpjtoUe.s 			page 166


 7624 1f43 821A0000 		.4byte	0x1a82
 7625 1f47 00000000 		.4byte	.LFB3
 7626 1f4b 10010000 		.4byte	.LFE3-.LFB3
 7627 1f4f 01       		.uleb128 0x1
 7628 1f50 9C       		.byte	0x9c
 7629 1f51 4E210000 		.4byte	0x214e
 7630 1f55 35       		.uleb128 0x35
 7631 1f56 931A0000 		.4byte	0x1a93
 7632 1f5a 95030000 		.4byte	.LLST24
 7633 1f5e 35       		.uleb128 0x35
 7634 1f5f 9F1A0000 		.4byte	0x1a9f
 7635 1f63 C1030000 		.4byte	.LLST25
 7636 1f67 35       		.uleb128 0x35
 7637 1f68 AB1A0000 		.4byte	0x1aab
 7638 1f6c 08040000 		.4byte	.LLST26
 7639 1f70 35       		.uleb128 0x35
 7640 1f71 B71A0000 		.4byte	0x1ab7
 7641 1f75 34040000 		.4byte	.LLST27
 7642 1f79 36       		.uleb128 0x36
 7643 1f7a C31A0000 		.4byte	0x1ac3
 7644 1f7e 76040000 		.4byte	.LLST28
 7645 1f82 37       		.uleb128 0x37
 7646 1f83 CF1A0000 		.4byte	0x1acf
 7647 1f87 37       		.uleb128 0x37
 7648 1f88 DB1A0000 		.4byte	0x1adb
 7649 1f8c 38       		.uleb128 0x38
 7650 1f8d 42000000 		.4byte	.LBB8
 7651 1f91 CE000000 		.4byte	.LBE8-.LBB8
 7652 1f95 03210000 		.4byte	0x2103
 7653 1f99 35       		.uleb128 0x35
 7654 1f9a 9F1A0000 		.4byte	0x1a9f
 7655 1f9e 8A040000 		.4byte	.LLST29
 7656 1fa2 35       		.uleb128 0x35
 7657 1fa3 B71A0000 		.4byte	0x1ab7
 7658 1fa7 A0040000 		.4byte	.LLST30
 7659 1fab 35       		.uleb128 0x35
 7660 1fac AB1A0000 		.4byte	0x1aab
 7661 1fb0 B3040000 		.4byte	.LLST31
 7662 1fb4 35       		.uleb128 0x35
 7663 1fb5 931A0000 		.4byte	0x1a93
 7664 1fb9 C6040000 		.4byte	.LLST32
 7665 1fbd 39       		.uleb128 0x39
 7666 1fbe 42000000 		.4byte	.LBB9
 7667 1fc2 CE000000 		.4byte	.LBE9-.LBB9
 7668 1fc6 37       		.uleb128 0x37
 7669 1fc7 C31A0000 		.4byte	0x1ac3
 7670 1fcb 36       		.uleb128 0x36
 7671 1fcc CF1A0000 		.4byte	0x1acf
 7672 1fd0 D9040000 		.4byte	.LLST33
 7673 1fd4 36       		.uleb128 0x36
 7674 1fd5 DB1A0000 		.4byte	0x1adb
 7675 1fd9 02050000 		.4byte	.LLST34
 7676 1fdd 32       		.uleb128 0x32
 7677 1fde 4A000000 		.4byte	.LVL62
 7678 1fe2 99440000 		.4byte	0x4499
 7679 1fe6 FA1F0000 		.4byte	0x1ffa
 7680 1fea 2D       		.uleb128 0x2d
ARM GAS  C:\Users\AHMED~1.ELE\AppData\Local\Temp\ccpjtoUe.s 			page 167


 7681 1feb 01       		.uleb128 0x1
 7682 1fec 51       		.byte	0x51
 7683 1fed 05       		.uleb128 0x5
 7684 1fee 03       		.byte	0x3
 7685 1fef 5F000000 		.4byte	.LC10
 7686 1ff3 2D       		.uleb128 0x2d
 7687 1ff4 01       		.uleb128 0x1
 7688 1ff5 50       		.byte	0x50
 7689 1ff6 02       		.uleb128 0x2
 7690 1ff7 76       		.byte	0x76
 7691 1ff8 00       		.sleb128 0
 7692 1ff9 00       		.byte	0
 7693 1ffa 32       		.uleb128 0x32
 7694 1ffb 52000000 		.4byte	.LVL63
 7695 1fff 04450000 		.4byte	0x4504
 7696 2003 0E200000 		.4byte	0x200e
 7697 2007 2D       		.uleb128 0x2d
 7698 2008 01       		.uleb128 0x1
 7699 2009 50       		.byte	0x50
 7700 200a 02       		.uleb128 0x2
 7701 200b 75       		.byte	0x75
 7702 200c 00       		.sleb128 0
 7703 200d 00       		.byte	0
 7704 200e 32       		.uleb128 0x32
 7705 200f 6E000000 		.4byte	.LVL65
 7706 2013 99440000 		.4byte	0x4499
 7707 2017 2B200000 		.4byte	0x202b
 7708 201b 2D       		.uleb128 0x2d
 7709 201c 01       		.uleb128 0x1
 7710 201d 51       		.byte	0x51
 7711 201e 05       		.uleb128 0x5
 7712 201f 03       		.byte	0x3
 7713 2020 6A000000 		.4byte	.LC11
 7714 2024 2D       		.uleb128 0x2d
 7715 2025 01       		.uleb128 0x1
 7716 2026 50       		.byte	0x50
 7717 2027 02       		.uleb128 0x2
 7718 2028 76       		.byte	0x76
 7719 2029 00       		.sleb128 0
 7720 202a 00       		.byte	0
 7721 202b 32       		.uleb128 0x32
 7722 202c 76000000 		.4byte	.LVL66
 7723 2030 04450000 		.4byte	0x4504
 7724 2034 3F200000 		.4byte	0x203f
 7725 2038 2D       		.uleb128 0x2d
 7726 2039 01       		.uleb128 0x1
 7727 203a 50       		.byte	0x50
 7728 203b 02       		.uleb128 0x2
 7729 203c 75       		.byte	0x75
 7730 203d 00       		.sleb128 0
 7731 203e 00       		.byte	0
 7732 203f 32       		.uleb128 0x32
 7733 2040 82000000 		.4byte	.LVL68
 7734 2044 99440000 		.4byte	0x4499
 7735 2048 5C200000 		.4byte	0x205c
 7736 204c 2D       		.uleb128 0x2d
 7737 204d 01       		.uleb128 0x1
ARM GAS  C:\Users\AHMED~1.ELE\AppData\Local\Temp\ccpjtoUe.s 			page 168


 7738 204e 51       		.byte	0x51
 7739 204f 05       		.uleb128 0x5
 7740 2050 03       		.byte	0x3
 7741 2051 74000000 		.4byte	.LC12
 7742 2055 2D       		.uleb128 0x2d
 7743 2056 01       		.uleb128 0x1
 7744 2057 50       		.byte	0x50
 7745 2058 02       		.uleb128 0x2
 7746 2059 76       		.byte	0x76
 7747 205a 00       		.sleb128 0
 7748 205b 00       		.byte	0
 7749 205c 32       		.uleb128 0x32
 7750 205d 8A000000 		.4byte	.LVL69
 7751 2061 04450000 		.4byte	0x4504
 7752 2065 70200000 		.4byte	0x2070
 7753 2069 2D       		.uleb128 0x2d
 7754 206a 01       		.uleb128 0x1
 7755 206b 50       		.byte	0x50
 7756 206c 02       		.uleb128 0x2
 7757 206d 75       		.byte	0x75
 7758 206e 00       		.sleb128 0
 7759 206f 00       		.byte	0
 7760 2070 32       		.uleb128 0x32
 7761 2071 96000000 		.4byte	.LVL71
 7762 2075 99440000 		.4byte	0x4499
 7763 2079 8D200000 		.4byte	0x208d
 7764 207d 2D       		.uleb128 0x2d
 7765 207e 01       		.uleb128 0x1
 7766 207f 51       		.byte	0x51
 7767 2080 05       		.uleb128 0x5
 7768 2081 03       		.byte	0x3
 7769 2082 7C000000 		.4byte	.LC13
 7770 2086 2D       		.uleb128 0x2d
 7771 2087 01       		.uleb128 0x1
 7772 2088 50       		.byte	0x50
 7773 2089 02       		.uleb128 0x2
 7774 208a 76       		.byte	0x76
 7775 208b 00       		.sleb128 0
 7776 208c 00       		.byte	0
 7777 208d 32       		.uleb128 0x32
 7778 208e A6000000 		.4byte	.LVL72
 7779 2092 99440000 		.4byte	0x4499
 7780 2096 AA200000 		.4byte	0x20aa
 7781 209a 2D       		.uleb128 0x2d
 7782 209b 01       		.uleb128 0x1
 7783 209c 51       		.byte	0x51
 7784 209d 05       		.uleb128 0x5
 7785 209e 03       		.byte	0x3
 7786 209f 88000000 		.4byte	.LC14
 7787 20a3 2D       		.uleb128 0x2d
 7788 20a4 01       		.uleb128 0x1
 7789 20a5 50       		.byte	0x50
 7790 20a6 02       		.uleb128 0x2
 7791 20a7 76       		.byte	0x76
 7792 20a8 00       		.sleb128 0
 7793 20a9 00       		.byte	0
 7794 20aa 32       		.uleb128 0x32
ARM GAS  C:\Users\AHMED~1.ELE\AppData\Local\Temp\ccpjtoUe.s 			page 169


 7795 20ab B6000000 		.4byte	.LVL73
 7796 20af 99440000 		.4byte	0x4499
 7797 20b3 C7200000 		.4byte	0x20c7
 7798 20b7 2D       		.uleb128 0x2d
 7799 20b8 01       		.uleb128 0x1
 7800 20b9 51       		.byte	0x51
 7801 20ba 05       		.uleb128 0x5
 7802 20bb 03       		.byte	0x3
 7803 20bc 94000000 		.4byte	.LC15
 7804 20c0 2D       		.uleb128 0x2d
 7805 20c1 01       		.uleb128 0x1
 7806 20c2 50       		.byte	0x50
 7807 20c3 02       		.uleb128 0x2
 7808 20c4 76       		.byte	0x76
 7809 20c5 00       		.sleb128 0
 7810 20c6 00       		.byte	0
 7811 20c7 32       		.uleb128 0x32
 7812 20c8 CA000000 		.4byte	.LVL74
 7813 20cc 99440000 		.4byte	0x4499
 7814 20d0 E4200000 		.4byte	0x20e4
 7815 20d4 2D       		.uleb128 0x2d
 7816 20d5 01       		.uleb128 0x1
 7817 20d6 51       		.byte	0x51
 7818 20d7 05       		.uleb128 0x5
 7819 20d8 03       		.byte	0x3
 7820 20d9 A1000000 		.4byte	.LC16
 7821 20dd 2D       		.uleb128 0x2d
 7822 20de 01       		.uleb128 0x1
 7823 20df 50       		.byte	0x50
 7824 20e0 02       		.uleb128 0x2
 7825 20e1 76       		.byte	0x76
 7826 20e2 00       		.sleb128 0
 7827 20e3 00       		.byte	0
 7828 20e4 32       		.uleb128 0x32
 7829 20e5 D2000000 		.4byte	.LVL75
 7830 20e9 B3440000 		.4byte	0x44b3
 7831 20ed F8200000 		.4byte	0x20f8
 7832 20f1 2D       		.uleb128 0x2d
 7833 20f2 01       		.uleb128 0x1
 7834 20f3 50       		.byte	0x50
 7835 20f4 02       		.uleb128 0x2
 7836 20f5 75       		.byte	0x75
 7837 20f6 00       		.sleb128 0
 7838 20f7 00       		.byte	0
 7839 20f8 33       		.uleb128 0x33
 7840 20f9 E8000000 		.4byte	.LVL78
 7841 20fd 19450000 		.4byte	0x4519
 7842 2101 00       		.byte	0
 7843 2102 00       		.byte	0
 7844 2103 32       		.uleb128 0x32
 7845 2104 18000000 		.4byte	.LVL55
 7846 2108 99440000 		.4byte	0x4499
 7847 210c 17210000 		.4byte	0x2117
 7848 2110 2D       		.uleb128 0x2d
 7849 2111 01       		.uleb128 0x1
 7850 2112 51       		.byte	0x51
 7851 2113 02       		.uleb128 0x2
ARM GAS  C:\Users\AHMED~1.ELE\AppData\Local\Temp\ccpjtoUe.s 			page 170


 7852 2114 76       		.byte	0x76
 7853 2115 00       		.sleb128 0
 7854 2116 00       		.byte	0
 7855 2117 32       		.uleb128 0x32
 7856 2118 2A000000 		.4byte	.LVL59
 7857 211c 99440000 		.4byte	0x4499
 7858 2120 34210000 		.4byte	0x2134
 7859 2124 2D       		.uleb128 0x2d
 7860 2125 01       		.uleb128 0x1
 7861 2126 51       		.byte	0x51
 7862 2127 05       		.uleb128 0x5
 7863 2128 03       		.byte	0x3
 7864 2129 A7000000 		.4byte	.LC17
 7865 212d 2D       		.uleb128 0x2d
 7866 212e 01       		.uleb128 0x1
 7867 212f 50       		.byte	0x50
 7868 2130 02       		.uleb128 0x2
 7869 2131 76       		.byte	0x76
 7870 2132 00       		.sleb128 0
 7871 2133 00       		.byte	0
 7872 2134 2C       		.uleb128 0x2c
 7873 2135 38000000 		.4byte	.LVL60
 7874 2139 99440000 		.4byte	0x4499
 7875 213d 2D       		.uleb128 0x2d
 7876 213e 01       		.uleb128 0x1
 7877 213f 51       		.byte	0x51
 7878 2140 05       		.uleb128 0x5
 7879 2141 03       		.byte	0x3
 7880 2142 55000000 		.4byte	.LC9
 7881 2146 2D       		.uleb128 0x2d
 7882 2147 01       		.uleb128 0x1
 7883 2148 50       		.byte	0x50
 7884 2149 02       		.uleb128 0x2
 7885 214a 76       		.byte	0x76
 7886 214b 00       		.sleb128 0
 7887 214c 00       		.byte	0
 7888 214d 00       		.byte	0
 7889 214e 34       		.uleb128 0x34
 7890 214f EE1A0000 		.4byte	0x1aee
 7891 2153 00000000 		.4byte	.LFB4
 7892 2157 0C010000 		.4byte	.LFE4-.LFB4
 7893 215b 01       		.uleb128 0x1
 7894 215c 9C       		.byte	0x9c
 7895 215d 42230000 		.4byte	0x2342
 7896 2161 35       		.uleb128 0x35
 7897 2162 FF1A0000 		.4byte	0x1aff
 7898 2166 2B050000 		.4byte	.LLST35
 7899 216a 35       		.uleb128 0x35
 7900 216b 0B1B0000 		.4byte	0x1b0b
 7901 216f 57050000 		.4byte	.LLST36
 7902 2173 35       		.uleb128 0x35
 7903 2174 171B0000 		.4byte	0x1b17
 7904 2178 84050000 		.4byte	.LLST37
 7905 217c 35       		.uleb128 0x35
 7906 217d 231B0000 		.4byte	0x1b23
 7907 2181 B0050000 		.4byte	.LLST38
 7908 2185 37       		.uleb128 0x37
ARM GAS  C:\Users\AHMED~1.ELE\AppData\Local\Temp\ccpjtoUe.s 			page 171


 7909 2186 2F1B0000 		.4byte	0x1b2f
 7910 218a 36       		.uleb128 0x36
 7911 218b 3B1B0000 		.4byte	0x1b3b
 7912 218f F2050000 		.4byte	.LLST39
 7913 2193 37       		.uleb128 0x37
 7914 2194 471B0000 		.4byte	0x1b47
 7915 2198 37       		.uleb128 0x37
 7916 2199 531B0000 		.4byte	0x1b53
 7917 219d 38       		.uleb128 0x38
 7918 219e 42000000 		.4byte	.LBB12
 7919 21a2 A6000000 		.4byte	.LBE12-.LBB12
 7920 21a6 F7220000 		.4byte	0x22f7
 7921 21aa 35       		.uleb128 0x35
 7922 21ab 0B1B0000 		.4byte	0x1b0b
 7923 21af 06060000 		.4byte	.LLST40
 7924 21b3 35       		.uleb128 0x35
 7925 21b4 231B0000 		.4byte	0x1b23
 7926 21b8 1C060000 		.4byte	.LLST41
 7927 21bc 35       		.uleb128 0x35
 7928 21bd 171B0000 		.4byte	0x1b17
 7929 21c1 2F060000 		.4byte	.LLST42
 7930 21c5 35       		.uleb128 0x35
 7931 21c6 FF1A0000 		.4byte	0x1aff
 7932 21ca 42060000 		.4byte	.LLST43
 7933 21ce 39       		.uleb128 0x39
 7934 21cf 42000000 		.4byte	.LBB13
 7935 21d3 A6000000 		.4byte	.LBE13-.LBB13
 7936 21d7 3A       		.uleb128 0x3a
 7937 21d8 2F1B0000 		.4byte	0x1b2f
 7938 21dc 03       		.uleb128 0x3
 7939 21dd 91       		.byte	0x91
 7940 21de A87F     		.sleb128 -88
 7941 21e0 37       		.uleb128 0x37
 7942 21e1 3B1B0000 		.4byte	0x1b3b
 7943 21e5 36       		.uleb128 0x36
 7944 21e6 471B0000 		.4byte	0x1b47
 7945 21ea 55060000 		.4byte	.LLST44
 7946 21ee 36       		.uleb128 0x36
 7947 21ef 531B0000 		.4byte	0x1b53
 7948 21f3 68060000 		.4byte	.LLST45
 7949 21f7 32       		.uleb128 0x32
 7950 21f8 4A000000 		.4byte	.LVL88
 7951 21fc 99440000 		.4byte	0x4499
 7952 2200 14220000 		.4byte	0x2214
 7953 2204 2D       		.uleb128 0x2d
 7954 2205 01       		.uleb128 0x1
 7955 2206 51       		.byte	0x51
 7956 2207 05       		.uleb128 0x5
 7957 2208 03       		.byte	0x3
 7958 2209 B3000000 		.4byte	.LC19
 7959 220d 2D       		.uleb128 0x2d
 7960 220e 01       		.uleb128 0x1
 7961 220f 50       		.byte	0x50
 7962 2210 02       		.uleb128 0x2
 7963 2211 75       		.byte	0x75
 7964 2212 00       		.sleb128 0
 7965 2213 00       		.byte	0
ARM GAS  C:\Users\AHMED~1.ELE\AppData\Local\Temp\ccpjtoUe.s 			page 172


 7966 2214 32       		.uleb128 0x32
 7967 2215 56000000 		.4byte	.LVL89
 7968 2219 19450000 		.4byte	0x4519
 7969 221d 33220000 		.4byte	0x2233
 7970 2221 2D       		.uleb128 0x2d
 7971 2222 01       		.uleb128 0x1
 7972 2223 52       		.byte	0x52
 7973 2224 01       		.uleb128 0x1
 7974 2225 34       		.byte	0x34
 7975 2226 2D       		.uleb128 0x2d
 7976 2227 01       		.uleb128 0x1
 7977 2228 51       		.byte	0x51
 7978 2229 02       		.uleb128 0x2
 7979 222a 74       		.byte	0x74
 7980 222b 00       		.sleb128 0
 7981 222c 2D       		.uleb128 0x2d
 7982 222d 01       		.uleb128 0x1
 7983 222e 50       		.byte	0x50
 7984 222f 02       		.uleb128 0x2
 7985 2230 7D       		.byte	0x7d
 7986 2231 00       		.sleb128 0
 7987 2232 00       		.byte	0
 7988 2233 32       		.uleb128 0x32
 7989 2234 7E000000 		.4byte	.LVL90
 7990 2238 99440000 		.4byte	0x4499
 7991 223c 50220000 		.4byte	0x2250
 7992 2240 2D       		.uleb128 0x2d
 7993 2241 01       		.uleb128 0x1
 7994 2242 51       		.byte	0x51
 7995 2243 05       		.uleb128 0x5
 7996 2244 03       		.byte	0x3
 7997 2245 BD000000 		.4byte	.LC20
 7998 2249 2D       		.uleb128 0x2d
 7999 224a 01       		.uleb128 0x1
 8000 224b 50       		.byte	0x50
 8001 224c 02       		.uleb128 0x2
 8002 224d 75       		.byte	0x75
 8003 224e 00       		.sleb128 0
 8004 224f 00       		.byte	0
 8005 2250 32       		.uleb128 0x32
 8006 2251 86000000 		.4byte	.LVL91
 8007 2255 04450000 		.4byte	0x4504
 8008 2259 64220000 		.4byte	0x2264
 8009 225d 2D       		.uleb128 0x2d
 8010 225e 01       		.uleb128 0x1
 8011 225f 50       		.byte	0x50
 8012 2260 02       		.uleb128 0x2
 8013 2261 74       		.byte	0x74
 8014 2262 00       		.sleb128 0
 8015 2263 00       		.byte	0
 8016 2264 32       		.uleb128 0x32
 8017 2265 92000000 		.4byte	.LVL93
 8018 2269 99440000 		.4byte	0x4499
 8019 226d 81220000 		.4byte	0x2281
 8020 2271 2D       		.uleb128 0x2d
 8021 2272 01       		.uleb128 0x1
 8022 2273 51       		.byte	0x51
ARM GAS  C:\Users\AHMED~1.ELE\AppData\Local\Temp\ccpjtoUe.s 			page 173


 8023 2274 05       		.uleb128 0x5
 8024 2275 03       		.byte	0x3
 8025 2276 C6000000 		.4byte	.LC21
 8026 227a 2D       		.uleb128 0x2d
 8027 227b 01       		.uleb128 0x1
 8028 227c 50       		.byte	0x50
 8029 227d 02       		.uleb128 0x2
 8030 227e 75       		.byte	0x75
 8031 227f 00       		.sleb128 0
 8032 2280 00       		.byte	0
 8033 2281 32       		.uleb128 0x32
 8034 2282 9A000000 		.4byte	.LVL94
 8035 2286 B3440000 		.4byte	0x44b3
 8036 228a 95220000 		.4byte	0x2295
 8037 228e 2D       		.uleb128 0x2d
 8038 228f 01       		.uleb128 0x1
 8039 2290 50       		.byte	0x50
 8040 2291 02       		.uleb128 0x2
 8041 2292 74       		.byte	0x74
 8042 2293 00       		.sleb128 0
 8043 2294 00       		.byte	0
 8044 2295 32       		.uleb128 0x32
 8045 2296 B6000000 		.4byte	.LVL97
 8046 229a 99440000 		.4byte	0x4499
 8047 229e B2220000 		.4byte	0x22b2
 8048 22a2 2D       		.uleb128 0x2d
 8049 22a3 01       		.uleb128 0x1
 8050 22a4 51       		.byte	0x51
 8051 22a5 05       		.uleb128 0x5
 8052 22a6 03       		.byte	0x3
 8053 22a7 CB000000 		.4byte	.LC22
 8054 22ab 2D       		.uleb128 0x2d
 8055 22ac 01       		.uleb128 0x1
 8056 22ad 50       		.byte	0x50
 8057 22ae 02       		.uleb128 0x2
 8058 22af 75       		.byte	0x75
 8059 22b0 00       		.sleb128 0
 8060 22b1 00       		.byte	0
 8061 22b2 32       		.uleb128 0x32
 8062 22b3 C6000000 		.4byte	.LVL98
 8063 22b7 99440000 		.4byte	0x4499
 8064 22bb CF220000 		.4byte	0x22cf
 8065 22bf 2D       		.uleb128 0x2d
 8066 22c0 01       		.uleb128 0x1
 8067 22c1 51       		.byte	0x51
 8068 22c2 05       		.uleb128 0x5
 8069 22c3 03       		.byte	0x3
 8070 22c4 D7000000 		.4byte	.LC23
 8071 22c8 2D       		.uleb128 0x2d
 8072 22c9 01       		.uleb128 0x1
 8073 22ca 50       		.byte	0x50
 8074 22cb 02       		.uleb128 0x2
 8075 22cc 75       		.byte	0x75
 8076 22cd 00       		.sleb128 0
 8077 22ce 00       		.byte	0
 8078 22cf 32       		.uleb128 0x32
 8079 22d0 DA000000 		.4byte	.LVL99
ARM GAS  C:\Users\AHMED~1.ELE\AppData\Local\Temp\ccpjtoUe.s 			page 174


 8080 22d4 99440000 		.4byte	0x4499
 8081 22d8 EC220000 		.4byte	0x22ec
 8082 22dc 2D       		.uleb128 0x2d
 8083 22dd 01       		.uleb128 0x1
 8084 22de 51       		.byte	0x51
 8085 22df 05       		.uleb128 0x5
 8086 22e0 03       		.byte	0x3
 8087 22e1 E6000000 		.4byte	.LC24
 8088 22e5 2D       		.uleb128 0x2d
 8089 22e6 01       		.uleb128 0x1
 8090 22e7 50       		.byte	0x50
 8091 22e8 02       		.uleb128 0x2
 8092 22e9 75       		.byte	0x75
 8093 22ea 00       		.sleb128 0
 8094 22eb 00       		.byte	0
 8095 22ec 33       		.uleb128 0x33
 8096 22ed E6000000 		.4byte	.LVL102
 8097 22f1 19450000 		.4byte	0x4519
 8098 22f5 00       		.byte	0
 8099 22f6 00       		.byte	0
 8100 22f7 32       		.uleb128 0x32
 8101 22f8 1C000000 		.4byte	.LVL83
 8102 22fc 99440000 		.4byte	0x4499
 8103 2300 0B230000 		.4byte	0x230b
 8104 2304 2D       		.uleb128 0x2d
 8105 2305 01       		.uleb128 0x1
 8106 2306 51       		.byte	0x51
 8107 2307 02       		.uleb128 0x2
 8108 2308 75       		.byte	0x75
 8109 2309 00       		.sleb128 0
 8110 230a 00       		.byte	0
 8111 230b 32       		.uleb128 0x32
 8112 230c 2A000000 		.4byte	.LVL85
 8113 2310 99440000 		.4byte	0x4499
 8114 2314 28230000 		.4byte	0x2328
 8115 2318 2D       		.uleb128 0x2d
 8116 2319 01       		.uleb128 0x1
 8117 231a 51       		.byte	0x51
 8118 231b 05       		.uleb128 0x5
 8119 231c 03       		.byte	0x3
 8120 231d EF000000 		.4byte	.LC25
 8121 2321 2D       		.uleb128 0x2d
 8122 2322 01       		.uleb128 0x1
 8123 2323 50       		.byte	0x50
 8124 2324 02       		.uleb128 0x2
 8125 2325 75       		.byte	0x75
 8126 2326 00       		.sleb128 0
 8127 2327 00       		.byte	0
 8128 2328 2C       		.uleb128 0x2c
 8129 2329 38000000 		.4byte	.LVL86
 8130 232d 99440000 		.4byte	0x4499
 8131 2331 2D       		.uleb128 0x2d
 8132 2332 01       		.uleb128 0x1
 8133 2333 51       		.byte	0x51
 8134 2334 05       		.uleb128 0x5
 8135 2335 03       		.byte	0x3
 8136 2336 AE000000 		.4byte	.LC18
ARM GAS  C:\Users\AHMED~1.ELE\AppData\Local\Temp\ccpjtoUe.s 			page 175


 8137 233a 2D       		.uleb128 0x2d
 8138 233b 01       		.uleb128 0x1
 8139 233c 50       		.byte	0x50
 8140 233d 02       		.uleb128 0x2
 8141 233e 75       		.byte	0x75
 8142 233f 00       		.sleb128 0
 8143 2340 00       		.byte	0
 8144 2341 00       		.byte	0
 8145 2342 2E       		.uleb128 0x2e
 8146 2343 CF050000 		.4byte	.LASF747
 8147 2347 01       		.byte	0x1
 8148 2348 0F02     		.2byte	0x20f
 8149 234a 37190000 		.4byte	0x1937
 8150 234e 00000000 		.4byte	.LFB5
 8151 2352 A0000000 		.4byte	.LFE5-.LFB5
 8152 2356 01       		.uleb128 0x1
 8153 2357 9C       		.byte	0x9c
 8154 2358 F0240000 		.4byte	0x24f0
 8155 235c 2F       		.uleb128 0x2f
 8156 235d CA100000 		.4byte	.LASF748
 8157 2361 01       		.byte	0x1
 8158 2362 0F02     		.2byte	0x20f
 8159 2364 37190000 		.4byte	0x1937
 8160 2368 91060000 		.4byte	.LLST46
 8161 236c 2F       		.uleb128 0x2f
 8162 236d F9250000 		.4byte	.LASF749
 8163 2371 01       		.byte	0x1
 8164 2372 0F02     		.2byte	0x20f
 8165 2374 37190000 		.4byte	0x1937
 8166 2378 BD060000 		.4byte	.LLST47
 8167 237c 2F       		.uleb128 0x2f
 8168 237d 08120000 		.4byte	.LASF750
 8169 2381 01       		.byte	0x1
 8170 2382 0F02     		.2byte	0x20f
 8171 2384 37190000 		.4byte	0x1937
 8172 2388 1D070000 		.4byte	.LLST48
 8173 238c 28       		.uleb128 0x28
 8174 238d 62756600 		.ascii	"buf\000"
 8175 2391 01       		.byte	0x1
 8176 2392 1102     		.2byte	0x211
 8177 2394 04010000 		.4byte	0x104
 8178 2398 31       		.uleb128 0x31
 8179 2399 851D0000 		.4byte	.LASF686
 8180 239d 01       		.byte	0x1
 8181 239e 1202     		.2byte	0x212
 8182 23a0 DE000000 		.4byte	0xde
 8183 23a4 3E070000 		.4byte	.LLST49
 8184 23a8 3B       		.uleb128 0x3b
 8185 23a9 D9140000 		.4byte	.LASF751
 8186 23ad 01       		.byte	0x1
 8187 23ae 1302     		.2byte	0x213
 8188 23b0 A2000000 		.4byte	0xa2
 8189 23b4 02       		.uleb128 0x2
 8190 23b5 91       		.byte	0x91
 8191 23b6 63       		.sleb128 -29
 8192 23b7 3B       		.uleb128 0x3b
 8193 23b8 F5320000 		.4byte	.LASF752
ARM GAS  C:\Users\AHMED~1.ELE\AppData\Local\Temp\ccpjtoUe.s 			page 176


 8194 23bc 01       		.byte	0x1
 8195 23bd 1402     		.2byte	0x214
 8196 23bf AD000000 		.4byte	0xad
 8197 23c3 02       		.uleb128 0x2
 8198 23c4 91       		.byte	0x91
 8199 23c5 64       		.sleb128 -28
 8200 23c6 3B       		.uleb128 0x3b
 8201 23c7 96080000 		.4byte	.LASF753
 8202 23cb 01       		.byte	0x1
 8203 23cc 1402     		.2byte	0x214
 8204 23ce AD000000 		.4byte	0xad
 8205 23d2 02       		.uleb128 0x2
 8206 23d3 91       		.byte	0x91
 8207 23d4 66       		.sleb128 -26
 8208 23d5 31       		.uleb128 0x31
 8209 23d6 581D0000 		.4byte	.LASF754
 8210 23da 01       		.byte	0x1
 8211 23db 1502     		.2byte	0x215
 8212 23dd 37190000 		.4byte	0x1937
 8213 23e1 5C070000 		.4byte	.LLST50
 8214 23e5 31       		.uleb128 0x31
 8215 23e6 39250000 		.4byte	.LASF755
 8216 23ea 01       		.byte	0x1
 8217 23eb 1502     		.2byte	0x215
 8218 23ed 37190000 		.4byte	0x1937
 8219 23f1 A6070000 		.4byte	.LLST51
 8220 23f5 31       		.uleb128 0x31
 8221 23f6 420F0000 		.4byte	.LASF756
 8222 23fa 01       		.byte	0x1
 8223 23fb 1602     		.2byte	0x216
 8224 23fd F0240000 		.4byte	0x24f0
 8225 2401 B9070000 		.4byte	.LLST52
 8226 2405 32       		.uleb128 0x32
 8227 2406 12000000 		.4byte	.LVL108
 8228 240a 63450000 		.4byte	0x4563
 8229 240e 20240000 		.4byte	0x2420
 8230 2412 2D       		.uleb128 0x2d
 8231 2413 01       		.uleb128 0x1
 8232 2414 51       		.byte	0x51
 8233 2415 03       		.uleb128 0x3
 8234 2416 0A       		.byte	0xa
 8235 2417 8801     		.2byte	0x188
 8236 2419 2D       		.uleb128 0x2d
 8237 241a 01       		.uleb128 0x1
 8238 241b 50       		.byte	0x50
 8239 241c 02       		.uleb128 0x2
 8240 241d 08       		.byte	0x8
 8241 241e 92       		.byte	0x92
 8242 241f 00       		.byte	0
 8243 2420 32       		.uleb128 0x32
 8244 2421 22000000 		.4byte	.LVL109
 8245 2425 7D450000 		.4byte	0x457d
 8246 2429 40240000 		.4byte	0x2440
 8247 242d 2D       		.uleb128 0x2d
 8248 242e 01       		.uleb128 0x1
 8249 242f 52       		.byte	0x52
 8250 2430 03       		.uleb128 0x3
ARM GAS  C:\Users\AHMED~1.ELE\AppData\Local\Temp\ccpjtoUe.s 			page 177


 8251 2431 0A       		.byte	0xa
 8252 2432 8801     		.2byte	0x188
 8253 2434 2D       		.uleb128 0x2d
 8254 2435 01       		.uleb128 0x1
 8255 2436 51       		.byte	0x51
 8256 2437 01       		.uleb128 0x1
 8257 2438 30       		.byte	0x30
 8258 2439 2D       		.uleb128 0x2d
 8259 243a 01       		.uleb128 0x1
 8260 243b 50       		.byte	0x50
 8261 243c 02       		.uleb128 0x2
 8262 243d 74       		.byte	0x74
 8263 243e 00       		.sleb128 0
 8264 243f 00       		.byte	0
 8265 2440 32       		.uleb128 0x32
 8266 2441 2C000000 		.4byte	.LVL110
 8267 2445 9A450000 		.4byte	0x459a
 8268 2449 5F240000 		.4byte	0x245f
 8269 244d 2D       		.uleb128 0x2d
 8270 244e 01       		.uleb128 0x1
 8271 244f 52       		.byte	0x52
 8272 2450 01       		.uleb128 0x1
 8273 2451 30       		.byte	0x30
 8274 2452 2D       		.uleb128 0x2d
 8275 2453 01       		.uleb128 0x1
 8276 2454 51       		.byte	0x51
 8277 2455 02       		.uleb128 0x2
 8278 2456 77       		.byte	0x77
 8279 2457 00       		.sleb128 0
 8280 2458 2D       		.uleb128 0x2d
 8281 2459 01       		.uleb128 0x1
 8282 245a 50       		.byte	0x50
 8283 245b 02       		.uleb128 0x2
 8284 245c 76       		.byte	0x76
 8285 245d 00       		.sleb128 0
 8286 245e 00       		.byte	0
 8287 245f 32       		.uleb128 0x32
 8288 2460 38000000 		.4byte	.LVL112
 8289 2464 9A450000 		.4byte	0x459a
 8290 2468 7E240000 		.4byte	0x247e
 8291 246c 2D       		.uleb128 0x2d
 8292 246d 01       		.uleb128 0x1
 8293 246e 52       		.byte	0x52
 8294 246f 01       		.uleb128 0x1
 8295 2470 31       		.byte	0x31
 8296 2471 2D       		.uleb128 0x2d
 8297 2472 01       		.uleb128 0x1
 8298 2473 51       		.byte	0x51
 8299 2474 02       		.uleb128 0x2
 8300 2475 77       		.byte	0x77
 8301 2476 00       		.sleb128 0
 8302 2477 2D       		.uleb128 0x2d
 8303 2478 01       		.uleb128 0x1
 8304 2479 50       		.byte	0x50
 8305 247a 02       		.uleb128 0x2
 8306 247b 76       		.byte	0x76
 8307 247c 00       		.sleb128 0
ARM GAS  C:\Users\AHMED~1.ELE\AppData\Local\Temp\ccpjtoUe.s 			page 178


 8308 247d 00       		.byte	0
 8309 247e 33       		.uleb128 0x33
 8310 247f 4E000000 		.4byte	.LVL117
 8311 2483 BA450000 		.4byte	0x45ba
 8312 2487 32       		.uleb128 0x32
 8313 2488 68000000 		.4byte	.LVL119
 8314 248c 661B0000 		.4byte	0x1b66
 8315 2490 B1240000 		.4byte	0x24b1
 8316 2494 2D       		.uleb128 0x2d
 8317 2495 01       		.uleb128 0x1
 8318 2496 53       		.byte	0x53
 8319 2497 02       		.uleb128 0x2
 8320 2498 91       		.byte	0x91
 8321 2499 64       		.sleb128 -28
 8322 249a 2D       		.uleb128 0x2d
 8323 249b 01       		.uleb128 0x1
 8324 249c 52       		.byte	0x52
 8325 249d 02       		.uleb128 0x2
 8326 249e 91       		.byte	0x91
 8327 249f 63       		.sleb128 -29
 8328 24a0 2D       		.uleb128 0x2d
 8329 24a1 01       		.uleb128 0x1
 8330 24a2 50       		.byte	0x50
 8331 24a3 05       		.uleb128 0x5
 8332 24a4 03       		.byte	0x3
 8333 24a5 00000000 		.4byte	.LANCHOR0
 8334 24a9 2D       		.uleb128 0x2d
 8335 24aa 02       		.uleb128 0x2
 8336 24ab 7D       		.byte	0x7d
 8337 24ac 00       		.sleb128 0
 8338 24ad 02       		.uleb128 0x2
 8339 24ae 91       		.byte	0x91
 8340 24af 66       		.sleb128 -26
 8341 24b0 00       		.byte	0
 8342 24b1 32       		.uleb128 0x32
 8343 24b2 80000000 		.4byte	.LVL120
 8344 24b6 F01B0000 		.4byte	0x1bf0
 8345 24ba C5240000 		.4byte	0x24c5
 8346 24be 2D       		.uleb128 0x2d
 8347 24bf 01       		.uleb128 0x1
 8348 24c0 53       		.byte	0x53
 8349 24c1 02       		.uleb128 0x2
 8350 24c2 76       		.byte	0x76
 8351 24c3 00       		.sleb128 0
 8352 24c4 00       		.byte	0
 8353 24c5 32       		.uleb128 0x32
 8354 24c6 8A000000 		.4byte	.LVL124
 8355 24ca DA450000 		.4byte	0x45da
 8356 24ce D9240000 		.4byte	0x24d9
 8357 24d2 2D       		.uleb128 0x2d
 8358 24d3 01       		.uleb128 0x1
 8359 24d4 50       		.byte	0x50
 8360 24d5 02       		.uleb128 0x2
 8361 24d6 74       		.byte	0x74
 8362 24d7 00       		.sleb128 0
 8363 24d8 00       		.byte	0
 8364 24d9 2C       		.uleb128 0x2c
ARM GAS  C:\Users\AHMED~1.ELE\AppData\Local\Temp\ccpjtoUe.s 			page 179


 8365 24da 92000000 		.4byte	.LVL125
 8366 24de 63450000 		.4byte	0x4563
 8367 24e2 2D       		.uleb128 0x2d
 8368 24e3 01       		.uleb128 0x1
 8369 24e4 51       		.byte	0x51
 8370 24e5 02       		.uleb128 0x2
 8371 24e6 74       		.byte	0x74
 8372 24e7 00       		.sleb128 0
 8373 24e8 2D       		.uleb128 0x2d
 8374 24e9 01       		.uleb128 0x1
 8375 24ea 50       		.byte	0x50
 8376 24eb 02       		.uleb128 0x2
 8377 24ec 08       		.byte	0x8
 8378 24ed 94       		.byte	0x94
 8379 24ee 00       		.byte	0
 8380 24ef 00       		.byte	0
 8381 24f0 06       		.uleb128 0x6
 8382 24f1 04       		.byte	0x4
 8383 24f2 A9100000 		.4byte	0x10a9
 8384 24f6 2E       		.uleb128 0x2e
 8385 24f7 BC100000 		.4byte	.LASF757
 8386 24fb 01       		.byte	0x1
 8387 24fc 4702     		.2byte	0x247
 8388 24fe 37190000 		.4byte	0x1937
 8389 2502 00000000 		.4byte	.LFB6
 8390 2506 D0000000 		.4byte	.LFE6-.LFB6
 8391 250a 01       		.uleb128 0x1
 8392 250b 9C       		.byte	0x9c
 8393 250c 12270000 		.4byte	0x2712
 8394 2510 2F       		.uleb128 0x2f
 8395 2511 CA100000 		.4byte	.LASF748
 8396 2515 01       		.byte	0x1
 8397 2516 4702     		.2byte	0x247
 8398 2518 37190000 		.4byte	0x1937
 8399 251c D7070000 		.4byte	.LLST53
 8400 2520 2F       		.uleb128 0x2f
 8401 2521 F9250000 		.4byte	.LASF749
 8402 2525 01       		.byte	0x1
 8403 2526 4702     		.2byte	0x247
 8404 2528 37190000 		.4byte	0x1937
 8405 252c 03080000 		.4byte	.LLST54
 8406 2530 2F       		.uleb128 0x2f
 8407 2531 08120000 		.4byte	.LASF750
 8408 2535 01       		.byte	0x1
 8409 2536 4702     		.2byte	0x247
 8410 2538 37190000 		.4byte	0x1937
 8411 253c 63080000 		.4byte	.LLST55
 8412 2540 31       		.uleb128 0x31
 8413 2541 851D0000 		.4byte	.LASF686
 8414 2545 01       		.byte	0x1
 8415 2546 4A02     		.2byte	0x24a
 8416 2548 DE000000 		.4byte	0xde
 8417 254c 84080000 		.4byte	.LLST56
 8418 2550 3B       		.uleb128 0x3b
 8419 2551 D9140000 		.4byte	.LASF751
 8420 2555 01       		.byte	0x1
 8421 2556 4B02     		.2byte	0x24b
ARM GAS  C:\Users\AHMED~1.ELE\AppData\Local\Temp\ccpjtoUe.s 			page 180


 8422 2558 A2000000 		.4byte	0xa2
 8423 255c 02       		.uleb128 0x2
 8424 255d 91       		.byte	0x91
 8425 255e 63       		.sleb128 -29
 8426 255f 3B       		.uleb128 0x3b
 8427 2560 F5320000 		.4byte	.LASF752
 8428 2564 01       		.byte	0x1
 8429 2565 4C02     		.2byte	0x24c
 8430 2567 AD000000 		.4byte	0xad
 8431 256b 02       		.uleb128 0x2
 8432 256c 91       		.byte	0x91
 8433 256d 64       		.sleb128 -28
 8434 256e 3B       		.uleb128 0x3b
 8435 256f 96080000 		.4byte	.LASF753
 8436 2573 01       		.byte	0x1
 8437 2574 4C02     		.2byte	0x24c
 8438 2576 AD000000 		.4byte	0xad
 8439 257a 02       		.uleb128 0x2
 8440 257b 91       		.byte	0x91
 8441 257c 66       		.sleb128 -26
 8442 257d 31       		.uleb128 0x31
 8443 257e 581D0000 		.4byte	.LASF754
 8444 2582 01       		.byte	0x1
 8445 2583 4D02     		.2byte	0x24d
 8446 2585 37190000 		.4byte	0x1937
 8447 2589 A2080000 		.4byte	.LLST57
 8448 258d 31       		.uleb128 0x31
 8449 258e 39250000 		.4byte	.LASF755
 8450 2592 01       		.byte	0x1
 8451 2593 4D02     		.2byte	0x24d
 8452 2595 37190000 		.4byte	0x1937
 8453 2599 EC080000 		.4byte	.LLST58
 8454 259d 31       		.uleb128 0x31
 8455 259e 420F0000 		.4byte	.LASF756
 8456 25a2 01       		.byte	0x1
 8457 25a3 4E02     		.2byte	0x24e
 8458 25a5 12270000 		.4byte	0x2712
 8459 25a9 FF080000 		.4byte	.LLST59
 8460 25ad 32       		.uleb128 0x32
 8461 25ae 10000000 		.4byte	.LVL131
 8462 25b2 63450000 		.4byte	0x4563
 8463 25b6 C7250000 		.4byte	0x25c7
 8464 25ba 2D       		.uleb128 0x2d
 8465 25bb 01       		.uleb128 0x1
 8466 25bc 51       		.byte	0x51
 8467 25bd 02       		.uleb128 0x2
 8468 25be 08       		.byte	0x8
 8469 25bf AC       		.byte	0xac
 8470 25c0 2D       		.uleb128 0x2d
 8471 25c1 01       		.uleb128 0x1
 8472 25c2 50       		.byte	0x50
 8473 25c3 02       		.uleb128 0x2
 8474 25c4 08       		.byte	0x8
 8475 25c5 92       		.byte	0x92
 8476 25c6 00       		.byte	0
 8477 25c7 32       		.uleb128 0x32
 8478 25c8 1E000000 		.4byte	.LVL132
ARM GAS  C:\Users\AHMED~1.ELE\AppData\Local\Temp\ccpjtoUe.s 			page 181


 8479 25cc 7D450000 		.4byte	0x457d
 8480 25d0 E6250000 		.4byte	0x25e6
 8481 25d4 2D       		.uleb128 0x2d
 8482 25d5 01       		.uleb128 0x1
 8483 25d6 52       		.byte	0x52
 8484 25d7 02       		.uleb128 0x2
 8485 25d8 08       		.byte	0x8
 8486 25d9 AC       		.byte	0xac
 8487 25da 2D       		.uleb128 0x2d
 8488 25db 01       		.uleb128 0x1
 8489 25dc 51       		.byte	0x51
 8490 25dd 01       		.uleb128 0x1
 8491 25de 30       		.byte	0x30
 8492 25df 2D       		.uleb128 0x2d
 8493 25e0 01       		.uleb128 0x1
 8494 25e1 50       		.byte	0x50
 8495 25e2 02       		.uleb128 0x2
 8496 25e3 74       		.byte	0x74
 8497 25e4 00       		.sleb128 0
 8498 25e5 00       		.byte	0
 8499 25e6 32       		.uleb128 0x32
 8500 25e7 2A000000 		.4byte	.LVL133
 8501 25eb C8440000 		.4byte	0x44c8
 8502 25ef 05260000 		.4byte	0x2605
 8503 25f3 2D       		.uleb128 0x2d
 8504 25f4 01       		.uleb128 0x1
 8505 25f5 52       		.byte	0x52
 8506 25f6 01       		.uleb128 0x1
 8507 25f7 3C       		.byte	0x3c
 8508 25f8 2D       		.uleb128 0x2d
 8509 25f9 01       		.uleb128 0x1
 8510 25fa 51       		.byte	0x51
 8511 25fb 02       		.uleb128 0x2
 8512 25fc 08       		.byte	0x8
 8513 25fd FF       		.byte	0xff
 8514 25fe 2D       		.uleb128 0x2d
 8515 25ff 01       		.uleb128 0x1
 8516 2600 50       		.byte	0x50
 8517 2601 02       		.uleb128 0x2
 8518 2602 74       		.byte	0x74
 8519 2603 15       		.sleb128 21
 8520 2604 00       		.byte	0
 8521 2605 32       		.uleb128 0x32
 8522 2606 36000000 		.4byte	.LVL134
 8523 260a C8440000 		.4byte	0x44c8
 8524 260e 24260000 		.4byte	0x2624
 8525 2612 2D       		.uleb128 0x2d
 8526 2613 01       		.uleb128 0x1
 8527 2614 52       		.byte	0x52
 8528 2615 01       		.uleb128 0x1
 8529 2616 3C       		.byte	0x3c
 8530 2617 2D       		.uleb128 0x2d
 8531 2618 01       		.uleb128 0x1
 8532 2619 51       		.byte	0x51
 8533 261a 02       		.uleb128 0x2
 8534 261b 08       		.byte	0x8
 8535 261c FF       		.byte	0xff
ARM GAS  C:\Users\AHMED~1.ELE\AppData\Local\Temp\ccpjtoUe.s 			page 182


 8536 261d 2D       		.uleb128 0x2d
 8537 261e 01       		.uleb128 0x1
 8538 261f 50       		.byte	0x50
 8539 2620 02       		.uleb128 0x2
 8540 2621 74       		.byte	0x74
 8541 2622 23       		.sleb128 35
 8542 2623 00       		.byte	0
 8543 2624 32       		.uleb128 0x32
 8544 2625 42000000 		.4byte	.LVL135
 8545 2629 C8440000 		.4byte	0x44c8
 8546 262d 43260000 		.4byte	0x2643
 8547 2631 2D       		.uleb128 0x2d
 8548 2632 01       		.uleb128 0x1
 8549 2633 52       		.byte	0x52
 8550 2634 01       		.uleb128 0x1
 8551 2635 3C       		.byte	0x3c
 8552 2636 2D       		.uleb128 0x2d
 8553 2637 01       		.uleb128 0x1
 8554 2638 51       		.byte	0x51
 8555 2639 02       		.uleb128 0x2
 8556 263a 08       		.byte	0x8
 8557 263b FF       		.byte	0xff
 8558 263c 2D       		.uleb128 0x2d
 8559 263d 01       		.uleb128 0x1
 8560 263e 50       		.byte	0x50
 8561 263f 02       		.uleb128 0x2
 8562 2640 74       		.byte	0x74
 8563 2641 31       		.sleb128 49
 8564 2642 00       		.byte	0
 8565 2643 32       		.uleb128 0x32
 8566 2644 4E000000 		.4byte	.LVL136
 8567 2648 C8440000 		.4byte	0x44c8
 8568 264c 62260000 		.4byte	0x2662
 8569 2650 2D       		.uleb128 0x2d
 8570 2651 01       		.uleb128 0x1
 8571 2652 52       		.byte	0x52
 8572 2653 01       		.uleb128 0x1
 8573 2654 3C       		.byte	0x3c
 8574 2655 2D       		.uleb128 0x2d
 8575 2656 01       		.uleb128 0x1
 8576 2657 51       		.byte	0x51
 8577 2658 02       		.uleb128 0x2
 8578 2659 08       		.byte	0x8
 8579 265a FF       		.byte	0xff
 8580 265b 2D       		.uleb128 0x2d
 8581 265c 01       		.uleb128 0x1
 8582 265d 50       		.byte	0x50
 8583 265e 02       		.uleb128 0x2
 8584 265f 74       		.byte	0x74
 8585 2660 3F       		.sleb128 63
 8586 2661 00       		.byte	0
 8587 2662 32       		.uleb128 0x32
 8588 2663 58000000 		.4byte	.LVL137
 8589 2667 9A450000 		.4byte	0x459a
 8590 266b 81260000 		.4byte	0x2681
 8591 266f 2D       		.uleb128 0x2d
 8592 2670 01       		.uleb128 0x1
ARM GAS  C:\Users\AHMED~1.ELE\AppData\Local\Temp\ccpjtoUe.s 			page 183


 8593 2671 52       		.byte	0x52
 8594 2672 01       		.uleb128 0x1
 8595 2673 30       		.byte	0x30
 8596 2674 2D       		.uleb128 0x2d
 8597 2675 01       		.uleb128 0x1
 8598 2676 51       		.byte	0x51
 8599 2677 02       		.uleb128 0x2
 8600 2678 77       		.byte	0x77
 8601 2679 00       		.sleb128 0
 8602 267a 2D       		.uleb128 0x2d
 8603 267b 01       		.uleb128 0x1
 8604 267c 50       		.byte	0x50
 8605 267d 02       		.uleb128 0x2
 8606 267e 76       		.byte	0x76
 8607 267f 00       		.sleb128 0
 8608 2680 00       		.byte	0
 8609 2681 32       		.uleb128 0x32
 8610 2682 64000000 		.4byte	.LVL139
 8611 2686 9A450000 		.4byte	0x459a
 8612 268a A0260000 		.4byte	0x26a0
 8613 268e 2D       		.uleb128 0x2d
 8614 268f 01       		.uleb128 0x1
 8615 2690 52       		.byte	0x52
 8616 2691 01       		.uleb128 0x1
 8617 2692 31       		.byte	0x31
 8618 2693 2D       		.uleb128 0x2d
 8619 2694 01       		.uleb128 0x1
 8620 2695 51       		.byte	0x51
 8621 2696 02       		.uleb128 0x2
 8622 2697 77       		.byte	0x77
 8623 2698 00       		.sleb128 0
 8624 2699 2D       		.uleb128 0x2d
 8625 269a 01       		.uleb128 0x1
 8626 269b 50       		.byte	0x50
 8627 269c 02       		.uleb128 0x2
 8628 269d 76       		.byte	0x76
 8629 269e 00       		.sleb128 0
 8630 269f 00       		.byte	0
 8631 26a0 33       		.uleb128 0x33
 8632 26a1 7A000000 		.4byte	.LVL144
 8633 26a5 BA450000 		.4byte	0x45ba
 8634 26a9 32       		.uleb128 0x32
 8635 26aa 94000000 		.4byte	.LVL146
 8636 26ae 661B0000 		.4byte	0x1b66
 8637 26b2 D3260000 		.4byte	0x26d3
 8638 26b6 2D       		.uleb128 0x2d
 8639 26b7 01       		.uleb128 0x1
 8640 26b8 53       		.byte	0x53
 8641 26b9 02       		.uleb128 0x2
 8642 26ba 91       		.byte	0x91
 8643 26bb 64       		.sleb128 -28
 8644 26bc 2D       		.uleb128 0x2d
 8645 26bd 01       		.uleb128 0x1
 8646 26be 52       		.byte	0x52
 8647 26bf 02       		.uleb128 0x2
 8648 26c0 91       		.byte	0x91
 8649 26c1 63       		.sleb128 -29
ARM GAS  C:\Users\AHMED~1.ELE\AppData\Local\Temp\ccpjtoUe.s 			page 184


 8650 26c2 2D       		.uleb128 0x2d
 8651 26c3 01       		.uleb128 0x1
 8652 26c4 50       		.byte	0x50
 8653 26c5 05       		.uleb128 0x5
 8654 26c6 03       		.byte	0x3
 8655 26c7 F8000000 		.4byte	.LANCHOR0+248
 8656 26cb 2D       		.uleb128 0x2d
 8657 26cc 02       		.uleb128 0x2
 8658 26cd 7D       		.byte	0x7d
 8659 26ce 00       		.sleb128 0
 8660 26cf 02       		.uleb128 0x2
 8661 26d0 91       		.byte	0x91
 8662 26d1 66       		.sleb128 -26
 8663 26d2 00       		.byte	0
 8664 26d3 32       		.uleb128 0x32
 8665 26d4 AC000000 		.4byte	.LVL147
 8666 26d8 F01B0000 		.4byte	0x1bf0
 8667 26dc E7260000 		.4byte	0x26e7
 8668 26e0 2D       		.uleb128 0x2d
 8669 26e1 01       		.uleb128 0x1
 8670 26e2 53       		.byte	0x53
 8671 26e3 02       		.uleb128 0x2
 8672 26e4 76       		.byte	0x76
 8673 26e5 00       		.sleb128 0
 8674 26e6 00       		.byte	0
 8675 26e7 32       		.uleb128 0x32
 8676 26e8 B8000000 		.4byte	.LVL151
 8677 26ec EF450000 		.4byte	0x45ef
 8678 26f0 FB260000 		.4byte	0x26fb
 8679 26f4 2D       		.uleb128 0x2d
 8680 26f5 01       		.uleb128 0x1
 8681 26f6 51       		.byte	0x51
 8682 26f7 02       		.uleb128 0x2
 8683 26f8 74       		.byte	0x74
 8684 26f9 00       		.sleb128 0
 8685 26fa 00       		.byte	0
 8686 26fb 2C       		.uleb128 0x2c
 8687 26fc C0000000 		.4byte	.LVL152
 8688 2700 63450000 		.4byte	0x4563
 8689 2704 2D       		.uleb128 0x2d
 8690 2705 01       		.uleb128 0x1
 8691 2706 51       		.byte	0x51
 8692 2707 02       		.uleb128 0x2
 8693 2708 74       		.byte	0x74
 8694 2709 00       		.sleb128 0
 8695 270a 2D       		.uleb128 0x2d
 8696 270b 01       		.uleb128 0x1
 8697 270c 50       		.byte	0x50
 8698 270d 02       		.uleb128 0x2
 8699 270e 08       		.byte	0x8
 8700 270f 94       		.byte	0x94
 8701 2710 00       		.byte	0
 8702 2711 00       		.byte	0
 8703 2712 06       		.uleb128 0x6
 8704 2713 04       		.byte	0x4
 8705 2714 7D130000 		.4byte	0x137d
 8706 2718 2E       		.uleb128 0x2e
ARM GAS  C:\Users\AHMED~1.ELE\AppData\Local\Temp\ccpjtoUe.s 			page 185


 8707 2719 392A0000 		.4byte	.LASF758
 8708 271d 01       		.byte	0x1
 8709 271e 8802     		.2byte	0x288
 8710 2720 37190000 		.4byte	0x1937
 8711 2724 00000000 		.4byte	.LFB7
 8712 2728 A0000000 		.4byte	.LFE7-.LFB7
 8713 272c 01       		.uleb128 0x1
 8714 272d 9C       		.byte	0x9c
 8715 272e B8280000 		.4byte	0x28b8
 8716 2732 2F       		.uleb128 0x2f
 8717 2733 CA100000 		.4byte	.LASF748
 8718 2737 01       		.byte	0x1
 8719 2738 8802     		.2byte	0x288
 8720 273a 37190000 		.4byte	0x1937
 8721 273e 1D090000 		.4byte	.LLST60
 8722 2742 2F       		.uleb128 0x2f
 8723 2743 F9250000 		.4byte	.LASF749
 8724 2747 01       		.byte	0x1
 8725 2748 8802     		.2byte	0x288
 8726 274a 37190000 		.4byte	0x1937
 8727 274e 49090000 		.4byte	.LLST61
 8728 2752 2F       		.uleb128 0x2f
 8729 2753 08120000 		.4byte	.LASF750
 8730 2757 01       		.byte	0x1
 8731 2758 8802     		.2byte	0x288
 8732 275a 37190000 		.4byte	0x1937
 8733 275e A9090000 		.4byte	.LLST62
 8734 2762 31       		.uleb128 0x31
 8735 2763 851D0000 		.4byte	.LASF686
 8736 2767 01       		.byte	0x1
 8737 2768 8B02     		.2byte	0x28b
 8738 276a DE000000 		.4byte	0xde
 8739 276e CA090000 		.4byte	.LLST63
 8740 2772 3B       		.uleb128 0x3b
 8741 2773 D9140000 		.4byte	.LASF751
 8742 2777 01       		.byte	0x1
 8743 2778 8C02     		.2byte	0x28c
 8744 277a A2000000 		.4byte	0xa2
 8745 277e 02       		.uleb128 0x2
 8746 277f 91       		.byte	0x91
 8747 2780 63       		.sleb128 -29
 8748 2781 3B       		.uleb128 0x3b
 8749 2782 F5320000 		.4byte	.LASF752
 8750 2786 01       		.byte	0x1
 8751 2787 8D02     		.2byte	0x28d
 8752 2789 AD000000 		.4byte	0xad
 8753 278d 02       		.uleb128 0x2
 8754 278e 91       		.byte	0x91
 8755 278f 64       		.sleb128 -28
 8756 2790 3B       		.uleb128 0x3b
 8757 2791 96080000 		.4byte	.LASF753
 8758 2795 01       		.byte	0x1
 8759 2796 8D02     		.2byte	0x28d
 8760 2798 AD000000 		.4byte	0xad
 8761 279c 02       		.uleb128 0x2
 8762 279d 91       		.byte	0x91
 8763 279e 66       		.sleb128 -26
ARM GAS  C:\Users\AHMED~1.ELE\AppData\Local\Temp\ccpjtoUe.s 			page 186


 8764 279f 31       		.uleb128 0x31
 8765 27a0 581D0000 		.4byte	.LASF754
 8766 27a4 01       		.byte	0x1
 8767 27a5 8E02     		.2byte	0x28e
 8768 27a7 37190000 		.4byte	0x1937
 8769 27ab E8090000 		.4byte	.LLST64
 8770 27af 31       		.uleb128 0x31
 8771 27b0 39250000 		.4byte	.LASF755
 8772 27b4 01       		.byte	0x1
 8773 27b5 8E02     		.2byte	0x28e
 8774 27b7 37190000 		.4byte	0x1937
 8775 27bb 320A0000 		.4byte	.LLST65
 8776 27bf 31       		.uleb128 0x31
 8777 27c0 420F0000 		.4byte	.LASF756
 8778 27c4 01       		.byte	0x1
 8779 27c5 8F02     		.2byte	0x28f
 8780 27c7 B8280000 		.4byte	0x28b8
 8781 27cb 450A0000 		.4byte	.LLST66
 8782 27cf 32       		.uleb128 0x32
 8783 27d0 10000000 		.4byte	.LVL158
 8784 27d4 63450000 		.4byte	0x4563
 8785 27d8 E9270000 		.4byte	0x27e9
 8786 27dc 2D       		.uleb128 0x2d
 8787 27dd 01       		.uleb128 0x1
 8788 27de 51       		.byte	0x51
 8789 27df 02       		.uleb128 0x2
 8790 27e0 08       		.byte	0x8
 8791 27e1 38       		.byte	0x38
 8792 27e2 2D       		.uleb128 0x2d
 8793 27e3 01       		.uleb128 0x1
 8794 27e4 50       		.byte	0x50
 8795 27e5 02       		.uleb128 0x2
 8796 27e6 08       		.byte	0x8
 8797 27e7 92       		.byte	0x92
 8798 27e8 00       		.byte	0
 8799 27e9 32       		.uleb128 0x32
 8800 27ea 1E000000 		.4byte	.LVL159
 8801 27ee 7D450000 		.4byte	0x457d
 8802 27f2 08280000 		.4byte	0x2808
 8803 27f6 2D       		.uleb128 0x2d
 8804 27f7 01       		.uleb128 0x1
 8805 27f8 52       		.byte	0x52
 8806 27f9 02       		.uleb128 0x2
 8807 27fa 08       		.byte	0x8
 8808 27fb 38       		.byte	0x38
 8809 27fc 2D       		.uleb128 0x2d
 8810 27fd 01       		.uleb128 0x1
 8811 27fe 51       		.byte	0x51
 8812 27ff 01       		.uleb128 0x1
 8813 2800 30       		.byte	0x30
 8814 2801 2D       		.uleb128 0x2d
 8815 2802 01       		.uleb128 0x1
 8816 2803 50       		.byte	0x50
 8817 2804 02       		.uleb128 0x2
 8818 2805 74       		.byte	0x74
 8819 2806 00       		.sleb128 0
 8820 2807 00       		.byte	0
ARM GAS  C:\Users\AHMED~1.ELE\AppData\Local\Temp\ccpjtoUe.s 			page 187


 8821 2808 32       		.uleb128 0x32
 8822 2809 28000000 		.4byte	.LVL160
 8823 280d 9A450000 		.4byte	0x459a
 8824 2811 27280000 		.4byte	0x2827
 8825 2815 2D       		.uleb128 0x2d
 8826 2816 01       		.uleb128 0x1
 8827 2817 52       		.byte	0x52
 8828 2818 01       		.uleb128 0x1
 8829 2819 30       		.byte	0x30
 8830 281a 2D       		.uleb128 0x2d
 8831 281b 01       		.uleb128 0x1
 8832 281c 51       		.byte	0x51
 8833 281d 02       		.uleb128 0x2
 8834 281e 77       		.byte	0x77
 8835 281f 00       		.sleb128 0
 8836 2820 2D       		.uleb128 0x2d
 8837 2821 01       		.uleb128 0x1
 8838 2822 50       		.byte	0x50
 8839 2823 02       		.uleb128 0x2
 8840 2824 76       		.byte	0x76
 8841 2825 00       		.sleb128 0
 8842 2826 00       		.byte	0
 8843 2827 32       		.uleb128 0x32
 8844 2828 34000000 		.4byte	.LVL162
 8845 282c 9A450000 		.4byte	0x459a
 8846 2830 46280000 		.4byte	0x2846
 8847 2834 2D       		.uleb128 0x2d
 8848 2835 01       		.uleb128 0x1
 8849 2836 52       		.byte	0x52
 8850 2837 01       		.uleb128 0x1
 8851 2838 31       		.byte	0x31
 8852 2839 2D       		.uleb128 0x2d
 8853 283a 01       		.uleb128 0x1
 8854 283b 51       		.byte	0x51
 8855 283c 02       		.uleb128 0x2
 8856 283d 77       		.byte	0x77
 8857 283e 00       		.sleb128 0
 8858 283f 2D       		.uleb128 0x2d
 8859 2840 01       		.uleb128 0x1
 8860 2841 50       		.byte	0x50
 8861 2842 02       		.uleb128 0x2
 8862 2843 76       		.byte	0x76
 8863 2844 00       		.sleb128 0
 8864 2845 00       		.byte	0
 8865 2846 33       		.uleb128 0x33
 8866 2847 4A000000 		.4byte	.LVL167
 8867 284b BA450000 		.4byte	0x45ba
 8868 284f 32       		.uleb128 0x32
 8869 2850 64000000 		.4byte	.LVL169
 8870 2854 661B0000 		.4byte	0x1b66
 8871 2858 79280000 		.4byte	0x2879
 8872 285c 2D       		.uleb128 0x2d
 8873 285d 01       		.uleb128 0x1
 8874 285e 53       		.byte	0x53
 8875 285f 02       		.uleb128 0x2
 8876 2860 91       		.byte	0x91
 8877 2861 64       		.sleb128 -28
ARM GAS  C:\Users\AHMED~1.ELE\AppData\Local\Temp\ccpjtoUe.s 			page 188


 8878 2862 2D       		.uleb128 0x2d
 8879 2863 01       		.uleb128 0x1
 8880 2864 52       		.byte	0x52
 8881 2865 02       		.uleb128 0x2
 8882 2866 91       		.byte	0x91
 8883 2867 63       		.sleb128 -29
 8884 2868 2D       		.uleb128 0x2d
 8885 2869 01       		.uleb128 0x1
 8886 286a 50       		.byte	0x50
 8887 286b 05       		.uleb128 0x5
 8888 286c 03       		.byte	0x3
 8889 286d D0010000 		.4byte	.LANCHOR0+464
 8890 2871 2D       		.uleb128 0x2d
 8891 2872 02       		.uleb128 0x2
 8892 2873 7D       		.byte	0x7d
 8893 2874 00       		.sleb128 0
 8894 2875 02       		.uleb128 0x2
 8895 2876 91       		.byte	0x91
 8896 2877 66       		.sleb128 -26
 8897 2878 00       		.byte	0
 8898 2879 32       		.uleb128 0x32
 8899 287a 7C000000 		.4byte	.LVL170
 8900 287e F01B0000 		.4byte	0x1bf0
 8901 2882 8D280000 		.4byte	0x288d
 8902 2886 2D       		.uleb128 0x2d
 8903 2887 01       		.uleb128 0x1
 8904 2888 53       		.byte	0x53
 8905 2889 02       		.uleb128 0x2
 8906 288a 76       		.byte	0x76
 8907 288b 00       		.sleb128 0
 8908 288c 00       		.byte	0
 8909 288d 32       		.uleb128 0x32
 8910 288e 88000000 		.4byte	.LVL174
 8911 2892 09460000 		.4byte	0x4609
 8912 2896 A1280000 		.4byte	0x28a1
 8913 289a 2D       		.uleb128 0x2d
 8914 289b 01       		.uleb128 0x1
 8915 289c 51       		.byte	0x51
 8916 289d 02       		.uleb128 0x2
 8917 289e 74       		.byte	0x74
 8918 289f 00       		.sleb128 0
 8919 28a0 00       		.byte	0
 8920 28a1 2C       		.uleb128 0x2c
 8921 28a2 90000000 		.4byte	.LVL175
 8922 28a6 63450000 		.4byte	0x4563
 8923 28aa 2D       		.uleb128 0x2d
 8924 28ab 01       		.uleb128 0x1
 8925 28ac 51       		.byte	0x51
 8926 28ad 02       		.uleb128 0x2
 8927 28ae 74       		.byte	0x74
 8928 28af 00       		.sleb128 0
 8929 28b0 2D       		.uleb128 0x2d
 8930 28b1 01       		.uleb128 0x1
 8931 28b2 50       		.byte	0x50
 8932 28b3 02       		.uleb128 0x2
 8933 28b4 08       		.byte	0x8
 8934 28b5 94       		.byte	0x94
ARM GAS  C:\Users\AHMED~1.ELE\AppData\Local\Temp\ccpjtoUe.s 			page 189


 8935 28b6 00       		.byte	0
 8936 28b7 00       		.byte	0
 8937 28b8 06       		.uleb128 0x6
 8938 28b9 04       		.byte	0x4
 8939 28ba FA120000 		.4byte	0x12fa
 8940 28be 2E       		.uleb128 0x2e
 8941 28bf 261F0000 		.4byte	.LASF759
 8942 28c3 01       		.byte	0x1
 8943 28c4 C002     		.2byte	0x2c0
 8944 28c6 37190000 		.4byte	0x1937
 8945 28ca 00000000 		.4byte	.LFB8
 8946 28ce A8000000 		.4byte	.LFE8-.LFB8
 8947 28d2 01       		.uleb128 0x1
 8948 28d3 9C       		.byte	0x9c
 8949 28d4 5E2A0000 		.4byte	0x2a5e
 8950 28d8 2F       		.uleb128 0x2f
 8951 28d9 CA100000 		.4byte	.LASF748
 8952 28dd 01       		.byte	0x1
 8953 28de C002     		.2byte	0x2c0
 8954 28e0 37190000 		.4byte	0x1937
 8955 28e4 630A0000 		.4byte	.LLST67
 8956 28e8 2F       		.uleb128 0x2f
 8957 28e9 F9250000 		.4byte	.LASF749
 8958 28ed 01       		.byte	0x1
 8959 28ee C002     		.2byte	0x2c0
 8960 28f0 37190000 		.4byte	0x1937
 8961 28f4 8F0A0000 		.4byte	.LLST68
 8962 28f8 2F       		.uleb128 0x2f
 8963 28f9 08120000 		.4byte	.LASF750
 8964 28fd 01       		.byte	0x1
 8965 28fe C002     		.2byte	0x2c0
 8966 2900 37190000 		.4byte	0x1937
 8967 2904 EF0A0000 		.4byte	.LLST69
 8968 2908 31       		.uleb128 0x31
 8969 2909 851D0000 		.4byte	.LASF686
 8970 290d 01       		.byte	0x1
 8971 290e C302     		.2byte	0x2c3
 8972 2910 DE000000 		.4byte	0xde
 8973 2914 100B0000 		.4byte	.LLST70
 8974 2918 3B       		.uleb128 0x3b
 8975 2919 D9140000 		.4byte	.LASF751
 8976 291d 01       		.byte	0x1
 8977 291e C402     		.2byte	0x2c4
 8978 2920 A2000000 		.4byte	0xa2
 8979 2924 02       		.uleb128 0x2
 8980 2925 91       		.byte	0x91
 8981 2926 63       		.sleb128 -29
 8982 2927 3B       		.uleb128 0x3b
 8983 2928 F5320000 		.4byte	.LASF752
 8984 292c 01       		.byte	0x1
 8985 292d C502     		.2byte	0x2c5
 8986 292f AD000000 		.4byte	0xad
 8987 2933 02       		.uleb128 0x2
 8988 2934 91       		.byte	0x91
 8989 2935 64       		.sleb128 -28
 8990 2936 3B       		.uleb128 0x3b
 8991 2937 96080000 		.4byte	.LASF753
ARM GAS  C:\Users\AHMED~1.ELE\AppData\Local\Temp\ccpjtoUe.s 			page 190


 8992 293b 01       		.byte	0x1
 8993 293c C502     		.2byte	0x2c5
 8994 293e AD000000 		.4byte	0xad
 8995 2942 02       		.uleb128 0x2
 8996 2943 91       		.byte	0x91
 8997 2944 66       		.sleb128 -26
 8998 2945 31       		.uleb128 0x31
 8999 2946 581D0000 		.4byte	.LASF754
 9000 294a 01       		.byte	0x1
 9001 294b C602     		.2byte	0x2c6
 9002 294d 37190000 		.4byte	0x1937
 9003 2951 2E0B0000 		.4byte	.LLST71
 9004 2955 31       		.uleb128 0x31
 9005 2956 39250000 		.4byte	.LASF755
 9006 295a 01       		.byte	0x1
 9007 295b C602     		.2byte	0x2c6
 9008 295d 37190000 		.4byte	0x1937
 9009 2961 780B0000 		.4byte	.LLST72
 9010 2965 31       		.uleb128 0x31
 9011 2966 420F0000 		.4byte	.LASF756
 9012 296a 01       		.byte	0x1
 9013 296b C702     		.2byte	0x2c7
 9014 296d 5E2A0000 		.4byte	0x2a5e
 9015 2971 8B0B0000 		.4byte	.LLST73
 9016 2975 32       		.uleb128 0x32
 9017 2976 10000000 		.4byte	.LVL181
 9018 297a 63450000 		.4byte	0x4563
 9019 297e 8F290000 		.4byte	0x298f
 9020 2982 2D       		.uleb128 0x2d
 9021 2983 01       		.uleb128 0x1
 9022 2984 51       		.byte	0x51
 9023 2985 02       		.uleb128 0x2
 9024 2986 08       		.byte	0x8
 9025 2987 24       		.byte	0x24
 9026 2988 2D       		.uleb128 0x2d
 9027 2989 01       		.uleb128 0x1
 9028 298a 50       		.byte	0x50
 9029 298b 02       		.uleb128 0x2
 9030 298c 08       		.byte	0x8
 9031 298d 92       		.byte	0x92
 9032 298e 00       		.byte	0
 9033 298f 32       		.uleb128 0x32
 9034 2990 1E000000 		.4byte	.LVL182
 9035 2994 7D450000 		.4byte	0x457d
 9036 2998 AE290000 		.4byte	0x29ae
 9037 299c 2D       		.uleb128 0x2d
 9038 299d 01       		.uleb128 0x1
 9039 299e 52       		.byte	0x52
 9040 299f 02       		.uleb128 0x2
 9041 29a0 08       		.byte	0x8
 9042 29a1 24       		.byte	0x24
 9043 29a2 2D       		.uleb128 0x2d
 9044 29a3 01       		.uleb128 0x1
 9045 29a4 51       		.byte	0x51
 9046 29a5 01       		.uleb128 0x1
 9047 29a6 30       		.byte	0x30
 9048 29a7 2D       		.uleb128 0x2d
ARM GAS  C:\Users\AHMED~1.ELE\AppData\Local\Temp\ccpjtoUe.s 			page 191


 9049 29a8 01       		.uleb128 0x1
 9050 29a9 50       		.byte	0x50
 9051 29aa 02       		.uleb128 0x2
 9052 29ab 74       		.byte	0x74
 9053 29ac 00       		.sleb128 0
 9054 29ad 00       		.byte	0
 9055 29ae 32       		.uleb128 0x32
 9056 29af 28000000 		.4byte	.LVL183
 9057 29b3 9A450000 		.4byte	0x459a
 9058 29b7 CD290000 		.4byte	0x29cd
 9059 29bb 2D       		.uleb128 0x2d
 9060 29bc 01       		.uleb128 0x1
 9061 29bd 52       		.byte	0x52
 9062 29be 01       		.uleb128 0x1
 9063 29bf 30       		.byte	0x30
 9064 29c0 2D       		.uleb128 0x2d
 9065 29c1 01       		.uleb128 0x1
 9066 29c2 51       		.byte	0x51
 9067 29c3 02       		.uleb128 0x2
 9068 29c4 77       		.byte	0x77
 9069 29c5 00       		.sleb128 0
 9070 29c6 2D       		.uleb128 0x2d
 9071 29c7 01       		.uleb128 0x1
 9072 29c8 50       		.byte	0x50
 9073 29c9 02       		.uleb128 0x2
 9074 29ca 76       		.byte	0x76
 9075 29cb 00       		.sleb128 0
 9076 29cc 00       		.byte	0
 9077 29cd 32       		.uleb128 0x32
 9078 29ce 34000000 		.4byte	.LVL185
 9079 29d2 9A450000 		.4byte	0x459a
 9080 29d6 EC290000 		.4byte	0x29ec
 9081 29da 2D       		.uleb128 0x2d
 9082 29db 01       		.uleb128 0x1
 9083 29dc 52       		.byte	0x52
 9084 29dd 01       		.uleb128 0x1
 9085 29de 31       		.byte	0x31
 9086 29df 2D       		.uleb128 0x2d
 9087 29e0 01       		.uleb128 0x1
 9088 29e1 51       		.byte	0x51
 9089 29e2 02       		.uleb128 0x2
 9090 29e3 77       		.byte	0x77
 9091 29e4 00       		.sleb128 0
 9092 29e5 2D       		.uleb128 0x2d
 9093 29e6 01       		.uleb128 0x1
 9094 29e7 50       		.byte	0x50
 9095 29e8 02       		.uleb128 0x2
 9096 29e9 76       		.byte	0x76
 9097 29ea 00       		.sleb128 0
 9098 29eb 00       		.byte	0
 9099 29ec 33       		.uleb128 0x33
 9100 29ed 4A000000 		.4byte	.LVL190
 9101 29f1 BA450000 		.4byte	0x45ba
 9102 29f5 32       		.uleb128 0x32
 9103 29f6 64000000 		.4byte	.LVL192
 9104 29fa 661B0000 		.4byte	0x1b66
 9105 29fe 1F2A0000 		.4byte	0x2a1f
ARM GAS  C:\Users\AHMED~1.ELE\AppData\Local\Temp\ccpjtoUe.s 			page 192


 9106 2a02 2D       		.uleb128 0x2d
 9107 2a03 01       		.uleb128 0x1
 9108 2a04 53       		.byte	0x53
 9109 2a05 02       		.uleb128 0x2
 9110 2a06 91       		.byte	0x91
 9111 2a07 64       		.sleb128 -28
 9112 2a08 2D       		.uleb128 0x2d
 9113 2a09 01       		.uleb128 0x1
 9114 2a0a 52       		.byte	0x52
 9115 2a0b 02       		.uleb128 0x2
 9116 2a0c 91       		.byte	0x91
 9117 2a0d 63       		.sleb128 -29
 9118 2a0e 2D       		.uleb128 0x2d
 9119 2a0f 01       		.uleb128 0x1
 9120 2a10 50       		.byte	0x50
 9121 2a11 05       		.uleb128 0x5
 9122 2a12 03       		.byte	0x3
 9123 2a13 18020000 		.4byte	.LANCHOR0+536
 9124 2a17 2D       		.uleb128 0x2d
 9125 2a18 02       		.uleb128 0x2
 9126 2a19 7D       		.byte	0x7d
 9127 2a1a 00       		.sleb128 0
 9128 2a1b 02       		.uleb128 0x2
 9129 2a1c 91       		.byte	0x91
 9130 2a1d 66       		.sleb128 -26
 9131 2a1e 00       		.byte	0
 9132 2a1f 32       		.uleb128 0x32
 9133 2a20 7C000000 		.4byte	.LVL193
 9134 2a24 F01B0000 		.4byte	0x1bf0
 9135 2a28 332A0000 		.4byte	0x2a33
 9136 2a2c 2D       		.uleb128 0x2d
 9137 2a2d 01       		.uleb128 0x1
 9138 2a2e 53       		.byte	0x53
 9139 2a2f 02       		.uleb128 0x2
 9140 2a30 76       		.byte	0x76
 9141 2a31 00       		.sleb128 0
 9142 2a32 00       		.byte	0
 9143 2a33 32       		.uleb128 0x32
 9144 2a34 8E000000 		.4byte	.LVL197
 9145 2a38 23460000 		.4byte	0x4623
 9146 2a3c 472A0000 		.4byte	0x2a47
 9147 2a40 2D       		.uleb128 0x2d
 9148 2a41 01       		.uleb128 0x1
 9149 2a42 51       		.byte	0x51
 9150 2a43 02       		.uleb128 0x2
 9151 2a44 74       		.byte	0x74
 9152 2a45 00       		.sleb128 0
 9153 2a46 00       		.byte	0
 9154 2a47 2C       		.uleb128 0x2c
 9155 2a48 96000000 		.4byte	.LVL198
 9156 2a4c 63450000 		.4byte	0x4563
 9157 2a50 2D       		.uleb128 0x2d
 9158 2a51 01       		.uleb128 0x1
 9159 2a52 51       		.byte	0x51
 9160 2a53 02       		.uleb128 0x2
 9161 2a54 74       		.byte	0x74
 9162 2a55 00       		.sleb128 0
ARM GAS  C:\Users\AHMED~1.ELE\AppData\Local\Temp\ccpjtoUe.s 			page 193


 9163 2a56 2D       		.uleb128 0x2d
 9164 2a57 01       		.uleb128 0x1
 9165 2a58 50       		.byte	0x50
 9166 2a59 02       		.uleb128 0x2
 9167 2a5a 08       		.byte	0x8
 9168 2a5b 94       		.byte	0x94
 9169 2a5c 00       		.byte	0
 9170 2a5d 00       		.byte	0
 9171 2a5e 06       		.uleb128 0x6
 9172 2a5f 04       		.byte	0x4
 9173 2a60 81120000 		.4byte	0x1281
 9174 2a64 2E       		.uleb128 0x2e
 9175 2a65 A1010000 		.4byte	.LASF760
 9176 2a69 01       		.byte	0x1
 9177 2a6a F802     		.2byte	0x2f8
 9178 2a6c 37190000 		.4byte	0x1937
 9179 2a70 00000000 		.4byte	.LFB9
 9180 2a74 90000000 		.4byte	.LFE9-.LFB9
 9181 2a78 01       		.uleb128 0x1
 9182 2a79 9C       		.byte	0x9c
 9183 2a7a EB2B0000 		.4byte	0x2beb
 9184 2a7e 2F       		.uleb128 0x2f
 9185 2a7f CA100000 		.4byte	.LASF748
 9186 2a83 01       		.byte	0x1
 9187 2a84 F802     		.2byte	0x2f8
 9188 2a86 37190000 		.4byte	0x1937
 9189 2a8a A90B0000 		.4byte	.LLST74
 9190 2a8e 2F       		.uleb128 0x2f
 9191 2a8f F9250000 		.4byte	.LASF749
 9192 2a93 01       		.byte	0x1
 9193 2a94 F802     		.2byte	0x2f8
 9194 2a96 37190000 		.4byte	0x1937
 9195 2a9a D50B0000 		.4byte	.LLST75
 9196 2a9e 2F       		.uleb128 0x2f
 9197 2a9f 08120000 		.4byte	.LASF750
 9198 2aa3 01       		.byte	0x1
 9199 2aa4 F802     		.2byte	0x2f8
 9200 2aa6 37190000 		.4byte	0x1937
 9201 2aaa 430C0000 		.4byte	.LLST76
 9202 2aae 31       		.uleb128 0x31
 9203 2aaf 851D0000 		.4byte	.LASF686
 9204 2ab3 01       		.byte	0x1
 9205 2ab4 FB02     		.2byte	0x2fb
 9206 2ab6 DE000000 		.4byte	0xde
 9207 2aba 640C0000 		.4byte	.LLST77
 9208 2abe 31       		.uleb128 0x31
 9209 2abf 581D0000 		.4byte	.LASF754
 9210 2ac3 01       		.byte	0x1
 9211 2ac4 FC02     		.2byte	0x2fc
 9212 2ac6 37190000 		.4byte	0x1937
 9213 2aca 820C0000 		.4byte	.LLST78
 9214 2ace 31       		.uleb128 0x31
 9215 2acf 39250000 		.4byte	.LASF755
 9216 2ad3 01       		.byte	0x1
 9217 2ad4 FC02     		.2byte	0x2fc
 9218 2ad6 37190000 		.4byte	0x1937
 9219 2ada CC0C0000 		.4byte	.LLST79
ARM GAS  C:\Users\AHMED~1.ELE\AppData\Local\Temp\ccpjtoUe.s 			page 194


 9220 2ade 31       		.uleb128 0x31
 9221 2adf 312A0000 		.4byte	.LASF761
 9222 2ae3 01       		.byte	0x1
 9223 2ae4 FD02     		.2byte	0x2fd
 9224 2ae6 761A0000 		.4byte	0x1a76
 9225 2aea DF0C0000 		.4byte	.LLST80
 9226 2aee 32       		.uleb128 0x32
 9227 2aef 12000000 		.4byte	.LVL204
 9228 2af3 63450000 		.4byte	0x4563
 9229 2af7 092B0000 		.4byte	0x2b09
 9230 2afb 2D       		.uleb128 0x2d
 9231 2afc 01       		.uleb128 0x1
 9232 2afd 51       		.byte	0x51
 9233 2afe 03       		.uleb128 0x3
 9234 2aff 0A       		.byte	0xa
 9235 2b00 1702     		.2byte	0x217
 9236 2b02 2D       		.uleb128 0x2d
 9237 2b03 01       		.uleb128 0x1
 9238 2b04 50       		.byte	0x50
 9239 2b05 02       		.uleb128 0x2
 9240 2b06 08       		.byte	0x8
 9241 2b07 92       		.byte	0x92
 9242 2b08 00       		.byte	0
 9243 2b09 32       		.uleb128 0x32
 9244 2b0a 20000000 		.4byte	.LVL205
 9245 2b0e 7D450000 		.4byte	0x457d
 9246 2b12 292B0000 		.4byte	0x2b29
 9247 2b16 2D       		.uleb128 0x2d
 9248 2b17 01       		.uleb128 0x1
 9249 2b18 52       		.byte	0x52
 9250 2b19 03       		.uleb128 0x3
 9251 2b1a 0A       		.byte	0xa
 9252 2b1b 1702     		.2byte	0x217
 9253 2b1d 2D       		.uleb128 0x2d
 9254 2b1e 01       		.uleb128 0x1
 9255 2b1f 51       		.byte	0x51
 9256 2b20 01       		.uleb128 0x1
 9257 2b21 30       		.byte	0x30
 9258 2b22 2D       		.uleb128 0x2d
 9259 2b23 01       		.uleb128 0x1
 9260 2b24 50       		.byte	0x50
 9261 2b25 02       		.uleb128 0x2
 9262 2b26 74       		.byte	0x74
 9263 2b27 00       		.sleb128 0
 9264 2b28 00       		.byte	0
 9265 2b29 32       		.uleb128 0x32
 9266 2b2a 26000000 		.4byte	.LVL206
 9267 2b2e 3D460000 		.4byte	0x463d
 9268 2b32 3D2B0000 		.4byte	0x2b3d
 9269 2b36 2D       		.uleb128 0x2d
 9270 2b37 01       		.uleb128 0x1
 9271 2b38 50       		.byte	0x50
 9272 2b39 02       		.uleb128 0x2
 9273 2b3a 09       		.byte	0x9
 9274 2b3b 80       		.byte	0x80
 9275 2b3c 00       		.byte	0
 9276 2b3d 32       		.uleb128 0x32
ARM GAS  C:\Users\AHMED~1.ELE\AppData\Local\Temp\ccpjtoUe.s 			page 195


 9277 2b3e 30000000 		.4byte	.LVL207
 9278 2b42 9A450000 		.4byte	0x459a
 9279 2b46 5C2B0000 		.4byte	0x2b5c
 9280 2b4a 2D       		.uleb128 0x2d
 9281 2b4b 01       		.uleb128 0x1
 9282 2b4c 52       		.byte	0x52
 9283 2b4d 01       		.uleb128 0x1
 9284 2b4e 30       		.byte	0x30
 9285 2b4f 2D       		.uleb128 0x2d
 9286 2b50 01       		.uleb128 0x1
 9287 2b51 51       		.byte	0x51
 9288 2b52 02       		.uleb128 0x2
 9289 2b53 77       		.byte	0x77
 9290 2b54 00       		.sleb128 0
 9291 2b55 2D       		.uleb128 0x2d
 9292 2b56 01       		.uleb128 0x1
 9293 2b57 50       		.byte	0x50
 9294 2b58 02       		.uleb128 0x2
 9295 2b59 76       		.byte	0x76
 9296 2b5a 00       		.sleb128 0
 9297 2b5b 00       		.byte	0
 9298 2b5c 32       		.uleb128 0x32
 9299 2b5d 3C000000 		.4byte	.LVL209
 9300 2b61 9A450000 		.4byte	0x459a
 9301 2b65 7B2B0000 		.4byte	0x2b7b
 9302 2b69 2D       		.uleb128 0x2d
 9303 2b6a 01       		.uleb128 0x1
 9304 2b6b 52       		.byte	0x52
 9305 2b6c 01       		.uleb128 0x1
 9306 2b6d 31       		.byte	0x31
 9307 2b6e 2D       		.uleb128 0x2d
 9308 2b6f 01       		.uleb128 0x1
 9309 2b70 51       		.byte	0x51
 9310 2b71 02       		.uleb128 0x2
 9311 2b72 77       		.byte	0x77
 9312 2b73 00       		.sleb128 0
 9313 2b74 2D       		.uleb128 0x2d
 9314 2b75 01       		.uleb128 0x1
 9315 2b76 50       		.byte	0x50
 9316 2b77 02       		.uleb128 0x2
 9317 2b78 76       		.byte	0x76
 9318 2b79 00       		.sleb128 0
 9319 2b7a 00       		.byte	0
 9320 2b7b 33       		.uleb128 0x33
 9321 2b7c 52000000 		.4byte	.LVL214
 9322 2b80 BA450000 		.4byte	0x45ba
 9323 2b84 32       		.uleb128 0x32
 9324 2b85 62000000 		.4byte	.LVL216
 9325 2b89 101A0000 		.4byte	0x1a10
 9326 2b8d A12B0000 		.4byte	0x2ba1
 9327 2b91 2D       		.uleb128 0x2d
 9328 2b92 01       		.uleb128 0x1
 9329 2b93 51       		.byte	0x51
 9330 2b94 05       		.uleb128 0x5
 9331 2b95 03       		.byte	0x3
 9332 2b96 50020000 		.4byte	.LANCHOR0+592
 9333 2b9a 2D       		.uleb128 0x2d
ARM GAS  C:\Users\AHMED~1.ELE\AppData\Local\Temp\ccpjtoUe.s 			page 196


 9334 2b9b 01       		.uleb128 0x1
 9335 2b9c 50       		.byte	0x50
 9336 2b9d 02       		.uleb128 0x2
 9337 2b9e 74       		.byte	0x74
 9338 2b9f 00       		.sleb128 0
 9339 2ba0 00       		.byte	0
 9340 2ba1 32       		.uleb128 0x32
 9341 2ba2 72000000 		.4byte	.LVL220
 9342 2ba6 4E460000 		.4byte	0x464e
 9343 2baa C12B0000 		.4byte	0x2bc1
 9344 2bae 2D       		.uleb128 0x2d
 9345 2baf 01       		.uleb128 0x1
 9346 2bb0 52       		.byte	0x52
 9347 2bb1 03       		.uleb128 0x3
 9348 2bb2 0A       		.byte	0xa
 9349 2bb3 1702     		.2byte	0x217
 9350 2bb5 2D       		.uleb128 0x2d
 9351 2bb6 01       		.uleb128 0x1
 9352 2bb7 51       		.byte	0x51
 9353 2bb8 02       		.uleb128 0x2
 9354 2bb9 74       		.byte	0x74
 9355 2bba 00       		.sleb128 0
 9356 2bbb 2D       		.uleb128 0x2d
 9357 2bbc 01       		.uleb128 0x1
 9358 2bbd 50       		.byte	0x50
 9359 2bbe 01       		.uleb128 0x1
 9360 2bbf 34       		.byte	0x34
 9361 2bc0 00       		.byte	0
 9362 2bc1 32       		.uleb128 0x32
 9363 2bc2 78000000 		.4byte	.LVL221
 9364 2bc6 3D460000 		.4byte	0x463d
 9365 2bca D42B0000 		.4byte	0x2bd4
 9366 2bce 2D       		.uleb128 0x2d
 9367 2bcf 01       		.uleb128 0x1
 9368 2bd0 50       		.byte	0x50
 9369 2bd1 01       		.uleb128 0x1
 9370 2bd2 31       		.byte	0x31
 9371 2bd3 00       		.byte	0
 9372 2bd4 2C       		.uleb128 0x2c
 9373 2bd5 80000000 		.4byte	.LVL222
 9374 2bd9 63450000 		.4byte	0x4563
 9375 2bdd 2D       		.uleb128 0x2d
 9376 2bde 01       		.uleb128 0x1
 9377 2bdf 51       		.byte	0x51
 9378 2be0 02       		.uleb128 0x2
 9379 2be1 74       		.byte	0x74
 9380 2be2 00       		.sleb128 0
 9381 2be3 2D       		.uleb128 0x2d
 9382 2be4 01       		.uleb128 0x1
 9383 2be5 50       		.byte	0x50
 9384 2be6 02       		.uleb128 0x2
 9385 2be7 08       		.byte	0x8
 9386 2be8 94       		.byte	0x94
 9387 2be9 00       		.byte	0
 9388 2bea 00       		.byte	0
 9389 2beb 2E       		.uleb128 0x2e
 9390 2bec E1220000 		.4byte	.LASF762
ARM GAS  C:\Users\AHMED~1.ELE\AppData\Local\Temp\ccpjtoUe.s 			page 197


 9391 2bf0 01       		.byte	0x1
 9392 2bf1 2D03     		.2byte	0x32d
 9393 2bf3 37190000 		.4byte	0x1937
 9394 2bf7 00000000 		.4byte	.LFB10
 9395 2bfb 90000000 		.4byte	.LFE10-.LFB10
 9396 2bff 01       		.uleb128 0x1
 9397 2c00 9C       		.byte	0x9c
 9398 2c01 722D0000 		.4byte	0x2d72
 9399 2c05 2F       		.uleb128 0x2f
 9400 2c06 CA100000 		.4byte	.LASF748
 9401 2c0a 01       		.byte	0x1
 9402 2c0b 2D03     		.2byte	0x32d
 9403 2c0d 37190000 		.4byte	0x1937
 9404 2c11 080D0000 		.4byte	.LLST81
 9405 2c15 2F       		.uleb128 0x2f
 9406 2c16 F9250000 		.4byte	.LASF749
 9407 2c1a 01       		.byte	0x1
 9408 2c1b 2D03     		.2byte	0x32d
 9409 2c1d 37190000 		.4byte	0x1937
 9410 2c21 340D0000 		.4byte	.LLST82
 9411 2c25 2F       		.uleb128 0x2f
 9412 2c26 08120000 		.4byte	.LASF750
 9413 2c2a 01       		.byte	0x1
 9414 2c2b 2D03     		.2byte	0x32d
 9415 2c2d 37190000 		.4byte	0x1937
 9416 2c31 A20D0000 		.4byte	.LLST83
 9417 2c35 31       		.uleb128 0x31
 9418 2c36 851D0000 		.4byte	.LASF686
 9419 2c3a 01       		.byte	0x1
 9420 2c3b 3003     		.2byte	0x330
 9421 2c3d DE000000 		.4byte	0xde
 9422 2c41 C30D0000 		.4byte	.LLST84
 9423 2c45 31       		.uleb128 0x31
 9424 2c46 581D0000 		.4byte	.LASF754
 9425 2c4a 01       		.byte	0x1
 9426 2c4b 3103     		.2byte	0x331
 9427 2c4d 37190000 		.4byte	0x1937
 9428 2c51 E10D0000 		.4byte	.LLST85
 9429 2c55 31       		.uleb128 0x31
 9430 2c56 39250000 		.4byte	.LASF755
 9431 2c5a 01       		.byte	0x1
 9432 2c5b 3103     		.2byte	0x331
 9433 2c5d 37190000 		.4byte	0x1937
 9434 2c61 2B0E0000 		.4byte	.LLST86
 9435 2c65 31       		.uleb128 0x31
 9436 2c66 312A0000 		.4byte	.LASF761
 9437 2c6a 01       		.byte	0x1
 9438 2c6b 3203     		.2byte	0x332
 9439 2c6d E81A0000 		.4byte	0x1ae8
 9440 2c71 3E0E0000 		.4byte	.LLST87
 9441 2c75 32       		.uleb128 0x32
 9442 2c76 12000000 		.4byte	.LVL228
 9443 2c7a 63450000 		.4byte	0x4563
 9444 2c7e 902C0000 		.4byte	0x2c90
 9445 2c82 2D       		.uleb128 0x2d
 9446 2c83 01       		.uleb128 0x1
 9447 2c84 51       		.byte	0x51
ARM GAS  C:\Users\AHMED~1.ELE\AppData\Local\Temp\ccpjtoUe.s 			page 198


 9448 2c85 03       		.uleb128 0x3
 9449 2c86 0A       		.byte	0xa
 9450 2c87 1702     		.2byte	0x217
 9451 2c89 2D       		.uleb128 0x2d
 9452 2c8a 01       		.uleb128 0x1
 9453 2c8b 50       		.byte	0x50
 9454 2c8c 02       		.uleb128 0x2
 9455 2c8d 08       		.byte	0x8
 9456 2c8e 92       		.byte	0x92
 9457 2c8f 00       		.byte	0
 9458 2c90 32       		.uleb128 0x32
 9459 2c91 20000000 		.4byte	.LVL229
 9460 2c95 7D450000 		.4byte	0x457d
 9461 2c99 B02C0000 		.4byte	0x2cb0
 9462 2c9d 2D       		.uleb128 0x2d
 9463 2c9e 01       		.uleb128 0x1
 9464 2c9f 52       		.byte	0x52
 9465 2ca0 03       		.uleb128 0x3
 9466 2ca1 0A       		.byte	0xa
 9467 2ca2 1702     		.2byte	0x217
 9468 2ca4 2D       		.uleb128 0x2d
 9469 2ca5 01       		.uleb128 0x1
 9470 2ca6 51       		.byte	0x51
 9471 2ca7 01       		.uleb128 0x1
 9472 2ca8 30       		.byte	0x30
 9473 2ca9 2D       		.uleb128 0x2d
 9474 2caa 01       		.uleb128 0x1
 9475 2cab 50       		.byte	0x50
 9476 2cac 02       		.uleb128 0x2
 9477 2cad 74       		.byte	0x74
 9478 2cae 00       		.sleb128 0
 9479 2caf 00       		.byte	0
 9480 2cb0 32       		.uleb128 0x32
 9481 2cb1 26000000 		.4byte	.LVL230
 9482 2cb5 69460000 		.4byte	0x4669
 9483 2cb9 C42C0000 		.4byte	0x2cc4
 9484 2cbd 2D       		.uleb128 0x2d
 9485 2cbe 01       		.uleb128 0x1
 9486 2cbf 50       		.byte	0x50
 9487 2cc0 02       		.uleb128 0x2
 9488 2cc1 09       		.byte	0x9
 9489 2cc2 80       		.byte	0x80
 9490 2cc3 00       		.byte	0
 9491 2cc4 32       		.uleb128 0x32
 9492 2cc5 30000000 		.4byte	.LVL231
 9493 2cc9 9A450000 		.4byte	0x459a
 9494 2ccd E32C0000 		.4byte	0x2ce3
 9495 2cd1 2D       		.uleb128 0x2d
 9496 2cd2 01       		.uleb128 0x1
 9497 2cd3 52       		.byte	0x52
 9498 2cd4 01       		.uleb128 0x1
 9499 2cd5 30       		.byte	0x30
 9500 2cd6 2D       		.uleb128 0x2d
 9501 2cd7 01       		.uleb128 0x1
 9502 2cd8 51       		.byte	0x51
 9503 2cd9 02       		.uleb128 0x2
 9504 2cda 77       		.byte	0x77
ARM GAS  C:\Users\AHMED~1.ELE\AppData\Local\Temp\ccpjtoUe.s 			page 199


 9505 2cdb 00       		.sleb128 0
 9506 2cdc 2D       		.uleb128 0x2d
 9507 2cdd 01       		.uleb128 0x1
 9508 2cde 50       		.byte	0x50
 9509 2cdf 02       		.uleb128 0x2
 9510 2ce0 76       		.byte	0x76
 9511 2ce1 00       		.sleb128 0
 9512 2ce2 00       		.byte	0
 9513 2ce3 32       		.uleb128 0x32
 9514 2ce4 3C000000 		.4byte	.LVL233
 9515 2ce8 9A450000 		.4byte	0x459a
 9516 2cec 022D0000 		.4byte	0x2d02
 9517 2cf0 2D       		.uleb128 0x2d
 9518 2cf1 01       		.uleb128 0x1
 9519 2cf2 52       		.byte	0x52
 9520 2cf3 01       		.uleb128 0x1
 9521 2cf4 31       		.byte	0x31
 9522 2cf5 2D       		.uleb128 0x2d
 9523 2cf6 01       		.uleb128 0x1
 9524 2cf7 51       		.byte	0x51
 9525 2cf8 02       		.uleb128 0x2
 9526 2cf9 77       		.byte	0x77
 9527 2cfa 00       		.sleb128 0
 9528 2cfb 2D       		.uleb128 0x2d
 9529 2cfc 01       		.uleb128 0x1
 9530 2cfd 50       		.byte	0x50
 9531 2cfe 02       		.uleb128 0x2
 9532 2cff 76       		.byte	0x76
 9533 2d00 00       		.sleb128 0
 9534 2d01 00       		.byte	0
 9535 2d02 33       		.uleb128 0x33
 9536 2d03 52000000 		.4byte	.LVL238
 9537 2d07 BA450000 		.4byte	0x45ba
 9538 2d0b 32       		.uleb128 0x32
 9539 2d0c 62000000 		.4byte	.LVL240
 9540 2d10 821A0000 		.4byte	0x1a82
 9541 2d14 282D0000 		.4byte	0x2d28
 9542 2d18 2D       		.uleb128 0x2d
 9543 2d19 01       		.uleb128 0x1
 9544 2d1a 51       		.byte	0x51
 9545 2d1b 05       		.uleb128 0x5
 9546 2d1c 03       		.byte	0x3
 9547 2d1d A0020000 		.4byte	.LANCHOR0+672
 9548 2d21 2D       		.uleb128 0x2d
 9549 2d22 01       		.uleb128 0x1
 9550 2d23 50       		.byte	0x50
 9551 2d24 02       		.uleb128 0x2
 9552 2d25 74       		.byte	0x74
 9553 2d26 00       		.sleb128 0
 9554 2d27 00       		.byte	0
 9555 2d28 32       		.uleb128 0x32
 9556 2d29 72000000 		.4byte	.LVL244
 9557 2d2d 7A460000 		.4byte	0x467a
 9558 2d31 482D0000 		.4byte	0x2d48
 9559 2d35 2D       		.uleb128 0x2d
 9560 2d36 01       		.uleb128 0x1
 9561 2d37 52       		.byte	0x52
ARM GAS  C:\Users\AHMED~1.ELE\AppData\Local\Temp\ccpjtoUe.s 			page 200


 9562 2d38 03       		.uleb128 0x3
 9563 2d39 0A       		.byte	0xa
 9564 2d3a 1702     		.2byte	0x217
 9565 2d3c 2D       		.uleb128 0x2d
 9566 2d3d 01       		.uleb128 0x1
 9567 2d3e 51       		.byte	0x51
 9568 2d3f 02       		.uleb128 0x2
 9569 2d40 74       		.byte	0x74
 9570 2d41 00       		.sleb128 0
 9571 2d42 2D       		.uleb128 0x2d
 9572 2d43 01       		.uleb128 0x1
 9573 2d44 50       		.byte	0x50
 9574 2d45 01       		.uleb128 0x1
 9575 2d46 34       		.byte	0x34
 9576 2d47 00       		.byte	0
 9577 2d48 32       		.uleb128 0x32
 9578 2d49 78000000 		.4byte	.LVL245
 9579 2d4d 69460000 		.4byte	0x4669
 9580 2d51 5B2D0000 		.4byte	0x2d5b
 9581 2d55 2D       		.uleb128 0x2d
 9582 2d56 01       		.uleb128 0x1
 9583 2d57 50       		.byte	0x50
 9584 2d58 01       		.uleb128 0x1
 9585 2d59 31       		.byte	0x31
 9586 2d5a 00       		.byte	0
 9587 2d5b 2C       		.uleb128 0x2c
 9588 2d5c 80000000 		.4byte	.LVL246
 9589 2d60 63450000 		.4byte	0x4563
 9590 2d64 2D       		.uleb128 0x2d
 9591 2d65 01       		.uleb128 0x1
 9592 2d66 51       		.byte	0x51
 9593 2d67 02       		.uleb128 0x2
 9594 2d68 74       		.byte	0x74
 9595 2d69 00       		.sleb128 0
 9596 2d6a 2D       		.uleb128 0x2d
 9597 2d6b 01       		.uleb128 0x1
 9598 2d6c 50       		.byte	0x50
 9599 2d6d 02       		.uleb128 0x2
 9600 2d6e 08       		.byte	0x8
 9601 2d6f 94       		.byte	0x94
 9602 2d70 00       		.byte	0
 9603 2d71 00       		.byte	0
 9604 2d72 2E       		.uleb128 0x2e
 9605 2d73 76240000 		.4byte	.LASF763
 9606 2d77 01       		.byte	0x1
 9607 2d78 6203     		.2byte	0x362
 9608 2d7a 37190000 		.4byte	0x1937
 9609 2d7e 00000000 		.4byte	.LFB11
 9610 2d82 C8000000 		.4byte	.LFE11-.LFB11
 9611 2d86 01       		.uleb128 0x1
 9612 2d87 9C       		.byte	0x9c
 9613 2d88 2F2F0000 		.4byte	0x2f2f
 9614 2d8c 2F       		.uleb128 0x2f
 9615 2d8d CA100000 		.4byte	.LASF748
 9616 2d91 01       		.byte	0x1
 9617 2d92 6203     		.2byte	0x362
 9618 2d94 37190000 		.4byte	0x1937
ARM GAS  C:\Users\AHMED~1.ELE\AppData\Local\Temp\ccpjtoUe.s 			page 201


 9619 2d98 670E0000 		.4byte	.LLST88
 9620 2d9c 2F       		.uleb128 0x2f
 9621 2d9d F9250000 		.4byte	.LASF749
 9622 2da1 01       		.byte	0x1
 9623 2da2 6203     		.2byte	0x362
 9624 2da4 37190000 		.4byte	0x1937
 9625 2da8 930E0000 		.4byte	.LLST89
 9626 2dac 2F       		.uleb128 0x2f
 9627 2dad 08120000 		.4byte	.LASF750
 9628 2db1 01       		.byte	0x1
 9629 2db2 6203     		.2byte	0x362
 9630 2db4 37190000 		.4byte	0x1937
 9631 2db8 010F0000 		.4byte	.LLST90
 9632 2dbc 31       		.uleb128 0x31
 9633 2dbd 851D0000 		.4byte	.LASF686
 9634 2dc1 01       		.byte	0x1
 9635 2dc2 6503     		.2byte	0x365
 9636 2dc4 DE000000 		.4byte	0xde
 9637 2dc8 220F0000 		.4byte	.LLST91
 9638 2dcc 31       		.uleb128 0x31
 9639 2dcd 581D0000 		.4byte	.LASF754
 9640 2dd1 01       		.byte	0x1
 9641 2dd2 6603     		.2byte	0x366
 9642 2dd4 37190000 		.4byte	0x1937
 9643 2dd8 400F0000 		.4byte	.LLST92
 9644 2ddc 31       		.uleb128 0x31
 9645 2ddd 39250000 		.4byte	.LASF755
 9646 2de1 01       		.byte	0x1
 9647 2de2 6603     		.2byte	0x366
 9648 2de4 37190000 		.4byte	0x1937
 9649 2de8 8A0F0000 		.4byte	.LLST93
 9650 2dec 31       		.uleb128 0x31
 9651 2ded 11120000 		.4byte	.LASF764
 9652 2df1 01       		.byte	0x1
 9653 2df2 6703     		.2byte	0x367
 9654 2df4 601B0000 		.4byte	0x1b60
 9655 2df8 9D0F0000 		.4byte	.LLST94
 9656 2dfc 32       		.uleb128 0x32
 9657 2dfd 12000000 		.4byte	.LVL252
 9658 2e01 63450000 		.4byte	0x4563
 9659 2e05 172E0000 		.4byte	0x2e17
 9660 2e09 2D       		.uleb128 0x2d
 9661 2e0a 01       		.uleb128 0x1
 9662 2e0b 51       		.byte	0x51
 9663 2e0c 03       		.uleb128 0x3
 9664 2e0d 0A       		.byte	0xa
 9665 2e0e 1C01     		.2byte	0x11c
 9666 2e10 2D       		.uleb128 0x2d
 9667 2e11 01       		.uleb128 0x1
 9668 2e12 50       		.byte	0x50
 9669 2e13 02       		.uleb128 0x2
 9670 2e14 08       		.byte	0x8
 9671 2e15 92       		.byte	0x92
 9672 2e16 00       		.byte	0
 9673 2e17 32       		.uleb128 0x32
 9674 2e18 22000000 		.4byte	.LVL253
 9675 2e1c 7D450000 		.4byte	0x457d
ARM GAS  C:\Users\AHMED~1.ELE\AppData\Local\Temp\ccpjtoUe.s 			page 202


 9676 2e20 372E0000 		.4byte	0x2e37
 9677 2e24 2D       		.uleb128 0x2d
 9678 2e25 01       		.uleb128 0x1
 9679 2e26 52       		.byte	0x52
 9680 2e27 03       		.uleb128 0x3
 9681 2e28 0A       		.byte	0xa
 9682 2e29 1C01     		.2byte	0x11c
 9683 2e2b 2D       		.uleb128 0x2d
 9684 2e2c 01       		.uleb128 0x1
 9685 2e2d 51       		.byte	0x51
 9686 2e2e 01       		.uleb128 0x1
 9687 2e2f 30       		.byte	0x30
 9688 2e30 2D       		.uleb128 0x2d
 9689 2e31 01       		.uleb128 0x1
 9690 2e32 50       		.byte	0x50
 9691 2e33 02       		.uleb128 0x2
 9692 2e34 74       		.byte	0x74
 9693 2e35 00       		.sleb128 0
 9694 2e36 00       		.byte	0
 9695 2e37 32       		.uleb128 0x32
 9696 2e38 28000000 		.4byte	.LVL254
 9697 2e3c 3D460000 		.4byte	0x463d
 9698 2e40 4B2E0000 		.4byte	0x2e4b
 9699 2e44 2D       		.uleb128 0x2d
 9700 2e45 01       		.uleb128 0x1
 9701 2e46 50       		.byte	0x50
 9702 2e47 02       		.uleb128 0x2
 9703 2e48 08       		.byte	0x8
 9704 2e49 40       		.byte	0x40
 9705 2e4a 00       		.byte	0
 9706 2e4b 32       		.uleb128 0x32
 9707 2e4c 2E000000 		.4byte	.LVL255
 9708 2e50 69460000 		.4byte	0x4669
 9709 2e54 5F2E0000 		.4byte	0x2e5f
 9710 2e58 2D       		.uleb128 0x2d
 9711 2e59 01       		.uleb128 0x1
 9712 2e5a 50       		.byte	0x50
 9713 2e5b 02       		.uleb128 0x2
 9714 2e5c 08       		.byte	0x8
 9715 2e5d 40       		.byte	0x40
 9716 2e5e 00       		.byte	0
 9717 2e5f 32       		.uleb128 0x32
 9718 2e60 38000000 		.4byte	.LVL256
 9719 2e64 9A450000 		.4byte	0x459a
 9720 2e68 7E2E0000 		.4byte	0x2e7e
 9721 2e6c 2D       		.uleb128 0x2d
 9722 2e6d 01       		.uleb128 0x1
 9723 2e6e 52       		.byte	0x52
 9724 2e6f 01       		.uleb128 0x1
 9725 2e70 30       		.byte	0x30
 9726 2e71 2D       		.uleb128 0x2d
 9727 2e72 01       		.uleb128 0x1
 9728 2e73 51       		.byte	0x51
 9729 2e74 02       		.uleb128 0x2
 9730 2e75 77       		.byte	0x77
 9731 2e76 00       		.sleb128 0
 9732 2e77 2D       		.uleb128 0x2d
ARM GAS  C:\Users\AHMED~1.ELE\AppData\Local\Temp\ccpjtoUe.s 			page 203


 9733 2e78 01       		.uleb128 0x1
 9734 2e79 50       		.byte	0x50
 9735 2e7a 02       		.uleb128 0x2
 9736 2e7b 76       		.byte	0x76
 9737 2e7c 00       		.sleb128 0
 9738 2e7d 00       		.byte	0
 9739 2e7e 32       		.uleb128 0x32
 9740 2e7f 44000000 		.4byte	.LVL258
 9741 2e83 9A450000 		.4byte	0x459a
 9742 2e87 9D2E0000 		.4byte	0x2e9d
 9743 2e8b 2D       		.uleb128 0x2d
 9744 2e8c 01       		.uleb128 0x1
 9745 2e8d 52       		.byte	0x52
 9746 2e8e 01       		.uleb128 0x1
 9747 2e8f 31       		.byte	0x31
 9748 2e90 2D       		.uleb128 0x2d
 9749 2e91 01       		.uleb128 0x1
 9750 2e92 51       		.byte	0x51
 9751 2e93 02       		.uleb128 0x2
 9752 2e94 77       		.byte	0x77
 9753 2e95 00       		.sleb128 0
 9754 2e96 2D       		.uleb128 0x2d
 9755 2e97 01       		.uleb128 0x1
 9756 2e98 50       		.byte	0x50
 9757 2e99 02       		.uleb128 0x2
 9758 2e9a 76       		.byte	0x76
 9759 2e9b 00       		.sleb128 0
 9760 2e9c 00       		.byte	0
 9761 2e9d 33       		.uleb128 0x33
 9762 2e9e 5A000000 		.4byte	.LVL263
 9763 2ea2 BA450000 		.4byte	0x45ba
 9764 2ea6 32       		.uleb128 0x32
 9765 2ea7 6A000000 		.4byte	.LVL265
 9766 2eab EE1A0000 		.4byte	0x1aee
 9767 2eaf C32E0000 		.4byte	0x2ec3
 9768 2eb3 2D       		.uleb128 0x2d
 9769 2eb4 01       		.uleb128 0x1
 9770 2eb5 51       		.byte	0x51
 9771 2eb6 05       		.uleb128 0x5
 9772 2eb7 03       		.byte	0x3
 9773 2eb8 F0020000 		.4byte	.LANCHOR0+752
 9774 2ebc 2D       		.uleb128 0x2d
 9775 2ebd 01       		.uleb128 0x1
 9776 2ebe 50       		.byte	0x50
 9777 2ebf 02       		.uleb128 0x2
 9778 2ec0 74       		.byte	0x74
 9779 2ec1 00       		.sleb128 0
 9780 2ec2 00       		.byte	0
 9781 2ec3 32       		.uleb128 0x32
 9782 2ec4 88000000 		.4byte	.LVL269
 9783 2ec8 4E460000 		.4byte	0x464e
 9784 2ecc E32E0000 		.4byte	0x2ee3
 9785 2ed0 2D       		.uleb128 0x2d
 9786 2ed1 01       		.uleb128 0x1
 9787 2ed2 52       		.byte	0x52
 9788 2ed3 03       		.uleb128 0x3
 9789 2ed4 0A       		.byte	0xa
ARM GAS  C:\Users\AHMED~1.ELE\AppData\Local\Temp\ccpjtoUe.s 			page 204


 9790 2ed5 1801     		.2byte	0x118
 9791 2ed7 2D       		.uleb128 0x2d
 9792 2ed8 01       		.uleb128 0x1
 9793 2ed9 51       		.byte	0x51
 9794 2eda 02       		.uleb128 0x2
 9795 2edb 74       		.byte	0x74
 9796 2edc 04       		.sleb128 4
 9797 2edd 2D       		.uleb128 0x2d
 9798 2ede 01       		.uleb128 0x1
 9799 2edf 50       		.byte	0x50
 9800 2ee0 01       		.uleb128 0x1
 9801 2ee1 32       		.byte	0x32
 9802 2ee2 00       		.byte	0
 9803 2ee3 32       		.uleb128 0x32
 9804 2ee4 A4000000 		.4byte	.LVL271
 9805 2ee8 4E460000 		.4byte	0x464e
 9806 2eec 032F0000 		.4byte	0x2f03
 9807 2ef0 2D       		.uleb128 0x2d
 9808 2ef1 01       		.uleb128 0x1
 9809 2ef2 52       		.byte	0x52
 9810 2ef3 03       		.uleb128 0x3
 9811 2ef4 0A       		.byte	0xa
 9812 2ef5 1801     		.2byte	0x118
 9813 2ef7 2D       		.uleb128 0x2d
 9814 2ef8 01       		.uleb128 0x1
 9815 2ef9 51       		.byte	0x51
 9816 2efa 02       		.uleb128 0x2
 9817 2efb 75       		.byte	0x75
 9818 2efc 00       		.sleb128 0
 9819 2efd 2D       		.uleb128 0x2d
 9820 2efe 01       		.uleb128 0x1
 9821 2eff 50       		.byte	0x50
 9822 2f00 01       		.uleb128 0x1
 9823 2f01 32       		.byte	0x32
 9824 2f02 00       		.byte	0
 9825 2f03 32       		.uleb128 0x32
 9826 2f04 B0000000 		.4byte	.LVL272
 9827 2f08 7A460000 		.4byte	0x467a
 9828 2f0c 182F0000 		.4byte	0x2f18
 9829 2f10 2D       		.uleb128 0x2d
 9830 2f11 01       		.uleb128 0x1
 9831 2f12 52       		.byte	0x52
 9832 2f13 03       		.uleb128 0x3
 9833 2f14 0A       		.byte	0xa
 9834 2f15 1801     		.2byte	0x118
 9835 2f17 00       		.byte	0
 9836 2f18 2C       		.uleb128 0x2c
 9837 2f19 B8000000 		.4byte	.LVL273
 9838 2f1d 63450000 		.4byte	0x4563
 9839 2f21 2D       		.uleb128 0x2d
 9840 2f22 01       		.uleb128 0x1
 9841 2f23 51       		.byte	0x51
 9842 2f24 02       		.uleb128 0x2
 9843 2f25 74       		.byte	0x74
 9844 2f26 00       		.sleb128 0
 9845 2f27 2D       		.uleb128 0x2d
 9846 2f28 01       		.uleb128 0x1
ARM GAS  C:\Users\AHMED~1.ELE\AppData\Local\Temp\ccpjtoUe.s 			page 205


 9847 2f29 50       		.byte	0x50
 9848 2f2a 02       		.uleb128 0x2
 9849 2f2b 08       		.byte	0x8
 9850 2f2c 94       		.byte	0x94
 9851 2f2d 00       		.byte	0
 9852 2f2e 00       		.byte	0
 9853 2f2f 3C       		.uleb128 0x3c
 9854 2f30 190C0000 		.4byte	.LASF816
 9855 2f34 01       		.byte	0x1
 9856 2f35 BC03     		.2byte	0x3bc
 9857 2f37 00000000 		.4byte	.LFB12
 9858 2f3b 00040000 		.4byte	.LFE12-.LFB12
 9859 2f3f 01       		.uleb128 0x1
 9860 2f40 9C       		.byte	0x9c
 9861 2f41 FC3A0000 		.4byte	0x3afc
 9862 2f45 3B       		.uleb128 0x3b
 9863 2f46 92010000 		.4byte	.LASF765
 9864 2f4a 01       		.byte	0x1
 9865 2f4b BE03     		.2byte	0x3be
 9866 2f4d D70E0000 		.4byte	0xed7
 9867 2f51 03       		.uleb128 0x3
 9868 2f52 91       		.byte	0x91
 9869 2f53 FC7A     		.sleb128 -644
 9870 2f55 3D       		.uleb128 0x3d
 9871 2f56 70737700 		.ascii	"psw\000"
 9872 2f5a 01       		.byte	0x1
 9873 2f5b BF03     		.2byte	0x3bf
 9874 2f5d D70E0000 		.4byte	0xed7
 9875 2f61 03       		.uleb128 0x3
 9876 2f62 91       		.byte	0x91
 9877 2f63 A07B     		.sleb128 -608
 9878 2f65 3D       		.uleb128 0x3d
 9879 2f66 61706E00 		.ascii	"apn\000"
 9880 2f6a 01       		.byte	0x1
 9881 2f6b C003     		.2byte	0x3c0
 9882 2f6d D70E0000 		.4byte	0xed7
 9883 2f71 03       		.uleb128 0x3
 9884 2f72 91       		.byte	0x91
 9885 2f73 C47B     		.sleb128 -572
 9886 2f75 3B       		.uleb128 0x3b
 9887 2f76 5F230000 		.4byte	.LASF766
 9888 2f7a 01       		.byte	0x1
 9889 2f7b C103     		.2byte	0x3c1
 9890 2f7d 79100000 		.4byte	0x1079
 9891 2f81 03       		.uleb128 0x3
 9892 2f82 91       		.byte	0x91
 9893 2f83 E87B     		.sleb128 -536
 9894 2f85 3B       		.uleb128 0x3b
 9895 2f86 08310000 		.4byte	.LASF767
 9896 2f8a 01       		.byte	0x1
 9897 2f8b CC03     		.2byte	0x3cc
 9898 2f8d A9100000 		.4byte	0x10a9
 9899 2f91 03       		.uleb128 0x3
 9900 2f92 91       		.byte	0x91
 9901 2f93 E87C     		.sleb128 -408
 9902 2f95 31       		.uleb128 0x31
 9903 2f96 BE030000 		.4byte	.LASF768
ARM GAS  C:\Users\AHMED~1.ELE\AppData\Local\Temp\ccpjtoUe.s 			page 206


 9904 2f9a 01       		.byte	0x1
 9905 2f9b F103     		.2byte	0x3f1
 9906 2f9d 85000000 		.4byte	0x85
 9907 2fa1 C60F0000 		.4byte	.LLST95
 9908 2fa5 38       		.uleb128 0x38
 9909 2fa6 10000000 		.4byte	.LBB14
 9910 2faa 32000000 		.4byte	.LBE14-.LBB14
 9911 2fae 52300000 		.4byte	0x3052
 9912 2fb2 30       		.uleb128 0x30
 9913 2fb3 6C656E00 		.ascii	"len\000"
 9914 2fb7 01       		.byte	0x1
 9915 2fb8 D003     		.2byte	0x3d0
 9916 2fba B8000000 		.4byte	0xb8
 9917 2fbe E40F0000 		.4byte	.LLST96
 9918 2fc2 30       		.uleb128 0x30
 9919 2fc3 70747200 		.ascii	"ptr\000"
 9920 2fc7 01       		.byte	0x1
 9921 2fc8 D003     		.2byte	0x3d0
 9922 2fca DE000000 		.4byte	0xde
 9923 2fce F80F0000 		.4byte	.LLST97
 9924 2fd2 32       		.uleb128 0x32
 9925 2fd3 18000000 		.4byte	.LVL278
 9926 2fd7 63450000 		.4byte	0x4563
 9927 2fdb EB2F0000 		.4byte	0x2feb
 9928 2fdf 2D       		.uleb128 0x2d
 9929 2fe0 01       		.uleb128 0x1
 9930 2fe1 51       		.byte	0x51
 9931 2fe2 01       		.uleb128 0x1
 9932 2fe3 47       		.byte	0x47
 9933 2fe4 2D       		.uleb128 0x2d
 9934 2fe5 01       		.uleb128 0x1
 9935 2fe6 50       		.byte	0x50
 9936 2fe7 02       		.uleb128 0x2
 9937 2fe8 08       		.byte	0x8
 9938 2fe9 92       		.byte	0x92
 9939 2fea 00       		.byte	0
 9940 2feb 32       		.uleb128 0x32
 9941 2fec 24000000 		.4byte	.LVL279
 9942 2ff0 E7440000 		.4byte	0x44e7
 9943 2ff4 0D300000 		.4byte	0x300d
 9944 2ff8 2D       		.uleb128 0x2d
 9945 2ff9 01       		.uleb128 0x1
 9946 2ffa 52       		.byte	0x52
 9947 2ffb 01       		.uleb128 0x1
 9948 2ffc 46       		.byte	0x46
 9949 2ffd 2D       		.uleb128 0x2d
 9950 2ffe 01       		.uleb128 0x1
 9951 2fff 51       		.byte	0x51
 9952 3000 05       		.uleb128 0x5
 9953 3001 03       		.byte	0x3
 9954 3002 F7000000 		.4byte	.LC26
 9955 3006 2D       		.uleb128 0x2d
 9956 3007 01       		.uleb128 0x1
 9957 3008 50       		.byte	0x50
 9958 3009 02       		.uleb128 0x2
 9959 300a 74       		.byte	0x74
 9960 300b 00       		.sleb128 0
ARM GAS  C:\Users\AHMED~1.ELE\AppData\Local\Temp\ccpjtoUe.s 			page 207


 9961 300c 00       		.byte	0
 9962 300d 32       		.uleb128 0x32
 9963 300e 3A000000 		.4byte	.LVL280
 9964 3012 95460000 		.4byte	0x4695
 9965 3016 3B300000 		.4byte	0x303b
 9966 301a 2D       		.uleb128 0x2d
 9967 301b 01       		.uleb128 0x1
 9968 301c 53       		.byte	0x53
 9969 301d 03       		.uleb128 0x3
 9970 301e 0A       		.byte	0xa
 9971 301f 0003     		.2byte	0x300
 9972 3021 2D       		.uleb128 0x2d
 9973 3022 01       		.uleb128 0x1
 9974 3023 52       		.byte	0x52
 9975 3024 02       		.uleb128 0x2
 9976 3025 74       		.byte	0x74
 9977 3026 00       		.sleb128 0
 9978 3027 2D       		.uleb128 0x2d
 9979 3028 01       		.uleb128 0x1
 9980 3029 51       		.byte	0x51
 9981 302a 02       		.uleb128 0x2
 9982 302b 08       		.byte	0x8
 9983 302c 25       		.byte	0x25
 9984 302d 2D       		.uleb128 0x2d
 9985 302e 01       		.uleb128 0x1
 9986 302f 50       		.byte	0x50
 9987 3030 01       		.uleb128 0x1
 9988 3031 3F       		.byte	0x3f
 9989 3032 2D       		.uleb128 0x2d
 9990 3033 02       		.uleb128 0x2
 9991 3034 7D       		.byte	0x7d
 9992 3035 00       		.sleb128 0
 9993 3036 03       		.uleb128 0x3
 9994 3037 0A       		.byte	0xa
 9995 3038 2210     		.2byte	0x1022
 9996 303a 00       		.byte	0
 9997 303b 2C       		.uleb128 0x2c
 9998 303c 42000000 		.4byte	.LVL281
 9999 3040 63450000 		.4byte	0x4563
 10000 3044 2D       		.uleb128 0x2d
 10001 3045 01       		.uleb128 0x1
 10002 3046 51       		.byte	0x51
 10003 3047 02       		.uleb128 0x2
 10004 3048 74       		.byte	0x74
 10005 3049 00       		.sleb128 0
 10006 304a 2D       		.uleb128 0x2d
 10007 304b 01       		.uleb128 0x1
 10008 304c 50       		.byte	0x50
 10009 304d 02       		.uleb128 0x2
 10010 304e 08       		.byte	0x8
 10011 304f 94       		.byte	0x94
 10012 3050 00       		.byte	0
 10013 3051 00       		.byte	0
 10014 3052 38       		.uleb128 0x38
 10015 3053 88000000 		.4byte	.LBB15
 10016 3057 3C000000 		.4byte	.LBE15-.LBB15
 10017 305b 14310000 		.4byte	0x3114
ARM GAS  C:\Users\AHMED~1.ELE\AppData\Local\Temp\ccpjtoUe.s 			page 208


 10018 305f 30       		.uleb128 0x30
 10019 3060 6C656E00 		.ascii	"len\000"
 10020 3064 01       		.byte	0x1
 10021 3065 DA03     		.2byte	0x3da
 10022 3067 B8000000 		.4byte	0xb8
 10023 306b 16100000 		.4byte	.LLST98
 10024 306f 30       		.uleb128 0x30
 10025 3070 70747200 		.ascii	"ptr\000"
 10026 3074 01       		.byte	0x1
 10027 3075 DA03     		.2byte	0x3da
 10028 3077 DE000000 		.4byte	0xde
 10029 307b 34100000 		.4byte	.LLST99
 10030 307f 32       		.uleb128 0x32
 10031 3080 8E000000 		.4byte	.LVL289
 10032 3084 B3440000 		.4byte	0x44b3
 10033 3088 94300000 		.4byte	0x3094
 10034 308c 2D       		.uleb128 0x2d
 10035 308d 01       		.uleb128 0x1
 10036 308e 50       		.byte	0x50
 10037 308f 03       		.uleb128 0x3
 10038 3090 91       		.byte	0x91
 10039 3091 E87B     		.sleb128 -536
 10040 3093 00       		.byte	0
 10041 3094 32       		.uleb128 0x32
 10042 3095 98000000 		.4byte	.LVL292
 10043 3099 63450000 		.4byte	0x4563
 10044 309d AE300000 		.4byte	0x30ae
 10045 30a1 2D       		.uleb128 0x2d
 10046 30a2 01       		.uleb128 0x1
 10047 30a3 51       		.byte	0x51
 10048 30a4 02       		.uleb128 0x2
 10049 30a5 75       		.byte	0x75
 10050 30a6 01       		.sleb128 1
 10051 30a7 2D       		.uleb128 0x2d
 10052 30a8 01       		.uleb128 0x1
 10053 30a9 50       		.byte	0x50
 10054 30aa 02       		.uleb128 0x2
 10055 30ab 08       		.byte	0x8
 10056 30ac 92       		.byte	0x92
 10057 30ad 00       		.byte	0
 10058 30ae 32       		.uleb128 0x32
 10059 30af A4000000 		.4byte	.LVL293
 10060 30b3 E7440000 		.4byte	0x44e7
 10061 30b7 CF300000 		.4byte	0x30cf
 10062 30bb 2D       		.uleb128 0x2d
 10063 30bc 01       		.uleb128 0x1
 10064 30bd 52       		.byte	0x52
 10065 30be 02       		.uleb128 0x2
 10066 30bf 75       		.byte	0x75
 10067 30c0 00       		.sleb128 0
 10068 30c1 2D       		.uleb128 0x2d
 10069 30c2 01       		.uleb128 0x1
 10070 30c3 51       		.byte	0x51
 10071 30c4 03       		.uleb128 0x3
 10072 30c5 91       		.byte	0x91
 10073 30c6 E87B     		.sleb128 -536
 10074 30c8 2D       		.uleb128 0x2d
ARM GAS  C:\Users\AHMED~1.ELE\AppData\Local\Temp\ccpjtoUe.s 			page 209


 10075 30c9 01       		.uleb128 0x1
 10076 30ca 50       		.byte	0x50
 10077 30cb 02       		.uleb128 0x2
 10078 30cc 74       		.byte	0x74
 10079 30cd 00       		.sleb128 0
 10080 30ce 00       		.byte	0
 10081 30cf 32       		.uleb128 0x32
 10082 30d0 BC000000 		.4byte	.LVL294
 10083 30d4 95460000 		.4byte	0x4695
 10084 30d8 FD300000 		.4byte	0x30fd
 10085 30dc 2D       		.uleb128 0x2d
 10086 30dd 01       		.uleb128 0x1
 10087 30de 53       		.byte	0x53
 10088 30df 03       		.uleb128 0x3
 10089 30e0 0A       		.byte	0xa
 10090 30e1 0001     		.2byte	0x100
 10091 30e3 2D       		.uleb128 0x2d
 10092 30e4 01       		.uleb128 0x1
 10093 30e5 52       		.byte	0x52
 10094 30e6 02       		.uleb128 0x2
 10095 30e7 74       		.byte	0x74
 10096 30e8 00       		.sleb128 0
 10097 30e9 2D       		.uleb128 0x2d
 10098 30ea 01       		.uleb128 0x1
 10099 30eb 51       		.byte	0x51
 10100 30ec 02       		.uleb128 0x2
 10101 30ed 08       		.byte	0x8
 10102 30ee 25       		.byte	0x25
 10103 30ef 2D       		.uleb128 0x2d
 10104 30f0 01       		.uleb128 0x1
 10105 30f1 50       		.byte	0x50
 10106 30f2 01       		.uleb128 0x1
 10107 30f3 3F       		.byte	0x3f
 10108 30f4 2D       		.uleb128 0x2d
 10109 30f5 02       		.uleb128 0x2
 10110 30f6 7D       		.byte	0x7d
 10111 30f7 00       		.sleb128 0
 10112 30f8 03       		.uleb128 0x3
 10113 30f9 0A       		.byte	0xa
 10114 30fa 2020     		.2byte	0x2020
 10115 30fc 00       		.byte	0
 10116 30fd 2C       		.uleb128 0x2c
 10117 30fe C4000000 		.4byte	.LVL295
 10118 3102 63450000 		.4byte	0x4563
 10119 3106 2D       		.uleb128 0x2d
 10120 3107 01       		.uleb128 0x1
 10121 3108 51       		.byte	0x51
 10122 3109 02       		.uleb128 0x2
 10123 310a 74       		.byte	0x74
 10124 310b 00       		.sleb128 0
 10125 310c 2D       		.uleb128 0x2d
 10126 310d 01       		.uleb128 0x1
 10127 310e 50       		.byte	0x50
 10128 310f 02       		.uleb128 0x2
 10129 3110 08       		.byte	0x8
 10130 3111 94       		.byte	0x94
 10131 3112 00       		.byte	0
ARM GAS  C:\Users\AHMED~1.ELE\AppData\Local\Temp\ccpjtoUe.s 			page 210


 10132 3113 00       		.byte	0
 10133 3114 38       		.uleb128 0x38
 10134 3115 E6000000 		.4byte	.LBB16
 10135 3119 3C000000 		.4byte	.LBE16-.LBB16
 10136 311d D6310000 		.4byte	0x31d6
 10137 3121 30       		.uleb128 0x30
 10138 3122 6C656E00 		.ascii	"len\000"
 10139 3126 01       		.byte	0x1
 10140 3127 DE03     		.2byte	0x3de
 10141 3129 B8000000 		.4byte	0xb8
 10142 312d 52100000 		.4byte	.LLST100
 10143 3131 30       		.uleb128 0x30
 10144 3132 70747200 		.ascii	"ptr\000"
 10145 3136 01       		.byte	0x1
 10146 3137 DE03     		.2byte	0x3de
 10147 3139 DE000000 		.4byte	0xde
 10148 313d 70100000 		.4byte	.LLST101
 10149 3141 32       		.uleb128 0x32
 10150 3142 EC000000 		.4byte	.LVL299
 10151 3146 B3440000 		.4byte	0x44b3
 10152 314a 56310000 		.4byte	0x3156
 10153 314e 2D       		.uleb128 0x2d
 10154 314f 01       		.uleb128 0x1
 10155 3150 50       		.byte	0x50
 10156 3151 03       		.uleb128 0x3
 10157 3152 91       		.byte	0x91
 10158 3153 E87B     		.sleb128 -536
 10159 3155 00       		.byte	0
 10160 3156 32       		.uleb128 0x32
 10161 3157 F6000000 		.4byte	.LVL302
 10162 315b 63450000 		.4byte	0x4563
 10163 315f 70310000 		.4byte	0x3170
 10164 3163 2D       		.uleb128 0x2d
 10165 3164 01       		.uleb128 0x1
 10166 3165 51       		.byte	0x51
 10167 3166 02       		.uleb128 0x2
 10168 3167 75       		.byte	0x75
 10169 3168 01       		.sleb128 1
 10170 3169 2D       		.uleb128 0x2d
 10171 316a 01       		.uleb128 0x1
 10172 316b 50       		.byte	0x50
 10173 316c 02       		.uleb128 0x2
 10174 316d 08       		.byte	0x8
 10175 316e 92       		.byte	0x92
 10176 316f 00       		.byte	0
 10177 3170 32       		.uleb128 0x32
 10178 3171 02010000 		.4byte	.LVL304
 10179 3175 E7440000 		.4byte	0x44e7
 10180 3179 91310000 		.4byte	0x3191
 10181 317d 2D       		.uleb128 0x2d
 10182 317e 01       		.uleb128 0x1
 10183 317f 52       		.byte	0x52
 10184 3180 02       		.uleb128 0x2
 10185 3181 75       		.byte	0x75
 10186 3182 00       		.sleb128 0
 10187 3183 2D       		.uleb128 0x2d
 10188 3184 01       		.uleb128 0x1
ARM GAS  C:\Users\AHMED~1.ELE\AppData\Local\Temp\ccpjtoUe.s 			page 211


 10189 3185 51       		.byte	0x51
 10190 3186 03       		.uleb128 0x3
 10191 3187 91       		.byte	0x91
 10192 3188 E87B     		.sleb128 -536
 10193 318a 2D       		.uleb128 0x2d
 10194 318b 01       		.uleb128 0x1
 10195 318c 50       		.byte	0x50
 10196 318d 02       		.uleb128 0x2
 10197 318e 74       		.byte	0x74
 10198 318f 00       		.sleb128 0
 10199 3190 00       		.byte	0
 10200 3191 32       		.uleb128 0x32
 10201 3192 1A010000 		.4byte	.LVL305
 10202 3196 95460000 		.4byte	0x4695
 10203 319a BF310000 		.4byte	0x31bf
 10204 319e 2D       		.uleb128 0x2d
 10205 319f 01       		.uleb128 0x1
 10206 31a0 53       		.byte	0x53
 10207 31a1 03       		.uleb128 0x3
 10208 31a2 0A       		.byte	0xa
 10209 31a3 0002     		.2byte	0x200
 10210 31a5 2D       		.uleb128 0x2d
 10211 31a6 01       		.uleb128 0x1
 10212 31a7 52       		.byte	0x52
 10213 31a8 02       		.uleb128 0x2
 10214 31a9 74       		.byte	0x74
 10215 31aa 00       		.sleb128 0
 10216 31ab 2D       		.uleb128 0x2d
 10217 31ac 01       		.uleb128 0x1
 10218 31ad 51       		.byte	0x51
 10219 31ae 02       		.uleb128 0x2
 10220 31af 08       		.byte	0x8
 10221 31b0 25       		.byte	0x25
 10222 31b1 2D       		.uleb128 0x2d
 10223 31b2 01       		.uleb128 0x1
 10224 31b3 50       		.byte	0x50
 10225 31b4 01       		.uleb128 0x1
 10226 31b5 3F       		.byte	0x3f
 10227 31b6 2D       		.uleb128 0x2d
 10228 31b7 02       		.uleb128 0x2
 10229 31b8 7D       		.byte	0x7d
 10230 31b9 00       		.sleb128 0
 10231 31ba 03       		.uleb128 0x3
 10232 31bb 0A       		.byte	0xa
 10233 31bc 2020     		.2byte	0x2020
 10234 31be 00       		.byte	0
 10235 31bf 2C       		.uleb128 0x2c
 10236 31c0 22010000 		.4byte	.LVL306
 10237 31c4 63450000 		.4byte	0x4563
 10238 31c8 2D       		.uleb128 0x2d
 10239 31c9 01       		.uleb128 0x1
 10240 31ca 51       		.byte	0x51
 10241 31cb 02       		.uleb128 0x2
 10242 31cc 74       		.byte	0x74
 10243 31cd 00       		.sleb128 0
 10244 31ce 2D       		.uleb128 0x2d
 10245 31cf 01       		.uleb128 0x1
ARM GAS  C:\Users\AHMED~1.ELE\AppData\Local\Temp\ccpjtoUe.s 			page 212


 10246 31d0 50       		.byte	0x50
 10247 31d1 02       		.uleb128 0x2
 10248 31d2 08       		.byte	0x8
 10249 31d3 94       		.byte	0x94
 10250 31d4 00       		.byte	0
 10251 31d5 00       		.byte	0
 10252 31d6 38       		.uleb128 0x38
 10253 31d7 44010000 		.4byte	.LBB17
 10254 31db 3C000000 		.4byte	.LBE17-.LBB17
 10255 31df 98320000 		.4byte	0x3298
 10256 31e3 30       		.uleb128 0x30
 10257 31e4 6C656E00 		.ascii	"len\000"
 10258 31e8 01       		.byte	0x1
 10259 31e9 E203     		.2byte	0x3e2
 10260 31eb B8000000 		.4byte	0xb8
 10261 31ef 8E100000 		.4byte	.LLST102
 10262 31f3 30       		.uleb128 0x30
 10263 31f4 70747200 		.ascii	"ptr\000"
 10264 31f8 01       		.byte	0x1
 10265 31f9 E203     		.2byte	0x3e2
 10266 31fb DE000000 		.4byte	0xde
 10267 31ff AC100000 		.4byte	.LLST103
 10268 3203 32       		.uleb128 0x32
 10269 3204 4A010000 		.4byte	.LVL310
 10270 3208 B3440000 		.4byte	0x44b3
 10271 320c 18320000 		.4byte	0x3218
 10272 3210 2D       		.uleb128 0x2d
 10273 3211 01       		.uleb128 0x1
 10274 3212 50       		.byte	0x50
 10275 3213 03       		.uleb128 0x3
 10276 3214 91       		.byte	0x91
 10277 3215 E87B     		.sleb128 -536
 10278 3217 00       		.byte	0
 10279 3218 32       		.uleb128 0x32
 10280 3219 54010000 		.4byte	.LVL313
 10281 321d 63450000 		.4byte	0x4563
 10282 3221 32320000 		.4byte	0x3232
 10283 3225 2D       		.uleb128 0x2d
 10284 3226 01       		.uleb128 0x1
 10285 3227 51       		.byte	0x51
 10286 3228 02       		.uleb128 0x2
 10287 3229 75       		.byte	0x75
 10288 322a 01       		.sleb128 1
 10289 322b 2D       		.uleb128 0x2d
 10290 322c 01       		.uleb128 0x1
 10291 322d 50       		.byte	0x50
 10292 322e 02       		.uleb128 0x2
 10293 322f 08       		.byte	0x8
 10294 3230 92       		.byte	0x92
 10295 3231 00       		.byte	0
 10296 3232 32       		.uleb128 0x32
 10297 3233 60010000 		.4byte	.LVL315
 10298 3237 E7440000 		.4byte	0x44e7
 10299 323b 53320000 		.4byte	0x3253
 10300 323f 2D       		.uleb128 0x2d
 10301 3240 01       		.uleb128 0x1
 10302 3241 52       		.byte	0x52
ARM GAS  C:\Users\AHMED~1.ELE\AppData\Local\Temp\ccpjtoUe.s 			page 213


 10303 3242 02       		.uleb128 0x2
 10304 3243 75       		.byte	0x75
 10305 3244 00       		.sleb128 0
 10306 3245 2D       		.uleb128 0x2d
 10307 3246 01       		.uleb128 0x1
 10308 3247 51       		.byte	0x51
 10309 3248 03       		.uleb128 0x3
 10310 3249 91       		.byte	0x91
 10311 324a E87B     		.sleb128 -536
 10312 324c 2D       		.uleb128 0x2d
 10313 324d 01       		.uleb128 0x1
 10314 324e 50       		.byte	0x50
 10315 324f 02       		.uleb128 0x2
 10316 3250 74       		.byte	0x74
 10317 3251 00       		.sleb128 0
 10318 3252 00       		.byte	0
 10319 3253 32       		.uleb128 0x32
 10320 3254 78010000 		.4byte	.LVL316
 10321 3258 95460000 		.4byte	0x4695
 10322 325c 81320000 		.4byte	0x3281
 10323 3260 2D       		.uleb128 0x2d
 10324 3261 01       		.uleb128 0x1
 10325 3262 53       		.byte	0x53
 10326 3263 03       		.uleb128 0x3
 10327 3264 0A       		.byte	0xa
 10328 3265 0003     		.2byte	0x300
 10329 3267 2D       		.uleb128 0x2d
 10330 3268 01       		.uleb128 0x1
 10331 3269 52       		.byte	0x52
 10332 326a 02       		.uleb128 0x2
 10333 326b 74       		.byte	0x74
 10334 326c 00       		.sleb128 0
 10335 326d 2D       		.uleb128 0x2d
 10336 326e 01       		.uleb128 0x1
 10337 326f 51       		.byte	0x51
 10338 3270 02       		.uleb128 0x2
 10339 3271 08       		.byte	0x8
 10340 3272 25       		.byte	0x25
 10341 3273 2D       		.uleb128 0x2d
 10342 3274 01       		.uleb128 0x1
 10343 3275 50       		.byte	0x50
 10344 3276 01       		.uleb128 0x1
 10345 3277 3F       		.byte	0x3f
 10346 3278 2D       		.uleb128 0x2d
 10347 3279 02       		.uleb128 0x2
 10348 327a 7D       		.byte	0x7d
 10349 327b 00       		.sleb128 0
 10350 327c 03       		.uleb128 0x3
 10351 327d 0A       		.byte	0xa
 10352 327e 2020     		.2byte	0x2020
 10353 3280 00       		.byte	0
 10354 3281 2C       		.uleb128 0x2c
 10355 3282 80010000 		.4byte	.LVL317
 10356 3286 63450000 		.4byte	0x4563
 10357 328a 2D       		.uleb128 0x2d
 10358 328b 01       		.uleb128 0x1
 10359 328c 51       		.byte	0x51
ARM GAS  C:\Users\AHMED~1.ELE\AppData\Local\Temp\ccpjtoUe.s 			page 214


 10360 328d 02       		.uleb128 0x2
 10361 328e 74       		.byte	0x74
 10362 328f 00       		.sleb128 0
 10363 3290 2D       		.uleb128 0x2d
 10364 3291 01       		.uleb128 0x1
 10365 3292 50       		.byte	0x50
 10366 3293 02       		.uleb128 0x2
 10367 3294 08       		.byte	0x8
 10368 3295 94       		.byte	0x94
 10369 3296 00       		.byte	0
 10370 3297 00       		.byte	0
 10371 3298 38       		.uleb128 0x38
 10372 3299 A0010000 		.4byte	.LBB18
 10373 329d 3C000000 		.4byte	.LBE18-.LBB18
 10374 32a1 5A330000 		.4byte	0x335a
 10375 32a5 30       		.uleb128 0x30
 10376 32a6 6C656E00 		.ascii	"len\000"
 10377 32aa 01       		.byte	0x1
 10378 32ab E703     		.2byte	0x3e7
 10379 32ad B8000000 		.4byte	0xb8
 10380 32b1 CA100000 		.4byte	.LLST104
 10381 32b5 30       		.uleb128 0x30
 10382 32b6 70747200 		.ascii	"ptr\000"
 10383 32ba 01       		.byte	0x1
 10384 32bb E703     		.2byte	0x3e7
 10385 32bd DE000000 		.4byte	0xde
 10386 32c1 E8100000 		.4byte	.LLST105
 10387 32c5 32       		.uleb128 0x32
 10388 32c6 A6010000 		.4byte	.LVL321
 10389 32ca B3440000 		.4byte	0x44b3
 10390 32ce DA320000 		.4byte	0x32da
 10391 32d2 2D       		.uleb128 0x2d
 10392 32d3 01       		.uleb128 0x1
 10393 32d4 50       		.byte	0x50
 10394 32d5 03       		.uleb128 0x3
 10395 32d6 91       		.byte	0x91
 10396 32d7 E87B     		.sleb128 -536
 10397 32d9 00       		.byte	0
 10398 32da 32       		.uleb128 0x32
 10399 32db B0010000 		.4byte	.LVL324
 10400 32df 63450000 		.4byte	0x4563
 10401 32e3 F4320000 		.4byte	0x32f4
 10402 32e7 2D       		.uleb128 0x2d
 10403 32e8 01       		.uleb128 0x1
 10404 32e9 51       		.byte	0x51
 10405 32ea 02       		.uleb128 0x2
 10406 32eb 75       		.byte	0x75
 10407 32ec 01       		.sleb128 1
 10408 32ed 2D       		.uleb128 0x2d
 10409 32ee 01       		.uleb128 0x1
 10410 32ef 50       		.byte	0x50
 10411 32f0 02       		.uleb128 0x2
 10412 32f1 08       		.byte	0x8
 10413 32f2 92       		.byte	0x92
 10414 32f3 00       		.byte	0
 10415 32f4 32       		.uleb128 0x32
 10416 32f5 BC010000 		.4byte	.LVL326
ARM GAS  C:\Users\AHMED~1.ELE\AppData\Local\Temp\ccpjtoUe.s 			page 215


 10417 32f9 E7440000 		.4byte	0x44e7
 10418 32fd 15330000 		.4byte	0x3315
 10419 3301 2D       		.uleb128 0x2d
 10420 3302 01       		.uleb128 0x1
 10421 3303 52       		.byte	0x52
 10422 3304 02       		.uleb128 0x2
 10423 3305 75       		.byte	0x75
 10424 3306 00       		.sleb128 0
 10425 3307 2D       		.uleb128 0x2d
 10426 3308 01       		.uleb128 0x1
 10427 3309 51       		.byte	0x51
 10428 330a 03       		.uleb128 0x3
 10429 330b 91       		.byte	0x91
 10430 330c E87B     		.sleb128 -536
 10431 330e 2D       		.uleb128 0x2d
 10432 330f 01       		.uleb128 0x1
 10433 3310 50       		.byte	0x50
 10434 3311 02       		.uleb128 0x2
 10435 3312 74       		.byte	0x74
 10436 3313 00       		.sleb128 0
 10437 3314 00       		.byte	0
 10438 3315 32       		.uleb128 0x32
 10439 3316 D4010000 		.4byte	.LVL327
 10440 331a 95460000 		.4byte	0x4695
 10441 331e 43330000 		.4byte	0x3343
 10442 3322 2D       		.uleb128 0x2d
 10443 3323 01       		.uleb128 0x1
 10444 3324 53       		.byte	0x53
 10445 3325 03       		.uleb128 0x3
 10446 3326 0A       		.byte	0xa
 10447 3327 0004     		.2byte	0x400
 10448 3329 2D       		.uleb128 0x2d
 10449 332a 01       		.uleb128 0x1
 10450 332b 52       		.byte	0x52
 10451 332c 02       		.uleb128 0x2
 10452 332d 74       		.byte	0x74
 10453 332e 00       		.sleb128 0
 10454 332f 2D       		.uleb128 0x2d
 10455 3330 01       		.uleb128 0x1
 10456 3331 51       		.byte	0x51
 10457 3332 02       		.uleb128 0x2
 10458 3333 08       		.byte	0x8
 10459 3334 25       		.byte	0x25
 10460 3335 2D       		.uleb128 0x2d
 10461 3336 01       		.uleb128 0x1
 10462 3337 50       		.byte	0x50
 10463 3338 01       		.uleb128 0x1
 10464 3339 3F       		.byte	0x3f
 10465 333a 2D       		.uleb128 0x2d
 10466 333b 02       		.uleb128 0x2
 10467 333c 7D       		.byte	0x7d
 10468 333d 00       		.sleb128 0
 10469 333e 03       		.uleb128 0x3
 10470 333f 0A       		.byte	0xa
 10471 3340 2020     		.2byte	0x2020
 10472 3342 00       		.byte	0
 10473 3343 2C       		.uleb128 0x2c
ARM GAS  C:\Users\AHMED~1.ELE\AppData\Local\Temp\ccpjtoUe.s 			page 216


 10474 3344 DC010000 		.4byte	.LVL328
 10475 3348 63450000 		.4byte	0x4563
 10476 334c 2D       		.uleb128 0x2d
 10477 334d 01       		.uleb128 0x1
 10478 334e 51       		.byte	0x51
 10479 334f 02       		.uleb128 0x2
 10480 3350 74       		.byte	0x74
 10481 3351 00       		.sleb128 0
 10482 3352 2D       		.uleb128 0x2d
 10483 3353 01       		.uleb128 0x1
 10484 3354 50       		.byte	0x50
 10485 3355 02       		.uleb128 0x2
 10486 3356 08       		.byte	0x8
 10487 3357 94       		.byte	0x94
 10488 3358 00       		.byte	0
 10489 3359 00       		.byte	0
 10490 335a 38       		.uleb128 0x38
 10491 335b FE010000 		.4byte	.LBB19
 10492 335f 3C000000 		.4byte	.LBE19-.LBB19
 10493 3363 1C340000 		.4byte	0x341c
 10494 3367 30       		.uleb128 0x30
 10495 3368 6C656E00 		.ascii	"len\000"
 10496 336c 01       		.byte	0x1
 10497 336d EB03     		.2byte	0x3eb
 10498 336f B8000000 		.4byte	0xb8
 10499 3373 06110000 		.4byte	.LLST106
 10500 3377 30       		.uleb128 0x30
 10501 3378 70747200 		.ascii	"ptr\000"
 10502 337c 01       		.byte	0x1
 10503 337d EB03     		.2byte	0x3eb
 10504 337f DE000000 		.4byte	0xde
 10505 3383 24110000 		.4byte	.LLST107
 10506 3387 32       		.uleb128 0x32
 10507 3388 04020000 		.4byte	.LVL332
 10508 338c B3440000 		.4byte	0x44b3
 10509 3390 9C330000 		.4byte	0x339c
 10510 3394 2D       		.uleb128 0x2d
 10511 3395 01       		.uleb128 0x1
 10512 3396 50       		.byte	0x50
 10513 3397 03       		.uleb128 0x3
 10514 3398 91       		.byte	0x91
 10515 3399 E87B     		.sleb128 -536
 10516 339b 00       		.byte	0
 10517 339c 32       		.uleb128 0x32
 10518 339d 0E020000 		.4byte	.LVL335
 10519 33a1 63450000 		.4byte	0x4563
 10520 33a5 B6330000 		.4byte	0x33b6
 10521 33a9 2D       		.uleb128 0x2d
 10522 33aa 01       		.uleb128 0x1
 10523 33ab 51       		.byte	0x51
 10524 33ac 02       		.uleb128 0x2
 10525 33ad 75       		.byte	0x75
 10526 33ae 01       		.sleb128 1
 10527 33af 2D       		.uleb128 0x2d
 10528 33b0 01       		.uleb128 0x1
 10529 33b1 50       		.byte	0x50
 10530 33b2 02       		.uleb128 0x2
ARM GAS  C:\Users\AHMED~1.ELE\AppData\Local\Temp\ccpjtoUe.s 			page 217


 10531 33b3 08       		.byte	0x8
 10532 33b4 92       		.byte	0x92
 10533 33b5 00       		.byte	0
 10534 33b6 32       		.uleb128 0x32
 10535 33b7 1A020000 		.4byte	.LVL337
 10536 33bb E7440000 		.4byte	0x44e7
 10537 33bf D7330000 		.4byte	0x33d7
 10538 33c3 2D       		.uleb128 0x2d
 10539 33c4 01       		.uleb128 0x1
 10540 33c5 52       		.byte	0x52
 10541 33c6 02       		.uleb128 0x2
 10542 33c7 75       		.byte	0x75
 10543 33c8 00       		.sleb128 0
 10544 33c9 2D       		.uleb128 0x2d
 10545 33ca 01       		.uleb128 0x1
 10546 33cb 51       		.byte	0x51
 10547 33cc 03       		.uleb128 0x3
 10548 33cd 91       		.byte	0x91
 10549 33ce E87B     		.sleb128 -536
 10550 33d0 2D       		.uleb128 0x2d
 10551 33d1 01       		.uleb128 0x1
 10552 33d2 50       		.byte	0x50
 10553 33d3 02       		.uleb128 0x2
 10554 33d4 74       		.byte	0x74
 10555 33d5 00       		.sleb128 0
 10556 33d6 00       		.byte	0
 10557 33d7 32       		.uleb128 0x32
 10558 33d8 32020000 		.4byte	.LVL338
 10559 33dc 95460000 		.4byte	0x4695
 10560 33e0 05340000 		.4byte	0x3405
 10561 33e4 2D       		.uleb128 0x2d
 10562 33e5 01       		.uleb128 0x1
 10563 33e6 53       		.byte	0x53
 10564 33e7 03       		.uleb128 0x3
 10565 33e8 0A       		.byte	0xa
 10566 33e9 0005     		.2byte	0x500
 10567 33eb 2D       		.uleb128 0x2d
 10568 33ec 01       		.uleb128 0x1
 10569 33ed 52       		.byte	0x52
 10570 33ee 02       		.uleb128 0x2
 10571 33ef 74       		.byte	0x74
 10572 33f0 00       		.sleb128 0
 10573 33f1 2D       		.uleb128 0x2d
 10574 33f2 01       		.uleb128 0x1
 10575 33f3 51       		.byte	0x51
 10576 33f4 02       		.uleb128 0x2
 10577 33f5 08       		.byte	0x8
 10578 33f6 25       		.byte	0x25
 10579 33f7 2D       		.uleb128 0x2d
 10580 33f8 01       		.uleb128 0x1
 10581 33f9 50       		.byte	0x50
 10582 33fa 01       		.uleb128 0x1
 10583 33fb 3F       		.byte	0x3f
 10584 33fc 2D       		.uleb128 0x2d
 10585 33fd 02       		.uleb128 0x2
 10586 33fe 7D       		.byte	0x7d
 10587 33ff 00       		.sleb128 0
ARM GAS  C:\Users\AHMED~1.ELE\AppData\Local\Temp\ccpjtoUe.s 			page 218


 10588 3400 03       		.uleb128 0x3
 10589 3401 0A       		.byte	0xa
 10590 3402 2020     		.2byte	0x2020
 10591 3404 00       		.byte	0
 10592 3405 2C       		.uleb128 0x2c
 10593 3406 3A020000 		.4byte	.LVL339
 10594 340a 63450000 		.4byte	0x4563
 10595 340e 2D       		.uleb128 0x2d
 10596 340f 01       		.uleb128 0x1
 10597 3410 51       		.byte	0x51
 10598 3411 02       		.uleb128 0x2
 10599 3412 74       		.byte	0x74
 10600 3413 00       		.sleb128 0
 10601 3414 2D       		.uleb128 0x2d
 10602 3415 01       		.uleb128 0x1
 10603 3416 50       		.byte	0x50
 10604 3417 02       		.uleb128 0x2
 10605 3418 08       		.byte	0x8
 10606 3419 94       		.byte	0x94
 10607 341a 00       		.byte	0
 10608 341b 00       		.byte	0
 10609 341c 38       		.uleb128 0x38
 10610 341d 5A020000 		.4byte	.LBB20
 10611 3421 3C000000 		.4byte	.LBE20-.LBB20
 10612 3425 DE340000 		.4byte	0x34de
 10613 3429 30       		.uleb128 0x30
 10614 342a 6C656E00 		.ascii	"len\000"
 10615 342e 01       		.byte	0x1
 10616 342f EF03     		.2byte	0x3ef
 10617 3431 B8000000 		.4byte	0xb8
 10618 3435 42110000 		.4byte	.LLST108
 10619 3439 30       		.uleb128 0x30
 10620 343a 70747200 		.ascii	"ptr\000"
 10621 343e 01       		.byte	0x1
 10622 343f EF03     		.2byte	0x3ef
 10623 3441 DE000000 		.4byte	0xde
 10624 3445 6B110000 		.4byte	.LLST109
 10625 3449 32       		.uleb128 0x32
 10626 344a 60020000 		.4byte	.LVL343
 10627 344e B3440000 		.4byte	0x44b3
 10628 3452 5E340000 		.4byte	0x345e
 10629 3456 2D       		.uleb128 0x2d
 10630 3457 01       		.uleb128 0x1
 10631 3458 50       		.byte	0x50
 10632 3459 03       		.uleb128 0x3
 10633 345a 91       		.byte	0x91
 10634 345b E87B     		.sleb128 -536
 10635 345d 00       		.byte	0
 10636 345e 32       		.uleb128 0x32
 10637 345f 6A020000 		.4byte	.LVL346
 10638 3463 63450000 		.4byte	0x4563
 10639 3467 78340000 		.4byte	0x3478
 10640 346b 2D       		.uleb128 0x2d
 10641 346c 01       		.uleb128 0x1
 10642 346d 51       		.byte	0x51
 10643 346e 02       		.uleb128 0x2
 10644 346f 75       		.byte	0x75
ARM GAS  C:\Users\AHMED~1.ELE\AppData\Local\Temp\ccpjtoUe.s 			page 219


 10645 3470 01       		.sleb128 1
 10646 3471 2D       		.uleb128 0x2d
 10647 3472 01       		.uleb128 0x1
 10648 3473 50       		.byte	0x50
 10649 3474 02       		.uleb128 0x2
 10650 3475 08       		.byte	0x8
 10651 3476 92       		.byte	0x92
 10652 3477 00       		.byte	0
 10653 3478 32       		.uleb128 0x32
 10654 3479 76020000 		.4byte	.LVL348
 10655 347d E7440000 		.4byte	0x44e7
 10656 3481 99340000 		.4byte	0x3499
 10657 3485 2D       		.uleb128 0x2d
 10658 3486 01       		.uleb128 0x1
 10659 3487 52       		.byte	0x52
 10660 3488 02       		.uleb128 0x2
 10661 3489 75       		.byte	0x75
 10662 348a 00       		.sleb128 0
 10663 348b 2D       		.uleb128 0x2d
 10664 348c 01       		.uleb128 0x1
 10665 348d 51       		.byte	0x51
 10666 348e 03       		.uleb128 0x3
 10667 348f 91       		.byte	0x91
 10668 3490 E87B     		.sleb128 -536
 10669 3492 2D       		.uleb128 0x2d
 10670 3493 01       		.uleb128 0x1
 10671 3494 50       		.byte	0x50
 10672 3495 02       		.uleb128 0x2
 10673 3496 74       		.byte	0x74
 10674 3497 00       		.sleb128 0
 10675 3498 00       		.byte	0
 10676 3499 32       		.uleb128 0x32
 10677 349a 8E020000 		.4byte	.LVL349
 10678 349e 95460000 		.4byte	0x4695
 10679 34a2 C7340000 		.4byte	0x34c7
 10680 34a6 2D       		.uleb128 0x2d
 10681 34a7 01       		.uleb128 0x1
 10682 34a8 53       		.byte	0x53
 10683 34a9 03       		.uleb128 0x3
 10684 34aa 0A       		.byte	0xa
 10685 34ab 0006     		.2byte	0x600
 10686 34ad 2D       		.uleb128 0x2d
 10687 34ae 01       		.uleb128 0x1
 10688 34af 52       		.byte	0x52
 10689 34b0 02       		.uleb128 0x2
 10690 34b1 74       		.byte	0x74
 10691 34b2 00       		.sleb128 0
 10692 34b3 2D       		.uleb128 0x2d
 10693 34b4 01       		.uleb128 0x1
 10694 34b5 51       		.byte	0x51
 10695 34b6 02       		.uleb128 0x2
 10696 34b7 08       		.byte	0x8
 10697 34b8 25       		.byte	0x25
 10698 34b9 2D       		.uleb128 0x2d
 10699 34ba 01       		.uleb128 0x1
 10700 34bb 50       		.byte	0x50
 10701 34bc 01       		.uleb128 0x1
ARM GAS  C:\Users\AHMED~1.ELE\AppData\Local\Temp\ccpjtoUe.s 			page 220


 10702 34bd 3F       		.byte	0x3f
 10703 34be 2D       		.uleb128 0x2d
 10704 34bf 02       		.uleb128 0x2
 10705 34c0 7D       		.byte	0x7d
 10706 34c1 00       		.sleb128 0
 10707 34c2 03       		.uleb128 0x3
 10708 34c3 0A       		.byte	0xa
 10709 34c4 2020     		.2byte	0x2020
 10710 34c6 00       		.byte	0
 10711 34c7 2C       		.uleb128 0x2c
 10712 34c8 96020000 		.4byte	.LVL350
 10713 34cc 63450000 		.4byte	0x4563
 10714 34d0 2D       		.uleb128 0x2d
 10715 34d1 01       		.uleb128 0x1
 10716 34d2 51       		.byte	0x51
 10717 34d3 02       		.uleb128 0x2
 10718 34d4 74       		.byte	0x74
 10719 34d5 00       		.sleb128 0
 10720 34d6 2D       		.uleb128 0x2d
 10721 34d7 01       		.uleb128 0x1
 10722 34d8 50       		.byte	0x50
 10723 34d9 02       		.uleb128 0x2
 10724 34da 08       		.byte	0x8
 10725 34db 94       		.byte	0x94
 10726 34dc 00       		.byte	0
 10727 34dd 00       		.byte	0
 10728 34de 38       		.uleb128 0x38
 10729 34df B8020000 		.4byte	.LBB21
 10730 34e3 6C000000 		.4byte	.LBE21-.LBB21
 10731 34e7 A0350000 		.4byte	0x35a0
 10732 34eb 30       		.uleb128 0x30
 10733 34ec 6C656E00 		.ascii	"len\000"
 10734 34f0 01       		.byte	0x1
 10735 34f1 F703     		.2byte	0x3f7
 10736 34f3 B8000000 		.4byte	0xb8
 10737 34f7 89110000 		.4byte	.LLST110
 10738 34fb 30       		.uleb128 0x30
 10739 34fc 70747200 		.ascii	"ptr\000"
 10740 3500 01       		.byte	0x1
 10741 3501 F703     		.2byte	0x3f7
 10742 3503 DE000000 		.4byte	0xde
 10743 3507 A7110000 		.4byte	.LLST111
 10744 350b 32       		.uleb128 0x32
 10745 350c BE020000 		.4byte	.LVL355
 10746 3510 B3440000 		.4byte	0x44b3
 10747 3514 20350000 		.4byte	0x3520
 10748 3518 2D       		.uleb128 0x2d
 10749 3519 01       		.uleb128 0x1
 10750 351a 50       		.byte	0x50
 10751 351b 03       		.uleb128 0x3
 10752 351c 91       		.byte	0x91
 10753 351d E87B     		.sleb128 -536
 10754 351f 00       		.byte	0
 10755 3520 32       		.uleb128 0x32
 10756 3521 C8020000 		.4byte	.LVL358
 10757 3525 63450000 		.4byte	0x4563
 10758 3529 3A350000 		.4byte	0x353a
ARM GAS  C:\Users\AHMED~1.ELE\AppData\Local\Temp\ccpjtoUe.s 			page 221


 10759 352d 2D       		.uleb128 0x2d
 10760 352e 01       		.uleb128 0x1
 10761 352f 51       		.byte	0x51
 10762 3530 02       		.uleb128 0x2
 10763 3531 75       		.byte	0x75
 10764 3532 01       		.sleb128 1
 10765 3533 2D       		.uleb128 0x2d
 10766 3534 01       		.uleb128 0x1
 10767 3535 50       		.byte	0x50
 10768 3536 02       		.uleb128 0x2
 10769 3537 08       		.byte	0x8
 10770 3538 92       		.byte	0x92
 10771 3539 00       		.byte	0
 10772 353a 32       		.uleb128 0x32
 10773 353b D8020000 		.4byte	.LVL360
 10774 353f E7440000 		.4byte	0x44e7
 10775 3543 5B350000 		.4byte	0x355b
 10776 3547 2D       		.uleb128 0x2d
 10777 3548 01       		.uleb128 0x1
 10778 3549 52       		.byte	0x52
 10779 354a 02       		.uleb128 0x2
 10780 354b 75       		.byte	0x75
 10781 354c 00       		.sleb128 0
 10782 354d 2D       		.uleb128 0x2d
 10783 354e 01       		.uleb128 0x1
 10784 354f 51       		.byte	0x51
 10785 3550 03       		.uleb128 0x3
 10786 3551 91       		.byte	0x91
 10787 3552 E87B     		.sleb128 -536
 10788 3554 2D       		.uleb128 0x2d
 10789 3555 01       		.uleb128 0x1
 10790 3556 50       		.byte	0x50
 10791 3557 02       		.uleb128 0x2
 10792 3558 74       		.byte	0x74
 10793 3559 00       		.sleb128 0
 10794 355a 00       		.byte	0
 10795 355b 32       		.uleb128 0x32
 10796 355c F0020000 		.4byte	.LVL361
 10797 3560 95460000 		.4byte	0x4695
 10798 3564 89350000 		.4byte	0x3589
 10799 3568 2D       		.uleb128 0x2d
 10800 3569 01       		.uleb128 0x1
 10801 356a 53       		.byte	0x53
 10802 356b 03       		.uleb128 0x3
 10803 356c 0A       		.byte	0xa
 10804 356d 0003     		.2byte	0x300
 10805 356f 2D       		.uleb128 0x2d
 10806 3570 01       		.uleb128 0x1
 10807 3571 52       		.byte	0x52
 10808 3572 02       		.uleb128 0x2
 10809 3573 74       		.byte	0x74
 10810 3574 00       		.sleb128 0
 10811 3575 2D       		.uleb128 0x2d
 10812 3576 01       		.uleb128 0x1
 10813 3577 51       		.byte	0x51
 10814 3578 02       		.uleb128 0x2
 10815 3579 08       		.byte	0x8
ARM GAS  C:\Users\AHMED~1.ELE\AppData\Local\Temp\ccpjtoUe.s 			page 222


 10816 357a 25       		.byte	0x25
 10817 357b 2D       		.uleb128 0x2d
 10818 357c 01       		.uleb128 0x1
 10819 357d 50       		.byte	0x50
 10820 357e 01       		.uleb128 0x1
 10821 357f 3F       		.byte	0x3f
 10822 3580 2D       		.uleb128 0x2d
 10823 3581 02       		.uleb128 0x2
 10824 3582 7D       		.byte	0x7d
 10825 3583 00       		.sleb128 0
 10826 3584 03       		.uleb128 0x3
 10827 3585 0A       		.byte	0xa
 10828 3586 2210     		.2byte	0x1022
 10829 3588 00       		.byte	0
 10830 3589 2C       		.uleb128 0x2c
 10831 358a F8020000 		.4byte	.LVL362
 10832 358e 63450000 		.4byte	0x4563
 10833 3592 2D       		.uleb128 0x2d
 10834 3593 01       		.uleb128 0x1
 10835 3594 51       		.byte	0x51
 10836 3595 02       		.uleb128 0x2
 10837 3596 74       		.byte	0x74
 10838 3597 00       		.sleb128 0
 10839 3598 2D       		.uleb128 0x2d
 10840 3599 01       		.uleb128 0x1
 10841 359a 50       		.byte	0x50
 10842 359b 02       		.uleb128 0x2
 10843 359c 08       		.byte	0x8
 10844 359d 94       		.byte	0x94
 10845 359e 00       		.byte	0
 10846 359f 00       		.byte	0
 10847 35a0 38       		.uleb128 0x38
 10848 35a1 2C030000 		.4byte	.LBB22
 10849 35a5 3C000000 		.4byte	.LBE22-.LBB22
 10850 35a9 62360000 		.4byte	0x3662
 10851 35ad 30       		.uleb128 0x30
 10852 35ae 6C656E00 		.ascii	"len\000"
 10853 35b2 01       		.byte	0x1
 10854 35b3 FC03     		.2byte	0x3fc
 10855 35b5 B8000000 		.4byte	0xb8
 10856 35b9 C5110000 		.4byte	.LLST112
 10857 35bd 30       		.uleb128 0x30
 10858 35be 70747200 		.ascii	"ptr\000"
 10859 35c2 01       		.byte	0x1
 10860 35c3 FC03     		.2byte	0x3fc
 10861 35c5 DE000000 		.4byte	0xde
 10862 35c9 E3110000 		.4byte	.LLST113
 10863 35cd 32       		.uleb128 0x32
 10864 35ce 32030000 		.4byte	.LVL365
 10865 35d2 B3440000 		.4byte	0x44b3
 10866 35d6 E2350000 		.4byte	0x35e2
 10867 35da 2D       		.uleb128 0x2d
 10868 35db 01       		.uleb128 0x1
 10869 35dc 50       		.byte	0x50
 10870 35dd 03       		.uleb128 0x3
 10871 35de 91       		.byte	0x91
 10872 35df E87B     		.sleb128 -536
ARM GAS  C:\Users\AHMED~1.ELE\AppData\Local\Temp\ccpjtoUe.s 			page 223


 10873 35e1 00       		.byte	0
 10874 35e2 32       		.uleb128 0x32
 10875 35e3 3C030000 		.4byte	.LVL368
 10876 35e7 63450000 		.4byte	0x4563
 10877 35eb FC350000 		.4byte	0x35fc
 10878 35ef 2D       		.uleb128 0x2d
 10879 35f0 01       		.uleb128 0x1
 10880 35f1 51       		.byte	0x51
 10881 35f2 02       		.uleb128 0x2
 10882 35f3 76       		.byte	0x76
 10883 35f4 01       		.sleb128 1
 10884 35f5 2D       		.uleb128 0x2d
 10885 35f6 01       		.uleb128 0x1
 10886 35f7 50       		.byte	0x50
 10887 35f8 02       		.uleb128 0x2
 10888 35f9 08       		.byte	0x8
 10889 35fa 92       		.byte	0x92
 10890 35fb 00       		.byte	0
 10891 35fc 32       		.uleb128 0x32
 10892 35fd 48030000 		.4byte	.LVL370
 10893 3601 E7440000 		.4byte	0x44e7
 10894 3605 1D360000 		.4byte	0x361d
 10895 3609 2D       		.uleb128 0x2d
 10896 360a 01       		.uleb128 0x1
 10897 360b 52       		.byte	0x52
 10898 360c 02       		.uleb128 0x2
 10899 360d 76       		.byte	0x76
 10900 360e 00       		.sleb128 0
 10901 360f 2D       		.uleb128 0x2d
 10902 3610 01       		.uleb128 0x1
 10903 3611 51       		.byte	0x51
 10904 3612 03       		.uleb128 0x3
 10905 3613 91       		.byte	0x91
 10906 3614 E87B     		.sleb128 -536
 10907 3616 2D       		.uleb128 0x2d
 10908 3617 01       		.uleb128 0x1
 10909 3618 50       		.byte	0x50
 10910 3619 02       		.uleb128 0x2
 10911 361a 75       		.byte	0x75
 10912 361b 00       		.sleb128 0
 10913 361c 00       		.byte	0
 10914 361d 32       		.uleb128 0x32
 10915 361e 60030000 		.4byte	.LVL371
 10916 3622 95460000 		.4byte	0x4695
 10917 3626 4B360000 		.4byte	0x364b
 10918 362a 2D       		.uleb128 0x2d
 10919 362b 01       		.uleb128 0x1
 10920 362c 53       		.byte	0x53
 10921 362d 03       		.uleb128 0x3
 10922 362e 0A       		.byte	0xa
 10923 362f 0003     		.2byte	0x300
 10924 3631 2D       		.uleb128 0x2d
 10925 3632 01       		.uleb128 0x1
 10926 3633 52       		.byte	0x52
 10927 3634 02       		.uleb128 0x2
 10928 3635 75       		.byte	0x75
 10929 3636 00       		.sleb128 0
ARM GAS  C:\Users\AHMED~1.ELE\AppData\Local\Temp\ccpjtoUe.s 			page 224


 10930 3637 2D       		.uleb128 0x2d
 10931 3638 01       		.uleb128 0x1
 10932 3639 51       		.byte	0x51
 10933 363a 02       		.uleb128 0x2
 10934 363b 08       		.byte	0x8
 10935 363c 25       		.byte	0x25
 10936 363d 2D       		.uleb128 0x2d
 10937 363e 01       		.uleb128 0x1
 10938 363f 50       		.byte	0x50
 10939 3640 01       		.uleb128 0x1
 10940 3641 3F       		.byte	0x3f
 10941 3642 2D       		.uleb128 0x2d
 10942 3643 02       		.uleb128 0x2
 10943 3644 7D       		.byte	0x7d
 10944 3645 00       		.sleb128 0
 10945 3646 03       		.uleb128 0x3
 10946 3647 0A       		.byte	0xa
 10947 3648 2210     		.2byte	0x1022
 10948 364a 00       		.byte	0
 10949 364b 2C       		.uleb128 0x2c
 10950 364c 68030000 		.4byte	.LVL372
 10951 3650 63450000 		.4byte	0x4563
 10952 3654 2D       		.uleb128 0x2d
 10953 3655 01       		.uleb128 0x1
 10954 3656 51       		.byte	0x51
 10955 3657 02       		.uleb128 0x2
 10956 3658 75       		.byte	0x75
 10957 3659 00       		.sleb128 0
 10958 365a 2D       		.uleb128 0x2d
 10959 365b 01       		.uleb128 0x1
 10960 365c 50       		.byte	0x50
 10961 365d 02       		.uleb128 0x2
 10962 365e 08       		.byte	0x8
 10963 365f 94       		.byte	0x94
 10964 3660 00       		.byte	0
 10965 3661 00       		.byte	0
 10966 3662 32       		.uleb128 0x32
 10967 3663 0C000000 		.4byte	.LVL276
 10968 3667 BE460000 		.4byte	0x46be
 10969 366b 77360000 		.4byte	0x3677
 10970 366f 2D       		.uleb128 0x2d
 10971 3670 01       		.uleb128 0x1
 10972 3671 50       		.byte	0x50
 10973 3672 03       		.uleb128 0x3
 10974 3673 91       		.byte	0x91
 10975 3674 E87C     		.sleb128 -408
 10976 3676 00       		.byte	0
 10977 3677 32       		.uleb128 0x32
 10978 3678 50000000 		.4byte	.LVL282
 10979 367c 95460000 		.4byte	0x4695
 10980 3680 9F360000 		.4byte	0x369f
 10981 3684 2D       		.uleb128 0x2d
 10982 3685 01       		.uleb128 0x1
 10983 3686 53       		.byte	0x53
 10984 3687 01       		.uleb128 0x1
 10985 3688 30       		.byte	0x30
 10986 3689 2D       		.uleb128 0x2d
ARM GAS  C:\Users\AHMED~1.ELE\AppData\Local\Temp\ccpjtoUe.s 			page 225


 10987 368a 01       		.uleb128 0x1
 10988 368b 52       		.byte	0x52
 10989 368c 01       		.uleb128 0x1
 10990 368d 30       		.byte	0x30
 10991 368e 2D       		.uleb128 0x2d
 10992 368f 01       		.uleb128 0x1
 10993 3690 51       		.byte	0x51
 10994 3691 01       		.uleb128 0x1
 10995 3692 46       		.byte	0x46
 10996 3693 2D       		.uleb128 0x2d
 10997 3694 01       		.uleb128 0x1
 10998 3695 50       		.byte	0x50
 10999 3696 01       		.uleb128 0x1
 11000 3697 3F       		.byte	0x3f
 11001 3698 2D       		.uleb128 0x2d
 11002 3699 02       		.uleb128 0x2
 11003 369a 7D       		.byte	0x7d
 11004 369b 00       		.sleb128 0
 11005 369c 01       		.uleb128 0x1
 11006 369d 30       		.byte	0x30
 11007 369e 00       		.byte	0
 11008 369f 32       		.uleb128 0x32
 11009 36a0 5E000000 		.4byte	.LVL283
 11010 36a4 D3460000 		.4byte	0x46d3
 11011 36a8 B4360000 		.4byte	0x36b4
 11012 36ac 2D       		.uleb128 0x2d
 11013 36ad 01       		.uleb128 0x1
 11014 36ae 50       		.byte	0x50
 11015 36af 03       		.uleb128 0x3
 11016 36b0 0A       		.byte	0xa
 11017 36b1 9C01     		.2byte	0x19c
 11018 36b3 00       		.byte	0
 11019 36b4 32       		.uleb128 0x32
 11020 36b5 68000000 		.4byte	.LVL285
 11021 36b9 63450000 		.4byte	0x4563
 11022 36bd CC360000 		.4byte	0x36cc
 11023 36c1 2D       		.uleb128 0x2d
 11024 36c2 01       		.uleb128 0x1
 11025 36c3 51       		.byte	0x51
 11026 36c4 01       		.uleb128 0x1
 11027 36c5 3C       		.byte	0x3c
 11028 36c6 2D       		.uleb128 0x2d
 11029 36c7 01       		.uleb128 0x1
 11030 36c8 50       		.byte	0x50
 11031 36c9 01       		.uleb128 0x1
 11032 36ca 46       		.byte	0x46
 11033 36cb 00       		.byte	0
 11034 36cc 32       		.uleb128 0x32
 11035 36cd 72000000 		.4byte	.LVL286
 11036 36d1 7D450000 		.4byte	0x457d
 11037 36d5 EC360000 		.4byte	0x36ec
 11038 36d9 2D       		.uleb128 0x2d
 11039 36da 01       		.uleb128 0x1
 11040 36db 52       		.byte	0x52
 11041 36dc 02       		.uleb128 0x2
 11042 36dd 08       		.byte	0x8
 11043 36de 21       		.byte	0x21
ARM GAS  C:\Users\AHMED~1.ELE\AppData\Local\Temp\ccpjtoUe.s 			page 226


 11044 36df 2D       		.uleb128 0x2d
 11045 36e0 01       		.uleb128 0x1
 11046 36e1 51       		.byte	0x51
 11047 36e2 01       		.uleb128 0x1
 11048 36e3 30       		.byte	0x30
 11049 36e4 2D       		.uleb128 0x2d
 11050 36e5 01       		.uleb128 0x1
 11051 36e6 50       		.byte	0x50
 11052 36e7 03       		.uleb128 0x3
 11053 36e8 91       		.byte	0x91
 11054 36e9 C47B     		.sleb128 -572
 11055 36eb 00       		.byte	0
 11056 36ec 32       		.uleb128 0x32
 11057 36ed 7E000000 		.4byte	.LVL287
 11058 36f1 E7440000 		.4byte	0x44e7
 11059 36f5 0E370000 		.4byte	0x370e
 11060 36f9 2D       		.uleb128 0x2d
 11061 36fa 01       		.uleb128 0x1
 11062 36fb 52       		.byte	0x52
 11063 36fc 02       		.uleb128 0x2
 11064 36fd 08       		.byte	0x8
 11065 36fe 20       		.byte	0x20
 11066 36ff 2D       		.uleb128 0x2d
 11067 3700 01       		.uleb128 0x1
 11068 3701 51       		.byte	0x51
 11069 3702 03       		.uleb128 0x3
 11070 3703 91       		.byte	0x91
 11071 3704 A57F     		.sleb128 -91
 11072 3706 2D       		.uleb128 0x2d
 11073 3707 01       		.uleb128 0x1
 11074 3708 50       		.byte	0x50
 11075 3709 03       		.uleb128 0x3
 11076 370a 91       		.byte	0x91
 11077 370b C47B     		.sleb128 -572
 11078 370d 00       		.byte	0
 11079 370e 32       		.uleb128 0x32
 11080 370f 88000000 		.4byte	.LVL288
 11081 3713 E8460000 		.4byte	0x46e8
 11082 3717 33370000 		.4byte	0x3733
 11083 371b 2D       		.uleb128 0x2d
 11084 371c 01       		.uleb128 0x1
 11085 371d 52       		.byte	0x52
 11086 371e 03       		.uleb128 0x3
 11087 371f 91       		.byte	0x91
 11088 3720 C47B     		.sleb128 -572
 11089 3722 2D       		.uleb128 0x2d
 11090 3723 01       		.uleb128 0x1
 11091 3724 51       		.byte	0x51
 11092 3725 05       		.uleb128 0x5
 11093 3726 03       		.byte	0x3
 11094 3727 0E010000 		.4byte	.LC27
 11095 372b 2D       		.uleb128 0x2d
 11096 372c 01       		.uleb128 0x1
 11097 372d 50       		.byte	0x50
 11098 372e 03       		.uleb128 0x3
 11099 372f 91       		.byte	0x91
 11100 3730 E87B     		.sleb128 -536
ARM GAS  C:\Users\AHMED~1.ELE\AppData\Local\Temp\ccpjtoUe.s 			page 227


 11101 3732 00       		.byte	0
 11102 3733 32       		.uleb128 0x32
 11103 3734 CE000000 		.4byte	.LVL296
 11104 3738 7D450000 		.4byte	0x457d
 11105 373c 53370000 		.4byte	0x3753
 11106 3740 2D       		.uleb128 0x2d
 11107 3741 01       		.uleb128 0x1
 11108 3742 52       		.byte	0x52
 11109 3743 02       		.uleb128 0x2
 11110 3744 08       		.byte	0x8
 11111 3745 21       		.byte	0x21
 11112 3746 2D       		.uleb128 0x2d
 11113 3747 01       		.uleb128 0x1
 11114 3748 51       		.byte	0x51
 11115 3749 01       		.uleb128 0x1
 11116 374a 30       		.byte	0x30
 11117 374b 2D       		.uleb128 0x2d
 11118 374c 01       		.uleb128 0x1
 11119 374d 50       		.byte	0x50
 11120 374e 03       		.uleb128 0x3
 11121 374f 91       		.byte	0x91
 11122 3750 FC7A     		.sleb128 -644
 11123 3752 00       		.byte	0
 11124 3753 32       		.uleb128 0x32
 11125 3754 DC000000 		.4byte	.LVL297
 11126 3758 E7440000 		.4byte	0x44e7
 11127 375c 75370000 		.4byte	0x3775
 11128 3760 2D       		.uleb128 0x2d
 11129 3761 01       		.uleb128 0x1
 11130 3762 52       		.byte	0x52
 11131 3763 02       		.uleb128 0x2
 11132 3764 08       		.byte	0x8
 11133 3765 20       		.byte	0x20
 11134 3766 2D       		.uleb128 0x2d
 11135 3767 01       		.uleb128 0x1
 11136 3768 51       		.byte	0x51
 11137 3769 03       		.uleb128 0x3
 11138 376a 91       		.byte	0x91
 11139 376b A57E     		.sleb128 -219
 11140 376d 2D       		.uleb128 0x2d
 11141 376e 01       		.uleb128 0x1
 11142 376f 50       		.byte	0x50
 11143 3770 03       		.uleb128 0x3
 11144 3771 91       		.byte	0x91
 11145 3772 FC7A     		.sleb128 -644
 11146 3774 00       		.byte	0
 11147 3775 32       		.uleb128 0x32
 11148 3776 E6000000 		.4byte	.LVL298
 11149 377a E8460000 		.4byte	0x46e8
 11150 377e 9A370000 		.4byte	0x379a
 11151 3782 2D       		.uleb128 0x2d
 11152 3783 01       		.uleb128 0x1
 11153 3784 52       		.byte	0x52
 11154 3785 03       		.uleb128 0x3
 11155 3786 91       		.byte	0x91
 11156 3787 FC7A     		.sleb128 -644
 11157 3789 2D       		.uleb128 0x2d
ARM GAS  C:\Users\AHMED~1.ELE\AppData\Local\Temp\ccpjtoUe.s 			page 228


 11158 378a 01       		.uleb128 0x1
 11159 378b 51       		.byte	0x51
 11160 378c 05       		.uleb128 0x5
 11161 378d 03       		.byte	0x3
 11162 378e 17010000 		.4byte	.LC28
 11163 3792 2D       		.uleb128 0x2d
 11164 3793 01       		.uleb128 0x1
 11165 3794 50       		.byte	0x50
 11166 3795 03       		.uleb128 0x3
 11167 3796 91       		.byte	0x91
 11168 3797 E87B     		.sleb128 -536
 11169 3799 00       		.byte	0
 11170 379a 32       		.uleb128 0x32
 11171 379b 2C010000 		.4byte	.LVL307
 11172 379f 7D450000 		.4byte	0x457d
 11173 37a3 BA370000 		.4byte	0x37ba
 11174 37a7 2D       		.uleb128 0x2d
 11175 37a8 01       		.uleb128 0x1
 11176 37a9 52       		.byte	0x52
 11177 37aa 02       		.uleb128 0x2
 11178 37ab 08       		.byte	0x8
 11179 37ac 21       		.byte	0x21
 11180 37ad 2D       		.uleb128 0x2d
 11181 37ae 01       		.uleb128 0x1
 11182 37af 51       		.byte	0x51
 11183 37b0 01       		.uleb128 0x1
 11184 37b1 30       		.byte	0x30
 11185 37b2 2D       		.uleb128 0x2d
 11186 37b3 01       		.uleb128 0x1
 11187 37b4 50       		.byte	0x50
 11188 37b5 03       		.uleb128 0x3
 11189 37b6 91       		.byte	0x91
 11190 37b7 A07B     		.sleb128 -608
 11191 37b9 00       		.byte	0
 11192 37ba 32       		.uleb128 0x32
 11193 37bb 3A010000 		.4byte	.LVL308
 11194 37bf E7440000 		.4byte	0x44e7
 11195 37c3 DC370000 		.4byte	0x37dc
 11196 37c7 2D       		.uleb128 0x2d
 11197 37c8 01       		.uleb128 0x1
 11198 37c9 52       		.byte	0x52
 11199 37ca 02       		.uleb128 0x2
 11200 37cb 08       		.byte	0x8
 11201 37cc 20       		.byte	0x20
 11202 37cd 2D       		.uleb128 0x2d
 11203 37ce 01       		.uleb128 0x1
 11204 37cf 51       		.byte	0x51
 11205 37d0 03       		.uleb128 0x3
 11206 37d1 91       		.byte	0x91
 11207 37d2 C57E     		.sleb128 -187
 11208 37d4 2D       		.uleb128 0x2d
 11209 37d5 01       		.uleb128 0x1
 11210 37d6 50       		.byte	0x50
 11211 37d7 03       		.uleb128 0x3
 11212 37d8 91       		.byte	0x91
 11213 37d9 A07B     		.sleb128 -608
 11214 37db 00       		.byte	0
ARM GAS  C:\Users\AHMED~1.ELE\AppData\Local\Temp\ccpjtoUe.s 			page 229


 11215 37dc 32       		.uleb128 0x32
 11216 37dd 44010000 		.4byte	.LVL309
 11217 37e1 E8460000 		.4byte	0x46e8
 11218 37e5 01380000 		.4byte	0x3801
 11219 37e9 2D       		.uleb128 0x2d
 11220 37ea 01       		.uleb128 0x1
 11221 37eb 52       		.byte	0x52
 11222 37ec 03       		.uleb128 0x3
 11223 37ed 91       		.byte	0x91
 11224 37ee A07B     		.sleb128 -608
 11225 37f0 2D       		.uleb128 0x2d
 11226 37f1 01       		.uleb128 0x1
 11227 37f2 51       		.byte	0x51
 11228 37f3 05       		.uleb128 0x5
 11229 37f4 03       		.byte	0x3
 11230 37f5 25010000 		.4byte	.LC29
 11231 37f9 2D       		.uleb128 0x2d
 11232 37fa 01       		.uleb128 0x1
 11233 37fb 50       		.byte	0x50
 11234 37fc 03       		.uleb128 0x3
 11235 37fd 91       		.byte	0x91
 11236 37fe E87B     		.sleb128 -536
 11237 3800 00       		.byte	0
 11238 3801 32       		.uleb128 0x32
 11239 3802 8A010000 		.4byte	.LVL318
 11240 3806 7D450000 		.4byte	0x457d
 11241 380a 21380000 		.4byte	0x3821
 11242 380e 2D       		.uleb128 0x2d
 11243 380f 01       		.uleb128 0x1
 11244 3810 52       		.byte	0x52
 11245 3811 02       		.uleb128 0x2
 11246 3812 08       		.byte	0x8
 11247 3813 21       		.byte	0x21
 11248 3814 2D       		.uleb128 0x2d
 11249 3815 01       		.uleb128 0x1
 11250 3816 51       		.byte	0x51
 11251 3817 01       		.uleb128 0x1
 11252 3818 30       		.byte	0x30
 11253 3819 2D       		.uleb128 0x2d
 11254 381a 01       		.uleb128 0x1
 11255 381b 50       		.byte	0x50
 11256 381c 03       		.uleb128 0x3
 11257 381d 91       		.byte	0x91
 11258 381e C47B     		.sleb128 -572
 11259 3820 00       		.byte	0
 11260 3821 32       		.uleb128 0x32
 11261 3822 96010000 		.4byte	.LVL319
 11262 3826 E7440000 		.4byte	0x44e7
 11263 382a 42380000 		.4byte	0x3842
 11264 382e 2D       		.uleb128 0x2d
 11265 382f 01       		.uleb128 0x1
 11266 3830 52       		.byte	0x52
 11267 3831 02       		.uleb128 0x2
 11268 3832 08       		.byte	0x8
 11269 3833 20       		.byte	0x20
 11270 3834 2D       		.uleb128 0x2d
 11271 3835 01       		.uleb128 0x1
ARM GAS  C:\Users\AHMED~1.ELE\AppData\Local\Temp\ccpjtoUe.s 			page 230


 11272 3836 51       		.byte	0x51
 11273 3837 02       		.uleb128 0x2
 11274 3838 91       		.byte	0x91
 11275 3839 45       		.sleb128 -59
 11276 383a 2D       		.uleb128 0x2d
 11277 383b 01       		.uleb128 0x1
 11278 383c 50       		.byte	0x50
 11279 383d 03       		.uleb128 0x3
 11280 383e 91       		.byte	0x91
 11281 383f C47B     		.sleb128 -572
 11282 3841 00       		.byte	0
 11283 3842 32       		.uleb128 0x32
 11284 3843 A0010000 		.4byte	.LVL320
 11285 3847 E8460000 		.4byte	0x46e8
 11286 384b 67380000 		.4byte	0x3867
 11287 384f 2D       		.uleb128 0x2d
 11288 3850 01       		.uleb128 0x1
 11289 3851 52       		.byte	0x52
 11290 3852 03       		.uleb128 0x3
 11291 3853 91       		.byte	0x91
 11292 3854 C47B     		.sleb128 -572
 11293 3856 2D       		.uleb128 0x2d
 11294 3857 01       		.uleb128 0x1
 11295 3858 51       		.byte	0x51
 11296 3859 05       		.uleb128 0x5
 11297 385a 03       		.byte	0x3
 11298 385b 32010000 		.4byte	.LC30
 11299 385f 2D       		.uleb128 0x2d
 11300 3860 01       		.uleb128 0x1
 11301 3861 50       		.byte	0x50
 11302 3862 03       		.uleb128 0x3
 11303 3863 91       		.byte	0x91
 11304 3864 E87B     		.sleb128 -536
 11305 3866 00       		.byte	0
 11306 3867 32       		.uleb128 0x32
 11307 3868 E6010000 		.4byte	.LVL329
 11308 386c 7D450000 		.4byte	0x457d
 11309 3870 87380000 		.4byte	0x3887
 11310 3874 2D       		.uleb128 0x2d
 11311 3875 01       		.uleb128 0x1
 11312 3876 52       		.byte	0x52
 11313 3877 02       		.uleb128 0x2
 11314 3878 08       		.byte	0x8
 11315 3879 21       		.byte	0x21
 11316 387a 2D       		.uleb128 0x2d
 11317 387b 01       		.uleb128 0x1
 11318 387c 51       		.byte	0x51
 11319 387d 01       		.uleb128 0x1
 11320 387e 30       		.byte	0x30
 11321 387f 2D       		.uleb128 0x2d
 11322 3880 01       		.uleb128 0x1
 11323 3881 50       		.byte	0x50
 11324 3882 03       		.uleb128 0x3
 11325 3883 91       		.byte	0x91
 11326 3884 FC7A     		.sleb128 -644
 11327 3886 00       		.byte	0
 11328 3887 32       		.uleb128 0x32
ARM GAS  C:\Users\AHMED~1.ELE\AppData\Local\Temp\ccpjtoUe.s 			page 231


 11329 3888 F4010000 		.4byte	.LVL330
 11330 388c E7440000 		.4byte	0x44e7
 11331 3890 A9380000 		.4byte	0x38a9
 11332 3894 2D       		.uleb128 0x2d
 11333 3895 01       		.uleb128 0x1
 11334 3896 52       		.byte	0x52
 11335 3897 02       		.uleb128 0x2
 11336 3898 08       		.byte	0x8
 11337 3899 20       		.byte	0x20
 11338 389a 2D       		.uleb128 0x2d
 11339 389b 01       		.uleb128 0x1
 11340 389c 51       		.byte	0x51
 11341 389d 03       		.uleb128 0x3
 11342 389e 91       		.byte	0x91
 11343 389f E57E     		.sleb128 -155
 11344 38a1 2D       		.uleb128 0x2d
 11345 38a2 01       		.uleb128 0x1
 11346 38a3 50       		.byte	0x50
 11347 38a4 03       		.uleb128 0x3
 11348 38a5 91       		.byte	0x91
 11349 38a6 FC7A     		.sleb128 -644
 11350 38a8 00       		.byte	0
 11351 38a9 32       		.uleb128 0x32
 11352 38aa FE010000 		.4byte	.LVL331
 11353 38ae E8460000 		.4byte	0x46e8
 11354 38b2 CE380000 		.4byte	0x38ce
 11355 38b6 2D       		.uleb128 0x2d
 11356 38b7 01       		.uleb128 0x1
 11357 38b8 52       		.byte	0x52
 11358 38b9 03       		.uleb128 0x3
 11359 38ba 91       		.byte	0x91
 11360 38bb FC7A     		.sleb128 -644
 11361 38bd 2D       		.uleb128 0x2d
 11362 38be 01       		.uleb128 0x1
 11363 38bf 51       		.byte	0x51
 11364 38c0 05       		.uleb128 0x5
 11365 38c1 03       		.byte	0x3
 11366 38c2 3B010000 		.4byte	.LC31
 11367 38c6 2D       		.uleb128 0x2d
 11368 38c7 01       		.uleb128 0x1
 11369 38c8 50       		.byte	0x50
 11370 38c9 03       		.uleb128 0x3
 11371 38ca 91       		.byte	0x91
 11372 38cb E87B     		.sleb128 -536
 11373 38cd 00       		.byte	0
 11374 38ce 32       		.uleb128 0x32
 11375 38cf 44020000 		.4byte	.LVL340
 11376 38d3 7D450000 		.4byte	0x457d
 11377 38d7 EE380000 		.4byte	0x38ee
 11378 38db 2D       		.uleb128 0x2d
 11379 38dc 01       		.uleb128 0x1
 11380 38dd 52       		.byte	0x52
 11381 38de 02       		.uleb128 0x2
 11382 38df 08       		.byte	0x8
 11383 38e0 21       		.byte	0x21
 11384 38e1 2D       		.uleb128 0x2d
 11385 38e2 01       		.uleb128 0x1
ARM GAS  C:\Users\AHMED~1.ELE\AppData\Local\Temp\ccpjtoUe.s 			page 232


 11386 38e3 51       		.byte	0x51
 11387 38e4 01       		.uleb128 0x1
 11388 38e5 30       		.byte	0x30
 11389 38e6 2D       		.uleb128 0x2d
 11390 38e7 01       		.uleb128 0x1
 11391 38e8 50       		.byte	0x50
 11392 38e9 03       		.uleb128 0x3
 11393 38ea 91       		.byte	0x91
 11394 38eb A07B     		.sleb128 -608
 11395 38ed 00       		.byte	0
 11396 38ee 32       		.uleb128 0x32
 11397 38ef 50020000 		.4byte	.LVL341
 11398 38f3 E7440000 		.4byte	0x44e7
 11399 38f7 10390000 		.4byte	0x3910
 11400 38fb 2D       		.uleb128 0x2d
 11401 38fc 01       		.uleb128 0x1
 11402 38fd 52       		.byte	0x52
 11403 38fe 02       		.uleb128 0x2
 11404 38ff 08       		.byte	0x8
 11405 3900 20       		.byte	0x20
 11406 3901 2D       		.uleb128 0x2d
 11407 3902 01       		.uleb128 0x1
 11408 3903 51       		.byte	0x51
 11409 3904 03       		.uleb128 0x3
 11410 3905 91       		.byte	0x91
 11411 3906 857F     		.sleb128 -123
 11412 3908 2D       		.uleb128 0x2d
 11413 3909 01       		.uleb128 0x1
 11414 390a 50       		.byte	0x50
 11415 390b 03       		.uleb128 0x3
 11416 390c 91       		.byte	0x91
 11417 390d A07B     		.sleb128 -608
 11418 390f 00       		.byte	0
 11419 3910 32       		.uleb128 0x32
 11420 3911 5A020000 		.4byte	.LVL342
 11421 3915 E8460000 		.4byte	0x46e8
 11422 3919 35390000 		.4byte	0x3935
 11423 391d 2D       		.uleb128 0x2d
 11424 391e 01       		.uleb128 0x1
 11425 391f 52       		.byte	0x52
 11426 3920 03       		.uleb128 0x3
 11427 3921 91       		.byte	0x91
 11428 3922 A07B     		.sleb128 -608
 11429 3924 2D       		.uleb128 0x2d
 11430 3925 01       		.uleb128 0x1
 11431 3926 51       		.byte	0x51
 11432 3927 05       		.uleb128 0x5
 11433 3928 03       		.byte	0x3
 11434 3929 49010000 		.4byte	.LC32
 11435 392d 2D       		.uleb128 0x2d
 11436 392e 01       		.uleb128 0x1
 11437 392f 50       		.byte	0x50
 11438 3930 03       		.uleb128 0x3
 11439 3931 91       		.byte	0x91
 11440 3932 E87B     		.sleb128 -536
 11441 3934 00       		.byte	0
 11442 3935 32       		.uleb128 0x32
ARM GAS  C:\Users\AHMED~1.ELE\AppData\Local\Temp\ccpjtoUe.s 			page 233


 11443 3936 A2020000 		.4byte	.LVL351
 11444 393a 03470000 		.4byte	0x4703
 11445 393e 53390000 		.4byte	0x3953
 11446 3942 2D       		.uleb128 0x2d
 11447 3943 01       		.uleb128 0x1
 11448 3944 52       		.byte	0x52
 11449 3945 03       		.uleb128 0x3
 11450 3946 0A       		.byte	0xa
 11451 3947 0001     		.2byte	0x100
 11452 3949 2D       		.uleb128 0x2d
 11453 394a 01       		.uleb128 0x1
 11454 394b 50       		.byte	0x50
 11455 394c 05       		.uleb128 0x5
 11456 394d 03       		.byte	0x3
 11457 394e 56010000 		.4byte	.LC33
 11458 3952 00       		.byte	0
 11459 3953 32       		.uleb128 0x32
 11460 3954 AC020000 		.4byte	.LVL353
 11461 3958 63450000 		.4byte	0x4563
 11462 395c 6B390000 		.4byte	0x396b
 11463 3960 2D       		.uleb128 0x2d
 11464 3961 01       		.uleb128 0x1
 11465 3962 51       		.byte	0x51
 11466 3963 01       		.uleb128 0x1
 11467 3964 3C       		.byte	0x3c
 11468 3965 2D       		.uleb128 0x2d
 11469 3966 01       		.uleb128 0x1
 11470 3967 50       		.byte	0x50
 11471 3968 01       		.uleb128 0x1
 11472 3969 46       		.byte	0x46
 11473 396a 00       		.byte	0
 11474 396b 32       		.uleb128 0x32
 11475 396c B8020000 		.4byte	.LVL354
 11476 3970 28470000 		.4byte	0x4728
 11477 3974 89390000 		.4byte	0x3989
 11478 3978 2D       		.uleb128 0x2d
 11479 3979 01       		.uleb128 0x1
 11480 397a 51       		.byte	0x51
 11481 397b 05       		.uleb128 0x5
 11482 397c 03       		.byte	0x3
 11483 397d 61010000 		.4byte	.LC34
 11484 3981 2D       		.uleb128 0x2d
 11485 3982 01       		.uleb128 0x1
 11486 3983 50       		.byte	0x50
 11487 3984 03       		.uleb128 0x3
 11488 3985 91       		.byte	0x91
 11489 3986 E87B     		.sleb128 -536
 11490 3988 00       		.byte	0
 11491 3989 32       		.uleb128 0x32
 11492 398a 2C030000 		.4byte	.LVL364
 11493 398e E8460000 		.4byte	0x46e8
 11494 3992 A6390000 		.4byte	0x39a6
 11495 3996 2D       		.uleb128 0x2d
 11496 3997 01       		.uleb128 0x1
 11497 3998 52       		.byte	0x52
 11498 3999 02       		.uleb128 0x2
 11499 399a 74       		.byte	0x74
ARM GAS  C:\Users\AHMED~1.ELE\AppData\Local\Temp\ccpjtoUe.s 			page 234


 11500 399b 01       		.sleb128 1
 11501 399c 2D       		.uleb128 0x2d
 11502 399d 01       		.uleb128 0x1
 11503 399e 51       		.byte	0x51
 11504 399f 05       		.uleb128 0x5
 11505 39a0 03       		.byte	0x3
 11506 39a1 70010000 		.4byte	.LC35
 11507 39a5 00       		.byte	0
 11508 39a6 32       		.uleb128 0x32
 11509 39a7 72030000 		.4byte	.LVL373
 11510 39ab 7D450000 		.4byte	0x457d
 11511 39af C6390000 		.4byte	0x39c6
 11512 39b3 2D       		.uleb128 0x2d
 11513 39b4 01       		.uleb128 0x1
 11514 39b5 52       		.byte	0x52
 11515 39b6 02       		.uleb128 0x2
 11516 39b7 08       		.byte	0x8
 11517 39b8 21       		.byte	0x21
 11518 39b9 2D       		.uleb128 0x2d
 11519 39ba 01       		.uleb128 0x1
 11520 39bb 51       		.byte	0x51
 11521 39bc 01       		.uleb128 0x1
 11522 39bd 30       		.byte	0x30
 11523 39be 2D       		.uleb128 0x2d
 11524 39bf 01       		.uleb128 0x1
 11525 39c0 50       		.byte	0x50
 11526 39c1 03       		.uleb128 0x3
 11527 39c2 91       		.byte	0x91
 11528 39c3 C47B     		.sleb128 -572
 11529 39c5 00       		.byte	0
 11530 39c6 32       		.uleb128 0x32
 11531 39c7 7C030000 		.4byte	.LVL374
 11532 39cb 7D450000 		.4byte	0x457d
 11533 39cf E6390000 		.4byte	0x39e6
 11534 39d3 2D       		.uleb128 0x2d
 11535 39d4 01       		.uleb128 0x1
 11536 39d5 52       		.byte	0x52
 11537 39d6 02       		.uleb128 0x2
 11538 39d7 08       		.byte	0x8
 11539 39d8 21       		.byte	0x21
 11540 39d9 2D       		.uleb128 0x2d
 11541 39da 01       		.uleb128 0x1
 11542 39db 51       		.byte	0x51
 11543 39dc 01       		.uleb128 0x1
 11544 39dd 30       		.byte	0x30
 11545 39de 2D       		.uleb128 0x2d
 11546 39df 01       		.uleb128 0x1
 11547 39e0 50       		.byte	0x50
 11548 39e1 03       		.uleb128 0x3
 11549 39e2 91       		.byte	0x91
 11550 39e3 FC7A     		.sleb128 -644
 11551 39e5 00       		.byte	0
 11552 39e6 32       		.uleb128 0x32
 11553 39e7 86030000 		.4byte	.LVL375
 11554 39eb 7D450000 		.4byte	0x457d
 11555 39ef 063A0000 		.4byte	0x3a06
 11556 39f3 2D       		.uleb128 0x2d
ARM GAS  C:\Users\AHMED~1.ELE\AppData\Local\Temp\ccpjtoUe.s 			page 235


 11557 39f4 01       		.uleb128 0x1
 11558 39f5 52       		.byte	0x52
 11559 39f6 02       		.uleb128 0x2
 11560 39f7 08       		.byte	0x8
 11561 39f8 21       		.byte	0x21
 11562 39f9 2D       		.uleb128 0x2d
 11563 39fa 01       		.uleb128 0x1
 11564 39fb 51       		.byte	0x51
 11565 39fc 01       		.uleb128 0x1
 11566 39fd 30       		.byte	0x30
 11567 39fe 2D       		.uleb128 0x2d
 11568 39ff 01       		.uleb128 0x1
 11569 3a00 50       		.byte	0x50
 11570 3a01 03       		.uleb128 0x3
 11571 3a02 91       		.byte	0x91
 11572 3a03 A07B     		.sleb128 -608
 11573 3a05 00       		.byte	0
 11574 3a06 32       		.uleb128 0x32
 11575 3a07 94030000 		.4byte	.LVL376
 11576 3a0b E7440000 		.4byte	0x44e7
 11577 3a0f 283A0000 		.4byte	0x3a28
 11578 3a13 2D       		.uleb128 0x2d
 11579 3a14 01       		.uleb128 0x1
 11580 3a15 52       		.byte	0x52
 11581 3a16 02       		.uleb128 0x2
 11582 3a17 08       		.byte	0x8
 11583 3a18 20       		.byte	0x20
 11584 3a19 2D       		.uleb128 0x2d
 11585 3a1a 01       		.uleb128 0x1
 11586 3a1b 51       		.byte	0x51
 11587 3a1c 03       		.uleb128 0x3
 11588 3a1d 91       		.byte	0x91
 11589 3a1e A57F     		.sleb128 -91
 11590 3a20 2D       		.uleb128 0x2d
 11591 3a21 01       		.uleb128 0x1
 11592 3a22 50       		.byte	0x50
 11593 3a23 03       		.uleb128 0x3
 11594 3a24 91       		.byte	0x91
 11595 3a25 C47B     		.sleb128 -572
 11596 3a27 00       		.byte	0
 11597 3a28 32       		.uleb128 0x32
 11598 3a29 A2030000 		.4byte	.LVL377
 11599 3a2d E7440000 		.4byte	0x44e7
 11600 3a31 4A3A0000 		.4byte	0x3a4a
 11601 3a35 2D       		.uleb128 0x2d
 11602 3a36 01       		.uleb128 0x1
 11603 3a37 52       		.byte	0x52
 11604 3a38 02       		.uleb128 0x2
 11605 3a39 08       		.byte	0x8
 11606 3a3a 20       		.byte	0x20
 11607 3a3b 2D       		.uleb128 0x2d
 11608 3a3c 01       		.uleb128 0x1
 11609 3a3d 51       		.byte	0x51
 11610 3a3e 03       		.uleb128 0x3
 11611 3a3f 91       		.byte	0x91
 11612 3a40 A57E     		.sleb128 -219
 11613 3a42 2D       		.uleb128 0x2d
ARM GAS  C:\Users\AHMED~1.ELE\AppData\Local\Temp\ccpjtoUe.s 			page 236


 11614 3a43 01       		.uleb128 0x1
 11615 3a44 50       		.byte	0x50
 11616 3a45 03       		.uleb128 0x3
 11617 3a46 91       		.byte	0x91
 11618 3a47 FC7A     		.sleb128 -644
 11619 3a49 00       		.byte	0
 11620 3a4a 32       		.uleb128 0x32
 11621 3a4b B6030000 		.4byte	.LVL378
 11622 3a4f E7440000 		.4byte	0x44e7
 11623 3a53 643A0000 		.4byte	0x3a64
 11624 3a57 2D       		.uleb128 0x2d
 11625 3a58 01       		.uleb128 0x1
 11626 3a59 52       		.byte	0x52
 11627 3a5a 02       		.uleb128 0x2
 11628 3a5b 08       		.byte	0x8
 11629 3a5c 20       		.byte	0x20
 11630 3a5d 2D       		.uleb128 0x2d
 11631 3a5e 01       		.uleb128 0x1
 11632 3a5f 51       		.byte	0x51
 11633 3a60 02       		.uleb128 0x2
 11634 3a61 91       		.byte	0x91
 11635 3a62 45       		.sleb128 -59
 11636 3a63 00       		.byte	0
 11637 3a64 32       		.uleb128 0x32
 11638 3a65 C4030000 		.4byte	.LVL379
 11639 3a69 E7440000 		.4byte	0x44e7
 11640 3a6d 863A0000 		.4byte	0x3a86
 11641 3a71 2D       		.uleb128 0x2d
 11642 3a72 01       		.uleb128 0x1
 11643 3a73 52       		.byte	0x52
 11644 3a74 02       		.uleb128 0x2
 11645 3a75 08       		.byte	0x8
 11646 3a76 20       		.byte	0x20
 11647 3a77 2D       		.uleb128 0x2d
 11648 3a78 01       		.uleb128 0x1
 11649 3a79 51       		.byte	0x51
 11650 3a7a 03       		.uleb128 0x3
 11651 3a7b 91       		.byte	0x91
 11652 3a7c E57E     		.sleb128 -155
 11653 3a7e 2D       		.uleb128 0x2d
 11654 3a7f 01       		.uleb128 0x1
 11655 3a80 50       		.byte	0x50
 11656 3a81 03       		.uleb128 0x3
 11657 3a82 91       		.byte	0x91
 11658 3a83 FC7A     		.sleb128 -644
 11659 3a85 00       		.byte	0
 11660 3a86 32       		.uleb128 0x32
 11661 3a87 D0030000 		.4byte	.LVL380
 11662 3a8b E7440000 		.4byte	0x44e7
 11663 3a8f 9A3A0000 		.4byte	0x3a9a
 11664 3a93 2D       		.uleb128 0x2d
 11665 3a94 01       		.uleb128 0x1
 11666 3a95 52       		.byte	0x52
 11667 3a96 02       		.uleb128 0x2
 11668 3a97 08       		.byte	0x8
 11669 3a98 20       		.byte	0x20
 11670 3a99 00       		.byte	0
ARM GAS  C:\Users\AHMED~1.ELE\AppData\Local\Temp\ccpjtoUe.s 			page 237


 11671 3a9a 32       		.uleb128 0x32
 11672 3a9b DC030000 		.4byte	.LVL381
 11673 3a9f 46470000 		.4byte	0x4746
 11674 3aa3 C23A0000 		.4byte	0x3ac2
 11675 3aa7 2D       		.uleb128 0x2d
 11676 3aa8 01       		.uleb128 0x1
 11677 3aa9 53       		.byte	0x53
 11678 3aaa 01       		.uleb128 0x1
 11679 3aab 30       		.byte	0x30
 11680 3aac 2D       		.uleb128 0x2d
 11681 3aad 01       		.uleb128 0x1
 11682 3aae 52       		.byte	0x52
 11683 3aaf 03       		.uleb128 0x3
 11684 3ab0 91       		.byte	0x91
 11685 3ab1 C47B     		.sleb128 -572
 11686 3ab3 2D       		.uleb128 0x2d
 11687 3ab4 01       		.uleb128 0x1
 11688 3ab5 51       		.byte	0x51
 11689 3ab6 03       		.uleb128 0x3
 11690 3ab7 91       		.byte	0x91
 11691 3ab8 A07B     		.sleb128 -608
 11692 3aba 2D       		.uleb128 0x2d
 11693 3abb 01       		.uleb128 0x1
 11694 3abc 50       		.byte	0x50
 11695 3abd 03       		.uleb128 0x3
 11696 3abe 91       		.byte	0x91
 11697 3abf FC7A     		.sleb128 -644
 11698 3ac1 00       		.byte	0
 11699 3ac2 32       		.uleb128 0x32
 11700 3ac3 EA030000 		.4byte	.LVL382
 11701 3ac7 95460000 		.4byte	0x4695
 11702 3acb EA3A0000 		.4byte	0x3aea
 11703 3acf 2D       		.uleb128 0x2d
 11704 3ad0 01       		.uleb128 0x1
 11705 3ad1 53       		.byte	0x53
 11706 3ad2 01       		.uleb128 0x1
 11707 3ad3 30       		.byte	0x30
 11708 3ad4 2D       		.uleb128 0x2d
 11709 3ad5 01       		.uleb128 0x1
 11710 3ad6 52       		.byte	0x52
 11711 3ad7 01       		.uleb128 0x1
 11712 3ad8 30       		.byte	0x30
 11713 3ad9 2D       		.uleb128 0x2d
 11714 3ada 01       		.uleb128 0x1
 11715 3adb 51       		.byte	0x51
 11716 3adc 01       		.uleb128 0x1
 11717 3add 46       		.byte	0x46
 11718 3ade 2D       		.uleb128 0x2d
 11719 3adf 01       		.uleb128 0x1
 11720 3ae0 50       		.byte	0x50
 11721 3ae1 01       		.uleb128 0x1
 11722 3ae2 3F       		.byte	0x3f
 11723 3ae3 2D       		.uleb128 0x2d
 11724 3ae4 02       		.uleb128 0x2
 11725 3ae5 7D       		.byte	0x7d
 11726 3ae6 00       		.sleb128 0
 11727 3ae7 01       		.uleb128 0x1
ARM GAS  C:\Users\AHMED~1.ELE\AppData\Local\Temp\ccpjtoUe.s 			page 238


 11728 3ae8 30       		.byte	0x30
 11729 3ae9 00       		.byte	0
 11730 3aea 2C       		.uleb128 0x2c
 11731 3aeb F4030000 		.4byte	.LVL383
 11732 3aef D3460000 		.4byte	0x46d3
 11733 3af3 2D       		.uleb128 0x2d
 11734 3af4 01       		.uleb128 0x1
 11735 3af5 50       		.byte	0x50
 11736 3af6 03       		.uleb128 0x3
 11737 3af7 0A       		.byte	0xa
 11738 3af8 9C01     		.2byte	0x19c
 11739 3afa 00       		.byte	0
 11740 3afb 00       		.byte	0
 11741 3afc 2E       		.uleb128 0x2e
 11742 3afd 3A140000 		.4byte	.LASF769
 11743 3b01 01       		.byte	0x1
 11744 3b02 1A04     		.2byte	0x41a
 11745 3b04 97000000 		.4byte	0x97
 11746 3b08 00000000 		.4byte	.LFB13
 11747 3b0c 94020000 		.4byte	.LFE13-.LFB13
 11748 3b10 01       		.uleb128 0x1
 11749 3b11 9C       		.byte	0x9c
 11750 3b12 7E400000 		.4byte	0x407e
 11751 3b16 2F       		.uleb128 0x2f
 11752 3b17 C42B0000 		.4byte	.LASF770
 11753 3b1b 01       		.byte	0x1
 11754 3b1c 1A04     		.2byte	0x41a
 11755 3b1e DE000000 		.4byte	0xde
 11756 3b22 01120000 		.4byte	.LLST114
 11757 3b26 31       		.uleb128 0x31
 11758 3b27 0B110000 		.4byte	.LASF771
 11759 3b2b 01       		.byte	0x1
 11760 3b2c 1C04     		.2byte	0x41c
 11761 3b2e 37190000 		.4byte	0x1937
 11762 3b32 2D120000 		.4byte	.LLST115
 11763 3b36 31       		.uleb128 0x31
 11764 3b37 51150000 		.4byte	.LASF772
 11765 3b3b 01       		.byte	0x1
 11766 3b3c 1C04     		.2byte	0x41c
 11767 3b3e 37190000 		.4byte	0x1937
 11768 3b42 6D120000 		.4byte	.LLST116
 11769 3b46 31       		.uleb128 0x31
 11770 3b47 04010000 		.4byte	.LASF773
 11771 3b4b 01       		.byte	0x1
 11772 3b4c 1C04     		.2byte	0x41c
 11773 3b4e 37190000 		.4byte	0x1937
 11774 3b52 5E130000 		.4byte	.LLST117
 11775 3b56 31       		.uleb128 0x31
 11776 3b57 0E010000 		.4byte	.LASF774
 11777 3b5b 01       		.byte	0x1
 11778 3b5c 1F04     		.2byte	0x41f
 11779 3b5e A2000000 		.4byte	0xa2
 11780 3b62 89130000 		.4byte	.LLST118
 11781 3b66 31       		.uleb128 0x31
 11782 3b67 DC030000 		.4byte	.LASF775
 11783 3b6b 01       		.byte	0x1
 11784 3b6c 2004     		.2byte	0x420
ARM GAS  C:\Users\AHMED~1.ELE\AppData\Local\Temp\ccpjtoUe.s 			page 239


 11785 3b6e A2000000 		.4byte	0xa2
 11786 3b72 B5130000 		.4byte	.LLST119
 11787 3b76 30       		.uleb128 0x30
 11788 3b77 72657400 		.ascii	"ret\000"
 11789 3b7b 01       		.byte	0x1
 11790 3b7c 2104     		.2byte	0x421
 11791 3b7e 97000000 		.4byte	0x97
 11792 3b82 EC130000 		.4byte	.LLST120
 11793 3b86 38       		.uleb128 0x38
 11794 3b87 AE010000 		.4byte	.LBB23
 11795 3b8b 32000000 		.4byte	.LBE23-.LBB23
 11796 3b8f 333C0000 		.4byte	0x3c33
 11797 3b93 30       		.uleb128 0x30
 11798 3b94 6C656E00 		.ascii	"len\000"
 11799 3b98 01       		.byte	0x1
 11800 3b99 2005     		.2byte	0x520
 11801 3b9b B8000000 		.4byte	0xb8
 11802 3b9f 17140000 		.4byte	.LLST121
 11803 3ba3 30       		.uleb128 0x30
 11804 3ba4 70747200 		.ascii	"ptr\000"
 11805 3ba8 01       		.byte	0x1
 11806 3ba9 2005     		.2byte	0x520
 11807 3bab DE000000 		.4byte	0xde
 11808 3baf 2B140000 		.4byte	.LLST122
 11809 3bb3 32       		.uleb128 0x32
 11810 3bb4 B6010000 		.4byte	.LVL428
 11811 3bb8 63450000 		.4byte	0x4563
 11812 3bbc CC3B0000 		.4byte	0x3bcc
 11813 3bc0 2D       		.uleb128 0x2d
 11814 3bc1 01       		.uleb128 0x1
 11815 3bc2 51       		.byte	0x51
 11816 3bc3 01       		.uleb128 0x1
 11817 3bc4 42       		.byte	0x42
 11818 3bc5 2D       		.uleb128 0x2d
 11819 3bc6 01       		.uleb128 0x1
 11820 3bc7 50       		.byte	0x50
 11821 3bc8 02       		.uleb128 0x2
 11822 3bc9 08       		.byte	0x8
 11823 3bca 92       		.byte	0x92
 11824 3bcb 00       		.byte	0
 11825 3bcc 32       		.uleb128 0x32
 11826 3bcd C2010000 		.4byte	.LVL429
 11827 3bd1 E7440000 		.4byte	0x44e7
 11828 3bd5 EE3B0000 		.4byte	0x3bee
 11829 3bd9 2D       		.uleb128 0x2d
 11830 3bda 01       		.uleb128 0x1
 11831 3bdb 52       		.byte	0x52
 11832 3bdc 01       		.uleb128 0x1
 11833 3bdd 41       		.byte	0x41
 11834 3bde 2D       		.uleb128 0x2d
 11835 3bdf 01       		.uleb128 0x1
 11836 3be0 51       		.byte	0x51
 11837 3be1 05       		.uleb128 0x5
 11838 3be2 03       		.byte	0x3
 11839 3be3 D5010000 		.4byte	.LC44
 11840 3be7 2D       		.uleb128 0x2d
 11841 3be8 01       		.uleb128 0x1
ARM GAS  C:\Users\AHMED~1.ELE\AppData\Local\Temp\ccpjtoUe.s 			page 240


 11842 3be9 50       		.byte	0x50
 11843 3bea 02       		.uleb128 0x2
 11844 3beb 74       		.byte	0x74
 11845 3bec 00       		.sleb128 0
 11846 3bed 00       		.byte	0
 11847 3bee 32       		.uleb128 0x32
 11848 3bef D8010000 		.4byte	.LVL430
 11849 3bf3 95460000 		.4byte	0x4695
 11850 3bf7 1C3C0000 		.4byte	0x3c1c
 11851 3bfb 2D       		.uleb128 0x2d
 11852 3bfc 01       		.uleb128 0x1
 11853 3bfd 53       		.byte	0x53
 11854 3bfe 03       		.uleb128 0x3
 11855 3bff 0A       		.byte	0xa
 11856 3c00 0005     		.2byte	0x500
 11857 3c02 2D       		.uleb128 0x2d
 11858 3c03 01       		.uleb128 0x1
 11859 3c04 52       		.byte	0x52
 11860 3c05 02       		.uleb128 0x2
 11861 3c06 74       		.byte	0x74
 11862 3c07 00       		.sleb128 0
 11863 3c08 2D       		.uleb128 0x2d
 11864 3c09 01       		.uleb128 0x1
 11865 3c0a 51       		.byte	0x51
 11866 3c0b 02       		.uleb128 0x2
 11867 3c0c 08       		.byte	0x8
 11868 3c0d 25       		.byte	0x25
 11869 3c0e 2D       		.uleb128 0x2d
 11870 3c0f 01       		.uleb128 0x1
 11871 3c10 50       		.byte	0x50
 11872 3c11 01       		.uleb128 0x1
 11873 3c12 3F       		.byte	0x3f
 11874 3c13 2D       		.uleb128 0x2d
 11875 3c14 02       		.uleb128 0x2
 11876 3c15 7D       		.byte	0x7d
 11877 3c16 00       		.sleb128 0
 11878 3c17 03       		.uleb128 0x3
 11879 3c18 0A       		.byte	0xa
 11880 3c19 8220     		.2byte	0x2082
 11881 3c1b 00       		.byte	0
 11882 3c1c 2C       		.uleb128 0x2c
 11883 3c1d E0010000 		.4byte	.LVL431
 11884 3c21 63450000 		.4byte	0x4563
 11885 3c25 2D       		.uleb128 0x2d
 11886 3c26 01       		.uleb128 0x1
 11887 3c27 51       		.byte	0x51
 11888 3c28 02       		.uleb128 0x2
 11889 3c29 74       		.byte	0x74
 11890 3c2a 00       		.sleb128 0
 11891 3c2b 2D       		.uleb128 0x2d
 11892 3c2c 01       		.uleb128 0x1
 11893 3c2d 50       		.byte	0x50
 11894 3c2e 02       		.uleb128 0x2
 11895 3c2f 08       		.byte	0x8
 11896 3c30 94       		.byte	0x94
 11897 3c31 00       		.byte	0
 11898 3c32 00       		.byte	0
ARM GAS  C:\Users\AHMED~1.ELE\AppData\Local\Temp\ccpjtoUe.s 			page 241


 11899 3c33 38       		.uleb128 0x38
 11900 3c34 2A020000 		.4byte	.LBB24
 11901 3c38 30000000 		.4byte	.LBE24-.LBB24
 11902 3c3c DE3C0000 		.4byte	0x3cde
 11903 3c40 30       		.uleb128 0x30
 11904 3c41 6C656E00 		.ascii	"len\000"
 11905 3c45 01       		.byte	0x1
 11906 3c46 2905     		.2byte	0x529
 11907 3c48 B8000000 		.4byte	0xb8
 11908 3c4c 49140000 		.4byte	.LLST123
 11909 3c50 30       		.uleb128 0x30
 11910 3c51 70747200 		.ascii	"ptr\000"
 11911 3c55 01       		.byte	0x1
 11912 3c56 2905     		.2byte	0x529
 11913 3c58 DE000000 		.4byte	0xde
 11914 3c5c 5D140000 		.4byte	.LLST124
 11915 3c60 32       		.uleb128 0x32
 11916 3c61 32020000 		.4byte	.LVL442
 11917 3c65 63450000 		.4byte	0x4563
 11918 3c69 793C0000 		.4byte	0x3c79
 11919 3c6d 2D       		.uleb128 0x2d
 11920 3c6e 01       		.uleb128 0x1
 11921 3c6f 51       		.byte	0x51
 11922 3c70 01       		.uleb128 0x1
 11923 3c71 3E       		.byte	0x3e
 11924 3c72 2D       		.uleb128 0x2d
 11925 3c73 01       		.uleb128 0x1
 11926 3c74 50       		.byte	0x50
 11927 3c75 02       		.uleb128 0x2
 11928 3c76 08       		.byte	0x8
 11929 3c77 92       		.byte	0x92
 11930 3c78 00       		.byte	0
 11931 3c79 32       		.uleb128 0x32
 11932 3c7a 3E020000 		.4byte	.LVL443
 11933 3c7e E7440000 		.4byte	0x44e7
 11934 3c82 9B3C0000 		.4byte	0x3c9b
 11935 3c86 2D       		.uleb128 0x2d
 11936 3c87 01       		.uleb128 0x1
 11937 3c88 52       		.byte	0x52
 11938 3c89 01       		.uleb128 0x1
 11939 3c8a 3D       		.byte	0x3d
 11940 3c8b 2D       		.uleb128 0x2d
 11941 3c8c 01       		.uleb128 0x1
 11942 3c8d 51       		.byte	0x51
 11943 3c8e 05       		.uleb128 0x5
 11944 3c8f 03       		.byte	0x3
 11945 3c90 E7010000 		.4byte	.LC45
 11946 3c94 2D       		.uleb128 0x2d
 11947 3c95 01       		.uleb128 0x1
 11948 3c96 50       		.byte	0x50
 11949 3c97 02       		.uleb128 0x2
 11950 3c98 74       		.byte	0x74
 11951 3c99 00       		.sleb128 0
 11952 3c9a 00       		.byte	0
 11953 3c9b 32       		.uleb128 0x32
 11954 3c9c 52020000 		.4byte	.LVL444
 11955 3ca0 95460000 		.4byte	0x4695
ARM GAS  C:\Users\AHMED~1.ELE\AppData\Local\Temp\ccpjtoUe.s 			page 242


 11956 3ca4 C73C0000 		.4byte	0x3cc7
 11957 3ca8 2D       		.uleb128 0x2d
 11958 3ca9 01       		.uleb128 0x1
 11959 3caa 53       		.byte	0x53
 11960 3cab 03       		.uleb128 0x3
 11961 3cac 0A       		.byte	0xa
 11962 3cad 0005     		.2byte	0x500
 11963 3caf 2D       		.uleb128 0x2d
 11964 3cb0 01       		.uleb128 0x1
 11965 3cb1 52       		.byte	0x52
 11966 3cb2 02       		.uleb128 0x2
 11967 3cb3 74       		.byte	0x74
 11968 3cb4 00       		.sleb128 0
 11969 3cb5 2D       		.uleb128 0x2d
 11970 3cb6 01       		.uleb128 0x1
 11971 3cb7 51       		.byte	0x51
 11972 3cb8 02       		.uleb128 0x2
 11973 3cb9 08       		.byte	0x8
 11974 3cba 25       		.byte	0x25
 11975 3cbb 2D       		.uleb128 0x2d
 11976 3cbc 01       		.uleb128 0x1
 11977 3cbd 50       		.byte	0x50
 11978 3cbe 01       		.uleb128 0x1
 11979 3cbf 3F       		.byte	0x3f
 11980 3cc0 2D       		.uleb128 0x2d
 11981 3cc1 02       		.uleb128 0x2
 11982 3cc2 7D       		.byte	0x7d
 11983 3cc3 00       		.sleb128 0
 11984 3cc4 01       		.uleb128 0x1
 11985 3cc5 32       		.byte	0x32
 11986 3cc6 00       		.byte	0
 11987 3cc7 2C       		.uleb128 0x2c
 11988 3cc8 5A020000 		.4byte	.LVL445
 11989 3ccc 63450000 		.4byte	0x4563
 11990 3cd0 2D       		.uleb128 0x2d
 11991 3cd1 01       		.uleb128 0x1
 11992 3cd2 51       		.byte	0x51
 11993 3cd3 02       		.uleb128 0x2
 11994 3cd4 74       		.byte	0x74
 11995 3cd5 00       		.sleb128 0
 11996 3cd6 2D       		.uleb128 0x2d
 11997 3cd7 01       		.uleb128 0x1
 11998 3cd8 50       		.byte	0x50
 11999 3cd9 02       		.uleb128 0x2
 12000 3cda 08       		.byte	0x8
 12001 3cdb 94       		.byte	0x94
 12002 3cdc 00       		.byte	0
 12003 3cdd 00       		.byte	0
 12004 3cde 32       		.uleb128 0x32
 12005 3cdf 12000000 		.4byte	.LVL386
 12006 3ce3 66470000 		.4byte	0x4766
 12007 3ce7 FF3C0000 		.4byte	0x3cff
 12008 3ceb 2D       		.uleb128 0x2d
 12009 3cec 01       		.uleb128 0x1
 12010 3ced 52       		.byte	0x52
 12011 3cee 02       		.uleb128 0x2
 12012 3cef 76       		.byte	0x76
ARM GAS  C:\Users\AHMED~1.ELE\AppData\Local\Temp\ccpjtoUe.s 			page 243


 12013 3cf0 00       		.sleb128 0
 12014 3cf1 2D       		.uleb128 0x2d
 12015 3cf2 01       		.uleb128 0x1
 12016 3cf3 51       		.byte	0x51
 12017 3cf4 03       		.uleb128 0x3
 12018 3cf5 F3       		.byte	0xf3
 12019 3cf6 01       		.uleb128 0x1
 12020 3cf7 50       		.byte	0x50
 12021 3cf8 2D       		.uleb128 0x2d
 12022 3cf9 01       		.uleb128 0x1
 12023 3cfa 50       		.byte	0x50
 12024 3cfb 02       		.uleb128 0x2
 12025 3cfc 76       		.byte	0x76
 12026 3cfd 00       		.sleb128 0
 12027 3cfe 00       		.byte	0
 12028 3cff 32       		.uleb128 0x32
 12029 3d00 2E000000 		.4byte	.LVL388
 12030 3d04 85470000 		.4byte	0x4785
 12031 3d08 333D0000 		.4byte	0x3d33
 12032 3d0c 2D       		.uleb128 0x2d
 12033 3d0d 01       		.uleb128 0x1
 12034 3d0e 53       		.byte	0x53
 12035 3d0f 01       		.uleb128 0x1
 12036 3d10 30       		.byte	0x30
 12037 3d11 2D       		.uleb128 0x2d
 12038 3d12 01       		.uleb128 0x1
 12039 3d13 52       		.byte	0x52
 12040 3d14 05       		.uleb128 0x5
 12041 3d15 03       		.byte	0x3
 12042 3d16 82010000 		.4byte	.LC36
 12043 3d1a 2D       		.uleb128 0x2d
 12044 3d1b 01       		.uleb128 0x1
 12045 3d1c 51       		.byte	0x51
 12046 3d1d 02       		.uleb128 0x2
 12047 3d1e 75       		.byte	0x75
 12048 3d1f 00       		.sleb128 0
 12049 3d20 2D       		.uleb128 0x2d
 12050 3d21 01       		.uleb128 0x1
 12051 3d22 50       		.byte	0x50
 12052 3d23 02       		.uleb128 0x2
 12053 3d24 75       		.byte	0x75
 12054 3d25 00       		.sleb128 0
 12055 3d26 2D       		.uleb128 0x2d
 12056 3d27 02       		.uleb128 0x2
 12057 3d28 7D       		.byte	0x7d
 12058 3d29 04       		.sleb128 4
 12059 3d2a 01       		.uleb128 0x1
 12060 3d2b 31       		.byte	0x31
 12061 3d2c 2D       		.uleb128 0x2d
 12062 3d2d 02       		.uleb128 0x2
 12063 3d2e 7D       		.byte	0x7d
 12064 3d2f 00       		.sleb128 0
 12065 3d30 01       		.uleb128 0x1
 12066 3d31 30       		.byte	0x30
 12067 3d32 00       		.byte	0
 12068 3d33 33       		.uleb128 0x33
 12069 3d34 50000000 		.4byte	.LVL392
ARM GAS  C:\Users\AHMED~1.ELE\AppData\Local\Temp\ccpjtoUe.s 			page 244


 12070 3d38 B3470000 		.4byte	0x47b3
 12071 3d3c 33       		.uleb128 0x33
 12072 3d3d 54000000 		.4byte	.LVL393
 12073 3d41 BA470000 		.4byte	0x47ba
 12074 3d45 32       		.uleb128 0x32
 12075 3d46 5A000000 		.4byte	.LVL394
 12076 3d4a C1470000 		.4byte	0x47c1
 12077 3d4e 583D0000 		.4byte	0x3d58
 12078 3d52 2D       		.uleb128 0x2d
 12079 3d53 01       		.uleb128 0x1
 12080 3d54 50       		.byte	0x50
 12081 3d55 01       		.uleb128 0x1
 12082 3d56 31       		.byte	0x31
 12083 3d57 00       		.byte	0
 12084 3d58 32       		.uleb128 0x32
 12085 3d59 68000000 		.4byte	.LVL395
 12086 3d5d 95460000 		.4byte	0x4695
 12087 3d61 803D0000 		.4byte	0x3d80
 12088 3d65 2D       		.uleb128 0x2d
 12089 3d66 01       		.uleb128 0x1
 12090 3d67 53       		.byte	0x53
 12091 3d68 01       		.uleb128 0x1
 12092 3d69 30       		.byte	0x30
 12093 3d6a 2D       		.uleb128 0x2d
 12094 3d6b 01       		.uleb128 0x1
 12095 3d6c 52       		.byte	0x52
 12096 3d6d 01       		.uleb128 0x1
 12097 3d6e 30       		.byte	0x30
 12098 3d6f 2D       		.uleb128 0x2d
 12099 3d70 01       		.uleb128 0x1
 12100 3d71 51       		.byte	0x51
 12101 3d72 01       		.uleb128 0x1
 12102 3d73 43       		.byte	0x43
 12103 3d74 2D       		.uleb128 0x2d
 12104 3d75 01       		.uleb128 0x1
 12105 3d76 50       		.byte	0x50
 12106 3d77 01       		.uleb128 0x1
 12107 3d78 3F       		.byte	0x3f
 12108 3d79 2D       		.uleb128 0x2d
 12109 3d7a 02       		.uleb128 0x2
 12110 3d7b 7D       		.byte	0x7d
 12111 3d7c 00       		.sleb128 0
 12112 3d7d 01       		.uleb128 0x1
 12113 3d7e 30       		.byte	0x30
 12114 3d7f 00       		.byte	0
 12115 3d80 32       		.uleb128 0x32
 12116 3d81 7A000000 		.4byte	.LVL396
 12117 3d85 85470000 		.4byte	0x4785
 12118 3d89 B43D0000 		.4byte	0x3db4
 12119 3d8d 2D       		.uleb128 0x2d
 12120 3d8e 01       		.uleb128 0x1
 12121 3d8f 53       		.byte	0x53
 12122 3d90 01       		.uleb128 0x1
 12123 3d91 30       		.byte	0x30
 12124 3d92 2D       		.uleb128 0x2d
 12125 3d93 01       		.uleb128 0x1
 12126 3d94 52       		.byte	0x52
ARM GAS  C:\Users\AHMED~1.ELE\AppData\Local\Temp\ccpjtoUe.s 			page 245


 12127 3d95 05       		.uleb128 0x5
 12128 3d96 03       		.byte	0x3
 12129 3d97 8E010000 		.4byte	.LC37
 12130 3d9b 2D       		.uleb128 0x2d
 12131 3d9c 01       		.uleb128 0x1
 12132 3d9d 51       		.byte	0x51
 12133 3d9e 02       		.uleb128 0x2
 12134 3d9f 75       		.byte	0x75
 12135 3da0 00       		.sleb128 0
 12136 3da1 2D       		.uleb128 0x2d
 12137 3da2 01       		.uleb128 0x1
 12138 3da3 50       		.byte	0x50
 12139 3da4 02       		.uleb128 0x2
 12140 3da5 74       		.byte	0x74
 12141 3da6 00       		.sleb128 0
 12142 3da7 2D       		.uleb128 0x2d
 12143 3da8 02       		.uleb128 0x2
 12144 3da9 7D       		.byte	0x7d
 12145 3daa 04       		.sleb128 4
 12146 3dab 01       		.uleb128 0x1
 12147 3dac 31       		.byte	0x31
 12148 3dad 2D       		.uleb128 0x2d
 12149 3dae 02       		.uleb128 0x2
 12150 3daf 7D       		.byte	0x7d
 12151 3db0 00       		.sleb128 0
 12152 3db1 01       		.uleb128 0x1
 12153 3db2 30       		.byte	0x30
 12154 3db3 00       		.byte	0
 12155 3db4 32       		.uleb128 0x32
 12156 3db5 94000000 		.4byte	.LVL399
 12157 3db9 42230000 		.4byte	0x2342
 12158 3dbd D43D0000 		.4byte	0x3dd4
 12159 3dc1 2D       		.uleb128 0x2d
 12160 3dc2 01       		.uleb128 0x1
 12161 3dc3 52       		.byte	0x52
 12162 3dc4 02       		.uleb128 0x2
 12163 3dc5 77       		.byte	0x77
 12164 3dc6 00       		.sleb128 0
 12165 3dc7 2D       		.uleb128 0x2d
 12166 3dc8 01       		.uleb128 0x1
 12167 3dc9 51       		.byte	0x51
 12168 3dca 02       		.uleb128 0x2
 12169 3dcb 74       		.byte	0x74
 12170 3dcc 00       		.sleb128 0
 12171 3dcd 2D       		.uleb128 0x2d
 12172 3dce 01       		.uleb128 0x1
 12173 3dcf 50       		.byte	0x50
 12174 3dd0 02       		.uleb128 0x2
 12175 3dd1 75       		.byte	0x75
 12176 3dd2 00       		.sleb128 0
 12177 3dd3 00       		.byte	0
 12178 3dd4 32       		.uleb128 0x32
 12179 3dd5 AC000000 		.4byte	.LVL402
 12180 3dd9 85470000 		.4byte	0x4785
 12181 3ddd 083E0000 		.4byte	0x3e08
 12182 3de1 2D       		.uleb128 0x2d
 12183 3de2 01       		.uleb128 0x1
ARM GAS  C:\Users\AHMED~1.ELE\AppData\Local\Temp\ccpjtoUe.s 			page 246


 12184 3de3 53       		.byte	0x53
 12185 3de4 01       		.uleb128 0x1
 12186 3de5 30       		.byte	0x30
 12187 3de6 2D       		.uleb128 0x2d
 12188 3de7 01       		.uleb128 0x1
 12189 3de8 52       		.byte	0x52
 12190 3de9 05       		.uleb128 0x5
 12191 3dea 03       		.byte	0x3
 12192 3deb 97010000 		.4byte	.LC38
 12193 3def 2D       		.uleb128 0x2d
 12194 3df0 01       		.uleb128 0x1
 12195 3df1 51       		.byte	0x51
 12196 3df2 02       		.uleb128 0x2
 12197 3df3 75       		.byte	0x75
 12198 3df4 00       		.sleb128 0
 12199 3df5 2D       		.uleb128 0x2d
 12200 3df6 01       		.uleb128 0x1
 12201 3df7 50       		.byte	0x50
 12202 3df8 02       		.uleb128 0x2
 12203 3df9 74       		.byte	0x74
 12204 3dfa 00       		.sleb128 0
 12205 3dfb 2D       		.uleb128 0x2d
 12206 3dfc 02       		.uleb128 0x2
 12207 3dfd 7D       		.byte	0x7d
 12208 3dfe 04       		.sleb128 4
 12209 3dff 01       		.uleb128 0x1
 12210 3e00 31       		.byte	0x31
 12211 3e01 2D       		.uleb128 0x2d
 12212 3e02 02       		.uleb128 0x2
 12213 3e03 7D       		.byte	0x7d
 12214 3e04 00       		.sleb128 0
 12215 3e05 01       		.uleb128 0x1
 12216 3e06 30       		.byte	0x30
 12217 3e07 00       		.byte	0
 12218 3e08 32       		.uleb128 0x32
 12219 3e09 C6000000 		.4byte	.LVL405
 12220 3e0d F6240000 		.4byte	0x24f6
 12221 3e11 283E0000 		.4byte	0x3e28
 12222 3e15 2D       		.uleb128 0x2d
 12223 3e16 01       		.uleb128 0x1
 12224 3e17 52       		.byte	0x52
 12225 3e18 02       		.uleb128 0x2
 12226 3e19 77       		.byte	0x77
 12227 3e1a 00       		.sleb128 0
 12228 3e1b 2D       		.uleb128 0x2d
 12229 3e1c 01       		.uleb128 0x1
 12230 3e1d 51       		.byte	0x51
 12231 3e1e 02       		.uleb128 0x2
 12232 3e1f 74       		.byte	0x74
 12233 3e20 00       		.sleb128 0
 12234 3e21 2D       		.uleb128 0x2d
 12235 3e22 01       		.uleb128 0x1
 12236 3e23 50       		.byte	0x50
 12237 3e24 02       		.uleb128 0x2
 12238 3e25 75       		.byte	0x75
 12239 3e26 00       		.sleb128 0
 12240 3e27 00       		.byte	0
ARM GAS  C:\Users\AHMED~1.ELE\AppData\Local\Temp\ccpjtoUe.s 			page 247


 12241 3e28 32       		.uleb128 0x32
 12242 3e29 DA000000 		.4byte	.LVL406
 12243 3e2d 85470000 		.4byte	0x4785
 12244 3e31 5C3E0000 		.4byte	0x3e5c
 12245 3e35 2D       		.uleb128 0x2d
 12246 3e36 01       		.uleb128 0x1
 12247 3e37 53       		.byte	0x53
 12248 3e38 01       		.uleb128 0x1
 12249 3e39 30       		.byte	0x30
 12250 3e3a 2D       		.uleb128 0x2d
 12251 3e3b 01       		.uleb128 0x1
 12252 3e3c 52       		.byte	0x52
 12253 3e3d 05       		.uleb128 0x5
 12254 3e3e 03       		.byte	0x3
 12255 3e3f A0010000 		.4byte	.LC39
 12256 3e43 2D       		.uleb128 0x2d
 12257 3e44 01       		.uleb128 0x1
 12258 3e45 51       		.byte	0x51
 12259 3e46 02       		.uleb128 0x2
 12260 3e47 75       		.byte	0x75
 12261 3e48 00       		.sleb128 0
 12262 3e49 2D       		.uleb128 0x2d
 12263 3e4a 01       		.uleb128 0x1
 12264 3e4b 50       		.byte	0x50
 12265 3e4c 02       		.uleb128 0x2
 12266 3e4d 74       		.byte	0x74
 12267 3e4e 00       		.sleb128 0
 12268 3e4f 2D       		.uleb128 0x2d
 12269 3e50 02       		.uleb128 0x2
 12270 3e51 7D       		.byte	0x7d
 12271 3e52 04       		.sleb128 4
 12272 3e53 01       		.uleb128 0x1
 12273 3e54 31       		.byte	0x31
 12274 3e55 2D       		.uleb128 0x2d
 12275 3e56 02       		.uleb128 0x2
 12276 3e57 7D       		.byte	0x7d
 12277 3e58 00       		.sleb128 0
 12278 3e59 01       		.uleb128 0x1
 12279 3e5a 30       		.byte	0x30
 12280 3e5b 00       		.byte	0
 12281 3e5c 32       		.uleb128 0x32
 12282 3e5d F4000000 		.4byte	.LVL409
 12283 3e61 18270000 		.4byte	0x2718
 12284 3e65 7C3E0000 		.4byte	0x3e7c
 12285 3e69 2D       		.uleb128 0x2d
 12286 3e6a 01       		.uleb128 0x1
 12287 3e6b 52       		.byte	0x52
 12288 3e6c 02       		.uleb128 0x2
 12289 3e6d 77       		.byte	0x77
 12290 3e6e 00       		.sleb128 0
 12291 3e6f 2D       		.uleb128 0x2d
 12292 3e70 01       		.uleb128 0x1
 12293 3e71 51       		.byte	0x51
 12294 3e72 02       		.uleb128 0x2
 12295 3e73 74       		.byte	0x74
 12296 3e74 00       		.sleb128 0
 12297 3e75 2D       		.uleb128 0x2d
ARM GAS  C:\Users\AHMED~1.ELE\AppData\Local\Temp\ccpjtoUe.s 			page 248


 12298 3e76 01       		.uleb128 0x1
 12299 3e77 50       		.byte	0x50
 12300 3e78 02       		.uleb128 0x2
 12301 3e79 75       		.byte	0x75
 12302 3e7a 00       		.sleb128 0
 12303 3e7b 00       		.byte	0
 12304 3e7c 32       		.uleb128 0x32
 12305 3e7d 08010000 		.4byte	.LVL410
 12306 3e81 85470000 		.4byte	0x4785
 12307 3e85 B03E0000 		.4byte	0x3eb0
 12308 3e89 2D       		.uleb128 0x2d
 12309 3e8a 01       		.uleb128 0x1
 12310 3e8b 53       		.byte	0x53
 12311 3e8c 01       		.uleb128 0x1
 12312 3e8d 30       		.byte	0x30
 12313 3e8e 2D       		.uleb128 0x2d
 12314 3e8f 01       		.uleb128 0x1
 12315 3e90 52       		.byte	0x52
 12316 3e91 05       		.uleb128 0x5
 12317 3e92 03       		.byte	0x3
 12318 3e93 A7010000 		.4byte	.LC40
 12319 3e97 2D       		.uleb128 0x2d
 12320 3e98 01       		.uleb128 0x1
 12321 3e99 51       		.byte	0x51
 12322 3e9a 02       		.uleb128 0x2
 12323 3e9b 75       		.byte	0x75
 12324 3e9c 00       		.sleb128 0
 12325 3e9d 2D       		.uleb128 0x2d
 12326 3e9e 01       		.uleb128 0x1
 12327 3e9f 50       		.byte	0x50
 12328 3ea0 02       		.uleb128 0x2
 12329 3ea1 74       		.byte	0x74
 12330 3ea2 00       		.sleb128 0
 12331 3ea3 2D       		.uleb128 0x2d
 12332 3ea4 02       		.uleb128 0x2
 12333 3ea5 7D       		.byte	0x7d
 12334 3ea6 04       		.sleb128 4
 12335 3ea7 01       		.uleb128 0x1
 12336 3ea8 31       		.byte	0x31
 12337 3ea9 2D       		.uleb128 0x2d
 12338 3eaa 02       		.uleb128 0x2
 12339 3eab 7D       		.byte	0x7d
 12340 3eac 00       		.sleb128 0
 12341 3ead 01       		.uleb128 0x1
 12342 3eae 30       		.byte	0x30
 12343 3eaf 00       		.byte	0
 12344 3eb0 32       		.uleb128 0x32
 12345 3eb1 22010000 		.4byte	.LVL413
 12346 3eb5 BE280000 		.4byte	0x28be
 12347 3eb9 D03E0000 		.4byte	0x3ed0
 12348 3ebd 2D       		.uleb128 0x2d
 12349 3ebe 01       		.uleb128 0x1
 12350 3ebf 52       		.byte	0x52
 12351 3ec0 02       		.uleb128 0x2
 12352 3ec1 77       		.byte	0x77
 12353 3ec2 00       		.sleb128 0
 12354 3ec3 2D       		.uleb128 0x2d
ARM GAS  C:\Users\AHMED~1.ELE\AppData\Local\Temp\ccpjtoUe.s 			page 249


 12355 3ec4 01       		.uleb128 0x1
 12356 3ec5 51       		.byte	0x51
 12357 3ec6 02       		.uleb128 0x2
 12358 3ec7 74       		.byte	0x74
 12359 3ec8 00       		.sleb128 0
 12360 3ec9 2D       		.uleb128 0x2d
 12361 3eca 01       		.uleb128 0x1
 12362 3ecb 50       		.byte	0x50
 12363 3ecc 02       		.uleb128 0x2
 12364 3ecd 75       		.byte	0x75
 12365 3ece 00       		.sleb128 0
 12366 3ecf 00       		.byte	0
 12367 3ed0 32       		.uleb128 0x32
 12368 3ed1 36010000 		.4byte	.LVL414
 12369 3ed5 85470000 		.4byte	0x4785
 12370 3ed9 043F0000 		.4byte	0x3f04
 12371 3edd 2D       		.uleb128 0x2d
 12372 3ede 01       		.uleb128 0x1
 12373 3edf 53       		.byte	0x53
 12374 3ee0 01       		.uleb128 0x1
 12375 3ee1 30       		.byte	0x30
 12376 3ee2 2D       		.uleb128 0x2d
 12377 3ee3 01       		.uleb128 0x1
 12378 3ee4 52       		.byte	0x52
 12379 3ee5 05       		.uleb128 0x5
 12380 3ee6 03       		.byte	0x3
 12381 3ee7 B1010000 		.4byte	.LC41
 12382 3eeb 2D       		.uleb128 0x2d
 12383 3eec 01       		.uleb128 0x1
 12384 3eed 51       		.byte	0x51
 12385 3eee 02       		.uleb128 0x2
 12386 3eef 75       		.byte	0x75
 12387 3ef0 00       		.sleb128 0
 12388 3ef1 2D       		.uleb128 0x2d
 12389 3ef2 01       		.uleb128 0x1
 12390 3ef3 50       		.byte	0x50
 12391 3ef4 02       		.uleb128 0x2
 12392 3ef5 74       		.byte	0x74
 12393 3ef6 00       		.sleb128 0
 12394 3ef7 2D       		.uleb128 0x2d
 12395 3ef8 02       		.uleb128 0x2
 12396 3ef9 7D       		.byte	0x7d
 12397 3efa 04       		.sleb128 4
 12398 3efb 01       		.uleb128 0x1
 12399 3efc 31       		.byte	0x31
 12400 3efd 2D       		.uleb128 0x2d
 12401 3efe 02       		.uleb128 0x2
 12402 3eff 7D       		.byte	0x7d
 12403 3f00 00       		.sleb128 0
 12404 3f01 01       		.uleb128 0x1
 12405 3f02 30       		.byte	0x30
 12406 3f03 00       		.byte	0
 12407 3f04 32       		.uleb128 0x32
 12408 3f05 50010000 		.4byte	.LVL417
 12409 3f09 642A0000 		.4byte	0x2a64
 12410 3f0d 243F0000 		.4byte	0x3f24
 12411 3f11 2D       		.uleb128 0x2d
ARM GAS  C:\Users\AHMED~1.ELE\AppData\Local\Temp\ccpjtoUe.s 			page 250


 12412 3f12 01       		.uleb128 0x1
 12413 3f13 52       		.byte	0x52
 12414 3f14 02       		.uleb128 0x2
 12415 3f15 77       		.byte	0x77
 12416 3f16 00       		.sleb128 0
 12417 3f17 2D       		.uleb128 0x2d
 12418 3f18 01       		.uleb128 0x1
 12419 3f19 51       		.byte	0x51
 12420 3f1a 02       		.uleb128 0x2
 12421 3f1b 74       		.byte	0x74
 12422 3f1c 00       		.sleb128 0
 12423 3f1d 2D       		.uleb128 0x2d
 12424 3f1e 01       		.uleb128 0x1
 12425 3f1f 50       		.byte	0x50
 12426 3f20 02       		.uleb128 0x2
 12427 3f21 75       		.byte	0x75
 12428 3f22 00       		.sleb128 0
 12429 3f23 00       		.byte	0
 12430 3f24 32       		.uleb128 0x32
 12431 3f25 64010000 		.4byte	.LVL418
 12432 3f29 85470000 		.4byte	0x4785
 12433 3f2d 583F0000 		.4byte	0x3f58
 12434 3f31 2D       		.uleb128 0x2d
 12435 3f32 01       		.uleb128 0x1
 12436 3f33 53       		.byte	0x53
 12437 3f34 01       		.uleb128 0x1
 12438 3f35 30       		.byte	0x30
 12439 3f36 2D       		.uleb128 0x2d
 12440 3f37 01       		.uleb128 0x1
 12441 3f38 52       		.byte	0x52
 12442 3f39 05       		.uleb128 0x5
 12443 3f3a 03       		.byte	0x3
 12444 3f3b BE010000 		.4byte	.LC42
 12445 3f3f 2D       		.uleb128 0x2d
 12446 3f40 01       		.uleb128 0x1
 12447 3f41 51       		.byte	0x51
 12448 3f42 02       		.uleb128 0x2
 12449 3f43 75       		.byte	0x75
 12450 3f44 00       		.sleb128 0
 12451 3f45 2D       		.uleb128 0x2d
 12452 3f46 01       		.uleb128 0x1
 12453 3f47 50       		.byte	0x50
 12454 3f48 02       		.uleb128 0x2
 12455 3f49 74       		.byte	0x74
 12456 3f4a 00       		.sleb128 0
 12457 3f4b 2D       		.uleb128 0x2d
 12458 3f4c 02       		.uleb128 0x2
 12459 3f4d 7D       		.byte	0x7d
 12460 3f4e 04       		.sleb128 4
 12461 3f4f 01       		.uleb128 0x1
 12462 3f50 31       		.byte	0x31
 12463 3f51 2D       		.uleb128 0x2d
 12464 3f52 02       		.uleb128 0x2
 12465 3f53 7D       		.byte	0x7d
 12466 3f54 00       		.sleb128 0
 12467 3f55 01       		.uleb128 0x1
 12468 3f56 30       		.byte	0x30
ARM GAS  C:\Users\AHMED~1.ELE\AppData\Local\Temp\ccpjtoUe.s 			page 251


 12469 3f57 00       		.byte	0
 12470 3f58 32       		.uleb128 0x32
 12471 3f59 7E010000 		.4byte	.LVL421
 12472 3f5d EB2B0000 		.4byte	0x2beb
 12473 3f61 783F0000 		.4byte	0x3f78
 12474 3f65 2D       		.uleb128 0x2d
 12475 3f66 01       		.uleb128 0x1
 12476 3f67 52       		.byte	0x52
 12477 3f68 02       		.uleb128 0x2
 12478 3f69 77       		.byte	0x77
 12479 3f6a 00       		.sleb128 0
 12480 3f6b 2D       		.uleb128 0x2d
 12481 3f6c 01       		.uleb128 0x1
 12482 3f6d 51       		.byte	0x51
 12483 3f6e 02       		.uleb128 0x2
 12484 3f6f 74       		.byte	0x74
 12485 3f70 00       		.sleb128 0
 12486 3f71 2D       		.uleb128 0x2d
 12487 3f72 01       		.uleb128 0x1
 12488 3f73 50       		.byte	0x50
 12489 3f74 02       		.uleb128 0x2
 12490 3f75 75       		.byte	0x75
 12491 3f76 00       		.sleb128 0
 12492 3f77 00       		.byte	0
 12493 3f78 32       		.uleb128 0x32
 12494 3f79 92010000 		.4byte	.LVL422
 12495 3f7d 85470000 		.4byte	0x4785
 12496 3f81 AC3F0000 		.4byte	0x3fac
 12497 3f85 2D       		.uleb128 0x2d
 12498 3f86 01       		.uleb128 0x1
 12499 3f87 53       		.byte	0x53
 12500 3f88 01       		.uleb128 0x1
 12501 3f89 30       		.byte	0x30
 12502 3f8a 2D       		.uleb128 0x2d
 12503 3f8b 01       		.uleb128 0x1
 12504 3f8c 52       		.byte	0x52
 12505 3f8d 05       		.uleb128 0x5
 12506 3f8e 03       		.byte	0x3
 12507 3f8f C8010000 		.4byte	.LC43
 12508 3f93 2D       		.uleb128 0x2d
 12509 3f94 01       		.uleb128 0x1
 12510 3f95 51       		.byte	0x51
 12511 3f96 02       		.uleb128 0x2
 12512 3f97 75       		.byte	0x75
 12513 3f98 00       		.sleb128 0
 12514 3f99 2D       		.uleb128 0x2d
 12515 3f9a 01       		.uleb128 0x1
 12516 3f9b 50       		.byte	0x50
 12517 3f9c 02       		.uleb128 0x2
 12518 3f9d 74       		.byte	0x74
 12519 3f9e 00       		.sleb128 0
 12520 3f9f 2D       		.uleb128 0x2d
 12521 3fa0 02       		.uleb128 0x2
 12522 3fa1 7D       		.byte	0x7d
 12523 3fa2 04       		.sleb128 4
 12524 3fa3 01       		.uleb128 0x1
 12525 3fa4 31       		.byte	0x31
ARM GAS  C:\Users\AHMED~1.ELE\AppData\Local\Temp\ccpjtoUe.s 			page 252


 12526 3fa5 2D       		.uleb128 0x2d
 12527 3fa6 02       		.uleb128 0x2
 12528 3fa7 7D       		.byte	0x7d
 12529 3fa8 00       		.sleb128 0
 12530 3fa9 01       		.uleb128 0x1
 12531 3faa 30       		.byte	0x30
 12532 3fab 00       		.byte	0
 12533 3fac 32       		.uleb128 0x32
 12534 3fad AC010000 		.4byte	.LVL425
 12535 3fb1 722D0000 		.4byte	0x2d72
 12536 3fb5 CC3F0000 		.4byte	0x3fcc
 12537 3fb9 2D       		.uleb128 0x2d
 12538 3fba 01       		.uleb128 0x1
 12539 3fbb 52       		.byte	0x52
 12540 3fbc 02       		.uleb128 0x2
 12541 3fbd 77       		.byte	0x77
 12542 3fbe 00       		.sleb128 0
 12543 3fbf 2D       		.uleb128 0x2d
 12544 3fc0 01       		.uleb128 0x1
 12545 3fc1 51       		.byte	0x51
 12546 3fc2 02       		.uleb128 0x2
 12547 3fc3 74       		.byte	0x74
 12548 3fc4 00       		.sleb128 0
 12549 3fc5 2D       		.uleb128 0x2d
 12550 3fc6 01       		.uleb128 0x1
 12551 3fc7 50       		.byte	0x50
 12552 3fc8 02       		.uleb128 0x2
 12553 3fc9 75       		.byte	0x75
 12554 3fca 00       		.sleb128 0
 12555 3fcb 00       		.byte	0
 12556 3fcc 32       		.uleb128 0x32
 12557 3fcd E8010000 		.4byte	.LVL432
 12558 3fd1 D2470000 		.4byte	0x47d2
 12559 3fd5 E13F0000 		.4byte	0x3fe1
 12560 3fd9 2D       		.uleb128 0x2d
 12561 3fda 01       		.uleb128 0x1
 12562 3fdb 50       		.byte	0x50
 12563 3fdc 03       		.uleb128 0x3
 12564 3fdd 0A       		.byte	0xa
 12565 3fde 2823     		.2byte	0x2328
 12566 3fe0 00       		.byte	0
 12567 3fe1 32       		.uleb128 0x32
 12568 3fe2 EE010000 		.4byte	.LVL433
 12569 3fe6 E7470000 		.4byte	0x47e7
 12570 3fea F43F0000 		.4byte	0x3ff4
 12571 3fee 2D       		.uleb128 0x2d
 12572 3fef 01       		.uleb128 0x1
 12573 3ff0 50       		.byte	0x50
 12574 3ff1 01       		.uleb128 0x1
 12575 3ff2 30       		.byte	0x30
 12576 3ff3 00       		.byte	0
 12577 3ff4 32       		.uleb128 0x32
 12578 3ff5 F4010000 		.4byte	.LVL434
 12579 3ff9 E7470000 		.4byte	0x47e7
 12580 3ffd 08400000 		.4byte	0x4008
 12581 4001 2D       		.uleb128 0x2d
 12582 4002 01       		.uleb128 0x1
ARM GAS  C:\Users\AHMED~1.ELE\AppData\Local\Temp\ccpjtoUe.s 			page 253


 12583 4003 50       		.byte	0x50
 12584 4004 02       		.uleb128 0x2
 12585 4005 75       		.byte	0x75
 12586 4006 00       		.sleb128 0
 12587 4007 00       		.byte	0
 12588 4008 33       		.uleb128 0x33
 12589 4009 F8010000 		.4byte	.LVL435
 12590 400d F8470000 		.4byte	0x47f8
 12591 4011 33       		.uleb128 0x33
 12592 4012 02020000 		.4byte	.LVL436
 12593 4016 03480000 		.4byte	0x4803
 12594 401a 33       		.uleb128 0x33
 12595 401b 0A020000 		.4byte	.LVL437
 12596 401f 0E480000 		.4byte	0x480e
 12597 4023 33       		.uleb128 0x33
 12598 4024 14020000 		.4byte	.LVL439
 12599 4028 2F2F0000 		.4byte	0x2f2f
 12600 402c 32       		.uleb128 0x32
 12601 402d 1A020000 		.4byte	.LVL440
 12602 4031 C1470000 		.4byte	0x47c1
 12603 4035 3F400000 		.4byte	0x403f
 12604 4039 2D       		.uleb128 0x2d
 12605 403a 01       		.uleb128 0x1
 12606 403b 50       		.byte	0x50
 12607 403c 01       		.uleb128 0x1
 12608 403d 32       		.byte	0x32
 12609 403e 00       		.byte	0
 12610 403f 32       		.uleb128 0x32
 12611 4040 2A020000 		.4byte	.LVL441
 12612 4044 95460000 		.4byte	0x4695
 12613 4048 6C400000 		.4byte	0x406c
 12614 404c 2D       		.uleb128 0x2d
 12615 404d 01       		.uleb128 0x1
 12616 404e 53       		.byte	0x53
 12617 404f 02       		.uleb128 0x2
 12618 4050 75       		.byte	0x75
 12619 4051 00       		.sleb128 0
 12620 4052 2D       		.uleb128 0x2d
 12621 4053 01       		.uleb128 0x1
 12622 4054 52       		.byte	0x52
 12623 4055 03       		.uleb128 0x3
 12624 4056 0A       		.byte	0xa
 12625 4057 0003     		.2byte	0x300
 12626 4059 2D       		.uleb128 0x2d
 12627 405a 01       		.uleb128 0x1
 12628 405b 51       		.byte	0x51
 12629 405c 02       		.uleb128 0x2
 12630 405d 08       		.byte	0x8
 12631 405e 23       		.byte	0x23
 12632 405f 2D       		.uleb128 0x2d
 12633 4060 01       		.uleb128 0x1
 12634 4061 50       		.byte	0x50
 12635 4062 01       		.uleb128 0x1
 12636 4063 3F       		.byte	0x3f
 12637 4064 2D       		.uleb128 0x2d
 12638 4065 02       		.uleb128 0x2
 12639 4066 7D       		.byte	0x7d
ARM GAS  C:\Users\AHMED~1.ELE\AppData\Local\Temp\ccpjtoUe.s 			page 254


 12640 4067 00       		.sleb128 0
 12641 4068 02       		.uleb128 0x2
 12642 4069 75       		.byte	0x75
 12643 406a 00       		.sleb128 0
 12644 406b 00       		.byte	0
 12645 406c 2C       		.uleb128 0x2c
 12646 406d 62020000 		.4byte	.LVL446
 12647 4071 D2470000 		.4byte	0x47d2
 12648 4075 2D       		.uleb128 0x2d
 12649 4076 01       		.uleb128 0x1
 12650 4077 50       		.byte	0x50
 12651 4078 03       		.uleb128 0x3
 12652 4079 0A       		.byte	0xa
 12653 407a 2C01     		.2byte	0x12c
 12654 407c 00       		.byte	0
 12655 407d 00       		.byte	0
 12656 407e 2E       		.uleb128 0x2e
 12657 407f 5E2F0000 		.4byte	.LASF776
 12658 4083 01       		.byte	0x1
 12659 4084 3805     		.2byte	0x538
 12660 4086 97000000 		.4byte	0x97
 12661 408a 00000000 		.4byte	.LFB14
 12662 408e 24010000 		.4byte	.LFE14-.LFB14
 12663 4092 01       		.uleb128 0x1
 12664 4093 9C       		.byte	0x9c
 12665 4094 82430000 		.4byte	0x4382
 12666 4098 3B       		.uleb128 0x3b
 12667 4099 14240000 		.4byte	.LASF777
 12668 409d 01       		.byte	0x1
 12669 409e 3A05     		.2byte	0x53a
 12670 40a0 B40E0000 		.4byte	0xeb4
 12671 40a4 03       		.uleb128 0x3
 12672 40a5 91       		.byte	0x91
 12673 40a6 AC7F     		.sleb128 -84
 12674 40a8 31       		.uleb128 0x31
 12675 40a9 DB220000 		.4byte	.LASF778
 12676 40ad 01       		.byte	0x1
 12677 40ae 3A05     		.2byte	0x53a
 12678 40b0 82430000 		.4byte	0x4382
 12679 40b4 7B140000 		.4byte	.LLST125
 12680 40b8 30       		.uleb128 0x30
 12681 40b9 666400   		.ascii	"fd\000"
 12682 40bc 01       		.byte	0x1
 12683 40bd 3B05     		.2byte	0x53b
 12684 40bf 5D000000 		.4byte	0x5d
 12685 40c3 BA140000 		.4byte	.LLST126
 12686 40c7 31       		.uleb128 0x31
 12687 40c8 D6030000 		.4byte	.LASF779
 12688 40cc 01       		.byte	0x1
 12689 40cd 3B05     		.2byte	0x53b
 12690 40cf 5D000000 		.4byte	0x5d
 12691 40d3 F9140000 		.4byte	.LLST127
 12692 40d7 31       		.uleb128 0x31
 12693 40d8 A3050000 		.4byte	.LASF780
 12694 40dc 01       		.byte	0x1
 12695 40dd 3B05     		.2byte	0x53b
 12696 40df 5D000000 		.4byte	0x5d
ARM GAS  C:\Users\AHMED~1.ELE\AppData\Local\Temp\ccpjtoUe.s 			page 255


 12697 40e3 22150000 		.4byte	.LLST128
 12698 40e7 3B       		.uleb128 0x3b
 12699 40e8 0E1B0000 		.4byte	.LASF781
 12700 40ec 01       		.byte	0x1
 12701 40ed 3C05     		.2byte	0x53c
 12702 40ef 24010000 		.4byte	0x124
 12703 40f3 03       		.uleb128 0x3
 12704 40f4 91       		.byte	0x91
 12705 40f5 8C7F     		.sleb128 -116
 12706 40f7 30       		.uleb128 0x30
 12707 40f8 70747200 		.ascii	"ptr\000"
 12708 40fc 01       		.byte	0x1
 12709 40fd 3C05     		.2byte	0x53c
 12710 40ff DE000000 		.4byte	0xde
 12711 4103 4B150000 		.4byte	.LLST129
 12712 4107 31       		.uleb128 0x31
 12713 4108 170D0000 		.4byte	.LASF782
 12714 410c 01       		.byte	0x1
 12715 410d 3D05     		.2byte	0x53d
 12716 410f B8000000 		.4byte	0xb8
 12717 4113 7F150000 		.4byte	.LLST130
 12718 4117 38       		.uleb128 0x38
 12719 4118 D6000000 		.4byte	.LBB25
 12720 411c 32000000 		.4byte	.LBE25-.LBB25
 12721 4120 C4410000 		.4byte	0x41c4
 12722 4124 30       		.uleb128 0x30
 12723 4125 6C656E00 		.ascii	"len\000"
 12724 4129 01       		.byte	0x1
 12725 412a 4A05     		.2byte	0x54a
 12726 412c B8000000 		.4byte	0xb8
 12727 4130 9E150000 		.4byte	.LLST131
 12728 4134 30       		.uleb128 0x30
 12729 4135 70747200 		.ascii	"ptr\000"
 12730 4139 01       		.byte	0x1
 12731 413a 4A05     		.2byte	0x54a
 12732 413c DE000000 		.4byte	0xde
 12733 4140 B2150000 		.4byte	.LLST132
 12734 4144 32       		.uleb128 0x32
 12735 4145 DE000000 		.4byte	.LVL489
 12736 4149 63450000 		.4byte	0x4563
 12737 414d 5D410000 		.4byte	0x415d
 12738 4151 2D       		.uleb128 0x2d
 12739 4152 01       		.uleb128 0x1
 12740 4153 51       		.byte	0x51
 12741 4154 01       		.uleb128 0x1
 12742 4155 42       		.byte	0x42
 12743 4156 2D       		.uleb128 0x2d
 12744 4157 01       		.uleb128 0x1
 12745 4158 50       		.byte	0x50
 12746 4159 02       		.uleb128 0x2
 12747 415a 08       		.byte	0x8
 12748 415b 92       		.byte	0x92
 12749 415c 00       		.byte	0
 12750 415d 32       		.uleb128 0x32
 12751 415e EA000000 		.4byte	.LVL490
 12752 4162 E7440000 		.4byte	0x44e7
 12753 4166 7F410000 		.4byte	0x417f
ARM GAS  C:\Users\AHMED~1.ELE\AppData\Local\Temp\ccpjtoUe.s 			page 256


 12754 416a 2D       		.uleb128 0x2d
 12755 416b 01       		.uleb128 0x1
 12756 416c 52       		.byte	0x52
 12757 416d 01       		.uleb128 0x1
 12758 416e 41       		.byte	0x41
 12759 416f 2D       		.uleb128 0x2d
 12760 4170 01       		.uleb128 0x1
 12761 4171 51       		.byte	0x51
 12762 4172 05       		.uleb128 0x5
 12763 4173 03       		.byte	0x3
 12764 4174 FC010000 		.4byte	.LC47
 12765 4178 2D       		.uleb128 0x2d
 12766 4179 01       		.uleb128 0x1
 12767 417a 50       		.byte	0x50
 12768 417b 02       		.uleb128 0x2
 12769 417c 75       		.byte	0x75
 12770 417d 00       		.sleb128 0
 12771 417e 00       		.byte	0
 12772 417f 32       		.uleb128 0x32
 12773 4180 00010000 		.4byte	.LVL491
 12774 4184 95460000 		.4byte	0x4695
 12775 4188 AD410000 		.4byte	0x41ad
 12776 418c 2D       		.uleb128 0x2d
 12777 418d 01       		.uleb128 0x1
 12778 418e 53       		.byte	0x53
 12779 418f 03       		.uleb128 0x3
 12780 4190 0A       		.byte	0xa
 12781 4191 0005     		.2byte	0x500
 12782 4193 2D       		.uleb128 0x2d
 12783 4194 01       		.uleb128 0x1
 12784 4195 52       		.byte	0x52
 12785 4196 02       		.uleb128 0x2
 12786 4197 75       		.byte	0x75
 12787 4198 00       		.sleb128 0
 12788 4199 2D       		.uleb128 0x2d
 12789 419a 01       		.uleb128 0x1
 12790 419b 51       		.byte	0x51
 12791 419c 02       		.uleb128 0x2
 12792 419d 08       		.byte	0x8
 12793 419e 25       		.byte	0x25
 12794 419f 2D       		.uleb128 0x2d
 12795 41a0 01       		.uleb128 0x1
 12796 41a1 50       		.byte	0x50
 12797 41a2 01       		.uleb128 0x1
 12798 41a3 3F       		.byte	0x3f
 12799 41a4 2D       		.uleb128 0x2d
 12800 41a5 02       		.uleb128 0x2
 12801 41a6 7D       		.byte	0x7d
 12802 41a7 00       		.sleb128 0
 12803 41a8 03       		.uleb128 0x3
 12804 41a9 0A       		.byte	0xa
 12805 41aa 8220     		.2byte	0x2082
 12806 41ac 00       		.byte	0
 12807 41ad 2C       		.uleb128 0x2c
 12808 41ae 08010000 		.4byte	.LVL492
 12809 41b2 63450000 		.4byte	0x4563
 12810 41b6 2D       		.uleb128 0x2d
ARM GAS  C:\Users\AHMED~1.ELE\AppData\Local\Temp\ccpjtoUe.s 			page 257


 12811 41b7 01       		.uleb128 0x1
 12812 41b8 51       		.byte	0x51
 12813 41b9 02       		.uleb128 0x2
 12814 41ba 75       		.byte	0x75
 12815 41bb 00       		.sleb128 0
 12816 41bc 2D       		.uleb128 0x2d
 12817 41bd 01       		.uleb128 0x1
 12818 41be 50       		.byte	0x50
 12819 41bf 02       		.uleb128 0x2
 12820 41c0 08       		.byte	0x8
 12821 41c1 94       		.byte	0x94
 12822 41c2 00       		.byte	0
 12823 41c3 00       		.byte	0
 12824 41c4 32       		.uleb128 0x32
 12825 41c5 0E000000 		.4byte	.LVL448
 12826 41c9 19480000 		.4byte	0x4819
 12827 41cd E2410000 		.4byte	0x41e2
 12828 41d1 2D       		.uleb128 0x2d
 12829 41d2 01       		.uleb128 0x1
 12830 41d3 51       		.byte	0x51
 12831 41d4 05       		.uleb128 0x5
 12832 41d5 03       		.byte	0x3
 12833 41d6 F5010000 		.4byte	.LC46
 12834 41da 2D       		.uleb128 0x2d
 12835 41db 01       		.uleb128 0x1
 12836 41dc 50       		.byte	0x50
 12837 41dd 03       		.uleb128 0x3
 12838 41de 91       		.byte	0x91
 12839 41df 8C7F     		.sleb128 -116
 12840 41e1 00       		.byte	0
 12841 41e2 32       		.uleb128 0x32
 12842 41e3 18000000 		.4byte	.LVL450
 12843 41e7 33480000 		.4byte	0x4833
 12844 41eb FD410000 		.4byte	0x41fd
 12845 41ef 2D       		.uleb128 0x2d
 12846 41f0 01       		.uleb128 0x1
 12847 41f1 52       		.byte	0x52
 12848 41f2 03       		.uleb128 0x3
 12849 41f3 91       		.byte	0x91
 12850 41f4 AC7F     		.sleb128 -84
 12851 41f6 2D       		.uleb128 0x2d
 12852 41f7 01       		.uleb128 0x1
 12853 41f8 50       		.byte	0x50
 12854 41f9 02       		.uleb128 0x2
 12855 41fa 08       		.byte	0x8
 12856 41fb A5       		.byte	0xa5
 12857 41fc 00       		.byte	0
 12858 41fd 32       		.uleb128 0x32
 12859 41fe 28000000 		.4byte	.LVL452
 12860 4202 52480000 		.4byte	0x4852
 12861 4206 1D420000 		.4byte	0x421d
 12862 420a 2D       		.uleb128 0x2d
 12863 420b 01       		.uleb128 0x1
 12864 420c 52       		.byte	0x52
 12865 420d 01       		.uleb128 0x1
 12866 420e 36       		.byte	0x36
 12867 420f 2D       		.uleb128 0x2d
ARM GAS  C:\Users\AHMED~1.ELE\AppData\Local\Temp\ccpjtoUe.s 			page 258


 12868 4210 01       		.uleb128 0x1
 12869 4211 51       		.byte	0x51
 12870 4212 02       		.uleb128 0x2
 12871 4213 74       		.byte	0x74
 12872 4214 00       		.sleb128 0
 12873 4215 2D       		.uleb128 0x2d
 12874 4216 01       		.uleb128 0x1
 12875 4217 50       		.byte	0x50
 12876 4218 03       		.uleb128 0x3
 12877 4219 91       		.byte	0x91
 12878 421a 8C7F     		.sleb128 -116
 12879 421c 00       		.byte	0
 12880 421d 32       		.uleb128 0x32
 12881 421e 3A000000 		.4byte	.LVL453
 12882 4222 19480000 		.4byte	0x4819
 12883 4226 38420000 		.4byte	0x4238
 12884 422a 2D       		.uleb128 0x2d
 12885 422b 01       		.uleb128 0x1
 12886 422c 51       		.byte	0x51
 12887 422d 02       		.uleb128 0x2
 12888 422e 74       		.byte	0x74
 12889 422f 14       		.sleb128 20
 12890 4230 2D       		.uleb128 0x2d
 12891 4231 01       		.uleb128 0x1
 12892 4232 50       		.byte	0x50
 12893 4233 03       		.uleb128 0x3
 12894 4234 91       		.byte	0x91
 12895 4235 8C7F     		.sleb128 -116
 12896 4237 00       		.byte	0
 12897 4238 32       		.uleb128 0x32
 12898 4239 42000000 		.4byte	.LVL454
 12899 423d 71480000 		.4byte	0x4871
 12900 4241 53420000 		.4byte	0x4253
 12901 4245 2D       		.uleb128 0x2d
 12902 4246 01       		.uleb128 0x1
 12903 4247 51       		.byte	0x51
 12904 4248 02       		.uleb128 0x2
 12905 4249 74       		.byte	0x74
 12906 424a 00       		.sleb128 0
 12907 424b 2D       		.uleb128 0x2d
 12908 424c 01       		.uleb128 0x1
 12909 424d 50       		.byte	0x50
 12910 424e 03       		.uleb128 0x3
 12911 424f 91       		.byte	0x91
 12912 4250 8C7F     		.sleb128 -116
 12913 4252 00       		.byte	0
 12914 4253 32       		.uleb128 0x32
 12915 4254 4C000000 		.4byte	.LVL455
 12916 4258 33480000 		.4byte	0x4833
 12917 425c 74420000 		.4byte	0x4274
 12918 4260 2D       		.uleb128 0x2d
 12919 4261 01       		.uleb128 0x1
 12920 4262 52       		.byte	0x52
 12921 4263 02       		.uleb128 0x2
 12922 4264 76       		.byte	0x76
 12923 4265 00       		.sleb128 0
 12924 4266 2D       		.uleb128 0x2d
ARM GAS  C:\Users\AHMED~1.ELE\AppData\Local\Temp\ccpjtoUe.s 			page 259


 12925 4267 01       		.uleb128 0x1
 12926 4268 51       		.byte	0x51
 12927 4269 03       		.uleb128 0x3
 12928 426a 91       		.byte	0x91
 12929 426b 8C7F     		.sleb128 -116
 12930 426d 2D       		.uleb128 0x2d
 12931 426e 01       		.uleb128 0x1
 12932 426f 50       		.byte	0x50
 12933 4270 02       		.uleb128 0x2
 12934 4271 08       		.byte	0x8
 12935 4272 96       		.byte	0x96
 12936 4273 00       		.byte	0
 12937 4274 32       		.uleb128 0x32
 12938 4275 56000000 		.4byte	.LVL458
 12939 4279 63450000 		.4byte	0x4563
 12940 427d 8E420000 		.4byte	0x428e
 12941 4281 2D       		.uleb128 0x2d
 12942 4282 01       		.uleb128 0x1
 12943 4283 51       		.byte	0x51
 12944 4284 02       		.uleb128 0x2
 12945 4285 74       		.byte	0x74
 12946 4286 00       		.sleb128 0
 12947 4287 2D       		.uleb128 0x2d
 12948 4288 01       		.uleb128 0x1
 12949 4289 50       		.byte	0x50
 12950 428a 02       		.uleb128 0x2
 12951 428b 08       		.byte	0x8
 12952 428c A2       		.byte	0xa2
 12953 428d 00       		.byte	0
 12954 428e 32       		.uleb128 0x32
 12955 428f 6C000000 		.4byte	.LVL463
 12956 4293 63450000 		.4byte	0x4563
 12957 4297 A8420000 		.4byte	0x42a8
 12958 429b 2D       		.uleb128 0x2d
 12959 429c 01       		.uleb128 0x1
 12960 429d 51       		.byte	0x51
 12961 429e 02       		.uleb128 0x2
 12962 429f 77       		.byte	0x77
 12963 42a0 00       		.sleb128 0
 12964 42a1 2D       		.uleb128 0x2d
 12965 42a2 01       		.uleb128 0x1
 12966 42a3 50       		.byte	0x50
 12967 42a4 02       		.uleb128 0x2
 12968 42a5 08       		.byte	0x8
 12969 42a6 92       		.byte	0x92
 12970 42a7 00       		.byte	0
 12971 42a8 32       		.uleb128 0x32
 12972 42a9 82000000 		.4byte	.LVL467
 12973 42ad 8B480000 		.4byte	0x488b
 12974 42b1 CE420000 		.4byte	0x42ce
 12975 42b5 2D       		.uleb128 0x2d
 12976 42b6 01       		.uleb128 0x1
 12977 42b7 53       		.byte	0x53
 12978 42b8 02       		.uleb128 0x2
 12979 42b9 77       		.byte	0x77
 12980 42ba 00       		.sleb128 0
 12981 42bb 2D       		.uleb128 0x2d
ARM GAS  C:\Users\AHMED~1.ELE\AppData\Local\Temp\ccpjtoUe.s 			page 260


 12982 42bc 01       		.uleb128 0x1
 12983 42bd 52       		.byte	0x52
 12984 42be 02       		.uleb128 0x2
 12985 42bf 75       		.byte	0x75
 12986 42c0 00       		.sleb128 0
 12987 42c1 2D       		.uleb128 0x2d
 12988 42c2 01       		.uleb128 0x1
 12989 42c3 51       		.byte	0x51
 12990 42c4 02       		.uleb128 0x2
 12991 42c5 74       		.byte	0x74
 12992 42c6 00       		.sleb128 0
 12993 42c7 2D       		.uleb128 0x2d
 12994 42c8 01       		.uleb128 0x1
 12995 42c9 50       		.byte	0x50
 12996 42ca 02       		.uleb128 0x2
 12997 42cb 08       		.byte	0x8
 12998 42cc 9E       		.byte	0x9e
 12999 42cd 00       		.byte	0
 13000 42ce 32       		.uleb128 0x32
 13001 42cf 8C000000 		.4byte	.LVL470
 13002 42d3 63450000 		.4byte	0x4563
 13003 42d7 E8420000 		.4byte	0x42e8
 13004 42db 2D       		.uleb128 0x2d
 13005 42dc 01       		.uleb128 0x1
 13006 42dd 51       		.byte	0x51
 13007 42de 02       		.uleb128 0x2
 13008 42df 74       		.byte	0x74
 13009 42e0 00       		.sleb128 0
 13010 42e1 2D       		.uleb128 0x2d
 13011 42e2 01       		.uleb128 0x1
 13012 42e3 50       		.byte	0x50
 13013 42e4 02       		.uleb128 0x2
 13014 42e5 08       		.byte	0x8
 13015 42e6 98       		.byte	0x98
 13016 42e7 00       		.byte	0
 13017 42e8 33       		.uleb128 0x33
 13018 42e9 98000000 		.4byte	.LVL473
 13019 42ed 63450000 		.4byte	0x4563
 13020 42f1 33       		.uleb128 0x33
 13021 42f2 9E000000 		.4byte	.LVL475
 13022 42f6 AF480000 		.4byte	0x48af
 13023 42fa 33       		.uleb128 0x33
 13024 42fb A2000000 		.4byte	.LVL476
 13025 42ff B6480000 		.4byte	0x48b6
 13026 4303 32       		.uleb128 0x32
 13027 4304 A8000000 		.4byte	.LVL477
 13028 4308 FC3A0000 		.4byte	0x3afc
 13029 430c 17430000 		.4byte	0x4317
 13030 4310 2D       		.uleb128 0x2d
 13031 4311 01       		.uleb128 0x1
 13032 4312 50       		.byte	0x50
 13033 4313 02       		.uleb128 0x2
 13034 4314 75       		.byte	0x75
 13035 4315 00       		.sleb128 0
 13036 4316 00       		.byte	0
 13037 4317 33       		.uleb128 0x33
 13038 4318 B2000000 		.4byte	.LVL479
ARM GAS  C:\Users\AHMED~1.ELE\AppData\Local\Temp\ccpjtoUe.s 			page 261


 13039 431c BD480000 		.4byte	0x48bd
 13040 4320 33       		.uleb128 0x33
 13041 4321 B6000000 		.4byte	.LVL480
 13042 4325 C4480000 		.4byte	0x48c4
 13043 4329 33       		.uleb128 0x33
 13044 432a BA000000 		.4byte	.LVL481
 13045 432e CB480000 		.4byte	0x48cb
 13046 4332 33       		.uleb128 0x33
 13047 4333 BE000000 		.4byte	.LVL482
 13048 4337 D2480000 		.4byte	0x48d2
 13049 433b 33       		.uleb128 0x33
 13050 433c C2000000 		.4byte	.LVL483
 13051 4340 D9480000 		.4byte	0x48d9
 13052 4344 32       		.uleb128 0x32
 13053 4345 CA000000 		.4byte	.LVL484
 13054 4349 63450000 		.4byte	0x4563
 13055 434d 5E430000 		.4byte	0x435e
 13056 4351 2D       		.uleb128 0x2d
 13057 4352 01       		.uleb128 0x1
 13058 4353 51       		.byte	0x51
 13059 4354 02       		.uleb128 0x2
 13060 4355 75       		.byte	0x75
 13061 4356 00       		.sleb128 0
 13062 4357 2D       		.uleb128 0x2d
 13063 4358 01       		.uleb128 0x1
 13064 4359 50       		.byte	0x50
 13065 435a 02       		.uleb128 0x2
 13066 435b 08       		.byte	0x8
 13067 435c 94       		.byte	0x94
 13068 435d 00       		.byte	0
 13069 435e 33       		.uleb128 0x33
 13070 435f D0000000 		.4byte	.LVL485
 13071 4363 CB480000 		.4byte	0x48cb
 13072 4367 33       		.uleb128 0x33
 13073 4368 D4000000 		.4byte	.LVL486
 13074 436c D9480000 		.4byte	0x48d9
 13075 4370 2C       		.uleb128 0x2c
 13076 4371 10010000 		.4byte	.LVL493
 13077 4375 D2470000 		.4byte	0x47d2
 13078 4379 2D       		.uleb128 0x2d
 13079 437a 01       		.uleb128 0x1
 13080 437b 50       		.byte	0x50
 13081 437c 03       		.uleb128 0x3
 13082 437d 0A       		.byte	0xa
 13083 437e 2823     		.2byte	0x2328
 13084 4380 00       		.byte	0
 13085 4381 00       		.byte	0
 13086 4382 06       		.uleb128 0x6
 13087 4383 04       		.byte	0x4
 13088 4384 B40E0000 		.4byte	0xeb4
 13089 4388 3E       		.uleb128 0x3e
 13090 4389 97020000 		.4byte	.LASF783
 13091 438d 01       		.byte	0x1
 13092 438e E0       		.byte	0xe0
 13093 438f A2000000 		.4byte	0xa2
 13094 4393 05       		.uleb128 0x5
 13095 4394 03       		.byte	0x3
ARM GAS  C:\Users\AHMED~1.ELE\AppData\Local\Temp\ccpjtoUe.s 			page 262


 13096 4395 00000000 		.4byte	gCardIdx
 13097 4399 08       		.uleb128 0x8
 13098 439a 8C000000 		.4byte	0x8c
 13099 439e A4430000 		.4byte	0x43a4
 13100 43a2 3F       		.uleb128 0x3f
 13101 43a3 00       		.byte	0
 13102 43a4 40       		.uleb128 0x40
 13103 43a5 E31B0000 		.4byte	.LASF784
 13104 43a9 0A       		.byte	0xa
 13105 43aa 37       		.byte	0x37
 13106 43ab 99430000 		.4byte	0x4399
 13107 43af 08       		.uleb128 0x8
 13108 43b0 B2190000 		.4byte	0x19b2
 13109 43b4 BF430000 		.4byte	0x43bf
 13110 43b8 09       		.uleb128 0x9
 13111 43b9 78000000 		.4byte	0x78
 13112 43bd 1E       		.byte	0x1e
 13113 43be 00       		.byte	0
 13114 43bf 41       		.uleb128 0x41
 13115 43c0 07290000 		.4byte	.LASF785
 13116 43c4 01       		.byte	0x1
 13117 43c5 58       		.byte	0x58
 13118 43c6 D0430000 		.4byte	0x43d0
 13119 43ca 05       		.uleb128 0x5
 13120 43cb 03       		.byte	0x3
 13121 43cc 00000000 		.4byte	TermCfgParam
 13122 43d0 07       		.uleb128 0x7
 13123 43d1 AF430000 		.4byte	0x43af
 13124 43d5 08       		.uleb128 0x8
 13125 43d6 B2190000 		.4byte	0x19b2
 13126 43da E5430000 		.4byte	0x43e5
 13127 43de 09       		.uleb128 0x9
 13128 43df 78000000 		.4byte	0x78
 13129 43e3 1A       		.byte	0x1a
 13130 43e4 00       		.byte	0
 13131 43e5 41       		.uleb128 0x41
 13132 43e6 110F0000 		.4byte	.LASF786
 13133 43ea 01       		.byte	0x1
 13134 43eb 7A       		.byte	0x7a
 13135 43ec F6430000 		.4byte	0x43f6
 13136 43f0 05       		.uleb128 0x5
 13137 43f1 03       		.byte	0x3
 13138 43f2 00000000 		.4byte	AcqTableParam
 13139 43f6 07       		.uleb128 0x7
 13140 43f7 D5430000 		.4byte	0x43d5
 13141 43fb 08       		.uleb128 0x8
 13142 43fc B2190000 		.4byte	0x19b2
 13143 4400 0B440000 		.4byte	0x440b
 13144 4404 09       		.uleb128 0x9
 13145 4405 78000000 		.4byte	0x78
 13146 4409 08       		.byte	0x8
 13147 440a 00       		.byte	0
 13148 440b 41       		.uleb128 0x41
 13149 440c 6C2F0000 		.4byte	.LASF787
 13150 4410 01       		.byte	0x1
 13151 4411 A1       		.byte	0xa1
 13152 4412 1C440000 		.4byte	0x441c
ARM GAS  C:\Users\AHMED~1.ELE\AppData\Local\Temp\ccpjtoUe.s 			page 263


 13153 4416 05       		.uleb128 0x5
 13154 4417 03       		.byte	0x3
 13155 4418 00000000 		.4byte	IssuerTableParam
 13156 441c 07       		.uleb128 0x7
 13157 441d FB430000 		.4byte	0x43fb
 13158 4421 08       		.uleb128 0x8
 13159 4422 B2190000 		.4byte	0x19b2
 13160 4426 31440000 		.4byte	0x4431
 13161 442a 09       		.uleb128 0x9
 13162 442b 78000000 		.4byte	0x78
 13163 442f 06       		.byte	0x6
 13164 4430 00       		.byte	0
 13165 4431 41       		.uleb128 0x41
 13166 4432 5C050000 		.4byte	.LASF788
 13167 4436 01       		.byte	0x1
 13168 4437 AD       		.byte	0xad
 13169 4438 42440000 		.4byte	0x4442
 13170 443c 05       		.uleb128 0x5
 13171 443d 03       		.byte	0x3
 13172 443e 00000000 		.4byte	CardTableParam
 13173 4442 07       		.uleb128 0x7
 13174 4443 21440000 		.4byte	0x4421
 13175 4447 08       		.uleb128 0x8
 13176 4448 B2190000 		.4byte	0x19b2
 13177 444c 57440000 		.4byte	0x4457
 13178 4450 09       		.uleb128 0x9
 13179 4451 78000000 		.4byte	0x78
 13180 4455 09       		.byte	0x9
 13181 4456 00       		.byte	0
 13182 4457 41       		.uleb128 0x41
 13183 4458 84270000 		.4byte	.LASF789
 13184 445c 01       		.byte	0x1
 13185 445d B7       		.byte	0xb7
 13186 445e 68440000 		.4byte	0x4468
 13187 4462 05       		.uleb128 0x5
 13188 4463 03       		.byte	0x3
 13189 4464 00000000 		.4byte	EmvAppParam
 13190 4468 07       		.uleb128 0x7
 13191 4469 47440000 		.4byte	0x4447
 13192 446d 41       		.uleb128 0x41
 13193 446e 58330000 		.4byte	.LASF790
 13194 4472 01       		.byte	0x1
 13195 4473 C4       		.byte	0xc4
 13196 4474 7E440000 		.4byte	0x447e
 13197 4478 05       		.uleb128 0x5
 13198 4479 03       		.byte	0x3
 13199 447a 00000000 		.4byte	CtlAppParam
 13200 447e 07       		.uleb128 0x7
 13201 447f 47440000 		.4byte	0x4447
 13202 4483 41       		.uleb128 0x41
 13203 4484 1C040000 		.4byte	.LASF791
 13204 4488 01       		.byte	0x1
 13205 4489 D1       		.byte	0xd1
 13206 448a 94440000 		.4byte	0x4494
 13207 448e 05       		.uleb128 0x5
 13208 448f 03       		.byte	0x3
 13209 4490 00000000 		.4byte	EmvKeyParam
ARM GAS  C:\Users\AHMED~1.ELE\AppData\Local\Temp\ccpjtoUe.s 			page 264


 13210 4494 07       		.uleb128 0x7
 13211 4495 FB430000 		.4byte	0x43fb
 13212 4499 42       		.uleb128 0x42
 13213 449a 3C110000 		.4byte	.LASF792
 13214 449e 0B       		.byte	0xb
 13215 449f 1C       		.byte	0x1c
 13216 44a0 5D000000 		.4byte	0x5d
 13217 44a4 B3440000 		.4byte	0x44b3
 13218 44a8 20       		.uleb128 0x20
 13219 44a9 8C000000 		.4byte	0x8c
 13220 44ad 20       		.uleb128 0x20
 13221 44ae 8C000000 		.4byte	0x8c
 13222 44b2 00       		.byte	0
 13223 44b3 42       		.uleb128 0x42
 13224 44b4 402D0000 		.4byte	.LASF793
 13225 44b8 0B       		.byte	0xb
 13226 44b9 21       		.byte	0x21
 13227 44ba 6B000000 		.4byte	0x6b
 13228 44be C8440000 		.4byte	0x44c8
 13229 44c2 20       		.uleb128 0x20
 13230 44c3 8C000000 		.4byte	0x8c
 13231 44c7 00       		.byte	0
 13232 44c8 42       		.uleb128 0x42
 13233 44c9 16270000 		.4byte	.LASF794
 13234 44cd 0B       		.byte	0xb
 13235 44ce 19       		.byte	0x19
 13236 44cf 76000000 		.4byte	0x76
 13237 44d3 E7440000 		.4byte	0x44e7
 13238 44d7 20       		.uleb128 0x20
 13239 44d8 76000000 		.4byte	0x76
 13240 44dc 20       		.uleb128 0x20
 13241 44dd 5D000000 		.4byte	0x5d
 13242 44e1 20       		.uleb128 0x20
 13243 44e2 6B000000 		.4byte	0x6b
 13244 44e6 00       		.byte	0
 13245 44e7 43       		.uleb128 0x43
 13246 44e8 C32D0000 		.4byte	.LASF796
 13247 44ec 76000000 		.4byte	0x76
 13248 44f0 04450000 		.4byte	0x4504
 13249 44f4 20       		.uleb128 0x20
 13250 44f5 76000000 		.4byte	0x76
 13251 44f9 20       		.uleb128 0x20
 13252 44fa C00E0000 		.4byte	0xec0
 13253 44fe 20       		.uleb128 0x20
 13254 44ff 78000000 		.4byte	0x78
 13255 4503 00       		.byte	0
 13256 4504 42       		.uleb128 0x42
 13257 4505 62070000 		.4byte	.LASF795
 13258 4509 0C       		.byte	0xc
 13259 450a 49       		.byte	0x49
 13260 450b 5D000000 		.4byte	0x5d
 13261 450f 19450000 		.4byte	0x4519
 13262 4513 20       		.uleb128 0x20
 13263 4514 8C000000 		.4byte	0x8c
 13264 4518 00       		.byte	0
 13265 4519 44       		.uleb128 0x44
 13266 451a F71C0000 		.4byte	.LASF797
ARM GAS  C:\Users\AHMED~1.ELE\AppData\Local\Temp\ccpjtoUe.s 			page 265


 13267 451e 0D       		.byte	0xd
 13268 451f 28       		.byte	0x28
 13269 4520 34450000 		.4byte	0x4534
 13270 4524 20       		.uleb128 0x20
 13271 4525 DE000000 		.4byte	0xde
 13272 4529 20       		.uleb128 0x20
 13273 452a DE000000 		.4byte	0xde
 13274 452e 20       		.uleb128 0x20
 13275 452f B8000000 		.4byte	0xb8
 13276 4533 00       		.byte	0
 13277 4534 42       		.uleb128 0x42
 13278 4535 A7210000 		.4byte	.LASF798
 13279 4539 0D       		.byte	0xd
 13280 453a 34       		.byte	0x34
 13281 453b B8000000 		.4byte	0xb8
 13282 453f 49450000 		.4byte	0x4549
 13283 4543 20       		.uleb128 0x20
 13284 4544 B8000000 		.4byte	0xb8
 13285 4548 00       		.byte	0
 13286 4549 42       		.uleb128 0x42
 13287 454a 8E020000 		.4byte	.LASF799
 13288 454e 0D       		.byte	0xd
 13289 454f 5B       		.byte	0x5b
 13290 4550 56000000 		.4byte	0x56
 13291 4554 63450000 		.4byte	0x4563
 13292 4558 20       		.uleb128 0x20
 13293 4559 DE000000 		.4byte	0xde
 13294 455d 20       		.uleb128 0x20
 13295 455e B8000000 		.4byte	0xb8
 13296 4562 00       		.byte	0
 13297 4563 42       		.uleb128 0x42
 13298 4564 B3280000 		.4byte	.LASF800
 13299 4568 04       		.byte	0x4
 13300 4569 A2       		.byte	0xa2
 13301 456a B8000000 		.4byte	0xb8
 13302 456e 7D450000 		.4byte	0x457d
 13303 4572 20       		.uleb128 0x20
 13304 4573 B8000000 		.4byte	0xb8
 13305 4577 20       		.uleb128 0x20
 13306 4578 B8000000 		.4byte	0xb8
 13307 457c 00       		.byte	0
 13308 457d 43       		.uleb128 0x43
 13309 457e 16270000 		.4byte	.LASF794
 13310 4582 76000000 		.4byte	0x76
 13311 4586 9A450000 		.4byte	0x459a
 13312 458a 20       		.uleb128 0x20
 13313 458b 76000000 		.4byte	0x76
 13314 458f 20       		.uleb128 0x20
 13315 4590 5D000000 		.4byte	0x5d
 13316 4594 20       		.uleb128 0x20
 13317 4595 78000000 		.4byte	0x78
 13318 4599 00       		.byte	0
 13319 459a 45       		.uleb128 0x45
 13320 459b 47160000 		.4byte	.LASF801
 13321 459f 09       		.byte	0x9
 13322 45a0 3101     		.2byte	0x131
 13323 45a2 37190000 		.4byte	0x1937
ARM GAS  C:\Users\AHMED~1.ELE\AppData\Local\Temp\ccpjtoUe.s 			page 266


 13324 45a6 BA450000 		.4byte	0x45ba
 13325 45aa 20       		.uleb128 0x20
 13326 45ab 37190000 		.4byte	0x1937
 13327 45af 20       		.uleb128 0x20
 13328 45b0 37190000 		.4byte	0x1937
 13329 45b4 20       		.uleb128 0x20
 13330 45b5 5D000000 		.4byte	0x5d
 13331 45b9 00       		.byte	0
 13332 45ba 42       		.uleb128 0x42
 13333 45bb F1020000 		.4byte	.LASF802
 13334 45bf 09       		.byte	0x9
 13335 45c0 E7       		.byte	0xe7
 13336 45c1 8C000000 		.4byte	0x8c
 13337 45c5 D4450000 		.4byte	0x45d4
 13338 45c9 20       		.uleb128 0x20
 13339 45ca 37190000 		.4byte	0x1937
 13340 45ce 20       		.uleb128 0x20
 13341 45cf D4450000 		.4byte	0x45d4
 13342 45d3 00       		.byte	0
 13343 45d4 06       		.uleb128 0x6
 13344 45d5 04       		.byte	0x4
 13345 45d6 5D000000 		.4byte	0x5d
 13346 45da 42       		.uleb128 0x42
 13347 45db 1D260000 		.4byte	.LASF803
 13348 45df 0E       		.byte	0xe
 13349 45e0 A8       		.byte	0xa8
 13350 45e1 97000000 		.4byte	0x97
 13351 45e5 EF450000 		.4byte	0x45ef
 13352 45e9 20       		.uleb128 0x20
 13353 45ea F0240000 		.4byte	0x24f0
 13354 45ee 00       		.byte	0
 13355 45ef 42       		.uleb128 0x42
 13356 45f0 1F100000 		.4byte	.LASF804
 13357 45f4 0E       		.byte	0xe
 13358 45f5 AB       		.byte	0xab
 13359 45f6 97000000 		.4byte	0x97
 13360 45fa 09460000 		.4byte	0x4609
 13361 45fe 20       		.uleb128 0x20
 13362 45ff B8000000 		.4byte	0xb8
 13363 4603 20       		.uleb128 0x20
 13364 4604 12270000 		.4byte	0x2712
 13365 4608 00       		.byte	0
 13366 4609 42       		.uleb128 0x42
 13367 460a 29100000 		.4byte	.LASF805
 13368 460e 0E       		.byte	0xe
 13369 460f AA       		.byte	0xaa
 13370 4610 97000000 		.4byte	0x97
 13371 4614 23460000 		.4byte	0x4623
 13372 4618 20       		.uleb128 0x20
 13373 4619 B8000000 		.4byte	0xb8
 13374 461d 20       		.uleb128 0x20
 13375 461e B8280000 		.4byte	0x28b8
 13376 4622 00       		.byte	0
 13377 4623 42       		.uleb128 0x42
 13378 4624 1E240000 		.4byte	.LASF806
 13379 4628 0E       		.byte	0xe
 13380 4629 A9       		.byte	0xa9
ARM GAS  C:\Users\AHMED~1.ELE\AppData\Local\Temp\ccpjtoUe.s 			page 267


 13381 462a 97000000 		.4byte	0x97
 13382 462e 3D460000 		.4byte	0x463d
 13383 4632 20       		.uleb128 0x20
 13384 4633 B8000000 		.4byte	0xb8
 13385 4637 20       		.uleb128 0x20
 13386 4638 5E2A0000 		.4byte	0x2a5e
 13387 463c 00       		.byte	0
 13388 463d 44       		.uleb128 0x44
 13389 463e 53000000 		.4byte	.LASF807
 13390 4642 0F       		.byte	0xf
 13391 4643 3C       		.byte	0x3c
 13392 4644 4E460000 		.4byte	0x464e
 13393 4648 20       		.uleb128 0x20
 13394 4649 A2000000 		.4byte	0xa2
 13395 464d 00       		.byte	0
 13396 464e 44       		.uleb128 0x44
 13397 464f 39040000 		.4byte	.LASF808
 13398 4653 0F       		.byte	0xf
 13399 4654 40       		.byte	0x40
 13400 4655 69460000 		.4byte	0x4669
 13401 4659 20       		.uleb128 0x20
 13402 465a A2000000 		.4byte	0xa2
 13403 465e 20       		.uleb128 0x20
 13404 465f DE000000 		.4byte	0xde
 13405 4663 20       		.uleb128 0x20
 13406 4664 AD000000 		.4byte	0xad
 13407 4668 00       		.byte	0
 13408 4669 44       		.uleb128 0x44
 13409 466a 751B0000 		.4byte	.LASF809
 13410 466e 10       		.byte	0x10
 13411 466f 35       		.byte	0x35
 13412 4670 7A460000 		.4byte	0x467a
 13413 4674 20       		.uleb128 0x20
 13414 4675 A2000000 		.4byte	0xa2
 13415 4679 00       		.byte	0
 13416 467a 44       		.uleb128 0x44
 13417 467b B90D0000 		.4byte	.LASF810
 13418 467f 10       		.byte	0x10
 13419 4680 39       		.byte	0x39
 13420 4681 95460000 		.4byte	0x4695
 13421 4685 20       		.uleb128 0x20
 13422 4686 A2000000 		.4byte	0xa2
 13423 468a 20       		.uleb128 0x20
 13424 468b DE000000 		.4byte	0xde
 13425 468f 20       		.uleb128 0x20
 13426 4690 AD000000 		.4byte	0xad
 13427 4694 00       		.byte	0
 13428 4695 42       		.uleb128 0x42
 13429 4696 C00C0000 		.4byte	.LASF811
 13430 469a 04       		.byte	0x4
 13431 469b A0       		.byte	0xa0
 13432 469c B8000000 		.4byte	0xb8
 13433 46a0 BE460000 		.4byte	0x46be
 13434 46a4 20       		.uleb128 0x20
 13435 46a5 B8000000 		.4byte	0xb8
 13436 46a9 20       		.uleb128 0x20
 13437 46aa B8000000 		.4byte	0xb8
ARM GAS  C:\Users\AHMED~1.ELE\AppData\Local\Temp\ccpjtoUe.s 			page 268


 13438 46ae 20       		.uleb128 0x20
 13439 46af B8000000 		.4byte	0xb8
 13440 46b3 20       		.uleb128 0x20
 13441 46b4 B8000000 		.4byte	0xb8
 13442 46b8 20       		.uleb128 0x20
 13443 46b9 B8000000 		.4byte	0xb8
 13444 46bd 00       		.byte	0
 13445 46be 42       		.uleb128 0x42
 13446 46bf B22A0000 		.4byte	.LASF812
 13447 46c3 0E       		.byte	0xe
 13448 46c4 BF       		.byte	0xbf
 13449 46c5 97000000 		.4byte	0x97
 13450 46c9 D3460000 		.4byte	0x46d3
 13451 46cd 20       		.uleb128 0x20
 13452 46ce F0240000 		.4byte	0x24f0
 13453 46d2 00       		.byte	0
 13454 46d3 42       		.uleb128 0x42
 13455 46d4 BA1D0000 		.4byte	.LASF813
 13456 46d8 04       		.byte	0x4
 13457 46d9 A1       		.byte	0xa1
 13458 46da B8000000 		.4byte	0xb8
 13459 46de E8460000 		.4byte	0x46e8
 13460 46e2 20       		.uleb128 0x20
 13461 46e3 B8000000 		.4byte	0xb8
 13462 46e7 00       		.byte	0
 13463 46e8 42       		.uleb128 0x42
 13464 46e9 D4180000 		.4byte	.LASF814
 13465 46ed 11       		.byte	0x11
 13466 46ee DD       		.byte	0xdd
 13467 46ef 5D000000 		.4byte	0x5d
 13468 46f3 03470000 		.4byte	0x4703
 13469 46f7 20       		.uleb128 0x20
 13470 46f8 7F000000 		.4byte	0x7f
 13471 46fc 20       		.uleb128 0x20
 13472 46fd 8C000000 		.4byte	0x8c
 13473 4701 46       		.uleb128 0x46
 13474 4702 00       		.byte	0
 13475 4703 42       		.uleb128 0x42
 13476 4704 0D170000 		.4byte	.LASF815
 13477 4708 0A       		.byte	0xa
 13478 4709 66       		.byte	0x66
 13479 470a 85000000 		.4byte	0x85
 13480 470e 22470000 		.4byte	0x4722
 13481 4712 20       		.uleb128 0x20
 13482 4713 8C000000 		.4byte	0x8c
 13483 4717 20       		.uleb128 0x20
 13484 4718 22470000 		.4byte	0x4722
 13485 471c 20       		.uleb128 0x20
 13486 471d B8000000 		.4byte	0xb8
 13487 4721 00       		.byte	0
 13488 4722 06       		.uleb128 0x6
 13489 4723 04       		.byte	0x4
 13490 4724 8C000000 		.4byte	0x8c
 13491 4728 47       		.uleb128 0x47
 13492 4729 692B0000 		.4byte	.LASF817
 13493 472d 12       		.byte	0x12
 13494 472e 00       		.byte	0
ARM GAS  C:\Users\AHMED~1.ELE\AppData\Local\Temp\ccpjtoUe.s 			page 269


 13495 472f AA160000 		.4byte	.LASF829
 13496 4733 7F000000 		.4byte	0x7f
 13497 4737 46470000 		.4byte	0x4746
 13498 473b 20       		.uleb128 0x20
 13499 473c 7F000000 		.4byte	0x7f
 13500 4740 20       		.uleb128 0x20
 13501 4741 8C000000 		.4byte	0x8c
 13502 4745 00       		.byte	0
 13503 4746 44       		.uleb128 0x44
 13504 4747 4F020000 		.4byte	.LASF818
 13505 474b 13       		.byte	0x13
 13506 474c 49       		.byte	0x49
 13507 474d 66470000 		.4byte	0x4766
 13508 4751 20       		.uleb128 0x20
 13509 4752 8C000000 		.4byte	0x8c
 13510 4756 20       		.uleb128 0x20
 13511 4757 8C000000 		.4byte	0x8c
 13512 475b 20       		.uleb128 0x20
 13513 475c 8C000000 		.4byte	0x8c
 13514 4760 20       		.uleb128 0x20
 13515 4761 8C000000 		.4byte	0x8c
 13516 4765 00       		.byte	0
 13517 4766 42       		.uleb128 0x42
 13518 4767 730B0000 		.4byte	.LASF819
 13519 476b 09       		.byte	0x9
 13520 476c F7       		.byte	0xf7
 13521 476d 37190000 		.4byte	0x1937
 13522 4771 85470000 		.4byte	0x4785
 13523 4775 20       		.uleb128 0x20
 13524 4776 37190000 		.4byte	0x1937
 13525 477a 20       		.uleb128 0x20
 13526 477b 8C000000 		.4byte	0x8c
 13527 477f 20       		.uleb128 0x20
 13528 4780 3D190000 		.4byte	0x193d
 13529 4784 00       		.byte	0
 13530 4785 42       		.uleb128 0x42
 13531 4786 7D290000 		.4byte	.LASF820
 13532 478a 09       		.byte	0x9
 13533 478b D7       		.byte	0xd7
 13534 478c 37190000 		.4byte	0x1937
 13535 4790 B3470000 		.4byte	0x47b3
 13536 4794 20       		.uleb128 0x20
 13537 4795 37190000 		.4byte	0x1937
 13538 4799 20       		.uleb128 0x20
 13539 479a 37190000 		.4byte	0x1937
 13540 479e 20       		.uleb128 0x20
 13541 479f 8C000000 		.4byte	0x8c
 13542 47a3 20       		.uleb128 0x20
 13543 47a4 8C000000 		.4byte	0x8c
 13544 47a8 20       		.uleb128 0x20
 13545 47a9 8C000000 		.4byte	0x8c
 13546 47ad 20       		.uleb128 0x20
 13547 47ae 5D000000 		.4byte	0x5d
 13548 47b2 00       		.byte	0
 13549 47b3 48       		.uleb128 0x48
 13550 47b4 B6140000 		.4byte	.LASF821
 13551 47b8 0E       		.byte	0xe
ARM GAS  C:\Users\AHMED~1.ELE\AppData\Local\Temp\ccpjtoUe.s 			page 270


 13552 47b9 B8       		.byte	0xb8
 13553 47ba 48       		.uleb128 0x48
 13554 47bb E72E0000 		.4byte	.LASF822
 13555 47bf 0E       		.byte	0xe
 13556 47c0 B9       		.byte	0xb9
 13557 47c1 44       		.uleb128 0x44
 13558 47c2 1B090000 		.4byte	.LASF823
 13559 47c6 14       		.byte	0x14
 13560 47c7 42       		.byte	0x42
 13561 47c8 D2470000 		.4byte	0x47d2
 13562 47cc 20       		.uleb128 0x20
 13563 47cd 97000000 		.4byte	0x97
 13564 47d1 00       		.byte	0
 13565 47d2 42       		.uleb128 0x42
 13566 47d3 EB0F0000 		.4byte	.LASF824
 13567 47d7 15       		.byte	0x15
 13568 47d8 39       		.byte	0x39
 13569 47d9 B8000000 		.4byte	0xb8
 13570 47dd E7470000 		.4byte	0x47e7
 13571 47e1 20       		.uleb128 0x20
 13572 47e2 B8000000 		.4byte	0xb8
 13573 47e6 00       		.byte	0
 13574 47e7 44       		.uleb128 0x44
 13575 47e8 1D150000 		.4byte	.LASF825
 13576 47ec 09       		.byte	0x9
 13577 47ed C7       		.byte	0xc7
 13578 47ee F8470000 		.4byte	0x47f8
 13579 47f2 20       		.uleb128 0x20
 13580 47f3 37190000 		.4byte	0x1937
 13581 47f7 00       		.byte	0
 13582 47f8 49       		.uleb128 0x49
 13583 47f9 252A0000 		.4byte	.LASF826
 13584 47fd 0E       		.byte	0xe
 13585 47fe B3       		.byte	0xb3
 13586 47ff 5D000000 		.4byte	0x5d
 13587 4803 49       		.uleb128 0x49
 13588 4804 FC100000 		.4byte	.LASF827
 13589 4808 0E       		.byte	0xe
 13590 4809 B2       		.byte	0xb2
 13591 480a 5D000000 		.4byte	0x5d
 13592 480e 49       		.uleb128 0x49
 13593 480f BD160000 		.4byte	.LASF828
 13594 4813 0E       		.byte	0xe
 13595 4814 B1       		.byte	0xb1
 13596 4815 5D000000 		.4byte	0x5d
 13597 4819 42       		.uleb128 0x42
 13598 481a AA160000 		.4byte	.LASF829
 13599 481e 0B       		.byte	0xb
 13600 481f 1E       		.byte	0x1e
 13601 4820 7F000000 		.4byte	0x7f
 13602 4824 33480000 		.4byte	0x4833
 13603 4828 20       		.uleb128 0x20
 13604 4829 7F000000 		.4byte	0x7f
 13605 482d 20       		.uleb128 0x20
 13606 482e 8C000000 		.4byte	0x8c
 13607 4832 00       		.byte	0
 13608 4833 42       		.uleb128 0x42
ARM GAS  C:\Users\AHMED~1.ELE\AppData\Local\Temp\ccpjtoUe.s 			page 271


 13609 4834 D71D0000 		.4byte	.LASF830
 13610 4838 04       		.byte	0x4
 13611 4839 A3       		.byte	0xa3
 13612 483a B8000000 		.4byte	0xb8
 13613 483e 52480000 		.4byte	0x4852
 13614 4842 20       		.uleb128 0x20
 13615 4843 B8000000 		.4byte	0xb8
 13616 4847 20       		.uleb128 0x20
 13617 4848 B8000000 		.4byte	0xb8
 13618 484c 20       		.uleb128 0x20
 13619 484d B8000000 		.4byte	0xb8
 13620 4851 00       		.byte	0
 13621 4852 42       		.uleb128 0x42
 13622 4853 CA130000 		.4byte	.LASF831
 13623 4857 0B       		.byte	0xb
 13624 4858 16       		.byte	0x16
 13625 4859 5D000000 		.4byte	0x5d
 13626 485d 71480000 		.4byte	0x4871
 13627 4861 20       		.uleb128 0x20
 13628 4862 C00E0000 		.4byte	0xec0
 13629 4866 20       		.uleb128 0x20
 13630 4867 C00E0000 		.4byte	0xec0
 13631 486b 20       		.uleb128 0x20
 13632 486c 6B000000 		.4byte	0x6b
 13633 4870 00       		.byte	0
 13634 4871 42       		.uleb128 0x42
 13635 4872 21300000 		.4byte	.LASF832
 13636 4876 0B       		.byte	0xb
 13637 4877 1A       		.byte	0x1a
 13638 4878 7F000000 		.4byte	0x7f
 13639 487c 8B480000 		.4byte	0x488b
 13640 4880 20       		.uleb128 0x20
 13641 4881 7F000000 		.4byte	0x7f
 13642 4885 20       		.uleb128 0x20
 13643 4886 8C000000 		.4byte	0x8c
 13644 488a 00       		.byte	0
 13645 488b 42       		.uleb128 0x42
 13646 488c E11D0000 		.4byte	.LASF833
 13647 4890 04       		.byte	0x4
 13648 4891 A4       		.byte	0xa4
 13649 4892 B8000000 		.4byte	0xb8
 13650 4896 AF480000 		.4byte	0x48af
 13651 489a 20       		.uleb128 0x20
 13652 489b B8000000 		.4byte	0xb8
 13653 489f 20       		.uleb128 0x20
 13654 48a0 B8000000 		.4byte	0xb8
 13655 48a4 20       		.uleb128 0x20
 13656 48a5 B8000000 		.4byte	0xb8
 13657 48a9 20       		.uleb128 0x20
 13658 48aa B8000000 		.4byte	0xb8
 13659 48ae 00       		.byte	0
 13660 48af 48       		.uleb128 0x48
 13661 48b0 7D2F0000 		.4byte	.LASF834
 13662 48b4 0F       		.byte	0xf
 13663 48b5 3E       		.byte	0x3e
 13664 48b6 48       		.uleb128 0x48
 13665 48b7 E20C0000 		.4byte	.LASF835
ARM GAS  C:\Users\AHMED~1.ELE\AppData\Local\Temp\ccpjtoUe.s 			page 272


 13666 48bb 10       		.byte	0x10
 13667 48bc 37       		.byte	0x37
 13668 48bd 48       		.uleb128 0x48
 13669 48be 52030000 		.4byte	.LASF836
 13670 48c2 0F       		.byte	0xf
 13671 48c3 41       		.byte	0x41
 13672 48c4 48       		.uleb128 0x48
 13673 48c5 C82E0000 		.4byte	.LASF837
 13674 48c9 0F       		.byte	0xf
 13675 48ca 44       		.byte	0x44
 13676 48cb 48       		.uleb128 0x48
 13677 48cc FC160000 		.4byte	.LASF838
 13678 48d0 0F       		.byte	0xf
 13679 48d1 3F       		.byte	0x3f
 13680 48d2 48       		.uleb128 0x48
 13681 48d3 352B0000 		.4byte	.LASF839
 13682 48d7 10       		.byte	0x10
 13683 48d8 3A       		.byte	0x3a
 13684 48d9 48       		.uleb128 0x48
 13685 48da 901A0000 		.4byte	.LASF840
 13686 48de 10       		.byte	0x10
 13687 48df 38       		.byte	0x38
 13688 48e0 00       		.byte	0
 13689              		.section	.debug_abbrev,"",%progbits
 13690              	.Ldebug_abbrev0:
 13691 0000 01       		.uleb128 0x1
 13692 0001 11       		.uleb128 0x11
 13693 0002 01       		.byte	0x1
 13694 0003 25       		.uleb128 0x25
 13695 0004 0E       		.uleb128 0xe
 13696 0005 13       		.uleb128 0x13
 13697 0006 0B       		.uleb128 0xb
 13698 0007 03       		.uleb128 0x3
 13699 0008 0E       		.uleb128 0xe
 13700 0009 1B       		.uleb128 0x1b
 13701 000a 0E       		.uleb128 0xe
 13702 000b 55       		.uleb128 0x55
 13703 000c 17       		.uleb128 0x17
 13704 000d 11       		.uleb128 0x11
 13705 000e 01       		.uleb128 0x1
 13706 000f 10       		.uleb128 0x10
 13707 0010 17       		.uleb128 0x17
 13708 0011 00       		.byte	0
 13709 0012 00       		.byte	0
 13710 0013 02       		.uleb128 0x2
 13711 0014 24       		.uleb128 0x24
 13712 0015 00       		.byte	0
 13713 0016 0B       		.uleb128 0xb
 13714 0017 0B       		.uleb128 0xb
 13715 0018 3E       		.uleb128 0x3e
 13716 0019 0B       		.uleb128 0xb
 13717 001a 03       		.uleb128 0x3
 13718 001b 0E       		.uleb128 0xe
 13719 001c 00       		.byte	0
 13720 001d 00       		.byte	0
 13721 001e 03       		.uleb128 0x3
 13722 001f 24       		.uleb128 0x24
ARM GAS  C:\Users\AHMED~1.ELE\AppData\Local\Temp\ccpjtoUe.s 			page 273


 13723 0020 00       		.byte	0
 13724 0021 0B       		.uleb128 0xb
 13725 0022 0B       		.uleb128 0xb
 13726 0023 3E       		.uleb128 0x3e
 13727 0024 0B       		.uleb128 0xb
 13728 0025 03       		.uleb128 0x3
 13729 0026 08       		.uleb128 0x8
 13730 0027 00       		.byte	0
 13731 0028 00       		.byte	0
 13732 0029 04       		.uleb128 0x4
 13733 002a 16       		.uleb128 0x16
 13734 002b 00       		.byte	0
 13735 002c 03       		.uleb128 0x3
 13736 002d 0E       		.uleb128 0xe
 13737 002e 3A       		.uleb128 0x3a
 13738 002f 0B       		.uleb128 0xb
 13739 0030 3B       		.uleb128 0x3b
 13740 0031 0B       		.uleb128 0xb
 13741 0032 49       		.uleb128 0x49
 13742 0033 13       		.uleb128 0x13
 13743 0034 00       		.byte	0
 13744 0035 00       		.byte	0
 13745 0036 05       		.uleb128 0x5
 13746 0037 0F       		.uleb128 0xf
 13747 0038 00       		.byte	0
 13748 0039 0B       		.uleb128 0xb
 13749 003a 0B       		.uleb128 0xb
 13750 003b 00       		.byte	0
 13751 003c 00       		.byte	0
 13752 003d 06       		.uleb128 0x6
 13753 003e 0F       		.uleb128 0xf
 13754 003f 00       		.byte	0
 13755 0040 0B       		.uleb128 0xb
 13756 0041 0B       		.uleb128 0xb
 13757 0042 49       		.uleb128 0x49
 13758 0043 13       		.uleb128 0x13
 13759 0044 00       		.byte	0
 13760 0045 00       		.byte	0
 13761 0046 07       		.uleb128 0x7
 13762 0047 26       		.uleb128 0x26
 13763 0048 00       		.byte	0
 13764 0049 49       		.uleb128 0x49
 13765 004a 13       		.uleb128 0x13
 13766 004b 00       		.byte	0
 13767 004c 00       		.byte	0
 13768 004d 08       		.uleb128 0x8
 13769 004e 01       		.uleb128 0x1
 13770 004f 01       		.byte	0x1
 13771 0050 49       		.uleb128 0x49
 13772 0051 13       		.uleb128 0x13
 13773 0052 01       		.uleb128 0x1
 13774 0053 13       		.uleb128 0x13
 13775 0054 00       		.byte	0
 13776 0055 00       		.byte	0
 13777 0056 09       		.uleb128 0x9
 13778 0057 21       		.uleb128 0x21
 13779 0058 00       		.byte	0
ARM GAS  C:\Users\AHMED~1.ELE\AppData\Local\Temp\ccpjtoUe.s 			page 274


 13780 0059 49       		.uleb128 0x49
 13781 005a 13       		.uleb128 0x13
 13782 005b 2F       		.uleb128 0x2f
 13783 005c 0B       		.uleb128 0xb
 13784 005d 00       		.byte	0
 13785 005e 00       		.byte	0
 13786 005f 0A       		.uleb128 0xa
 13787 0060 04       		.uleb128 0x4
 13788 0061 01       		.byte	0x1
 13789 0062 03       		.uleb128 0x3
 13790 0063 0E       		.uleb128 0xe
 13791 0064 0B       		.uleb128 0xb
 13792 0065 0B       		.uleb128 0xb
 13793 0066 3A       		.uleb128 0x3a
 13794 0067 0B       		.uleb128 0xb
 13795 0068 3B       		.uleb128 0x3b
 13796 0069 05       		.uleb128 0x5
 13797 006a 01       		.uleb128 0x1
 13798 006b 13       		.uleb128 0x13
 13799 006c 00       		.byte	0
 13800 006d 00       		.byte	0
 13801 006e 0B       		.uleb128 0xb
 13802 006f 28       		.uleb128 0x28
 13803 0070 00       		.byte	0
 13804 0071 03       		.uleb128 0x3
 13805 0072 0E       		.uleb128 0xe
 13806 0073 1C       		.uleb128 0x1c
 13807 0074 0D       		.uleb128 0xd
 13808 0075 00       		.byte	0
 13809 0076 00       		.byte	0
 13810 0077 0C       		.uleb128 0xc
 13811 0078 17       		.uleb128 0x17
 13812 0079 01       		.byte	0x1
 13813 007a 0B       		.uleb128 0xb
 13814 007b 0B       		.uleb128 0xb
 13815 007c 3A       		.uleb128 0x3a
 13816 007d 0B       		.uleb128 0xb
 13817 007e 3B       		.uleb128 0x3b
 13818 007f 05       		.uleb128 0x5
 13819 0080 01       		.uleb128 0x1
 13820 0081 13       		.uleb128 0x13
 13821 0082 00       		.byte	0
 13822 0083 00       		.byte	0
 13823 0084 0D       		.uleb128 0xd
 13824 0085 0D       		.uleb128 0xd
 13825 0086 00       		.byte	0
 13826 0087 03       		.uleb128 0x3
 13827 0088 0E       		.uleb128 0xe
 13828 0089 3A       		.uleb128 0x3a
 13829 008a 0B       		.uleb128 0xb
 13830 008b 3B       		.uleb128 0x3b
 13831 008c 05       		.uleb128 0x5
 13832 008d 49       		.uleb128 0x49
 13833 008e 13       		.uleb128 0x13
 13834 008f 00       		.byte	0
 13835 0090 00       		.byte	0
 13836 0091 0E       		.uleb128 0xe
ARM GAS  C:\Users\AHMED~1.ELE\AppData\Local\Temp\ccpjtoUe.s 			page 275


 13837 0092 13       		.uleb128 0x13
 13838 0093 01       		.byte	0x1
 13839 0094 0B       		.uleb128 0xb
 13840 0095 0B       		.uleb128 0xb
 13841 0096 3A       		.uleb128 0x3a
 13842 0097 0B       		.uleb128 0xb
 13843 0098 3B       		.uleb128 0x3b
 13844 0099 05       		.uleb128 0x5
 13845 009a 01       		.uleb128 0x1
 13846 009b 13       		.uleb128 0x13
 13847 009c 00       		.byte	0
 13848 009d 00       		.byte	0
 13849 009e 0F       		.uleb128 0xf
 13850 009f 0D       		.uleb128 0xd
 13851 00a0 00       		.byte	0
 13852 00a1 03       		.uleb128 0x3
 13853 00a2 0E       		.uleb128 0xe
 13854 00a3 3A       		.uleb128 0x3a
 13855 00a4 0B       		.uleb128 0xb
 13856 00a5 3B       		.uleb128 0x3b
 13857 00a6 05       		.uleb128 0x5
 13858 00a7 49       		.uleb128 0x49
 13859 00a8 13       		.uleb128 0x13
 13860 00a9 38       		.uleb128 0x38
 13861 00aa 0B       		.uleb128 0xb
 13862 00ab 00       		.byte	0
 13863 00ac 00       		.byte	0
 13864 00ad 10       		.uleb128 0x10
 13865 00ae 0D       		.uleb128 0xd
 13866 00af 00       		.byte	0
 13867 00b0 49       		.uleb128 0x49
 13868 00b1 13       		.uleb128 0x13
 13869 00b2 38       		.uleb128 0x38
 13870 00b3 0B       		.uleb128 0xb
 13871 00b4 00       		.byte	0
 13872 00b5 00       		.byte	0
 13873 00b6 11       		.uleb128 0x11
 13874 00b7 16       		.uleb128 0x16
 13875 00b8 00       		.byte	0
 13876 00b9 03       		.uleb128 0x3
 13877 00ba 0E       		.uleb128 0xe
 13878 00bb 3A       		.uleb128 0x3a
 13879 00bc 0B       		.uleb128 0xb
 13880 00bd 3B       		.uleb128 0x3b
 13881 00be 05       		.uleb128 0x5
 13882 00bf 49       		.uleb128 0x49
 13883 00c0 13       		.uleb128 0x13
 13884 00c1 00       		.byte	0
 13885 00c2 00       		.byte	0
 13886 00c3 12       		.uleb128 0x12
 13887 00c4 26       		.uleb128 0x26
 13888 00c5 00       		.byte	0
 13889 00c6 00       		.byte	0
 13890 00c7 00       		.byte	0
 13891 00c8 13       		.uleb128 0x13
 13892 00c9 04       		.uleb128 0x4
 13893 00ca 01       		.byte	0x1
ARM GAS  C:\Users\AHMED~1.ELE\AppData\Local\Temp\ccpjtoUe.s 			page 276


 13894 00cb 0B       		.uleb128 0xb
 13895 00cc 0B       		.uleb128 0xb
 13896 00cd 3A       		.uleb128 0x3a
 13897 00ce 0B       		.uleb128 0xb
 13898 00cf 3B       		.uleb128 0x3b
 13899 00d0 05       		.uleb128 0x5
 13900 00d1 01       		.uleb128 0x1
 13901 00d2 13       		.uleb128 0x13
 13902 00d3 00       		.byte	0
 13903 00d4 00       		.byte	0
 13904 00d5 14       		.uleb128 0x14
 13905 00d6 04       		.uleb128 0x4
 13906 00d7 01       		.byte	0x1
 13907 00d8 0B       		.uleb128 0xb
 13908 00d9 0B       		.uleb128 0xb
 13909 00da 3A       		.uleb128 0x3a
 13910 00db 0B       		.uleb128 0xb
 13911 00dc 3B       		.uleb128 0x3b
 13912 00dd 0B       		.uleb128 0xb
 13913 00de 01       		.uleb128 0x1
 13914 00df 13       		.uleb128 0x13
 13915 00e0 00       		.byte	0
 13916 00e1 00       		.byte	0
 13917 00e2 15       		.uleb128 0x15
 13918 00e3 13       		.uleb128 0x13
 13919 00e4 01       		.byte	0x1
 13920 00e5 03       		.uleb128 0x3
 13921 00e6 0E       		.uleb128 0xe
 13922 00e7 0B       		.uleb128 0xb
 13923 00e8 05       		.uleb128 0x5
 13924 00e9 3A       		.uleb128 0x3a
 13925 00ea 0B       		.uleb128 0xb
 13926 00eb 3B       		.uleb128 0x3b
 13927 00ec 05       		.uleb128 0x5
 13928 00ed 01       		.uleb128 0x1
 13929 00ee 13       		.uleb128 0x13
 13930 00ef 00       		.byte	0
 13931 00f0 00       		.byte	0
 13932 00f1 16       		.uleb128 0x16
 13933 00f2 0D       		.uleb128 0xd
 13934 00f3 00       		.byte	0
 13935 00f4 03       		.uleb128 0x3
 13936 00f5 0E       		.uleb128 0xe
 13937 00f6 3A       		.uleb128 0x3a
 13938 00f7 0B       		.uleb128 0xb
 13939 00f8 3B       		.uleb128 0x3b
 13940 00f9 05       		.uleb128 0x5
 13941 00fa 49       		.uleb128 0x49
 13942 00fb 13       		.uleb128 0x13
 13943 00fc 38       		.uleb128 0x38
 13944 00fd 05       		.uleb128 0x5
 13945 00fe 00       		.byte	0
 13946 00ff 00       		.byte	0
 13947 0100 17       		.uleb128 0x17
 13948 0101 13       		.uleb128 0x13
 13949 0102 01       		.byte	0x1
 13950 0103 03       		.uleb128 0x3
ARM GAS  C:\Users\AHMED~1.ELE\AppData\Local\Temp\ccpjtoUe.s 			page 277


 13951 0104 0E       		.uleb128 0xe
 13952 0105 0B       		.uleb128 0xb
 13953 0106 0B       		.uleb128 0xb
 13954 0107 3A       		.uleb128 0x3a
 13955 0108 0B       		.uleb128 0xb
 13956 0109 3B       		.uleb128 0x3b
 13957 010a 05       		.uleb128 0x5
 13958 010b 01       		.uleb128 0x1
 13959 010c 13       		.uleb128 0x13
 13960 010d 00       		.byte	0
 13961 010e 00       		.byte	0
 13962 010f 18       		.uleb128 0x18
 13963 0110 13       		.uleb128 0x13
 13964 0111 01       		.byte	0x1
 13965 0112 0B       		.uleb128 0xb
 13966 0113 05       		.uleb128 0x5
 13967 0114 3A       		.uleb128 0x3a
 13968 0115 0B       		.uleb128 0xb
 13969 0116 3B       		.uleb128 0x3b
 13970 0117 0B       		.uleb128 0xb
 13971 0118 01       		.uleb128 0x1
 13972 0119 13       		.uleb128 0x13
 13973 011a 00       		.byte	0
 13974 011b 00       		.byte	0
 13975 011c 19       		.uleb128 0x19
 13976 011d 0D       		.uleb128 0xd
 13977 011e 00       		.byte	0
 13978 011f 03       		.uleb128 0x3
 13979 0120 0E       		.uleb128 0xe
 13980 0121 3A       		.uleb128 0x3a
 13981 0122 0B       		.uleb128 0xb
 13982 0123 3B       		.uleb128 0x3b
 13983 0124 0B       		.uleb128 0xb
 13984 0125 49       		.uleb128 0x49
 13985 0126 13       		.uleb128 0x13
 13986 0127 38       		.uleb128 0x38
 13987 0128 0B       		.uleb128 0xb
 13988 0129 00       		.byte	0
 13989 012a 00       		.byte	0
 13990 012b 1A       		.uleb128 0x1a
 13991 012c 0D       		.uleb128 0xd
 13992 012d 00       		.byte	0
 13993 012e 03       		.uleb128 0x3
 13994 012f 08       		.uleb128 0x8
 13995 0130 3A       		.uleb128 0x3a
 13996 0131 0B       		.uleb128 0xb
 13997 0132 3B       		.uleb128 0x3b
 13998 0133 0B       		.uleb128 0xb
 13999 0134 49       		.uleb128 0x49
 14000 0135 13       		.uleb128 0x13
 14001 0136 38       		.uleb128 0x38
 14002 0137 0B       		.uleb128 0xb
 14003 0138 00       		.byte	0
 14004 0139 00       		.byte	0
 14005 013a 1B       		.uleb128 0x1b
 14006 013b 0D       		.uleb128 0xd
 14007 013c 00       		.byte	0
ARM GAS  C:\Users\AHMED~1.ELE\AppData\Local\Temp\ccpjtoUe.s 			page 278


 14008 013d 03       		.uleb128 0x3
 14009 013e 0E       		.uleb128 0xe
 14010 013f 3A       		.uleb128 0x3a
 14011 0140 0B       		.uleb128 0xb
 14012 0141 3B       		.uleb128 0x3b
 14013 0142 0B       		.uleb128 0xb
 14014 0143 49       		.uleb128 0x49
 14015 0144 13       		.uleb128 0x13
 14016 0145 38       		.uleb128 0x38
 14017 0146 05       		.uleb128 0x5
 14018 0147 00       		.byte	0
 14019 0148 00       		.byte	0
 14020 0149 1C       		.uleb128 0x1c
 14021 014a 21       		.uleb128 0x21
 14022 014b 00       		.byte	0
 14023 014c 49       		.uleb128 0x49
 14024 014d 13       		.uleb128 0x13
 14025 014e 2F       		.uleb128 0x2f
 14026 014f 05       		.uleb128 0x5
 14027 0150 00       		.byte	0
 14028 0151 00       		.byte	0
 14029 0152 1D       		.uleb128 0x1d
 14030 0153 13       		.uleb128 0x13
 14031 0154 01       		.byte	0x1
 14032 0155 0B       		.uleb128 0xb
 14033 0156 05       		.uleb128 0x5
 14034 0157 3A       		.uleb128 0x3a
 14035 0158 0B       		.uleb128 0xb
 14036 0159 3B       		.uleb128 0x3b
 14037 015a 05       		.uleb128 0x5
 14038 015b 01       		.uleb128 0x1
 14039 015c 13       		.uleb128 0x13
 14040 015d 00       		.byte	0
 14041 015e 00       		.byte	0
 14042 015f 1E       		.uleb128 0x1e
 14043 0160 04       		.uleb128 0x4
 14044 0161 01       		.byte	0x1
 14045 0162 03       		.uleb128 0x3
 14046 0163 0E       		.uleb128 0xe
 14047 0164 0B       		.uleb128 0xb
 14048 0165 0B       		.uleb128 0xb
 14049 0166 3A       		.uleb128 0x3a
 14050 0167 0B       		.uleb128 0xb
 14051 0168 3B       		.uleb128 0x3b
 14052 0169 0B       		.uleb128 0xb
 14053 016a 01       		.uleb128 0x1
 14054 016b 13       		.uleb128 0x13
 14055 016c 00       		.byte	0
 14056 016d 00       		.byte	0
 14057 016e 1F       		.uleb128 0x1f
 14058 016f 15       		.uleb128 0x15
 14059 0170 01       		.byte	0x1
 14060 0171 27       		.uleb128 0x27
 14061 0172 19       		.uleb128 0x19
 14062 0173 01       		.uleb128 0x1
 14063 0174 13       		.uleb128 0x13
 14064 0175 00       		.byte	0
ARM GAS  C:\Users\AHMED~1.ELE\AppData\Local\Temp\ccpjtoUe.s 			page 279


 14065 0176 00       		.byte	0
 14066 0177 20       		.uleb128 0x20
 14067 0178 05       		.uleb128 0x5
 14068 0179 00       		.byte	0
 14069 017a 49       		.uleb128 0x49
 14070 017b 13       		.uleb128 0x13
 14071 017c 00       		.byte	0
 14072 017d 00       		.byte	0
 14073 017e 21       		.uleb128 0x21
 14074 017f 13       		.uleb128 0x13
 14075 0180 01       		.byte	0x1
 14076 0181 03       		.uleb128 0x3
 14077 0182 0E       		.uleb128 0xe
 14078 0183 0B       		.uleb128 0xb
 14079 0184 0B       		.uleb128 0xb
 14080 0185 3A       		.uleb128 0x3a
 14081 0186 0B       		.uleb128 0xb
 14082 0187 3B       		.uleb128 0x3b
 14083 0188 0B       		.uleb128 0xb
 14084 0189 01       		.uleb128 0x1
 14085 018a 13       		.uleb128 0x13
 14086 018b 00       		.byte	0
 14087 018c 00       		.byte	0
 14088 018d 22       		.uleb128 0x22
 14089 018e 17       		.uleb128 0x17
 14090 018f 01       		.byte	0x1
 14091 0190 03       		.uleb128 0x3
 14092 0191 0E       		.uleb128 0xe
 14093 0192 0B       		.uleb128 0xb
 14094 0193 0B       		.uleb128 0xb
 14095 0194 3A       		.uleb128 0x3a
 14096 0195 0B       		.uleb128 0xb
 14097 0196 3B       		.uleb128 0x3b
 14098 0197 0B       		.uleb128 0xb
 14099 0198 01       		.uleb128 0x1
 14100 0199 13       		.uleb128 0x13
 14101 019a 00       		.byte	0
 14102 019b 00       		.byte	0
 14103 019c 23       		.uleb128 0x23
 14104 019d 0D       		.uleb128 0xd
 14105 019e 00       		.byte	0
 14106 019f 03       		.uleb128 0x3
 14107 01a0 0E       		.uleb128 0xe
 14108 01a1 3A       		.uleb128 0x3a
 14109 01a2 0B       		.uleb128 0xb
 14110 01a3 3B       		.uleb128 0x3b
 14111 01a4 0B       		.uleb128 0xb
 14112 01a5 49       		.uleb128 0x49
 14113 01a6 13       		.uleb128 0x13
 14114 01a7 00       		.byte	0
 14115 01a8 00       		.byte	0
 14116 01a9 24       		.uleb128 0x24
 14117 01aa 15       		.uleb128 0x15
 14118 01ab 01       		.byte	0x1
 14119 01ac 27       		.uleb128 0x27
 14120 01ad 19       		.uleb128 0x19
 14121 01ae 49       		.uleb128 0x49
ARM GAS  C:\Users\AHMED~1.ELE\AppData\Local\Temp\ccpjtoUe.s 			page 280


 14122 01af 13       		.uleb128 0x13
 14123 01b0 01       		.uleb128 0x1
 14124 01b1 13       		.uleb128 0x13
 14125 01b2 00       		.byte	0
 14126 01b3 00       		.byte	0
 14127 01b4 25       		.uleb128 0x25
 14128 01b5 2E       		.uleb128 0x2e
 14129 01b6 01       		.byte	0x1
 14130 01b7 3F       		.uleb128 0x3f
 14131 01b8 19       		.uleb128 0x19
 14132 01b9 03       		.uleb128 0x3
 14133 01ba 0E       		.uleb128 0xe
 14134 01bb 3A       		.uleb128 0x3a
 14135 01bc 0B       		.uleb128 0xb
 14136 01bd 3B       		.uleb128 0x3b
 14137 01be 05       		.uleb128 0x5
 14138 01bf 27       		.uleb128 0x27
 14139 01c0 19       		.uleb128 0x19
 14140 01c1 49       		.uleb128 0x49
 14141 01c2 13       		.uleb128 0x13
 14142 01c3 20       		.uleb128 0x20
 14143 01c4 0B       		.uleb128 0xb
 14144 01c5 01       		.uleb128 0x1
 14145 01c6 13       		.uleb128 0x13
 14146 01c7 00       		.byte	0
 14147 01c8 00       		.byte	0
 14148 01c9 26       		.uleb128 0x26
 14149 01ca 05       		.uleb128 0x5
 14150 01cb 00       		.byte	0
 14151 01cc 03       		.uleb128 0x3
 14152 01cd 0E       		.uleb128 0xe
 14153 01ce 3A       		.uleb128 0x3a
 14154 01cf 0B       		.uleb128 0xb
 14155 01d0 3B       		.uleb128 0x3b
 14156 01d1 05       		.uleb128 0x5
 14157 01d2 49       		.uleb128 0x49
 14158 01d3 13       		.uleb128 0x13
 14159 01d4 00       		.byte	0
 14160 01d5 00       		.byte	0
 14161 01d6 27       		.uleb128 0x27
 14162 01d7 34       		.uleb128 0x34
 14163 01d8 00       		.byte	0
 14164 01d9 03       		.uleb128 0x3
 14165 01da 0E       		.uleb128 0xe
 14166 01db 3A       		.uleb128 0x3a
 14167 01dc 0B       		.uleb128 0xb
 14168 01dd 3B       		.uleb128 0x3b
 14169 01de 05       		.uleb128 0x5
 14170 01df 49       		.uleb128 0x49
 14171 01e0 13       		.uleb128 0x13
 14172 01e1 00       		.byte	0
 14173 01e2 00       		.byte	0
 14174 01e3 28       		.uleb128 0x28
 14175 01e4 34       		.uleb128 0x34
 14176 01e5 00       		.byte	0
 14177 01e6 03       		.uleb128 0x3
 14178 01e7 08       		.uleb128 0x8
ARM GAS  C:\Users\AHMED~1.ELE\AppData\Local\Temp\ccpjtoUe.s 			page 281


 14179 01e8 3A       		.uleb128 0x3a
 14180 01e9 0B       		.uleb128 0xb
 14181 01ea 3B       		.uleb128 0x3b
 14182 01eb 05       		.uleb128 0x5
 14183 01ec 49       		.uleb128 0x49
 14184 01ed 13       		.uleb128 0x13
 14185 01ee 00       		.byte	0
 14186 01ef 00       		.byte	0
 14187 01f0 29       		.uleb128 0x29
 14188 01f1 2E       		.uleb128 0x2e
 14189 01f2 01       		.byte	0x1
 14190 01f3 3F       		.uleb128 0x3f
 14191 01f4 19       		.uleb128 0x19
 14192 01f5 03       		.uleb128 0x3
 14193 01f6 0E       		.uleb128 0xe
 14194 01f7 3A       		.uleb128 0x3a
 14195 01f8 0B       		.uleb128 0xb
 14196 01f9 3B       		.uleb128 0x3b
 14197 01fa 0B       		.uleb128 0xb
 14198 01fb 27       		.uleb128 0x27
 14199 01fc 19       		.uleb128 0x19
 14200 01fd 49       		.uleb128 0x49
 14201 01fe 13       		.uleb128 0x13
 14202 01ff 11       		.uleb128 0x11
 14203 0200 01       		.uleb128 0x1
 14204 0201 12       		.uleb128 0x12
 14205 0202 06       		.uleb128 0x6
 14206 0203 40       		.uleb128 0x40
 14207 0204 18       		.uleb128 0x18
 14208 0205 9742     		.uleb128 0x2117
 14209 0207 19       		.uleb128 0x19
 14210 0208 01       		.uleb128 0x1
 14211 0209 13       		.uleb128 0x13
 14212 020a 00       		.byte	0
 14213 020b 00       		.byte	0
 14214 020c 2A       		.uleb128 0x2a
 14215 020d 05       		.uleb128 0x5
 14216 020e 00       		.byte	0
 14217 020f 03       		.uleb128 0x3
 14218 0210 0E       		.uleb128 0xe
 14219 0211 3A       		.uleb128 0x3a
 14220 0212 0B       		.uleb128 0xb
 14221 0213 3B       		.uleb128 0x3b
 14222 0214 0B       		.uleb128 0xb
 14223 0215 49       		.uleb128 0x49
 14224 0216 13       		.uleb128 0x13
 14225 0217 02       		.uleb128 0x2
 14226 0218 17       		.uleb128 0x17
 14227 0219 00       		.byte	0
 14228 021a 00       		.byte	0
 14229 021b 2B       		.uleb128 0x2b
 14230 021c 34       		.uleb128 0x34
 14231 021d 00       		.byte	0
 14232 021e 03       		.uleb128 0x3
 14233 021f 0E       		.uleb128 0xe
 14234 0220 3A       		.uleb128 0x3a
 14235 0221 0B       		.uleb128 0xb
ARM GAS  C:\Users\AHMED~1.ELE\AppData\Local\Temp\ccpjtoUe.s 			page 282


 14236 0222 3B       		.uleb128 0x3b
 14237 0223 0B       		.uleb128 0xb
 14238 0224 49       		.uleb128 0x49
 14239 0225 13       		.uleb128 0x13
 14240 0226 02       		.uleb128 0x2
 14241 0227 17       		.uleb128 0x17
 14242 0228 00       		.byte	0
 14243 0229 00       		.byte	0
 14244 022a 2C       		.uleb128 0x2c
 14245 022b 898201   		.uleb128 0x4109
 14246 022e 01       		.byte	0x1
 14247 022f 11       		.uleb128 0x11
 14248 0230 01       		.uleb128 0x1
 14249 0231 31       		.uleb128 0x31
 14250 0232 13       		.uleb128 0x13
 14251 0233 00       		.byte	0
 14252 0234 00       		.byte	0
 14253 0235 2D       		.uleb128 0x2d
 14254 0236 8A8201   		.uleb128 0x410a
 14255 0239 00       		.byte	0
 14256 023a 02       		.uleb128 0x2
 14257 023b 18       		.uleb128 0x18
 14258 023c 9142     		.uleb128 0x2111
 14259 023e 18       		.uleb128 0x18
 14260 023f 00       		.byte	0
 14261 0240 00       		.byte	0
 14262 0241 2E       		.uleb128 0x2e
 14263 0242 2E       		.uleb128 0x2e
 14264 0243 01       		.byte	0x1
 14265 0244 3F       		.uleb128 0x3f
 14266 0245 19       		.uleb128 0x19
 14267 0246 03       		.uleb128 0x3
 14268 0247 0E       		.uleb128 0xe
 14269 0248 3A       		.uleb128 0x3a
 14270 0249 0B       		.uleb128 0xb
 14271 024a 3B       		.uleb128 0x3b
 14272 024b 05       		.uleb128 0x5
 14273 024c 27       		.uleb128 0x27
 14274 024d 19       		.uleb128 0x19
 14275 024e 49       		.uleb128 0x49
 14276 024f 13       		.uleb128 0x13
 14277 0250 11       		.uleb128 0x11
 14278 0251 01       		.uleb128 0x1
 14279 0252 12       		.uleb128 0x12
 14280 0253 06       		.uleb128 0x6
 14281 0254 40       		.uleb128 0x40
 14282 0255 18       		.uleb128 0x18
 14283 0256 9742     		.uleb128 0x2117
 14284 0258 19       		.uleb128 0x19
 14285 0259 01       		.uleb128 0x1
 14286 025a 13       		.uleb128 0x13
 14287 025b 00       		.byte	0
 14288 025c 00       		.byte	0
 14289 025d 2F       		.uleb128 0x2f
 14290 025e 05       		.uleb128 0x5
 14291 025f 00       		.byte	0
 14292 0260 03       		.uleb128 0x3
ARM GAS  C:\Users\AHMED~1.ELE\AppData\Local\Temp\ccpjtoUe.s 			page 283


 14293 0261 0E       		.uleb128 0xe
 14294 0262 3A       		.uleb128 0x3a
 14295 0263 0B       		.uleb128 0xb
 14296 0264 3B       		.uleb128 0x3b
 14297 0265 05       		.uleb128 0x5
 14298 0266 49       		.uleb128 0x49
 14299 0267 13       		.uleb128 0x13
 14300 0268 02       		.uleb128 0x2
 14301 0269 17       		.uleb128 0x17
 14302 026a 00       		.byte	0
 14303 026b 00       		.byte	0
 14304 026c 30       		.uleb128 0x30
 14305 026d 34       		.uleb128 0x34
 14306 026e 00       		.byte	0
 14307 026f 03       		.uleb128 0x3
 14308 0270 08       		.uleb128 0x8
 14309 0271 3A       		.uleb128 0x3a
 14310 0272 0B       		.uleb128 0xb
 14311 0273 3B       		.uleb128 0x3b
 14312 0274 05       		.uleb128 0x5
 14313 0275 49       		.uleb128 0x49
 14314 0276 13       		.uleb128 0x13
 14315 0277 02       		.uleb128 0x2
 14316 0278 17       		.uleb128 0x17
 14317 0279 00       		.byte	0
 14318 027a 00       		.byte	0
 14319 027b 31       		.uleb128 0x31
 14320 027c 34       		.uleb128 0x34
 14321 027d 00       		.byte	0
 14322 027e 03       		.uleb128 0x3
 14323 027f 0E       		.uleb128 0xe
 14324 0280 3A       		.uleb128 0x3a
 14325 0281 0B       		.uleb128 0xb
 14326 0282 3B       		.uleb128 0x3b
 14327 0283 05       		.uleb128 0x5
 14328 0284 49       		.uleb128 0x49
 14329 0285 13       		.uleb128 0x13
 14330 0286 02       		.uleb128 0x2
 14331 0287 17       		.uleb128 0x17
 14332 0288 00       		.byte	0
 14333 0289 00       		.byte	0
 14334 028a 32       		.uleb128 0x32
 14335 028b 898201   		.uleb128 0x4109
 14336 028e 01       		.byte	0x1
 14337 028f 11       		.uleb128 0x11
 14338 0290 01       		.uleb128 0x1
 14339 0291 31       		.uleb128 0x31
 14340 0292 13       		.uleb128 0x13
 14341 0293 01       		.uleb128 0x1
 14342 0294 13       		.uleb128 0x13
 14343 0295 00       		.byte	0
 14344 0296 00       		.byte	0
 14345 0297 33       		.uleb128 0x33
 14346 0298 898201   		.uleb128 0x4109
 14347 029b 00       		.byte	0
 14348 029c 11       		.uleb128 0x11
 14349 029d 01       		.uleb128 0x1
ARM GAS  C:\Users\AHMED~1.ELE\AppData\Local\Temp\ccpjtoUe.s 			page 284


 14350 029e 31       		.uleb128 0x31
 14351 029f 13       		.uleb128 0x13
 14352 02a0 00       		.byte	0
 14353 02a1 00       		.byte	0
 14354 02a2 34       		.uleb128 0x34
 14355 02a3 2E       		.uleb128 0x2e
 14356 02a4 01       		.byte	0x1
 14357 02a5 31       		.uleb128 0x31
 14358 02a6 13       		.uleb128 0x13
 14359 02a7 11       		.uleb128 0x11
 14360 02a8 01       		.uleb128 0x1
 14361 02a9 12       		.uleb128 0x12
 14362 02aa 06       		.uleb128 0x6
 14363 02ab 40       		.uleb128 0x40
 14364 02ac 18       		.uleb128 0x18
 14365 02ad 9742     		.uleb128 0x2117
 14366 02af 19       		.uleb128 0x19
 14367 02b0 01       		.uleb128 0x1
 14368 02b1 13       		.uleb128 0x13
 14369 02b2 00       		.byte	0
 14370 02b3 00       		.byte	0
 14371 02b4 35       		.uleb128 0x35
 14372 02b5 05       		.uleb128 0x5
 14373 02b6 00       		.byte	0
 14374 02b7 31       		.uleb128 0x31
 14375 02b8 13       		.uleb128 0x13
 14376 02b9 02       		.uleb128 0x2
 14377 02ba 17       		.uleb128 0x17
 14378 02bb 00       		.byte	0
 14379 02bc 00       		.byte	0
 14380 02bd 36       		.uleb128 0x36
 14381 02be 34       		.uleb128 0x34
 14382 02bf 00       		.byte	0
 14383 02c0 31       		.uleb128 0x31
 14384 02c1 13       		.uleb128 0x13
 14385 02c2 02       		.uleb128 0x2
 14386 02c3 17       		.uleb128 0x17
 14387 02c4 00       		.byte	0
 14388 02c5 00       		.byte	0
 14389 02c6 37       		.uleb128 0x37
 14390 02c7 34       		.uleb128 0x34
 14391 02c8 00       		.byte	0
 14392 02c9 31       		.uleb128 0x31
 14393 02ca 13       		.uleb128 0x13
 14394 02cb 00       		.byte	0
 14395 02cc 00       		.byte	0
 14396 02cd 38       		.uleb128 0x38
 14397 02ce 0B       		.uleb128 0xb
 14398 02cf 01       		.byte	0x1
 14399 02d0 11       		.uleb128 0x11
 14400 02d1 01       		.uleb128 0x1
 14401 02d2 12       		.uleb128 0x12
 14402 02d3 06       		.uleb128 0x6
 14403 02d4 01       		.uleb128 0x1
 14404 02d5 13       		.uleb128 0x13
 14405 02d6 00       		.byte	0
 14406 02d7 00       		.byte	0
ARM GAS  C:\Users\AHMED~1.ELE\AppData\Local\Temp\ccpjtoUe.s 			page 285


 14407 02d8 39       		.uleb128 0x39
 14408 02d9 0B       		.uleb128 0xb
 14409 02da 01       		.byte	0x1
 14410 02db 11       		.uleb128 0x11
 14411 02dc 01       		.uleb128 0x1
 14412 02dd 12       		.uleb128 0x12
 14413 02de 06       		.uleb128 0x6
 14414 02df 00       		.byte	0
 14415 02e0 00       		.byte	0
 14416 02e1 3A       		.uleb128 0x3a
 14417 02e2 34       		.uleb128 0x34
 14418 02e3 00       		.byte	0
 14419 02e4 31       		.uleb128 0x31
 14420 02e5 13       		.uleb128 0x13
 14421 02e6 02       		.uleb128 0x2
 14422 02e7 18       		.uleb128 0x18
 14423 02e8 00       		.byte	0
 14424 02e9 00       		.byte	0
 14425 02ea 3B       		.uleb128 0x3b
 14426 02eb 34       		.uleb128 0x34
 14427 02ec 00       		.byte	0
 14428 02ed 03       		.uleb128 0x3
 14429 02ee 0E       		.uleb128 0xe
 14430 02ef 3A       		.uleb128 0x3a
 14431 02f0 0B       		.uleb128 0xb
 14432 02f1 3B       		.uleb128 0x3b
 14433 02f2 05       		.uleb128 0x5
 14434 02f3 49       		.uleb128 0x49
 14435 02f4 13       		.uleb128 0x13
 14436 02f5 02       		.uleb128 0x2
 14437 02f6 18       		.uleb128 0x18
 14438 02f7 00       		.byte	0
 14439 02f8 00       		.byte	0
 14440 02f9 3C       		.uleb128 0x3c
 14441 02fa 2E       		.uleb128 0x2e
 14442 02fb 01       		.byte	0x1
 14443 02fc 3F       		.uleb128 0x3f
 14444 02fd 19       		.uleb128 0x19
 14445 02fe 03       		.uleb128 0x3
 14446 02ff 0E       		.uleb128 0xe
 14447 0300 3A       		.uleb128 0x3a
 14448 0301 0B       		.uleb128 0xb
 14449 0302 3B       		.uleb128 0x3b
 14450 0303 05       		.uleb128 0x5
 14451 0304 11       		.uleb128 0x11
 14452 0305 01       		.uleb128 0x1
 14453 0306 12       		.uleb128 0x12
 14454 0307 06       		.uleb128 0x6
 14455 0308 40       		.uleb128 0x40
 14456 0309 18       		.uleb128 0x18
 14457 030a 9742     		.uleb128 0x2117
 14458 030c 19       		.uleb128 0x19
 14459 030d 01       		.uleb128 0x1
 14460 030e 13       		.uleb128 0x13
 14461 030f 00       		.byte	0
 14462 0310 00       		.byte	0
 14463 0311 3D       		.uleb128 0x3d
ARM GAS  C:\Users\AHMED~1.ELE\AppData\Local\Temp\ccpjtoUe.s 			page 286


 14464 0312 34       		.uleb128 0x34
 14465 0313 00       		.byte	0
 14466 0314 03       		.uleb128 0x3
 14467 0315 08       		.uleb128 0x8
 14468 0316 3A       		.uleb128 0x3a
 14469 0317 0B       		.uleb128 0xb
 14470 0318 3B       		.uleb128 0x3b
 14471 0319 05       		.uleb128 0x5
 14472 031a 49       		.uleb128 0x49
 14473 031b 13       		.uleb128 0x13
 14474 031c 02       		.uleb128 0x2
 14475 031d 18       		.uleb128 0x18
 14476 031e 00       		.byte	0
 14477 031f 00       		.byte	0
 14478 0320 3E       		.uleb128 0x3e
 14479 0321 34       		.uleb128 0x34
 14480 0322 00       		.byte	0
 14481 0323 03       		.uleb128 0x3
 14482 0324 0E       		.uleb128 0xe
 14483 0325 3A       		.uleb128 0x3a
 14484 0326 0B       		.uleb128 0xb
 14485 0327 3B       		.uleb128 0x3b
 14486 0328 0B       		.uleb128 0xb
 14487 0329 49       		.uleb128 0x49
 14488 032a 13       		.uleb128 0x13
 14489 032b 02       		.uleb128 0x2
 14490 032c 18       		.uleb128 0x18
 14491 032d 00       		.byte	0
 14492 032e 00       		.byte	0
 14493 032f 3F       		.uleb128 0x3f
 14494 0330 21       		.uleb128 0x21
 14495 0331 00       		.byte	0
 14496 0332 00       		.byte	0
 14497 0333 00       		.byte	0
 14498 0334 40       		.uleb128 0x40
 14499 0335 34       		.uleb128 0x34
 14500 0336 00       		.byte	0
 14501 0337 03       		.uleb128 0x3
 14502 0338 0E       		.uleb128 0xe
 14503 0339 3A       		.uleb128 0x3a
 14504 033a 0B       		.uleb128 0xb
 14505 033b 3B       		.uleb128 0x3b
 14506 033c 0B       		.uleb128 0xb
 14507 033d 49       		.uleb128 0x49
 14508 033e 13       		.uleb128 0x13
 14509 033f 3F       		.uleb128 0x3f
 14510 0340 19       		.uleb128 0x19
 14511 0341 3C       		.uleb128 0x3c
 14512 0342 19       		.uleb128 0x19
 14513 0343 00       		.byte	0
 14514 0344 00       		.byte	0
 14515 0345 41       		.uleb128 0x41
 14516 0346 34       		.uleb128 0x34
 14517 0347 00       		.byte	0
 14518 0348 03       		.uleb128 0x3
 14519 0349 0E       		.uleb128 0xe
 14520 034a 3A       		.uleb128 0x3a
ARM GAS  C:\Users\AHMED~1.ELE\AppData\Local\Temp\ccpjtoUe.s 			page 287


 14521 034b 0B       		.uleb128 0xb
 14522 034c 3B       		.uleb128 0x3b
 14523 034d 0B       		.uleb128 0xb
 14524 034e 49       		.uleb128 0x49
 14525 034f 13       		.uleb128 0x13
 14526 0350 3F       		.uleb128 0x3f
 14527 0351 19       		.uleb128 0x19
 14528 0352 02       		.uleb128 0x2
 14529 0353 18       		.uleb128 0x18
 14530 0354 00       		.byte	0
 14531 0355 00       		.byte	0
 14532 0356 42       		.uleb128 0x42
 14533 0357 2E       		.uleb128 0x2e
 14534 0358 01       		.byte	0x1
 14535 0359 3F       		.uleb128 0x3f
 14536 035a 19       		.uleb128 0x19
 14537 035b 03       		.uleb128 0x3
 14538 035c 0E       		.uleb128 0xe
 14539 035d 3A       		.uleb128 0x3a
 14540 035e 0B       		.uleb128 0xb
 14541 035f 3B       		.uleb128 0x3b
 14542 0360 0B       		.uleb128 0xb
 14543 0361 27       		.uleb128 0x27
 14544 0362 19       		.uleb128 0x19
 14545 0363 49       		.uleb128 0x49
 14546 0364 13       		.uleb128 0x13
 14547 0365 3C       		.uleb128 0x3c
 14548 0366 19       		.uleb128 0x19
 14549 0367 01       		.uleb128 0x1
 14550 0368 13       		.uleb128 0x13
 14551 0369 00       		.byte	0
 14552 036a 00       		.byte	0
 14553 036b 43       		.uleb128 0x43
 14554 036c 2E       		.uleb128 0x2e
 14555 036d 01       		.byte	0x1
 14556 036e 3F       		.uleb128 0x3f
 14557 036f 19       		.uleb128 0x19
 14558 0370 03       		.uleb128 0x3
 14559 0371 0E       		.uleb128 0xe
 14560 0372 27       		.uleb128 0x27
 14561 0373 19       		.uleb128 0x19
 14562 0374 49       		.uleb128 0x49
 14563 0375 13       		.uleb128 0x13
 14564 0376 34       		.uleb128 0x34
 14565 0377 19       		.uleb128 0x19
 14566 0378 3C       		.uleb128 0x3c
 14567 0379 19       		.uleb128 0x19
 14568 037a 01       		.uleb128 0x1
 14569 037b 13       		.uleb128 0x13
 14570 037c 00       		.byte	0
 14571 037d 00       		.byte	0
 14572 037e 44       		.uleb128 0x44
 14573 037f 2E       		.uleb128 0x2e
 14574 0380 01       		.byte	0x1
 14575 0381 3F       		.uleb128 0x3f
 14576 0382 19       		.uleb128 0x19
 14577 0383 03       		.uleb128 0x3
ARM GAS  C:\Users\AHMED~1.ELE\AppData\Local\Temp\ccpjtoUe.s 			page 288


 14578 0384 0E       		.uleb128 0xe
 14579 0385 3A       		.uleb128 0x3a
 14580 0386 0B       		.uleb128 0xb
 14581 0387 3B       		.uleb128 0x3b
 14582 0388 0B       		.uleb128 0xb
 14583 0389 27       		.uleb128 0x27
 14584 038a 19       		.uleb128 0x19
 14585 038b 3C       		.uleb128 0x3c
 14586 038c 19       		.uleb128 0x19
 14587 038d 01       		.uleb128 0x1
 14588 038e 13       		.uleb128 0x13
 14589 038f 00       		.byte	0
 14590 0390 00       		.byte	0
 14591 0391 45       		.uleb128 0x45
 14592 0392 2E       		.uleb128 0x2e
 14593 0393 01       		.byte	0x1
 14594 0394 3F       		.uleb128 0x3f
 14595 0395 19       		.uleb128 0x19
 14596 0396 03       		.uleb128 0x3
 14597 0397 0E       		.uleb128 0xe
 14598 0398 3A       		.uleb128 0x3a
 14599 0399 0B       		.uleb128 0xb
 14600 039a 3B       		.uleb128 0x3b
 14601 039b 05       		.uleb128 0x5
 14602 039c 27       		.uleb128 0x27
 14603 039d 19       		.uleb128 0x19
 14604 039e 49       		.uleb128 0x49
 14605 039f 13       		.uleb128 0x13
 14606 03a0 3C       		.uleb128 0x3c
 14607 03a1 19       		.uleb128 0x19
 14608 03a2 01       		.uleb128 0x1
 14609 03a3 13       		.uleb128 0x13
 14610 03a4 00       		.byte	0
 14611 03a5 00       		.byte	0
 14612 03a6 46       		.uleb128 0x46
 14613 03a7 18       		.uleb128 0x18
 14614 03a8 00       		.byte	0
 14615 03a9 00       		.byte	0
 14616 03aa 00       		.byte	0
 14617 03ab 47       		.uleb128 0x47
 14618 03ac 2E       		.uleb128 0x2e
 14619 03ad 01       		.byte	0x1
 14620 03ae 3F       		.uleb128 0x3f
 14621 03af 19       		.uleb128 0x19
 14622 03b0 03       		.uleb128 0x3
 14623 03b1 0E       		.uleb128 0xe
 14624 03b2 3A       		.uleb128 0x3a
 14625 03b3 0B       		.uleb128 0xb
 14626 03b4 3B       		.uleb128 0x3b
 14627 03b5 0B       		.uleb128 0xb
 14628 03b6 6E       		.uleb128 0x6e
 14629 03b7 0E       		.uleb128 0xe
 14630 03b8 27       		.uleb128 0x27
 14631 03b9 19       		.uleb128 0x19
 14632 03ba 49       		.uleb128 0x49
 14633 03bb 13       		.uleb128 0x13
 14634 03bc 3C       		.uleb128 0x3c
ARM GAS  C:\Users\AHMED~1.ELE\AppData\Local\Temp\ccpjtoUe.s 			page 289


 14635 03bd 19       		.uleb128 0x19
 14636 03be 01       		.uleb128 0x1
 14637 03bf 13       		.uleb128 0x13
 14638 03c0 00       		.byte	0
 14639 03c1 00       		.byte	0
 14640 03c2 48       		.uleb128 0x48
 14641 03c3 2E       		.uleb128 0x2e
 14642 03c4 00       		.byte	0
 14643 03c5 3F       		.uleb128 0x3f
 14644 03c6 19       		.uleb128 0x19
 14645 03c7 03       		.uleb128 0x3
 14646 03c8 0E       		.uleb128 0xe
 14647 03c9 3A       		.uleb128 0x3a
 14648 03ca 0B       		.uleb128 0xb
 14649 03cb 3B       		.uleb128 0x3b
 14650 03cc 0B       		.uleb128 0xb
 14651 03cd 27       		.uleb128 0x27
 14652 03ce 19       		.uleb128 0x19
 14653 03cf 3C       		.uleb128 0x3c
 14654 03d0 19       		.uleb128 0x19
 14655 03d1 00       		.byte	0
 14656 03d2 00       		.byte	0
 14657 03d3 49       		.uleb128 0x49
 14658 03d4 2E       		.uleb128 0x2e
 14659 03d5 00       		.byte	0
 14660 03d6 3F       		.uleb128 0x3f
 14661 03d7 19       		.uleb128 0x19
 14662 03d8 03       		.uleb128 0x3
 14663 03d9 0E       		.uleb128 0xe
 14664 03da 3A       		.uleb128 0x3a
 14665 03db 0B       		.uleb128 0xb
 14666 03dc 3B       		.uleb128 0x3b
 14667 03dd 0B       		.uleb128 0xb
 14668 03de 27       		.uleb128 0x27
 14669 03df 19       		.uleb128 0x19
 14670 03e0 49       		.uleb128 0x49
 14671 03e1 13       		.uleb128 0x13
 14672 03e2 3C       		.uleb128 0x3c
 14673 03e3 19       		.uleb128 0x19
 14674 03e4 00       		.byte	0
 14675 03e5 00       		.byte	0
 14676 03e6 00       		.byte	0
 14677              		.section	.debug_loc,"",%progbits
 14678              	.Ldebug_loc0:
 14679              	.LLST0:
 14680 0000 00000000 		.4byte	.LVL0
 14681 0004 10000000 		.4byte	.LVL1
 14682 0008 0100     		.2byte	0x1
 14683 000a 50       		.byte	0x50
 14684 000b 10000000 		.4byte	.LVL1
 14685 000f 20000000 		.4byte	.LVL3
 14686 0013 0100     		.2byte	0x1
 14687 0015 54       		.byte	0x54
 14688 0016 20000000 		.4byte	.LVL3
 14689 001a 24000000 		.4byte	.LVL5
 14690 001e 0300     		.2byte	0x3
 14691 0020 74       		.byte	0x74
ARM GAS  C:\Users\AHMED~1.ELE\AppData\Local\Temp\ccpjtoUe.s 			page 290


 14692 0021 78       		.sleb128 -8
 14693 0022 9F       		.byte	0x9f
 14694 0023 24000000 		.4byte	.LVL5
 14695 0027 44000000 		.4byte	.LFE0
 14696 002b 0100     		.2byte	0x1
 14697 002d 54       		.byte	0x54
 14698 002e 00000000 		.4byte	0
 14699 0032 00000000 		.4byte	0
 14700              	.LLST1:
 14701 0036 00000000 		.4byte	.LVL0
 14702 003a 10000000 		.4byte	.LVL1
 14703 003e 0100     		.2byte	0x1
 14704 0040 51       		.byte	0x51
 14705 0041 10000000 		.4byte	.LVL1
 14706 0045 44000000 		.4byte	.LFE0
 14707 0049 0100     		.2byte	0x1
 14708 004b 59       		.byte	0x59
 14709 004c 00000000 		.4byte	0
 14710 0050 00000000 		.4byte	0
 14711              	.LLST2:
 14712 0054 00000000 		.4byte	.LVL0
 14713 0058 10000000 		.4byte	.LVL1
 14714 005c 0100     		.2byte	0x1
 14715 005e 52       		.byte	0x52
 14716 005f 10000000 		.4byte	.LVL1
 14717 0063 44000000 		.4byte	.LFE0
 14718 0067 0100     		.2byte	0x1
 14719 0069 58       		.byte	0x58
 14720 006a 00000000 		.4byte	0
 14721 006e 00000000 		.4byte	0
 14722              	.LLST3:
 14723 0072 00000000 		.4byte	.LVL0
 14724 0076 10000000 		.4byte	.LVL1
 14725 007a 0100     		.2byte	0x1
 14726 007c 53       		.byte	0x53
 14727 007d 10000000 		.4byte	.LVL1
 14728 0081 44000000 		.4byte	.LFE0
 14729 0085 0100     		.2byte	0x1
 14730 0087 57       		.byte	0x57
 14731 0088 00000000 		.4byte	0
 14732 008c 00000000 		.4byte	0
 14733              	.LLST4:
 14734 0090 00000000 		.4byte	.LVL0
 14735 0094 38000000 		.4byte	.LVL6
 14736 0098 0200     		.2byte	0x2
 14737 009a 91       		.byte	0x91
 14738 009b 00       		.sleb128 0
 14739 009c 38000000 		.4byte	.LVL6
 14740 00a0 44000000 		.4byte	.LFE0
 14741 00a4 0200     		.2byte	0x2
 14742 00a6 91       		.byte	0x91
 14743 00a7 00       		.sleb128 0
 14744 00a8 00000000 		.4byte	0
 14745 00ac 00000000 		.4byte	0
 14746              	.LLST5:
 14747 00b0 00000000 		.4byte	.LVL0
 14748 00b4 10000000 		.4byte	.LVL1
ARM GAS  C:\Users\AHMED~1.ELE\AppData\Local\Temp\ccpjtoUe.s 			page 291


 14749 00b8 0200     		.2byte	0x2
 14750 00ba 30       		.byte	0x30
 14751 00bb 9F       		.byte	0x9f
 14752 00bc 10000000 		.4byte	.LVL1
 14753 00c0 22000000 		.4byte	.LVL4
 14754 00c4 0100     		.2byte	0x1
 14755 00c6 55       		.byte	0x55
 14756 00c7 24000000 		.4byte	.LVL5
 14757 00cb 44000000 		.4byte	.LFE0
 14758 00cf 0100     		.2byte	0x1
 14759 00d1 55       		.byte	0x55
 14760 00d2 00000000 		.4byte	0
 14761 00d6 00000000 		.4byte	0
 14762              	.LLST6:
 14763 00da 00000000 		.4byte	.LVL7
 14764 00de 08000000 		.4byte	.LVL8
 14765 00e2 0100     		.2byte	0x1
 14766 00e4 50       		.byte	0x50
 14767 00e5 08000000 		.4byte	.LVL8
 14768 00e9 D8000000 		.4byte	.LFE1
 14769 00ed 0100     		.2byte	0x1
 14770 00ef 54       		.byte	0x54
 14771 00f0 00000000 		.4byte	0
 14772 00f4 00000000 		.4byte	0
 14773              	.LLST7:
 14774 00f8 00000000 		.4byte	.LVL7
 14775 00fc 11000000 		.4byte	.LVL9-1
 14776 0100 0100     		.2byte	0x1
 14777 0102 51       		.byte	0x51
 14778 0103 11000000 		.4byte	.LVL9-1
 14779 0107 D8000000 		.4byte	.LFE1
 14780 010b 0400     		.2byte	0x4
 14781 010d F3       		.byte	0xf3
 14782 010e 01       		.uleb128 0x1
 14783 010f 51       		.byte	0x51
 14784 0110 9F       		.byte	0x9f
 14785 0111 00000000 		.4byte	0
 14786 0115 00000000 		.4byte	0
 14787              	.LLST8:
 14788 0119 00000000 		.4byte	.LVL7
 14789 011d 11000000 		.4byte	.LVL9-1
 14790 0121 0100     		.2byte	0x1
 14791 0123 52       		.byte	0x52
 14792 0124 11000000 		.4byte	.LVL9-1
 14793 0128 D8000000 		.4byte	.LFE1
 14794 012c 0400     		.2byte	0x4
 14795 012e F3       		.byte	0xf3
 14796 012f 01       		.uleb128 0x1
 14797 0130 52       		.byte	0x52
 14798 0131 9F       		.byte	0x9f
 14799 0132 00000000 		.4byte	0
 14800 0136 00000000 		.4byte	0
 14801              	.LLST9:
 14802 013a 00000000 		.4byte	.LVL7
 14803 013e 11000000 		.4byte	.LVL9-1
 14804 0142 0100     		.2byte	0x1
 14805 0144 53       		.byte	0x53
ARM GAS  C:\Users\AHMED~1.ELE\AppData\Local\Temp\ccpjtoUe.s 			page 292


 14806 0145 11000000 		.4byte	.LVL9-1
 14807 0149 D8000000 		.4byte	.LFE1
 14808 014d 0100     		.2byte	0x1
 14809 014f 57       		.byte	0x57
 14810 0150 00000000 		.4byte	0
 14811 0154 00000000 		.4byte	0
 14812              	.LLST10:
 14813 0158 00000000 		.4byte	.LVL7
 14814 015c 32000000 		.4byte	.LVL13
 14815 0160 0200     		.2byte	0x2
 14816 0162 30       		.byte	0x30
 14817 0163 9F       		.byte	0x9f
 14818 0164 38000000 		.4byte	.LVL14
 14819 0168 70000000 		.4byte	.LVL16
 14820 016c 0200     		.2byte	0x2
 14821 016e 30       		.byte	0x30
 14822 016f 9F       		.byte	0x9f
 14823 0170 70000000 		.4byte	.LVL16
 14824 0174 A4000000 		.4byte	.LVL21
 14825 0178 0500     		.2byte	0x5
 14826 017a 78       		.byte	0x78
 14827 017b 00       		.sleb128 0
 14828 017c 31       		.byte	0x31
 14829 017d 1A       		.byte	0x1a
 14830 017e 9F       		.byte	0x9f
 14831 017f A4000000 		.4byte	.LVL21
 14832 0183 D8000000 		.4byte	.LFE1
 14833 0187 0200     		.2byte	0x2
 14834 0189 30       		.byte	0x30
 14835 018a 9F       		.byte	0x9f
 14836 018b 00000000 		.4byte	0
 14837 018f 00000000 		.4byte	0
 14838              	.LLST11:
 14839 0193 B4000000 		.4byte	.LVL22
 14840 0197 C4000000 		.4byte	.LVL23
 14841 019b 0600     		.2byte	0x6
 14842 019d 50       		.byte	0x50
 14843 019e 93       		.byte	0x93
 14844 019f 04       		.uleb128 0x4
 14845 01a0 51       		.byte	0x51
 14846 01a1 93       		.byte	0x93
 14847 01a2 04       		.uleb128 0x4
 14848 01a3 00000000 		.4byte	0
 14849 01a7 00000000 		.4byte	0
 14850              	.LLST12:
 14851 01ab 16000000 		.4byte	.LVL10
 14852 01af 18000000 		.4byte	.LVL11
 14853 01b3 0100     		.2byte	0x1
 14854 01b5 58       		.byte	0x58
 14855 01b6 18000000 		.4byte	.LVL11
 14856 01ba 32000000 		.4byte	.LVL13
 14857 01be 1600     		.2byte	0x16
 14858 01c0 78       		.byte	0x78
 14859 01c1 00       		.sleb128 0
 14860 01c2 12       		.byte	0x12
 14861 01c3 0A       		.byte	0xa
 14862 01c4 FFFF     		.2byte	0xffff
ARM GAS  C:\Users\AHMED~1.ELE\AppData\Local\Temp\ccpjtoUe.s 			page 293


 14863 01c6 1A       		.byte	0x1a
 14864 01c7 76       		.byte	0x76
 14865 01c8 00       		.sleb128 0
 14866 01c9 16       		.byte	0x16
 14867 01ca 14       		.byte	0x14
 14868 01cb 0A       		.byte	0xa
 14869 01cc FFFF     		.2byte	0xffff
 14870 01ce 1A       		.byte	0x1a
 14871 01cf 2D       		.byte	0x2d
 14872 01d0 28       		.byte	0x28
 14873 01d1 0100     		.2byte	0x1
 14874 01d3 16       		.byte	0x16
 14875 01d4 13       		.byte	0x13
 14876 01d5 9F       		.byte	0x9f
 14877 01d6 38000000 		.4byte	.LVL14
 14878 01da 74000000 		.4byte	.LVL17
 14879 01de 0100     		.2byte	0x1
 14880 01e0 58       		.byte	0x58
 14881 01e1 74000000 		.4byte	.LVL17
 14882 01e5 A4000000 		.4byte	.LVL21
 14883 01e9 0100     		.2byte	0x1
 14884 01eb 55       		.byte	0x55
 14885 01ec A4000000 		.4byte	.LVL21
 14886 01f0 D8000000 		.4byte	.LFE1
 14887 01f4 0100     		.2byte	0x1
 14888 01f6 58       		.byte	0x58
 14889 01f7 00000000 		.4byte	0
 14890 01fb 00000000 		.4byte	0
 14891              	.LLST13:
 14892 01ff 00000000 		.4byte	.LVL24
 14893 0203 0C000000 		.4byte	.LVL26
 14894 0207 0100     		.2byte	0x1
 14895 0209 50       		.byte	0x50
 14896 020a 0C000000 		.4byte	.LVL26
 14897 020e EC000000 		.4byte	.LVL51
 14898 0212 0100     		.2byte	0x1
 14899 0214 54       		.byte	0x54
 14900 0215 EC000000 		.4byte	.LVL51
 14901 0219 10010000 		.4byte	.LFE2
 14902 021d 0400     		.2byte	0x4
 14903 021f F3       		.byte	0xf3
 14904 0220 01       		.uleb128 0x1
 14905 0221 50       		.byte	0x50
 14906 0222 9F       		.byte	0x9f
 14907 0223 00000000 		.4byte	0
 14908 0227 00000000 		.4byte	0
 14909              	.LLST14:
 14910 022b 00000000 		.4byte	.LVL24
 14911 022f 0C000000 		.4byte	.LVL26
 14912 0233 0100     		.2byte	0x1
 14913 0235 51       		.byte	0x51
 14914 0236 0C000000 		.4byte	.LVL26
 14915 023a 1A000000 		.4byte	.LVL28
 14916 023e 0300     		.2byte	0x3
 14917 0240 77       		.byte	0x77
 14918 0241 78       		.sleb128 -8
 14919 0242 9F       		.byte	0x9f
ARM GAS  C:\Users\AHMED~1.ELE\AppData\Local\Temp\ccpjtoUe.s 			page 294


 14920 0243 1A000000 		.4byte	.LVL28
 14921 0247 20000000 		.4byte	.LVL29
 14922 024b 0300     		.2byte	0x3
 14923 024d 77       		.byte	0x77
 14924 024e 70       		.sleb128 -16
 14925 024f 9F       		.byte	0x9f
 14926 0250 20000000 		.4byte	.LVL29
 14927 0254 22000000 		.4byte	.LVL30
 14928 0258 0300     		.2byte	0x3
 14929 025a 77       		.byte	0x77
 14930 025b 78       		.sleb128 -8
 14931 025c 9F       		.byte	0x9f
 14932 025d 22000000 		.4byte	.LVL30
 14933 0261 EC000000 		.4byte	.LVL51
 14934 0265 0300     		.2byte	0x3
 14935 0267 77       		.byte	0x77
 14936 0268 70       		.sleb128 -16
 14937 0269 9F       		.byte	0x9f
 14938 026a 00000000 		.4byte	0
 14939 026e 00000000 		.4byte	0
 14940              	.LLST15:
 14941 0272 00000000 		.4byte	.LVL24
 14942 0276 0C000000 		.4byte	.LVL26
 14943 027a 0100     		.2byte	0x1
 14944 027c 52       		.byte	0x52
 14945 027d 0C000000 		.4byte	.LVL26
 14946 0281 EC000000 		.4byte	.LVL51
 14947 0285 0100     		.2byte	0x1
 14948 0287 56       		.byte	0x56
 14949 0288 EC000000 		.4byte	.LVL51
 14950 028c 10010000 		.4byte	.LFE2
 14951 0290 0400     		.2byte	0x4
 14952 0292 F3       		.byte	0xf3
 14953 0293 01       		.uleb128 0x1
 14954 0294 52       		.byte	0x52
 14955 0295 9F       		.byte	0x9f
 14956 0296 00000000 		.4byte	0
 14957 029a 00000000 		.4byte	0
 14958              	.LLST16:
 14959 029e 00000000 		.4byte	.LVL24
 14960 02a2 0C000000 		.4byte	.LVL26
 14961 02a6 0100     		.2byte	0x1
 14962 02a8 53       		.byte	0x53
 14963 02a9 0C000000 		.4byte	.LVL26
 14964 02ad E4000000 		.4byte	.LVL49
 14965 02b1 0100     		.2byte	0x1
 14966 02b3 55       		.byte	0x55
 14967 02b4 E4000000 		.4byte	.LVL49
 14968 02b8 E7000000 		.4byte	.LVL50-1
 14969 02bc 0100     		.2byte	0x1
 14970 02be 51       		.byte	0x51
 14971 02bf E7000000 		.4byte	.LVL50-1
 14972 02c3 EC000000 		.4byte	.LVL51
 14973 02c7 0100     		.2byte	0x1
 14974 02c9 55       		.byte	0x55
 14975 02ca EC000000 		.4byte	.LVL51
 14976 02ce 10010000 		.4byte	.LFE2
ARM GAS  C:\Users\AHMED~1.ELE\AppData\Local\Temp\ccpjtoUe.s 			page 295


 14977 02d2 0400     		.2byte	0x4
 14978 02d4 F3       		.byte	0xf3
 14979 02d5 01       		.uleb128 0x1
 14980 02d6 53       		.byte	0x53
 14981 02d7 9F       		.byte	0x9f
 14982 02d8 00000000 		.4byte	0
 14983 02dc 00000000 		.4byte	0
 14984              	.LLST17:
 14985 02e0 04000000 		.4byte	.LVL25
 14986 02e4 0C000000 		.4byte	.LVL26
 14987 02e8 0200     		.2byte	0x2
 14988 02ea 30       		.byte	0x30
 14989 02eb 9F       		.byte	0x9f
 14990 02ec 00000000 		.4byte	0
 14991 02f0 00000000 		.4byte	0
 14992              	.LLST18:
 14993 02f4 42000000 		.4byte	.LVL33
 14994 02f8 E4000000 		.4byte	.LVL49
 14995 02fc 0400     		.2byte	0x4
 14996 02fe F3       		.byte	0xf3
 14997 02ff 01       		.uleb128 0x1
 14998 0300 51       		.byte	0x51
 14999 0301 9F       		.byte	0x9f
 15000 0302 00000000 		.4byte	0
 15001 0306 00000000 		.4byte	0
 15002              	.LLST19:
 15003 030a 42000000 		.4byte	.LVL33
 15004 030e E4000000 		.4byte	.LVL49
 15005 0312 0100     		.2byte	0x1
 15006 0314 55       		.byte	0x55
 15007 0315 00000000 		.4byte	0
 15008 0319 00000000 		.4byte	0
 15009              	.LLST20:
 15010 031d 42000000 		.4byte	.LVL33
 15011 0321 E4000000 		.4byte	.LVL49
 15012 0325 0100     		.2byte	0x1
 15013 0327 56       		.byte	0x56
 15014 0328 00000000 		.4byte	0
 15015 032c 00000000 		.4byte	0
 15016              	.LLST21:
 15017 0330 42000000 		.4byte	.LVL33
 15018 0334 E4000000 		.4byte	.LVL49
 15019 0338 0100     		.2byte	0x1
 15020 033a 54       		.byte	0x54
 15021 033b 00000000 		.4byte	0
 15022 033f 00000000 		.4byte	0
 15023              	.LLST22:
 15024 0343 52000000 		.4byte	.LVL35
 15025 0347 60000000 		.4byte	.LVL36
 15026 034b 0100     		.2byte	0x1
 15027 034d 50       		.byte	0x50
 15028 034e 76000000 		.4byte	.LVL38
 15029 0352 7A000000 		.4byte	.LVL39
 15030 0356 0100     		.2byte	0x1
 15031 0358 50       		.byte	0x50
 15032 0359 8A000000 		.4byte	.LVL41
 15033 035d 8E000000 		.4byte	.LVL42
ARM GAS  C:\Users\AHMED~1.ELE\AppData\Local\Temp\ccpjtoUe.s 			page 296


 15034 0361 0100     		.2byte	0x1
 15035 0363 50       		.byte	0x50
 15036 0364 00000000 		.4byte	0
 15037 0368 00000000 		.4byte	0
 15038              	.LLST23:
 15039 036c D6000000 		.4byte	.LVL48
 15040 0370 E4000000 		.4byte	.LVL49
 15041 0374 1700     		.2byte	0x17
 15042 0376 72       		.byte	0x72
 15043 0377 00       		.sleb128 0
 15044 0378 12       		.byte	0x12
 15045 0379 40       		.byte	0x40
 15046 037a 4B       		.byte	0x4b
 15047 037b 24       		.byte	0x24
 15048 037c 22       		.byte	0x22
 15049 037d 0A       		.byte	0xa
 15050 037e 0002     		.2byte	0x200
 15051 0380 16       		.byte	0x16
 15052 0381 14       		.byte	0x14
 15053 0382 40       		.byte	0x40
 15054 0383 4B       		.byte	0x4b
 15055 0384 24       		.byte	0x24
 15056 0385 22       		.byte	0x22
 15057 0386 2D       		.byte	0x2d
 15058 0387 28       		.byte	0x28
 15059 0388 0100     		.2byte	0x1
 15060 038a 16       		.byte	0x16
 15061 038b 13       		.byte	0x13
 15062 038c 9F       		.byte	0x9f
 15063 038d 00000000 		.4byte	0
 15064 0391 00000000 		.4byte	0
 15065              	.LLST24:
 15066 0395 00000000 		.4byte	.LVL52
 15067 0399 0C000000 		.4byte	.LVL54
 15068 039d 0100     		.2byte	0x1
 15069 039f 50       		.byte	0x50
 15070 03a0 0C000000 		.4byte	.LVL54
 15071 03a4 EC000000 		.4byte	.LVL79
 15072 03a8 0100     		.2byte	0x1
 15073 03aa 54       		.byte	0x54
 15074 03ab EC000000 		.4byte	.LVL79
 15075 03af 10010000 		.4byte	.LFE3
 15076 03b3 0400     		.2byte	0x4
 15077 03b5 F3       		.byte	0xf3
 15078 03b6 01       		.uleb128 0x1
 15079 03b7 50       		.byte	0x50
 15080 03b8 9F       		.byte	0x9f
 15081 03b9 00000000 		.4byte	0
 15082 03bd 00000000 		.4byte	0
 15083              	.LLST25:
 15084 03c1 00000000 		.4byte	.LVL52
 15085 03c5 0C000000 		.4byte	.LVL54
 15086 03c9 0100     		.2byte	0x1
 15087 03cb 51       		.byte	0x51
 15088 03cc 0C000000 		.4byte	.LVL54
 15089 03d0 1A000000 		.4byte	.LVL56
 15090 03d4 0300     		.2byte	0x3
ARM GAS  C:\Users\AHMED~1.ELE\AppData\Local\Temp\ccpjtoUe.s 			page 297


 15091 03d6 77       		.byte	0x77
 15092 03d7 78       		.sleb128 -8
 15093 03d8 9F       		.byte	0x9f
 15094 03d9 1A000000 		.4byte	.LVL56
 15095 03dd 20000000 		.4byte	.LVL57
 15096 03e1 0300     		.2byte	0x3
 15097 03e3 77       		.byte	0x77
 15098 03e4 70       		.sleb128 -16
 15099 03e5 9F       		.byte	0x9f
 15100 03e6 20000000 		.4byte	.LVL57
 15101 03ea 22000000 		.4byte	.LVL58
 15102 03ee 0300     		.2byte	0x3
 15103 03f0 77       		.byte	0x77
 15104 03f1 78       		.sleb128 -8
 15105 03f2 9F       		.byte	0x9f
 15106 03f3 22000000 		.4byte	.LVL58
 15107 03f7 EC000000 		.4byte	.LVL79
 15108 03fb 0300     		.2byte	0x3
 15109 03fd 77       		.byte	0x77
 15110 03fe 70       		.sleb128 -16
 15111 03ff 9F       		.byte	0x9f
 15112 0400 00000000 		.4byte	0
 15113 0404 00000000 		.4byte	0
 15114              	.LLST26:
 15115 0408 00000000 		.4byte	.LVL52
 15116 040c 0C000000 		.4byte	.LVL54
 15117 0410 0100     		.2byte	0x1
 15118 0412 52       		.byte	0x52
 15119 0413 0C000000 		.4byte	.LVL54
 15120 0417 EC000000 		.4byte	.LVL79
 15121 041b 0100     		.2byte	0x1
 15122 041d 56       		.byte	0x56
 15123 041e EC000000 		.4byte	.LVL79
 15124 0422 10010000 		.4byte	.LFE3
 15125 0426 0400     		.2byte	0x4
 15126 0428 F3       		.byte	0xf3
 15127 0429 01       		.uleb128 0x1
 15128 042a 52       		.byte	0x52
 15129 042b 9F       		.byte	0x9f
 15130 042c 00000000 		.4byte	0
 15131 0430 00000000 		.4byte	0
 15132              	.LLST27:
 15133 0434 00000000 		.4byte	.LVL52
 15134 0438 0C000000 		.4byte	.LVL54
 15135 043c 0100     		.2byte	0x1
 15136 043e 53       		.byte	0x53
 15137 043f 0C000000 		.4byte	.LVL54
 15138 0443 E4000000 		.4byte	.LVL77
 15139 0447 0100     		.2byte	0x1
 15140 0449 55       		.byte	0x55
 15141 044a E4000000 		.4byte	.LVL77
 15142 044e E7000000 		.4byte	.LVL78-1
 15143 0452 0100     		.2byte	0x1
 15144 0454 51       		.byte	0x51
 15145 0455 E7000000 		.4byte	.LVL78-1
 15146 0459 EC000000 		.4byte	.LVL79
 15147 045d 0100     		.2byte	0x1
ARM GAS  C:\Users\AHMED~1.ELE\AppData\Local\Temp\ccpjtoUe.s 			page 298


 15148 045f 55       		.byte	0x55
 15149 0460 EC000000 		.4byte	.LVL79
 15150 0464 10010000 		.4byte	.LFE3
 15151 0468 0400     		.2byte	0x4
 15152 046a F3       		.byte	0xf3
 15153 046b 01       		.uleb128 0x1
 15154 046c 53       		.byte	0x53
 15155 046d 9F       		.byte	0x9f
 15156 046e 00000000 		.4byte	0
 15157 0472 00000000 		.4byte	0
 15158              	.LLST28:
 15159 0476 04000000 		.4byte	.LVL53
 15160 047a 0C000000 		.4byte	.LVL54
 15161 047e 0200     		.2byte	0x2
 15162 0480 30       		.byte	0x30
 15163 0481 9F       		.byte	0x9f
 15164 0482 00000000 		.4byte	0
 15165 0486 00000000 		.4byte	0
 15166              	.LLST29:
 15167 048a 42000000 		.4byte	.LVL61
 15168 048e E4000000 		.4byte	.LVL77
 15169 0492 0400     		.2byte	0x4
 15170 0494 F3       		.byte	0xf3
 15171 0495 01       		.uleb128 0x1
 15172 0496 51       		.byte	0x51
 15173 0497 9F       		.byte	0x9f
 15174 0498 00000000 		.4byte	0
 15175 049c 00000000 		.4byte	0
 15176              	.LLST30:
 15177 04a0 42000000 		.4byte	.LVL61
 15178 04a4 E4000000 		.4byte	.LVL77
 15179 04a8 0100     		.2byte	0x1
 15180 04aa 55       		.byte	0x55
 15181 04ab 00000000 		.4byte	0
 15182 04af 00000000 		.4byte	0
 15183              	.LLST31:
 15184 04b3 42000000 		.4byte	.LVL61
 15185 04b7 E4000000 		.4byte	.LVL77
 15186 04bb 0100     		.2byte	0x1
 15187 04bd 56       		.byte	0x56
 15188 04be 00000000 		.4byte	0
 15189 04c2 00000000 		.4byte	0
 15190              	.LLST32:
 15191 04c6 42000000 		.4byte	.LVL61
 15192 04ca E4000000 		.4byte	.LVL77
 15193 04ce 0100     		.2byte	0x1
 15194 04d0 54       		.byte	0x54
 15195 04d1 00000000 		.4byte	0
 15196 04d5 00000000 		.4byte	0
 15197              	.LLST33:
 15198 04d9 52000000 		.4byte	.LVL63
 15199 04dd 60000000 		.4byte	.LVL64
 15200 04e1 0100     		.2byte	0x1
 15201 04e3 50       		.byte	0x50
 15202 04e4 76000000 		.4byte	.LVL66
 15203 04e8 7A000000 		.4byte	.LVL67
 15204 04ec 0100     		.2byte	0x1
ARM GAS  C:\Users\AHMED~1.ELE\AppData\Local\Temp\ccpjtoUe.s 			page 299


 15205 04ee 50       		.byte	0x50
 15206 04ef 8A000000 		.4byte	.LVL69
 15207 04f3 8E000000 		.4byte	.LVL70
 15208 04f7 0100     		.2byte	0x1
 15209 04f9 50       		.byte	0x50
 15210 04fa 00000000 		.4byte	0
 15211 04fe 00000000 		.4byte	0
 15212              	.LLST34:
 15213 0502 D6000000 		.4byte	.LVL76
 15214 0506 E4000000 		.4byte	.LVL77
 15215 050a 1700     		.2byte	0x17
 15216 050c 72       		.byte	0x72
 15217 050d 00       		.sleb128 0
 15218 050e 12       		.byte	0x12
 15219 050f 40       		.byte	0x40
 15220 0510 4B       		.byte	0x4b
 15221 0511 24       		.byte	0x24
 15222 0512 22       		.byte	0x22
 15223 0513 0A       		.byte	0xa
 15224 0514 0002     		.2byte	0x200
 15225 0516 16       		.byte	0x16
 15226 0517 14       		.byte	0x14
 15227 0518 40       		.byte	0x40
 15228 0519 4B       		.byte	0x4b
 15229 051a 24       		.byte	0x24
 15230 051b 22       		.byte	0x22
 15231 051c 2D       		.byte	0x2d
 15232 051d 28       		.byte	0x28
 15233 051e 0100     		.2byte	0x1
 15234 0520 16       		.byte	0x16
 15235 0521 13       		.byte	0x13
 15236 0522 9F       		.byte	0x9f
 15237 0523 00000000 		.4byte	0
 15238 0527 00000000 		.4byte	0
 15239              	.LLST35:
 15240 052b 00000000 		.4byte	.LVL80
 15241 052f 0E000000 		.4byte	.LVL82
 15242 0533 0100     		.2byte	0x1
 15243 0535 50       		.byte	0x50
 15244 0536 0E000000 		.4byte	.LVL82
 15245 053a EC000000 		.4byte	.LVL104
 15246 053e 0100     		.2byte	0x1
 15247 0540 56       		.byte	0x56
 15248 0541 EC000000 		.4byte	.LVL104
 15249 0545 0C010000 		.4byte	.LFE4
 15250 0549 0400     		.2byte	0x4
 15251 054b F3       		.byte	0xf3
 15252 054c 01       		.uleb128 0x1
 15253 054d 50       		.byte	0x50
 15254 054e 9F       		.byte	0x9f
 15255 054f 00000000 		.4byte	0
 15256 0553 00000000 		.4byte	0
 15257              	.LLST36:
 15258 0557 00000000 		.4byte	.LVL80
 15259 055b 0E000000 		.4byte	.LVL82
 15260 055f 0100     		.2byte	0x1
 15261 0561 51       		.byte	0x51
ARM GAS  C:\Users\AHMED~1.ELE\AppData\Local\Temp\ccpjtoUe.s 			page 300


 15262 0562 0E000000 		.4byte	.LVL82
 15263 0566 1E000000 		.4byte	.LVL84
 15264 056a 0300     		.2byte	0x3
 15265 056c 77       		.byte	0x77
 15266 056d 78       		.sleb128 -8
 15267 056e 9F       		.byte	0x9f
 15268 056f 1E000000 		.4byte	.LVL84
 15269 0573 E8000000 		.4byte	.LVL103
 15270 0577 0300     		.2byte	0x3
 15271 0579 77       		.byte	0x77
 15272 057a 70       		.sleb128 -16
 15273 057b 9F       		.byte	0x9f
 15274 057c 00000000 		.4byte	0
 15275 0580 00000000 		.4byte	0
 15276              	.LLST37:
 15277 0584 00000000 		.4byte	.LVL80
 15278 0588 0E000000 		.4byte	.LVL82
 15279 058c 0100     		.2byte	0x1
 15280 058e 52       		.byte	0x52
 15281 058f 0E000000 		.4byte	.LVL82
 15282 0593 EC000000 		.4byte	.LVL104
 15283 0597 0100     		.2byte	0x1
 15284 0599 55       		.byte	0x55
 15285 059a EC000000 		.4byte	.LVL104
 15286 059e 0C010000 		.4byte	.LFE4
 15287 05a2 0400     		.2byte	0x4
 15288 05a4 F3       		.byte	0xf3
 15289 05a5 01       		.uleb128 0x1
 15290 05a6 52       		.byte	0x52
 15291 05a7 9F       		.byte	0x9f
 15292 05a8 00000000 		.4byte	0
 15293 05ac 00000000 		.4byte	0
 15294              	.LLST38:
 15295 05b0 00000000 		.4byte	.LVL80
 15296 05b4 0E000000 		.4byte	.LVL82
 15297 05b8 0100     		.2byte	0x1
 15298 05ba 53       		.byte	0x53
 15299 05bb 0E000000 		.4byte	.LVL82
 15300 05bf E2000000 		.4byte	.LVL101
 15301 05c3 0100     		.2byte	0x1
 15302 05c5 54       		.byte	0x54
 15303 05c6 E2000000 		.4byte	.LVL101
 15304 05ca E5000000 		.4byte	.LVL102-1
 15305 05ce 0100     		.2byte	0x1
 15306 05d0 51       		.byte	0x51
 15307 05d1 E5000000 		.4byte	.LVL102-1
 15308 05d5 EC000000 		.4byte	.LVL104
 15309 05d9 0100     		.2byte	0x1
 15310 05db 54       		.byte	0x54
 15311 05dc EC000000 		.4byte	.LVL104
 15312 05e0 0C010000 		.4byte	.LFE4
 15313 05e4 0400     		.2byte	0x4
 15314 05e6 F3       		.byte	0xf3
 15315 05e7 01       		.uleb128 0x1
 15316 05e8 53       		.byte	0x53
 15317 05e9 9F       		.byte	0x9f
 15318 05ea 00000000 		.4byte	0
ARM GAS  C:\Users\AHMED~1.ELE\AppData\Local\Temp\ccpjtoUe.s 			page 301


 15319 05ee 00000000 		.4byte	0
 15320              	.LLST39:
 15321 05f2 04000000 		.4byte	.LVL81
 15322 05f6 0E000000 		.4byte	.LVL82
 15323 05fa 0200     		.2byte	0x2
 15324 05fc 30       		.byte	0x30
 15325 05fd 9F       		.byte	0x9f
 15326 05fe 00000000 		.4byte	0
 15327 0602 00000000 		.4byte	0
 15328              	.LLST40:
 15329 0606 42000000 		.4byte	.LVL87
 15330 060a DE000000 		.4byte	.LVL100
 15331 060e 0400     		.2byte	0x4
 15332 0610 F3       		.byte	0xf3
 15333 0611 01       		.uleb128 0x1
 15334 0612 51       		.byte	0x51
 15335 0613 9F       		.byte	0x9f
 15336 0614 00000000 		.4byte	0
 15337 0618 00000000 		.4byte	0
 15338              	.LLST41:
 15339 061c 42000000 		.4byte	.LVL87
 15340 0620 DE000000 		.4byte	.LVL100
 15341 0624 0100     		.2byte	0x1
 15342 0626 54       		.byte	0x54
 15343 0627 00000000 		.4byte	0
 15344 062b 00000000 		.4byte	0
 15345              	.LLST42:
 15346 062f 42000000 		.4byte	.LVL87
 15347 0633 DE000000 		.4byte	.LVL100
 15348 0637 0100     		.2byte	0x1
 15349 0639 55       		.byte	0x55
 15350 063a 00000000 		.4byte	0
 15351 063e 00000000 		.4byte	0
 15352              	.LLST43:
 15353 0642 42000000 		.4byte	.LVL87
 15354 0646 DE000000 		.4byte	.LVL100
 15355 064a 0100     		.2byte	0x1
 15356 064c 56       		.byte	0x56
 15357 064d 00000000 		.4byte	0
 15358 0651 00000000 		.4byte	0
 15359              	.LLST44:
 15360 0655 86000000 		.4byte	.LVL91
 15361 0659 8A000000 		.4byte	.LVL92
 15362 065d 0100     		.2byte	0x1
 15363 065f 50       		.byte	0x50
 15364 0660 00000000 		.4byte	0
 15365 0664 00000000 		.4byte	0
 15366              	.LLST45:
 15367 0668 9E000000 		.4byte	.LVL95
 15368 066c AC000000 		.4byte	.LVL96
 15369 0670 1700     		.2byte	0x17
 15370 0672 72       		.byte	0x72
 15371 0673 00       		.sleb128 0
 15372 0674 12       		.byte	0x12
 15373 0675 40       		.byte	0x40
 15374 0676 4B       		.byte	0x4b
 15375 0677 24       		.byte	0x24
ARM GAS  C:\Users\AHMED~1.ELE\AppData\Local\Temp\ccpjtoUe.s 			page 302


 15376 0678 22       		.byte	0x22
 15377 0679 0A       		.byte	0xa
 15378 067a 0001     		.2byte	0x100
 15379 067c 16       		.byte	0x16
 15380 067d 14       		.byte	0x14
 15381 067e 40       		.byte	0x40
 15382 067f 4B       		.byte	0x4b
 15383 0680 24       		.byte	0x24
 15384 0681 22       		.byte	0x22
 15385 0682 2D       		.byte	0x2d
 15386 0683 28       		.byte	0x28
 15387 0684 0100     		.2byte	0x1
 15388 0686 16       		.byte	0x16
 15389 0687 13       		.byte	0x13
 15390 0688 9F       		.byte	0x9f
 15391 0689 00000000 		.4byte	0
 15392 068d 00000000 		.4byte	0
 15393              	.LLST46:
 15394 0691 00000000 		.4byte	.LVL105
 15395 0695 0A000000 		.4byte	.LVL106
 15396 0699 0100     		.2byte	0x1
 15397 069b 50       		.byte	0x50
 15398 069c 0A000000 		.4byte	.LVL106
 15399 06a0 9C000000 		.4byte	.LVL127
 15400 06a4 0100     		.2byte	0x1
 15401 06a6 57       		.byte	0x57
 15402 06a7 9C000000 		.4byte	.LVL127
 15403 06ab A0000000 		.4byte	.LFE5
 15404 06af 0400     		.2byte	0x4
 15405 06b1 F3       		.byte	0xf3
 15406 06b2 01       		.uleb128 0x1
 15407 06b3 50       		.byte	0x50
 15408 06b4 9F       		.byte	0x9f
 15409 06b5 00000000 		.4byte	0
 15410 06b9 00000000 		.4byte	0
 15411              	.LLST47:
 15412 06bd 00000000 		.4byte	.LVL105
 15413 06c1 0E000000 		.4byte	.LVL107
 15414 06c5 0100     		.2byte	0x1
 15415 06c7 51       		.byte	0x51
 15416 06c8 0E000000 		.4byte	.LVL107
 15417 06cc 3E000000 		.4byte	.LVL114
 15418 06d0 0100     		.2byte	0x1
 15419 06d2 56       		.byte	0x56
 15420 06d3 3E000000 		.4byte	.LVL114
 15421 06d7 46000000 		.4byte	.LVL115
 15422 06db 0100     		.2byte	0x1
 15423 06dd 50       		.byte	0x50
 15424 06de 46000000 		.4byte	.LVL115
 15425 06e2 4A000000 		.4byte	.LVL116
 15426 06e6 0100     		.2byte	0x1
 15427 06e8 55       		.byte	0x55
 15428 06e9 4A000000 		.4byte	.LVL116
 15429 06ed 4D000000 		.4byte	.LVL117-1
 15430 06f1 0100     		.2byte	0x1
 15431 06f3 50       		.byte	0x50
 15432 06f4 4D000000 		.4byte	.LVL117-1
ARM GAS  C:\Users\AHMED~1.ELE\AppData\Local\Temp\ccpjtoUe.s 			page 303


 15433 06f8 82000000 		.4byte	.LVL121
 15434 06fc 0100     		.2byte	0x1
 15435 06fe 55       		.byte	0x55
 15436 06ff 82000000 		.4byte	.LVL121
 15437 0703 84000000 		.4byte	.LVL122
 15438 0707 0100     		.2byte	0x1
 15439 0709 50       		.byte	0x50
 15440 070a 84000000 		.4byte	.LVL122
 15441 070e 9C000000 		.4byte	.LVL127
 15442 0712 0100     		.2byte	0x1
 15443 0714 56       		.byte	0x56
 15444 0715 00000000 		.4byte	0
 15445 0719 00000000 		.4byte	0
 15446              	.LLST48:
 15447 071d 00000000 		.4byte	.LVL105
 15448 0721 11000000 		.4byte	.LVL108-1
 15449 0725 0100     		.2byte	0x1
 15450 0727 52       		.byte	0x52
 15451 0728 11000000 		.4byte	.LVL108-1
 15452 072c A0000000 		.4byte	.LFE5
 15453 0730 0400     		.2byte	0x4
 15454 0732 F3       		.byte	0xf3
 15455 0733 01       		.uleb128 0x1
 15456 0734 52       		.byte	0x52
 15457 0735 9F       		.byte	0x9f
 15458 0736 00000000 		.4byte	0
 15459 073a 00000000 		.4byte	0
 15460              	.LLST49:
 15461 073e 4E000000 		.4byte	.LVL117
 15462 0742 5A000000 		.4byte	.LVL118
 15463 0746 0100     		.2byte	0x1
 15464 0748 50       		.byte	0x50
 15465 0749 5A000000 		.4byte	.LVL118
 15466 074d 82000000 		.4byte	.LVL121
 15467 0751 0100     		.2byte	0x1
 15468 0753 56       		.byte	0x56
 15469 0754 00000000 		.4byte	0
 15470 0758 00000000 		.4byte	0
 15471              	.LLST50:
 15472 075c 3C000000 		.4byte	.LVL113
 15473 0760 46000000 		.4byte	.LVL115
 15474 0764 0100     		.2byte	0x1
 15475 0766 50       		.byte	0x50
 15476 0767 46000000 		.4byte	.LVL115
 15477 076b 4A000000 		.4byte	.LVL116
 15478 076f 0100     		.2byte	0x1
 15479 0771 55       		.byte	0x55
 15480 0772 4A000000 		.4byte	.LVL116
 15481 0776 4D000000 		.4byte	.LVL117-1
 15482 077a 0100     		.2byte	0x1
 15483 077c 50       		.byte	0x50
 15484 077d 4D000000 		.4byte	.LVL117-1
 15485 0781 82000000 		.4byte	.LVL121
 15486 0785 0100     		.2byte	0x1
 15487 0787 55       		.byte	0x55
 15488 0788 82000000 		.4byte	.LVL121
 15489 078c 86000000 		.4byte	.LVL123
ARM GAS  C:\Users\AHMED~1.ELE\AppData\Local\Temp\ccpjtoUe.s 			page 304


 15490 0790 0100     		.2byte	0x1
 15491 0792 50       		.byte	0x50
 15492 0793 86000000 		.4byte	.LVL123
 15493 0797 96000000 		.4byte	.LVL126
 15494 079b 0100     		.2byte	0x1
 15495 079d 55       		.byte	0x55
 15496 079e 00000000 		.4byte	0
 15497 07a2 00000000 		.4byte	0
 15498              	.LLST51:
 15499 07a6 2E000000 		.4byte	.LVL111
 15500 07aa 96000000 		.4byte	.LVL126
 15501 07ae 0100     		.2byte	0x1
 15502 07b0 58       		.byte	0x58
 15503 07b1 00000000 		.4byte	0
 15504 07b5 00000000 		.4byte	0
 15505              	.LLST52:
 15506 07b9 12000000 		.4byte	.LVL108
 15507 07bd 21000000 		.4byte	.LVL109-1
 15508 07c1 0100     		.2byte	0x1
 15509 07c3 50       		.byte	0x50
 15510 07c4 21000000 		.4byte	.LVL109-1
 15511 07c8 9C000000 		.4byte	.LVL127
 15512 07cc 0100     		.2byte	0x1
 15513 07ce 54       		.byte	0x54
 15514 07cf 00000000 		.4byte	0
 15515 07d3 00000000 		.4byte	0
 15516              	.LLST53:
 15517 07d7 00000000 		.4byte	.LVL128
 15518 07db 0A000000 		.4byte	.LVL129
 15519 07df 0100     		.2byte	0x1
 15520 07e1 50       		.byte	0x50
 15521 07e2 0A000000 		.4byte	.LVL129
 15522 07e6 CA000000 		.4byte	.LVL154
 15523 07ea 0100     		.2byte	0x1
 15524 07ec 57       		.byte	0x57
 15525 07ed CA000000 		.4byte	.LVL154
 15526 07f1 D0000000 		.4byte	.LFE6
 15527 07f5 0400     		.2byte	0x4
 15528 07f7 F3       		.byte	0xf3
 15529 07f8 01       		.uleb128 0x1
 15530 07f9 50       		.byte	0x50
 15531 07fa 9F       		.byte	0x9f
 15532 07fb 00000000 		.4byte	0
 15533 07ff 00000000 		.4byte	0
 15534              	.LLST54:
 15535 0803 00000000 		.4byte	.LVL128
 15536 0807 0C000000 		.4byte	.LVL130
 15537 080b 0100     		.2byte	0x1
 15538 080d 51       		.byte	0x51
 15539 080e 0C000000 		.4byte	.LVL130
 15540 0812 6A000000 		.4byte	.LVL141
 15541 0816 0100     		.2byte	0x1
 15542 0818 56       		.byte	0x56
 15543 0819 6A000000 		.4byte	.LVL141
 15544 081d 72000000 		.4byte	.LVL142
 15545 0821 0100     		.2byte	0x1
 15546 0823 50       		.byte	0x50
ARM GAS  C:\Users\AHMED~1.ELE\AppData\Local\Temp\ccpjtoUe.s 			page 305


 15547 0824 72000000 		.4byte	.LVL142
 15548 0828 76000000 		.4byte	.LVL143
 15549 082c 0100     		.2byte	0x1
 15550 082e 55       		.byte	0x55
 15551 082f 76000000 		.4byte	.LVL143
 15552 0833 79000000 		.4byte	.LVL144-1
 15553 0837 0100     		.2byte	0x1
 15554 0839 50       		.byte	0x50
 15555 083a 79000000 		.4byte	.LVL144-1
 15556 083e AE000000 		.4byte	.LVL148
 15557 0842 0100     		.2byte	0x1
 15558 0844 55       		.byte	0x55
 15559 0845 AE000000 		.4byte	.LVL148
 15560 0849 B0000000 		.4byte	.LVL149
 15561 084d 0100     		.2byte	0x1
 15562 084f 50       		.byte	0x50
 15563 0850 B0000000 		.4byte	.LVL149
 15564 0854 CA000000 		.4byte	.LVL154
 15565 0858 0100     		.2byte	0x1
 15566 085a 56       		.byte	0x56
 15567 085b 00000000 		.4byte	0
 15568 085f 00000000 		.4byte	0
 15569              	.LLST55:
 15570 0863 00000000 		.4byte	.LVL128
 15571 0867 0F000000 		.4byte	.LVL131-1
 15572 086b 0100     		.2byte	0x1
 15573 086d 52       		.byte	0x52
 15574 086e 0F000000 		.4byte	.LVL131-1
 15575 0872 D0000000 		.4byte	.LFE6
 15576 0876 0400     		.2byte	0x4
 15577 0878 F3       		.byte	0xf3
 15578 0879 01       		.uleb128 0x1
 15579 087a 52       		.byte	0x52
 15580 087b 9F       		.byte	0x9f
 15581 087c 00000000 		.4byte	0
 15582 0880 00000000 		.4byte	0
 15583              	.LLST56:
 15584 0884 7A000000 		.4byte	.LVL144
 15585 0888 86000000 		.4byte	.LVL145
 15586 088c 0100     		.2byte	0x1
 15587 088e 50       		.byte	0x50
 15588 088f 86000000 		.4byte	.LVL145
 15589 0893 AE000000 		.4byte	.LVL148
 15590 0897 0100     		.2byte	0x1
 15591 0899 56       		.byte	0x56
 15592 089a 00000000 		.4byte	0
 15593 089e 00000000 		.4byte	0
 15594              	.LLST57:
 15595 08a2 68000000 		.4byte	.LVL140
 15596 08a6 72000000 		.4byte	.LVL142
 15597 08aa 0100     		.2byte	0x1
 15598 08ac 50       		.byte	0x50
 15599 08ad 72000000 		.4byte	.LVL142
 15600 08b1 76000000 		.4byte	.LVL143
 15601 08b5 0100     		.2byte	0x1
 15602 08b7 55       		.byte	0x55
 15603 08b8 76000000 		.4byte	.LVL143
ARM GAS  C:\Users\AHMED~1.ELE\AppData\Local\Temp\ccpjtoUe.s 			page 306


 15604 08bc 79000000 		.4byte	.LVL144-1
 15605 08c0 0100     		.2byte	0x1
 15606 08c2 50       		.byte	0x50
 15607 08c3 79000000 		.4byte	.LVL144-1
 15608 08c7 AE000000 		.4byte	.LVL148
 15609 08cb 0100     		.2byte	0x1
 15610 08cd 55       		.byte	0x55
 15611 08ce AE000000 		.4byte	.LVL148
 15612 08d2 B4000000 		.4byte	.LVL150
 15613 08d6 0100     		.2byte	0x1
 15614 08d8 50       		.byte	0x50
 15615 08d9 B4000000 		.4byte	.LVL150
 15616 08dd C4000000 		.4byte	.LVL153
 15617 08e1 0100     		.2byte	0x1
 15618 08e3 55       		.byte	0x55
 15619 08e4 00000000 		.4byte	0
 15620 08e8 00000000 		.4byte	0
 15621              	.LLST58:
 15622 08ec 5A000000 		.4byte	.LVL138
 15623 08f0 C4000000 		.4byte	.LVL153
 15624 08f4 0100     		.2byte	0x1
 15625 08f6 58       		.byte	0x58
 15626 08f7 00000000 		.4byte	0
 15627 08fb 00000000 		.4byte	0
 15628              	.LLST59:
 15629 08ff 10000000 		.4byte	.LVL131
 15630 0903 1D000000 		.4byte	.LVL132-1
 15631 0907 0100     		.2byte	0x1
 15632 0909 50       		.byte	0x50
 15633 090a 1D000000 		.4byte	.LVL132-1
 15634 090e CA000000 		.4byte	.LVL154
 15635 0912 0100     		.2byte	0x1
 15636 0914 54       		.byte	0x54
 15637 0915 00000000 		.4byte	0
 15638 0919 00000000 		.4byte	0
 15639              	.LLST60:
 15640 091d 00000000 		.4byte	.LVL155
 15641 0921 0A000000 		.4byte	.LVL156
 15642 0925 0100     		.2byte	0x1
 15643 0927 50       		.byte	0x50
 15644 0928 0A000000 		.4byte	.LVL156
 15645 092c 9A000000 		.4byte	.LVL177
 15646 0930 0100     		.2byte	0x1
 15647 0932 57       		.byte	0x57
 15648 0933 9A000000 		.4byte	.LVL177
 15649 0937 A0000000 		.4byte	.LFE7
 15650 093b 0400     		.2byte	0x4
 15651 093d F3       		.byte	0xf3
 15652 093e 01       		.uleb128 0x1
 15653 093f 50       		.byte	0x50
 15654 0940 9F       		.byte	0x9f
 15655 0941 00000000 		.4byte	0
 15656 0945 00000000 		.4byte	0
 15657              	.LLST61:
 15658 0949 00000000 		.4byte	.LVL155
 15659 094d 0C000000 		.4byte	.LVL157
 15660 0951 0100     		.2byte	0x1
ARM GAS  C:\Users\AHMED~1.ELE\AppData\Local\Temp\ccpjtoUe.s 			page 307


 15661 0953 51       		.byte	0x51
 15662 0954 0C000000 		.4byte	.LVL157
 15663 0958 3A000000 		.4byte	.LVL164
 15664 095c 0100     		.2byte	0x1
 15665 095e 56       		.byte	0x56
 15666 095f 3A000000 		.4byte	.LVL164
 15667 0963 42000000 		.4byte	.LVL165
 15668 0967 0100     		.2byte	0x1
 15669 0969 50       		.byte	0x50
 15670 096a 42000000 		.4byte	.LVL165
 15671 096e 46000000 		.4byte	.LVL166
 15672 0972 0100     		.2byte	0x1
 15673 0974 55       		.byte	0x55
 15674 0975 46000000 		.4byte	.LVL166
 15675 0979 49000000 		.4byte	.LVL167-1
 15676 097d 0100     		.2byte	0x1
 15677 097f 50       		.byte	0x50
 15678 0980 49000000 		.4byte	.LVL167-1
 15679 0984 7E000000 		.4byte	.LVL171
 15680 0988 0100     		.2byte	0x1
 15681 098a 55       		.byte	0x55
 15682 098b 7E000000 		.4byte	.LVL171
 15683 098f 80000000 		.4byte	.LVL172
 15684 0993 0100     		.2byte	0x1
 15685 0995 50       		.byte	0x50
 15686 0996 80000000 		.4byte	.LVL172
 15687 099a 9A000000 		.4byte	.LVL177
 15688 099e 0100     		.2byte	0x1
 15689 09a0 56       		.byte	0x56
 15690 09a1 00000000 		.4byte	0
 15691 09a5 00000000 		.4byte	0
 15692              	.LLST62:
 15693 09a9 00000000 		.4byte	.LVL155
 15694 09ad 0F000000 		.4byte	.LVL158-1
 15695 09b1 0100     		.2byte	0x1
 15696 09b3 52       		.byte	0x52
 15697 09b4 0F000000 		.4byte	.LVL158-1
 15698 09b8 A0000000 		.4byte	.LFE7
 15699 09bc 0400     		.2byte	0x4
 15700 09be F3       		.byte	0xf3
 15701 09bf 01       		.uleb128 0x1
 15702 09c0 52       		.byte	0x52
 15703 09c1 9F       		.byte	0x9f
 15704 09c2 00000000 		.4byte	0
 15705 09c6 00000000 		.4byte	0
 15706              	.LLST63:
 15707 09ca 4A000000 		.4byte	.LVL167
 15708 09ce 56000000 		.4byte	.LVL168
 15709 09d2 0100     		.2byte	0x1
 15710 09d4 50       		.byte	0x50
 15711 09d5 56000000 		.4byte	.LVL168
 15712 09d9 7E000000 		.4byte	.LVL171
 15713 09dd 0100     		.2byte	0x1
 15714 09df 56       		.byte	0x56
 15715 09e0 00000000 		.4byte	0
 15716 09e4 00000000 		.4byte	0
 15717              	.LLST64:
ARM GAS  C:\Users\AHMED~1.ELE\AppData\Local\Temp\ccpjtoUe.s 			page 308


 15718 09e8 38000000 		.4byte	.LVL163
 15719 09ec 42000000 		.4byte	.LVL165
 15720 09f0 0100     		.2byte	0x1
 15721 09f2 50       		.byte	0x50
 15722 09f3 42000000 		.4byte	.LVL165
 15723 09f7 46000000 		.4byte	.LVL166
 15724 09fb 0100     		.2byte	0x1
 15725 09fd 55       		.byte	0x55
 15726 09fe 46000000 		.4byte	.LVL166
 15727 0a02 49000000 		.4byte	.LVL167-1
 15728 0a06 0100     		.2byte	0x1
 15729 0a08 50       		.byte	0x50
 15730 0a09 49000000 		.4byte	.LVL167-1
 15731 0a0d 7E000000 		.4byte	.LVL171
 15732 0a11 0100     		.2byte	0x1
 15733 0a13 55       		.byte	0x55
 15734 0a14 7E000000 		.4byte	.LVL171
 15735 0a18 84000000 		.4byte	.LVL173
 15736 0a1c 0100     		.2byte	0x1
 15737 0a1e 50       		.byte	0x50
 15738 0a1f 84000000 		.4byte	.LVL173
 15739 0a23 94000000 		.4byte	.LVL176
 15740 0a27 0100     		.2byte	0x1
 15741 0a29 55       		.byte	0x55
 15742 0a2a 00000000 		.4byte	0
 15743 0a2e 00000000 		.4byte	0
 15744              	.LLST65:
 15745 0a32 2A000000 		.4byte	.LVL161
 15746 0a36 94000000 		.4byte	.LVL176
 15747 0a3a 0100     		.2byte	0x1
 15748 0a3c 58       		.byte	0x58
 15749 0a3d 00000000 		.4byte	0
 15750 0a41 00000000 		.4byte	0
 15751              	.LLST66:
 15752 0a45 10000000 		.4byte	.LVL158
 15753 0a49 1D000000 		.4byte	.LVL159-1
 15754 0a4d 0100     		.2byte	0x1
 15755 0a4f 50       		.byte	0x50
 15756 0a50 1D000000 		.4byte	.LVL159-1
 15757 0a54 9A000000 		.4byte	.LVL177
 15758 0a58 0100     		.2byte	0x1
 15759 0a5a 54       		.byte	0x54
 15760 0a5b 00000000 		.4byte	0
 15761 0a5f 00000000 		.4byte	0
 15762              	.LLST67:
 15763 0a63 00000000 		.4byte	.LVL178
 15764 0a67 0A000000 		.4byte	.LVL179
 15765 0a6b 0100     		.2byte	0x1
 15766 0a6d 50       		.byte	0x50
 15767 0a6e 0A000000 		.4byte	.LVL179
 15768 0a72 A0000000 		.4byte	.LVL200
 15769 0a76 0100     		.2byte	0x1
 15770 0a78 57       		.byte	0x57
 15771 0a79 A0000000 		.4byte	.LVL200
 15772 0a7d A8000000 		.4byte	.LFE8
 15773 0a81 0400     		.2byte	0x4
 15774 0a83 F3       		.byte	0xf3
ARM GAS  C:\Users\AHMED~1.ELE\AppData\Local\Temp\ccpjtoUe.s 			page 309


 15775 0a84 01       		.uleb128 0x1
 15776 0a85 50       		.byte	0x50
 15777 0a86 9F       		.byte	0x9f
 15778 0a87 00000000 		.4byte	0
 15779 0a8b 00000000 		.4byte	0
 15780              	.LLST68:
 15781 0a8f 00000000 		.4byte	.LVL178
 15782 0a93 0C000000 		.4byte	.LVL180
 15783 0a97 0100     		.2byte	0x1
 15784 0a99 51       		.byte	0x51
 15785 0a9a 0C000000 		.4byte	.LVL180
 15786 0a9e 3A000000 		.4byte	.LVL187
 15787 0aa2 0100     		.2byte	0x1
 15788 0aa4 56       		.byte	0x56
 15789 0aa5 3A000000 		.4byte	.LVL187
 15790 0aa9 42000000 		.4byte	.LVL188
 15791 0aad 0100     		.2byte	0x1
 15792 0aaf 50       		.byte	0x50
 15793 0ab0 42000000 		.4byte	.LVL188
 15794 0ab4 46000000 		.4byte	.LVL189
 15795 0ab8 0100     		.2byte	0x1
 15796 0aba 55       		.byte	0x55
 15797 0abb 46000000 		.4byte	.LVL189
 15798 0abf 49000000 		.4byte	.LVL190-1
 15799 0ac3 0100     		.2byte	0x1
 15800 0ac5 50       		.byte	0x50
 15801 0ac6 49000000 		.4byte	.LVL190-1
 15802 0aca 7E000000 		.4byte	.LVL194
 15803 0ace 0100     		.2byte	0x1
 15804 0ad0 55       		.byte	0x55
 15805 0ad1 7E000000 		.4byte	.LVL194
 15806 0ad5 80000000 		.4byte	.LVL195
 15807 0ad9 0100     		.2byte	0x1
 15808 0adb 50       		.byte	0x50
 15809 0adc 80000000 		.4byte	.LVL195
 15810 0ae0 A0000000 		.4byte	.LVL200
 15811 0ae4 0100     		.2byte	0x1
 15812 0ae6 56       		.byte	0x56
 15813 0ae7 00000000 		.4byte	0
 15814 0aeb 00000000 		.4byte	0
 15815              	.LLST69:
 15816 0aef 00000000 		.4byte	.LVL178
 15817 0af3 0F000000 		.4byte	.LVL181-1
 15818 0af7 0100     		.2byte	0x1
 15819 0af9 52       		.byte	0x52
 15820 0afa 0F000000 		.4byte	.LVL181-1
 15821 0afe A8000000 		.4byte	.LFE8
 15822 0b02 0400     		.2byte	0x4
 15823 0b04 F3       		.byte	0xf3
 15824 0b05 01       		.uleb128 0x1
 15825 0b06 52       		.byte	0x52
 15826 0b07 9F       		.byte	0x9f
 15827 0b08 00000000 		.4byte	0
 15828 0b0c 00000000 		.4byte	0
 15829              	.LLST70:
 15830 0b10 4A000000 		.4byte	.LVL190
 15831 0b14 56000000 		.4byte	.LVL191
ARM GAS  C:\Users\AHMED~1.ELE\AppData\Local\Temp\ccpjtoUe.s 			page 310


 15832 0b18 0100     		.2byte	0x1
 15833 0b1a 50       		.byte	0x50
 15834 0b1b 56000000 		.4byte	.LVL191
 15835 0b1f 7E000000 		.4byte	.LVL194
 15836 0b23 0100     		.2byte	0x1
 15837 0b25 56       		.byte	0x56
 15838 0b26 00000000 		.4byte	0
 15839 0b2a 00000000 		.4byte	0
 15840              	.LLST71:
 15841 0b2e 38000000 		.4byte	.LVL186
 15842 0b32 42000000 		.4byte	.LVL188
 15843 0b36 0100     		.2byte	0x1
 15844 0b38 50       		.byte	0x50
 15845 0b39 42000000 		.4byte	.LVL188
 15846 0b3d 46000000 		.4byte	.LVL189
 15847 0b41 0100     		.2byte	0x1
 15848 0b43 55       		.byte	0x55
 15849 0b44 46000000 		.4byte	.LVL189
 15850 0b48 49000000 		.4byte	.LVL190-1
 15851 0b4c 0100     		.2byte	0x1
 15852 0b4e 50       		.byte	0x50
 15853 0b4f 49000000 		.4byte	.LVL190-1
 15854 0b53 7E000000 		.4byte	.LVL194
 15855 0b57 0100     		.2byte	0x1
 15856 0b59 55       		.byte	0x55
 15857 0b5a 7E000000 		.4byte	.LVL194
 15858 0b5e 86000000 		.4byte	.LVL196
 15859 0b62 0100     		.2byte	0x1
 15860 0b64 50       		.byte	0x50
 15861 0b65 86000000 		.4byte	.LVL196
 15862 0b69 9A000000 		.4byte	.LVL199
 15863 0b6d 0100     		.2byte	0x1
 15864 0b6f 55       		.byte	0x55
 15865 0b70 00000000 		.4byte	0
 15866 0b74 00000000 		.4byte	0
 15867              	.LLST72:
 15868 0b78 2A000000 		.4byte	.LVL184
 15869 0b7c 9A000000 		.4byte	.LVL199
 15870 0b80 0100     		.2byte	0x1
 15871 0b82 58       		.byte	0x58
 15872 0b83 00000000 		.4byte	0
 15873 0b87 00000000 		.4byte	0
 15874              	.LLST73:
 15875 0b8b 10000000 		.4byte	.LVL181
 15876 0b8f 1D000000 		.4byte	.LVL182-1
 15877 0b93 0100     		.2byte	0x1
 15878 0b95 50       		.byte	0x50
 15879 0b96 1D000000 		.4byte	.LVL182-1
 15880 0b9a A0000000 		.4byte	.LVL200
 15881 0b9e 0100     		.2byte	0x1
 15882 0ba0 54       		.byte	0x54
 15883 0ba1 00000000 		.4byte	0
 15884 0ba5 00000000 		.4byte	0
 15885              	.LLST74:
 15886 0ba9 00000000 		.4byte	.LVL201
 15887 0bad 0A000000 		.4byte	.LVL202
 15888 0bb1 0100     		.2byte	0x1
ARM GAS  C:\Users\AHMED~1.ELE\AppData\Local\Temp\ccpjtoUe.s 			page 311


 15889 0bb3 50       		.byte	0x50
 15890 0bb4 0A000000 		.4byte	.LVL202
 15891 0bb8 8A000000 		.4byte	.LVL224
 15892 0bbc 0100     		.2byte	0x1
 15893 0bbe 57       		.byte	0x57
 15894 0bbf 8A000000 		.4byte	.LVL224
 15895 0bc3 90000000 		.4byte	.LFE9
 15896 0bc7 0400     		.2byte	0x4
 15897 0bc9 F3       		.byte	0xf3
 15898 0bca 01       		.uleb128 0x1
 15899 0bcb 50       		.byte	0x50
 15900 0bcc 9F       		.byte	0x9f
 15901 0bcd 00000000 		.4byte	0
 15902 0bd1 00000000 		.4byte	0
 15903              	.LLST75:
 15904 0bd5 00000000 		.4byte	.LVL201
 15905 0bd9 0E000000 		.4byte	.LVL203
 15906 0bdd 0100     		.2byte	0x1
 15907 0bdf 51       		.byte	0x51
 15908 0be0 0E000000 		.4byte	.LVL203
 15909 0be4 42000000 		.4byte	.LVL211
 15910 0be8 0100     		.2byte	0x1
 15911 0bea 56       		.byte	0x56
 15912 0beb 42000000 		.4byte	.LVL211
 15913 0bef 4A000000 		.4byte	.LVL212
 15914 0bf3 0100     		.2byte	0x1
 15915 0bf5 50       		.byte	0x50
 15916 0bf6 4A000000 		.4byte	.LVL212
 15917 0bfa 4E000000 		.4byte	.LVL213
 15918 0bfe 0100     		.2byte	0x1
 15919 0c00 55       		.byte	0x55
 15920 0c01 4E000000 		.4byte	.LVL213
 15921 0c05 51000000 		.4byte	.LVL214-1
 15922 0c09 0100     		.2byte	0x1
 15923 0c0b 50       		.byte	0x50
 15924 0c0c 51000000 		.4byte	.LVL214-1
 15925 0c10 64000000 		.4byte	.LVL217
 15926 0c14 0100     		.2byte	0x1
 15927 0c16 55       		.byte	0x55
 15928 0c17 64000000 		.4byte	.LVL217
 15929 0c1b 66000000 		.4byte	.LVL218
 15930 0c1f 0100     		.2byte	0x1
 15931 0c21 50       		.byte	0x50
 15932 0c22 66000000 		.4byte	.LVL218
 15933 0c26 8A000000 		.4byte	.LVL224
 15934 0c2a 0100     		.2byte	0x1
 15935 0c2c 56       		.byte	0x56
 15936 0c2d 8A000000 		.4byte	.LVL224
 15937 0c31 90000000 		.4byte	.LFE9
 15938 0c35 0400     		.2byte	0x4
 15939 0c37 F3       		.byte	0xf3
 15940 0c38 01       		.uleb128 0x1
 15941 0c39 51       		.byte	0x51
 15942 0c3a 9F       		.byte	0x9f
 15943 0c3b 00000000 		.4byte	0
 15944 0c3f 00000000 		.4byte	0
 15945              	.LLST76:
ARM GAS  C:\Users\AHMED~1.ELE\AppData\Local\Temp\ccpjtoUe.s 			page 312


 15946 0c43 00000000 		.4byte	.LVL201
 15947 0c47 11000000 		.4byte	.LVL204-1
 15948 0c4b 0100     		.2byte	0x1
 15949 0c4d 52       		.byte	0x52
 15950 0c4e 11000000 		.4byte	.LVL204-1
 15951 0c52 90000000 		.4byte	.LFE9
 15952 0c56 0400     		.2byte	0x4
 15953 0c58 F3       		.byte	0xf3
 15954 0c59 01       		.uleb128 0x1
 15955 0c5a 52       		.byte	0x52
 15956 0c5b 9F       		.byte	0x9f
 15957 0c5c 00000000 		.4byte	0
 15958 0c60 00000000 		.4byte	0
 15959              	.LLST77:
 15960 0c64 52000000 		.4byte	.LVL214
 15961 0c68 5A000000 		.4byte	.LVL215
 15962 0c6c 0100     		.2byte	0x1
 15963 0c6e 50       		.byte	0x50
 15964 0c6f 5A000000 		.4byte	.LVL215
 15965 0c73 61000000 		.4byte	.LVL216-1
 15966 0c77 0100     		.2byte	0x1
 15967 0c79 53       		.byte	0x53
 15968 0c7a 00000000 		.4byte	0
 15969 0c7e 00000000 		.4byte	0
 15970              	.LLST78:
 15971 0c82 40000000 		.4byte	.LVL210
 15972 0c86 4A000000 		.4byte	.LVL212
 15973 0c8a 0100     		.2byte	0x1
 15974 0c8c 50       		.byte	0x50
 15975 0c8d 4A000000 		.4byte	.LVL212
 15976 0c91 4E000000 		.4byte	.LVL213
 15977 0c95 0100     		.2byte	0x1
 15978 0c97 55       		.byte	0x55
 15979 0c98 4E000000 		.4byte	.LVL213
 15980 0c9c 51000000 		.4byte	.LVL214-1
 15981 0ca0 0100     		.2byte	0x1
 15982 0ca2 50       		.byte	0x50
 15983 0ca3 51000000 		.4byte	.LVL214-1
 15984 0ca7 64000000 		.4byte	.LVL217
 15985 0cab 0100     		.2byte	0x1
 15986 0cad 55       		.byte	0x55
 15987 0cae 64000000 		.4byte	.LVL217
 15988 0cb2 6E000000 		.4byte	.LVL219
 15989 0cb6 0100     		.2byte	0x1
 15990 0cb8 50       		.byte	0x50
 15991 0cb9 6E000000 		.4byte	.LVL219
 15992 0cbd 86000000 		.4byte	.LVL223
 15993 0cc1 0100     		.2byte	0x1
 15994 0cc3 55       		.byte	0x55
 15995 0cc4 00000000 		.4byte	0
 15996 0cc8 00000000 		.4byte	0
 15997              	.LLST79:
 15998 0ccc 32000000 		.4byte	.LVL208
 15999 0cd0 86000000 		.4byte	.LVL223
 16000 0cd4 0100     		.2byte	0x1
 16001 0cd6 58       		.byte	0x58
 16002 0cd7 00000000 		.4byte	0
ARM GAS  C:\Users\AHMED~1.ELE\AppData\Local\Temp\ccpjtoUe.s 			page 313


 16003 0cdb 00000000 		.4byte	0
 16004              	.LLST80:
 16005 0cdf 12000000 		.4byte	.LVL204
 16006 0ce3 1F000000 		.4byte	.LVL205-1
 16007 0ce7 0100     		.2byte	0x1
 16008 0ce9 50       		.byte	0x50
 16009 0cea 1F000000 		.4byte	.LVL205-1
 16010 0cee 86000000 		.4byte	.LVL223
 16011 0cf2 0100     		.2byte	0x1
 16012 0cf4 54       		.byte	0x54
 16013 0cf5 86000000 		.4byte	.LVL223
 16014 0cf9 90000000 		.4byte	.LFE9
 16015 0cfd 0100     		.2byte	0x1
 16016 0cff 50       		.byte	0x50
 16017 0d00 00000000 		.4byte	0
 16018 0d04 00000000 		.4byte	0
 16019              	.LLST81:
 16020 0d08 00000000 		.4byte	.LVL225
 16021 0d0c 0A000000 		.4byte	.LVL226
 16022 0d10 0100     		.2byte	0x1
 16023 0d12 50       		.byte	0x50
 16024 0d13 0A000000 		.4byte	.LVL226
 16025 0d17 8A000000 		.4byte	.LVL248
 16026 0d1b 0100     		.2byte	0x1
 16027 0d1d 57       		.byte	0x57
 16028 0d1e 8A000000 		.4byte	.LVL248
 16029 0d22 90000000 		.4byte	.LFE10
 16030 0d26 0400     		.2byte	0x4
 16031 0d28 F3       		.byte	0xf3
 16032 0d29 01       		.uleb128 0x1
 16033 0d2a 50       		.byte	0x50
 16034 0d2b 9F       		.byte	0x9f
 16035 0d2c 00000000 		.4byte	0
 16036 0d30 00000000 		.4byte	0
 16037              	.LLST82:
 16038 0d34 00000000 		.4byte	.LVL225
 16039 0d38 0E000000 		.4byte	.LVL227
 16040 0d3c 0100     		.2byte	0x1
 16041 0d3e 51       		.byte	0x51
 16042 0d3f 0E000000 		.4byte	.LVL227
 16043 0d43 42000000 		.4byte	.LVL235
 16044 0d47 0100     		.2byte	0x1
 16045 0d49 56       		.byte	0x56
 16046 0d4a 42000000 		.4byte	.LVL235
 16047 0d4e 4A000000 		.4byte	.LVL236
 16048 0d52 0100     		.2byte	0x1
 16049 0d54 50       		.byte	0x50
 16050 0d55 4A000000 		.4byte	.LVL236
 16051 0d59 4E000000 		.4byte	.LVL237
 16052 0d5d 0100     		.2byte	0x1
 16053 0d5f 55       		.byte	0x55
 16054 0d60 4E000000 		.4byte	.LVL237
 16055 0d64 51000000 		.4byte	.LVL238-1
 16056 0d68 0100     		.2byte	0x1
 16057 0d6a 50       		.byte	0x50
 16058 0d6b 51000000 		.4byte	.LVL238-1
 16059 0d6f 64000000 		.4byte	.LVL241
ARM GAS  C:\Users\AHMED~1.ELE\AppData\Local\Temp\ccpjtoUe.s 			page 314


 16060 0d73 0100     		.2byte	0x1
 16061 0d75 55       		.byte	0x55
 16062 0d76 64000000 		.4byte	.LVL241
 16063 0d7a 66000000 		.4byte	.LVL242
 16064 0d7e 0100     		.2byte	0x1
 16065 0d80 50       		.byte	0x50
 16066 0d81 66000000 		.4byte	.LVL242
 16067 0d85 8A000000 		.4byte	.LVL248
 16068 0d89 0100     		.2byte	0x1
 16069 0d8b 56       		.byte	0x56
 16070 0d8c 8A000000 		.4byte	.LVL248
 16071 0d90 90000000 		.4byte	.LFE10
 16072 0d94 0400     		.2byte	0x4
 16073 0d96 F3       		.byte	0xf3
 16074 0d97 01       		.uleb128 0x1
 16075 0d98 51       		.byte	0x51
 16076 0d99 9F       		.byte	0x9f
 16077 0d9a 00000000 		.4byte	0
 16078 0d9e 00000000 		.4byte	0
 16079              	.LLST83:
 16080 0da2 00000000 		.4byte	.LVL225
 16081 0da6 11000000 		.4byte	.LVL228-1
 16082 0daa 0100     		.2byte	0x1
 16083 0dac 52       		.byte	0x52
 16084 0dad 11000000 		.4byte	.LVL228-1
 16085 0db1 90000000 		.4byte	.LFE10
 16086 0db5 0400     		.2byte	0x4
 16087 0db7 F3       		.byte	0xf3
 16088 0db8 01       		.uleb128 0x1
 16089 0db9 52       		.byte	0x52
 16090 0dba 9F       		.byte	0x9f
 16091 0dbb 00000000 		.4byte	0
 16092 0dbf 00000000 		.4byte	0
 16093              	.LLST84:
 16094 0dc3 52000000 		.4byte	.LVL238
 16095 0dc7 5A000000 		.4byte	.LVL239
 16096 0dcb 0100     		.2byte	0x1
 16097 0dcd 50       		.byte	0x50
 16098 0dce 5A000000 		.4byte	.LVL239
 16099 0dd2 61000000 		.4byte	.LVL240-1
 16100 0dd6 0100     		.2byte	0x1
 16101 0dd8 53       		.byte	0x53
 16102 0dd9 00000000 		.4byte	0
 16103 0ddd 00000000 		.4byte	0
 16104              	.LLST85:
 16105 0de1 40000000 		.4byte	.LVL234
 16106 0de5 4A000000 		.4byte	.LVL236
 16107 0de9 0100     		.2byte	0x1
 16108 0deb 50       		.byte	0x50
 16109 0dec 4A000000 		.4byte	.LVL236
 16110 0df0 4E000000 		.4byte	.LVL237
 16111 0df4 0100     		.2byte	0x1
 16112 0df6 55       		.byte	0x55
 16113 0df7 4E000000 		.4byte	.LVL237
 16114 0dfb 51000000 		.4byte	.LVL238-1
 16115 0dff 0100     		.2byte	0x1
 16116 0e01 50       		.byte	0x50
ARM GAS  C:\Users\AHMED~1.ELE\AppData\Local\Temp\ccpjtoUe.s 			page 315


 16117 0e02 51000000 		.4byte	.LVL238-1
 16118 0e06 64000000 		.4byte	.LVL241
 16119 0e0a 0100     		.2byte	0x1
 16120 0e0c 55       		.byte	0x55
 16121 0e0d 64000000 		.4byte	.LVL241
 16122 0e11 6E000000 		.4byte	.LVL243
 16123 0e15 0100     		.2byte	0x1
 16124 0e17 50       		.byte	0x50
 16125 0e18 6E000000 		.4byte	.LVL243
 16126 0e1c 86000000 		.4byte	.LVL247
 16127 0e20 0100     		.2byte	0x1
 16128 0e22 55       		.byte	0x55
 16129 0e23 00000000 		.4byte	0
 16130 0e27 00000000 		.4byte	0
 16131              	.LLST86:
 16132 0e2b 32000000 		.4byte	.LVL232
 16133 0e2f 86000000 		.4byte	.LVL247
 16134 0e33 0100     		.2byte	0x1
 16135 0e35 58       		.byte	0x58
 16136 0e36 00000000 		.4byte	0
 16137 0e3a 00000000 		.4byte	0
 16138              	.LLST87:
 16139 0e3e 12000000 		.4byte	.LVL228
 16140 0e42 1F000000 		.4byte	.LVL229-1
 16141 0e46 0100     		.2byte	0x1
 16142 0e48 50       		.byte	0x50
 16143 0e49 1F000000 		.4byte	.LVL229-1
 16144 0e4d 86000000 		.4byte	.LVL247
 16145 0e51 0100     		.2byte	0x1
 16146 0e53 54       		.byte	0x54
 16147 0e54 86000000 		.4byte	.LVL247
 16148 0e58 90000000 		.4byte	.LFE10
 16149 0e5c 0100     		.2byte	0x1
 16150 0e5e 50       		.byte	0x50
 16151 0e5f 00000000 		.4byte	0
 16152 0e63 00000000 		.4byte	0
 16153              	.LLST88:
 16154 0e67 00000000 		.4byte	.LVL249
 16155 0e6b 0A000000 		.4byte	.LVL250
 16156 0e6f 0100     		.2byte	0x1
 16157 0e71 50       		.byte	0x50
 16158 0e72 0A000000 		.4byte	.LVL250
 16159 0e76 C2000000 		.4byte	.LVL275
 16160 0e7a 0100     		.2byte	0x1
 16161 0e7c 57       		.byte	0x57
 16162 0e7d C2000000 		.4byte	.LVL275
 16163 0e81 C8000000 		.4byte	.LFE11
 16164 0e85 0400     		.2byte	0x4
 16165 0e87 F3       		.byte	0xf3
 16166 0e88 01       		.uleb128 0x1
 16167 0e89 50       		.byte	0x50
 16168 0e8a 9F       		.byte	0x9f
 16169 0e8b 00000000 		.4byte	0
 16170 0e8f 00000000 		.4byte	0
 16171              	.LLST89:
 16172 0e93 00000000 		.4byte	.LVL249
 16173 0e97 0E000000 		.4byte	.LVL251
ARM GAS  C:\Users\AHMED~1.ELE\AppData\Local\Temp\ccpjtoUe.s 			page 316


 16174 0e9b 0100     		.2byte	0x1
 16175 0e9d 51       		.byte	0x51
 16176 0e9e 0E000000 		.4byte	.LVL251
 16177 0ea2 4A000000 		.4byte	.LVL260
 16178 0ea6 0100     		.2byte	0x1
 16179 0ea8 56       		.byte	0x56
 16180 0ea9 4A000000 		.4byte	.LVL260
 16181 0ead 52000000 		.4byte	.LVL261
 16182 0eb1 0100     		.2byte	0x1
 16183 0eb3 50       		.byte	0x50
 16184 0eb4 52000000 		.4byte	.LVL261
 16185 0eb8 56000000 		.4byte	.LVL262
 16186 0ebc 0100     		.2byte	0x1
 16187 0ebe 55       		.byte	0x55
 16188 0ebf 56000000 		.4byte	.LVL262
 16189 0ec3 59000000 		.4byte	.LVL263-1
 16190 0ec7 0100     		.2byte	0x1
 16191 0ec9 50       		.byte	0x50
 16192 0eca 59000000 		.4byte	.LVL263-1
 16193 0ece 6C000000 		.4byte	.LVL266
 16194 0ed2 0100     		.2byte	0x1
 16195 0ed4 55       		.byte	0x55
 16196 0ed5 6C000000 		.4byte	.LVL266
 16197 0ed9 6E000000 		.4byte	.LVL267
 16198 0edd 0100     		.2byte	0x1
 16199 0edf 50       		.byte	0x50
 16200 0ee0 6E000000 		.4byte	.LVL267
 16201 0ee4 C2000000 		.4byte	.LVL275
 16202 0ee8 0100     		.2byte	0x1
 16203 0eea 56       		.byte	0x56
 16204 0eeb C2000000 		.4byte	.LVL275
 16205 0eef C8000000 		.4byte	.LFE11
 16206 0ef3 0400     		.2byte	0x4
 16207 0ef5 F3       		.byte	0xf3
 16208 0ef6 01       		.uleb128 0x1
 16209 0ef7 51       		.byte	0x51
 16210 0ef8 9F       		.byte	0x9f
 16211 0ef9 00000000 		.4byte	0
 16212 0efd 00000000 		.4byte	0
 16213              	.LLST90:
 16214 0f01 00000000 		.4byte	.LVL249
 16215 0f05 11000000 		.4byte	.LVL252-1
 16216 0f09 0100     		.2byte	0x1
 16217 0f0b 52       		.byte	0x52
 16218 0f0c 11000000 		.4byte	.LVL252-1
 16219 0f10 C8000000 		.4byte	.LFE11
 16220 0f14 0400     		.2byte	0x4
 16221 0f16 F3       		.byte	0xf3
 16222 0f17 01       		.uleb128 0x1
 16223 0f18 52       		.byte	0x52
 16224 0f19 9F       		.byte	0x9f
 16225 0f1a 00000000 		.4byte	0
 16226 0f1e 00000000 		.4byte	0
 16227              	.LLST91:
 16228 0f22 5A000000 		.4byte	.LVL263
 16229 0f26 62000000 		.4byte	.LVL264
 16230 0f2a 0100     		.2byte	0x1
ARM GAS  C:\Users\AHMED~1.ELE\AppData\Local\Temp\ccpjtoUe.s 			page 317


 16231 0f2c 50       		.byte	0x50
 16232 0f2d 62000000 		.4byte	.LVL264
 16233 0f31 69000000 		.4byte	.LVL265-1
 16234 0f35 0100     		.2byte	0x1
 16235 0f37 53       		.byte	0x53
 16236 0f38 00000000 		.4byte	0
 16237 0f3c 00000000 		.4byte	0
 16238              	.LLST92:
 16239 0f40 48000000 		.4byte	.LVL259
 16240 0f44 52000000 		.4byte	.LVL261
 16241 0f48 0100     		.2byte	0x1
 16242 0f4a 50       		.byte	0x50
 16243 0f4b 52000000 		.4byte	.LVL261
 16244 0f4f 56000000 		.4byte	.LVL262
 16245 0f53 0100     		.2byte	0x1
 16246 0f55 55       		.byte	0x55
 16247 0f56 56000000 		.4byte	.LVL262
 16248 0f5a 59000000 		.4byte	.LVL263-1
 16249 0f5e 0100     		.2byte	0x1
 16250 0f60 50       		.byte	0x50
 16251 0f61 59000000 		.4byte	.LVL263-1
 16252 0f65 6C000000 		.4byte	.LVL266
 16253 0f69 0100     		.2byte	0x1
 16254 0f6b 55       		.byte	0x55
 16255 0f6c 6C000000 		.4byte	.LVL266
 16256 0f70 78000000 		.4byte	.LVL268
 16257 0f74 0100     		.2byte	0x1
 16258 0f76 50       		.byte	0x50
 16259 0f77 78000000 		.4byte	.LVL268
 16260 0f7b 98000000 		.4byte	.LVL270
 16261 0f7f 0100     		.2byte	0x1
 16262 0f81 55       		.byte	0x55
 16263 0f82 00000000 		.4byte	0
 16264 0f86 00000000 		.4byte	0
 16265              	.LLST93:
 16266 0f8a 3A000000 		.4byte	.LVL257
 16267 0f8e BE000000 		.4byte	.LVL274
 16268 0f92 0100     		.2byte	0x1
 16269 0f94 58       		.byte	0x58
 16270 0f95 00000000 		.4byte	0
 16271 0f99 00000000 		.4byte	0
 16272              	.LLST94:
 16273 0f9d 12000000 		.4byte	.LVL252
 16274 0fa1 21000000 		.4byte	.LVL253-1
 16275 0fa5 0100     		.2byte	0x1
 16276 0fa7 50       		.byte	0x50
 16277 0fa8 21000000 		.4byte	.LVL253-1
 16278 0fac BE000000 		.4byte	.LVL274
 16279 0fb0 0100     		.2byte	0x1
 16280 0fb2 54       		.byte	0x54
 16281 0fb3 BE000000 		.4byte	.LVL274
 16282 0fb7 C8000000 		.4byte	.LFE11
 16283 0fbb 0100     		.2byte	0x1
 16284 0fbd 50       		.byte	0x50
 16285 0fbe 00000000 		.4byte	0
 16286 0fc2 00000000 		.4byte	0
 16287              	.LLST95:
ARM GAS  C:\Users\AHMED~1.ELE\AppData\Local\Temp\ccpjtoUe.s 			page 318


 16288 0fc6 A6020000 		.4byte	.LVL352
 16289 0fca CA020000 		.4byte	.LVL359
 16290 0fce 0100     		.2byte	0x1
 16291 0fd0 54       		.byte	0x54
 16292 0fd1 24030000 		.4byte	.LVL363
 16293 0fd5 DC030000 		.4byte	.LVL381
 16294 0fd9 0100     		.2byte	0x1
 16295 0fdb 54       		.byte	0x54
 16296 0fdc 00000000 		.4byte	0
 16297 0fe0 00000000 		.4byte	0
 16298              	.LLST96:
 16299 0fe4 10000000 		.4byte	.LVL277
 16300 0fe8 60000000 		.4byte	.LVL284
 16301 0fec 0200     		.2byte	0x2
 16302 0fee 46       		.byte	0x46
 16303 0fef 9F       		.byte	0x9f
 16304 0ff0 00000000 		.4byte	0
 16305 0ff4 00000000 		.4byte	0
 16306              	.LLST97:
 16307 0ff8 18000000 		.4byte	.LVL278
 16308 0ffc 23000000 		.4byte	.LVL279-1
 16309 1000 0100     		.2byte	0x1
 16310 1002 50       		.byte	0x50
 16311 1003 23000000 		.4byte	.LVL279-1
 16312 1007 60000000 		.4byte	.LVL284
 16313 100b 0100     		.2byte	0x1
 16314 100d 54       		.byte	0x54
 16315 100e 00000000 		.4byte	0
 16316 1012 00000000 		.4byte	0
 16317              	.LLST98:
 16318 1016 90000000 		.4byte	.LVL290
 16319 101a 94000000 		.4byte	.LVL291
 16320 101e 0100     		.2byte	0x1
 16321 1020 50       		.byte	0x50
 16322 1021 94000000 		.4byte	.LVL291
 16323 1025 EE000000 		.4byte	.LVL300
 16324 1029 0100     		.2byte	0x1
 16325 102b 55       		.byte	0x55
 16326 102c 00000000 		.4byte	0
 16327 1030 00000000 		.4byte	0
 16328              	.LLST99:
 16329 1034 98000000 		.4byte	.LVL292
 16330 1038 A3000000 		.4byte	.LVL293-1
 16331 103c 0100     		.2byte	0x1
 16332 103e 50       		.byte	0x50
 16333 103f A3000000 		.4byte	.LVL293-1
 16334 1043 F8000000 		.4byte	.LVL303
 16335 1047 0100     		.2byte	0x1
 16336 1049 54       		.byte	0x54
 16337 104a 00000000 		.4byte	0
 16338 104e 00000000 		.4byte	0
 16339              	.LLST100:
 16340 1052 EE000000 		.4byte	.LVL300
 16341 1056 F2000000 		.4byte	.LVL301
 16342 105a 0100     		.2byte	0x1
 16343 105c 50       		.byte	0x50
 16344 105d F2000000 		.4byte	.LVL301
ARM GAS  C:\Users\AHMED~1.ELE\AppData\Local\Temp\ccpjtoUe.s 			page 319


 16345 1061 4C010000 		.4byte	.LVL311
 16346 1065 0100     		.2byte	0x1
 16347 1067 55       		.byte	0x55
 16348 1068 00000000 		.4byte	0
 16349 106c 00000000 		.4byte	0
 16350              	.LLST101:
 16351 1070 F6000000 		.4byte	.LVL302
 16352 1074 01010000 		.4byte	.LVL304-1
 16353 1078 0100     		.2byte	0x1
 16354 107a 50       		.byte	0x50
 16355 107b 01010000 		.4byte	.LVL304-1
 16356 107f 56010000 		.4byte	.LVL314
 16357 1083 0100     		.2byte	0x1
 16358 1085 54       		.byte	0x54
 16359 1086 00000000 		.4byte	0
 16360 108a 00000000 		.4byte	0
 16361              	.LLST102:
 16362 108e 4C010000 		.4byte	.LVL311
 16363 1092 50010000 		.4byte	.LVL312
 16364 1096 0100     		.2byte	0x1
 16365 1098 50       		.byte	0x50
 16366 1099 50010000 		.4byte	.LVL312
 16367 109d A8010000 		.4byte	.LVL322
 16368 10a1 0100     		.2byte	0x1
 16369 10a3 55       		.byte	0x55
 16370 10a4 00000000 		.4byte	0
 16371 10a8 00000000 		.4byte	0
 16372              	.LLST103:
 16373 10ac 54010000 		.4byte	.LVL313
 16374 10b0 5F010000 		.4byte	.LVL315-1
 16375 10b4 0100     		.2byte	0x1
 16376 10b6 50       		.byte	0x50
 16377 10b7 5F010000 		.4byte	.LVL315-1
 16378 10bb B2010000 		.4byte	.LVL325
 16379 10bf 0100     		.2byte	0x1
 16380 10c1 54       		.byte	0x54
 16381 10c2 00000000 		.4byte	0
 16382 10c6 00000000 		.4byte	0
 16383              	.LLST104:
 16384 10ca A8010000 		.4byte	.LVL322
 16385 10ce AC010000 		.4byte	.LVL323
 16386 10d2 0100     		.2byte	0x1
 16387 10d4 50       		.byte	0x50
 16388 10d5 AC010000 		.4byte	.LVL323
 16389 10d9 06020000 		.4byte	.LVL333
 16390 10dd 0100     		.2byte	0x1
 16391 10df 55       		.byte	0x55
 16392 10e0 00000000 		.4byte	0
 16393 10e4 00000000 		.4byte	0
 16394              	.LLST105:
 16395 10e8 B0010000 		.4byte	.LVL324
 16396 10ec BB010000 		.4byte	.LVL326-1
 16397 10f0 0100     		.2byte	0x1
 16398 10f2 50       		.byte	0x50
 16399 10f3 BB010000 		.4byte	.LVL326-1
 16400 10f7 10020000 		.4byte	.LVL336
 16401 10fb 0100     		.2byte	0x1
ARM GAS  C:\Users\AHMED~1.ELE\AppData\Local\Temp\ccpjtoUe.s 			page 320


 16402 10fd 54       		.byte	0x54
 16403 10fe 00000000 		.4byte	0
 16404 1102 00000000 		.4byte	0
 16405              	.LLST106:
 16406 1106 06020000 		.4byte	.LVL333
 16407 110a 0A020000 		.4byte	.LVL334
 16408 110e 0100     		.2byte	0x1
 16409 1110 50       		.byte	0x50
 16410 1111 0A020000 		.4byte	.LVL334
 16411 1115 62020000 		.4byte	.LVL344
 16412 1119 0100     		.2byte	0x1
 16413 111b 55       		.byte	0x55
 16414 111c 00000000 		.4byte	0
 16415 1120 00000000 		.4byte	0
 16416              	.LLST107:
 16417 1124 0E020000 		.4byte	.LVL335
 16418 1128 19020000 		.4byte	.LVL337-1
 16419 112c 0100     		.2byte	0x1
 16420 112e 50       		.byte	0x50
 16421 112f 19020000 		.4byte	.LVL337-1
 16422 1133 6C020000 		.4byte	.LVL347
 16423 1137 0100     		.2byte	0x1
 16424 1139 54       		.byte	0x54
 16425 113a 00000000 		.4byte	0
 16426 113e 00000000 		.4byte	0
 16427              	.LLST108:
 16428 1142 62020000 		.4byte	.LVL344
 16429 1146 66020000 		.4byte	.LVL345
 16430 114a 0100     		.2byte	0x1
 16431 114c 50       		.byte	0x50
 16432 114d 66020000 		.4byte	.LVL345
 16433 1151 C0020000 		.4byte	.LVL356
 16434 1155 0100     		.2byte	0x1
 16435 1157 55       		.byte	0x55
 16436 1158 24030000 		.4byte	.LVL363
 16437 115c 3E030000 		.4byte	.LVL369
 16438 1160 0100     		.2byte	0x1
 16439 1162 55       		.byte	0x55
 16440 1163 00000000 		.4byte	0
 16441 1167 00000000 		.4byte	0
 16442              	.LLST109:
 16443 116b 6A020000 		.4byte	.LVL346
 16444 116f 75020000 		.4byte	.LVL348-1
 16445 1173 0100     		.2byte	0x1
 16446 1175 50       		.byte	0x50
 16447 1176 75020000 		.4byte	.LVL348-1
 16448 117a A6020000 		.4byte	.LVL352
 16449 117e 0100     		.2byte	0x1
 16450 1180 54       		.byte	0x54
 16451 1181 00000000 		.4byte	0
 16452 1185 00000000 		.4byte	0
 16453              	.LLST110:
 16454 1189 C0020000 		.4byte	.LVL356
 16455 118d C4020000 		.4byte	.LVL357
 16456 1191 0100     		.2byte	0x1
 16457 1193 50       		.byte	0x50
 16458 1194 C4020000 		.4byte	.LVL357
ARM GAS  C:\Users\AHMED~1.ELE\AppData\Local\Temp\ccpjtoUe.s 			page 321


 16459 1198 24030000 		.4byte	.LVL363
 16460 119c 0100     		.2byte	0x1
 16461 119e 55       		.byte	0x55
 16462 119f 00000000 		.4byte	0
 16463 11a3 00000000 		.4byte	0
 16464              	.LLST111:
 16465 11a7 C8020000 		.4byte	.LVL358
 16466 11ab D7020000 		.4byte	.LVL360-1
 16467 11af 0100     		.2byte	0x1
 16468 11b1 50       		.byte	0x50
 16469 11b2 D7020000 		.4byte	.LVL360-1
 16470 11b6 24030000 		.4byte	.LVL363
 16471 11ba 0100     		.2byte	0x1
 16472 11bc 54       		.byte	0x54
 16473 11bd 00000000 		.4byte	0
 16474 11c1 00000000 		.4byte	0
 16475              	.LLST112:
 16476 11c5 34030000 		.4byte	.LVL366
 16477 11c9 38030000 		.4byte	.LVL367
 16478 11cd 0100     		.2byte	0x1
 16479 11cf 50       		.byte	0x50
 16480 11d0 38030000 		.4byte	.LVL367
 16481 11d4 DC030000 		.4byte	.LVL381
 16482 11d8 0100     		.2byte	0x1
 16483 11da 56       		.byte	0x56
 16484 11db 00000000 		.4byte	0
 16485 11df 00000000 		.4byte	0
 16486              	.LLST113:
 16487 11e3 3C030000 		.4byte	.LVL368
 16488 11e7 47030000 		.4byte	.LVL370-1
 16489 11eb 0100     		.2byte	0x1
 16490 11ed 50       		.byte	0x50
 16491 11ee 47030000 		.4byte	.LVL370-1
 16492 11f2 DC030000 		.4byte	.LVL381
 16493 11f6 0100     		.2byte	0x1
 16494 11f8 55       		.byte	0x55
 16495 11f9 00000000 		.4byte	0
 16496 11fd 00000000 		.4byte	0
 16497              	.LLST114:
 16498 1201 00000000 		.4byte	.LVL384
 16499 1205 0C000000 		.4byte	.LVL385
 16500 1209 0100     		.2byte	0x1
 16501 120b 50       		.byte	0x50
 16502 120c 0C000000 		.4byte	.LVL385
 16503 1210 11000000 		.4byte	.LVL386-1
 16504 1214 0100     		.2byte	0x1
 16505 1216 51       		.byte	0x51
 16506 1217 11000000 		.4byte	.LVL386-1
 16507 121b 94020000 		.4byte	.LFE13
 16508 121f 0400     		.2byte	0x4
 16509 1221 F3       		.byte	0xf3
 16510 1222 01       		.uleb128 0x1
 16511 1223 50       		.byte	0x50
 16512 1224 9F       		.byte	0x9f
 16513 1225 00000000 		.4byte	0
 16514 1229 00000000 		.4byte	0
 16515              	.LLST115:
ARM GAS  C:\Users\AHMED~1.ELE\AppData\Local\Temp\ccpjtoUe.s 			page 322


 16516 122d 00000000 		.4byte	.LVL384
 16517 1231 12000000 		.4byte	.LVL386
 16518 1235 0200     		.2byte	0x2
 16519 1237 30       		.byte	0x30
 16520 1238 9F       		.byte	0x9f
 16521 1239 12000000 		.4byte	.LVL386
 16522 123d 1C000000 		.4byte	.LVL387
 16523 1241 0100     		.2byte	0x1
 16524 1243 50       		.byte	0x50
 16525 1244 1C000000 		.4byte	.LVL387
 16526 1248 AE010000 		.4byte	.LVL426
 16527 124c 0100     		.2byte	0x1
 16528 124e 55       		.byte	0x55
 16529 124f AE010000 		.4byte	.LVL426
 16530 1253 B0010000 		.4byte	.LVL427
 16531 1257 0100     		.2byte	0x1
 16532 1259 50       		.byte	0x50
 16533 125a B0010000 		.4byte	.LVL427
 16534 125e 10020000 		.4byte	.LVL438
 16535 1262 0100     		.2byte	0x1
 16536 1264 55       		.byte	0x55
 16537 1265 00000000 		.4byte	0
 16538 1269 00000000 		.4byte	0
 16539              	.LLST116:
 16540 126d 00000000 		.4byte	.LVL384
 16541 1271 1C000000 		.4byte	.LVL387
 16542 1275 0200     		.2byte	0x2
 16543 1277 30       		.byte	0x30
 16544 1278 9F       		.byte	0x9f
 16545 1279 1C000000 		.4byte	.LVL387
 16546 127d 2E000000 		.4byte	.LVL388
 16547 1281 0100     		.2byte	0x1
 16548 1283 55       		.byte	0x55
 16549 1284 30000000 		.4byte	.LVL389
 16550 1288 4A000000 		.4byte	.LVL390
 16551 128c 0100     		.2byte	0x1
 16552 128e 54       		.byte	0x54
 16553 128f 4C000000 		.4byte	.LVL391
 16554 1293 7A000000 		.4byte	.LVL396
 16555 1297 0100     		.2byte	0x1
 16556 1299 54       		.byte	0x54
 16557 129a 7A000000 		.4byte	.LVL396
 16558 129e 8E000000 		.4byte	.LVL398
 16559 12a2 0100     		.2byte	0x1
 16560 12a4 50       		.byte	0x50
 16561 12a5 8E000000 		.4byte	.LVL398
 16562 12a9 98000000 		.4byte	.LVL400
 16563 12ad 0100     		.2byte	0x1
 16564 12af 54       		.byte	0x54
 16565 12b0 98000000 		.4byte	.LVL400
 16566 12b4 9A000000 		.4byte	.LVL401
 16567 12b8 0100     		.2byte	0x1
 16568 12ba 50       		.byte	0x50
 16569 12bb 9A000000 		.4byte	.LVL401
 16570 12bf AC000000 		.4byte	.LVL402
 16571 12c3 0100     		.2byte	0x1
 16572 12c5 54       		.byte	0x54
ARM GAS  C:\Users\AHMED~1.ELE\AppData\Local\Temp\ccpjtoUe.s 			page 323


 16573 12c6 AC000000 		.4byte	.LVL402
 16574 12ca BE000000 		.4byte	.LVL404
 16575 12ce 0100     		.2byte	0x1
 16576 12d0 50       		.byte	0x50
 16577 12d1 BE000000 		.4byte	.LVL404
 16578 12d5 DA000000 		.4byte	.LVL406
 16579 12d9 0100     		.2byte	0x1
 16580 12db 54       		.byte	0x54
 16581 12dc DA000000 		.4byte	.LVL406
 16582 12e0 EC000000 		.4byte	.LVL408
 16583 12e4 0100     		.2byte	0x1
 16584 12e6 50       		.byte	0x50
 16585 12e7 EC000000 		.4byte	.LVL408
 16586 12eb 08010000 		.4byte	.LVL410
 16587 12ef 0100     		.2byte	0x1
 16588 12f1 54       		.byte	0x54
 16589 12f2 08010000 		.4byte	.LVL410
 16590 12f6 1A010000 		.4byte	.LVL412
 16591 12fa 0100     		.2byte	0x1
 16592 12fc 50       		.byte	0x50
 16593 12fd 1A010000 		.4byte	.LVL412
 16594 1301 36010000 		.4byte	.LVL414
 16595 1305 0100     		.2byte	0x1
 16596 1307 54       		.byte	0x54
 16597 1308 36010000 		.4byte	.LVL414
 16598 130c 48010000 		.4byte	.LVL416
 16599 1310 0100     		.2byte	0x1
 16600 1312 50       		.byte	0x50
 16601 1313 48010000 		.4byte	.LVL416
 16602 1317 64010000 		.4byte	.LVL418
 16603 131b 0100     		.2byte	0x1
 16604 131d 54       		.byte	0x54
 16605 131e 64010000 		.4byte	.LVL418
 16606 1322 76010000 		.4byte	.LVL420
 16607 1326 0100     		.2byte	0x1
 16608 1328 50       		.byte	0x50
 16609 1329 76010000 		.4byte	.LVL420
 16610 132d 92010000 		.4byte	.LVL422
 16611 1331 0100     		.2byte	0x1
 16612 1333 54       		.byte	0x54
 16613 1334 92010000 		.4byte	.LVL422
 16614 1338 A4010000 		.4byte	.LVL424
 16615 133c 0100     		.2byte	0x1
 16616 133e 50       		.byte	0x50
 16617 133f A4010000 		.4byte	.LVL424
 16618 1343 AE010000 		.4byte	.LVL426
 16619 1347 0100     		.2byte	0x1
 16620 1349 54       		.byte	0x54
 16621 134a AE010000 		.4byte	.LVL426
 16622 134e 94020000 		.4byte	.LFE13
 16623 1352 0200     		.2byte	0x2
 16624 1354 30       		.byte	0x30
 16625 1355 9F       		.byte	0x9f
 16626 1356 00000000 		.4byte	0
 16627 135a 00000000 		.4byte	0
 16628              	.LLST117:
 16629 135e 00000000 		.4byte	.LVL384
ARM GAS  C:\Users\AHMED~1.ELE\AppData\Local\Temp\ccpjtoUe.s 			page 324


 16630 1362 1C000000 		.4byte	.LVL387
 16631 1366 0200     		.2byte	0x2
 16632 1368 30       		.byte	0x30
 16633 1369 9F       		.byte	0x9f
 16634 136a 1C000000 		.4byte	.LVL387
 16635 136e AE010000 		.4byte	.LVL426
 16636 1372 0100     		.2byte	0x1
 16637 1374 57       		.byte	0x57
 16638 1375 AE010000 		.4byte	.LVL426
 16639 1379 E8010000 		.4byte	.LVL432
 16640 137d 0200     		.2byte	0x2
 16641 137f 30       		.byte	0x30
 16642 1380 9F       		.byte	0x9f
 16643 1381 00000000 		.4byte	0
 16644 1385 00000000 		.4byte	0
 16645              	.LLST118:
 16646 1389 00000000 		.4byte	.LVL384
 16647 138d 2E000000 		.4byte	.LVL388
 16648 1391 0200     		.2byte	0x2
 16649 1393 31       		.byte	0x31
 16650 1394 9F       		.byte	0x9f
 16651 1395 30000000 		.4byte	.LVL389
 16652 1399 AE010000 		.4byte	.LVL426
 16653 139d 0200     		.2byte	0x2
 16654 139f 30       		.byte	0x30
 16655 13a0 9F       		.byte	0x9f
 16656 13a1 AE010000 		.4byte	.LVL426
 16657 13a5 E8010000 		.4byte	.LVL432
 16658 13a9 0200     		.2byte	0x2
 16659 13ab 31       		.byte	0x31
 16660 13ac 9F       		.byte	0x9f
 16661 13ad 00000000 		.4byte	0
 16662 13b1 00000000 		.4byte	0
 16663              	.LLST119:
 16664 13b5 00000000 		.4byte	.LVL384
 16665 13b9 1C000000 		.4byte	.LVL387
 16666 13bd 0200     		.2byte	0x2
 16667 13bf 30       		.byte	0x30
 16668 13c0 9F       		.byte	0x9f
 16669 13c1 1C000000 		.4byte	.LVL387
 16670 13c5 2E000000 		.4byte	.LVL388
 16671 13c9 0100     		.2byte	0x1
 16672 13cb 56       		.byte	0x56
 16673 13cc 68000000 		.4byte	.LVL395
 16674 13d0 9A000000 		.4byte	.LVL401
 16675 13d4 0200     		.2byte	0x2
 16676 13d6 31       		.byte	0x31
 16677 13d7 9F       		.byte	0x9f
 16678 13d8 AE010000 		.4byte	.LVL426
 16679 13dc E8010000 		.4byte	.LVL432
 16680 13e0 0200     		.2byte	0x2
 16681 13e2 30       		.byte	0x30
 16682 13e3 9F       		.byte	0x9f
 16683 13e4 00000000 		.4byte	0
 16684 13e8 00000000 		.4byte	0
 16685              	.LLST120:
 16686 13ec 00000000 		.4byte	.LVL384
ARM GAS  C:\Users\AHMED~1.ELE\AppData\Local\Temp\ccpjtoUe.s 			page 325


 16687 13f0 62020000 		.4byte	.LVL446
 16688 13f4 0200     		.2byte	0x2
 16689 13f6 30       		.byte	0x30
 16690 13f7 9F       		.byte	0x9f
 16691 13f8 62020000 		.4byte	.LVL446
 16692 13fc 64020000 		.4byte	.LVL447
 16693 1400 0200     		.2byte	0x2
 16694 1402 31       		.byte	0x31
 16695 1403 9F       		.byte	0x9f
 16696 1404 64020000 		.4byte	.LVL447
 16697 1408 94020000 		.4byte	.LFE13
 16698 140c 0100     		.2byte	0x1
 16699 140e 50       		.byte	0x50
 16700 140f 00000000 		.4byte	0
 16701 1413 00000000 		.4byte	0
 16702              	.LLST121:
 16703 1417 AE010000 		.4byte	.LVL426
 16704 141b E8010000 		.4byte	.LVL432
 16705 141f 0200     		.2byte	0x2
 16706 1421 41       		.byte	0x41
 16707 1422 9F       		.byte	0x9f
 16708 1423 00000000 		.4byte	0
 16709 1427 00000000 		.4byte	0
 16710              	.LLST122:
 16711 142b B6010000 		.4byte	.LVL428
 16712 142f C1010000 		.4byte	.LVL429-1
 16713 1433 0100     		.2byte	0x1
 16714 1435 50       		.byte	0x50
 16715 1436 C1010000 		.4byte	.LVL429-1
 16716 143a E8010000 		.4byte	.LVL432
 16717 143e 0100     		.2byte	0x1
 16718 1440 54       		.byte	0x54
 16719 1441 00000000 		.4byte	0
 16720 1445 00000000 		.4byte	0
 16721              	.LLST123:
 16722 1449 2A020000 		.4byte	.LVL441
 16723 144d 64020000 		.4byte	.LVL447
 16724 1451 0200     		.2byte	0x2
 16725 1453 3D       		.byte	0x3d
 16726 1454 9F       		.byte	0x9f
 16727 1455 00000000 		.4byte	0
 16728 1459 00000000 		.4byte	0
 16729              	.LLST124:
 16730 145d 32020000 		.4byte	.LVL442
 16731 1461 3D020000 		.4byte	.LVL443-1
 16732 1465 0100     		.2byte	0x1
 16733 1467 50       		.byte	0x50
 16734 1468 3D020000 		.4byte	.LVL443-1
 16735 146c 64020000 		.4byte	.LVL447
 16736 1470 0100     		.2byte	0x1
 16737 1472 54       		.byte	0x54
 16738 1473 00000000 		.4byte	0
 16739 1477 00000000 		.4byte	0
 16740              	.LLST125:
 16741 147b 18000000 		.4byte	.LVL450
 16742 147f 22000000 		.4byte	.LVL451
 16743 1483 0100     		.2byte	0x1
ARM GAS  C:\Users\AHMED~1.ELE\AppData\Local\Temp\ccpjtoUe.s 			page 326


 16744 1485 50       		.byte	0x50
 16745 1486 22000000 		.4byte	.LVL451
 16746 148a 27000000 		.4byte	.LVL452-1
 16747 148e 0100     		.2byte	0x1
 16748 1490 51       		.byte	0x51
 16749 1491 27000000 		.4byte	.LVL452-1
 16750 1495 4E000000 		.4byte	.LVL456
 16751 1499 0100     		.2byte	0x1
 16752 149b 54       		.byte	0x54
 16753 149c D6000000 		.4byte	.LVL487
 16754 14a0 D8000000 		.4byte	.LVL488
 16755 14a4 0100     		.2byte	0x1
 16756 14a6 50       		.byte	0x50
 16757 14a7 D8000000 		.4byte	.LVL488
 16758 14ab 12010000 		.4byte	.LVL494
 16759 14af 0100     		.2byte	0x1
 16760 14b1 54       		.byte	0x54
 16761 14b2 00000000 		.4byte	0
 16762 14b6 00000000 		.4byte	0
 16763              	.LLST126:
 16764 14ba 4E000000 		.4byte	.LVL456
 16765 14be 52000000 		.4byte	.LVL457
 16766 14c2 0100     		.2byte	0x1
 16767 14c4 50       		.byte	0x50
 16768 14c5 52000000 		.4byte	.LVL457
 16769 14c9 55000000 		.4byte	.LVL458-1
 16770 14cd 0100     		.2byte	0x1
 16771 14cf 51       		.byte	0x51
 16772 14d0 55000000 		.4byte	.LVL458-1
 16773 14d4 5C000000 		.4byte	.LVL460
 16774 14d8 0100     		.2byte	0x1
 16775 14da 54       		.byte	0x54
 16776 14db 60000000 		.4byte	.LVL461
 16777 14df 90000000 		.4byte	.LVL471
 16778 14e3 0100     		.2byte	0x1
 16779 14e5 54       		.byte	0x54
 16780 14e6 9A000000 		.4byte	.LVL474
 16781 14ea AC000000 		.4byte	.LVL478
 16782 14ee 0100     		.2byte	0x1
 16783 14f0 54       		.byte	0x54
 16784 14f1 00000000 		.4byte	0
 16785 14f5 00000000 		.4byte	0
 16786              	.LLST127:
 16787 14f9 5A000000 		.4byte	.LVL459
 16788 14fd 5C000000 		.4byte	.LVL460
 16789 1501 0100     		.2byte	0x1
 16790 1503 50       		.byte	0x50
 16791 1504 60000000 		.4byte	.LVL461
 16792 1508 66000000 		.4byte	.LVL462
 16793 150c 0100     		.2byte	0x1
 16794 150e 50       		.byte	0x50
 16795 150f 66000000 		.4byte	.LVL462
 16796 1513 D6000000 		.4byte	.LVL487
 16797 1517 0100     		.2byte	0x1
 16798 1519 57       		.byte	0x57
 16799 151a 00000000 		.4byte	0
 16800 151e 00000000 		.4byte	0
ARM GAS  C:\Users\AHMED~1.ELE\AppData\Local\Temp\ccpjtoUe.s 			page 327


 16801              	.LLST128:
 16802 1522 86000000 		.4byte	.LVL468
 16803 1526 88000000 		.4byte	.LVL469
 16804 152a 0100     		.2byte	0x1
 16805 152c 50       		.byte	0x50
 16806 152d 88000000 		.4byte	.LVL469
 16807 1531 94000000 		.4byte	.LVL472
 16808 1535 0100     		.2byte	0x1
 16809 1537 58       		.byte	0x58
 16810 1538 9A000000 		.4byte	.LVL474
 16811 153c D6000000 		.4byte	.LVL487
 16812 1540 0100     		.2byte	0x1
 16813 1542 58       		.byte	0x58
 16814 1543 00000000 		.4byte	0
 16815 1547 00000000 		.4byte	0
 16816              	.LLST129:
 16817 154b 6C000000 		.4byte	.LVL463
 16818 154f 72000000 		.4byte	.LVL464
 16819 1553 0100     		.2byte	0x1
 16820 1555 50       		.byte	0x50
 16821 1556 72000000 		.4byte	.LVL464
 16822 155a 76000000 		.4byte	.LVL465
 16823 155e 0100     		.2byte	0x1
 16824 1560 55       		.byte	0x55
 16825 1561 76000000 		.4byte	.LVL465
 16826 1565 7E000000 		.4byte	.LVL466
 16827 1569 0100     		.2byte	0x1
 16828 156b 50       		.byte	0x50
 16829 156c 7E000000 		.4byte	.LVL466
 16830 1570 D6000000 		.4byte	.LVL487
 16831 1574 0100     		.2byte	0x1
 16832 1576 55       		.byte	0x55
 16833 1577 00000000 		.4byte	0
 16834 157b 00000000 		.4byte	0
 16835              	.LLST130:
 16836 157f 0E000000 		.4byte	.LVL448
 16837 1583 10000000 		.4byte	.LVL449
 16838 1587 0200     		.2byte	0x2
 16839 1589 33       		.byte	0x33
 16840 158a 9F       		.byte	0x9f
 16841 158b 10000000 		.4byte	.LVL449
 16842 158f 17000000 		.4byte	.LVL450-1
 16843 1593 0100     		.2byte	0x1
 16844 1595 51       		.byte	0x51
 16845 1596 00000000 		.4byte	0
 16846 159a 00000000 		.4byte	0
 16847              	.LLST131:
 16848 159e D6000000 		.4byte	.LVL487
 16849 15a2 12010000 		.4byte	.LVL494
 16850 15a6 0200     		.2byte	0x2
 16851 15a8 41       		.byte	0x41
 16852 15a9 9F       		.byte	0x9f
 16853 15aa 00000000 		.4byte	0
 16854 15ae 00000000 		.4byte	0
 16855              	.LLST132:
 16856 15b2 DE000000 		.4byte	.LVL489
 16857 15b6 E9000000 		.4byte	.LVL490-1
ARM GAS  C:\Users\AHMED~1.ELE\AppData\Local\Temp\ccpjtoUe.s 			page 328


 16858 15ba 0100     		.2byte	0x1
 16859 15bc 50       		.byte	0x50
 16860 15bd E9000000 		.4byte	.LVL490-1
 16861 15c1 12010000 		.4byte	.LVL494
 16862 15c5 0100     		.2byte	0x1
 16863 15c7 55       		.byte	0x55
 16864 15c8 00000000 		.4byte	0
 16865 15cc 00000000 		.4byte	0
 16866              		.section	.debug_aranges,"",%progbits
 16867 0000 8C000000 		.4byte	0x8c
 16868 0004 0200     		.2byte	0x2
 16869 0006 00000000 		.4byte	.Ldebug_info0
 16870 000a 04       		.byte	0x4
 16871 000b 00       		.byte	0
 16872 000c 0000     		.2byte	0
 16873 000e 0000     		.2byte	0
 16874 0010 00000000 		.4byte	.LFB0
 16875 0014 44000000 		.4byte	.LFE0-.LFB0
 16876 0018 00000000 		.4byte	.LFB1
 16877 001c D8000000 		.4byte	.LFE1-.LFB1
 16878 0020 00000000 		.4byte	.LFB2
 16879 0024 10010000 		.4byte	.LFE2-.LFB2
 16880 0028 00000000 		.4byte	.LFB3
 16881 002c 10010000 		.4byte	.LFE3-.LFB3
 16882 0030 00000000 		.4byte	.LFB4
 16883 0034 0C010000 		.4byte	.LFE4-.LFB4
 16884 0038 00000000 		.4byte	.LFB5
 16885 003c A0000000 		.4byte	.LFE5-.LFB5
 16886 0040 00000000 		.4byte	.LFB6
 16887 0044 D0000000 		.4byte	.LFE6-.LFB6
 16888 0048 00000000 		.4byte	.LFB7
 16889 004c A0000000 		.4byte	.LFE7-.LFB7
 16890 0050 00000000 		.4byte	.LFB8
 16891 0054 A8000000 		.4byte	.LFE8-.LFB8
 16892 0058 00000000 		.4byte	.LFB9
 16893 005c 90000000 		.4byte	.LFE9-.LFB9
 16894 0060 00000000 		.4byte	.LFB10
 16895 0064 90000000 		.4byte	.LFE10-.LFB10
 16896 0068 00000000 		.4byte	.LFB11
 16897 006c C8000000 		.4byte	.LFE11-.LFB11
 16898 0070 00000000 		.4byte	.LFB12
 16899 0074 00040000 		.4byte	.LFE12-.LFB12
 16900 0078 00000000 		.4byte	.LFB13
 16901 007c 94020000 		.4byte	.LFE13-.LFB13
 16902 0080 00000000 		.4byte	.LFB14
 16903 0084 24010000 		.4byte	.LFE14-.LFB14
 16904 0088 00000000 		.4byte	0
 16905 008c 00000000 		.4byte	0
 16906              		.section	.debug_ranges,"",%progbits
 16907              	.Ldebug_ranges0:
 16908 0000 00000000 		.4byte	.LFB0
 16909 0004 44000000 		.4byte	.LFE0
 16910 0008 00000000 		.4byte	.LFB1
 16911 000c D8000000 		.4byte	.LFE1
 16912 0010 00000000 		.4byte	.LFB2
 16913 0014 10010000 		.4byte	.LFE2
 16914 0018 00000000 		.4byte	.LFB3
ARM GAS  C:\Users\AHMED~1.ELE\AppData\Local\Temp\ccpjtoUe.s 			page 329


 16915 001c 10010000 		.4byte	.LFE3
 16916 0020 00000000 		.4byte	.LFB4
 16917 0024 0C010000 		.4byte	.LFE4
 16918 0028 00000000 		.4byte	.LFB5
 16919 002c A0000000 		.4byte	.LFE5
 16920 0030 00000000 		.4byte	.LFB6
 16921 0034 D0000000 		.4byte	.LFE6
 16922 0038 00000000 		.4byte	.LFB7
 16923 003c A0000000 		.4byte	.LFE7
 16924 0040 00000000 		.4byte	.LFB8
 16925 0044 A8000000 		.4byte	.LFE8
 16926 0048 00000000 		.4byte	.LFB9
 16927 004c 90000000 		.4byte	.LFE9
 16928 0050 00000000 		.4byte	.LFB10
 16929 0054 90000000 		.4byte	.LFE10
 16930 0058 00000000 		.4byte	.LFB11
 16931 005c C8000000 		.4byte	.LFE11
 16932 0060 00000000 		.4byte	.LFB12
 16933 0064 00040000 		.4byte	.LFE12
 16934 0068 00000000 		.4byte	.LFB13
 16935 006c 94020000 		.4byte	.LFE13
 16936 0070 00000000 		.4byte	.LFB14
 16937 0074 24010000 		.4byte	.LFE14
 16938 0078 00000000 		.4byte	0
 16939 007c 00000000 		.4byte	0
 16940              		.section	.debug_line,"",%progbits
 16941              	.Ldebug_line0:
 16942 0000 5A050000 		.section	.debug_str,"MS",%progbits,1
 16942      02009001 
 16942      00000201 
 16942      FB0E0D00 
 16942      01010101 
 16943              	.LASF328:
 16944 0000 4F535F46 		.ascii	"OS_FN_CLICC_LED_OPEN\000"
 16944      4E5F434C 
 16944      4943435F 
 16944      4C45445F 
 16944      4F50454E 
 16945              	.LASF341:
 16946 0015 4F535F46 		.ascii	"OS_FN_DRIVER_REGISTER\000"
 16946      4E5F4452 
 16946      49564552 
 16946      5F524547 
 16946      49535445 
 16947              	.LASF479:
 16948 002b 4F535F46 		.ascii	"OS_FN_GPRS_SET_PIN_STATUS\000"
 16948      4E5F4750 
 16948      52535F53 
 16948      45545F50 
 16948      494E5F53 
 16949              	.LASF603:
 16950 0045 73625F70 		.ascii	"sb_pan_format\000"
 16950      616E5F66 
 16950      6F726D61 
 16950      7400
 16951              	.LASF807:
 16952 0053 53657445 		.ascii	"SetEMVLoaded\000"
ARM GAS  C:\Users\AHMED~1.ELE\AppData\Local\Temp\ccpjtoUe.s 			page 330


 16952      4D564C6F 
 16952      61646564 
 16952      00
 16953              	.LASF316:
 16954 0060 4F535F46 		.ascii	"OS_FN_CODEC_CLOSE\000"
 16954      4E5F434F 
 16954      4445435F 
 16954      434C4F53 
 16954      4500
 16955              	.LASF428:
 16956 0072 4F535F46 		.ascii	"OS_FN_GET_CALLID\000"
 16956      4E5F4745 
 16956      545F4341 
 16956      4C4C4944 
 16956      00
 16957              	.LASF589:
 16958 0083 61706E32 		.ascii	"apn2_port\000"
 16958      5F706F72 
 16958      7400
 16959              	.LASF570:
 16960 008d 73625F64 		.ascii	"sb_dflt_name\000"
 16960      666C745F 
 16960      6E616D65 
 16960      00
 16961              	.LASF194:
 16962 009a 4F535F46 		.ascii	"OS_FN_FILE_INIT_SEARCH\000"
 16962      4E5F4649 
 16962      4C455F49 
 16962      4E49545F 
 16962      53454152 
 16963              	.LASF634:
 16964 00b1 625F7374 		.ascii	"b_status\000"
 16964      61747573 
 16964      00
 16965              	.LASF11:
 16966 00ba 73697A65 		.ascii	"size_t\000"
 16966      5F7400
 16967              	.LASF673:
 16968 00c1 4D584D4C 		.ascii	"MXML_CUSTOM\000"
 16968      5F435553 
 16968      544F4D00 
 16969              	.LASF174:
 16970 00cd 4F535F46 		.ascii	"OS_FN_FILE_SEEK\000"
 16970      4E5F4649 
 16970      4C455F53 
 16970      45454B00 
 16971              	.LASF9:
 16972 00dd 73697A65 		.ascii	"sizetype\000"
 16972      74797065 
 16972      00
 16973              	.LASF415:
 16974 00e6 4F535F46 		.ascii	"OS_FN_NFC_IC_REG_DIRECT_WRITE\000"
 16974      4E5F4E46 
 16974      435F4943 
 16974      5F524547 
 16974      5F444952 
 16975              	.LASF773:
ARM GAS  C:\Users\AHMED~1.ELE\AppData\Local\Temp\ccpjtoUe.s 			page 331


 16976 0104 6E657874 		.ascii	"next_node\000"
 16976      5F6E6F64 
 16976      6500
 16977              	.LASF774:
 16978 010e 73746172 		.ascii	"start\000"
 16978      7400
 16979              	.LASF627:
 16980 0114 73625F76 		.ascii	"sb_visa1_term_id\000"
 16980      69736131 
 16980      5F746572 
 16980      6D5F6964 
 16980      00
 16981              	.LASF304:
 16982 0125 4F535F46 		.ascii	"OS_FN_GPRS_SMS_SEND\000"
 16982      4E5F4750 
 16982      52535F53 
 16982      4D535F53 
 16982      454E4400 
 16983              	.LASF548:
 16984 0139 534D535F 		.ascii	"SMS_RX_MW\000"
 16984      52585F4D 
 16984      5700
 16985              	.LASF572:
 16986 0143 625F7472 		.ascii	"b_trans_amount_len\000"
 16986      616E735F 
 16986      616D6F75 
 16986      6E745F6C 
 16986      656E00
 16987              	.LASF724:
 16988 0156 7362586D 		.ascii	"sbXmlTag\000"
 16988      6C546167 
 16988      00
 16989              	.LASF333:
 16990 015f 4F535F46 		.ascii	"OS_FN_CLICC_LED_ON\000"
 16990      4E5F434C 
 16990      4943435F 
 16990      4C45445F 
 16990      4F4E00
 16991              	.LASF340:
 16992 0172 4F535F46 		.ascii	"OS_FN_USBHOST_DEVICEMAP\000"
 16992      4E5F5553 
 16992      42484F53 
 16992      545F4445 
 16992      56494345 
 16993              	.LASF516:
 16994 018a 464F5045 		.ascii	"FOPENMW\000"
 16994      4E4D5700 
 16995              	.LASF765:
 16996 0192 75736572 		.ascii	"user\000"
 16996      00
 16997              	.LASF635:
 16998 0197 625F7065 		.ascii	"b_pending\000"
 16998      6E64696E 
 16998      6700
 16999              	.LASF760:
 17000 01a1 50617273 		.ascii	"ParseEmvApp\000"
 17000      65456D76 
ARM GAS  C:\Users\AHMED~1.ELE\AppData\Local\Temp\ccpjtoUe.s 			page 332


 17000      41707000 
 17001              	.LASF458:
 17002 01ad 4F535F46 		.ascii	"OS_FN_GCM_AES_OPEN\000"
 17002      4E5F4743 
 17002      4D5F4145 
 17002      535F4F50 
 17002      454E00
 17003              	.LASF541:
 17004 01c0 44495350 		.ascii	"DISP_SETPMW\000"
 17004      5F534554 
 17004      504D5700 
 17005              	.LASF315:
 17006 01cc 4F535F46 		.ascii	"OS_FN_CODEC_OPEN\000"
 17006      4E5F434F 
 17006      4445435F 
 17006      4F50454E 
 17006      00
 17007              	.LASF549:
 17008 01dd 534D535F 		.ascii	"SMS_TX_MW\000"
 17008      54585F4D 
 17008      5700
 17009              	.LASF82:
 17010 01e7 4F535F46 		.ascii	"OS_FN_COM3_SREAD\000"
 17010      4E5F434F 
 17010      4D335F53 
 17010      52454144 
 17010      00
 17011              	.LASF170:
 17012 01f8 4F535F46 		.ascii	"OS_FN_FILE_EXIST\000"
 17012      4E5F4649 
 17012      4C455F45 
 17012      58495354 
 17012      00
 17013              	.LASF480:
 17014 0209 4F535F46 		.ascii	"OS_FN_IMG_SENSOR_LED_OPEN\000"
 17014      4E5F494D 
 17014      475F5345 
 17014      4E534F52 
 17014      5F4C4544 
 17015              	.LASF119:
 17016 0223 4F535F46 		.ascii	"OS_FN_SM4_DECRYPT\000"
 17016      4E5F534D 
 17016      345F4445 
 17016      43525950 
 17016      5400
 17017              	.LASF488:
 17018 0235 4F535F46 		.ascii	"OS_FN_GPS_GET_DETAIL_INFO\000"
 17018      4E5F4750 
 17018      535F4745 
 17018      545F4445 
 17018      5441494C 
 17019              	.LASF818:
 17020 024f 53657447 		.ascii	"SetGPRSInfo\000"
 17020      50525349 
 17020      6E666F00 
 17021              	.LASF726:
 17022 025b 7753697A 		.ascii	"wSize\000"
ARM GAS  C:\Users\AHMED~1.ELE\AppData\Local\Temp\ccpjtoUe.s 			page 333


 17022      6500
 17023              	.LASF300:
 17024 0261 4F535F46 		.ascii	"OS_FN_GPRS_GET_CID\000"
 17024      4E5F4750 
 17024      52535F47 
 17024      45545F43 
 17024      494400
 17025              	.LASF369:
 17026 0274 4F535F46 		.ascii	"OS_FN_TAMPER_RESET_STATUS\000"
 17026      4E5F5441 
 17026      4D504552 
 17026      5F524553 
 17026      45545F53 
 17027              	.LASF799:
 17028 028e 64656362 		.ascii	"decbin8b\000"
 17028      696E3862 
 17028      00
 17029              	.LASF783:
 17030 0297 67436172 		.ascii	"gCardIdx\000"
 17030      64496478 
 17030      00
 17031              	.LASF442:
 17032 02a0 4F535F46 		.ascii	"OS_FN_POWER\000"
 17032      4E5F504F 
 17032      57455200 
 17033              	.LASF651:
 17034 02ac 65544143 		.ascii	"eTACOnline\000"
 17034      4F6E6C69 
 17034      6E6500
 17035              	.LASF57:
 17036 02b7 4F535F46 		.ascii	"OS_FN_COM1_OPEN\000"
 17036      4E5F434F 
 17036      4D315F4F 
 17036      50454E00 
 17037              	.LASF632:
 17038 02c7 73625F69 		.ascii	"sb_ip\000"
 17038      7000
 17039              	.LASF290:
 17040 02cd 4F535F46 		.ascii	"OS_FN_ADC_CH_DISABLE\000"
 17040      4E5F4144 
 17040      435F4348 
 17040      5F444953 
 17040      41424C45 
 17041              	.LASF216:
 17042 02e2 4F535F46 		.ascii	"OS_FN_MMC_SIZE\000"
 17042      4E5F4D4D 
 17042      435F5349 
 17042      5A4500
 17043              	.LASF802:
 17044 02f1 6D786D6C 		.ascii	"mxmlGetText\000"
 17044      47657454 
 17044      65787400 
 17045              	.LASF318:
 17046 02fd 4F535F46 		.ascii	"OS_FN_CODEC_PLAY_RAM\000"
 17046      4E5F434F 
 17046      4445435F 
 17046      504C4159 
ARM GAS  C:\Users\AHMED~1.ELE\AppData\Local\Temp\ccpjtoUe.s 			page 334


 17046      5F52414D 
 17047              	.LASF183:
 17048 0312 4F535F46 		.ascii	"OS_FN_FILE_DSEARCH_ALL\000"
 17048      4E5F4649 
 17048      4C455F44 
 17048      53454152 
 17048      43485F41 
 17049              	.LASF437:
 17050 0329 4F535F46 		.ascii	"OS_FN_DMK_KVC_READ\000"
 17050      4E5F444D 
 17050      4B5F4B56 
 17050      435F5245 
 17050      414400
 17051              	.LASF434:
 17052 033c 4F535F46 		.ascii	"OS_FN_RDLL_APP\000"
 17052      4E5F5244 
 17052      4C4C5F41 
 17052      505000
 17053              	.LASF505:
 17054 034b 4F50454E 		.ascii	"OPENMW\000"
 17054      4D5700
 17055              	.LASF836:
 17056 0352 454D5644 		.ascii	"EMVDataUpdate\000"
 17056      61746155 
 17056      70646174 
 17056      6500
 17057              	.LASF464:
 17058 0360 4F535F46 		.ascii	"OS_FN_SYS_THREAD_CREATE\000"
 17058      4E5F5359 
 17058      535F5448 
 17058      52454144 
 17058      5F435245 
 17059              	.LASF147:
 17060 0378 4F535F46 		.ascii	"OS_FN_BUFMAN_FREE\000"
 17060      4E5F4255 
 17060      464D414E 
 17060      5F465245 
 17060      4500
 17061              	.LASF295:
 17062 038a 4F535F46 		.ascii	"OS_FN_GPRS_AT_RESP\000"
 17062      4E5F4750 
 17062      52535F41 
 17062      545F5245 
 17062      535000
 17063              	.LASF696:
 17064 039d 74657874 		.ascii	"text\000"
 17064      00
 17065              	.LASF623:
 17066 03a2 73625F61 		.ascii	"sb_acceptor_id\000"
 17066      63636570 
 17066      746F725F 
 17066      696400
 17067              	.LASF554:
 17068 03b1 46465452 		.ascii	"FFTRUNCATEMW\000"
 17068      554E4341 
 17068      54454D57 
 17068      00
ARM GAS  C:\Users\AHMED~1.ELE\AppData\Local\Temp\ccpjtoUe.s 			page 335


 17069              	.LASF768:
 17070 03be 63686F69 		.ascii	"choice\000"
 17070      636500
 17071              	.LASF73:
 17072 03c5 4F535F46 		.ascii	"OS_FN_COM2_SREAD\000"
 17072      4E5F434F 
 17072      4D325F53 
 17072      52454144 
 17072      00
 17073              	.LASF779:
 17074 03d6 6673697A 		.ascii	"fsize\000"
 17074      6500
 17075              	.LASF775:
 17076 03dc 73746174 		.ascii	"state\000"
 17076      6500
 17077              	.LASF654:
 17078 03e2 4150505F 		.ascii	"APP_CFG\000"
 17078      43464700 
 17079              	.LASF669:
 17080 03ea 4D584D4C 		.ascii	"MXML_INTEGER\000"
 17080      5F494E54 
 17080      45474552 
 17080      00
 17081              	.LASF636:
 17082 03f7 4578706F 		.ascii	"Exponent\000"
 17082      6E656E74 
 17082      00
 17083              	.LASF478:
 17084 0400 4F535F46 		.ascii	"OS_FN_GPRS_IS_HL6RD_OLD_FRM\000"
 17084      4E5F4750 
 17084      52535F49 
 17084      535F484C 
 17084      3652445F 
 17085              	.LASF791:
 17086 041c 456D764B 		.ascii	"EmvKeyParam\000"
 17086      65795061 
 17086      72616D00 
 17087              	.LASF279:
 17088 0428 4F535F46 		.ascii	"OS_FN_MCOM_TXRDY\000"
 17088      4E5F4D43 
 17088      4F4D5F54 
 17088      58524459 
 17088      00
 17089              	.LASF808:
 17090 0439 454D5644 		.ascii	"EMVData2DnloadBuf\000"
 17090      61746132 
 17090      446E6C6F 
 17090      61644275 
 17090      6600
 17091              	.LASF739:
 17092 044b 61547970 		.ascii	"aType\000"
 17092      6500
 17093              	.LASF626:
 17094 0451 73625F6E 		.ascii	"sb_next_batch_no\000"
 17094      6578745F 
 17094      62617463 
 17094      685F6E6F 
ARM GAS  C:\Users\AHMED~1.ELE\AppData\Local\Temp\ccpjtoUe.s 			page 336


 17094      00
 17095              	.LASF50:
 17096 0462 4F535F46 		.ascii	"OS_FN_DISP_BRIGHTNESS\000"
 17096      4E5F4449 
 17096      53505F42 
 17096      52494748 
 17096      544E4553 
 17097              	.LASF306:
 17098 0478 4F535F46 		.ascii	"OS_FN_GPRS_SMS_READ\000"
 17098      4E5F4750 
 17098      52535F53 
 17098      4D535F52 
 17098      45414400 
 17099              	.LASF531:
 17100 048c 49434349 		.ascii	"ICCINSERTEDMW\000"
 17100      4E534552 
 17100      5445444D 
 17100      5700
 17101              	.LASF297:
 17102 049a 4F535F46 		.ascii	"OS_FN_GPRS_READ\000"
 17102      4E5F4750 
 17102      52535F52 
 17102      45414400 
 17103              	.LASF501:
 17104 04aa 55534246 		.ascii	"USBFPRT_GENERAL_INFO_IMG_BPP\000"
 17104      5052545F 
 17104      47454E45 
 17104      52414C5F 
 17104      494E464F 
 17105              	.LASF701:
 17106 04c7 74797065 		.ascii	"type\000"
 17106      00
 17107              	.LASF190:
 17108 04cc 4F535F46 		.ascii	"OS_FN_FILE_GET_FREE_SPACE\000"
 17108      4E5F4649 
 17108      4C455F47 
 17108      45545F46 
 17108      5245455F 
 17109              	.LASF130:
 17110 04e6 4F535F46 		.ascii	"OS_FN_KEY_SAVE_NC\000"
 17110      4E5F4B45 
 17110      595F5341 
 17110      56455F4E 
 17110      4300
 17111              	.LASF469:
 17112 04f8 4F535F46 		.ascii	"OS_FN_WIFI_SOCKET_SEND_UDP\000"
 17112      4E5F5749 
 17112      46495F53 
 17112      4F434B45 
 17112      545F5345 
 17113              	.LASF596:
 17114 0513 625F6163 		.ascii	"b_acquirer_id\000"
 17114      71756972 
 17114      65725F69 
 17114      6400
 17115              	.LASF440:
 17116 0521 4F535F46 		.ascii	"OS_FN_RMB_CONTROL\000"
ARM GAS  C:\Users\AHMED~1.ELE\AppData\Local\Temp\ccpjtoUe.s 			page 337


 17116      4E5F524D 
 17116      425F434F 
 17116      4E54524F 
 17116      4C00
 17117              	.LASF110:
 17118 0533 4F535F46 		.ascii	"OS_FN_SM2_GET_SIGNATURE\000"
 17118      4E5F534D 
 17118      325F4745 
 17118      545F5349 
 17118      474E4154 
 17119              	.LASF76:
 17120 054b 4F535F46 		.ascii	"OS_FN_COM3_CLOSE\000"
 17120      4E5F434F 
 17120      4D335F43 
 17120      4C4F5345 
 17120      00
 17121              	.LASF788:
 17122 055c 43617264 		.ascii	"CardTableParam\000"
 17122      5461626C 
 17122      65506172 
 17122      616D00
 17123              	.LASF339:
 17124 056b 4F535F46 		.ascii	"OS_FN_USBHOST_DEVINFO\000"
 17124      4E5F5553 
 17124      42484F53 
 17124      545F4445 
 17124      56494E46 
 17125              	.LASF236:
 17126 0581 4F535F46 		.ascii	"OS_FN_MSR_RXLEN\000"
 17126      4E5F4D53 
 17126      525F5258 
 17126      4C454E00 
 17127              	.LASF735:
 17128 0591 55706461 		.ascii	"UpdateParamEmvApp\000"
 17128      74655061 
 17128      72616D45 
 17128      6D764170 
 17128      7000
 17129              	.LASF780:
 17130 05a3 726C656E 		.ascii	"rlen\000"
 17130      00
 17131              	.LASF95:
 17132 05a8 4F535F46 		.ascii	"OS_FN_AES_ENCRYPT_BLOCK\000"
 17132      4E5F4145 
 17132      535F454E 
 17132      43525950 
 17132      545F424C 
 17133              	.LASF180:
 17134 05c0 4F535F46 		.ascii	"OS_FN_FILE_END\000"
 17134      4E5F4649 
 17134      4C455F45 
 17134      4E4400
 17135              	.LASF747:
 17136 05cf 50617273 		.ascii	"ParseTermCfg\000"
 17136      65546572 
 17136      6D436667 
 17136      00
ARM GAS  C:\Users\AHMED~1.ELE\AppData\Local\Temp\ccpjtoUe.s 			page 338


 17137              	.LASF207:
 17138 05dc 4F535F46 		.ascii	"OS_FN_SAM_SELECT\000"
 17138      4E5F5341 
 17138      4D5F5345 
 17138      4C454354 
 17138      00
 17139              	.LASF424:
 17140 05ed 4F535F46 		.ascii	"OS_FN_GPS_ENABLED\000"
 17140      4E5F4750 
 17140      535F454E 
 17140      41424C45 
 17140      4400
 17141              	.LASF400:
 17142 05ff 4F535F46 		.ascii	"OS_FN_BARCODE_STATUS\000"
 17142      4E5F4241 
 17142      52434F44 
 17142      455F5354 
 17142      41545553 
 17143              	.LASF71:
 17144 0614 4F535F46 		.ascii	"OS_FN_COM2_SEND\000"
 17144      4E5F434F 
 17144      4D325F53 
 17144      454E4400 
 17145              	.LASF205:
 17146 0624 4F535F46 		.ascii	"OS_FN_SAM_OPEN\000"
 17146      4E5F5341 
 17146      4D5F4F50 
 17146      454E00
 17147              	.LASF145:
 17148 0633 4F535F46 		.ascii	"OS_FN_THREAD_RETURN\000"
 17148      4E5F5448 
 17148      52454144 
 17148      5F524554 
 17148      55524E00 
 17149              	.LASF103:
 17150 0647 4F535F46 		.ascii	"OS_FN_SHA_FINISH\000"
 17150      4E5F5348 
 17150      415F4649 
 17150      4E495348 
 17150      00
 17151              	.LASF384:
 17152 0658 4F535F46 		.ascii	"OS_FN_MIF_INC\000"
 17152      4E5F4D49 
 17152      465F494E 
 17152      4300
 17153              	.LASF422:
 17154 0666 4F535F46 		.ascii	"OS_FN_GPS_RESP\000"
 17154      4E5F4750 
 17154      535F5245 
 17154      535000
 17155              	.LASF186:
 17156 0675 4F535F46 		.ascii	"OS_FN_FILE_GET_NAME\000"
 17156      4E5F4649 
 17156      4C455F47 
 17156      45545F4E 
 17156      414D4500 
 17157              	.LASF732:
ARM GAS  C:\Users\AHMED~1.ELE\AppData\Local\Temp\ccpjtoUe.s 			page 339


 17158 0689 614E616D 		.ascii	"aName\000"
 17158      6500
 17159              	.LASF111:
 17160 068f 4F535F46 		.ascii	"OS_FN_SM2_VERIFY_SIGNATURE\000"
 17160      4E5F534D 
 17160      325F5645 
 17160      52494659 
 17160      5F534947 
 17161              	.LASF506:
 17162 06aa 434C4F53 		.ascii	"CLOSEMW\000"
 17162      454D5700 
 17163              	.LASF96:
 17164 06b2 4F535F46 		.ascii	"OS_FN_AES_DECRYPT_BLOCK\000"
 17164      4E5F4145 
 17164      535F4445 
 17164      43525950 
 17164      545F424C 
 17165              	.LASF122:
 17166 06ca 4F535F46 		.ascii	"OS_FN_KEY_DES\000"
 17166      4E5F4B45 
 17166      595F4445 
 17166      5300
 17167              	.LASF27:
 17168 06d8 4F535F46 		.ascii	"OS_FN_TIMER_OPEN\000"
 17168      4E5F5449 
 17168      4D45525F 
 17168      4F50454E 
 17168      00
 17169              	.LASF560:
 17170 06e9 625F646C 		.ascii	"b_dll\000"
 17170      6C00
 17171              	.LASF598:
 17172 06ef 49535355 		.ascii	"ISSUER_TBL\000"
 17172      45525F54 
 17172      424C00
 17173              	.LASF13:
 17174 06fa 42595445 		.ascii	"BYTE\000"
 17174      00
 17175              	.LASF700:
 17176 06ff 6D786D6C 		.ascii	"mxml_node_s\000"
 17176      5F6E6F64 
 17176      655F7300 
 17177              	.LASF709:
 17178 070b 6D786D6C 		.ascii	"mxml_node_t\000"
 17178      5F6E6F64 
 17178      655F7400 
 17179              	.LASF559:
 17180 0717 4D41585F 		.ascii	"MAX_APM_AUX\000"
 17180      41504D5F 
 17180      41555800 
 17181              	.LASF120:
 17182 0723 4F535F46 		.ascii	"OS_FN_KEY_SAVE\000"
 17182      4E5F4B45 
 17182      595F5341 
 17182      564500
 17183              	.LASF93:
 17184 0732 4F535F46 		.ascii	"OS_FN_RSA_PRIVATE\000"
ARM GAS  C:\Users\AHMED~1.ELE\AppData\Local\Temp\ccpjtoUe.s 			page 340


 17184      4E5F5253 
 17184      415F5052 
 17184      49564154 
 17184      4500
 17185              	.LASF255:
 17186 0744 4F535F46 		.ascii	"OS_FN_FL_PGM\000"
 17186      4E5F464C 
 17186      5F50474D 
 17186      00
 17187              	.LASF197:
 17188 0751 4F535F46 		.ascii	"OS_FN_FILE_RMDIR\000"
 17188      4E5F4649 
 17188      4C455F52 
 17188      4D444952 
 17188      00
 17189              	.LASF795:
 17190 0762 61746F69 		.ascii	"atoi\000"
 17190      00
 17191              	.LASF153:
 17192 0767 4F535F46 		.ascii	"OS_FN_LED_SET\000"
 17192      4E5F4C45 
 17192      445F5345 
 17192      5400
 17193              	.LASF522:
 17194 0775 46434F4D 		.ascii	"FCOMMITALLMW\000"
 17194      4D495441 
 17194      4C4C4D57 
 17194      00
 17195              	.LASF443:
 17196 0782 4F535F46 		.ascii	"OS_FN_CLICC_DEBUG\000"
 17196      4E5F434C 
 17196      4943435F 
 17196      44454255 
 17196      4700
 17197              	.LASF386:
 17198 0794 4F535F46 		.ascii	"OS_FN_MIF_RESTORE\000"
 17198      4E5F4D49 
 17198      465F5245 
 17198      53544F52 
 17198      4500
 17199              	.LASF281:
 17200 07a6 4F535F46 		.ascii	"OS_FN_MCOM_SSEND\000"
 17200      4E5F4D43 
 17200      4F4D5F53 
 17200      53454E44 
 17200      00
 17201              	.LASF343:
 17202 07b7 4F535F46 		.ascii	"OS_FN_DEVICE_ALLOC\000"
 17202      4E5F4445 
 17202      56494345 
 17202      5F414C4C 
 17202      4F4300
 17203              	.LASF454:
 17204 07ca 4F535F46 		.ascii	"OS_FN_FPRT_INFO_GET\000"
 17204      4E5F4650 
 17204      52545F49 
 17204      4E464F5F 
ARM GAS  C:\Users\AHMED~1.ELE\AppData\Local\Temp\ccpjtoUe.s 			page 341


 17204      47455400 
 17205              	.LASF199:
 17206 07de 4F535F46 		.ascii	"OS_FN_FILE_SYNC\000"
 17206      4E5F4649 
 17206      4C455F53 
 17206      594E4300 
 17207              	.LASF450:
 17208 07ee 4F535F46 		.ascii	"OS_FN_FPRT_OPEN\000"
 17208      4E5F4650 
 17208      52545F4F 
 17208      50454E00 
 17209              	.LASF517:
 17210 07fe 46434C4F 		.ascii	"FCLOSEMW\000"
 17210      53454D57 
 17210      00
 17211              	.LASF512:
 17212 0807 4745544C 		.ascii	"GETLASTERRMW\000"
 17212      41535445 
 17212      52524D57 
 17212      00
 17213              	.LASF237:
 17214 0814 4F535F46 		.ascii	"OS_FN_MSR_GETC\000"
 17214      4E5F4D53 
 17214      525F4745 
 17214      544300
 17215              	.LASF687:
 17216 0823 6D786D6C 		.ascii	"mxml_text_t\000"
 17216      5F746578 
 17216      745F7400 
 17217              	.LASF288:
 17218 082f 4F535F46 		.ascii	"OS_FN_BATT_CHARGE_MODE\000"
 17218      4E5F4241 
 17218      54545F43 
 17218      48415247 
 17218      455F4D4F 
 17219              	.LASF734:
 17220 0846 6F666673 		.ascii	"offset\000"
 17220      657400
 17221              	.LASF492:
 17222 084d 735F6E61 		.ascii	"s_name\000"
 17222      6D6500
 17223              	.LASF576:
 17224 0854 73625F63 		.ascii	"sb_currency_name\000"
 17224      75727265 
 17224      6E63795F 
 17224      6E616D65 
 17224      00
 17225              	.LASF357:
 17226 0865 4F535F46 		.ascii	"OS_FN_USBOTG_GET_STATE\000"
 17226      4E5F5553 
 17226      424F5447 
 17226      5F474554 
 17226      5F535441 
 17227              	.LASF566:
 17228 087c 73625F70 		.ascii	"sb_password\000"
 17228      61737377 
 17228      6F726400 
ARM GAS  C:\Users\AHMED~1.ELE\AppData\Local\Temp\ccpjtoUe.s 			page 342


 17229              	.LASF601:
 17230 0888 73625F72 		.ascii	"sb_ref_tel_no\000"
 17230      65665F74 
 17230      656C5F6E 
 17230      6F00
 17231              	.LASF753:
 17232 0896 6E5F6F66 		.ascii	"n_offset\000"
 17232      66736574 
 17232      00
 17233              	.LASF685:
 17234 089f 77686974 		.ascii	"whitespace\000"
 17234      65737061 
 17234      636500
 17235              	.LASF234:
 17236 08aa 4F535F46 		.ascii	"OS_FN_MSR_OPEN\000"
 17236      4E5F4D53 
 17236      525F4F50 
 17236      454E00
 17237              	.LASF146:
 17238 08b9 4F535F46 		.ascii	"OS_FN_BUFMAN_ALLOC\000"
 17238      4E5F4255 
 17238      464D414E 
 17238      5F414C4C 
 17238      4F4300
 17239              	.LASF607:
 17240 08cc 73625F6E 		.ascii	"sb_name\000"
 17240      616D6500 
 17241              	.LASF730:
 17242 08d4 61417070 		.ascii	"aAppCfg\000"
 17242      43666700 
 17243              	.LASF301:
 17244 08dc 4F535F46 		.ascii	"OS_FN_GPRS_READ_USSD\000"
 17244      4E5F4750 
 17244      52535F52 
 17244      4541445F 
 17244      55535344 
 17245              	.LASF112:
 17246 08f1 4F535F46 		.ascii	"OS_FN_SM2_ENCRYPT\000"
 17246      4E5F534D 
 17246      325F454E 
 17246      43525950 
 17246      5400
 17247              	.LASF743:
 17248 0903 55706461 		.ascii	"UpdateNodeParam\000"
 17248      74654E6F 
 17248      64655061 
 17248      72616D00 
 17249              	.LASF633:
 17250 0913 73625F70 		.ascii	"sb_port\000"
 17250      6F727400 
 17251              	.LASF823:
 17252 091b 53657453 		.ascii	"SetSTISMode\000"
 17252      5449534D 
 17252      6F646500 
 17253              	.LASF461:
 17254 0927 4F535F46 		.ascii	"OS_FN_GCM_AES_PROCESS\000"
 17254      4E5F4743 
ARM GAS  C:\Users\AHMED~1.ELE\AppData\Local\Temp\ccpjtoUe.s 			page 343


 17254      4D5F4145 
 17254      535F5052 
 17254      4F434553 
 17255              	.LASF345:
 17256 093d 4F535F46 		.ascii	"OS_FN_DEVICE_UNREGISTER\000"
 17256      4E5F4445 
 17256      56494345 
 17256      5F554E52 
 17256      45474953 
 17257              	.LASF694:
 17258 0955 6F706171 		.ascii	"opaque\000"
 17258      756500
 17259              	.LASF109:
 17260 095c 4F535F46 		.ascii	"OS_FN_SM2_FREE_CURVE\000"
 17260      4E5F534D 
 17260      325F4652 
 17260      45455F43 
 17260      55525645 
 17261              	.LASF486:
 17262 0971 4F535F46 		.ascii	"OS_FN_BATT_LEVEL2\000"
 17262      4E5F4241 
 17262      54545F4C 
 17262      4556454C 
 17262      3200
 17263              	.LASF289:
 17264 0983 4F535F46 		.ascii	"OS_FN_ADC_CH_ENABLE\000"
 17264      4E5F4144 
 17264      435F4348 
 17264      5F454E41 
 17264      424C4500 
 17265              	.LASF693:
 17266 0997 696E7465 		.ascii	"integer\000"
 17266      67657200 
 17267              	.LASF629:
 17268 099f 625F686F 		.ascii	"b_host_type\000"
 17268      73745F74 
 17268      79706500 
 17269              	.LASF261:
 17270 09ab 4F535F46 		.ascii	"OS_FN_FL_COPYB_START\000"
 17270      4E5F464C 
 17270      5F434F50 
 17270      59425F53 
 17270      54415254 
 17271              	.LASF48:
 17272 09c0 4F535F46 		.ascii	"OS_FN_DISP_TEXTC\000"
 17272      4E5F4449 
 17272      53505F54 
 17272      45585443 
 17272      00
 17273              	.LASF568:
 17274 09d1 73625F6F 		.ascii	"sb_options\000"
 17274      7074696F 
 17274      6E7300
 17275              	.LASF144:
 17276 09dc 4F535F46 		.ascii	"OS_FN_THREAD_POP\000"
 17276      4E5F5448 
 17276      52454144 
ARM GAS  C:\Users\AHMED~1.ELE\AppData\Local\Temp\ccpjtoUe.s 			page 344


 17276      5F504F50 
 17276      00
 17277              	.LASF320:
 17278 09ed 4F535F46 		.ascii	"OS_FN_CODEC_STATUS\000"
 17278      4E5F434F 
 17278      4445435F 
 17278      53544154 
 17278      555300
 17279              	.LASF182:
 17280 0a00 4F535F46 		.ascii	"OS_FN_FILE_DSEARCH\000"
 17280      4E5F4649 
 17280      4C455F44 
 17280      53454152 
 17280      434800
 17281              	.LASF405:
 17282 0a13 4F535F46 		.ascii	"OS_FN_WIFI_STATUS\000"
 17282      4E5F5749 
 17282      46495F53 
 17282      54415455 
 17282      5300
 17283              	.LASF699:
 17284 0a25 6D786D6C 		.ascii	"mxml_value_t\000"
 17284      5F76616C 
 17284      75655F74 
 17284      00
 17285              	.LASF844:
 17286 0a32 6D786D6C 		.ascii	"mxml_value_u\000"
 17286      5F76616C 
 17286      75655F75 
 17286      00
 17287              	.LASF502:
 17288 0a3f 55534246 		.ascii	"USBFPRT_GENERAL_INFO_END\000"
 17288      5052545F 
 17288      47454E45 
 17288      52414C5F 
 17288      494E464F 
 17289              	.LASF37:
 17290 0a58 4F535F46 		.ascii	"OS_FN_DISP_OPEN\000"
 17290      4E5F4449 
 17290      53505F4F 
 17290      50454E00 
 17291              	.LASF39:
 17292 0a68 4F535F46 		.ascii	"OS_FN_DISP_PUTC\000"
 17292      4E5F4449 
 17292      53505F50 
 17292      55544300 
 17293              	.LASF327:
 17294 0a78 4F535F46 		.ascii	"OS_FN_CLICC_EMV_LV1\000"
 17294      4E5F434C 
 17294      4943435F 
 17294      454D565F 
 17294      4C563100 
 17295              	.LASF43:
 17296 0a8c 4F535F46 		.ascii	"OS_FN_DISP_PUTG\000"
 17296      4E5F4449 
 17296      53505F50 
 17296      55544700 
ARM GAS  C:\Users\AHMED~1.ELE\AppData\Local\Temp\ccpjtoUe.s 			page 345


 17297              	.LASF133:
 17298 0a9c 4F535F46 		.ascii	"OS_FN_KEY_SAVE_TMK_CBC_NC\000"
 17298      4E5F4B45 
 17298      595F5341 
 17298      56455F54 
 17298      4D4B5F43 
 17299              	.LASF514:
 17300 0ab6 46435245 		.ascii	"FCREATEMW\000"
 17300      4154454D 
 17300      5700
 17301              	.LASF41:
 17302 0ac0 4F535F46 		.ascii	"OS_FN_DISP_PUTN\000"
 17302      4E5F4449 
 17302      53505F50 
 17302      55544E00 
 17303              	.LASF474:
 17304 0ad0 4F535F46 		.ascii	"OS_FN_IMG_SENSOR_GET_FRAME\000"
 17304      4E5F494D 
 17304      475F5345 
 17304      4E534F52 
 17304      5F474554 
 17305              	.LASF44:
 17306 0aeb 4F535F46 		.ascii	"OS_FN_DISP_PUTP\000"
 17306      4E5F4449 
 17306      53505F50 
 17306      55545000 
 17307              	.LASF435:
 17308 0afb 4F535F46 		.ascii	"OS_FN_DUMMY\000"
 17308      4E5F4455 
 17308      4D4D5900 
 17309              	.LASF319:
 17310 0b07 4F535F46 		.ascii	"OS_FN_CODEC_STOP\000"
 17310      4E5F434F 
 17310      4445435F 
 17310      53544F50 
 17310      00
 17311              	.LASF40:
 17312 0b18 4F535F46 		.ascii	"OS_FN_DISP_PUTS\000"
 17312      4E5F4449 
 17312      53505F50 
 17312      55545300 
 17313              	.LASF202:
 17314 0b28 4F535F46 		.ascii	"OS_FN_CONFIG_READ\000"
 17314      4E5F434F 
 17314      4E464947 
 17314      5F524541 
 17314      4400
 17315              	.LASF317:
 17316 0b3a 4F535F46 		.ascii	"OS_FN_CODEC_PLAY\000"
 17316      4E5F434F 
 17316      4445435F 
 17316      504C4159 
 17316      00
 17317              	.LASF249:
 17318 0b4b 4F535F46 		.ascii	"OS_FN_USBSER_STATUS\000"
 17318      4E5F5553 
 17318      42534552 
ARM GAS  C:\Users\AHMED~1.ELE\AppData\Local\Temp\ccpjtoUe.s 			page 346


 17318      5F535441 
 17318      54555300 
 17319              	.LASF575:
 17320 0b5f 625F7365 		.ascii	"b_settle_amount_len\000"
 17320      74746C65 
 17320      5F616D6F 
 17320      756E745F 
 17320      6C656E00 
 17321              	.LASF819:
 17322 0b73 6D786D6C 		.ascii	"mxmlLoadString\000"
 17322      4C6F6164 
 17322      53747269 
 17322      6E6700
 17323              	.LASF408:
 17324 0b82 4F535F46 		.ascii	"OS_FN_NFC_OPEN_FELICA\000"
 17324      4E5F4E46 
 17324      435F4F50 
 17324      454E5F46 
 17324      454C4943 
 17325              	.LASF599:
 17326 0b98 625F6964 		.ascii	"b_id\000"
 17326      00
 17327              	.LASF392:
 17328 0b9d 4F535F46 		.ascii	"OS_FN_MIF_INFO_SET\000"
 17328      4E5F4D49 
 17328      465F494E 
 17328      464F5F53 
 17328      455400
 17329              	.LASF540:
 17330 0bb0 44495350 		.ascii	"DISP_LINEMW\000"
 17330      5F4C494E 
 17330      454D5700 
 17331              	.LASF167:
 17332 0bbc 4F535F46 		.ascii	"OS_FN_FILE_OPEN\000"
 17332      4E5F4649 
 17332      4C455F4F 
 17332      50454E00 
 17333              	.LASF177:
 17334 0bcc 4F535F46 		.ascii	"OS_FN_FILE_PUTC\000"
 17334      4E5F4649 
 17334      4C455F50 
 17334      55544300 
 17335              	.LASF565:
 17336 0bdc 625F6469 		.ascii	"b_dial_option\000"
 17336      616C5F6F 
 17336      7074696F 
 17336      6E00
 17337              	.LASF143:
 17338 0bea 4F535F46 		.ascii	"OS_FN_THREAD_PUSH\000"
 17338      4E5F5448 
 17338      52454144 
 17338      5F505553 
 17338      4800
 17339              	.LASF578:
 17340 0bfc 73625F61 		.ascii	"sb_additional_prompt\000"
 17340      64646974 
 17340      696F6E61 
ARM GAS  C:\Users\AHMED~1.ELE\AppData\Local\Temp\ccpjtoUe.s 			page 347


 17340      6C5F7072 
 17340      6F6D7074 
 17341              	.LASF508:
 17342 0c11 57524954 		.ascii	"WRITEMW\000"
 17342      454D5700 
 17343              	.LASF816:
 17344 0c19 53657441 		.ascii	"SetAPNConfig\000"
 17344      504E436F 
 17344      6E666967 
 17344      00
 17345              	.LASF593:
 17346 0c26 73625F70 		.ascii	"sb_pan_range_low\000"
 17346      616E5F72 
 17346      616E6765 
 17346      5F6C6F77 
 17346      00
 17347              	.LASF558:
 17348 0c37 41504D5F 		.ascii	"APM_AUX2\000"
 17348      41555832 
 17348      00
 17349              	.LASF530:
 17350 0c40 44495350 		.ascii	"DISPLOGOMW\000"
 17350      4C4F474F 
 17350      4D5700
 17351              	.LASF436:
 17352 0c4b 4F535F46 		.ascii	"OS_FN_OFF\000"
 17352      4E5F4F46 
 17352      4600
 17353              	.LASF456:
 17354 0c55 4F535F46 		.ascii	"OS_FN_ECC_PUBKEY_VERIFY\000"
 17354      4E5F4543 
 17354      435F5055 
 17354      424B4559 
 17354      5F564552 
 17355              	.LASF21:
 17356 0c6d 4F535F46 		.ascii	"OS_FN_KBD_CLOSE\000"
 17356      4E5F4B42 
 17356      445F434C 
 17356      4F534500 
 17357              	.LASF620:
 17358 0c7d 625F7472 		.ascii	"b_trans_mdm_mode\000"
 17358      616E735F 
 17358      6D646D5F 
 17358      6D6F6465 
 17358      00
 17359              	.LASF511:
 17360 0c8e 53544154 		.ascii	"STATMW\000"
 17360      4D5700
 17361              	.LASF20:
 17362 0c95 4F535F46 		.ascii	"OS_FN_KBD_OPEN\000"
 17362      4E5F4B42 
 17362      445F4F50 
 17362      454E00
 17363              	.LASF707:
 17364 0ca4 7265665F 		.ascii	"ref_count\000"
 17364      636F756E 
 17364      7400
ARM GAS  C:\Users\AHMED~1.ELE\AppData\Local\Temp\ccpjtoUe.s 			page 348


 17365              	.LASF127:
 17366 0cae 4F535F46 		.ascii	"OS_FN_KEY_CUP_MAC\000"
 17366      4E5F4B45 
 17366      595F4355 
 17366      505F4D41 
 17366      4300
 17367              	.LASF811:
 17368 0cc0 6C69625F 		.ascii	"lib_app_call\000"
 17368      6170705F 
 17368      63616C6C 
 17368      00
 17369              	.LASF53:
 17370 0ccd 4F535F46 		.ascii	"OS_FN_DISP_ICON_PUTC\000"
 17370      4E5F4449 
 17370      53505F49 
 17370      434F4E5F 
 17370      50555443 
 17371              	.LASF835:
 17372 0ce2 43544C43 		.ascii	"CTLClrDnloadBuf\000"
 17372      6C72446E 
 17372      6C6F6164 
 17372      42756600 
 17373              	.LASF580:
 17374 0cf2 73625F70 		.ascii	"sb_psw_refund\000"
 17374      73775F72 
 17374      6566756E 
 17374      6400
 17375              	.LASF495:
 17376 0d00 735F6372 		.ascii	"s_create_date\000"
 17376      65617465 
 17376      5F646174 
 17376      6500
 17377              	.LASF521:
 17378 0d0e 46575249 		.ascii	"FWRITEMW\000"
 17378      54454D57 
 17378      00
 17379              	.LASF782:
 17380 0d17 6374726C 		.ascii	"ctrl\000"
 17380      00
 17381              	.LASF524:
 17382 0d1c 46445345 		.ascii	"FDSEARCHMW\000"
 17382      41524348 
 17382      4D5700
 17383              	.LASF683:
 17384 0d27 6D786D6C 		.ascii	"mxml_element_t\000"
 17384      5F656C65 
 17384      6D656E74 
 17384      5F7400
 17385              	.LASF137:
 17386 0d36 4F535F46 		.ascii	"OS_FN_THREAD_OPEN\000"
 17386      4E5F5448 
 17386      52454144 
 17386      5F4F5045 
 17386      4E00
 17387              	.LASF176:
 17388 0d48 4F535F46 		.ascii	"OS_FN_FILE_WRITE\000"
 17388      4E5F4649 
ARM GAS  C:\Users\AHMED~1.ELE\AppData\Local\Temp\ccpjtoUe.s 			page 349


 17388      4C455F57 
 17388      52495445 
 17388      00
 17389              	.LASF410:
 17390 0d59 4F535F46 		.ascii	"OS_FN_NFC_CANCEL\000"
 17390      4E5F4E46 
 17390      435F4341 
 17390      4E43454C 
 17390      00
 17391              	.LASF533:
 17392 0d6a 5343484E 		.ascii	"SCHNLGETPINMW\000"
 17392      4C474554 
 17392      50494E4D 
 17392      5700
 17393              	.LASF349:
 17394 0d78 4F535F46 		.ascii	"OS_FN_DEVICE_SEARCH_NEXT\000"
 17394      4E5F4445 
 17394      56494345 
 17394      5F534541 
 17394      5243485F 
 17395              	.LASF579:
 17396 0d91 73625F72 		.ascii	"sb_reserved\000"
 17396      65736572 
 17396      76656400 
 17397              	.LASF470:
 17398 0d9d 4F535F46 		.ascii	"OS_FN_WIFI_GET_DEVICE_STATE\000"
 17398      4E5F5749 
 17398      46495F47 
 17398      45545F44 
 17398      45564943 
 17399              	.LASF810:
 17400 0db9 43544C44 		.ascii	"CTLData2DnloadBuf\000"
 17400      61746132 
 17400      446E6C6F 
 17400      61644275 
 17400      6600
 17401              	.LASF62:
 17402 0dcb 4F535F46 		.ascii	"OS_FN_COM1_SEND\000"
 17402      4E5F434F 
 17402      4D315F53 
 17402      454E4400 
 17403              	.LASF136:
 17404 0ddb 4F535F46 		.ascii	"OS_FN_PCI_DSS\000"
 17404      4E5F5043 
 17404      495F4453 
 17404      5300
 17405              	.LASF843:
 17406 0de9 433A5C54 		.ascii	"C:\\T1000-A5\\Projects\\APM\\apm_v3.0s03\000"
 17406      31303030 
 17406      2D41355C 
 17406      50726F6A 
 17406      65637473 
 17407              	.LASF546:
 17408 0e0e 42535F43 		.ascii	"BS_CALL_MW\000"
 17408      414C4C5F 
 17408      4D5700
 17409              	.LASF201:
ARM GAS  C:\Users\AHMED~1.ELE\AppData\Local\Temp\ccpjtoUe.s 			page 350


 17410 0e19 4F535F46 		.ascii	"OS_FN_CONFIG_LENGTH\000"
 17410      4E5F434F 
 17410      4E464947 
 17410      5F4C454E 
 17410      47544800 
 17411              	.LASF354:
 17412 0e2d 4F535F46 		.ascii	"OS_FN_INTERRUPT_UNREGISTER\000"
 17412      4E5F494E 
 17412      54455252 
 17412      5550545F 
 17412      554E5245 
 17413              	.LASF152:
 17414 0e48 4F535F46 		.ascii	"OS_FN_LED_STATUS\000"
 17414      4E5F4C45 
 17414      445F5354 
 17414      41545553 
 17414      00
 17415              	.LASF70:
 17416 0e59 4F535F46 		.ascii	"OS_FN_COM2_READ\000"
 17416      4E5F434F 
 17416      4D325F52 
 17416      45414400 
 17417              	.LASF678:
 17418 0e69 76616C75 		.ascii	"value\000"
 17418      6500
 17419              	.LASF736:
 17420 0e6f 55706461 		.ascii	"UpdateParamCtlApp\000"
 17420      74655061 
 17420      72616D43 
 17420      746C4170 
 17420      7000
 17421              	.LASF618:
 17422 0e81 625F7365 		.ascii	"b_sec_settle_conn_time\000"
 17422      635F7365 
 17422      74746C65 
 17422      5F636F6E 
 17422      6E5F7469 
 17423              	.LASF31:
 17424 0e98 4F535F46 		.ascii	"OS_FN_BUZ_OPEN\000"
 17424      4E5F4255 
 17424      5A5F4F50 
 17424      454E00
 17425              	.LASF329:
 17426 0ea7 4F535F46 		.ascii	"OS_FN_CLICC_LED_CLOSE\000"
 17426      4E5F434C 
 17426      4943435F 
 17426      4C45445F 
 17426      434C4F53 
 17427              	.LASF227:
 17428 0ebd 4F535F46 		.ascii	"OS_FN_LAN_OPEN\000"
 17428      4E5F4C41 
 17428      4E5F4F50 
 17428      454E00
 17429              	.LASF538:
 17430 0ecc 44495350 		.ascii	"DISP_CLRBELOWMW\000"
 17430      5F434C52 
 17430      42454C4F 
ARM GAS  C:\Users\AHMED~1.ELE\AppData\Local\Temp\ccpjtoUe.s 			page 351


 17430      574D5700 
 17431              	.LASF449:
 17432 0edc 4F535F46 		.ascii	"OS_FN_LPT_GET_COUNT\000"
 17432      4E5F4C50 
 17432      545F4745 
 17432      545F434F 
 17432      554E5400 
 17433              	.LASF285:
 17434 0ef0 4F535F46 		.ascii	"OS_FN_BATT_LEVEL\000"
 17434      4E5F4241 
 17434      54545F4C 
 17434      4556454C 
 17434      00
 17435              	.LASF433:
 17436 0f01 4F535F46 		.ascii	"OS_FN_HD_CONFIG\000"
 17436      4E5F4844 
 17436      5F434F4E 
 17436      46494700 
 17437              	.LASF786:
 17438 0f11 41637154 		.ascii	"AcqTableParam\000"
 17438      61626C65 
 17438      50617261 
 17438      6D00
 17439              	.LASF193:
 17440 0f1f 4F535F46 		.ascii	"OS_FN_FILE_FTRUNCATE\000"
 17440      4E5F4649 
 17440      4C455F46 
 17440      5452554E 
 17440      43415445 
 17441              	.LASF602:
 17442 0f34 625F6465 		.ascii	"b_default_acc\000"
 17442      6661756C 
 17442      745F6163 
 17442      6300
 17443              	.LASF756:
 17444 0f42 70546162 		.ascii	"pTable\000"
 17444      6C6500
 17445              	.LASF138:
 17446 0f49 4F535F46 		.ascii	"OS_FN_THREAD_CLOSE\000"
 17446      4E5F5448 
 17446      52454144 
 17446      5F434C4F 
 17446      534500
 17447              	.LASF287:
 17448 0f5c 4F535F46 		.ascii	"OS_FN_BATT_CONTROL\000"
 17448      4E5F4241 
 17448      54545F43 
 17448      4F4E5452 
 17448      4F4C00
 17449              	.LASF374:
 17450 0f6f 4F535F46 		.ascii	"OS_FN_MIF_CARD_TYPE\000"
 17450      4E5F4D49 
 17450      465F4341 
 17450      52445F54 
 17450      59504500 
 17451              	.LASF221:
 17452 0f83 4F535F46 		.ascii	"OS_FN_MMC_WRITE\000"
ARM GAS  C:\Users\AHMED~1.ELE\AppData\Local\Temp\ccpjtoUe.s 			page 352


 17452      4E5F4D4D 
 17452      435F5752 
 17452      49544500 
 17453              	.LASF116:
 17454 0f93 4F535F46 		.ascii	"OS_FN_SM3\000"
 17454      4E5F534D 
 17454      3300
 17455              	.LASF609:
 17456 0f9d 625F7072 		.ascii	"b_pri_trans_conn_time\000"
 17456      695F7472 
 17456      616E735F 
 17456      636F6E6E 
 17456      5F74696D 
 17457              	.LASF650:
 17458 0fb3 65544143 		.ascii	"eTACDenial\000"
 17458      44656E69 
 17458      616C00
 17459              	.LASF455:
 17460 0fbe 4F535F46 		.ascii	"OS_FN_ECC_KEYPAIR_GENERATE\000"
 17460      4E5F4543 
 17460      435F4B45 
 17460      59504149 
 17460      525F4745 
 17461              	.LASF277:
 17462 0fd9 4F535F46 		.ascii	"OS_FN_MCOM_PERMIT\000"
 17462      4E5F4D43 
 17462      4F4D5F50 
 17462      45524D49 
 17462      5400
 17463              	.LASF824:
 17464 0feb 57616974 		.ascii	"WaitKey\000"
 17464      4B657900 
 17465              	.LASF681:
 17466 0ff3 6E756D5F 		.ascii	"num_attrs\000"
 17466      61747472 
 17466      7300
 17467              	.LASF390:
 17468 0ffd 4F535F46 		.ascii	"OS_FN_MIF_SENDCMD\000"
 17468      4E5F4D49 
 17468      465F5345 
 17468      4E44434D 
 17468      4400
 17469              	.LASF23:
 17470 100f 4F535F46 		.ascii	"OS_FN_KBD_SCODE\000"
 17470      4E5F4B42 
 17470      445F5343 
 17470      4F444500 
 17471              	.LASF804:
 17472 101f 55706441 		.ascii	"UpdAcqTbl\000"
 17472      63715462 
 17472      6C00
 17473              	.LASF805:
 17474 1029 55706449 		.ascii	"UpdIssuerTbl\000"
 17474      73737565 
 17474      7254626C 
 17474      00
 17475              	.LASF465:
ARM GAS  C:\Users\AHMED~1.ELE\AppData\Local\Temp\ccpjtoUe.s 			page 353


 17476 1036 4F535F46 		.ascii	"OS_FN_WIFI_SOCKET_CONNECT\000"
 17476      4E5F5749 
 17476      46495F53 
 17476      4F434B45 
 17476      545F434F 
 17477              	.LASF457:
 17478 1050 4F535F46 		.ascii	"OS_FN_ECC_SCALAR_MULTIPLY\000"
 17478      4E5F4543 
 17478      435F5343 
 17478      414C4152 
 17478      5F4D554C 
 17479              	.LASF363:
 17480 106a 4F535F46 		.ascii	"OS_FN_USBKBD_OPEN\000"
 17480      4E5F5553 
 17480      424B4244 
 17480      5F4F5045 
 17480      4E00
 17481              	.LASF380:
 17482 107c 4F535F46 		.ascii	"OS_FN_MIF_AUTH1\000"
 17482      4E5F4D49 
 17482      465F4155 
 17482      54483100 
 17483              	.LASF381:
 17484 108c 4F535F46 		.ascii	"OS_FN_MIF_AUTH2\000"
 17484      4E5F4D49 
 17484      465F4155 
 17484      54483200 
 17485              	.LASF12:
 17486 109c 424F4F4C 		.ascii	"BOOLEAN\000"
 17486      45414E00 
 17487              	.LASF562:
 17488 10a4 625F7273 		.ascii	"b_rsvd0\000"
 17488      76643000 
 17489              	.LASF563:
 17490 10ac 625F7273 		.ascii	"b_rsvd1\000"
 17490      76643100 
 17491              	.LASF574:
 17492 10b4 625F7273 		.ascii	"b_rsvd2\000"
 17492      76643200 
 17493              	.LASF757:
 17494 10bc 50617273 		.ascii	"ParseAcquirer\000"
 17494      65416371 
 17494      75697265 
 17494      7200
 17495              	.LASF748:
 17496 10ca 61547265 		.ascii	"aTree\000"
 17496      6500
 17497              	.LASF106:
 17498 10d0 4F535F46 		.ascii	"OS_FN_MD4_PROCESS\000"
 17498      4E5F4D44 
 17498      345F5052 
 17498      4F434553 
 17498      5300
 17499              	.LASF682:
 17500 10e2 61747472 		.ascii	"attrs\000"
 17500      7300
 17501              	.LASF388:
ARM GAS  C:\Users\AHMED~1.ELE\AppData\Local\Temp\ccpjtoUe.s 			page 354


 17502 10e8 4F535F46 		.ascii	"OS_FN_MIF_DEC_TRANS\000"
 17502      4E5F4D49 
 17502      465F4445 
 17502      435F5452 
 17502      414E5300 
 17503              	.LASF827:
 17504 10fc 47657449 		.ascii	"GetIssuerCount\000"
 17504      73737565 
 17504      72436F75 
 17504      6E7400
 17505              	.LASF771:
 17506 110b 74726565 		.ascii	"tree\000"
 17506      00
 17507              	.LASF344:
 17508 1110 4F535F46 		.ascii	"OS_FN_DEVICE_REGISTER\000"
 17508      4E5F4445 
 17508      56494345 
 17508      5F524547 
 17508      49535445 
 17509              	.LASF656:
 17510 1126 62426974 		.ascii	"bBitField\000"
 17510      4669656C 
 17510      6400
 17511              	.LASF652:
 17512 1130 65544143 		.ascii	"eTACDefault\000"
 17512      44656661 
 17512      756C7400 
 17513              	.LASF792:
 17514 113c 73747263 		.ascii	"strcmp\000"
 17514      6D7000
 17515              	.LASF61:
 17516 1143 4F535F46 		.ascii	"OS_FN_COM1_READ\000"
 17516      4E5F434F 
 17516      4D315F52 
 17516      45414400 
 17517              	.LASF224:
 17518 1153 4F535F46 		.ascii	"OS_FN_SLE_CLOSE\000"
 17518      4E5F534C 
 17518      455F434C 
 17518      4F534500 
 17519              	.LASF233:
 17520 1163 4F535F46 		.ascii	"OS_FN_LAN_STATUS\000"
 17520      4E5F4C41 
 17520      4E5F5354 
 17520      41545553 
 17520      00
 17521              	.LASF161:
 17522 1174 4F535F46 		.ascii	"OS_FN_APP_CLR_VIRGIN\000"
 17522      4E5F4150 
 17522      505F434C 
 17522      525F5649 
 17522      5247494E 
 17523              	.LASF160:
 17524 1189 4F535F46 		.ascii	"OS_FN_APP_GET_VIRGIN\000"
 17524      4E5F4150 
 17524      505F4745 
 17524      545F5649 
ARM GAS  C:\Users\AHMED~1.ELE\AppData\Local\Temp\ccpjtoUe.s 			page 355


 17524      5247494E 
 17525              	.LASF526:
 17526 119e 4B424453 		.ascii	"KBDSCODEMW\000"
 17526      434F4445 
 17526      4D5700
 17527              	.LASF842:
 17528 11a9 7372632F 		.ascii	"src/param.c\000"
 17528      70617261 
 17528      6D2E6300 
 17529              	.LASF209:
 17530 11b5 4F535F46 		.ascii	"OS_FN_SAM_ON\000"
 17530      4E5F5341 
 17530      4D5F4F4E 
 17530      00
 17531              	.LASF638:
 17532 11c2 5253415F 		.ascii	"RSA_KEY\000"
 17532      4B455900 
 17533              	.LASF284:
 17534 11ca 4F535F46 		.ascii	"OS_FN_MCOM_SEND\000"
 17534      4E5F4D43 
 17534      4F4D5F53 
 17534      454E4400 
 17535              	.LASF680:
 17536 11da 6D786D6C 		.ascii	"mxml_element_s\000"
 17536      5F656C65 
 17536      6D656E74 
 17536      5F7300
 17537              	.LASF567:
 17538 11e9 73625F68 		.ascii	"sb_help_tel\000"
 17538      656C705F 
 17538      74656C00 
 17539              	.LASF246:
 17540 11f5 4F535F46 		.ascii	"OS_FN_USBSER_CLOSE\000"
 17540      4E5F5553 
 17540      42534552 
 17540      5F434C4F 
 17540      534500
 17541              	.LASF750:
 17542 1208 61456E64 		.ascii	"aEndNode\000"
 17542      4E6F6465 
 17542      00
 17543              	.LASF764:
 17544 1211 6B65795F 		.ascii	"key_room\000"
 17544      726F6F6D 
 17544      00
 17545              	.LASF419:
 17546 121a 4F535F46 		.ascii	"OS_FN_GPS_GET_INFO\000"
 17546      4E5F4750 
 17546      535F4745 
 17546      545F494E 
 17546      464F00
 17547              	.LASF270:
 17548 122d 4F535F46 		.ascii	"OS_FN_MDM_DIAL\000"
 17548      4E5F4D44 
 17548      4D5F4449 
 17548      414C00
 17549              	.LASF140:
ARM GAS  C:\Users\AHMED~1.ELE\AppData\Local\Temp\ccpjtoUe.s 			page 356


 17550 123c 4F535F46 		.ascii	"OS_FN_THREAD_DELETE\000"
 17550      4E5F5448 
 17550      52454144 
 17550      5F44454C 
 17550      45544500 
 17551              	.LASF150:
 17552 1250 4F535F46 		.ascii	"OS_FN_LED_OPEN\000"
 17552      4E5F4C45 
 17552      445F4F50 
 17552      454E00
 17553              	.LASF35:
 17554 125f 4F535F46 		.ascii	"OS_FN_RTC_GET\000"
 17554      4E5F5254 
 17554      435F4745 
 17554      5400
 17555              	.LASF402:
 17556 126d 4F535F46 		.ascii	"OS_FN_WIFI_CONTROL\000"
 17556      4E5F5749 
 17556      46495F43 
 17556      4F4E5452 
 17556      4F4C00
 17557              	.LASF714:
 17558 1280 53545F54 		.ascii	"ST_TERM_CARD\000"
 17558      45524D5F 
 17558      43415244 
 17558      00
 17559              	.LASF154:
 17560 128d 4F535F46 		.ascii	"OS_FN_LED_CLEAR\000"
 17560      4E5F4C45 
 17560      445F434C 
 17560      45415200 
 17561              	.LASF446:
 17562 129d 4F535F46 		.ascii	"OS_FN_DTIMER_LATCH_STOP\000"
 17562      4E5F4454 
 17562      494D4552 
 17562      5F4C4154 
 17562      43485F53 
 17563              	.LASF355:
 17564 12b5 4F535F46 		.ascii	"OS_FN_BUS_START\000"
 17564      4E5F4255 
 17564      535F5354 
 17564      41525400 
 17565              	.LASF631:
 17566 12c5 625F7373 		.ascii	"b_ssl_key_idx\000"
 17566      6C5F6B65 
 17566      795F6964 
 17566      7800
 17567              	.LASF100:
 17568 12d3 4F535F46 		.ascii	"OS_FN_MD5_FINISH\000"
 17568      4E5F4D44 
 17568      355F4649 
 17568      4E495348 
 17568      00
 17569              	.LASF498:
 17570 12e4 55534246 		.ascii	"USBFPRT_GENERAL_INFO_MODEL\000"
 17570      5052545F 
 17570      47454E45 
ARM GAS  C:\Users\AHMED~1.ELE\AppData\Local\Temp\ccpjtoUe.s 			page 357


 17570      52414C5F 
 17570      494E464F 
 17571              	.LASF417:
 17572 12ff 4F535F46 		.ascii	"OS_FN_GPS_ON\000"
 17572      4E5F4750 
 17572      535F4F4E 
 17572      00
 17573              	.LASF571:
 17574 130c 625F6375 		.ascii	"b_currency\000"
 17574      7272656E 
 17574      637900
 17575              	.LASF742:
 17576 1317 43686563 		.ascii	"CheckNodeName\000"
 17576      6B4E6F64 
 17576      654E616D 
 17576      6500
 17577              	.LASF282:
 17578 1325 4F535F46 		.ascii	"OS_FN_MCOM_STATUS\000"
 17578      4E5F4D43 
 17578      4F4D5F53 
 17578      54415455 
 17578      5300
 17579              	.LASF54:
 17580 1337 4F535F46 		.ascii	"OS_FN_DISP_ICON_TEXTC\000"
 17580      4E5F4449 
 17580      53505F49 
 17580      434F4E5F 
 17580      54455854 
 17581              	.LASF430:
 17582 134d 4F535F46 		.ascii	"OS_FN_POWER_SLEEP\000"
 17582      4E5F504F 
 17582      5745525F 
 17582      534C4545 
 17582      5000
 17583              	.LASF168:
 17584 135f 4F535F46 		.ascii	"OS_FN_FILE_CREATE\000"
 17584      4E5F4649 
 17584      4C455F43 
 17584      52454154 
 17584      4500
 17585              	.LASF240:
 17586 1371 4F535F46 		.ascii	"OS_FN_LPT_OPEN\000"
 17586      4E5F4C50 
 17586      545F4F50 
 17586      454E00
 17587              	.LASF242:
 17588 1380 4F535F46 		.ascii	"OS_FN_LPT_PUTC\000"
 17588      4E5F4C50 
 17588      545F5055 
 17588      544300
 17589              	.LASF232:
 17590 138f 4F535F46 		.ascii	"OS_FN_LAN_SEND\000"
 17590      4E5F4C41 
 17590      4E5F5345 
 17590      4E4400
 17591              	.LASF375:
 17592 139e 4F535F46 		.ascii	"OS_FN_MIF_TAG\000"
ARM GAS  C:\Users\AHMED~1.ELE\AppData\Local\Temp\ccpjtoUe.s 			page 358


 17592      4E5F4D49 
 17592      465F5441 
 17592      4700
 17593              	.LASF731:
 17594 13ac 61586D6C 		.ascii	"aXmlParam\000"
 17594      50617261 
 17594      6D00
 17595              	.LASF452:
 17596 13b6 4F535F46 		.ascii	"OS_FN_FPRT_SCAN_IMG\000"
 17596      4E5F4650 
 17596      52545F53 
 17596      43414E5F 
 17596      494D4700 
 17597              	.LASF831:
 17598 13ca 6D656D63 		.ascii	"memcmp\000"
 17598      6D7000
 17599              	.LASF310:
 17600 13d1 4F535F46 		.ascii	"OS_FN_TPAD_DEL_OBJ\000"
 17600      4E5F5450 
 17600      41445F44 
 17600      454C5F4F 
 17600      424A00
 17601              	.LASF513:
 17602 13e4 46535953 		.ascii	"FSYSINITMW\000"
 17602      494E4954 
 17602      4D5700
 17603              	.LASF510:
 17604 13ef 494F4354 		.ascii	"IOCTLMW\000"
 17604      4C4D5700 
 17605              	.LASF245:
 17606 13f7 4F535F46 		.ascii	"OS_FN_USBSER_OPEN\000"
 17606      4E5F5553 
 17606      42534552 
 17606      5F4F5045 
 17606      4E00
 17607              	.LASF10:
 17608 1409 63686172 		.ascii	"char\000"
 17608      00
 17609              	.LASF175:
 17610 140e 4F535F46 		.ascii	"OS_FN_FILE_READ\000"
 17610      4E5F4649 
 17610      4C455F52 
 17610      45414400 
 17611              	.LASF608:
 17612 141e 73625F70 		.ascii	"sb_pri_trans_tel\000"
 17612      72695F74 
 17612      72616E73 
 17612      5F74656C 
 17612      00
 17613              	.LASF716:
 17614 142f 53545F43 		.ascii	"ST_CTL_APP\000"
 17614      544C5F41 
 17614      505000
 17615              	.LASF769:
 17616 143a 586D6C53 		.ascii	"XmlStringToCfg\000"
 17616      7472696E 
 17616      67546F43 
ARM GAS  C:\Users\AHMED~1.ELE\AppData\Local\Temp\ccpjtoUe.s 			page 359


 17616      666700
 17617              	.LASF745:
 17618 1449 614D6178 		.ascii	"aMaxSize\000"
 17618      53697A65 
 17618      00
 17619              	.LASF534:
 17620 1452 4C4C5345 		.ascii	"LLSEEKMW\000"
 17620      454B4D57 
 17620      00
 17621              	.LASF324:
 17622 145b 4F535F46 		.ascii	"OS_FN_CLICC_CLOSE\000"
 17622      4E5F434C 
 17622      4943435F 
 17622      434C4F53 
 17622      4500
 17623              	.LASF337:
 17624 146d 4F535F46 		.ascii	"OS_FN_USBHOST_STATUS\000"
 17624      4E5F5553 
 17624      42484F53 
 17624      545F5354 
 17624      41545553 
 17625              	.LASF481:
 17626 1482 4F535F46 		.ascii	"OS_FN_DISP_PUTS_ANYWHERE\000"
 17626      4E5F4449 
 17626      53505F50 
 17626      5554535F 
 17626      414E5957 
 17627              	.LASF665:
 17628 149b 73797374 		.ascii	"system_call_list\000"
 17628      656D5F63 
 17628      616C6C5F 
 17628      6C697374 
 17628      00
 17629              	.LASF552:
 17630 14ac 4652454E 		.ascii	"FRENAMEMW\000"
 17630      414D454D 
 17630      5700
 17631              	.LASF821:
 17632 14b6 436C6F73 		.ascii	"CloseSTISFiles\000"
 17632      65535449 
 17632      5346696C 
 17632      657300
 17633              	.LASF226:
 17634 14c5 4F535F46 		.ascii	"OS_FN_SLE_IO\000"
 17634      4E5F534C 
 17634      455F494F 
 17634      00
 17635              	.LASF16:
 17636 14d2 4444574F 		.ascii	"DDWORD\000"
 17636      524400
 17637              	.LASF751:
 17638 14d9 6E5F7479 		.ascii	"n_type\000"
 17638      706500
 17639              	.LASF272:
 17640 14e0 4F535F46 		.ascii	"OS_FN_MDM_CID\000"
 17640      4E5F4D44 
 17640      4D5F4349 
ARM GAS  C:\Users\AHMED~1.ELE\AppData\Local\Temp\ccpjtoUe.s 			page 360


 17640      4400
 17641              	.LASF691:
 17642 14ee 6D786D6C 		.ascii	"mxml_custom_t\000"
 17642      5F637573 
 17642      746F6D5F 
 17642      7400
 17643              	.LASF278:
 17644 14fc 4F535F46 		.ascii	"OS_FN_MCOM_RXRDY\000"
 17644      4E5F4D43 
 17644      4F4D5F52 
 17644      58524459 
 17644      00
 17645              	.LASF241:
 17646 150d 4F535F46 		.ascii	"OS_FN_LPT_CLOSE\000"
 17646      4E5F4C50 
 17646      545F434C 
 17646      4F534500 
 17647              	.LASF825:
 17648 151d 6D786D6C 		.ascii	"mxmlDelete\000"
 17648      44656C65 
 17648      746500
 17649              	.LASF123:
 17650 1528 4F535F46 		.ascii	"OS_FN_KEY_RSA\000"
 17650      4E5F4B45 
 17650      595F5253 
 17650      4100
 17651              	.LASF206:
 17652 1536 4F535F46 		.ascii	"OS_FN_SAM_CLOSE\000"
 17652      4E5F5341 
 17652      4D5F434C 
 17652      4F534500 
 17653              	.LASF606:
 17654 1546 73625F70 		.ascii	"sb_program\000"
 17654      726F6772 
 17654      616D00
 17655              	.LASF772:
 17656 1551 6E6F6465 		.ascii	"node\000"
 17656      00
 17657              	.LASF294:
 17658 1556 4F535F46 		.ascii	"OS_FN_GPRS_AT_CMD\000"
 17658      4E5F4750 
 17658      52535F41 
 17658      545F434D 
 17658      4400
 17659              	.LASF482:
 17660 1568 4F535F46 		.ascii	"OS_FN_BATT_CHARGE_NOW\000"
 17660      4E5F4241 
 17660      54545F43 
 17660      48415247 
 17660      455F4E4F 
 17661              	.LASF198:
 17662 157e 4F535F46 		.ascii	"OS_FN_FILE_GET_LONGNAME\000"
 17662      4E5F4649 
 17662      4C455F47 
 17662      45545F4C 
 17662      4F4E474E 
 17663              	.LASF561:
ARM GAS  C:\Users\AHMED~1.ELE\AppData\Local\Temp\ccpjtoUe.s 			page 361


 17664 1596 625F696E 		.ascii	"b_init_control\000"
 17664      69745F63 
 17664      6F6E7472 
 17664      6F6C00
 17665              	.LASF266:
 17666 15a5 4F535F46 		.ascii	"OS_FN_FL_CREAD_END\000"
 17666      4E5F464C 
 17666      5F435245 
 17666      41445F45 
 17666      4E4400
 17667              	.LASF239:
 17668 15b8 4F535F46 		.ascii	"OS_FN_MSR_STATUS\000"
 17668      4E5F4D53 
 17668      525F5354 
 17668      41545553 
 17668      00
 17669              	.LASF394:
 17670 15c9 4F535F46 		.ascii	"OS_FN_BARCODE_OPEN\000"
 17670      4E5F4241 
 17670      52434F44 
 17670      455F4F50 
 17670      454E00
 17671              	.LASF491:
 17672 15dc 735F6167 		.ascii	"s_agent_id\000"
 17672      656E745F 
 17672      696400
 17673              	.LASF472:
 17674 15e7 4F535F46 		.ascii	"OS_FN_WIFI_SOCKET_LISTEN\000"
 17674      4E5F5749 
 17674      46495F53 
 17674      4F434B45 
 17674      545F4C49 
 17675              	.LASF248:
 17676 1600 4F535F46 		.ascii	"OS_FN_USBSER_WRITE\000"
 17676      4E5F5553 
 17676      42534552 
 17676      5F575249 
 17676      544500
 17677              	.LASF372:
 17678 1613 4F535F46 		.ascii	"OS_FN_MIF_CANCEL\000"
 17678      4E5F4D49 
 17678      465F4341 
 17678      4E43454C 
 17678      00
 17679              	.LASF5:
 17680 1624 6C6F6E67 		.ascii	"long unsigned int\000"
 17680      20756E73 
 17680      69676E65 
 17680      6420696E 
 17680      7400
 17681              	.LASF49:
 17682 1636 4F535F46 		.ascii	"OS_FN_DISP_BACKC\000"
 17682      4E5F4449 
 17682      53505F42 
 17682      41434B43 
 17682      00
 17683              	.LASF801:
ARM GAS  C:\Users\AHMED~1.ELE\AppData\Local\Temp\ccpjtoUe.s 			page 362


 17684 1647 6D786D6C 		.ascii	"mxmlWalkNext\000"
 17684      57616C6B 
 17684      4E657874 
 17684      00
 17685              	.LASF490:
 17686 1654 735F6F77 		.ascii	"s_owner\000"
 17686      6E657200 
 17687              	.LASF45:
 17688 165c 4F535F46 		.ascii	"OS_FN_DISP_GETP\000"
 17688      4E5F4449 
 17688      53505F47 
 17688      45545000 
 17689              	.LASF425:
 17690 166c 4F535F46 		.ascii	"OS_FN_BREG_READ\000"
 17690      4E5F4252 
 17690      45475F52 
 17690      45414400 
 17691              	.LASF303:
 17692 167c 4F535F46 		.ascii	"OS_FN_GPRS_SMS_ACK\000"
 17692      4E5F4750 
 17692      52535F53 
 17692      4D535F41 
 17692      434B00
 17693              	.LASF18:
 17694 168f 4F535F46 		.ascii	"OS_FN_RAND\000"
 17694      4E5F5241 
 17694      4E4400
 17695              	.LASF235:
 17696 169a 4F535F46 		.ascii	"OS_FN_MSR_CLOSE\000"
 17696      4E5F4D53 
 17696      525F434C 
 17696      4F534500 
 17697              	.LASF829:
 17698 16aa 73747263 		.ascii	"strcpy\000"
 17698      707900
 17699              	.LASF645:
 17700 16b1 65547970 		.ascii	"eType\000"
 17700      6500
 17701              	.LASF528:
 17702 16b7 4445534D 		.ascii	"DESMW\000"
 17702      5700
 17703              	.LASF828:
 17704 16bd 47657443 		.ascii	"GetCardCount\000"
 17704      61726443 
 17704      6F756E74 
 17704      00
 17705              	.LASF404:
 17706 16ca 4F535F46 		.ascii	"OS_FN_WIFI_RECV_RESPONSE\000"
 17706      4E5F5749 
 17706      46495F52 
 17706      4543565F 
 17706      52455350 
 17707              	.LASF231:
 17708 16e3 4F535F46 		.ascii	"OS_FN_LAN_READ\000"
 17708      4E5F4C41 
 17708      4E5F5245 
 17708      414400
ARM GAS  C:\Users\AHMED~1.ELE\AppData\Local\Temp\ccpjtoUe.s 			page 363


 17709              	.LASF503:
 17710 16f2 53544152 		.ascii	"STARTUPMW\000"
 17710      5455504D 
 17710      5700
 17711              	.LASF838:
 17712 16fc 454D564B 		.ascii	"EMVKillDnloadBuf\000"
 17712      696C6C44 
 17712      6E6C6F61 
 17712      64427566 
 17712      00
 17713              	.LASF815:
 17714 170d 546F6767 		.ascii	"ToggleOption\000"
 17714      6C654F70 
 17714      74696F6E 
 17714      00
 17715              	.LASF841:
 17716 171a 474E5520 		.ascii	"GNU C 4.9.3 20141119 (release) [ARM/embedded-4_9-br"
 17716      4320342E 
 17716      392E3320 
 17716      32303134 
 17716      31313139 
 17717 174d 616E6368 		.ascii	"anch revision 218278] -mthumb -mcpu=cortex-a5 -mthu"
 17717      20726576 
 17717      6973696F 
 17717      6E203231 
 17717      38323738 
 17718 1780 6D622D69 		.ascii	"mb-interwork -mstructure-size-boundary=32 -mno-unal"
 17718      6E746572 
 17718      776F726B 
 17718      202D6D73 
 17718      74727563 
 17719 17b3 69676E65 		.ascii	"igned-access -g -Os -ffunction-sections -fsigned-ch"
 17719      642D6163 
 17719      63657373 
 17719      202D6720 
 17719      2D4F7320 
 17720 17e6 617200   		.ascii	"ar\000"
 17721              	.LASF463:
 17722 17e9 4F535F46 		.ascii	"OS_FN_GCM_AES_CLOSE\000"
 17722      4E5F4743 
 17722      4D5F4145 
 17722      535F434C 
 17722      4F534500 
 17723              	.LASF595:
 17724 17fd 625F6973 		.ascii	"b_issuer_id\000"
 17724      73756572 
 17724      5F696400 
 17725              	.LASF268:
 17726 1809 4F535F46 		.ascii	"OS_FN_MDM_OPEN\000"
 17726      4E5F4D44 
 17726      4D5F4F50 
 17726      454E00
 17727              	.LASF274:
 17728 1818 4F535F46 		.ascii	"OS_FN_MDM_LAST_CONN_STAT\000"
 17728      4E5F4D44 
 17728      4D5F4C41 
 17728      53545F43 
ARM GAS  C:\Users\AHMED~1.ELE\AppData\Local\Temp\ccpjtoUe.s 			page 364


 17728      4F4E4E5F 
 17729              	.LASF429:
 17730 1831 4F535F46 		.ascii	"OS_FN_SLEEP\000"
 17730      4E5F534C 
 17730      45455000 
 17731              	.LASF564:
 17732 183d 73625F64 		.ascii	"sb_date_time\000"
 17732      6174655F 
 17732      74696D65 
 17732      00
 17733              	.LASF550:
 17734 184a 534D535F 		.ascii	"SMS_COUNT_MW\000"
 17734      434F554E 
 17734      545F4D57 
 17734      00
 17735              	.LASF243:
 17736 1857 4F535F46 		.ascii	"OS_FN_LPT_PUTDW\000"
 17736      4E5F4C50 
 17736      545F5055 
 17736      54445700 
 17737              	.LASF258:
 17738 1867 4F535F46 		.ascii	"OS_FN_FL_PGM_END\000"
 17738      4E5F464C 
 17738      5F50474D 
 17738      5F454E44 
 17738      00
 17739              	.LASF25:
 17740 1878 4F535F46 		.ascii	"OS_FN_KBD_LOCK\000"
 17740      4E5F4B42 
 17740      445F4C4F 
 17740      434B00
 17741              	.LASF477:
 17742 1887 4F535F46 		.ascii	"OS_FN_GPRS_IS_HL6RD\000"
 17742      4E5F4750 
 17742      52535F49 
 17742      535F484C 
 17742      36524400 
 17743              	.LASF187:
 17744 189b 4F535F46 		.ascii	"OS_FN_FILE_TRUNCATE\000"
 17744      4E5F4649 
 17744      4C455F54 
 17744      52554E43 
 17744      41544500 
 17745              	.LASF723:
 17746 18af 584D4C5F 		.ascii	"XML_PARAM\000"
 17746      50415241 
 17746      4D00
 17747              	.LASF518:
 17748 18b9 464C454E 		.ascii	"FLENGTHMW\000"
 17748      4754484D 
 17748      5700
 17749              	.LASF321:
 17750 18c3 4F535F46 		.ascii	"OS_FN_CLICC_OPEN\000"
 17750      4E5F434C 
 17750      4943435F 
 17750      4F50454E 
 17750      00
ARM GAS  C:\Users\AHMED~1.ELE\AppData\Local\Temp\ccpjtoUe.s 			page 365


 17751              	.LASF814:
 17752 18d4 73707269 		.ascii	"sprintf\000"
 17752      6E746600 
 17753              	.LASF581:
 17754 18dc 73625F70 		.ascii	"sb_psw_void\000"
 17754      73775F76 
 17754      6F696400 
 17755              	.LASF583:
 17756 18e8 61706E5F 		.ascii	"apn_password\000"
 17756      70617373 
 17756      776F7264 
 17756      00
 17757              	.LASF611:
 17758 18f5 73625F73 		.ascii	"sb_sec_trans_tel\000"
 17758      65635F74 
 17758      72616E73 
 17758      5F74656C 
 17758      00
 17759              	.LASF69:
 17760 1906 4F535F46 		.ascii	"OS_FN_COM2_TXRDY\000"
 17760      4E5F434F 
 17760      4D325F54 
 17760      58524459 
 17760      00
 17761              	.LASF141:
 17762 1917 4F535F46 		.ascii	"OS_FN_THREAD_LOCK\000"
 17762      4E5F5448 
 17762      52454144 
 17762      5F4C4F43 
 17762      4B00
 17763              	.LASF711:
 17764 1929 53545F54 		.ascii	"ST_TERM_CFG\000"
 17764      45524D5F 
 17764      43464700 
 17765              	.LASF356:
 17766 1935 4F535F46 		.ascii	"OS_FN_BUS_STOP\000"
 17766      4E5F4255 
 17766      535F5354 
 17766      4F5000
 17767              	.LASF365:
 17768 1944 4F535F46 		.ascii	"OS_FN_USBKBD_INKEY\000"
 17768      4E5F5553 
 17768      424B4244 
 17768      5F494E4B 
 17768      455900
 17769              	.LASF302:
 17770 1957 4F535F46 		.ascii	"OS_FN_GPRS_SMS_DECODE\000"
 17770      4E5F4750 
 17770      52535F53 
 17770      4D535F44 
 17770      45434F44 
 17771              	.LASF280:
 17772 196d 4F535F46 		.ascii	"OS_FN_MCOM_SREAD\000"
 17772      4E5F4D43 
 17772      4F4D5F53 
 17772      52454144 
 17772      00
ARM GAS  C:\Users\AHMED~1.ELE\AppData\Local\Temp\ccpjtoUe.s 			page 366


 17773              	.LASF129:
 17774 197e 4F535F46 		.ascii	"OS_FN_KEY_HASH\000"
 17774      4E5F4B45 
 17774      595F4841 
 17774      534800
 17775              	.LASF191:
 17776 198d 4F535F46 		.ascii	"OS_FN_FILE_FREESPACE\000"
 17776      4E5F4649 
 17776      4C455F46 
 17776      52454553 
 17776      50414345 
 17777              	.LASF594:
 17778 19a2 73625F70 		.ascii	"sb_pan_range_high\000"
 17778      616E5F72 
 17778      616E6765 
 17778      5F686967 
 17778      6800
 17779              	.LASF211:
 17780 19b4 4F535F46 		.ascii	"OS_FN_SAM_T1\000"
 17780      4E5F5341 
 17780      4D5F5431 
 17780      00
 17781              	.LASF195:
 17782 19c1 4F535F46 		.ascii	"OS_FN_FILE_READDIR\000"
 17782      4E5F4649 
 17782      4C455F52 
 17782      45414444 
 17782      495200
 17783              	.LASF33:
 17784 19d4 4F535F46 		.ascii	"OS_FN_BUZ_BEEP\000"
 17784      4E5F4255 
 17784      5A5F4245 
 17784      455000
 17785              	.LASF166:
 17786 19e3 4F535F46 		.ascii	"OS_FN_FILE_CREATE_OWNER\000"
 17786      4E5F4649 
 17786      4C455F43 
 17786      52454154 
 17786      455F4F57 
 17787              	.LASF441:
 17788 19fb 4F535F46 		.ascii	"OS_FN_APPCALL_RETURN\000"
 17788      4E5F4150 
 17788      5043414C 
 17788      4C5F5245 
 17788      5455524E 
 17789              	.LASF121:
 17790 1a10 4F535F46 		.ascii	"OS_FN_KEY_SAVE_TMK\000"
 17790      4E5F4B45 
 17790      595F5341 
 17790      56455F54 
 17790      4D4B00
 17791              	.LASF81:
 17792 1a23 4F535F46 		.ascii	"OS_FN_COM3_STATUS\000"
 17792      4E5F434F 
 17792      4D335F53 
 17792      54415455 
 17792      5300
ARM GAS  C:\Users\AHMED~1.ELE\AppData\Local\Temp\ccpjtoUe.s 			page 367


 17793              	.LASF672:
 17794 1a35 4D584D4C 		.ascii	"MXML_TEXT\000"
 17794      5F544558 
 17794      5400
 17795              	.LASF525:
 17796 1a3f 47455443 		.ascii	"GETCHARMW\000"
 17796      4841524D 
 17796      5700
 17797              	.LASF19:
 17798 1a49 4F535F46 		.ascii	"OS_FN_RAND_UPDATE\000"
 17798      4E5F5241 
 17798      4E445F55 
 17798      50444154 
 17798      4500
 17799              	.LASF406:
 17800 1a5b 4F535F46 		.ascii	"OS_FN_WIFI_PROFILES_READ\000"
 17800      4E5F5749 
 17800      46495F50 
 17800      524F4649 
 17800      4C45535F 
 17801              	.LASF169:
 17802 1a74 4F535F46 		.ascii	"OS_FN_FILE_CLOSE\000"
 17802      4E5F4649 
 17802      4C455F43 
 17802      4C4F5345 
 17802      00
 17803              	.LASF165:
 17804 1a85 4F535F46 		.ascii	"OS_FN_FREE\000"
 17804      4E5F4652 
 17804      454500
 17805              	.LASF840:
 17806 1a90 43544C4B 		.ascii	"CTLKillDnloadBuf\000"
 17806      696C6C44 
 17806      6E6C6F61 
 17806      64427566 
 17806      00
 17807              	.LASF537:
 17808 1aa1 44495350 		.ascii	"DISP_CLRLINEMW\000"
 17808      5F434C52 
 17808      4C494E45 
 17808      4D5700
 17809              	.LASF385:
 17810 1ab0 4F535F46 		.ascii	"OS_FN_MIF_DEC\000"
 17810      4E5F4D49 
 17810      465F4445 
 17810      4300
 17811              	.LASF6:
 17812 1abe 6C6F6E67 		.ascii	"long long int\000"
 17812      206C6F6E 
 17812      6720696E 
 17812      7400
 17813              	.LASF38:
 17814 1acc 4F535F46 		.ascii	"OS_FN_DISP_CLOSE\000"
 17814      4E5F4449 
 17814      53505F43 
 17814      4C4F5345 
 17814      00
ARM GAS  C:\Users\AHMED~1.ELE\AppData\Local\Temp\ccpjtoUe.s 			page 368


 17815              	.LASF7:
 17816 1add 6C6F6E67 		.ascii	"long long unsigned int\000"
 17816      206C6F6E 
 17816      6720756E 
 17816      7369676E 
 17816      65642069 
 17817              	.LASF378:
 17818 1af4 4F535F46 		.ascii	"OS_FN_MIF_SELECT\000"
 17818      4E5F4D49 
 17818      465F5345 
 17818      4C454354 
 17818      00
 17819              	.LASF527:
 17820 1b05 4445534B 		.ascii	"DESKEYMW\000"
 17820      45594D57 
 17820      00
 17821              	.LASF781:
 17822 1b0e 666E616D 		.ascii	"fname\000"
 17822      6500
 17823              	.LASF72:
 17824 1b14 4F535F46 		.ascii	"OS_FN_COM2_STATUS\000"
 17824      4E5F434F 
 17824      4D325F53 
 17824      54415455 
 17824      5300
 17825              	.LASF89:
 17826 1b26 4F535F46 		.ascii	"OS_FN_COM_DES2\000"
 17826      4E5F434F 
 17826      4D5F4445 
 17826      533200
 17827              	.LASF646:
 17828 1b35 65426974 		.ascii	"eBitField\000"
 17828      4669656C 
 17828      6400
 17829              	.LASF515:
 17830 1b3f 4644454C 		.ascii	"FDELETEMW\000"
 17830      4554454D 
 17830      5700
 17831              	.LASF298:
 17832 1b49 4F535F46 		.ascii	"OS_FN_GPRS_RESET\000"
 17832      4E5F4750 
 17832      52535F52 
 17832      45534554 
 17832      00
 17833              	.LASF395:
 17834 1b5a 4F535F46 		.ascii	"OS_FN_BARCODE_CLOSE\000"
 17834      4E5F4241 
 17834      52434F44 
 17834      455F434C 
 17834      4F534500 
 17835              	.LASF698:
 17836 1b6e 646F7562 		.ascii	"double\000"
 17836      6C6500
 17837              	.LASF809:
 17838 1b75 53657443 		.ascii	"SetCTLLoaded\000"
 17838      544C4C6F 
 17838      61646564 
ARM GAS  C:\Users\AHMED~1.ELE\AppData\Local\Temp\ccpjtoUe.s 			page 369


 17838      00
 17839              	.LASF260:
 17840 1b82 4F535F46 		.ascii	"OS_FN_FL_ERASE_END\000"
 17840      4E5F464C 
 17840      5F455241 
 17840      53455F45 
 17840      4E4400
 17841              	.LASF296:
 17842 1b95 4F535F46 		.ascii	"OS_FN_GPRS_SEND\000"
 17842      4E5F4750 
 17842      52535F53 
 17842      454E4400 
 17843              	.LASF244:
 17844 1ba5 4F535F46 		.ascii	"OS_FN_LPT_STATUS\000"
 17844      4E5F4C50 
 17844      545F5354 
 17844      41545553 
 17844      00
 17845              	.LASF705:
 17846 1bb6 6368696C 		.ascii	"child\000"
 17846      6400
 17847              	.LASF675:
 17848 1bbc 6D786D6C 		.ascii	"mxml_custom_destroy_cb_t\000"
 17848      5F637573 
 17848      746F6D5F 
 17848      64657374 
 17848      726F795F 
 17849              	.LASF688:
 17850 1bd5 6D786D6C 		.ascii	"mxml_custom_s\000"
 17850      5F637573 
 17850      746F6D5F 
 17850      7300
 17851              	.LASF784:
 17852 1be3 4B53696D 		.ascii	"KSimSel\000"
 17852      53656C00 
 17853              	.LASF158:
 17854 1beb 4F535F46 		.ascii	"OS_FN_APP_SEARCH_ID\000"
 17854      4E5F4150 
 17854      505F5345 
 17854      41524348 
 17854      5F494400 
 17855              	.LASF350:
 17856 1bff 4F535F46 		.ascii	"OS_FN_DEVICE_OPEN\000"
 17856      4E5F4445 
 17856      56494345 
 17856      5F4F5045 
 17856      4E00
 17857              	.LASF56:
 17858 1c11 4F535F46 		.ascii	"OS_FN_DISP_OVERLAY\000"
 17858      4E5F4449 
 17858      53505F4F 
 17858      5645524C 
 17858      415900
 17859              	.LASF314:
 17860 1c24 4F535F46 		.ascii	"OS_FN_TPAD_RAW_POS\000"
 17860      4E5F5450 
 17860      41445F52 
ARM GAS  C:\Users\AHMED~1.ELE\AppData\Local\Temp\ccpjtoUe.s 			page 370


 17860      41575F50 
 17860      4F5300
 17861              	.LASF214:
 17862 1c37 4F535F46 		.ascii	"OS_FN_MMC_CLOSE\000"
 17862      4E5F4D4D 
 17862      435F434C 
 17862      4F534500 
 17863              	.LASF360:
 17864 1c47 4F535F46 		.ascii	"OS_FN_NETDEV_GETLINK\000"
 17864      4E5F4E45 
 17864      54444556 
 17864      5F474554 
 17864      4C494E4B 
 17865              	.LASF704:
 17866 1c5c 70617265 		.ascii	"parent\000"
 17866      6E7400
 17867              	.LASF59:
 17868 1c63 4F535F46 		.ascii	"OS_FN_COM1_RXRDY\000"
 17868      4E5F434F 
 17868      4D315F52 
 17868      58524459 
 17868      00
 17869              	.LASF247:
 17870 1c74 4F535F46 		.ascii	"OS_FN_USBSER_READ\000"
 17870      4E5F5553 
 17870      42534552 
 17870      5F524541 
 17870      4400
 17871              	.LASF99:
 17872 1c86 4F535F46 		.ascii	"OS_FN_MD5_PROCESS\000"
 17872      4E5F4D44 
 17872      355F5052 
 17872      4F434553 
 17872      5300
 17873              	.LASF729:
 17874 1c98 4B45595F 		.ascii	"KEY_ROOM_T\000"
 17874      524F4F4D 
 17874      5F5400
 17875              	.LASF509:
 17876 1ca3 4C534545 		.ascii	"LSEEKMW\000"
 17876      4B4D5700 
 17877              	.LASF660:
 17878 1cab 61625441 		.ascii	"abTACDenial\000"
 17878      4344656E 
 17878      69616C00 
 17879              	.LASF655:
 17880 1cb7 62455479 		.ascii	"bEType\000"
 17880      706500
 17881              	.LASF60:
 17882 1cbe 4F535F46 		.ascii	"OS_FN_COM1_TXRDY\000"
 17882      4E5F434F 
 17882      4D315F54 
 17882      58524459 
 17882      00
 17883              	.LASF720:
 17884 1ccf 54595045 		.ascii	"TYPE_VAL\000"
 17884      5F56414C 
ARM GAS  C:\Users\AHMED~1.ELE\AppData\Local\Temp\ccpjtoUe.s 			page 371


 17884      00
 17885              	.LASF171:
 17886 1cd8 4F535F46 		.ascii	"OS_FN_FILE_RENAME\000"
 17886      4E5F4649 
 17886      4C455F52 
 17886      454E414D 
 17886      4500
 17887              	.LASF605:
 17888 1cea 41435155 		.ascii	"ACQUIRER_TBL\000"
 17888      49524552 
 17888      5F54424C 
 17888      00
 17889              	.LASF797:
 17890 1cf7 636F6D70 		.ascii	"compress\000"
 17890      72657373 
 17890      00
 17891              	.LASF451:
 17892 1d00 4F535F46 		.ascii	"OS_FN_FPRT_CLOSE\000"
 17892      4E5F4650 
 17892      52545F43 
 17892      4C4F5345 
 17892      00
 17893              	.LASF591:
 17894 1d11 5445524D 		.ascii	"TERM_CFG\000"
 17894      5F434647 
 17894      00
 17895              	.LASF353:
 17896 1d1a 4F535F46 		.ascii	"OS_FN_INTERRUPT_REGISTER\000"
 17896      4E5F494E 
 17896      54455252 
 17896      5550545F 
 17896      52454749 
 17897              	.LASF212:
 17898 1d33 4F535F46 		.ascii	"OS_FN_SAM_CHANGE\000"
 17898      4E5F5341 
 17898      4D5F4348 
 17898      414E4745 
 17898      00
 17899              	.LASF185:
 17900 1d44 4F535F46 		.ascii	"OS_FN_FILE_ACTIVATE\000"
 17900      4E5F4649 
 17900      4C455F41 
 17900      43544956 
 17900      41544500 
 17901              	.LASF754:
 17902 1d58 63757272 		.ascii	"curr_node\000"
 17902      5F6E6F64 
 17902      6500
 17903              	.LASF46:
 17904 1d62 4F535F46 		.ascii	"OS_FN_DISP_LENGTH\000"
 17904      4E5F4449 
 17904      53505F4C 
 17904      454E4754 
 17904      4800
 17905              	.LASF551:
 17906 1d74 534D535F 		.ascii	"SMS_CLEAR_ALL_MW\000"
 17906      434C4541 
ARM GAS  C:\Users\AHMED~1.ELE\AppData\Local\Temp\ccpjtoUe.s 			page 372


 17906      525F414C 
 17906      4C5F4D57 
 17906      00
 17907              	.LASF686:
 17908 1d85 73747269 		.ascii	"string\000"
 17908      6E6700
 17909              	.LASF453:
 17910 1d8c 4F535F46 		.ascii	"OS_FN_FPRT_INFO_SET\000"
 17910      4E5F4650 
 17910      52545F49 
 17910      4E464F5F 
 17910      53455400 
 17911              	.LASF695:
 17912 1da0 7265616C 		.ascii	"real\000"
 17912      00
 17913              	.LASF8:
 17914 1da5 756E7369 		.ascii	"unsigned int\000"
 17914      676E6564 
 17914      20696E74 
 17914      00
 17915              	.LASF664:
 17916 1db2 434C5F43 		.ascii	"CL_CFGP\000"
 17916      46475000 
 17917              	.LASF813:
 17918 1dba 7379735F 		.ascii	"sys_func0\000"
 17918      66756E63 
 17918      3000
 17919              	.LASF610:
 17920 1dc4 625F7072 		.ascii	"b_pri_trans_redial\000"
 17920      695F7472 
 17920      616E735F 
 17920      72656469 
 17920      616C00
 17921              	.LASF830:
 17922 1dd7 7379735F 		.ascii	"sys_func2\000"
 17922      66756E63 
 17922      3200
 17923              	.LASF833:
 17924 1de1 7379735F 		.ascii	"sys_func3\000"
 17924      66756E63 
 17924      3300
 17925              	.LASF447:
 17926 1deb 4F535F46 		.ascii	"OS_FN_DTIMER_LATCH_TIME\000"
 17926      4E5F4454 
 17926      494D4552 
 17926      5F4C4154 
 17926      43485F54 
 17927              	.LASF325:
 17928 1e03 4F535F46 		.ascii	"OS_FN_CLICC_SENDCOMMAND\000"
 17928      4E5F434C 
 17928      4943435F 
 17928      53454E44 
 17928      434F4D4D 
 17929              	.LASF438:
 17930 1e1b 4F535F46 		.ascii	"OS_FN_DLL_REQ\000"
 17930      4E5F444C 
 17930      4C5F5245 
ARM GAS  C:\Users\AHMED~1.ELE\AppData\Local\Temp\ccpjtoUe.s 			page 373


 17930      5100
 17931              	.LASF494:
 17932 1e29 645F6669 		.ascii	"d_filelen\000"
 17932      6C656C65 
 17932      6E00
 17933              	.LASF178:
 17934 1e33 4F535F46 		.ascii	"OS_FN_FILE_GETC\000"
 17934      4E5F4649 
 17934      4C455F47 
 17934      45544300 
 17935              	.LASF52:
 17936 1e43 4F535F46 		.ascii	"OS_FN_DISP_ICON_COLOR\000"
 17936      4E5F4449 
 17936      53505F49 
 17936      434F4E5F 
 17936      434F4C4F 
 17937              	.LASF398:
 17938 1e59 4F535F46 		.ascii	"OS_FN_BARCODE_READ\000"
 17938      4E5F4241 
 17938      52434F44 
 17938      455F5245 
 17938      414400
 17939              	.LASF543:
 17940 1e6c 44495350 		.ascii	"DISP_PUTGMW\000"
 17940      5F505554 
 17940      474D5700 
 17941              	.LASF475:
 17942 1e78 4F535F46 		.ascii	"OS_FN_IMG_SENSOR_GET_FRAME_COMPLETE\000"
 17942      4E5F494D 
 17942      475F5345 
 17942      4E534F52 
 17942      5F474554 
 17943              	.LASF299:
 17944 1e9c 4F535F46 		.ascii	"OS_FN_GPRS_CONTROL\000"
 17944      4E5F4750 
 17944      52535F43 
 17944      4F4E5452 
 17944      4F4C00
 17945              	.LASF420:
 17946 1eaf 4F535F46 		.ascii	"OS_FN_GPRS_GET_GPS_INFO\000"
 17946      4E5F4750 
 17946      52535F47 
 17946      45545F47 
 17946      50535F49 
 17947              	.LASF460:
 17948 1ec7 4F535F46 		.ascii	"OS_FN_GCM_AES_PROCESS_AAD\000"
 17948      4E5F4743 
 17948      4D5F4145 
 17948      535F5052 
 17948      4F434553 
 17949              	.LASF592:
 17950 1ee1 43415244 		.ascii	"CARD_TBL\000"
 17950      5F54424C 
 17950      00
 17951              	.LASF738:
 17952 1eea 614B6579 		.ascii	"aKeyRoom\000"
 17952      526F6F6D 
ARM GAS  C:\Users\AHMED~1.ELE\AppData\Local\Temp\ccpjtoUe.s 			page 374


 17952      00
 17953              	.LASF128:
 17954 1ef3 4F535F46 		.ascii	"OS_FN_KEY_CBC_MAC\000"
 17954      4E5F4B45 
 17954      595F4342 
 17954      435F4D41 
 17954      4300
 17955              	.LASF94:
 17956 1f05 4F535F46 		.ascii	"OS_FN_AES_SETUP_KEY\000"
 17956      4E5F4145 
 17956      535F5345 
 17956      5455505F 
 17956      4B455900 
 17957              	.LASF668:
 17958 1f19 4D584D4C 		.ascii	"MXML_ELEMENT\000"
 17958      5F454C45 
 17958      4D454E54 
 17958      00
 17959              	.LASF759:
 17960 1f26 50617273 		.ascii	"ParseCard\000"
 17960      65436172 
 17960      6400
 17961              	.LASF351:
 17962 1f30 4F535F46 		.ascii	"OS_FN_DEVICE_MOUNT\000"
 17962      4E5F4445 
 17962      56494345 
 17962      5F4D4F55 
 17962      4E5400
 17963              	.LASF90:
 17964 1f43 4F535F46 		.ascii	"OS_FN_NEW_DES\000"
 17964      4E5F4E45 
 17964      575F4445 
 17964      5300
 17965              	.LASF184:
 17966 1f51 4F535F46 		.ascii	"OS_FN_FILE_DEACTIVATE\000"
 17966      4E5F4649 
 17966      4C455F44 
 17966      45414354 
 17966      49564154 
 17967              	.LASF367:
 17968 1f67 4F535F46 		.ascii	"OS_FN_TAMPER_ON\000"
 17968      4E5F5441 
 17968      4D504552 
 17968      5F4F4E00 
 17969              	.LASF653:
 17970 1f77 65414346 		.ascii	"eACFG\000"
 17970      4700
 17971              	.LASF265:
 17972 1f7d 4F535F46 		.ascii	"OS_FN_FL_CREAD\000"
 17972      4E5F464C 
 17972      5F435245 
 17972      414400
 17973              	.LASF545:
 17974 1f8c 4F535F43 		.ascii	"OS_CALL_MW\000"
 17974      414C4C5F 
 17974      4D5700
 17975              	.LASF416:
ARM GAS  C:\Users\AHMED~1.ELE\AppData\Local\Temp\ccpjtoUe.s 			page 375


 17976 1f97 4F535F46 		.ascii	"OS_FN_NFC_IC_REG_DIRECT_READ\000"
 17976      4E5F4E46 
 17976      435F4943 
 17976      5F524547 
 17976      5F444952 
 17977              	.LASF389:
 17978 1fb4 4F535F46 		.ascii	"OS_FN_MIF_SNO\000"
 17978      4E5F4D49 
 17978      465F534E 
 17978      4F00
 17979              	.LASF131:
 17980 1fc2 4F535F46 		.ascii	"OS_FN_KEY_SAVE_TMK_NC\000"
 17980      4E5F4B45 
 17980      595F5341 
 17980      56455F54 
 17980      4D4B5F4E 
 17981              	.LASF621:
 17982 1fd8 73625F6E 		.ascii	"sb_nii\000"
 17982      696900
 17983              	.LASF252:
 17984 1fdf 4F535F46 		.ascii	"OS_FN_FL_STATUS\000"
 17984      4E5F464C 
 17984      5F535441 
 17984      54555300 
 17985              	.LASF307:
 17986 1fef 4F535F46 		.ascii	"OS_FN_TPAD_OPEN\000"
 17986      4E5F5450 
 17986      41445F4F 
 17986      50454E00 
 17987              	.LASF113:
 17988 1fff 4F535F46 		.ascii	"OS_FN_SM2_DECRYPT\000"
 17988      4E5F534D 
 17988      325F4445 
 17988      43525950 
 17988      5400
 17989              	.LASF225:
 17990 2011 4F535F46 		.ascii	"OS_FN_SLE_HIST\000"
 17990      4E5F534C 
 17990      455F4849 
 17990      535400
 17991              	.LASF426:
 17992 2020 4F535F46 		.ascii	"OS_FN_BREG_WRITE\000"
 17992      4E5F4252 
 17992      45475F57 
 17992      52495445 
 17992      00
 17993              	.LASF118:
 17994 2031 4F535F46 		.ascii	"OS_FN_SM4_ENCRYPT\000"
 17994      4E5F534D 
 17994      345F454E 
 17994      43525950 
 17994      5400
 17995              	.LASF217:
 17996 2043 4F535F46 		.ascii	"OS_FN_MMC_PSTATUS\000"
 17996      4E5F4D4D 
 17996      435F5053 
 17996      54415455 
ARM GAS  C:\Users\AHMED~1.ELE\AppData\Local\Temp\ccpjtoUe.s 			page 376


 17996      5300
 17997              	.LASF254:
 17998 2055 4F535F46 		.ascii	"OS_FN_FL_PAGE\000"
 17998      4E5F464C 
 17998      5F504147 
 17998      4500
 17999              	.LASF361:
 18000 2063 4F535F46 		.ascii	"OS_FN_NETDEV_EVENT\000"
 18000      4E5F4E45 
 18000      54444556 
 18000      5F455645 
 18000      4E5400
 18001              	.LASF4:
 18002 2076 6C6F6E67 		.ascii	"long int\000"
 18002      20696E74 
 18002      00
 18003              	.LASF51:
 18004 207f 4F535F46 		.ascii	"OS_FN_DISP_BL_CONTROL\000"
 18004      4E5F4449 
 18004      53505F42 
 18004      4C5F434F 
 18004      4E54524F 
 18005              	.LASF14:
 18006 2095 574F5244 		.ascii	"WORD\000"
 18006      00
 18007              	.LASF358:
 18008 209a 4F535F46 		.ascii	"OS_FN_NETDEV_OPEN\000"
 18008      4E5F4E45 
 18008      54444556 
 18008      5F4F5045 
 18008      4E00
 18009              	.LASF462:
 18010 20ac 4F535F46 		.ascii	"OS_FN_GCM_AES_FINISH\000"
 18010      4E5F4743 
 18010      4D5F4145 
 18010      535F4649 
 18010      4E495348 
 18011              	.LASF1:
 18012 20c1 756E7369 		.ascii	"unsigned char\000"
 18012      676E6564 
 18012      20636861 
 18012      7200
 18013              	.LASF126:
 18014 20cf 4F535F46 		.ascii	"OS_FN_KEY_DUKPT_MAC_CAL\000"
 18014      4E5F4B45 
 18014      595F4455 
 18014      4B50545F 
 18014      4D41435F 
 18015              	.LASF331:
 18016 20e7 4F535F46 		.ascii	"OS_FN_CLICC_LED_SET\000"
 18016      4E5F434C 
 18016      4943435F 
 18016      4C45445F 
 18016      53455400 
 18017              	.LASF409:
 18018 20fb 4F535F46 		.ascii	"OS_FN_NFC_SEND_FELICA_COMMAND\000"
 18018      4E5F4E46 
ARM GAS  C:\Users\AHMED~1.ELE\AppData\Local\Temp\ccpjtoUe.s 			page 377


 18018      435F5345 
 18018      4E445F46 
 18018      454C4943 
 18019              	.LASF661:
 18020 2119 61625441 		.ascii	"abTACOnline\000"
 18020      434F6E6C 
 18020      696E6500 
 18021              	.LASF42:
 18022 2125 4F535F46 		.ascii	"OS_FN_DISP_GETG\000"
 18022      4E5F4449 
 18022      53505F47 
 18022      45544700 
 18023              	.LASF717:
 18024 2135 53545F45 		.ascii	"ST_EMV_KEY\000"
 18024      4D565F4B 
 18024      455900
 18025              	.LASF326:
 18026 2140 4F535F46 		.ascii	"OS_FN_CLICC_CTRL\000"
 18026      4E5F434C 
 18026      4943435F 
 18026      4354524C 
 18026      00
 18027              	.LASF219:
 18028 2151 4F535F46 		.ascii	"OS_FN_MMC_BLK_WRITE\000"
 18028      4E5F4D4D 
 18028      435F424C 
 18028      4B5F5752 
 18028      49544500 
 18029              	.LASF29:
 18030 2165 4F535F46 		.ascii	"OS_FN_TIMER_SET\000"
 18030      4E5F5449 
 18030      4D45525F 
 18030      53455400 
 18031              	.LASF364:
 18032 2175 4F535F46 		.ascii	"OS_FN_USBKBD_CLOSE\000"
 18032      4E5F5553 
 18032      424B4244 
 18032      5F434C4F 
 18032      534500
 18033              	.LASF373:
 18034 2188 4F535F46 		.ascii	"OS_FN_MIF_HALT\000"
 18034      4E5F4D49 
 18034      465F4841 
 18034      4C5400
 18035              	.LASF188:
 18036 2197 4F535F46 		.ascii	"OS_FN_FILE_AUTH\000"
 18036      4E5F4649 
 18036      4C455F41 
 18036      55544800 
 18037              	.LASF798:
 18038 21a7 6865785F 		.ascii	"hex_value\000"
 18038      76616C75 
 18038      6500
 18039              	.LASF267:
 18040 21b1 4F535F46 		.ascii	"OS_FN_FL_COPYBACK\000"
 18040      4E5F464C 
 18040      5F434F50 
ARM GAS  C:\Users\AHMED~1.ELE\AppData\Local\Temp\ccpjtoUe.s 			page 378


 18040      59424143 
 18040      4B00
 18041              	.LASF667:
 18042 21c3 4D584D4C 		.ascii	"MXML_IGNORE\000"
 18042      5F49474E 
 18042      4F524500 
 18043              	.LASF22:
 18044 21cf 4F535F46 		.ascii	"OS_FN_KBD_INKEY\000"
 18044      4E5F4B42 
 18044      445F494E 
 18044      4B455900 
 18045              	.LASF30:
 18046 21df 4F535F46 		.ascii	"OS_FN_TIMER_GET\000"
 18046      4E5F5449 
 18046      4D45525F 
 18046      47455400 
 18047              	.LASF78:
 18048 21ef 4F535F46 		.ascii	"OS_FN_COM3_TXRDY\000"
 18048      4E5F434F 
 18048      4D335F54 
 18048      58524459 
 18048      00
 18049              	.LASF179:
 18050 2200 4F535F46 		.ascii	"OS_FN_FILE_LENGTH\000"
 18050      4E5F4649 
 18050      4C455F4C 
 18050      454E4754 
 18050      4800
 18051              	.LASF489:
 18052 2212 454E445F 		.ascii	"END_OF_OS_FN_LIST\000"
 18052      4F465F4F 
 18052      535F464E 
 18052      5F4C4953 
 18052      5400
 18053              	.LASF544:
 18054 2224 4745545F 		.ascii	"GET_LCD_TYPEMW\000"
 18054      4C43445F 
 18054      54595045 
 18054      4D5700
 18055              	.LASF163:
 18056 2233 4F535F46 		.ascii	"OS_FN_MALLOC\000"
 18056      4E5F4D41 
 18056      4C4C4F43 
 18056      00
 18057              	.LASF366:
 18058 2240 4F535F46 		.ascii	"OS_FN_USBKBD_GETKEY\000"
 18058      4E5F5553 
 18058      424B4244 
 18058      5F474554 
 18058      4B455900 
 18059              	.LASF445:
 18060 2254 4F535F46 		.ascii	"OS_FN_DTIMER_LATCH_START\000"
 18060      4E5F4454 
 18060      494D4552 
 18060      5F4C4154 
 18060      43485F53 
 18061              	.LASF421:
ARM GAS  C:\Users\AHMED~1.ELE\AppData\Local\Temp\ccpjtoUe.s 			page 379


 18062 226d 4F535F46 		.ascii	"OS_FN_GPS_CMD\000"
 18062      4E5F4750 
 18062      535F434D 
 18062      4400
 18063              	.LASF401:
 18064 227b 4F535F46 		.ascii	"OS_FN_BARCODE_ENABLED\000"
 18064      4E5F4241 
 18064      52434F44 
 18064      455F454E 
 18064      41424C45 
 18065              	.LASF718:
 18066 2291 53545F45 		.ascii	"ST_END\000"
 18066      4E4400
 18067              	.LASF172:
 18068 2298 4F535F46 		.ascii	"OS_FN_FILE_DELETE\000"
 18068      4E5F4649 
 18068      4C455F44 
 18068      454C4554 
 18068      4500
 18069              	.LASF148:
 18070 22aa 4F535F46 		.ascii	"OS_FN_BUFMAN_REALLOC\000"
 18070      4E5F4255 
 18070      464D414E 
 18070      5F524541 
 18070      4C4C4F43 
 18071              	.LASF313:
 18072 22bf 4F535F46 		.ascii	"OS_FN_TPAD_CALIBRATE\000"
 18072      4E5F5450 
 18072      41445F43 
 18072      414C4942 
 18072      52415445 
 18073              	.LASF529:
 18074 22d4 44455332 		.ascii	"DES2MW\000"
 18074      4D5700
 18075              	.LASF778:
 18076 22db 70496E66 		.ascii	"pInfo\000"
 18076      6F00
 18077              	.LASF762:
 18078 22e1 50617273 		.ascii	"ParseCtlApp\000"
 18078      6543746C 
 18078      41707000 
 18079              	.LASF275:
 18080 22ed 4F535F46 		.ascii	"OS_FN_MCOM_OPEN\000"
 18080      4E5F4D43 
 18080      4F4D5F4F 
 18080      50454E00 
 18081              	.LASF332:
 18082 22fd 4F535F46 		.ascii	"OS_FN_CLICC_LED_CLEAR\000"
 18082      4E5F434C 
 18082      4943435F 
 18082      4C45445F 
 18082      434C4541 
 18083              	.LASF159:
 18084 2313 4F535F46 		.ascii	"OS_FN_APP_SEARCH_NAME\000"
 18084      4E5F4150 
 18084      505F5345 
 18084      41524348 
ARM GAS  C:\Users\AHMED~1.ELE\AppData\Local\Temp\ccpjtoUe.s 			page 380


 18084      5F4E414D 
 18085              	.LASF600:
 18086 2329 73625F63 		.ascii	"sb_card_name\000"
 18086      6172645F 
 18086      6E616D65 
 18086      00
 18087              	.LASF615:
 18088 2336 625F7072 		.ascii	"b_pri_settle_conn_time\000"
 18088      695F7365 
 18088      74746C65 
 18088      5F636F6E 
 18088      6E5F7469 
 18089              	.LASF102:
 18090 234d 4F535F46 		.ascii	"OS_FN_SHA_PROCESS\000"
 18090      4E5F5348 
 18090      415F5052 
 18090      4F434553 
 18090      5300
 18091              	.LASF766:
 18092 235f 64697370 		.ascii	"dispBuf\000"
 18092      42756600 
 18093              	.LASF362:
 18094 2367 4F535F46 		.ascii	"OS_FN_NETDEV_IOCTL\000"
 18094      4E5F4E45 
 18094      54444556 
 18094      5F494F43 
 18094      544C00
 18095              	.LASF85:
 18096 237a 4F535F46 		.ascii	"OS_FN_DES\000"
 18096      4E5F4445 
 18096      5300
 18097              	.LASF476:
 18098 2384 4F535F46 		.ascii	"OS_FN_IMG_SENSOR_CLOSE\000"
 18098      4E5F494D 
 18098      475F5345 
 18098      4E534F52 
 18098      5F434C4F 
 18099              	.LASF663:
 18100 239b 6162544C 		.ascii	"abTLV\000"
 18100      5600
 18101              	.LASF58:
 18102 23a1 4F535F46 		.ascii	"OS_FN_COM1_CLOSE\000"
 18102      4E5F434F 
 18102      4D315F43 
 18102      4C4F5345 
 18102      00
 18103              	.LASF264:
 18104 23b2 4F535F46 		.ascii	"OS_FN_FL_CREAD_RAND\000"
 18104      4E5F464C 
 18104      5F435245 
 18104      41445F52 
 18104      414E4400 
 18105              	.LASF397:
 18106 23c6 4F535F46 		.ascii	"OS_FN_BARCODE_SCAN\000"
 18106      4E5F4241 
 18106      52434F44 
 18106      455F5343 
ARM GAS  C:\Users\AHMED~1.ELE\AppData\Local\Temp\ccpjtoUe.s 			page 381


 18106      414E00
 18107              	.LASF692:
 18108 23d9 656C656D 		.ascii	"element\000"
 18108      656E7400 
 18109              	.LASF24:
 18110 23e1 4F535F46 		.ascii	"OS_FN_KBD_GETKEY\000"
 18110      4E5F4B42 
 18110      445F4745 
 18110      544B4559 
 18110      00
 18111              	.LASF497:
 18112 23f2 545F4649 		.ascii	"T_FILE\000"
 18112      4C4500
 18113              	.LASF336:
 18114 23f9 4F535F46 		.ascii	"OS_FN_USBHOST_RESET_DEVICE\000"
 18114      4E5F5553 
 18114      42484F53 
 18114      545F5245 
 18114      5345545F 
 18115              	.LASF777:
 18116 2414 66696C65 		.ascii	"file_info\000"
 18116      5F696E66 
 18116      6F00
 18117              	.LASF806:
 18118 241e 55706443 		.ascii	"UpdCardTbl\000"
 18118      61726454 
 18118      626C00
 18119              	.LASF740:
 18120 2429 6153697A 		.ascii	"aSize\000"
 18120      6500
 18121              	.LASF309:
 18122 242f 4F535F46 		.ascii	"OS_FN_TPAD_ADD_OBJ\000"
 18122      4E5F5450 
 18122      41445F41 
 18122      44445F4F 
 18122      424A00
 18123              	.LASF684:
 18124 2442 6D786D6C 		.ascii	"mxml_text_s\000"
 18124      5F746578 
 18124      745F7300 
 18125              	.LASF431:
 18126 244e 4F535F46 		.ascii	"OS_FN_RESET\000"
 18126      4E5F5245 
 18126      53455400 
 18127              	.LASF108:
 18128 245a 4F535F46 		.ascii	"OS_FN_SM2_SET_CURVE\000"
 18128      4E5F534D 
 18128      325F5345 
 18128      545F4355 
 18128      52564500 
 18129              	.LASF588:
 18130 246e 61706E32 		.ascii	"apn2_ip\000"
 18130      5F697000 
 18131              	.LASF763:
 18132 2476 50617273 		.ascii	"ParseEmvKey\000"
 18132      65456D76 
 18132      4B657900 
ARM GAS  C:\Users\AHMED~1.ELE\AppData\Local\Temp\ccpjtoUe.s 			page 382


 18133              	.LASF697:
 18134 2482 63757374 		.ascii	"custom\000"
 18134      6F6D00
 18135              	.LASF690:
 18136 2489 64657374 		.ascii	"destroy\000"
 18136      726F7900 
 18137              	.LASF200:
 18138 2491 4F535F46 		.ascii	"OS_FN_FILE_IOCTL\000"
 18138      4E5F4649 
 18138      4C455F49 
 18138      4F43544C 
 18138      00
 18139              	.LASF181:
 18140 24a2 4F535F46 		.ascii	"OS_FN_FILE_SEARCH\000"
 18140      4E5F4649 
 18140      4C455F53 
 18140      45415243 
 18140      4800
 18141              	.LASF710:
 18142 24b4 53545F54 		.ascii	"ST_TERM_CLEAR\000"
 18142      45524D5F 
 18142      434C4541 
 18142      5200
 18143              	.LASF230:
 18144 24c2 4F535F46 		.ascii	"OS_FN_LAN_TXRDY\000"
 18144      4E5F4C41 
 18144      4E5F5458 
 18144      52445900 
 18145              	.LASF535:
 18146 24d2 44495350 		.ascii	"DISP_PUTCMW\000"
 18146      5F505554 
 18146      434D5700 
 18147              	.LASF556:
 18148 24de 4D575F46 		.ascii	"MW_FUNC_COUNT\000"
 18148      554E435F 
 18148      434F554E 
 18148      5400
 18149              	.LASF342:
 18150 24ec 4F535F46 		.ascii	"OS_FN_DRIVER_UNREGISTER\000"
 18150      4E5F4452 
 18150      49564552 
 18150      5F554E52 
 18150      45474953 
 18151              	.LASF466:
 18152 2504 4F535F46 		.ascii	"OS_FN_WIFI_SOCKET_DISCONNECT\000"
 18152      4E5F5749 
 18152      46495F53 
 18152      4F434B45 
 18152      545F4449 
 18153              	.LASF155:
 18154 2521 4F535F46 		.ascii	"OS_FN_LED_ON\000"
 18154      4E5F4C45 
 18154      445F4F4E 
 18154      00
 18155              	.LASF647:
 18156 252e 65525342 		.ascii	"eRSBThresh\000"
 18156      54687265 
ARM GAS  C:\Users\AHMED~1.ELE\AppData\Local\Temp\ccpjtoUe.s 			page 383


 18156      736800
 18157              	.LASF755:
 18158 2539 656E645F 		.ascii	"end_node\000"
 18158      6E6F6465 
 18158      00
 18159              	.LASF312:
 18160 2542 4F535F46 		.ascii	"OS_FN_TPAD_ALERT_RETURN\000"
 18160      4E5F5450 
 18160      41445F41 
 18160      4C455254 
 18160      5F524554 
 18161              	.LASF619:
 18162 255a 625F7365 		.ascii	"b_sec_settle_redial\000"
 18162      635F7365 
 18162      74746C65 
 18162      5F726564 
 18162      69616C00 
 18163              	.LASF132:
 18164 256e 4F535F46 		.ascii	"OS_FN_KEY_SAVE_TMK_CBC\000"
 18164      4E5F4B45 
 18164      595F5341 
 18164      56455F54 
 18164      4D4B5F43 
 18165              	.LASF88:
 18166 2585 4F535F46 		.ascii	"OS_FN_COM_DES\000"
 18166      4E5F434F 
 18166      4D5F4445 
 18166      5300
 18167              	.LASF107:
 18168 2593 4F535F46 		.ascii	"OS_FN_MD4_FINISH\000"
 18168      4E5F4D44 
 18168      345F4649 
 18168      4E495348 
 18168      00
 18169              	.LASF75:
 18170 25a4 4F535F46 		.ascii	"OS_FN_COM3_OPEN\000"
 18170      4E5F434F 
 18170      4D335F4F 
 18170      50454E00 
 18171              	.LASF496:
 18172 25b4 735F6C61 		.ascii	"s_last_update\000"
 18172      73745F75 
 18172      70646174 
 18172      6500
 18173              	.LASF262:
 18174 25c2 4F535F46 		.ascii	"OS_FN_FL_COPYB_PGM\000"
 18174      4E5F464C 
 18174      5F434F50 
 18174      59425F50 
 18174      474D00
 18175              	.LASF487:
 18176 25d5 4F535F46 		.ascii	"OS_FN_IMG_SENSOR_SET_MODE\000"
 18176      4E5F494D 
 18176      475F5345 
 18176      4E534F52 
 18176      5F534554 
 18177              	.LASF671:
ARM GAS  C:\Users\AHMED~1.ELE\AppData\Local\Temp\ccpjtoUe.s 			page 384


 18178 25ef 4D584D4C 		.ascii	"MXML_REAL\000"
 18178      5F524541 
 18178      4C00
 18179              	.LASF749:
 18180 25f9 61437572 		.ascii	"aCurrNode\000"
 18180      724E6F64 
 18180      6500
 18181              	.LASF407:
 18182 2603 4F535F46 		.ascii	"OS_FN_WIFI_PROFILES_WRITE\000"
 18182      4E5F5749 
 18182      46495F50 
 18182      524F4649 
 18182      4C45535F 
 18183              	.LASF803:
 18184 261d 55706454 		.ascii	"UpdTermCfg\000"
 18184      65726D43 
 18184      666700
 18185              	.LASF643:
 18186 2628 43686B73 		.ascii	"Chksum\000"
 18186      756D00
 18187              	.LASF263:
 18188 262f 4F535F46 		.ascii	"OS_FN_FL_COPYB_END\000"
 18188      4E5F464C 
 18188      5F434F50 
 18188      59425F45 
 18188      4E4400
 18189              	.LASF67:
 18190 2642 4F535F46 		.ascii	"OS_FN_COM2_CLOSE\000"
 18190      4E5F434F 
 18190      4D325F43 
 18190      4C4F5345 
 18190      00
 18191              	.LASF547:
 18192 2653 534D535F 		.ascii	"SMS_ENB_MW\000"
 18192      454E425F 
 18192      4D5700
 18193              	.LASF222:
 18194 265e 4F535F46 		.ascii	"OS_FN_MMC_INSERTED\000"
 18194      4E5F4D4D 
 18194      435F494E 
 18194      53455254 
 18194      454400
 18195              	.LASF423:
 18196 2671 4F535F46 		.ascii	"OS_FN_GPS_RESET\000"
 18196      4E5F4750 
 18196      535F5245 
 18196      53455400 
 18197              	.LASF557:
 18198 2681 41504D5F 		.ascii	"APM_AUX1\000"
 18198      41555831 
 18198      00
 18199              	.LASF628:
 18200 268a 625F7365 		.ascii	"b_settle_mdm_mode\000"
 18200      74746C65 
 18200      5F6D646D 
 18200      5F6D6F64 
 18200      6500
ARM GAS  C:\Users\AHMED~1.ELE\AppData\Local\Temp\ccpjtoUe.s 			page 385


 18201              	.LASF370:
 18202 269c 4F535F46 		.ascii	"OS_FN_MIF_OPEN\000"
 18202      4E5F4D49 
 18202      465F4F50 
 18202      454E00
 18203              	.LASF553:
 18204 26ab 46545255 		.ascii	"FTRUNCATEMW\000"
 18204      4E434154 
 18204      454D5700 
 18205              	.LASF459:
 18206 26b7 4F535F46 		.ascii	"OS_FN_GCM_AES_INIT\000"
 18206      4E5F4743 
 18206      4D5F4145 
 18206      535F494E 
 18206      495400
 18207              	.LASF659:
 18208 26ca 62525342 		.ascii	"bRSBMax\000"
 18208      4D617800 
 18209              	.LASF484:
 18210 26d2 4F535F46 		.ascii	"OS_FN_WIFI_SET_REGULATORY_DOMAIN\000"
 18210      4E5F5749 
 18210      46495F53 
 18210      45545F52 
 18210      4547554C 
 18211              	.LASF286:
 18212 26f3 4F535F46 		.ascii	"OS_FN_BATT_TEMP\000"
 18212      4E5F4241 
 18212      54545F54 
 18212      454D5000 
 18213              	.LASF387:
 18214 2703 4F535F46 		.ascii	"OS_FN_MIF_TRANSFER\000"
 18214      4E5F4D49 
 18214      465F5452 
 18214      414E5346 
 18214      455200
 18215              	.LASF794:
 18216 2716 6D656D73 		.ascii	"memset\000"
 18216      657400
 18217              	.LASF28:
 18218 271d 4F535F46 		.ascii	"OS_FN_TIMER_CLOSE\000"
 18218      4E5F5449 
 18218      4D45525F 
 18218      434C4F53 
 18218      4500
 18219              	.LASF149:
 18220 272f 4F535F46 		.ascii	"OS_FN_BUFMAN_SHRINK\000"
 18220      4E5F4255 
 18220      464D414E 
 18220      5F534852 
 18220      494E4B00 
 18221              	.LASF586:
 18222 2743 61706E63 		.ascii	"apnconfig\000"
 18222      6F6E6669 
 18222      6700
 18223              	.LASF276:
 18224 274d 4F535F46 		.ascii	"OS_FN_MCOM_CLOSE\000"
 18224      4E5F4D43 
ARM GAS  C:\Users\AHMED~1.ELE\AppData\Local\Temp\ccpjtoUe.s 			page 386


 18224      4F4D5F43 
 18224      4C4F5345 
 18224      00
 18225              	.LASF105:
 18226 275e 4F535F46 		.ascii	"OS_FN_RC4_ENCRYPT\000"
 18226      4E5F5243 
 18226      345F454E 
 18226      43525950 
 18226      5400
 18227              	.LASF399:
 18228 2770 4F535F46 		.ascii	"OS_FN_BARCODE_ABORT\000"
 18228      4E5F4241 
 18228      52434F44 
 18228      455F4142 
 18228      4F525400 
 18229              	.LASF789:
 18230 2784 456D7641 		.ascii	"EmvAppParam\000"
 18230      70705061 
 18230      72616D00 
 18231              	.LASF396:
 18232 2790 4F535F46 		.ascii	"OS_FN_BARCODE_CMD\000"
 18232      4E5F4241 
 18232      52434F44 
 18232      455F434D 
 18232      4400
 18233              	.LASF504:
 18234 27a2 53485554 		.ascii	"SHUTDOWNMW\000"
 18234      444F574E 
 18234      4D5700
 18235              	.LASF676:
 18236 27ad 6D786D6C 		.ascii	"mxml_attr_s\000"
 18236      5F617474 
 18236      725F7300 
 18237              	.LASF679:
 18238 27b9 6D786D6C 		.ascii	"mxml_attr_t\000"
 18238      5F617474 
 18238      725F7400 
 18239              	.LASF34:
 18240 27c5 4F535F46 		.ascii	"OS_FN_BUZ_STATE\000"
 18240      4E5F4255 
 18240      5A5F5354 
 18240      41544500 
 18241              	.LASF305:
 18242 27d5 4F535F46 		.ascii	"OS_FN_GPRS_SMS_CONTROL\000"
 18242      4E5F4750 
 18242      52535F53 
 18242      4D535F43 
 18242      4F4E5452 
 18243              	.LASF229:
 18244 27ec 4F535F46 		.ascii	"OS_FN_LAN_RXRDY\000"
 18244      4E5F4C41 
 18244      4E5F5258 
 18244      52445900 
 18245              	.LASF737:
 18246 27fc 55706461 		.ascii	"UpdateParamEmvKey\000"
 18246      74655061 
 18246      72616D45 
ARM GAS  C:\Users\AHMED~1.ELE\AppData\Local\Temp\ccpjtoUe.s 			page 387


 18246      6D764B65 
 18246      7900
 18247              	.LASF36:
 18248 280e 4F535F46 		.ascii	"OS_FN_RTC_SET\000"
 18248      4E5F5254 
 18248      435F5345 
 18248      5400
 18249              	.LASF213:
 18250 281c 4F535F46 		.ascii	"OS_FN_MMC_OPEN\000"
 18250      4E5F4D4D 
 18250      435F4F50 
 18250      454E00
 18251              	.LASF613:
 18252 282b 625F7365 		.ascii	"b_sec_trans_redial\000"
 18252      635F7472 
 18252      616E735F 
 18252      72656469 
 18252      616C00
 18253              	.LASF658:
 18254 283e 62525354 		.ascii	"bRSTarget\000"
 18254      61726765 
 18254      7400
 18255              	.LASF347:
 18256 2848 4F535F46 		.ascii	"OS_FN_DEVICE_IOCTL\000"
 18256      4E5F4445 
 18256      56494345 
 18256      5F494F43 
 18256      544C00
 18257              	.LASF156:
 18258 285b 4F535F46 		.ascii	"OS_FN_GET_CHALLENGE\000"
 18258      4E5F4745 
 18258      545F4348 
 18258      414C4C45 
 18258      4E474500 
 18259              	.LASF218:
 18260 286f 4F535F46 		.ascii	"OS_FN_MMC_BLK_READ\000"
 18260      4E5F4D4D 
 18260      435F424C 
 18260      4B5F5245 
 18260      414400
 18261              	.LASF485:
 18262 2882 4F535F46 		.ascii	"OS_FN_TAMPER_UNLOCK\000"
 18262      4E5F5441 
 18262      4D504552 
 18262      5F554E4C 
 18262      4F434B00 
 18263              	.LASF98:
 18264 2896 4F535F46 		.ascii	"OS_FN_MD5_INIT\000"
 18264      4E5F4D44 
 18264      355F494E 
 18264      495400
 18265              	.LASF624:
 18266 28a5 625F7469 		.ascii	"b_timeout_val\000"
 18266      6D656F75 
 18266      745F7661 
 18266      6C00
 18267              	.LASF800:
ARM GAS  C:\Users\AHMED~1.ELE\AppData\Local\Temp\ccpjtoUe.s 			page 388


 18268 28b3 7379735F 		.ascii	"sys_func1\000"
 18268      66756E63 
 18268      3100
 18269              	.LASF204:
 18270 28bd 4F535F46 		.ascii	"OS_FN_CONFIG_UPDATE\000"
 18270      4E5F434F 
 18270      4E464947 
 18270      5F555044 
 18270      41544500 
 18271              	.LASF640:
 18272 28d1 43414B65 		.ascii	"CAKey\000"
 18272      7900
 18273              	.LASF413:
 18274 28d7 4F535F46 		.ascii	"OS_FN_NFC_INFO_GET\000"
 18274      4E5F4E46 
 18274      435F494E 
 18274      464F5F47 
 18274      455400
 18275              	.LASF727:
 18276 28ea 625F6B65 		.ascii	"b_key_type\000"
 18276      795F7479 
 18276      706500
 18277              	.LASF493:
 18278 28f5 645F6174 		.ascii	"d_attr\000"
 18278      747200
 18279              	.LASF587:
 18280 28fc 61706E63 		.ascii	"apnconfig2\000"
 18280      6F6E6669 
 18280      673200
 18281              	.LASF785:
 18282 2907 5465726D 		.ascii	"TermCfgParam\000"
 18282      43666750 
 18282      6172616D 
 18282      00
 18283              	.LASF192:
 18284 2914 4F535F46 		.ascii	"OS_FN_FILE_GET_SYSTEMINFO\000"
 18284      4E5F4649 
 18284      4C455F47 
 18284      45545F53 
 18284      59535445 
 18285              	.LASF379:
 18286 292e 4F535F46 		.ascii	"OS_FN_MIF_LOAD_KEY\000"
 18286      4E5F4D49 
 18286      465F4C4F 
 18286      41445F4B 
 18286      455900
 18287              	.LASF101:
 18288 2941 4F535F46 		.ascii	"OS_FN_SHA_INIT\000"
 18288      4E5F5348 
 18288      415F494E 
 18288      495400
 18289              	.LASF713:
 18290 2950 53545F54 		.ascii	"ST_TERM_ISSUER\000"
 18290      45524D5F 
 18290      49535355 
 18290      455200
 18291              	.LASF677:
ARM GAS  C:\Users\AHMED~1.ELE\AppData\Local\Temp\ccpjtoUe.s 			page 389


 18292 295f 6E616D65 		.ascii	"name\000"
 18292      00
 18293              	.LASF346:
 18294 2964 4F535F46 		.ascii	"OS_FN_DEVICE_ALLOC_MEDIA\000"
 18294      4E5F4445 
 18294      56494345 
 18294      5F414C4C 
 18294      4F435F4D 
 18295              	.LASF820:
 18296 297d 6D786D6C 		.ascii	"mxmlFindElement\000"
 18296      46696E64 
 18296      456C656D 
 18296      656E7400 
 18297              	.LASF368:
 18298 298d 4F535F46 		.ascii	"OS_FN_TAMPER_GET_STATUS\000"
 18298      4E5F5441 
 18298      4D504552 
 18298      5F474554 
 18298      5F535441 
 18299              	.LASF662:
 18300 29a5 61625441 		.ascii	"abTACDefault\000"
 18300      43446566 
 18300      61756C74 
 18300      00
 18301              	.LASF80:
 18302 29b2 4F535F46 		.ascii	"OS_FN_COM3_SEND\000"
 18302      4E5F434F 
 18302      4D335F53 
 18302      454E4400 
 18303              	.LASF87:
 18304 29c2 4F535F46 		.ascii	"OS_FN_COM_DESKEY\000"
 18304      4E5F434F 
 18304      4D5F4445 
 18304      534B4559 
 18304      00
 18305              	.LASF223:
 18306 29d3 4F535F46 		.ascii	"OS_FN_SLE_OPEN\000"
 18306      4E5F534C 
 18306      455F4F50 
 18306      454E00
 18307              	.LASF125:
 18308 29e2 4F535F46 		.ascii	"OS_FN_KEY_DUKPT_ENCRYPT\000"
 18308      4E5F4B45 
 18308      595F4455 
 18308      4B50545F 
 18308      454E4352 
 18309              	.LASF142:
 18310 29fa 4F535F46 		.ascii	"OS_FN_THREAD_UNLOCK\000"
 18310      4E5F5448 
 18310      52454144 
 18310      5F554E4C 
 18310      4F434B00 
 18311              	.LASF639:
 18312 2a0e 4B657949 		.ascii	"KeyIdx\000"
 18312      647800
 18313              	.LASF371:
 18314 2a15 4F535F46 		.ascii	"OS_FN_MIF_CLOSE\000"
ARM GAS  C:\Users\AHMED~1.ELE\AppData\Local\Temp\ccpjtoUe.s 			page 390


 18314      4E5F4D49 
 18314      465F434C 
 18314      4F534500 
 18315              	.LASF826:
 18316 2a25 47657441 		.ascii	"GetAcqCount\000"
 18316      6371436F 
 18316      756E7400 
 18317              	.LASF761:
 18318 2a31 6170705F 		.ascii	"app_cfg\000"
 18318      63666700 
 18319              	.LASF758:
 18320 2a39 50617273 		.ascii	"ParseIssuer\000"
 18320      65497373 
 18320      75657200 
 18321              	.LASF308:
 18322 2a45 4F535F46 		.ascii	"OS_FN_TPAD_CLOSE\000"
 18322      4E5F5450 
 18322      41445F43 
 18322      4C4F5345 
 18322      00
 18323              	.LASF2:
 18324 2a56 73686F72 		.ascii	"short int\000"
 18324      7420696E 
 18324      7400
 18325              	.LASF733:
 18326 2a60 61436F6E 		.ascii	"aContent\000"
 18326      74656E74 
 18326      00
 18327              	.LASF208:
 18328 2a69 4F535F46 		.ascii	"OS_FN_SAM_INSERTED\000"
 18328      4E5F5341 
 18328      4D5F494E 
 18328      53455254 
 18328      454400
 18329              	.LASF499:
 18330 2a7c 55534246 		.ascii	"USBFPRT_GENERAL_INFO_IMG_WIDTH\000"
 18330      5052545F 
 18330      47454E45 
 18330      52414C5F 
 18330      494E464F 
 18331              	.LASF330:
 18332 2a9b 4F535F46 		.ascii	"OS_FN_CLICC_LED_STATUS\000"
 18332      4E5F434C 
 18332      4943435F 
 18332      4C45445F 
 18332      53544154 
 18333              	.LASF812:
 18334 2ab2 47657454 		.ascii	"GetTermCfg\000"
 18334      65726D43 
 18334      666700
 18335              	.LASF65:
 18336 2abd 4F535F46 		.ascii	"OS_FN_COM1_SSEND\000"
 18336      4E5F434F 
 18336      4D315F53 
 18336      53454E44 
 18336      00
 18337              	.LASF348:
ARM GAS  C:\Users\AHMED~1.ELE\AppData\Local\Temp\ccpjtoUe.s 			page 391


 18338 2ace 4F535F46 		.ascii	"OS_FN_DEVICE_SEARCH_INIT\000"
 18338      4E5F4445 
 18338      56494345 
 18338      5F534541 
 18338      5243485F 
 18339              	.LASF283:
 18340 2ae7 4F535F46 		.ascii	"OS_FN_MCOM_READ\000"
 18340      4E5F4D43 
 18340      4F4D5F52 
 18340      45414400 
 18341              	.LASF577:
 18342 2af7 625F6C6F 		.ascii	"b_local_option\000"
 18342      63616C5F 
 18342      6F707469 
 18342      6F6E00
 18343              	.LASF432:
 18344 2b06 4F535F46 		.ascii	"OS_FN_FREE_RUN\000"
 18344      4E5F4652 
 18344      45455F52 
 18344      554E00
 18345              	.LASF292:
 18346 2b15 4F535F46 		.ascii	"OS_FN_GPRS_SIGNAL\000"
 18346      4E5F4750 
 18346      52535F53 
 18346      49474E41 
 18346      4C00
 18347              	.LASF251:
 18348 2b27 4F535F46 		.ascii	"OS_FN_FL_INFO\000"
 18348      4E5F464C 
 18348      5F494E46 
 18348      4F00
 18349              	.LASF839:
 18350 2b35 43544C44 		.ascii	"CTLDataUpdate\000"
 18350      61746155 
 18350      70646174 
 18350      6500
 18351              	.LASF741:
 18352 2b43 614F6666 		.ascii	"aOffset\000"
 18352      73657400 
 18353              	.LASF115:
 18354 2b4b 4F535F46 		.ascii	"OS_FN_SM3_ASCII\000"
 18354      4E5F534D 
 18354      335F4153 
 18354      43494900 
 18355              	.LASF210:
 18356 2b5b 4F535F46 		.ascii	"OS_FN_SAM_OFF\000"
 18356      4E5F5341 
 18356      4D5F4F46 
 18356      4600
 18357              	.LASF817:
 18358 2b69 5F5F6275 		.ascii	"__builtin_strcpy\000"
 18358      696C7469 
 18358      6E5F7374 
 18358      72637079 
 18358      00
 18359              	.LASF418:
 18360 2b7a 4F535F46 		.ascii	"OS_FN_GPS_OFF\000"
ARM GAS  C:\Users\AHMED~1.ELE\AppData\Local\Temp\ccpjtoUe.s 			page 392


 18360      4E5F4750 
 18360      535F4F46 
 18360      4600
 18361              	.LASF124:
 18362 2b88 4F535F46 		.ascii	"OS_FN_KEY_FLUSH\000"
 18362      4E5F4B45 
 18362      595F464C 
 18362      55534800 
 18363              	.LASF412:
 18364 2b98 4F535F46 		.ascii	"OS_FN_NFC_GET_VALID_RESP\000"
 18364      4E5F4E46 
 18364      435F4745 
 18364      545F5641 
 18364      4C49445F 
 18365              	.LASF114:
 18366 2bb1 4F535F46 		.ascii	"OS_FN_SM2_GET_MESS\000"
 18366      4E5F534D 
 18366      325F4745 
 18366      545F4D45 
 18366      535300
 18367              	.LASF770:
 18368 2bc4 61507472 		.ascii	"aPtr\000"
 18368      00
 18369              	.LASF253:
 18370 2bc9 4F535F46 		.ascii	"OS_FN_FL_PAGE_READ\000"
 18370      4E5F464C 
 18370      5F504147 
 18370      455F5245 
 18370      414400
 18371              	.LASF164:
 18372 2bdc 4F535F46 		.ascii	"OS_FN_REALLOC\000"
 18372      4E5F5245 
 18372      414C4C4F 
 18372      4300
 18373              	.LASF630:
 18374 2bea 625F7265 		.ascii	"b_reserved1\000"
 18374      73657276 
 18374      65643100 
 18375              	.LASF467:
 18376 2bf6 4F535F46 		.ascii	"OS_FN_WIFI_SOCKET_GET_STATE\000"
 18376      4E5F5749 
 18376      46495F53 
 18376      4F434B45 
 18376      545F4745 
 18377              	.LASF377:
 18378 2c12 4F535F46 		.ascii	"OS_FN_MIF_ANTICOLL\000"
 18378      4E5F4D49 
 18378      465F414E 
 18378      5449434F 
 18378      4C4C00
 18379              	.LASF256:
 18380 2c25 4F535F46 		.ascii	"OS_FN_FL_PGM_START\000"
 18380      4E5F464C 
 18380      5F50474D 
 18380      5F535441 
 18380      525400
 18381              	.LASF617:
ARM GAS  C:\Users\AHMED~1.ELE\AppData\Local\Temp\ccpjtoUe.s 			page 393


 18382 2c38 73625F73 		.ascii	"sb_sec_settle_tel\000"
 18382      65635F73 
 18382      6574746C 
 18382      655F7465 
 18382      6C00
 18383              	.LASF414:
 18384 2c4a 4F535F46 		.ascii	"OS_FN_NFC_INFO_SET\000"
 18384      4E5F4E46 
 18384      435F494E 
 18384      464F5F53 
 18384      455400
 18385              	.LASF468:
 18386 2c5d 4F535F46 		.ascii	"OS_FN_WIFI_SOCKET_SEND_TCP\000"
 18386      4E5F5749 
 18386      46495F53 
 18386      4F434B45 
 18386      545F5345 
 18387              	.LASF721:
 18388 2c78 54595045 		.ascii	"TYPE_HEX\000"
 18388      5F484558 
 18388      00
 18389              	.LASF134:
 18390 2c81 4F535F46 		.ascii	"OS_FN_PCI_DSS_GET_KVC\000"
 18390      4E5F5043 
 18390      495F4453 
 18390      535F4745 
 18390      545F4B56 
 18391              	.LASF614:
 18392 2c97 73625F70 		.ascii	"sb_pri_settle_tel\000"
 18392      72695F73 
 18392      6574746C 
 18392      655F7465 
 18392      6C00
 18393              	.LASF471:
 18394 2ca9 4F535F46 		.ascii	"OS_FN_WIFI_SOCKET_GET_STATUS\000"
 18394      4E5F5749 
 18394      46495F53 
 18394      4F434B45 
 18394      545F4745 
 18395              	.LASF117:
 18396 2cc6 4F535F46 		.ascii	"OS_FN_SM4_SET_KEY\000"
 18396      4E5F534D 
 18396      345F5345 
 18396      545F4B45 
 18396      5900
 18397              	.LASF55:
 18398 2cd8 4F535F46 		.ascii	"OS_FN_DISP_ICON_SET_SIGNAL_TYPE\000"
 18398      4E5F4449 
 18398      53505F49 
 18398      434F4E5F 
 18398      5345545F 
 18399              	.LASF311:
 18400 2cf8 4F535F46 		.ascii	"OS_FN_TPAD_CPOS\000"
 18400      4E5F5450 
 18400      41445F43 
 18400      504F5300 
 18401              	.LASF0:
ARM GAS  C:\Users\AHMED~1.ELE\AppData\Local\Temp\ccpjtoUe.s 			page 394


 18402 2d08 7369676E 		.ascii	"signed char\000"
 18402      65642063 
 18402      68617200 
 18403              	.LASF403:
 18404 2d14 4F535F46 		.ascii	"OS_FN_WIFI_SEND_COMMAND\000"
 18404      4E5F5749 
 18404      46495F53 
 18404      454E445F 
 18404      434F4D4D 
 18405              	.LASF542:
 18406 2d2c 44495350 		.ascii	"DISP_GETGMW\000"
 18406      5F474554 
 18406      474D5700 
 18407              	.LASF520:
 18408 2d38 46524541 		.ascii	"FREADMW\000"
 18408      444D5700 
 18409              	.LASF793:
 18410 2d40 7374726C 		.ascii	"strlen\000"
 18410      656E00
 18411              	.LASF63:
 18412 2d47 4F535F46 		.ascii	"OS_FN_COM1_STATUS\000"
 18412      4E5F434F 
 18412      4D315F53 
 18412      54415455 
 18412      5300
 18413              	.LASF135:
 18414 2d59 4F535F46 		.ascii	"OS_FN_PCI_DSS_REGEN_KEY\000"
 18414      4E5F5043 
 18414      495F4453 
 18414      535F5245 
 18414      47454E5F 
 18415              	.LASF86:
 18416 2d71 4F535F46 		.ascii	"OS_FN_DES2\000"
 18416      4E5F4445 
 18416      533200
 18417              	.LASF79:
 18418 2d7c 4F535F46 		.ascii	"OS_FN_COM3_READ\000"
 18418      4E5F434F 
 18418      4D335F52 
 18418      45414400 
 18419              	.LASF597:
 18420 2d8c 625F7061 		.ascii	"b_pan_len\000"
 18420      6E5F6C65 
 18420      6E00
 18421              	.LASF569:
 18422 2d96 73625F6E 		.ascii	"sb_name_loc\000"
 18422      616D655F 
 18422      6C6F6300 
 18423              	.LASF483:
 18424 2da2 4F535F46 		.ascii	"OS_FN_WIFI_GET_REGULATORY_DOMAIN\000"
 18424      4E5F5749 
 18424      46495F47 
 18424      45545F52 
 18424      4547554C 
 18425              	.LASF796:
 18426 2dc3 6D656D63 		.ascii	"memcpy\000"
 18426      707900
ARM GAS  C:\Users\AHMED~1.ELE\AppData\Local\Temp\ccpjtoUe.s 			page 395


 18427              	.LASF391:
 18428 2dca 4F535F46 		.ascii	"OS_FN_MIF_GET\000"
 18428      4E5F4D49 
 18428      465F4745 
 18428      5400
 18429              	.LASF189:
 18430 2dd8 4F535F46 		.ascii	"OS_FN_FILE_SET_LOCK\000"
 18430      4E5F4649 
 18430      4C455F53 
 18430      45545F4C 
 18430      4F434B00 
 18431              	.LASF259:
 18432 2dec 4F535F46 		.ascii	"OS_FN_FL_ERASE_START\000"
 18432      4E5F464C 
 18432      5F455241 
 18432      53455F53 
 18432      54415254 
 18433              	.LASF162:
 18434 2e01 4F535F46 		.ascii	"OS_FN_APP_INFO\000"
 18434      4E5F4150 
 18434      505F494E 
 18434      464F00
 18435              	.LASF649:
 18436 2e10 65525342 		.ascii	"eRSBMax\000"
 18436      4D617800 
 18437              	.LASF657:
 18438 2e18 64525342 		.ascii	"dRSBThresh\000"
 18438      54687265 
 18438      736800
 18439              	.LASF238:
 18440 2e23 4F535F46 		.ascii	"OS_FN_MSR_READ\000"
 18440      4E5F4D53 
 18440      525F5245 
 18440      414400
 18441              	.LASF383:
 18442 2e32 4F535F46 		.ascii	"OS_FN_MIF_WRITE\000"
 18442      4E5F4D49 
 18442      465F5752 
 18442      49544500 
 18443              	.LASF582:
 18444 2e42 61706E5F 		.ascii	"apn_username\000"
 18444      75736572 
 18444      6E616D65 
 18444      00
 18445              	.LASF26:
 18446 2e4f 4F535F46 		.ascii	"OS_FN_KBD_UNLOCK\000"
 18446      4E5F4B42 
 18446      445F554E 
 18446      4C4F434B 
 18446      00
 18447              	.LASF555:
 18448 2e60 41505049 		.ascii	"APPINFO_GETMW\000"
 18448      4E464F5F 
 18448      4745544D 
 18448      5700
 18449              	.LASF382:
 18450 2e6e 4F535F46 		.ascii	"OS_FN_MIF_READ\000"
ARM GAS  C:\Users\AHMED~1.ELE\AppData\Local\Temp\ccpjtoUe.s 			page 396


 18450      4E5F4D49 
 18450      465F5245 
 18450      414400
 18451              	.LASF427:
 18452 2e7d 4F535F46 		.ascii	"OS_FN_APPDL_WRITE_APP\000"
 18452      4E5F4150 
 18452      50444C5F 
 18452      57524954 
 18452      455F4150 
 18453              	.LASF196:
 18454 2e93 4F535F46 		.ascii	"OS_FN_FILE_MKDIR\000"
 18454      4E5F4649 
 18454      4C455F4D 
 18454      4B444952 
 18454      00
 18455              	.LASF157:
 18456 2ea4 4F535F46 		.ascii	"OS_FN_AUTH\000"
 18456      4E5F4155 
 18456      544800
 18457              	.LASF719:
 18458 2eaf 54595045 		.ascii	"TYPE_ASC\000"
 18458      5F415343 
 18458      00
 18459              	.LASF228:
 18460 2eb8 4F535F46 		.ascii	"OS_FN_LAN_CLOSE\000"
 18460      4E5F4C41 
 18460      4E5F434C 
 18460      4F534500 
 18461              	.LASF837:
 18462 2ec8 454D5649 		.ascii	"EMVInit\000"
 18462      6E697400 
 18463              	.LASF97:
 18464 2ed0 4F535F46 		.ascii	"OS_FN_SHA1\000"
 18464      4E5F5348 
 18464      413100
 18465              	.LASF722:
 18466 2edb 54595045 		.ascii	"TYPE_DDWORD\000"
 18466      5F444457 
 18466      4F524400 
 18467              	.LASF822:
 18468 2ee7 43726561 		.ascii	"CreateSTISFiles\000"
 18468      74655354 
 18468      49534669 
 18468      6C657300 
 18469              	.LASF215:
 18470 2ef7 4F535F46 		.ascii	"OS_FN_MMC_BLK_SIZE\000"
 18470      4E5F4D4D 
 18470      435F424C 
 18470      4B5F5349 
 18470      5A4500
 18471              	.LASF68:
 18472 2f0a 4F535F46 		.ascii	"OS_FN_COM2_RXRDY\000"
 18472      4E5F434F 
 18472      4D325F52 
 18472      58524459 
 18472      00
 18473              	.LASF439:
ARM GAS  C:\Users\AHMED~1.ELE\AppData\Local\Temp\ccpjtoUe.s 			page 397


 18474 2f1b 4F535F46 		.ascii	"OS_FN_GET_MCLK\000"
 18474      4E5F4745 
 18474      545F4D43 
 18474      4C4B00
 18475              	.LASF66:
 18476 2f2a 4F535F46 		.ascii	"OS_FN_COM2_OPEN\000"
 18476      4E5F434F 
 18476      4D325F4F 
 18476      50454E00 
 18477              	.LASF532:
 18478 2f3a 5343484E 		.ascii	"SCHNLSETUPMW\000"
 18478      4C534554 
 18478      55504D57 
 18478      00
 18479              	.LASF273:
 18480 2f47 4F535F46 		.ascii	"OS_FN_MDM_STATUS\000"
 18480      4E5F4D44 
 18480      4D5F5354 
 18480      41545553 
 18480      00
 18481              	.LASF15:
 18482 2f58 44574F52 		.ascii	"DWORD\000"
 18482      4400
 18483              	.LASF776:
 18484 2f5e 53544953 		.ascii	"STISLoadParam\000"
 18484      4C6F6164 
 18484      50617261 
 18484      6D00
 18485              	.LASF787:
 18486 2f6c 49737375 		.ascii	"IssuerTableParam\000"
 18486      65725461 
 18486      626C6550 
 18486      6172616D 
 18486      00
 18487              	.LASF834:
 18488 2f7d 454D5643 		.ascii	"EMVClrDnloadBuf\000"
 18488      6C72446E 
 18488      6C6F6164 
 18488      42756600 
 18489              	.LASF746:
 18490 2f8d 61506172 		.ascii	"aParam\000"
 18490      616D00
 18491              	.LASF323:
 18492 2f94 4F535F46 		.ascii	"OS_FN_CLICC_REMOVE\000"
 18492      4E5F434C 
 18492      4943435F 
 18492      52454D4F 
 18492      564500
 18493              	.LASF519:
 18494 2fa7 46534545 		.ascii	"FSEEKMW\000"
 18494      4B4D5700 
 18495              	.LASF257:
 18496 2faf 4F535F46 		.ascii	"OS_FN_FL_WRITE\000"
 18496      4E5F464C 
 18496      5F575249 
 18496      544500
 18497              	.LASF74:
ARM GAS  C:\Users\AHMED~1.ELE\AppData\Local\Temp\ccpjtoUe.s 			page 398


 18498 2fbe 4F535F46 		.ascii	"OS_FN_COM2_SSEND\000"
 18498      4E5F434F 
 18498      4D325F53 
 18498      53454E44 
 18498      00
 18499              	.LASF539:
 18500 2fcf 44495350 		.ascii	"DISP_GOTOMW\000"
 18500      5F474F54 
 18500      4F4D5700 
 18501              	.LASF220:
 18502 2fdb 4F535F46 		.ascii	"OS_FN_MMC_READ\000"
 18502      4E5F4D4D 
 18502      435F5245 
 18502      414400
 18503              	.LASF706:
 18504 2fea 6C617374 		.ascii	"last_child\000"
 18504      5F636869 
 18504      6C6400
 18505              	.LASF584:
 18506 2ff5 61706E32 		.ascii	"apn2_username\000"
 18506      5F757365 
 18506      726E616D 
 18506      6500
 18507              	.LASF271:
 18508 3003 4F535F46 		.ascii	"OS_FN_MDM_DISC\000"
 18508      4E5F4D44 
 18508      4D5F4449 
 18508      534300
 18509              	.LASF91:
 18510 3012 4F535F46 		.ascii	"OS_FN_NEW_DES2\000"
 18510      4E5F4E45 
 18510      575F4445 
 18510      533200
 18511              	.LASF832:
 18512 3021 73747263 		.ascii	"strcat\000"
 18512      617400
 18513              	.LASF725:
 18514 3028 62547970 		.ascii	"bType\000"
 18514      6500
 18515              	.LASF641:
 18516 302e 45787069 		.ascii	"ExpiryDate\000"
 18516      72794461 
 18516      746500
 18517              	.LASF3:
 18518 3039 73686F72 		.ascii	"short unsigned int\000"
 18518      7420756E 
 18518      7369676E 
 18518      65642069 
 18518      6E7400
 18519              	.LASF139:
 18520 304c 4F535F46 		.ascii	"OS_FN_THREAD_CREATE\000"
 18520      4E5F5448 
 18520      52454144 
 18520      5F435245 
 18520      41544500 
 18521              	.LASF500:
 18522 3060 55534246 		.ascii	"USBFPRT_GENERAL_INFO_IMG_HEIGHT\000"
ARM GAS  C:\Users\AHMED~1.ELE\AppData\Local\Temp\ccpjtoUe.s 			page 399


 18522      5052545F 
 18522      47454E45 
 18522      52414C5F 
 18522      494E464F 
 18523              	.LASF616:
 18524 3080 625F7072 		.ascii	"b_pri_settle_redial\000"
 18524      695F7365 
 18524      74746C65 
 18524      5F726564 
 18524      69616C00 
 18525              	.LASF359:
 18526 3094 4F535F46 		.ascii	"OS_FN_NETDEV_CLOSE\000"
 18526      4E5F4E45 
 18526      54444556 
 18526      5F434C4F 
 18526      534500
 18527              	.LASF473:
 18528 30a7 4F535F46 		.ascii	"OS_FN_IMG_SENSOR_OPEN\000"
 18528      4E5F494D 
 18528      475F5345 
 18528      4E534F52 
 18528      5F4F5045 
 18529              	.LASF64:
 18530 30bd 4F535F46 		.ascii	"OS_FN_COM1_SREAD\000"
 18530      4E5F434F 
 18530      4D315F53 
 18530      52454144 
 18530      00
 18531              	.LASF585:
 18532 30ce 61706E32 		.ascii	"apn2_password\000"
 18532      5F706173 
 18532      73776F72 
 18532      6400
 18533              	.LASF104:
 18534 30dc 4F535F46 		.ascii	"OS_FN_RC4_SETUP\000"
 18534      4E5F5243 
 18534      345F5345 
 18534      54555000 
 18535              	.LASF708:
 18536 30ec 75736572 		.ascii	"user_data\000"
 18536      5F646174 
 18536      6100
 18537              	.LASF637:
 18538 30f6 4B657953 		.ascii	"KeySize\000"
 18538      697A6500 
 18539              	.LASF92:
 18540 30fe 4F535F46 		.ascii	"OS_FN_RSA\000"
 18540      4E5F5253 
 18540      4100
 18541              	.LASF767:
 18542 3108 7465726D 		.ascii	"term_cfg\000"
 18542      5F636667 
 18542      00
 18543              	.LASF84:
 18544 3111 4F535F46 		.ascii	"OS_FN_DESKEY\000"
 18544      4E5F4445 
 18544      534B4559 
ARM GAS  C:\Users\AHMED~1.ELE\AppData\Local\Temp\ccpjtoUe.s 			page 400


 18544      00
 18545              	.LASF338:
 18546 311e 4F535F46 		.ascii	"OS_FN_USBHOST_RHPORT_STATUS\000"
 18546      4E5F5553 
 18546      42484F53 
 18546      545F5248 
 18546      504F5254 
 18547              	.LASF151:
 18548 313a 4F535F46 		.ascii	"OS_FN_LED_CLOSE\000"
 18548      4E5F4C45 
 18548      445F434C 
 18548      4F534500 
 18549              	.LASF590:
 18550 314a 775F6372 		.ascii	"w_crc\000"
 18550      6300
 18551              	.LASF352:
 18552 3150 4F535F46 		.ascii	"OS_FN_DEVICE_UNMOUNT\000"
 18552      4E5F4445 
 18552      56494345 
 18552      5F554E4D 
 18552      4F554E54 
 18553              	.LASF612:
 18554 3165 625F7365 		.ascii	"b_sec_trans_conn_time\000"
 18554      635F7472 
 18554      616E735F 
 18554      636F6E6E 
 18554      5F74696D 
 18555              	.LASF77:
 18556 317b 4F535F46 		.ascii	"OS_FN_COM3_RXRDY\000"
 18556      4E5F434F 
 18556      4D335F52 
 18556      58524459 
 18556      00
 18557              	.LASF393:
 18558 318c 4F535F46 		.ascii	"OS_FN_MIF_INFO_GET\000"
 18558      4E5F4D49 
 18558      465F494E 
 18558      464F5F47 
 18558      455400
 18559              	.LASF250:
 18560 319f 4F535F46 		.ascii	"OS_FN_USBSER_ENABLE\000"
 18560      4E5F5553 
 18560      42534552 
 18560      5F454E41 
 18560      424C4500 
 18561              	.LASF448:
 18562 31b3 4F535F46 		.ascii	"OS_FN_LPT_RESET_COUNT\000"
 18562      4E5F4C50 
 18562      545F5245 
 18562      5345545F 
 18562      434F554E 
 18563              	.LASF712:
 18564 31c9 53545F54 		.ascii	"ST_TERM_ACQ\000"
 18564      45524D5F 
 18564      41435100 
 18565              	.LASF670:
 18566 31d5 4D584D4C 		.ascii	"MXML_OPAQUE\000"
ARM GAS  C:\Users\AHMED~1.ELE\AppData\Local\Temp\ccpjtoUe.s 			page 401


 18566      5F4F5041 
 18566      51554500 
 18567              	.LASF715:
 18568 31e1 53545F45 		.ascii	"ST_EMV_APP\000"
 18568      4D565F41 
 18568      505000
 18569              	.LASF523:
 18570 31ec 46464C55 		.ascii	"FFLUSHMW\000"
 18570      53484D57 
 18570      00
 18571              	.LASF293:
 18572 31f5 4F535F46 		.ascii	"OS_FN_GPRS_STATUS\000"
 18572      4E5F4750 
 18572      52535F53 
 18572      54415455 
 18572      5300
 18573              	.LASF625:
 18574 3207 73625F63 		.ascii	"sb_curr_batch_no\000"
 18574      7572725F 
 18574      62617463 
 18574      685F6E6F 
 18574      00
 18575              	.LASF83:
 18576 3218 4F535F46 		.ascii	"OS_FN_COM3_SSEND\000"
 18576      4E5F434F 
 18576      4D335F53 
 18576      53454E44 
 18576      00
 18577              	.LASF703:
 18578 3229 70726576 		.ascii	"prev\000"
 18578      00
 18579              	.LASF666:
 18580 322e 6D786D6C 		.ascii	"mxml_type_e\000"
 18580      5F747970 
 18580      655F6500 
 18581              	.LASF411:
 18582 323a 4F535F46 		.ascii	"OS_FN_NFC_CLOSE\000"
 18582      4E5F4E46 
 18582      435F434C 
 18582      4F534500 
 18583              	.LASF17:
 18584 324a 4F535F46 		.ascii	"OS_FN_GET_VERSION\000"
 18584      4E5F4745 
 18584      545F5645 
 18584      5253494F 
 18584      4E00
 18585              	.LASF702:
 18586 325c 6E657874 		.ascii	"next\000"
 18586      00
 18587              	.LASF689:
 18588 3261 64617461 		.ascii	"data\000"
 18588      00
 18589              	.LASF291:
 18590 3266 4F535F46 		.ascii	"OS_FN_ADC_CH_READ\000"
 18590      4E5F4144 
 18590      435F4348 
 18590      5F524541 
ARM GAS  C:\Users\AHMED~1.ELE\AppData\Local\Temp\ccpjtoUe.s 			page 402


 18590      4400
 18591              	.LASF674:
 18592 3278 6D786D6C 		.ascii	"mxml_type_t\000"
 18592      5F747970 
 18592      655F7400 
 18593              	.LASF269:
 18594 3284 4F535F46 		.ascii	"OS_FN_MDM_CLOSE\000"
 18594      4E5F4D44 
 18594      4D5F434C 
 18594      4F534500 
 18595              	.LASF604:
 18596 3294 73625F66 		.ascii	"sb_floor_limit\000"
 18596      6C6F6F72 
 18596      5F6C696D 
 18596      697400
 18597              	.LASF536:
 18598 32a3 44495350 		.ascii	"DISP_PUTNMW\000"
 18598      5F505554 
 18598      4E4D5700 
 18599              	.LASF444:
 18600 32af 4F535F46 		.ascii	"OS_FN_DMK_INJECT\000"
 18600      4E5F444D 
 18600      4B5F494E 
 18600      4A454354 
 18600      00
 18601              	.LASF642:
 18602 32c0 45666665 		.ascii	"EffectDate\000"
 18602      63744461 
 18602      746500
 18603              	.LASF507:
 18604 32cb 52454144 		.ascii	"READMW\000"
 18604      4D5700
 18605              	.LASF32:
 18606 32d2 4F535F46 		.ascii	"OS_FN_BUZ_CLOSE\000"
 18606      4E5F4255 
 18606      5A5F434C 
 18606      4F534500 
 18607              	.LASF173:
 18608 32e2 4F535F46 		.ascii	"OS_FN_FILE_FLUSHED\000"
 18608      4E5F4649 
 18608      4C455F46 
 18608      4C555348 
 18608      454400
 18609              	.LASF752:
 18610 32f5 6E5F7369 		.ascii	"n_size\000"
 18610      7A6500
 18611              	.LASF47:
 18612 32fc 4F535F46 		.ascii	"OS_FN_DISP_GET_LCD_BUFFER\000"
 18612      4E5F4449 
 18612      53505F47 
 18612      45545F4C 
 18612      43445F42 
 18613              	.LASF322:
 18614 3316 4F535F46 		.ascii	"OS_FN_CLICC_POLL\000"
 18614      4E5F434C 
 18614      4943435F 
 18614      504F4C4C 
ARM GAS  C:\Users\AHMED~1.ELE\AppData\Local\Temp\ccpjtoUe.s 			page 403


 18614      00
 18615              	.LASF744:
 18616 3327 61506172 		.ascii	"aParamAddr\000"
 18616      616D4164 
 18616      647200
 18617              	.LASF622:
 18618 3332 73625F74 		.ascii	"sb_term_id\000"
 18618      65726D5F 
 18618      696400
 18619              	.LASF648:
 18620 333d 65525354 		.ascii	"eRSTarget\000"
 18620      61726765 
 18620      7400
 18621              	.LASF376:
 18622 3347 4F535F46 		.ascii	"OS_FN_MIF_STATUS\000"
 18622      4E5F4D49 
 18622      465F5354 
 18622      41545553 
 18622      00
 18623              	.LASF790:
 18624 3358 43746C41 		.ascii	"CtlAppParam\000"
 18624      70705061 
 18624      72616D00 
 18625              	.LASF728:
 18626 3364 735F6B65 		.ascii	"s_key_room\000"
 18626      795F726F 
 18626      6F6D00
 18627              	.LASF334:
 18628 336f 4F535F46 		.ascii	"OS_FN_USBHOST_SUBMIT_BUFFER\000"
 18628      4E5F5553 
 18628      42484F53 
 18628      545F5355 
 18628      424D4954 
 18629              	.LASF644:
 18630 338b 4B45595F 		.ascii	"KEY_ROOM\000"
 18630      524F4F4D 
 18630      00
 18631              	.LASF203:
 18632 3394 4F535F46 		.ascii	"OS_FN_CONFIG_WRITE\000"
 18632      4E5F434F 
 18632      4E464947 
 18632      5F575249 
 18632      544500
 18633              	.LASF335:
 18634 33a7 4F535F46 		.ascii	"OS_FN_USBHOST_UNLINK_BUFFER\000"
 18634      4E5F5553 
 18634      42484F53 
 18634      545F554E 
 18634      4C494E4B 
 18635              	.LASF573:
 18636 33c3 625F6465 		.ascii	"b_decimal_pos\000"
 18636      63696D61 
 18636      6C5F706F 
 18636      7300
 18637              		.ident	"GCC: (GNU Tools for ARM Embedded Processors) 4.9.3 20141119 (release) [ARM/embedded-4_9-br
ARM GAS  C:\Users\AHMED~1.ELE\AppData\Local\Temp\ccpjtoUe.s 			page 404


DEFINED SYMBOLS
                            *ABS*:00000000 param.c
C:\Users\AHMED~1.ELE\AppData\Local\Temp\ccpjtoUe.s:19     .text.CheckNodeName:00000000 $t
C:\Users\AHMED~1.ELE\AppData\Local\Temp\ccpjtoUe.s:24     .text.CheckNodeName:00000000 CheckNodeName
C:\Users\AHMED~1.ELE\AppData\Local\Temp\ccpjtoUe.s:99     .text.UpdateNodeParam:00000000 $t
C:\Users\AHMED~1.ELE\AppData\Local\Temp\ccpjtoUe.s:104    .text.UpdateNodeParam:00000000 UpdateNodeParam
C:\Users\AHMED~1.ELE\AppData\Local\Temp\ccpjtoUe.s:285    .text.UpdateParamEmvApp:00000000 $t
C:\Users\AHMED~1.ELE\AppData\Local\Temp\ccpjtoUe.s:290    .text.UpdateParamEmvApp:00000000 UpdateParamEmvApp
C:\Users\AHMED~1.ELE\AppData\Local\Temp\ccpjtoUe.s:472    .text.UpdateParamEmvApp:000000ec $d
C:\Users\AHMED~1.ELE\AppData\Local\Temp\ccpjtoUe.s:487    .text.UpdateParamCtlApp:00000000 $t
C:\Users\AHMED~1.ELE\AppData\Local\Temp\ccpjtoUe.s:492    .text.UpdateParamCtlApp:00000000 UpdateParamCtlApp
C:\Users\AHMED~1.ELE\AppData\Local\Temp\ccpjtoUe.s:674    .text.UpdateParamCtlApp:000000ec $d
C:\Users\AHMED~1.ELE\AppData\Local\Temp\ccpjtoUe.s:689    .text.UpdateParamEmvKey:00000000 $t
C:\Users\AHMED~1.ELE\AppData\Local\Temp\ccpjtoUe.s:694    .text.UpdateParamEmvKey:00000000 UpdateParamEmvKey
C:\Users\AHMED~1.ELE\AppData\Local\Temp\ccpjtoUe.s:871    .text.UpdateParamEmvKey:000000ec $d
C:\Users\AHMED~1.ELE\AppData\Local\Temp\ccpjtoUe.s:883    .text.ParseTermCfg:00000000 $t
C:\Users\AHMED~1.ELE\AppData\Local\Temp\ccpjtoUe.s:888    .text.ParseTermCfg:00000000 ParseTermCfg
C:\Users\AHMED~1.ELE\AppData\Local\Temp\ccpjtoUe.s:1014   .text.ParseTermCfg:0000009c $d
C:\Users\AHMED~1.ELE\AppData\Local\Temp\ccpjtoUe.s:1019   .text.ParseAcquirer:00000000 $t
C:\Users\AHMED~1.ELE\AppData\Local\Temp\ccpjtoUe.s:1024   .text.ParseAcquirer:00000000 ParseAcquirer
C:\Users\AHMED~1.ELE\AppData\Local\Temp\ccpjtoUe.s:1175   .text.ParseAcquirer:000000cc $d
C:\Users\AHMED~1.ELE\AppData\Local\Temp\ccpjtoUe.s:1180   .text.ParseIssuer:00000000 $t
C:\Users\AHMED~1.ELE\AppData\Local\Temp\ccpjtoUe.s:1185   .text.ParseIssuer:00000000 ParseIssuer
C:\Users\AHMED~1.ELE\AppData\Local\Temp\ccpjtoUe.s:1312   .text.ParseIssuer:0000009c $d
C:\Users\AHMED~1.ELE\AppData\Local\Temp\ccpjtoUe.s:1317   .text.ParseCard:00000000 $t
C:\Users\AHMED~1.ELE\AppData\Local\Temp\ccpjtoUe.s:1322   .text.ParseCard:00000000 ParseCard
C:\Users\AHMED~1.ELE\AppData\Local\Temp\ccpjtoUe.s:1452   .text.ParseCard:000000a0 $d
C:\Users\AHMED~1.ELE\AppData\Local\Temp\ccpjtoUe.s:1458   .text.ParseEmvApp:00000000 $t
C:\Users\AHMED~1.ELE\AppData\Local\Temp\ccpjtoUe.s:1463   .text.ParseEmvApp:00000000 ParseEmvApp
C:\Users\AHMED~1.ELE\AppData\Local\Temp\ccpjtoUe.s:1581   .text.ParseEmvApp:0000008c $d
C:\Users\AHMED~1.ELE\AppData\Local\Temp\ccpjtoUe.s:1586   .text.ParseCtlApp:00000000 $t
C:\Users\AHMED~1.ELE\AppData\Local\Temp\ccpjtoUe.s:1591   .text.ParseCtlApp:00000000 ParseCtlApp
C:\Users\AHMED~1.ELE\AppData\Local\Temp\ccpjtoUe.s:1709   .text.ParseCtlApp:0000008c $d
C:\Users\AHMED~1.ELE\AppData\Local\Temp\ccpjtoUe.s:1714   .text.ParseEmvKey:00000000 $t
C:\Users\AHMED~1.ELE\AppData\Local\Temp\ccpjtoUe.s:1719   .text.ParseEmvKey:00000000 ParseEmvKey
C:\Users\AHMED~1.ELE\AppData\Local\Temp\ccpjtoUe.s:1876   .text.ParseEmvKey:000000c4 $d
C:\Users\AHMED~1.ELE\AppData\Local\Temp\ccpjtoUe.s:1881   .text.SetAPNConfig:00000000 $t
C:\Users\AHMED~1.ELE\AppData\Local\Temp\ccpjtoUe.s:1886   .text.SetAPNConfig:00000000 SetAPNConfig
C:\Users\AHMED~1.ELE\AppData\Local\Temp\ccpjtoUe.s:2347   .text.SetAPNConfig:000002fc $d
C:\Users\AHMED~1.ELE\AppData\Local\Temp\ccpjtoUe.s:2361   .text.SetAPNConfig:00000324 $t
C:\Users\AHMED~1.ELE\AppData\Local\Temp\ccpjtoUe.s:2491   .text.SetAPNConfig:000003fc $d
C:\Users\AHMED~1.ELE\AppData\Local\Temp\ccpjtoUe.s:2496   .text.XmlStringToCfg:00000000 $t
C:\Users\AHMED~1.ELE\AppData\Local\Temp\ccpjtoUe.s:2501   .text.XmlStringToCfg:00000000 XmlStringToCfg
C:\Users\AHMED~1.ELE\AppData\Local\Temp\ccpjtoUe.s:2559   .text.XmlStringToCfg:00000040 $d
C:\Users\AHMED~1.ELE\AppData\Local\Temp\ccpjtoUe.s:2567   .text.XmlStringToCfg:00000048 $t
C:\Users\AHMED~1.ELE\AppData\Local\Temp\ccpjtoUe.s:2953   .text.XmlStringToCfg:00000268 $d
C:\Users\AHMED~1.ELE\AppData\Local\Temp\ccpjtoUe.s:2968   .text.STISLoadParam:00000000 $t
C:\Users\AHMED~1.ELE\AppData\Local\Temp\ccpjtoUe.s:2973   .text.STISLoadParam:00000000 STISLoadParam
C:\Users\AHMED~1.ELE\AppData\Local\Temp\ccpjtoUe.s:3201   .text.STISLoadParam:0000011c $d
C:\Users\AHMED~1.ELE\AppData\Local\Temp\ccpjtoUe.s:3612   .rodata:000002f0 EmvKeyParam
C:\Users\AHMED~1.ELE\AppData\Local\Temp\ccpjtoUe.s:3569   .rodata:000002a0 CtlAppParam
C:\Users\AHMED~1.ELE\AppData\Local\Temp\ccpjtoUe.s:3526   .rodata:00000250 EmvAppParam
C:\Users\AHMED~1.ELE\AppData\Local\Temp\ccpjtoUe.s:3495   .rodata:00000218 CardTableParam
C:\Users\AHMED~1.ELE\AppData\Local\Temp\ccpjtoUe.s:3456   .rodata:000001d0 IssuerTableParam
C:\Users\AHMED~1.ELE\AppData\Local\Temp\ccpjtoUe.s:3345   .rodata:000000f8 AcqTableParam
C:\Users\AHMED~1.ELE\AppData\Local\Temp\ccpjtoUe.s:3218   .rodata:00000000 TermCfgParam
C:\Users\AHMED~1.ELE\AppData\Local\Temp\ccpjtoUe.s:3214   .rodata:00000000 $d
ARM GAS  C:\Users\AHMED~1.ELE\AppData\Local\Temp\ccpjtoUe.s 			page 405


C:\Users\AHMED~1.ELE\AppData\Local\Temp\ccpjtoUe.s:3888   .bss:00000000 gCardIdx
C:\Users\AHMED~1.ELE\AppData\Local\Temp\ccpjtoUe.s:3889   .bss:00000000 $d
                     .debug_frame:00000010 $d

UNDEFINED SYMBOLS
strcmp
strlen
memset
memcpy
atoi
compress
hex_value
decbin8b
sys_func1
mxmlWalkNext
mxmlGetText
UpdTermCfg
UpdAcqTbl
UpdIssuerTbl
UpdCardTbl
SetEMVLoaded
EMVData2DnloadBuf
SetCTLLoaded
CTLData2DnloadBuf
GetTermCfg
lib_app_call
sys_func0
sprintf
ToggleOption
strcpy
KSimSel
SetGPRSInfo
mxmlLoadString
mxmlFindElement
CloseSTISFiles
CreateSTISFiles
SetSTISMode
WaitKey
mxmlDelete
GetAcqCount
GetIssuerCount
GetCardCount
sys_func2
memcmp
strcat
sys_func3
EMVClrDnloadBuf
CTLClrDnloadBuf
EMVDataUpdate
EMVInit
EMVKillDnloadBuf
CTLDataUpdate
CTLKillDnloadBuf
