ARM GAS  C:\Users\AHMED~1.ELE\AppData\Local\Temp\ccES0SXN.s 			page 1


   1              		.syntax unified
   2              		.cpu cortex-a5
   3              		.fpu softvfp
   4              		.eabi_attribute 20, 1
   5              		.eabi_attribute 21, 1
   6              		.eabi_attribute 23, 3
   7              		.eabi_attribute 24, 1
   8              		.eabi_attribute 25, 1
   9              		.eabi_attribute 26, 1
  10              		.eabi_attribute 30, 4
  11              		.eabi_attribute 34, 0
  12              		.eabi_attribute 18, 4
  13              		.thumb
  14              		.file	"pkcs.c"
  15              		.text
  16              	.Ltext0:
  17              		.cfi_sections	.debug_frame
  18              		.section	.text.getASNLength,"ax",%progbits
  19              		.align	1
  20              		.global	getASNLength
  21              		.thumb
  22              		.thumb_func
  23              		.type	getASNLength, %function
  24              	getASNLength:
  25              	.LFB0:
  26              		.file 1 "src/pkcs.c"
   1:src/pkcs.c    **** //***************************************
   2:src/pkcs.c    **** // Generate RSAPrivateKey C header
   3:src/pkcs.c    **** // by Harris Lee, 15 Sep 2011
   4:src/pkcs.c    **** // Last update : 20 Dec 2011 
   5:src/pkcs.c    **** //***************************************
   6:src/pkcs.c    **** 
   7:src/pkcs.c    **** #include <stdio.h>
   8:src/pkcs.c    **** #include <string.h>
   9:src/pkcs.c    **** #include "pkcs.h"
  10:src/pkcs.c    **** 
  11:src/pkcs.c    **** #define ASN_PRIMITIVE        0x00
  12:src/pkcs.c    **** #define ASN_CONSTRUCTED      0x20
  13:src/pkcs.c    **** 
  14:src/pkcs.c    **** #define ASN_UNIVERSAL        0x00
  15:src/pkcs.c    **** #define ASN_APPLICATION      0x40
  16:src/pkcs.c    **** #define ASN_CONTEXT_SPECIFIC 0x80
  17:src/pkcs.c    **** #define ASN_PRIVATE          0xC0
  18:src/pkcs.c    **** 
  19:src/pkcs.c    **** #define ASN_BOOLEAN          1
  20:src/pkcs.c    **** #define ASN_INTEGER          2
  21:src/pkcs.c    **** #define ASN_BIT_STRING       3
  22:src/pkcs.c    **** #define ASN_OCTET_STRING     4
  23:src/pkcs.c    **** #define ASN_NULL             5
  24:src/pkcs.c    **** #define ASN_OID              6
  25:src/pkcs.c    **** #define ASN_UTF8STRING       12
  26:src/pkcs.c    **** #define ASN_SEQUENCE         16
  27:src/pkcs.c    **** #define ASN_SET              17
  28:src/pkcs.c    **** #define ASN_PRINTABLESTRING  19
  29:src/pkcs.c    **** #define ASN_T61STRING        20
  30:src/pkcs.c    **** #define ASN_IA5STRING        22
  31:src/pkcs.c    **** #define ASN_UTCTIME          23
ARM GAS  C:\Users\AHMED~1.ELE\AppData\Local\Temp\ccES0SXN.s 			page 2


  32:src/pkcs.c    **** #define ASN_GENERALIZEDTIME  24
  33:src/pkcs.c    **** 
  34:src/pkcs.c    **** #define ATTRIB_COUNTRY_NAME    6
  35:src/pkcs.c    **** #define ATTRIB_LOCALITY        7
  36:src/pkcs.c    **** #define ATTRIB_ORGANIZATION   10
  37:src/pkcs.c    **** #define ATTRIB_ORG_UNIT       11
  38:src/pkcs.c    **** #define ATTRIB_DN_QUALIFIER   46
  39:src/pkcs.c    **** #define ATTRIB_STATE_PROVINCE  8
  40:src/pkcs.c    **** #define ATTRIB_COMMON_NAME     3
  41:src/pkcs.c    **** 
  42:src/pkcs.c    **** #define IMPLICIT_ISSUER_ID      1
  43:src/pkcs.c    **** #define IMPLICIT_SUBJECT_ID     2
  44:src/pkcs.c    **** #define EXPLICIT_EXTENSION      3
  45:src/pkcs.c    **** 
  46:src/pkcs.c    **** #define EXT_CERT_POLICIES       146
  47:src/pkcs.c    **** #define EXT_BASIC_CONSTRAINTS   133
  48:src/pkcs.c    **** #define EXT_AUTH_KEY_ID         149
  49:src/pkcs.c    **** #define EXT_KEY_USAGE           129
  50:src/pkcs.c    **** #define EXT_ALT_SUBJECT_NAME    131
  51:src/pkcs.c    **** #define EXT_ALT_ISSUER_NAME     132
  52:src/pkcs.c    **** #define EXT_SUBJ_KEY_ID         128
  53:src/pkcs.c    **** 
  54:src/pkcs.c    **** 
  55:src/pkcs.c    **** int getASNLength(BYTE **p, DWORD size, int *valLen) {
  27              		.loc 1 55 0
  28              		.cfi_startproc
  29              		@ args = 0, pretend = 0, frame = 0
  30              		@ frame_needed = 0, uses_anonymous_args = 0
  31              	.LVL0:
  56:src/pkcs.c    ****   BYTE  *c, *end; // , value;
  57:src/pkcs.c    ****   int len, olen;
  58:src/pkcs.c    **** 
  59:src/pkcs.c    ****   c = *p;
  60:src/pkcs.c    ****   end = c + size;
  61:src/pkcs.c    ****   if (end - c < 1)
  32              		.loc 1 61 0
  33 0000 0029     		cmp	r1, #0
  55:src/pkcs.c    ****   BYTE  *c, *end; // , value;
  34              		.loc 1 55 0
  35 0002 F0B5     		push	{r4, r5, r6, r7, lr}
  36              		.cfi_def_cfa_offset 20
  37              		.cfi_offset 4, -20
  38              		.cfi_offset 5, -16
  39              		.cfi_offset 6, -12
  40              		.cfi_offset 7, -8
  41              		.cfi_offset 14, -4
  59:src/pkcs.c    ****   end = c + size;
  42              		.loc 1 59 0
  43 0004 0668     		ldr	r6, [r0]
  44              	.LVL1:
  45              		.loc 1 61 0
  46 0006 26DD     		ble	.L10
  62:src/pkcs.c    ****     return 0;
  63:src/pkcs.c    **** 
  64:src/pkcs.c    ****   /*
  65:src/pkcs.c    ****     If the length byte has high bit only set, it's an indefinite length
  66:src/pkcs.c    ****     We don't support this!
ARM GAS  C:\Users\AHMED~1.ELE\AppData\Local\Temp\ccES0SXN.s 			page 3


  67:src/pkcs.c    ****   */
  68:src/pkcs.c    ****   if (*c == 0x80) {
  47              		.loc 1 68 0
  48 0008 3778     		ldrb	r7, [r6]	@ zero_extendqisi2
  49 000a 802F     		cmp	r7, #128
  50 000c 03D1     		bne	.L3
  69:src/pkcs.c    ****     *valLen = -1;
  51              		.loc 1 69 0
  52 000e 4FF0FF33 		mov	r3, #-1
  53 0012 1360     		str	r3, [r2]
  54 0014 1FE0     		b	.L10
  55              	.L3:
  70:src/pkcs.c    ****     return 0;
  71:src/pkcs.c    ****   }
  72:src/pkcs.c    ****   /*
  73:src/pkcs.c    ****     If the high bit is set, the lower 7 bits represent the number of 
  74:src/pkcs.c    ****     bytes that follow and represent length
  75:src/pkcs.c    ****     If the high bit is not set, the lower 7 represent the actual length
  76:src/pkcs.c    ****   */
  77:src/pkcs.c    ****   len = *c & 0x7F;
  56              		.loc 1 77 0
  57 0016 07F07F05 		and	r5, r7, #127
  78:src/pkcs.c    ****   if ((*(c++) & 0x80) != 0) {
  58              		.loc 1 78 0
  59 001a 3F06     		lsls	r7, r7, #24
  77:src/pkcs.c    ****   if ((*(c++) & 0x80) != 0) {
  60              		.loc 1 77 0
  61 001c 2B46     		mov	r3, r5
  62              	.LVL2:
  63              		.loc 1 78 0
  64 001e 06F10104 		add	r4, r6, #1
  65              	.LVL3:
  66 0022 13D5     		bpl	.L4
  79:src/pkcs.c    ****     /*
  80:src/pkcs.c    ****       Make sure there aren't more than 4 bytes of length specifier,
  81:src/pkcs.c    ****       and that we have that many bytes left in the buffer
  82:src/pkcs.c    ****     */
  83:src/pkcs.c    ****     if (len > 4 || len == 0x7f || (end - c) < len) { 
  67              		.loc 1 83 0
  68 0024 042D     		cmp	r5, #4
  69 0026 16D8     		bhi	.L10
  60:src/pkcs.c    ****   if (end - c < 1)
  70              		.loc 1 60 0 discriminator 1
  71 0028 3144     		add	r1, r1, r6
  72              	.LVL4:
  73              		.loc 1 83 0 discriminator 1
  74 002a 091B     		subs	r1, r1, r4
  75 002c A942     		cmp	r1, r5
  76 002e 12DB     		blt	.L10
  77 0030 2646     		mov	r6, r4
  78              		.loc 1 83 0 is_stmt 0
  79 0032 0021     		movs	r1, #0
  80              	.LVL5:
  81              	.L5:
  84:src/pkcs.c    ****       return 0;
  85:src/pkcs.c    ****     }
  86:src/pkcs.c    **** 
ARM GAS  C:\Users\AHMED~1.ELE\AppData\Local\Temp\ccES0SXN.s 			page 4


  87:src/pkcs.c    ****     olen = 0;
  88:src/pkcs.c    ****     while (len > 0) {
  82              		.loc 1 88 0 is_stmt 1
  83 0034 2BB1     		cbz	r3, .L12
  89:src/pkcs.c    ****       olen = (olen << 8) | *c;
  84              		.loc 1 89 0
  85 0036 16F8017B 		ldrb	r7, [r6], #1	@ zero_extendqisi2
  86              	.LVL6:
  90:src/pkcs.c    ****       c++; len--;
  87              		.loc 1 90 0
  88 003a 013B     		subs	r3, r3, #1
  89              	.LVL7:
  89:src/pkcs.c    ****       olen = (olen << 8) | *c;
  90              		.loc 1 89 0
  91 003c 47EA0121 		orr	r1, r7, r1, lsl #8
  92              	.LVL8:
  93 0040 F8E7     		b	.L5
  94              	.L12:
  91:src/pkcs.c    ****     }
  92:src/pkcs.c    ****     if (olen < 0 || olen > 0x7FFFFF) {
  95              		.loc 1 92 0
  96 0042 B1F5000F 		cmp	r1, #8388608
  97 0046 0B46     		mov	r3, r1
  98              	.LVL9:
  99 0048 2C44     		add	r4, r4, r5
 100 004a 04D2     		bcs	.L10
 101              	.LVL10:
 102              	.L4:
  93:src/pkcs.c    ****       return 0;
  94:src/pkcs.c    ****     }
  95:src/pkcs.c    ****     len = olen;
  96:src/pkcs.c    ****   }
  97:src/pkcs.c    **** 
  98:src/pkcs.c    ****   *p = c;
 103              		.loc 1 98 0
 104 004c 0460     		str	r4, [r0]
  99:src/pkcs.c    ****   *valLen = len;
 105              		.loc 1 99 0
 106 004e 1360     		str	r3, [r2]
 100:src/pkcs.c    ****   return -1;
 107              		.loc 1 100 0
 108 0050 4FF0FF30 		mov	r0, #-1
 109              	.LVL11:
 110 0054 F0BD     		pop	{r4, r5, r6, r7, pc}
 111              	.LVL12:
 112              	.L10:
  62:src/pkcs.c    **** 
 113              		.loc 1 62 0
 114 0056 0020     		movs	r0, #0
 115              	.LVL13:
 101:src/pkcs.c    **** }
 116              		.loc 1 101 0
 117 0058 F0BD     		pop	{r4, r5, r6, r7, pc}
 118              		.cfi_endproc
 119              	.LFE0:
 120              		.size	getASNLength, .-getASNLength
 121              		.section	.text.getSequence,"ax",%progbits
ARM GAS  C:\Users\AHMED~1.ELE\AppData\Local\Temp\ccES0SXN.s 			page 5


 122              		.align	1
 123              		.global	getSequence
 124              		.thumb
 125              		.thumb_func
 126              		.type	getSequence, %function
 127              	getSequence:
 128              	.LFB1:
 102:src/pkcs.c    **** 
 103:src/pkcs.c    **** /* getSequence -- Find Sequence Object From Buffer
 104:src/pkcs.c    ****  * pp     - Pointer to Buffer
 105:src/pkcs.c    ****  * len    - Size of Buffer
 106:src/pkcs.c    ****  * seqlen - Return the Length of Sequence Object
 107:src/pkcs.c    ****  */
 108:src/pkcs.c    **** int getSequence(BYTE **pp, DWORD len, int *seqlen) {
 129              		.loc 1 108 0
 130              		.cfi_startproc
 131              		@ args = 0, pretend = 0, frame = 8
 132              		@ frame_needed = 0, uses_anonymous_args = 0
 133              	.LVL14:
 134 0000 73B5     		push	{r0, r1, r4, r5, r6, lr}
 135              		.cfi_def_cfa_offset 24
 136              		.cfi_offset 4, -16
 137              		.cfi_offset 5, -12
 138              		.cfi_offset 6, -8
 139              		.cfi_offset 14, -4
 109:src/pkcs.c    ****   BYTE *p = *pp;
 140              		.loc 1 109 0
 141 0002 0368     		ldr	r3, [r0]
 108:src/pkcs.c    ****   BYTE *p = *pp;
 142              		.loc 1 108 0
 143 0004 0546     		mov	r5, r0
 144 0006 1646     		mov	r6, r2
 110:src/pkcs.c    **** 
 111:src/pkcs.c    ****   if (len < 1 || *(p++) != (ASN_SEQUENCE | ASN_CONSTRUCTED) || 
 145              		.loc 1 111 0
 146 0008 0C46     		mov	r4, r1
 147 000a 09B9     		cbnz	r1, .L14
 148              	.LVL15:
 149              	.L16:
 112:src/pkcs.c    ****       getASNLength(&p, len - 1, seqlen) == 0 || len < *seqlen) {
 113:src/pkcs.c    ****     return 0;
 150              		.loc 1 113 0
 151 000c 0020     		movs	r0, #0
 152 000e 11E0     		b	.L15
 153              	.LVL16:
 154              	.L14:
 111:src/pkcs.c    ****       getASNLength(&p, len - 1, seqlen) == 0 || len < *seqlen) {
 155              		.loc 1 111 0 discriminator 1
 156 0010 591C     		adds	r1, r3, #1
 157              	.LVL17:
 158 0012 0191     		str	r1, [sp, #4]
 159 0014 1B78     		ldrb	r3, [r3]	@ zero_extendqisi2
 160 0016 302B     		cmp	r3, #48
 161 0018 F8D1     		bne	.L16
 112:src/pkcs.c    ****       getASNLength(&p, len - 1, seqlen) == 0 || len < *seqlen) {
 162              		.loc 1 112 0 discriminator 2
 163 001a 01A8     		add	r0, sp, #4
ARM GAS  C:\Users\AHMED~1.ELE\AppData\Local\Temp\ccES0SXN.s 			page 6


 164              	.LVL18:
 165 001c 611E     		subs	r1, r4, #1
 166 001e FFF7FEFF 		bl	getASNLength
 167              	.LVL19:
 111:src/pkcs.c    ****       getASNLength(&p, len - 1, seqlen) == 0 || len < *seqlen) {
 168              		.loc 1 111 0 discriminator 2
 169 0022 0028     		cmp	r0, #0
 170 0024 F2D0     		beq	.L16
 112:src/pkcs.c    ****       getASNLength(&p, len - 1, seqlen) == 0 || len < *seqlen) {
 171              		.loc 1 112 0
 172 0026 3368     		ldr	r3, [r6]
 173 0028 9C42     		cmp	r4, r3
 174 002a EFD3     		bcc	.L16
 114:src/pkcs.c    ****   }
 115:src/pkcs.c    **** 
 116:src/pkcs.c    ****   *pp = p;
 175              		.loc 1 116 0
 176 002c 019B     		ldr	r3, [sp, #4]
 117:src/pkcs.c    ****   return -1;
 177              		.loc 1 117 0
 178 002e 4FF0FF30 		mov	r0, #-1
 116:src/pkcs.c    ****   return -1;
 179              		.loc 1 116 0
 180 0032 2B60     		str	r3, [r5]
 181              	.L15:
 118:src/pkcs.c    **** }
 182              		.loc 1 118 0
 183 0034 02B0     		add	sp, sp, #8
 184              		.cfi_def_cfa_offset 16
 185              		@ sp needed
 186 0036 70BD     		pop	{r4, r5, r6, pc}
 187              		.cfi_endproc
 188              	.LFE1:
 189              		.size	getSequence, .-getSequence
 190              		.section	.text.getVersionNum,"ax",%progbits
 191              		.align	1
 192              		.global	getVersionNum
 193              		.thumb
 194              		.thumb_func
 195              		.type	getVersionNum, %function
 196              	getVersionNum:
 197              	.LFB2:
 119:src/pkcs.c    **** 
 120:src/pkcs.c    **** int getVersionNum(BYTE **pp, int len)
 121:src/pkcs.c    **** {
 198              		.loc 1 121 0
 199              		.cfi_startproc
 200              		@ args = 0, pretend = 0, frame = 8
 201              		@ frame_needed = 0, uses_anonymous_args = 0
 202              	.LVL20:
 203 0000 13B5     		push	{r0, r1, r4, lr}
 204              		.cfi_def_cfa_offset 16
 205              		.cfi_offset 4, -8
 206              		.cfi_offset 14, -4
 122:src/pkcs.c    ****   BYTE *p = *pp;
 123:src/pkcs.c    ****   int  vlen;
 124:src/pkcs.c    ****   
ARM GAS  C:\Users\AHMED~1.ELE\AppData\Local\Temp\ccES0SXN.s 			page 7


 125:src/pkcs.c    ****   if (len < 1 || *(p++) != ASN_INTEGER ||
 207              		.loc 1 125 0
 208 0002 0029     		cmp	r1, #0
 121:src/pkcs.c    ****   BYTE *p = *pp;
 209              		.loc 1 121 0
 210 0004 0446     		mov	r4, r0
 122:src/pkcs.c    ****   BYTE *p = *pp;
 211              		.loc 1 122 0
 212 0006 0368     		ldr	r3, [r0]
 213              		.loc 1 125 0
 214 0008 01DC     		bgt	.L21
 215              	.LVL21:
 216              	.L23:
 126:src/pkcs.c    ****       getASNLength(&p, len - 1, &vlen) == 0) {
 127:src/pkcs.c    ****     return 0;
 217              		.loc 1 127 0
 218 000a 0020     		movs	r0, #0
 219 000c 11E0     		b	.L22
 220              	.LVL22:
 221              	.L21:
 125:src/pkcs.c    ****       getASNLength(&p, len - 1, &vlen) == 0) {
 222              		.loc 1 125 0 discriminator 1
 223 000e 5A1C     		adds	r2, r3, #1
 224 0010 0092     		str	r2, [sp]
 225 0012 1B78     		ldrb	r3, [r3]	@ zero_extendqisi2
 226 0014 022B     		cmp	r3, #2
 227 0016 F8D1     		bne	.L23
 126:src/pkcs.c    ****       getASNLength(&p, len - 1, &vlen) == 0) {
 228              		.loc 1 126 0 discriminator 2
 229 0018 6846     		mov	r0, sp
 230              	.LVL23:
 231 001a 0139     		subs	r1, r1, #1
 232              	.LVL24:
 233 001c 01AA     		add	r2, sp, #4
 234 001e FFF7FEFF 		bl	getASNLength
 235              	.LVL25:
 125:src/pkcs.c    ****       getASNLength(&p, len - 1, &vlen) == 0) {
 236              		.loc 1 125 0 discriminator 2
 237 0022 0028     		cmp	r0, #0
 238 0024 F1D0     		beq	.L23
 239              	.LVL26:
 128:src/pkcs.c    ****   }
 129:src/pkcs.c    **** 
 130:src/pkcs.c    ****   p += vlen;
 240              		.loc 1 130 0
 241 0026 9DE80C00 		ldmia	sp, {r2, r3}
 131:src/pkcs.c    ****   *pp = p;
 132:src/pkcs.c    ****   return -1;
 242              		.loc 1 132 0
 243 002a 4FF0FF30 		mov	r0, #-1
 130:src/pkcs.c    ****   *pp = p;
 244              		.loc 1 130 0
 245 002e 1344     		add	r3, r3, r2
 246              	.LVL27:
 131:src/pkcs.c    ****   *pp = p;
 247              		.loc 1 131 0
 248 0030 2360     		str	r3, [r4]
ARM GAS  C:\Users\AHMED~1.ELE\AppData\Local\Temp\ccES0SXN.s 			page 8


 249              	.LVL28:
 250              	.L22:
 133:src/pkcs.c    **** }
 251              		.loc 1 133 0
 252 0032 02B0     		add	sp, sp, #8
 253              		.cfi_def_cfa_offset 8
 254              		@ sp needed
 255 0034 10BD     		pop	{r4, pc}
 256              		.cfi_endproc
 257              	.LFE2:
 258              		.size	getVersionNum, .-getVersionNum
 259              		.section	.text.getBig,"ax",%progbits
 260              		.align	1
 261              		.global	getBig
 262              		.thumb
 263              		.thumb_func
 264              		.type	getBig, %function
 265              	getBig:
 266              	.LFB3:
 134:src/pkcs.c    **** 
 135:src/pkcs.c    **** int getBig(BYTE **pp, int len, BYTE *big, DWORD *keylen, unsigned int keylen_hdr, BYTE fillzero)
 136:src/pkcs.c    **** {
 267              		.loc 1 136 0
 268              		.cfi_startproc
 269              		@ args = 8, pretend = 0, frame = 8
 270              		@ frame_needed = 0, uses_anonymous_args = 0
 271              	.LVL29:
 272 0000 2DE9F743 		push	{r0, r1, r2, r4, r5, r6, r7, r8, r9, lr}
 273              		.cfi_def_cfa_offset 40
 274              		.cfi_offset 4, -28
 275              		.cfi_offset 5, -24
 276              		.cfi_offset 6, -20
 277              		.cfi_offset 7, -16
 278              		.cfi_offset 8, -12
 279              		.cfi_offset 9, -8
 280              		.cfi_offset 14, -4
 137:src/pkcs.c    ****   BYTE *p = *pp;
 138:src/pkcs.c    ****   int   vlen;
 139:src/pkcs.c    **** 
 140:src/pkcs.c    ****   if (len < 1 || *(p++) != ASN_INTEGER ||
 281              		.loc 1 140 0
 282 0004 0029     		cmp	r1, #0
 136:src/pkcs.c    ****   BYTE *p = *pp;
 283              		.loc 1 136 0
 284 0006 9846     		mov	r8, r3
 285 0008 0746     		mov	r7, r0
 286 000a 1646     		mov	r6, r2
 287 000c 9DF82C90 		ldrb	r9, [sp, #44]	@ zero_extendqisi2
 137:src/pkcs.c    ****   BYTE *p = *pp;
 288              		.loc 1 137 0
 289 0010 0368     		ldr	r3, [r0]
 290              	.LVL30:
 291              		.loc 1 140 0
 292 0012 01DC     		bgt	.L28
 293              	.LVL31:
 294              	.L30:
 141:src/pkcs.c    ****       getASNLength(&p, len - 1, &vlen) == 0) {
ARM GAS  C:\Users\AHMED~1.ELE\AppData\Local\Temp\ccES0SXN.s 			page 9


 142:src/pkcs.c    ****     return 0;
 295              		.loc 1 142 0
 296 0014 0020     		movs	r0, #0
 297 0016 38E0     		b	.L29
 298              	.LVL32:
 299              	.L28:
 140:src/pkcs.c    ****       getASNLength(&p, len - 1, &vlen) == 0) {
 300              		.loc 1 140 0 discriminator 1
 301 0018 5A1C     		adds	r2, r3, #1
 302              	.LVL33:
 303 001a 0092     		str	r2, [sp]
 304 001c 1B78     		ldrb	r3, [r3]	@ zero_extendqisi2
 305 001e 022B     		cmp	r3, #2
 306 0020 F8D1     		bne	.L30
 141:src/pkcs.c    ****       getASNLength(&p, len - 1, &vlen) == 0) {
 307              		.loc 1 141 0 discriminator 2
 308 0022 6846     		mov	r0, sp
 309              	.LVL34:
 310 0024 0139     		subs	r1, r1, #1
 311              	.LVL35:
 312 0026 01AA     		add	r2, sp, #4
 313 0028 FFF7FEFF 		bl	getASNLength
 314              	.LVL36:
 140:src/pkcs.c    ****       getASNLength(&p, len - 1, &vlen) == 0) {
 315              		.loc 1 140 0 discriminator 2
 316 002c 0028     		cmp	r0, #0
 317 002e F1D0     		beq	.L30
 143:src/pkcs.c    ****   }
 144:src/pkcs.c    **** 
 145:src/pkcs.c    ****   if (*p == 0) {
 318              		.loc 1 145 0
 319 0030 009B     		ldr	r3, [sp]
 320 0032 1A78     		ldrb	r2, [r3]	@ zero_extendqisi2
 321 0034 22B9     		cbnz	r2, .L31
 146:src/pkcs.c    ****     p++; vlen--;
 322              		.loc 1 146 0
 323 0036 0133     		adds	r3, r3, #1
 324 0038 0093     		str	r3, [sp]
 325 003a 019B     		ldr	r3, [sp, #4]
 326 003c 013B     		subs	r3, r3, #1
 327 003e 0193     		str	r3, [sp, #4]
 328              	.L31:
 147:src/pkcs.c    ****   }
 148:src/pkcs.c    **** 
 149:src/pkcs.c    ****   if (vlen > *keylen)
 329              		.loc 1 149 0
 330 0040 019C     		ldr	r4, [sp, #4]
 331 0042 D8F80030 		ldr	r3, [r8]
 332 0046 9C42     		cmp	r4, r3
 333 0048 E4D8     		bhi	.L30
 334 004a 0A9D     		ldr	r5, [sp, #40]
 150:src/pkcs.c    ****     return 0;  
 151:src/pkcs.c    **** 
 152:src/pkcs.c    ****   if (fillzero == FILL_PRE_ZERO) {
 153:src/pkcs.c    ****     memset(big, 0, (keylen_hdr -vlen));
 335              		.loc 1 153 0
 336 004c 3046     		mov	r0, r6
ARM GAS  C:\Users\AHMED~1.ELE\AppData\Local\Temp\ccES0SXN.s 			page 10


 337 004e 2D1B     		subs	r5, r5, r4
 152:src/pkcs.c    ****     memset(big, 0, (keylen_hdr -vlen));
 338              		.loc 1 152 0
 339 0050 B9F1000F 		cmp	r9, #0
 340 0054 09D1     		bne	.L32
 341              	.LVL37:
 342              		.loc 1 153 0
 343 0056 4946     		mov	r1, r9
 344 0058 2A46     		mov	r2, r5
 345 005a FFF7FEFF 		bl	memset
 346              	.LVL38:
 154:src/pkcs.c    ****     memcpy((big+(keylen_hdr -vlen)), (void*)p, vlen);
 347              		.loc 1 154 0
 348 005e 7019     		adds	r0, r6, r5
 349 0060 0099     		ldr	r1, [sp]
 350 0062 2246     		mov	r2, r4
 351 0064 FFF7FEFF 		bl	memcpy
 352              	.LVL39:
 353 0068 08E0     		b	.L33
 354              	.LVL40:
 355              	.L32:
 155:src/pkcs.c    ****   }
 156:src/pkcs.c    ****   else {
 157:src/pkcs.c    ****     memcpy(big, (void*)p, vlen);
 356              		.loc 1 157 0
 357 006a 0099     		ldr	r1, [sp]
 358 006c 2246     		mov	r2, r4
 359 006e FFF7FEFF 		bl	memcpy
 360              	.LVL41:
 158:src/pkcs.c    ****     memset((big+vlen), 0, (keylen_hdr -vlen));
 361              		.loc 1 158 0
 362 0072 3019     		adds	r0, r6, r4
 363 0074 0021     		movs	r1, #0
 364 0076 2A46     		mov	r2, r5
 365 0078 FFF7FEFF 		bl	memset
 366              	.LVL42:
 367              	.L33:
 159:src/pkcs.c    ****   }
 160:src/pkcs.c    **** 
 161:src/pkcs.c    ****   *keylen = vlen;  
 162:src/pkcs.c    ****   p += vlen;
 368              		.loc 1 162 0
 369 007c 009B     		ldr	r3, [sp]
 161:src/pkcs.c    ****   p += vlen;
 370              		.loc 1 161 0
 371 007e C8F80040 		str	r4, [r8]
 372              	.LVL43:
 163:src/pkcs.c    ****   *pp = p;
 164:src/pkcs.c    **** 
 165:src/pkcs.c    ****   return -1;
 373              		.loc 1 165 0
 374 0082 4FF0FF30 		mov	r0, #-1
 162:src/pkcs.c    ****   *pp = p;
 375              		.loc 1 162 0
 376 0086 1C44     		add	r4, r4, r3
 377              	.LVL44:
 163:src/pkcs.c    ****   *pp = p;
ARM GAS  C:\Users\AHMED~1.ELE\AppData\Local\Temp\ccES0SXN.s 			page 11


 378              		.loc 1 163 0
 379 0088 3C60     		str	r4, [r7]
 380              	.LVL45:
 381              	.L29:
 166:src/pkcs.c    **** }
 382              		.loc 1 166 0
 383 008a 03B0     		add	sp, sp, #12
 384              		.cfi_def_cfa_offset 28
 385              		@ sp needed
 386 008c BDE8F083 		pop	{r4, r5, r6, r7, r8, r9, pc}
 387              		.cfi_endproc
 388              	.LFE3:
 389              		.size	getBig, .-getBig
 390              		.section	.text.getPubKey,"ax",%progbits
 391              		.align	1
 392              		.global	getPubKey
 393              		.thumb
 394              		.thumb_func
 395              		.type	getPubKey, %function
 396              	getPubKey:
 397              	.LFB4:
 167:src/pkcs.c    **** 
 168:src/pkcs.c    **** int getPubKey(BYTE**pp, int len, DWORD *keyLen, T_KEY *pubKey) {
 398              		.loc 1 168 0
 399              		.cfi_startproc
 400              		@ args = 0, pretend = 0, frame = 16
 401              		@ frame_needed = 0, uses_anonymous_args = 0
 402              	.LVL46:
 403 0000 2DE9F043 		push	{r4, r5, r6, r7, r8, r9, lr}
 404              		.cfi_def_cfa_offset 28
 405              		.cfi_offset 4, -28
 406              		.cfi_offset 5, -24
 407              		.cfi_offset 6, -20
 408              		.cfi_offset 7, -16
 409              		.cfi_offset 8, -12
 410              		.cfi_offset 9, -8
 411              		.cfi_offset 14, -4
 412 0004 1D46     		mov	r5, r3
 413 0006 87B0     		sub	sp, sp, #28
 414              		.cfi_def_cfa_offset 56
 169:src/pkcs.c    ****   BYTE  *p = *pp;
 415              		.loc 1 169 0
 416 0008 0368     		ldr	r3, [r0]
 417              	.LVL47:
 170:src/pkcs.c    ****   BYTE  value[4];
 171:src/pkcs.c    ****   DWORD expLen, count;
 172:src/pkcs.c    **** 
 173:src/pkcs.c    ****   expLen = 4;
 174:src/pkcs.c    ****   if ((getBig(&p, len, (BYTE*)pubKey->s_key, keyLen, K_MaxRsaModulusLen, FILL_PRE_ZERO/*FILL_POST_Z
 418              		.loc 1 174 0
 419 000a 0024     		movs	r4, #0
 169:src/pkcs.c    ****   BYTE  *p = *pp;
 420              		.loc 1 169 0
 421 000c 0393     		str	r3, [sp, #12]
 173:src/pkcs.c    ****   if ((getBig(&p, len, (BYTE*)pubKey->s_key, keyLen, K_MaxRsaModulusLen, FILL_PRE_ZERO/*FILL_POST_Z
 422              		.loc 1 173 0
 423 000e 0423     		movs	r3, #4
ARM GAS  C:\Users\AHMED~1.ELE\AppData\Local\Temp\ccES0SXN.s 			page 12


 168:src/pkcs.c    ****   BYTE  *p = *pp;
 424              		.loc 1 168 0
 425 0010 9046     		mov	r8, r2
 173:src/pkcs.c    ****   if ((getBig(&p, len, (BYTE*)pubKey->s_key, keyLen, K_MaxRsaModulusLen, FILL_PRE_ZERO/*FILL_POST_Z
 426              		.loc 1 173 0
 427 0012 0593     		str	r3, [sp, #20]
 428              		.loc 1 174 0
 429 0014 4FF48073 		mov	r3, #256
 168:src/pkcs.c    ****   BYTE  *p = *pp;
 430              		.loc 1 168 0
 431 0018 0646     		mov	r6, r0
 432              		.loc 1 174 0
 433 001a 8DE81800 		stmia	sp, {r3, r4}
 434 001e 03A8     		add	r0, sp, #12
 435              	.LVL48:
 436 0020 05F10802 		add	r2, r5, #8
 437              	.LVL49:
 438 0024 4346     		mov	r3, r8
 168:src/pkcs.c    ****   BYTE  *p = *pp;
 439              		.loc 1 168 0
 440 0026 8946     		mov	r9, r1
 441              		.loc 1 174 0
 442 0028 FFF7FEFF 		bl	getBig
 443              	.LVL50:
 444 002c 08B9     		cbnz	r0, .L38
 445              	.L40:
 175:src/pkcs.c    ****        (getBig(&p, len, (BYTE*)value, &expLen, expLen, FILL_POST_ZERO) == 0)) {
 176:src/pkcs.c    ****     return 0;
 446              		.loc 1 176 0
 447 002e 0020     		movs	r0, #0
 448 0030 1FE0     		b	.L39
 449              	.L38:
 175:src/pkcs.c    ****        (getBig(&p, len, (BYTE*)value, &expLen, expLen, FILL_POST_ZERO) == 0)) {
 450              		.loc 1 175 0 discriminator 1
 451 0032 059B     		ldr	r3, [sp, #20]
 452 0034 04AF     		add	r7, sp, #16
 453 0036 0093     		str	r3, [sp]
 454 0038 0123     		movs	r3, #1
 455 003a 03A8     		add	r0, sp, #12
 456 003c 0193     		str	r3, [sp, #4]
 457 003e 4946     		mov	r1, r9
 458 0040 3A46     		mov	r2, r7
 459 0042 05AB     		add	r3, sp, #20
 460 0044 FFF7FEFF 		bl	getBig
 461              	.LVL51:
 174:src/pkcs.c    ****        (getBig(&p, len, (BYTE*)value, &expLen, expLen, FILL_POST_ZERO) == 0)) {
 462              		.loc 1 174 0 discriminator 1
 463 0048 0028     		cmp	r0, #0
 464 004a F0D0     		beq	.L40
 177:src/pkcs.c    ****   }
 178:src/pkcs.c    ****   pubKey->d_keysize  = *keyLen;
 465              		.loc 1 178 0
 466 004c D8F80030 		ldr	r3, [r8]
 179:src/pkcs.c    ****   pubKey->d_exponent = 0;
 180:src/pkcs.c    ****   for (count = 0; count < expLen; count++)
 467              		.loc 1 180 0
 468 0050 0599     		ldr	r1, [sp, #20]
ARM GAS  C:\Users\AHMED~1.ELE\AppData\Local\Temp\ccES0SXN.s 			page 13


 178:src/pkcs.c    ****   pubKey->d_exponent = 0;
 469              		.loc 1 178 0
 470 0052 6B60     		str	r3, [r5, #4]
 471              		.loc 1 180 0
 472 0054 2346     		mov	r3, r4
 179:src/pkcs.c    ****   pubKey->d_exponent = 0;
 473              		.loc 1 179 0
 474 0056 2C60     		str	r4, [r5]
 475              	.LVL52:
 476              	.L41:
 477              		.loc 1 180 0 discriminator 1
 478 0058 8B42     		cmp	r3, r1
 479 005a 06D0     		beq	.L46
 181:src/pkcs.c    ****     pubKey->d_exponent = (pubKey->d_exponent << 8) | value[count];
 480              		.loc 1 181 0 discriminator 3
 481 005c FA5C     		ldrb	r2, [r7, r3]	@ zero_extendqisi2
 482 005e 2868     		ldr	r0, [r5]
 180:src/pkcs.c    ****     pubKey->d_exponent = (pubKey->d_exponent << 8) | value[count];
 483              		.loc 1 180 0 discriminator 3
 484 0060 0133     		adds	r3, r3, #1
 485              	.LVL53:
 486              		.loc 1 181 0 discriminator 3
 487 0062 42EA0022 		orr	r2, r2, r0, lsl #8
 488 0066 2A60     		str	r2, [r5]
 489 0068 F6E7     		b	.L41
 490              	.L46:
 182:src/pkcs.c    ****   
 183:src/pkcs.c    ****   *pp = p;
 491              		.loc 1 183 0
 492 006a 039B     		ldr	r3, [sp, #12]
 493              	.LVL54:
 184:src/pkcs.c    ****   return -1;
 494              		.loc 1 184 0
 495 006c 4FF0FF30 		mov	r0, #-1
 183:src/pkcs.c    ****   return -1;
 496              		.loc 1 183 0
 497 0070 3360     		str	r3, [r6]
 498              	.L39:
 185:src/pkcs.c    **** }
 499              		.loc 1 185 0
 500 0072 07B0     		add	sp, sp, #28
 501              		.cfi_def_cfa_offset 28
 502              		@ sp needed
 503 0074 BDE8F083 		pop	{r4, r5, r6, r7, r8, r9, pc}
 504              		.cfi_endproc
 505              	.LFE4:
 506              		.size	getPubKey, .-getPubKey
 507              		.section	.text.x509ParseKey,"ax",%progbits
 508              		.align	1
 509              		.global	x509ParseKey
 510              		.thumb
 511              		.thumb_func
 512              		.type	x509ParseKey, %function
 513              	x509ParseKey:
 514              	.LFB5:
 186:src/pkcs.c    **** 
 187:src/pkcs.c    **** DWORD x509ParseKey(BYTE *ptr, DWORD size,  T_KEY *pubKey, T_RSA_PRIVATE_KEY *priKey) {
ARM GAS  C:\Users\AHMED~1.ELE\AppData\Local\Temp\ccES0SXN.s 			page 14


 515              		.loc 1 187 0
 516              		.cfi_startproc
 517              		@ args = 0, pretend = 0, frame = 16
 518              		@ frame_needed = 0, uses_anonymous_args = 0
 519              	.LVL55:
 520 0000 2DE9F04F 		push	{r4, r5, r6, r7, r8, r9, r10, fp, lr}
 521              		.cfi_def_cfa_offset 36
 522              		.cfi_offset 4, -36
 523              		.cfi_offset 5, -32
 524              		.cfi_offset 6, -28
 525              		.cfi_offset 7, -24
 526              		.cfi_offset 8, -20
 527              		.cfi_offset 9, -16
 528              		.cfi_offset 10, -12
 529              		.cfi_offset 11, -8
 530              		.cfi_offset 14, -4
 531 0004 87B0     		sub	sp, sp, #28
 532              		.cfi_def_cfa_offset 64
 188:src/pkcs.c    ****   BYTE *p = ptr;
 189:src/pkcs.c    ****   BYTE *KeyEnd, *end;
 190:src/pkcs.c    ****   int len;
 191:src/pkcs.c    ****   DWORD keyLen, keyLen_read;
 192:src/pkcs.c    **** 
 193:src/pkcs.c    **** /*
 194:src/pkcs.c    **** RSAPrivateKey ::= SEQUENCE {
 195:src/pkcs.c    ****     version           Version,
 196:src/pkcs.c    ****     modulus           INTEGER,  -- n
 197:src/pkcs.c    ****     publicExponent    INTEGER,  -- e
 198:src/pkcs.c    ****     privateExponent   INTEGER,  -- d
 199:src/pkcs.c    ****     prime1            INTEGER,  -- p
 200:src/pkcs.c    ****     prime2            INTEGER,  -- q
 201:src/pkcs.c    ****     exponent1         INTEGER,  -- d mod (p-1)
 202:src/pkcs.c    ****     exponent2         INTEGER,  -- d mod (q-1)
 203:src/pkcs.c    ****     coefficient       INTEGER,  -- (inverse of q) mod p
 204:src/pkcs.c    ****     otherPrimeInfos   OtherPrimeInfos OPTIONAL
 205:src/pkcs.c    **** }
 206:src/pkcs.c    **** 
 207:src/pkcs.c    **** Version ::= INTEGER { two-prime(0), multi(1) }
 208:src/pkcs.c    ****     (CONSTRAINED BY {
 209:src/pkcs.c    ****         -- version must be multi if otherPrimeInfos present --
 210:src/pkcs.c    ****     })
 211:src/pkcs.c    **** 
 212:src/pkcs.c    **** OtherPrimeInfos ::= SEQUENCE SIZE(1..MAX) OF OtherPrimeInfo
 213:src/pkcs.c    **** 
 214:src/pkcs.c    **** OtherPrimeInfo ::= SEQUENCE {
 215:src/pkcs.c    ****     prime             INTEGER,  -- ri
 216:src/pkcs.c    ****     exponent          INTEGER,  -- di
 217:src/pkcs.c    ****     coefficient       INTEGER   -- ti
 218:src/pkcs.c    **** }
 219:src/pkcs.c    **** */
 220:src/pkcs.c    ****   len = 0;
 533              		.loc 1 220 0
 534 0006 0026     		movs	r6, #0
 187:src/pkcs.c    ****   BYTE *p = ptr;
 535              		.loc 1 187 0
 536 0008 0446     		mov	r4, r0
 537 000a 9346     		mov	fp, r2
ARM GAS  C:\Users\AHMED~1.ELE\AppData\Local\Temp\ccES0SXN.s 			page 15


 188:src/pkcs.c    ****   BYTE *p = ptr;
 538              		.loc 1 188 0
 539 000c 0390     		str	r0, [sp, #12]
 221:src/pkcs.c    ****   end = p + size;
 222:src/pkcs.c    **** 
 223:src/pkcs.c    ****   if (getSequence(&p, size, &len) == 0)
 540              		.loc 1 223 0
 541 000e 04AA     		add	r2, sp, #16
 542              	.LVL56:
 543 0010 03A8     		add	r0, sp, #12
 544              	.LVL57:
 187:src/pkcs.c    ****   BYTE *p = ptr;
 545              		.loc 1 187 0
 546 0012 0F46     		mov	r7, r1
 547 0014 1D46     		mov	r5, r3
 220:src/pkcs.c    ****   end = p + size;
 548              		.loc 1 220 0
 549 0016 0496     		str	r6, [sp, #16]
 550              	.LVL58:
 551              		.loc 1 223 0
 552 0018 FFF7FEFF 		bl	getSequence
 553              	.LVL59:
 554 001c 0028     		cmp	r0, #0
 555 001e 78D0     		beq	.L49
 224:src/pkcs.c    ****     return ERR_PKCS_KEY_SEQUENCE;
 225:src/pkcs.c    **** 
 226:src/pkcs.c    ****   KeyEnd = p + len;
 556              		.loc 1 226 0
 557 0020 DDF80CA0 		ldr	r10, [sp, #12]
 221:src/pkcs.c    **** 
 558              		.loc 1 221 0
 559 0024 3C44     		add	r4, r4, r7
 560              	.LVL60:
 227:src/pkcs.c    **** 
 228:src/pkcs.c    **** /*
 229:src/pkcs.c    **** 	Version ::= INTEGER { two-prime(0), multi(1) }
 230:src/pkcs.c    **** */
 231:src/pkcs.c    ****   if (getVersionNum(&p, (int)(end - p)) == 0)
 561              		.loc 1 231 0
 562 0026 03A8     		add	r0, sp, #12
 563 0028 CAEB0401 		rsb	r1, r10, r4
 226:src/pkcs.c    **** 
 564              		.loc 1 226 0
 565 002c DDF81090 		ldr	r9, [sp, #16]
 566              	.LVL61:
 567              		.loc 1 231 0
 568 0030 FFF7FEFF 		bl	getVersionNum
 569              	.LVL62:
 570 0034 0028     		cmp	r0, #0
 571 0036 6ED0     		beq	.L50
 232:src/pkcs.c    ****     return ERR_PKCS_KEY_VERSION;
 233:src/pkcs.c    **** 
 234:src/pkcs.c    ****   keyLen = K_MaxRsaModulusLen;
 235:src/pkcs.c    ****   if (getPubKey(&p, (int)(end - p), &keyLen, pubKey) == 0) {
 572              		.loc 1 235 0
 573 0038 0399     		ldr	r1, [sp, #12]
 234:src/pkcs.c    ****   if (getPubKey(&p, (int)(end - p), &keyLen, pubKey) == 0) {
ARM GAS  C:\Users\AHMED~1.ELE\AppData\Local\Temp\ccES0SXN.s 			page 16


 574              		.loc 1 234 0
 575 003a 4FF48078 		mov	r8, #256
 576              		.loc 1 235 0
 577 003e 03A8     		add	r0, sp, #12
 578 0040 611A     		subs	r1, r4, r1
 579 0042 05AA     		add	r2, sp, #20
 580 0044 5B46     		mov	r3, fp
 234:src/pkcs.c    ****   if (getPubKey(&p, (int)(end - p), &keyLen, pubKey) == 0) {
 581              		.loc 1 234 0
 582 0046 CDF81480 		str	r8, [sp, #20]
 583              		.loc 1 235 0
 584 004a FFF7FEFF 		bl	getPubKey
 585              	.LVL63:
 586 004e 0028     		cmp	r0, #0
 587 0050 63D0     		beq	.L51
 236:src/pkcs.c    ****     return ERR_PKCS_PUB_KEY;
 237:src/pkcs.c    ****   }
 238:src/pkcs.c    ****   keyLen_read = keyLen;
 239:src/pkcs.c    ****   priKey->d_bits = pubKey->d_keysize * 8;
 588              		.loc 1 239 0
 589 0052 DBF80430 		ldr	r3, [fp, #4]
 240:src/pkcs.c    **** 
 241:src/pkcs.c    ****   keyLen = keyLen_read;
 242:src/pkcs.c    ****   if ((getBig(&p, (int)(end - p), (BYTE*) priKey->s_modulus, &keyLen, K_MaxRsaModulusLen, FILL_PRE_
 590              		.loc 1 242 0
 591 0056 0399     		ldr	r1, [sp, #12]
 239:src/pkcs.c    **** 
 592              		.loc 1 239 0
 593 0058 DB00     		lsls	r3, r3, #3
 594              		.loc 1 242 0
 595 005a CDF80080 		str	r8, [sp]
 239:src/pkcs.c    **** 
 596              		.loc 1 239 0
 597 005e 6B60     		str	r3, [r5, #4]
 598              		.loc 1 242 0
 599 0060 0196     		str	r6, [sp, #4]
 600 0062 03A8     		add	r0, sp, #12
 601 0064 611A     		subs	r1, r4, r1
 602 0066 05F10802 		add	r2, r5, #8
 603 006a 05AB     		add	r3, sp, #20
 238:src/pkcs.c    ****   priKey->d_bits = pubKey->d_keysize * 8;
 604              		.loc 1 238 0
 605 006c 059F     		ldr	r7, [sp, #20]
 606              	.LVL64:
 607              		.loc 1 242 0
 608 006e FFF7FEFF 		bl	getBig
 609              	.LVL65:
 610 0072 0028     		cmp	r0, #0
 611 0074 53D0     		beq	.L52
 243:src/pkcs.c    ****     return ERR_PKCS_PRI_MODULUS;
 244:src/pkcs.c    **** 
 245:src/pkcs.c    ****   keyLen = MaxRsaPrimeLen(keyLen_read);
 612              		.loc 1 245 0
 613 0076 4FEA5708 		lsr	r8, r7, #1
 246:src/pkcs.c    ****   if ((getBig(&p, (int)(end - p), (BYTE*) priKey->s_prime[0], &keyLen, K_MaxRsaPrimeLen, FILL_PRE_Z
 614              		.loc 1 246 0
 615 007a 0399     		ldr	r1, [sp, #12]
ARM GAS  C:\Users\AHMED~1.ELE\AppData\Local\Temp\ccES0SXN.s 			page 17


 616 007c 8027     		movs	r7, #128
 617              	.LVL66:
 618 007e 0196     		str	r6, [sp, #4]
 619 0080 0097     		str	r7, [sp]
 620 0082 03A8     		add	r0, sp, #12
 621 0084 611A     		subs	r1, r4, r1
 622 0086 05F58472 		add	r2, r5, #264
 623 008a 05AB     		add	r3, sp, #20
 245:src/pkcs.c    ****   if ((getBig(&p, (int)(end - p), (BYTE*) priKey->s_prime[0], &keyLen, K_MaxRsaPrimeLen, FILL_PRE_Z
 624              		.loc 1 245 0
 625 008c CDF81480 		str	r8, [sp, #20]
 626              		.loc 1 246 0
 627 0090 FFF7FEFF 		bl	getBig
 628              	.LVL67:
 629 0094 0028     		cmp	r0, #0
 630 0096 44D0     		beq	.L53
 247:src/pkcs.c    ****     return ERR_PKCS_PRI_PRIME1; 
 248:src/pkcs.c    **** 
 249:src/pkcs.c    ****   keyLen = MaxRsaPrimeLen(keyLen_read);
 250:src/pkcs.c    ****   if ((getBig(&p, (int)(end - p), (BYTE*) priKey->s_prime[1], &keyLen, K_MaxRsaPrimeLen, FILL_PRE_Z
 631              		.loc 1 250 0
 632 0098 0399     		ldr	r1, [sp, #12]
 633 009a 0097     		str	r7, [sp]
 634 009c 0196     		str	r6, [sp, #4]
 635 009e 03A8     		add	r0, sp, #12
 636 00a0 611A     		subs	r1, r4, r1
 637 00a2 05F5C472 		add	r2, r5, #392
 638 00a6 05AB     		add	r3, sp, #20
 249:src/pkcs.c    ****   if ((getBig(&p, (int)(end - p), (BYTE*) priKey->s_prime[1], &keyLen, K_MaxRsaPrimeLen, FILL_PRE_Z
 639              		.loc 1 249 0
 640 00a8 CDF81480 		str	r8, [sp, #20]
 641              		.loc 1 250 0
 642 00ac FFF7FEFF 		bl	getBig
 643              	.LVL68:
 644 00b0 0028     		cmp	r0, #0
 645 00b2 38D0     		beq	.L54
 251:src/pkcs.c    ****     return ERR_PKCS_PRI_PRIME2; 
 252:src/pkcs.c    **** 
 253:src/pkcs.c    ****   keyLen = MaxRsaPrimeLen(keyLen_read);
 254:src/pkcs.c    ****   if ((getBig(&p, (int)(end - p), (BYTE*) priKey->s_prime_exponent[0], &keyLen, K_MaxRsaPrimeLen, F
 646              		.loc 1 254 0
 647 00b4 0399     		ldr	r1, [sp, #12]
 648 00b6 0097     		str	r7, [sp]
 649 00b8 0196     		str	r6, [sp, #4]
 650 00ba 03A8     		add	r0, sp, #12
 651 00bc 611A     		subs	r1, r4, r1
 652 00be 05F50272 		add	r2, r5, #520
 653 00c2 05AB     		add	r3, sp, #20
 253:src/pkcs.c    ****   if ((getBig(&p, (int)(end - p), (BYTE*) priKey->s_prime_exponent[0], &keyLen, K_MaxRsaPrimeLen, F
 654              		.loc 1 253 0
 655 00c4 CDF81480 		str	r8, [sp, #20]
 656              		.loc 1 254 0
 657 00c8 FFF7FEFF 		bl	getBig
 658              	.LVL69:
 659 00cc 68B3     		cbz	r0, .L55
 255:src/pkcs.c    ****     return ERR_PKCS_PRI_EXPONENT1; 
 256:src/pkcs.c    **** 
ARM GAS  C:\Users\AHMED~1.ELE\AppData\Local\Temp\ccES0SXN.s 			page 18


 257:src/pkcs.c    ****   keyLen = MaxRsaPrimeLen(keyLen_read);
 258:src/pkcs.c    ****   if ((getBig(&p, (int)(end - p), (BYTE*) priKey->s_prime_exponent[1], &keyLen, K_MaxRsaPrimeLen, F
 660              		.loc 1 258 0
 661 00ce 0399     		ldr	r1, [sp, #12]
 662 00d0 0097     		str	r7, [sp]
 663 00d2 0196     		str	r6, [sp, #4]
 664 00d4 03A8     		add	r0, sp, #12
 665 00d6 611A     		subs	r1, r4, r1
 666 00d8 05F52272 		add	r2, r5, #648
 667 00dc 05AB     		add	r3, sp, #20
 257:src/pkcs.c    ****   if ((getBig(&p, (int)(end - p), (BYTE*) priKey->s_prime_exponent[1], &keyLen, K_MaxRsaPrimeLen, F
 668              		.loc 1 257 0
 669 00de CDF81480 		str	r8, [sp, #20]
 670              		.loc 1 258 0
 671 00e2 FFF7FEFF 		bl	getBig
 672              	.LVL70:
 673 00e6 10B3     		cbz	r0, .L56
 259:src/pkcs.c    ****     return ERR_PKCS_PRI_EXPONENT2;
 260:src/pkcs.c    **** 
 261:src/pkcs.c    ****   keyLen = MaxRsaPrimeLen(keyLen_read);
 262:src/pkcs.c    ****   if ((getBig(&p, (int)(end - p), (BYTE*) priKey->s_coefficient, &keyLen, K_MaxRsaPrimeLen, FILL_PR
 674              		.loc 1 262 0
 675 00e8 0399     		ldr	r1, [sp, #12]
 676 00ea 0097     		str	r7, [sp]
 677 00ec 0196     		str	r6, [sp, #4]
 678 00ee 03A8     		add	r0, sp, #12
 679 00f0 611A     		subs	r1, r4, r1
 680 00f2 05F54272 		add	r2, r5, #776
 681 00f6 05AB     		add	r3, sp, #20
 261:src/pkcs.c    ****   if ((getBig(&p, (int)(end - p), (BYTE*) priKey->s_coefficient, &keyLen, K_MaxRsaPrimeLen, FILL_PR
 682              		.loc 1 261 0
 683 00f8 CDF81480 		str	r8, [sp, #20]
 684              		.loc 1 262 0
 685 00fc FFF7FEFF 		bl	getBig
 686              	.LVL71:
 687 0100 B8B1     		cbz	r0, .L57
 263:src/pkcs.c    ****     return ERR_PKCS_PRI_COEFFICIENT;     
 264:src/pkcs.c    **** 
 265:src/pkcs.c    ****   if (KeyEnd != p)
 266:src/pkcs.c    ****       return ERR_PKCS_KEY_END;
 267:src/pkcs.c    **** 
 268:src/pkcs.c    ****   return PKCS_OK;
 688              		.loc 1 268 0
 689 0102 039B     		ldr	r3, [sp, #12]
 226:src/pkcs.c    **** 
 690              		.loc 1 226 0
 691 0104 0AEB0900 		add	r0, r10, r9
 692              		.loc 1 268 0
 693 0108 8342     		cmp	r3, r0
 694 010a 14BF     		ite	ne
 695 010c 0B20     		movne	r0, #11
 696 010e 3046     		moveq	r0, r6
 697 0110 10E0     		b	.L48
 698              	.LVL72:
 699              	.L49:
 224:src/pkcs.c    **** 
 700              		.loc 1 224 0
ARM GAS  C:\Users\AHMED~1.ELE\AppData\Local\Temp\ccES0SXN.s 			page 19


 701 0112 0120     		movs	r0, #1
 702 0114 0EE0     		b	.L48
 703              	.LVL73:
 704              	.L50:
 232:src/pkcs.c    **** 
 705              		.loc 1 232 0
 706 0116 0220     		movs	r0, #2
 707 0118 0CE0     		b	.L48
 708              	.L51:
 236:src/pkcs.c    ****   }
 709              		.loc 1 236 0
 710 011a 0320     		movs	r0, #3
 711 011c 0AE0     		b	.L48
 712              	.LVL74:
 713              	.L52:
 243:src/pkcs.c    **** 
 714              		.loc 1 243 0
 715 011e 0520     		movs	r0, #5
 716 0120 08E0     		b	.L48
 717              	.LVL75:
 718              	.L53:
 247:src/pkcs.c    **** 
 719              		.loc 1 247 0
 720 0122 0620     		movs	r0, #6
 721 0124 06E0     		b	.L48
 722              	.L54:
 251:src/pkcs.c    **** 
 723              		.loc 1 251 0
 724 0126 0720     		movs	r0, #7
 725 0128 04E0     		b	.L48
 726              	.L55:
 255:src/pkcs.c    **** 
 727              		.loc 1 255 0
 728 012a 0820     		movs	r0, #8
 729 012c 02E0     		b	.L48
 730              	.L56:
 259:src/pkcs.c    **** 
 731              		.loc 1 259 0
 732 012e 0920     		movs	r0, #9
 733 0130 00E0     		b	.L48
 734              	.L57:
 263:src/pkcs.c    **** 
 735              		.loc 1 263 0
 736 0132 0A20     		movs	r0, #10
 737              	.LVL76:
 738              	.L48:
 269:src/pkcs.c    **** }
 739              		.loc 1 269 0
 740 0134 07B0     		add	sp, sp, #28
 741              		.cfi_def_cfa_offset 36
 742              		@ sp needed
 743 0136 BDE8F08F 		pop	{r4, r5, r6, r7, r8, r9, r10, fp, pc}
 744              		.cfi_endproc
 745              	.LFE5:
 746              		.size	x509ParseKey, .-x509ParseKey
 747              		.text
 748              	.Letext0:
ARM GAS  C:\Users\AHMED~1.ELE\AppData\Local\Temp\ccES0SXN.s 			page 20


 749              		.file 2 "../LibA5T1000/common.h"
 750              		.file 3 "../LibA5T1000/system.h"