ARM GAS  C:\Users\AHMED~1.ELE\AppData\Local\Temp\cce36nE7.s 			page 1


   1              		.syntax unified
   2              		.cpu cortex-a5
   3              		.fpu softvfp
   4              		.eabi_attribute 20, 1
   5              		.eabi_attribute 21, 1
   6              		.eabi_attribute 23, 3
   7              		.eabi_attribute 24, 1
   8              		.eabi_attribute 25, 1
   9              		.eabi_attribute 26, 1
  10              		.eabi_attribute 30, 4
  11              		.eabi_attribute 34, 0
  12              		.eabi_attribute 18, 4
  13              		.thumb
  14              		.file	"remotedl.c"
  15              		.text
  16              	.Ltext0:
  17              		.cfi_sections	.debug_frame
  18              		.section	.text.DeleteRemoteDLFile,"ax",%progbits
  19              		.align	1
  20              		.global	DeleteRemoteDLFile
  21              		.thumb
  22              		.thumb_func
  23              		.type	DeleteRemoteDLFile, %function
  24              	DeleteRemoteDLFile:
  25              	.LFB0:
  26              		.file 1 "src/remotedl.c"
   1:src/remotedl.c **** /*-----------------------------------------------------------------------------
   2:src/remotedl.c ****  *  File          : remoteDl.c
   3:src/remotedl.c ****  *  Module        : CREON
   4:src/remotedl.c ****  *  Description   : Config Terminal.
   5:src/remotedl.c ****  *  Author        : Lewis
   6:src/remotedl.c ****  *  Notes         :
   7:src/remotedl.c ****  *
   8:src/remotedl.c ****  *  Naming conventions
   9:src/remotedl.c ****  *  ~~~~~~~~~~~~~~~~~~
  10:src/remotedl.c ****  *               Struct : Leading T
  11:src/remotedl.c ****  *             Constant : Leading K
  12:src/remotedl.c ****  *      Global Variable : Leading g
  13:src/remotedl.c ****  *    Function argument : Leading a
  14:src/remotedl.c ****  *       Local Variable : All lower case
  15:src/remotedl.c ****  *
  16:src/remotedl.c ****  *  Date          Who         Action
  17:src/remotedl.c ****  *  ------------  ----------- -------------------------------------------------
  18:src/remotedl.c ****  *  10 May  2006  Lewis       Initial Version for new CONTROL
  19:src/remotedl.c ****  *-----------------------------------------------------------------------------
  20:src/remotedl.c ****  */
  21:src/remotedl.c **** #include "midware.h"
  22:src/remotedl.c **** #include "util.h"
  23:src/remotedl.c **** #include "sysutil.h"
  24:src/remotedl.c **** #include "menu.h"
  25:src/remotedl.c **** #include "message.h"
  26:src/remotedl.c **** #include "kbdutil.h"
  27:src/remotedl.c **** #include "infodata.h"
  28:src/remotedl.c **** #include "lptutil.h"
  29:src/remotedl.c **** #include "termdata.h"
  30:src/remotedl.c **** #include "constant.h"
  31:src/remotedl.c **** #include "stis.h"
ARM GAS  C:\Users\AHMED~1.ELE\AppData\Local\Temp\cce36nE7.s 			page 2


  32:src/remotedl.c **** #include "tranutil.h"
  33:src/remotedl.c **** #include "comm.h"
  34:src/remotedl.c **** #include "apm.h"
  35:src/remotedl.c **** #include "remotedl.h"
  36:src/remotedl.c **** #include "hardware.h"
  37:src/remotedl.c **** #include "ftptran.h"
  38:src/remotedl.c **** #include "batchsys.h"
  39:src/remotedl.c **** 
  40:src/remotedl.c **** 
  41:src/remotedl.c **** static char KRemoteDLFile[] = { "RDL" };
  42:src/remotedl.c **** static int  iRemoteDLFd = -1;
  43:src/remotedl.c **** 
  44:src/remotedl.c **** 
  45:src/remotedl.c **** //*****************************************************************************
  46:src/remotedl.c **** //  Function        : DeleteRemoteDLFile
  47:src/remotedl.c **** //  Description     : Delete Bin files
  48:src/remotedl.c **** //  Input           : N/A
  49:src/remotedl.c **** //  Return          : N/A
  50:src/remotedl.c **** //  Note            : N/A
  51:src/remotedl.c **** //  Globals Changed : N/A
  52:src/remotedl.c **** //*****************************************************************************
  53:src/remotedl.c **** void DeleteRemoteDLFile(void)
  54:src/remotedl.c **** {
  27              		.loc 1 54 0
  28              		.cfi_startproc
  29              		@ args = 0, pretend = 0, frame = 32
  30              		@ frame_needed = 0, uses_anonymous_args = 0
  31 0000 00B5     		push	{lr}
  32              		.cfi_def_cfa_offset 4
  33              		.cfi_offset 14, -4
  34 0002 8BB0     		sub	sp, sp, #44
  35              		.cfi_def_cfa_offset 48
  55:src/remotedl.c ****   char filename[32];
  56:src/remotedl.c **** 
  57:src/remotedl.c ****   strcpy(filename, KRemoteDLFile);
  36              		.loc 1 57 0
  37 0004 02A8     		add	r0, sp, #8
  38 0006 0649     		ldr	r1, .L2
  39 0008 FFF7FEFF 		bl	strcpy
  40              	.LVL0:
  58:src/remotedl.c ****   fDeleteMW(filename);
  41              		.loc 1 58 0
  42 000c 0023     		movs	r3, #0
  43 000e 0C21     		movs	r1, #12
  44 0010 0093     		str	r3, [sp]
  45 0012 02AA     		add	r2, sp, #8
  46 0014 0F20     		movs	r0, #15
  47 0016 FFF7FEFF 		bl	lib_app_call
  48              	.LVL1:
  59:src/remotedl.c **** }
  49              		.loc 1 59 0
  50 001a 0BB0     		add	sp, sp, #44
  51              		.cfi_def_cfa_offset 4
  52              		@ sp needed
  53 001c 5DF804FB 		ldr	pc, [sp], #4
  54              	.L3:
  55              		.align	2
ARM GAS  C:\Users\AHMED~1.ELE\AppData\Local\Temp\cce36nE7.s 			page 3


  56              	.L2:
  57 0020 00000000 		.word	.LANCHOR0
  58              		.cfi_endproc
  59              	.LFE0:
  60              		.size	DeleteRemoteDLFile, .-DeleteRemoteDLFile
  61              		.section	.text.RemoteDownload,"ax",%progbits
  62              		.align	1
  63              		.global	RemoteDownload
  64              		.thumb
  65              		.thumb_func
  66              		.type	RemoteDownload, %function
  67              	RemoteDownload:
  68              	.LFB3:
  60:src/remotedl.c **** 
  61:src/remotedl.c **** /******************************************************************************
  62:src/remotedl.c ****  *  Function        : RemoteDlInit
  63:src/remotedl.c ****  *  Description     : Init Remote Dl
  64:src/remotedl.c ****  *  Input           : delay in sec
  65:src/remotedl.c ****  *  Return          : None
  66:src/remotedl.c ****  *  Note            : None
  67:src/remotedl.c ****  *  Globals         : None
  68:src/remotedl.c ****  *****************************************************************************/
  69:src/remotedl.c **** void RemoteDlInit(void)
  70:src/remotedl.c **** {
  71:src/remotedl.c ****   BYTE filename[32];
  72:src/remotedl.c ****   // 16-06-14++ FL (1)
  73:src/remotedl.c ****   //DWORD len;
  74:src/remotedl.c ****   // 16-06-14-- FL (1)
  75:src/remotedl.c **** 
  76:src/remotedl.c ****   strcpy(filename, KRemoteDLFile);
  77:src/remotedl.c **** 
  78:src/remotedl.c ****   iRemoteDLFd = fOpenMW(filename);
  79:src/remotedl.c ****   while (iRemoteDLFd < 0) {
  80:src/remotedl.c ****     fCloseMW(iRemoteDLFd);
  81:src/remotedl.c ****     fDeleteMW(filename);
  82:src/remotedl.c ****     iRemoteDLFd = fCreateMW(filename, 0);
  83:src/remotedl.c ****     RemoteDlResetData();
  84:src/remotedl.c ****   }
  85:src/remotedl.c **** }
  86:src/remotedl.c **** 
  87:src/remotedl.c **** /******************************************************************************
  88:src/remotedl.c ****  *  Function        : RemoteDlStartTimer
  89:src/remotedl.c ****  *  Description     : Start the polling schedule timer
  90:src/remotedl.c ****  *  Input           : delay in sec
  91:src/remotedl.c ****  *  Return          : None
  92:src/remotedl.c ****  *  Note            : None
  93:src/remotedl.c ****  *  Globals         : None
  94:src/remotedl.c ****  *****************************************************************************/
  95:src/remotedl.c **** static void RemoteDlStartTimer(DWORD aDelayInSec)
  96:src/remotedl.c **** {
  97:src/remotedl.c ****   TimerSetMW(gTimerHdl[TIMER_REMOTEDL], aDelayInSec*100);
  98:src/remotedl.c **** }
  99:src/remotedl.c **** 
 100:src/remotedl.c **** /******************************************************************************
 101:src/remotedl.c ****  *  Function        : RemoteDownload
 102:src/remotedl.c ****  *  Description     : remote update (App or data)
 103:src/remotedl.c ****  *  Input           : update: TRUE if perform remote update
ARM GAS  C:\Users\AHMED~1.ELE\AppData\Local\Temp\cce36nE7.s 			page 4


 104:src/remotedl.c ****  *                  : FALSE only set batch status
 105:src/remotedl.c ****  *  Return          : Job performed
 106:src/remotedl.c ****  *  Note            : Batch status flag is set regardless
 107:src/remotedl.c ****  *  Globals         : cmdBuf
 108:src/remotedl.c ****  *****************************************************************************/
 109:src/remotedl.c **** void RemoteDownload(void)
 110:src/remotedl.c **** {
  69              		.loc 1 110 0
  70              		.cfi_startproc
  71              		@ args = 0, pretend = 0, frame = 16
  72              		@ frame_needed = 0, uses_anonymous_args = 0
  73 0000 F0B5     		push	{r4, r5, r6, r7, lr}
  74              		.cfi_def_cfa_offset 20
  75              		.cfi_offset 4, -20
  76              		.cfi_offset 5, -16
  77              		.cfi_offset 6, -12
  78              		.cfi_offset 7, -8
  79              		.cfi_offset 14, -4
 111:src/remotedl.c ****   // 16-06-14++ FL (1)
 112:src/remotedl.c ****   //BYTE scheduler, DL_status, DL_retry_time;
 113:src/remotedl.c ****   // 16-06-14-- FL (1)
 114:src/remotedl.c **** 
 115:src/remotedl.c ****   struct REMOTEDL_DATA remoteDl;
 116:src/remotedl.c ****   ReadSFile(iRemoteDLFd, 0, &remoteDl, sizeof(struct REMOTEDL_DATA));
  80              		.loc 1 116 0
  81 0002 5B4C     		ldr	r4, .L21
 110:src/remotedl.c ****   // 16-06-14++ FL (1)
  82              		.loc 1 110 0
  83 0004 87B0     		sub	sp, sp, #28
  84              		.cfi_def_cfa_offset 48
  85              		.loc 1 116 0
  86 0006 0C23     		movs	r3, #12
  87 0008 6068     		ldr	r0, [r4, #4]
  88 000a 0021     		movs	r1, #0
  89 000c 03AA     		add	r2, sp, #12
  90 000e FFF7FEFF 		bl	ReadSFile
  91              	.LVL2:
 117:src/remotedl.c **** 
 118:src/remotedl.c ****   if ((remoteDl.scheduler != DLOAD_NO) && (GetRecCount()==0)) {  // batch all cleared
  92              		.loc 1 118 0
  93 0012 9DF81030 		ldrb	r3, [sp, #16]	@ zero_extendqisi2
  94 0016 002B     		cmp	r3, #0
  95 0018 00F09A80 		beq	.L6
  96              		.loc 1 118 0 is_stmt 0 discriminator 1
  97 001c FFF7FEFF 		bl	GetRecCount
  98              	.LVL3:
  99 0020 0546     		mov	r5, r0
 100 0022 0028     		cmp	r0, #0
 101 0024 40F09480 		bne	.L6
 102              	.LBB2:
 119:src/remotedl.c ****     DWORD keyin;
 120:src/remotedl.c **** 
 121:src/remotedl.c ****     DispClrBelowMW(MW_LINE3);
 103              		.loc 1 121 0 is_stmt 1
 104 0028 2321     		movs	r1, #35
 105 002a 4FF44072 		mov	r2, #768
 106 002e 2B46     		mov	r3, r5
ARM GAS  C:\Users\AHMED~1.ELE\AppData\Local\Temp\cce36nE7.s 			page 5


 107 0030 0090     		str	r0, [sp]
 108 0032 0F20     		movs	r0, #15
 109 0034 FFF7FEFF 		bl	lib_app_call
 110              	.LVL4:
 111              	.LBB3:
 122:src/remotedl.c ****     DispLineMW(KRemoteDLHeader , MW_LINE1, MW_CLREOL|MW_LEFT|MW_BIGFONT|MW_REVERSE);
 112              		.loc 1 122 0
 113 0038 4E48     		ldr	r0, .L21+4
 114 003a FFF7FEFF 		bl	strlen
 115              	.LVL5:
 116 003e 0746     		mov	r7, r0
 117              	.LVL6:
 118 0040 791C     		adds	r1, r7, #1
 119 0042 9220     		movs	r0, #146
 120              	.LVL7:
 121 0044 FFF7FEFF 		bl	sys_func1
 122              	.LVL8:
 123 0048 0646     		mov	r6, r0
 124 004a 90B1     		cbz	r0, .L8
 125              		.loc 1 122 0 is_stmt 0 discriminator 1
 126 004c 4949     		ldr	r1, .L21+4
 127 004e 3A46     		mov	r2, r7
 128 0050 FFF7FEFF 		bl	memcpy
 129              	.LVL9:
 130 0054 41F23003 		movw	r3, #4144
 131 0058 F555     		strb	r5, [r6, r7]
 132 005a 2521     		movs	r1, #37
 133 005c 0093     		str	r3, [sp]
 134 005e 0F20     		movs	r0, #15
 135 0060 3246     		mov	r2, r6
 136 0062 4FF48073 		mov	r3, #256
 137 0066 FFF7FEFF 		bl	lib_app_call
 138              	.LVL10:
 139 006a 9420     		movs	r0, #148
 140 006c 3146     		mov	r1, r6
 141 006e FFF7FEFF 		bl	sys_func1
 142              	.LVL11:
 143              	.L8:
 144              	.LBE3:
 145              	.LBB4:
 123:src/remotedl.c **** 
 124:src/remotedl.c ****     // check prompt
 125:src/remotedl.c ****     //if (RemoteDownloadPrompt()) {
 126:src/remotedl.c ****     if (TRUE) {
 127:src/remotedl.c ****       DispLineMW("PERFORM?  Y OR N" , MW_LINE7, MW_CLREOL|MW_LEFT|MW_BIGFONT);
 146              		.loc 1 127 0 is_stmt 1
 147 0072 9220     		movs	r0, #146
 148 0074 1121     		movs	r1, #17
 149 0076 FFF7FEFF 		bl	sys_func1
 150              	.LVL12:
 151 007a 0546     		mov	r5, r0
 152 007c 98B1     		cbz	r0, .L9
 153              		.loc 1 127 0 is_stmt 0 discriminator 1
 154 007e 3E49     		ldr	r1, .L21+8
 155 0080 1022     		movs	r2, #16
 156 0082 FFF7FEFF 		bl	memcpy
 157              	.LVL13:
ARM GAS  C:\Users\AHMED~1.ELE\AppData\Local\Temp\cce36nE7.s 			page 6


 158 0086 0023     		movs	r3, #0
 159 0088 2521     		movs	r1, #37
 160 008a 2B74     		strb	r3, [r5, #16]
 161 008c 4FF48153 		mov	r3, #4128
 162 0090 0F20     		movs	r0, #15
 163 0092 0093     		str	r3, [sp]
 164 0094 2A46     		mov	r2, r5
 165 0096 4FF4E063 		mov	r3, #1792
 166 009a FFF7FEFF 		bl	lib_app_call
 167              	.LVL14:
 168 009e 9420     		movs	r0, #148
 169 00a0 2946     		mov	r1, r5
 170 00a2 FFF7FEFF 		bl	sys_func1
 171              	.LVL15:
 172              	.L9:
 173              	.LBE4:
 128:src/remotedl.c ****       keyin = WaitKey(KBD_TIMEOUT);
 174              		.loc 1 128 0 is_stmt 1
 175 00a6 42F22830 		movw	r0, #9000
 176 00aa FFF7FEFF 		bl	WaitKey
 177              	.LVL16:
 129:src/remotedl.c ****     }
 130:src/remotedl.c ****     else {
 131:src/remotedl.c ****       DispLineMW("Starting........" , MW_LINE7, MW_CLREOL|MW_LEFT|MW_SPFONT);
 132:src/remotedl.c ****       Delay1Sec(2, 0);
 133:src/remotedl.c ****       keyin = MWKEY_ENTER;
 134:src/remotedl.c ****     }
 135:src/remotedl.c **** 
 136:src/remotedl.c ****     if (keyin == MWKEY_ENTER) {
 178              		.loc 1 136 0
 179 00ae 1028     		cmp	r0, #16
 180 00b0 4ED1     		bne	.L6
 137:src/remotedl.c ****       remoteDl.DL_retry_time = 0;
 138:src/remotedl.c **** 
 139:src/remotedl.c ****       // download params
 140:src/remotedl.c ****       remoteDl.DL_status    |= (DL_PARAM_FAIL | DL_APP_FAIL); // Default assume download fail
 181              		.loc 1 140 0
 182 00b2 9DF81130 		ldrb	r3, [sp, #17]	@ zero_extendqisi2
 137:src/remotedl.c ****       remoteDl.DL_retry_time = 0;
 183              		.loc 1 137 0
 184 00b6 0025     		movs	r5, #0
 185              	.LVL17:
 186              		.loc 1 140 0
 187 00b8 43F00303 		orr	r3, r3, #3
 141:src/remotedl.c ****       WriteSFile(iRemoteDLFd, 0, &remoteDl, sizeof(struct REMOTEDL_DATA));
 188              		.loc 1 141 0
 189 00bc 2946     		mov	r1, r5
 140:src/remotedl.c ****       WriteSFile(iRemoteDLFd, 0, &remoteDl, sizeof(struct REMOTEDL_DATA));
 190              		.loc 1 140 0
 191 00be 8DF81130 		strb	r3, [sp, #17]
 192              		.loc 1 141 0
 193 00c2 03AA     		add	r2, sp, #12
 194 00c4 0C23     		movs	r3, #12
 195 00c6 6068     		ldr	r0, [r4, #4]
 196              	.LVL18:
 137:src/remotedl.c ****       remoteDl.DL_retry_time = 0;
 197              		.loc 1 137 0
ARM GAS  C:\Users\AHMED~1.ELE\AppData\Local\Temp\cce36nE7.s 			page 7


 198 00c8 8DF81350 		strb	r5, [sp, #19]
 199              		.loc 1 141 0
 200 00cc FFF7FEFF 		bl	WriteSFile
 201              	.LVL19:
 142:src/remotedl.c ****       fCommitAllMW();
 202              		.loc 1 142 0
 203 00d0 1321     		movs	r1, #19
 204 00d2 2A46     		mov	r2, r5
 205 00d4 2B46     		mov	r3, r5
 206 00d6 0095     		str	r5, [sp]
 207 00d8 0F20     		movs	r0, #15
 208 00da FFF7FEFF 		bl	lib_app_call
 209              	.LVL20:
 210              	.LBB5:
 143:src/remotedl.c ****       DispLineMW(KRemoteDLHeader , MW_LINE1, MW_CLREOL|MW_LEFT|MW_BIGFONT|MW_REVERSE);
 211              		.loc 1 143 0
 212 00de 2548     		ldr	r0, .L21+4
 213 00e0 FFF7FEFF 		bl	strlen
 214              	.LVL21:
 215 00e4 0746     		mov	r7, r0
 216              	.LVL22:
 217 00e6 791C     		adds	r1, r7, #1
 218 00e8 9220     		movs	r0, #146
 219              	.LVL23:
 220 00ea FFF7FEFF 		bl	sys_func1
 221              	.LVL24:
 222 00ee 0646     		mov	r6, r0
 223              	.LVL25:
 224 00f0 90B1     		cbz	r0, .L10
 225              		.loc 1 143 0 is_stmt 0 discriminator 1
 226 00f2 2049     		ldr	r1, .L21+4
 227 00f4 3A46     		mov	r2, r7
 228 00f6 FFF7FEFF 		bl	memcpy
 229              	.LVL26:
 230 00fa 41F23003 		movw	r3, #4144
 231 00fe F555     		strb	r5, [r6, r7]
 232 0100 2521     		movs	r1, #37
 233 0102 0093     		str	r3, [sp]
 234 0104 0F20     		movs	r0, #15
 235 0106 3246     		mov	r2, r6
 236 0108 4FF48073 		mov	r3, #256
 237 010c FFF7FEFF 		bl	lib_app_call
 238              	.LVL27:
 239 0110 9420     		movs	r0, #148
 240 0112 3146     		mov	r1, r6
 241 0114 FFF7FEFF 		bl	sys_func1
 242              	.LVL28:
 243              	.L10:
 244              	.LBE5:
 144:src/remotedl.c **** 
 145:src/remotedl.c ****       //25-06-14++ SC (1)
 146:src/remotedl.c ****       // if (STISFTPDownloadTrans(FALSE, MODE_ALL_PARAM_APP) == TRANS_ACP) {
 147:src/remotedl.c ****       if (STISFTPDownloadTrans(FALSE, MODE_ALL_PARAM_APP, FALSE) == TRANS_ACP) {
 245              		.loc 1 147 0 is_stmt 1
 246 0118 0020     		movs	r0, #0
 247 011a FF21     		movs	r1, #255
 248 011c 0246     		mov	r2, r0
ARM GAS  C:\Users\AHMED~1.ELE\AppData\Local\Temp\cce36nE7.s 			page 8


 249 011e FFF7FEFF 		bl	STISFTPDownloadTrans
 250              	.LVL29:
 251 0122 0546     		mov	r5, r0
 252 0124 A0B9     		cbnz	r0, .L6
 148:src/remotedl.c ****         //25-06-14-- SC (1)
 149:src/remotedl.c **** //        if (GetSTISMode() == TRANS_MODE) {
 150:src/remotedl.c **** //          InitEMV();
 151:src/remotedl.c **** //          InitApplTbl();
 152:src/remotedl.c **** //          InitAcqSupport();
 153:src/remotedl.c **** //        }
 154:src/remotedl.c ****         remoteDl.scheduler = DLOAD_NO;
 253              		.loc 1 154 0
 254 0126 8DF81000 		strb	r0, [sp, #16]
 155:src/remotedl.c ****         remoteDl.DL_status = 0x00;
 255              		.loc 1 155 0
 256 012a 8DF81100 		strb	r0, [sp, #17]
 156:src/remotedl.c ****         WriteSFile(iRemoteDLFd, 0, &remoteDl, sizeof(struct REMOTEDL_DATA));
 257              		.loc 1 156 0
 258 012e 2946     		mov	r1, r5
 259 0130 03AA     		add	r2, sp, #12
 260 0132 0C23     		movs	r3, #12
 261 0134 6068     		ldr	r0, [r4, #4]
 262 0136 FFF7FEFF 		bl	WriteSFile
 263              	.LVL30:
 157:src/remotedl.c ****         fCommitAllMW();
 264              		.loc 1 157 0
 265 013a 0095     		str	r5, [sp]
 266 013c 0F20     		movs	r0, #15
 267 013e 1321     		movs	r1, #19
 268 0140 2A46     		mov	r2, r5
 269 0142 2B46     		mov	r3, r5
 270 0144 FFF7FEFF 		bl	lib_app_call
 271              	.LVL31:
 158:src/remotedl.c ****         ResetMW();
 272              		.loc 1 158 0
 273 0148 4FF4CF70 		mov	r0, #414
 274 014c FFF7FEFF 		bl	sys_func0
 275              	.LVL32:
 276              	.L6:
 277              	.LBE2:
 159:src/remotedl.c ****       }
 160:src/remotedl.c ****     } // if keyin == enter
 161:src/remotedl.c ****   } // if scheduler != DLOAD_NO
 162:src/remotedl.c **** 
 163:src/remotedl.c ****   WriteSFile(iRemoteDLFd, 0, &remoteDl, sizeof(struct REMOTEDL_DATA));
 278              		.loc 1 163 0
 279 0150 03AA     		add	r2, sp, #12
 280 0152 6068     		ldr	r0, [r4, #4]
 281 0154 0021     		movs	r1, #0
 282 0156 0C23     		movs	r3, #12
 283 0158 FFF7FEFF 		bl	WriteSFile
 284              	.LVL33:
 164:src/remotedl.c ****   fCommitAllMW();
 285              		.loc 1 164 0
 286 015c 0022     		movs	r2, #0
 287 015e 1321     		movs	r1, #19
 288 0160 0092     		str	r2, [sp]
ARM GAS  C:\Users\AHMED~1.ELE\AppData\Local\Temp\cce36nE7.s 			page 9


 289 0162 1346     		mov	r3, r2
 290 0164 0F20     		movs	r0, #15
 291 0166 FFF7FEFF 		bl	lib_app_call
 292              	.LVL34:
 165:src/remotedl.c **** }
 293              		.loc 1 165 0
 294 016a 07B0     		add	sp, sp, #28
 295              		.cfi_def_cfa_offset 20
 296              		@ sp needed
 297 016c F0BD     		pop	{r4, r5, r6, r7, pc}
 298              	.L22:
 299 016e 00BF     		.align	2
 300              	.L21:
 301 0170 00000000 		.word	.LANCHOR0
 302 0174 00000000 		.word	KRemoteDLHeader
 303 0178 00000000 		.word	.LC0
 304              		.cfi_endproc
 305              	.LFE3:
 306              		.size	RemoteDownload, .-RemoteDownload
 307              		.global	__aeabi_uidivmod
 308              		.global	__aeabi_uidiv
 309              		.section	.text.RemoteDlSetScheduler,"ax",%progbits
 310              		.align	1
 311              		.global	RemoteDlSetScheduler
 312              		.thumb
 313              		.thumb_func
 314              		.type	RemoteDlSetScheduler, %function
 315              	RemoteDlSetScheduler:
 316              	.LFB4:
 166:src/remotedl.c **** 
 167:src/remotedl.c **** /******************************************************************************
 168:src/remotedl.c ****  *  Function        : RemoteDlSetScheduler
 169:src/remotedl.c ****  *  Description     : Set remote update scheduler. (func 67)
 170:src/remotedl.c ****  *  Input           : N/A
 171:src/remotedl.c ****  *  Return          : TRUE if success
 172:src/remotedl.c ****  *  Note            : N/A
 173:src/remotedl.c ****  *  Globals Changed : gds
 174:src/remotedl.c ****  *******************************************************************************/
 175:src/remotedl.c **** BOOLEAN RemoteDlSetScheduler(void)
 176:src/remotedl.c **** {
 317              		.loc 1 176 0
 318              		.cfi_startproc
 319              		@ args = 0, pretend = 0, frame = 56
 320              		@ frame_needed = 0, uses_anonymous_args = 0
 321 0000 F0B5     		push	{r4, r5, r6, r7, lr}
 322              		.cfi_def_cfa_offset 20
 323              		.cfi_offset 4, -20
 324              		.cfi_offset 5, -16
 325              		.cfi_offset 6, -12
 326              		.cfi_offset 7, -8
 327              		.cfi_offset 14, -4
 177:src/remotedl.c ****   BYTE kbdbuf[32];
 178:src/remotedl.c ****   struct DATETIME dtg;
 179:src/remotedl.c ****   struct REMOTEDL_DATA remoteDl;
 180:src/remotedl.c ****   WORD wrnd;
 181:src/remotedl.c **** 
 182:src/remotedl.c ****   ReadSFile(iRemoteDLFd, 0, &remoteDl, sizeof(struct REMOTEDL_DATA));
ARM GAS  C:\Users\AHMED~1.ELE\AppData\Local\Temp\cce36nE7.s 			page 10


 328              		.loc 1 182 0
 329 0002 AD4D     		ldr	r5, .L65
 176:src/remotedl.c ****   BYTE kbdbuf[32];
 330              		.loc 1 176 0
 331 0004 91B0     		sub	sp, sp, #68
 332              		.cfi_def_cfa_offset 88
 183:src/remotedl.c ****   // daily polling
 184:src/remotedl.c ****   DispClrBelowMW(MW_LINE3);
 333              		.loc 1 184 0
 334 0006 0027     		movs	r7, #0
 182:src/remotedl.c ****   // daily polling
 335              		.loc 1 182 0
 336 0008 0021     		movs	r1, #0
 337 000a 05AA     		add	r2, sp, #20
 338 000c 0C23     		movs	r3, #12
 339 000e 6868     		ldr	r0, [r5, #4]
 340 0010 FFF7FEFF 		bl	ReadSFile
 341              	.LVL35:
 342              		.loc 1 184 0
 343 0014 2321     		movs	r1, #35
 344 0016 4FF44072 		mov	r2, #768
 345 001a 3B46     		mov	r3, r7
 346 001c 0097     		str	r7, [sp]
 347 001e 0F20     		movs	r0, #15
 348 0020 FFF7FEFF 		bl	lib_app_call
 349              	.LVL36:
 350              	.LBB6:
 185:src/remotedl.c ****   DispLineMW(KRemoteDLSch, MW_LINE1, MW_REVERSE|MW_CENTER|MW_BIGFONT);
 351              		.loc 1 185 0
 352 0024 A548     		ldr	r0, .L65+4
 353 0026 FFF7FEFF 		bl	strlen
 354              	.LVL37:
 355 002a 0646     		mov	r6, r0
 356              	.LVL38:
 357 002c 711C     		adds	r1, r6, #1
 358 002e 9220     		movs	r0, #146
 359              	.LVL39:
 360 0030 FFF7FEFF 		bl	sys_func1
 361              	.LVL40:
 362 0034 0446     		mov	r4, r0
 363 0036 90B1     		cbz	r0, .L24
 364              		.loc 1 185 0 is_stmt 0 discriminator 1
 365 0038 A049     		ldr	r1, .L65+4
 366 003a 3246     		mov	r2, r6
 367 003c FFF7FEFF 		bl	memcpy
 368              	.LVL41:
 369 0040 41F21203 		movw	r3, #4114
 370 0044 A755     		strb	r7, [r4, r6]
 371 0046 2521     		movs	r1, #37
 372 0048 0093     		str	r3, [sp]
 373 004a 0F20     		movs	r0, #15
 374 004c 2246     		mov	r2, r4
 375 004e 4FF48073 		mov	r3, #256
 376 0052 FFF7FEFF 		bl	lib_app_call
 377              	.LVL42:
 378 0056 9420     		movs	r0, #148
 379 0058 2146     		mov	r1, r4
ARM GAS  C:\Users\AHMED~1.ELE\AppData\Local\Temp\cce36nE7.s 			page 11


 380 005a FFF7FEFF 		bl	sys_func1
 381              	.LVL43:
 382              	.L24:
 383              	.LBE6:
 384              	.LBB7:
 186:src/remotedl.c ****   DispLineMW("1. DISABLE      " , MW_LINE3, MW_CLREOL|MW_LEFT|MW_SPFONT);
 385              		.loc 1 186 0 is_stmt 1
 386 005e 9220     		movs	r0, #146
 387 0060 1121     		movs	r1, #17
 388 0062 FFF7FEFF 		bl	sys_func1
 389              	.LVL44:
 390 0066 0446     		mov	r4, r0
 391              	.LVL45:
 392 0068 98B1     		cbz	r0, .L25
 393              		.loc 1 186 0 is_stmt 0 discriminator 1
 394 006a 9549     		ldr	r1, .L65+8
 395 006c 1022     		movs	r2, #16
 396 006e FFF7FEFF 		bl	memcpy
 397              	.LVL46:
 398 0072 0023     		movs	r3, #0
 399 0074 2521     		movs	r1, #37
 400 0076 2374     		strb	r3, [r4, #16]
 401 0078 42F22003 		movw	r3, #8224
 402 007c 0F20     		movs	r0, #15
 403 007e 0093     		str	r3, [sp]
 404 0080 2246     		mov	r2, r4
 405 0082 4FF44073 		mov	r3, #768
 406 0086 FFF7FEFF 		bl	lib_app_call
 407              	.LVL47:
 408 008a 9420     		movs	r0, #148
 409 008c 2146     		mov	r1, r4
 410 008e FFF7FEFF 		bl	sys_func1
 411              	.LVL48:
 412              	.L25:
 413              	.LBE7:
 414              	.LBB8:
 187:src/remotedl.c ****   DispLineMW("2. DAILY POLLING" , MW_LINE4, MW_CLREOL|MW_LEFT|MW_SPFONT);
 415              		.loc 1 187 0 is_stmt 1
 416 0092 9220     		movs	r0, #146
 417 0094 1121     		movs	r1, #17
 418 0096 FFF7FEFF 		bl	sys_func1
 419              	.LVL49:
 420 009a 0446     		mov	r4, r0
 421              	.LVL50:
 422 009c 98B1     		cbz	r0, .L26
 423              		.loc 1 187 0 is_stmt 0 discriminator 1
 424 009e 8949     		ldr	r1, .L65+12
 425 00a0 1022     		movs	r2, #16
 426 00a2 FFF7FEFF 		bl	memcpy
 427              	.LVL51:
 428 00a6 0023     		movs	r3, #0
 429 00a8 2521     		movs	r1, #37
 430 00aa 2374     		strb	r3, [r4, #16]
 431 00ac 42F22003 		movw	r3, #8224
 432 00b0 0F20     		movs	r0, #15
 433 00b2 0093     		str	r3, [sp]
 434 00b4 2246     		mov	r2, r4
ARM GAS  C:\Users\AHMED~1.ELE\AppData\Local\Temp\cce36nE7.s 			page 12


 435 00b6 4FF48063 		mov	r3, #1024
 436 00ba FFF7FEFF 		bl	lib_app_call
 437              	.LVL52:
 438 00be 9420     		movs	r0, #148
 439 00c0 2146     		mov	r1, r4
 440 00c2 FFF7FEFF 		bl	sys_func1
 441              	.LVL53:
 442              	.L26:
 443              	.LBE8:
 188:src/remotedl.c **** 
 189:src/remotedl.c ****   kbdbuf[0] = 1;
 444              		.loc 1 189 0 is_stmt 1
 445 00c6 0123     		movs	r3, #1
 190:src/remotedl.c ****   kbdbuf[1] = (remoteDl.DL_daily == DL_DISABLE) ? MWKEY_1 : MWKEY_2;
 191:src/remotedl.c ****   if (!GetKbd(NUMERIC_INPUT+MW_BIGFONT+ECHO+MW_LINE7, IMIN(1)+IMAX(1), kbdbuf)) {
 446              		.loc 1 191 0
 447 00c8 7F48     		ldr	r0, .L65+16
 189:src/remotedl.c ****   kbdbuf[1] = (remoteDl.DL_daily == DL_DISABLE) ? MWKEY_1 : MWKEY_2;
 448              		.loc 1 189 0
 449 00ca 8DF82030 		strb	r3, [sp, #32]
 190:src/remotedl.c ****   kbdbuf[1] = (remoteDl.DL_daily == DL_DISABLE) ? MWKEY_1 : MWKEY_2;
 450              		.loc 1 190 0
 451 00ce 9DF81730 		ldrb	r3, [sp, #23]	@ zero_extendqisi2
 452              		.loc 1 191 0
 453 00d2 40F20111 		movw	r1, #257
 190:src/remotedl.c ****   kbdbuf[1] = (remoteDl.DL_daily == DL_DISABLE) ? MWKEY_1 : MWKEY_2;
 454              		.loc 1 190 0
 455 00d6 FF2B     		cmp	r3, #255
 456 00d8 0CBF     		ite	eq
 457 00da 3123     		moveq	r3, #49
 458 00dc 3223     		movne	r3, #50
 459              		.loc 1 191 0
 460 00de 08AA     		add	r2, sp, #32
 190:src/remotedl.c ****   kbdbuf[1] = (remoteDl.DL_daily == DL_DISABLE) ? MWKEY_1 : MWKEY_2;
 461              		.loc 1 190 0
 462 00e0 8DF82130 		strb	r3, [sp, #33]
 463              		.loc 1 191 0
 464 00e4 FFF7FEFF 		bl	GetKbd
 465              	.LVL54:
 466 00e8 0028     		cmp	r0, #0
 467 00ea 00F0E180 		beq	.L42
 192:src/remotedl.c ****     return FALSE;
 193:src/remotedl.c ****   }
 194:src/remotedl.c **** 
 195:src/remotedl.c ****   switch (kbdbuf[1]) {
 468              		.loc 1 195 0
 469 00ee 9DF82130 		ldrb	r3, [sp, #33]	@ zero_extendqisi2
 470 00f2 312B     		cmp	r3, #49
 471 00f4 04D0     		beq	.L30
 472 00f6 322B     		cmp	r3, #50
 473 00f8 4FF00004 		mov	r4, #0
 474              	.LVL55:
 475 00fc 12D0     		beq	.L31
 476 00fe D7E0     		b	.L42
 477              	.LVL56:
 478              	.L30:
 196:src/remotedl.c ****     case MWKEY_1:
ARM GAS  C:\Users\AHMED~1.ELE\AppData\Local\Temp\cce36nE7.s 			page 13


 197:src/remotedl.c ****       // no scheduler set
 198:src/remotedl.c ****       remoteDl.DL_daily = DL_DISABLE;
 479              		.loc 1 198 0
 480 0100 FF23     		movs	r3, #255
 199:src/remotedl.c ****       WriteSFile(iRemoteDLFd, 0, &remoteDl, sizeof(struct REMOTEDL_DATA));
 200:src/remotedl.c ****       fCommitAllMW();
 481              		.loc 1 200 0
 482 0102 0024     		movs	r4, #0
 483              	.LVL57:
 198:src/remotedl.c ****       WriteSFile(iRemoteDLFd, 0, &remoteDl, sizeof(struct REMOTEDL_DATA));
 484              		.loc 1 198 0
 485 0104 8DF81730 		strb	r3, [sp, #23]
 199:src/remotedl.c ****       WriteSFile(iRemoteDLFd, 0, &remoteDl, sizeof(struct REMOTEDL_DATA));
 486              		.loc 1 199 0
 487 0108 05AA     		add	r2, sp, #20
 488 010a 6868     		ldr	r0, [r5, #4]
 489 010c 0021     		movs	r1, #0
 490 010e 0C23     		movs	r3, #12
 491 0110 FFF7FEFF 		bl	WriteSFile
 492              	.LVL58:
 493              		.loc 1 200 0
 494 0114 0094     		str	r4, [sp]
 495 0116 1321     		movs	r1, #19
 496 0118 2246     		mov	r2, r4
 497 011a 2346     		mov	r3, r4
 498 011c 0F20     		movs	r0, #15
 499 011e FFF7FEFF 		bl	lib_app_call
 500              	.LVL59:
 501 0122 C5E0     		b	.L42
 502              	.L31:
 201:src/remotedl.c ****       return FALSE;
 202:src/remotedl.c ****     case MWKEY_2:
 203:src/remotedl.c ****       remoteDl.DL_daily = DL_PENDING;
 204:src/remotedl.c ****       break;
 205:src/remotedl.c ****     default:
 206:src/remotedl.c ****       return FALSE;
 207:src/remotedl.c ****   }
 208:src/remotedl.c **** 
 209:src/remotedl.c ****   // scheduler time
 210:src/remotedl.c ****   DispClrBelowMW(MW_LINE3);
 503              		.loc 1 210 0
 504 0124 2321     		movs	r1, #35
 505 0126 4FF44072 		mov	r2, #768
 506 012a 2346     		mov	r3, r4
 507 012c 0094     		str	r4, [sp]
 508 012e 0F20     		movs	r0, #15
 203:src/remotedl.c ****       break;
 509              		.loc 1 203 0
 510 0130 8DF81740 		strb	r4, [sp, #23]
 511              		.loc 1 210 0
 512 0134 FFF7FEFF 		bl	lib_app_call
 513              	.LVL60:
 514              	.LBB9:
 211:src/remotedl.c ****   DispLineMW("1. 0 -11:59 A.M."     , MW_LINE3, MW_CLREOL|MW_LEFT|MW_SPFONT);
 515              		.loc 1 211 0
 516 0138 9220     		movs	r0, #146
 517 013a 1121     		movs	r1, #17
ARM GAS  C:\Users\AHMED~1.ELE\AppData\Local\Temp\cce36nE7.s 			page 14


 518 013c FFF7FEFF 		bl	sys_func1
 519              	.LVL61:
 520 0140 0646     		mov	r6, r0
 521              	.LVL62:
 522 0142 90B1     		cbz	r0, .L32
 523              		.loc 1 211 0 is_stmt 0 discriminator 1
 524 0144 6149     		ldr	r1, .L65+20
 525 0146 1022     		movs	r2, #16
 526 0148 FFF7FEFF 		bl	memcpy
 527              	.LVL63:
 528 014c 42F22003 		movw	r3, #8224
 529 0150 3474     		strb	r4, [r6, #16]
 530 0152 2521     		movs	r1, #37
 531 0154 0093     		str	r3, [sp]
 532 0156 0F20     		movs	r0, #15
 533 0158 3246     		mov	r2, r6
 534 015a 4FF44073 		mov	r3, #768
 535 015e FFF7FEFF 		bl	lib_app_call
 536              	.LVL64:
 537 0162 9420     		movs	r0, #148
 538 0164 3146     		mov	r1, r6
 539 0166 FFF7FEFF 		bl	sys_func1
 540              	.LVL65:
 541              	.L32:
 542              	.LBE9:
 543              	.LBB10:
 212:src/remotedl.c ****   DispLineMW("2. 12-23:59 P.M."     , MW_LINE4, MW_CLREOL|MW_LEFT|MW_SPFONT);
 544              		.loc 1 212 0 is_stmt 1
 545 016a 9220     		movs	r0, #146
 546 016c 1121     		movs	r1, #17
 547 016e FFF7FEFF 		bl	sys_func1
 548              	.LVL66:
 549 0172 0446     		mov	r4, r0
 550 0174 98B1     		cbz	r0, .L33
 551              		.loc 1 212 0 is_stmt 0 discriminator 1
 552 0176 5649     		ldr	r1, .L65+24
 553 0178 1022     		movs	r2, #16
 554 017a FFF7FEFF 		bl	memcpy
 555              	.LVL67:
 556 017e 0023     		movs	r3, #0
 557 0180 2521     		movs	r1, #37
 558 0182 2374     		strb	r3, [r4, #16]
 559 0184 42F22003 		movw	r3, #8224
 560 0188 0F20     		movs	r0, #15
 561 018a 0093     		str	r3, [sp]
 562 018c 2246     		mov	r2, r4
 563 018e 4FF48063 		mov	r3, #1024
 564 0192 FFF7FEFF 		bl	lib_app_call
 565              	.LVL68:
 566 0196 9420     		movs	r0, #148
 567 0198 2146     		mov	r1, r4
 568 019a FFF7FEFF 		bl	sys_func1
 569              	.LVL69:
 570              	.L33:
 571              	.LBE10:
 572              	.LBB11:
 213:src/remotedl.c ****   DispLineMW("3. NOW (1 time only)" , MW_LINE5, MW_CLREOL|MW_LEFT|MW_SPFONT);
ARM GAS  C:\Users\AHMED~1.ELE\AppData\Local\Temp\cce36nE7.s 			page 15


 573              		.loc 1 213 0 is_stmt 1
 574 019e 9220     		movs	r0, #146
 575 01a0 1521     		movs	r1, #21
 576 01a2 FFF7FEFF 		bl	sys_func1
 577              	.LVL70:
 578 01a6 0446     		mov	r4, r0
 579              	.LVL71:
 580 01a8 98B1     		cbz	r0, .L34
 581              		.loc 1 213 0 is_stmt 0 discriminator 1
 582 01aa 4A49     		ldr	r1, .L65+28
 583 01ac 1422     		movs	r2, #20
 584 01ae FFF7FEFF 		bl	memcpy
 585              	.LVL72:
 586 01b2 0023     		movs	r3, #0
 587 01b4 2521     		movs	r1, #37
 588 01b6 2375     		strb	r3, [r4, #20]
 589 01b8 42F22003 		movw	r3, #8224
 590 01bc 0F20     		movs	r0, #15
 591 01be 0093     		str	r3, [sp]
 592 01c0 2246     		mov	r2, r4
 593 01c2 4FF4A063 		mov	r3, #1280
 594 01c6 FFF7FEFF 		bl	lib_app_call
 595              	.LVL73:
 596 01ca 9420     		movs	r0, #148
 597 01cc 2146     		mov	r1, r4
 598 01ce FFF7FEFF 		bl	sys_func1
 599              	.LVL74:
 600              	.L34:
 601              	.LBE11:
 214:src/remotedl.c ****   kbdbuf[9] = remoteDl.DL_time_slot;
 602              		.loc 1 214 0 is_stmt 1
 603 01d2 9DF81630 		ldrb	r3, [sp, #22]	@ zero_extendqisi2
 215:src/remotedl.c ****   kbdbuf[8] = 1;
 604              		.loc 1 215 0
 605 01d6 0124     		movs	r4, #1
 606              	.LVL75:
 216:src/remotedl.c ****   if (!GetKbd(NUMERIC_INPUT+ECHO+MW_BIGFONT+NULL_ENB+MW_LINE7, IMIN(1)+IMAX(1), &kbdbuf[8]))
 607              		.loc 1 216 0
 608 01d8 3F48     		ldr	r0, .L65+32
 609 01da 40F20111 		movw	r1, #257
 610 01de 0AAA     		add	r2, sp, #40
 214:src/remotedl.c ****   kbdbuf[9] = remoteDl.DL_time_slot;
 611              		.loc 1 214 0
 612 01e0 8DF82930 		strb	r3, [sp, #41]
 215:src/remotedl.c ****   kbdbuf[8] = 1;
 613              		.loc 1 215 0
 614 01e4 8DF82840 		strb	r4, [sp, #40]
 615              		.loc 1 216 0
 616 01e8 FFF7FEFF 		bl	GetKbd
 617              	.LVL76:
 618 01ec 0028     		cmp	r0, #0
 619 01ee 5FD0     		beq	.L42
 217:src/remotedl.c ****     return FALSE;
 218:src/remotedl.c ****   switch (kbdbuf[9]) {
 620              		.loc 1 218 0
 621 01f0 9DF82930 		ldrb	r3, [sp, #41]	@ zero_extendqisi2
 622 01f4 312B     		cmp	r3, #49
ARM GAS  C:\Users\AHMED~1.ELE\AppData\Local\Temp\cce36nE7.s 			page 16


 623 01f6 5BD3     		bcc	.L42
 624 01f8 322B     		cmp	r3, #50
 625 01fa 11D9     		bls	.L36
 626 01fc 332B     		cmp	r3, #51
 627 01fe 57D1     		bne	.L42
 219:src/remotedl.c ****     case MWKEY_1:
 220:src/remotedl.c ****     case MWKEY_2:
 221:src/remotedl.c ****       remoteDl.DL_time_slot = kbdbuf[9]; // 05-07-05++ BF (3)
 222:src/remotedl.c ****       RandMW(kbdbuf);
 223:src/remotedl.c ****       memcpy( (BYTE *)&wrnd, kbdbuf, 2);
 224:src/remotedl.c ****       remoteDl.DL_min   = wrnd%60;
 225:src/remotedl.c ****       remoteDl.DL_hour  = wrnd/60;
 226:src/remotedl.c ****       remoteDl.DL_hour %= 12;
 227:src/remotedl.c ****       if (remoteDl.DL_time_slot == MWKEY_2) // PM
 228:src/remotedl.c ****         remoteDl.DL_hour += 12;
 229:src/remotedl.c ****       // convert data to BCD format for ease of comparison
 230:src/remotedl.c ****       remoteDl.DL_min  = remoteDl.DL_min/10*16 + remoteDl.DL_min%10;
 231:src/remotedl.c ****       remoteDl.DL_hour = remoteDl.DL_hour/10*16 + remoteDl.DL_hour%10;
 232:src/remotedl.c ****       break;
 233:src/remotedl.c ****     case MWKEY_3:
 234:src/remotedl.c ****       ReadRTC(&dtg);
 628              		.loc 1 234 0
 629 0200 03A8     		add	r0, sp, #12
 630 0202 FFF7FEFF 		bl	ReadRTC
 631              	.LVL77:
 235:src/remotedl.c ****       remoteDl.DL_time_slot = kbdbuf[9]; // 05-07-05++ BF (3)
 632              		.loc 1 235 0
 633 0206 9DF82930 		ldrb	r3, [sp, #41]	@ zero_extendqisi2
 634 020a 8DF81630 		strb	r3, [sp, #22]
 236:src/remotedl.c ****       remoteDl.DL_hour = dtg.bHour;
 635              		.loc 1 236 0
 636 020e 9DF81030 		ldrb	r3, [sp, #16]	@ zero_extendqisi2
 637 0212 8DF81430 		strb	r3, [sp, #20]
 237:src/remotedl.c ****       remoteDl.DL_min  = dtg.bMinute;
 638              		.loc 1 237 0
 639 0216 9DF81130 		ldrb	r3, [sp, #17]	@ zero_extendqisi2
 640 021a 8DF81530 		strb	r3, [sp, #21]
 238:src/remotedl.c ****       break;
 641              		.loc 1 238 0
 642 021e 38E0     		b	.L39
 643              	.L36:
 222:src/remotedl.c ****       memcpy( (BYTE *)&wrnd, kbdbuf, 2);
 644              		.loc 1 222 0
 645 0220 2046     		mov	r0, r4
 646 0222 08A9     		add	r1, sp, #32
 221:src/remotedl.c ****       RandMW(kbdbuf);
 647              		.loc 1 221 0
 648 0224 8DF81630 		strb	r3, [sp, #22]
 222:src/remotedl.c ****       memcpy( (BYTE *)&wrnd, kbdbuf, 2);
 649              		.loc 1 222 0
 650 0228 FFF7FEFF 		bl	sys_func1
 651              	.LVL78:
 223:src/remotedl.c ****       remoteDl.DL_min   = wrnd%60;
 652              		.loc 1 223 0
 653 022c BDF82040 		ldrh	r4, [sp, #32]
 654              	.LVL79:
 224:src/remotedl.c ****       remoteDl.DL_hour  = wrnd/60;
ARM GAS  C:\Users\AHMED~1.ELE\AppData\Local\Temp\cce36nE7.s 			page 17


 655              		.loc 1 224 0
 656 0230 3C21     		movs	r1, #60
 657 0232 2046     		mov	r0, r4
 658 0234 FFF7FEFF 		bl	__aeabi_uidivmod
 659              	.LVL80:
 225:src/remotedl.c ****       remoteDl.DL_hour %= 12;
 660              		.loc 1 225 0
 661 0238 2046     		mov	r0, r4
 224:src/remotedl.c ****       remoteDl.DL_hour  = wrnd/60;
 662              		.loc 1 224 0
 663 023a CEB2     		uxtb	r6, r1
 664              	.LVL81:
 225:src/remotedl.c ****       remoteDl.DL_hour %= 12;
 665              		.loc 1 225 0
 666 023c 3C21     		movs	r1, #60
 667 023e FFF7FEFF 		bl	__aeabi_uidiv
 668              	.LVL82:
 226:src/remotedl.c ****       if (remoteDl.DL_time_slot == MWKEY_2) // PM
 669              		.loc 1 226 0
 670 0242 0C21     		movs	r1, #12
 671 0244 C0B2     		uxtb	r0, r0
 672 0246 FFF7FEFF 		bl	__aeabi_uidivmod
 673              	.LVL83:
 227:src/remotedl.c ****         remoteDl.DL_hour += 12;
 674              		.loc 1 227 0
 675 024a 9DF81630 		ldrb	r3, [sp, #22]	@ zero_extendqisi2
 230:src/remotedl.c ****       remoteDl.DL_hour = remoteDl.DL_hour/10*16 + remoteDl.DL_hour%10;
 676              		.loc 1 230 0
 677 024e 3046     		mov	r0, r6
 227:src/remotedl.c ****         remoteDl.DL_hour += 12;
 678              		.loc 1 227 0
 679 0250 322B     		cmp	r3, #50
 226:src/remotedl.c ****       if (remoteDl.DL_time_slot == MWKEY_2) // PM
 680              		.loc 1 226 0
 681 0252 C9B2     		uxtb	r1, r1
 682 0254 8DF81410 		strb	r1, [sp, #20]
 228:src/remotedl.c ****       // convert data to BCD format for ease of comparison
 683              		.loc 1 228 0
 684 0258 04BF     		itt	eq
 685 025a 0C31     		addeq	r1, r1, #12
 686 025c 8DF81410 		strbeq	r1, [sp, #20]
 230:src/remotedl.c ****       remoteDl.DL_hour = remoteDl.DL_hour/10*16 + remoteDl.DL_hour%10;
 687              		.loc 1 230 0
 688 0260 0A21     		movs	r1, #10
 689 0262 FFF7FEFF 		bl	__aeabi_uidiv
 690              	.LVL84:
 691 0266 0A21     		movs	r1, #10
 692 0268 0401     		lsls	r4, r0, #4
 693              	.LVL85:
 694 026a 3046     		mov	r0, r6
 695 026c FFF7FEFF 		bl	__aeabi_uidivmod
 696              	.LVL86:
 231:src/remotedl.c ****       break;
 697              		.loc 1 231 0
 698 0270 9DF81460 		ldrb	r6, [sp, #20]	@ zero_extendqisi2
 699 0274 3046     		mov	r0, r6
 230:src/remotedl.c ****       remoteDl.DL_hour = remoteDl.DL_hour/10*16 + remoteDl.DL_hour%10;
ARM GAS  C:\Users\AHMED~1.ELE\AppData\Local\Temp\cce36nE7.s 			page 18


 700              		.loc 1 230 0
 701 0276 2144     		add	r1, r1, r4
 702 0278 8DF81510 		strb	r1, [sp, #21]
 231:src/remotedl.c ****       break;
 703              		.loc 1 231 0
 704 027c 0A21     		movs	r1, #10
 705 027e FFF7FEFF 		bl	__aeabi_uidiv
 706              	.LVL87:
 707 0282 0A21     		movs	r1, #10
 708 0284 0401     		lsls	r4, r0, #4
 709 0286 3046     		mov	r0, r6
 710 0288 FFF7FEFF 		bl	__aeabi_uidivmod
 711              	.LVL88:
 712 028c 2144     		add	r1, r1, r4
 713 028e 8DF81410 		strb	r1, [sp, #20]
 714              	.L39:
 239:src/remotedl.c ****     default:
 240:src/remotedl.c ****       return FALSE;
 241:src/remotedl.c ****   }
 242:src/remotedl.c **** 
 243:src/remotedl.c ****   WriteSFile(iRemoteDLFd, 0, &remoteDl, sizeof(struct REMOTEDL_DATA));
 715              		.loc 1 243 0
 716 0292 0021     		movs	r1, #0
 717 0294 05AA     		add	r2, sp, #20
 718 0296 0C23     		movs	r3, #12
 719 0298 6868     		ldr	r0, [r5, #4]
 720 029a FFF7FEFF 		bl	WriteSFile
 721              	.LVL89:
 244:src/remotedl.c ****   fCommitAllMW();
 722              		.loc 1 244 0
 723 029e 0022     		movs	r2, #0
 724 02a0 0F20     		movs	r0, #15
 725 02a2 0092     		str	r2, [sp]
 726 02a4 1321     		movs	r1, #19
 727 02a6 1346     		mov	r3, r2
 728 02a8 FFF7FEFF 		bl	lib_app_call
 729              	.LVL90:
 245:src/remotedl.c ****   return TRUE;
 730              		.loc 1 245 0
 731 02ac 0120     		movs	r0, #1
 732 02ae 00E0     		b	.L29
 733              	.LVL91:
 734              	.L42:
 240:src/remotedl.c ****   }
 735              		.loc 1 240 0
 736 02b0 0020     		movs	r0, #0
 737              	.L29:
 246:src/remotedl.c **** }
 738              		.loc 1 246 0
 739 02b2 11B0     		add	sp, sp, #68
 740              		.cfi_def_cfa_offset 20
 741              		@ sp needed
 742 02b4 F0BD     		pop	{r4, r5, r6, r7, pc}
 743              	.L66:
 744 02b6 00BF     		.align	2
 745              	.L65:
 746 02b8 00000000 		.word	.LANCHOR0
ARM GAS  C:\Users\AHMED~1.ELE\AppData\Local\Temp\cce36nE7.s 			page 19


 747 02bc 00000000 		.word	KRemoteDLSch
 748 02c0 11000000 		.word	.LC1
 749 02c4 22000000 		.word	.LC2
 750 02c8 00172000 		.word	2103040
 751 02cc 33000000 		.word	.LC3
 752 02d0 44000000 		.word	.LC4
 753 02d4 55000000 		.word	.LC5
 754 02d8 0017A000 		.word	10491648
 755              		.cfi_endproc
 756              	.LFE4:
 757              		.size	RemoteDlSetScheduler, .-RemoteDlSetScheduler
 758              		.section	.text.RemoteDlSetConfig,"ax",%progbits
 759              		.align	1
 760              		.global	RemoteDlSetConfig
 761              		.thumb
 762              		.thumb_func
 763              		.type	RemoteDlSetConfig, %function
 764              	RemoteDlSetConfig:
 765              	.LFB5:
 247:src/remotedl.c **** 
 248:src/remotedl.c **** /******************************************************************************
 249:src/remotedl.c ****  *  Function        : RemoteDlSetConfig
 250:src/remotedl.c ****  *  Description     : Set remote update scheduler. (func 68)
 251:src/remotedl.c ****  *  Input           : N/A
 252:src/remotedl.c ****  *  Return          : TRUE if success
 253:src/remotedl.c ****  *  Note            : N/A
 254:src/remotedl.c ****  *  Globals Changed : gds
 255:src/remotedl.c ****  *******************************************************************************/
 256:src/remotedl.c **** BOOLEAN RemoteDlSetConfig(void)
 257:src/remotedl.c **** {
 766              		.loc 1 257 0
 767              		.cfi_startproc
 768              		@ args = 0, pretend = 0, frame = 16
 769              		@ frame_needed = 0, uses_anonymous_args = 0
 258:src/remotedl.c **** //  BYTE kbdbuf[8];
 259:src/remotedl.c **** //  BYTE scheduler, DL_status;
 260:src/remotedl.c **** //
 261:src/remotedl.c ****   struct REMOTEDL_DATA  remoteDL_data;
 262:src/remotedl.c ****   // 16-06-14++ FL (1)
 263:src/remotedl.c ****   //BYTE buffer[24];
 264:src/remotedl.c ****   //WORD wrnd;
 265:src/remotedl.c ****   // 16-06-14-- FL (1)
 266:src/remotedl.c **** 
 267:src/remotedl.c **** //  scheduler = ProtectGetB(&gPRAM->remoteDL_data.scheduler);
 268:src/remotedl.c **** 
 269:src/remotedl.c ****   ReadSFile(iRemoteDLFd, 0, &remoteDL_data, sizeof(struct REMOTEDL_DATA));
 770              		.loc 1 269 0
 771 0000 234B     		ldr	r3, .L76
 257:src/remotedl.c **** //  BYTE kbdbuf[8];
 772              		.loc 1 257 0
 773 0002 30B5     		push	{r4, r5, lr}
 774              		.cfi_def_cfa_offset 12
 775              		.cfi_offset 4, -12
 776              		.cfi_offset 5, -8
 777              		.cfi_offset 14, -4
 270:src/remotedl.c **** 
 271:src/remotedl.c **** //
ARM GAS  C:\Users\AHMED~1.ELE\AppData\Local\Temp\cce36nE7.s 			page 20


 272:src/remotedl.c **** //  if (A21_PSWGet(NULL, P_SETTLE) == PASSWORD_OK) {
 273:src/remotedl.c **** //    ClrBelow(LINE3);
 274:src/remotedl.c ****   DispClrBelowMW(MW_LINE3);
 778              		.loc 1 274 0
 779 0004 0025     		movs	r5, #0
 257:src/remotedl.c **** //  BYTE kbdbuf[8];
 780              		.loc 1 257 0
 781 0006 87B0     		sub	sp, sp, #28
 782              		.cfi_def_cfa_offset 40
 269:src/remotedl.c **** 
 783              		.loc 1 269 0
 784 0008 5868     		ldr	r0, [r3, #4]
 785 000a 0021     		movs	r1, #0
 786 000c 03AA     		add	r2, sp, #12
 787 000e 0C23     		movs	r3, #12
 788 0010 FFF7FEFF 		bl	ReadSFile
 789              	.LVL92:
 790              		.loc 1 274 0
 791 0014 2321     		movs	r1, #35
 792 0016 4FF44072 		mov	r2, #768
 793 001a 2B46     		mov	r3, r5
 794 001c 0095     		str	r5, [sp]
 795 001e 0F20     		movs	r0, #15
 796 0020 FFF7FEFF 		bl	lib_app_call
 797              	.LVL93:
 798              	.LBB12:
 275:src/remotedl.c **** //    DispCMsg(GetConstMsg(A6_RD_MENU1), LINE1, 16+REVERSE);
 276:src/remotedl.c **** //    DispMsg("PROMPT DL. MSG.?", LINE3);
 277:src/remotedl.c **** //    DispMsg("0 - NO   1 - YES", LINE5);
 278:src/remotedl.c **** //////      DispLineMW(KRemoteDLSch, MW_LINE1, MW_REVERSE|MW_CENTER|MW_BIGFONT);
 279:src/remotedl.c **** //////      DispLineMW("PROMPT DL. MSG.?", MW_LINE3, MW_CENTER|MW_BIGFONT);
 280:src/remotedl.c **** //////      DispLineMW("0 - NO   1 - YES", MW_LINE5, MW_CENTER|MW_BIGFONT);
 281:src/remotedl.c **** //////
 282:src/remotedl.c **** //////    kbdbuf[0] = 1;
 283:src/remotedl.c **** //////    kbdbuf[1] = (gGDS.stis_data.term_cfg.reserved[10] & 0x08? '1' : '0');
 284:src/remotedl.c **** //////    if (!GetKbd(NUMERIC_INPUT+ECHO+LINE7, IMIN(1)+IMAX(1), kbdbuf))
 285:src/remotedl.c **** //////      return FALSE;
 286:src/remotedl.c **** 
 287:src/remotedl.c **** //    if (kbdbuf[1] == '0')
 288:src/remotedl.c **** //      gGDS.stis_data.term_cfg.reserved[10] &= ~0x08;
 289:src/remotedl.c **** //    else
 290:src/remotedl.c **** //      gGDS.stis_data.term_cfg.reserved[10] |= 0x08;
 291:src/remotedl.c **** //    UpdTermCfg();
 292:src/remotedl.c **** //
 293:src/remotedl.c **** //    // 2. Set remote download options (disable, app/param or both)
 294:src/remotedl.c **** //    ClrBelow(LINE3);
 295:src/remotedl.c **** //    DispEMsg("1. NONE",             LINE3, 7);
 296:src/remotedl.c **** //    DispEMsg("2. APP & PARAM",      LINE4, 14);
 297:src/remotedl.c ****   DispLineMW("1. NONE"       , MW_LINE3, MW_CLREOL|MW_CENTER|MW_BIGFONT);
 799              		.loc 1 297 0
 800 0024 9220     		movs	r0, #146
 801 0026 0821     		movs	r1, #8
 802 0028 FFF7FEFF 		bl	sys_func1
 803              	.LVL94:
 804 002c 0446     		mov	r4, r0
 805 002e 90B1     		cbz	r0, .L68
 806              		.loc 1 297 0 is_stmt 0 discriminator 1
ARM GAS  C:\Users\AHMED~1.ELE\AppData\Local\Temp\cce36nE7.s 			page 21


 807 0030 1849     		ldr	r1, .L76+4
 808 0032 0722     		movs	r2, #7
 809 0034 FFF7FEFF 		bl	memcpy
 810              	.LVL95:
 811 0038 41F22203 		movw	r3, #4130
 812 003c E571     		strb	r5, [r4, #7]
 813 003e 2521     		movs	r1, #37
 814 0040 0093     		str	r3, [sp]
 815 0042 0F20     		movs	r0, #15
 816 0044 2246     		mov	r2, r4
 817 0046 4FF44073 		mov	r3, #768
 818 004a FFF7FEFF 		bl	lib_app_call
 819              	.LVL96:
 820 004e 9420     		movs	r0, #148
 821 0050 2146     		mov	r1, r4
 822 0052 FFF7FEFF 		bl	sys_func1
 823              	.LVL97:
 824              	.L68:
 825              	.LBE12:
 826              	.LBB13:
 298:src/remotedl.c ****   DispLineMW("2. APP & PARAM", MW_LINE4, MW_CLREOL|MW_CENTER|MW_BIGFONT);
 827              		.loc 1 298 0 is_stmt 1
 828 0056 9220     		movs	r0, #146
 829 0058 0F21     		movs	r1, #15
 830 005a FFF7FEFF 		bl	sys_func1
 831              	.LVL98:
 832 005e 0446     		mov	r4, r0
 833              	.LVL99:
 834 0060 98B1     		cbz	r0, .L69
 835              		.loc 1 298 0 is_stmt 0 discriminator 1
 836 0062 0D49     		ldr	r1, .L76+8
 837 0064 0E22     		movs	r2, #14
 838 0066 FFF7FEFF 		bl	memcpy
 839              	.LVL100:
 840 006a 0023     		movs	r3, #0
 841 006c 2521     		movs	r1, #37
 842 006e A373     		strb	r3, [r4, #14]
 843 0070 41F22203 		movw	r3, #4130
 844 0074 0F20     		movs	r0, #15
 845 0076 0093     		str	r3, [sp]
 846 0078 2246     		mov	r2, r4
 847 007a 4FF48063 		mov	r3, #1024
 848 007e FFF7FEFF 		bl	lib_app_call
 849              	.LVL101:
 850 0082 9420     		movs	r0, #148
 851 0084 2146     		mov	r1, r4
 852 0086 FFF7FEFF 		bl	sys_func1
 853              	.LVL102:
 854              	.L69:
 855              	.LBE13:
 299:src/remotedl.c **** //    kbdbuf[0] = 1;
 300:src/remotedl.c **** //    kbdbuf[1] = (scheduler == 0x00) ? '1' : scheduler+1;
 301:src/remotedl.c **** //    if (!GetKbd(NUMERIC_INPUT+ECHO+LINE7, 1, kbdbuf))
 302:src/remotedl.c **** //      return FALSE;
 303:src/remotedl.c **** //    switch (kbdbuf[1]) {
 304:src/remotedl.c **** //    case MWKEY_1:
 305:src/remotedl.c **** //      scheduler = DLOAD_NO;
ARM GAS  C:\Users\AHMED~1.ELE\AppData\Local\Temp\cce36nE7.s 			page 22


 306:src/remotedl.c **** //      break;
 307:src/remotedl.c **** //    case MWKEY_2:
 308:src/remotedl.c **** //      scheduler = DLOAD_ALL;
 309:src/remotedl.c **** //      break;
 310:src/remotedl.c **** //    }
 311:src/remotedl.c **** //    if (kbdbuf[1] >= MWKEY_2 || kbdbuf[1] <= MWKEY_4)
 312:src/remotedl.c **** //      DL_status = 0; // Reset download status if manually assign the job again.
 313:src/remotedl.c **** //    ProtectPutB(&gPRAM->remoteDL_data.scheduler, scheduler);
 314:src/remotedl.c **** //    ProtectPutB(&gPRAM->remoteDL_data.DL_status, DL_status);
 315:src/remotedl.c **** //  } // password_ok
 316:src/remotedl.c **** //  else {
 317:src/remotedl.c **** //    return FALSE;
 318:src/remotedl.c **** //  }
 319:src/remotedl.c **** //
 320:src/remotedl.c **** //  SaveFsRemoteDlParam();               // 12-02-08 CP (3)
 321:src/remotedl.c ****   return TRUE;
 322:src/remotedl.c **** }
 856              		.loc 1 322 0 is_stmt 1
 857 008a 0120     		movs	r0, #1
 858 008c 07B0     		add	sp, sp, #28
 859              		.cfi_def_cfa_offset 12
 860              		@ sp needed
 861 008e 30BD     		pop	{r4, r5, pc}
 862              	.LVL103:
 863              	.L77:
 864              		.align	2
 865              	.L76:
 866 0090 00000000 		.word	.LANCHOR0
 867 0094 6A000000 		.word	.LC6
 868 0098 72000000 		.word	.LC7
 869              		.cfi_endproc
 870              	.LFE5:
 871              		.size	RemoteDlSetConfig, .-RemoteDlSetConfig
 872              		.section	.text.RemoteDlFailHdl,"ax",%progbits
 873              		.align	1
 874              		.global	RemoteDlFailHdl
 875              		.thumb
 876              		.thumb_func
 877              		.type	RemoteDlFailHdl, %function
 878              	RemoteDlFailHdl:
 879              	.LFB6:
 323:src/remotedl.c **** 
 324:src/remotedl.c **** /******************************************************************************
 325:src/remotedl.c ****  *  Function        : RemoteDlFailHdl
 326:src/remotedl.c ****  *  Description     : Remote download fail handler
 327:src/remotedl.c ****  *  Input           : N/A
 328:src/remotedl.c ****  *  Return          : N/A
 329:src/remotedl.c ****  *  Note            : N/A
 330:src/remotedl.c ****  *  Globals Changed : N/A
 331:src/remotedl.c ****  *******************************************************************************/
 332:src/remotedl.c **** void RemoteDlFailHdl(void)
 333:src/remotedl.c **** {
 880              		.loc 1 333 0
 881              		.cfi_startproc
 882              		@ args = 0, pretend = 0, frame = 16
 883              		@ frame_needed = 0, uses_anonymous_args = 0
 884 0000 30B5     		push	{r4, r5, lr}
ARM GAS  C:\Users\AHMED~1.ELE\AppData\Local\Temp\cce36nE7.s 			page 23


 885              		.cfi_def_cfa_offset 12
 886              		.cfi_offset 4, -12
 887              		.cfi_offset 5, -8
 888              		.cfi_offset 14, -4
 334:src/remotedl.c ****   struct REMOTEDL_DATA remoteDl;
 335:src/remotedl.c **** 
 336:src/remotedl.c ****   ReadSFile(iRemoteDLFd, 0, &remoteDl, sizeof(struct REMOTEDL_DATA));
 889              		.loc 1 336 0
 890 0002 254D     		ldr	r5, .L90
 333:src/remotedl.c ****   struct REMOTEDL_DATA remoteDl;
 891              		.loc 1 333 0
 892 0004 87B0     		sub	sp, sp, #28
 893              		.cfi_def_cfa_offset 40
 894              		.loc 1 336 0
 895 0006 0C23     		movs	r3, #12
 896 0008 6868     		ldr	r0, [r5, #4]
 897 000a 0021     		movs	r1, #0
 898 000c 03AA     		add	r2, sp, #12
 899 000e FFF7FEFF 		bl	ReadSFile
 900              	.LVL104:
 337:src/remotedl.c ****   remoteDl.DL_retry_time = (remoteDl.DL_retry_time >= DL_FAIL_RETRY) ? DL_FAIL_RETRY : remoteDl.DL_
 901              		.loc 1 337 0
 902 0012 9DF81330 		ldrb	r3, [sp, #19]	@ zero_extendqisi2
 903 0016 042B     		cmp	r3, #4
 904 0018 96BF     		itet	ls
 905 001a 0133     		addls	r3, r3, #1
 906 001c 0523     		movhi	r3, #5
 907 001e DBB2     		uxtbls	r3, r3
 338:src/remotedl.c **** 
 339:src/remotedl.c ****   if ((remoteDl.DL_retry_time >= DL_FAIL_RETRY) && (GetRecCount()==0)) {  // empty batch
 908              		.loc 1 339 0
 909 0020 052B     		cmp	r3, #5
 337:src/remotedl.c ****   remoteDl.DL_retry_time = (remoteDl.DL_retry_time >= DL_FAIL_RETRY) ? DL_FAIL_RETRY : remoteDl.DL_
 910              		.loc 1 337 0
 911 0022 8DF81330 		strb	r3, [sp, #19]
 912              		.loc 1 339 0
 913 0026 2ED1     		bne	.L81
 914              		.loc 1 339 0 is_stmt 0 discriminator 1
 915 0028 FFF7FEFF 		bl	GetRecCount
 916              	.LVL105:
 917 002c 0446     		mov	r4, r0
 918 002e 50BB     		cbnz	r0, .L81
 340:src/remotedl.c ****     remoteDl.DL_retry_time = 0;
 919              		.loc 1 340 0 is_stmt 1
 920 0030 8DF81300 		strb	r0, [sp, #19]
 341:src/remotedl.c ****     WriteSFile(iRemoteDLFd, 0, &remoteDl, sizeof(struct REMOTEDL_DATA));
 921              		.loc 1 341 0
 922 0034 0C23     		movs	r3, #12
 923 0036 6868     		ldr	r0, [r5, #4]
 924 0038 2146     		mov	r1, r4
 925 003a 03AA     		add	r2, sp, #12
 926 003c FFF7FEFF 		bl	WriteSFile
 927              	.LVL106:
 342:src/remotedl.c ****     if (remoteDl.DL_status != 0x00) {
 928              		.loc 1 342 0
 929 0040 9DF81130 		ldrb	r3, [sp, #17]	@ zero_extendqisi2
 930 0044 FBB1     		cbz	r3, .L81
ARM GAS  C:\Users\AHMED~1.ELE\AppData\Local\Temp\cce36nE7.s 			page 24


 343:src/remotedl.c ****       if (remoteDl.scheduler != DLOAD_NO) {
 931              		.loc 1 343 0
 932 0046 9DF81030 		ldrb	r3, [sp, #16]	@ zero_extendqisi2
 933 004a E3B1     		cbz	r3, .L81
 344:src/remotedl.c ****         //25-06-14++ SC (1)
 345:src/remotedl.c ****         //if (STISFTPDownloadTrans(FALSE, MODE_ALL_PARAM_APP) == TRANS_ACP) {
 346:src/remotedl.c ****         if (STISFTPDownloadTrans(FALSE, MODE_ALL_PARAM_APP, FALSE) == TRANS_ACP) {
 934              		.loc 1 346 0
 935 004c 2046     		mov	r0, r4
 936 004e 2246     		mov	r2, r4
 937 0050 FF21     		movs	r1, #255
 938 0052 FFF7FEFF 		bl	STISFTPDownloadTrans
 939              	.LVL107:
 940 0056 0446     		mov	r4, r0
 941 0058 A8B9     		cbnz	r0, .L81
 347:src/remotedl.c ****           //25-06-14-- SC (1)
 348:src/remotedl.c **** 
 349:src/remotedl.c **** //          if (GetSTISMode() == TRANS_MODE) {
 350:src/remotedl.c **** //            InitEMV();
 351:src/remotedl.c **** //            InitApplTbl();
 352:src/remotedl.c **** //            InitAcqSupport();
 353:src/remotedl.c **** //          }
 354:src/remotedl.c ****           remoteDl.scheduler = DLOAD_NO;
 355:src/remotedl.c ****           remoteDl.DL_status = 0x00;
 356:src/remotedl.c ****           WriteSFile(iRemoteDLFd, 0, &remoteDl, sizeof(struct REMOTEDL_DATA));
 942              		.loc 1 356 0
 943 005a 0F4B     		ldr	r3, .L90
 354:src/remotedl.c ****           remoteDl.DL_status = 0x00;
 944              		.loc 1 354 0
 945 005c 8DF81000 		strb	r0, [sp, #16]
 355:src/remotedl.c ****           WriteSFile(iRemoteDLFd, 0, &remoteDl, sizeof(struct REMOTEDL_DATA));
 946              		.loc 1 355 0
 947 0060 8DF81100 		strb	r0, [sp, #17]
 948              		.loc 1 356 0
 949 0064 2146     		mov	r1, r4
 950 0066 5868     		ldr	r0, [r3, #4]
 951 0068 03AA     		add	r2, sp, #12
 952 006a 0C23     		movs	r3, #12
 953 006c FFF7FEFF 		bl	WriteSFile
 954              	.LVL108:
 357:src/remotedl.c ****           fCommitAllMW();
 955              		.loc 1 357 0
 956 0070 0094     		str	r4, [sp]
 957 0072 0F20     		movs	r0, #15
 958 0074 1321     		movs	r1, #19
 959 0076 2246     		mov	r2, r4
 960 0078 2346     		mov	r3, r4
 961 007a FFF7FEFF 		bl	lib_app_call
 962              	.LVL109:
 358:src/remotedl.c ****           ResetMW();
 963              		.loc 1 358 0
 964 007e 4FF4CF70 		mov	r0, #414
 965 0082 FFF7FEFF 		bl	sys_func0
 966              	.LVL110:
 967              	.L81:
 359:src/remotedl.c ****         }
 360:src/remotedl.c ****       }
ARM GAS  C:\Users\AHMED~1.ELE\AppData\Local\Temp\cce36nE7.s 			page 25


 361:src/remotedl.c ****     }
 362:src/remotedl.c ****   } // if empty batch
 363:src/remotedl.c **** 
 364:src/remotedl.c ****   WriteSFile(iRemoteDLFd, 0, &remoteDl, sizeof(struct REMOTEDL_DATA));
 968              		.loc 1 364 0
 969 0086 6868     		ldr	r0, [r5, #4]
 970 0088 0021     		movs	r1, #0
 971 008a 03AA     		add	r2, sp, #12
 972 008c 0C23     		movs	r3, #12
 973 008e FFF7FEFF 		bl	WriteSFile
 974              	.LVL111:
 365:src/remotedl.c **** }
 975              		.loc 1 365 0
 976 0092 07B0     		add	sp, sp, #28
 977              		.cfi_def_cfa_offset 12
 978              		@ sp needed
 979 0094 30BD     		pop	{r4, r5, pc}
 980              	.L91:
 981 0096 00BF     		.align	2
 982              	.L90:
 983 0098 00000000 		.word	.LANCHOR0
 984              		.cfi_endproc
 985              	.LFE6:
 986              		.size	RemoteDlFailHdl, .-RemoteDlFailHdl
 987              		.section	.text.RemoteDlResetData,"ax",%progbits
 988              		.align	1
 989              		.global	RemoteDlResetData
 990              		.thumb
 991              		.thumb_func
 992              		.type	RemoteDlResetData, %function
 993              	RemoteDlResetData:
 994              	.LFB8:
 366:src/remotedl.c **** 
 367:src/remotedl.c **** /******************************************************************************
 368:src/remotedl.c ****  *  Function        : RemoteDlChkScheduler
 369:src/remotedl.c ****  *  Description     : Check remote update scheduler.
 370:src/remotedl.c ****  *  Input           : N/A
 371:src/remotedl.c ****  *  Return          : TRUE if polling started
 372:src/remotedl.c ****  *  Note            : N/A
 373:src/remotedl.c ****  *  Globals Changed : gds
 374:src/remotedl.c ****  *******************************************************************************/
 375:src/remotedl.c **** BYTE RemoteDlChkScheduler(void)
 376:src/remotedl.c **** {
 377:src/remotedl.c ****   WORD wrnd;
 378:src/remotedl.c ****   BYTE result = FALSE;
 379:src/remotedl.c ****   BYTE tmp[8];
 380:src/remotedl.c ****   struct DATETIME dtg;
 381:src/remotedl.c ****   struct REMOTEDL_DATA remoteDl;
 382:src/remotedl.c **** 
 383:src/remotedl.c ****   ReadSFile(iRemoteDLFd, 0, &remoteDl, sizeof(struct REMOTEDL_DATA));
 384:src/remotedl.c **** 
 385:src/remotedl.c ****   // no key update if training on
 386:src/remotedl.c ****   if ((GetSTISMode() != SETUP_MODE) && !TrainingModeON()) {
 387:src/remotedl.c ****     ReadRTC(&dtg);
 388:src/remotedl.c **** 
 389:src/remotedl.c ****     switch (remoteDl.DL_daily){
 390:src/remotedl.c ****       case DL_DONE: // already done
ARM GAS  C:\Users\AHMED~1.ELE\AppData\Local\Temp\cce36nE7.s 			page 26


 391:src/remotedl.c ****         //only change flag in non-scheduled time-slot
 392:src/remotedl.c ****         if ((remoteDl.DL_time_slot == MWKEY_1 && dtg.bHour == 0x23) ||
 393:src/remotedl.c ****             (remoteDl.DL_time_slot == MWKEY_2 && dtg.bHour == 0x11)) { // KEY1 = AM, KEY2 = PM
 394:src/remotedl.c ****           remoteDl.DL_daily = DL_PENDING;       // clear flag
 395:src/remotedl.c ****         }
 396:src/remotedl.c **** //16-07-14++ SC (2)
 397:src/remotedl.c **** //        // New requirement: if any application change detected, upload the application list via t
 398:src/remotedl.c **** //        if (AppListUploadReq() == APPL_UPLOAD_PENDING) {
 399:src/remotedl.c ****         if (GetRDLForceUpload()) {
 400:src/remotedl.c **** //16-07-14-- SC (2)
 401:src/remotedl.c ****           remoteDl.DL_daily = DL_PENDING;       // clear flag
 402:src/remotedl.c ****         }
 403:src/remotedl.c ****         break;
 404:src/remotedl.c ****       case DL_PENDING:  // daily schedule
 405:src/remotedl.c ****         if ( ((dtg.bHour == remoteDl.DL_hour) && (dtg.bMinute >= remoteDl.DL_min))  // time due
 406:src/remotedl.c ****              || ((dtg.bHour > remoteDl.DL_hour) && ((dtg.bHour < 0x12) || (remoteDl.DL_hour > 0x11)
 407:src/remotedl.c ****           STISFTPPolling(&remoteDl);
 408:src/remotedl.c ****           result   = TRUE;
 409:src/remotedl.c ****         }
 410:src/remotedl.c **** //16-07-14++ SC (2)
 411:src/remotedl.c **** //        // New requirement: if any application change detected, upload the application list via t
 412:src/remotedl.c **** //        if (AppListUploadReq() == APPL_UPLOAD_PENDING) {
 413:src/remotedl.c ****         else if (GetRDLForceUpload()) {
 414:src/remotedl.c **** //16-07-14-- SC (2)
 415:src/remotedl.c ****           STISFTPPolling(&remoteDl);
 416:src/remotedl.c ****           result   = TRUE;
 417:src/remotedl.c ****         }
 418:src/remotedl.c ****         remoteDl.DL_force_upload = 0x00; //force upload triggered, reset flag and perform the uplao
 419:src/remotedl.c ****         break;
 420:src/remotedl.c **** //16-07-14++ SC (2)
 421:src/remotedl.c **** //In direct logic, the terminal should have re-schedule the checkin/polling time in retry 3 if the 
 422:src/remotedl.c **** //is not required.
 423:src/remotedl.c **** //However, for simplicity, here we just ignore the 3rd to 5th retry to wait remoteDl.DL_daily to co
 424:src/remotedl.c ****       case DL_RETRY3:
 425:src/remotedl.c ****       case DL_RETRY4:
 426:src/remotedl.c ****       case DL_RETRY5:
 427:src/remotedl.c ****         if (AppListUploadReq() != APPL_UPLOAD_PENDING) {
 428:src/remotedl.c ****           remoteDl.DL_daily++;
 429:src/remotedl.c ****           break;
 430:src/remotedl.c ****         }
 431:src/remotedl.c ****         //drop through intentionally
 432:src/remotedl.c **** //16-07-14-- SC (2)
 433:src/remotedl.c ****       case DL_RETRY1: // retry count reach
 434:src/remotedl.c ****       case DL_RETRY2:
 435:src/remotedl.c ****         STISFTPPolling(&remoteDl);
 436:src/remotedl.c ****         result   = TRUE;
 437:src/remotedl.c ****         break;
 438:src/remotedl.c ****       case DL_DISABLE:  // no schedule set
 439:src/remotedl.c ****         break;
 440:src/remotedl.c ****       case DL_FAIL:
 441:src/remotedl.c **** //16-07-14++ SC (2)
 442:src/remotedl.c **** //        if (AppListUploadReq() == APPL_UPLOAD_PENDING) {
 443:src/remotedl.c **** //          remoteDl.DL_daily = DL_PENDING; // Let the loop to restart to force the upload is made 
 444:src/remotedl.c **** //          STISFTPPolling(&remoteDl);
 445:src/remotedl.c **** //        } else
 446:src/remotedl.c **** //16-07-14-- SC (2)
 447:src/remotedl.c ****         if ((remoteDl.DL_time_slot == MWKEY_1 && dtg.bHour == 0x23) ||
ARM GAS  C:\Users\AHMED~1.ELE\AppData\Local\Temp\cce36nE7.s 			page 27


 448:src/remotedl.c ****             (remoteDl.DL_time_slot == MWKEY_2 && dtg.bHour == 0x11)) { // KEY1 = AM, KEY2 = PM
 449:src/remotedl.c ****           RandMW(&tmp);
 450:src/remotedl.c ****           memcpy((BYTE *)&wrnd, &tmp, 2);
 451:src/remotedl.c ****           remoteDl.DL_min   = wrnd%60;
 452:src/remotedl.c ****           remoteDl.DL_hour  = wrnd/60;
 453:src/remotedl.c ****           remoteDl.DL_hour %= 12;
 454:src/remotedl.c ****           if (remoteDl.DL_time_slot == MWKEY_2) // PM
 455:src/remotedl.c ****             remoteDl.DL_hour += 12;
 456:src/remotedl.c ****           // convert data to BCD format for ease of comparison
 457:src/remotedl.c ****           remoteDl.DL_min   = remoteDl.DL_min/10*16  + remoteDl.DL_min%10;
 458:src/remotedl.c ****           remoteDl.DL_hour  = remoteDl.DL_hour/10*16 + remoteDl.DL_hour%10;
 459:src/remotedl.c ****           remoteDl.DL_daily = DL_PENDING; // clear flag
 460:src/remotedl.c ****           WriteSFile(iRemoteDLFd, 0, &remoteDl, sizeof(struct REMOTEDL_DATA));
 461:src/remotedl.c ****         }
 462:src/remotedl.c ****         else if (remoteDl.DL_time_slot == MWKEY_3) {
 463:src/remotedl.c ****           remoteDl.DL_daily = DL_DISABLE;
 464:src/remotedl.c ****         }
 465:src/remotedl.c ****         break;
 466:src/remotedl.c ****       default:  // waiting for next retry or give up
 467:src/remotedl.c ****         remoteDl.DL_daily ++; // increment every 1s
 468:src/remotedl.c ****         break;
 469:src/remotedl.c ****     }
 470:src/remotedl.c ****   }
 471:src/remotedl.c **** 
 472:src/remotedl.c ****   RemoteDlStartTimer(POLLING_INTERVAL);
 473:src/remotedl.c ****   WriteSFile(iRemoteDLFd, 0, &remoteDl, sizeof(struct REMOTEDL_DATA));
 474:src/remotedl.c ****   fCommitAllMW();
 475:src/remotedl.c ****   return result;
 476:src/remotedl.c **** }
 477:src/remotedl.c **** 
 478:src/remotedl.c **** /******************************************************************************
 479:src/remotedl.c ****  *  Function        : RemoteDlResetData
 480:src/remotedl.c ****  *  Description     : remote download initialization
 481:src/remotedl.c ****  *  Input           : N/A
 482:src/remotedl.c ****  *  Return          : N/A
 483:src/remotedl.c ****  *  Note            : N/A
 484:src/remotedl.c ****  *  Globals Changed : gPram
 485:src/remotedl.c ****  *******************************************************************************/
 486:src/remotedl.c **** void RemoteDlResetData(void)
 487:src/remotedl.c **** {
 995              		.loc 1 487 0
 996              		.cfi_startproc
 997              		@ args = 0, pretend = 0, frame = 40
 998              		@ frame_needed = 0, uses_anonymous_args = 0
 999 0000 F0B5     		push	{r4, r5, r6, r7, lr}
 1000              		.cfi_def_cfa_offset 20
 1001              		.cfi_offset 4, -20
 1002              		.cfi_offset 5, -16
 1003              		.cfi_offset 6, -12
 1004              		.cfi_offset 7, -8
 1005              		.cfi_offset 14, -4
 488:src/remotedl.c ****   struct REMOTEDL_DATA  remoteDL_data;
 489:src/remotedl.c ****   BYTE buffer[24];
 490:src/remotedl.c ****   WORD wrnd;
 491:src/remotedl.c **** 
 492:src/remotedl.c ****   memset(&remoteDL_data, 0, sizeof(struct REMOTEDL_DATA));
 1006              		.loc 1 492 0
ARM GAS  C:\Users\AHMED~1.ELE\AppData\Local\Temp\cce36nE7.s 			page 28


 1007 0002 0C25     		movs	r5, #12
 487:src/remotedl.c ****   struct REMOTEDL_DATA  remoteDL_data;
 1008              		.loc 1 487 0
 1009 0004 8DB0     		sub	sp, sp, #52
 1010              		.cfi_def_cfa_offset 72
 1011              		.loc 1 492 0
 1012 0006 2A46     		mov	r2, r5
 1013 0008 0DEB0500 		add	r0, sp, r5
 1014 000c 0021     		movs	r1, #0
 1015 000e FFF7FEFF 		bl	memset
 1016              	.LVL112:
 493:src/remotedl.c **** 
 494:src/remotedl.c ****   //default enable daily polling
 495:src/remotedl.c ****   remoteDL_data.DL_daily = DL_DISABLE;    //for fail safe, disable it
 1017              		.loc 1 495 0
 1018 0012 FF23     		movs	r3, #255
 496:src/remotedl.c **** #if 0
 497:src/remotedl.c ****   remoteDL_data.DL_daily = DL_PENDING;
 498:src/remotedl.c ****   remoteDL_data.DL_time_slot = MWKEY_1;
 499:src/remotedl.c **** #endif
 500:src/remotedl.c ****   RandMW(buffer);
 1019              		.loc 1 500 0
 1020 0014 06A9     		add	r1, sp, #24
 1021 0016 0120     		movs	r0, #1
 495:src/remotedl.c **** #if 0
 1022              		.loc 1 495 0
 1023 0018 8DF80F30 		strb	r3, [sp, #15]
 1024              		.loc 1 500 0
 1025 001c FFF7FEFF 		bl	sys_func1
 1026              	.LVL113:
 501:src/remotedl.c ****   memcpy((BYTE *)&wrnd, buffer, 2);
 1027              		.loc 1 501 0
 1028 0020 BDF81840 		ldrh	r4, [sp, #24]
 1029              	.LVL114:
 502:src/remotedl.c ****   remoteDL_data.DL_min   = wrnd%60;
 1030              		.loc 1 502 0
 1031 0024 3C21     		movs	r1, #60
 1032 0026 2046     		mov	r0, r4
 1033 0028 FFF7FEFF 		bl	__aeabi_uidivmod
 1034              	.LVL115:
 503:src/remotedl.c ****   remoteDL_data.DL_hour  = wrnd/60;
 1035              		.loc 1 503 0
 1036 002c 2046     		mov	r0, r4
 502:src/remotedl.c ****   remoteDL_data.DL_min   = wrnd%60;
 1037              		.loc 1 502 0
 1038 002e CFB2     		uxtb	r7, r1
 1039              		.loc 1 503 0
 1040 0030 3C21     		movs	r1, #60
 1041 0032 FFF7FEFF 		bl	__aeabi_uidiv
 1042              	.LVL116:
 504:src/remotedl.c ****   remoteDL_data.DL_hour %= 12;
 1043              		.loc 1 504 0
 1044 0036 2946     		mov	r1, r5
 1045 0038 C0B2     		uxtb	r0, r0
 1046 003a FFF7FEFF 		bl	__aeabi_uidivmod
 1047              	.LVL117:
 505:src/remotedl.c ****   // convert data to BCD format for ease of comparison
ARM GAS  C:\Users\AHMED~1.ELE\AppData\Local\Temp\cce36nE7.s 			page 29


 506:src/remotedl.c ****   remoteDL_data.DL_min  = remoteDL_data.DL_min/10*16 + remoteDL_data.DL_min%10;
 1048              		.loc 1 506 0
 1049 003e 3846     		mov	r0, r7
 504:src/remotedl.c ****   remoteDL_data.DL_hour %= 12;
 1050              		.loc 1 504 0
 1051 0040 CEB2     		uxtb	r6, r1
 1052              		.loc 1 506 0
 1053 0042 0A21     		movs	r1, #10
 1054 0044 FFF7FEFF 		bl	__aeabi_uidiv
 1055              	.LVL118:
 1056 0048 0A21     		movs	r1, #10
 1057 004a 0401     		lsls	r4, r0, #4
 1058              	.LVL119:
 1059 004c 3846     		mov	r0, r7
 1060 004e FFF7FEFF 		bl	__aeabi_uidivmod
 1061              	.LVL120:
 507:src/remotedl.c ****   remoteDL_data.DL_hour = remoteDL_data.DL_hour/10*16 + remoteDL_data.DL_hour%10;
 1062              		.loc 1 507 0
 1063 0052 3046     		mov	r0, r6
 506:src/remotedl.c ****   remoteDL_data.DL_hour = remoteDL_data.DL_hour/10*16 + remoteDL_data.DL_hour%10;
 1064              		.loc 1 506 0
 1065 0054 2144     		add	r1, r1, r4
 1066 0056 8DF80D10 		strb	r1, [sp, #13]
 1067              		.loc 1 507 0
 1068 005a 0A21     		movs	r1, #10
 1069 005c FFF7FEFF 		bl	__aeabi_uidiv
 1070              	.LVL121:
 1071 0060 0A21     		movs	r1, #10
 1072 0062 0401     		lsls	r4, r0, #4
 1073 0064 3046     		mov	r0, r6
 1074 0066 FFF7FEFF 		bl	__aeabi_uidivmod
 1075              	.LVL122:
 508:src/remotedl.c ****   remoteDL_data.scheduler = DLOAD_NO;
 509:src/remotedl.c **** 
 510:src/remotedl.c ****   remoteDL_data.DL_force_upload = 0x00;
 511:src/remotedl.c **** 
 512:src/remotedl.c ****   WriteSFile(iRemoteDLFd, 0, &remoteDL_data, sizeof(struct REMOTEDL_DATA));
 1076              		.loc 1 512 0
 1077 006a 0C4B     		ldr	r3, .L93
 1078 006c 0DEB0502 		add	r2, sp, r5
 1079 0070 5868     		ldr	r0, [r3, #4]
 507:src/remotedl.c ****   remoteDL_data.scheduler = DLOAD_NO;
 1080              		.loc 1 507 0
 1081 0072 2144     		add	r1, r1, r4
 508:src/remotedl.c ****   remoteDL_data.scheduler = DLOAD_NO;
 1082              		.loc 1 508 0
 1083 0074 0024     		movs	r4, #0
 507:src/remotedl.c ****   remoteDL_data.scheduler = DLOAD_NO;
 1084              		.loc 1 507 0
 1085 0076 8DF80C10 		strb	r1, [sp, #12]
 1086              		.loc 1 512 0
 1087 007a 2B46     		mov	r3, r5
 1088 007c 2146     		mov	r1, r4
 508:src/remotedl.c ****   remoteDL_data.scheduler = DLOAD_NO;
 1089              		.loc 1 508 0
 1090 007e 8DF81040 		strb	r4, [sp, #16]
 510:src/remotedl.c **** 
ARM GAS  C:\Users\AHMED~1.ELE\AppData\Local\Temp\cce36nE7.s 			page 30


 1091              		.loc 1 510 0
 1092 0082 8DF81440 		strb	r4, [sp, #20]
 1093              		.loc 1 512 0
 1094 0086 FFF7FEFF 		bl	WriteSFile
 1095              	.LVL123:
 513:src/remotedl.c ****   fCommitAllMW();
 1096              		.loc 1 513 0
 1097 008a 0094     		str	r4, [sp]
 1098 008c 1321     		movs	r1, #19
 1099 008e 2246     		mov	r2, r4
 1100 0090 2346     		mov	r3, r4
 1101 0092 0F20     		movs	r0, #15
 1102 0094 FFF7FEFF 		bl	lib_app_call
 1103              	.LVL124:
 514:src/remotedl.c **** }
 1104              		.loc 1 514 0
 1105 0098 0DB0     		add	sp, sp, #52
 1106              		.cfi_def_cfa_offset 20
 1107              		@ sp needed
 1108 009a F0BD     		pop	{r4, r5, r6, r7, pc}
 1109              	.L94:
 1110              		.align	2
 1111              	.L93:
 1112 009c 00000000 		.word	.LANCHOR0
 1113              		.cfi_endproc
 1114              	.LFE8:
 1115              		.size	RemoteDlResetData, .-RemoteDlResetData
 1116              		.section	.text.RemoteDlInit,"ax",%progbits
 1117              		.align	1
 1118              		.global	RemoteDlInit
 1119              		.thumb
 1120              		.thumb_func
 1121              		.type	RemoteDlInit, %function
 1122              	RemoteDlInit:
 1123              	.LFB1:
  70:src/remotedl.c ****   BYTE filename[32];
 1124              		.loc 1 70 0
 1125              		.cfi_startproc
 1126              		@ args = 0, pretend = 0, frame = 32
 1127              		@ frame_needed = 0, uses_anonymous_args = 0
 1128 0000 30B5     		push	{r4, r5, lr}
 1129              		.cfi_def_cfa_offset 12
 1130              		.cfi_offset 4, -12
 1131              		.cfi_offset 5, -8
 1132              		.cfi_offset 14, -4
  76:src/remotedl.c **** 
 1133              		.loc 1 76 0
 1134 0002 174C     		ldr	r4, .L99
  70:src/remotedl.c ****   BYTE filename[32];
 1135              		.loc 1 70 0
 1136 0004 8BB0     		sub	sp, sp, #44
 1137              		.cfi_def_cfa_offset 56
  76:src/remotedl.c **** 
 1138              		.loc 1 76 0
 1139 0006 2146     		mov	r1, r4
 1140 0008 02A8     		add	r0, sp, #8
 1141 000a FFF7FEFF 		bl	strcpy
ARM GAS  C:\Users\AHMED~1.ELE\AppData\Local\Temp\cce36nE7.s 			page 31


 1142              	.LVL125:
  78:src/remotedl.c ****   while (iRemoteDLFd < 0) {
 1143              		.loc 1 78 0
 1144 000e 0023     		movs	r3, #0
 1145 0010 0F20     		movs	r0, #15
 1146 0012 0093     		str	r3, [sp]
 1147 0014 0D21     		movs	r1, #13
 1148 0016 02AA     		add	r2, sp, #8
 1149 0018 FFF7FEFF 		bl	lib_app_call
 1150              	.LVL126:
 1151 001c 2546     		mov	r5, r4
 1152 001e 6060     		str	r0, [r4, #4]
 1153              	.L96:
  79:src/remotedl.c ****     fCloseMW(iRemoteDLFd);
 1154              		.loc 1 79 0
 1155 0020 6A68     		ldr	r2, [r5, #4]
 1156 0022 002A     		cmp	r2, #0
 1157 0024 19DA     		bge	.L98
  80:src/remotedl.c ****     fDeleteMW(filename);
 1158              		.loc 1 80 0
 1159 0026 0024     		movs	r4, #0
 1160 0028 2346     		mov	r3, r4
 1161 002a 0094     		str	r4, [sp]
 1162 002c 0E21     		movs	r1, #14
 1163 002e 0F20     		movs	r0, #15
 1164 0030 FFF7FEFF 		bl	lib_app_call
 1165              	.LVL127:
  81:src/remotedl.c ****     iRemoteDLFd = fCreateMW(filename, 0);
 1166              		.loc 1 81 0
 1167 0034 02AA     		add	r2, sp, #8
 1168 0036 2346     		mov	r3, r4
 1169 0038 0094     		str	r4, [sp]
 1170 003a 0C21     		movs	r1, #12
 1171 003c 0F20     		movs	r0, #15
 1172 003e FFF7FEFF 		bl	lib_app_call
 1173              	.LVL128:
  82:src/remotedl.c ****     RemoteDlResetData();
 1174              		.loc 1 82 0
 1175 0042 2346     		mov	r3, r4
 1176 0044 0094     		str	r4, [sp]
 1177 0046 0B21     		movs	r1, #11
 1178 0048 02AA     		add	r2, sp, #8
 1179 004a 0F20     		movs	r0, #15
 1180 004c FFF7FEFF 		bl	lib_app_call
 1181              	.LVL129:
 1182 0050 034B     		ldr	r3, .L99
 1183 0052 5860     		str	r0, [r3, #4]
  83:src/remotedl.c ****   }
 1184              		.loc 1 83 0
 1185 0054 FFF7FEFF 		bl	RemoteDlResetData
 1186              	.LVL130:
 1187 0058 E2E7     		b	.L96
 1188              	.L98:
  85:src/remotedl.c **** 
 1189              		.loc 1 85 0
 1190 005a 0BB0     		add	sp, sp, #44
 1191              		.cfi_def_cfa_offset 12
ARM GAS  C:\Users\AHMED~1.ELE\AppData\Local\Temp\cce36nE7.s 			page 32


 1192              		@ sp needed
 1193 005c 30BD     		pop	{r4, r5, pc}
 1194              	.L100:
 1195 005e 00BF     		.align	2
 1196              	.L99:
 1197 0060 00000000 		.word	.LANCHOR0
 1198              		.cfi_endproc
 1199              	.LFE1:
 1200              		.size	RemoteDlInit, .-RemoteDlInit
 1201              		.section	.text.SetRemoteDownload,"ax",%progbits
 1202              		.align	1
 1203              		.global	SetRemoteDownload
 1204              		.thumb
 1205              		.thumb_func
 1206              		.type	SetRemoteDownload, %function
 1207              	SetRemoteDownload:
 1208              	.LFB9:
 515:src/remotedl.c **** 
 516:src/remotedl.c **** /******************************************************************************
 517:src/remotedl.c ****  *  Function        : SetRemoteDownload
 518:src/remotedl.c ****  *  Description     : export function for app to set download schedule:
 519:src/remotedl.c ****  *                    #define DLOAD_NO      0x00  // nothing to dload
 520:src/remotedl.c ****  *                    #define DLOAD_PARAM   0x31  // remote update parameter
 521:src/remotedl.c ****  *                    #define DLOAD_APP     0x32  // remote udpate app
 522:src/remotedl.c ****  *                    #define DLOAD_ALL     0x33  // remote update app & parameter
 523:src/remotedl.c ****  *  Input           : new schedule
 524:src/remotedl.c ****  *  Return          : TRUE if success, FALSE otherwise
 525:src/remotedl.c ****  *  Note            : N/A
 526:src/remotedl.c ****  *  Globals Changed : gPram
 527:src/remotedl.c ****  *******************************************************************************/
 528:src/remotedl.c **** BOOLEAN SetRemoteDownload(BYTE aDload)
 529:src/remotedl.c **** {
 1209              		.loc 1 529 0
 1210              		.cfi_startproc
 1211              		@ args = 0, pretend = 0, frame = 16
 1212              		@ frame_needed = 0, uses_anonymous_args = 0
 1213              	.LVL131:
 1214 0000 30B5     		push	{r4, r5, lr}
 1215              		.cfi_def_cfa_offset 12
 1216              		.cfi_offset 4, -12
 1217              		.cfi_offset 5, -8
 1218              		.cfi_offset 14, -4
 530:src/remotedl.c ****   struct REMOTEDL_DATA remoteDl;
 531:src/remotedl.c **** 
 532:src/remotedl.c ****   if ((aDload == DLOAD_NO) || ((aDload >= DLOAD_PARAM) && (aDload <= DLOAD_ALL))) {
 1219              		.loc 1 532 0
 1220 0002 0446     		mov	r4, r0
 529:src/remotedl.c ****   struct REMOTEDL_DATA remoteDl;
 1221              		.loc 1 529 0
 1222 0004 85B0     		sub	sp, sp, #20
 1223              		.cfi_def_cfa_offset 32
 1224              		.loc 1 532 0
 1225 0006 18B1     		cbz	r0, .L102
 1226              		.loc 1 532 0 is_stmt 0 discriminator 1
 1227 0008 A0F13103 		sub	r3, r0, #49
 1228 000c 022B     		cmp	r3, #2
 1229 000e 10D8     		bhi	.L104
ARM GAS  C:\Users\AHMED~1.ELE\AppData\Local\Temp\cce36nE7.s 			page 33


 1230              	.L102:
 533:src/remotedl.c ****     ReadSFile(iRemoteDLFd, 0, &remoteDl, sizeof(struct REMOTEDL_DATA));
 1231              		.loc 1 533 0 is_stmt 1
 1232 0010 094D     		ldr	r5, .L108
 1233 0012 0021     		movs	r1, #0
 1234 0014 01AA     		add	r2, sp, #4
 1235 0016 0C23     		movs	r3, #12
 1236 0018 6868     		ldr	r0, [r5, #4]
 1237              	.LVL132:
 1238 001a FFF7FEFF 		bl	ReadSFile
 1239              	.LVL133:
 534:src/remotedl.c ****     remoteDl.scheduler = aDload;
 535:src/remotedl.c ****     WriteSFile(iRemoteDLFd, 0, &remoteDl, sizeof(struct REMOTEDL_DATA));
 1240              		.loc 1 535 0
 1241 001e 6868     		ldr	r0, [r5, #4]
 1242 0020 0021     		movs	r1, #0
 1243 0022 01AA     		add	r2, sp, #4
 1244 0024 0C23     		movs	r3, #12
 534:src/remotedl.c ****     remoteDl.scheduler = aDload;
 1245              		.loc 1 534 0
 1246 0026 8DF80840 		strb	r4, [sp, #8]
 1247              		.loc 1 535 0
 1248 002a FFF7FEFF 		bl	WriteSFile
 1249              	.LVL134:
 536:src/remotedl.c ****     return TRUE;
 1250              		.loc 1 536 0
 1251 002e 0120     		movs	r0, #1
 1252 0030 00E0     		b	.L103
 1253              	.LVL135:
 1254              	.L104:
 537:src/remotedl.c ****   }
 538:src/remotedl.c ****   return FALSE;
 1255              		.loc 1 538 0
 1256 0032 0020     		movs	r0, #0
 1257              	.LVL136:
 1258              	.L103:
 539:src/remotedl.c **** }
 1259              		.loc 1 539 0
 1260 0034 05B0     		add	sp, sp, #20
 1261              		.cfi_def_cfa_offset 12
 1262              		@ sp needed
 1263 0036 30BD     		pop	{r4, r5, pc}
 1264              	.L109:
 1265              		.align	2
 1266              	.L108:
 1267 0038 00000000 		.word	.LANCHOR0
 1268              		.cfi_endproc
 1269              	.LFE9:
 1270              		.size	SetRemoteDownload, .-SetRemoteDownload
 1271              		.section	.text.SetRDLForceUpload,"ax",%progbits
 1272              		.align	1
 1273              		.global	SetRDLForceUpload
 1274              		.thumb
 1275              		.thumb_func
 1276              		.type	SetRDLForceUpload, %function
 1277              	SetRDLForceUpload:
 1278              	.LFB10:
ARM GAS  C:\Users\AHMED~1.ELE\AppData\Local\Temp\cce36nE7.s 			page 34


 540:src/remotedl.c **** /******************************************************************************
 541:src/remotedl.c ****  *  Function        : SetRDLForceUpload
 542:src/remotedl.c ****  *  Description     : set the force upload flag
 543:src/remotedl.c ****  *  Input           : new force upload flag
 544:src/remotedl.c ****  *  Return          : N/A
 545:src/remotedl.c ****  *  Note            : //16-07-14++ SC (2)
 546:src/remotedl.c ****  *  Globals Changed : N/A
 547:src/remotedl.c ****  *******************************************************************************/
 548:src/remotedl.c **** void SetRDLForceUpload(BYTE aForceUpload)
 549:src/remotedl.c **** {
 1279              		.loc 1 549 0
 1280              		.cfi_startproc
 1281              		@ args = 0, pretend = 0, frame = 16
 1282              		@ frame_needed = 0, uses_anonymous_args = 0
 1283              	.LVL137:
 1284 0000 30B5     		push	{r4, r5, lr}
 1285              		.cfi_def_cfa_offset 12
 1286              		.cfi_offset 4, -12
 1287              		.cfi_offset 5, -8
 1288              		.cfi_offset 14, -4
 550:src/remotedl.c ****   struct REMOTEDL_DATA remoteDl;
 551:src/remotedl.c **** 
 552:src/remotedl.c ****   ReadSFile(iRemoteDLFd, 0, &remoteDl, sizeof(struct REMOTEDL_DATA));
 1289              		.loc 1 552 0
 1290 0002 094C     		ldr	r4, .L111
 549:src/remotedl.c ****   struct REMOTEDL_DATA remoteDl;
 1291              		.loc 1 549 0
 1292 0004 85B0     		sub	sp, sp, #20
 1293              		.cfi_def_cfa_offset 32
 549:src/remotedl.c ****   struct REMOTEDL_DATA remoteDl;
 1294              		.loc 1 549 0
 1295 0006 0546     		mov	r5, r0
 1296              		.loc 1 552 0
 1297 0008 01AA     		add	r2, sp, #4
 1298 000a 6068     		ldr	r0, [r4, #4]
 1299              	.LVL138:
 1300 000c 0021     		movs	r1, #0
 1301 000e 0C23     		movs	r3, #12
 1302 0010 FFF7FEFF 		bl	ReadSFile
 1303              	.LVL139:
 553:src/remotedl.c ****   remoteDl.DL_force_upload = aForceUpload;
 554:src/remotedl.c ****   WriteSFile(iRemoteDLFd, 0, &remoteDl, sizeof(struct REMOTEDL_DATA));
 1304              		.loc 1 554 0
 1305 0014 6068     		ldr	r0, [r4, #4]
 1306 0016 0021     		movs	r1, #0
 1307 0018 01AA     		add	r2, sp, #4
 1308 001a 0C23     		movs	r3, #12
 553:src/remotedl.c ****   remoteDl.DL_force_upload = aForceUpload;
 1309              		.loc 1 553 0
 1310 001c 8DF80C50 		strb	r5, [sp, #12]
 1311              		.loc 1 554 0
 1312 0020 FFF7FEFF 		bl	WriteSFile
 1313              	.LVL140:
 555:src/remotedl.c **** }
 1314              		.loc 1 555 0
 1315 0024 05B0     		add	sp, sp, #20
 1316              		.cfi_def_cfa_offset 12
ARM GAS  C:\Users\AHMED~1.ELE\AppData\Local\Temp\cce36nE7.s 			page 35


 1317              		@ sp needed
 1318 0026 30BD     		pop	{r4, r5, pc}
 1319              	.L112:
 1320              		.align	2
 1321              	.L111:
 1322 0028 00000000 		.word	.LANCHOR0
 1323              		.cfi_endproc
 1324              	.LFE10:
 1325              		.size	SetRDLForceUpload, .-SetRDLForceUpload
 1326              		.section	.text.GetRDLForceUpload,"ax",%progbits
 1327              		.align	1
 1328              		.global	GetRDLForceUpload
 1329              		.thumb
 1330              		.thumb_func
 1331              		.type	GetRDLForceUpload, %function
 1332              	GetRDLForceUpload:
 1333              	.LFB11:
 556:src/remotedl.c **** /******************************************************************************
 557:src/remotedl.c ****  *  Function        : GetRDLForceUpload
 558:src/remotedl.c ****  *  Description     : get the force upload flag
 559:src/remotedl.c ****  *  Input           : N/A
 560:src/remotedl.c ****  *  Return          : force upload flag
 561:src/remotedl.c ****  *  Note            : //16-07-14++ SC (2)
 562:src/remotedl.c ****  *  Globals Changed : N/A
 563:src/remotedl.c ****  *******************************************************************************/
 564:src/remotedl.c **** BYTE GetRDLForceUpload(void)
 565:src/remotedl.c **** {
 1334              		.loc 1 565 0
 1335              		.cfi_startproc
 1336              		@ args = 0, pretend = 0, frame = 16
 1337              		@ frame_needed = 0, uses_anonymous_args = 0
 1338 0000 1FB5     		push	{r0, r1, r2, r3, r4, lr}
 1339              		.cfi_def_cfa_offset 24
 1340              		.cfi_offset 14, -4
 566:src/remotedl.c ****   struct REMOTEDL_DATA remoteDl;
 567:src/remotedl.c **** 
 568:src/remotedl.c ****   ReadSFile(iRemoteDLFd, 0, &remoteDl, sizeof(struct REMOTEDL_DATA));
 1341              		.loc 1 568 0
 1342 0002 064B     		ldr	r3, .L114
 1343 0004 0021     		movs	r1, #0
 1344 0006 5868     		ldr	r0, [r3, #4]
 1345 0008 01AA     		add	r2, sp, #4
 1346 000a 0C23     		movs	r3, #12
 1347 000c FFF7FEFF 		bl	ReadSFile
 1348              	.LVL141:
 569:src/remotedl.c ****   return remoteDl.DL_force_upload;
 570:src/remotedl.c **** }
 1349              		.loc 1 570 0
 1350 0010 9DF80C00 		ldrb	r0, [sp, #12]	@ zero_extendqisi2
 1351 0014 05B0     		add	sp, sp, #20
 1352              		.cfi_def_cfa_offset 4
 1353              		@ sp needed
 1354 0016 5DF804FB 		ldr	pc, [sp], #4
 1355              	.L115:
 1356 001a 00BF     		.align	2
 1357              	.L114:
 1358 001c 00000000 		.word	.LANCHOR0
ARM GAS  C:\Users\AHMED~1.ELE\AppData\Local\Temp\cce36nE7.s 			page 36


 1359              		.cfi_endproc
 1360              	.LFE11:
 1361              		.size	GetRDLForceUpload, .-GetRDLForceUpload
 1362              		.section	.text.RemoteDlChkScheduler,"ax",%progbits
 1363              		.align	1
 1364              		.global	RemoteDlChkScheduler
 1365              		.thumb
 1366              		.thumb_func
 1367              		.type	RemoteDlChkScheduler, %function
 1368              	RemoteDlChkScheduler:
 1369              	.LFB7:
 376:src/remotedl.c ****   WORD wrnd;
 1370              		.loc 1 376 0
 1371              		.cfi_startproc
 1372              		@ args = 0, pretend = 0, frame = 32
 1373              		@ frame_needed = 0, uses_anonymous_args = 0
 1374              	.LVL142:
 1375 0000 70B5     		push	{r4, r5, r6, lr}
 1376              		.cfi_def_cfa_offset 16
 1377              		.cfi_offset 4, -16
 1378              		.cfi_offset 5, -12
 1379              		.cfi_offset 6, -8
 1380              		.cfi_offset 14, -4
 383:src/remotedl.c **** 
 1381              		.loc 1 383 0
 1382 0002 734D     		ldr	r5, .L174
 376:src/remotedl.c ****   WORD wrnd;
 1383              		.loc 1 376 0
 1384 0004 8AB0     		sub	sp, sp, #40
 1385              		.cfi_def_cfa_offset 56
 383:src/remotedl.c **** 
 1386              		.loc 1 383 0
 1387 0006 0021     		movs	r1, #0
 1388 0008 07AA     		add	r2, sp, #28
 1389 000a 0C23     		movs	r3, #12
 1390 000c 6868     		ldr	r0, [r5, #4]
 1391 000e FFF7FEFF 		bl	ReadSFile
 1392              	.LVL143:
 386:src/remotedl.c ****     ReadRTC(&dtg);
 1393              		.loc 1 386 0
 1394 0012 FFF7FEFF 		bl	GetSTISMode
 1395              	.LVL144:
 1396 0016 0028     		cmp	r0, #0
 1397 0018 00F0C180 		beq	.L173
 386:src/remotedl.c ****     ReadRTC(&dtg);
 1398              		.loc 1 386 0 is_stmt 0 discriminator 1
 1399 001c FFF7FEFF 		bl	TrainingModeON
 1400              	.LVL145:
 1401 0020 0446     		mov	r4, r0
 1402 0022 0028     		cmp	r0, #0
 1403 0024 40F0BB80 		bne	.L173
 387:src/remotedl.c **** 
 1404              		.loc 1 387 0 is_stmt 1
 1405 0028 05A8     		add	r0, sp, #20
 1406 002a FFF7FEFF 		bl	ReadRTC
 1407              	.LVL146:
 389:src/remotedl.c ****       case DL_DONE: // already done
ARM GAS  C:\Users\AHMED~1.ELE\AppData\Local\Temp\cce36nE7.s 			page 37


 1408              		.loc 1 389 0
 1409 002e 9DF81F30 		ldrb	r3, [sp, #31]	@ zero_extendqisi2
 1410 0032 142B     		cmp	r3, #20
 1411 0034 4FD0     		beq	.L121
 1412 0036 08D8     		bhi	.L122
 1413 0038 052B     		cmp	r3, #5
 1414 003a 53D0     		beq	.L123
 1415 003c 01D8     		bhi	.L124
 1416 003e 53B3     		cbz	r3, .L125
 1417 0040 AAE0     		b	.L120
 1418              	.L124:
 1419 0042 0A2B     		cmp	r3, #10
 1420 0044 4ED0     		beq	.L123
 1421 0046 0F2B     		cmp	r3, #15
 1422 0048 03E0     		b	.L170
 1423              	.L122:
 1424 004a 1E2B     		cmp	r3, #30
 1425 004c 4FD0     		beq	.L126
 1426 004e 02D8     		bhi	.L127
 1427 0050 192B     		cmp	r3, #25
 1428              	.L170:
 1429 0052 40D0     		beq	.L121
 1430 0054 A0E0     		b	.L120
 1431              	.L127:
 1432 0056 1F2B     		cmp	r3, #31
 1433 0058 03D0     		beq	.L128
 1434 005a FF2B     		cmp	r3, #255
 1435 005c 00F0A080 		beq	.L118
 1436 0060 9AE0     		b	.L120
 1437              	.L128:
 392:src/remotedl.c ****             (remoteDl.DL_time_slot == MWKEY_2 && dtg.bHour == 0x11)) { // KEY1 = AM, KEY2 = PM
 1438              		.loc 1 392 0
 1439 0062 9DF81E30 		ldrb	r3, [sp, #30]	@ zero_extendqisi2
 1440 0066 312B     		cmp	r3, #49
 1441 0068 03D1     		bne	.L129
 392:src/remotedl.c ****             (remoteDl.DL_time_slot == MWKEY_2 && dtg.bHour == 0x11)) { // KEY1 = AM, KEY2 = PM
 1442              		.loc 1 392 0 is_stmt 0 discriminator 1
 1443 006a 9DF81830 		ldrb	r3, [sp, #24]	@ zero_extendqisi2
 1444 006e 232B     		cmp	r3, #35
 1445 0070 04E0     		b	.L169
 1446              	.L129:
 392:src/remotedl.c ****             (remoteDl.DL_time_slot == MWKEY_2 && dtg.bHour == 0x11)) { // KEY1 = AM, KEY2 = PM
 1447              		.loc 1 392 0 discriminator 3
 1448 0072 322B     		cmp	r3, #50
 1449 0074 06D1     		bne	.L131
 393:src/remotedl.c ****           remoteDl.DL_daily = DL_PENDING;       // clear flag
 1450              		.loc 1 393 0 is_stmt 1
 1451 0076 9DF81830 		ldrb	r3, [sp, #24]	@ zero_extendqisi2
 1452 007a 112B     		cmp	r3, #17
 1453              	.L169:
 394:src/remotedl.c ****         }
 1454              		.loc 1 394 0
 1455 007c 04BF     		itt	eq
 1456 007e 0023     		moveq	r3, #0
 1457 0080 8DF81F30 		strbeq	r3, [sp, #31]
 1458              	.L131:
 399:src/remotedl.c **** //16-07-14-- SC (2)
ARM GAS  C:\Users\AHMED~1.ELE\AppData\Local\Temp\cce36nE7.s 			page 38


 1459              		.loc 1 399 0
 1460 0084 FFF7FEFF 		bl	GetRDLForceUpload
 1461              	.LVL147:
 1462 0088 0028     		cmp	r0, #0
 1463 008a 00F08880 		beq	.L173
 401:src/remotedl.c ****         }
 1464              		.loc 1 401 0
 1465 008e 0024     		movs	r4, #0
 1466 0090 8DF81F40 		strb	r4, [sp, #31]
 1467 0094 84E0     		b	.L118
 1468              	.L125:
 405:src/remotedl.c ****              || ((dtg.bHour > remoteDl.DL_hour) && ((dtg.bHour < 0x12) || (remoteDl.DL_hour > 0x11)
 1469              		.loc 1 405 0
 1470 0096 9DF81820 		ldrb	r2, [sp, #24]	@ zero_extendqisi2
 1471 009a 9DF81C30 		ldrb	r3, [sp, #28]	@ zero_extendqisi2
 1472 009e 9A42     		cmp	r2, r3
 1473 00a0 06D1     		bne	.L132
 405:src/remotedl.c ****              || ((dtg.bHour > remoteDl.DL_hour) && ((dtg.bHour < 0x12) || (remoteDl.DL_hour > 0x11)
 1474              		.loc 1 405 0 is_stmt 0 discriminator 1
 1475 00a2 9DF81920 		ldrb	r2, [sp, #25]	@ zero_extendqisi2
 1476 00a6 9DF81D30 		ldrb	r3, [sp, #29]	@ zero_extendqisi2
 1477 00aa 9A42     		cmp	r2, r3
 1478 00ac 05D2     		bcs	.L133
 1479 00ae 09E0     		b	.L134
 1480              	.L132:
 406:src/remotedl.c ****           STISFTPPolling(&remoteDl);
 1481              		.loc 1 406 0 is_stmt 1
 1482 00b0 08D9     		bls	.L134
 406:src/remotedl.c ****           STISFTPPolling(&remoteDl);
 1483              		.loc 1 406 0 is_stmt 0 discriminator 1
 1484 00b2 112A     		cmp	r2, #17
 1485 00b4 01D9     		bls	.L133
 406:src/remotedl.c ****           STISFTPPolling(&remoteDl);
 1486              		.loc 1 406 0 discriminator 2
 1487 00b6 112B     		cmp	r3, #17
 1488 00b8 04D9     		bls	.L134
 1489              	.L133:
 407:src/remotedl.c ****           result   = TRUE;
 1490              		.loc 1 407 0 is_stmt 1
 1491 00ba 07A8     		add	r0, sp, #28
 1492 00bc FFF7FEFF 		bl	STISFTPPolling
 1493              	.LVL148:
 408:src/remotedl.c ****         }
 1494              		.loc 1 408 0
 1495 00c0 0124     		movs	r4, #1
 1496 00c2 04E0     		b	.L135
 1497              	.LVL149:
 1498              	.L134:
 413:src/remotedl.c **** //16-07-14-- SC (2)
 1499              		.loc 1 413 0
 1500 00c4 FFF7FEFF 		bl	GetRDLForceUpload
 1501              	.LVL150:
 1502 00c8 0028     		cmp	r0, #0
 1503 00ca F6D1     		bne	.L133
 378:src/remotedl.c ****   BYTE tmp[8];
 1504              		.loc 1 378 0
 1505 00cc 0446     		mov	r4, r0
ARM GAS  C:\Users\AHMED~1.ELE\AppData\Local\Temp\cce36nE7.s 			page 39


 1506              	.LVL151:
 1507              	.L135:
 418:src/remotedl.c ****         break;
 1508              		.loc 1 418 0
 1509 00ce 0023     		movs	r3, #0
 1510 00d0 8DF82430 		strb	r3, [sp, #36]
 419:src/remotedl.c **** //16-07-14++ SC (2)
 1511              		.loc 1 419 0
 1512 00d4 64E0     		b	.L118
 1513              	.LVL152:
 1514              	.L121:
 427:src/remotedl.c ****           remoteDl.DL_daily++;
 1515              		.loc 1 427 0
 1516 00d6 FFF7FEFF 		bl	AppListUploadReq
 1517              	.LVL153:
 1518 00da 0128     		cmp	r0, #1
 1519 00dc 02D0     		beq	.L123
 428:src/remotedl.c ****           break;
 1520              		.loc 1 428 0
 1521 00de 9DF81F30 		ldrb	r3, [sp, #31]	@ zero_extendqisi2
 1522 00e2 59E0     		b	.L120
 1523              	.L123:
 435:src/remotedl.c ****         result   = TRUE;
 1524              		.loc 1 435 0
 1525 00e4 07A8     		add	r0, sp, #28
 1526 00e6 FFF7FEFF 		bl	STISFTPPolling
 1527              	.LVL154:
 436:src/remotedl.c ****         break;
 1528              		.loc 1 436 0
 1529 00ea 0124     		movs	r4, #1
 437:src/remotedl.c ****       case DL_DISABLE:  // no schedule set
 1530              		.loc 1 437 0
 1531 00ec 58E0     		b	.L118
 1532              	.LVL155:
 1533              	.L126:
 447:src/remotedl.c ****             (remoteDl.DL_time_slot == MWKEY_2 && dtg.bHour == 0x11)) { // KEY1 = AM, KEY2 = PM
 1534              		.loc 1 447 0
 1535 00ee 9DF81E30 		ldrb	r3, [sp, #30]	@ zero_extendqisi2
 1536 00f2 312B     		cmp	r3, #49
 1537 00f4 03D1     		bne	.L136
 447:src/remotedl.c ****             (remoteDl.DL_time_slot == MWKEY_2 && dtg.bHour == 0x11)) { // KEY1 = AM, KEY2 = PM
 1538              		.loc 1 447 0 is_stmt 0 discriminator 1
 1539 00f6 9DF81830 		ldrb	r3, [sp, #24]	@ zero_extendqisi2
 1540 00fa 232B     		cmp	r3, #35
 1541 00fc 04E0     		b	.L172
 1542              	.L136:
 447:src/remotedl.c ****             (remoteDl.DL_time_slot == MWKEY_2 && dtg.bHour == 0x11)) { // KEY1 = AM, KEY2 = PM
 1543              		.loc 1 447 0 discriminator 3
 1544 00fe 322B     		cmp	r3, #50
 1545 0100 44D1     		bne	.L138
 448:src/remotedl.c ****           RandMW(&tmp);
 1546              		.loc 1 448 0 is_stmt 1
 1547 0102 9DF81830 		ldrb	r3, [sp, #24]	@ zero_extendqisi2
 1548 0106 112B     		cmp	r3, #17
 1549              	.L172:
 1550 0108 49D1     		bne	.L173
 449:src/remotedl.c ****           memcpy((BYTE *)&wrnd, &tmp, 2);
ARM GAS  C:\Users\AHMED~1.ELE\AppData\Local\Temp\cce36nE7.s 			page 40


 1551              		.loc 1 449 0
 1552 010a 03A9     		add	r1, sp, #12
 1553 010c 0120     		movs	r0, #1
 1554 010e FFF7FEFF 		bl	sys_func1
 1555              	.LVL156:
 450:src/remotedl.c ****           remoteDl.DL_min   = wrnd%60;
 1556              		.loc 1 450 0
 1557 0112 BDF80C40 		ldrh	r4, [sp, #12]
 1558              	.LVL157:
 451:src/remotedl.c ****           remoteDl.DL_hour  = wrnd/60;
 1559              		.loc 1 451 0
 1560 0116 3C21     		movs	r1, #60
 1561 0118 2046     		mov	r0, r4
 1562 011a FFF7FEFF 		bl	__aeabi_uidivmod
 1563              	.LVL158:
 452:src/remotedl.c ****           remoteDl.DL_hour %= 12;
 1564              		.loc 1 452 0
 1565 011e 2046     		mov	r0, r4
 451:src/remotedl.c ****           remoteDl.DL_hour  = wrnd/60;
 1566              		.loc 1 451 0
 1567 0120 CEB2     		uxtb	r6, r1
 452:src/remotedl.c ****           remoteDl.DL_hour %= 12;
 1568              		.loc 1 452 0
 1569 0122 3C21     		movs	r1, #60
 1570 0124 FFF7FEFF 		bl	__aeabi_uidiv
 1571              	.LVL159:
 453:src/remotedl.c ****           if (remoteDl.DL_time_slot == MWKEY_2) // PM
 1572              		.loc 1 453 0
 1573 0128 0C21     		movs	r1, #12
 1574 012a C0B2     		uxtb	r0, r0
 1575 012c FFF7FEFF 		bl	__aeabi_uidivmod
 1576              	.LVL160:
 454:src/remotedl.c ****             remoteDl.DL_hour += 12;
 1577              		.loc 1 454 0
 1578 0130 9DF81E30 		ldrb	r3, [sp, #30]	@ zero_extendqisi2
 457:src/remotedl.c ****           remoteDl.DL_hour  = remoteDl.DL_hour/10*16 + remoteDl.DL_hour%10;
 1579              		.loc 1 457 0
 1580 0134 3046     		mov	r0, r6
 454:src/remotedl.c ****             remoteDl.DL_hour += 12;
 1581              		.loc 1 454 0
 1582 0136 322B     		cmp	r3, #50
 453:src/remotedl.c ****           if (remoteDl.DL_time_slot == MWKEY_2) // PM
 1583              		.loc 1 453 0
 1584 0138 C9B2     		uxtb	r1, r1
 1585 013a 8DF81C10 		strb	r1, [sp, #28]
 455:src/remotedl.c ****           // convert data to BCD format for ease of comparison
 1586              		.loc 1 455 0
 1587 013e 04BF     		itt	eq
 1588 0140 0C31     		addeq	r1, r1, #12
 1589 0142 8DF81C10 		strbeq	r1, [sp, #28]
 457:src/remotedl.c ****           remoteDl.DL_hour  = remoteDl.DL_hour/10*16 + remoteDl.DL_hour%10;
 1590              		.loc 1 457 0
 1591 0146 0A21     		movs	r1, #10
 1592 0148 FFF7FEFF 		bl	__aeabi_uidiv
 1593              	.LVL161:
 1594 014c 0A21     		movs	r1, #10
 1595 014e 0401     		lsls	r4, r0, #4
ARM GAS  C:\Users\AHMED~1.ELE\AppData\Local\Temp\cce36nE7.s 			page 41


 1596              	.LVL162:
 1597 0150 3046     		mov	r0, r6
 1598 0152 FFF7FEFF 		bl	__aeabi_uidivmod
 1599              	.LVL163:
 458:src/remotedl.c ****           remoteDl.DL_daily = DL_PENDING; // clear flag
 1600              		.loc 1 458 0
 1601 0156 9DF81C60 		ldrb	r6, [sp, #28]	@ zero_extendqisi2
 1602 015a 3046     		mov	r0, r6
 457:src/remotedl.c ****           remoteDl.DL_hour  = remoteDl.DL_hour/10*16 + remoteDl.DL_hour%10;
 1603              		.loc 1 457 0
 1604 015c 2144     		add	r1, r1, r4
 1605 015e 8DF81D10 		strb	r1, [sp, #29]
 458:src/remotedl.c ****           remoteDl.DL_daily = DL_PENDING; // clear flag
 1606              		.loc 1 458 0
 1607 0162 0A21     		movs	r1, #10
 1608 0164 FFF7FEFF 		bl	__aeabi_uidiv
 1609              	.LVL164:
 1610 0168 0A21     		movs	r1, #10
 1611 016a 0401     		lsls	r4, r0, #4
 1612 016c 3046     		mov	r0, r6
 1613 016e FFF7FEFF 		bl	__aeabi_uidivmod
 1614              	.LVL165:
 460:src/remotedl.c ****         }
 1615              		.loc 1 460 0
 1616 0172 6868     		ldr	r0, [r5, #4]
 1617 0174 07AA     		add	r2, sp, #28
 1618 0176 0C23     		movs	r3, #12
 458:src/remotedl.c ****           remoteDl.DL_daily = DL_PENDING; // clear flag
 1619              		.loc 1 458 0
 1620 0178 2144     		add	r1, r1, r4
 459:src/remotedl.c ****           WriteSFile(iRemoteDLFd, 0, &remoteDl, sizeof(struct REMOTEDL_DATA));
 1621              		.loc 1 459 0
 1622 017a 0024     		movs	r4, #0
 458:src/remotedl.c ****           remoteDl.DL_daily = DL_PENDING; // clear flag
 1623              		.loc 1 458 0
 1624 017c 8DF81C10 		strb	r1, [sp, #28]
 460:src/remotedl.c ****         }
 1625              		.loc 1 460 0
 1626 0180 2146     		mov	r1, r4
 459:src/remotedl.c ****           WriteSFile(iRemoteDLFd, 0, &remoteDl, sizeof(struct REMOTEDL_DATA));
 1627              		.loc 1 459 0
 1628 0182 8DF81F40 		strb	r4, [sp, #31]
 460:src/remotedl.c ****         }
 1629              		.loc 1 460 0
 1630 0186 FFF7FEFF 		bl	WriteSFile
 1631              	.LVL166:
 1632 018a 09E0     		b	.L118
 1633              	.L138:
 462:src/remotedl.c ****           remoteDl.DL_daily = DL_DISABLE;
 1634              		.loc 1 462 0
 1635 018c 332B     		cmp	r3, #51
 1636 018e 06D1     		bne	.L173
 463:src/remotedl.c ****         }
 1637              		.loc 1 463 0
 1638 0190 FF23     		movs	r3, #255
 1639 0192 8DF81F30 		strb	r3, [sp, #31]
 1640 0196 03E0     		b	.L118
ARM GAS  C:\Users\AHMED~1.ELE\AppData\Local\Temp\cce36nE7.s 			page 42


 1641              	.L120:
 467:src/remotedl.c ****         break;
 1642              		.loc 1 467 0
 1643 0198 0133     		adds	r3, r3, #1
 1644 019a 8DF81F30 		strb	r3, [sp, #31]
 1645              	.L173:
 378:src/remotedl.c ****   BYTE tmp[8];
 1646              		.loc 1 378 0
 1647 019e 0024     		movs	r4, #0
 1648              	.LVL167:
 1649              	.L118:
 1650              	.LBB16:
 1651              	.LBB17:
  97:src/remotedl.c **** }
 1652              		.loc 1 97 0
 1653 01a0 0C4B     		ldr	r3, .L174+4
 1654 01a2 41F27072 		movw	r2, #6000
 1655 01a6 5969     		ldr	r1, [r3, #20]
 1656 01a8 0C20     		movs	r0, #12
 1657 01aa FFF7FEFF 		bl	sys_func2
 1658              	.LVL168:
 1659              	.LBE17:
 1660              	.LBE16:
 473:src/remotedl.c ****   fCommitAllMW();
 1661              		.loc 1 473 0
 1662 01ae 07AA     		add	r2, sp, #28
 1663 01b0 6868     		ldr	r0, [r5, #4]
 1664 01b2 0021     		movs	r1, #0
 1665 01b4 0C23     		movs	r3, #12
 1666 01b6 FFF7FEFF 		bl	WriteSFile
 1667              	.LVL169:
 474:src/remotedl.c ****   return result;
 1668              		.loc 1 474 0
 1669 01ba 0022     		movs	r2, #0
 1670 01bc 1321     		movs	r1, #19
 1671 01be 0092     		str	r2, [sp]
 1672 01c0 1346     		mov	r3, r2
 1673 01c2 0F20     		movs	r0, #15
 1674 01c4 FFF7FEFF 		bl	lib_app_call
 1675              	.LVL170:
 476:src/remotedl.c **** 
 1676              		.loc 1 476 0
 1677 01c8 2046     		mov	r0, r4
 1678 01ca 0AB0     		add	sp, sp, #40
 1679              		.cfi_def_cfa_offset 16
 1680              		@ sp needed
 1681 01cc 70BD     		pop	{r4, r5, r6, pc}
 1682              	.LVL171:
 1683              	.L175:
 1684 01ce 00BF     		.align	2
 1685              	.L174:
 1686 01d0 00000000 		.word	.LANCHOR0
 1687 01d4 00000000 		.word	gTimerHdl
 1688              		.cfi_endproc
 1689              	.LFE7:
 1690              		.size	RemoteDlChkScheduler, .-RemoteDlChkScheduler
 1691              		.section	.text.SetRemoteDLAllowAtSetupMode,"ax",%progbits
ARM GAS  C:\Users\AHMED~1.ELE\AppData\Local\Temp\cce36nE7.s 			page 43


 1692              		.align	1
 1693              		.global	SetRemoteDLAllowAtSetupMode
 1694              		.thumb
 1695              		.thumb_func
 1696              		.type	SetRemoteDLAllowAtSetupMode, %function
 1697              	SetRemoteDLAllowAtSetupMode:
 1698              	.LFB12:
 571:src/remotedl.c **** /******************************************************************************
 572:src/remotedl.c ****  *  Function        : SetRemoteDLAllowAtSetupMode
 573:src/remotedl.c ****  *  Description     : Set &gPRAM->virgin_remoteDL
 574:src/remotedl.c ****  *  Input           : BOOLEAN
 575:src/remotedl.c ****  *  Return          : N/A
 576:src/remotedl.c ****  *  Note            : 06-03-08 CP (4)
 577:src/remotedl.c ****  *  Globals Changed : gPram
 578:src/remotedl.c ****  *******************************************************************************/
 579:src/remotedl.c **** void SetRemoteDLAllowAtSetupMode(BOOLEAN aAllow)
 580:src/remotedl.c **** {
 1699              		.loc 1 580 0
 1700              		.cfi_startproc
 1701              		@ args = 0, pretend = 0, frame = 0
 1702              		@ frame_needed = 0, uses_anonymous_args = 0
 1703              		@ link register save eliminated.
 1704              	.LVL172:
 1705 0000 7047     		bx	lr
 1706              		.cfi_endproc
 1707              	.LFE12:
 1708              		.size	SetRemoteDLAllowAtSetupMode, .-SetRemoteDLAllowAtSetupMode
 1709              		.section	.text.GetRemoteDLAllowAtSetupMode,"ax",%progbits
 1710              		.align	1
 1711              		.global	GetRemoteDLAllowAtSetupMode
 1712              		.thumb
 1713              		.thumb_func
 1714              		.type	GetRemoteDLAllowAtSetupMode, %function
 1715              	GetRemoteDLAllowAtSetupMode:
 1716              	.LFB13:
 581:src/remotedl.c **** //  if (aAllow)
 582:src/remotedl.c **** //    ProtectPutW(&gPRAM->virgin_remoteDL, MAGIC);
 583:src/remotedl.c **** //  else
 584:src/remotedl.c **** //    ProtectPutW(&gPRAM->virgin_remoteDL, 0);
 585:src/remotedl.c **** }
 586:src/remotedl.c **** /******************************************************************************
 587:src/remotedl.c ****  *  Function        : GetRemoteDLAllowAtSetupMode
 588:src/remotedl.c ****  *  Description     : return &gPRAM->virgin_remoteDL
 589:src/remotedl.c ****  *  Input           : N/A
 590:src/remotedl.c ****  *  Return          : TRUE if MAGIC
 591:src/remotedl.c ****  *  Note            : 06-03-08 CP (4)
 592:src/remotedl.c ****  *  Globals Changed : gPram
 593:src/remotedl.c ****  *******************************************************************************/
 594:src/remotedl.c **** BOOLEAN GetRemoteDLAllowAtSetupMode(void)
 595:src/remotedl.c **** {
 1717              		.loc 1 595 0
 1718              		.cfi_startproc
 1719              		@ args = 0, pretend = 0, frame = 0
 1720              		@ frame_needed = 0, uses_anonymous_args = 0
 1721              		@ link register save eliminated.
 596:src/remotedl.c **** //  return (ProtectGetW(&gPRAM->virgin_remoteDL) == MAGIC);
 597:src/remotedl.c ****   return FALSE;
ARM GAS  C:\Users\AHMED~1.ELE\AppData\Local\Temp\cce36nE7.s 			page 44


 598:src/remotedl.c **** }
 1722              		.loc 1 598 0
 1723 0000 0020     		movs	r0, #0
 1724 0002 7047     		bx	lr
 1725              		.cfi_endproc
 1726              	.LFE13:
 1727              		.size	GetRemoteDLAllowAtSetupMode, .-GetRemoteDLAllowAtSetupMode
 1728              		.section	.rodata.str1.1,"aMS",%progbits,1
 1729              	.LC0:
 1730 0000 50455246 		.ascii	"PERFORM?  Y OR N\000"
 1730      4F524D3F 
 1730      20205920 
 1730      4F52204E 
 1730      00
 1731              	.LC1:
 1732 0011 312E2044 		.ascii	"1. DISABLE      \000"
 1732      49534142 
 1732      4C452020 
 1732      20202020 
 1732      00
 1733              	.LC2:
 1734 0022 322E2044 		.ascii	"2. DAILY POLLING\000"
 1734      41494C59 
 1734      20504F4C 
 1734      4C494E47 
 1734      00
 1735              	.LC3:
 1736 0033 312E2030 		.ascii	"1. 0 -11:59 A.M.\000"
 1736      202D3131 
 1736      3A353920 
 1736      412E4D2E 
 1736      00
 1737              	.LC4:
 1738 0044 322E2031 		.ascii	"2. 12-23:59 P.M.\000"
 1738      322D3233 
 1738      3A353920 
 1738      502E4D2E 
 1738      00
 1739              	.LC5:
 1740 0055 332E204E 		.ascii	"3. NOW (1 time only)\000"
 1740      4F572028 
 1740      31207469 
 1740      6D65206F 
 1740      6E6C7929 
 1741              	.LC6:
 1742 006a 312E204E 		.ascii	"1. NONE\000"
 1742      4F4E4500 
 1743              	.LC7:
 1744 0072 322E2041 		.ascii	"2. APP & PARAM\000"
 1744      50502026 
 1744      20504152 
 1744      414D00
 1745              		.data
 1746              		.align	2
 1747              		.set	.LANCHOR0,. + 0
 1748              		.type	KRemoteDLFile, %object
 1749              		.size	KRemoteDLFile, 4
ARM GAS  C:\Users\AHMED~1.ELE\AppData\Local\Temp\cce36nE7.s 			page 45


 1750              	KRemoteDLFile:
 1751 0000 52444C00 		.ascii	"RDL\000"
 1752              		.type	iRemoteDLFd, %object
 1753              		.size	iRemoteDLFd, 4
 1754              	iRemoteDLFd:
 1755 0004 FFFFFFFF 		.word	-1
 1756              		.text
 1757              	.Letext0:
 1758              		.file 2 "c:\\devtools\\gcc_v49_2014q4\\lib\\gcc\\arm-none-eabi\\4.9.3\\include\\stddef.h"
 1759              		.file 3 "../LibA5T1000/common.h"
 1760              		.file 4 "../LibA5T1000/system.h"
 1761              		.file 5 "../LibA5T1000/midware.h"
 1762              		.file 6 "src/sysutil.h"
 1763              		.file 7 "../LibA5T1000/apm.h"
 1764              		.file 8 "src/remotedl.h"
 1765              		.file 9 "src/hardware.h"
 1766              		.file 10 "src/message.h"
 1767              		.file 11 "c:\\devtools\\gcc_v49_2014q4\\arm-none-eabi\\include\\string.h"
 1768              		.file 12 "src/kbdutil.h"
 1769              		.file 13 "src/ftptran.h"
 1770              		.file 14 "src/batchsys.h"
 1771              		.file 15 "src/termdata.h"