ARM GAS  C:\Users\AHMED~1.ELE\AppData\Local\Temp\ccFqTNzq.s 			page 1


   1              		.syntax unified
   2              		.cpu cortex-a5
   3              		.fpu softvfp
   4              		.eabi_attribute 20, 1
   5              		.eabi_attribute 21, 1
   6              		.eabi_attribute 23, 3
   7              		.eabi_attribute 24, 1
   8              		.eabi_attribute 25, 1
   9              		.eabi_attribute 26, 1
  10              		.eabi_attribute 30, 4
  11              		.eabi_attribute 34, 0
  12              		.eabi_attribute 18, 4
  13              		.thumb
  14              		.file	"rmenu.c"
  15              		.text
  16              	.Ltext0:
  17              		.cfi_sections	.debug_frame
  18              		.section	.text.RMenuSel,"ax",%progbits
  19              		.align	1
  20              		.global	RMenuSel
  21              		.thumb
  22              		.thumb_func
  23              		.type	RMenuSel, %function
  24              	RMenuSel:
  25              	.LFB0:
  26              		.file 1 "src/rmenu.c"
   1:src/rmenu.c   **** //-----------------------------------------------------------------------------
   2:src/rmenu.c   **** //  File          : rmenu.c
   3:src/rmenu.c   **** //  Module        :
   4:src/rmenu.c   **** //  Description   : Right ATM Key Menu Selection function.
   5:src/rmenu.c   **** //  Author        : Lewis
   6:src/rmenu.c   **** //  Notes         : N/A
   7:src/rmenu.c   **** //
   8:src/rmenu.c   **** // ============================================================================
   9:src/rmenu.c   **** // | Naming conventions                                                       |
  10:src/rmenu.c   **** // | ~~~~~~~~~~~~~~~~~~                                                       |
  11:src/rmenu.c   **** // |         Struct/Array : Leading s                                         |
  12:src/rmenu.c   **** // |             Constant : Leading K                                         |
  13:src/rmenu.c   **** // |      Global Variable : Leading g  (variable use outside one C file)      |
  14:src/rmenu.c   **** // |                                                                          |
  15:src/rmenu.c   **** // |   BYTE( 8 Bits) size : Leading b                                         |
  16:src/rmenu.c   **** // |   CHAR( 8 Bits) size : Leading c                                         |
  17:src/rmenu.c   **** // |   WORD(16 Bits) size : Leading w                                         |
  18:src/rmenu.c   **** // |  DWORD(32 Bits) size : Leading d                                         |
  19:src/rmenu.c   **** // |    int(32 Bits) size : Leading i                                         |
  20:src/rmenu.c   **** // | DDWORD(64 Bits) size : Leading dd                                        |
  21:src/rmenu.c   **** // |              Pointer : Leading p                                         |
  22:src/rmenu.c   **** // |                                                                          |
  23:src/rmenu.c   **** // |    Function argument : Leading a                                         |
  24:src/rmenu.c   **** // |       Local Variable : All lower case                                    |
  25:src/rmenu.c   **** // |                                                                          |
  26:src/rmenu.c   **** // | Examples:                                                                |
  27:src/rmenu.c   **** // |                Array : Leading s, (sb = arrary of byte, etc)             |
  28:src/rmenu.c   **** // |              Pointer : Leading p, (pb = pointer of byte, etc)            |
  29:src/rmenu.c   **** // ============================================================================
  30:src/rmenu.c   **** //
  31:src/rmenu.c   **** //  Date          Who         Action
ARM GAS  C:\Users\AHMED~1.ELE\AppData\Local\Temp\ccFqTNzq.s 			page 2


  32:src/rmenu.c   **** //  ------------  ----------- -------------------------------------------------
  33:src/rmenu.c   **** //  01 Apr  2009  Lewis       Initial Version.
  34:src/rmenu.c   **** //-----------------------------------------------------------------------------
  35:src/rmenu.c   **** #include <string.h>
  36:src/rmenu.c   **** #include "hwdef.h"
  37:src/rmenu.c   **** #include "midware.h"
  38:src/rmenu.c   **** #include "sysutil.h"
  39:src/rmenu.c   **** #include "kbdutil.h"
  40:src/rmenu.c   **** #include "rmenu.h"
  41:src/rmenu.c   **** 
  42:src/rmenu.c   **** //-----------------------------------------------------------------------------
  43:src/rmenu.c   **** //      Defines
  44:src/rmenu.c   **** //-----------------------------------------------------------------------------
  45:src/rmenu.c   **** 
  46:src/rmenu.c   **** //-----------------------------------------------------------------------------
  47:src/rmenu.c   **** //      Globals
  48:src/rmenu.c   **** //-----------------------------------------------------------------------------
  49:src/rmenu.c   **** 
  50:src/rmenu.c   **** //-----------------------------------------------------------------------------
  51:src/rmenu.c   **** //      Constants
  52:src/rmenu.c   **** //-----------------------------------------------------------------------------
  53:src/rmenu.c   **** //
  54:src/rmenu.c   **** //*****************************************************************************
  55:src/rmenu.c   **** //  Function        : RMenuSel
  56:src/rmenu.c   **** //  Description     : Prompt for menu selection.
  57:src/rmenu.c   **** //  Input           : aTbl;     // pointer to RMENUDAT
  58:src/rmenu.c   **** //                    aIcon;    // Icon Data (106x106) pixel.
  59:src/rmenu.c   **** //                    aIconDesc;// message under icon(user control)
  60:src/rmenu.c   **** //  Return          : N/A
  61:src/rmenu.c   **** //  Note            : N/A
  62:src/rmenu.c   **** //  Globals Changed : N/A
  63:src/rmenu.c   **** //*****************************************************************************
  64:src/rmenu.c   **** int RMenuSel(struct RMENUDAT *aTbl, BYTE *aIcon, BYTE *aIconDesc)
  65:src/rmenu.c   **** {
  27              		.loc 1 65 0
  28              		.cfi_startproc
  29              		@ args = 0, pretend = 0, frame = 64
  30              		@ frame_needed = 0, uses_anonymous_args = 0
  31              	.LVL0:
  32 0000 2DE9F04F 		push	{r4, r5, r6, r7, r8, r9, r10, fp, lr}
  33              		.cfi_def_cfa_offset 36
  34              		.cfi_offset 4, -36
  35              		.cfi_offset 5, -32
  36              		.cfi_offset 6, -28
  37              		.cfi_offset 7, -24
  38              		.cfi_offset 8, -20
  39              		.cfi_offset 9, -16
  40              		.cfi_offset 10, -12
  41              		.cfi_offset 11, -8
  42              		.cfi_offset 14, -4
  43 0004 0C46     		mov	r4, r1
  44 0006 93B0     		sub	sp, sp, #76
  45              		.cfi_def_cfa_offset 112
  46              		.loc 1 65 0
  47 0008 8146     		mov	r9, r0
  66:src/rmenu.c   ****   #if (CLCD_SUPPORT)
  67:src/rmenu.c   ****   struct  GLOC loc;
ARM GAS  C:\Users\AHMED~1.ELE\AppData\Local\Temp\ccFqTNzq.s 			page 3


  68:src/rmenu.c   ****   #endif
  69:src/rmenu.c   ****   DWORD   start_idx, old_idx, keyin, i, len, max_len, max_item, curr_idx;
  70:src/rmenu.c   ****   BYTE    tmp[MW_MAX_LINESIZE+1];
  71:src/rmenu.c   ****   DWORD   curr_sel, line_no;
  72:src/rmenu.c   ****   int     select = -1;
  73:src/rmenu.c   **** 
  74:src/rmenu.c   ****   DispCtrlMW(MW_CLR_DISP);
  48              		.loc 1 74 0
  49 000a 0C21     		movs	r1, #12
  50              	.LVL1:
  51 000c 1620     		movs	r0, #22
  52              	.LVL2:
  65:src/rmenu.c   ****   #if (CLCD_SUPPORT)
  53              		.loc 1 65 0
  54 000e 1546     		mov	r5, r2
  55              		.loc 1 74 0
  56 0010 FFF7FEFF 		bl	sys_func1
  57              	.LVL3:
  75:src/rmenu.c   ****   #if (CLCD_SUPPORT)
  76:src/rmenu.c   ****   max_len = 20;
  77:src/rmenu.c   ****   if (aIcon != NULL) {
  58              		.loc 1 77 0
  59 0014 DCB1     		cbz	r4, .L34
  78:src/rmenu.c   ****     loc.wPosX = 18;
  60              		.loc 1 78 0
  61 0016 1223     		movs	r3, #18
  79:src/rmenu.c   ****     loc.wPosY = 10;
  80:src/rmenu.c   ****     loc.wWidth = aIcon[5]*256+aIcon[4];
  62              		.loc 1 80 0
  63 0018 6279     		ldrb	r2, [r4, #5]	@ zero_extendqisi2
  78:src/rmenu.c   ****     loc.wPosX = 18;
  64              		.loc 1 78 0
  65 001a ADF82430 		strh	r3, [sp, #36]	@ movhi
  66              		.loc 1 80 0
  67 001e 2379     		ldrb	r3, [r4, #4]	@ zero_extendqisi2
  79:src/rmenu.c   ****     loc.wPosY = 10;
  68              		.loc 1 79 0
  69 0020 0A27     		movs	r7, #10
  70              		.loc 1 80 0
  71 0022 03EB0223 		add	r3, r3, r2, lsl #8
  81:src/rmenu.c   ****     loc.wHeight= aIcon[7]*256+aIcon[6];
  72              		.loc 1 81 0
  73 0026 E279     		ldrb	r2, [r4, #7]	@ zero_extendqisi2
  80:src/rmenu.c   ****     loc.wHeight= aIcon[7]*256+aIcon[6];
  74              		.loc 1 80 0
  75 0028 ADF82830 		strh	r3, [sp, #40]	@ movhi
  76              		.loc 1 81 0
  77 002c A379     		ldrb	r3, [r4, #6]	@ zero_extendqisi2
  82:src/rmenu.c   ****     ShowGraphicT800(&loc, &aIcon[8]);
  78              		.loc 1 82 0
  79 002e 09A8     		add	r0, sp, #36
  81:src/rmenu.c   ****     loc.wHeight= aIcon[7]*256+aIcon[6];
  80              		.loc 1 81 0
  81 0030 03EB0223 		add	r3, r3, r2, lsl #8
  82              		.loc 1 82 0
  83 0034 04F10801 		add	r1, r4, #8
  79:src/rmenu.c   ****     loc.wWidth = aIcon[5]*256+aIcon[4];
ARM GAS  C:\Users\AHMED~1.ELE\AppData\Local\Temp\ccFqTNzq.s 			page 4


  84              		.loc 1 79 0
  85 0038 ADF82670 		strh	r7, [sp, #38]	@ movhi
  81:src/rmenu.c   ****     ShowGraphicT800(&loc, &aIcon[8]);
  86              		.loc 1 81 0
  87 003c ADF82A30 		strh	r3, [sp, #42]	@ movhi
  88              		.loc 1 82 0
  89 0040 FFF7FEFF 		bl	ShowGraphicT800
  90              	.LVL4:
  83:src/rmenu.c   ****     if (aIconDesc!=NULL)
  91              		.loc 1 83 0
  92 0044 25B1     		cbz	r5, .L2
  84:src/rmenu.c   ****       DispPutStr(aIconDesc);
  93              		.loc 1 84 0
  94 0046 2846     		mov	r0, r5
  95 0048 FFF7FEFF 		bl	DispPutStr
  96              	.LVL5:
  97 004c 00E0     		b	.L2
  98              	.L34:
  76:src/rmenu.c   ****   if (aIcon != NULL) {
  99              		.loc 1 76 0
 100 004e 1427     		movs	r7, #20
 101              	.L2:
 102              	.LVL6:
  85:src/rmenu.c   ****     max_len = 10;
  86:src/rmenu.c   ****   }
  87:src/rmenu.c   ****   #elif (!CLCD_SUPPORT)
  88:src/rmenu.c   ****   if (aIcon != NULL) {
  89:src/rmenu.c   ****     ShowBWLogo(aIcon, 536);
  90:src/rmenu.c   ****   }
  91:src/rmenu.c   ****   max_len = 10;
  92:src/rmenu.c   ****   #endif
  93:src/rmenu.c   **** 
  94:src/rmenu.c   ****   // find max menu item
  95:src/rmenu.c   ****   max_item = 0;
 103              		.loc 1 95 0
 104 0050 4FF00008 		mov	r8, #0
 105              	.LVL7:
 106              	.L3:
 107 0054 1C23     		movs	r3, #28
 108 0056 03FB08F3 		mul	r3, r3, r8
  96:src/rmenu.c   ****   while (aTbl[max_item].iID != -1)  max_item++;
 109              		.loc 1 96 0 discriminator 1
 110 005a 59F80360 		ldr	r6, [r9, r3]
 111 005e 731C     		adds	r3, r6, #1
 112 0060 02D0     		beq	.L81
 113              		.loc 1 96 0 is_stmt 0 discriminator 2
 114 0062 08F10108 		add	r8, r8, #1
 115              	.LVL8:
 116 0066 F5E7     		b	.L3
 117              	.L81:
 118              		.loc 1 96 0
 119 0068 0025     		movs	r5, #0
 120              	.LVL9:
 121 006a B246     		mov	r10, r6
 122 006c 2C46     		mov	r4, r5
 123              	.LVL10:
 124 006e 0495     		str	r5, [sp, #16]
ARM GAS  C:\Users\AHMED~1.ELE\AppData\Local\Temp\ccFqTNzq.s 			page 5


 125              	.LVL11:
 126              	.L5:
  97:src/rmenu.c   **** 
  98:src/rmenu.c   ****   curr_sel = start_idx = curr_idx = 0;
  99:src/rmenu.c   ****   old_idx   = -1;
 100:src/rmenu.c   ****   while (1) {
 101:src/rmenu.c   ****     // Update Idle Display
 102:src/rmenu.c   ****     if (start_idx != old_idx) {
 127              		.loc 1 102 0 is_stmt 1
 128 0070 5445     		cmp	r4, r10
 129 0072 00F0B580 		beq	.L6
 130 0076 A346     		mov	fp, r4
 131 0078 4FF0000A 		mov	r10, #0
 132              	.LVL12:
 133              	.L13:
 103:src/rmenu.c   ****       // Show Application List
 104:src/rmenu.c   ****       for (i = 0; i < 4; i++) {
 105:src/rmenu.c   ****         memset(tmp, ' ', max_len);
 134              		.loc 1 105 0
 135 007c 0BA8     		add	r0, sp, #44
 136 007e 2021     		movs	r1, #32
 137 0080 3A46     		mov	r2, r7
 138 0082 FFF7FEFF 		bl	memset
 139              	.LVL13:
 106:src/rmenu.c   ****         if ((start_idx + i) < max_item) {
 140              		.loc 1 106 0
 141 0086 C345     		cmp	fp, r8
 142 0088 15D2     		bcs	.L7
 143              	.LVL14:
 144 008a 1C23     		movs	r3, #28
 145 008c 0AEB0401 		add	r1, r10, r4
 146 0090 03FB0191 		mla	r1, r3, r1, r9
 147 0094 0431     		adds	r1, r1, #4
 107:src/rmenu.c   ****           curr_idx = start_idx + i;
 108:src/rmenu.c   ****           len = strlen(aTbl[curr_idx].sbName);
 148              		.loc 1 108 0
 149 0096 0846     		mov	r0, r1
 150 0098 0391     		str	r1, [sp, #12]
 151 009a FFF7FEFF 		bl	strlen
 152              	.LVL15:
 109:src/rmenu.c   ****           if (len > max_len)
 110:src/rmenu.c   ****             len = max_len;
 111:src/rmenu.c   ****           memcpy(&tmp[max_len-len], aTbl[curr_idx].sbName, len);
 153              		.loc 1 111 0
 154 009e 0BAB     		add	r3, sp, #44
 155 00a0 0399     		ldr	r1, [sp, #12]
 156 00a2 B842     		cmp	r0, r7
 157 00a4 0246     		mov	r2, r0
 158 00a6 28BF     		it	cs
 159 00a8 3A46     		movcs	r2, r7
 160              	.LVL16:
 161 00aa B81A     		subs	r0, r7, r2
 162 00ac 1844     		add	r0, r0, r3
 163 00ae FFF7FEFF 		bl	memcpy
 164              	.LVL17:
 165 00b2 CDF810B0 		str	fp, [sp, #16]
 166              	.LVL18:
ARM GAS  C:\Users\AHMED~1.ELE\AppData\Local\Temp\ccFqTNzq.s 			page 6


 167              	.L7:
 112:src/rmenu.c   ****         }
 113:src/rmenu.c   ****         tmp[max_len] = 0;
 168              		.loc 1 113 0
 169 00b6 12AB     		add	r3, sp, #72
 170 00b8 0022     		movs	r2, #0
 171 00ba 3B44     		add	r3, r3, r7
 172              	.LBB2:
 114:src/rmenu.c   ****         line_no = MW_LINE1+i*(MW_LINE3-MW_LINE1);
 115:src/rmenu.c   ****         DispLineMW(tmp, line_no, MW_RIGHT|MW_BIGFONT);
 173              		.loc 1 115 0
 174 00bc 0BA8     		add	r0, sp, #44
 175              	.LBE2:
 113:src/rmenu.c   ****         line_no = MW_LINE1+i*(MW_LINE3-MW_LINE1);
 176              		.loc 1 113 0
 177 00be 03F81C2C 		strb	r2, [r3, #-28]
 178 00c2 4FEA4A23 		lsl	r3, r10, #9
 179 00c6 0593     		str	r3, [sp, #20]
 180 00c8 03F58073 		add	r3, r3, #256
 181 00cc 0393     		str	r3, [sp, #12]
 182              	.LVL19:
 183              	.LBB3:
 184              		.loc 1 115 0
 185 00ce FFF7FEFF 		bl	strlen
 186              	.LVL20:
 187 00d2 0346     		mov	r3, r0
 188              	.LVL21:
 189 00d4 591C     		adds	r1, r3, #1
 190 00d6 9220     		movs	r0, #146
 191              	.LVL22:
 192 00d8 0693     		str	r3, [sp, #24]
 193 00da FFF7FEFF 		bl	sys_func1
 194              	.LVL23:
 195 00de 0790     		str	r0, [sp, #28]
 196 00e0 D8B1     		cbz	r0, .L8
 197              		.loc 1 115 0 is_stmt 0 discriminator 1
 198 00e2 069B     		ldr	r3, [sp, #24]
 199 00e4 0BA9     		add	r1, sp, #44
 200 00e6 1A46     		mov	r2, r3
 201 00e8 FFF7FEFF 		bl	memcpy
 202              	.LVL24:
 203 00ec DDF81CC0 		ldr	ip, [sp, #28]
 204 00f0 069B     		ldr	r3, [sp, #24]
 205 00f2 0022     		movs	r2, #0
 206 00f4 2521     		movs	r1, #37
 207 00f6 0CF80320 		strb	r2, [ip, r3]
 208 00fa 41F20103 		movw	r3, #4097
 209 00fe 6246     		mov	r2, ip
 210 0100 0093     		str	r3, [sp]
 211 0102 0F20     		movs	r0, #15
 212 0104 039B     		ldr	r3, [sp, #12]
 213 0106 CDF818C0 		str	ip, [sp, #24]
 214              	.LVL25:
 215 010a FFF7FEFF 		bl	lib_app_call
 216              	.LVL26:
 217 010e DDF818C0 		ldr	ip, [sp, #24]
 218 0112 9420     		movs	r0, #148
ARM GAS  C:\Users\AHMED~1.ELE\AppData\Local\Temp\ccFqTNzq.s 			page 7


 219 0114 6146     		mov	r1, ip
 220 0116 FFF7FEFF 		bl	sys_func1
 221              	.LVL27:
 222              	.L8:
 223              	.LBE3:
 116:src/rmenu.c   ****         if (((start_idx + i) < max_item)&&(curr_sel == i))  {
 224              		.loc 1 116 0 is_stmt 1
 225 011a C345     		cmp	fp, r8
 226 011c 25D2     		bcs	.L10
 227              		.loc 1 116 0 is_stmt 0 discriminator 1
 228 011e 5545     		cmp	r5, r10
 229 0120 23D1     		bne	.L10
 117:src/rmenu.c   ****           if (line_no != MW_LINE7)
 230              		.loc 1 117 0 is_stmt 1
 231 0122 039B     		ldr	r3, [sp, #12]
 232              	.LBB4:
 118:src/rmenu.c   ****             line_no += MW_LINE2-MW_LINE1;
 119:src/rmenu.c   ****           DispLineMW("*", line_no, MW_RIGHT|MW_SMFONT);
 233              		.loc 1 119 0
 234 0124 9220     		movs	r0, #146
 235              	.LBE4:
 117:src/rmenu.c   ****           if (line_no != MW_LINE7)
 236              		.loc 1 117 0
 237 0126 B3F5E06F 		cmp	r3, #1792
 238              	.LBB5:
 239              		.loc 1 119 0
 240 012a 4FF00201 		mov	r1, #2
 241 012e 16BF     		itet	ne
 242 0130 059B     		ldrne	r3, [sp, #20]
 243              	.LBE5:
 244 0132 039B     		ldreq	r3, [sp, #12]
 245 0134 03F50073 		addne	r3, r3, #512
 246              	.LVL28:
 247 0138 0593     		str	r3, [sp, #20]
 248              	.LVL29:
 249              	.LBB6:
 250 013a FFF7FEFF 		bl	sys_func1
 251              	.LVL30:
 252 013e 8446     		mov	ip, r0
 253 0140 98B1     		cbz	r0, .L10
 254              		.loc 1 119 0 is_stmt 0 discriminator 1
 255 0142 2A22     		movs	r2, #42
 256 0144 2521     		movs	r1, #37
 257 0146 0270     		strb	r2, [r0]
 258 0148 0022     		movs	r2, #0
 259 014a 059B     		ldr	r3, [sp, #20]
 260 014c 4270     		strb	r2, [r0, #1]
 261 014e 0122     		movs	r2, #1
 262 0150 0F20     		movs	r0, #15
 263              	.LVL31:
 264 0152 0092     		str	r2, [sp]
 265 0154 6246     		mov	r2, ip
 266 0156 CDF80CC0 		str	ip, [sp, #12]
 267 015a FFF7FEFF 		bl	lib_app_call
 268              	.LVL32:
 269 015e DDF80CC0 		ldr	ip, [sp, #12]
 270 0162 9420     		movs	r0, #148
ARM GAS  C:\Users\AHMED~1.ELE\AppData\Local\Temp\ccFqTNzq.s 			page 8


 271 0164 6146     		mov	r1, ip
 272 0166 FFF7FEFF 		bl	sys_func1
 273              	.LVL33:
 274              	.L10:
 275              	.LBE6:
 104:src/rmenu.c   ****         memset(tmp, ' ', max_len);
 276              		.loc 1 104 0 is_stmt 1 discriminator 2
 277 016a 0AF1010A 		add	r10, r10, #1
 278              	.LVL34:
 279 016e BAF1040F 		cmp	r10, #4
 280 0172 0BF1010B 		add	fp, fp, #1
 281 0176 81D1     		bne	.L13
 120:src/rmenu.c   ****         }
 121:src/rmenu.c   ****         #if (T800)        
 122:src/rmenu.c   ****         sprintf(tmp, "[%d/%d] ", (start_idx/4+1), (max_item-1)/4+1);
 123:src/rmenu.c   ****         DispLineMW(tmp, MW_MAX_LINE, MW_RIGHT|MW_SMFONT);
 124:src/rmenu.c   ****         #endif        
 125:src/rmenu.c   ****       }
 126:src/rmenu.c   ****       if (start_idx != 0) {  // Has previous page
 282              		.loc 1 126 0
 283 0178 B4B1     		cbz	r4, .L15
 284              	.LVL35:
 285              	.LBB7:
 127:src/rmenu.c   ****         DispLineMW("+", MW_LINE1, MW_RIGHT|MW_SMFONT);
 286              		.loc 1 127 0
 287 017a 9220     		movs	r0, #146
 288 017c 0221     		movs	r1, #2
 289 017e FFF7FEFF 		bl	sys_func1
 290              	.LVL36:
 291 0182 8246     		mov	r10, r0
 292              	.LVL37:
 293 0184 80B1     		cbz	r0, .L15
 294              		.loc 1 127 0 is_stmt 0 discriminator 1
 295 0186 2B23     		movs	r3, #43
 296 0188 2521     		movs	r1, #37
 297 018a 0370     		strb	r3, [r0]
 298 018c 0023     		movs	r3, #0
 299 018e 5246     		mov	r2, r10
 300 0190 4370     		strb	r3, [r0, #1]
 301 0192 0123     		movs	r3, #1
 302 0194 0F20     		movs	r0, #15
 303              	.LVL38:
 304 0196 0093     		str	r3, [sp]
 305 0198 4FF48073 		mov	r3, #256
 306 019c FFF7FEFF 		bl	lib_app_call
 307              	.LVL39:
 308 01a0 9420     		movs	r0, #148
 309 01a2 5146     		mov	r1, r10
 310 01a4 FFF7FEFF 		bl	sys_func1
 311              	.LVL40:
 312              	.L15:
 313              	.LBE7:
 128:src/rmenu.c   ****       }
 129:src/rmenu.c   ****       if ((curr_idx+1) < max_item) {  // Has Next Page
 314              		.loc 1 129 0 is_stmt 1
 315 01a8 049B     		ldr	r3, [sp, #16]
 316 01aa 0133     		adds	r3, r3, #1
ARM GAS  C:\Users\AHMED~1.ELE\AppData\Local\Temp\ccFqTNzq.s 			page 9


 317 01ac 4345     		cmp	r3, r8
 318 01ae 16D2     		bcs	.L38
 319              	.LVL41:
 320              	.LBB8:
 130:src/rmenu.c   ****         DispLineMW("+", MW_MAX_LINE, MW_RIGHT|MW_SMFONT);
 321              		.loc 1 130 0
 322 01b0 9220     		movs	r0, #146
 323 01b2 0221     		movs	r1, #2
 324 01b4 FFF7FEFF 		bl	sys_func1
 325              	.LVL42:
 326 01b8 8246     		mov	r10, r0
 327 01ba 80B1     		cbz	r0, .L38
 328              		.loc 1 130 0 is_stmt 0 discriminator 1
 329 01bc 2B23     		movs	r3, #43
 330 01be 2521     		movs	r1, #37
 331 01c0 0370     		strb	r3, [r0]
 332 01c2 0023     		movs	r3, #0
 333 01c4 5246     		mov	r2, r10
 334 01c6 4370     		strb	r3, [r0, #1]
 335 01c8 0123     		movs	r3, #1
 336 01ca 0F20     		movs	r0, #15
 337              	.LVL43:
 338 01cc 0093     		str	r3, [sp]
 339 01ce 4FF41063 		mov	r3, #2304
 340 01d2 FFF7FEFF 		bl	lib_app_call
 341              	.LVL44:
 342 01d6 9420     		movs	r0, #148
 343 01d8 5146     		mov	r1, r10
 344 01da FFF7FEFF 		bl	sys_func1
 345              	.LVL45:
 346              	.L38:
 347 01de A246     		mov	r10, r4
 348              	.LVL46:
 349              	.L6:
 350              	.LBE8:
 131:src/rmenu.c   ****       }
 132:src/rmenu.c   ****       old_idx = start_idx;
 133:src/rmenu.c   ****     }
 134:src/rmenu.c   **** 
 135:src/rmenu.c   ****     keyin = GetCharMW();
 351              		.loc 1 135 0 is_stmt 1
 352 01e0 4FF0000B 		mov	fp, #0
 353 01e4 0F20     		movs	r0, #15
 354 01e6 CDF800B0 		str	fp, [sp]
 355 01ea 1621     		movs	r1, #22
 356 01ec 5A46     		mov	r2, fp
 357 01ee 5B46     		mov	r3, fp
 358 01f0 FFF7FEFF 		bl	lib_app_call
 359              	.LVL47:
 136:src/rmenu.c   ****     switch (keyin) {
 360              		.loc 1 136 0
 361 01f4 4628     		cmp	r0, #70
 362 01f6 47D0     		beq	.L18
 363 01f8 0DD8     		bhi	.L19
 364 01fa 4228     		cmp	r0, #66
 365 01fc 4AD0     		beq	.L20
 366 01fe 07D8     		bhi	.L21
ARM GAS  C:\Users\AHMED~1.ELE\AppData\Local\Temp\ccFqTNzq.s 			page 10


 367 0200 1228     		cmp	r0, #18
 368 0202 61D0     		beq	.L39
 369 0204 4128     		cmp	r0, #65
 370 0206 50D0     		beq	.L23
 371 0208 1028     		cmp	r0, #16
 372 020a 55D1     		bne	.L17
 137:src/rmenu.c   ****       case MWKEY_CLR:
 138:src/rmenu.c   ****         start_idx = 0;
 139:src/rmenu.c   ****         break;
 140:src/rmenu.c   ****       case MWKEY_ENTER:
 141:src/rmenu.c   ****         select = aTbl[start_idx+curr_sel].iID;
 373              		.loc 1 141 0
 374 020c 2A19     		adds	r2, r5, r4
 375 020e 18E0     		b	.L79
 376              	.L21:
 136:src/rmenu.c   ****     switch (keyin) {
 377              		.loc 1 136 0
 378 0210 4328     		cmp	r0, #67
 379 0212 2DD1     		bne	.L76
 380 0214 38E0     		b	.L18
 381              	.L19:
 382 0216 5428     		cmp	r0, #84
 383 0218 0FD0     		beq	.L26
 384 021a 07D8     		bhi	.L27
 385 021c 4828     		cmp	r0, #72
 386 021e 39D0     		beq	.L20
 387 0220 43D3     		bcc	.L23
 388 0222 5328     		cmp	r0, #83
 389 0224 48D1     		bne	.L17
 142:src/rmenu.c   ****         break;
 143:src/rmenu.c   ****       case MWKEY_RIGHT1:
 144:src/rmenu.c   ****         select = aTbl[start_idx].iID;
 390              		.loc 1 144 0
 391 0226 1C23     		movs	r3, #28
 392 0228 6343     		muls	r3, r4, r3
 393 022a 0CE0     		b	.L78
 394              	.L27:
 136:src/rmenu.c   ****       case MWKEY_CLR:
 395              		.loc 1 136 0
 396 022c 5628     		cmp	r0, #86
 397 022e 16D0     		beq	.L29
 398 0230 0CD3     		bcc	.L30
 399 0232 5828     		cmp	r0, #88
 400 0234 40D1     		bne	.L17
 145:src/rmenu.c   ****         break;
 146:src/rmenu.c   ****       case MWKEY_RIGHT2:
 147:src/rmenu.c   ****         if ((start_idx + 1) < max_item)
 148:src/rmenu.c   ****           select = aTbl[start_idx+1].iID;
 149:src/rmenu.c   ****         break;
 150:src/rmenu.c   ****       case MWKEY_RIGHT3:
 151:src/rmenu.c   ****         if ((start_idx + 2) < max_item)
 152:src/rmenu.c   ****           select = aTbl[start_idx+2].iID;
 153:src/rmenu.c   ****         break;
 154:src/rmenu.c   ****       case MWKEY_RIGHT4:
 155:src/rmenu.c   ****         if ((start_idx + 3) < max_item)
 156:src/rmenu.c   ****           select = aTbl[start_idx+3].iID;
 157:src/rmenu.c   ****         break;
ARM GAS  C:\Users\AHMED~1.ELE\AppData\Local\Temp\ccFqTNzq.s 			page 11


 158:src/rmenu.c   ****       case MWKEY_POWER:
 159:src/rmenu.c   ****         select = RMNU_POWEROFF;
 401              		.loc 1 159 0
 402 0236 FF26     		movs	r6, #255
 403 0238 48E0     		b	.L52
 404              	.L26:
 147:src/rmenu.c   ****           select = aTbl[start_idx+1].iID;
 405              		.loc 1 147 0
 406 023a 621C     		adds	r2, r4, #1
 407 023c 4245     		cmp	r2, r8
 408 023e BFF417AF 		bcs	.L5
 409              	.L79:
 148:src/rmenu.c   ****         break;
 410              		.loc 1 148 0
 411 0242 1C23     		movs	r3, #28
 412 0244 5343     		muls	r3, r2, r3
 413              	.L78:
 414 0246 59F80360 		ldr	r6, [r9, r3]
 415              	.LVL48:
 416 024a 39E0     		b	.L32
 417              	.LVL49:
 418              	.L30:
 151:src/rmenu.c   ****           select = aTbl[start_idx+2].iID;
 419              		.loc 1 151 0
 420 024c A31C     		adds	r3, r4, #2
 421 024e 4345     		cmp	r3, r8
 422 0250 BFF40EAF 		bcs	.L5
 152:src/rmenu.c   ****         break;
 423              		.loc 1 152 0
 424 0254 1C23     		movs	r3, #28
 425 0256 03FB0493 		mla	r3, r3, r4, r9
 426 025a 9E6B     		ldr	r6, [r3, #56]
 427              	.LVL50:
 428 025c 30E0     		b	.L32
 429              	.LVL51:
 430              	.L29:
 155:src/rmenu.c   ****           select = aTbl[start_idx+3].iID;
 431              		.loc 1 155 0
 432 025e E31C     		adds	r3, r4, #3
 433 0260 4345     		cmp	r3, r8
 434 0262 BFF405AF 		bcs	.L5
 156:src/rmenu.c   ****         break;
 435              		.loc 1 156 0
 436 0266 1C23     		movs	r3, #28
 437 0268 03FB0493 		mla	r3, r3, r4, r9
 438 026c 5E6D     		ldr	r6, [r3, #84]
 439              	.LVL52:
 440 026e 27E0     		b	.L32
 441              	.LVL53:
 442              	.L76:
 160:src/rmenu.c   ****         break;
 161:src/rmenu.c   ****       case MWKEY_FUNC1:  // Next Page
 162:src/rmenu.c   ****       case MWKEY_RIGHT:  // Next Page
 163:src/rmenu.c   ****         if (aTbl[curr_idx+1].iID != -1) {
 443              		.loc 1 163 0
 444 0270 049B     		ldr	r3, [sp, #16]
 445 0272 5A1C     		adds	r2, r3, #1
ARM GAS  C:\Users\AHMED~1.ELE\AppData\Local\Temp\ccFqTNzq.s 			page 12


 446 0274 1C23     		movs	r3, #28
 447 0276 5343     		muls	r3, r2, r3
 448 0278 59F80330 		ldr	r3, [r9, r3]
 449 027c 0133     		adds	r3, r3, #1
 450 027e 3FF4F7AE 		beq	.L5
 164:src/rmenu.c   ****           start_idx += 4;
 451              		.loc 1 164 0
 452 0282 0434     		adds	r4, r4, #4
 453              	.LVL54:
 165:src/rmenu.c   ****           curr_sel = 0;
 454              		.loc 1 165 0
 455 0284 5D46     		mov	r5, fp
 456 0286 14E0     		b	.L77
 457              	.LVL55:
 458              	.L18:
 166:src/rmenu.c   ****           old_idx = -1; //refresh display
 167:src/rmenu.c   ****         }
 168:src/rmenu.c   ****         break;
 169:src/rmenu.c   ****       case MWKEY_FUNC2:  // Prev Page
 170:src/rmenu.c   ****       case MWKEY_LEFT:  // Next Page
 171:src/rmenu.c   ****         if (start_idx >= 4) {
 459              		.loc 1 171 0
 460 0288 032C     		cmp	r4, #3
 461 028a 7FF6F1AE 		bls	.L5
 172:src/rmenu.c   ****           start_idx -= 4;
 462              		.loc 1 172 0
 463 028e 043C     		subs	r4, r4, #4
 464              	.LVL56:
 173:src/rmenu.c   ****           curr_sel = 3;
 465              		.loc 1 173 0
 466 0290 0325     		movs	r5, #3
 467 0292 0EE0     		b	.L77
 468              	.LVL57:
 469              	.L20:
 174:src/rmenu.c   ****           old_idx = -1; //refresh display
 175:src/rmenu.c   ****         }
 176:src/rmenu.c   ****         break;
 177:src/rmenu.c   ****       case MWKEY_FUNC4:  // Next Sel
 178:src/rmenu.c   ****       case MWKEY_DN:
 179:src/rmenu.c   ****         if ((curr_sel < 3) && ((start_idx + curr_sel) < max_item-1)) {
 470              		.loc 1 179 0
 471 0294 022D     		cmp	r5, #2
 472 0296 3FF6EBAE 		bhi	.L5
 473              		.loc 1 179 0 is_stmt 0 discriminator 1
 474 029a 2B19     		adds	r3, r5, r4
 475 029c 08F1FF32 		add	r2, r8, #-1
 476 02a0 9342     		cmp	r3, r2
 477 02a2 BFF4E5AE 		bcs	.L5
 180:src/rmenu.c   ****           curr_sel += 1;
 478              		.loc 1 180 0 is_stmt 1
 479 02a6 0135     		adds	r5, r5, #1
 480              	.LVL58:
 481 02a8 03E0     		b	.L77
 482              	.LVL59:
 483              	.L23:
 181:src/rmenu.c   ****           old_idx = -1; //refresh display
 182:src/rmenu.c   ****         }
ARM GAS  C:\Users\AHMED~1.ELE\AppData\Local\Temp\ccFqTNzq.s 			page 13


 183:src/rmenu.c   ****         break;
 184:src/rmenu.c   ****       case MWKEY_FUNC3:  // Prev Sel
 185:src/rmenu.c   ****       case MWKEY_UP:
 186:src/rmenu.c   ****         if (curr_sel > 0) {
 484              		.loc 1 186 0
 485 02aa 002D     		cmp	r5, #0
 486 02ac 3FF4E0AE 		beq	.L5
 187:src/rmenu.c   ****           curr_sel -= 1;
 487              		.loc 1 187 0
 488 02b0 013D     		subs	r5, r5, #1
 489              	.LVL60:
 490              	.L77:
 188:src/rmenu.c   ****           old_idx = -1; //refresh display
 491              		.loc 1 188 0
 492 02b2 4FF0FF3A 		mov	r10, #-1
 493 02b6 DBE6     		b	.L5
 494              	.LVL61:
 495              	.L17:
 189:src/rmenu.c   ****         }
 190:src/rmenu.c   ****         break;
 191:src/rmenu.c   ****     }
 192:src/rmenu.c   ****     if ((select >= 0) || (keyin == MWKEY_CANCL))
 496              		.loc 1 192 0
 497 02b8 1128     		cmp	r0, #17
 498 02ba 7FF4D9AE 		bne	.L5
 499 02be 05E0     		b	.L52
 500              	.LVL62:
 501              	.L32:
 502 02c0 002E     		cmp	r6, #0
 503 02c2 FFF6D5AE 		blt	.L5
 504 02c6 01E0     		b	.L52
 505              	.LVL63:
 506              	.L39:
 138:src/rmenu.c   ****         break;
 507              		.loc 1 138 0
 508 02c8 5C46     		mov	r4, fp
 509              	.LVL64:
 510 02ca D1E6     		b	.L5
 511              	.LVL65:
 512              	.L52:
 193:src/rmenu.c   ****       break;
 194:src/rmenu.c   ****   }
 195:src/rmenu.c   ****   return select;
 196:src/rmenu.c   **** }
 513              		.loc 1 196 0
 514 02cc 3046     		mov	r0, r6
 515              	.LVL66:
 516 02ce 13B0     		add	sp, sp, #76
 517              		.cfi_def_cfa_offset 36
 518              		@ sp needed
 519 02d0 BDE8F08F 		pop	{r4, r5, r6, r7, r8, r9, r10, fp, pc}
 520              		.cfi_endproc
 521              	.LFE0:
 522              		.size	RMenuSel, .-RMenuSel
 523              		.text
 524              	.Letext0:
 525              		.file 2 "c:\\devtools\\gcc_v49_2014q4\\lib\\gcc\\arm-none-eabi\\4.9.3\\include\\stddef.h"
ARM GAS  C:\Users\AHMED~1.ELE\AppData\Local\Temp\ccFqTNzq.s 			page 14


 526              		.file 3 "../LibA5T1000/common.h"
 527              		.file 4 "src/sysutil.h"
 528              		.file 5 "src/rmenu.h"
 529              		.file 6 "c:\\devtools\\gcc_v49_2014q4\\arm-none-eabi\\include\\string.h"
 530              		.file 7 "../LibA5T1000/system.h"
 531              		.file 8 "../LibA5T1000/midware.h"