ARM GAS  C:\Users\AHMED~1.ELE\AppData\Local\Temp\ccGujCBB.s 			page 1


   1              		.syntax unified
   2              		.cpu cortex-a5
   3              		.fpu softvfp
   4              		.eabi_attribute 20, 1
   5              		.eabi_attribute 21, 1
   6              		.eabi_attribute 23, 3
   7              		.eabi_attribute 24, 1
   8              		.eabi_attribute 25, 1
   9              		.eabi_attribute 26, 1
  10              		.eabi_attribute 30, 4
  11              		.eabi_attribute 34, 0
  12              		.eabi_attribute 18, 4
  13              		.thumb
  14              		.file	"sysutil.c"
  15              		.text
  16              	.Ltext0:
  17              		.cfi_sections	.debug_frame
  18              		.section	.text.LongBeep,"ax",%progbits
  19              		.align	1
  20              		.global	LongBeep
  21              		.thumb
  22              		.thumb_func
  23              		.type	LongBeep, %function
  24              	LongBeep:
  25              	.LFB0:
  26              		.file 1 "src/sysutil.c"
   1:src/sysutil.c **** //-----------------------------------------------------------------------------
   2:src/sysutil.c **** //  File          : sysutil.c
   3:src/sysutil.c **** //  Module        :
   4:src/sysutil.c **** //  Description   : Include Enhance System utitilies function.
   5:src/sysutil.c **** //  Author        : Lewis
   6:src/sysutil.c **** //  Notes         : No UI is include in the routines & call SYSTEM or UTILIB
   7:src/sysutil.c **** //                  Only.
   8:src/sysutil.c **** //
   9:src/sysutil.c **** // ============================================================================
  10:src/sysutil.c **** // | Naming conventions                                                       |
  11:src/sysutil.c **** // | ~~~~~~~~~~~~~~~~~~                                                       |
  12:src/sysutil.c **** // |         Struct/Array : Leading s                                         |
  13:src/sysutil.c **** // |             Constant : Leading K                                         |
  14:src/sysutil.c **** // |      Global Variable : Leading g  (variable use outside one C file)      |
  15:src/sysutil.c **** // |                                                                          |
  16:src/sysutil.c **** // |   BYTE( 8 Bits) size : Leading b                                         |
  17:src/sysutil.c **** // |   CHAR( 8 Bits) size : Leading c                                         |
  18:src/sysutil.c **** // |   WORD(16 Bits) size : Leading w                                         |
  19:src/sysutil.c **** // |  DWORD(32 Bits) size : Leading d                                         |
  20:src/sysutil.c **** // |    int(32 Bits) size : Leading i                                         |
  21:src/sysutil.c **** // | DDWORD(64 Bits) size : Leading dd                                        |
  22:src/sysutil.c **** // |              Pointer : Leading p                                         |
  23:src/sysutil.c **** // |                                                                          |
  24:src/sysutil.c **** // |    Function argument : Leading a                                         |
  25:src/sysutil.c **** // |       Local Variable : All lower case                                    |
  26:src/sysutil.c **** // |                                                                          |
  27:src/sysutil.c **** // | Examples:                                                                |
  28:src/sysutil.c **** // |                Array : Leading s, (sb = arrary of byte, etc)             |
  29:src/sysutil.c **** // |              Pointer : Leading p, (pb = pointer of byte, etc)            |
  30:src/sysutil.c **** // ============================================================================
  31:src/sysutil.c **** //
ARM GAS  C:\Users\AHMED~1.ELE\AppData\Local\Temp\ccGujCBB.s 			page 2


  32:src/sysutil.c **** //  Date          Who         Action
  33:src/sysutil.c **** //  ------------  ----------- -------------------------------------------------
  34:src/sysutil.c **** //  29 Sept 2008  Lewis       Initial Version.
  35:src/sysutil.c **** //-----------------------------------------------------------------------------
  36:src/sysutil.c **** #include <stdlib.h>
  37:src/sysutil.c **** #include <string.h>
  38:src/sysutil.c **** #include "hwdef.h"
  39:src/sysutil.c **** #include "midware.h"
  40:src/sysutil.c **** #include "hardware.h"
  41:src/sysutil.c **** #include "util.h"
  42:src/sysutil.c **** #include "kbdutil.h"
  43:src/sysutil.c **** #include "wifi.h"
  44:src/sysutil.c **** #include "mcp.h"
  45:src/sysutil.c **** #include "sysutil.h"
  46:src/sysutil.c **** 
  47:src/sysutil.c **** //-----------------------------------------------------------------------------
  48:src/sysutil.c **** //      Defines
  49:src/sysutil.c **** //-----------------------------------------------------------------------------
  50:src/sysutil.c **** #define DEBUG_POINT         1
  51:src/sysutil.c **** //-----------------------------------------------------------------------------
  52:src/sysutil.c **** 
  53:src/sysutil.c **** //-----------------------------------------------------------------------------
  54:src/sysutil.c **** //      Constants
  55:src/sysutil.c **** //-----------------------------------------------------------------------------
  56:src/sysutil.c **** #define FLASH_START_ADDRESS         0x00100000
  57:src/sysutil.c **** #define SRAM_END_ADDRESS            0x002FFFFF
  58:src/sysutil.c **** 
  59:src/sysutil.c **** static const BYTE KMonthText[13][3] = {
  60:src/sysutil.c ****   {' ',' ',' '},
  61:src/sysutil.c ****   {'J','A','N'},
  62:src/sysutil.c ****   {'F','E','B'},
  63:src/sysutil.c ****   {'M','A','R'},
  64:src/sysutil.c ****   {'A','P','R'},
  65:src/sysutil.c ****   {'M','A','Y'},
  66:src/sysutil.c ****   {'J','U','N'},
  67:src/sysutil.c ****   {'J','U','L'},
  68:src/sysutil.c ****   {'A','U','G'},
  69:src/sysutil.c ****   {'S','E','P'},
  70:src/sysutil.c ****   {'O','C','T'},
  71:src/sysutil.c ****   {'N','O','V'},
  72:src/sysutil.c ****   {'D','E','C'}
  73:src/sysutil.c **** };
  74:src/sysutil.c **** 
  75:src/sysutil.c **** 
  76:src/sysutil.c **** //*****************************************************************************
  77:src/sysutil.c **** //  Function        : LongBeep
  78:src/sysutil.c **** //  Description     : Generate long beep sound.
  79:src/sysutil.c **** //  Input           : N/A
  80:src/sysutil.c **** //  Return          : N/A
  81:src/sysutil.c **** //  Note            : 30ms;
  82:src/sysutil.c **** //  Globals Changed : N/A
  83:src/sysutil.c **** //*****************************************************************************
  84:src/sysutil.c **** void LongBeep(void)
  85:src/sysutil.c **** {
  27              		.loc 1 85 0
  28              		.cfi_startproc
  29              		@ args = 0, pretend = 0, frame = 0
ARM GAS  C:\Users\AHMED~1.ELE\AppData\Local\Temp\ccGujCBB.s 			page 3


  30              		@ frame_needed = 0, uses_anonymous_args = 0
  31              		@ link register save eliminated.
  86:src/sysutil.c ****   BeepMW(30, 9, 1);
  32              		.loc 1 86 0
  33 0000 1020     		movs	r0, #16
  34 0002 1E21     		movs	r1, #30
  35 0004 0922     		movs	r2, #9
  36 0006 0123     		movs	r3, #1
  37 0008 FFF7FEBF 		b	sys_func3
  38              	.LVL0:
  39              		.cfi_endproc
  40              	.LFE0:
  41              		.size	LongBeep, .-LongBeep
  42              		.section	.text.AcceptBeep,"ax",%progbits
  43              		.align	1
  44              		.global	AcceptBeep
  45              		.thumb
  46              		.thumb_func
  47              		.type	AcceptBeep, %function
  48              	AcceptBeep:
  49              	.LFB1:
  87:src/sysutil.c **** }
  88:src/sysutil.c **** //*****************************************************************************
  89:src/sysutil.c **** //  Function        : AcceptBeep
  90:src/sysutil.c **** //  Description     : Generate a beep sound for accept.
  91:src/sysutil.c **** //  Input           : N/A
  92:src/sysutil.c **** //  Return          : N/A
  93:src/sysutil.c **** //  Note            : 3 X 100ms
  94:src/sysutil.c **** //  Globals Changed : N/A
  95:src/sysutil.c **** //*****************************************************************************
  96:src/sysutil.c **** void AcceptBeep(void)
  97:src/sysutil.c **** {
  50              		.loc 1 97 0
  51              		.cfi_startproc
  52              		@ args = 0, pretend = 0, frame = 0
  53              		@ frame_needed = 0, uses_anonymous_args = 0
  54              		@ link register save eliminated.
  98:src/sysutil.c ****   BeepMW(10, 10, 3);
  55              		.loc 1 98 0
  56 0000 0A21     		movs	r1, #10
  57 0002 1020     		movs	r0, #16
  58 0004 0A46     		mov	r2, r1
  59 0006 0323     		movs	r3, #3
  60 0008 FFF7FEBF 		b	sys_func3
  61              	.LVL1:
  62              		.cfi_endproc
  63              	.LFE1:
  64              		.size	AcceptBeep, .-AcceptBeep
  65              		.section	.text.Short2Beep,"ax",%progbits
  66              		.align	1
  67              		.global	Short2Beep
  68              		.thumb
  69              		.thumb_func
  70              		.type	Short2Beep, %function
  71              	Short2Beep:
  72              	.LFB2:
  99:src/sysutil.c **** }
ARM GAS  C:\Users\AHMED~1.ELE\AppData\Local\Temp\ccGujCBB.s 			page 4


 100:src/sysutil.c **** //*****************************************************************************
 101:src/sysutil.c **** //  Function        : Short2Beep
 102:src/sysutil.c **** //  Description     : Generate two short beep sound.
 103:src/sysutil.c **** //  Input           : N/A
 104:src/sysutil.c **** //  Return          : N/A
 105:src/sysutil.c **** //  Note            : 2 X 20ms
 106:src/sysutil.c **** //  Globals Changed : N/A
 107:src/sysutil.c **** //*****************************************************************************
 108:src/sysutil.c **** void Short2Beep(void)
 109:src/sysutil.c **** {
  73              		.loc 1 109 0
  74              		.cfi_startproc
  75              		@ args = 0, pretend = 0, frame = 0
  76              		@ frame_needed = 0, uses_anonymous_args = 0
  77              		@ link register save eliminated.
 110:src/sysutil.c ****   BeepMW(2, 2, 2);
  78              		.loc 1 110 0
  79 0000 0221     		movs	r1, #2
  80 0002 1020     		movs	r0, #16
  81 0004 0A46     		mov	r2, r1
  82 0006 0B46     		mov	r3, r1
  83 0008 FFF7FEBF 		b	sys_func3
  84              	.LVL2:
  85              		.cfi_endproc
  86              	.LFE2:
  87              		.size	Short2Beep, .-Short2Beep
  88              		.section	.text.Short1Beep,"ax",%progbits
  89              		.align	1
  90              		.global	Short1Beep
  91              		.thumb
  92              		.thumb_func
  93              		.type	Short1Beep, %function
  94              	Short1Beep:
  95              	.LFB3:
 111:src/sysutil.c **** }
 112:src/sysutil.c **** //*****************************************************************************
 113:src/sysutil.c **** //  Function        : Short1Beep
 114:src/sysutil.c **** //  Description     : Generate one short beep sound.
 115:src/sysutil.c **** //  Input           : N/A
 116:src/sysutil.c **** //  Return          : N/A
 117:src/sysutil.c **** //  Note            : 1 X 20ms
 118:src/sysutil.c **** //  Globals Changed : N/A
 119:src/sysutil.c **** //*****************************************************************************
 120:src/sysutil.c **** void Short1Beep(void)
 121:src/sysutil.c **** {
  96              		.loc 1 121 0
  97              		.cfi_startproc
  98              		@ args = 0, pretend = 0, frame = 0
  99              		@ frame_needed = 0, uses_anonymous_args = 0
 100              		@ link register save eliminated.
 122:src/sysutil.c ****   BeepMW(2, 2, 1);
 101              		.loc 1 122 0
 102 0000 0221     		movs	r1, #2
 103 0002 1020     		movs	r0, #16
 104 0004 0A46     		mov	r2, r1
 105 0006 0123     		movs	r3, #1
 106 0008 FFF7FEBF 		b	sys_func3
ARM GAS  C:\Users\AHMED~1.ELE\AppData\Local\Temp\ccGujCBB.s 			page 5


 107              	.LVL3:
 108              		.cfi_endproc
 109              	.LFE3:
 110              		.size	Short1Beep, .-Short1Beep
 111              		.section	.text.Delay1Sec,"ax",%progbits
 112              		.align	1
 113              		.global	Delay1Sec
 114              		.thumb
 115              		.thumb_func
 116              		.type	Delay1Sec, %function
 117              	Delay1Sec:
 118              	.LFB4:
 123:src/sysutil.c **** }
 124:src/sysutil.c **** //*****************************************************************************
 125:src/sysutil.c **** //  Function        : Delay1Sec
 126:src/sysutil.c **** //  Description     : Delay for certain second or key pressed.
 127:src/sysutil.c **** //  Input           : time;         // seconds to Delay
 128:src/sysutil.c **** //                    beep_reqd;    // beep required ?
 129:src/sysutil.c **** //  Return          : N/A
 130:src/sysutil.c **** //  Note            : N/A
 131:src/sysutil.c **** //  Globals Changed : N/A
 132:src/sysutil.c **** //*****************************************************************************
 133:src/sysutil.c **** void Delay1Sec(DWORD aTime, BOOLEAN aBeepReqd)
 134:src/sysutil.c **** {
 119              		.loc 1 134 0
 120              		.cfi_startproc
 121              		@ args = 0, pretend = 0, frame = 0
 122              		@ frame_needed = 0, uses_anonymous_args = 0
 123              	.LVL4:
 124 0000 37B5     		push	{r0, r1, r2, r4, r5, lr}
 125              		.cfi_def_cfa_offset 24
 126              		.cfi_offset 4, -12
 127              		.cfi_offset 5, -8
 128              		.cfi_offset 14, -4
 129              		.loc 1 134 0
 130 0002 0446     		mov	r4, r0
 135:src/sysutil.c ****   DWORD free_run, curr;
 136:src/sysutil.c ****   if (aBeepReqd)
 131              		.loc 1 136 0
 132 0004 09B1     		cbz	r1, .L6
 137:src/sysutil.c ****     LongBeep();
 133              		.loc 1 137 0
 134 0006 FFF7FEFF 		bl	LongBeep
 135              	.LVL5:
 136              	.L6:
 138:src/sysutil.c **** 
 139:src/sysutil.c ****   aTime *= 200;  // convert to 5ms units
 137              		.loc 1 139 0
 138 000a C823     		movs	r3, #200
 140:src/sysutil.c ****   free_run = FreeRunMW();
 139              		.loc 1 140 0
 140 000c 40F29F10 		movw	r0, #415
 139:src/sysutil.c ****   free_run = FreeRunMW();
 141              		.loc 1 139 0
 142 0010 5C43     		muls	r4, r3, r4
 143              	.LVL6:
 144              		.loc 1 140 0
ARM GAS  C:\Users\AHMED~1.ELE\AppData\Local\Temp\ccGujCBB.s 			page 6


 145 0012 FFF7FEFF 		bl	sys_func0
 146              	.LVL7:
 147 0016 0546     		mov	r5, r0
 148              	.LVL8:
 149              	.L7:
 141:src/sysutil.c ****   while (GetCharMW() != MWKEY_CANCL) {
 150              		.loc 1 141 0
 151 0018 0022     		movs	r2, #0
 152 001a 0F20     		movs	r0, #15
 153 001c 0092     		str	r2, [sp]
 154 001e 1621     		movs	r1, #22
 155 0020 1346     		mov	r3, r2
 156 0022 FFF7FEFF 		bl	lib_app_call
 157              	.LVL9:
 158 0026 1128     		cmp	r0, #17
 159 0028 0AD0     		beq	.L5
 142:src/sysutil.c ****     SleepMW();
 160              		.loc 1 142 0
 161 002a 4FF4CE70 		mov	r0, #412
 162 002e FFF7FEFF 		bl	sys_func0
 163              	.LVL10:
 143:src/sysutil.c ****     curr = FreeRunMW();
 164              		.loc 1 143 0
 165 0032 40F29F10 		movw	r0, #415
 166 0036 FFF7FEFF 		bl	sys_func0
 167              	.LVL11:
 144:src/sysutil.c ****     curr -= free_run;
 168              		.loc 1 144 0
 169 003a 401B     		subs	r0, r0, r5
 170              	.LVL12:
 145:src/sysutil.c ****     if (curr >= aTime)
 171              		.loc 1 145 0
 172 003c A042     		cmp	r0, r4
 173 003e EBD3     		bcc	.L7
 174              	.LVL13:
 175              	.L5:
 146:src/sysutil.c ****       break;
 147:src/sysutil.c ****   }
 148:src/sysutil.c **** }
 176              		.loc 1 148 0
 177 0040 03B0     		add	sp, sp, #12
 178              		.cfi_def_cfa_offset 12
 179              		@ sp needed
 180 0042 30BD     		pop	{r4, r5, pc}
 181              		.cfi_endproc
 182              	.LFE4:
 183              		.size	Delay1Sec, .-Delay1Sec
 184              		.section	.text.ErrorDelay,"ax",%progbits
 185              		.align	1
 186              		.global	ErrorDelay
 187              		.thumb
 188              		.thumb_func
 189              		.type	ErrorDelay, %function
 190              	ErrorDelay:
 191              	.LFB5:
 149:src/sysutil.c **** //*****************************************************************************
 150:src/sysutil.c **** //  Function        : ErrorDelay
ARM GAS  C:\Users\AHMED~1.ELE\AppData\Local\Temp\ccGujCBB.s 			page 7


 151:src/sysutil.c **** //  Description     : Special Delay routine for error.
 152:src/sysutil.c **** //  Input           : N/A
 153:src/sysutil.c **** //  Return          : N/A
 154:src/sysutil.c **** //  Note            : N/A
 155:src/sysutil.c **** //  Globals Changed : N/A
 156:src/sysutil.c **** //*****************************************************************************
 157:src/sysutil.c **** void ErrorDelay(void)
 158:src/sysutil.c **** {
 192              		.loc 1 158 0
 193              		.cfi_startproc
 194              		@ args = 0, pretend = 0, frame = 0
 195              		@ frame_needed = 0, uses_anonymous_args = 0
 196              		@ link register save eliminated.
 159:src/sysutil.c ****   Delay1Sec(10, 1);
 197              		.loc 1 159 0
 198 0000 0A20     		movs	r0, #10
 199 0002 0121     		movs	r1, #1
 200 0004 FFF7FEBF 		b	Delay1Sec
 201              	.LVL14:
 202              		.cfi_endproc
 203              	.LFE5:
 204              		.size	ErrorDelay, .-ErrorDelay
 205              		.section	.text.Delay10ms,"ax",%progbits
 206              		.align	1
 207              		.global	Delay10ms
 208              		.thumb
 209              		.thumb_func
 210              		.type	Delay10ms, %function
 211              	Delay10ms:
 212              	.LFB6:
 160:src/sysutil.c **** }
 161:src/sysutil.c **** //*****************************************************************************
 162:src/sysutil.c **** //  Function        : Delay10ms
 163:src/sysutil.c **** //  Description     : Delay a number of 10ms .
 164:src/sysutil.c **** //  Input           : cnt; // count of 10ms to Delay
 165:src/sysutil.c **** //  Return          : N/A
 166:src/sysutil.c **** //  Note            : N/A
 167:src/sysutil.c **** //  Globals Changed : N/A
 168:src/sysutil.c **** //*****************************************************************************
 169:src/sysutil.c **** void Delay10ms(DWORD aCnt)
 170:src/sysutil.c **** {
 213              		.loc 1 170 0
 214              		.cfi_startproc
 215              		@ args = 0, pretend = 0, frame = 0
 216              		@ frame_needed = 0, uses_anonymous_args = 0
 217              	.LVL15:
 218 0000 38B5     		push	{r3, r4, r5, lr}
 219              		.cfi_def_cfa_offset 16
 220              		.cfi_offset 3, -16
 221              		.cfi_offset 4, -12
 222              		.cfi_offset 5, -8
 223              		.cfi_offset 14, -4
 224              		.loc 1 170 0
 225 0002 0446     		mov	r4, r0
 171:src/sysutil.c ****   DWORD curr, free_run = FreeRunMW();
 226              		.loc 1 171 0
 227 0004 40F29F10 		movw	r0, #415
ARM GAS  C:\Users\AHMED~1.ELE\AppData\Local\Temp\ccGujCBB.s 			page 8


 228              	.LVL16:
 229 0008 FFF7FEFF 		bl	sys_func0
 230              	.LVL17:
 172:src/sysutil.c ****   aCnt *= 2;
 231              		.loc 1 172 0
 232 000c 6400     		lsls	r4, r4, #1
 233              	.LVL18:
 171:src/sysutil.c ****   DWORD curr, free_run = FreeRunMW();
 234              		.loc 1 171 0
 235 000e 0546     		mov	r5, r0
 236              	.LVL19:
 237              	.L17:
 173:src/sysutil.c ****   do {
 174:src/sysutil.c ****     SleepMW();
 238              		.loc 1 174 0 discriminator 1
 239 0010 4FF4CE70 		mov	r0, #412
 240 0014 FFF7FEFF 		bl	sys_func0
 241              	.LVL20:
 175:src/sysutil.c ****     curr = FreeRunMW();
 242              		.loc 1 175 0 discriminator 1
 243 0018 40F29F10 		movw	r0, #415
 244 001c FFF7FEFF 		bl	sys_func0
 245              	.LVL21:
 176:src/sysutil.c ****     curr -= free_run;
 246              		.loc 1 176 0 discriminator 1
 247 0020 401B     		subs	r0, r0, r5
 248              	.LVL22:
 177:src/sysutil.c ****   } while (curr < aCnt);
 249              		.loc 1 177 0 discriminator 1
 250 0022 A042     		cmp	r0, r4
 251 0024 F4D3     		bcc	.L17
 178:src/sysutil.c **** }
 252              		.loc 1 178 0
 253 0026 38BD     		pop	{r3, r4, r5, pc}
 254              		.cfi_endproc
 255              	.LFE6:
 256              		.size	Delay10ms, .-Delay10ms
 257              		.section	.text.ShowStatus,"ax",%progbits
 258              		.align	1
 259              		.global	ShowStatus
 260              		.thumb
 261              		.thumb_func
 262              		.type	ShowStatus, %function
 263              	ShowStatus:
 264              	.LFB7:
 179:src/sysutil.c **** //*****************************************************************************
 180:src/sysutil.c **** //  Function        : ShowStatus
 181:src/sysutil.c **** //  Description     : Show message on status line.
 182:src/sysutil.c **** //  Input           : aMsg;     // pointer to string message
 183:src/sysutil.c **** //                    aMode;    // Display Mode
 184:src/sysutil.c **** //  Return          : N/A
 185:src/sysutil.c **** //  Note            : N/A
 186:src/sysutil.c **** //  Globals Changed : N/A
 187:src/sysutil.c **** //*****************************************************************************
 188:src/sysutil.c **** void ShowStatus(char *aMsg, DWORD aMode)
 189:src/sysutil.c **** {
 265              		.loc 1 189 0
ARM GAS  C:\Users\AHMED~1.ELE\AppData\Local\Temp\ccGujCBB.s 			page 9


 266              		.cfi_startproc
 267              		@ args = 0, pretend = 0, frame = 0
 268              		@ frame_needed = 0, uses_anonymous_args = 0
 269              	.LVL23:
 270 0000 73B5     		push	{r0, r1, r4, r5, r6, lr}
 271              		.cfi_def_cfa_offset 24
 272              		.cfi_offset 4, -16
 273              		.cfi_offset 5, -12
 274              		.cfi_offset 6, -8
 275              		.cfi_offset 14, -4
 276              		.loc 1 189 0
 277 0002 0646     		mov	r6, r0
 278              	.LBB2:
 190:src/sysutil.c ****   DispLineMW(aMsg, MW_MAX_LINE, MW_REVERSE|MW_CENTER|MW_SPFONT);
 279              		.loc 1 190 0
 280 0004 FFF7FEFF 		bl	strlen
 281              	.LVL24:
 282 0008 0546     		mov	r5, r0
 283              	.LVL25:
 284 000a 691C     		adds	r1, r5, #1
 285 000c 9220     		movs	r0, #146
 286              	.LVL26:
 287 000e FFF7FEFF 		bl	sys_func1
 288              	.LVL27:
 289 0012 0446     		mov	r4, r0
 290 0014 B0B1     		cbz	r0, .L19
 291              		.loc 1 190 0 is_stmt 0 discriminator 1
 292 0016 3146     		mov	r1, r6
 293 0018 2A46     		mov	r2, r5
 294 001a FFF7FEFF 		bl	memcpy
 295              	.LVL28:
 296 001e 0023     		movs	r3, #0
 297 0020 2521     		movs	r1, #37
 298 0022 6355     		strb	r3, [r4, r5]
 299 0024 42F21203 		movw	r3, #8210
 300 0028 2246     		mov	r2, r4
 301 002a 0093     		str	r3, [sp]
 302 002c 0F20     		movs	r0, #15
 303 002e 4FF41063 		mov	r3, #2304
 304 0032 FFF7FEFF 		bl	lib_app_call
 305              	.LVL29:
 306 0036 9420     		movs	r0, #148
 307 0038 2146     		mov	r1, r4
 308              	.LBE2:
 191:src/sysutil.c **** }
 309              		.loc 1 191 0 is_stmt 1 discriminator 1
 310 003a 02B0     		add	sp, sp, #8
 311              		.cfi_remember_state
 312              		.cfi_def_cfa_offset 16
 313              		@ sp needed
 314 003c BDE87040 		pop	{r4, r5, r6, lr}
 315              		.cfi_restore 14
 316              		.cfi_restore 6
 317              		.cfi_restore 5
 318              		.cfi_restore 4
 319              		.cfi_def_cfa_offset 0
 320              	.LVL30:
ARM GAS  C:\Users\AHMED~1.ELE\AppData\Local\Temp\ccGujCBB.s 			page 10


 321              	.LBB3:
 190:src/sysutil.c ****   DispLineMW(aMsg, MW_MAX_LINE, MW_REVERSE|MW_CENTER|MW_SPFONT);
 322              		.loc 1 190 0 discriminator 1
 323 0040 FFF7FEBF 		b	sys_func1
 324              	.LVL31:
 325              	.L19:
 326              		.cfi_restore_state
 327              	.LBE3:
 328              		.loc 1 191 0
 329 0044 02B0     		add	sp, sp, #8
 330              		.cfi_def_cfa_offset 16
 331              		@ sp needed
 332 0046 70BD     		pop	{r4, r5, r6, pc}
 333              		.cfi_endproc
 334              	.LFE7:
 335              		.size	ShowStatus, .-ShowStatus
 336              		.section	.text.DispPutStr,"ax",%progbits
 337              		.align	1
 338              		.global	DispPutStr
 339              		.thumb
 340              		.thumb_func
 341              		.type	DispPutStr, %function
 342              	DispPutStr:
 343              	.LFB8:
 192:src/sysutil.c **** //*****************************************************************************
 193:src/sysutil.c **** //  Function        : DispPutStr
 194:src/sysutil.c **** //  Description     : Put a String on display.
 195:src/sysutil.c **** //  Input           : aDispStr;         // message string
 196:src/sysutil.c **** //  Return          : N/A
 197:src/sysutil.c **** //  Note            : N/A
 198:src/sysutil.c **** //  Globals Changed : N/A
 199:src/sysutil.c **** //*****************************************************************************
 200:src/sysutil.c **** void DispPutStr(const char *aDispStr)
 201:src/sysutil.c **** {
 344              		.loc 1 201 0
 345              		.cfi_startproc
 346              		@ args = 0, pretend = 0, frame = 0
 347              		@ frame_needed = 0, uses_anonymous_args = 0
 348              	.LVL32:
 349 0000 70B5     		push	{r4, r5, r6, lr}
 350              		.cfi_def_cfa_offset 16
 351              		.cfi_offset 4, -16
 352              		.cfi_offset 5, -12
 353              		.cfi_offset 6, -8
 354              		.cfi_offset 14, -4
 355              		.loc 1 201 0
 356 0002 0646     		mov	r6, r0
 202:src/sysutil.c ****   DWORD len = strlen(aDispStr)+1;
 357              		.loc 1 202 0
 358 0004 FFF7FEFF 		bl	strlen
 359              	.LVL33:
 360 0008 441C     		adds	r4, r0, #1
 361              	.LVL34:
 203:src/sysutil.c ****   BYTE *ptr = (BYTE *)MallocMW(len);
 362              		.loc 1 203 0
 363 000a 2146     		mov	r1, r4
 364 000c 9220     		movs	r0, #146
ARM GAS  C:\Users\AHMED~1.ELE\AppData\Local\Temp\ccGujCBB.s 			page 11


 365 000e FFF7FEFF 		bl	sys_func1
 366              	.LVL35:
 204:src/sysutil.c ****   if (ptr != NULL) {
 367              		.loc 1 204 0
 368 0012 0546     		mov	r5, r0
 369 0014 70B1     		cbz	r0, .L21
 205:src/sysutil.c ****     memcpy(ptr, aDispStr, len);
 370              		.loc 1 205 0
 371 0016 3146     		mov	r1, r6
 372 0018 2246     		mov	r2, r4
 373 001a FFF7FEFF 		bl	memcpy
 374              	.LVL36:
 206:src/sysutil.c ****     DispPutNCMW(ptr, len);
 375              		.loc 1 206 0
 376 001e 2946     		mov	r1, r5
 377 0020 2246     		mov	r2, r4
 378 0022 1820     		movs	r0, #24
 379 0024 FFF7FEFF 		bl	sys_func2
 380              	.LVL37:
 207:src/sysutil.c ****     FreeMW(ptr);
 381              		.loc 1 207 0
 382 0028 2946     		mov	r1, r5
 383 002a 9420     		movs	r0, #148
 208:src/sysutil.c ****   }
 209:src/sysutil.c **** }
 384              		.loc 1 209 0
 385 002c BDE87040 		pop	{r4, r5, r6, lr}
 386              		.cfi_remember_state
 387              		.cfi_restore 14
 388              		.cfi_restore 6
 389              		.cfi_restore 5
 390              		.cfi_restore 4
 391              		.cfi_def_cfa_offset 0
 392              	.LVL38:
 207:src/sysutil.c ****     FreeMW(ptr);
 393              		.loc 1 207 0
 394 0030 FFF7FEBF 		b	sys_func1
 395              	.LVL39:
 396              	.L21:
 397              		.cfi_restore_state
 398 0034 70BD     		pop	{r4, r5, r6, pc}
 399              		.cfi_endproc
 400              	.LFE8:
 401              		.size	DispPutStr, .-DispPutStr
 402              		.section	.text.ShowBWLogo,"ax",%progbits
 403              		.align	1
 404              		.global	ShowBWLogo
 405              		.thumb
 406              		.thumb_func
 407              		.type	ShowBWLogo, %function
 408              	ShowBWLogo:
 409              	.LFB9:
 210:src/sysutil.c **** //*****************************************************************************
 211:src/sysutil.c **** //  Function        : ShowBWLogo
 212:src/sysutil.c **** //  Description     : Display Black&White Logo.
 213:src/sysutil.c **** //  Input           : aLogoDat;     // pointer to logo data
 214:src/sysutil.c **** //                    aLogoSize;    // Size of logo data
ARM GAS  C:\Users\AHMED~1.ELE\AppData\Local\Temp\ccGujCBB.s 			page 12


 215:src/sysutil.c **** //  Return          : N/A
 216:src/sysutil.c **** //  Note            : N/A
 217:src/sysutil.c **** //  Globals Changed : N/A
 218:src/sysutil.c **** //*****************************************************************************
 219:src/sysutil.c **** void ShowBWLogo(const BYTE *aLogoDat, DWORD aLogoSize)
 220:src/sysutil.c **** {
 410              		.loc 1 220 0
 411              		.cfi_startproc
 412              		@ args = 0, pretend = 0, frame = 0
 413              		@ frame_needed = 0, uses_anonymous_args = 0
 414              	.LVL40:
 415 0000 73B5     		push	{r0, r1, r4, r5, r6, lr}
 416              		.cfi_def_cfa_offset 24
 417              		.cfi_offset 4, -16
 418              		.cfi_offset 5, -12
 419              		.cfi_offset 6, -8
 420              		.cfi_offset 14, -4
 421              		.loc 1 220 0
 422 0002 0646     		mov	r6, r0
 221:src/sysutil.c ****   BYTE *logo_ptr;
 222:src/sysutil.c ****   logo_ptr = (BYTE *)MallocMW(aLogoSize);
 423              		.loc 1 222 0
 424 0004 9220     		movs	r0, #146
 425              	.LVL41:
 220:src/sysutil.c ****   BYTE *logo_ptr;
 426              		.loc 1 220 0
 427 0006 0D46     		mov	r5, r1
 428              		.loc 1 222 0
 429 0008 FFF7FEFF 		bl	sys_func1
 430              	.LVL42:
 223:src/sysutil.c ****   if (logo_ptr != NULL) {
 431              		.loc 1 223 0
 432 000c 0446     		mov	r4, r0
 433 000e 88B1     		cbz	r0, .L23
 224:src/sysutil.c ****     memcpy(logo_ptr, aLogoDat, aLogoSize);
 434              		.loc 1 224 0
 435 0010 3146     		mov	r1, r6
 436 0012 2A46     		mov	r2, r5
 437 0014 FFF7FEFF 		bl	memcpy
 438              	.LVL43:
 225:src/sysutil.c ****     DispLogoMW(logo_ptr, 1, 1);
 439              		.loc 1 225 0
 440 0018 0123     		movs	r3, #1
 441 001a 1B21     		movs	r1, #27
 442 001c 0093     		str	r3, [sp]
 443 001e 2246     		mov	r2, r4
 444 0020 0F20     		movs	r0, #15
 445 0022 FFF7FEFF 		bl	lib_app_call
 446              	.LVL44:
 226:src/sysutil.c ****     FreeMW(logo_ptr);
 447              		.loc 1 226 0
 448 0026 9420     		movs	r0, #148
 449 0028 2146     		mov	r1, r4
 227:src/sysutil.c ****   }
 228:src/sysutil.c **** }
 450              		.loc 1 228 0
 451 002a 02B0     		add	sp, sp, #8
ARM GAS  C:\Users\AHMED~1.ELE\AppData\Local\Temp\ccGujCBB.s 			page 13


 452              		.cfi_remember_state
 453              		.cfi_def_cfa_offset 16
 454              		@ sp needed
 455 002c BDE87040 		pop	{r4, r5, r6, lr}
 456              		.cfi_restore 14
 457              		.cfi_restore 6
 458              		.cfi_restore 5
 459              		.cfi_restore 4
 460              		.cfi_def_cfa_offset 0
 461              	.LVL45:
 226:src/sysutil.c ****     FreeMW(logo_ptr);
 462              		.loc 1 226 0
 463 0030 FFF7FEBF 		b	sys_func1
 464              	.LVL46:
 465              	.L23:
 466              		.cfi_restore_state
 467              		.loc 1 228 0
 468 0034 02B0     		add	sp, sp, #8
 469              		.cfi_def_cfa_offset 16
 470              		@ sp needed
 471 0036 70BD     		pop	{r4, r5, r6, pc}
 472              		.cfi_endproc
 473              	.LFE9:
 474              		.size	ShowBWLogo, .-ShowBWLogo
 475              		.section	.text.ShowGraphicT800,"ax",%progbits
 476              		.align	1
 477              		.global	ShowGraphicT800
 478              		.thumb
 479              		.thumb_func
 480              		.type	ShowGraphicT800, %function
 481              	ShowGraphicT800:
 482              	.LFB10:
 229:src/sysutil.c **** //*****************************************************************************
 230:src/sysutil.c **** //  Function        : ShowGraphicT800
 231:src/sysutil.c **** //  Description     : Display Color graphic on LCD.
 232:src/sysutil.c **** //  Input           : aDat;     // pointer to graphic data (USing T800 converter)
 233:src/sysutil.c **** //  Return          : N/A
 234:src/sysutil.c **** //  Note            : N/A
 235:src/sysutil.c **** //  Globals Changed : N/A
 236:src/sysutil.c **** //*****************************************************************************
 237:src/sysutil.c **** void ShowGraphicT800(struct GLOC *aLoc, const BYTE *aDat)
 238:src/sysutil.c **** {
 483              		.loc 1 238 0
 484              		.cfi_startproc
 485              		@ args = 0, pretend = 0, frame = 8
 486              		@ frame_needed = 0, uses_anonymous_args = 0
 487              	.LVL47:
 488 0000 F7B5     		push	{r0, r1, r2, r4, r5, r6, r7, lr}
 489              		.cfi_def_cfa_offset 32
 490              		.cfi_offset 4, -20
 491              		.cfi_offset 5, -16
 492              		.cfi_offset 6, -12
 493              		.cfi_offset 7, -8
 494              		.cfi_offset 14, -4
 239:src/sysutil.c ****   #if (CLCD_SUPPORT)
 240:src/sysutil.c ****   struct CGRAPH *pGraphic;
 241:src/sysutil.c ****   DWORD  logo_size;
ARM GAS  C:\Users\AHMED~1.ELE\AppData\Local\Temp\ccGujCBB.s 			page 14


 242:src/sysutil.c ****   #if (T300|T810|A5T1000|T1000)
 243:src/sysutil.c ****   DWORD  i;
 244:src/sysutil.c ****   WORD   color;
 245:src/sysutil.c ****   WORD   temp;
 246:src/sysutil.c ****   #endif
 247:src/sysutil.c **** 
 248:src/sysutil.c ****   logo_size = aLoc->wWidth*aLoc->wHeight*sizeof(WORD);
 495              		.loc 1 248 0
 496 0002 C388     		ldrh	r3, [r0, #6]
 497 0004 8588     		ldrh	r5, [r0, #4]
 238:src/sysutil.c ****   #if (CLCD_SUPPORT)
 498              		.loc 1 238 0
 499 0006 0746     		mov	r7, r0
 500              		.loc 1 248 0
 501 0008 5D43     		muls	r5, r3, r5
 238:src/sysutil.c ****   #if (CLCD_SUPPORT)
 502              		.loc 1 238 0
 503 000a 0E46     		mov	r6, r1
 504              		.loc 1 248 0
 505 000c 6D00     		lsls	r5, r5, #1
 506              	.LVL48:
 249:src/sysutil.c ****   pGraphic = (struct CGRAPH *)MallocMW(logo_size+8);
 507              		.loc 1 249 0
 508 000e 9220     		movs	r0, #146
 509              	.LVL49:
 510 0010 05F10801 		add	r1, r5, #8
 511              	.LVL50:
 512 0014 FFF7FEFF 		bl	sys_func1
 513              	.LVL51:
 250:src/sysutil.c ****   pGraphic->w_hstart = aLoc->wPosX;
 514              		.loc 1 250 0
 515 0018 3B88     		ldrh	r3, [r7]
 516 001a 0380     		strh	r3, [r0]	@ movhi
 251:src/sysutil.c ****   pGraphic->w_vstart = aLoc->wPosY;
 517              		.loc 1 251 0
 518 001c 7B88     		ldrh	r3, [r7, #2]
 249:src/sysutil.c ****   pGraphic = (struct CGRAPH *)MallocMW(logo_size+8);
 519              		.loc 1 249 0
 520 001e 0446     		mov	r4, r0
 521              	.LVL52:
 522              		.loc 1 251 0
 523 0020 4380     		strh	r3, [r0, #2]	@ movhi
 252:src/sysutil.c ****   pGraphic->w_hwidth = aLoc->wWidth;
 524              		.loc 1 252 0
 525 0022 BB88     		ldrh	r3, [r7, #4]
 526 0024 8380     		strh	r3, [r0, #4]	@ movhi
 253:src/sysutil.c ****   pGraphic->w_vwidth = aLoc->wHeight;
 527              		.loc 1 253 0
 528 0026 FB88     		ldrh	r3, [r7, #6]
 254:src/sysutil.c ****   #if (T300|T810|A5T1000|T1000)
 255:src/sysutil.c ****   for (i = 0; i < logo_size; i+=2){
 529              		.loc 1 255 0
 530 0028 0027     		movs	r7, #0
 531              	.LVL53:
 253:src/sysutil.c ****   pGraphic->w_vwidth = aLoc->wHeight;
 532              		.loc 1 253 0
 533 002a C380     		strh	r3, [r0, #6]	@ movhi
ARM GAS  C:\Users\AHMED~1.ELE\AppData\Local\Temp\ccGujCBB.s 			page 15


 534              	.LVL54:
 535              	.L26:
 536              		.loc 1 255 0 discriminator 1
 537 002c AF42     		cmp	r7, r5
 538 002e 1CD2     		bcs	.L28
 539 0030 F319     		adds	r3, r6, r7
 540 0032 04F10800 		add	r0, r4, #8
 256:src/sysutil.c ****     temp = aDat[i]+(aDat[i+1]*256);
 541              		.loc 1 256 0 discriminator 3
 542 0036 5A78     		ldrb	r2, [r3, #1]	@ zero_extendqisi2
 543 0038 F35D     		ldrb	r3, [r6, r7]	@ zero_extendqisi2
 257:src/sysutil.c ****     color = T800_TO_T1000(temp);
 258:src/sysutil.c ****     memcpy(&pGraphic->sb_data[i], (BYTE *)&color, 2);
 544              		.loc 1 258 0 discriminator 3
 545 003a 3844     		add	r0, r0, r7
 256:src/sysutil.c ****     temp = aDat[i]+(aDat[i+1]*256);
 546              		.loc 1 256 0 discriminator 3
 547 003c 03EB0223 		add	r3, r3, r2, lsl #8
 255:src/sysutil.c ****     temp = aDat[i]+(aDat[i+1]*256);
 548              		.loc 1 255 0 discriminator 3
 549 0040 0237     		adds	r7, r7, #2
 550              	.LVL55:
 256:src/sysutil.c ****     temp = aDat[i]+(aDat[i+1]*256);
 551              		.loc 1 256 0 discriminator 3
 552 0042 9BB2     		uxth	r3, r3
 553              	.LVL56:
 257:src/sysutil.c ****     color = T800_TO_T1000(temp);
 554              		.loc 1 257 0 discriminator 3
 555 0044 03F47871 		and	r1, r3, #992
 556 0048 C3F38422 		ubfx	r2, r3, #10, #5
 557 004c 42EA4102 		orr	r2, r2, r1, lsl #1
 558 0050 42EAC322 		orr	r2, r2, r3, lsl #11
 559 0054 03F40043 		and	r3, r3, #32768
 560              	.LVL57:
 561 0058 02A9     		add	r1, sp, #8
 562 005a 42EA9323 		orr	r3, r2, r3, lsr #10
 563              		.loc 1 258 0 discriminator 3
 564 005e 0222     		movs	r2, #2
 257:src/sysutil.c ****     color = T800_TO_T1000(temp);
 565              		.loc 1 257 0 discriminator 3
 566 0060 21F8023D 		strh	r3, [r1, #-2]!	@ movhi
 567              		.loc 1 258 0 discriminator 3
 568 0064 FFF7FEFF 		bl	memcpy
 569              	.LVL58:
 570 0068 E0E7     		b	.L26
 571              	.L28:
 259:src/sysutil.c ****   }
 260:src/sysutil.c ****   #else
 261:src/sysutil.c ****   memcpy(pGraphic->sb_data, aDat, logo_size);
 262:src/sysutil.c ****   #endif
 263:src/sysutil.c **** 
 264:src/sysutil.c ****   DispPutGMW(pGraphic);
 572              		.loc 1 264 0
 573 006a 2146     		mov	r1, r4
 574 006c 1A20     		movs	r0, #26
 575 006e FFF7FEFF 		bl	sys_func1
 576              	.LVL59:
ARM GAS  C:\Users\AHMED~1.ELE\AppData\Local\Temp\ccGujCBB.s 			page 16


 265:src/sysutil.c ****   FreeMW(pGraphic);
 577              		.loc 1 265 0
 578 0072 9420     		movs	r0, #148
 579 0074 2146     		mov	r1, r4
 266:src/sysutil.c ****   #endif
 267:src/sysutil.c **** }
 580              		.loc 1 267 0
 581 0076 03B0     		add	sp, sp, #12
 582              		.cfi_def_cfa_offset 20
 583              		@ sp needed
 584 0078 BDE8F040 		pop	{r4, r5, r6, r7, lr}
 585              		.cfi_restore 14
 586              		.cfi_restore 7
 587              		.cfi_restore 6
 588              		.cfi_restore 5
 589              		.cfi_restore 4
 590              		.cfi_def_cfa_offset 0
 591              	.LVL60:
 265:src/sysutil.c ****   FreeMW(pGraphic);
 592              		.loc 1 265 0
 593 007c FFF7FEBF 		b	sys_func1
 594              	.LVL61:
 595              		.cfi_endproc
 596              	.LFE10:
 597              		.size	ShowGraphicT800, .-ShowGraphicT800
 598              		.section	.text.Disp2x16Msg,"ax",%progbits
 599              		.align	1
 600              		.global	Disp2x16Msg
 601              		.thumb
 602              		.thumb_func
 603              		.type	Disp2x16Msg, %function
 604              	Disp2x16Msg:
 605              	.LFB11:
 268:src/sysutil.c **** //*****************************************************************************
 269:src/sysutil.c **** //  Function        : Disp2x16Msg
 270:src/sysutil.c **** //  Description     : Display 2x16 message on lcd using DispLine
 271:src/sysutil.c **** //  Input           : aMsg;         // pointer to 2x16 message
 272:src/sysutil.c **** //                    aOffset;      // DispLine's offset
 273:src/sysutil.c **** //                    aCtrl;        // DispLine's control
 274:src/sysutil.c **** //  Return          : N/A
 275:src/sysutil.c **** //  Note            : N/A
 276:src/sysutil.c **** //  Globals Changed : N/A
 277:src/sysutil.c **** //*****************************************************************************
 278:src/sysutil.c **** void Disp2x16Msg(const BYTE *aMsg, DWORD aOffset, DWORD aCtrl)
 279:src/sysutil.c **** {
 606              		.loc 1 279 0
 607              		.cfi_startproc
 608              		@ args = 0, pretend = 0, frame = 24
 609              		@ frame_needed = 0, uses_anonymous_args = 0
 610              	.LVL62:
 611 0000 2DE9F043 		push	{r4, r5, r6, r7, r8, r9, lr}
 612              		.cfi_def_cfa_offset 28
 613              		.cfi_offset 4, -28
 614              		.cfi_offset 5, -24
 615              		.cfi_offset 6, -20
 616              		.cfi_offset 7, -16
 617              		.cfi_offset 8, -12
ARM GAS  C:\Users\AHMED~1.ELE\AppData\Local\Temp\ccGujCBB.s 			page 17


 618              		.cfi_offset 9, -8
 619              		.cfi_offset 14, -4
 620 0004 89B0     		sub	sp, sp, #36
 621              		.cfi_def_cfa_offset 64
 622              		.loc 1 279 0
 623 0006 8046     		mov	r8, r0
 624 0008 0F46     		mov	r7, r1
 625 000a 1446     		mov	r4, r2
 280:src/sysutil.c ****   DWORD next_line;
 281:src/sysutil.c ****   BYTE  tmpbuf[17];
 282:src/sysutil.c **** 
 283:src/sysutil.c ****   memset(tmpbuf, 0, sizeof(tmpbuf));
 626              		.loc 1 283 0
 627 000c 0021     		movs	r1, #0
 628              	.LVL63:
 629 000e 1122     		movs	r2, #17
 630              	.LVL64:
 631 0010 03A8     		add	r0, sp, #12
 632              	.LVL65:
 633 0012 FFF7FEFF 		bl	memset
 634              	.LVL66:
 284:src/sysutil.c ****   memcpy(tmpbuf, aMsg, 16);
 635              		.loc 1 284 0
 636 0016 4146     		mov	r1, r8
 637 0018 1022     		movs	r2, #16
 638 001a 03A8     		add	r0, sp, #12
 639 001c FFF7FEFF 		bl	memcpy
 640              	.LVL67:
 641              	.LBB4:
 285:src/sysutil.c ****   DispLineMW(tmpbuf,  aOffset, aCtrl|MW_CENTER);
 642              		.loc 1 285 0
 643 0020 03A8     		add	r0, sp, #12
 644 0022 FFF7FEFF 		bl	strlen
 645              	.LVL68:
 646 0026 0646     		mov	r6, r0
 647              	.LVL69:
 648 0028 711C     		adds	r1, r6, #1
 649 002a 9220     		movs	r0, #146
 650              	.LVL70:
 651 002c FFF7FEFF 		bl	sys_func1
 652              	.LVL71:
 653 0030 0546     		mov	r5, r0
 654 0032 90B1     		cbz	r0, .L30
 655              		.loc 1 285 0 is_stmt 0 discriminator 1
 656 0034 03A9     		add	r1, sp, #12
 657 0036 3246     		mov	r2, r6
 658 0038 FFF7FEFF 		bl	memcpy
 659              	.LVL72:
 660 003c 0023     		movs	r3, #0
 661 003e 2521     		movs	r1, #37
 662 0040 AB55     		strb	r3, [r5, r6]
 663 0042 44F00203 		orr	r3, r4, #2
 664 0046 0F20     		movs	r0, #15
 665 0048 0093     		str	r3, [sp]
 666 004a 2A46     		mov	r2, r5
 667 004c 3B46     		mov	r3, r7
 668 004e FFF7FEFF 		bl	lib_app_call
ARM GAS  C:\Users\AHMED~1.ELE\AppData\Local\Temp\ccGujCBB.s 			page 18


 669              	.LVL73:
 670 0052 9420     		movs	r0, #148
 671 0054 2946     		mov	r1, r5
 672 0056 FFF7FEFF 		bl	sys_func1
 673              	.LVL74:
 674              	.L30:
 675              	.LBE4:
 286:src/sysutil.c ****   next_line = (aCtrl&MW_BIGFONT)?(MW_LINE3-MW_LINE1):(MW_LINE2-MW_LINE1);
 676              		.loc 1 286 0 is_stmt 1
 677 005a 14F4805F 		tst	r4, #4096
 287:src/sysutil.c ****   aCtrl &= ~MW_CLRDISP;
 288:src/sysutil.c ****   memcpy(tmpbuf, &aMsg[16], 16);
 678              		.loc 1 288 0
 679 005e 08F11001 		add	r1, r8, #16
 680 0062 4FF01002 		mov	r2, #16
 681 0066 03A8     		add	r0, sp, #12
 286:src/sysutil.c ****   next_line = (aCtrl&MW_BIGFONT)?(MW_LINE3-MW_LINE1):(MW_LINE2-MW_LINE1);
 682              		.loc 1 286 0
 683 0068 14BF     		ite	ne
 684 006a 4FF40079 		movne	r9, #512
 685 006e 4FF48079 		moveq	r9, #256
 686              	.LVL75:
 687              		.loc 1 288 0
 688 0072 FFF7FEFF 		bl	memcpy
 689              	.LVL76:
 690              	.LBB5:
 289:src/sysutil.c ****   DispLineMW(tmpbuf, aOffset+next_line, aCtrl|MW_CENTER);
 691              		.loc 1 289 0
 692 0076 03A8     		add	r0, sp, #12
 693 0078 FFF7FEFF 		bl	strlen
 694              	.LVL77:
 695              	.LBE5:
 287:src/sysutil.c ****   aCtrl &= ~MW_CLRDISP;
 696              		.loc 1 287 0
 697 007c 24F08004 		bic	r4, r4, #128
 698              	.LVL78:
 699              	.LBB6:
 700              		.loc 1 289 0
 701 0080 0646     		mov	r6, r0
 702              	.LVL79:
 703 0082 711C     		adds	r1, r6, #1
 704 0084 9220     		movs	r0, #146
 705              	.LVL80:
 706 0086 FFF7FEFF 		bl	sys_func1
 707              	.LVL81:
 708 008a 0546     		mov	r5, r0
 709              	.LVL82:
 710 008c 98B1     		cbz	r0, .L29
 711              		.loc 1 289 0 is_stmt 0 discriminator 1
 712 008e 03A9     		add	r1, sp, #12
 713 0090 3246     		mov	r2, r6
 714 0092 FFF7FEFF 		bl	memcpy
 715              	.LVL83:
 716 0096 44F00204 		orr	r4, r4, #2
 717              	.LVL84:
 718 009a 0023     		movs	r3, #0
 719 009c 2521     		movs	r1, #37
ARM GAS  C:\Users\AHMED~1.ELE\AppData\Local\Temp\ccGujCBB.s 			page 19


 720 009e AB55     		strb	r3, [r5, r6]
 721 00a0 0F20     		movs	r0, #15
 722 00a2 0094     		str	r4, [sp]
 723 00a4 2A46     		mov	r2, r5
 724 00a6 09EB0703 		add	r3, r9, r7
 725 00aa FFF7FEFF 		bl	lib_app_call
 726              	.LVL85:
 727 00ae 9420     		movs	r0, #148
 728 00b0 2946     		mov	r1, r5
 729 00b2 FFF7FEFF 		bl	sys_func1
 730              	.LVL86:
 731              	.L29:
 732              	.LBE6:
 290:src/sysutil.c **** }
 733              		.loc 1 290 0 is_stmt 1
 734 00b6 09B0     		add	sp, sp, #36
 735              		.cfi_def_cfa_offset 28
 736              		@ sp needed
 737 00b8 BDE8F083 		pop	{r4, r5, r6, r7, r8, r9, pc}
 738              		.cfi_endproc
 739              	.LFE11:
 740              		.size	Disp2x16Msg, .-Disp2x16Msg
 741              		.section	.text.SetRTC,"ax",%progbits
 742              		.align	1
 743              		.global	SetRTC
 744              		.thumb
 745              		.thumb_func
 746              		.type	SetRTC, %function
 747              	SetRTC:
 748              	.LFB12:
 291:src/sysutil.c **** //*****************************************************************************
 292:src/sysutil.c **** //  Function        : SetRTC
 293:src/sysutil.c **** //  Description     : Set Real Time clock.
 294:src/sysutil.c **** //  Input           : aDtg;     // pointer to structure DATETIME.
 295:src/sysutil.c **** //  Return          : N/A
 296:src/sysutil.c **** //  Note            : N/A
 297:src/sysutil.c **** //  Globals Changed : N/A
 298:src/sysutil.c **** //*****************************************************************************
 299:src/sysutil.c **** void SetRTC(struct DATETIME *aDtg)
 300:src/sysutil.c **** {
 749              		.loc 1 300 0
 750              		.cfi_startproc
 751              		@ args = 0, pretend = 0, frame = 16
 752              		@ frame_needed = 0, uses_anonymous_args = 0
 753              	.LVL87:
 754 0000 1FB5     		push	{r0, r1, r2, r3, r4, lr}
 755              		.cfi_def_cfa_offset 24
 756              		.cfi_offset 14, -4
 301:src/sysutil.c ****   BYTE buffer[15];
 302:src/sysutil.c **** 
 303:src/sysutil.c ****   aDtg->bCentury = (aDtg->bYear>0x50)?0x19:0x20;
 757              		.loc 1 303 0
 758 0002 4378     		ldrb	r3, [r0, #1]	@ zero_extendqisi2
 300:src/sysutil.c ****   BYTE buffer[15];
 759              		.loc 1 300 0
 760 0004 0146     		mov	r1, r0
 761              		.loc 1 303 0
ARM GAS  C:\Users\AHMED~1.ELE\AppData\Local\Temp\ccGujCBB.s 			page 20


 762 0006 502B     		cmp	r3, #80
 763 0008 8CBF     		ite	hi
 764 000a 1923     		movhi	r3, #25
 765 000c 2023     		movls	r3, #32
 304:src/sysutil.c ****   split(buffer,(BYTE*)aDtg,7);
 766              		.loc 1 304 0
 767 000e 0722     		movs	r2, #7
 303:src/sysutil.c ****   split(buffer,(BYTE*)aDtg,7);
 768              		.loc 1 303 0
 769 0010 0370     		strb	r3, [r0]
 770              		.loc 1 304 0
 771 0012 6846     		mov	r0, sp
 772              	.LVL88:
 773 0014 FFF7FEFF 		bl	split
 774              	.LVL89:
 305:src/sysutil.c ****   RtcSetMW(buffer);
 775              		.loc 1 305 0
 776 0018 6946     		mov	r1, sp
 777 001a 1320     		movs	r0, #19
 778 001c FFF7FEFF 		bl	sys_func1
 779              	.LVL90:
 306:src/sysutil.c **** }
 780              		.loc 1 306 0
 781 0020 05B0     		add	sp, sp, #20
 782              		.cfi_def_cfa_offset 4
 783              		@ sp needed
 784 0022 5DF804FB 		ldr	pc, [sp], #4
 785              		.cfi_endproc
 786              	.LFE12:
 787              		.size	SetRTC, .-SetRTC
 788              		.section	.text.ReadRTC,"ax",%progbits
 789              		.align	1
 790              		.global	ReadRTC
 791              		.thumb
 792              		.thumb_func
 793              		.type	ReadRTC, %function
 794              	ReadRTC:
 795              	.LFB13:
 307:src/sysutil.c **** //*****************************************************************************
 308:src/sysutil.c **** //  Function        : ReadRTC
 309:src/sysutil.c **** //  Description     : Get Real Time clock.
 310:src/sysutil.c **** //  Input           : aDtg;     // pointer to structure struct DATETIME buffer.
 311:src/sysutil.c **** //  Return          : N/A
 312:src/sysutil.c **** //  Note            : N/A
 313:src/sysutil.c **** //  Globals Changed : N/A
 314:src/sysutil.c **** //*****************************************************************************
 315:src/sysutil.c **** void ReadRTC(struct DATETIME *aDtg)
 316:src/sysutil.c **** {
 796              		.loc 1 316 0
 797              		.cfi_startproc
 798              		@ args = 0, pretend = 0, frame = 16
 799              		@ frame_needed = 0, uses_anonymous_args = 0
 800              	.LVL91:
 801 0000 1FB5     		push	{r0, r1, r2, r3, r4, lr}
 802              		.cfi_def_cfa_offset 24
 803              		.cfi_offset 4, -8
 804              		.cfi_offset 14, -4
ARM GAS  C:\Users\AHMED~1.ELE\AppData\Local\Temp\ccGujCBB.s 			page 21


 805              		.loc 1 316 0
 806 0002 0446     		mov	r4, r0
 317:src/sysutil.c ****   BYTE buffer[14];
 318:src/sysutil.c **** 
 319:src/sysutil.c ****   RtcGetMW(buffer);
 807              		.loc 1 319 0
 808 0004 6946     		mov	r1, sp
 809 0006 1220     		movs	r0, #18
 810              	.LVL92:
 811 0008 FFF7FEFF 		bl	sys_func1
 812              	.LVL93:
 320:src/sysutil.c ****   compress((BYTE*)aDtg,buffer,7);
 813              		.loc 1 320 0
 814 000c 2046     		mov	r0, r4
 815 000e 6946     		mov	r1, sp
 816 0010 0722     		movs	r2, #7
 817 0012 FFF7FEFF 		bl	compress
 818              	.LVL94:
 321:src/sysutil.c **** }
 819              		.loc 1 321 0
 820 0016 04B0     		add	sp, sp, #16
 821              		.cfi_def_cfa_offset 8
 822              		@ sp needed
 823 0018 10BD     		pop	{r4, pc}
 824              		.cfi_endproc
 825              	.LFE13:
 826              		.size	ReadRTC, .-ReadRTC
 827              		.section	.text.ConvDateTime,"ax",%progbits
 828              		.align	1
 829              		.global	ConvDateTime
 830              		.thumb
 831              		.thumb_func
 832              		.type	ConvDateTime, %function
 833              	ConvDateTime:
 834              	.LFB14:
 322:src/sysutil.c **** //*****************************************************************************
 323:src/sysutil.c **** //  Function        : ConvDateTime
 324:src/sysutil.c **** //  Description     : Convert input DATETIME to specify string.
 325:src/sysutil.c **** //  Input           : aBuf;       // pointer to output buf
 326:src/sysutil.c **** //                    aDtg;       // pointer struct DATETIME value
 327:src/sysutil.c **** //                    aLongYear;  // convert to LONG year fmt when TRUE.
 328:src/sysutil.c **** //  Return          : N/A
 329:src/sysutil.c **** //  Note            : N/A
 330:src/sysutil.c **** //  Globals Changed : N/A
 331:src/sysutil.c **** //*****************************************************************************
 332:src/sysutil.c **** void ConvDateTime(BYTE *aBuf, struct DATETIME *aDtg, BOOLEAN aLongYear)
 333:src/sysutil.c **** {
 835              		.loc 1 333 0
 836              		.cfi_startproc
 837              		@ args = 0, pretend = 0, frame = 0
 838              		@ frame_needed = 0, uses_anonymous_args = 0
 839              	.LVL95:
 840 0000 F8B5     		push	{r3, r4, r5, r6, r7, lr}
 841              		.cfi_def_cfa_offset 24
 842              		.cfi_offset 3, -24
 843              		.cfi_offset 4, -20
 844              		.cfi_offset 5, -16
ARM GAS  C:\Users\AHMED~1.ELE\AppData\Local\Temp\ccGujCBB.s 			page 22


 845              		.cfi_offset 6, -12
 846              		.cfi_offset 7, -8
 847              		.cfi_offset 14, -4
 848              		.loc 1 333 0
 849 0002 0D46     		mov	r5, r1
 850 0004 1746     		mov	r7, r2
 334:src/sysutil.c ****   memset(aBuf,' ',18);
 851              		.loc 1 334 0
 852 0006 2021     		movs	r1, #32
 853              	.LVL96:
 854 0008 1222     		movs	r2, #18
 855              	.LVL97:
 333:src/sysutil.c ****   memset(aBuf,' ',18);
 856              		.loc 1 333 0
 857 000a 0446     		mov	r4, r0
 858              		.loc 1 334 0
 859 000c FFF7FEFF 		bl	memset
 860              	.LVL98:
 335:src/sysutil.c ****   memcpy(aBuf, KMonthText[(BYTE)bcd2bin(aDtg->bMonth)], 3); /* month */
 861              		.loc 1 335 0
 862 0010 A878     		ldrb	r0, [r5, #2]	@ zero_extendqisi2
 863 0012 FFF7FEFF 		bl	bcd2bin
 864              	.LVL99:
 865 0016 1A4B     		ldr	r3, .L47
 866 0018 0322     		movs	r2, #3
 336:src/sysutil.c ****   split(&aBuf[4], &aDtg->bDay, 1); /* day */
 337:src/sysutil.c ****   if (aBuf[4] == '0')
 338:src/sysutil.c ****     aBuf[4] = ' ';
 339:src/sysutil.c ****   aBuf[6] = ',';
 340:src/sysutil.c ****   split(&aBuf[8],&aDtg->bCentury,2);
 867              		.loc 1 340 0
 868 001a 04F10806 		add	r6, r4, #8
 869 001e C1B2     		uxtb	r1, r0
 335:src/sysutil.c ****   memcpy(aBuf, KMonthText[(BYTE)bcd2bin(aDtg->bMonth)], 3); /* month */
 870              		.loc 1 335 0
 871 0020 2046     		mov	r0, r4
 872 0022 02FB0131 		mla	r1, r2, r1, r3
 873 0026 FFF7FEFF 		bl	memcpy
 874              	.LVL100:
 336:src/sysutil.c ****   split(&aBuf[4], &aDtg->bDay, 1); /* day */
 875              		.loc 1 336 0
 876 002a 201D     		adds	r0, r4, #4
 877 002c E91C     		adds	r1, r5, #3
 878 002e 0122     		movs	r2, #1
 879 0030 FFF7FEFF 		bl	split
 880              	.LVL101:
 337:src/sysutil.c ****     aBuf[4] = ' ';
 881              		.loc 1 337 0
 882 0034 2379     		ldrb	r3, [r4, #4]	@ zero_extendqisi2
 883              		.loc 1 340 0
 884 0036 3046     		mov	r0, r6
 337:src/sysutil.c ****     aBuf[4] = ' ';
 885              		.loc 1 337 0
 886 0038 302B     		cmp	r3, #48
 338:src/sysutil.c ****   aBuf[6] = ',';
 887              		.loc 1 338 0
 888 003a 08BF     		it	eq
ARM GAS  C:\Users\AHMED~1.ELE\AppData\Local\Temp\ccGujCBB.s 			page 23


 889 003c 2023     		moveq	r3, #32
 890              		.loc 1 340 0
 891 003e 2946     		mov	r1, r5
 338:src/sysutil.c ****   aBuf[6] = ',';
 892              		.loc 1 338 0
 893 0040 08BF     		it	eq
 894 0042 2371     		strbeq	r3, [r4, #4]
 339:src/sysutil.c ****   split(&aBuf[8],&aDtg->bCentury,2);
 895              		.loc 1 339 0
 896 0044 2C23     		movs	r3, #44
 897              		.loc 1 340 0
 898 0046 0222     		movs	r2, #2
 339:src/sysutil.c ****   split(&aBuf[8],&aDtg->bCentury,2);
 899              		.loc 1 339 0
 900 0048 A371     		strb	r3, [r4, #6]
 901              		.loc 1 340 0
 902 004a FFF7FEFF 		bl	split
 903              	.LVL102:
 341:src/sysutil.c ****   split(&aBuf[13], &aDtg->bHour, 1);
 904              		.loc 1 341 0
 905 004e 04F10D00 		add	r0, r4, #13
 906 0052 291D     		adds	r1, r5, #4
 907 0054 0122     		movs	r2, #1
 908 0056 FFF7FEFF 		bl	split
 909              	.LVL103:
 342:src/sysutil.c ****   aBuf[15] = ':';
 910              		.loc 1 342 0
 911 005a 3A23     		movs	r3, #58
 343:src/sysutil.c ****   split(&aBuf[16], &aDtg->bMinute, 1);
 912              		.loc 1 343 0
 913 005c 04F11000 		add	r0, r4, #16
 342:src/sysutil.c ****   aBuf[15] = ':';
 914              		.loc 1 342 0
 915 0060 E373     		strb	r3, [r4, #15]
 916              		.loc 1 343 0
 917 0062 691D     		adds	r1, r5, #5
 918 0064 0122     		movs	r2, #1
 919 0066 FFF7FEFF 		bl	split
 920              	.LVL104:
 344:src/sysutil.c ****   if (!aLongYear)
 921              		.loc 1 344 0
 922 006a 3FB9     		cbnz	r7, .L44
 345:src/sysutil.c ****     memmove(&aBuf[8],&aBuf[10], 8);
 923              		.loc 1 345 0
 924 006c 3046     		mov	r0, r6
 925 006e 04F10A01 		add	r1, r4, #10
 346:src/sysutil.c **** }
 926              		.loc 1 346 0
 927 0072 BDE8F840 		pop	{r3, r4, r5, r6, r7, lr}
 928              		.cfi_remember_state
 929              		.cfi_restore 14
 930              		.cfi_restore 7
 931              		.cfi_restore 6
 932              		.cfi_restore 5
 933              		.cfi_restore 4
 934              		.cfi_restore 3
 935              		.cfi_def_cfa_offset 0
ARM GAS  C:\Users\AHMED~1.ELE\AppData\Local\Temp\ccGujCBB.s 			page 24


 936              	.LVL105:
 345:src/sysutil.c ****     memmove(&aBuf[8],&aBuf[10], 8);
 937              		.loc 1 345 0
 938 0076 0822     		movs	r2, #8
 939 0078 FFF7FEBF 		b	memmove
 940              	.LVL106:
 941              	.L44:
 942              		.cfi_restore_state
 943 007c F8BD     		pop	{r3, r4, r5, r6, r7, pc}
 944              	.LVL107:
 945              	.L48:
 946 007e 00BF     		.align	2
 947              	.L47:
 948 0080 00000000 		.word	.LANCHOR0
 949              		.cfi_endproc
 950              	.LFE14:
 951              		.size	ConvDateTime, .-ConvDateTime
 952              		.section	.text.SetDTG,"ax",%progbits
 953              		.align	1
 954              		.global	SetDTG
 955              		.thumb
 956              		.thumb_func
 957              		.type	SetDTG, %function
 958              	SetDTG:
 959              	.LFB15:
 347:src/sysutil.c **** //*****************************************************************************
 348:src/sysutil.c **** //  Function        : SetDTG
 349:src/sysutil.c **** //  Description     : Sync RTC with input date time.
 350:src/sysutil.c **** //  Input           : aDataTime;   // pointer to 6 byte date_time
 351:src/sysutil.c **** //                                 // in bcd YYMMDDHHMMSS
 352:src/sysutil.c **** //  Return          : System Year BCD value;
 353:src/sysutil.c **** //  Note            : Year is adjust when necessary.
 354:src/sysutil.c **** //  Globals Changed : N/A
 355:src/sysutil.c **** //*****************************************************************************
 356:src/sysutil.c **** BYTE SetDTG(BYTE *aDateTime)
 357:src/sysutil.c **** {
 960              		.loc 1 357 0
 961              		.cfi_startproc
 962              		@ args = 0, pretend = 0, frame = 16
 963              		@ frame_needed = 0, uses_anonymous_args = 0
 964              	.LVL108:
 965 0000 1FB5     		push	{r0, r1, r2, r3, r4, lr}
 966              		.cfi_def_cfa_offset 24
 967              		.cfi_offset 4, -8
 968              		.cfi_offset 14, -4
 969              		.loc 1 357 0
 970 0002 0446     		mov	r4, r0
 358:src/sysutil.c ****   BYTE tmp;
 359:src/sysutil.c ****   struct DATETIME dtg;
 360:src/sysutil.c **** 
 361:src/sysutil.c ****   ReadRTC(&dtg);
 971              		.loc 1 361 0
 972 0004 02A8     		add	r0, sp, #8
 973              	.LVL109:
 974 0006 FFF7FEFF 		bl	ReadRTC
 975              	.LVL110:
 362:src/sysutil.c ****   tmp = 1;
ARM GAS  C:\Users\AHMED~1.ELE\AppData\Local\Temp\ccGujCBB.s 			page 25


 363:src/sysutil.c ****   if ((aDateTime[1] == 0x12) && (dtg.bMonth == 0x01))
 976              		.loc 1 363 0
 977 000a 6278     		ldrb	r2, [r4, #1]	@ zero_extendqisi2
 362:src/sysutil.c ****   tmp = 1;
 978              		.loc 1 362 0
 979 000c 0123     		movs	r3, #1
 980              		.loc 1 363 0
 981 000e 122A     		cmp	r2, #18
 362:src/sysutil.c ****   tmp = 1;
 982              		.loc 1 362 0
 983 0010 8DF80730 		strb	r3, [sp, #7]
 984              		.loc 1 363 0
 985 0014 09D1     		bne	.L50
 986              		.loc 1 363 0 is_stmt 0 discriminator 1
 987 0016 9DF80A20 		ldrb	r2, [sp, #10]	@ zero_extendqisi2
 988 001a 9A42     		cmp	r2, r3
 989 001c 10D1     		bne	.L51
 364:src/sysutil.c ****     bcdsub(aDateTime,&tmp,1);
 990              		.loc 1 364 0 is_stmt 1
 991 001e 2046     		mov	r0, r4
 992 0020 0DF10701 		add	r1, sp, #7
 993 0024 FFF7FEFF 		bl	bcdsub
 994              	.LVL111:
 995 0028 0AE0     		b	.L51
 996              	.L50:
 365:src/sysutil.c ****   else
 366:src/sysutil.c ****     if ((aDateTime[1] == 0x01) && (dtg.bMonth == 0x12))
 997              		.loc 1 366 0
 998 002a 012A     		cmp	r2, #1
 999 002c 08D1     		bne	.L51
 1000              		.loc 1 366 0 is_stmt 0 discriminator 1
 1001 002e 9DF80A30 		ldrb	r3, [sp, #10]	@ zero_extendqisi2
 1002 0032 122B     		cmp	r3, #18
 1003 0034 04D1     		bne	.L51
 367:src/sysutil.c ****       bcdadd(aDateTime,&tmp,1);
 1004              		.loc 1 367 0 is_stmt 1
 1005 0036 2046     		mov	r0, r4
 1006 0038 0DF10701 		add	r1, sp, #7
 1007 003c FFF7FEFF 		bl	bcdadd
 1008              	.LVL112:
 1009              	.L51:
 368:src/sysutil.c ****   memcpy(&dtg.bYear,aDateTime,6);
 1010              		.loc 1 368 0
 1011 0040 2146     		mov	r1, r4
 1012 0042 0622     		movs	r2, #6
 1013 0044 0DF10900 		add	r0, sp, #9
 1014 0048 FFF7FEFF 		bl	memcpy
 1015              	.LVL113:
 369:src/sysutil.c ****   SetRTC(&dtg);
 1016              		.loc 1 369 0
 1017 004c 02A8     		add	r0, sp, #8
 1018 004e FFF7FEFF 		bl	SetRTC
 1019              	.LVL114:
 370:src/sysutil.c **** 
 371:src/sysutil.c ****   return dtg.bYear;
 372:src/sysutil.c **** }
 1020              		.loc 1 372 0
ARM GAS  C:\Users\AHMED~1.ELE\AppData\Local\Temp\ccGujCBB.s 			page 26


 1021 0052 9DF80900 		ldrb	r0, [sp, #9]	@ zero_extendqisi2
 1022 0056 04B0     		add	sp, sp, #16
 1023              		.cfi_def_cfa_offset 8
 1024              		@ sp needed
 1025 0058 10BD     		pop	{r4, pc}
 1026              		.cfi_endproc
 1027              	.LFE15:
 1028              		.size	SetDTG, .-SetDTG
 1029              		.section	.text.FreeRunMark,"ax",%progbits
 1030              		.align	1
 1031              		.global	FreeRunMark
 1032              		.thumb
 1033              		.thumb_func
 1034              		.type	FreeRunMark, %function
 1035              	FreeRunMark:
 1036              	.LFB16:
 373:src/sysutil.c **** //*****************************************************************************
 374:src/sysutil.c **** //  Function        : FreeRunMark
 375:src/sysutil.c **** //  Description     : Get the current free run mark.
 376:src/sysutil.c **** //  Input           : N/A
 377:src/sysutil.c **** //  Return          : current mark.
 378:src/sysutil.c **** //  Note            : //25-07-17 JC ++
 379:src/sysutil.c **** //  Globals Changed : N/A
 380:src/sysutil.c **** //*****************************************************************************
 381:src/sysutil.c **** DWORD FreeRunMark(void)
 382:src/sysutil.c **** {
 1037              		.loc 1 382 0
 1038              		.cfi_startproc
 1039              		@ args = 0, pretend = 0, frame = 0
 1040              		@ frame_needed = 0, uses_anonymous_args = 0
 1041              		@ link register save eliminated.
 383:src/sysutil.c ****   return FreeRunMW();
 1042              		.loc 1 383 0
 1043 0000 40F29F10 		movw	r0, #415
 1044 0004 FFF7FEBF 		b	sys_func0
 1045              	.LVL115:
 1046              		.cfi_endproc
 1047              	.LFE16:
 1048              		.size	FreeRunMark, .-FreeRunMark
 1049              		.section	.text.FreeRunElapsed,"ax",%progbits
 1050              		.align	1
 1051              		.global	FreeRunElapsed
 1052              		.thumb
 1053              		.thumb_func
 1054              		.type	FreeRunElapsed, %function
 1055              	FreeRunElapsed:
 1056              	.LFB17:
 384:src/sysutil.c **** }
 385:src/sysutil.c **** //*****************************************************************************
 386:src/sysutil.c **** //  Function        : FreeRunElapsed
 387:src/sysutil.c **** //  Description     : Calc the Time elapsed in ms start from mark.
 388:src/sysutil.c **** //  Input           : aStartMark.
 389:src/sysutil.c **** //  Return          : time in ms.
 390:src/sysutil.c **** //  Note            : //25-07-17 JC ++
 391:src/sysutil.c **** //  Globals Changed : N/A
 392:src/sysutil.c **** //*****************************************************************************
 393:src/sysutil.c **** DWORD FreeRunElapsed(DWORD aStartMark)
ARM GAS  C:\Users\AHMED~1.ELE\AppData\Local\Temp\ccGujCBB.s 			page 27


 394:src/sysutil.c **** {
 1057              		.loc 1 394 0
 1058              		.cfi_startproc
 1059              		@ args = 0, pretend = 0, frame = 0
 1060              		@ frame_needed = 0, uses_anonymous_args = 0
 1061              	.LVL116:
 1062 0000 10B5     		push	{r4, lr}
 1063              		.cfi_def_cfa_offset 8
 1064              		.cfi_offset 4, -8
 1065              		.cfi_offset 14, -4
 1066              		.loc 1 394 0
 1067 0002 0446     		mov	r4, r0
 395:src/sysutil.c ****   DWORD curr_mark = FreeRunMW();
 1068              		.loc 1 395 0
 1069 0004 40F29F10 		movw	r0, #415
 1070              	.LVL117:
 1071 0008 FFF7FEFF 		bl	sys_func0
 1072              	.LVL118:
 396:src/sysutil.c **** 
 397:src/sysutil.c ****   return ((curr_mark - aStartMark) * 5);   // 5ms per tick.
 398:src/sysutil.c **** }
 1073              		.loc 1 398 0
 1074 000c 0523     		movs	r3, #5
 397:src/sysutil.c **** }
 1075              		.loc 1 397 0
 1076 000e 001B     		subs	r0, r0, r4
 1077              	.LVL119:
 1078              		.loc 1 398 0
 1079 0010 5843     		muls	r0, r3, r0
 1080 0012 10BD     		pop	{r4, pc}
 1081              		.cfi_endproc
 1082              	.LFE17:
 1083              		.size	FreeRunElapsed, .-FreeRunElapsed
 1084              		.section	.text.ShowIp,"ax",%progbits
 1085              		.align	1
 1086              		.global	ShowIp
 1087              		.thumb
 1088              		.thumb_func
 1089              		.type	ShowIp, %function
 1090              	ShowIp:
 1091              	.LFB18:
 399:src/sysutil.c **** //*****************************************************************************
 400:src/sysutil.c **** //  Function        : ShowIp
 401:src/sysutil.c **** //  Description     : Show ip addr.
 402:src/sysutil.c **** //  Input           : aIp;        // pointer to 4 byte ip.
 403:src/sysutil.c **** //                    aPos;       // line pos.
 404:src/sysutil.c **** //                    aReverse;   // TRUE=> reverse on.
 405:src/sysutil.c **** //  Return          : -1;         // Cancel;
 406:src/sysutil.c **** //  Note            : N/A
 407:src/sysutil.c **** //  Globals Changed : N/A
 408:src/sysutil.c **** //*****************************************************************************
 409:src/sysutil.c **** void ShowIp(unsigned char *aIp, int aPos, int aReverse)
 410:src/sysutil.c **** {
 1092              		.loc 1 410 0
 1093              		.cfi_startproc
 1094              		@ args = 0, pretend = 0, frame = 128
 1095              		@ frame_needed = 0, uses_anonymous_args = 0
ARM GAS  C:\Users\AHMED~1.ELE\AppData\Local\Temp\ccGujCBB.s 			page 28


 1096              	.LVL120:
 1097 0000 F0B5     		push	{r4, r5, r6, r7, lr}
 1098              		.cfi_def_cfa_offset 20
 1099              		.cfi_offset 4, -20
 1100              		.cfi_offset 5, -16
 1101              		.cfi_offset 6, -12
 1102              		.cfi_offset 7, -8
 1103              		.cfi_offset 14, -4
 411:src/sysutil.c ****   BYTE buf[128];
 412:src/sysutil.c **** 
 413:src/sysutil.c ****   DispGotoMW(aPos, MW_SPFONT);
 1104              		.loc 1 413 0
 1105 0002 0023     		movs	r3, #0
 410:src/sysutil.c ****   BYTE buf[128];
 1106              		.loc 1 410 0
 1107 0004 A3B0     		sub	sp, sp, #140
 1108              		.cfi_def_cfa_offset 160
 410:src/sysutil.c ****   BYTE buf[128];
 1109              		.loc 1 410 0
 1110 0006 0F46     		mov	r7, r1
 1111 0008 1646     		mov	r6, r2
 1112 000a 0446     		mov	r4, r0
 1113              		.loc 1 413 0
 1114 000c 0093     		str	r3, [sp]
 1115 000e 0F20     		movs	r0, #15
 1116              	.LVL121:
 1117 0010 2421     		movs	r1, #36
 1118              	.LVL122:
 1119 0012 3A46     		mov	r2, r7
 1120              	.LVL123:
 1121 0014 4FF40053 		mov	r3, #8192
 1122 0018 FFF7FEFF 		bl	lib_app_call
 1123              	.LVL124:
 414:src/sysutil.c ****   if (aReverse) DispCtrlMW(MW_REV_ON);
 1124              		.loc 1 414 0
 1125 001c 1EB1     		cbz	r6, .L55
 1126              		.loc 1 414 0 is_stmt 0 discriminator 1
 1127 001e 1620     		movs	r0, #22
 1128 0020 1C21     		movs	r1, #28
 1129 0022 FFF7FEFF 		bl	sys_func1
 1130              	.LVL125:
 1131              	.L55:
 415:src/sysutil.c ****   sprintf(buf, "%3d.%3d.%3d.%3d", aIp[0], aIp[1], aIp[2], aIp[3]);
 1132              		.loc 1 415 0 is_stmt 1
 1133 0026 A178     		ldrb	r1, [r4, #2]	@ zero_extendqisi2
 1134 0028 2278     		ldrb	r2, [r4]	@ zero_extendqisi2
 1135 002a 6378     		ldrb	r3, [r4, #1]	@ zero_extendqisi2
 1136 002c 0091     		str	r1, [sp]
 1137 002e E178     		ldrb	r1, [r4, #3]	@ zero_extendqisi2
 1138 0030 02A8     		add	r0, sp, #8
 1139 0032 0191     		str	r1, [sp, #4]
 1140 0034 1349     		ldr	r1, .L67
 1141 0036 FFF7FEFF 		bl	sprintf
 1142              	.LVL126:
 1143              	.LBB7:
 416:src/sysutil.c ****   DispLineMW(buf, aPos, MW_SPFONT);
 1144              		.loc 1 416 0
ARM GAS  C:\Users\AHMED~1.ELE\AppData\Local\Temp\ccGujCBB.s 			page 29


 1145 003a 02A8     		add	r0, sp, #8
 1146 003c FFF7FEFF 		bl	strlen
 1147              	.LVL127:
 1148 0040 0546     		mov	r5, r0
 1149              	.LVL128:
 1150 0042 691C     		adds	r1, r5, #1
 1151 0044 9220     		movs	r0, #146
 1152              	.LVL129:
 1153 0046 FFF7FEFF 		bl	sys_func1
 1154              	.LVL130:
 1155 004a 0446     		mov	r4, r0
 1156              	.LVL131:
 1157 004c 90B1     		cbz	r0, .L56
 1158              		.loc 1 416 0 is_stmt 0 discriminator 1
 1159 004e 02A9     		add	r1, sp, #8
 1160 0050 2A46     		mov	r2, r5
 1161 0052 FFF7FEFF 		bl	memcpy
 1162              	.LVL132:
 1163 0056 0023     		movs	r3, #0
 1164 0058 2521     		movs	r1, #37
 1165 005a 6355     		strb	r3, [r4, r5]
 1166 005c 4FF40053 		mov	r3, #8192
 1167 0060 0F20     		movs	r0, #15
 1168 0062 0093     		str	r3, [sp]
 1169 0064 2246     		mov	r2, r4
 1170 0066 3B46     		mov	r3, r7
 1171 0068 FFF7FEFF 		bl	lib_app_call
 1172              	.LVL133:
 1173 006c 9420     		movs	r0, #148
 1174 006e 2146     		mov	r1, r4
 1175 0070 FFF7FEFF 		bl	sys_func1
 1176              	.LVL134:
 1177              	.L56:
 1178              	.LBE7:
 417:src/sysutil.c ****   if (aReverse) DispCtrlMW(MW_REV_OFF);
 1179              		.loc 1 417 0 is_stmt 1
 1180 0074 1EB1     		cbz	r6, .L54
 1181              		.loc 1 417 0 is_stmt 0 discriminator 1
 1182 0076 1620     		movs	r0, #22
 1183 0078 1D21     		movs	r1, #29
 1184 007a FFF7FEFF 		bl	sys_func1
 1185              	.LVL135:
 1186              	.L54:
 418:src/sysutil.c **** }
 1187              		.loc 1 418 0 is_stmt 1
 1188 007e 23B0     		add	sp, sp, #140
 1189              		.cfi_def_cfa_offset 20
 1190              		@ sp needed
 1191 0080 F0BD     		pop	{r4, r5, r6, r7, pc}
 1192              	.LVL136:
 1193              	.L68:
 1194 0082 00BF     		.align	2
 1195              	.L67:
 1196 0084 00000000 		.word	.LC0
 1197              		.cfi_endproc
 1198              	.LFE18:
 1199              		.size	ShowIp, .-ShowIp
ARM GAS  C:\Users\AHMED~1.ELE\AppData\Local\Temp\ccGujCBB.s 			page 30


 1200              		.section	.text.EditIp,"ax",%progbits
 1201              		.align	1
 1202              		.global	EditIp
 1203              		.thumb
 1204              		.thumb_func
 1205              		.type	EditIp, %function
 1206              	EditIp:
 1207              	.LFB19:
 419:src/sysutil.c **** //*****************************************************************************
 420:src/sysutil.c **** //  Function        : EditIp
 421:src/sysutil.c **** //  Description     : Edit IP address.
 422:src/sysutil.c **** //  Input           : aip;    // pointer to 4 bytes IP address buffer.
 423:src/sysutil.c **** //                    aPos;   // position to display.
 424:src/sysutil.c **** //  Return          : TRUE;
 425:src/sysutil.c **** //                    FALSE;    // USER CANCEL
 426:src/sysutil.c **** //  Note            : N/A
 427:src/sysutil.c **** //  Globals Changed : N/A
 428:src/sysutil.c **** //*****************************************************************************
 429:src/sysutil.c **** BOOLEAN EditIp(BYTE *aIp, DWORD aPos)
 430:src/sysutil.c **** {
 1208              		.loc 1 430 0
 1209              		.cfi_startproc
 1210              		@ args = 0, pretend = 0, frame = 136
 1211              		@ frame_needed = 0, uses_anonymous_args = 0
 1212              	.LVL137:
 1213 0000 2DE9F043 		push	{r4, r5, r6, r7, r8, r9, lr}
 1214              		.cfi_def_cfa_offset 28
 1215              		.cfi_offset 4, -28
 1216              		.cfi_offset 5, -24
 1217              		.cfi_offset 6, -20
 1218              		.cfi_offset 7, -16
 1219              		.cfi_offset 8, -12
 1220              		.cfi_offset 9, -8
 1221              		.cfi_offset 14, -4
 1222 0004 0746     		mov	r7, r0
 1223 0006 A5B0     		sub	sp, sp, #148
 1224              		.cfi_def_cfa_offset 176
 1225              		.loc 1 430 0
 1226 0008 0E46     		mov	r6, r1
 431:src/sysutil.c ****   DWORD curr_field;
 432:src/sysutil.c ****   DWORD cursor=0;
 433:src/sysutil.c ****   BYTE data[IP_LEN], buf[128];
 434:src/sysutil.c ****   DWORD i;
 435:src/sysutil.c ****   DWORD keyin;
 436:src/sysutil.c **** 
 437:src/sysutil.c ****   memcpy(data,aIp,IP_LEN);
 1227              		.loc 1 437 0
 1228 000a 03A8     		add	r0, sp, #12
 1229              	.LVL138:
 1230 000c 3946     		mov	r1, r7
 1231              	.LVL139:
 1232 000e 0422     		movs	r2, #4
 1233 0010 FFF7FEFF 		bl	memcpy
 1234              	.LVL140:
 432:src/sysutil.c ****   BYTE data[IP_LEN], buf[128];
 1235              		.loc 1 432 0
 1236 0014 0025     		movs	r5, #0
ARM GAS  C:\Users\AHMED~1.ELE\AppData\Local\Temp\ccGujCBB.s 			page 31


 438:src/sysutil.c **** 
 439:src/sysutil.c ****   curr_field=IP_LEN;
 1237              		.loc 1 439 0
 1238 0016 0424     		movs	r4, #4
 1239              	.LVL141:
 1240              	.L70:
 440:src/sysutil.c ****   while (1) {
 441:src/sysutil.c ****     if (curr_field<IP_LEN) {
 1241              		.loc 1 441 0
 1242 0018 042C     		cmp	r4, #4
 1243 001a 3FD0     		beq	.L72
 1244              	.LVL142:
 1245              	.L99:
 442:src/sysutil.c ****       /* Show all data */
 443:src/sysutil.c ****       ShowIp(data, aPos, FALSE);
 1246              		.loc 1 443 0
 1247 001c 03A8     		add	r0, sp, #12
 1248 001e 3146     		mov	r1, r6
 1249 0020 0022     		movs	r2, #0
 1250 0022 FFF7FEFF 		bl	ShowIp
 1251              	.LVL143:
 444:src/sysutil.c ****       /* Show editing field */
 445:src/sysutil.c ****       sprintf(buf, "%-3d", data[curr_field]);
 1252              		.loc 1 445 0
 1253 0026 24AB     		add	r3, sp, #144
 1254 0028 2344     		add	r3, r3, r4
 1255 002a 4149     		ldr	r1, .L103
 1256 002c 13F8842C 		ldrb	r2, [r3, #-132]	@ zero_extendqisi2
 1257 0030 04A8     		add	r0, sp, #16
 1258 0032 FFF7FEFF 		bl	sprintf
 1259              	.LVL144:
 1260              	.LBB8:
 446:src/sysutil.c ****       DispLineMW(buf, aPos+(curr_field*4)+EDITIP_COL, MW_REVERSE|MW_SPFONT);
 1261              		.loc 1 446 0
 1262 0036 04A8     		add	r0, sp, #16
 1263 0038 FFF7FEFF 		bl	strlen
 1264              	.LVL145:
 1265 003c 8146     		mov	r9, r0
 1266              	.LVL146:
 1267 003e 09F10101 		add	r1, r9, #1
 1268 0042 9220     		movs	r0, #146
 1269              	.LVL147:
 1270 0044 FFF7FEFF 		bl	sys_func1
 1271              	.LVL148:
 1272 0048 8046     		mov	r8, r0
 1273 004a A0B1     		cbz	r0, .L73
 1274              		.loc 1 446 0 is_stmt 0 discriminator 1
 1275 004c 04A9     		add	r1, sp, #16
 1276 004e 4A46     		mov	r2, r9
 1277 0050 FFF7FEFF 		bl	memcpy
 1278              	.LVL149:
 1279 0054 0023     		movs	r3, #0
 1280 0056 2521     		movs	r1, #37
 1281 0058 08F80930 		strb	r3, [r8, r9]
 1282 005c 42F21003 		movw	r3, #8208
 1283 0060 0F20     		movs	r0, #15
 1284 0062 0093     		str	r3, [sp]
ARM GAS  C:\Users\AHMED~1.ELE\AppData\Local\Temp\ccGujCBB.s 			page 32


 1285 0064 4246     		mov	r2, r8
 1286 0066 06EB8403 		add	r3, r6, r4, lsl #2
 1287 006a FFF7FEFF 		bl	lib_app_call
 1288              	.LVL150:
 1289 006e 9420     		movs	r0, #148
 1290 0070 4146     		mov	r1, r8
 1291 0072 FFF7FEFF 		bl	sys_func1
 1292              	.LVL151:
 1293              	.L73:
 1294              	.LBE8:
 447:src/sysutil.c ****     }
 448:src/sysutil.c ****     else
 449:src/sysutil.c ****       ShowIp(data,aPos,TRUE);
 450:src/sysutil.c **** 
 451:src/sysutil.c ****     keyin = WaitKey(KBD_TIMEOUT);
 1295              		.loc 1 451 0 is_stmt 1
 1296 0076 42F22830 		movw	r0, #9000
 1297 007a FFF7FEFF 		bl	WaitKey
 1298              	.LVL152:
 452:src/sysutil.c **** 
 453:src/sysutil.c ****     /* Valid numeric key */
 454:src/sysutil.c ****     if ((keyin>=MWKEY_0)&&(keyin<=MWKEY_9)) {
 1299              		.loc 1 454 0
 1300 007e A0F13002 		sub	r2, r0, #48
 1301 0082 092A     		cmp	r2, #9
 1302 0084 10D9     		bls	.L100
 1303              	.LVL153:
 455:src/sysutil.c ****       /* Start edit 1st field at all field selected */
 456:src/sysutil.c ****       if (curr_field>=IP_LEN)
 457:src/sysutil.c ****         curr_field=0;
 458:src/sysutil.c ****       /* Editing digit */
 459:src/sysutil.c ****       if (cursor==0) {
 460:src/sysutil.c ****         data[curr_field]=(BYTE) (keyin-'0');
 461:src/sysutil.c ****         cursor++;
 462:src/sysutil.c ****       }
 463:src/sysutil.c ****       else
 464:src/sysutil.c ****         if (cursor<EDITIP_CURSOR_MAX) {
 465:src/sysutil.c ****           i=data[curr_field]*10+(BYTE) (keyin-'0');
 466:src/sysutil.c ****           if (i>255)
 467:src/sysutil.c ****             i=255;
 468:src/sysutil.c ****           data[curr_field]=(BYTE)i;
 469:src/sysutil.c ****           cursor++;
 470:src/sysutil.c ****         }
 471:src/sysutil.c ****       /* Last digit, auto ENTER */
 472:src/sysutil.c ****       if (cursor==EDITIP_CURSOR_MAX)
 473:src/sysutil.c ****         keyin=MWKEY_ENTER;
 474:src/sysutil.c ****     }
 475:src/sysutil.c **** 
 476:src/sysutil.c ****     /* Other keys */
 477:src/sysutil.c ****     switch (keyin) {
 1304              		.loc 1 477 0
 1305 0086 1128     		cmp	r0, #17
 1306 0088 2BD1     		bne	.L101
 478:src/sysutil.c ****       case MWKEY_ENTER:
 479:src/sysutil.c ****         if (curr_field>=IP_LEN) {
 480:src/sysutil.c ****           memcpy(aIp,data,IP_LEN);
 481:src/sysutil.c ****           ShowIp(data,aPos,FALSE);
ARM GAS  C:\Users\AHMED~1.ELE\AppData\Local\Temp\ccGujCBB.s 			page 33


 482:src/sysutil.c ****           return TRUE;
 483:src/sysutil.c ****         }
 484:src/sysutil.c ****         curr_field++;
 485:src/sysutil.c ****         cursor=0;
 486:src/sysutil.c ****         break;
 487:src/sysutil.c ****       case MWKEY_CLR:
 488:src/sysutil.c ****         if (curr_field >= IP_LEN) {
 489:src/sysutil.c ****           curr_field = 0;
 490:src/sysutil.c ****         }
 491:src/sysutil.c ****         else if ((cursor == 0)&&(curr_field>0))
 492:src/sysutil.c ****           curr_field--;
 493:src/sysutil.c ****         else if (curr_field<IP_LEN) {
 494:src/sysutil.c ****           data[curr_field]=0;
 495:src/sysutil.c ****           cursor=0;
 496:src/sysutil.c ****         }
 497:src/sysutil.c ****         break;
 498:src/sysutil.c ****       case MWKEY_CANCL:
 499:src/sysutil.c ****         if (curr_field<IP_LEN) {
 1307              		.loc 1 499 0
 1308 008a 042C     		cmp	r4, #4
 1309 008c 4CD0     		beq	.L89
 500:src/sysutil.c ****           memcpy(data,aIp,IP_LEN);
 1310              		.loc 1 500 0
 1311 008e 03A8     		add	r0, sp, #12
 1312              	.LVL154:
 1313 0090 3946     		mov	r1, r7
 1314 0092 0422     		movs	r2, #4
 1315              	.LVL155:
 1316 0094 FFF7FEFF 		bl	memcpy
 1317              	.LVL156:
 501:src/sysutil.c ****           curr_field=IP_LEN;
 502:src/sysutil.c ****           cursor=0;
 1318              		.loc 1 502 0
 1319 0098 0025     		movs	r5, #0
 501:src/sysutil.c ****           curr_field=IP_LEN;
 1320              		.loc 1 501 0
 1321 009a 0424     		movs	r4, #4
 1322              	.LVL157:
 1323              	.L72:
 449:src/sysutil.c **** 
 1324              		.loc 1 449 0
 1325 009c 03A8     		add	r0, sp, #12
 1326 009e 3146     		mov	r1, r6
 1327 00a0 0122     		movs	r2, #1
 1328 00a2 FFF7FEFF 		bl	ShowIp
 1329              	.LVL158:
 1330 00a6 E6E7     		b	.L73
 1331              	.LVL159:
 1332              	.L100:
 457:src/sysutil.c ****       /* Editing digit */
 1333              		.loc 1 457 0
 1334 00a8 042C     		cmp	r4, #4
 1335 00aa 08BF     		it	eq
 1336 00ac 0024     		moveq	r4, #0
 1337              	.LVL160:
 459:src/sysutil.c ****         data[curr_field]=(BYTE) (keyin-'0');
 1338              		.loc 1 459 0
ARM GAS  C:\Users\AHMED~1.ELE\AppData\Local\Temp\ccGujCBB.s 			page 34


 1339 00ae 2DB9     		cbnz	r5, .L76
 460:src/sysutil.c ****         cursor++;
 1340              		.loc 1 460 0
 1341 00b0 24AB     		add	r3, sp, #144
 1342 00b2 2344     		add	r3, r3, r4
 461:src/sysutil.c ****       }
 1343              		.loc 1 461 0
 1344 00b4 0125     		movs	r5, #1
 1345              	.LVL161:
 460:src/sysutil.c ****         cursor++;
 1346              		.loc 1 460 0
 1347 00b6 03F8842C 		strb	r2, [r3, #-132]
 1348              	.LVL162:
 1349 00ba ADE7     		b	.L70
 1350              	.LVL163:
 1351              	.L76:
 464:src/sysutil.c ****           i=data[curr_field]*10+(BYTE) (keyin-'0');
 1352              		.loc 1 464 0
 1353 00bc 022D     		cmp	r5, #2
 1354 00be 0DD8     		bhi	.L78
 465:src/sysutil.c ****           if (i>255)
 1355              		.loc 1 465 0
 1356 00c0 24AB     		add	r3, sp, #144
 1357 00c2 1919     		adds	r1, r3, r4
 1358 00c4 D3B2     		uxtb	r3, r2
 1359 00c6 11F8840C 		ldrb	r0, [r1, #-132]	@ zero_extendqisi2
 1360              	.LVL164:
 1361 00ca 0A22     		movs	r2, #10
 1362              	.LVL165:
 469:src/sysutil.c ****         }
 1363              		.loc 1 469 0
 1364 00cc 0135     		adds	r5, r5, #1
 1365              	.LVL166:
 465:src/sysutil.c ****           if (i>255)
 1366              		.loc 1 465 0
 1367 00ce 12FB0033 		smlabb	r3, r2, r0, r3
 1368              	.LVL167:
 1369 00d2 FF2B     		cmp	r3, #255
 1370 00d4 A8BF     		it	ge
 1371 00d6 FF23     		movge	r3, #255
 1372              	.LVL168:
 468:src/sysutil.c ****           cursor++;
 1373              		.loc 1 468 0
 1374 00d8 01F8843C 		strb	r3, [r1, #-132]
 1375              	.LVL169:
 1376              	.L78:
 472:src/sysutil.c ****         keyin=MWKEY_ENTER;
 1377              		.loc 1 472 0
 1378 00dc 032D     		cmp	r5, #3
 1379 00de 12D0     		beq	.L84
 1380 00e0 9AE7     		b	.L70
 1381              	.LVL170:
 1382              	.L101:
 477:src/sysutil.c ****       case MWKEY_ENTER:
 1383              		.loc 1 477 0
 1384 00e2 1228     		cmp	r0, #18
 1385 00e4 12D0     		beq	.L82
ARM GAS  C:\Users\AHMED~1.ELE\AppData\Local\Temp\ccGujCBB.s 			page 35


 1386 00e6 1028     		cmp	r0, #16
 1387 00e8 96D1     		bne	.L70
 1388              	.LVL171:
 479:src/sysutil.c ****           memcpy(aIp,data,IP_LEN);
 1389              		.loc 1 479 0
 1390 00ea 042C     		cmp	r4, #4
 1391 00ec 0BD1     		bne	.L84
 480:src/sysutil.c ****           ShowIp(data,aPos,FALSE);
 1392              		.loc 1 480 0
 1393 00ee 03A9     		add	r1, sp, #12
 1394 00f0 2246     		mov	r2, r4
 1395 00f2 3846     		mov	r0, r7
 1396 00f4 FFF7FEFF 		bl	memcpy
 1397              	.LVL172:
 481:src/sysutil.c ****           return TRUE;
 1398              		.loc 1 481 0
 1399 00f8 03A8     		add	r0, sp, #12
 1400 00fa 3146     		mov	r1, r6
 1401 00fc 0022     		movs	r2, #0
 1402 00fe FFF7FEFF 		bl	ShowIp
 1403              	.LVL173:
 482:src/sysutil.c ****         }
 1404              		.loc 1 482 0
 1405 0102 0120     		movs	r0, #1
 1406 0104 11E0     		b	.L85
 1407              	.L84:
 1408              	.LVL174:
 484:src/sysutil.c ****         cursor=0;
 1409              		.loc 1 484 0
 1410 0106 0134     		adds	r4, r4, #1
 1411              	.LVL175:
 485:src/sysutil.c ****         break;
 1412              		.loc 1 485 0
 1413 0108 0025     		movs	r5, #0
 486:src/sysutil.c ****       case MWKEY_CLR:
 1414              		.loc 1 486 0
 1415 010a 85E7     		b	.L70
 1416              	.LVL176:
 1417              	.L82:
 488:src/sysutil.c ****           curr_field = 0;
 1418              		.loc 1 488 0
 1419 010c 042C     		cmp	r4, #4
 1420 010e 01D1     		bne	.L102
 489:src/sysutil.c ****         }
 1421              		.loc 1 489 0
 1422 0110 0024     		movs	r4, #0
 1423              	.LVL177:
 1424 0112 83E7     		b	.L99
 1425              	.LVL178:
 1426              	.L102:
 491:src/sysutil.c ****           curr_field--;
 1427              		.loc 1 491 0
 1428 0114 15B9     		cbnz	r5, .L86
 491:src/sysutil.c ****           curr_field--;
 1429              		.loc 1 491 0 is_stmt 0 discriminator 1
 1430 0116 0CB1     		cbz	r4, .L86
 492:src/sysutil.c ****         else if (curr_field<IP_LEN) {
ARM GAS  C:\Users\AHMED~1.ELE\AppData\Local\Temp\ccGujCBB.s 			page 36


 1431              		.loc 1 492 0 is_stmt 1
 1432 0118 013C     		subs	r4, r4, #1
 1433              	.LVL179:
 1434 011a 7DE7     		b	.L70
 1435              	.L86:
 494:src/sysutil.c ****           cursor=0;
 1436              		.loc 1 494 0
 1437 011c 24AB     		add	r3, sp, #144
 1438 011e 0025     		movs	r5, #0
 1439              	.LVL180:
 1440 0120 2344     		add	r3, r3, r4
 1441 0122 03F8845C 		strb	r5, [r3, #-132]
 1442              	.LVL181:
 1443 0126 77E7     		b	.L70
 1444              	.LVL182:
 1445              	.L89:
 503:src/sysutil.c ****         }
 504:src/sysutil.c ****         else
 505:src/sysutil.c ****           return FALSE;
 1446              		.loc 1 505 0
 1447 0128 0020     		movs	r0, #0
 1448              	.LVL183:
 1449              	.L85:
 506:src/sysutil.c ****         break;
 507:src/sysutil.c ****     }
 508:src/sysutil.c ****   }  // while
 509:src/sysutil.c **** }
 1450              		.loc 1 509 0
 1451 012a 25B0     		add	sp, sp, #148
 1452              		.cfi_def_cfa_offset 28
 1453              		@ sp needed
 1454 012c BDE8F083 		pop	{r4, r5, r6, r7, r8, r9, pc}
 1455              	.LVL184:
 1456              	.L104:
 1457              		.align	2
 1458              	.L103:
 1459 0130 10000000 		.word	.LC1
 1460              		.cfi_endproc
 1461              	.LFE19:
 1462              		.size	EditIp, .-EditIp
 1463              		.section	.text.EditPort,"ax",%progbits
 1464              		.align	1
 1465              		.global	EditPort
 1466              		.thumb
 1467              		.thumb_func
 1468              		.type	EditPort, %function
 1469              	EditPort:
 1470              	.LFB20:
 510:src/sysutil.c **** //*****************************************************************************
 511:src/sysutil.c **** //  Function        : EditPort
 512:src/sysutil.c **** //  Description     : Edit port number.
 513:src/sysutil.c **** //  Input           : port;     // pointer to port number buffer
 514:src/sysutil.c **** //                    aRow;     // Row number to display.
 515:src/sysutil.c **** //  Return          : TRUE;
 516:src/sysutil.c **** //                    FALSE;    // USER CANCEL
 517:src/sysutil.c **** //  Note            : N/A
 518:src/sysutil.c **** //  Globals Changed : N/A
ARM GAS  C:\Users\AHMED~1.ELE\AppData\Local\Temp\ccGujCBB.s 			page 37


 519:src/sysutil.c **** //*****************************************************************************
 520:src/sysutil.c **** BOOLEAN EditPort(DWORD *aPort, DWORD aPos)
 521:src/sysutil.c **** {
 1471              		.loc 1 521 0
 1472              		.cfi_startproc
 1473              		@ args = 0, pretend = 0, frame = 32
 1474              		@ frame_needed = 0, uses_anonymous_args = 0
 1475              	.LVL185:
 1476 0000 70B5     		push	{r4, r5, r6, lr}
 1477              		.cfi_def_cfa_offset 16
 1478              		.cfi_offset 4, -16
 1479              		.cfi_offset 5, -12
 1480              		.cfi_offset 6, -8
 1481              		.cfi_offset 14, -4
 1482 0002 0646     		mov	r6, r0
 1483 0004 88B0     		sub	sp, sp, #32
 1484              		.cfi_def_cfa_offset 48
 522:src/sysutil.c ****   BYTE tmp[32];
 523:src/sysutil.c **** 
 524:src/sysutil.c ****   sprintf ((char *)&tmp[1], "%d", *aPort);
 1485              		.loc 1 524 0
 1486 0006 0DF10104 		add	r4, sp, #1
 1487 000a 3268     		ldr	r2, [r6]
 521:src/sysutil.c ****   BYTE tmp[32];
 1488              		.loc 1 521 0
 1489 000c 0D46     		mov	r5, r1
 1490              		.loc 1 524 0
 1491 000e 2046     		mov	r0, r4
 1492              	.LVL186:
 1493 0010 0F49     		ldr	r1, .L110
 1494              	.LVL187:
 1495 0012 FFF7FEFF 		bl	sprintf
 1496              	.LVL188:
 525:src/sysutil.c ****   tmp[0] = strlen(&tmp[1]);
 1497              		.loc 1 525 0
 1498 0016 2046     		mov	r0, r4
 1499 0018 FFF7FEFF 		bl	strlen
 1500              	.LVL189:
 526:src/sysutil.c ****   if (!GetKbd(ECHO+NUMERIC_INPUT+MW_SPFONT+aPos, IMAX(5), tmp))
 1501              		.loc 1 526 0
 1502 001c 0521     		movs	r1, #5
 1503 001e 6A46     		mov	r2, sp
 525:src/sysutil.c ****   tmp[0] = strlen(&tmp[1]);
 1504              		.loc 1 525 0
 1505 0020 8DF80000 		strb	r0, [sp]
 1506              		.loc 1 526 0
 1507 0024 05F50010 		add	r0, r5, #2097152
 1508 0028 00F50050 		add	r0, r0, #8192
 1509 002c FFF7FEFF 		bl	GetKbd
 1510              	.LVL190:
 1511 0030 58B1     		cbz	r0, .L106
 527:src/sysutil.c ****     return FALSE;
 528:src/sysutil.c ****   tmp[tmp[0]+1] = 0;
 1512              		.loc 1 528 0
 1513 0032 9DF80030 		ldrb	r3, [sp]	@ zero_extendqisi2
 1514 0036 08AA     		add	r2, sp, #32
 1515 0038 1344     		add	r3, r3, r2
ARM GAS  C:\Users\AHMED~1.ELE\AppData\Local\Temp\ccGujCBB.s 			page 38


 1516 003a 0022     		movs	r2, #0
 529:src/sysutil.c ****   *aPort = atoi ((char *)&tmp[1]);
 1517              		.loc 1 529 0
 1518 003c 2046     		mov	r0, r4
 528:src/sysutil.c ****   *aPort = atoi ((char *)&tmp[1]);
 1519              		.loc 1 528 0
 1520 003e 03F81F2C 		strb	r2, [r3, #-31]
 1521              		.loc 1 529 0
 1522 0042 FFF7FEFF 		bl	atoi
 1523              	.LVL191:
 1524 0046 3060     		str	r0, [r6]
 530:src/sysutil.c ****   return TRUE;
 1525              		.loc 1 530 0
 1526 0048 0120     		movs	r0, #1
 1527              	.L106:
 531:src/sysutil.c **** }
 1528              		.loc 1 531 0
 1529 004a 08B0     		add	sp, sp, #32
 1530              		.cfi_def_cfa_offset 16
 1531              		@ sp needed
 1532 004c 70BD     		pop	{r4, r5, r6, pc}
 1533              	.LVL192:
 1534              	.L111:
 1535 004e 00BF     		.align	2
 1536              	.L110:
 1537 0050 15000000 		.word	.LC2
 1538              		.cfi_endproc
 1539              	.LFE20:
 1540              		.size	EditPort, .-EditPort
 1541              		.section	.text.CheckPointerAddr,"ax",%progbits
 1542              		.align	1
 1543              		.global	CheckPointerAddr
 1544              		.thumb
 1545              		.thumb_func
 1546              		.type	CheckPointerAddr, %function
 1547              	CheckPointerAddr:
 1548              	.LFB21:
 532:src/sysutil.c **** //*****************************************************************************
 533:src/sysutil.c **** //  Function        : CheckPointerAddr
 534:src/sysutil.c **** //  Description     : Check whether pointer is syster pointer (stack or malloc)
 535:src/sysutil.c **** //                    or not
 536:src/sysutil.c **** //  Input           : aPtr
 537:src/sysutil.c **** //  Return          : N/A
 538:src/sysutil.c **** //  Note            : N/A
 539:src/sysutil.c **** //  Globals Changed : N/A
 540:src/sysutil.c **** //*****************************************************************************
 541:src/sysutil.c **** void CheckPointerAddr(void *aPtr)
 542:src/sysutil.c **** {
 1549              		.loc 1 542 0
 1550              		.cfi_startproc
 1551              		@ args = 0, pretend = 0, frame = 0
 1552              		@ frame_needed = 0, uses_anonymous_args = 0
 1553              	.LVL193:
 1554 0000 13B5     		push	{r0, r1, r4, lr}
 1555              		.cfi_def_cfa_offset 16
 1556              		.cfi_offset 4, -8
 1557              		.cfi_offset 14, -4
ARM GAS  C:\Users\AHMED~1.ELE\AppData\Local\Temp\ccGujCBB.s 			page 39


 543:src/sysutil.c ****   #ifndef WIN32
 544:src/sysutil.c ****   DWORD address;
 545:src/sysutil.c **** 
 546:src/sysutil.c ****   address = (DWORD)aPtr;
 547:src/sysutil.c ****   if ((address < FLASH_START_ADDRESS) || (address > SRAM_END_ADDRESS))
 1558              		.loc 1 547 0
 1559 0002 A0F58010 		sub	r0, r0, #1048576
 1560              	.LVL194:
 1561 0006 B0F5001F 		cmp	r0, #2097152
 1562 000a 28D2     		bcs	.L112
 1563              	.LVL195:
 1564              	.LBB9:
 548:src/sysutil.c ****     return;
 549:src/sysutil.c **** 
 550:src/sysutil.c ****   DispLineMW("Not A Valid Pointer!!", MW_MAX_LINE, MW_REVERSE|MW_CENTER|MW_SPFONT);
 1565              		.loc 1 550 0
 1566 000c 9220     		movs	r0, #146
 1567              	.LVL196:
 1568 000e 1621     		movs	r1, #22
 1569 0010 FFF7FEFF 		bl	sys_func1
 1570              	.LVL197:
 1571 0014 0446     		mov	r4, r0
 1572 0016 98B1     		cbz	r0, .L114
 1573              		.loc 1 550 0 is_stmt 0 discriminator 1
 1574 0018 1249     		ldr	r1, .L121
 1575 001a 1522     		movs	r2, #21
 1576 001c FFF7FEFF 		bl	memcpy
 1577              	.LVL198:
 1578 0020 0023     		movs	r3, #0
 1579 0022 2521     		movs	r1, #37
 1580 0024 6375     		strb	r3, [r4, #21]
 1581 0026 42F21203 		movw	r3, #8210
 1582 002a 0F20     		movs	r0, #15
 1583 002c 0093     		str	r3, [sp]
 1584 002e 2246     		mov	r2, r4
 1585 0030 4FF41063 		mov	r3, #2304
 1586 0034 FFF7FEFF 		bl	lib_app_call
 1587              	.LVL199:
 1588 0038 9420     		movs	r0, #148
 1589 003a 2146     		mov	r1, r4
 1590 003c FFF7FEFF 		bl	sys_func1
 1591              	.LVL200:
 1592              	.L114:
 1593              	.LBE9:
 551:src/sysutil.c ****   LongBeep();
 1594              		.loc 1 551 0 is_stmt 1
 1595 0040 FFF7FEFF 		bl	LongBeep
 1596              	.LVL201:
 1597              	.L115:
 552:src/sysutil.c ****   while (GetCharMW() == 0) SleepMW();
 1598              		.loc 1 552 0 discriminator 1
 1599 0044 0022     		movs	r2, #0
 1600 0046 0F20     		movs	r0, #15
 1601 0048 0092     		str	r2, [sp]
 1602 004a 1621     		movs	r1, #22
 1603 004c 1346     		mov	r3, r2
 1604 004e FFF7FEFF 		bl	lib_app_call
ARM GAS  C:\Users\AHMED~1.ELE\AppData\Local\Temp\ccGujCBB.s 			page 40


 1605              	.LVL202:
 1606 0052 20B9     		cbnz	r0, .L112
 1607              		.loc 1 552 0 is_stmt 0 discriminator 2
 1608 0054 4FF4CE70 		mov	r0, #412
 1609 0058 FFF7FEFF 		bl	sys_func0
 1610              	.LVL203:
 1611 005c F2E7     		b	.L115
 1612              	.LVL204:
 1613              	.L112:
 553:src/sysutil.c ****   #endif
 554:src/sysutil.c **** }
 1614              		.loc 1 554 0 is_stmt 1
 1615 005e 02B0     		add	sp, sp, #8
 1616              		.cfi_def_cfa_offset 8
 1617              		@ sp needed
 1618 0060 10BD     		pop	{r4, pc}
 1619              	.L122:
 1620 0062 00BF     		.align	2
 1621              	.L121:
 1622 0064 18000000 		.word	.LC3
 1623              		.cfi_endproc
 1624              	.LFE21:
 1625              		.size	CheckPointerAddr, .-CheckPointerAddr
 1626              		.section	.text.MemFatalErr,"ax",%progbits
 1627              		.align	1
 1628              		.global	MemFatalErr
 1629              		.thumb
 1630              		.thumb_func
 1631              		.type	MemFatalErr, %function
 1632              	MemFatalErr:
 1633              	.LFB22:
 555:src/sysutil.c **** //*****************************************************************************
 556:src/sysutil.c **** //  Function        : MemFatalErr
 557:src/sysutil.c **** //  Description     : Check for valid memory allocated pointer.
 558:src/sysutil.c **** //                    Err: Prompt Error Message & Reset.
 559:src/sysutil.c **** //  Input           : aMemPtr;          // pointer to allocated memory
 560:src/sysutil.c **** //  Return          : N/A
 561:src/sysutil.c **** //  Note            : N/A
 562:src/sysutil.c **** //  Globals Changed : N/A
 563:src/sysutil.c **** //*****************************************************************************
 564:src/sysutil.c **** void MemFatalErr(void *aMemPtr)
 565:src/sysutil.c **** {
 1634              		.loc 1 565 0
 1635              		.cfi_startproc
 1636              		@ args = 0, pretend = 0, frame = 0
 1637              		@ frame_needed = 0, uses_anonymous_args = 0
 1638              	.LVL205:
 1639 0000 37B5     		push	{r0, r1, r2, r4, r5, lr}
 1640              		.cfi_def_cfa_offset 24
 1641              		.cfi_offset 4, -12
 1642              		.cfi_offset 5, -8
 1643              		.cfi_offset 14, -4
 566:src/sysutil.c ****   if (aMemPtr == NULL) {
 1644              		.loc 1 566 0
 1645 0002 0546     		mov	r5, r0
 1646 0004 70BB     		cbnz	r0, .L123
 1647              	.LVL206:
ARM GAS  C:\Users\AHMED~1.ELE\AppData\Local\Temp\ccGujCBB.s 			page 41


 1648              	.LBB10:
 567:src/sysutil.c ****     DispLineMW("Memory Error !", MW_LINE3, MW_CLRDISP|MW_BIGFONT);
 1649              		.loc 1 567 0
 1650 0006 9220     		movs	r0, #146
 1651              	.LVL207:
 1652 0008 0F21     		movs	r1, #15
 1653 000a FFF7FEFF 		bl	sys_func1
 1654              	.LVL208:
 1655 000e 0446     		mov	r4, r0
 1656 0010 90B1     		cbz	r0, .L125
 1657              		.loc 1 567 0 is_stmt 0 discriminator 1
 1658 0012 1549     		ldr	r1, .L132
 1659 0014 0E22     		movs	r2, #14
 1660 0016 FFF7FEFF 		bl	memcpy
 1661              	.LVL209:
 1662 001a 4FF48453 		mov	r3, #4224
 1663 001e A573     		strb	r5, [r4, #14]
 1664 0020 2521     		movs	r1, #37
 1665 0022 0093     		str	r3, [sp]
 1666 0024 0F20     		movs	r0, #15
 1667 0026 2246     		mov	r2, r4
 1668 0028 4FF44073 		mov	r3, #768
 1669 002c FFF7FEFF 		bl	lib_app_call
 1670              	.LVL210:
 1671 0030 9420     		movs	r0, #148
 1672 0032 2146     		mov	r1, r4
 1673 0034 FFF7FEFF 		bl	sys_func1
 1674              	.LVL211:
 1675              	.L125:
 1676              	.LBE10:
 568:src/sysutil.c ****     LongBeep();
 1677              		.loc 1 568 0 is_stmt 1
 1678 0038 FFF7FEFF 		bl	LongBeep
 1679              	.LVL212:
 1680              	.L126:
 569:src/sysutil.c ****     while (GetCharMW() == 0) SleepMW();
 1681              		.loc 1 569 0 discriminator 1
 1682 003c 0022     		movs	r2, #0
 1683 003e 0F20     		movs	r0, #15
 1684 0040 0092     		str	r2, [sp]
 1685 0042 1621     		movs	r1, #22
 1686 0044 1346     		mov	r3, r2
 1687 0046 FFF7FEFF 		bl	lib_app_call
 1688              	.LVL213:
 1689 004a 20B9     		cbnz	r0, .L131
 1690              		.loc 1 569 0 is_stmt 0 discriminator 2
 1691 004c 4FF4CE70 		mov	r0, #412
 1692 0050 FFF7FEFF 		bl	sys_func0
 1693              	.LVL214:
 1694 0054 F2E7     		b	.L126
 1695              	.L131:
 570:src/sysutil.c ****     ResetMW();
 1696              		.loc 1 570 0 is_stmt 1
 1697 0056 4FF4CF70 		mov	r0, #414
 571:src/sysutil.c ****   }
 572:src/sysutil.c **** }
 1698              		.loc 1 572 0
ARM GAS  C:\Users\AHMED~1.ELE\AppData\Local\Temp\ccGujCBB.s 			page 42


 1699 005a 03B0     		add	sp, sp, #12
 1700              		.cfi_remember_state
 1701              		.cfi_def_cfa_offset 12
 1702              		@ sp needed
 1703 005c BDE83040 		pop	{r4, r5, lr}
 1704              		.cfi_restore 14
 1705              		.cfi_restore 5
 1706              		.cfi_restore 4
 1707              		.cfi_def_cfa_offset 0
 1708              	.LVL215:
 570:src/sysutil.c ****     ResetMW();
 1709              		.loc 1 570 0
 1710 0060 FFF7FEBF 		b	sys_func0
 1711              	.LVL216:
 1712              	.L123:
 1713              		.cfi_restore_state
 1714              		.loc 1 572 0
 1715 0064 03B0     		add	sp, sp, #12
 1716              		.cfi_def_cfa_offset 12
 1717              		@ sp needed
 1718 0066 30BD     		pop	{r4, r5, pc}
 1719              	.L133:
 1720              		.align	2
 1721              	.L132:
 1722 0068 2E000000 		.word	.LC4
 1723              		.cfi_endproc
 1724              	.LFE22:
 1725              		.size	MemFatalErr, .-MemFatalErr
 1726              		.section	.text.FreeRunSec,"ax",%progbits
 1727              		.align	1
 1728              		.global	FreeRunSec
 1729              		.thumb
 1730              		.thumb_func
 1731              		.type	FreeRunSec, %function
 1732              	FreeRunSec:
 1733              	.LFB23:
 573:src/sysutil.c **** //*****************************************************************************
 574:src/sysutil.c **** //  Function        : FreeRunSec
 575:src/sysutil.c **** //  Description     : Return Number of seconds since 1 Jan 1970.
 576:src/sysutil.c **** //  Input           : N/A
 577:src/sysutil.c **** //  Return          : N/A
 578:src/sysutil.c **** //  Note            : N/A
 579:src/sysutil.c **** //  Globals Changed : N/A
 580:src/sysutil.c **** //*****************************************************************************
 581:src/sysutil.c **** DWORD FreeRunSec(void)
 582:src/sysutil.c **** {
 1734              		.loc 1 582 0
 1735              		.cfi_startproc
 1736              		@ args = 0, pretend = 0, frame = 16
 1737              		@ frame_needed = 0, uses_anonymous_args = 0
 1738 0000 1FB5     		push	{r0, r1, r2, r3, r4, lr}
 1739              		.cfi_def_cfa_offset 24
 1740              		.cfi_offset 14, -4
 583:src/sysutil.c ****   BYTE rtc[15];
 584:src/sysutil.c **** 
 585:src/sysutil.c ****   RtcGetMW(rtc);
 1741              		.loc 1 585 0
ARM GAS  C:\Users\AHMED~1.ELE\AppData\Local\Temp\ccGujCBB.s 			page 43


 1742 0002 1220     		movs	r0, #18
 1743 0004 6946     		mov	r1, sp
 1744 0006 FFF7FEFF 		bl	sys_func1
 1745              	.LVL217:
 586:src/sysutil.c ****   return RTC2UNIX(rtc);
 1746              		.loc 1 586 0
 1747 000a 6846     		mov	r0, sp
 1748 000c FFF7FEFF 		bl	RTC2UNIX
 1749              	.LVL218:
 587:src/sysutil.c **** }
 1750              		.loc 1 587 0
 1751 0010 05B0     		add	sp, sp, #20
 1752              		.cfi_def_cfa_offset 4
 1753              		@ sp needed
 1754 0012 5DF804FB 		ldr	pc, [sp], #4
 1755              		.cfi_endproc
 1756              	.LFE23:
 1757              		.size	FreeRunSec, .-FreeRunSec
 1758              		.section	.text.ShowTxRxLed,"ax",%progbits
 1759              		.align	1
 1760              		.global	ShowTxRxLed
 1761              		.thumb
 1762              		.thumb_func
 1763              		.type	ShowTxRxLed, %function
 1764              	ShowTxRxLed:
 1765              	.LFB24:
 588:src/sysutil.c **** //*****************************************************************************
 589:src/sysutil.c **** //  Function        : ShowTxRxLed
 590:src/sysutil.c **** //  Description     : Show TX/RX Led indicator.
 591:src/sysutil.c **** //  Input           : N/A
 592:src/sysutil.c **** //  Return          : N/A
 593:src/sysutil.c **** //  Note            : N/A
 594:src/sysutil.c **** //  Globals Changed : N/A
 595:src/sysutil.c **** //*****************************************************************************
 596:src/sysutil.c **** void ShowTxRxLed(void)
 597:src/sysutil.c **** {
 1766              		.loc 1 597 0
 1767              		.cfi_startproc
 1768              		@ args = 0, pretend = 0, frame = 0
 1769              		@ frame_needed = 0, uses_anonymous_args = 0
 1770 0000 07B5     		push	{r0, r1, r2, lr}
 1771              		.cfi_def_cfa_offset 16
 1772              		.cfi_offset 14, -4
 598:src/sysutil.c ****   #define ALL_ICON                  (DWORD)0x00FFFFC0
 599:src/sysutil.c ****   static DWORD ostatus;
 600:src/sysutil.c ****   DWORD status, tmp;
 601:src/sysutil.c ****   int i;
 602:src/sysutil.c **** 
 603:src/sysutil.c ****   if (GetLcdTypeMW()==MW_DISP_COLOR) {
 1773              		.loc 1 603 0
 1774 0002 0022     		movs	r2, #0
 1775 0004 0F20     		movs	r0, #15
 1776 0006 0092     		str	r2, [sp]
 1777 0008 2921     		movs	r1, #41
 1778 000a 1346     		mov	r3, r2
 1779 000c FFF7FEFF 		bl	lib_app_call
 1780              	.LVL219:
ARM GAS  C:\Users\AHMED~1.ELE\AppData\Local\Temp\ccGujCBB.s 			page 44


 1781 0010 0128     		cmp	r0, #1
 1782 0012 11D0     		beq	.L135
 604:src/sysutil.c ****     return;
 605:src/sysutil.c ****   }
 606:src/sysutil.c **** 
 607:src/sysutil.c ****   // Show UDP, TCP, USBS, AUX2, AUX1, MDM
 608:src/sysutil.c ****   #ifdef os_pseudo_led_status
 609:src/sysutil.c ****   status = os_pseudo_led_status((DWORD)-1);
 610:src/sysutil.c ****   #elif defined os_led_status
 611:src/sysutil.c ****   status = os_led_status((DWORD)-1);
 1783              		.loc 1 611 0
 1784 0014 4FF0FF31 		mov	r1, #-1
 1785 0018 8720     		movs	r0, #135
 1786 001a FFF7FEFF 		bl	sys_func1
 1787              	.LVL220:
 612:src/sysutil.c ****   #else
 613:src/sysutil.c ****   status = 0;
 614:src/sysutil.c ****   #endif
 615:src/sysutil.c **** 
 616:src/sysutil.c ****   #if (TIRO|PR608)
 617:src/sysutil.c ****   tmp   =  (status & 0x3F);
 618:src/sysutil.c ****   tmp   |= ((status&0x00C00)>>4);
 619:src/sysutil.c ****   tmp   |= ((status&0x3C000)>>6);
 620:src/sysutil.c ****   #else
 621:src/sysutil.c ****   tmp    = ((status >> 20) & 0x03);                 // mdm
 622:src/sysutil.c ****   tmp   |= ((status & 0x0F) << 2);                  // aux2 & aux1
 623:src/sysutil.c ****   tmp   |= ((status & 0x30000)>>10);                // USBS
 624:src/sysutil.c ****   tmp   |= (status & 0x550) ? 0x100 : 0x000;        // TCP TX
 625:src/sysutil.c ****   tmp   |= (status & 0x660) ? 0x200 : 0x000;        // TCP RX
 626:src/sysutil.c ****   tmp   |= (status & 0x5000) ? 0x400 : 0x000;       // UDP TX
 627:src/sysutil.c ****   tmp   |= (status & 0x6000) ? 0x800 : 0x000;       // UDP RX
 628:src/sysutil.c ****   #endif
 629:src/sysutil.c **** 
 630:src/sysutil.c ****   status = 0;
 631:src/sysutil.c ****   for (i = 0; i < 6; i++) {
 632:src/sysutil.c ****     status <<= 3;
 633:src/sysutil.c ****     if (tmp & 0x01)
 634:src/sysutil.c ****       status |= 0x05;
 635:src/sysutil.c ****     if (tmp & 0x02)
 636:src/sysutil.c ****       status |= 0x02;
 637:src/sysutil.c ****     tmp >>= 2;
 638:src/sysutil.c ****   }
 639:src/sysutil.c ****   status <<= 6;
 640:src/sysutil.c ****   //ignore gprs signal and battery
 641:src/sysutil.c ****   ostatus &= ALL_ICON;
 1788              		.loc 1 641 0
 1789 001e 084A     		ldr	r2, .L137
 642:src/sysutil.c ****   status &= ALL_ICON;
 643:src/sysutil.c **** 
 644:src/sysutil.c ****   #ifdef os_disp_icon_set
 645:src/sysutil.c ****   if (status != ostatus) {
 646:src/sysutil.c ****     #if (T800)
 647:src/sysutil.c ****     os_disp_icon_clear(((ostatus>>6)&0x3FFFF), 0);
 648:src/sysutil.c ****     #else
 649:src/sysutil.c ****     os_disp_icon_clear(ostatus);
 650:src/sysutil.c ****     #endif
 651:src/sysutil.c **** 
ARM GAS  C:\Users\AHMED~1.ELE\AppData\Local\Temp\ccGujCBB.s 			page 45


 652:src/sysutil.c ****     ostatus = status;
 653:src/sysutil.c ****     #if (T800)
 654:src/sysutil.c ****     os_disp_icon_set(((status>>6)&0x3FFFF), 0);
 655:src/sysutil.c ****     #else
 656:src/sysutil.c ****     os_disp_icon_set(status);
 657:src/sysutil.c ****     #endif
 658:src/sysutil.c ****   }
 659:src/sysutil.c ****   #endif
 660:src/sysutil.c **** 
 661:src/sysutil.c ****   os_thread_return();
 1790              		.loc 1 661 0
 1791 0020 8020     		movs	r0, #128
 641:src/sysutil.c ****   status &= ALL_ICON;
 1792              		.loc 1 641 0
 1793 0022 1368     		ldr	r3, [r2]
 1794 0024 23F07F43 		bic	r3, r3, #-16777216
 1795 0028 23F03F03 		bic	r3, r3, #63
 1796 002c 1360     		str	r3, [r2]
 662:src/sysutil.c **** }
 1797              		.loc 1 662 0
 1798 002e 03B0     		add	sp, sp, #12
 1799              		.cfi_remember_state
 1800              		.cfi_def_cfa_offset 4
 1801              		@ sp needed
 1802 0030 5DF804EB 		ldr	lr, [sp], #4
 1803              		.cfi_restore 14
 1804              		.cfi_def_cfa_offset 0
 661:src/sysutil.c **** }
 1805              		.loc 1 661 0
 1806 0034 FFF7FEBF 		b	sys_func0
 1807              	.LVL221:
 1808              	.L135:
 1809              		.cfi_restore_state
 1810              		.loc 1 662 0
 1811 0038 03B0     		add	sp, sp, #12
 1812              		.cfi_def_cfa_offset 4
 1813              		@ sp needed
 1814 003a 5DF804FB 		ldr	pc, [sp], #4
 1815              	.L138:
 1816 003e 00BF     		.align	2
 1817              	.L137:
 1818 0040 00000000 		.word	.LANCHOR1
 1819              		.cfi_endproc
 1820              	.LFE24:
 1821              		.size	ShowTxRxLed, .-ShowTxRxLed
 1822              		.section	.text.DebugPoint,"ax",%progbits
 1823              		.align	1
 1824              		.global	DebugPoint
 1825              		.thumb
 1826              		.thumb_func
 1827              		.type	DebugPoint, %function
 1828              	DebugPoint:
 1829              	.LFB25:
 663:src/sysutil.c **** //*****************************************************************************
 664:src/sysutil.c **** //  Function        : DebugPoint
 665:src/sysutil.c **** //  Description     : Display Msg on line 9 and wait for key press.
 666:src/sysutil.c **** //  Input           : aStr;         // pointer to message string.
ARM GAS  C:\Users\AHMED~1.ELE\AppData\Local\Temp\ccGujCBB.s 			page 46


 667:src/sysutil.c **** //  Return          : N/A
 668:src/sysutil.c **** //  Note            : N/A
 669:src/sysutil.c **** //  Globals Changed : N/A
 670:src/sysutil.c **** //*****************************************************************************
 671:src/sysutil.c **** void DebugPoint(char *aStr)
 672:src/sysutil.c **** {
 1830              		.loc 1 672 0
 1831              		.cfi_startproc
 1832              		@ args = 0, pretend = 0, frame = 0
 1833              		@ frame_needed = 0, uses_anonymous_args = 0
 1834              	.LVL222:
 1835 0000 73B5     		push	{r0, r1, r4, r5, r6, lr}
 1836              		.cfi_def_cfa_offset 24
 1837              		.cfi_offset 4, -16
 1838              		.cfi_offset 5, -12
 1839              		.cfi_offset 6, -8
 1840              		.cfi_offset 14, -4
 1841              		.loc 1 672 0
 1842 0002 0646     		mov	r6, r0
 1843              	.LBB11:
 673:src/sysutil.c ****   #if (DEBUG_POINT)
 674:src/sysutil.c ****   DispLineMW(aStr, MW_MAX_LINE, MW_REVERSE|MW_CLREOL|MW_SPFONT);
 1844              		.loc 1 674 0
 1845 0004 FFF7FEFF 		bl	strlen
 1846              	.LVL223:
 1847 0008 0546     		mov	r5, r0
 1848              	.LVL224:
 1849 000a 691C     		adds	r1, r5, #1
 1850 000c 9220     		movs	r0, #146
 1851              	.LVL225:
 1852 000e FFF7FEFF 		bl	sys_func1
 1853              	.LVL226:
 1854 0012 0446     		mov	r4, r0
 1855 0014 98B1     		cbz	r0, .L141
 1856              		.loc 1 674 0 is_stmt 0 discriminator 1
 1857 0016 3146     		mov	r1, r6
 1858 0018 2A46     		mov	r2, r5
 1859 001a FFF7FEFF 		bl	memcpy
 1860              	.LVL227:
 1861 001e 0023     		movs	r3, #0
 1862 0020 2521     		movs	r1, #37
 1863 0022 6355     		strb	r3, [r4, r5]
 1864 0024 42F23003 		movw	r3, #8240
 1865 0028 0F20     		movs	r0, #15
 1866 002a 0093     		str	r3, [sp]
 1867 002c 2246     		mov	r2, r4
 1868 002e 4FF41063 		mov	r3, #2304
 1869 0032 FFF7FEFF 		bl	lib_app_call
 1870              	.LVL228:
 1871 0036 9420     		movs	r0, #148
 1872 0038 2146     		mov	r1, r4
 1873 003a FFF7FEFF 		bl	sys_func1
 1874              	.LVL229:
 1875              	.L141:
 1876              	.LBE11:
 675:src/sysutil.c ****   while (GetCharMW() == 0) SleepMW();
 1877              		.loc 1 675 0 is_stmt 1 discriminator 1
ARM GAS  C:\Users\AHMED~1.ELE\AppData\Local\Temp\ccGujCBB.s 			page 47


 1878 003e 0022     		movs	r2, #0
 1879 0040 0F20     		movs	r0, #15
 1880 0042 0092     		str	r2, [sp]
 1881 0044 1621     		movs	r1, #22
 1882 0046 1346     		mov	r3, r2
 1883 0048 FFF7FEFF 		bl	lib_app_call
 1884              	.LVL230:
 1885 004c 20B9     		cbnz	r0, .L146
 1886              		.loc 1 675 0 is_stmt 0 discriminator 2
 1887 004e 4FF4CE70 		mov	r0, #412
 1888 0052 FFF7FEFF 		bl	sys_func0
 1889              	.LVL231:
 1890 0056 F2E7     		b	.L141
 1891              	.L146:
 676:src/sysutil.c ****   #endif // DEBUG_POINT
 677:src/sysutil.c **** }
 1892              		.loc 1 677 0 is_stmt 1
 1893 0058 02B0     		add	sp, sp, #8
 1894              		.cfi_def_cfa_offset 16
 1895              		@ sp needed
 1896 005a 70BD     		pop	{r4, r5, r6, pc}
 1897              		.cfi_endproc
 1898              	.LFE25:
 1899              		.size	DebugPoint, .-DebugPoint
 1900              		.section	.text.ReadSFile,"ax",%progbits
 1901              		.align	1
 1902              		.global	ReadSFile
 1903              		.thumb
 1904              		.thumb_func
 1905              		.type	ReadSFile, %function
 1906              	ReadSFile:
 1907              	.LFB26:
 678:src/sysutil.c **** //*****************************************************************************
 679:src/sysutil.c **** //  Function        : ReadSFile
 680:src/sysutil.c **** //  Description     : Read from structure data file.
 681:src/sysutil.c **** //  Input           : aFileHandle;      // file handle
 682:src/sysutil.c **** //                    aOffset;          // file offset from beginning
 683:src/sysutil.c **** //                    aBuf;             // data buffer
 684:src/sysutil.c **** //                    aLen;             // len to read.
 685:src/sysutil.c **** //  Return          : TRUE/FALSE;
 686:src/sysutil.c **** //  Note            : N/A
 687:src/sysutil.c **** //  Globals Changed : N/A
 688:src/sysutil.c **** //*****************************************************************************
 689:src/sysutil.c **** BOOLEAN ReadSFile(DWORD aFileHandle, DWORD aOffset, void *aBuf, DWORD aLen)
 690:src/sysutil.c **** {
 1908              		.loc 1 690 0
 1909              		.cfi_startproc
 1910              		@ args = 0, pretend = 0, frame = 0
 1911              		@ frame_needed = 0, uses_anonymous_args = 0
 1912              	.LVL232:
 1913 0000 F7B5     		push	{r0, r1, r2, r4, r5, r6, r7, lr}
 1914              		.cfi_def_cfa_offset 32
 1915              		.cfi_offset 4, -20
 1916              		.cfi_offset 5, -16
 1917              		.cfi_offset 6, -12
 1918              		.cfi_offset 7, -8
 1919              		.cfi_offset 14, -4
ARM GAS  C:\Users\AHMED~1.ELE\AppData\Local\Temp\ccGujCBB.s 			page 48


 1920              		.loc 1 690 0
 1921 0002 1C46     		mov	r4, r3
 691:src/sysutil.c ****   DWORD len;
 692:src/sysutil.c **** 
 693:src/sysutil.c ****   fSeekMW(aFileHandle, aOffset);
 1922              		.loc 1 693 0
 1923 0004 0023     		movs	r3, #0
 1924              	.LVL233:
 690:src/sysutil.c ****   DWORD len;
 1925              		.loc 1 690 0
 1926 0006 0546     		mov	r5, r0
 1927 0008 0F46     		mov	r7, r1
 1928 000a 1646     		mov	r6, r2
 1929              		.loc 1 693 0
 1930 000c 0093     		str	r3, [sp]
 1931 000e 2A46     		mov	r2, r5
 1932              	.LVL234:
 1933 0010 3B46     		mov	r3, r7
 1934 0012 1021     		movs	r1, #16
 1935              	.LVL235:
 1936 0014 0F20     		movs	r0, #15
 1937              	.LVL236:
 1938 0016 FFF7FEFF 		bl	lib_app_call
 1939              	.LVL237:
 694:src/sysutil.c ****   len = fReadMW(aFileHandle, aBuf, aLen);
 1940              		.loc 1 694 0
 1941 001a 3346     		mov	r3, r6
 1942 001c 0094     		str	r4, [sp]
 1943 001e 1121     		movs	r1, #17
 1944 0020 2A46     		mov	r2, r5
 1945 0022 0F20     		movs	r0, #15
 1946 0024 FFF7FEFF 		bl	lib_app_call
 1947              	.LVL238:
 695:src/sysutil.c ****   return (len == aLen) ? TRUE : FALSE;
 696:src/sysutil.c **** }
 1948              		.loc 1 696 0
 1949 0028 031B     		subs	r3, r0, r4
 1950 002a 5842     		rsbs	r0, r3, #0
 1951              	.LVL239:
 1952 002c 5841     		adcs	r0, r0, r3
 1953 002e 03B0     		add	sp, sp, #12
 1954              		.cfi_def_cfa_offset 20
 1955              		@ sp needed
 1956 0030 F0BD     		pop	{r4, r5, r6, r7, pc}
 1957              		.cfi_endproc
 1958              	.LFE26:
 1959              		.size	ReadSFile, .-ReadSFile
 1960              		.section	.text.WriteSFile,"ax",%progbits
 1961              		.align	1
 1962              		.global	WriteSFile
 1963              		.thumb
 1964              		.thumb_func
 1965              		.type	WriteSFile, %function
 1966              	WriteSFile:
 1967              	.LFB27:
 697:src/sysutil.c **** //*****************************************************************************
 698:src/sysutil.c **** //  Function        : WriteSFile
ARM GAS  C:\Users\AHMED~1.ELE\AppData\Local\Temp\ccGujCBB.s 			page 49


 699:src/sysutil.c **** //  Description     : Write to structure data file.
 700:src/sysutil.c **** //  Input           : aFileHandle;      // file handle
 701:src/sysutil.c **** //                    aOffset;          // file offset from beginning
 702:src/sysutil.c **** //                    aBuf;             // data buffer
 703:src/sysutil.c **** //                    aLen;             // len to read.
 704:src/sysutil.c **** //  Return          : TRUE/FALSE;
 705:src/sysutil.c **** //  Note            : N/A
 706:src/sysutil.c **** //  Globals Changed : N/A
 707:src/sysutil.c **** //*****************************************************************************
 708:src/sysutil.c **** BOOLEAN WriteSFile(DWORD aFileHandle, DWORD aOffset, const void *aBuf, DWORD aLen)
 709:src/sysutil.c **** {
 1968              		.loc 1 709 0
 1969              		.cfi_startproc
 1970              		@ args = 0, pretend = 0, frame = 0
 1971              		@ frame_needed = 0, uses_anonymous_args = 0
 1972              	.LVL240:
 1973 0000 F7B5     		push	{r0, r1, r2, r4, r5, r6, r7, lr}
 1974              		.cfi_def_cfa_offset 32
 1975              		.cfi_offset 4, -20
 1976              		.cfi_offset 5, -16
 1977              		.cfi_offset 6, -12
 1978              		.cfi_offset 7, -8
 1979              		.cfi_offset 14, -4
 710:src/sysutil.c ****   DWORD len;
 711:src/sysutil.c **** 
 712:src/sysutil.c ****   fSeekMW(aFileHandle, aOffset);
 1980              		.loc 1 712 0
 1981 0002 0027     		movs	r7, #0
 709:src/sysutil.c ****   DWORD len;
 1982              		.loc 1 709 0
 1983 0004 8E46     		mov	lr, r1
 1984 0006 0546     		mov	r5, r0
 1985 0008 1C46     		mov	r4, r3
 1986 000a 1646     		mov	r6, r2
 1987              		.loc 1 712 0
 1988 000c 7346     		mov	r3, lr
 1989              	.LVL241:
 1990 000e 1021     		movs	r1, #16
 1991              	.LVL242:
 1992 0010 2A46     		mov	r2, r5
 1993              	.LVL243:
 1994 0012 0097     		str	r7, [sp]
 1995 0014 0F20     		movs	r0, #15
 1996              	.LVL244:
 1997 0016 FFF7FEFF 		bl	lib_app_call
 1998              	.LVL245:
 713:src/sysutil.c ****   len = fWriteMW(aFileHandle, aBuf, aLen);
 1999              		.loc 1 713 0
 2000 001a 3346     		mov	r3, r6
 2001 001c 0094     		str	r4, [sp]
 2002 001e 0F20     		movs	r0, #15
 2003 0020 1221     		movs	r1, #18
 2004 0022 2A46     		mov	r2, r5
 2005 0024 FFF7FEFF 		bl	lib_app_call
 2006              	.LVL246:
 714:src/sysutil.c ****   if (len != aLen) {
 2007              		.loc 1 714 0
ARM GAS  C:\Users\AHMED~1.ELE\AppData\Local\Temp\ccGujCBB.s 			page 50


 2008 0028 A042     		cmp	r0, r4
 713:src/sysutil.c ****   len = fWriteMW(aFileHandle, aBuf, aLen);
 2009              		.loc 1 713 0
 2010 002a 0646     		mov	r6, r0
 2011              	.LVL247:
 2012              		.loc 1 714 0
 2013 002c 1AD0     		beq	.L149
 2014              	.LVL248:
 2015              	.LBB12:
 715:src/sysutil.c ****     DispLineMW("File WR Err!", MW_LINE3, MW_CLRDISP|MW_BIGFONT);
 2016              		.loc 1 715 0
 2017 002e 9220     		movs	r0, #146
 2018              	.LVL249:
 2019 0030 0D21     		movs	r1, #13
 2020 0032 FFF7FEFF 		bl	sys_func1
 2021              	.LVL250:
 2022 0036 0546     		mov	r5, r0
 2023              	.LVL251:
 2024 0038 90B1     		cbz	r0, .L150
 2025              		.loc 1 715 0 is_stmt 0 discriminator 1
 2026 003a 0D49     		ldr	r1, .L154
 2027 003c 0C22     		movs	r2, #12
 2028 003e FFF7FEFF 		bl	memcpy
 2029              	.LVL252:
 2030 0042 4FF48453 		mov	r3, #4224
 2031 0046 2F73     		strb	r7, [r5, #12]
 2032 0048 2521     		movs	r1, #37
 2033 004a 0093     		str	r3, [sp]
 2034 004c 0F20     		movs	r0, #15
 2035 004e 2A46     		mov	r2, r5
 2036 0050 4FF44073 		mov	r3, #768
 2037 0054 FFF7FEFF 		bl	lib_app_call
 2038              	.LVL253:
 2039 0058 9420     		movs	r0, #148
 2040 005a 2946     		mov	r1, r5
 2041 005c FFF7FEFF 		bl	sys_func1
 2042              	.LVL254:
 2043              	.L150:
 2044              	.LBE12:
 716:src/sysutil.c ****     ErrorDelay();
 2045              		.loc 1 716 0 is_stmt 1
 2046 0060 FFF7FEFF 		bl	ErrorDelay
 2047              	.LVL255:
 2048              	.L149:
 717:src/sysutil.c ****   }
 718:src/sysutil.c ****   return (len == aLen) ? TRUE : FALSE;
 719:src/sysutil.c **** }
 2049              		.loc 1 719 0
 2050 0064 331B     		subs	r3, r6, r4
 2051 0066 5842     		rsbs	r0, r3, #0
 2052 0068 5841     		adcs	r0, r0, r3
 2053 006a 03B0     		add	sp, sp, #12
 2054              		.cfi_def_cfa_offset 20
 2055              		@ sp needed
 2056 006c F0BD     		pop	{r4, r5, r6, r7, pc}
 2057              	.LVL256:
 2058              	.L155:
ARM GAS  C:\Users\AHMED~1.ELE\AppData\Local\Temp\ccGujCBB.s 			page 51


 2059 006e 00BF     		.align	2
 2060              	.L154:
 2061 0070 3D000000 		.word	.LC5
 2062              		.cfi_endproc
 2063              	.LFE27:
 2064              		.size	WriteSFile, .-WriteSFile
 2065              		.section	.text.WGet,"ax",%progbits
 2066              		.align	1
 2067              		.global	WGet
 2068              		.thumb
 2069              		.thumb_func
 2070              		.type	WGet, %function
 2071              	WGet:
 2072              	.LFB28:
 720:src/sysutil.c **** //*****************************************************************************
 721:src/sysutil.c **** //  Function        : WGet
 722:src/sysutil.c **** //  Description     : Retrieve WORD from input buffer.
 723:src/sysutil.c **** //  Input           : aBuf;     // Data buffer
 724:src/sysutil.c **** //  Return          : N/A
 725:src/sysutil.c **** //  Note            : N/A
 726:src/sysutil.c **** //  Globals Changed : N/A
 727:src/sysutil.c **** //*****************************************************************************
 728:src/sysutil.c **** WORD WGet(void *aBuf)
 729:src/sysutil.c **** {
 2073              		.loc 1 729 0
 2074              		.cfi_startproc
 2075              		@ args = 0, pretend = 0, frame = 0
 2076              		@ frame_needed = 0, uses_anonymous_args = 0
 2077              		@ link register save eliminated.
 2078              	.LVL257:
 730:src/sysutil.c ****   return *(BYTE *)aBuf * 256 + *((BYTE *)aBuf + 1);
 2079              		.loc 1 730 0
 2080 0000 0278     		ldrb	r2, [r0]	@ zero_extendqisi2
 2081 0002 4378     		ldrb	r3, [r0, #1]	@ zero_extendqisi2
 2082 0004 03EB0220 		add	r0, r3, r2, lsl #8
 2083              	.LVL258:
 731:src/sysutil.c **** }
 2084              		.loc 1 731 0
 2085 0008 80B2     		uxth	r0, r0
 2086 000a 7047     		bx	lr
 2087              		.cfi_endproc
 2088              	.LFE28:
 2089              		.size	WGet, .-WGet
 2090              		.section	.text.DWGet,"ax",%progbits
 2091              		.align	1
 2092              		.global	DWGet
 2093              		.thumb
 2094              		.thumb_func
 2095              		.type	DWGet, %function
 2096              	DWGet:
 2097              	.LFB29:
 732:src/sysutil.c **** //*****************************************************************************
 733:src/sysutil.c **** //  Function        : DWGet
 734:src/sysutil.c **** //  Description     : Retrieve DWORD from input buffer.
 735:src/sysutil.c **** //  Input           : aBuf;     // Data buffer
 736:src/sysutil.c **** //  Return          : N/A
 737:src/sysutil.c **** //  Note            : N/A
ARM GAS  C:\Users\AHMED~1.ELE\AppData\Local\Temp\ccGujCBB.s 			page 52


 738:src/sysutil.c **** //  Globals Changed : N/A
 739:src/sysutil.c **** //*****************************************************************************
 740:src/sysutil.c **** DWORD DWGet(void *aBuf)
 741:src/sysutil.c **** {
 2098              		.loc 1 741 0
 2099              		.cfi_startproc
 2100              		@ args = 0, pretend = 0, frame = 0
 2101              		@ frame_needed = 0, uses_anonymous_args = 0
 2102              		@ link register save eliminated.
 2103              	.LVL259:
 2104 0000 421E     		subs	r2, r0, #1
 2105 0002 C31C     		adds	r3, r0, #3
 742:src/sysutil.c ****   DWORD ret;
 743:src/sysutil.c ****   BYTE i;
 744:src/sysutil.c **** 
 745:src/sysutil.c ****   ret = 0;
 2106              		.loc 1 745 0
 2107 0004 0020     		movs	r0, #0
 2108              	.LVL260:
 2109              	.L158:
 746:src/sysutil.c ****   for (i=0; i<4; i++) {
 747:src/sysutil.c ****     ret <<= 8;
 748:src/sysutil.c ****     ret |= *((BYTE *)aBuf+i);
 2110              		.loc 1 748 0 discriminator 3
 2111 0006 12F8011F 		ldrb	r1, [r2, #1]!	@ zero_extendqisi2
 2112              	.LVL261:
 746:src/sysutil.c ****   for (i=0; i<4; i++) {
 2113              		.loc 1 746 0 discriminator 3
 2114 000a 9A42     		cmp	r2, r3
 2115              		.loc 1 748 0 discriminator 3
 2116 000c 41EA0020 		orr	r0, r1, r0, lsl #8
 2117              	.LVL262:
 746:src/sysutil.c ****   for (i=0; i<4; i++) {
 2118              		.loc 1 746 0 discriminator 3
 2119 0010 F9D1     		bne	.L158
 749:src/sysutil.c ****   }
 750:src/sysutil.c ****   return ret;
 751:src/sysutil.c **** }
 2120              		.loc 1 751 0
 2121 0012 7047     		bx	lr
 2122              		.cfi_endproc
 2123              	.LFE29:
 2124              		.size	DWGet, .-DWGet
 2125              		.section	.text.WaitLanNetRdy,"ax",%progbits
 2126              		.align	1
 2127              		.global	WaitLanNetRdy
 2128              		.thumb
 2129              		.thumb_func
 2130              		.type	WaitLanNetRdy, %function
 2131              	WaitLanNetRdy:
 2132              	.LFB30:
 752:src/sysutil.c **** //*****************************************************************************
 753:src/sysutil.c **** //  Function        : WaitLanNetRdy
 754:src/sysutil.c **** //  Description     : Wait LAN Network Ready;
 755:src/sysutil.c **** //  Input           : N/A
 756:src/sysutil.c **** //  Return          : N/A
 757:src/sysutil.c **** //  Note            : N/A
ARM GAS  C:\Users\AHMED~1.ELE\AppData\Local\Temp\ccGujCBB.s 			page 53


 758:src/sysutil.c **** //  Globals Changed : N/A
 759:src/sysutil.c **** //*****************************************************************************
 760:src/sysutil.c **** BOOLEAN WaitLanNetRdy(DWORD aTimeout, BOOLEAN aNoCancel)
 761:src/sysutil.c **** {
 2133              		.loc 1 761 0
 2134              		.cfi_startproc
 2135              		@ args = 0, pretend = 0, frame = 24
 2136              		@ frame_needed = 0, uses_anonymous_args = 0
 2137              	.LVL263:
 2138 0000 F0B5     		push	{r4, r5, r6, r7, lr}
 2139              		.cfi_def_cfa_offset 20
 2140              		.cfi_offset 4, -20
 2141              		.cfi_offset 5, -16
 2142              		.cfi_offset 6, -12
 2143              		.cfi_offset 7, -8
 2144              		.cfi_offset 14, -4
 762:src/sysutil.c ****   BYTE dhcp;
 763:src/sysutil.c ****   struct MW_NIF_INFO netinfo;
 764:src/sysutil.c **** 
 765:src/sysutil.c ****   // wait until LAN cable is plugged & DHCP ready
 766:src/sysutil.c ****   GetSysCfgMW(MW_SYSCFG_DHCP_ENABLE, &dhcp);
 767:src/sysutil.c ****   TimerSetMW(gTimerHdl[TIMER_COMM], aTimeout);
 2145              		.loc 1 767 0
 2146 0002 394C     		ldr	r4, .L181
 761:src/sysutil.c ****   BYTE dhcp;
 2147              		.loc 1 761 0
 2148 0004 89B0     		sub	sp, sp, #36
 2149              		.cfi_def_cfa_offset 56
 761:src/sysutil.c ****   BYTE dhcp;
 2150              		.loc 1 761 0
 2151 0006 0546     		mov	r5, r0
 766:src/sysutil.c ****   TimerSetMW(gTimerHdl[TIMER_COMM], aTimeout);
 2152              		.loc 1 766 0
 2153 0008 0DF10B02 		add	r2, sp, #11
 761:src/sysutil.c ****   BYTE dhcp;
 2154              		.loc 1 761 0
 2155 000c 0F46     		mov	r7, r1
 766:src/sysutil.c ****   TimerSetMW(gTimerHdl[TIMER_COMM], aTimeout);
 2156              		.loc 1 766 0
 2157 000e B920     		movs	r0, #185
 2158              	.LVL264:
 2159 0010 1221     		movs	r1, #18
 2160              	.LVL265:
 2161 0012 FFF7FEFF 		bl	sys_func2
 2162              	.LVL266:
 2163              		.loc 1 767 0
 2164 0016 0C20     		movs	r0, #12
 2165 0018 A168     		ldr	r1, [r4, #8]
 2166 001a 2A46     		mov	r2, r5
 2167 001c FFF7FEFF 		bl	sys_func2
 2168              	.LVL267:
 2169              	.L168:
 768:src/sysutil.c ****   do {
 769:src/sysutil.c ****     SleepMW();
 2170              		.loc 1 769 0
 2171 0020 4FF4CE70 		mov	r0, #412
 2172 0024 FFF7FEFF 		bl	sys_func0
ARM GAS  C:\Users\AHMED~1.ELE\AppData\Local\Temp\ccGujCBB.s 			page 54


 2173              	.LVL268:
 770:src/sysutil.c ****     if (GetCharMW()==MWKEY_CANCL) {
 2174              		.loc 1 770 0
 2175 0028 0022     		movs	r2, #0
 2176 002a 0F20     		movs	r0, #15
 2177 002c 0092     		str	r2, [sp]
 2178 002e 1621     		movs	r1, #22
 2179 0030 1346     		mov	r3, r2
 2180 0032 FFF7FEFF 		bl	lib_app_call
 2181              	.LVL269:
 2182 0036 1128     		cmp	r0, #17
 2183 0038 03D1     		bne	.L161
 771:src/sysutil.c ****       if (!aNoCancel)
 2184              		.loc 1 771 0
 2185 003a 002F     		cmp	r7, #0
 2186 003c 4AD0     		beq	.L163
 772:src/sysutil.c ****         break;
 773:src/sysutil.c ****       LongBeep();
 2187              		.loc 1 773 0
 2188 003e FFF7FEFF 		bl	LongBeep
 2189              	.LVL270:
 2190              	.L161:
 774:src/sysutil.c ****     }
 775:src/sysutil.c ****     if (!LanCableInsertedMW()) {
 2191              		.loc 1 775 0
 2192 0042 4220     		movs	r0, #66
 2193 0044 0021     		movs	r1, #0
 2194 0046 FFF7FEFF 		bl	base_func1
 2195              	.LVL271:
 2196 004a 10F00106 		ands	r6, r0, #1
 2197 004e 0BD1     		bne	.L164
 2198              	.LVL272:
 2199              	.LBB13:
 776:src/sysutil.c ****       DispLineMW("Check Lan Cable!\x05", MW_LINE7, MW_CENTER|MW_SPFONT);
 2200              		.loc 1 776 0
 2201 0050 9220     		movs	r0, #146
 2202 0052 1221     		movs	r1, #18
 2203 0054 FFF7FEFF 		bl	sys_func1
 2204              	.LVL273:
 2205 0058 0546     		mov	r5, r0
 2206 005a A8B3     		cbz	r0, .L166
 2207              		.loc 1 776 0 is_stmt 0 discriminator 1
 2208 005c 2349     		ldr	r1, .L181+4
 2209 005e 1122     		movs	r2, #17
 2210 0060 FFF7FEFF 		bl	memcpy
 2211              	.LVL274:
 2212 0064 6E74     		strb	r6, [r5, #17]
 2213 0066 14E0     		b	.L180
 2214              	.LVL275:
 2215              	.L164:
 2216              	.LBE13:
 777:src/sysutil.c ****     }
 778:src/sysutil.c ****     else {
 779:src/sysutil.c ****       if (dhcp) {
 2217              		.loc 1 779 0 is_stmt 1
 2218 0068 9DF80B30 		ldrb	r3, [sp, #11]	@ zero_extendqisi2
 2219 006c 03B3     		cbz	r3, .L167
ARM GAS  C:\Users\AHMED~1.ELE\AppData\Local\Temp\ccGujCBB.s 			page 55


 780:src/sysutil.c ****         NetInfoMW(MW_NIF_ETHERNET, &netinfo);
 2220              		.loc 1 780 0
 2221 006e 1320     		movs	r0, #19
 2222 0070 0021     		movs	r1, #0
 2223 0072 03AA     		add	r2, sp, #12
 2224 0074 FFF7FEFF 		bl	base_func2
 2225              	.LVL276:
 781:src/sysutil.c ****         if (netinfo.d_ip == 0) {
 2226              		.loc 1 781 0
 2227 0078 039E     		ldr	r6, [sp, #12]
 2228 007a CEB9     		cbnz	r6, .L167
 2229              	.LVL277:
 2230              	.LBB14:
 782:src/sysutil.c ****           DispLineMW("Waiting LAN DHCP..\x05", MW_LINE7, MW_CENTER|MW_SPFONT);
 2231              		.loc 1 782 0
 2232 007c 9220     		movs	r0, #146
 2233 007e 1421     		movs	r1, #20
 2234 0080 FFF7FEFF 		bl	sys_func1
 2235              	.LVL278:
 2236 0084 0546     		mov	r5, r0
 2237 0086 F8B1     		cbz	r0, .L166
 2238              		.loc 1 782 0 is_stmt 0 discriminator 1
 2239 0088 1949     		ldr	r1, .L181+8
 2240 008a 1322     		movs	r2, #19
 2241 008c FFF7FEFF 		bl	memcpy
 2242              	.LVL279:
 2243 0090 EE74     		strb	r6, [r5, #19]
 2244              	.LVL280:
 2245              	.L180:
 2246 0092 42F20203 		movw	r3, #8194
 2247 0096 2521     		movs	r1, #37
 2248 0098 0093     		str	r3, [sp]
 2249 009a 2A46     		mov	r2, r5
 2250 009c 4FF4E063 		mov	r3, #1792
 2251 00a0 0F20     		movs	r0, #15
 2252 00a2 FFF7FEFF 		bl	lib_app_call
 2253              	.LVL281:
 2254 00a6 2946     		mov	r1, r5
 2255 00a8 9420     		movs	r0, #148
 2256 00aa FFF7FEFF 		bl	sys_func1
 2257              	.LVL282:
 2258 00ae 0BE0     		b	.L166
 2259              	.L167:
 2260              	.LBE14:
 783:src/sysutil.c ****           continue;
 784:src/sysutil.c ****         }
 785:src/sysutil.c ****       }
 786:src/sysutil.c ****       DispClrBelowMW(MW_LINE7);
 2261              		.loc 1 786 0 is_stmt 1
 2262 00b0 0023     		movs	r3, #0
 2263 00b2 2321     		movs	r1, #35
 2264 00b4 0093     		str	r3, [sp]
 2265 00b6 4FF4E062 		mov	r2, #1792
 2266 00ba 0F20     		movs	r0, #15
 2267 00bc FFF7FEFF 		bl	lib_app_call
 2268              	.LVL283:
 787:src/sysutil.c ****       Delay10ms(50);
ARM GAS  C:\Users\AHMED~1.ELE\AppData\Local\Temp\ccGujCBB.s 			page 56


 2269              		.loc 1 787 0
 2270 00c0 3220     		movs	r0, #50
 2271 00c2 FFF7FEFF 		bl	Delay10ms
 2272              	.LVL284:
 788:src/sysutil.c ****       break;
 2273              		.loc 1 788 0
 2274 00c6 05E0     		b	.L163
 2275              	.L166:
 789:src/sysutil.c ****     }
 790:src/sysutil.c ****   } while (TimerGetMW(gTimerHdl[TIMER_COMM]) > 0);
 2276              		.loc 1 790 0
 2277 00c8 0D20     		movs	r0, #13
 2278 00ca A168     		ldr	r1, [r4, #8]
 2279 00cc FFF7FEFF 		bl	sys_func1
 2280              	.LVL285:
 2281 00d0 0028     		cmp	r0, #0
 2282 00d2 A5D1     		bne	.L168
 2283              	.L163:
 791:src/sysutil.c **** 
 792:src/sysutil.c ****   if (TimerGetMW(gTimerHdl[TIMER_COMM]) == 0)
 2284              		.loc 1 792 0
 2285 00d4 A168     		ldr	r1, [r4, #8]
 2286 00d6 0D20     		movs	r0, #13
 2287 00d8 FFF7FEFF 		bl	sys_func1
 2288              	.LVL286:
 793:src/sysutil.c ****     return FALSE;
 794:src/sysutil.c **** 
 795:src/sysutil.c ****   return TRUE;
 796:src/sysutil.c **** }
 2289              		.loc 1 796 0
 2290 00dc 0030     		adds	r0, r0, #0
 2291 00de 18BF     		it	ne
 2292 00e0 0120     		movne	r0, #1
 2293 00e2 09B0     		add	sp, sp, #36
 2294              		.cfi_def_cfa_offset 20
 2295              		@ sp needed
 2296 00e4 F0BD     		pop	{r4, r5, r6, r7, pc}
 2297              	.L182:
 2298 00e6 00BF     		.align	2
 2299              	.L181:
 2300 00e8 00000000 		.word	gTimerHdl
 2301 00ec 4A000000 		.word	.LC6
 2302 00f0 5C000000 		.word	.LC7
 2303              		.cfi_endproc
 2304              	.LFE30:
 2305              		.size	WaitLanNetRdy, .-WaitLanNetRdy
 2306              		.section	.text.WaitWifiNetRdy,"ax",%progbits
 2307              		.align	1
 2308              		.global	WaitWifiNetRdy
 2309              		.thumb
 2310              		.thumb_func
 2311              		.type	WaitWifiNetRdy, %function
 2312              	WaitWifiNetRdy:
 2313              	.LFB31:
 797:src/sysutil.c **** //*****************************************************************************
 798:src/sysutil.c **** //  Function        : WaitWifiNetRdy
 799:src/sysutil.c **** //  Description     : Wait Wifi Network Ready;
ARM GAS  C:\Users\AHMED~1.ELE\AppData\Local\Temp\ccGujCBB.s 			page 57


 800:src/sysutil.c **** //  Input           : N/A
 801:src/sysutil.c **** //  Return          : N/A
 802:src/sysutil.c **** //  Note            : N/A
 803:src/sysutil.c **** //  Globals Changed : N/A
 804:src/sysutil.c **** //*****************************************************************************
 805:src/sysutil.c **** BOOLEAN WaitWifiNetRdy(DWORD aTimeout, BOOLEAN aNoCancel)
 806:src/sysutil.c **** {
 2314              		.loc 1 806 0
 2315              		.cfi_startproc
 2316              		@ args = 0, pretend = 0, frame = 24
 2317              		@ frame_needed = 0, uses_anonymous_args = 0
 2318              	.LVL287:
 2319 0000 F0B5     		push	{r4, r5, r6, r7, lr}
 2320              		.cfi_def_cfa_offset 20
 2321              		.cfi_offset 4, -20
 2322              		.cfi_offset 5, -16
 2323              		.cfi_offset 6, -12
 2324              		.cfi_offset 7, -8
 2325              		.cfi_offset 14, -4
 2326 0002 89B0     		sub	sp, sp, #36
 2327              		.cfi_def_cfa_offset 56
 2328              		.loc 1 806 0
 2329 0004 0546     		mov	r5, r0
 2330 0006 0F46     		mov	r7, r1
 807:src/sysutil.c ****   struct MW_NIF_INFO netinfo;
 808:src/sysutil.c **** 
 809:src/sysutil.c ****   // check if AP is connected
 810:src/sysutil.c ****   if ((GetWifiStatus() & MW_WIFI_CONNECTED) == 0) {
 2331              		.loc 1 810 0
 2332 0008 FFF7FEFF 		bl	GetWifiStatus
 2333              	.LVL288:
 2334 000c 10F00106 		ands	r6, r0, #1
 2335 0010 1DD1     		bne	.L184
 2336              	.LVL289:
 2337              	.LBB15:
 811:src/sysutil.c ****     DispLineMW("Wifi AP Disconnected!", MW_LINE7, MW_CLREOL|MW_CENTER|MW_SPFONT);
 2338              		.loc 1 811 0
 2339 0012 9220     		movs	r0, #146
 2340 0014 1621     		movs	r1, #22
 2341 0016 FFF7FEFF 		bl	sys_func1
 2342              	.LVL290:
 2343 001a 0446     		mov	r4, r0
 2344 001c 90B1     		cbz	r0, .L185
 2345              		.loc 1 811 0 is_stmt 0 discriminator 1
 2346 001e 3049     		ldr	r1, .L199
 2347 0020 1522     		movs	r2, #21
 2348 0022 FFF7FEFF 		bl	memcpy
 2349              	.LVL291:
 2350 0026 42F22203 		movw	r3, #8226
 2351 002a 6675     		strb	r6, [r4, #21]
 2352 002c 2521     		movs	r1, #37
 2353 002e 0093     		str	r3, [sp]
 2354 0030 0F20     		movs	r0, #15
 2355 0032 2246     		mov	r2, r4
 2356 0034 4FF4E063 		mov	r3, #1792
 2357 0038 FFF7FEFF 		bl	lib_app_call
 2358              	.LVL292:
ARM GAS  C:\Users\AHMED~1.ELE\AppData\Local\Temp\ccGujCBB.s 			page 58


 2359 003c 9420     		movs	r0, #148
 2360 003e 2146     		mov	r1, r4
 2361 0040 FFF7FEFF 		bl	sys_func1
 2362              	.LVL293:
 2363              	.L185:
 2364              	.LBE15:
 812:src/sysutil.c ****     Delay10ms(100);
 2365              		.loc 1 812 0 is_stmt 1
 2366 0044 6420     		movs	r0, #100
 2367 0046 FFF7FEFF 		bl	Delay10ms
 2368              	.LVL294:
 813:src/sysutil.c ****     return FALSE;
 2369              		.loc 1 813 0
 2370 004a 0020     		movs	r0, #0
 2371 004c 45E0     		b	.L186
 2372              	.LVL295:
 2373              	.L184:
 814:src/sysutil.c ****   }
 815:src/sysutil.c **** 
 816:src/sysutil.c ****   // wait until DHCP ready
 817:src/sysutil.c ****   TimerSetMW(gTimerHdl[TIMER_COMM], aTimeout);
 2374              		.loc 1 817 0
 2375 004e 254C     		ldr	r4, .L199+4
 2376 0050 0C20     		movs	r0, #12
 2377 0052 A168     		ldr	r1, [r4, #8]
 2378 0054 2A46     		mov	r2, r5
 2379 0056 FFF7FEFF 		bl	sys_func2
 2380              	.LVL296:
 2381              	.L191:
 818:src/sysutil.c ****   do {
 819:src/sysutil.c ****     SleepMW();
 2382              		.loc 1 819 0
 2383 005a 4FF4CE70 		mov	r0, #412
 2384 005e FFF7FEFF 		bl	sys_func0
 2385              	.LVL297:
 820:src/sysutil.c ****     if (GetCharMW()==MWKEY_CANCL) {
 2386              		.loc 1 820 0
 2387 0062 0022     		movs	r2, #0
 2388 0064 0F20     		movs	r0, #15
 2389 0066 0092     		str	r2, [sp]
 2390 0068 1621     		movs	r1, #22
 2391 006a 1346     		mov	r3, r2
 2392 006c FFF7FEFF 		bl	lib_app_call
 2393              	.LVL298:
 2394 0070 1128     		cmp	r0, #17
 2395 0072 0AD1     		bne	.L187
 821:src/sysutil.c ****       if (!aNoCancel)
 2396              		.loc 1 821 0
 2397 0074 3FB9     		cbnz	r7, .L188
 2398              	.L189:
 822:src/sysutil.c ****         break;
 823:src/sysutil.c ****       LongBeep();
 824:src/sysutil.c ****     }
 825:src/sysutil.c ****     NetInfoMW(MW_NIF_WIFI, &netinfo);
 826:src/sysutil.c ****     if (netinfo.d_ip == 0) {
 827:src/sysutil.c ****       DispLineMW("Waiting Wifi DHCP..\x05", MW_LINE7, MW_CENTER|MW_SPFONT);
 828:src/sysutil.c ****       continue;
ARM GAS  C:\Users\AHMED~1.ELE\AppData\Local\Temp\ccGujCBB.s 			page 59


 829:src/sysutil.c ****     }
 830:src/sysutil.c ****     else
 831:src/sysutil.c ****       break;
 832:src/sysutil.c ****   } while (TimerGetMW(gTimerHdl[TIMER_COMM]) > 0);
 833:src/sysutil.c **** 
 834:src/sysutil.c ****   if (TimerGetMW(gTimerHdl[TIMER_COMM]) == 0)
 2399              		.loc 1 834 0
 2400 0076 0D20     		movs	r0, #13
 2401 0078 A168     		ldr	r1, [r4, #8]
 2402 007a FFF7FEFF 		bl	sys_func1
 2403              	.LVL299:
 813:src/sysutil.c ****   }
 2404              		.loc 1 813 0
 2405 007e 0030     		adds	r0, r0, #0
 2406 0080 18BF     		it	ne
 2407 0082 0120     		movne	r0, #1
 2408 0084 29E0     		b	.L186
 2409              	.L188:
 823:src/sysutil.c ****     }
 2410              		.loc 1 823 0
 2411 0086 FFF7FEFF 		bl	LongBeep
 2412              	.LVL300:
 2413              	.L187:
 825:src/sysutil.c ****     if (netinfo.d_ip == 0) {
 2414              		.loc 1 825 0
 2415 008a 1320     		movs	r0, #19
 2416 008c 0321     		movs	r1, #3
 2417 008e 03AA     		add	r2, sp, #12
 2418 0090 FFF7FEFF 		bl	base_func2
 2419              	.LVL301:
 826:src/sysutil.c ****       DispLineMW("Waiting Wifi DHCP..\x05", MW_LINE7, MW_CENTER|MW_SPFONT);
 2420              		.loc 1 826 0
 2421 0094 039E     		ldr	r6, [sp, #12]
 2422 0096 002E     		cmp	r6, #0
 2423 0098 EDD1     		bne	.L189
 2424              	.LVL302:
 2425              	.LBB16:
 827:src/sysutil.c ****       continue;
 2426              		.loc 1 827 0
 2427 009a 9220     		movs	r0, #146
 2428 009c 1521     		movs	r1, #21
 2429 009e FFF7FEFF 		bl	sys_func1
 2430              	.LVL303:
 2431 00a2 0546     		mov	r5, r0
 2432 00a4 90B1     		cbz	r0, .L190
 827:src/sysutil.c ****       continue;
 2433              		.loc 1 827 0 is_stmt 0 discriminator 1
 2434 00a6 1049     		ldr	r1, .L199+8
 2435 00a8 1422     		movs	r2, #20
 2436 00aa FFF7FEFF 		bl	memcpy
 2437              	.LVL304:
 2438 00ae 42F20203 		movw	r3, #8194
 2439 00b2 2E75     		strb	r6, [r5, #20]
 2440 00b4 2521     		movs	r1, #37
 2441 00b6 0093     		str	r3, [sp]
 2442 00b8 0F20     		movs	r0, #15
 2443 00ba 2A46     		mov	r2, r5
ARM GAS  C:\Users\AHMED~1.ELE\AppData\Local\Temp\ccGujCBB.s 			page 60


 2444 00bc 4FF4E063 		mov	r3, #1792
 2445 00c0 FFF7FEFF 		bl	lib_app_call
 2446              	.LVL305:
 2447 00c4 9420     		movs	r0, #148
 2448 00c6 2946     		mov	r1, r5
 2449 00c8 FFF7FEFF 		bl	sys_func1
 2450              	.LVL306:
 2451              	.L190:
 2452              	.LBE16:
 832:src/sysutil.c **** 
 2453              		.loc 1 832 0 is_stmt 1
 2454 00cc 0D20     		movs	r0, #13
 2455 00ce A168     		ldr	r1, [r4, #8]
 2456 00d0 FFF7FEFF 		bl	sys_func1
 2457              	.LVL307:
 2458 00d4 0028     		cmp	r0, #0
 2459 00d6 C0D1     		bne	.L191
 2460 00d8 CDE7     		b	.L189
 2461              	.LVL308:
 2462              	.L186:
 835:src/sysutil.c ****     return FALSE;
 836:src/sysutil.c **** 
 837:src/sysutil.c ****   return TRUE;
 838:src/sysutil.c **** }
 2463              		.loc 1 838 0
 2464 00da 09B0     		add	sp, sp, #36
 2465              		.cfi_def_cfa_offset 20
 2466              		@ sp needed
 2467 00dc F0BD     		pop	{r4, r5, r6, r7, pc}
 2468              	.L200:
 2469 00de 00BF     		.align	2
 2470              	.L199:
 2471 00e0 70000000 		.word	.LC8
 2472 00e4 00000000 		.word	gTimerHdl
 2473 00e8 86000000 		.word	.LC9
 2474              		.cfi_endproc
 2475              	.LFE31:
 2476              		.size	WaitWifiNetRdy, .-WaitWifiNetRdy
 2477              		.section	.text.HotPlug,"ax",%progbits
 2478              		.align	1
 2479              		.global	HotPlug
 2480              		.thumb
 2481              		.thumb_func
 2482              		.type	HotPlug, %function
 2483              	HotPlug:
 2484              	.LFB32:
 839:src/sysutil.c **** #if (MCP_SUPPORT)
 840:src/sysutil.c **** //*****************************************************************************
 841:src/sysutil.c **** //  Function        : WaitMcpNetRdy
 842:src/sysutil.c **** //  Description     : Wait MCP Network Ready;
 843:src/sysutil.c **** //  Input           : N/A
 844:src/sysutil.c **** //  Return          : N/A
 845:src/sysutil.c **** //  Note            : N/A
 846:src/sysutil.c **** //  Globals Changed : N/A
 847:src/sysutil.c **** //*****************************************************************************
 848:src/sysutil.c **** BOOLEAN WaitMcpNetRdy(DWORD aTimeout, BOOLEAN aNoCancel)
 849:src/sysutil.c **** {
ARM GAS  C:\Users\AHMED~1.ELE\AppData\Local\Temp\ccGujCBB.s 			page 61


 850:src/sysutil.c ****   // wait until MCP ready
 851:src/sysutil.c ****   TimerSetMW(gTimerHdl[TIMER_COMM], aTimeout);
 852:src/sysutil.c ****   do {
 853:src/sysutil.c ****     SleepMW();
 854:src/sysutil.c ****     if (GetCharMW()==MWKEY_CANCL) {
 855:src/sysutil.c ****       if (!aNoCancel)
 856:src/sysutil.c ****         break;
 857:src/sysutil.c ****       LongBeep();
 858:src/sysutil.c ****     }
 859:src/sysutil.c ****     if (GetMCPStatus() != K_MCP_PHASE_CONNECTED) {
 860:src/sysutil.c ****       DispLineMW("Waiting MCP Rdy..\x05", MW_LINE7, MW_CENTER|MW_SPFONT);
 861:src/sysutil.c ****       continue;
 862:src/sysutil.c ****     }
 863:src/sysutil.c ****     else
 864:src/sysutil.c ****       break;
 865:src/sysutil.c ****   } while (TimerGetMW(gTimerHdl[TIMER_COMM]) > 0);
 866:src/sysutil.c **** 
 867:src/sysutil.c ****   if (TimerGetMW(gTimerHdl[TIMER_COMM]) == 0)
 868:src/sysutil.c ****     return FALSE;
 869:src/sysutil.c **** 
 870:src/sysutil.c ****   return TRUE;
 871:src/sysutil.c **** }
 872:src/sysutil.c **** #endif
 873:src/sysutil.c **** //*****************************************************************************
 874:src/sysutil.c **** //  Function        : HotPlug
 875:src/sysutil.c **** //  Description     : Handle LAN cable Hot Plug.
 876:src/sysutil.c **** //  Input           : N/A
 877:src/sysutil.c **** //  Return          : N/A
 878:src/sysutil.c **** //  Note            : //25-07-17 JC ++
 879:src/sysutil.c **** //  Globals Changed : N/A
 880:src/sysutil.c **** //*****************************************************************************
 881:src/sysutil.c **** enum {
 882:src/sysutil.c ****  HP_WAITON   = 1,
 883:src/sysutil.c ****  HP_CHKSTATE    ,
 884:src/sysutil.c ****  HP_WAITCLOSE   ,
 885:src/sysutil.c ****  HP_WAITOFF     ,
 886:src/sysutil.c **** };
 887:src/sysutil.c **** static DWORD gHpState = HP_WAITON;
 888:src/sysutil.c **** static DWORD gHotPlugCnt;
 889:src/sysutil.c **** void HotPlug(void)
 890:src/sysutil.c **** {
 2485              		.loc 1 890 0
 2486              		.cfi_startproc
 2487              		@ args = 0, pretend = 0, frame = 0
 2488              		@ frame_needed = 0, uses_anonymous_args = 0
 2489 0000 38B5     		push	{r3, r4, r5, lr}
 2490              		.cfi_def_cfa_offset 16
 2491              		.cfi_offset 3, -16
 2492              		.cfi_offset 4, -12
 2493              		.cfi_offset 5, -8
 2494              		.cfi_offset 14, -4
 891:src/sysutil.c ****   #define KSecIn1ms(x)    x*1000
 892:src/sysutil.c ****   DWORD status;
 893:src/sysutil.c ****   //BYTE buf[32];
 894:src/sysutil.c **** 
 895:src/sysutil.c ****   //SprintfMW(buf, "HotPlug: %d\x05", gHpState);
 896:src/sysutil.c ****   //DispLineMW(buf, MW_LINE8, MW_SPFONT);
ARM GAS  C:\Users\AHMED~1.ELE\AppData\Local\Temp\ccGujCBB.s 			page 62


 897:src/sysutil.c ****   switch (gHpState) {
 2495              		.loc 1 897 0
 2496 0002 224C     		ldr	r4, .L213
 2497 0004 2368     		ldr	r3, [r4]
 2498 0006 013B     		subs	r3, r3, #1
 2499 0008 032B     		cmp	r3, #3
 2500 000a 3AD8     		bhi	.L202
 2501 000c DFE803F0 		tbb	[pc, r3]
 2502              	.L204:
 2503 0010 02       		.byte	(.L203-.L204)/2
 2504 0011 07       		.byte	(.L205-.L204)/2
 2505 0012 30       		.byte	(.L206-.L204)/2
 2506 0013 20       		.byte	(.L207-.L204)/2
 2507              		.p2align 1
 2508              	.L203:
 898:src/sysutil.c ****     case HP_WAITON:
 899:src/sysutil.c ****        bs_lan_open();
 2509              		.loc 1 899 0
 2510 0014 4020     		movs	r0, #64
 2511 0016 FFF7FEFF 		bl	base_func0
 2512              	.LVL309:
 900:src/sysutil.c ****        gHpState = HP_CHKSTATE;
 2513              		.loc 1 900 0
 2514 001a 0223     		movs	r3, #2
 2515 001c 22E0     		b	.L211
 2516              	.L205:
 901:src/sysutil.c ****        gHotPlugCnt = FreeRunMark();
 902:src/sysutil.c ****        break;
 903:src/sysutil.c ****     case HP_CHKSTATE:
 904:src/sysutil.c ****        status = bs_lan_status(K_BsLanStatus);
 2517              		.loc 1 904 0
 2518 001e 4220     		movs	r0, #66
 2519 0020 0021     		movs	r1, #0
 2520 0022 FFF7FEFF 		bl	base_func1
 2521              	.LVL310:
 905:src/sysutil.c ****        if (status & K_LanPlugIn) {
 2522              		.loc 1 905 0
 2523 0026 C207     		lsls	r2, r0, #31
 2524 0028 01D5     		bpl	.L208
 906:src/sysutil.c ****          gHpState = HP_WAITOFF;
 2525              		.loc 1 906 0
 2526 002a 0423     		movs	r3, #4
 2527 002c 28E0     		b	.L212
 2528              	.L208:
 907:src/sysutil.c ****          break;
 908:src/sysutil.c ****        }
 909:src/sysutil.c ****        if (FreeRunElapsed(gHotPlugCnt) > KSecIn1ms(5)) {
 2529              		.loc 1 909 0
 2530 002e 184D     		ldr	r5, .L213+4
 2531 0030 6868     		ldr	r0, [r5, #4]
 2532              	.LVL311:
 2533 0032 FFF7FEFF 		bl	FreeRunElapsed
 2534              	.LVL312:
 2535 0036 41F28833 		movw	r3, #5000
 2536 003a 9842     		cmp	r0, r3
 2537 003c 21D9     		bls	.L202
 910:src/sysutil.c ****          bs_lan_close();
ARM GAS  C:\Users\AHMED~1.ELE\AppData\Local\Temp\ccGujCBB.s 			page 63


 2538              		.loc 1 910 0
 2539 003e 4120     		movs	r0, #65
 2540 0040 FFF7FEFF 		bl	base_func0
 2541              	.LVL313:
 911:src/sysutil.c ****          gHpState = HP_WAITCLOSE;
 2542              		.loc 1 911 0
 2543 0044 0323     		movs	r3, #3
 2544 0046 2360     		str	r3, [r4]
 912:src/sysutil.c ****          gHotPlugCnt = FreeRunMark();
 2545              		.loc 1 912 0
 2546 0048 FFF7FEFF 		bl	FreeRunMark
 2547              	.LVL314:
 2548 004c 6860     		str	r0, [r5, #4]
 2549 004e 18E0     		b	.L202
 2550              	.L207:
 913:src/sysutil.c ****        }
 914:src/sysutil.c ****        break;
 915:src/sysutil.c ****     case HP_WAITOFF:
 916:src/sysutil.c ****        status = bs_lan_status(K_BsLanStatus);
 2551              		.loc 1 916 0
 2552 0050 4220     		movs	r0, #66
 2553 0052 0021     		movs	r1, #0
 2554 0054 FFF7FEFF 		bl	base_func1
 2555              	.LVL315:
 917:src/sysutil.c ****        if (!(status & K_LanPlugIn)) {
 2556              		.loc 1 917 0
 2557 0058 C307     		lsls	r3, r0, #31
 2558 005a 12D4     		bmi	.L202
 918:src/sysutil.c ****          bs_lan_close();
 2559              		.loc 1 918 0
 2560 005c 4120     		movs	r0, #65
 2561              	.LVL316:
 2562 005e FFF7FEFF 		bl	base_func0
 2563              	.LVL317:
 919:src/sysutil.c ****          gHpState = HP_WAITCLOSE;
 2564              		.loc 1 919 0
 2565 0062 0323     		movs	r3, #3
 2566              	.L211:
 2567 0064 2360     		str	r3, [r4]
 920:src/sysutil.c ****          gHotPlugCnt = FreeRunMark();
 2568              		.loc 1 920 0
 2569 0066 FFF7FEFF 		bl	FreeRunMark
 2570              	.LVL318:
 2571 006a 094B     		ldr	r3, .L213+4
 2572 006c 5860     		str	r0, [r3, #4]
 2573 006e 08E0     		b	.L202
 2574              	.L206:
 921:src/sysutil.c ****        }
 922:src/sysutil.c ****        break;
 923:src/sysutil.c ****     case HP_WAITCLOSE:
 924:src/sysutil.c ****        if (FreeRunElapsed(gHotPlugCnt) > KSecIn1ms(2)) {
 2575              		.loc 1 924 0
 2576 0070 074B     		ldr	r3, .L213+4
 2577 0072 5868     		ldr	r0, [r3, #4]
 2578 0074 FFF7FEFF 		bl	FreeRunElapsed
 2579              	.LVL319:
 2580 0078 B0F5FA6F 		cmp	r0, #2000
ARM GAS  C:\Users\AHMED~1.ELE\AppData\Local\Temp\ccGujCBB.s 			page 64


 2581 007c 01D9     		bls	.L202
 925:src/sysutil.c ****          gHpState = HP_WAITON;
 2582              		.loc 1 925 0
 2583 007e 0123     		movs	r3, #1
 2584              	.L212:
 2585 0080 2360     		str	r3, [r4]
 2586              	.L202:
 926:src/sysutil.c ****        }
 927:src/sysutil.c ****        break;
 928:src/sysutil.c ****   }
 929:src/sysutil.c ****   os_thread_return();
 2587              		.loc 1 929 0
 2588 0082 8020     		movs	r0, #128
 930:src/sysutil.c **** }
 2589              		.loc 1 930 0
 2590 0084 BDE83840 		pop	{r3, r4, r5, lr}
 2591              		.cfi_restore 14
 2592              		.cfi_restore 5
 2593              		.cfi_restore 4
 2594              		.cfi_restore 3
 2595              		.cfi_def_cfa_offset 0
 929:src/sysutil.c **** }
 2596              		.loc 1 929 0
 2597 0088 FFF7FEBF 		b	sys_func0
 2598              	.LVL320:
 2599              	.L214:
 2600              		.align	2
 2601              	.L213:
 2602 008c 00000000 		.word	.LANCHOR2
 2603 0090 00000000 		.word	.LANCHOR1
 2604              		.cfi_endproc
 2605              	.LFE32:
 2606              		.size	HotPlug, .-HotPlug
 2607              		.section	.rodata
 2608              		.set	.LANCHOR0,. + 0
 2609              		.type	KMonthText, %object
 2610              		.size	KMonthText, 39
 2611              	KMonthText:
 2612 0000 20       		.byte	32
 2613 0001 20       		.byte	32
 2614 0002 20       		.byte	32
 2615 0003 4A       		.byte	74
 2616 0004 41       		.byte	65
 2617 0005 4E       		.byte	78
 2618 0006 46       		.byte	70
 2619 0007 45       		.byte	69
 2620 0008 42       		.byte	66
 2621 0009 4D       		.byte	77
 2622 000a 41       		.byte	65
 2623 000b 52       		.byte	82
 2624 000c 41       		.byte	65
 2625 000d 50       		.byte	80
 2626 000e 52       		.byte	82
 2627 000f 4D       		.byte	77
 2628 0010 41       		.byte	65
 2629 0011 59       		.byte	89
 2630 0012 4A       		.byte	74
ARM GAS  C:\Users\AHMED~1.ELE\AppData\Local\Temp\ccGujCBB.s 			page 65


 2631 0013 55       		.byte	85
 2632 0014 4E       		.byte	78
 2633 0015 4A       		.byte	74
 2634 0016 55       		.byte	85
 2635 0017 4C       		.byte	76
 2636 0018 41       		.byte	65
 2637 0019 55       		.byte	85
 2638 001a 47       		.byte	71
 2639 001b 53       		.byte	83
 2640 001c 45       		.byte	69
 2641 001d 50       		.byte	80
 2642 001e 4F       		.byte	79
 2643 001f 43       		.byte	67
 2644 0020 54       		.byte	84
 2645 0021 4E       		.byte	78
 2646 0022 4F       		.byte	79
 2647 0023 56       		.byte	86
 2648 0024 44       		.byte	68
 2649 0025 45       		.byte	69
 2650 0026 43       		.byte	67
 2651              		.section	.rodata.str1.1,"aMS",%progbits,1
 2652              	.LC0:
 2653 0000 2533642E 		.ascii	"%3d.%3d.%3d.%3d\000"
 2653      2533642E 
 2653      2533642E 
 2653      25336400 
 2654              	.LC1:
 2655 0010 252D3364 		.ascii	"%-3d\000"
 2655      00
 2656              	.LC2:
 2657 0015 256400   		.ascii	"%d\000"
 2658              	.LC3:
 2659 0018 4E6F7420 		.ascii	"Not A Valid Pointer!!\000"
 2659      41205661 
 2659      6C696420 
 2659      506F696E 
 2659      74657221 
 2660              	.LC4:
 2661 002e 4D656D6F 		.ascii	"Memory Error !\000"
 2661      72792045 
 2661      72726F72 
 2661      202100
 2662              	.LC5:
 2663 003d 46696C65 		.ascii	"File WR Err!\000"
 2663      20575220 
 2663      45727221 
 2663      00
 2664              	.LC6:
 2665 004a 43686563 		.ascii	"Check Lan Cable!\005\000"
 2665      6B204C61 
 2665      6E204361 
 2665      626C6521 
 2665      0500
 2666              	.LC7:
 2667 005c 57616974 		.ascii	"Waiting LAN DHCP..\005\000"
 2667      696E6720 
 2667      4C414E20 
ARM GAS  C:\Users\AHMED~1.ELE\AppData\Local\Temp\ccGujCBB.s 			page 66


 2667      44484350 
 2667      2E2E0500 
 2668              	.LC8:
 2669 0070 57696669 		.ascii	"Wifi AP Disconnected!\000"
 2669      20415020 
 2669      44697363 
 2669      6F6E6E65 
 2669      63746564 
 2670              	.LC9:
 2671 0086 57616974 		.ascii	"Waiting Wifi DHCP..\005\000"
 2671      696E6720 
 2671      57696669 
 2671      20444843 
 2671      502E2E05 
 2672              		.data
 2673              		.align	2
 2674              		.set	.LANCHOR2,. + 0
 2675              		.type	gHpState, %object
 2676              		.size	gHpState, 4
 2677              	gHpState:
 2678 0000 01000000 		.word	1
 2679              		.bss
 2680              		.align	2
 2681              		.set	.LANCHOR1,. + 0
 2682              		.type	ostatus.12154, %object
 2683              		.size	ostatus.12154, 4
 2684              	ostatus.12154:
 2685 0000 00000000 		.space	4
 2686              		.type	gHotPlugCnt, %object
 2687              		.size	gHotPlugCnt, 4
 2688              	gHotPlugCnt:
 2689 0004 00000000 		.space	4
 2690              		.text
 2691              	.Letext0:
 2692              		.file 2 "c:\\devtools\\gcc_v49_2014q4\\lib\\gcc\\arm-none-eabi\\4.9.3\\include\\stddef.h"
 2693              		.file 3 "../LibA5T1000/common.h"
 2694              		.file 4 "../LibA5T1000/system.h"
 2695              		.file 5 "../LibA5T1000/basecall.h"
 2696              		.file 6 "../LibA5T1000/midware.h"
 2697              		.file 7 "../LibA5T1000/apm.h"
 2698              		.file 8 "src/hardware.h"
 2699              		.file 9 "src/sysutil.h"
 2700              		.file 10 "c:\\devtools\\gcc_v49_2014q4\\arm-none-eabi\\include\\string.h"
 2701              		.file 11 "../LibA5T1000/util.h"
 2702              		.file 12 "c:\\devtools\\gcc_v49_2014q4\\arm-none-eabi\\include\\stdio.h"
 2703              		.file 13 "src/kbdutil.h"
 2704              		.file 14 "c:\\devtools\\gcc_v49_2014q4\\arm-none-eabi\\include\\stdlib.h"
 2705              		.file 15 "src/wifi.h"
 2706              		.section	.debug_info,"",%progbits
 2707              	.Ldebug_info0:
 2708 0000 A0350000 		.4byte	0x35a0
 2709 0004 0400     		.2byte	0x4
 2710 0006 00000000 		.4byte	.Ldebug_abbrev0
 2711 000a 04       		.byte	0x4
 2712 000b 01       		.uleb128 0x1
 2713 000c CE190000 		.4byte	.LASF901
 2714 0010 01       		.byte	0x1
ARM GAS  C:\Users\AHMED~1.ELE\AppData\Local\Temp\ccGujCBB.s 			page 67


 2715 0011 6C070000 		.4byte	.LASF902
 2716 0015 3F0F0000 		.4byte	.LASF903
 2717 0019 30000000 		.4byte	.Ldebug_ranges0+0x30
 2718 001d 00000000 		.4byte	0
 2719 0021 00000000 		.4byte	.Ldebug_line0
 2720 0025 02       		.uleb128 0x2
 2721 0026 9D000000 		.4byte	.LASF11
 2722 002a 02       		.byte	0x2
 2723 002b D4       		.byte	0xd4
 2724 002c 30000000 		.4byte	0x30
 2725 0030 03       		.uleb128 0x3
 2726 0031 04       		.byte	0x4
 2727 0032 07       		.byte	0x7
 2728 0033 9F210000 		.4byte	.LASF0
 2729 0037 04       		.uleb128 0x4
 2730 0038 04       		.byte	0x4
 2731 0039 05       		.byte	0x5
 2732 003a 696E7400 		.ascii	"int\000"
 2733 003e 03       		.uleb128 0x3
 2734 003f 01       		.byte	0x1
 2735 0040 06       		.byte	0x6
 2736 0041 68330000 		.4byte	.LASF1
 2737 0045 03       		.uleb128 0x3
 2738 0046 01       		.byte	0x1
 2739 0047 08       		.byte	0x8
 2740 0048 24250000 		.4byte	.LASF2
 2741 004c 03       		.uleb128 0x3
 2742 004d 02       		.byte	0x2
 2743 004e 05       		.byte	0x5
 2744 004f 3C300000 		.4byte	.LASF3
 2745 0053 03       		.uleb128 0x3
 2746 0054 02       		.byte	0x2
 2747 0055 07       		.byte	0x7
 2748 0056 10370000 		.4byte	.LASF4
 2749 005a 03       		.uleb128 0x3
 2750 005b 04       		.byte	0x4
 2751 005c 05       		.byte	0x5
 2752 005d 5D090000 		.4byte	.LASF5
 2753 0061 03       		.uleb128 0x3
 2754 0062 04       		.byte	0x4
 2755 0063 07       		.byte	0x7
 2756 0064 A3180000 		.4byte	.LASF6
 2757 0068 03       		.uleb128 0x3
 2758 0069 08       		.byte	0x8
 2759 006a 05       		.byte	0x5
 2760 006b 031E0000 		.4byte	.LASF7
 2761 006f 03       		.uleb128 0x3
 2762 0070 08       		.byte	0x8
 2763 0071 07       		.byte	0x7
 2764 0072 13350000 		.4byte	.LASF8
 2765 0076 03       		.uleb128 0x3
 2766 0077 04       		.byte	0x4
 2767 0078 07       		.byte	0x7
 2768 0079 B4000000 		.4byte	.LASF9
 2769 007d 05       		.uleb128 0x5
 2770 007e 04       		.byte	0x4
 2771 007f 06       		.uleb128 0x6
ARM GAS  C:\Users\AHMED~1.ELE\AppData\Local\Temp\ccGujCBB.s 			page 68


 2772 0080 04       		.byte	0x4
 2773 0081 45000000 		.4byte	0x45
 2774 0085 06       		.uleb128 0x6
 2775 0086 04       		.byte	0x4
 2776 0087 8B000000 		.4byte	0x8b
 2777 008b 03       		.uleb128 0x3
 2778 008c 01       		.byte	0x1
 2779 008d 06       		.byte	0x6
 2780 008e 47000000 		.4byte	.LASF10
 2781 0092 06       		.uleb128 0x6
 2782 0093 04       		.byte	0x4
 2783 0094 98000000 		.4byte	0x98
 2784 0098 07       		.uleb128 0x7
 2785 0099 8B000000 		.4byte	0x8b
 2786 009d 06       		.uleb128 0x6
 2787 009e 04       		.byte	0x4
 2788 009f A3000000 		.4byte	0xa3
 2789 00a3 08       		.uleb128 0x8
 2790 00a4 02       		.uleb128 0x2
 2791 00a5 56120000 		.4byte	.LASF12
 2792 00a9 03       		.byte	0x3
 2793 00aa 0D       		.byte	0xd
 2794 00ab 45000000 		.4byte	0x45
 2795 00af 02       		.uleb128 0x2
 2796 00b0 CB070000 		.4byte	.LASF13
 2797 00b4 03       		.byte	0x3
 2798 00b5 0E       		.byte	0xe
 2799 00b6 45000000 		.4byte	0x45
 2800 00ba 02       		.uleb128 0x2
 2801 00bb F8240000 		.4byte	.LASF14
 2802 00bf 03       		.byte	0x3
 2803 00c0 0F       		.byte	0xf
 2804 00c1 53000000 		.4byte	0x53
 2805 00c5 02       		.uleb128 0x2
 2806 00c6 E8350000 		.4byte	.LASF15
 2807 00ca 03       		.byte	0x3
 2808 00cb 10       		.byte	0x10
 2809 00cc 30000000 		.4byte	0x30
 2810 00d0 06       		.uleb128 0x6
 2811 00d1 04       		.byte	0x4
 2812 00d2 D6000000 		.4byte	0xd6
 2813 00d6 07       		.uleb128 0x7
 2814 00d7 AF000000 		.4byte	0xaf
 2815 00db 06       		.uleb128 0x6
 2816 00dc 04       		.byte	0x4
 2817 00dd AF000000 		.4byte	0xaf
 2818 00e1 09       		.uleb128 0x9
 2819 00e2 AF000000 		.4byte	0xaf
 2820 00e6 F1000000 		.4byte	0xf1
 2821 00ea 0A       		.uleb128 0xa
 2822 00eb 76000000 		.4byte	0x76
 2823 00ef 03       		.byte	0x3
 2824 00f0 00       		.byte	0
 2825 00f1 09       		.uleb128 0x9
 2826 00f2 C5000000 		.4byte	0xc5
 2827 00f6 01010000 		.4byte	0x101
 2828 00fa 0A       		.uleb128 0xa
ARM GAS  C:\Users\AHMED~1.ELE\AppData\Local\Temp\ccGujCBB.s 			page 69


 2829 00fb 76000000 		.4byte	0x76
 2830 00ff 01       		.byte	0x1
 2831 0100 00       		.byte	0
 2832 0101 09       		.uleb128 0x9
 2833 0102 AF000000 		.4byte	0xaf
 2834 0106 11010000 		.4byte	0x111
 2835 010a 0A       		.uleb128 0xa
 2836 010b 76000000 		.4byte	0x76
 2837 010f 7F       		.byte	0x7f
 2838 0110 00       		.byte	0
 2839 0111 09       		.uleb128 0x9
 2840 0112 AF000000 		.4byte	0xaf
 2841 0116 21010000 		.4byte	0x121
 2842 011a 0A       		.uleb128 0xa
 2843 011b 76000000 		.4byte	0x76
 2844 011f 1F       		.byte	0x1f
 2845 0120 00       		.byte	0
 2846 0121 09       		.uleb128 0x9
 2847 0122 AF000000 		.4byte	0xaf
 2848 0126 31010000 		.4byte	0x131
 2849 012a 0A       		.uleb128 0xa
 2850 012b 76000000 		.4byte	0x76
 2851 012f 00       		.byte	0
 2852 0130 00       		.byte	0
 2853 0131 0B       		.uleb128 0xb
 2854 0132 BF160000 		.4byte	.LASF904
 2855 0136 02       		.byte	0x2
 2856 0137 04       		.byte	0x4
 2857 0138 9A04     		.2byte	0x49a
 2858 013a EE0D0000 		.4byte	0xdee
 2859 013e 0C       		.uleb128 0xc
 2860 013f 3F390000 		.4byte	.LASF16
 2861 0143 00       		.sleb128 0
 2862 0144 0C       		.uleb128 0xc
 2863 0145 20190000 		.4byte	.LASF17
 2864 0149 01       		.sleb128 1
 2865 014a 0C       		.uleb128 0xc
 2866 014b 7F1D0000 		.4byte	.LASF18
 2867 014f 02       		.sleb128 2
 2868 0150 0C       		.uleb128 0xc
 2869 0151 070E0000 		.4byte	.LASF19
 2870 0155 03       		.sleb128 3
 2871 0156 0C       		.uleb128 0xc
 2872 0157 9D380000 		.4byte	.LASF20
 2873 015b 04       		.sleb128 4
 2874 015c 0C       		.uleb128 0xc
 2875 015d 60260000 		.4byte	.LASF21
 2876 0161 05       		.sleb128 5
 2877 0162 0C       		.uleb128 0xc
 2878 0163 8C110000 		.4byte	.LASF22
 2879 0167 06       		.sleb128 6
 2880 0168 0C       		.uleb128 0xc
 2881 0169 F1280000 		.4byte	.LASF23
 2882 016d 07       		.sleb128 7
 2883 016e 0C       		.uleb128 0xc
 2884 016f 071B0000 		.4byte	.LASF24
 2885 0173 08       		.sleb128 8
ARM GAS  C:\Users\AHMED~1.ELE\AppData\Local\Temp\ccGujCBB.s 			page 70


 2886 0174 0C       		.uleb128 0xc
 2887 0175 99340000 		.4byte	.LASF25
 2888 0179 09       		.sleb128 9
 2889 017a 0C       		.uleb128 0xc
 2890 017b 02140000 		.4byte	.LASF26
 2891 017f 0A       		.sleb128 10
 2892 0180 0C       		.uleb128 0xc
 2893 0181 A62C0000 		.4byte	.LASF27
 2894 0185 0B       		.sleb128 11
 2895 0186 0C       		.uleb128 0xc
 2896 0187 4F030000 		.4byte	.LASF28
 2897 018b 0C       		.sleb128 12
 2898 018c 0C       		.uleb128 0xc
 2899 018d 9C260000 		.4byte	.LASF29
 2900 0191 0D       		.sleb128 13
 2901 0192 0C       		.uleb128 0xc
 2902 0193 E20F0000 		.4byte	.LASF30
 2903 0197 0E       		.sleb128 14
 2904 0198 0C       		.uleb128 0xc
 2905 0199 A7390000 		.4byte	.LASF31
 2906 019d 0F       		.sleb128 15
 2907 019e 0C       		.uleb128 0xc
 2908 019f 061D0000 		.4byte	.LASF32
 2909 01a3 10       		.sleb128 16
 2910 01a4 0C       		.uleb128 0xc
 2911 01a5 4F2D0000 		.4byte	.LASF33
 2912 01a9 11       		.sleb128 17
 2913 01aa 0C       		.uleb128 0xc
 2914 01ab D1130000 		.4byte	.LASF34
 2915 01af 12       		.sleb128 18
 2916 01b0 0C       		.uleb128 0xc
 2917 01b1 0E060000 		.4byte	.LASF35
 2918 01b5 13       		.sleb128 19
 2919 01b6 0C       		.uleb128 0xc
 2920 01b7 AC0B0000 		.4byte	.LASF36
 2921 01bb 14       		.sleb128 20
 2922 01bc 0C       		.uleb128 0xc
 2923 01bd 111E0000 		.4byte	.LASF37
 2924 01c1 15       		.sleb128 21
 2925 01c2 0C       		.uleb128 0xc
 2926 01c3 BC0B0000 		.4byte	.LASF38
 2927 01c7 16       		.sleb128 22
 2928 01c8 0C       		.uleb128 0xc
 2929 01c9 800C0000 		.4byte	.LASF39
 2930 01cd 17       		.sleb128 23
 2931 01ce 0C       		.uleb128 0xc
 2932 01cf 280C0000 		.4byte	.LASF40
 2933 01d3 18       		.sleb128 24
 2934 01d4 0C       		.uleb128 0xc
 2935 01d5 7F250000 		.4byte	.LASF41
 2936 01d9 19       		.sleb128 25
 2937 01da 0C       		.uleb128 0xc
 2938 01db E50B0000 		.4byte	.LASF42
 2939 01df 1A       		.sleb128 26
 2940 01e0 0C       		.uleb128 0xc
 2941 01e1 530C0000 		.4byte	.LASF43
 2942 01e5 1B       		.sleb128 27
ARM GAS  C:\Users\AHMED~1.ELE\AppData\Local\Temp\ccGujCBB.s 			page 71


 2943 01e6 0C       		.uleb128 0xc
 2944 01e7 ED180000 		.4byte	.LASF44
 2945 01eb 1C       		.sleb128 28
 2946 01ec 0C       		.uleb128 0xc
 2947 01ed 46210000 		.4byte	.LASF45
 2948 01f1 1D       		.sleb128 29
 2949 01f2 0C       		.uleb128 0xc
 2950 01f3 DC390000 		.4byte	.LASF46
 2951 01f7 1E       		.sleb128 30
 2952 01f8 0C       		.uleb128 0xc
 2953 01f9 060B0000 		.4byte	.LASF47
 2954 01fd 1F       		.sleb128 31
 2955 01fe 0C       		.uleb128 0xc
 2956 01ff B5180000 		.4byte	.LASF48
 2957 0203 20       		.sleb128 32
 2958 0204 0C       		.uleb128 0xc
 2959 0205 CF040000 		.4byte	.LASF49
 2960 0209 21       		.sleb128 33
 2961 020a 0C       		.uleb128 0xc
 2962 020b E2240000 		.4byte	.LASF50
 2963 020f 22       		.sleb128 34
 2964 0210 0C       		.uleb128 0xc
 2965 0211 641F0000 		.4byte	.LASF51
 2966 0215 23       		.sleb128 35
 2967 0216 0C       		.uleb128 0xc
 2968 0217 3F0E0000 		.4byte	.LASF52
 2969 021b 24       		.sleb128 36
 2970 021c 0C       		.uleb128 0xc
 2971 021d 0A150000 		.4byte	.LASF53
 2972 0221 25       		.sleb128 37
 2973 0222 0C       		.uleb128 0xc
 2974 0223 38330000 		.4byte	.LASF54
 2975 0227 26       		.sleb128 38
 2976 0228 0C       		.uleb128 0xc
 2977 0229 C01F0000 		.4byte	.LASF55
 2978 022d 27       		.sleb128 39
 2979 022e 0C       		.uleb128 0xc
 2980 022f C8090000 		.4byte	.LASF56
 2981 0233 28       		.sleb128 40
 2982 0234 0C       		.uleb128 0xc
 2983 0235 A0280000 		.4byte	.LASF57
 2984 0239 29       		.sleb128 41
 2985 023a 0C       		.uleb128 0xc
 2986 023b 1E200000 		.4byte	.LASF58
 2987 023f 2A       		.sleb128 42
 2988 0240 0C       		.uleb128 0xc
 2989 0241 B3200000 		.4byte	.LASF59
 2990 0245 2B       		.sleb128 43
 2991 0246 0C       		.uleb128 0xc
 2992 0247 CA120000 		.4byte	.LASF60
 2993 024b 2C       		.sleb128 44
 2994 024c 0C       		.uleb128 0xc
 2995 024d 0C0F0000 		.4byte	.LASF61
 2996 0251 2D       		.sleb128 45
 2997 0252 0C       		.uleb128 0xc
 2998 0253 A9330000 		.4byte	.LASF62
 2999 0257 2E       		.sleb128 46
ARM GAS  C:\Users\AHMED~1.ELE\AppData\Local\Temp\ccGujCBB.s 			page 72


 3000 0258 0C       		.uleb128 0xc
 3001 0259 76370000 		.4byte	.LASF63
 3002 025d 2F       		.sleb128 47
 3003 025e 0C       		.uleb128 0xc
 3004 025f AD300000 		.4byte	.LASF64
 3005 0263 30       		.sleb128 48
 3006 0264 0C       		.uleb128 0xc
 3007 0265 9F350000 		.4byte	.LASF65
 3008 0269 31       		.sleb128 49
 3009 026a 0C       		.uleb128 0xc
 3010 026b 5D2B0000 		.4byte	.LASF66
 3011 026f 32       		.sleb128 50
 3012 0270 0C       		.uleb128 0xc
 3013 0271 7F350000 		.4byte	.LASF67
 3014 0275 33       		.sleb128 51
 3015 0276 0C       		.uleb128 0xc
 3016 0277 D51B0000 		.4byte	.LASF68
 3017 027b 34       		.sleb128 52
 3018 027c 0C       		.uleb128 0xc
 3019 027d AC0F0000 		.4byte	.LASF69
 3020 0281 35       		.sleb128 53
 3021 0282 0C       		.uleb128 0xc
 3022 0283 23220000 		.4byte	.LASF70
 3023 0287 36       		.sleb128 54
 3024 0288 0C       		.uleb128 0xc
 3025 0289 6D1E0000 		.4byte	.LASF71
 3026 028d 37       		.sleb128 55
 3027 028e 0C       		.uleb128 0xc
 3028 028f 0E3A0000 		.4byte	.LASF72
 3029 0293 38       		.sleb128 56
 3030 0294 0C       		.uleb128 0xc
 3031 0295 74360000 		.4byte	.LASF73
 3032 0299 39       		.sleb128 57
 3033 029a 0C       		.uleb128 0xc
 3034 029b B02A0000 		.4byte	.LASF74
 3035 029f 3A       		.sleb128 58
 3036 02a0 0C       		.uleb128 0xc
 3037 02a1 E0050000 		.4byte	.LASF75
 3038 02a5 3B       		.sleb128 59
 3039 02a6 0C       		.uleb128 0xc
 3040 02a7 27380000 		.4byte	.LASF76
 3041 02ab 3C       		.sleb128 60
 3042 02ac 0C       		.uleb128 0xc
 3043 02ad AC260000 		.4byte	.LASF77
 3044 02b1 3D       		.sleb128 61
 3045 02b2 0C       		.uleb128 0xc
 3046 02b3 C6330000 		.4byte	.LASF78
 3047 02b7 3E       		.sleb128 62
 3048 02b8 0C       		.uleb128 0xc
 3049 02b9 832F0000 		.4byte	.LASF79
 3050 02bd 3F       		.sleb128 63
 3051 02be 0C       		.uleb128 0xc
 3052 02bf 19300000 		.4byte	.LASF80
 3053 02c3 C000     		.sleb128 64
 3054 02c5 0C       		.uleb128 0xc
 3055 02c6 E4010000 		.4byte	.LASF81
 3056 02ca C100     		.sleb128 65
ARM GAS  C:\Users\AHMED~1.ELE\AppData\Local\Temp\ccGujCBB.s 			page 73


 3057 02cc 0C       		.uleb128 0xc
 3058 02cd 02390000 		.4byte	.LASF82
 3059 02d1 C200     		.sleb128 66
 3060 02d3 0C       		.uleb128 0xc
 3061 02d4 11200000 		.4byte	.LASF83
 3062 02d8 C300     		.sleb128 67
 3063 02da 0C       		.uleb128 0xc
 3064 02db 7F280000 		.4byte	.LASF84
 3065 02df C400     		.sleb128 68
 3066 02e1 0C       		.uleb128 0xc
 3067 02e2 65120000 		.4byte	.LASF85
 3068 02e6 C500     		.sleb128 69
 3069 02e8 0C       		.uleb128 0xc
 3070 02e9 82170000 		.4byte	.LASF86
 3071 02ed C600     		.sleb128 70
 3072 02ef 0C       		.uleb128 0xc
 3073 02f0 912A0000 		.4byte	.LASF87
 3074 02f4 C700     		.sleb128 71
 3075 02f6 0C       		.uleb128 0xc
 3076 02f7 B7140000 		.4byte	.LASF88
 3077 02fb C800     		.sleb128 72
 3078 02fd 0C       		.uleb128 0xc
 3079 02fe 13230000 		.4byte	.LASF89
 3080 0302 C900     		.sleb128 73
 3081 0304 0C       		.uleb128 0xc
 3082 0305 D9360000 		.4byte	.LASF90
 3083 0309 CA00     		.sleb128 74
 3084 030b 0C       		.uleb128 0xc
 3085 030c B4370000 		.4byte	.LASF91
 3086 0310 CB00     		.sleb128 75
 3087 0312 0C       		.uleb128 0xc
 3088 0313 F9070000 		.4byte	.LASF92
 3089 0317 CC00     		.sleb128 76
 3090 0319 0C       		.uleb128 0xc
 3091 031a D7220000 		.4byte	.LASF93
 3092 031e CD00     		.sleb128 77
 3093 0320 0C       		.uleb128 0xc
 3094 0321 64060000 		.4byte	.LASF94
 3095 0325 CE00     		.sleb128 78
 3096 0327 0C       		.uleb128 0xc
 3097 0328 88070000 		.4byte	.LASF95
 3098 032c CF00     		.sleb128 79
 3099 032e 0C       		.uleb128 0xc
 3100 032f DA0D0000 		.4byte	.LASF96
 3101 0333 D000     		.sleb128 80
 3102 0335 0C       		.uleb128 0xc
 3103 0336 3C2E0000 		.4byte	.LASF97
 3104 033a D100     		.sleb128 81
 3105 033c 0C       		.uleb128 0xc
 3106 033d 70260000 		.4byte	.LASF98
 3107 0341 D200     		.sleb128 82
 3108 0343 0C       		.uleb128 0xc
 3109 0344 3B140000 		.4byte	.LASF99
 3110 0348 D300     		.sleb128 83
 3111 034a 0C       		.uleb128 0xc
 3112 034b FC2E0000 		.4byte	.LASF100
 3113 034f D400     		.sleb128 84
ARM GAS  C:\Users\AHMED~1.ELE\AppData\Local\Temp\ccGujCBB.s 			page 74


 3114 0351 0C       		.uleb128 0xc
 3115 0352 5A280000 		.4byte	.LASF101
 3116 0356 D500     		.sleb128 85
 3117 0358 0C       		.uleb128 0xc
 3118 0359 22070000 		.4byte	.LASF102
 3119 035d D600     		.sleb128 86
 3120 035f 0C       		.uleb128 0xc
 3121 0360 99370000 		.4byte	.LASF103
 3122 0364 D700     		.sleb128 87
 3123 0366 0C       		.uleb128 0xc
 3124 0367 F32C0000 		.4byte	.LASF104
 3125 036b D800     		.sleb128 88
 3126 036d 0C       		.uleb128 0xc
 3127 036e 70120000 		.4byte	.LASF105
 3128 0372 D900     		.sleb128 89
 3129 0374 0C       		.uleb128 0xc
 3130 0375 9F2A0000 		.4byte	.LASF106
 3131 0379 DA00     		.sleb128 90
 3132 037b 0C       		.uleb128 0xc
 3133 037c F2270000 		.4byte	.LASF107
 3134 0380 DB00     		.sleb128 91
 3135 0382 0C       		.uleb128 0xc
 3136 0383 840A0000 		.4byte	.LASF108
 3137 0387 DC00     		.sleb128 92
 3138 0389 0C       		.uleb128 0xc
 3139 038a C8050000 		.4byte	.LASF109
 3140 038e DD00     		.sleb128 93
 3141 0390 0C       		.uleb128 0xc
 3142 0391 862C0000 		.4byte	.LASF110
 3143 0395 DE00     		.sleb128 94
 3144 0397 0C       		.uleb128 0xc
 3145 0398 ED090000 		.4byte	.LASF111
 3146 039c DF00     		.sleb128 95
 3147 039e 0C       		.uleb128 0xc
 3148 039f BC190000 		.4byte	.LASF112
 3149 03a3 E000     		.sleb128 96
 3150 03a5 0C       		.uleb128 0xc
 3151 03a6 D9310000 		.4byte	.LASF113
 3152 03aa E100     		.sleb128 97
 3153 03ac 0C       		.uleb128 0xc
 3154 03ad 67310000 		.4byte	.LASF114
 3155 03b1 E200     		.sleb128 98
 3156 03b3 0C       		.uleb128 0xc
 3157 03b4 3B110000 		.4byte	.LASF115
 3158 03b8 E300     		.sleb128 99
 3159 03ba 0C       		.uleb128 0xc
 3160 03bb 26330000 		.4byte	.LASF116
 3161 03bf E400     		.sleb128 100
 3162 03c1 0C       		.uleb128 0xc
 3163 03c2 96240000 		.4byte	.LASF117
 3164 03c6 E500     		.sleb128 101
 3165 03c8 0C       		.uleb128 0xc
 3166 03c9 20020000 		.4byte	.LASF118
 3167 03cd E600     		.sleb128 102
 3168 03cf 0C       		.uleb128 0xc
 3169 03d0 EA070000 		.4byte	.LASF119
 3170 03d4 E700     		.sleb128 103
ARM GAS  C:\Users\AHMED~1.ELE\AppData\Local\Temp\ccGujCBB.s 			page 75


 3171 03d6 0C       		.uleb128 0xc
 3172 03d7 311D0000 		.4byte	.LASF120
 3173 03db E800     		.sleb128 104
 3174 03dd 0C       		.uleb128 0xc
 3175 03de A0070000 		.4byte	.LASF121
 3176 03e2 E900     		.sleb128 105
 3177 03e4 0C       		.uleb128 0xc
 3178 03e5 42170000 		.4byte	.LASF122
 3179 03e9 EA00     		.sleb128 106
 3180 03eb 0C       		.uleb128 0xc
 3181 03ec BE310000 		.4byte	.LASF123
 3182 03f0 EB00     		.sleb128 107
 3183 03f2 0C       		.uleb128 0xc
 3184 03f3 92010000 		.4byte	.LASF124
 3185 03f7 EC00     		.sleb128 108
 3186 03f9 0C       		.uleb128 0xc
 3187 03fa F0200000 		.4byte	.LASF125
 3188 03fe ED00     		.sleb128 109
 3189 0400 0C       		.uleb128 0xc
 3190 0401 200E0000 		.4byte	.LASF126
 3191 0405 EE00     		.sleb128 110
 3192 0407 0C       		.uleb128 0xc
 3193 0408 C5220000 		.4byte	.LASF127
 3194 040c EF00     		.sleb128 111
 3195 040e 0C       		.uleb128 0xc
 3196 040f 9C1C0000 		.4byte	.LASF128
 3197 0413 F000     		.sleb128 112
 3198 0415 0C       		.uleb128 0xc
 3199 0416 6B050000 		.4byte	.LASF129
 3200 041a F100     		.sleb128 113
 3201 041c 0C       		.uleb128 0xc
 3202 041d 08240000 		.4byte	.LASF130
 3203 0421 F200     		.sleb128 114
 3204 0423 0C       		.uleb128 0xc
 3205 0424 7A2A0000 		.4byte	.LASF131
 3206 0428 F300     		.sleb128 115
 3207 042a 0C       		.uleb128 0xc
 3208 042b F50B0000 		.4byte	.LASF132
 3209 042f F400     		.sleb128 116
 3210 0431 0C       		.uleb128 0xc
 3211 0432 D8320000 		.4byte	.LASF133
 3212 0436 F500     		.sleb128 117
 3213 0438 0C       		.uleb128 0xc
 3214 0439 50170000 		.4byte	.LASF134
 3215 043d F600     		.sleb128 118
 3216 043f 0C       		.uleb128 0xc
 3217 0440 310F0000 		.4byte	.LASF135
 3218 0444 F700     		.sleb128 119
 3219 0446 0C       		.uleb128 0xc
 3220 0447 A90E0000 		.4byte	.LASF136
 3221 044b F800     		.sleb128 120
 3222 044d 0C       		.uleb128 0xc
 3223 044e F1100000 		.4byte	.LASF137
 3224 0452 F900     		.sleb128 121
 3225 0454 0C       		.uleb128 0xc
 3226 0455 23370000 		.4byte	.LASF138
 3227 0459 FA00     		.sleb128 122
ARM GAS  C:\Users\AHMED~1.ELE\AppData\Local\Temp\ccGujCBB.s 			page 76


 3228 045b 0C       		.uleb128 0xc
 3229 045c 9E130000 		.4byte	.LASF139
 3230 0460 FB00     		.sleb128 123
 3231 0462 0C       		.uleb128 0xc
 3232 0463 E61B0000 		.4byte	.LASF140
 3233 0467 FC00     		.sleb128 124
 3234 0469 0C       		.uleb128 0xc
 3235 046a E02F0000 		.4byte	.LASF141
 3236 046e FD00     		.sleb128 125
 3237 0470 0C       		.uleb128 0xc
 3238 0471 780D0000 		.4byte	.LASF142
 3239 0475 FE00     		.sleb128 126
 3240 0477 0C       		.uleb128 0xc
 3241 0478 16160000 		.4byte	.LASF143
 3242 047c FF00     		.sleb128 127
 3243 047e 0C       		.uleb128 0xc
 3244 047f 7A2E0000 		.4byte	.LASF144
 3245 0483 8001     		.sleb128 128
 3246 0485 0C       		.uleb128 0xc
 3247 0486 A1090000 		.4byte	.LASF145
 3248 048a 8101     		.sleb128 129
 3249 048c 0C       		.uleb128 0xc
 3250 048d 97030000 		.4byte	.LASF146
 3251 0491 8201     		.sleb128 130
 3252 0493 0C       		.uleb128 0xc
 3253 0494 95270000 		.4byte	.LASF147
 3254 0498 8301     		.sleb128 131
 3255 049a 0C       		.uleb128 0xc
 3256 049b B82C0000 		.4byte	.LASF148
 3257 049f 8401     		.sleb128 132
 3258 04a1 0C       		.uleb128 0xc
 3259 04a2 C2130000 		.4byte	.LASF149
 3260 04a6 8501     		.sleb128 133
 3261 04a8 0C       		.uleb128 0xc
 3262 04a9 320D0000 		.4byte	.LASF150
 3263 04ad 8601     		.sleb128 134
 3264 04af 0C       		.uleb128 0xc
 3265 04b0 9B0F0000 		.4byte	.LASF151
 3266 04b4 8701     		.sleb128 135
 3267 04b6 0C       		.uleb128 0xc
 3268 04b7 3A1B0000 		.4byte	.LASF152
 3269 04bb 8801     		.sleb128 136
 3270 04bd 0C       		.uleb128 0xc
 3271 04be F2130000 		.4byte	.LASF153
 3272 04c2 8901     		.sleb128 137
 3273 04c4 0C       		.uleb128 0xc
 3274 04c5 030D0000 		.4byte	.LASF154
 3275 04c9 8A01     		.sleb128 138
 3276 04cb 0C       		.uleb128 0xc
 3277 04cc F32D0000 		.4byte	.LASF155
 3278 04d0 8B01     		.sleb128 139
 3279 04d2 0C       		.uleb128 0xc
 3280 04d3 08350000 		.4byte	.LASF156
 3281 04d7 8C01     		.sleb128 140
 3282 04d9 0C       		.uleb128 0xc
 3283 04da 9A1F0000 		.4byte	.LASF157
 3284 04de 8D01     		.sleb128 141
ARM GAS  C:\Users\AHMED~1.ELE\AppData\Local\Temp\ccGujCBB.s 			page 77


 3285 04e0 0C       		.uleb128 0xc
 3286 04e1 44280000 		.4byte	.LASF158
 3287 04e5 8E01     		.sleb128 142
 3288 04e7 0C       		.uleb128 0xc
 3289 04e8 14170000 		.4byte	.LASF159
 3290 04ec 8F01     		.sleb128 143
 3291 04ee 0C       		.uleb128 0xc
 3292 04ef 61290000 		.4byte	.LASF160
 3293 04f3 9001     		.sleb128 144
 3294 04f5 0C       		.uleb128 0xc
 3295 04f6 55340000 		.4byte	.LASF161
 3296 04fa 9101     		.sleb128 145
 3297 04fc 0C       		.uleb128 0xc
 3298 04fd 09270000 		.4byte	.LASF162
 3299 0501 9201     		.sleb128 146
 3300 0503 0C       		.uleb128 0xc
 3301 0504 22320000 		.4byte	.LASF163
 3302 0508 9301     		.sleb128 147
 3303 050a 0C       		.uleb128 0xc
 3304 050b BB1D0000 		.4byte	.LASF164
 3305 050f 9401     		.sleb128 148
 3306 0511 0C       		.uleb128 0xc
 3307 0512 C6000000 		.4byte	.LASF165
 3308 0516 9501     		.sleb128 149
 3309 0518 0C       		.uleb128 0xc
 3310 0519 580D0000 		.4byte	.LASF166
 3311 051d 9601     		.sleb128 150
 3312 051f 0C       		.uleb128 0xc
 3313 0520 2F150000 		.4byte	.LASF167
 3314 0524 9701     		.sleb128 151
 3315 0526 0C       		.uleb128 0xc
 3316 0527 AA1D0000 		.4byte	.LASF168
 3317 052b 9801     		.sleb128 152
 3318 052d 0C       		.uleb128 0xc
 3319 052e F5010000 		.4byte	.LASF169
 3320 0532 9901     		.sleb128 153
 3321 0534 0C       		.uleb128 0xc
 3322 0535 C4200000 		.4byte	.LASF170
 3323 0539 9A01     		.sleb128 154
 3324 053b 0C       		.uleb128 0xc
 3325 053c 83270000 		.4byte	.LASF171
 3326 0540 9B01     		.sleb128 155
 3327 0542 0C       		.uleb128 0xc
 3328 0543 B7390000 		.4byte	.LASF172
 3329 0547 9C01     		.sleb128 156
 3330 0549 0C       		.uleb128 0xc
 3331 054a A4000000 		.4byte	.LASF173
 3332 054e 9D01     		.sleb128 157
 3333 0550 0C       		.uleb128 0xc
 3334 0551 06160000 		.4byte	.LASF174
 3335 0555 9E01     		.sleb128 158
 3336 0557 0C       		.uleb128 0xc
 3337 0558 BB0E0000 		.4byte	.LASF175
 3338 055c 9F01     		.sleb128 159
 3339 055e 0C       		.uleb128 0xc
 3340 055f 680D0000 		.4byte	.LASF176
 3341 0563 A001     		.sleb128 160
ARM GAS  C:\Users\AHMED~1.ELE\AppData\Local\Temp\ccGujCBB.s 			page 78


 3342 0565 0C       		.uleb128 0xc
 3343 0566 D8290000 		.4byte	.LASF177
 3344 056a A101     		.sleb128 161
 3345 056c 0C       		.uleb128 0xc
 3346 056d BD260000 		.4byte	.LASF178
 3347 0571 A201     		.sleb128 162
 3348 0573 0C       		.uleb128 0xc
 3349 0574 7C060000 		.4byte	.LASF179
 3350 0578 A301     		.sleb128 163
 3351 057a 0C       		.uleb128 0xc
 3352 057b 94160000 		.4byte	.LASF180
 3353 057f A401     		.sleb128 164
 3354 0581 0C       		.uleb128 0xc
 3355 0582 420B0000 		.4byte	.LASF181
 3356 0586 A501     		.sleb128 165
 3357 0588 0C       		.uleb128 0xc
 3358 0589 25030000 		.4byte	.LASF182
 3359 058d A601     		.sleb128 166
 3360 058f 0C       		.uleb128 0xc
 3361 0590 21230000 		.4byte	.LASF183
 3362 0594 A701     		.sleb128 167
 3363 0596 0C       		.uleb128 0xc
 3364 0597 32210000 		.4byte	.LASF184
 3365 059b A801     		.sleb128 168
 3366 059d 0C       		.uleb128 0xc
 3367 059e 50070000 		.4byte	.LASF185
 3368 05a2 A901     		.sleb128 169
 3369 05a4 0C       		.uleb128 0xc
 3370 05a5 FC360000 		.4byte	.LASF186
 3371 05a9 AA01     		.sleb128 170
 3372 05ab 0C       		.uleb128 0xc
 3373 05ac 41260000 		.4byte	.LASF187
 3374 05b0 AB01     		.sleb128 171
 3375 05b2 0C       		.uleb128 0xc
 3376 05b3 1D340000 		.4byte	.LASF188
 3377 05b7 AC01     		.sleb128 172
 3378 05b9 0C       		.uleb128 0xc
 3379 05ba 51050000 		.4byte	.LASF189
 3380 05be AD01     		.sleb128 173
 3381 05c0 0C       		.uleb128 0xc
 3382 05c1 AB1C0000 		.4byte	.LASF190
 3383 05c5 AE01     		.sleb128 174
 3384 05c7 0C       		.uleb128 0xc
 3385 05c8 CF2E0000 		.4byte	.LASF191
 3386 05cc AF01     		.sleb128 175
 3387 05ce 0C       		.uleb128 0xc
 3388 05cf 92100000 		.4byte	.LASF192
 3389 05d3 B001     		.sleb128 176
 3390 05d5 0C       		.uleb128 0xc
 3391 05d6 86000000 		.4byte	.LASF193
 3392 05da B101     		.sleb128 177
 3393 05dc 0C       		.uleb128 0xc
 3394 05dd F31C0000 		.4byte	.LASF194
 3395 05e1 B201     		.sleb128 178
 3396 05e3 0C       		.uleb128 0xc
 3397 05e4 F7340000 		.4byte	.LASF195
 3398 05e8 B301     		.sleb128 179
ARM GAS  C:\Users\AHMED~1.ELE\AppData\Local\Temp\ccGujCBB.s 			page 79


 3399 05ea 0C       		.uleb128 0xc
 3400 05eb 18080000 		.4byte	.LASF196
 3401 05ef B401     		.sleb128 180
 3402 05f1 0C       		.uleb128 0xc
 3403 05f2 CA170000 		.4byte	.LASF197
 3404 05f6 B501     		.sleb128 181
 3405 05f8 0C       		.uleb128 0xc
 3406 05f9 B5080000 		.4byte	.LASF198
 3407 05fd B601     		.sleb128 182
 3408 05ff 0C       		.uleb128 0xc
 3409 0600 93290000 		.4byte	.LASF199
 3410 0604 B701     		.sleb128 183
 3411 0606 0C       		.uleb128 0xc
 3412 0607 540E0000 		.4byte	.LASF200
 3413 060b B801     		.sleb128 184
 3414 060d 0C       		.uleb128 0xc
 3415 060e 900C0000 		.4byte	.LASF201
 3416 0612 B901     		.sleb128 185
 3417 0614 0C       		.uleb128 0xc
 3418 0615 6A3A0000 		.4byte	.LASF202
 3419 0619 BA01     		.sleb128 186
 3420 061b 0C       		.uleb128 0xc
 3421 061c 8E2E0000 		.4byte	.LASF203
 3422 0620 BB01     		.sleb128 187
 3423 0622 0C       		.uleb128 0xc
 3424 0623 F2060000 		.4byte	.LASF204
 3425 0627 BC01     		.sleb128 188
 3426 0629 0C       		.uleb128 0xc
 3427 062a 72170000 		.4byte	.LASF205
 3428 062e BD01     		.sleb128 189
 3429 0630 0C       		.uleb128 0xc
 3430 0631 94060000 		.4byte	.LASF206
 3431 0635 BE01     		.sleb128 190
 3432 0637 0C       		.uleb128 0xc
 3433 0638 C70D0000 		.4byte	.LASF207
 3434 063c BF01     		.sleb128 191
 3435 063e 0C       		.uleb128 0xc
 3436 063f 1A130000 		.4byte	.LASF208
 3437 0643 C001     		.sleb128 192
 3438 0645 0C       		.uleb128 0xc
 3439 0646 87310000 		.4byte	.LASF209
 3440 064a C101     		.sleb128 193
 3441 064c 0C       		.uleb128 0xc
 3442 064d D01C0000 		.4byte	.LASF210
 3443 0651 C201     		.sleb128 194
 3444 0653 0C       		.uleb128 0xc
 3445 0654 21210000 		.4byte	.LASF211
 3446 0658 C301     		.sleb128 195
 3447 065a 0C       		.uleb128 0xc
 3448 065b 8C2D0000 		.4byte	.LASF212
 3449 065f C401     		.sleb128 196
 3450 0661 0C       		.uleb128 0xc
 3451 0662 28290000 		.4byte	.LASF213
 3452 0666 C501     		.sleb128 197
 3453 0668 0C       		.uleb128 0xc
 3454 0669 6C350000 		.4byte	.LASF214
 3455 066d C601     		.sleb128 198
ARM GAS  C:\Users\AHMED~1.ELE\AppData\Local\Temp\ccGujCBB.s 			page 80


 3456 066f 0C       		.uleb128 0xc
 3457 0670 EA020000 		.4byte	.LASF215
 3458 0674 C701     		.sleb128 199
 3459 0676 0C       		.uleb128 0xc
 3460 0677 A8240000 		.4byte	.LASF216
 3461 067b C801     		.sleb128 200
 3462 067d 0C       		.uleb128 0xc
 3463 067e 072E0000 		.4byte	.LASF217
 3464 0682 C901     		.sleb128 201
 3465 0684 0C       		.uleb128 0xc
 3466 0685 E5250000 		.4byte	.LASF218
 3467 0689 CA01     		.sleb128 202
 3468 068b 0C       		.uleb128 0xc
 3469 068c A6080000 		.4byte	.LASF219
 3470 0690 CB01     		.sleb128 203
 3471 0692 0C       		.uleb128 0xc
 3472 0693 2B110000 		.4byte	.LASF220
 3473 0697 CC01     		.sleb128 204
 3474 0699 0C       		.uleb128 0xc
 3475 069a 872B0000 		.4byte	.LASF221
 3476 069e CD01     		.sleb128 205
 3477 06a0 0C       		.uleb128 0xc
 3478 06a1 A62F0000 		.4byte	.LASF222
 3479 06a5 CE01     		.sleb128 206
 3480 06a7 0C       		.uleb128 0xc
 3481 06a8 DA120000 		.4byte	.LASF223
 3482 06ac CF01     		.sleb128 207
 3483 06ae 0C       		.uleb128 0xc
 3484 06af 64240000 		.4byte	.LASF224
 3485 06b3 D001     		.sleb128 208
 3486 06b5 0C       		.uleb128 0xc
 3487 06b6 DA160000 		.4byte	.LASF225
 3488 06ba D101     		.sleb128 209
 3489 06bc 0C       		.uleb128 0xc
 3490 06bd 15100000 		.4byte	.LASF226
 3491 06c1 D201     		.sleb128 210
 3492 06c3 0C       		.uleb128 0xc
 3493 06c4 36350000 		.4byte	.LASF227
 3494 06c8 D301     		.sleb128 211
 3495 06ca 0C       		.uleb128 0xc
 3496 06cb 762D0000 		.4byte	.LASF228
 3497 06cf D401     		.sleb128 212
 3498 06d1 0C       		.uleb128 0xc
 3499 06d2 E1100000 		.4byte	.LASF229
 3500 06d6 D501     		.sleb128 213
 3501 06d8 0C       		.uleb128 0xc
 3502 06d9 93190000 		.4byte	.LASF230
 3503 06dd D601     		.sleb128 214
 3504 06df 0C       		.uleb128 0xc
 3505 06e0 6E150000 		.4byte	.LASF231
 3506 06e4 D701     		.sleb128 215
 3507 06e6 0C       		.uleb128 0xc
 3508 06e7 EA120000 		.4byte	.LASF232
 3509 06eb D801     		.sleb128 216
 3510 06ed 0C       		.uleb128 0xc
 3511 06ee 05360000 		.4byte	.LASF233
 3512 06f2 D901     		.sleb128 217
ARM GAS  C:\Users\AHMED~1.ELE\AppData\Local\Temp\ccGujCBB.s 			page 81


 3513 06f4 0C       		.uleb128 0xc
 3514 06f5 2B190000 		.4byte	.LASF234
 3515 06f9 DA01     		.sleb128 218
 3516 06fb 0C       		.uleb128 0xc
 3517 06fc 32060000 		.4byte	.LASF235
 3518 0700 DB01     		.sleb128 219
 3519 0702 0C       		.uleb128 0xc
 3520 0703 0E090000 		.4byte	.LASF236
 3521 0707 DC01     		.sleb128 220
 3522 0709 0C       		.uleb128 0xc
 3523 070a 7A340000 		.4byte	.LASF237
 3524 070e DD01     		.sleb128 221
 3525 0710 0C       		.uleb128 0xc
 3526 0711 17180000 		.4byte	.LASF238
 3527 0715 DE01     		.sleb128 222
 3528 0717 0C       		.uleb128 0xc
 3529 0718 41150000 		.4byte	.LASF239
 3530 071c DF01     		.sleb128 223
 3531 071e 0C       		.uleb128 0xc
 3532 071f 29170000 		.4byte	.LASF240
 3533 0723 E001     		.sleb128 224
 3534 0725 0C       		.uleb128 0xc
 3535 0726 74040000 		.4byte	.LASF241
 3536 072a E101     		.sleb128 225
 3537 072c 0C       		.uleb128 0xc
 3538 072d F21A0000 		.4byte	.LASF242
 3539 0731 E201     		.sleb128 226
 3540 0733 0C       		.uleb128 0xc
 3541 0734 4E1F0000 		.4byte	.LASF243
 3542 0738 E301     		.sleb128 227
 3543 073a 0C       		.uleb128 0xc
 3544 073b E5150000 		.4byte	.LASF244
 3545 073f E401     		.sleb128 228
 3546 0741 0C       		.uleb128 0xc
 3547 0742 46130000 		.4byte	.LASF245
 3548 0746 E501     		.sleb128 229
 3549 0748 0C       		.uleb128 0xc
 3550 0749 2F200000 		.4byte	.LASF246
 3551 074d E601     		.sleb128 230
 3552 074f 0C       		.uleb128 0xc
 3553 0750 6A180000 		.4byte	.LASF247
 3554 0754 E701     		.sleb128 231
 3555 0756 0C       		.uleb128 0xc
 3556 0757 B80C0000 		.4byte	.LASF248
 3557 075b E801     		.sleb128 232
 3558 075d 0C       		.uleb128 0xc
 3559 075e 73380000 		.4byte	.LASF249
 3560 0762 E901     		.sleb128 233
 3561 0764 0C       		.uleb128 0xc
 3562 0765 3C310000 		.4byte	.LASF250
 3563 0769 EA01     		.sleb128 234
 3564 076b 0C       		.uleb128 0xc
 3565 076c 26240000 		.4byte	.LASF251
 3566 0770 EB01     		.sleb128 235
 3567 0772 0C       		.uleb128 0xc
 3568 0773 0F320000 		.4byte	.LASF252
 3569 0777 EC01     		.sleb128 236
ARM GAS  C:\Users\AHMED~1.ELE\AppData\Local\Temp\ccGujCBB.s 			page 82


 3570 0779 0C       		.uleb128 0xc
 3571 077a 6C2E0000 		.4byte	.LASF253
 3572 077e ED01     		.sleb128 237
 3573 0780 0C       		.uleb128 0xc
 3574 0781 0B080000 		.4byte	.LASF254
 3575 0785 EE01     		.sleb128 238
 3576 0787 0C       		.uleb128 0xc
 3577 0788 7A320000 		.4byte	.LASF255
 3578 078c EF01     		.sleb128 239
 3579 078e 0C       		.uleb128 0xc
 3580 078f 65360000 		.4byte	.LASF256
 3581 0793 F001     		.sleb128 240
 3582 0795 0C       		.uleb128 0xc
 3583 0796 48230000 		.4byte	.LASF257
 3584 079a F101     		.sleb128 241
 3585 079c 0C       		.uleb128 0xc
 3586 079d 40340000 		.4byte	.LASF258
 3587 07a1 F201     		.sleb128 242
 3588 07a3 0C       		.uleb128 0xc
 3589 07a4 2B1F0000 		.4byte	.LASF259
 3590 07a8 F301     		.sleb128 243
 3591 07aa 0C       		.uleb128 0xc
 3592 07ab F10A0000 		.4byte	.LASF260
 3593 07af F401     		.sleb128 244
 3594 07b1 0C       		.uleb128 0xc
 3595 07b2 C52A0000 		.4byte	.LASF261
 3596 07b6 F501     		.sleb128 245
 3597 07b8 0C       		.uleb128 0xc
 3598 07b9 402B0000 		.4byte	.LASF262
 3599 07bd F601     		.sleb128 246
 3600 07bf 0C       		.uleb128 0xc
 3601 07c0 680E0000 		.4byte	.LASF263
 3602 07c4 F701     		.sleb128 247
 3603 07c6 0C       		.uleb128 0xc
 3604 07c7 68230000 		.4byte	.LASF264
 3605 07cb F801     		.sleb128 248
 3606 07cd 0C       		.uleb128 0xc
 3607 07ce 04180000 		.4byte	.LASF265
 3608 07d2 F901     		.sleb128 249
 3609 07d4 0C       		.uleb128 0xc
 3610 07d5 3F1E0000 		.4byte	.LASF266
 3611 07d9 FA01     		.sleb128 250
 3612 07db 0C       		.uleb128 0xc
 3613 07dc B11A0000 		.4byte	.LASF267
 3614 07e0 FB01     		.sleb128 251
 3615 07e2 0C       		.uleb128 0xc
 3616 07e3 73390000 		.4byte	.LASF268
 3617 07e7 FC01     		.sleb128 252
 3618 07e9 0C       		.uleb128 0xc
 3619 07ea 8F130000 		.4byte	.LASF269
 3620 07ee FD01     		.sleb128 253
 3621 07f0 0C       		.uleb128 0xc
 3622 07f1 CA360000 		.4byte	.LASF270
 3623 07f5 FE01     		.sleb128 254
 3624 07f7 0C       		.uleb128 0xc
 3625 07f8 F4160000 		.4byte	.LASF271
 3626 07fc FF01     		.sleb128 255
ARM GAS  C:\Users\AHMED~1.ELE\AppData\Local\Temp\ccGujCBB.s 			page 83


 3627 07fe 0C       		.uleb128 0xc
 3628 07ff 46250000 		.4byte	.LASF272
 3629 0803 8002     		.sleb128 256
 3630 0805 0C       		.uleb128 0xc
 3631 0806 C01A0000 		.4byte	.LASF273
 3632 080a 8102     		.sleb128 257
 3633 080c 0C       		.uleb128 0xc
 3634 080d 06280000 		.4byte	.LASF274
 3635 0811 8202     		.sleb128 258
 3636 0813 0C       		.uleb128 0xc
 3637 0814 E22C0000 		.4byte	.LASF275
 3638 0818 8302     		.sleb128 259
 3639 081a 0C       		.uleb128 0xc
 3640 081b 60110000 		.4byte	.LASF276
 3641 081f 8402     		.sleb128 260
 3642 0821 0C       		.uleb128 0xc
 3643 0822 66090000 		.4byte	.LASF277
 3644 0826 8502     		.sleb128 261
 3645 0828 0C       		.uleb128 0xc
 3646 0829 83040000 		.4byte	.LASF278
 3647 082d 8602     		.sleb128 262
 3648 082f 0C       		.uleb128 0xc
 3649 0830 8B1C0000 		.4byte	.LASF279
 3650 0834 8702     		.sleb128 263
 3651 0836 0C       		.uleb128 0xc
 3652 0837 5F080000 		.4byte	.LASF280
 3653 083b 8802     		.sleb128 264
 3654 083d 0C       		.uleb128 0xc
 3655 083e DB140000 		.4byte	.LASF281
 3656 0842 8902     		.sleb128 265
 3657 0844 0C       		.uleb128 0xc
 3658 0845 D7300000 		.4byte	.LASF282
 3659 0849 8A02     		.sleb128 266
 3660 084b 0C       		.uleb128 0xc
 3661 084c C01C0000 		.4byte	.LASF283
 3662 0850 8B02     		.sleb128 267
 3663 0852 0C       		.uleb128 0xc
 3664 0853 48100000 		.4byte	.LASF284
 3665 0857 8C02     		.sleb128 268
 3666 0859 0C       		.uleb128 0xc
 3667 085a 2D2C0000 		.4byte	.LASF285
 3668 085e 8D02     		.sleb128 269
 3669 0860 0C       		.uleb128 0xc
 3670 0861 04110000 		.4byte	.LASF286
 3671 0865 8E02     		.sleb128 270
 3672 0867 0C       		.uleb128 0xc
 3673 0868 24090000 		.4byte	.LASF287
 3674 086c 8F02     		.sleb128 271
 3675 086e 0C       		.uleb128 0xc
 3676 086f AB0A0000 		.4byte	.LASF288
 3677 0873 9002     		.sleb128 272
 3678 0875 0C       		.uleb128 0xc
 3679 0876 D5020000 		.4byte	.LASF289
 3680 087a 9102     		.sleb128 273
 3681 087c 0C       		.uleb128 0xc
 3682 087d 61390000 		.4byte	.LASF290
 3683 0881 9202     		.sleb128 274
ARM GAS  C:\Users\AHMED~1.ELE\AppData\Local\Temp\ccGujCBB.s 			page 84


 3684 0883 0C       		.uleb128 0xc
 3685 0884 2A310000 		.4byte	.LASF291
 3686 0888 9302     		.sleb128 275
 3687 088a 0C       		.uleb128 0xc
 3688 088b DC380000 		.4byte	.LASF292
 3689 088f 9402     		.sleb128 276
 3690 0891 0C       		.uleb128 0xc
 3691 0892 E21E0000 		.4byte	.LASF293
 3692 0896 9502     		.sleb128 277
 3693 0898 0C       		.uleb128 0xc
 3694 0899 A9030000 		.4byte	.LASF294
 3695 089d 9602     		.sleb128 278
 3696 089f 0C       		.uleb128 0xc
 3697 08a0 3E1F0000 		.4byte	.LASF295
 3698 08a4 9702     		.sleb128 279
 3699 08a6 0C       		.uleb128 0xc
 3700 08a7 07050000 		.4byte	.LASF296
 3701 08ab 9802     		.sleb128 280
 3702 08ad 0C       		.uleb128 0xc
 3703 08ae 19310000 		.4byte	.LASF297
 3704 08b2 9902     		.sleb128 281
 3705 08b4 0C       		.uleb128 0xc
 3706 08b5 F9250000 		.4byte	.LASF298
 3707 08b9 9A02     		.sleb128 282
 3708 08bb 0C       		.uleb128 0xc
 3709 08bc 81020000 		.4byte	.LASF299
 3710 08c0 9B02     		.sleb128 283
 3711 08c2 0C       		.uleb128 0xc
 3712 08c3 D8090000 		.4byte	.LASF300
 3713 08c7 9C02     		.sleb128 284
 3714 08c9 0C       		.uleb128 0xc
 3715 08ca 751C0000 		.4byte	.LASF301
 3716 08ce 9D02     		.sleb128 285
 3717 08d0 0C       		.uleb128 0xc
 3718 08d1 0D190000 		.4byte	.LASF302
 3719 08d5 9E02     		.sleb128 286
 3720 08d7 0C       		.uleb128 0xc
 3721 08d8 01010000 		.4byte	.LASF303
 3722 08dc 9F02     		.sleb128 287
 3723 08de 0C       		.uleb128 0xc
 3724 08df 5F2D0000 		.4byte	.LASF304
 3725 08e3 A002     		.sleb128 288
 3726 08e5 0C       		.uleb128 0xc
 3727 08e6 E5040000 		.4byte	.LASF305
 3728 08ea A102     		.sleb128 289
 3729 08ec 0C       		.uleb128 0xc
 3730 08ed 36240000 		.4byte	.LASF306
 3731 08f1 A202     		.sleb128 290
 3732 08f3 0C       		.uleb128 0xc
 3733 08f4 2B300000 		.4byte	.LASF307
 3734 08f8 A302     		.sleb128 291
 3735 08fa 0C       		.uleb128 0xc
 3736 08fb 41290000 		.4byte	.LASF308
 3737 08ff A402     		.sleb128 292
 3738 0901 0C       		.uleb128 0xc
 3739 0902 AD150000 		.4byte	.LASF309
 3740 0906 A502     		.sleb128 293
ARM GAS  C:\Users\AHMED~1.ELE\AppData\Local\Temp\ccGujCBB.s 			page 85


 3741 0908 0C       		.uleb128 0xc
 3742 0909 58330000 		.4byte	.LASF310
 3743 090d A602     		.sleb128 294
 3744 090f 0C       		.uleb128 0xc
 3745 0910 622A0000 		.4byte	.LASF311
 3746 0914 A702     		.sleb128 295
 3747 0916 0C       		.uleb128 0xc
 3748 0917 AA270000 		.4byte	.LASF312
 3749 091b A802     		.sleb128 296
 3750 091d 0C       		.uleb128 0xc
 3751 091e D31F0000 		.4byte	.LASF313
 3752 0922 A902     		.sleb128 297
 3753 0924 0C       		.uleb128 0xc
 3754 0925 C9010000 		.4byte	.LASF314
 3755 0929 AA02     		.sleb128 298
 3756 092b 0C       		.uleb128 0xc
 3757 092c 4C000000 		.4byte	.LASF315
 3758 0930 AB02     		.sleb128 299
 3759 0932 0C       		.uleb128 0xc
 3760 0933 D1240000 		.4byte	.LASF316
 3761 0937 AC02     		.sleb128 300
 3762 0939 0C       		.uleb128 0xc
 3763 093a C6140000 		.4byte	.LASF317
 3764 093e AD02     		.sleb128 301
 3765 0940 0C       		.uleb128 0xc
 3766 0941 6F0C0000 		.4byte	.LASF318
 3767 0945 AE02     		.sleb128 302
 3768 0947 0C       		.uleb128 0xc
 3769 0948 2F0B0000 		.4byte	.LASF319
 3770 094c AF02     		.sleb128 303
 3771 094e 0C       		.uleb128 0xc
 3772 094f 9C300000 		.4byte	.LASF320
 3773 0953 B002     		.sleb128 304
 3774 0955 0C       		.uleb128 0xc
 3775 0956 FD390000 		.4byte	.LASF321
 3776 095a B102     		.sleb128 305
 3777 095c 0C       		.uleb128 0xc
 3778 095d 2C360000 		.4byte	.LASF322
 3779 0961 B202     		.sleb128 306
 3780 0963 0C       		.uleb128 0xc
 3781 0964 5B160000 		.4byte	.LASF323
 3782 0968 B302     		.sleb128 307
 3783 096a 0C       		.uleb128 0xc
 3784 096b FD210000 		.4byte	.LASF324
 3785 096f B402     		.sleb128 308
 3786 0971 0C       		.uleb128 0xc
 3787 0972 A7250000 		.4byte	.LASF325
 3788 0976 B502     		.sleb128 309
 3789 0978 0C       		.uleb128 0xc
 3790 0979 CC0B0000 		.4byte	.LASF326
 3791 097d B602     		.sleb128 310
 3792 097f 0C       		.uleb128 0xc
 3793 0980 13000000 		.4byte	.LASF327
 3794 0984 B702     		.sleb128 311
 3795 0986 0C       		.uleb128 0xc
 3796 0987 F10F0000 		.4byte	.LASF328
 3797 098b B802     		.sleb128 312
ARM GAS  C:\Users\AHMED~1.ELE\AppData\Local\Temp\ccGujCBB.s 			page 86


 3798 098d 0C       		.uleb128 0xc
 3799 098e 85300000 		.4byte	.LASF329
 3800 0992 B902     		.sleb128 313
 3801 0994 0C       		.uleb128 0xc
 3802 0995 32250000 		.4byte	.LASF330
 3803 0999 BA02     		.sleb128 314
 3804 099b 0C       		.uleb128 0xc
 3805 099c 1B280000 		.4byte	.LASF331
 3806 09a0 BB02     		.sleb128 315
 3807 09a2 0C       		.uleb128 0xc
 3808 09a3 42010000 		.4byte	.LASF332
 3809 09a7 BC02     		.sleb128 316
 3810 09a9 0C       		.uleb128 0xc
 3811 09aa 303A0000 		.4byte	.LASF333
 3812 09ae BD02     		.sleb128 317
 3813 09b0 0C       		.uleb128 0xc
 3814 09b1 A13A0000 		.4byte	.LASF334
 3815 09b5 BE02     		.sleb128 318
 3816 09b7 0C       		.uleb128 0xc
 3817 09b8 0D290000 		.4byte	.LASF335
 3818 09bc BF02     		.sleb128 319
 3819 09be 0C       		.uleb128 0xc
 3820 09bf 6D160000 		.4byte	.LASF336
 3821 09c3 C002     		.sleb128 320
 3822 09c5 0C       		.uleb128 0xc
 3823 09c6 BE370000 		.4byte	.LASF337
 3824 09ca C102     		.sleb128 321
 3825 09cc 0C       		.uleb128 0xc
 3826 09cd 1C060000 		.4byte	.LASF338
 3827 09d1 C202     		.sleb128 322
 3828 09d3 0C       		.uleb128 0xc
 3829 09d4 5F010000 		.4byte	.LASF339
 3830 09d8 C302     		.sleb128 323
 3831 09da 0C       		.uleb128 0xc
 3832 09db 54180000 		.4byte	.LASF340
 3833 09df C402     		.sleb128 324
 3834 09e1 0C       		.uleb128 0xc
 3835 09e2 0E2A0000 		.4byte	.LASF341
 3836 09e6 C502     		.sleb128 325
 3837 09e8 0C       		.uleb128 0xc
 3838 09e9 A61E0000 		.4byte	.LASF342
 3839 09ed C602     		.sleb128 326
 3840 09ef 0C       		.uleb128 0xc
 3841 09f0 B4120000 		.4byte	.LASF343
 3842 09f4 C702     		.sleb128 327
 3843 09f6 0C       		.uleb128 0xc
 3844 09f7 400A0000 		.4byte	.LASF344
 3845 09fb C802     		.sleb128 328
 3846 09fd 0C       		.uleb128 0xc
 3847 09fe 1A2F0000 		.4byte	.LASF345
 3848 0a02 C902     		.sleb128 329
 3849 0a04 0C       		.uleb128 0xc
 3850 0a05 BF2D0000 		.4byte	.LASF346
 3851 0a09 CA02     		.sleb128 330
 3852 0a0b 0C       		.uleb128 0xc
 3853 0a0c BE300000 		.4byte	.LASF347
 3854 0a10 CB02     		.sleb128 331
ARM GAS  C:\Users\AHMED~1.ELE\AppData\Local\Temp\ccGujCBB.s 			page 87


 3855 0a12 0C       		.uleb128 0xc
 3856 0a13 4B060000 		.4byte	.LASF348
 3857 0a17 CC02     		.sleb128 332
 3858 0a19 0C       		.uleb128 0xc
 3859 0a1a AE1F0000 		.4byte	.LASF349
 3860 0a1e CD02     		.sleb128 333
 3861 0a20 0C       		.uleb128 0xc
 3862 0a21 00230000 		.4byte	.LASF350
 3863 0a25 CE02     		.sleb128 334
 3864 0a27 0C       		.uleb128 0xc
 3865 0a28 EF370000 		.4byte	.LASF351
 3866 0a2c CF02     		.sleb128 335
 3867 0a2e 0C       		.uleb128 0xc
 3868 0a2f 08210000 		.4byte	.LASF352
 3869 0a33 D002     		.sleb128 336
 3870 0a35 0C       		.uleb128 0xc
 3871 0a36 6F0F0000 		.4byte	.LASF353
 3872 0a3a D102     		.sleb128 337
 3873 0a3c 0C       		.uleb128 0xc
 3874 0a3d 2B140000 		.4byte	.LASF354
 3875 0a41 D202     		.sleb128 338
 3876 0a43 0C       		.uleb128 0xc
 3877 0a44 1A1C0000 		.4byte	.LASF355
 3878 0a48 D302     		.sleb128 339
 3879 0a4a 0C       		.uleb128 0xc
 3880 0a4b 41040000 		.4byte	.LASF356
 3881 0a4f D402     		.sleb128 340
 3882 0a51 0C       		.uleb128 0xc
 3883 0a52 FD240000 		.4byte	.LASF357
 3884 0a56 D502     		.sleb128 341
 3885 0a58 0C       		.uleb128 0xc
 3886 0a59 4D370000 		.4byte	.LASF358
 3887 0a5d D602     		.sleb128 342
 3888 0a5f 0C       		.uleb128 0xc
 3889 0a60 BF270000 		.4byte	.LASF359
 3890 0a64 D702     		.sleb128 343
 3891 0a66 0C       		.uleb128 0xc
 3892 0a67 5A1E0000 		.4byte	.LASF360
 3893 0a6b D802     		.sleb128 344
 3894 0a6d 0C       		.uleb128 0xc
 3895 0a6e 6C280000 		.4byte	.LASF361
 3896 0a72 D902     		.sleb128 345
 3897 0a74 0C       		.uleb128 0xc
 3898 0a75 0E120000 		.4byte	.LASF362
 3899 0a79 DA02     		.sleb128 346
 3900 0a7b 0C       		.uleb128 0xc
 3901 0a7c 1C260000 		.4byte	.LASF363
 3902 0a80 DB02     		.sleb128 347
 3903 0a82 0C       		.uleb128 0xc
 3904 0a83 C21B0000 		.4byte	.LASF364
 3905 0a87 DC02     		.sleb128 348
 3906 0a89 0C       		.uleb128 0xc
 3907 0a8a 16270000 		.4byte	.LASF365
 3908 0a8e DD02     		.sleb128 349
 3909 0a90 0C       		.uleb128 0xc
 3910 0a91 911E0000 		.4byte	.LASF366
 3911 0a95 DE02     		.sleb128 350
ARM GAS  C:\Users\AHMED~1.ELE\AppData\Local\Temp\ccGujCBB.s 			page 88


 3912 0a97 0C       		.uleb128 0xc
 3913 0a98 B2360000 		.4byte	.LASF367
 3914 0a9c DF02     		.sleb128 351
 3915 0a9e 0C       		.uleb128 0xc
 3916 0a9f 94020000 		.4byte	.LASF368
 3917 0aa3 E002     		.sleb128 352
 3918 0aa5 0C       		.uleb128 0xc
 3919 0aa6 37130000 		.4byte	.LASF369
 3920 0aaa E102     		.sleb128 353
 3921 0aac 0C       		.uleb128 0xc
 3922 0aad F42F0000 		.4byte	.LASF370
 3923 0ab1 E202     		.sleb128 354
 3924 0ab3 0C       		.uleb128 0xc
 3925 0ab4 92180000 		.4byte	.LASF371
 3926 0ab8 E302     		.sleb128 355
 3927 0aba 0C       		.uleb128 0xc
 3928 0abb E2170000 		.4byte	.LASF372
 3929 0abf E402     		.sleb128 356
 3930 0ac1 0C       		.uleb128 0xc
 3931 0ac2 17110000 		.4byte	.LASF373
 3932 0ac6 E502     		.sleb128 357
 3933 0ac8 0C       		.uleb128 0xc
 3934 0ac9 292B0000 		.4byte	.LASF374
 3935 0acd E602     		.sleb128 358
 3936 0acf 0C       		.uleb128 0xc
 3937 0ad0 1F3A0000 		.4byte	.LASF375
 3938 0ad4 E702     		.sleb128 359
 3939 0ad6 0C       		.uleb128 0xc
 3940 0ad7 4C320000 		.4byte	.LASF376
 3941 0adb E802     		.sleb128 360
 3942 0add 0C       		.uleb128 0xc
 3943 0ade 66200000 		.4byte	.LASF377
 3944 0ae2 E902     		.sleb128 361
 3945 0ae4 0C       		.uleb128 0xc
 3946 0ae5 E92E0000 		.4byte	.LASF378
 3947 0ae9 EA02     		.sleb128 362
 3948 0aeb 0C       		.uleb128 0xc
 3949 0aec 36120000 		.4byte	.LASF379
 3950 0af0 EB02     		.sleb128 363
 3951 0af2 0C       		.uleb128 0xc
 3952 0af3 46120000 		.4byte	.LASF380
 3953 0af7 EC02     		.sleb128 364
 3954 0af9 0C       		.uleb128 0xc
 3955 0afa CB340000 		.4byte	.LASF381
 3956 0afe ED02     		.sleb128 365
 3957 0b00 0C       		.uleb128 0xc
 3958 0b01 89340000 		.4byte	.LASF382
 3959 0b05 EE02     		.sleb128 366
 3960 0b07 0C       		.uleb128 0xc
 3961 0b08 33070000 		.4byte	.LASF383
 3962 0b0c EF02     		.sleb128 367
 3963 0b0e 0C       		.uleb128 0xc
 3964 0b0f 07100000 		.4byte	.LASF384
 3965 0b13 F002     		.sleb128 368
 3966 0b15 0C       		.uleb128 0xc
 3967 0b16 4D080000 		.4byte	.LASF385
 3968 0b1a F102     		.sleb128 369
ARM GAS  C:\Users\AHMED~1.ELE\AppData\Local\Temp\ccGujCBB.s 			page 89


 3969 0b1c 0C       		.uleb128 0xc
 3970 0b1d 3D2C0000 		.4byte	.LASF386
 3971 0b21 F202     		.sleb128 370
 3972 0b23 0C       		.uleb128 0xc
 3973 0b24 A0120000 		.4byte	.LASF387
 3974 0b28 F302     		.sleb128 371
 3975 0b2a 0C       		.uleb128 0xc
 3976 0b2b FA230000 		.4byte	.LASF388
 3977 0b2f F402     		.sleb128 372
 3978 0b31 0C       		.uleb128 0xc
 3979 0b32 7A110000 		.4byte	.LASF389
 3980 0b36 F502     		.sleb128 373
 3981 0b38 0C       		.uleb128 0xc
 3982 0b39 0F340000 		.4byte	.LASF390
 3983 0b3d F602     		.sleb128 374
 3984 0b3f 0C       		.uleb128 0xc
 3985 0b40 3B090000 		.4byte	.LASF391
 3986 0b44 F702     		.sleb128 375
 3987 0b46 0C       		.uleb128 0xc
 3988 0b47 38380000 		.4byte	.LASF392
 3989 0b4b F802     		.sleb128 376
 3990 0b4d 0C       		.uleb128 0xc
 3991 0b4e 28180000 		.4byte	.LASF393
 3992 0b52 F902     		.sleb128 377
 3993 0b54 0C       		.uleb128 0xc
 3994 0b55 F41E0000 		.4byte	.LASF394
 3995 0b59 FA02     		.sleb128 378
 3996 0b5b 0C       		.uleb128 0xc
 3997 0b5c D3150000 		.4byte	.LASF395
 3998 0b60 FB02     		.sleb128 379
 3999 0b62 0C       		.uleb128 0xc
 4000 0b63 DE280000 		.4byte	.LASF396
 4001 0b67 FC02     		.sleb128 380
 4002 0b69 0C       		.uleb128 0xc
 4003 0b6a 50220000 		.4byte	.LASF397
 4004 0b6e FD02     		.sleb128 381
 4005 0b70 0C       		.uleb128 0xc
 4006 0b71 052D0000 		.4byte	.LASF398
 4007 0b75 FE02     		.sleb128 382
 4008 0b77 0C       		.uleb128 0xc
 4009 0b78 B7060000 		.4byte	.LASF399
 4010 0b7c FF02     		.sleb128 383
 4011 0b7e 0C       		.uleb128 0xc
 4012 0b7f 6D270000 		.4byte	.LASF400
 4013 0b83 8003     		.sleb128 384
 4014 0b85 0C       		.uleb128 0xc
 4015 0b86 DF130000 		.4byte	.LASF401
 4016 0b8a 8103     		.sleb128 385
 4017 0b8c 0C       		.uleb128 0xc
 4018 0b8d 74330000 		.4byte	.LASF402
 4019 0b91 8203     		.sleb128 386
 4020 0b93 0C       		.uleb128 0xc
 4021 0b94 7A190000 		.4byte	.LASF403
 4022 0b98 8303     		.sleb128 387
 4023 0b9a 0C       		.uleb128 0xc
 4024 0b9b 770B0000 		.4byte	.LASF404
 4025 0b9f 8403     		.sleb128 388
ARM GAS  C:\Users\AHMED~1.ELE\AppData\Local\Temp\ccGujCBB.s 			page 90


 4026 0ba1 0C       		.uleb128 0xc
 4027 0ba2 911D0000 		.4byte	.LASF405
 4028 0ba6 8503     		.sleb128 389
 4029 0ba8 0C       		.uleb128 0xc
 4030 0ba9 D0070000 		.4byte	.LASF406
 4031 0bad 8603     		.sleb128 390
 4032 0baf 0C       		.uleb128 0xc
 4033 0bb0 ED0C0000 		.4byte	.LASF407
 4034 0bb4 8703     		.sleb128 391
 4035 0bb6 0C       		.uleb128 0xc
 4036 0bb7 61250000 		.4byte	.LASF408
 4037 0bbb 8803     		.sleb128 392
 4038 0bbd 0C       		.uleb128 0xc
 4039 0bbe CC0E0000 		.4byte	.LASF409
 4040 0bc2 8903     		.sleb128 393
 4041 0bc4 0C       		.uleb128 0xc
 4042 0bc5 2F390000 		.4byte	.LASF410
 4043 0bc9 8A03     		.sleb128 394
 4044 0bcb 0C       		.uleb128 0xc
 4045 0bcc BF290000 		.4byte	.LASF411
 4046 0bd0 8B03     		.sleb128 395
 4047 0bd2 0C       		.uleb128 0xc
 4048 0bd3 A22E0000 		.4byte	.LASF412
 4049 0bd7 8C03     		.sleb128 396
 4050 0bd9 0C       		.uleb128 0xc
 4051 0bda 9E320000 		.4byte	.LASF413
 4052 0bde 8D03     		.sleb128 397
 4053 0be0 0C       		.uleb128 0xc
 4054 0be1 7D3A0000 		.4byte	.LASF414
 4055 0be5 8E03     		.sleb128 398
 4056 0be7 0C       		.uleb128 0xc
 4057 0be8 82230000 		.4byte	.LASF415
 4058 0bec 8F03     		.sleb128 399
 4059 0bee 0C       		.uleb128 0xc
 4060 0bef 7C140000 		.4byte	.LASF416
 4061 0bf3 9003     		.sleb128 400
 4062 0bf5 0C       		.uleb128 0xc
 4063 0bf6 B0310000 		.4byte	.LASF417
 4064 0bfa 9103     		.sleb128 401
 4065 0bfc 0C       		.uleb128 0xc
 4066 0bfd 61130000 		.4byte	.LASF418
 4067 0c01 9203     		.sleb128 402
 4068 0c03 0C       		.uleb128 0xc
 4069 0c04 AD220000 		.4byte	.LASF419
 4070 0c08 9303     		.sleb128 403
 4071 0c0a 0C       		.uleb128 0xc
 4072 0c0b 210B0000 		.4byte	.LASF420
 4073 0c0f 9403     		.sleb128 404
 4074 0c11 0C       		.uleb128 0xc
 4075 0c12 41070000 		.4byte	.LASF421
 4076 0c16 9503     		.sleb128 405
 4077 0c18 0C       		.uleb128 0xc
 4078 0c19 9A2B0000 		.4byte	.LASF422
 4079 0c1d 9603     		.sleb128 406
 4080 0c1f 0C       		.uleb128 0xc
 4081 0c20 A5060000 		.4byte	.LASF423
 4082 0c24 9703     		.sleb128 407
ARM GAS  C:\Users\AHMED~1.ELE\AppData\Local\Temp\ccGujCBB.s 			page 91


 4083 0c26 0C       		.uleb128 0xc
 4084 0c27 FD180000 		.4byte	.LASF424
 4085 0c2b 9803     		.sleb128 408
 4086 0c2d 0C       		.uleb128 0xc
 4087 0c2e 73240000 		.4byte	.LASF425
 4088 0c32 9903     		.sleb128 409
 4089 0c34 0C       		.uleb128 0xc
 4090 0c35 E1340000 		.4byte	.LASF426
 4091 0c39 9A03     		.sleb128 410
 4092 0c3b 0C       		.uleb128 0xc
 4093 0c3c 5E000000 		.4byte	.LASF427
 4094 0c40 9B03     		.sleb128 411
 4095 0c42 0C       		.uleb128 0xc
 4096 0c43 D91A0000 		.4byte	.LASF428
 4097 0c47 9C03     		.sleb128 412
 4098 0c49 0C       		.uleb128 0xc
 4099 0c4a 84240000 		.4byte	.LASF429
 4100 0c4e 9D03     		.sleb128 413
 4101 0c50 0C       		.uleb128 0xc
 4102 0c51 BA240000 		.4byte	.LASF430
 4103 0c55 9E03     		.sleb128 414
 4104 0c57 0C       		.uleb128 0xc
 4105 0c58 0A310000 		.4byte	.LASF431
 4106 0c5c 9F03     		.sleb128 415
 4107 0c5e 0C       		.uleb128 0xc
 4108 0c5f 59100000 		.4byte	.LASF432
 4109 0c63 A003     		.sleb128 416
 4110 0c65 0C       		.uleb128 0xc
 4111 0c66 F7150000 		.4byte	.LASF433
 4112 0c6a A103     		.sleb128 417
 4113 0c6c 0C       		.uleb128 0xc
 4114 0c6d 630C0000 		.4byte	.LASF434
 4115 0c71 A203     		.sleb128 418
 4116 0c73 0C       		.uleb128 0xc
 4117 0c74 BD0D0000 		.4byte	.LASF435
 4118 0c78 A303     		.sleb128 419
 4119 0c7a 0C       		.uleb128 0xc
 4120 0c7b 3C030000 		.4byte	.LASF436
 4121 0c7f A403     		.sleb128 420
 4122 0c81 0C       		.uleb128 0xc
 4123 0c82 15220000 		.4byte	.LASF437
 4124 0c86 A503     		.sleb128 421
 4125 0c88 0C       		.uleb128 0xc
 4126 0c89 90350000 		.4byte	.LASF438
 4127 0c8d A603     		.sleb128 422
 4128 0c8f 0C       		.uleb128 0xc
 4129 0c90 B6050000 		.4byte	.LASF439
 4130 0c94 A703     		.sleb128 423
 4131 0c96 0C       		.uleb128 0xc
 4132 0c97 1C1D0000 		.4byte	.LASF440
 4133 0c9b A803     		.sleb128 424
 4134 0c9d 0C       		.uleb128 0xc
 4135 0c9e AE020000 		.4byte	.LASF441
 4136 0ca2 A903     		.sleb128 425
 4137 0ca4 0C       		.uleb128 0xc
 4138 0ca5 3B080000 		.4byte	.LASF442
 4139 0ca9 AA03     		.sleb128 426
ARM GAS  C:\Users\AHMED~1.ELE\AppData\Local\Temp\ccGujCBB.s 			page 92


 4140 0cab 0C       		.uleb128 0xc
 4141 0cac 8F390000 		.4byte	.LASF443
 4142 0cb0 AB03     		.sleb128 427
 4143 0cb2 0C       		.uleb128 0xc
 4144 0cb3 2F270000 		.4byte	.LASF444
 4145 0cb7 AC03     		.sleb128 428
 4146 0cb9 0C       		.uleb128 0xc
 4147 0cba 13140000 		.4byte	.LASF445
 4148 0cbe AD03     		.sleb128 429
 4149 0cc0 0C       		.uleb128 0xc
 4150 0cc1 DC210000 		.4byte	.LASF446
 4151 0cc5 AE03     		.sleb128 430
 4152 0cc7 0C       		.uleb128 0xc
 4153 0cc8 87380000 		.4byte	.LASF447
 4154 0ccc AF03     		.sleb128 431
 4155 0cce 0C       		.uleb128 0xc
 4156 0ccf 34100000 		.4byte	.LASF448
 4157 0cd3 B003     		.sleb128 432
 4158 0cd5 0C       		.uleb128 0xc
 4159 0cd6 C5080000 		.4byte	.LASF449
 4160 0cda B103     		.sleb128 433
 4161 0cdc 0C       		.uleb128 0xc
 4162 0cdd DF200000 		.4byte	.LASF450
 4163 0ce1 B203     		.sleb128 434
 4164 0ce3 0C       		.uleb128 0xc
 4165 0ce4 99150000 		.4byte	.LASF451
 4166 0ce8 B303     		.sleb128 435
 4167 0cea 0C       		.uleb128 0xc
 4168 0ceb 79210000 		.4byte	.LASF452
 4169 0cef B403     		.sleb128 436
 4170 0cf1 0C       		.uleb128 0xc
 4171 0cf2 92080000 		.4byte	.LASF453
 4172 0cf6 B503     		.sleb128 437
 4173 0cf8 0C       		.uleb128 0xc
 4174 0cf9 45110000 		.4byte	.LASF454
 4175 0cfd B603     		.sleb128 438
 4176 0cff 0C       		.uleb128 0xc
 4177 0d00 861B0000 		.4byte	.LASF455
 4178 0d04 B703     		.sleb128 439
 4179 0d06 0C       		.uleb128 0xc
 4180 0d07 F4110000 		.4byte	.LASF456
 4181 0d0b B803     		.sleb128 440
 4182 0d0d 0C       		.uleb128 0xc
 4183 0d0e AA010000 		.4byte	.LASF457
 4184 0d12 B903     		.sleb128 441
 4185 0d14 0C       		.uleb128 0xc
 4186 0d15 A4140000 		.4byte	.LASF458
 4187 0d19 BA03     		.sleb128 442
 4188 0d1b 0C       		.uleb128 0xc
 4189 0d1c 4C2F0000 		.4byte	.LASF459
 4190 0d20 BB03     		.sleb128 443
 4191 0d22 0C       		.uleb128 0xc
 4192 0d23 2A0A0000 		.4byte	.LASF460
 4193 0d27 BC03     		.sleb128 444
 4194 0d29 0C       		.uleb128 0xc
 4195 0d2a 0F250000 		.4byte	.LASF461
 4196 0d2e BD03     		.sleb128 445
ARM GAS  C:\Users\AHMED~1.ELE\AppData\Local\Temp\ccGujCBB.s 			page 93


 4197 0d30 0C       		.uleb128 0xc
 4198 0d31 9D1A0000 		.4byte	.LASF462
 4199 0d35 BE03     		.sleb128 446
 4200 0d37 0C       		.uleb128 0xc
 4201 0d38 6E030000 		.4byte	.LASF463
 4202 0d3c BF03     		.sleb128 447
 4203 0d3e 0C       		.uleb128 0xc
 4204 0d3f CB110000 		.4byte	.LASF464
 4205 0d43 C003     		.sleb128 448
 4206 0d45 0C       		.uleb128 0xc
 4207 0d46 262A0000 		.4byte	.LASF465
 4208 0d4a C103     		.sleb128 449
 4209 0d4c 0C       		.uleb128 0xc
 4210 0d4d 30320000 		.4byte	.LASF466
 4211 0d51 C203     		.sleb128 450
 4212 0d53 0C       		.uleb128 0xc
 4213 0d54 B1320000 		.4byte	.LASF467
 4214 0d58 C303     		.sleb128 451
 4215 0d5a 0C       		.uleb128 0xc
 4216 0d5b 7D050000 		.4byte	.LASF468
 4217 0d5f C403     		.sleb128 452
 4218 0d61 0C       		.uleb128 0xc
 4219 0d62 F00E0000 		.4byte	.LASF469
 4220 0d66 C503     		.sleb128 453
 4221 0d68 0C       		.uleb128 0xc
 4222 0d69 F1050000 		.4byte	.LASF470
 4223 0d6d C603     		.sleb128 454
 4224 0d6f 0C       		.uleb128 0xc
 4225 0d70 3B180000 		.4byte	.LASF471
 4226 0d74 C703     		.sleb128 455
 4227 0d76 0C       		.uleb128 0xc
 4228 0d77 60370000 		.4byte	.LASF472
 4229 0d7b C803     		.sleb128 456
 4230 0d7d 0C       		.uleb128 0xc
 4231 0d7e 380C0000 		.4byte	.LASF473
 4232 0d82 C903     		.sleb128 457
 4233 0d84 0C       		.uleb128 0xc
 4234 0d85 6F220000 		.4byte	.LASF474
 4235 0d89 CA03     		.sleb128 458
 4236 0d8b 0C       		.uleb128 0xc
 4237 0d8c 89280000 		.4byte	.LASF475
 4238 0d90 CB03     		.sleb128 459
 4239 0d92 0C       		.uleb128 0xc
 4240 0d93 161B0000 		.4byte	.LASF476
 4241 0d97 CC03     		.sleb128 460
 4242 0d99 0C       		.uleb128 0xc
 4243 0d9a 58040000 		.4byte	.LASF477
 4244 0d9e CD03     		.sleb128 461
 4245 0da0 0C       		.uleb128 0xc
 4246 0da1 2D000000 		.4byte	.LASF478
 4247 0da5 CE03     		.sleb128 462
 4248 0da7 0C       		.uleb128 0xc
 4249 0da8 06020000 		.4byte	.LASF479
 4250 0dac CF03     		.sleb128 463
 4251 0dae 0C       		.uleb128 0xc
 4252 0daf A6160000 		.4byte	.LASF480
 4253 0db3 D003     		.sleb128 464
ARM GAS  C:\Users\AHMED~1.ELE\AppData\Local\Temp\ccGujCBB.s 			page 94


 4254 0db5 0C       		.uleb128 0xc
 4255 0db6 B4170000 		.4byte	.LASF481
 4256 0dba D103     		.sleb128 465
 4257 0dbc 0C       		.uleb128 0xc
 4258 0dbd D6330000 		.4byte	.LASF482
 4259 0dc1 D203     		.sleb128 466
 4260 0dc3 0C       		.uleb128 0xc
 4261 0dc4 FF2B0000 		.4byte	.LASF483
 4262 0dc8 D303     		.sleb128 467
 4263 0dca 0C       		.uleb128 0xc
 4264 0dcb 11030000 		.4byte	.LASF484
 4265 0dcf D403     		.sleb128 468
 4266 0dd1 0C       		.uleb128 0xc
 4267 0dd2 990A0000 		.4byte	.LASF485
 4268 0dd6 D503     		.sleb128 469
 4269 0dd8 0C       		.uleb128 0xc
 4270 0dd9 EB2A0000 		.4byte	.LASF486
 4271 0ddd D603     		.sleb128 470
 4272 0ddf 0C       		.uleb128 0xc
 4273 0de0 3F020000 		.4byte	.LASF487
 4274 0de4 D703     		.sleb128 471
 4275 0de6 0C       		.uleb128 0xc
 4276 0de7 CF260000 		.4byte	.LASF488
 4277 0deb D803     		.sleb128 472
 4278 0ded 00       		.byte	0
 4279 0dee 0D       		.uleb128 0xd
 4280 0def 01       		.byte	0x1
 4281 0df0 04       		.byte	0x4
 4282 0df1 910B     		.2byte	0xb91
 4283 0df3 7B100000 		.4byte	0x107b
 4284 0df7 0C       		.uleb128 0xc
 4285 0df8 D1030000 		.4byte	.LASF489
 4286 0dfc 00       		.sleb128 0
 4287 0dfd 0C       		.uleb128 0xc
 4288 0dfe 0F040000 		.4byte	.LASF490
 4289 0e02 01       		.sleb128 1
 4290 0e03 0C       		.uleb128 0xc
 4291 0e04 64340000 		.4byte	.LASF491
 4292 0e08 02       		.sleb128 2
 4293 0e09 0C       		.uleb128 0xc
 4294 0e0a BC0F0000 		.4byte	.LASF492
 4295 0e0e 03       		.sleb128 3
 4296 0e0f 0C       		.uleb128 0xc
 4297 0e10 441D0000 		.4byte	.LASF493
 4298 0e14 04       		.sleb128 4
 4299 0e15 0C       		.uleb128 0xc
 4300 0e16 4B2E0000 		.4byte	.LASF494
 4301 0e1a 05       		.sleb128 5
 4302 0e1b 0C       		.uleb128 0xc
 4303 0e1c 5C3A0000 		.4byte	.LASF495
 4304 0e20 06       		.sleb128 6
 4305 0e21 0C       		.uleb128 0xc
 4306 0e22 AC210000 		.4byte	.LASF496
 4307 0e26 07       		.sleb128 7
 4308 0e27 0C       		.uleb128 0xc
 4309 0e28 4E350000 		.4byte	.LASF497
 4310 0e2c 08       		.sleb128 8
ARM GAS  C:\Users\AHMED~1.ELE\AppData\Local\Temp\ccGujCBB.s 			page 95


 4311 0e2d 0C       		.uleb128 0xc
 4312 0e2e DB250000 		.4byte	.LASF498
 4313 0e32 09       		.sleb128 9
 4314 0e33 0C       		.uleb128 0xc
 4315 0e34 5C350000 		.4byte	.LASF499
 4316 0e38 0A       		.sleb128 10
 4317 0e39 0C       		.uleb128 0xc
 4318 0e3a 5E1C0000 		.4byte	.LASF500
 4319 0e3e 0B       		.sleb128 11
 4320 0e3f 0C       		.uleb128 0xc
 4321 0e40 02320000 		.4byte	.LASF501
 4322 0e44 0C       		.sleb128 12
 4323 0e45 0C       		.uleb128 0xc
 4324 0e46 AB0C0000 		.4byte	.LASF502
 4325 0e4a 0D       		.sleb128 13
 4326 0e4b 0C       		.uleb128 0xc
 4327 0e4c 4E0D0000 		.4byte	.LASF503
 4328 0e50 0E       		.sleb128 14
 4329 0e51 0C       		.uleb128 0xc
 4330 0e52 93170000 		.4byte	.LASF504
 4331 0e56 0F       		.sleb128 15
 4332 0e57 0C       		.uleb128 0xc
 4333 0e58 32020000 		.4byte	.LASF505
 4334 0e5c 10       		.sleb128 16
 4335 0e5d 0C       		.uleb128 0xc
 4336 0e5e 3A160000 		.4byte	.LASF506
 4337 0e62 11       		.sleb128 17
 4338 0e63 0C       		.uleb128 0xc
 4339 0e64 A2190000 		.4byte	.LASF507
 4340 0e68 12       		.sleb128 18
 4341 0e69 0C       		.uleb128 0xc
 4342 0e6a 2E2E0000 		.4byte	.LASF508
 4343 0e6e 13       		.sleb128 19
 4344 0e6f 0C       		.uleb128 0xc
 4345 0e70 C61D0000 		.4byte	.LASF509
 4346 0e74 14       		.sleb128 20
 4347 0e75 0C       		.uleb128 0xc
 4348 0e76 202C0000 		.4byte	.LASF510
 4349 0e7a 15       		.sleb128 21
 4350 0e7b 0C       		.uleb128 0xc
 4351 0e7c 37370000 		.4byte	.LASF511
 4352 0e80 16       		.sleb128 22
 4353 0e81 0C       		.uleb128 0xc
 4354 0e82 D52B0000 		.4byte	.LASF512
 4355 0e86 17       		.sleb128 23
 4356 0e87 0C       		.uleb128 0xc
 4357 0e88 291C0000 		.4byte	.LASF513
 4358 0e8c 18       		.sleb128 24
 4359 0e8d 0C       		.uleb128 0xc
 4360 0e8e B2130000 		.4byte	.LASF514
 4361 0e92 19       		.sleb128 25
 4362 0e93 0C       		.uleb128 0xc
 4363 0e94 8B060000 		.4byte	.LASF515
 4364 0e98 1A       		.sleb128 26
 4365 0e99 0C       		.uleb128 0xc
 4366 0e9a AB040000 		.4byte	.LASF516
 4367 0e9e 1B       		.sleb128 27
ARM GAS  C:\Users\AHMED~1.ELE\AppData\Local\Temp\ccGujCBB.s 			page 96


 4368 0e9f 0C       		.uleb128 0xc
 4369 0ea0 CB380000 		.4byte	.LASF517
 4370 0ea4 1C       		.sleb128 28
 4371 0ea5 0C       		.uleb128 0xc
 4372 0ea6 E61F0000 		.4byte	.LASF518
 4373 0eaa 1D       		.sleb128 29
 4374 0eab 0C       		.uleb128 0xc
 4375 0eac BC110000 		.4byte	.LASF519
 4376 0eb0 1E       		.sleb128 30
 4377 0eb1 0C       		.uleb128 0xc
 4378 0eb2 621D0000 		.4byte	.LASF520
 4379 0eb6 1F       		.sleb128 31
 4380 0eb7 0C       		.uleb128 0xc
 4381 0eb8 91360000 		.4byte	.LASF521
 4382 0ebc 20       		.sleb128 32
 4383 0ebd 0C       		.uleb128 0xc
 4384 0ebe 5F030000 		.4byte	.LASF522
 4385 0ec2 21       		.sleb128 33
 4386 0ec3 0C       		.uleb128 0xc
 4387 0ec4 8D210000 		.4byte	.LASF523
 4388 0ec8 22       		.sleb128 34
 4389 0ec9 0C       		.uleb128 0xc
 4390 0eca E50D0000 		.4byte	.LASF524
 4391 0ece 23       		.sleb128 35
 4392 0ecf 0C       		.uleb128 0xc
 4393 0ed0 EE380000 		.4byte	.LASF525
 4394 0ed4 24       		.sleb128 36
 4395 0ed5 0C       		.uleb128 0xc
 4396 0ed6 CC060000 		.4byte	.LASF526
 4397 0eda 25       		.sleb128 37
 4398 0edb 0C       		.uleb128 0xc
 4399 0edc 8C330000 		.4byte	.LASF527
 4400 0ee0 26       		.sleb128 38
 4401 0ee1 0C       		.uleb128 0xc
 4402 0ee2 6F000000 		.4byte	.LASF528
 4403 0ee6 27       		.sleb128 39
 4404 0ee7 0C       		.uleb128 0xc
 4405 0ee8 AE110000 		.4byte	.LASF529
 4406 0eec 28       		.sleb128 40
 4407 0eed 0C       		.uleb128 0xc
 4408 0eee A9370000 		.4byte	.LASF530
 4409 0ef2 29       		.sleb128 41
 4410 0ef3 0C       		.uleb128 0xc
 4411 0ef4 B8340000 		.4byte	.LASF531
 4412 0ef8 2A       		.sleb128 42
 4413 0ef9 0C       		.uleb128 0xc
 4414 0efa 74130000 		.4byte	.LASF532
 4415 0efe 2B       		.sleb128 43
 4416 0eff 0C       		.uleb128 0xc
 4417 0f00 C02B0000 		.4byte	.LASF533
 4418 0f04 2C       		.sleb128 44
 4419 0f05 0C       		.uleb128 0xc
 4420 0f06 FA140000 		.4byte	.LASF534
 4421 0f0a 2D       		.sleb128 45
 4422 0f0b 0C       		.uleb128 0xc
 4423 0f0c 9F230000 		.4byte	.LASF535
 4424 0f10 2E       		.sleb128 46
ARM GAS  C:\Users\AHMED~1.ELE\AppData\Local\Temp\ccGujCBB.s 			page 97


 4425 0f11 0C       		.uleb128 0xc
 4426 0f12 7F200000 		.4byte	.LASF536
 4427 0f16 2F       		.sleb128 47
 4428 0f17 0C       		.uleb128 0xc
 4429 0f18 F2030000 		.4byte	.LASF537
 4430 0f1c 30       		.sleb128 48
 4431 0f1d 0C       		.uleb128 0xc
 4432 0f1e 2A1B0000 		.4byte	.LASF538
 4433 0f22 31       		.sleb128 49
 4434 0f23 0C       		.uleb128 0xc
 4435 0f24 95310000 		.4byte	.LASF539
 4436 0f28 32       		.sleb128 50
 4437 0f29 0C       		.uleb128 0xc
 4438 0f2a E6230000 		.4byte	.LASF540
 4439 0f2e 33       		.sleb128 51
 4440 0f2f 0C       		.uleb128 0xc
 4441 0f30 04330000 		.4byte	.LASF541
 4442 0f34 34       		.sleb128 52
 4443 0f35 0C       		.uleb128 0xc
 4444 0f36 A1360000 		.4byte	.LASF542
 4445 0f3a 35       		.sleb128 53
 4446 0f3b 0C       		.uleb128 0xc
 4447 0f3c CE280000 		.4byte	.LASF543
 4448 0f40 36       		.sleb128 54
 4449 0f41 0C       		.uleb128 0xc
 4450 0f42 27160000 		.4byte	.LASF544
 4451 0f46 37       		.sleb128 55
 4452 0f47 0C       		.uleb128 0xc
 4453 0f48 23010000 		.4byte	.LASF545
 4454 0f4c 38       		.sleb128 56
 4455 0f4d 0C       		.uleb128 0xc
 4456 0f4e B8250000 		.4byte	.LASF546
 4457 0f52 39       		.sleb128 57
 4458 0f53 0C       		.uleb128 0xc
 4459 0f54 7D150000 		.4byte	.LASF547
 4460 0f58 3A       		.sleb128 58
 4461 0f59 0C       		.uleb128 0xc
 4462 0f5a 31280000 		.4byte	.LASF548
 4463 0f5e 3B       		.sleb128 59
 4464 0f5f 0C       		.uleb128 0xc
 4465 0f60 D82A0000 		.4byte	.LASF549
 4466 0f64 3C       		.sleb128 60
 4467 0f65 0C       		.uleb128 0xc
 4468 0f66 15010000 		.4byte	.LASF550
 4469 0f6a 3D       		.sleb128 61
 4470 0f6b 0C       		.uleb128 0xc
 4471 0f6c E7160000 		.4byte	.LASF551
 4472 0f70 3E       		.sleb128 62
 4473 0f71 0C       		.uleb128 0xc
 4474 0f72 82160000 		.4byte	.LASF552
 4475 0f76 3F       		.sleb128 63
 4476 0f77 0C       		.uleb128 0xc
 4477 0f78 42220000 		.4byte	.LASF553
 4478 0f7c C000     		.sleb128 64
 4479 0f7e 0C       		.uleb128 0xc
 4480 0f7f 481C0000 		.4byte	.LASF554
 4481 0f83 C100     		.sleb128 65
ARM GAS  C:\Users\AHMED~1.ELE\AppData\Local\Temp\ccGujCBB.s 			page 98


 4482 0f85 0C       		.uleb128 0xc
 4483 0f86 12330000 		.4byte	.LASF555
 4484 0f8a C200     		.sleb128 66
 4485 0f8c 0C       		.uleb128 0xc
 4486 0f8d 00000000 		.4byte	.LASF556
 4487 0f91 C300     		.sleb128 67
 4488 0f93 0C       		.uleb128 0xc
 4489 0f94 F81B0000 		.4byte	.LASF557
 4490 0f98 C400     		.sleb128 68
 4491 0f9a 0C       		.uleb128 0xc
 4492 0f9b 01070000 		.4byte	.LASF558
 4493 0f9f C500     		.sleb128 69
 4494 0fa1 0C       		.uleb128 0xc
 4495 0fa2 BD2E0000 		.4byte	.LASF559
 4496 0fa6 C600     		.sleb128 70
 4497 0fa8 0C       		.uleb128 0xc
 4498 0fa9 A2310000 		.4byte	.LASF560
 4499 0fad C700     		.sleb128 71
 4500 0faf 0C       		.uleb128 0xc
 4501 0fb0 381C0000 		.4byte	.LASF561
 4502 0fb4 C800     		.sleb128 72
 4503 0fb6 0C       		.uleb128 0xc
 4504 0fb7 332F0000 		.4byte	.LASF562
 4505 0fbb C900     		.sleb128 73
 4506 0fbd 0C       		.uleb128 0xc
 4507 0fbe 20120000 		.4byte	.LASF563
 4508 0fc2 CA00     		.sleb128 74
 4509 0fc4 0C       		.uleb128 0xc
 4510 0fc5 550B0000 		.4byte	.LASF564
 4511 0fc9 CB00     		.sleb128 75
 4512 0fcb 0C       		.uleb128 0xc
 4513 0fcc 232D0000 		.4byte	.LASF565
 4514 0fd0 CC00     		.sleb128 76
 4515 0fd2 0C       		.uleb128 0xc
 4516 0fd3 37230000 		.4byte	.LASF566
 4517 0fd7 CD00     		.sleb128 77
 4518 0fd9 0C       		.uleb128 0xc
 4519 0fda 4E090000 		.4byte	.LASF567
 4520 0fde CE00     		.sleb128 78
 4521 0fe0 0C       		.uleb128 0xc
 4522 0fe1 052B0000 		.4byte	.LASF568
 4523 0fe5 CF00     		.sleb128 79
 4524 0fe7 0C       		.uleb128 0xc
 4525 0fe8 9E200000 		.4byte	.LASF569
 4526 0fec D000     		.sleb128 80
 4527 0fee 0C       		.uleb128 0xc
 4528 0fef 45360000 		.4byte	.LASF570
 4529 0ff3 D100     		.sleb128 81
 4530 0ff5 0C       		.uleb128 0xc
 4531 0ff6 76290000 		.4byte	.LASF571
 4532 0ffa D200     		.sleb128 82
 4533 0ffc 0C       		.uleb128 0xc
 4534 0ffd 6D020000 		.4byte	.LASF572
 4535 1001 D300     		.sleb128 83
 4536 1003 0C       		.uleb128 0xc
 4537 1004 B4090000 		.4byte	.LASF573
 4538 1008 D400     		.sleb128 84
ARM GAS  C:\Users\AHMED~1.ELE\AppData\Local\Temp\ccGujCBB.s 			page 99


 4539 100a 0C       		.uleb128 0xc
 4540 100b 7F1E0000 		.4byte	.LASF574
 4541 100f D500     		.sleb128 85
 4542 1011 0C       		.uleb128 0xc
 4543 1012 521B0000 		.4byte	.LASF575
 4544 1016 D600     		.sleb128 86
 4545 1018 0C       		.uleb128 0xc
 4546 1019 DE000000 		.4byte	.LASF576
 4547 101d D700     		.sleb128 87
 4548 101f 0C       		.uleb128 0xc
 4549 1020 B7100000 		.4byte	.LASF577
 4550 1024 D800     		.sleb128 88
 4551 1026 0C       		.uleb128 0xc
 4552 1027 C6100000 		.4byte	.LASF578
 4553 102b D900     		.sleb128 89
 4554 102d 0C       		.uleb128 0xc
 4555 102e 850E0000 		.4byte	.LASF579
 4556 1032 DA00     		.sleb128 90
 4557 1034 0C       		.uleb128 0xc
 4558 1035 ED140000 		.4byte	.LASF580
 4559 1039 DB00     		.sleb128 91
 4560 103b 0C       		.uleb128 0xc
 4561 103c 2A1E0000 		.4byte	.LASF581
 4562 1040 DC00     		.sleb128 92
 4563 1042 0C       		.uleb128 0xc
 4564 1043 3F2F0000 		.4byte	.LASF582
 4565 1047 DD00     		.sleb128 93
 4566 1049 0C       		.uleb128 0xc
 4567 104a 7D180000 		.4byte	.LASF583
 4568 104e DE00     		.sleb128 94
 4569 1050 0C       		.uleb128 0xc
 4570 1051 E8360000 		.4byte	.LASF584
 4571 1055 DF00     		.sleb128 95
 4572 1057 0C       		.uleb128 0xc
 4573 1058 58270000 		.4byte	.LASF585
 4574 105c E000     		.sleb128 96
 4575 105e 0C       		.uleb128 0xc
 4576 105f CD1E0000 		.4byte	.LASF586
 4577 1063 E100     		.sleb128 97
 4578 1065 0C       		.uleb128 0xc
 4579 1066 580A0000 		.4byte	.LASF587
 4580 106a E200     		.sleb128 98
 4581 106c 0C       		.uleb128 0xc
 4582 106d EC310000 		.4byte	.LASF588
 4583 1071 E300     		.sleb128 99
 4584 1073 0C       		.uleb128 0xc
 4585 1074 5B240000 		.4byte	.LASF589
 4586 1078 E400     		.sleb128 100
 4587 107a 00       		.byte	0
 4588 107b 0D       		.uleb128 0xd
 4589 107c 02       		.byte	0x2
 4590 107d 04       		.byte	0x4
 4591 107e DD18     		.2byte	0x18dd
 4592 1080 A4100000 		.4byte	0x10a4
 4593 1084 0C       		.uleb128 0xc
 4594 1085 4C140000 		.4byte	.LASF590
 4595 1089 00       		.sleb128 0
ARM GAS  C:\Users\AHMED~1.ELE\AppData\Local\Temp\ccGujCBB.s 			page 100


 4596 108a 0C       		.uleb128 0xc
 4597 108b 66300000 		.4byte	.LASF591
 4598 108f 01       		.sleb128 1
 4599 1090 0C       		.uleb128 0xc
 4600 1091 7A1F0000 		.4byte	.LASF592
 4601 1095 02       		.sleb128 2
 4602 1096 0C       		.uleb128 0xc
 4603 1097 17050000 		.4byte	.LASF593
 4604 109b 03       		.sleb128 3
 4605 109c 0C       		.uleb128 0xc
 4606 109d 930B0000 		.4byte	.LASF594
 4607 10a1 8002     		.sleb128 256
 4608 10a3 00       		.byte	0
 4609 10a4 0D       		.uleb128 0xd
 4610 10a5 01       		.byte	0x1
 4611 10a6 05       		.byte	0x5
 4612 10a7 FE01     		.2byte	0x1fe
 4613 10a9 46130000 		.4byte	0x1346
 4614 10ad 0C       		.uleb128 0xc
 4615 10ae 87370000 		.4byte	.LASF595
 4616 10b2 00       		.sleb128 0
 4617 10b3 0C       		.uleb128 0xc
 4618 10b4 18380000 		.4byte	.LASF596
 4619 10b8 01       		.sleb128 1
 4620 10b9 0C       		.uleb128 0xc
 4621 10ba AD380000 		.4byte	.LASF597
 4622 10be 02       		.sleb128 2
 4623 10bf 0C       		.uleb128 0xc
 4624 10c0 FF090000 		.4byte	.LASF598
 4625 10c4 03       		.sleb128 3
 4626 10c5 0C       		.uleb128 0xc
 4627 10c6 BA040000 		.4byte	.LASF599
 4628 10ca 04       		.sleb128 4
 4629 10cb 0C       		.uleb128 0xc
 4630 10cc 5E020000 		.4byte	.LASF600
 4631 10d0 05       		.sleb128 5
 4632 10d1 0C       		.uleb128 0xc
 4633 10d2 CC2C0000 		.4byte	.LASF601
 4634 10d6 06       		.sleb128 6
 4635 10d7 0C       		.uleb128 0xc
 4636 10d8 EE350000 		.4byte	.LASF602
 4637 10dc 07       		.sleb128 7
 4638 10dd 0C       		.uleb128 0xc
 4639 10de 51260000 		.4byte	.LASF603
 4640 10e2 08       		.sleb128 8
 4641 10e3 0C       		.uleb128 0xc
 4642 10e4 56300000 		.4byte	.LASF604
 4643 10e8 09       		.sleb128 9
 4644 10e9 0C       		.uleb128 0xc
 4645 10ea 2F260000 		.4byte	.LASF605
 4646 10ee 0A       		.sleb128 10
 4647 10ef 0C       		.uleb128 0xc
 4648 10f0 4A310000 		.4byte	.LASF606
 4649 10f4 0B       		.sleb128 11
 4650 10f5 0C       		.uleb128 0xc
 4651 10f6 190C0000 		.4byte	.LASF607
 4652 10fa 0C       		.sleb128 12
ARM GAS  C:\Users\AHMED~1.ELE\AppData\Local\Temp\ccGujCBB.s 			page 101


 4653 10fb 0C       		.uleb128 0xc
 4654 10fc 0B2F0000 		.4byte	.LASF608
 4655 1100 0D       		.sleb128 13
 4656 1101 0C       		.uleb128 0xc
 4657 1102 C3250000 		.4byte	.LASF609
 4658 1106 0E       		.sleb128 14
 4659 1107 0C       		.uleb128 0xc
 4660 1108 A4290000 		.4byte	.LASF610
 4661 110c 0F       		.sleb128 15
 4662 110d 0C       		.uleb128 0xc
 4663 110e 8F090000 		.4byte	.LASF611
 4664 1112 10       		.sleb128 16
 4665 1113 0C       		.uleb128 0xc
 4666 1114 8E200000 		.4byte	.LASF612
 4667 1118 11       		.sleb128 17
 4668 1119 0C       		.uleb128 0xc
 4669 111a 7F090000 		.4byte	.LASF613
 4670 111e 12       		.sleb128 18
 4671 111f 0C       		.uleb128 0xc
 4672 1120 53200000 		.4byte	.LASF614
 4673 1124 13       		.sleb128 19
 4674 1125 0C       		.uleb128 0xc
 4675 1126 071C0000 		.4byte	.LASF615
 4676 112a 14       		.sleb128 20
 4677 112b 0C       		.uleb128 0xc
 4678 112c 34050000 		.4byte	.LASF616
 4679 1130 15       		.sleb128 21
 4680 1131 0C       		.uleb128 0xc
 4681 1132 8F250000 		.4byte	.LASF617
 4682 1136 16       		.sleb128 22
 4683 1137 0C       		.uleb128 0xc
 4684 1138 8D320000 		.4byte	.LASF618
 4685 113c 17       		.sleb128 23
 4686 113d 0C       		.uleb128 0xc
 4687 113e 59230000 		.4byte	.LASF619
 4688 1142 18       		.sleb128 24
 4689 1143 0C       		.uleb128 0xc
 4690 1144 69210000 		.4byte	.LASF620
 4691 1148 19       		.sleb128 25
 4692 1149 0C       		.uleb128 0xc
 4693 114a 8A0F0000 		.4byte	.LASF621
 4694 114e 1A       		.sleb128 26
 4695 114f 0C       		.uleb128 0xc
 4696 1150 9E1B0000 		.4byte	.LASF622
 4697 1154 1B       		.sleb128 27
 4698 1155 0C       		.uleb128 0xc
 4699 1156 A7100000 		.4byte	.LASF623
 4700 115a 1C       		.sleb128 28
 4701 115b 0C       		.uleb128 0xc
 4702 115c 48270000 		.4byte	.LASF624
 4703 1160 1D       		.sleb128 29
 4704 1161 0C       		.uleb128 0xc
 4705 1162 192B0000 		.4byte	.LASF625
 4706 1166 1E       		.sleb128 30
 4707 1167 0C       		.uleb128 0xc
 4708 1168 D00F0000 		.4byte	.LASF626
 4709 116c 1F       		.sleb128 31
ARM GAS  C:\Users\AHMED~1.ELE\AppData\Local\Temp\ccGujCBB.s 			page 102


 4710 116d 0C       		.uleb128 0xc
 4711 116e C6020000 		.4byte	.LASF627
 4712 1172 20       		.sleb128 32
 4713 1173 0C       		.uleb128 0xc
 4714 1174 4C3A0000 		.4byte	.LASF628
 4715 1178 21       		.sleb128 33
 4716 1179 0C       		.uleb128 0xc
 4717 117a C0230000 		.4byte	.LASF629
 4718 117e 22       		.sleb128 34
 4719 117f 0C       		.uleb128 0xc
 4720 1180 2F040000 		.4byte	.LASF630
 4721 1184 23       		.sleb128 35
 4722 1185 0C       		.uleb128 0xc
 4723 1186 F1170000 		.4byte	.LASF631
 4724 118a 24       		.sleb128 36
 4725 118b 0C       		.uleb128 0xc
 4726 118c C6180000 		.4byte	.LASF632
 4727 1190 25       		.sleb128 37
 4728 1191 0C       		.uleb128 0xc
 4729 1192 DE030000 		.4byte	.LASF633
 4730 1196 26       		.sleb128 38
 4731 1197 0C       		.uleb128 0xc
 4732 1198 E31D0000 		.4byte	.LASF634
 4733 119c 27       		.sleb128 39
 4734 119d 0C       		.uleb128 0xc
 4735 119e A9230000 		.4byte	.LASF635
 4736 11a2 28       		.sleb128 40
 4737 11a3 0C       		.uleb128 0xc
 4738 11a4 AA2B0000 		.4byte	.LASF636
 4739 11a8 29       		.sleb128 41
 4740 11a9 0C       		.uleb128 0xc
 4741 11aa 46240000 		.4byte	.LASF637
 4742 11ae 2A       		.sleb128 42
 4743 11af 0C       		.uleb128 0xc
 4744 11b0 4B380000 		.4byte	.LASF638
 4745 11b4 2B       		.sleb128 43
 4746 11b5 0C       		.uleb128 0xc
 4747 11b6 8F140000 		.4byte	.LASF639
 4748 11ba 2C       		.sleb128 44
 4749 11bb 0C       		.uleb128 0xc
 4750 11bc 72100000 		.4byte	.LASF640
 4751 11c0 2D       		.sleb128 45
 4752 11c1 0C       		.uleb128 0xc
 4753 11c2 67140000 		.4byte	.LASF641
 4754 11c6 2E       		.sleb128 46
 4755 11c7 0C       		.uleb128 0xc
 4756 11c8 F6290000 		.4byte	.LASF642
 4757 11cc 2F       		.sleb128 47
 4758 11cd 0C       		.uleb128 0xc
 4759 11ce 1C0F0000 		.4byte	.LASF643
 4760 11d2 30       		.sleb128 48
 4761 11d3 0C       		.uleb128 0xc
 4762 11d4 DC060000 		.4byte	.LASF644
 4763 11d8 31       		.sleb128 49
 4764 11d9 0C       		.uleb128 0xc
 4765 11da 641B0000 		.4byte	.LASF645
 4766 11de 32       		.sleb128 50
ARM GAS  C:\Users\AHMED~1.ELE\AppData\Local\Temp\ccGujCBB.s 			page 103


 4767 11df 0C       		.uleb128 0xc
 4768 11e0 6E0A0000 		.4byte	.LASF646
 4769 11e4 33       		.sleb128 51
 4770 11e5 0C       		.uleb128 0xc
 4771 11e6 F0000000 		.4byte	.LASF647
 4772 11ea 34       		.sleb128 52
 4773 11eb 0C       		.uleb128 0xc
 4774 11ec E1260000 		.4byte	.LASF648
 4775 11f0 35       		.sleb128 53
 4776 11f1 0C       		.uleb128 0xc
 4777 11f2 04300000 		.4byte	.LASF649
 4778 11f6 36       		.sleb128 54
 4779 11f7 0C       		.uleb128 0xc
 4780 11f8 33220000 		.4byte	.LASF650
 4781 11fc 37       		.sleb128 55
 4782 11fd 0C       		.uleb128 0xc
 4783 11fe 27130000 		.4byte	.LASF651
 4784 1202 38       		.sleb128 56
 4785 1203 0C       		.uleb128 0xc
 4786 1204 9B2D0000 		.4byte	.LASF652
 4787 1208 39       		.sleb128 57
 4788 1209 0C       		.uleb128 0xc
 4789 120a EB220000 		.4byte	.LASF653
 4790 120e 3A       		.sleb128 58
 4791 120f 0C       		.uleb128 0xc
 4792 1210 432A0000 		.4byte	.LASF654
 4793 1214 3B       		.sleb128 59
 4794 1215 0C       		.uleb128 0xc
 4795 1216 1A2E0000 		.4byte	.LASF655
 4796 121a 3C       		.sleb128 60
 4797 121b 0C       		.uleb128 0xc
 4798 121c F7300000 		.4byte	.LASF656
 4799 1220 3D       		.sleb128 61
 4800 1221 0C       		.uleb128 0xc
 4801 1222 932F0000 		.4byte	.LASF657
 4802 1226 3E       		.sleb128 62
 4803 1227 0C       		.uleb128 0xc
 4804 1228 081F0000 		.4byte	.LASF658
 4805 122c 3F       		.sleb128 63
 4806 122d 0C       		.uleb128 0xc
 4807 122e 31340000 		.4byte	.LASF659
 4808 1232 C000     		.sleb128 64
 4809 1234 0C       		.uleb128 0xc
 4810 1235 46300000 		.4byte	.LASF660
 4811 1239 C100     		.sleb128 65
 4812 123b 0C       		.uleb128 0xc
 4813 123c 210D0000 		.4byte	.LASF661
 4814 1240 C200     		.sleb128 66
 4815 1242 0C       		.uleb128 0xc
 4816 1243 110A0000 		.4byte	.LASF662
 4817 1247 C300     		.sleb128 67
 4818 1249 0C       		.uleb128 0xc
 4819 124a 8A0D0000 		.4byte	.LASF663
 4820 124e C400     		.sleb128 68
 4821 1250 0C       		.uleb128 0xc
 4822 1251 A2170000 		.4byte	.LASF664
 4823 1255 C500     		.sleb128 69
ARM GAS  C:\Users\AHMED~1.ELE\AppData\Local\Temp\ccGujCBB.s 			page 104


 4824 1257 0C       		.uleb128 0xc
 4825 1258 DA180000 		.4byte	.LASF665
 4826 125c C600     		.sleb128 70
 4827 125e 0C       		.uleb128 0xc
 4828 125f 5E150000 		.4byte	.LASF666
 4829 1263 C700     		.sleb128 71
 4830 1265 0C       		.uleb128 0xc
 4831 1266 42190000 		.4byte	.LASF667
 4832 126a C800     		.sleb128 72
 4833 126c 0C       		.uleb128 0xc
 4834 126d 7F010000 		.4byte	.LASF668
 4835 1271 C900     		.sleb128 73
 4836 1273 0C       		.uleb128 0xc
 4837 1274 EE320000 		.4byte	.LASF669
 4838 1278 CA00     		.sleb128 74
 4839 127a 0C       		.uleb128 0xc
 4840 127b 93220000 		.4byte	.LASF670
 4841 127f CB00     		.sleb128 75
 4842 1281 0C       		.uleb128 0xc
 4843 1282 6F2F0000 		.4byte	.LASF671
 4844 1286 CC00     		.sleb128 76
 4845 1288 0C       		.uleb128 0xc
 4846 1289 191F0000 		.4byte	.LASF672
 4847 128d CD00     		.sleb128 77
 4848 128f 0C       		.uleb128 0xc
 4849 1290 F9020000 		.4byte	.LASF673
 4850 1294 CE00     		.sleb128 78
 4851 1296 0C       		.uleb128 0xc
 4852 1297 14360000 		.4byte	.LASF674
 4853 129b CF00     		.sleb128 79
 4854 129d 0C       		.uleb128 0xc
 4855 129e BF0A0000 		.4byte	.LASF675
 4856 12a2 D000     		.sleb128 80
 4857 12a4 0C       		.uleb128 0xc
 4858 12a5 86030000 		.4byte	.LASF676
 4859 12a9 D100     		.sleb128 81
 4860 12ab 0C       		.uleb128 0xc
 4861 12ac 41200000 		.4byte	.LASF677
 4862 12b0 D200     		.sleb128 82
 4863 12b2 0C       		.uleb128 0xc
 4864 12b3 1E040000 		.4byte	.LASF678
 4865 12b7 D300     		.sleb128 83
 4866 12b9 0C       		.uleb128 0xc
 4867 12ba 6D2C0000 		.4byte	.LASF679
 4868 12be D400     		.sleb128 84
 4869 12c0 0C       		.uleb128 0xc
 4870 12c1 502C0000 		.4byte	.LASF680
 4871 12c5 D500     		.sleb128 85
 4872 12c7 0C       		.uleb128 0xc
 4873 12c8 CA390000 		.4byte	.LASF681
 4874 12cc D600     		.sleb128 86
 4875 12ce 0C       		.uleb128 0xc
 4876 12cf AE1B0000 		.4byte	.LASF682
 4877 12d3 D700     		.sleb128 87
 4878 12d5 0C       		.uleb128 0xc
 4879 12d6 0C260000 		.4byte	.LASF683
 4880 12da D800     		.sleb128 88
ARM GAS  C:\Users\AHMED~1.ELE\AppData\Local\Temp\ccGujCBB.s 			page 105


 4881 12dc 0C       		.uleb128 0xc
 4882 12dd B8070000 		.4byte	.LASF684
 4883 12e1 D900     		.sleb128 89
 4884 12e3 0C       		.uleb128 0xc
 4885 12e4 D30A0000 		.4byte	.LASF685
 4886 12e8 DA00     		.sleb128 90
 4887 12ea 0C       		.uleb128 0xc
 4888 12eb B1280000 		.4byte	.LASF686
 4889 12ef DB00     		.sleb128 91
 4890 12f1 0C       		.uleb128 0xc
 4891 12f2 98050000 		.4byte	.LASF687
 4892 12f6 DC00     		.sleb128 92
 4893 12f8 0C       		.uleb128 0xc
 4894 12f9 70080000 		.4byte	.LASF688
 4895 12fd DD00     		.sleb128 93
 4896 12ff 0C       		.uleb128 0xc
 4897 1300 582E0000 		.4byte	.LASF689
 4898 1304 DE00     		.sleb128 94
 4899 1306 0C       		.uleb128 0xc
 4900 1307 CC0C0000 		.4byte	.LASF690
 4901 130b DF00     		.sleb128 95
 4902 130d 0C       		.uleb128 0xc
 4903 130e 5B190000 		.4byte	.LASF691
 4904 1312 E000     		.sleb128 96
 4905 1314 0C       		.uleb128 0xc
 4906 1315 AF350000 		.4byte	.LASF692
 4907 1319 E100     		.sleb128 97
 4908 131b 0C       		.uleb128 0xc
 4909 131c DA370000 		.4byte	.LASF693
 4910 1320 E200     		.sleb128 98
 4911 1322 0C       		.uleb128 0xc
 4912 1323 B52F0000 		.4byte	.LASF694
 4913 1327 E300     		.sleb128 99
 4914 1329 0C       		.uleb128 0xc
 4915 132a 82120000 		.4byte	.LASF695
 4916 132e E400     		.sleb128 100
 4917 1330 0C       		.uleb128 0xc
 4918 1331 D5080000 		.4byte	.LASF696
 4919 1335 E500     		.sleb128 101
 4920 1337 0C       		.uleb128 0xc
 4921 1338 5F320000 		.4byte	.LASF697
 4922 133c E600     		.sleb128 102
 4923 133e 0C       		.uleb128 0xc
 4924 133f E91C0000 		.4byte	.LASF698
 4925 1343 E700     		.sleb128 103
 4926 1345 00       		.byte	0
 4927 1346 0E       		.uleb128 0xe
 4928 1347 45050000 		.4byte	.LASF757
 4929 134b 14       		.byte	0x14
 4930 134c 06       		.byte	0x6
 4931 134d 9A01     		.2byte	0x19a
 4932 134f 88130000 		.4byte	0x1388
 4933 1353 0F       		.uleb128 0xf
 4934 1354 A30D0000 		.4byte	.LASF699
 4935 1358 06       		.byte	0x6
 4936 1359 9B01     		.2byte	0x19b
 4937 135b C5000000 		.4byte	0xc5
ARM GAS  C:\Users\AHMED~1.ELE\AppData\Local\Temp\ccGujCBB.s 			page 106


 4938 135f 00       		.byte	0
 4939 1360 0F       		.uleb128 0xf
 4940 1361 A80D0000 		.4byte	.LASF700
 4941 1365 06       		.byte	0x6
 4942 1366 9C01     		.2byte	0x19c
 4943 1368 C5000000 		.4byte	0xc5
 4944 136c 04       		.byte	0x4
 4945 136d 0F       		.uleb128 0xf
 4946 136e 57250000 		.4byte	.LASF701
 4947 1372 06       		.byte	0x6
 4948 1373 9D01     		.2byte	0x19d
 4949 1375 C5000000 		.4byte	0xc5
 4950 1379 08       		.byte	0x8
 4951 137a 0F       		.uleb128 0xf
 4952 137b 02340000 		.4byte	.LASF702
 4953 137f 06       		.byte	0x6
 4954 1380 9E01     		.2byte	0x19e
 4955 1382 F1000000 		.4byte	0xf1
 4956 1386 0C       		.byte	0xc
 4957 1387 00       		.byte	0
 4958 1388 06       		.uleb128 0x6
 4959 1389 04       		.byte	0x4
 4960 138a C5000000 		.4byte	0xc5
 4961 138e 0D       		.uleb128 0xd
 4962 138f 01       		.byte	0x1
 4963 1390 06       		.byte	0x6
 4964 1391 DC07     		.2byte	0x7dc
 4965 1393 DC140000 		.4byte	0x14dc
 4966 1397 0C       		.uleb128 0xc
 4967 1398 B2190000 		.4byte	.LASF703
 4968 139c 00       		.sleb128 0
 4969 139d 0C       		.uleb128 0xc
 4970 139e 392D0000 		.4byte	.LASF704
 4971 13a2 01       		.sleb128 1
 4972 13a3 0C       		.uleb128 0xc
 4973 13a4 1D090000 		.4byte	.LASF705
 4974 13a8 02       		.sleb128 2
 4975 13a9 0C       		.uleb128 0xc
 4976 13aa 80070000 		.4byte	.LASF706
 4977 13ae 03       		.sleb128 3
 4978 13af 0C       		.uleb128 0xc
 4979 13b0 A0390000 		.4byte	.LASF707
 4980 13b4 04       		.sleb128 4
 4981 13b5 0C       		.uleb128 0xc
 4982 13b6 72340000 		.4byte	.LASF708
 4983 13ba 05       		.sleb128 5
 4984 13bb 0C       		.uleb128 0xc
 4985 13bc 77200000 		.4byte	.LASF709
 4986 13c0 06       		.sleb128 6
 4987 13c1 0C       		.uleb128 0xc
 4988 13c2 CB150000 		.4byte	.LASF710
 4989 13c6 07       		.sleb128 7
 4990 13c7 0C       		.uleb128 0xc
 4991 13c8 000E0000 		.4byte	.LASF711
 4992 13cc 08       		.sleb128 8
 4993 13cd 0C       		.uleb128 0xc
 4994 13ce 01090000 		.4byte	.LASF712
ARM GAS  C:\Users\AHMED~1.ELE\AppData\Local\Temp\ccGujCBB.s 			page 107


 4995 13d2 09       		.sleb128 9
 4996 13d3 0C       		.uleb128 0xc
 4997 13d4 C0150000 		.4byte	.LASF713
 4998 13d8 0A       		.sleb128 10
 4999 13d9 0C       		.uleb128 0xc
 5000 13da 0F0C0000 		.4byte	.LASF714
 5001 13de 0B       		.sleb128 11
 5002 13df 0C       		.uleb128 0xc
 5003 13e0 B91E0000 		.4byte	.LASF715
 5004 13e4 0C       		.sleb128 12
 5005 13e5 0C       		.uleb128 0xc
 5006 13e6 77010000 		.4byte	.LASF716
 5007 13ea 0D       		.sleb128 13
 5008 13eb 0C       		.uleb128 0xc
 5009 13ec F8080000 		.4byte	.LASF717
 5010 13f0 0E       		.sleb128 14
 5011 13f1 0C       		.uleb128 0xc
 5012 13f2 481B0000 		.4byte	.LASF718
 5013 13f6 0F       		.sleb128 15
 5014 13f7 0C       		.uleb128 0xc
 5015 13f8 5D360000 		.4byte	.LASF719
 5016 13fc 10       		.sleb128 16
 5017 13fd 0C       		.uleb128 0xc
 5018 13fe 9A330000 		.4byte	.LASF720
 5019 1402 11       		.sleb128 17
 5020 1403 0C       		.uleb128 0xc
 5021 1404 7C0E0000 		.4byte	.LASF721
 5022 1408 12       		.sleb128 18
 5023 1409 0C       		.uleb128 0xc
 5024 140a 2E080000 		.4byte	.LASF722
 5025 140e 13       		.sleb128 19
 5026 140f 0C       		.uleb128 0xc
 5027 1410 C2380000 		.4byte	.LASF723
 5028 1414 14       		.sleb128 20
 5029 1415 0C       		.uleb128 0xc
 5030 1416 940E0000 		.4byte	.LASF724
 5031 141a 15       		.sleb128 21
 5032 141b 0C       		.uleb128 0xc
 5033 141c 751D0000 		.4byte	.LASF725
 5034 1420 16       		.sleb128 22
 5035 1421 0C       		.uleb128 0xc
 5036 1422 0F130000 		.4byte	.LASF726
 5037 1426 17       		.sleb128 23
 5038 1427 0C       		.uleb128 0xc
 5039 1428 511E0000 		.4byte	.LASF727
 5040 142c 18       		.sleb128 24
 5041 142d 0C       		.uleb128 0xc
 5042 142e FF350000 		.4byte	.LASF728
 5043 1432 19       		.sleb128 25
 5044 1433 0C       		.uleb128 0xc
 5045 1434 1B070000 		.4byte	.LASF729
 5046 1438 1A       		.sleb128 26
 5047 1439 0C       		.uleb128 0xc
 5048 143a B20D0000 		.4byte	.LASF730
 5049 143e 1B       		.sleb128 27
 5050 143f 0C       		.uleb128 0xc
 5051 1440 F9040000 		.4byte	.LASF731
ARM GAS  C:\Users\AHMED~1.ELE\AppData\Local\Temp\ccGujCBB.s 			page 108


 5052 1444 1C       		.sleb128 28
 5053 1445 0C       		.uleb128 0xc
 5054 1446 D0350000 		.4byte	.LASF732
 5055 144a 1D       		.sleb128 29
 5056 144b 0C       		.uleb128 0xc
 5057 144c DD0E0000 		.4byte	.LASF733
 5058 1450 1E       		.sleb128 30
 5059 1451 0C       		.uleb128 0xc
 5060 1452 52160000 		.4byte	.LASF734
 5061 1456 1F       		.sleb128 31
 5062 1457 0C       		.uleb128 0xc
 5063 1458 AD2D0000 		.4byte	.LASF735
 5064 145c 20       		.sleb128 32
 5065 145d 0C       		.uleb128 0xc
 5066 145e 83390000 		.4byte	.LASF736
 5067 1462 21       		.sleb128 33
 5068 1463 0C       		.uleb128 0xc
 5069 1464 D41D0000 		.4byte	.LASF737
 5070 1468 22       		.sleb128 34
 5071 1469 0C       		.uleb128 0xc
 5072 146a 24100000 		.4byte	.LASF738
 5073 146e 23       		.sleb128 35
 5074 146f 0C       		.uleb128 0xc
 5075 1470 85360000 		.4byte	.LASF739
 5076 1474 24       		.sleb128 36
 5077 1475 0C       		.uleb128 0xc
 5078 1476 420D0000 		.4byte	.LASF740
 5079 147a 25       		.sleb128 37
 5080 147b 0C       		.uleb128 0xc
 5081 147c BD010000 		.4byte	.LASF741
 5082 1480 26       		.sleb128 38
 5083 1481 0C       		.uleb128 0xc
 5084 1482 CC320000 		.4byte	.LASF742
 5085 1486 27       		.sleb128 39
 5086 1487 0C       		.uleb128 0xc
 5087 1488 63220000 		.4byte	.LASF743
 5088 148c 28       		.sleb128 40
 5089 148d 0C       		.uleb128 0xc
 5090 148e FA260000 		.4byte	.LASF744
 5091 1492 29       		.sleb128 41
 5092 1493 0C       		.uleb128 0xc
 5093 1494 77230000 		.4byte	.LASF745
 5094 1498 2A       		.sleb128 42
 5095 1499 0C       		.uleb128 0xc
 5096 149a 640F0000 		.4byte	.LASF746
 5097 149e 2B       		.sleb128 43
 5098 149f 0C       		.uleb128 0xc
 5099 14a0 7C2B0000 		.4byte	.LASF747
 5100 14a4 2C       		.sleb128 44
 5101 14a5 0C       		.uleb128 0xc
 5102 14a6 890B0000 		.4byte	.LASF748
 5103 14aa 2D       		.sleb128 45
 5104 14ab 0C       		.uleb128 0xc
 5105 14ac DA010000 		.4byte	.LASF749
 5106 14b0 2E       		.sleb128 46
 5107 14b1 0C       		.uleb128 0xc
 5108 14b2 E51A0000 		.4byte	.LASF750
ARM GAS  C:\Users\AHMED~1.ELE\AppData\Local\Temp\ccGujCBB.s 			page 109


 5109 14b6 2F       		.sleb128 47
 5110 14b7 0C       		.uleb128 0xc
 5111 14b8 58210000 		.4byte	.LASF751
 5112 14bc 30       		.sleb128 48
 5113 14bd 0C       		.uleb128 0xc
 5114 14be D0160000 		.4byte	.LASF752
 5115 14c2 31       		.sleb128 49
 5116 14c3 0C       		.uleb128 0xc
 5117 14c4 E32B0000 		.4byte	.LASF753
 5118 14c8 32       		.sleb128 50
 5119 14c9 0C       		.uleb128 0xc
 5120 14ca 02040000 		.4byte	.LASF754
 5121 14ce 33       		.sleb128 51
 5122 14cf 0C       		.uleb128 0xc
 5123 14d0 AA340000 		.4byte	.LASF755
 5124 14d4 34       		.sleb128 52
 5125 14d5 0C       		.uleb128 0xc
 5126 14d6 E8290000 		.4byte	.LASF756
 5127 14da 35       		.sleb128 53
 5128 14db 00       		.byte	0
 5129 14dc 0E       		.uleb128 0xe
 5130 14dd DA340000 		.4byte	.LASF758
 5131 14e1 0C       		.byte	0xc
 5132 14e2 06       		.byte	0x6
 5133 14e3 6909     		.2byte	0x969
 5134 14e5 2B150000 		.4byte	0x152b
 5135 14e9 0F       		.uleb128 0xf
 5136 14ea 42060000 		.4byte	.LASF759
 5137 14ee 06       		.byte	0x6
 5138 14ef 6A09     		.2byte	0x96a
 5139 14f1 BA000000 		.4byte	0xba
 5140 14f5 00       		.byte	0
 5141 14f6 0F       		.uleb128 0xf
 5142 14f7 86130000 		.4byte	.LASF760
 5143 14fb 06       		.byte	0x6
 5144 14fc 6B09     		.2byte	0x96b
 5145 14fe BA000000 		.4byte	0xba
 5146 1502 02       		.byte	0x2
 5147 1503 0F       		.uleb128 0xf
 5148 1504 9C110000 		.4byte	.LASF761
 5149 1508 06       		.byte	0x6
 5150 1509 6C09     		.2byte	0x96c
 5151 150b BA000000 		.4byte	0xba
 5152 150f 04       		.byte	0x4
 5153 1510 0F       		.uleb128 0xf
 5154 1511 E7300000 		.4byte	.LASF762
 5155 1515 06       		.byte	0x6
 5156 1516 6D09     		.2byte	0x96d
 5157 1518 BA000000 		.4byte	0xba
 5158 151c 06       		.byte	0x6
 5159 151d 0F       		.uleb128 0xf
 5160 151e 59130000 		.4byte	.LASF763
 5161 1522 06       		.byte	0x6
 5162 1523 6E09     		.2byte	0x96e
 5163 1525 21010000 		.4byte	0x121
 5164 1529 08       		.byte	0x8
 5165 152a 00       		.byte	0
ARM GAS  C:\Users\AHMED~1.ELE\AppData\Local\Temp\ccGujCBB.s 			page 110


 5166 152b 10       		.uleb128 0x10
 5167 152c 01       		.byte	0x1
 5168 152d 07       		.byte	0x7
 5169 152e 7D       		.byte	0x7d
 5170 152f 64150000 		.4byte	0x1564
 5171 1533 0C       		.uleb128 0xc
 5172 1534 35010000 		.4byte	.LASF764
 5173 1538 00       		.sleb128 0
 5174 1539 0C       		.uleb128 0xc
 5175 153a 54290000 		.4byte	.LASF765
 5176 153e 01       		.sleb128 1
 5177 153f 0C       		.uleb128 0xc
 5178 1540 6E2B0000 		.4byte	.LASF766
 5179 1544 02       		.sleb128 2
 5180 1545 0C       		.uleb128 0xc
 5181 1546 04200000 		.4byte	.LASF767
 5182 154a 03       		.sleb128 3
 5183 154b 0C       		.uleb128 0xc
 5184 154c 9E040000 		.4byte	.LASF768
 5185 1550 04       		.sleb128 4
 5186 1551 0C       		.uleb128 0xc
 5187 1552 F71F0000 		.4byte	.LASF769
 5188 1556 05       		.sleb128 5
 5189 1557 0C       		.uleb128 0xc
 5190 1558 DF0C0000 		.4byte	.LASF770
 5191 155c 06       		.sleb128 6
 5192 155d 0C       		.uleb128 0xc
 5193 155e 66380000 		.4byte	.LASF771
 5194 1562 07       		.sleb128 7
 5195 1563 00       		.byte	0
 5196 1564 09       		.uleb128 0x9
 5197 1565 AF000000 		.4byte	0xaf
 5198 1569 74150000 		.4byte	0x1574
 5199 156d 0A       		.uleb128 0xa
 5200 156e 76000000 		.4byte	0x76
 5201 1572 0E       		.byte	0xe
 5202 1573 00       		.byte	0
 5203 1574 10       		.uleb128 0x10
 5204 1575 01       		.byte	0x1
 5205 1576 08       		.byte	0x8
 5206 1577 2D       		.byte	0x2d
 5207 1578 A7150000 		.4byte	0x15a7
 5208 157c 0C       		.uleb128 0xc
 5209 157d 160E0000 		.4byte	.LASF772
 5210 1581 00       		.sleb128 0
 5211 1582 0C       		.uleb128 0xc
 5212 1583 43370000 		.4byte	.LASF773
 5213 1587 01       		.sleb128 1
 5214 1588 0C       		.uleb128 0xc
 5215 1589 7C310000 		.4byte	.LASF774
 5216 158d 02       		.sleb128 2
 5217 158e 0C       		.uleb128 0xc
 5218 158f 660B0000 		.4byte	.LASF775
 5219 1593 03       		.sleb128 3
 5220 1594 0C       		.uleb128 0xc
 5221 1595 7B1B0000 		.4byte	.LASF776
 5222 1599 04       		.sleb128 4
ARM GAS  C:\Users\AHMED~1.ELE\AppData\Local\Temp\ccGujCBB.s 			page 111


 5223 159a 0C       		.uleb128 0xc
 5224 159b E5110000 		.4byte	.LASF777
 5225 159f 05       		.sleb128 5
 5226 15a0 0C       		.uleb128 0xc
 5227 15a1 02170000 		.4byte	.LASF778
 5228 15a5 06       		.sleb128 6
 5229 15a6 00       		.byte	0
 5230 15a7 11       		.uleb128 0x11
 5231 15a8 C02A0000 		.4byte	.LASF779
 5232 15ac 08       		.byte	0x8
 5233 15ad 09       		.byte	0x9
 5234 15ae 50       		.byte	0x50
 5235 15af E4150000 		.4byte	0x15e4
 5236 15b3 12       		.uleb128 0x12
 5237 15b4 BA020000 		.4byte	.LASF780
 5238 15b8 09       		.byte	0x9
 5239 15b9 51       		.byte	0x51
 5240 15ba BA000000 		.4byte	0xba
 5241 15be 00       		.byte	0
 5242 15bf 12       		.uleb128 0x12
 5243 15c0 C0020000 		.4byte	.LASF781
 5244 15c4 09       		.byte	0x9
 5245 15c5 52       		.byte	0x52
 5246 15c6 BA000000 		.4byte	0xba
 5247 15ca 02       		.byte	0x2
 5248 15cb 12       		.uleb128 0x12
 5249 15cc 151D0000 		.4byte	.LASF782
 5250 15d0 09       		.byte	0x9
 5251 15d1 53       		.byte	0x53
 5252 15d2 BA000000 		.4byte	0xba
 5253 15d6 04       		.byte	0x4
 5254 15d7 12       		.uleb128 0x12
 5255 15d8 46350000 		.4byte	.LASF783
 5256 15dc 09       		.byte	0x9
 5257 15dd 54       		.byte	0x54
 5258 15de BA000000 		.4byte	0xba
 5259 15e2 06       		.byte	0x6
 5260 15e3 00       		.byte	0
 5261 15e4 11       		.uleb128 0x11
 5262 15e5 A20C0000 		.4byte	.LASF784
 5263 15e9 08       		.byte	0x8
 5264 15ea 09       		.byte	0x9
 5265 15eb 5C       		.byte	0x5c
 5266 15ec 45160000 		.4byte	0x1645
 5267 15f0 12       		.uleb128 0x12
 5268 15f1 38290000 		.4byte	.LASF785
 5269 15f5 09       		.byte	0x9
 5270 15f6 5D       		.byte	0x5d
 5271 15f7 AF000000 		.4byte	0xaf
 5272 15fb 00       		.byte	0
 5273 15fc 12       		.uleb128 0x12
 5274 15fd BD3A0000 		.4byte	.LASF786
 5275 1601 09       		.byte	0x9
 5276 1602 5E       		.byte	0x5e
 5277 1603 AF000000 		.4byte	0xaf
 5278 1607 01       		.byte	0x1
 5279 1608 12       		.uleb128 0x12
ARM GAS  C:\Users\AHMED~1.ELE\AppData\Local\Temp\ccGujCBB.s 			page 112


 5280 1609 1A0D0000 		.4byte	.LASF787
 5281 160d 09       		.byte	0x9
 5282 160e 5F       		.byte	0x5f
 5283 160f AF000000 		.4byte	0xaf
 5284 1613 02       		.byte	0x2
 5285 1614 12       		.uleb128 0x12
 5286 1615 A11E0000 		.4byte	.LASF788
 5287 1619 09       		.byte	0x9
 5288 161a 60       		.byte	0x60
 5289 161b AF000000 		.4byte	0xaf
 5290 161f 03       		.byte	0x3
 5291 1620 12       		.uleb128 0x12
 5292 1621 2F010000 		.4byte	.LASF789
 5293 1625 09       		.byte	0x9
 5294 1626 61       		.byte	0x61
 5295 1627 AF000000 		.4byte	0xaf
 5296 162b 04       		.byte	0x4
 5297 162c 12       		.uleb128 0x12
 5298 162d 371E0000 		.4byte	.LASF790
 5299 1631 09       		.byte	0x9
 5300 1632 62       		.byte	0x62
 5301 1633 AF000000 		.4byte	0xaf
 5302 1637 05       		.byte	0x5
 5303 1638 12       		.uleb128 0x12
 5304 1639 221E0000 		.4byte	.LASF791
 5305 163d 09       		.byte	0x9
 5306 163e 63       		.byte	0x63
 5307 163f AF000000 		.4byte	0xaf
 5308 1643 06       		.byte	0x6
 5309 1644 00       		.byte	0
 5310 1645 0D       		.uleb128 0xd
 5311 1646 01       		.byte	0x1
 5312 1647 01       		.byte	0x1
 5313 1648 7103     		.2byte	0x371
 5314 164a 67160000 		.4byte	0x1667
 5315 164e 0C       		.uleb128 0xc
 5316 164f 192D0000 		.4byte	.LASF792
 5317 1653 01       		.sleb128 1
 5318 1654 0C       		.uleb128 0xc
 5319 1655 2A350000 		.4byte	.LASF793
 5320 1659 02       		.sleb128 2
 5321 165a 0C       		.uleb128 0xc
 5322 165b D32F0000 		.4byte	.LASF794
 5323 165f 03       		.sleb128 3
 5324 1660 0C       		.uleb128 0xc
 5325 1661 BB330000 		.4byte	.LASF795
 5326 1665 04       		.sleb128 4
 5327 1666 00       		.byte	0
 5328 1667 13       		.uleb128 0x13
 5329 1668 F4210000 		.4byte	.LASF796
 5330 166c 01       		.byte	0x1
 5331 166d 54       		.byte	0x54
 5332 166e 00000000 		.4byte	.LFB0
 5333 1672 0C000000 		.4byte	.LFE0-.LFB0
 5334 1676 01       		.uleb128 0x1
 5335 1677 9C       		.byte	0x9c
 5336 1678 9B160000 		.4byte	0x169b
ARM GAS  C:\Users\AHMED~1.ELE\AppData\Local\Temp\ccGujCBB.s 			page 113


 5337 167c 14       		.uleb128 0x14
 5338 167d 0C000000 		.4byte	.LVL0
 5339 1681 24330000 		.4byte	0x3324
 5340 1685 15       		.uleb128 0x15
 5341 1686 01       		.uleb128 0x1
 5342 1687 53       		.byte	0x53
 5343 1688 01       		.uleb128 0x1
 5344 1689 31       		.byte	0x31
 5345 168a 15       		.uleb128 0x15
 5346 168b 01       		.uleb128 0x1
 5347 168c 52       		.byte	0x52
 5348 168d 01       		.uleb128 0x1
 5349 168e 39       		.byte	0x39
 5350 168f 15       		.uleb128 0x15
 5351 1690 01       		.uleb128 0x1
 5352 1691 51       		.byte	0x51
 5353 1692 01       		.uleb128 0x1
 5354 1693 4E       		.byte	0x4e
 5355 1694 15       		.uleb128 0x15
 5356 1695 01       		.uleb128 0x1
 5357 1696 50       		.byte	0x50
 5358 1697 01       		.uleb128 0x1
 5359 1698 40       		.byte	0x40
 5360 1699 00       		.byte	0
 5361 169a 00       		.byte	0
 5362 169b 13       		.uleb128 0x13
 5363 169c 622C0000 		.4byte	.LASF797
 5364 16a0 01       		.byte	0x1
 5365 16a1 60       		.byte	0x60
 5366 16a2 00000000 		.4byte	.LFB1
 5367 16a6 0C000000 		.4byte	.LFE1-.LFB1
 5368 16aa 01       		.uleb128 0x1
 5369 16ab 9C       		.byte	0x9c
 5370 16ac CF160000 		.4byte	0x16cf
 5371 16b0 14       		.uleb128 0x14
 5372 16b1 0C000000 		.4byte	.LVL1
 5373 16b5 24330000 		.4byte	0x3324
 5374 16b9 15       		.uleb128 0x15
 5375 16ba 01       		.uleb128 0x1
 5376 16bb 53       		.byte	0x53
 5377 16bc 01       		.uleb128 0x1
 5378 16bd 33       		.byte	0x33
 5379 16be 15       		.uleb128 0x15
 5380 16bf 01       		.uleb128 0x1
 5381 16c0 52       		.byte	0x52
 5382 16c1 01       		.uleb128 0x1
 5383 16c2 3A       		.byte	0x3a
 5384 16c3 15       		.uleb128 0x15
 5385 16c4 01       		.uleb128 0x1
 5386 16c5 51       		.byte	0x51
 5387 16c6 01       		.uleb128 0x1
 5388 16c7 3A       		.byte	0x3a
 5389 16c8 15       		.uleb128 0x15
 5390 16c9 01       		.uleb128 0x1
 5391 16ca 50       		.byte	0x50
 5392 16cb 01       		.uleb128 0x1
 5393 16cc 40       		.byte	0x40
ARM GAS  C:\Users\AHMED~1.ELE\AppData\Local\Temp\ccGujCBB.s 			page 114


 5394 16cd 00       		.byte	0
 5395 16ce 00       		.byte	0
 5396 16cf 13       		.uleb128 0x13
 5397 16d0 0D380000 		.4byte	.LASF798
 5398 16d4 01       		.byte	0x1
 5399 16d5 6C       		.byte	0x6c
 5400 16d6 00000000 		.4byte	.LFB2
 5401 16da 0C000000 		.4byte	.LFE2-.LFB2
 5402 16de 01       		.uleb128 0x1
 5403 16df 9C       		.byte	0x9c
 5404 16e0 03170000 		.4byte	0x1703
 5405 16e4 14       		.uleb128 0x14
 5406 16e5 0C000000 		.4byte	.LVL2
 5407 16e9 24330000 		.4byte	0x3324
 5408 16ed 15       		.uleb128 0x15
 5409 16ee 01       		.uleb128 0x1
 5410 16ef 53       		.byte	0x53
 5411 16f0 01       		.uleb128 0x1
 5412 16f1 32       		.byte	0x32
 5413 16f2 15       		.uleb128 0x15
 5414 16f3 01       		.uleb128 0x1
 5415 16f4 52       		.byte	0x52
 5416 16f5 01       		.uleb128 0x1
 5417 16f6 32       		.byte	0x32
 5418 16f7 15       		.uleb128 0x15
 5419 16f8 01       		.uleb128 0x1
 5420 16f9 51       		.byte	0x51
 5421 16fa 01       		.uleb128 0x1
 5422 16fb 32       		.byte	0x32
 5423 16fc 15       		.uleb128 0x15
 5424 16fd 01       		.uleb128 0x1
 5425 16fe 50       		.byte	0x50
 5426 16ff 01       		.uleb128 0x1
 5427 1700 40       		.byte	0x40
 5428 1701 00       		.byte	0
 5429 1702 00       		.byte	0
 5430 1703 13       		.uleb128 0x13
 5431 1704 47160000 		.4byte	.LASF799
 5432 1708 01       		.byte	0x1
 5433 1709 78       		.byte	0x78
 5434 170a 00000000 		.4byte	.LFB3
 5435 170e 0C000000 		.4byte	.LFE3-.LFB3
 5436 1712 01       		.uleb128 0x1
 5437 1713 9C       		.byte	0x9c
 5438 1714 37170000 		.4byte	0x1737
 5439 1718 14       		.uleb128 0x14
 5440 1719 0C000000 		.4byte	.LVL3
 5441 171d 24330000 		.4byte	0x3324
 5442 1721 15       		.uleb128 0x15
 5443 1722 01       		.uleb128 0x1
 5444 1723 53       		.byte	0x53
 5445 1724 01       		.uleb128 0x1
 5446 1725 31       		.byte	0x31
 5447 1726 15       		.uleb128 0x15
 5448 1727 01       		.uleb128 0x1
 5449 1728 52       		.byte	0x52
 5450 1729 01       		.uleb128 0x1
ARM GAS  C:\Users\AHMED~1.ELE\AppData\Local\Temp\ccGujCBB.s 			page 115


 5451 172a 32       		.byte	0x32
 5452 172b 15       		.uleb128 0x15
 5453 172c 01       		.uleb128 0x1
 5454 172d 51       		.byte	0x51
 5455 172e 01       		.uleb128 0x1
 5456 172f 32       		.byte	0x32
 5457 1730 15       		.uleb128 0x15
 5458 1731 01       		.uleb128 0x1
 5459 1732 50       		.byte	0x50
 5460 1733 01       		.uleb128 0x1
 5461 1734 40       		.byte	0x40
 5462 1735 00       		.byte	0
 5463 1736 00       		.byte	0
 5464 1737 13       		.uleb128 0x13
 5465 1738 55010000 		.4byte	.LASF800
 5466 173c 01       		.byte	0x1
 5467 173d 85       		.byte	0x85
 5468 173e 00000000 		.4byte	.LFB4
 5469 1742 44000000 		.4byte	.LFE4-.LFB4
 5470 1746 01       		.uleb128 0x1
 5471 1747 9C       		.byte	0x9c
 5472 1748 F3170000 		.4byte	0x17f3
 5473 174c 16       		.uleb128 0x16
 5474 174d 862D0000 		.4byte	.LASF801
 5475 1751 01       		.byte	0x1
 5476 1752 85       		.byte	0x85
 5477 1753 C5000000 		.4byte	0xc5
 5478 1757 00000000 		.4byte	.LLST0
 5479 175b 16       		.uleb128 0x16
 5480 175c 94040000 		.4byte	.LASF802
 5481 1760 01       		.byte	0x1
 5482 1761 85       		.byte	0x85
 5483 1762 A4000000 		.4byte	0xa4
 5484 1766 1E000000 		.4byte	.LLST1
 5485 176a 17       		.uleb128 0x17
 5486 176b 9A0D0000 		.4byte	.LASF803
 5487 176f 01       		.byte	0x1
 5488 1770 87       		.byte	0x87
 5489 1771 C5000000 		.4byte	0xc5
 5490 1775 01       		.uleb128 0x1
 5491 1776 55       		.byte	0x55
 5492 1777 18       		.uleb128 0x18
 5493 1778 021B0000 		.4byte	.LASF804
 5494 177c 01       		.byte	0x1
 5495 177d 87       		.byte	0x87
 5496 177e C5000000 		.4byte	0xc5
 5497 1782 3F000000 		.4byte	.LLST2
 5498 1786 19       		.uleb128 0x19
 5499 1787 0A000000 		.4byte	.LVL5
 5500 178b 67160000 		.4byte	0x1667
 5501 178f 1A       		.uleb128 0x1a
 5502 1790 16000000 		.4byte	.LVL7
 5503 1794 48330000 		.4byte	0x3348
 5504 1798 A4170000 		.4byte	0x17a4
 5505 179c 15       		.uleb128 0x15
 5506 179d 01       		.uleb128 0x1
 5507 179e 50       		.byte	0x50
ARM GAS  C:\Users\AHMED~1.ELE\AppData\Local\Temp\ccGujCBB.s 			page 116


 5508 179f 03       		.uleb128 0x3
 5509 17a0 0A       		.byte	0xa
 5510 17a1 9F01     		.2byte	0x19f
 5511 17a3 00       		.byte	0
 5512 17a4 1A       		.uleb128 0x1a
 5513 17a5 26000000 		.4byte	.LVL9
 5514 17a9 5D330000 		.4byte	0x335d
 5515 17ad CC170000 		.4byte	0x17cc
 5516 17b1 15       		.uleb128 0x15
 5517 17b2 01       		.uleb128 0x1
 5518 17b3 53       		.byte	0x53
 5519 17b4 01       		.uleb128 0x1
 5520 17b5 30       		.byte	0x30
 5521 17b6 15       		.uleb128 0x15
 5522 17b7 01       		.uleb128 0x1
 5523 17b8 52       		.byte	0x52
 5524 17b9 01       		.uleb128 0x1
 5525 17ba 30       		.byte	0x30
 5526 17bb 15       		.uleb128 0x15
 5527 17bc 01       		.uleb128 0x1
 5528 17bd 51       		.byte	0x51
 5529 17be 01       		.uleb128 0x1
 5530 17bf 46       		.byte	0x46
 5531 17c0 15       		.uleb128 0x15
 5532 17c1 01       		.uleb128 0x1
 5533 17c2 50       		.byte	0x50
 5534 17c3 01       		.uleb128 0x1
 5535 17c4 3F       		.byte	0x3f
 5536 17c5 15       		.uleb128 0x15
 5537 17c6 02       		.uleb128 0x2
 5538 17c7 7D       		.byte	0x7d
 5539 17c8 00       		.sleb128 0
 5540 17c9 01       		.uleb128 0x1
 5541 17ca 30       		.byte	0x30
 5542 17cb 00       		.byte	0
 5543 17cc 1A       		.uleb128 0x1a
 5544 17cd 32000000 		.4byte	.LVL10
 5545 17d1 48330000 		.4byte	0x3348
 5546 17d5 E1170000 		.4byte	0x17e1
 5547 17d9 15       		.uleb128 0x15
 5548 17da 01       		.uleb128 0x1
 5549 17db 50       		.byte	0x50
 5550 17dc 03       		.uleb128 0x3
 5551 17dd 0A       		.byte	0xa
 5552 17de 9C01     		.2byte	0x19c
 5553 17e0 00       		.byte	0
 5554 17e1 1B       		.uleb128 0x1b
 5555 17e2 3A000000 		.4byte	.LVL11
 5556 17e6 48330000 		.4byte	0x3348
 5557 17ea 15       		.uleb128 0x15
 5558 17eb 01       		.uleb128 0x1
 5559 17ec 50       		.byte	0x50
 5560 17ed 03       		.uleb128 0x3
 5561 17ee 0A       		.byte	0xa
 5562 17ef 9F01     		.2byte	0x19f
 5563 17f1 00       		.byte	0
 5564 17f2 00       		.byte	0
ARM GAS  C:\Users\AHMED~1.ELE\AppData\Local\Temp\ccGujCBB.s 			page 117


 5565 17f3 13       		.uleb128 0x13
 5566 17f4 E7270000 		.4byte	.LASF805
 5567 17f8 01       		.byte	0x1
 5568 17f9 9D       		.byte	0x9d
 5569 17fa 00000000 		.4byte	.LFB5
 5570 17fe 08000000 		.4byte	.LFE5-.LFB5
 5571 1802 01       		.uleb128 0x1
 5572 1803 9C       		.byte	0x9c
 5573 1804 1D180000 		.4byte	0x181d
 5574 1808 14       		.uleb128 0x14
 5575 1809 08000000 		.4byte	.LVL14
 5576 180d 37170000 		.4byte	0x1737
 5577 1811 15       		.uleb128 0x15
 5578 1812 01       		.uleb128 0x1
 5579 1813 51       		.byte	0x51
 5580 1814 01       		.uleb128 0x1
 5581 1815 31       		.byte	0x31
 5582 1816 15       		.uleb128 0x15
 5583 1817 01       		.uleb128 0x1
 5584 1818 50       		.byte	0x50
 5585 1819 01       		.uleb128 0x1
 5586 181a 3A       		.byte	0x3a
 5587 181b 00       		.byte	0
 5588 181c 00       		.byte	0
 5589 181d 13       		.uleb128 0x13
 5590 181e 9F0E0000 		.4byte	.LASF806
 5591 1822 01       		.byte	0x1
 5592 1823 A9       		.byte	0xa9
 5593 1824 00000000 		.4byte	.LFB6
 5594 1828 28000000 		.4byte	.LFE6-.LFB6
 5595 182c 01       		.uleb128 0x1
 5596 182d 9C       		.byte	0x9c
 5597 182e 99180000 		.4byte	0x1899
 5598 1832 16       		.uleb128 0x16
 5599 1833 E00B0000 		.4byte	.LASF807
 5600 1837 01       		.byte	0x1
 5601 1838 A9       		.byte	0xa9
 5602 1839 C5000000 		.4byte	0xc5
 5603 183d 62000000 		.4byte	.LLST3
 5604 1841 18       		.uleb128 0x18
 5605 1842 021B0000 		.4byte	.LASF804
 5606 1846 01       		.byte	0x1
 5607 1847 AB       		.byte	0xab
 5608 1848 C5000000 		.4byte	0xc5
 5609 184c 99000000 		.4byte	.LLST4
 5610 1850 17       		.uleb128 0x17
 5611 1851 9A0D0000 		.4byte	.LASF803
 5612 1855 01       		.byte	0x1
 5613 1856 AB       		.byte	0xab
 5614 1857 C5000000 		.4byte	0xc5
 5615 185b 01       		.uleb128 0x1
 5616 185c 55       		.byte	0x55
 5617 185d 1A       		.uleb128 0x1a
 5618 185e 0C000000 		.4byte	.LVL17
 5619 1862 48330000 		.4byte	0x3348
 5620 1866 72180000 		.4byte	0x1872
 5621 186a 15       		.uleb128 0x15
ARM GAS  C:\Users\AHMED~1.ELE\AppData\Local\Temp\ccGujCBB.s 			page 118


 5622 186b 01       		.uleb128 0x1
 5623 186c 50       		.byte	0x50
 5624 186d 03       		.uleb128 0x3
 5625 186e 0A       		.byte	0xa
 5626 186f 9F01     		.2byte	0x19f
 5627 1871 00       		.byte	0
 5628 1872 1A       		.uleb128 0x1a
 5629 1873 18000000 		.4byte	.LVL20
 5630 1877 48330000 		.4byte	0x3348
 5631 187b 87180000 		.4byte	0x1887
 5632 187f 15       		.uleb128 0x15
 5633 1880 01       		.uleb128 0x1
 5634 1881 50       		.byte	0x50
 5635 1882 03       		.uleb128 0x3
 5636 1883 0A       		.byte	0xa
 5637 1884 9C01     		.2byte	0x19c
 5638 1886 00       		.byte	0
 5639 1887 1B       		.uleb128 0x1b
 5640 1888 20000000 		.4byte	.LVL21
 5641 188c 48330000 		.4byte	0x3348
 5642 1890 15       		.uleb128 0x15
 5643 1891 01       		.uleb128 0x1
 5644 1892 50       		.byte	0x50
 5645 1893 03       		.uleb128 0x3
 5646 1894 0A       		.byte	0xa
 5647 1895 9F01     		.2byte	0x19f
 5648 1897 00       		.byte	0
 5649 1898 00       		.byte	0
 5650 1899 13       		.uleb128 0x13
 5651 189a 51390000 		.4byte	.LASF808
 5652 189e 01       		.byte	0x1
 5653 189f BC       		.byte	0xbc
 5654 18a0 00000000 		.4byte	.LFB7
 5655 18a4 48000000 		.4byte	.LFE7-.LFB7
 5656 18a8 01       		.uleb128 0x1
 5657 18a9 9C       		.byte	0x9c
 5658 18aa 7D190000 		.4byte	0x197d
 5659 18ae 16       		.uleb128 0x16
 5660 18af 9D170000 		.4byte	.LASF809
 5661 18b3 01       		.byte	0x1
 5662 18b4 BC       		.byte	0xbc
 5663 18b5 85000000 		.4byte	0x85
 5664 18b9 BC000000 		.4byte	.LLST5
 5665 18bd 16       		.uleb128 0x16
 5666 18be 8C080000 		.4byte	.LASF810
 5667 18c2 01       		.byte	0x1
 5668 18c3 BC       		.byte	0xbc
 5669 18c4 C5000000 		.4byte	0xc5
 5670 18c8 F3000000 		.4byte	.LLST6
 5671 18cc 1C       		.uleb128 0x1c
 5672 18cd 00000000 		.4byte	.Ldebug_ranges0+0
 5673 18d1 1D       		.uleb128 0x1d
 5674 18d2 6C656E00 		.ascii	"len\000"
 5675 18d6 01       		.byte	0x1
 5676 18d7 BE       		.byte	0xbe
 5677 18d8 C5000000 		.4byte	0xc5
 5678 18dc 14010000 		.4byte	.LLST7
ARM GAS  C:\Users\AHMED~1.ELE\AppData\Local\Temp\ccGujCBB.s 			page 119


 5679 18e0 1D       		.uleb128 0x1d
 5680 18e1 70747200 		.ascii	"ptr\000"
 5681 18e5 01       		.byte	0x1
 5682 18e6 BE       		.byte	0xbe
 5683 18e7 DB000000 		.4byte	0xdb
 5684 18eb 3D010000 		.4byte	.LLST8
 5685 18ef 1A       		.uleb128 0x1a
 5686 18f0 08000000 		.4byte	.LVL24
 5687 18f4 86330000 		.4byte	0x3386
 5688 18f8 03190000 		.4byte	0x1903
 5689 18fc 15       		.uleb128 0x15
 5690 18fd 01       		.uleb128 0x1
 5691 18fe 50       		.byte	0x50
 5692 18ff 02       		.uleb128 0x2
 5693 1900 76       		.byte	0x76
 5694 1901 00       		.sleb128 0
 5695 1902 00       		.byte	0
 5696 1903 1A       		.uleb128 0x1a
 5697 1904 12000000 		.4byte	.LVL27
 5698 1908 9B330000 		.4byte	0x339b
 5699 190c 1D190000 		.4byte	0x191d
 5700 1910 15       		.uleb128 0x15
 5701 1911 01       		.uleb128 0x1
 5702 1912 51       		.byte	0x51
 5703 1913 02       		.uleb128 0x2
 5704 1914 75       		.byte	0x75
 5705 1915 01       		.sleb128 1
 5706 1916 15       		.uleb128 0x15
 5707 1917 01       		.uleb128 0x1
 5708 1918 50       		.byte	0x50
 5709 1919 02       		.uleb128 0x2
 5710 191a 08       		.byte	0x8
 5711 191b 92       		.byte	0x92
 5712 191c 00       		.byte	0
 5713 191d 1A       		.uleb128 0x1a
 5714 191e 1E000000 		.4byte	.LVL28
 5715 1922 B5330000 		.4byte	0x33b5
 5716 1926 3D190000 		.4byte	0x193d
 5717 192a 15       		.uleb128 0x15
 5718 192b 01       		.uleb128 0x1
 5719 192c 52       		.byte	0x52
 5720 192d 02       		.uleb128 0x2
 5721 192e 75       		.byte	0x75
 5722 192f 00       		.sleb128 0
 5723 1930 15       		.uleb128 0x15
 5724 1931 01       		.uleb128 0x1
 5725 1932 51       		.byte	0x51
 5726 1933 02       		.uleb128 0x2
 5727 1934 76       		.byte	0x76
 5728 1935 00       		.sleb128 0
 5729 1936 15       		.uleb128 0x15
 5730 1937 01       		.uleb128 0x1
 5731 1938 50       		.byte	0x50
 5732 1939 02       		.uleb128 0x2
 5733 193a 74       		.byte	0x74
 5734 193b 00       		.sleb128 0
 5735 193c 00       		.byte	0
ARM GAS  C:\Users\AHMED~1.ELE\AppData\Local\Temp\ccGujCBB.s 			page 120


 5736 193d 1A       		.uleb128 0x1a
 5737 193e 36000000 		.4byte	.LVL29
 5738 1942 5D330000 		.4byte	0x335d
 5739 1946 6B190000 		.4byte	0x196b
 5740 194a 15       		.uleb128 0x15
 5741 194b 01       		.uleb128 0x1
 5742 194c 53       		.byte	0x53
 5743 194d 03       		.uleb128 0x3
 5744 194e 0A       		.byte	0xa
 5745 194f 0009     		.2byte	0x900
 5746 1951 15       		.uleb128 0x15
 5747 1952 01       		.uleb128 0x1
 5748 1953 52       		.byte	0x52
 5749 1954 02       		.uleb128 0x2
 5750 1955 74       		.byte	0x74
 5751 1956 00       		.sleb128 0
 5752 1957 15       		.uleb128 0x15
 5753 1958 01       		.uleb128 0x1
 5754 1959 51       		.byte	0x51
 5755 195a 02       		.uleb128 0x2
 5756 195b 08       		.byte	0x8
 5757 195c 25       		.byte	0x25
 5758 195d 15       		.uleb128 0x15
 5759 195e 01       		.uleb128 0x1
 5760 195f 50       		.byte	0x50
 5761 1960 01       		.uleb128 0x1
 5762 1961 3F       		.byte	0x3f
 5763 1962 15       		.uleb128 0x15
 5764 1963 02       		.uleb128 0x2
 5765 1964 7D       		.byte	0x7d
 5766 1965 00       		.sleb128 0
 5767 1966 03       		.uleb128 0x3
 5768 1967 0A       		.byte	0xa
 5769 1968 1220     		.2byte	0x2012
 5770 196a 00       		.byte	0
 5771 196b 14       		.uleb128 0x14
 5772 196c 44000000 		.4byte	.LVL31
 5773 1970 9B330000 		.4byte	0x339b
 5774 1974 15       		.uleb128 0x15
 5775 1975 01       		.uleb128 0x1
 5776 1976 50       		.byte	0x50
 5777 1977 02       		.uleb128 0x2
 5778 1978 08       		.byte	0x8
 5779 1979 94       		.byte	0x94
 5780 197a 00       		.byte	0
 5781 197b 00       		.byte	0
 5782 197c 00       		.byte	0
 5783 197d 13       		.uleb128 0x13
 5784 197e 02290000 		.4byte	.LASF811
 5785 1982 01       		.byte	0x1
 5786 1983 C8       		.byte	0xc8
 5787 1984 00000000 		.4byte	.LFB8
 5788 1988 36000000 		.4byte	.LFE8-.LFB8
 5789 198c 01       		.uleb128 0x1
 5790 198d 9C       		.byte	0x9c
 5791 198e 3D1A0000 		.4byte	0x1a3d
 5792 1992 16       		.uleb128 0x16
ARM GAS  C:\Users\AHMED~1.ELE\AppData\Local\Temp\ccGujCBB.s 			page 121


 5793 1993 A5110000 		.4byte	.LASF812
 5794 1997 01       		.byte	0x1
 5795 1998 C8       		.byte	0xc8
 5796 1999 92000000 		.4byte	0x92
 5797 199d 71010000 		.4byte	.LLST9
 5798 19a1 1D       		.uleb128 0x1d
 5799 19a2 6C656E00 		.ascii	"len\000"
 5800 19a6 01       		.byte	0x1
 5801 19a7 CA       		.byte	0xca
 5802 19a8 C5000000 		.4byte	0xc5
 5803 19ac A8010000 		.4byte	.LLST10
 5804 19b0 1D       		.uleb128 0x1d
 5805 19b1 70747200 		.ascii	"ptr\000"
 5806 19b5 01       		.byte	0x1
 5807 19b6 CB       		.byte	0xcb
 5808 19b7 DB000000 		.4byte	0xdb
 5809 19bb C6010000 		.4byte	.LLST11
 5810 19bf 1A       		.uleb128 0x1a
 5811 19c0 08000000 		.4byte	.LVL33
 5812 19c4 86330000 		.4byte	0x3386
 5813 19c8 D3190000 		.4byte	0x19d3
 5814 19cc 15       		.uleb128 0x15
 5815 19cd 01       		.uleb128 0x1
 5816 19ce 50       		.byte	0x50
 5817 19cf 02       		.uleb128 0x2
 5818 19d0 76       		.byte	0x76
 5819 19d1 00       		.sleb128 0
 5820 19d2 00       		.byte	0
 5821 19d3 1A       		.uleb128 0x1a
 5822 19d4 12000000 		.4byte	.LVL35
 5823 19d8 9B330000 		.4byte	0x339b
 5824 19dc ED190000 		.4byte	0x19ed
 5825 19e0 15       		.uleb128 0x15
 5826 19e1 01       		.uleb128 0x1
 5827 19e2 51       		.byte	0x51
 5828 19e3 02       		.uleb128 0x2
 5829 19e4 74       		.byte	0x74
 5830 19e5 00       		.sleb128 0
 5831 19e6 15       		.uleb128 0x15
 5832 19e7 01       		.uleb128 0x1
 5833 19e8 50       		.byte	0x50
 5834 19e9 02       		.uleb128 0x2
 5835 19ea 08       		.byte	0x8
 5836 19eb 92       		.byte	0x92
 5837 19ec 00       		.byte	0
 5838 19ed 1A       		.uleb128 0x1a
 5839 19ee 1E000000 		.4byte	.LVL36
 5840 19f2 B5330000 		.4byte	0x33b5
 5841 19f6 0D1A0000 		.4byte	0x1a0d
 5842 19fa 15       		.uleb128 0x15
 5843 19fb 01       		.uleb128 0x1
 5844 19fc 52       		.byte	0x52
 5845 19fd 02       		.uleb128 0x2
 5846 19fe 74       		.byte	0x74
 5847 19ff 00       		.sleb128 0
 5848 1a00 15       		.uleb128 0x15
 5849 1a01 01       		.uleb128 0x1
ARM GAS  C:\Users\AHMED~1.ELE\AppData\Local\Temp\ccGujCBB.s 			page 122


 5850 1a02 51       		.byte	0x51
 5851 1a03 02       		.uleb128 0x2
 5852 1a04 76       		.byte	0x76
 5853 1a05 00       		.sleb128 0
 5854 1a06 15       		.uleb128 0x15
 5855 1a07 01       		.uleb128 0x1
 5856 1a08 50       		.byte	0x50
 5857 1a09 02       		.uleb128 0x2
 5858 1a0a 75       		.byte	0x75
 5859 1a0b 00       		.sleb128 0
 5860 1a0c 00       		.byte	0
 5861 1a0d 1A       		.uleb128 0x1a
 5862 1a0e 28000000 		.4byte	.LVL37
 5863 1a12 D2330000 		.4byte	0x33d2
 5864 1a16 2C1A0000 		.4byte	0x1a2c
 5865 1a1a 15       		.uleb128 0x15
 5866 1a1b 01       		.uleb128 0x1
 5867 1a1c 52       		.byte	0x52
 5868 1a1d 02       		.uleb128 0x2
 5869 1a1e 74       		.byte	0x74
 5870 1a1f 00       		.sleb128 0
 5871 1a20 15       		.uleb128 0x15
 5872 1a21 01       		.uleb128 0x1
 5873 1a22 51       		.byte	0x51
 5874 1a23 02       		.uleb128 0x2
 5875 1a24 75       		.byte	0x75
 5876 1a25 00       		.sleb128 0
 5877 1a26 15       		.uleb128 0x15
 5878 1a27 01       		.uleb128 0x1
 5879 1a28 50       		.byte	0x50
 5880 1a29 01       		.uleb128 0x1
 5881 1a2a 48       		.byte	0x48
 5882 1a2b 00       		.byte	0
 5883 1a2c 14       		.uleb128 0x14
 5884 1a2d 34000000 		.4byte	.LVL39
 5885 1a31 9B330000 		.4byte	0x339b
 5886 1a35 15       		.uleb128 0x15
 5887 1a36 01       		.uleb128 0x1
 5888 1a37 50       		.byte	0x50
 5889 1a38 02       		.uleb128 0x2
 5890 1a39 08       		.byte	0x8
 5891 1a3a 94       		.byte	0x94
 5892 1a3b 00       		.byte	0
 5893 1a3c 00       		.byte	0
 5894 1a3d 13       		.uleb128 0x13
 5895 1a3e DD350000 		.4byte	.LASF813
 5896 1a42 01       		.byte	0x1
 5897 1a43 DB       		.byte	0xdb
 5898 1a44 00000000 		.4byte	.LFB9
 5899 1a48 38000000 		.4byte	.LFE9-.LFB9
 5900 1a4c 01       		.uleb128 0x1
 5901 1a4d 9C       		.byte	0x9c
 5902 1a4e F31A0000 		.4byte	0x1af3
 5903 1a52 16       		.uleb128 0x16
 5904 1a53 C8030000 		.4byte	.LASF814
 5905 1a57 01       		.byte	0x1
 5906 1a58 DB       		.byte	0xdb
ARM GAS  C:\Users\AHMED~1.ELE\AppData\Local\Temp\ccGujCBB.s 			page 123


 5907 1a59 D0000000 		.4byte	0xd0
 5908 1a5d FA010000 		.4byte	.LLST12
 5909 1a61 16       		.uleb128 0x16
 5910 1a62 170B0000 		.4byte	.LASF815
 5911 1a66 01       		.byte	0x1
 5912 1a67 DB       		.byte	0xdb
 5913 1a68 C5000000 		.4byte	0xc5
 5914 1a6c 31020000 		.4byte	.LLST13
 5915 1a70 18       		.uleb128 0x18
 5916 1a71 69100000 		.4byte	.LASF816
 5917 1a75 01       		.byte	0x1
 5918 1a76 DD       		.byte	0xdd
 5919 1a77 DB000000 		.4byte	0xdb
 5920 1a7b 68020000 		.4byte	.LLST14
 5921 1a7f 1A       		.uleb128 0x1a
 5922 1a80 0C000000 		.4byte	.LVL42
 5923 1a84 9B330000 		.4byte	0x339b
 5924 1a88 991A0000 		.4byte	0x1a99
 5925 1a8c 15       		.uleb128 0x15
 5926 1a8d 01       		.uleb128 0x1
 5927 1a8e 51       		.byte	0x51
 5928 1a8f 02       		.uleb128 0x2
 5929 1a90 75       		.byte	0x75
 5930 1a91 00       		.sleb128 0
 5931 1a92 15       		.uleb128 0x15
 5932 1a93 01       		.uleb128 0x1
 5933 1a94 50       		.byte	0x50
 5934 1a95 02       		.uleb128 0x2
 5935 1a96 08       		.byte	0x8
 5936 1a97 92       		.byte	0x92
 5937 1a98 00       		.byte	0
 5938 1a99 1A       		.uleb128 0x1a
 5939 1a9a 18000000 		.4byte	.LVL43
 5940 1a9e B5330000 		.4byte	0x33b5
 5941 1aa2 B91A0000 		.4byte	0x1ab9
 5942 1aa6 15       		.uleb128 0x15
 5943 1aa7 01       		.uleb128 0x1
 5944 1aa8 52       		.byte	0x52
 5945 1aa9 02       		.uleb128 0x2
 5946 1aaa 75       		.byte	0x75
 5947 1aab 00       		.sleb128 0
 5948 1aac 15       		.uleb128 0x15
 5949 1aad 01       		.uleb128 0x1
 5950 1aae 51       		.byte	0x51
 5951 1aaf 02       		.uleb128 0x2
 5952 1ab0 76       		.byte	0x76
 5953 1ab1 00       		.sleb128 0
 5954 1ab2 15       		.uleb128 0x15
 5955 1ab3 01       		.uleb128 0x1
 5956 1ab4 50       		.byte	0x50
 5957 1ab5 02       		.uleb128 0x2
 5958 1ab6 74       		.byte	0x74
 5959 1ab7 00       		.sleb128 0
 5960 1ab8 00       		.byte	0
 5961 1ab9 1A       		.uleb128 0x1a
 5962 1aba 26000000 		.4byte	.LVL44
 5963 1abe 5D330000 		.4byte	0x335d
ARM GAS  C:\Users\AHMED~1.ELE\AppData\Local\Temp\ccGujCBB.s 			page 124


 5964 1ac2 E21A0000 		.4byte	0x1ae2
 5965 1ac6 15       		.uleb128 0x15
 5966 1ac7 01       		.uleb128 0x1
 5967 1ac8 53       		.byte	0x53
 5968 1ac9 01       		.uleb128 0x1
 5969 1aca 31       		.byte	0x31
 5970 1acb 15       		.uleb128 0x15
 5971 1acc 01       		.uleb128 0x1
 5972 1acd 52       		.byte	0x52
 5973 1ace 02       		.uleb128 0x2
 5974 1acf 74       		.byte	0x74
 5975 1ad0 00       		.sleb128 0
 5976 1ad1 15       		.uleb128 0x15
 5977 1ad2 01       		.uleb128 0x1
 5978 1ad3 51       		.byte	0x51
 5979 1ad4 01       		.uleb128 0x1
 5980 1ad5 4B       		.byte	0x4b
 5981 1ad6 15       		.uleb128 0x15
 5982 1ad7 01       		.uleb128 0x1
 5983 1ad8 50       		.byte	0x50
 5984 1ad9 01       		.uleb128 0x1
 5985 1ada 3F       		.byte	0x3f
 5986 1adb 15       		.uleb128 0x15
 5987 1adc 02       		.uleb128 0x2
 5988 1add 7D       		.byte	0x7d
 5989 1ade 00       		.sleb128 0
 5990 1adf 01       		.uleb128 0x1
 5991 1ae0 31       		.byte	0x31
 5992 1ae1 00       		.byte	0
 5993 1ae2 14       		.uleb128 0x14
 5994 1ae3 34000000 		.4byte	.LVL46
 5995 1ae7 9B330000 		.4byte	0x339b
 5996 1aeb 15       		.uleb128 0x15
 5997 1aec 01       		.uleb128 0x1
 5998 1aed 50       		.byte	0x50
 5999 1aee 02       		.uleb128 0x2
 6000 1aef 08       		.byte	0x8
 6001 1af0 94       		.byte	0x94
 6002 1af1 00       		.byte	0
 6003 1af2 00       		.byte	0
 6004 1af3 13       		.uleb128 0x13
 6005 1af4 EF2B0000 		.4byte	.LASF817
 6006 1af8 01       		.byte	0x1
 6007 1af9 ED       		.byte	0xed
 6008 1afa 00000000 		.4byte	.LFB10
 6009 1afe 80000000 		.4byte	.LFE10-.LFB10
 6010 1b02 01       		.uleb128 0x1
 6011 1b03 9C       		.byte	0x9c
 6012 1b04 D61B0000 		.4byte	0x1bd6
 6013 1b08 16       		.uleb128 0x16
 6014 1b09 BC030000 		.4byte	.LASF818
 6015 1b0d 01       		.byte	0x1
 6016 1b0e ED       		.byte	0xed
 6017 1b0f D61B0000 		.4byte	0x1bd6
 6018 1b13 9C020000 		.4byte	.LLST15
 6019 1b17 16       		.uleb128 0x16
 6020 1b18 28000000 		.4byte	.LASF819
ARM GAS  C:\Users\AHMED~1.ELE\AppData\Local\Temp\ccGujCBB.s 			page 125


 6021 1b1c 01       		.byte	0x1
 6022 1b1d ED       		.byte	0xed
 6023 1b1e D0000000 		.4byte	0xd0
 6024 1b22 C8020000 		.4byte	.LLST16
 6025 1b26 18       		.uleb128 0x18
 6026 1b27 662F0000 		.4byte	.LASF820
 6027 1b2b 01       		.byte	0x1
 6028 1b2c F0       		.byte	0xf0
 6029 1b2d DC1B0000 		.4byte	0x1bdc
 6030 1b31 F4020000 		.4byte	.LLST17
 6031 1b35 18       		.uleb128 0x18
 6032 1b36 532B0000 		.4byte	.LASF821
 6033 1b3a 01       		.byte	0x1
 6034 1b3b F1       		.byte	0xf1
 6035 1b3c C5000000 		.4byte	0xc5
 6036 1b40 1D030000 		.4byte	.LLST18
 6037 1b44 1D       		.uleb128 0x1d
 6038 1b45 6900     		.ascii	"i\000"
 6039 1b47 01       		.byte	0x1
 6040 1b48 F3       		.byte	0xf3
 6041 1b49 C5000000 		.4byte	0xc5
 6042 1b4d 30030000 		.4byte	.LLST19
 6043 1b51 17       		.uleb128 0x17
 6044 1b52 B92D0000 		.4byte	.LASF822
 6045 1b56 01       		.byte	0x1
 6046 1b57 F4       		.byte	0xf4
 6047 1b58 BA000000 		.4byte	0xba
 6048 1b5c 02       		.uleb128 0x2
 6049 1b5d 91       		.byte	0x91
 6050 1b5e 66       		.sleb128 -26
 6051 1b5f 18       		.uleb128 0x18
 6052 1b60 BD380000 		.4byte	.LASF823
 6053 1b64 01       		.byte	0x1
 6054 1b65 F5       		.byte	0xf5
 6055 1b66 BA000000 		.4byte	0xba
 6056 1b6a 5B030000 		.4byte	.LLST20
 6057 1b6e 1A       		.uleb128 0x1a
 6058 1b6f 18000000 		.4byte	.LVL51
 6059 1b73 9B330000 		.4byte	0x339b
 6060 1b77 881B0000 		.4byte	0x1b88
 6061 1b7b 15       		.uleb128 0x15
 6062 1b7c 01       		.uleb128 0x1
 6063 1b7d 51       		.byte	0x51
 6064 1b7e 02       		.uleb128 0x2
 6065 1b7f 75       		.byte	0x75
 6066 1b80 08       		.sleb128 8
 6067 1b81 15       		.uleb128 0x15
 6068 1b82 01       		.uleb128 0x1
 6069 1b83 50       		.byte	0x50
 6070 1b84 02       		.uleb128 0x2
 6071 1b85 08       		.byte	0x8
 6072 1b86 92       		.byte	0x92
 6073 1b87 00       		.byte	0
 6074 1b88 1A       		.uleb128 0x1a
 6075 1b89 68000000 		.4byte	.LVL58
 6076 1b8d B5330000 		.4byte	0x33b5
 6077 1b91 AC1B0000 		.4byte	0x1bac
ARM GAS  C:\Users\AHMED~1.ELE\AppData\Local\Temp\ccGujCBB.s 			page 126


 6078 1b95 15       		.uleb128 0x15
 6079 1b96 01       		.uleb128 0x1
 6080 1b97 52       		.byte	0x52
 6081 1b98 01       		.uleb128 0x1
 6082 1b99 32       		.byte	0x32
 6083 1b9a 15       		.uleb128 0x15
 6084 1b9b 01       		.uleb128 0x1
 6085 1b9c 51       		.byte	0x51
 6086 1b9d 02       		.uleb128 0x2
 6087 1b9e 91       		.byte	0x91
 6088 1b9f 66       		.sleb128 -26
 6089 1ba0 15       		.uleb128 0x15
 6090 1ba1 01       		.uleb128 0x1
 6091 1ba2 50       		.byte	0x50
 6092 1ba3 07       		.uleb128 0x7
 6093 1ba4 74       		.byte	0x74
 6094 1ba5 00       		.sleb128 0
 6095 1ba6 77       		.byte	0x77
 6096 1ba7 00       		.sleb128 0
 6097 1ba8 22       		.byte	0x22
 6098 1ba9 23       		.byte	0x23
 6099 1baa 06       		.uleb128 0x6
 6100 1bab 00       		.byte	0
 6101 1bac 1A       		.uleb128 0x1a
 6102 1bad 72000000 		.4byte	.LVL59
 6103 1bb1 9B330000 		.4byte	0x339b
 6104 1bb5 C51B0000 		.4byte	0x1bc5
 6105 1bb9 15       		.uleb128 0x15
 6106 1bba 01       		.uleb128 0x1
 6107 1bbb 51       		.byte	0x51
 6108 1bbc 02       		.uleb128 0x2
 6109 1bbd 74       		.byte	0x74
 6110 1bbe 00       		.sleb128 0
 6111 1bbf 15       		.uleb128 0x15
 6112 1bc0 01       		.uleb128 0x1
 6113 1bc1 50       		.byte	0x50
 6114 1bc2 01       		.uleb128 0x1
 6115 1bc3 4A       		.byte	0x4a
 6116 1bc4 00       		.byte	0
 6117 1bc5 14       		.uleb128 0x14
 6118 1bc6 80000000 		.4byte	.LVL61
 6119 1bca 9B330000 		.4byte	0x339b
 6120 1bce 15       		.uleb128 0x15
 6121 1bcf 01       		.uleb128 0x1
 6122 1bd0 50       		.byte	0x50
 6123 1bd1 02       		.uleb128 0x2
 6124 1bd2 08       		.byte	0x8
 6125 1bd3 94       		.byte	0x94
 6126 1bd4 00       		.byte	0
 6127 1bd5 00       		.byte	0
 6128 1bd6 06       		.uleb128 0x6
 6129 1bd7 04       		.byte	0x4
 6130 1bd8 A7150000 		.4byte	0x15a7
 6131 1bdc 06       		.uleb128 0x6
 6132 1bdd 04       		.byte	0x4
 6133 1bde DC140000 		.4byte	0x14dc
 6134 1be2 1E       		.uleb128 0x1e
ARM GAS  C:\Users\AHMED~1.ELE\AppData\Local\Temp\ccGujCBB.s 			page 127


 6135 1be3 DD1C0000 		.4byte	.LASF824
 6136 1be7 01       		.byte	0x1
 6137 1be8 1601     		.2byte	0x116
 6138 1bea 00000000 		.4byte	.LFB11
 6139 1bee BC000000 		.4byte	.LFE11-.LFB11
 6140 1bf2 01       		.uleb128 0x1
 6141 1bf3 9C       		.byte	0x9c
 6142 1bf4 1B1E0000 		.4byte	0x1e1b
 6143 1bf8 1F       		.uleb128 0x1f
 6144 1bf9 9D170000 		.4byte	.LASF809
 6145 1bfd 01       		.byte	0x1
 6146 1bfe 1601     		.2byte	0x116
 6147 1c00 D0000000 		.4byte	0xd0
 6148 1c04 94030000 		.4byte	.LLST21
 6149 1c08 1F       		.uleb128 0x1f
 6150 1c09 5F310000 		.4byte	.LASF825
 6151 1c0d 01       		.byte	0x1
 6152 1c0e 1601     		.2byte	0x116
 6153 1c10 C5000000 		.4byte	0xc5
 6154 1c14 B2030000 		.4byte	.LLST22
 6155 1c18 1F       		.uleb128 0x1f
 6156 1c19 89140000 		.4byte	.LASF826
 6157 1c1d 01       		.byte	0x1
 6158 1c1e 1601     		.2byte	0x116
 6159 1c20 C5000000 		.4byte	0xc5
 6160 1c24 D0030000 		.4byte	.LLST23
 6161 1c28 20       		.uleb128 0x20
 6162 1c29 AE070000 		.4byte	.LASF827
 6163 1c2d 01       		.byte	0x1
 6164 1c2e 1801     		.2byte	0x118
 6165 1c30 C5000000 		.4byte	0xc5
 6166 1c34 01       		.uleb128 0x1
 6167 1c35 59       		.byte	0x59
 6168 1c36 20       		.uleb128 0x20
 6169 1c37 C1030000 		.4byte	.LASF828
 6170 1c3b 01       		.byte	0x1
 6171 1c3c 1901     		.2byte	0x119
 6172 1c3e 1B1E0000 		.4byte	0x1e1b
 6173 1c42 02       		.uleb128 0x2
 6174 1c43 91       		.byte	0x91
 6175 1c44 4C       		.sleb128 -52
 6176 1c45 21       		.uleb128 0x21
 6177 1c46 20000000 		.4byte	.LBB4
 6178 1c4a 3A000000 		.4byte	.LBE4-.LBB4
 6179 1c4e 051D0000 		.4byte	0x1d05
 6180 1c52 22       		.uleb128 0x22
 6181 1c53 6C656E00 		.ascii	"len\000"
 6182 1c57 01       		.byte	0x1
 6183 1c58 1D01     		.2byte	0x11d
 6184 1c5a C5000000 		.4byte	0xc5
 6185 1c5e 00040000 		.4byte	.LLST24
 6186 1c62 22       		.uleb128 0x22
 6187 1c63 70747200 		.ascii	"ptr\000"
 6188 1c67 01       		.byte	0x1
 6189 1c68 1D01     		.2byte	0x11d
 6190 1c6a DB000000 		.4byte	0xdb
 6191 1c6e 1E040000 		.4byte	.LLST25
ARM GAS  C:\Users\AHMED~1.ELE\AppData\Local\Temp\ccGujCBB.s 			page 128


 6192 1c72 1A       		.uleb128 0x1a
 6193 1c73 26000000 		.4byte	.LVL68
 6194 1c77 86330000 		.4byte	0x3386
 6195 1c7b 861C0000 		.4byte	0x1c86
 6196 1c7f 15       		.uleb128 0x15
 6197 1c80 01       		.uleb128 0x1
 6198 1c81 50       		.byte	0x50
 6199 1c82 02       		.uleb128 0x2
 6200 1c83 91       		.byte	0x91
 6201 1c84 4C       		.sleb128 -52
 6202 1c85 00       		.byte	0
 6203 1c86 1A       		.uleb128 0x1a
 6204 1c87 30000000 		.4byte	.LVL71
 6205 1c8b 9B330000 		.4byte	0x339b
 6206 1c8f A01C0000 		.4byte	0x1ca0
 6207 1c93 15       		.uleb128 0x15
 6208 1c94 01       		.uleb128 0x1
 6209 1c95 51       		.byte	0x51
 6210 1c96 02       		.uleb128 0x2
 6211 1c97 76       		.byte	0x76
 6212 1c98 01       		.sleb128 1
 6213 1c99 15       		.uleb128 0x15
 6214 1c9a 01       		.uleb128 0x1
 6215 1c9b 50       		.byte	0x50
 6216 1c9c 02       		.uleb128 0x2
 6217 1c9d 08       		.byte	0x8
 6218 1c9e 92       		.byte	0x92
 6219 1c9f 00       		.byte	0
 6220 1ca0 1A       		.uleb128 0x1a
 6221 1ca1 3C000000 		.4byte	.LVL72
 6222 1ca5 B5330000 		.4byte	0x33b5
 6223 1ca9 C01C0000 		.4byte	0x1cc0
 6224 1cad 15       		.uleb128 0x15
 6225 1cae 01       		.uleb128 0x1
 6226 1caf 52       		.byte	0x52
 6227 1cb0 02       		.uleb128 0x2
 6228 1cb1 76       		.byte	0x76
 6229 1cb2 00       		.sleb128 0
 6230 1cb3 15       		.uleb128 0x15
 6231 1cb4 01       		.uleb128 0x1
 6232 1cb5 51       		.byte	0x51
 6233 1cb6 02       		.uleb128 0x2
 6234 1cb7 91       		.byte	0x91
 6235 1cb8 4C       		.sleb128 -52
 6236 1cb9 15       		.uleb128 0x15
 6237 1cba 01       		.uleb128 0x1
 6238 1cbb 50       		.byte	0x50
 6239 1cbc 02       		.uleb128 0x2
 6240 1cbd 75       		.byte	0x75
 6241 1cbe 00       		.sleb128 0
 6242 1cbf 00       		.byte	0
 6243 1cc0 1A       		.uleb128 0x1a
 6244 1cc1 52000000 		.4byte	.LVL73
 6245 1cc5 5D330000 		.4byte	0x335d
 6246 1cc9 EE1C0000 		.4byte	0x1cee
 6247 1ccd 15       		.uleb128 0x15
 6248 1cce 01       		.uleb128 0x1
ARM GAS  C:\Users\AHMED~1.ELE\AppData\Local\Temp\ccGujCBB.s 			page 129


 6249 1ccf 53       		.byte	0x53
 6250 1cd0 02       		.uleb128 0x2
 6251 1cd1 77       		.byte	0x77
 6252 1cd2 00       		.sleb128 0
 6253 1cd3 15       		.uleb128 0x15
 6254 1cd4 01       		.uleb128 0x1
 6255 1cd5 52       		.byte	0x52
 6256 1cd6 02       		.uleb128 0x2
 6257 1cd7 75       		.byte	0x75
 6258 1cd8 00       		.sleb128 0
 6259 1cd9 15       		.uleb128 0x15
 6260 1cda 01       		.uleb128 0x1
 6261 1cdb 51       		.byte	0x51
 6262 1cdc 02       		.uleb128 0x2
 6263 1cdd 08       		.byte	0x8
 6264 1cde 25       		.byte	0x25
 6265 1cdf 15       		.uleb128 0x15
 6266 1ce0 01       		.uleb128 0x1
 6267 1ce1 50       		.byte	0x50
 6268 1ce2 01       		.uleb128 0x1
 6269 1ce3 3F       		.byte	0x3f
 6270 1ce4 15       		.uleb128 0x15
 6271 1ce5 02       		.uleb128 0x2
 6272 1ce6 7D       		.byte	0x7d
 6273 1ce7 00       		.sleb128 0
 6274 1ce8 04       		.uleb128 0x4
 6275 1ce9 74       		.byte	0x74
 6276 1cea 00       		.sleb128 0
 6277 1ceb 32       		.byte	0x32
 6278 1cec 21       		.byte	0x21
 6279 1ced 00       		.byte	0
 6280 1cee 1B       		.uleb128 0x1b
 6281 1cef 5A000000 		.4byte	.LVL74
 6282 1cf3 9B330000 		.4byte	0x339b
 6283 1cf7 15       		.uleb128 0x15
 6284 1cf8 01       		.uleb128 0x1
 6285 1cf9 51       		.byte	0x51
 6286 1cfa 02       		.uleb128 0x2
 6287 1cfb 75       		.byte	0x75
 6288 1cfc 00       		.sleb128 0
 6289 1cfd 15       		.uleb128 0x15
 6290 1cfe 01       		.uleb128 0x1
 6291 1cff 50       		.byte	0x50
 6292 1d00 02       		.uleb128 0x2
 6293 1d01 08       		.byte	0x8
 6294 1d02 94       		.byte	0x94
 6295 1d03 00       		.byte	0
 6296 1d04 00       		.byte	0
 6297 1d05 23       		.uleb128 0x23
 6298 1d06 18000000 		.4byte	.Ldebug_ranges0+0x18
 6299 1d0a C21D0000 		.4byte	0x1dc2
 6300 1d0e 22       		.uleb128 0x22
 6301 1d0f 6C656E00 		.ascii	"len\000"
 6302 1d13 01       		.byte	0x1
 6303 1d14 2101     		.2byte	0x121
 6304 1d16 C5000000 		.4byte	0xc5
 6305 1d1a 3C040000 		.4byte	.LLST26
ARM GAS  C:\Users\AHMED~1.ELE\AppData\Local\Temp\ccGujCBB.s 			page 130


 6306 1d1e 22       		.uleb128 0x22
 6307 1d1f 70747200 		.ascii	"ptr\000"
 6308 1d23 01       		.byte	0x1
 6309 1d24 2101     		.2byte	0x121
 6310 1d26 DB000000 		.4byte	0xdb
 6311 1d2a 5A040000 		.4byte	.LLST27
 6312 1d2e 1A       		.uleb128 0x1a
 6313 1d2f 7C000000 		.4byte	.LVL77
 6314 1d33 86330000 		.4byte	0x3386
 6315 1d37 421D0000 		.4byte	0x1d42
 6316 1d3b 15       		.uleb128 0x15
 6317 1d3c 01       		.uleb128 0x1
 6318 1d3d 50       		.byte	0x50
 6319 1d3e 02       		.uleb128 0x2
 6320 1d3f 91       		.byte	0x91
 6321 1d40 4C       		.sleb128 -52
 6322 1d41 00       		.byte	0
 6323 1d42 1A       		.uleb128 0x1a
 6324 1d43 8A000000 		.4byte	.LVL81
 6325 1d47 9B330000 		.4byte	0x339b
 6326 1d4b 5C1D0000 		.4byte	0x1d5c
 6327 1d4f 15       		.uleb128 0x15
 6328 1d50 01       		.uleb128 0x1
 6329 1d51 51       		.byte	0x51
 6330 1d52 02       		.uleb128 0x2
 6331 1d53 76       		.byte	0x76
 6332 1d54 01       		.sleb128 1
 6333 1d55 15       		.uleb128 0x15
 6334 1d56 01       		.uleb128 0x1
 6335 1d57 50       		.byte	0x50
 6336 1d58 02       		.uleb128 0x2
 6337 1d59 08       		.byte	0x8
 6338 1d5a 92       		.byte	0x92
 6339 1d5b 00       		.byte	0
 6340 1d5c 1A       		.uleb128 0x1a
 6341 1d5d 96000000 		.4byte	.LVL83
 6342 1d61 B5330000 		.4byte	0x33b5
 6343 1d65 7C1D0000 		.4byte	0x1d7c
 6344 1d69 15       		.uleb128 0x15
 6345 1d6a 01       		.uleb128 0x1
 6346 1d6b 52       		.byte	0x52
 6347 1d6c 02       		.uleb128 0x2
 6348 1d6d 76       		.byte	0x76
 6349 1d6e 00       		.sleb128 0
 6350 1d6f 15       		.uleb128 0x15
 6351 1d70 01       		.uleb128 0x1
 6352 1d71 51       		.byte	0x51
 6353 1d72 02       		.uleb128 0x2
 6354 1d73 91       		.byte	0x91
 6355 1d74 4C       		.sleb128 -52
 6356 1d75 15       		.uleb128 0x15
 6357 1d76 01       		.uleb128 0x1
 6358 1d77 50       		.byte	0x50
 6359 1d78 02       		.uleb128 0x2
 6360 1d79 75       		.byte	0x75
 6361 1d7a 00       		.sleb128 0
 6362 1d7b 00       		.byte	0
ARM GAS  C:\Users\AHMED~1.ELE\AppData\Local\Temp\ccGujCBB.s 			page 131


 6363 1d7c 1A       		.uleb128 0x1a
 6364 1d7d AE000000 		.4byte	.LVL85
 6365 1d81 5D330000 		.4byte	0x335d
 6366 1d85 AB1D0000 		.4byte	0x1dab
 6367 1d89 15       		.uleb128 0x15
 6368 1d8a 01       		.uleb128 0x1
 6369 1d8b 53       		.byte	0x53
 6370 1d8c 05       		.uleb128 0x5
 6371 1d8d 79       		.byte	0x79
 6372 1d8e 00       		.sleb128 0
 6373 1d8f 77       		.byte	0x77
 6374 1d90 00       		.sleb128 0
 6375 1d91 22       		.byte	0x22
 6376 1d92 15       		.uleb128 0x15
 6377 1d93 01       		.uleb128 0x1
 6378 1d94 52       		.byte	0x52
 6379 1d95 02       		.uleb128 0x2
 6380 1d96 75       		.byte	0x75
 6381 1d97 00       		.sleb128 0
 6382 1d98 15       		.uleb128 0x15
 6383 1d99 01       		.uleb128 0x1
 6384 1d9a 51       		.byte	0x51
 6385 1d9b 02       		.uleb128 0x2
 6386 1d9c 08       		.byte	0x8
 6387 1d9d 25       		.byte	0x25
 6388 1d9e 15       		.uleb128 0x15
 6389 1d9f 01       		.uleb128 0x1
 6390 1da0 50       		.byte	0x50
 6391 1da1 01       		.uleb128 0x1
 6392 1da2 3F       		.byte	0x3f
 6393 1da3 15       		.uleb128 0x15
 6394 1da4 02       		.uleb128 0x2
 6395 1da5 7D       		.byte	0x7d
 6396 1da6 00       		.sleb128 0
 6397 1da7 02       		.uleb128 0x2
 6398 1da8 74       		.byte	0x74
 6399 1da9 00       		.sleb128 0
 6400 1daa 00       		.byte	0
 6401 1dab 1B       		.uleb128 0x1b
 6402 1dac B6000000 		.4byte	.LVL86
 6403 1db0 9B330000 		.4byte	0x339b
 6404 1db4 15       		.uleb128 0x15
 6405 1db5 01       		.uleb128 0x1
 6406 1db6 51       		.byte	0x51
 6407 1db7 02       		.uleb128 0x2
 6408 1db8 75       		.byte	0x75
 6409 1db9 00       		.sleb128 0
 6410 1dba 15       		.uleb128 0x15
 6411 1dbb 01       		.uleb128 0x1
 6412 1dbc 50       		.byte	0x50
 6413 1dbd 02       		.uleb128 0x2
 6414 1dbe 08       		.byte	0x8
 6415 1dbf 94       		.byte	0x94
 6416 1dc0 00       		.byte	0
 6417 1dc1 00       		.byte	0
 6418 1dc2 1A       		.uleb128 0x1a
 6419 1dc3 16000000 		.4byte	.LVL66
ARM GAS  C:\Users\AHMED~1.ELE\AppData\Local\Temp\ccGujCBB.s 			page 132


 6420 1dc7 F1330000 		.4byte	0x33f1
 6421 1dcb E01D0000 		.4byte	0x1de0
 6422 1dcf 15       		.uleb128 0x15
 6423 1dd0 01       		.uleb128 0x1
 6424 1dd1 52       		.byte	0x52
 6425 1dd2 01       		.uleb128 0x1
 6426 1dd3 41       		.byte	0x41
 6427 1dd4 15       		.uleb128 0x15
 6428 1dd5 01       		.uleb128 0x1
 6429 1dd6 51       		.byte	0x51
 6430 1dd7 01       		.uleb128 0x1
 6431 1dd8 30       		.byte	0x30
 6432 1dd9 15       		.uleb128 0x15
 6433 1dda 01       		.uleb128 0x1
 6434 1ddb 50       		.byte	0x50
 6435 1ddc 02       		.uleb128 0x2
 6436 1ddd 91       		.byte	0x91
 6437 1dde 4C       		.sleb128 -52
 6438 1ddf 00       		.byte	0
 6439 1de0 1A       		.uleb128 0x1a
 6440 1de1 20000000 		.4byte	.LVL67
 6441 1de5 B5330000 		.4byte	0x33b5
 6442 1de9 FF1D0000 		.4byte	0x1dff
 6443 1ded 15       		.uleb128 0x15
 6444 1dee 01       		.uleb128 0x1
 6445 1def 52       		.byte	0x52
 6446 1df0 01       		.uleb128 0x1
 6447 1df1 40       		.byte	0x40
 6448 1df2 15       		.uleb128 0x15
 6449 1df3 01       		.uleb128 0x1
 6450 1df4 51       		.byte	0x51
 6451 1df5 02       		.uleb128 0x2
 6452 1df6 78       		.byte	0x78
 6453 1df7 00       		.sleb128 0
 6454 1df8 15       		.uleb128 0x15
 6455 1df9 01       		.uleb128 0x1
 6456 1dfa 50       		.byte	0x50
 6457 1dfb 02       		.uleb128 0x2
 6458 1dfc 91       		.byte	0x91
 6459 1dfd 4C       		.sleb128 -52
 6460 1dfe 00       		.byte	0
 6461 1dff 1B       		.uleb128 0x1b
 6462 1e00 76000000 		.4byte	.LVL76
 6463 1e04 B5330000 		.4byte	0x33b5
 6464 1e08 15       		.uleb128 0x15
 6465 1e09 01       		.uleb128 0x1
 6466 1e0a 52       		.byte	0x52
 6467 1e0b 01       		.uleb128 0x1
 6468 1e0c 40       		.byte	0x40
 6469 1e0d 15       		.uleb128 0x15
 6470 1e0e 01       		.uleb128 0x1
 6471 1e0f 51       		.byte	0x51
 6472 1e10 02       		.uleb128 0x2
 6473 1e11 78       		.byte	0x78
 6474 1e12 10       		.sleb128 16
 6475 1e13 15       		.uleb128 0x15
 6476 1e14 01       		.uleb128 0x1
ARM GAS  C:\Users\AHMED~1.ELE\AppData\Local\Temp\ccGujCBB.s 			page 133


 6477 1e15 50       		.byte	0x50
 6478 1e16 02       		.uleb128 0x2
 6479 1e17 91       		.byte	0x91
 6480 1e18 4C       		.sleb128 -52
 6481 1e19 00       		.byte	0
 6482 1e1a 00       		.byte	0
 6483 1e1b 09       		.uleb128 0x9
 6484 1e1c AF000000 		.4byte	0xaf
 6485 1e20 2B1E0000 		.4byte	0x1e2b
 6486 1e24 0A       		.uleb128 0xa
 6487 1e25 76000000 		.4byte	0x76
 6488 1e29 10       		.byte	0x10
 6489 1e2a 00       		.byte	0
 6490 1e2b 1E       		.uleb128 0x1e
 6491 1e2c DB2C0000 		.4byte	.LASF829
 6492 1e30 01       		.byte	0x1
 6493 1e31 2B01     		.2byte	0x12b
 6494 1e33 00000000 		.4byte	.LFB12
 6495 1e37 26000000 		.4byte	.LFE12-.LFB12
 6496 1e3b 01       		.uleb128 0x1
 6497 1e3c 9C       		.byte	0x9c
 6498 1e3d 961E0000 		.4byte	0x1e96
 6499 1e41 1F       		.uleb128 0x1f
 6500 1e42 22390000 		.4byte	.LASF830
 6501 1e46 01       		.byte	0x1
 6502 1e47 2B01     		.2byte	0x12b
 6503 1e49 961E0000 		.4byte	0x1e96
 6504 1e4d 78040000 		.4byte	.LLST28
 6505 1e51 20       		.uleb128 0x20
 6506 1e52 28150000 		.4byte	.LASF831
 6507 1e56 01       		.byte	0x1
 6508 1e57 2D01     		.2byte	0x12d
 6509 1e59 64150000 		.4byte	0x1564
 6510 1e5d 02       		.uleb128 0x2
 6511 1e5e 91       		.byte	0x91
 6512 1e5f 68       		.sleb128 -24
 6513 1e60 1A       		.uleb128 0x1a
 6514 1e61 18000000 		.4byte	.LVL89
 6515 1e65 0E340000 		.4byte	0x340e
 6516 1e69 801E0000 		.4byte	0x1e80
 6517 1e6d 15       		.uleb128 0x15
 6518 1e6e 01       		.uleb128 0x1
 6519 1e6f 52       		.byte	0x52
 6520 1e70 01       		.uleb128 0x1
 6521 1e71 37       		.byte	0x37
 6522 1e72 15       		.uleb128 0x15
 6523 1e73 01       		.uleb128 0x1
 6524 1e74 51       		.byte	0x51
 6525 1e75 03       		.uleb128 0x3
 6526 1e76 F3       		.byte	0xf3
 6527 1e77 01       		.uleb128 0x1
 6528 1e78 50       		.byte	0x50
 6529 1e79 15       		.uleb128 0x15
 6530 1e7a 01       		.uleb128 0x1
 6531 1e7b 50       		.byte	0x50
 6532 1e7c 02       		.uleb128 0x2
 6533 1e7d 7D       		.byte	0x7d
ARM GAS  C:\Users\AHMED~1.ELE\AppData\Local\Temp\ccGujCBB.s 			page 134


 6534 1e7e 00       		.sleb128 0
 6535 1e7f 00       		.byte	0
 6536 1e80 1B       		.uleb128 0x1b
 6537 1e81 20000000 		.4byte	.LVL90
 6538 1e85 9B330000 		.4byte	0x339b
 6539 1e89 15       		.uleb128 0x15
 6540 1e8a 01       		.uleb128 0x1
 6541 1e8b 51       		.byte	0x51
 6542 1e8c 02       		.uleb128 0x2
 6543 1e8d 7D       		.byte	0x7d
 6544 1e8e 00       		.sleb128 0
 6545 1e8f 15       		.uleb128 0x15
 6546 1e90 01       		.uleb128 0x1
 6547 1e91 50       		.byte	0x50
 6548 1e92 01       		.uleb128 0x1
 6549 1e93 43       		.byte	0x43
 6550 1e94 00       		.byte	0
 6551 1e95 00       		.byte	0
 6552 1e96 06       		.uleb128 0x6
 6553 1e97 04       		.byte	0x4
 6554 1e98 E4150000 		.4byte	0x15e4
 6555 1e9c 1E       		.uleb128 0x1e
 6556 1e9d 27390000 		.4byte	.LASF832
 6557 1ea1 01       		.byte	0x1
 6558 1ea2 3B01     		.2byte	0x13b
 6559 1ea4 00000000 		.4byte	.LFB13
 6560 1ea8 1A000000 		.4byte	.LFE13-.LFB13
 6561 1eac 01       		.uleb128 0x1
 6562 1ead 9C       		.byte	0x9c
 6563 1eae 061F0000 		.4byte	0x1f06
 6564 1eb2 1F       		.uleb128 0x1f
 6565 1eb3 22390000 		.4byte	.LASF830
 6566 1eb7 01       		.byte	0x1
 6567 1eb8 3B01     		.2byte	0x13b
 6568 1eba 961E0000 		.4byte	0x1e96
 6569 1ebe A4040000 		.4byte	.LLST29
 6570 1ec2 20       		.uleb128 0x20
 6571 1ec3 28150000 		.4byte	.LASF831
 6572 1ec7 01       		.byte	0x1
 6573 1ec8 3D01     		.2byte	0x13d
 6574 1eca 061F0000 		.4byte	0x1f06
 6575 1ece 02       		.uleb128 0x2
 6576 1ecf 91       		.byte	0x91
 6577 1ed0 68       		.sleb128 -24
 6578 1ed1 1A       		.uleb128 0x1a
 6579 1ed2 0C000000 		.4byte	.LVL93
 6580 1ed6 9B330000 		.4byte	0x339b
 6581 1eda EA1E0000 		.4byte	0x1eea
 6582 1ede 15       		.uleb128 0x15
 6583 1edf 01       		.uleb128 0x1
 6584 1ee0 51       		.byte	0x51
 6585 1ee1 02       		.uleb128 0x2
 6586 1ee2 7D       		.byte	0x7d
 6587 1ee3 00       		.sleb128 0
 6588 1ee4 15       		.uleb128 0x15
 6589 1ee5 01       		.uleb128 0x1
 6590 1ee6 50       		.byte	0x50
ARM GAS  C:\Users\AHMED~1.ELE\AppData\Local\Temp\ccGujCBB.s 			page 135


 6591 1ee7 01       		.uleb128 0x1
 6592 1ee8 42       		.byte	0x42
 6593 1ee9 00       		.byte	0
 6594 1eea 1B       		.uleb128 0x1b
 6595 1eeb 16000000 		.4byte	.LVL94
 6596 1eef 29340000 		.4byte	0x3429
 6597 1ef3 15       		.uleb128 0x15
 6598 1ef4 01       		.uleb128 0x1
 6599 1ef5 52       		.byte	0x52
 6600 1ef6 01       		.uleb128 0x1
 6601 1ef7 37       		.byte	0x37
 6602 1ef8 15       		.uleb128 0x15
 6603 1ef9 01       		.uleb128 0x1
 6604 1efa 51       		.byte	0x51
 6605 1efb 02       		.uleb128 0x2
 6606 1efc 7D       		.byte	0x7d
 6607 1efd 00       		.sleb128 0
 6608 1efe 15       		.uleb128 0x15
 6609 1eff 01       		.uleb128 0x1
 6610 1f00 50       		.byte	0x50
 6611 1f01 02       		.uleb128 0x2
 6612 1f02 74       		.byte	0x74
 6613 1f03 00       		.sleb128 0
 6614 1f04 00       		.byte	0
 6615 1f05 00       		.byte	0
 6616 1f06 09       		.uleb128 0x9
 6617 1f07 AF000000 		.4byte	0xaf
 6618 1f0b 161F0000 		.4byte	0x1f16
 6619 1f0f 0A       		.uleb128 0xa
 6620 1f10 76000000 		.4byte	0x76
 6621 1f14 0D       		.byte	0xd
 6622 1f15 00       		.byte	0
 6623 1f16 1E       		.uleb128 0x1e
 6624 1f17 DA270000 		.4byte	.LASF833
 6625 1f1b 01       		.byte	0x1
 6626 1f1c 4C01     		.2byte	0x14c
 6627 1f1e 00000000 		.4byte	.LFB14
 6628 1f22 84000000 		.4byte	.LFE14-.LFB14
 6629 1f26 01       		.uleb128 0x1
 6630 1f27 9C       		.byte	0x9c
 6631 1f28 3B200000 		.4byte	0x203b
 6632 1f2c 1F       		.uleb128 0x1f
 6633 1f2d EB0E0000 		.4byte	.LASF834
 6634 1f31 01       		.byte	0x1
 6635 1f32 4C01     		.2byte	0x14c
 6636 1f34 DB000000 		.4byte	0xdb
 6637 1f38 C2040000 		.4byte	.LLST30
 6638 1f3c 1F       		.uleb128 0x1f
 6639 1f3d 22390000 		.4byte	.LASF830
 6640 1f41 01       		.byte	0x1
 6641 1f42 4C01     		.2byte	0x14c
 6642 1f44 961E0000 		.4byte	0x1e96
 6643 1f48 14050000 		.4byte	.LLST31
 6644 1f4c 1F       		.uleb128 0x1f
 6645 1f4d C31E0000 		.4byte	.LASF835
 6646 1f51 01       		.byte	0x1
 6647 1f52 4C01     		.2byte	0x14c
ARM GAS  C:\Users\AHMED~1.ELE\AppData\Local\Temp\ccGujCBB.s 			page 136


 6648 1f54 A4000000 		.4byte	0xa4
 6649 1f58 59050000 		.4byte	.LLST32
 6650 1f5c 1A       		.uleb128 0x1a
 6651 1f5d 10000000 		.4byte	.LVL98
 6652 1f61 44340000 		.4byte	0x3444
 6653 1f65 7B1F0000 		.4byte	0x1f7b
 6654 1f69 15       		.uleb128 0x15
 6655 1f6a 01       		.uleb128 0x1
 6656 1f6b 52       		.byte	0x52
 6657 1f6c 01       		.uleb128 0x1
 6658 1f6d 42       		.byte	0x42
 6659 1f6e 15       		.uleb128 0x15
 6660 1f6f 01       		.uleb128 0x1
 6661 1f70 51       		.byte	0x51
 6662 1f71 02       		.uleb128 0x2
 6663 1f72 08       		.byte	0x8
 6664 1f73 20       		.byte	0x20
 6665 1f74 15       		.uleb128 0x15
 6666 1f75 01       		.uleb128 0x1
 6667 1f76 50       		.byte	0x50
 6668 1f77 02       		.uleb128 0x2
 6669 1f78 74       		.byte	0x74
 6670 1f79 00       		.sleb128 0
 6671 1f7a 00       		.byte	0
 6672 1f7b 19       		.uleb128 0x19
 6673 1f7c 16000000 		.4byte	.LVL99
 6674 1f80 63340000 		.4byte	0x3463
 6675 1f84 1A       		.uleb128 0x1a
 6676 1f85 2A000000 		.4byte	.LVL100
 6677 1f89 B5330000 		.4byte	0x33b5
 6678 1f8d 9D1F0000 		.4byte	0x1f9d
 6679 1f91 15       		.uleb128 0x15
 6680 1f92 01       		.uleb128 0x1
 6681 1f93 52       		.byte	0x52
 6682 1f94 01       		.uleb128 0x1
 6683 1f95 33       		.byte	0x33
 6684 1f96 15       		.uleb128 0x15
 6685 1f97 01       		.uleb128 0x1
 6686 1f98 50       		.byte	0x50
 6687 1f99 02       		.uleb128 0x2
 6688 1f9a 74       		.byte	0x74
 6689 1f9b 00       		.sleb128 0
 6690 1f9c 00       		.byte	0
 6691 1f9d 1A       		.uleb128 0x1a
 6692 1f9e 34000000 		.4byte	.LVL101
 6693 1fa2 0E340000 		.4byte	0x340e
 6694 1fa6 BC1F0000 		.4byte	0x1fbc
 6695 1faa 15       		.uleb128 0x15
 6696 1fab 01       		.uleb128 0x1
 6697 1fac 52       		.byte	0x52
 6698 1fad 01       		.uleb128 0x1
 6699 1fae 31       		.byte	0x31
 6700 1faf 15       		.uleb128 0x15
 6701 1fb0 01       		.uleb128 0x1
 6702 1fb1 51       		.byte	0x51
 6703 1fb2 02       		.uleb128 0x2
 6704 1fb3 75       		.byte	0x75
ARM GAS  C:\Users\AHMED~1.ELE\AppData\Local\Temp\ccGujCBB.s 			page 137


 6705 1fb4 03       		.sleb128 3
 6706 1fb5 15       		.uleb128 0x15
 6707 1fb6 01       		.uleb128 0x1
 6708 1fb7 50       		.byte	0x50
 6709 1fb8 02       		.uleb128 0x2
 6710 1fb9 74       		.byte	0x74
 6711 1fba 04       		.sleb128 4
 6712 1fbb 00       		.byte	0
 6713 1fbc 1A       		.uleb128 0x1a
 6714 1fbd 4E000000 		.4byte	.LVL102
 6715 1fc1 0E340000 		.4byte	0x340e
 6716 1fc5 DB1F0000 		.4byte	0x1fdb
 6717 1fc9 15       		.uleb128 0x15
 6718 1fca 01       		.uleb128 0x1
 6719 1fcb 52       		.byte	0x52
 6720 1fcc 01       		.uleb128 0x1
 6721 1fcd 32       		.byte	0x32
 6722 1fce 15       		.uleb128 0x15
 6723 1fcf 01       		.uleb128 0x1
 6724 1fd0 51       		.byte	0x51
 6725 1fd1 02       		.uleb128 0x2
 6726 1fd2 75       		.byte	0x75
 6727 1fd3 00       		.sleb128 0
 6728 1fd4 15       		.uleb128 0x15
 6729 1fd5 01       		.uleb128 0x1
 6730 1fd6 50       		.byte	0x50
 6731 1fd7 02       		.uleb128 0x2
 6732 1fd8 76       		.byte	0x76
 6733 1fd9 00       		.sleb128 0
 6734 1fda 00       		.byte	0
 6735 1fdb 1A       		.uleb128 0x1a
 6736 1fdc 5A000000 		.4byte	.LVL103
 6737 1fe0 0E340000 		.4byte	0x340e
 6738 1fe4 FA1F0000 		.4byte	0x1ffa
 6739 1fe8 15       		.uleb128 0x15
 6740 1fe9 01       		.uleb128 0x1
 6741 1fea 52       		.byte	0x52
 6742 1feb 01       		.uleb128 0x1
 6743 1fec 31       		.byte	0x31
 6744 1fed 15       		.uleb128 0x15
 6745 1fee 01       		.uleb128 0x1
 6746 1fef 51       		.byte	0x51
 6747 1ff0 02       		.uleb128 0x2
 6748 1ff1 75       		.byte	0x75
 6749 1ff2 04       		.sleb128 4
 6750 1ff3 15       		.uleb128 0x15
 6751 1ff4 01       		.uleb128 0x1
 6752 1ff5 50       		.byte	0x50
 6753 1ff6 02       		.uleb128 0x2
 6754 1ff7 74       		.byte	0x74
 6755 1ff8 0D       		.sleb128 13
 6756 1ff9 00       		.byte	0
 6757 1ffa 1A       		.uleb128 0x1a
 6758 1ffb 6A000000 		.4byte	.LVL104
 6759 1fff 0E340000 		.4byte	0x340e
 6760 2003 19200000 		.4byte	0x2019
 6761 2007 15       		.uleb128 0x15
ARM GAS  C:\Users\AHMED~1.ELE\AppData\Local\Temp\ccGujCBB.s 			page 138


 6762 2008 01       		.uleb128 0x1
 6763 2009 52       		.byte	0x52
 6764 200a 01       		.uleb128 0x1
 6765 200b 31       		.byte	0x31
 6766 200c 15       		.uleb128 0x15
 6767 200d 01       		.uleb128 0x1
 6768 200e 51       		.byte	0x51
 6769 200f 02       		.uleb128 0x2
 6770 2010 75       		.byte	0x75
 6771 2011 05       		.sleb128 5
 6772 2012 15       		.uleb128 0x15
 6773 2013 01       		.uleb128 0x1
 6774 2014 50       		.byte	0x50
 6775 2015 02       		.uleb128 0x2
 6776 2016 74       		.byte	0x74
 6777 2017 10       		.sleb128 16
 6778 2018 00       		.byte	0
 6779 2019 14       		.uleb128 0x14
 6780 201a 7C000000 		.4byte	.LVL106
 6781 201e 78340000 		.4byte	0x3478
 6782 2022 15       		.uleb128 0x15
 6783 2023 01       		.uleb128 0x1
 6784 2024 52       		.byte	0x52
 6785 2025 01       		.uleb128 0x1
 6786 2026 38       		.byte	0x38
 6787 2027 15       		.uleb128 0x15
 6788 2028 01       		.uleb128 0x1
 6789 2029 51       		.byte	0x51
 6790 202a 05       		.uleb128 0x5
 6791 202b F3       		.byte	0xf3
 6792 202c 01       		.uleb128 0x1
 6793 202d 50       		.byte	0x50
 6794 202e 23       		.byte	0x23
 6795 202f 0A       		.uleb128 0xa
 6796 2030 15       		.uleb128 0x15
 6797 2031 01       		.uleb128 0x1
 6798 2032 50       		.byte	0x50
 6799 2033 05       		.uleb128 0x5
 6800 2034 F3       		.byte	0xf3
 6801 2035 01       		.uleb128 0x1
 6802 2036 50       		.byte	0x50
 6803 2037 23       		.byte	0x23
 6804 2038 08       		.uleb128 0x8
 6805 2039 00       		.byte	0
 6806 203a 00       		.byte	0
 6807 203b 24       		.uleb128 0x24
 6808 203c A0250000 		.4byte	.LASF837
 6809 2040 01       		.byte	0x1
 6810 2041 6401     		.2byte	0x164
 6811 2043 AF000000 		.4byte	0xaf
 6812 2047 00000000 		.4byte	.LFB15
 6813 204b 5A000000 		.4byte	.LFE15-.LFB15
 6814 204f 01       		.uleb128 0x1
 6815 2050 9C       		.byte	0x9c
 6816 2051 FB200000 		.4byte	0x20fb
 6817 2055 1F       		.uleb128 0x1f
 6818 2056 68170000 		.4byte	.LASF836
ARM GAS  C:\Users\AHMED~1.ELE\AppData\Local\Temp\ccGujCBB.s 			page 139


 6819 205a 01       		.byte	0x1
 6820 205b 6401     		.2byte	0x164
 6821 205d DB000000 		.4byte	0xdb
 6822 2061 7A050000 		.4byte	.LLST33
 6823 2065 25       		.uleb128 0x25
 6824 2066 746D7000 		.ascii	"tmp\000"
 6825 206a 01       		.byte	0x1
 6826 206b 6601     		.2byte	0x166
 6827 206d AF000000 		.4byte	0xaf
 6828 2071 02       		.uleb128 0x2
 6829 2072 91       		.byte	0x91
 6830 2073 6F       		.sleb128 -17
 6831 2074 25       		.uleb128 0x25
 6832 2075 64746700 		.ascii	"dtg\000"
 6833 2079 01       		.byte	0x1
 6834 207a 6701     		.2byte	0x167
 6835 207c E4150000 		.4byte	0x15e4
 6836 2080 02       		.uleb128 0x2
 6837 2081 91       		.byte	0x91
 6838 2082 70       		.sleb128 -16
 6839 2083 1A       		.uleb128 0x1a
 6840 2084 0A000000 		.4byte	.LVL110
 6841 2088 9C1E0000 		.4byte	0x1e9c
 6842 208c 97200000 		.4byte	0x2097
 6843 2090 15       		.uleb128 0x15
 6844 2091 01       		.uleb128 0x1
 6845 2092 50       		.byte	0x50
 6846 2093 02       		.uleb128 0x2
 6847 2094 91       		.byte	0x91
 6848 2095 70       		.sleb128 -16
 6849 2096 00       		.byte	0
 6850 2097 1A       		.uleb128 0x1a
 6851 2098 28000000 		.4byte	.LVL111
 6852 209c 97340000 		.4byte	0x3497
 6853 20a0 B1200000 		.4byte	0x20b1
 6854 20a4 15       		.uleb128 0x15
 6855 20a5 01       		.uleb128 0x1
 6856 20a6 51       		.byte	0x51
 6857 20a7 02       		.uleb128 0x2
 6858 20a8 91       		.byte	0x91
 6859 20a9 6F       		.sleb128 -17
 6860 20aa 15       		.uleb128 0x15
 6861 20ab 01       		.uleb128 0x1
 6862 20ac 50       		.byte	0x50
 6863 20ad 02       		.uleb128 0x2
 6864 20ae 74       		.byte	0x74
 6865 20af 00       		.sleb128 0
 6866 20b0 00       		.byte	0
 6867 20b1 1A       		.uleb128 0x1a
 6868 20b2 40000000 		.4byte	.LVL112
 6869 20b6 B6340000 		.4byte	0x34b6
 6870 20ba CB200000 		.4byte	0x20cb
 6871 20be 15       		.uleb128 0x15
 6872 20bf 01       		.uleb128 0x1
 6873 20c0 51       		.byte	0x51
 6874 20c1 02       		.uleb128 0x2
 6875 20c2 91       		.byte	0x91
ARM GAS  C:\Users\AHMED~1.ELE\AppData\Local\Temp\ccGujCBB.s 			page 140


 6876 20c3 6F       		.sleb128 -17
 6877 20c4 15       		.uleb128 0x15
 6878 20c5 01       		.uleb128 0x1
 6879 20c6 50       		.byte	0x50
 6880 20c7 02       		.uleb128 0x2
 6881 20c8 74       		.byte	0x74
 6882 20c9 00       		.sleb128 0
 6883 20ca 00       		.byte	0
 6884 20cb 1A       		.uleb128 0x1a
 6885 20cc 4C000000 		.4byte	.LVL113
 6886 20d0 B5330000 		.4byte	0x33b5
 6887 20d4 EA200000 		.4byte	0x20ea
 6888 20d8 15       		.uleb128 0x15
 6889 20d9 01       		.uleb128 0x1
 6890 20da 52       		.byte	0x52
 6891 20db 01       		.uleb128 0x1
 6892 20dc 36       		.byte	0x36
 6893 20dd 15       		.uleb128 0x15
 6894 20de 01       		.uleb128 0x1
 6895 20df 51       		.byte	0x51
 6896 20e0 02       		.uleb128 0x2
 6897 20e1 74       		.byte	0x74
 6898 20e2 00       		.sleb128 0
 6899 20e3 15       		.uleb128 0x15
 6900 20e4 01       		.uleb128 0x1
 6901 20e5 50       		.byte	0x50
 6902 20e6 02       		.uleb128 0x2
 6903 20e7 91       		.byte	0x91
 6904 20e8 71       		.sleb128 -15
 6905 20e9 00       		.byte	0
 6906 20ea 1B       		.uleb128 0x1b
 6907 20eb 52000000 		.4byte	.LVL114
 6908 20ef 2B1E0000 		.4byte	0x1e2b
 6909 20f3 15       		.uleb128 0x15
 6910 20f4 01       		.uleb128 0x1
 6911 20f5 50       		.byte	0x50
 6912 20f6 02       		.uleb128 0x2
 6913 20f7 91       		.byte	0x91
 6914 20f8 70       		.sleb128 -16
 6915 20f9 00       		.byte	0
 6916 20fa 00       		.byte	0
 6917 20fb 24       		.uleb128 0x24
 6918 20fc F40D0000 		.4byte	.LASF838
 6919 2100 01       		.byte	0x1
 6920 2101 7D01     		.2byte	0x17d
 6921 2103 C5000000 		.4byte	0xc5
 6922 2107 00000000 		.4byte	.LFB16
 6923 210b 08000000 		.4byte	.LFE16-.LFB16
 6924 210f 01       		.uleb128 0x1
 6925 2110 9C       		.byte	0x9c
 6926 2111 27210000 		.4byte	0x2127
 6927 2115 14       		.uleb128 0x14
 6928 2116 08000000 		.4byte	.LVL115
 6929 211a 48330000 		.4byte	0x3348
 6930 211e 15       		.uleb128 0x15
 6931 211f 01       		.uleb128 0x1
 6932 2120 50       		.byte	0x50
ARM GAS  C:\Users\AHMED~1.ELE\AppData\Local\Temp\ccGujCBB.s 			page 141


 6933 2121 03       		.uleb128 0x3
 6934 2122 0A       		.byte	0xa
 6935 2123 9F01     		.2byte	0x19f
 6936 2125 00       		.byte	0
 6937 2126 00       		.byte	0
 6938 2127 24       		.uleb128 0x24
 6939 2128 13390000 		.4byte	.LASF839
 6940 212c 01       		.byte	0x1
 6941 212d 8901     		.2byte	0x189
 6942 212f C5000000 		.4byte	0xc5
 6943 2133 00000000 		.4byte	.LFB17
 6944 2137 14000000 		.4byte	.LFE17-.LFB17
 6945 213b 01       		.uleb128 0x1
 6946 213c 9C       		.byte	0x9c
 6947 213d 73210000 		.4byte	0x2173
 6948 2141 1F       		.uleb128 0x1f
 6949 2142 C6240000 		.4byte	.LASF840
 6950 2146 01       		.byte	0x1
 6951 2147 8901     		.2byte	0x189
 6952 2149 C5000000 		.4byte	0xc5
 6953 214d 98050000 		.4byte	.LLST34
 6954 2151 26       		.uleb128 0x26
 6955 2152 89290000 		.4byte	.LASF841
 6956 2156 01       		.byte	0x1
 6957 2157 8B01     		.2byte	0x18b
 6958 2159 C5000000 		.4byte	0xc5
 6959 215d B6050000 		.4byte	.LLST35
 6960 2161 1B       		.uleb128 0x1b
 6961 2162 0C000000 		.4byte	.LVL118
 6962 2166 48330000 		.4byte	0x3348
 6963 216a 15       		.uleb128 0x15
 6964 216b 01       		.uleb128 0x1
 6965 216c 50       		.byte	0x50
 6966 216d 03       		.uleb128 0x3
 6967 216e 0A       		.byte	0xa
 6968 216f 9F01     		.2byte	0x19f
 6969 2171 00       		.byte	0
 6970 2172 00       		.byte	0
 6971 2173 1E       		.uleb128 0x1e
 6972 2174 A6220000 		.4byte	.LASF842
 6973 2178 01       		.byte	0x1
 6974 2179 9901     		.2byte	0x199
 6975 217b 00000000 		.4byte	.LFB18
 6976 217f 88000000 		.4byte	.LFE18-.LFB18
 6977 2183 01       		.uleb128 0x1
 6978 2184 9C       		.byte	0x9c
 6979 2185 01230000 		.4byte	0x2301
 6980 2189 27       		.uleb128 0x27
 6981 218a 61497000 		.ascii	"aIp\000"
 6982 218e 01       		.byte	0x1
 6983 218f 9901     		.2byte	0x199
 6984 2191 7F000000 		.4byte	0x7f
 6985 2195 C9050000 		.4byte	.LLST36
 6986 2199 1F       		.uleb128 0x1f
 6987 219a 5F1F0000 		.4byte	.LASF843
 6988 219e 01       		.byte	0x1
 6989 219f 9901     		.2byte	0x199
ARM GAS  C:\Users\AHMED~1.ELE\AppData\Local\Temp\ccGujCBB.s 			page 142


 6990 21a1 37000000 		.4byte	0x37
 6991 21a5 F5050000 		.4byte	.LLST37
 6992 21a9 1F       		.uleb128 0x1f
 6993 21aa 372B0000 		.4byte	.LASF844
 6994 21ae 01       		.byte	0x1
 6995 21af 9901     		.2byte	0x199
 6996 21b1 37000000 		.4byte	0x37
 6997 21b5 21060000 		.4byte	.LLST38
 6998 21b9 25       		.uleb128 0x25
 6999 21ba 62756600 		.ascii	"buf\000"
 7000 21be 01       		.byte	0x1
 7001 21bf 9B01     		.2byte	0x19b
 7002 21c1 01010000 		.4byte	0x101
 7003 21c5 03       		.uleb128 0x3
 7004 21c6 91       		.byte	0x91
 7005 21c7 E87E     		.sleb128 -152
 7006 21c9 21       		.uleb128 0x21
 7007 21ca 3A000000 		.4byte	.LBB7
 7008 21ce 3A000000 		.4byte	.LBE7-.LBB7
 7009 21d2 8A220000 		.4byte	0x228a
 7010 21d6 22       		.uleb128 0x22
 7011 21d7 6C656E00 		.ascii	"len\000"
 7012 21db 01       		.byte	0x1
 7013 21dc A001     		.2byte	0x1a0
 7014 21de C5000000 		.4byte	0xc5
 7015 21e2 4D060000 		.4byte	.LLST39
 7016 21e6 22       		.uleb128 0x22
 7017 21e7 70747200 		.ascii	"ptr\000"
 7018 21eb 01       		.byte	0x1
 7019 21ec A001     		.2byte	0x1a0
 7020 21ee DB000000 		.4byte	0xdb
 7021 21f2 6B060000 		.4byte	.LLST40
 7022 21f6 1A       		.uleb128 0x1a
 7023 21f7 40000000 		.4byte	.LVL127
 7024 21fb 86330000 		.4byte	0x3386
 7025 21ff 0B220000 		.4byte	0x220b
 7026 2203 15       		.uleb128 0x15
 7027 2204 01       		.uleb128 0x1
 7028 2205 50       		.byte	0x50
 7029 2206 03       		.uleb128 0x3
 7030 2207 91       		.byte	0x91
 7031 2208 E87E     		.sleb128 -152
 7032 220a 00       		.byte	0
 7033 220b 1A       		.uleb128 0x1a
 7034 220c 4A000000 		.4byte	.LVL130
 7035 2210 9B330000 		.4byte	0x339b
 7036 2214 25220000 		.4byte	0x2225
 7037 2218 15       		.uleb128 0x15
 7038 2219 01       		.uleb128 0x1
 7039 221a 51       		.byte	0x51
 7040 221b 02       		.uleb128 0x2
 7041 221c 75       		.byte	0x75
 7042 221d 01       		.sleb128 1
 7043 221e 15       		.uleb128 0x15
 7044 221f 01       		.uleb128 0x1
 7045 2220 50       		.byte	0x50
 7046 2221 02       		.uleb128 0x2
ARM GAS  C:\Users\AHMED~1.ELE\AppData\Local\Temp\ccGujCBB.s 			page 143


 7047 2222 08       		.byte	0x8
 7048 2223 92       		.byte	0x92
 7049 2224 00       		.byte	0
 7050 2225 1A       		.uleb128 0x1a
 7051 2226 56000000 		.4byte	.LVL132
 7052 222a B5330000 		.4byte	0x33b5
 7053 222e 46220000 		.4byte	0x2246
 7054 2232 15       		.uleb128 0x15
 7055 2233 01       		.uleb128 0x1
 7056 2234 52       		.byte	0x52
 7057 2235 02       		.uleb128 0x2
 7058 2236 75       		.byte	0x75
 7059 2237 00       		.sleb128 0
 7060 2238 15       		.uleb128 0x15
 7061 2239 01       		.uleb128 0x1
 7062 223a 51       		.byte	0x51
 7063 223b 03       		.uleb128 0x3
 7064 223c 91       		.byte	0x91
 7065 223d E87E     		.sleb128 -152
 7066 223f 15       		.uleb128 0x15
 7067 2240 01       		.uleb128 0x1
 7068 2241 50       		.byte	0x50
 7069 2242 02       		.uleb128 0x2
 7070 2243 74       		.byte	0x74
 7071 2244 00       		.sleb128 0
 7072 2245 00       		.byte	0
 7073 2246 1A       		.uleb128 0x1a
 7074 2247 6C000000 		.4byte	.LVL133
 7075 224b 5D330000 		.4byte	0x335d
 7076 224f 73220000 		.4byte	0x2273
 7077 2253 15       		.uleb128 0x15
 7078 2254 01       		.uleb128 0x1
 7079 2255 53       		.byte	0x53
 7080 2256 02       		.uleb128 0x2
 7081 2257 77       		.byte	0x77
 7082 2258 00       		.sleb128 0
 7083 2259 15       		.uleb128 0x15
 7084 225a 01       		.uleb128 0x1
 7085 225b 52       		.byte	0x52
 7086 225c 02       		.uleb128 0x2
 7087 225d 74       		.byte	0x74
 7088 225e 00       		.sleb128 0
 7089 225f 15       		.uleb128 0x15
 7090 2260 01       		.uleb128 0x1
 7091 2261 51       		.byte	0x51
 7092 2262 02       		.uleb128 0x2
 7093 2263 08       		.byte	0x8
 7094 2264 25       		.byte	0x25
 7095 2265 15       		.uleb128 0x15
 7096 2266 01       		.uleb128 0x1
 7097 2267 50       		.byte	0x50
 7098 2268 01       		.uleb128 0x1
 7099 2269 3F       		.byte	0x3f
 7100 226a 15       		.uleb128 0x15
 7101 226b 02       		.uleb128 0x2
 7102 226c 7D       		.byte	0x7d
 7103 226d 00       		.sleb128 0
ARM GAS  C:\Users\AHMED~1.ELE\AppData\Local\Temp\ccGujCBB.s 			page 144


 7104 226e 03       		.uleb128 0x3
 7105 226f 0A       		.byte	0xa
 7106 2270 0020     		.2byte	0x2000
 7107 2272 00       		.byte	0
 7108 2273 1B       		.uleb128 0x1b
 7109 2274 74000000 		.4byte	.LVL134
 7110 2278 9B330000 		.4byte	0x339b
 7111 227c 15       		.uleb128 0x15
 7112 227d 01       		.uleb128 0x1
 7113 227e 51       		.byte	0x51
 7114 227f 02       		.uleb128 0x2
 7115 2280 74       		.byte	0x74
 7116 2281 00       		.sleb128 0
 7117 2282 15       		.uleb128 0x15
 7118 2283 01       		.uleb128 0x1
 7119 2284 50       		.byte	0x50
 7120 2285 02       		.uleb128 0x2
 7121 2286 08       		.byte	0x8
 7122 2287 94       		.byte	0x94
 7123 2288 00       		.byte	0
 7124 2289 00       		.byte	0
 7125 228a 1A       		.uleb128 0x1a
 7126 228b 1C000000 		.4byte	.LVL124
 7127 228f 5D330000 		.4byte	0x335d
 7128 2293 B6220000 		.4byte	0x22b6
 7129 2297 15       		.uleb128 0x15
 7130 2298 01       		.uleb128 0x1
 7131 2299 53       		.byte	0x53
 7132 229a 03       		.uleb128 0x3
 7133 229b 0A       		.byte	0xa
 7134 229c 0020     		.2byte	0x2000
 7135 229e 15       		.uleb128 0x15
 7136 229f 01       		.uleb128 0x1
 7137 22a0 52       		.byte	0x52
 7138 22a1 02       		.uleb128 0x2
 7139 22a2 77       		.byte	0x77
 7140 22a3 00       		.sleb128 0
 7141 22a4 15       		.uleb128 0x15
 7142 22a5 01       		.uleb128 0x1
 7143 22a6 51       		.byte	0x51
 7144 22a7 02       		.uleb128 0x2
 7145 22a8 08       		.byte	0x8
 7146 22a9 24       		.byte	0x24
 7147 22aa 15       		.uleb128 0x15
 7148 22ab 01       		.uleb128 0x1
 7149 22ac 50       		.byte	0x50
 7150 22ad 01       		.uleb128 0x1
 7151 22ae 3F       		.byte	0x3f
 7152 22af 15       		.uleb128 0x15
 7153 22b0 02       		.uleb128 0x2
 7154 22b1 7D       		.byte	0x7d
 7155 22b2 00       		.sleb128 0
 7156 22b3 01       		.uleb128 0x1
 7157 22b4 30       		.byte	0x30
 7158 22b5 00       		.byte	0
 7159 22b6 1A       		.uleb128 0x1a
 7160 22b7 26000000 		.4byte	.LVL125
ARM GAS  C:\Users\AHMED~1.ELE\AppData\Local\Temp\ccGujCBB.s 			page 145


 7161 22bb 9B330000 		.4byte	0x339b
 7162 22bf CE220000 		.4byte	0x22ce
 7163 22c3 15       		.uleb128 0x15
 7164 22c4 01       		.uleb128 0x1
 7165 22c5 51       		.byte	0x51
 7166 22c6 01       		.uleb128 0x1
 7167 22c7 4C       		.byte	0x4c
 7168 22c8 15       		.uleb128 0x15
 7169 22c9 01       		.uleb128 0x1
 7170 22ca 50       		.byte	0x50
 7171 22cb 01       		.uleb128 0x1
 7172 22cc 46       		.byte	0x46
 7173 22cd 00       		.byte	0
 7174 22ce 1A       		.uleb128 0x1a
 7175 22cf 3A000000 		.4byte	.LVL126
 7176 22d3 D5340000 		.4byte	0x34d5
 7177 22d7 EC220000 		.4byte	0x22ec
 7178 22db 15       		.uleb128 0x15
 7179 22dc 01       		.uleb128 0x1
 7180 22dd 51       		.byte	0x51
 7181 22de 05       		.uleb128 0x5
 7182 22df 03       		.byte	0x3
 7183 22e0 00000000 		.4byte	.LC0
 7184 22e4 15       		.uleb128 0x15
 7185 22e5 01       		.uleb128 0x1
 7186 22e6 50       		.byte	0x50
 7187 22e7 03       		.uleb128 0x3
 7188 22e8 91       		.byte	0x91
 7189 22e9 E87E     		.sleb128 -152
 7190 22eb 00       		.byte	0
 7191 22ec 1B       		.uleb128 0x1b
 7192 22ed 7E000000 		.4byte	.LVL135
 7193 22f1 9B330000 		.4byte	0x339b
 7194 22f5 15       		.uleb128 0x15
 7195 22f6 01       		.uleb128 0x1
 7196 22f7 51       		.byte	0x51
 7197 22f8 01       		.uleb128 0x1
 7198 22f9 4D       		.byte	0x4d
 7199 22fa 15       		.uleb128 0x15
 7200 22fb 01       		.uleb128 0x1
 7201 22fc 50       		.byte	0x50
 7202 22fd 01       		.uleb128 0x1
 7203 22fe 46       		.byte	0x46
 7204 22ff 00       		.byte	0
 7205 2300 00       		.byte	0
 7206 2301 24       		.uleb128 0x24
 7207 2302 D4250000 		.4byte	.LASF845
 7208 2306 01       		.byte	0x1
 7209 2307 AD01     		.2byte	0x1ad
 7210 2309 A4000000 		.4byte	0xa4
 7211 230d 00000000 		.4byte	.LFB19
 7212 2311 34010000 		.4byte	.LFE19-.LFB19
 7213 2315 01       		.uleb128 0x1
 7214 2316 9C       		.byte	0x9c
 7215 2317 50250000 		.4byte	0x2550
 7216 231b 27       		.uleb128 0x27
 7217 231c 61497000 		.ascii	"aIp\000"
ARM GAS  C:\Users\AHMED~1.ELE\AppData\Local\Temp\ccGujCBB.s 			page 146


 7218 2320 01       		.byte	0x1
 7219 2321 AD01     		.2byte	0x1ad
 7220 2323 DB000000 		.4byte	0xdb
 7221 2327 89060000 		.4byte	.LLST41
 7222 232b 1F       		.uleb128 0x1f
 7223 232c 5F1F0000 		.4byte	.LASF843
 7224 2330 01       		.byte	0x1
 7225 2331 AD01     		.2byte	0x1ad
 7226 2333 C5000000 		.4byte	0xc5
 7227 2337 B5060000 		.4byte	.LLST42
 7228 233b 26       		.uleb128 0x26
 7229 233c F7330000 		.4byte	.LASF846
 7230 2340 01       		.byte	0x1
 7231 2341 AF01     		.2byte	0x1af
 7232 2343 C5000000 		.4byte	0xc5
 7233 2347 E1060000 		.4byte	.LLST43
 7234 234b 26       		.uleb128 0x26
 7235 234c F6390000 		.4byte	.LASF847
 7236 2350 01       		.byte	0x1
 7237 2351 B001     		.2byte	0x1b0
 7238 2353 C5000000 		.4byte	0xc5
 7239 2357 38070000 		.4byte	.LLST44
 7240 235b 20       		.uleb128 0x20
 7241 235c 5C390000 		.4byte	.LASF848
 7242 2360 01       		.byte	0x1
 7243 2361 B101     		.2byte	0x1b1
 7244 2363 E1000000 		.4byte	0xe1
 7245 2367 03       		.uleb128 0x3
 7246 2368 91       		.byte	0x91
 7247 2369 DC7E     		.sleb128 -164
 7248 236b 25       		.uleb128 0x25
 7249 236c 62756600 		.ascii	"buf\000"
 7250 2370 01       		.byte	0x1
 7251 2371 B101     		.2byte	0x1b1
 7252 2373 01010000 		.4byte	0x101
 7253 2377 03       		.uleb128 0x3
 7254 2378 91       		.byte	0x91
 7255 2379 E07E     		.sleb128 -160
 7256 237b 22       		.uleb128 0x22
 7257 237c 6900     		.ascii	"i\000"
 7258 237e 01       		.byte	0x1
 7259 237f B201     		.2byte	0x1b2
 7260 2381 C5000000 		.4byte	0xc5
 7261 2385 CB070000 		.4byte	.LLST45
 7262 2389 26       		.uleb128 0x26
 7263 238a 9B3A0000 		.4byte	.LASF849
 7264 238e 01       		.byte	0x1
 7265 238f B301     		.2byte	0x1b3
 7266 2391 C5000000 		.4byte	0xc5
 7267 2395 DE070000 		.4byte	.LLST46
 7268 2399 21       		.uleb128 0x21
 7269 239a 36000000 		.4byte	.LBB8
 7270 239e 40000000 		.4byte	.LBE8-.LBB8
 7271 23a2 5F240000 		.4byte	0x245f
 7272 23a6 22       		.uleb128 0x22
 7273 23a7 6C656E00 		.ascii	"len\000"
 7274 23ab 01       		.byte	0x1
ARM GAS  C:\Users\AHMED~1.ELE\AppData\Local\Temp\ccGujCBB.s 			page 147


 7275 23ac BE01     		.2byte	0x1be
 7276 23ae C5000000 		.4byte	0xc5
 7277 23b2 2C080000 		.4byte	.LLST47
 7278 23b6 22       		.uleb128 0x22
 7279 23b7 70747200 		.ascii	"ptr\000"
 7280 23bb 01       		.byte	0x1
 7281 23bc BE01     		.2byte	0x1be
 7282 23be DB000000 		.4byte	0xdb
 7283 23c2 4A080000 		.4byte	.LLST48
 7284 23c6 1A       		.uleb128 0x1a
 7285 23c7 3C000000 		.4byte	.LVL145
 7286 23cb 86330000 		.4byte	0x3386
 7287 23cf DB230000 		.4byte	0x23db
 7288 23d3 15       		.uleb128 0x15
 7289 23d4 01       		.uleb128 0x1
 7290 23d5 50       		.byte	0x50
 7291 23d6 03       		.uleb128 0x3
 7292 23d7 91       		.byte	0x91
 7293 23d8 E07E     		.sleb128 -160
 7294 23da 00       		.byte	0
 7295 23db 1A       		.uleb128 0x1a
 7296 23dc 48000000 		.4byte	.LVL148
 7297 23e0 9B330000 		.4byte	0x339b
 7298 23e4 F5230000 		.4byte	0x23f5
 7299 23e8 15       		.uleb128 0x15
 7300 23e9 01       		.uleb128 0x1
 7301 23ea 51       		.byte	0x51
 7302 23eb 02       		.uleb128 0x2
 7303 23ec 79       		.byte	0x79
 7304 23ed 01       		.sleb128 1
 7305 23ee 15       		.uleb128 0x15
 7306 23ef 01       		.uleb128 0x1
 7307 23f0 50       		.byte	0x50
 7308 23f1 02       		.uleb128 0x2
 7309 23f2 08       		.byte	0x8
 7310 23f3 92       		.byte	0x92
 7311 23f4 00       		.byte	0
 7312 23f5 1A       		.uleb128 0x1a
 7313 23f6 54000000 		.4byte	.LVL149
 7314 23fa B5330000 		.4byte	0x33b5
 7315 23fe 16240000 		.4byte	0x2416
 7316 2402 15       		.uleb128 0x15
 7317 2403 01       		.uleb128 0x1
 7318 2404 52       		.byte	0x52
 7319 2405 02       		.uleb128 0x2
 7320 2406 79       		.byte	0x79
 7321 2407 00       		.sleb128 0
 7322 2408 15       		.uleb128 0x15
 7323 2409 01       		.uleb128 0x1
 7324 240a 51       		.byte	0x51
 7325 240b 03       		.uleb128 0x3
 7326 240c 91       		.byte	0x91
 7327 240d E07E     		.sleb128 -160
 7328 240f 15       		.uleb128 0x15
 7329 2410 01       		.uleb128 0x1
 7330 2411 50       		.byte	0x50
 7331 2412 02       		.uleb128 0x2
ARM GAS  C:\Users\AHMED~1.ELE\AppData\Local\Temp\ccGujCBB.s 			page 148


 7332 2413 78       		.byte	0x78
 7333 2414 00       		.sleb128 0
 7334 2415 00       		.byte	0
 7335 2416 1A       		.uleb128 0x1a
 7336 2417 6E000000 		.4byte	.LVL150
 7337 241b 5D330000 		.4byte	0x335d
 7338 241f 48240000 		.4byte	0x2448
 7339 2423 15       		.uleb128 0x15
 7340 2424 01       		.uleb128 0x1
 7341 2425 53       		.byte	0x53
 7342 2426 07       		.uleb128 0x7
 7343 2427 74       		.byte	0x74
 7344 2428 00       		.sleb128 0
 7345 2429 32       		.byte	0x32
 7346 242a 24       		.byte	0x24
 7347 242b 76       		.byte	0x76
 7348 242c 00       		.sleb128 0
 7349 242d 22       		.byte	0x22
 7350 242e 15       		.uleb128 0x15
 7351 242f 01       		.uleb128 0x1
 7352 2430 52       		.byte	0x52
 7353 2431 02       		.uleb128 0x2
 7354 2432 78       		.byte	0x78
 7355 2433 00       		.sleb128 0
 7356 2434 15       		.uleb128 0x15
 7357 2435 01       		.uleb128 0x1
 7358 2436 51       		.byte	0x51
 7359 2437 02       		.uleb128 0x2
 7360 2438 08       		.byte	0x8
 7361 2439 25       		.byte	0x25
 7362 243a 15       		.uleb128 0x15
 7363 243b 01       		.uleb128 0x1
 7364 243c 50       		.byte	0x50
 7365 243d 01       		.uleb128 0x1
 7366 243e 3F       		.byte	0x3f
 7367 243f 15       		.uleb128 0x15
 7368 2440 02       		.uleb128 0x2
 7369 2441 7D       		.byte	0x7d
 7370 2442 00       		.sleb128 0
 7371 2443 03       		.uleb128 0x3
 7372 2444 0A       		.byte	0xa
 7373 2445 1020     		.2byte	0x2010
 7374 2447 00       		.byte	0
 7375 2448 1B       		.uleb128 0x1b
 7376 2449 76000000 		.4byte	.LVL151
 7377 244d 9B330000 		.4byte	0x339b
 7378 2451 15       		.uleb128 0x15
 7379 2452 01       		.uleb128 0x1
 7380 2453 51       		.byte	0x51
 7381 2454 02       		.uleb128 0x2
 7382 2455 78       		.byte	0x78
 7383 2456 00       		.sleb128 0
 7384 2457 15       		.uleb128 0x15
 7385 2458 01       		.uleb128 0x1
 7386 2459 50       		.byte	0x50
 7387 245a 02       		.uleb128 0x2
 7388 245b 08       		.byte	0x8
ARM GAS  C:\Users\AHMED~1.ELE\AppData\Local\Temp\ccGujCBB.s 			page 149


 7389 245c 94       		.byte	0x94
 7390 245d 00       		.byte	0
 7391 245e 00       		.byte	0
 7392 245f 1A       		.uleb128 0x1a
 7393 2460 14000000 		.4byte	.LVL140
 7394 2464 B5330000 		.4byte	0x33b5
 7395 2468 7F240000 		.4byte	0x247f
 7396 246c 15       		.uleb128 0x15
 7397 246d 01       		.uleb128 0x1
 7398 246e 52       		.byte	0x52
 7399 246f 01       		.uleb128 0x1
 7400 2470 34       		.byte	0x34
 7401 2471 15       		.uleb128 0x15
 7402 2472 01       		.uleb128 0x1
 7403 2473 51       		.byte	0x51
 7404 2474 02       		.uleb128 0x2
 7405 2475 77       		.byte	0x77
 7406 2476 00       		.sleb128 0
 7407 2477 15       		.uleb128 0x15
 7408 2478 01       		.uleb128 0x1
 7409 2479 50       		.byte	0x50
 7410 247a 03       		.uleb128 0x3
 7411 247b 91       		.byte	0x91
 7412 247c DC7E     		.sleb128 -164
 7413 247e 00       		.byte	0
 7414 247f 1A       		.uleb128 0x1a
 7415 2480 26000000 		.4byte	.LVL143
 7416 2484 73210000 		.4byte	0x2173
 7417 2488 9F240000 		.4byte	0x249f
 7418 248c 15       		.uleb128 0x15
 7419 248d 01       		.uleb128 0x1
 7420 248e 52       		.byte	0x52
 7421 248f 01       		.uleb128 0x1
 7422 2490 30       		.byte	0x30
 7423 2491 15       		.uleb128 0x15
 7424 2492 01       		.uleb128 0x1
 7425 2493 51       		.byte	0x51
 7426 2494 02       		.uleb128 0x2
 7427 2495 76       		.byte	0x76
 7428 2496 00       		.sleb128 0
 7429 2497 15       		.uleb128 0x15
 7430 2498 01       		.uleb128 0x1
 7431 2499 50       		.byte	0x50
 7432 249a 03       		.uleb128 0x3
 7433 249b 91       		.byte	0x91
 7434 249c DC7E     		.sleb128 -164
 7435 249e 00       		.byte	0
 7436 249f 1A       		.uleb128 0x1a
 7437 24a0 36000000 		.4byte	.LVL144
 7438 24a4 D5340000 		.4byte	0x34d5
 7439 24a8 BD240000 		.4byte	0x24bd
 7440 24ac 15       		.uleb128 0x15
 7441 24ad 01       		.uleb128 0x1
 7442 24ae 51       		.byte	0x51
 7443 24af 05       		.uleb128 0x5
 7444 24b0 03       		.byte	0x3
 7445 24b1 10000000 		.4byte	.LC1
ARM GAS  C:\Users\AHMED~1.ELE\AppData\Local\Temp\ccGujCBB.s 			page 150


 7446 24b5 15       		.uleb128 0x15
 7447 24b6 01       		.uleb128 0x1
 7448 24b7 50       		.byte	0x50
 7449 24b8 03       		.uleb128 0x3
 7450 24b9 91       		.byte	0x91
 7451 24ba E07E     		.sleb128 -160
 7452 24bc 00       		.byte	0
 7453 24bd 1A       		.uleb128 0x1a
 7454 24be 7E000000 		.4byte	.LVL152
 7455 24c2 F0340000 		.4byte	0x34f0
 7456 24c6 D2240000 		.4byte	0x24d2
 7457 24ca 15       		.uleb128 0x15
 7458 24cb 01       		.uleb128 0x1
 7459 24cc 50       		.byte	0x50
 7460 24cd 03       		.uleb128 0x3
 7461 24ce 0A       		.byte	0xa
 7462 24cf 2823     		.2byte	0x2328
 7463 24d1 00       		.byte	0
 7464 24d2 1A       		.uleb128 0x1a
 7465 24d3 98000000 		.4byte	.LVL156
 7466 24d7 B5330000 		.4byte	0x33b5
 7467 24db F2240000 		.4byte	0x24f2
 7468 24df 15       		.uleb128 0x15
 7469 24e0 01       		.uleb128 0x1
 7470 24e1 52       		.byte	0x52
 7471 24e2 01       		.uleb128 0x1
 7472 24e3 34       		.byte	0x34
 7473 24e4 15       		.uleb128 0x15
 7474 24e5 01       		.uleb128 0x1
 7475 24e6 51       		.byte	0x51
 7476 24e7 02       		.uleb128 0x2
 7477 24e8 77       		.byte	0x77
 7478 24e9 00       		.sleb128 0
 7479 24ea 15       		.uleb128 0x15
 7480 24eb 01       		.uleb128 0x1
 7481 24ec 50       		.byte	0x50
 7482 24ed 03       		.uleb128 0x3
 7483 24ee 91       		.byte	0x91
 7484 24ef DC7E     		.sleb128 -164
 7485 24f1 00       		.byte	0
 7486 24f2 1A       		.uleb128 0x1a
 7487 24f3 A6000000 		.4byte	.LVL158
 7488 24f7 73210000 		.4byte	0x2173
 7489 24fb 12250000 		.4byte	0x2512
 7490 24ff 15       		.uleb128 0x15
 7491 2500 01       		.uleb128 0x1
 7492 2501 52       		.byte	0x52
 7493 2502 01       		.uleb128 0x1
 7494 2503 31       		.byte	0x31
 7495 2504 15       		.uleb128 0x15
 7496 2505 01       		.uleb128 0x1
 7497 2506 51       		.byte	0x51
 7498 2507 02       		.uleb128 0x2
 7499 2508 76       		.byte	0x76
 7500 2509 00       		.sleb128 0
 7501 250a 15       		.uleb128 0x15
 7502 250b 01       		.uleb128 0x1
ARM GAS  C:\Users\AHMED~1.ELE\AppData\Local\Temp\ccGujCBB.s 			page 151


 7503 250c 50       		.byte	0x50
 7504 250d 03       		.uleb128 0x3
 7505 250e 91       		.byte	0x91
 7506 250f DC7E     		.sleb128 -164
 7507 2511 00       		.byte	0
 7508 2512 1A       		.uleb128 0x1a
 7509 2513 F8000000 		.4byte	.LVL172
 7510 2517 B5330000 		.4byte	0x33b5
 7511 251b 33250000 		.4byte	0x2533
 7512 251f 15       		.uleb128 0x15
 7513 2520 01       		.uleb128 0x1
 7514 2521 52       		.byte	0x52
 7515 2522 02       		.uleb128 0x2
 7516 2523 74       		.byte	0x74
 7517 2524 00       		.sleb128 0
 7518 2525 15       		.uleb128 0x15
 7519 2526 01       		.uleb128 0x1
 7520 2527 51       		.byte	0x51
 7521 2528 03       		.uleb128 0x3
 7522 2529 91       		.byte	0x91
 7523 252a DC7E     		.sleb128 -164
 7524 252c 15       		.uleb128 0x15
 7525 252d 01       		.uleb128 0x1
 7526 252e 50       		.byte	0x50
 7527 252f 02       		.uleb128 0x2
 7528 2530 77       		.byte	0x77
 7529 2531 00       		.sleb128 0
 7530 2532 00       		.byte	0
 7531 2533 1B       		.uleb128 0x1b
 7532 2534 02010000 		.4byte	.LVL173
 7533 2538 73210000 		.4byte	0x2173
 7534 253c 15       		.uleb128 0x15
 7535 253d 01       		.uleb128 0x1
 7536 253e 52       		.byte	0x52
 7537 253f 01       		.uleb128 0x1
 7538 2540 30       		.byte	0x30
 7539 2541 15       		.uleb128 0x15
 7540 2542 01       		.uleb128 0x1
 7541 2543 51       		.byte	0x51
 7542 2544 02       		.uleb128 0x2
 7543 2545 76       		.byte	0x76
 7544 2546 00       		.sleb128 0
 7545 2547 15       		.uleb128 0x15
 7546 2548 01       		.uleb128 0x1
 7547 2549 50       		.byte	0x50
 7548 254a 03       		.uleb128 0x3
 7549 254b 91       		.byte	0x91
 7550 254c DC7E     		.sleb128 -164
 7551 254e 00       		.byte	0
 7552 254f 00       		.byte	0
 7553 2550 24       		.uleb128 0x24
 7554 2551 BD000000 		.4byte	.LASF850
 7555 2555 01       		.byte	0x1
 7556 2556 0802     		.2byte	0x208
 7557 2558 A4000000 		.4byte	0xa4
 7558 255c 00000000 		.4byte	.LFB20
 7559 2560 54000000 		.4byte	.LFE20-.LFB20
ARM GAS  C:\Users\AHMED~1.ELE\AppData\Local\Temp\ccGujCBB.s 			page 152


 7560 2564 01       		.uleb128 0x1
 7561 2565 9C       		.byte	0x9c
 7562 2566 FD250000 		.4byte	0x25fd
 7563 256a 1F       		.uleb128 0x1f
 7564 256b 7A070000 		.4byte	.LASF851
 7565 256f 01       		.byte	0x1
 7566 2570 0802     		.2byte	0x208
 7567 2572 88130000 		.4byte	0x1388
 7568 2576 68080000 		.4byte	.LLST49
 7569 257a 1F       		.uleb128 0x1f
 7570 257b 5F1F0000 		.4byte	.LASF843
 7571 257f 01       		.byte	0x1
 7572 2580 0802     		.2byte	0x208
 7573 2582 C5000000 		.4byte	0xc5
 7574 2586 94080000 		.4byte	.LLST50
 7575 258a 25       		.uleb128 0x25
 7576 258b 746D7000 		.ascii	"tmp\000"
 7577 258f 01       		.byte	0x1
 7578 2590 0A02     		.2byte	0x20a
 7579 2592 11010000 		.4byte	0x111
 7580 2596 02       		.uleb128 0x2
 7581 2597 91       		.byte	0x91
 7582 2598 50       		.sleb128 -48
 7583 2599 1A       		.uleb128 0x1a
 7584 259a 16000000 		.4byte	.LVL188
 7585 259e D5340000 		.4byte	0x34d5
 7586 25a2 B6250000 		.4byte	0x25b6
 7587 25a6 15       		.uleb128 0x15
 7588 25a7 01       		.uleb128 0x1
 7589 25a8 51       		.byte	0x51
 7590 25a9 05       		.uleb128 0x5
 7591 25aa 03       		.byte	0x3
 7592 25ab 15000000 		.4byte	.LC2
 7593 25af 15       		.uleb128 0x15
 7594 25b0 01       		.uleb128 0x1
 7595 25b1 50       		.byte	0x50
 7596 25b2 02       		.uleb128 0x2
 7597 25b3 74       		.byte	0x74
 7598 25b4 00       		.sleb128 0
 7599 25b5 00       		.byte	0
 7600 25b6 1A       		.uleb128 0x1a
 7601 25b7 1C000000 		.4byte	.LVL189
 7602 25bb 86330000 		.4byte	0x3386
 7603 25bf CA250000 		.4byte	0x25ca
 7604 25c3 15       		.uleb128 0x15
 7605 25c4 01       		.uleb128 0x1
 7606 25c5 50       		.byte	0x50
 7607 25c6 02       		.uleb128 0x2
 7608 25c7 74       		.byte	0x74
 7609 25c8 00       		.sleb128 0
 7610 25c9 00       		.byte	0
 7611 25ca 1A       		.uleb128 0x1a
 7612 25cb 30000000 		.4byte	.LVL190
 7613 25cf 05350000 		.4byte	0x3505
 7614 25d3 EC250000 		.4byte	0x25ec
 7615 25d7 15       		.uleb128 0x15
 7616 25d8 01       		.uleb128 0x1
ARM GAS  C:\Users\AHMED~1.ELE\AppData\Local\Temp\ccGujCBB.s 			page 153


 7617 25d9 52       		.byte	0x52
 7618 25da 02       		.uleb128 0x2
 7619 25db 7D       		.byte	0x7d
 7620 25dc 00       		.sleb128 0
 7621 25dd 15       		.uleb128 0x15
 7622 25de 01       		.uleb128 0x1
 7623 25df 51       		.byte	0x51
 7624 25e0 01       		.uleb128 0x1
 7625 25e1 35       		.byte	0x35
 7626 25e2 15       		.uleb128 0x15
 7627 25e3 01       		.uleb128 0x1
 7628 25e4 50       		.byte	0x50
 7629 25e5 05       		.uleb128 0x5
 7630 25e6 75       		.byte	0x75
 7631 25e7 80C08001 		.sleb128 2105344
 7632 25eb 00       		.byte	0
 7633 25ec 1B       		.uleb128 0x1b
 7634 25ed 46000000 		.4byte	.LVL191
 7635 25f1 24350000 		.4byte	0x3524
 7636 25f5 15       		.uleb128 0x15
 7637 25f6 01       		.uleb128 0x1
 7638 25f7 50       		.byte	0x50
 7639 25f8 02       		.uleb128 0x2
 7640 25f9 74       		.byte	0x74
 7641 25fa 00       		.sleb128 0
 7642 25fb 00       		.byte	0
 7643 25fc 00       		.byte	0
 7644 25fd 1E       		.uleb128 0x1e
 7645 25fe D5230000 		.4byte	.LASF852
 7646 2602 01       		.byte	0x1
 7647 2603 1D02     		.2byte	0x21d
 7648 2605 00000000 		.4byte	.LFB21
 7649 2609 68000000 		.4byte	.LFE21-.LFB21
 7650 260d 01       		.uleb128 0x1
 7651 260e 9C       		.byte	0x9c
 7652 260f 23270000 		.4byte	0x2723
 7653 2613 1F       		.uleb128 0x1f
 7654 2614 59020000 		.4byte	.LASF853
 7655 2618 01       		.byte	0x1
 7656 2619 1D02     		.2byte	0x21d
 7657 261b 7D000000 		.4byte	0x7d
 7658 261f C0080000 		.4byte	.LLST51
 7659 2623 26       		.uleb128 0x26
 7660 2624 53190000 		.4byte	.LASF854
 7661 2628 01       		.byte	0x1
 7662 2629 2002     		.2byte	0x220
 7663 262b C5000000 		.4byte	0xc5
 7664 262f C0080000 		.4byte	.LLST51
 7665 2633 21       		.uleb128 0x21
 7666 2634 0C000000 		.4byte	.LBB9
 7667 2638 34000000 		.4byte	.LBE9-.LBB9
 7668 263c E0260000 		.4byte	0x26e0
 7669 2640 22       		.uleb128 0x22
 7670 2641 6C656E00 		.ascii	"len\000"
 7671 2645 01       		.byte	0x1
 7672 2646 2602     		.2byte	0x226
 7673 2648 C5000000 		.4byte	0xc5
ARM GAS  C:\Users\AHMED~1.ELE\AppData\Local\Temp\ccGujCBB.s 			page 154


 7674 264c F1080000 		.4byte	.LLST53
 7675 2650 22       		.uleb128 0x22
 7676 2651 70747200 		.ascii	"ptr\000"
 7677 2655 01       		.byte	0x1
 7678 2656 2602     		.2byte	0x226
 7679 2658 DB000000 		.4byte	0xdb
 7680 265c 05090000 		.4byte	.LLST54
 7681 2660 1A       		.uleb128 0x1a
 7682 2661 14000000 		.4byte	.LVL197
 7683 2665 9B330000 		.4byte	0x339b
 7684 2669 79260000 		.4byte	0x2679
 7685 266d 15       		.uleb128 0x15
 7686 266e 01       		.uleb128 0x1
 7687 266f 51       		.byte	0x51
 7688 2670 01       		.uleb128 0x1
 7689 2671 46       		.byte	0x46
 7690 2672 15       		.uleb128 0x15
 7691 2673 01       		.uleb128 0x1
 7692 2674 50       		.byte	0x50
 7693 2675 02       		.uleb128 0x2
 7694 2676 08       		.byte	0x8
 7695 2677 92       		.byte	0x92
 7696 2678 00       		.byte	0
 7697 2679 1A       		.uleb128 0x1a
 7698 267a 20000000 		.4byte	.LVL198
 7699 267e B5330000 		.4byte	0x33b5
 7700 2682 9B260000 		.4byte	0x269b
 7701 2686 15       		.uleb128 0x15
 7702 2687 01       		.uleb128 0x1
 7703 2688 52       		.byte	0x52
 7704 2689 01       		.uleb128 0x1
 7705 268a 45       		.byte	0x45
 7706 268b 15       		.uleb128 0x15
 7707 268c 01       		.uleb128 0x1
 7708 268d 51       		.byte	0x51
 7709 268e 05       		.uleb128 0x5
 7710 268f 03       		.byte	0x3
 7711 2690 18000000 		.4byte	.LC3
 7712 2694 15       		.uleb128 0x15
 7713 2695 01       		.uleb128 0x1
 7714 2696 50       		.byte	0x50
 7715 2697 02       		.uleb128 0x2
 7716 2698 74       		.byte	0x74
 7717 2699 00       		.sleb128 0
 7718 269a 00       		.byte	0
 7719 269b 1A       		.uleb128 0x1a
 7720 269c 38000000 		.4byte	.LVL199
 7721 26a0 5D330000 		.4byte	0x335d
 7722 26a4 C9260000 		.4byte	0x26c9
 7723 26a8 15       		.uleb128 0x15
 7724 26a9 01       		.uleb128 0x1
 7725 26aa 53       		.byte	0x53
 7726 26ab 03       		.uleb128 0x3
 7727 26ac 0A       		.byte	0xa
 7728 26ad 0009     		.2byte	0x900
 7729 26af 15       		.uleb128 0x15
 7730 26b0 01       		.uleb128 0x1
ARM GAS  C:\Users\AHMED~1.ELE\AppData\Local\Temp\ccGujCBB.s 			page 155


 7731 26b1 52       		.byte	0x52
 7732 26b2 02       		.uleb128 0x2
 7733 26b3 74       		.byte	0x74
 7734 26b4 00       		.sleb128 0
 7735 26b5 15       		.uleb128 0x15
 7736 26b6 01       		.uleb128 0x1
 7737 26b7 51       		.byte	0x51
 7738 26b8 02       		.uleb128 0x2
 7739 26b9 08       		.byte	0x8
 7740 26ba 25       		.byte	0x25
 7741 26bb 15       		.uleb128 0x15
 7742 26bc 01       		.uleb128 0x1
 7743 26bd 50       		.byte	0x50
 7744 26be 01       		.uleb128 0x1
 7745 26bf 3F       		.byte	0x3f
 7746 26c0 15       		.uleb128 0x15
 7747 26c1 02       		.uleb128 0x2
 7748 26c2 7D       		.byte	0x7d
 7749 26c3 00       		.sleb128 0
 7750 26c4 03       		.uleb128 0x3
 7751 26c5 0A       		.byte	0xa
 7752 26c6 1220     		.2byte	0x2012
 7753 26c8 00       		.byte	0
 7754 26c9 1B       		.uleb128 0x1b
 7755 26ca 40000000 		.4byte	.LVL200
 7756 26ce 9B330000 		.4byte	0x339b
 7757 26d2 15       		.uleb128 0x15
 7758 26d3 01       		.uleb128 0x1
 7759 26d4 51       		.byte	0x51
 7760 26d5 02       		.uleb128 0x2
 7761 26d6 74       		.byte	0x74
 7762 26d7 00       		.sleb128 0
 7763 26d8 15       		.uleb128 0x15
 7764 26d9 01       		.uleb128 0x1
 7765 26da 50       		.byte	0x50
 7766 26db 02       		.uleb128 0x2
 7767 26dc 08       		.byte	0x8
 7768 26dd 94       		.byte	0x94
 7769 26de 00       		.byte	0
 7770 26df 00       		.byte	0
 7771 26e0 19       		.uleb128 0x19
 7772 26e1 44000000 		.4byte	.LVL201
 7773 26e5 67160000 		.4byte	0x1667
 7774 26e9 1A       		.uleb128 0x1a
 7775 26ea 52000000 		.4byte	.LVL202
 7776 26ee 5D330000 		.4byte	0x335d
 7777 26f2 11270000 		.4byte	0x2711
 7778 26f6 15       		.uleb128 0x15
 7779 26f7 01       		.uleb128 0x1
 7780 26f8 53       		.byte	0x53
 7781 26f9 01       		.uleb128 0x1
 7782 26fa 30       		.byte	0x30
 7783 26fb 15       		.uleb128 0x15
 7784 26fc 01       		.uleb128 0x1
 7785 26fd 52       		.byte	0x52
 7786 26fe 01       		.uleb128 0x1
 7787 26ff 30       		.byte	0x30
ARM GAS  C:\Users\AHMED~1.ELE\AppData\Local\Temp\ccGujCBB.s 			page 156


 7788 2700 15       		.uleb128 0x15
 7789 2701 01       		.uleb128 0x1
 7790 2702 51       		.byte	0x51
 7791 2703 01       		.uleb128 0x1
 7792 2704 46       		.byte	0x46
 7793 2705 15       		.uleb128 0x15
 7794 2706 01       		.uleb128 0x1
 7795 2707 50       		.byte	0x50
 7796 2708 01       		.uleb128 0x1
 7797 2709 3F       		.byte	0x3f
 7798 270a 15       		.uleb128 0x15
 7799 270b 02       		.uleb128 0x2
 7800 270c 7D       		.byte	0x7d
 7801 270d 00       		.sleb128 0
 7802 270e 01       		.uleb128 0x1
 7803 270f 30       		.byte	0x30
 7804 2710 00       		.byte	0
 7805 2711 1B       		.uleb128 0x1b
 7806 2712 5C000000 		.4byte	.LVL203
 7807 2716 48330000 		.4byte	0x3348
 7808 271a 15       		.uleb128 0x15
 7809 271b 01       		.uleb128 0x1
 7810 271c 50       		.byte	0x50
 7811 271d 03       		.uleb128 0x3
 7812 271e 0A       		.byte	0xa
 7813 271f 9C01     		.2byte	0x19c
 7814 2721 00       		.byte	0
 7815 2722 00       		.byte	0
 7816 2723 1E       		.uleb128 0x1e
 7817 2724 90260000 		.4byte	.LASF855
 7818 2728 01       		.byte	0x1
 7819 2729 3402     		.2byte	0x234
 7820 272b 00000000 		.4byte	.LFB22
 7821 272f 6C000000 		.4byte	.LFE22-.LFB22
 7822 2733 01       		.uleb128 0x1
 7823 2734 9C       		.byte	0x9c
 7824 2735 4E280000 		.4byte	0x284e
 7825 2739 1F       		.uleb128 0x1f
 7826 273a 64070000 		.4byte	.LASF856
 7827 273e 01       		.byte	0x1
 7828 273f 3402     		.2byte	0x234
 7829 2741 7D000000 		.4byte	0x7d
 7830 2745 23090000 		.4byte	.LLST55
 7831 2749 21       		.uleb128 0x21
 7832 274a 06000000 		.4byte	.LBB10
 7833 274e 32000000 		.4byte	.LBE10-.LBB10
 7834 2752 F6270000 		.4byte	0x27f6
 7835 2756 22       		.uleb128 0x22
 7836 2757 6C656E00 		.ascii	"len\000"
 7837 275b 01       		.byte	0x1
 7838 275c 3702     		.2byte	0x237
 7839 275e C5000000 		.4byte	0xc5
 7840 2762 5A090000 		.4byte	.LLST56
 7841 2766 22       		.uleb128 0x22
 7842 2767 70747200 		.ascii	"ptr\000"
 7843 276b 01       		.byte	0x1
 7844 276c 3702     		.2byte	0x237
ARM GAS  C:\Users\AHMED~1.ELE\AppData\Local\Temp\ccGujCBB.s 			page 157


 7845 276e DB000000 		.4byte	0xdb
 7846 2772 6E090000 		.4byte	.LLST57
 7847 2776 1A       		.uleb128 0x1a
 7848 2777 0E000000 		.4byte	.LVL208
 7849 277b 9B330000 		.4byte	0x339b
 7850 277f 8F270000 		.4byte	0x278f
 7851 2783 15       		.uleb128 0x15
 7852 2784 01       		.uleb128 0x1
 7853 2785 51       		.byte	0x51
 7854 2786 01       		.uleb128 0x1
 7855 2787 3F       		.byte	0x3f
 7856 2788 15       		.uleb128 0x15
 7857 2789 01       		.uleb128 0x1
 7858 278a 50       		.byte	0x50
 7859 278b 02       		.uleb128 0x2
 7860 278c 08       		.byte	0x8
 7861 278d 92       		.byte	0x92
 7862 278e 00       		.byte	0
 7863 278f 1A       		.uleb128 0x1a
 7864 2790 1A000000 		.4byte	.LVL209
 7865 2794 B5330000 		.4byte	0x33b5
 7866 2798 B1270000 		.4byte	0x27b1
 7867 279c 15       		.uleb128 0x15
 7868 279d 01       		.uleb128 0x1
 7869 279e 52       		.byte	0x52
 7870 279f 01       		.uleb128 0x1
 7871 27a0 3E       		.byte	0x3e
 7872 27a1 15       		.uleb128 0x15
 7873 27a2 01       		.uleb128 0x1
 7874 27a3 51       		.byte	0x51
 7875 27a4 05       		.uleb128 0x5
 7876 27a5 03       		.byte	0x3
 7877 27a6 2E000000 		.4byte	.LC4
 7878 27aa 15       		.uleb128 0x15
 7879 27ab 01       		.uleb128 0x1
 7880 27ac 50       		.byte	0x50
 7881 27ad 02       		.uleb128 0x2
 7882 27ae 74       		.byte	0x74
 7883 27af 00       		.sleb128 0
 7884 27b0 00       		.byte	0
 7885 27b1 1A       		.uleb128 0x1a
 7886 27b2 30000000 		.4byte	.LVL210
 7887 27b6 5D330000 		.4byte	0x335d
 7888 27ba DF270000 		.4byte	0x27df
 7889 27be 15       		.uleb128 0x15
 7890 27bf 01       		.uleb128 0x1
 7891 27c0 53       		.byte	0x53
 7892 27c1 03       		.uleb128 0x3
 7893 27c2 0A       		.byte	0xa
 7894 27c3 0003     		.2byte	0x300
 7895 27c5 15       		.uleb128 0x15
 7896 27c6 01       		.uleb128 0x1
 7897 27c7 52       		.byte	0x52
 7898 27c8 02       		.uleb128 0x2
 7899 27c9 74       		.byte	0x74
 7900 27ca 00       		.sleb128 0
 7901 27cb 15       		.uleb128 0x15
ARM GAS  C:\Users\AHMED~1.ELE\AppData\Local\Temp\ccGujCBB.s 			page 158


 7902 27cc 01       		.uleb128 0x1
 7903 27cd 51       		.byte	0x51
 7904 27ce 02       		.uleb128 0x2
 7905 27cf 08       		.byte	0x8
 7906 27d0 25       		.byte	0x25
 7907 27d1 15       		.uleb128 0x15
 7908 27d2 01       		.uleb128 0x1
 7909 27d3 50       		.byte	0x50
 7910 27d4 01       		.uleb128 0x1
 7911 27d5 3F       		.byte	0x3f
 7912 27d6 15       		.uleb128 0x15
 7913 27d7 02       		.uleb128 0x2
 7914 27d8 7D       		.byte	0x7d
 7915 27d9 00       		.sleb128 0
 7916 27da 03       		.uleb128 0x3
 7917 27db 0A       		.byte	0xa
 7918 27dc 8010     		.2byte	0x1080
 7919 27de 00       		.byte	0
 7920 27df 1B       		.uleb128 0x1b
 7921 27e0 38000000 		.4byte	.LVL211
 7922 27e4 9B330000 		.4byte	0x339b
 7923 27e8 15       		.uleb128 0x15
 7924 27e9 01       		.uleb128 0x1
 7925 27ea 51       		.byte	0x51
 7926 27eb 02       		.uleb128 0x2
 7927 27ec 74       		.byte	0x74
 7928 27ed 00       		.sleb128 0
 7929 27ee 15       		.uleb128 0x15
 7930 27ef 01       		.uleb128 0x1
 7931 27f0 50       		.byte	0x50
 7932 27f1 02       		.uleb128 0x2
 7933 27f2 08       		.byte	0x8
 7934 27f3 94       		.byte	0x94
 7935 27f4 00       		.byte	0
 7936 27f5 00       		.byte	0
 7937 27f6 19       		.uleb128 0x19
 7938 27f7 3C000000 		.4byte	.LVL212
 7939 27fb 67160000 		.4byte	0x1667
 7940 27ff 1A       		.uleb128 0x1a
 7941 2800 4A000000 		.4byte	.LVL213
 7942 2804 5D330000 		.4byte	0x335d
 7943 2808 27280000 		.4byte	0x2827
 7944 280c 15       		.uleb128 0x15
 7945 280d 01       		.uleb128 0x1
 7946 280e 53       		.byte	0x53
 7947 280f 01       		.uleb128 0x1
 7948 2810 30       		.byte	0x30
 7949 2811 15       		.uleb128 0x15
 7950 2812 01       		.uleb128 0x1
 7951 2813 52       		.byte	0x52
 7952 2814 01       		.uleb128 0x1
 7953 2815 30       		.byte	0x30
 7954 2816 15       		.uleb128 0x15
 7955 2817 01       		.uleb128 0x1
 7956 2818 51       		.byte	0x51
 7957 2819 01       		.uleb128 0x1
 7958 281a 46       		.byte	0x46
ARM GAS  C:\Users\AHMED~1.ELE\AppData\Local\Temp\ccGujCBB.s 			page 159


 7959 281b 15       		.uleb128 0x15
 7960 281c 01       		.uleb128 0x1
 7961 281d 50       		.byte	0x50
 7962 281e 01       		.uleb128 0x1
 7963 281f 3F       		.byte	0x3f
 7964 2820 15       		.uleb128 0x15
 7965 2821 02       		.uleb128 0x2
 7966 2822 7D       		.byte	0x7d
 7967 2823 00       		.sleb128 0
 7968 2824 01       		.uleb128 0x1
 7969 2825 30       		.byte	0x30
 7970 2826 00       		.byte	0
 7971 2827 1A       		.uleb128 0x1a
 7972 2828 54000000 		.4byte	.LVL214
 7973 282c 48330000 		.4byte	0x3348
 7974 2830 3C280000 		.4byte	0x283c
 7975 2834 15       		.uleb128 0x15
 7976 2835 01       		.uleb128 0x1
 7977 2836 50       		.byte	0x50
 7978 2837 03       		.uleb128 0x3
 7979 2838 0A       		.byte	0xa
 7980 2839 9C01     		.2byte	0x19c
 7981 283b 00       		.byte	0
 7982 283c 14       		.uleb128 0x14
 7983 283d 64000000 		.4byte	.LVL216
 7984 2841 48330000 		.4byte	0x3348
 7985 2845 15       		.uleb128 0x15
 7986 2846 01       		.uleb128 0x1
 7987 2847 50       		.byte	0x50
 7988 2848 03       		.uleb128 0x3
 7989 2849 0A       		.byte	0xa
 7990 284a 9E01     		.2byte	0x19e
 7991 284c 00       		.byte	0
 7992 284d 00       		.byte	0
 7993 284e 24       		.uleb128 0x24
 7994 284f C50F0000 		.4byte	.LASF857
 7995 2853 01       		.byte	0x1
 7996 2854 4502     		.2byte	0x245
 7997 2856 C5000000 		.4byte	0xc5
 7998 285a 00000000 		.4byte	.LFB23
 7999 285e 16000000 		.4byte	.LFE23-.LFB23
 8000 2862 01       		.uleb128 0x1
 8001 2863 9C       		.byte	0x9c
 8002 2864 A1280000 		.4byte	0x28a1
 8003 2868 25       		.uleb128 0x25
 8004 2869 72746300 		.ascii	"rtc\000"
 8005 286d 01       		.byte	0x1
 8006 286e 4702     		.2byte	0x247
 8007 2870 64150000 		.4byte	0x1564
 8008 2874 02       		.uleb128 0x2
 8009 2875 91       		.byte	0x91
 8010 2876 68       		.sleb128 -24
 8011 2877 1A       		.uleb128 0x1a
 8012 2878 0A000000 		.4byte	.LVL217
 8013 287c 9B330000 		.4byte	0x339b
 8014 2880 90280000 		.4byte	0x2890
 8015 2884 15       		.uleb128 0x15
ARM GAS  C:\Users\AHMED~1.ELE\AppData\Local\Temp\ccGujCBB.s 			page 160


 8016 2885 01       		.uleb128 0x1
 8017 2886 51       		.byte	0x51
 8018 2887 02       		.uleb128 0x2
 8019 2888 7D       		.byte	0x7d
 8020 2889 00       		.sleb128 0
 8021 288a 15       		.uleb128 0x15
 8022 288b 01       		.uleb128 0x1
 8023 288c 50       		.byte	0x50
 8024 288d 01       		.uleb128 0x1
 8025 288e 42       		.byte	0x42
 8026 288f 00       		.byte	0
 8027 2890 1B       		.uleb128 0x1b
 8028 2891 10000000 		.4byte	.LVL218
 8029 2895 39350000 		.4byte	0x3539
 8030 2899 15       		.uleb128 0x15
 8031 289a 01       		.uleb128 0x1
 8032 289b 50       		.byte	0x50
 8033 289c 02       		.uleb128 0x2
 8034 289d 7D       		.byte	0x7d
 8035 289e 00       		.sleb128 0
 8036 289f 00       		.byte	0
 8037 28a0 00       		.byte	0
 8038 28a1 1E       		.uleb128 0x1e
 8039 28a2 F71D0000 		.4byte	.LASF858
 8040 28a6 01       		.byte	0x1
 8041 28a7 5402     		.2byte	0x254
 8042 28a9 00000000 		.4byte	.LFB24
 8043 28ad 44000000 		.4byte	.LFE24-.LFB24
 8044 28b1 01       		.uleb128 0x1
 8045 28b2 9C       		.byte	0x9c
 8046 28b3 47290000 		.4byte	0x2947
 8047 28b7 20       		.uleb128 0x20
 8048 28b8 FB120000 		.4byte	.LASF859
 8049 28bc 01       		.byte	0x1
 8050 28bd 5702     		.2byte	0x257
 8051 28bf C5000000 		.4byte	0xc5
 8052 28c3 05       		.uleb128 0x5
 8053 28c4 03       		.byte	0x3
 8054 28c5 00000000 		.4byte	ostatus.12154
 8055 28c9 26       		.uleb128 0x26
 8056 28ca 3B190000 		.4byte	.LASF860
 8057 28ce 01       		.byte	0x1
 8058 28cf 5802     		.2byte	0x258
 8059 28d1 C5000000 		.4byte	0xc5
 8060 28d5 8C090000 		.4byte	.LLST58
 8061 28d9 28       		.uleb128 0x28
 8062 28da 746D7000 		.ascii	"tmp\000"
 8063 28de 01       		.byte	0x1
 8064 28df 5802     		.2byte	0x258
 8065 28e1 C5000000 		.4byte	0xc5
 8066 28e5 22       		.uleb128 0x22
 8067 28e6 6900     		.ascii	"i\000"
 8068 28e8 01       		.byte	0x1
 8069 28e9 5902     		.2byte	0x259
 8070 28eb 37000000 		.4byte	0x37
 8071 28ef 8C090000 		.4byte	.LLST58
 8072 28f3 1A       		.uleb128 0x1a
ARM GAS  C:\Users\AHMED~1.ELE\AppData\Local\Temp\ccGujCBB.s 			page 161


 8073 28f4 10000000 		.4byte	.LVL219
 8074 28f8 5D330000 		.4byte	0x335d
 8075 28fc 1C290000 		.4byte	0x291c
 8076 2900 15       		.uleb128 0x15
 8077 2901 01       		.uleb128 0x1
 8078 2902 53       		.byte	0x53
 8079 2903 01       		.uleb128 0x1
 8080 2904 30       		.byte	0x30
 8081 2905 15       		.uleb128 0x15
 8082 2906 01       		.uleb128 0x1
 8083 2907 52       		.byte	0x52
 8084 2908 01       		.uleb128 0x1
 8085 2909 30       		.byte	0x30
 8086 290a 15       		.uleb128 0x15
 8087 290b 01       		.uleb128 0x1
 8088 290c 51       		.byte	0x51
 8089 290d 02       		.uleb128 0x2
 8090 290e 08       		.byte	0x8
 8091 290f 29       		.byte	0x29
 8092 2910 15       		.uleb128 0x15
 8093 2911 01       		.uleb128 0x1
 8094 2912 50       		.byte	0x50
 8095 2913 01       		.uleb128 0x1
 8096 2914 3F       		.byte	0x3f
 8097 2915 15       		.uleb128 0x15
 8098 2916 02       		.uleb128 0x2
 8099 2917 7D       		.byte	0x7d
 8100 2918 00       		.sleb128 0
 8101 2919 01       		.uleb128 0x1
 8102 291a 30       		.byte	0x30
 8103 291b 00       		.byte	0
 8104 291c 1A       		.uleb128 0x1a
 8105 291d 1E000000 		.4byte	.LVL220
 8106 2921 9B330000 		.4byte	0x339b
 8107 2925 36290000 		.4byte	0x2936
 8108 2929 15       		.uleb128 0x15
 8109 292a 01       		.uleb128 0x1
 8110 292b 51       		.byte	0x51
 8111 292c 02       		.uleb128 0x2
 8112 292d 09       		.byte	0x9
 8113 292e FF       		.byte	0xff
 8114 292f 15       		.uleb128 0x15
 8115 2930 01       		.uleb128 0x1
 8116 2931 50       		.byte	0x50
 8117 2932 02       		.uleb128 0x2
 8118 2933 08       		.byte	0x8
 8119 2934 87       		.byte	0x87
 8120 2935 00       		.byte	0
 8121 2936 14       		.uleb128 0x14
 8122 2937 38000000 		.4byte	.LVL221
 8123 293b 48330000 		.4byte	0x3348
 8124 293f 15       		.uleb128 0x15
 8125 2940 01       		.uleb128 0x1
 8126 2941 50       		.byte	0x50
 8127 2942 02       		.uleb128 0x2
 8128 2943 08       		.byte	0x8
 8129 2944 80       		.byte	0x80
ARM GAS  C:\Users\AHMED~1.ELE\AppData\Local\Temp\ccGujCBB.s 			page 162


 8130 2945 00       		.byte	0
 8131 2946 00       		.byte	0
 8132 2947 1E       		.uleb128 0x1e
 8133 2948 572A0000 		.4byte	.LASF861
 8134 294c 01       		.byte	0x1
 8135 294d 9F02     		.2byte	0x29f
 8136 294f 00000000 		.4byte	.LFB25
 8137 2953 5C000000 		.4byte	.LFE25-.LFB25
 8138 2957 01       		.uleb128 0x1
 8139 2958 9C       		.byte	0x9c
 8140 2959 672A0000 		.4byte	0x2a67
 8141 295d 1F       		.uleb128 0x1f
 8142 295e 2A270000 		.4byte	.LASF862
 8143 2962 01       		.byte	0x1
 8144 2963 9F02     		.2byte	0x29f
 8145 2965 85000000 		.4byte	0x85
 8146 2969 A0090000 		.4byte	.LLST60
 8147 296d 21       		.uleb128 0x21
 8148 296e 04000000 		.4byte	.LBB11
 8149 2972 3A000000 		.4byte	.LBE11-.LBB11
 8150 2976 2D2A0000 		.4byte	0x2a2d
 8151 297a 22       		.uleb128 0x22
 8152 297b 6C656E00 		.ascii	"len\000"
 8153 297f 01       		.byte	0x1
 8154 2980 A202     		.2byte	0x2a2
 8155 2982 C5000000 		.4byte	0xc5
 8156 2986 BE090000 		.4byte	.LLST61
 8157 298a 22       		.uleb128 0x22
 8158 298b 70747200 		.ascii	"ptr\000"
 8159 298f 01       		.byte	0x1
 8160 2990 A202     		.2byte	0x2a2
 8161 2992 DB000000 		.4byte	0xdb
 8162 2996 DC090000 		.4byte	.LLST62
 8163 299a 1A       		.uleb128 0x1a
 8164 299b 08000000 		.4byte	.LVL223
 8165 299f 86330000 		.4byte	0x3386
 8166 29a3 AE290000 		.4byte	0x29ae
 8167 29a7 15       		.uleb128 0x15
 8168 29a8 01       		.uleb128 0x1
 8169 29a9 50       		.byte	0x50
 8170 29aa 02       		.uleb128 0x2
 8171 29ab 76       		.byte	0x76
 8172 29ac 00       		.sleb128 0
 8173 29ad 00       		.byte	0
 8174 29ae 1A       		.uleb128 0x1a
 8175 29af 12000000 		.4byte	.LVL226
 8176 29b3 9B330000 		.4byte	0x339b
 8177 29b7 C8290000 		.4byte	0x29c8
 8178 29bb 15       		.uleb128 0x15
 8179 29bc 01       		.uleb128 0x1
 8180 29bd 51       		.byte	0x51
 8181 29be 02       		.uleb128 0x2
 8182 29bf 75       		.byte	0x75
 8183 29c0 01       		.sleb128 1
 8184 29c1 15       		.uleb128 0x15
 8185 29c2 01       		.uleb128 0x1
 8186 29c3 50       		.byte	0x50
ARM GAS  C:\Users\AHMED~1.ELE\AppData\Local\Temp\ccGujCBB.s 			page 163


 8187 29c4 02       		.uleb128 0x2
 8188 29c5 08       		.byte	0x8
 8189 29c6 92       		.byte	0x92
 8190 29c7 00       		.byte	0
 8191 29c8 1A       		.uleb128 0x1a
 8192 29c9 1E000000 		.4byte	.LVL227
 8193 29cd B5330000 		.4byte	0x33b5
 8194 29d1 E8290000 		.4byte	0x29e8
 8195 29d5 15       		.uleb128 0x15
 8196 29d6 01       		.uleb128 0x1
 8197 29d7 52       		.byte	0x52
 8198 29d8 02       		.uleb128 0x2
 8199 29d9 75       		.byte	0x75
 8200 29da 00       		.sleb128 0
 8201 29db 15       		.uleb128 0x15
 8202 29dc 01       		.uleb128 0x1
 8203 29dd 51       		.byte	0x51
 8204 29de 02       		.uleb128 0x2
 8205 29df 76       		.byte	0x76
 8206 29e0 00       		.sleb128 0
 8207 29e1 15       		.uleb128 0x15
 8208 29e2 01       		.uleb128 0x1
 8209 29e3 50       		.byte	0x50
 8210 29e4 02       		.uleb128 0x2
 8211 29e5 74       		.byte	0x74
 8212 29e6 00       		.sleb128 0
 8213 29e7 00       		.byte	0
 8214 29e8 1A       		.uleb128 0x1a
 8215 29e9 36000000 		.4byte	.LVL228
 8216 29ed 5D330000 		.4byte	0x335d
 8217 29f1 162A0000 		.4byte	0x2a16
 8218 29f5 15       		.uleb128 0x15
 8219 29f6 01       		.uleb128 0x1
 8220 29f7 53       		.byte	0x53
 8221 29f8 03       		.uleb128 0x3
 8222 29f9 0A       		.byte	0xa
 8223 29fa 0009     		.2byte	0x900
 8224 29fc 15       		.uleb128 0x15
 8225 29fd 01       		.uleb128 0x1
 8226 29fe 52       		.byte	0x52
 8227 29ff 02       		.uleb128 0x2
 8228 2a00 74       		.byte	0x74
 8229 2a01 00       		.sleb128 0
 8230 2a02 15       		.uleb128 0x15
 8231 2a03 01       		.uleb128 0x1
 8232 2a04 51       		.byte	0x51
 8233 2a05 02       		.uleb128 0x2
 8234 2a06 08       		.byte	0x8
 8235 2a07 25       		.byte	0x25
 8236 2a08 15       		.uleb128 0x15
 8237 2a09 01       		.uleb128 0x1
 8238 2a0a 50       		.byte	0x50
 8239 2a0b 01       		.uleb128 0x1
 8240 2a0c 3F       		.byte	0x3f
 8241 2a0d 15       		.uleb128 0x15
 8242 2a0e 02       		.uleb128 0x2
 8243 2a0f 7D       		.byte	0x7d
ARM GAS  C:\Users\AHMED~1.ELE\AppData\Local\Temp\ccGujCBB.s 			page 164


 8244 2a10 00       		.sleb128 0
 8245 2a11 03       		.uleb128 0x3
 8246 2a12 0A       		.byte	0xa
 8247 2a13 3020     		.2byte	0x2030
 8248 2a15 00       		.byte	0
 8249 2a16 1B       		.uleb128 0x1b
 8250 2a17 3E000000 		.4byte	.LVL229
 8251 2a1b 9B330000 		.4byte	0x339b
 8252 2a1f 15       		.uleb128 0x15
 8253 2a20 01       		.uleb128 0x1
 8254 2a21 51       		.byte	0x51
 8255 2a22 02       		.uleb128 0x2
 8256 2a23 74       		.byte	0x74
 8257 2a24 00       		.sleb128 0
 8258 2a25 15       		.uleb128 0x15
 8259 2a26 01       		.uleb128 0x1
 8260 2a27 50       		.byte	0x50
 8261 2a28 02       		.uleb128 0x2
 8262 2a29 08       		.byte	0x8
 8263 2a2a 94       		.byte	0x94
 8264 2a2b 00       		.byte	0
 8265 2a2c 00       		.byte	0
 8266 2a2d 1A       		.uleb128 0x1a
 8267 2a2e 4C000000 		.4byte	.LVL230
 8268 2a32 5D330000 		.4byte	0x335d
 8269 2a36 552A0000 		.4byte	0x2a55
 8270 2a3a 15       		.uleb128 0x15
 8271 2a3b 01       		.uleb128 0x1
 8272 2a3c 53       		.byte	0x53
 8273 2a3d 01       		.uleb128 0x1
 8274 2a3e 30       		.byte	0x30
 8275 2a3f 15       		.uleb128 0x15
 8276 2a40 01       		.uleb128 0x1
 8277 2a41 52       		.byte	0x52
 8278 2a42 01       		.uleb128 0x1
 8279 2a43 30       		.byte	0x30
 8280 2a44 15       		.uleb128 0x15
 8281 2a45 01       		.uleb128 0x1
 8282 2a46 51       		.byte	0x51
 8283 2a47 01       		.uleb128 0x1
 8284 2a48 46       		.byte	0x46
 8285 2a49 15       		.uleb128 0x15
 8286 2a4a 01       		.uleb128 0x1
 8287 2a4b 50       		.byte	0x50
 8288 2a4c 01       		.uleb128 0x1
 8289 2a4d 3F       		.byte	0x3f
 8290 2a4e 15       		.uleb128 0x15
 8291 2a4f 02       		.uleb128 0x2
 8292 2a50 7D       		.byte	0x7d
 8293 2a51 00       		.sleb128 0
 8294 2a52 01       		.uleb128 0x1
 8295 2a53 30       		.byte	0x30
 8296 2a54 00       		.byte	0
 8297 2a55 1B       		.uleb128 0x1b
 8298 2a56 56000000 		.4byte	.LVL231
 8299 2a5a 48330000 		.4byte	0x3348
 8300 2a5e 15       		.uleb128 0x15
ARM GAS  C:\Users\AHMED~1.ELE\AppData\Local\Temp\ccGujCBB.s 			page 165


 8301 2a5f 01       		.uleb128 0x1
 8302 2a60 50       		.byte	0x50
 8303 2a61 03       		.uleb128 0x3
 8304 2a62 0A       		.byte	0xa
 8305 2a63 9C01     		.2byte	0x19c
 8306 2a65 00       		.byte	0
 8307 2a66 00       		.byte	0
 8308 2a67 24       		.uleb128 0x24
 8309 2a68 200A0000 		.4byte	.LASF863
 8310 2a6c 01       		.byte	0x1
 8311 2a6d B102     		.2byte	0x2b1
 8312 2a6f A4000000 		.4byte	0xa4
 8313 2a73 00000000 		.4byte	.LFB26
 8314 2a77 32000000 		.4byte	.LFE26-.LFB26
 8315 2a7b 01       		.uleb128 0x1
 8316 2a7c 9C       		.byte	0x9c
 8317 2a7d 232B0000 		.4byte	0x2b23
 8318 2a81 1F       		.uleb128 0x1f
 8319 2a82 D5100000 		.4byte	.LASF864
 8320 2a86 01       		.byte	0x1
 8321 2a87 B102     		.2byte	0x2b1
 8322 2a89 C5000000 		.4byte	0xc5
 8323 2a8d FA090000 		.4byte	.LLST63
 8324 2a91 1F       		.uleb128 0x1f
 8325 2a92 5F310000 		.4byte	.LASF825
 8326 2a96 01       		.byte	0x1
 8327 2a97 B102     		.2byte	0x2b1
 8328 2a99 C5000000 		.4byte	0xc5
 8329 2a9d 230A0000 		.4byte	.LLST64
 8330 2aa1 1F       		.uleb128 0x1f
 8331 2aa2 EB0E0000 		.4byte	.LASF834
 8332 2aa6 01       		.byte	0x1
 8333 2aa7 B102     		.2byte	0x2b1
 8334 2aa9 7D000000 		.4byte	0x7d
 8335 2aad 4C0A0000 		.4byte	.LLST65
 8336 2ab1 1F       		.uleb128 0x1f
 8337 2ab2 A12C0000 		.4byte	.LASF865
 8338 2ab6 01       		.byte	0x1
 8339 2ab7 B102     		.2byte	0x2b1
 8340 2ab9 C5000000 		.4byte	0xc5
 8341 2abd 6A0A0000 		.4byte	.LLST66
 8342 2ac1 22       		.uleb128 0x22
 8343 2ac2 6C656E00 		.ascii	"len\000"
 8344 2ac6 01       		.byte	0x1
 8345 2ac7 B302     		.2byte	0x2b3
 8346 2ac9 C5000000 		.4byte	0xc5
 8347 2acd 880A0000 		.4byte	.LLST67
 8348 2ad1 1A       		.uleb128 0x1a
 8349 2ad2 1A000000 		.4byte	.LVL237
 8350 2ad6 5D330000 		.4byte	0x335d
 8351 2ada FB2A0000 		.4byte	0x2afb
 8352 2ade 15       		.uleb128 0x15
 8353 2adf 01       		.uleb128 0x1
 8354 2ae0 53       		.byte	0x53
 8355 2ae1 02       		.uleb128 0x2
 8356 2ae2 77       		.byte	0x77
 8357 2ae3 00       		.sleb128 0
ARM GAS  C:\Users\AHMED~1.ELE\AppData\Local\Temp\ccGujCBB.s 			page 166


 8358 2ae4 15       		.uleb128 0x15
 8359 2ae5 01       		.uleb128 0x1
 8360 2ae6 52       		.byte	0x52
 8361 2ae7 02       		.uleb128 0x2
 8362 2ae8 75       		.byte	0x75
 8363 2ae9 00       		.sleb128 0
 8364 2aea 15       		.uleb128 0x15
 8365 2aeb 01       		.uleb128 0x1
 8366 2aec 51       		.byte	0x51
 8367 2aed 01       		.uleb128 0x1
 8368 2aee 40       		.byte	0x40
 8369 2aef 15       		.uleb128 0x15
 8370 2af0 01       		.uleb128 0x1
 8371 2af1 50       		.byte	0x50
 8372 2af2 01       		.uleb128 0x1
 8373 2af3 3F       		.byte	0x3f
 8374 2af4 15       		.uleb128 0x15
 8375 2af5 02       		.uleb128 0x2
 8376 2af6 7D       		.byte	0x7d
 8377 2af7 00       		.sleb128 0
 8378 2af8 01       		.uleb128 0x1
 8379 2af9 30       		.byte	0x30
 8380 2afa 00       		.byte	0
 8381 2afb 1B       		.uleb128 0x1b
 8382 2afc 28000000 		.4byte	.LVL238
 8383 2b00 5D330000 		.4byte	0x335d
 8384 2b04 15       		.uleb128 0x15
 8385 2b05 01       		.uleb128 0x1
 8386 2b06 53       		.byte	0x53
 8387 2b07 02       		.uleb128 0x2
 8388 2b08 76       		.byte	0x76
 8389 2b09 00       		.sleb128 0
 8390 2b0a 15       		.uleb128 0x15
 8391 2b0b 01       		.uleb128 0x1
 8392 2b0c 52       		.byte	0x52
 8393 2b0d 02       		.uleb128 0x2
 8394 2b0e 75       		.byte	0x75
 8395 2b0f 00       		.sleb128 0
 8396 2b10 15       		.uleb128 0x15
 8397 2b11 01       		.uleb128 0x1
 8398 2b12 51       		.byte	0x51
 8399 2b13 01       		.uleb128 0x1
 8400 2b14 41       		.byte	0x41
 8401 2b15 15       		.uleb128 0x15
 8402 2b16 01       		.uleb128 0x1
 8403 2b17 50       		.byte	0x50
 8404 2b18 01       		.uleb128 0x1
 8405 2b19 3F       		.byte	0x3f
 8406 2b1a 15       		.uleb128 0x15
 8407 2b1b 02       		.uleb128 0x2
 8408 2b1c 7D       		.byte	0x7d
 8409 2b1d 00       		.sleb128 0
 8410 2b1e 02       		.uleb128 0x2
 8411 2b1f 74       		.byte	0x74
 8412 2b20 00       		.sleb128 0
 8413 2b21 00       		.byte	0
 8414 2b22 00       		.byte	0
ARM GAS  C:\Users\AHMED~1.ELE\AppData\Local\Temp\ccGujCBB.s 			page 167


 8415 2b23 24       		.uleb128 0x24
 8416 2b24 442D0000 		.4byte	.LASF866
 8417 2b28 01       		.byte	0x1
 8418 2b29 C402     		.2byte	0x2c4
 8419 2b2b A4000000 		.4byte	0xa4
 8420 2b2f 00000000 		.4byte	.LFB27
 8421 2b33 74000000 		.4byte	.LFE27-.LFB27
 8422 2b37 01       		.uleb128 0x1
 8423 2b38 9C       		.byte	0x9c
 8424 2b39 9B2C0000 		.4byte	0x2c9b
 8425 2b3d 1F       		.uleb128 0x1f
 8426 2b3e D5100000 		.4byte	.LASF864
 8427 2b42 01       		.byte	0x1
 8428 2b43 C402     		.2byte	0x2c4
 8429 2b45 C5000000 		.4byte	0xc5
 8430 2b49 9B0A0000 		.4byte	.LLST68
 8431 2b4d 1F       		.uleb128 0x1f
 8432 2b4e 5F310000 		.4byte	.LASF825
 8433 2b52 01       		.byte	0x1
 8434 2b53 C402     		.2byte	0x2c4
 8435 2b55 C5000000 		.4byte	0xc5
 8436 2b59 D20A0000 		.4byte	.LLST69
 8437 2b5d 1F       		.uleb128 0x1f
 8438 2b5e EB0E0000 		.4byte	.LASF834
 8439 2b62 01       		.byte	0x1
 8440 2b63 C402     		.2byte	0x2c4
 8441 2b65 9D000000 		.4byte	0x9d
 8442 2b69 FE0A0000 		.4byte	.LLST70
 8443 2b6d 1F       		.uleb128 0x1f
 8444 2b6e A12C0000 		.4byte	.LASF865
 8445 2b72 01       		.byte	0x1
 8446 2b73 C402     		.2byte	0x2c4
 8447 2b75 C5000000 		.4byte	0xc5
 8448 2b79 2A0B0000 		.4byte	.LLST71
 8449 2b7d 22       		.uleb128 0x22
 8450 2b7e 6C656E00 		.ascii	"len\000"
 8451 2b82 01       		.byte	0x1
 8452 2b83 C602     		.2byte	0x2c6
 8453 2b85 C5000000 		.4byte	0xc5
 8454 2b89 560B0000 		.4byte	.LLST72
 8455 2b8d 21       		.uleb128 0x21
 8456 2b8e 2E000000 		.4byte	.LBB12
 8457 2b92 32000000 		.4byte	.LBE12-.LBB12
 8458 2b96 3A2C0000 		.4byte	0x2c3a
 8459 2b9a 22       		.uleb128 0x22
 8460 2b9b 6C656E00 		.ascii	"len\000"
 8461 2b9f 01       		.byte	0x1
 8462 2ba0 CB02     		.2byte	0x2cb
 8463 2ba2 C5000000 		.4byte	0xc5
 8464 2ba6 740B0000 		.4byte	.LLST73
 8465 2baa 22       		.uleb128 0x22
 8466 2bab 70747200 		.ascii	"ptr\000"
 8467 2baf 01       		.byte	0x1
 8468 2bb0 CB02     		.2byte	0x2cb
 8469 2bb2 DB000000 		.4byte	0xdb
 8470 2bb6 880B0000 		.4byte	.LLST74
 8471 2bba 1A       		.uleb128 0x1a
ARM GAS  C:\Users\AHMED~1.ELE\AppData\Local\Temp\ccGujCBB.s 			page 168


 8472 2bbb 36000000 		.4byte	.LVL250
 8473 2bbf 9B330000 		.4byte	0x339b
 8474 2bc3 D32B0000 		.4byte	0x2bd3
 8475 2bc7 15       		.uleb128 0x15
 8476 2bc8 01       		.uleb128 0x1
 8477 2bc9 51       		.byte	0x51
 8478 2bca 01       		.uleb128 0x1
 8479 2bcb 3D       		.byte	0x3d
 8480 2bcc 15       		.uleb128 0x15
 8481 2bcd 01       		.uleb128 0x1
 8482 2bce 50       		.byte	0x50
 8483 2bcf 02       		.uleb128 0x2
 8484 2bd0 08       		.byte	0x8
 8485 2bd1 92       		.byte	0x92
 8486 2bd2 00       		.byte	0
 8487 2bd3 1A       		.uleb128 0x1a
 8488 2bd4 42000000 		.4byte	.LVL252
 8489 2bd8 B5330000 		.4byte	0x33b5
 8490 2bdc F52B0000 		.4byte	0x2bf5
 8491 2be0 15       		.uleb128 0x15
 8492 2be1 01       		.uleb128 0x1
 8493 2be2 52       		.byte	0x52
 8494 2be3 01       		.uleb128 0x1
 8495 2be4 3C       		.byte	0x3c
 8496 2be5 15       		.uleb128 0x15
 8497 2be6 01       		.uleb128 0x1
 8498 2be7 51       		.byte	0x51
 8499 2be8 05       		.uleb128 0x5
 8500 2be9 03       		.byte	0x3
 8501 2bea 3D000000 		.4byte	.LC5
 8502 2bee 15       		.uleb128 0x15
 8503 2bef 01       		.uleb128 0x1
 8504 2bf0 50       		.byte	0x50
 8505 2bf1 02       		.uleb128 0x2
 8506 2bf2 75       		.byte	0x75
 8507 2bf3 00       		.sleb128 0
 8508 2bf4 00       		.byte	0
 8509 2bf5 1A       		.uleb128 0x1a
 8510 2bf6 58000000 		.4byte	.LVL253
 8511 2bfa 5D330000 		.4byte	0x335d
 8512 2bfe 232C0000 		.4byte	0x2c23
 8513 2c02 15       		.uleb128 0x15
 8514 2c03 01       		.uleb128 0x1
 8515 2c04 53       		.byte	0x53
 8516 2c05 03       		.uleb128 0x3
 8517 2c06 0A       		.byte	0xa
 8518 2c07 0003     		.2byte	0x300
 8519 2c09 15       		.uleb128 0x15
 8520 2c0a 01       		.uleb128 0x1
 8521 2c0b 52       		.byte	0x52
 8522 2c0c 02       		.uleb128 0x2
 8523 2c0d 75       		.byte	0x75
 8524 2c0e 00       		.sleb128 0
 8525 2c0f 15       		.uleb128 0x15
 8526 2c10 01       		.uleb128 0x1
 8527 2c11 51       		.byte	0x51
 8528 2c12 02       		.uleb128 0x2
ARM GAS  C:\Users\AHMED~1.ELE\AppData\Local\Temp\ccGujCBB.s 			page 169


 8529 2c13 08       		.byte	0x8
 8530 2c14 25       		.byte	0x25
 8531 2c15 15       		.uleb128 0x15
 8532 2c16 01       		.uleb128 0x1
 8533 2c17 50       		.byte	0x50
 8534 2c18 01       		.uleb128 0x1
 8535 2c19 3F       		.byte	0x3f
 8536 2c1a 15       		.uleb128 0x15
 8537 2c1b 02       		.uleb128 0x2
 8538 2c1c 7D       		.byte	0x7d
 8539 2c1d 00       		.sleb128 0
 8540 2c1e 03       		.uleb128 0x3
 8541 2c1f 0A       		.byte	0xa
 8542 2c20 8010     		.2byte	0x1080
 8543 2c22 00       		.byte	0
 8544 2c23 1B       		.uleb128 0x1b
 8545 2c24 60000000 		.4byte	.LVL254
 8546 2c28 9B330000 		.4byte	0x339b
 8547 2c2c 15       		.uleb128 0x15
 8548 2c2d 01       		.uleb128 0x1
 8549 2c2e 51       		.byte	0x51
 8550 2c2f 02       		.uleb128 0x2
 8551 2c30 75       		.byte	0x75
 8552 2c31 00       		.sleb128 0
 8553 2c32 15       		.uleb128 0x15
 8554 2c33 01       		.uleb128 0x1
 8555 2c34 50       		.byte	0x50
 8556 2c35 02       		.uleb128 0x2
 8557 2c36 08       		.byte	0x8
 8558 2c37 94       		.byte	0x94
 8559 2c38 00       		.byte	0
 8560 2c39 00       		.byte	0
 8561 2c3a 1A       		.uleb128 0x1a
 8562 2c3b 1A000000 		.4byte	.LVL245
 8563 2c3f 5D330000 		.4byte	0x335d
 8564 2c43 662C0000 		.4byte	0x2c66
 8565 2c47 15       		.uleb128 0x15
 8566 2c48 01       		.uleb128 0x1
 8567 2c49 53       		.byte	0x53
 8568 2c4a 03       		.uleb128 0x3
 8569 2c4b F3       		.byte	0xf3
 8570 2c4c 01       		.uleb128 0x1
 8571 2c4d 51       		.byte	0x51
 8572 2c4e 15       		.uleb128 0x15
 8573 2c4f 01       		.uleb128 0x1
 8574 2c50 52       		.byte	0x52
 8575 2c51 02       		.uleb128 0x2
 8576 2c52 75       		.byte	0x75
 8577 2c53 00       		.sleb128 0
 8578 2c54 15       		.uleb128 0x15
 8579 2c55 01       		.uleb128 0x1
 8580 2c56 51       		.byte	0x51
 8581 2c57 01       		.uleb128 0x1
 8582 2c58 40       		.byte	0x40
 8583 2c59 15       		.uleb128 0x15
 8584 2c5a 01       		.uleb128 0x1
 8585 2c5b 50       		.byte	0x50
ARM GAS  C:\Users\AHMED~1.ELE\AppData\Local\Temp\ccGujCBB.s 			page 170


 8586 2c5c 01       		.uleb128 0x1
 8587 2c5d 3F       		.byte	0x3f
 8588 2c5e 15       		.uleb128 0x15
 8589 2c5f 02       		.uleb128 0x2
 8590 2c60 7D       		.byte	0x7d
 8591 2c61 00       		.sleb128 0
 8592 2c62 02       		.uleb128 0x2
 8593 2c63 77       		.byte	0x77
 8594 2c64 00       		.sleb128 0
 8595 2c65 00       		.byte	0
 8596 2c66 1A       		.uleb128 0x1a
 8597 2c67 28000000 		.4byte	.LVL246
 8598 2c6b 5D330000 		.4byte	0x335d
 8599 2c6f 912C0000 		.4byte	0x2c91
 8600 2c73 15       		.uleb128 0x15
 8601 2c74 01       		.uleb128 0x1
 8602 2c75 53       		.byte	0x53
 8603 2c76 02       		.uleb128 0x2
 8604 2c77 76       		.byte	0x76
 8605 2c78 00       		.sleb128 0
 8606 2c79 15       		.uleb128 0x15
 8607 2c7a 01       		.uleb128 0x1
 8608 2c7b 52       		.byte	0x52
 8609 2c7c 02       		.uleb128 0x2
 8610 2c7d 75       		.byte	0x75
 8611 2c7e 00       		.sleb128 0
 8612 2c7f 15       		.uleb128 0x15
 8613 2c80 01       		.uleb128 0x1
 8614 2c81 51       		.byte	0x51
 8615 2c82 01       		.uleb128 0x1
 8616 2c83 42       		.byte	0x42
 8617 2c84 15       		.uleb128 0x15
 8618 2c85 01       		.uleb128 0x1
 8619 2c86 50       		.byte	0x50
 8620 2c87 01       		.uleb128 0x1
 8621 2c88 3F       		.byte	0x3f
 8622 2c89 15       		.uleb128 0x15
 8623 2c8a 02       		.uleb128 0x2
 8624 2c8b 7D       		.byte	0x7d
 8625 2c8c 00       		.sleb128 0
 8626 2c8d 02       		.uleb128 0x2
 8627 2c8e 74       		.byte	0x74
 8628 2c8f 00       		.sleb128 0
 8629 2c90 00       		.byte	0
 8630 2c91 19       		.uleb128 0x19
 8631 2c92 64000000 		.4byte	.LVL255
 8632 2c96 F3170000 		.4byte	0x17f3
 8633 2c9a 00       		.byte	0
 8634 2c9b 24       		.uleb128 0x24
 8635 2c9c 16280000 		.4byte	.LASF867
 8636 2ca0 01       		.byte	0x1
 8637 2ca1 D802     		.2byte	0x2d8
 8638 2ca3 BA000000 		.4byte	0xba
 8639 2ca7 00000000 		.4byte	.LFB28
 8640 2cab 0C000000 		.4byte	.LFE28-.LFB28
 8641 2caf 01       		.uleb128 0x1
 8642 2cb0 9C       		.byte	0x9c
ARM GAS  C:\Users\AHMED~1.ELE\AppData\Local\Temp\ccGujCBB.s 			page 171


 8643 2cb1 C62C0000 		.4byte	0x2cc6
 8644 2cb5 1F       		.uleb128 0x1f
 8645 2cb6 EB0E0000 		.4byte	.LASF834
 8646 2cba 01       		.byte	0x1
 8647 2cbb D802     		.2byte	0x2d8
 8648 2cbd 7D000000 		.4byte	0x7d
 8649 2cc1 A60B0000 		.4byte	.LLST75
 8650 2cc5 00       		.byte	0
 8651 2cc6 24       		.uleb128 0x24
 8652 2cc7 D4270000 		.4byte	.LASF868
 8653 2ccb 01       		.byte	0x1
 8654 2ccc E402     		.2byte	0x2e4
 8655 2cce C5000000 		.4byte	0xc5
 8656 2cd2 00000000 		.4byte	.LFB29
 8657 2cd6 14000000 		.4byte	.LFE29-.LFB29
 8658 2cda 01       		.uleb128 0x1
 8659 2cdb 9C       		.byte	0x9c
 8660 2cdc 0F2D0000 		.4byte	0x2d0f
 8661 2ce0 1F       		.uleb128 0x1f
 8662 2ce1 EB0E0000 		.4byte	.LASF834
 8663 2ce5 01       		.byte	0x1
 8664 2ce6 E402     		.2byte	0x2e4
 8665 2ce8 7D000000 		.4byte	0x7d
 8666 2cec C70B0000 		.4byte	.LLST76
 8667 2cf0 22       		.uleb128 0x22
 8668 2cf1 72657400 		.ascii	"ret\000"
 8669 2cf5 01       		.byte	0x1
 8670 2cf6 E602     		.2byte	0x2e6
 8671 2cf8 C5000000 		.4byte	0xc5
 8672 2cfc E70B0000 		.4byte	.LLST77
 8673 2d00 22       		.uleb128 0x22
 8674 2d01 6900     		.ascii	"i\000"
 8675 2d03 01       		.byte	0x1
 8676 2d04 E702     		.2byte	0x2e7
 8677 2d06 AF000000 		.4byte	0xaf
 8678 2d0a 150C0000 		.4byte	.LLST78
 8679 2d0e 00       		.byte	0
 8680 2d0f 24       		.uleb128 0x24
 8681 2d10 50150000 		.4byte	.LASF869
 8682 2d14 01       		.byte	0x1
 8683 2d15 F802     		.2byte	0x2f8
 8684 2d17 A4000000 		.4byte	0xa4
 8685 2d1b 00000000 		.4byte	.LFB30
 8686 2d1f F4000000 		.4byte	.LFE30-.LFB30
 8687 2d23 01       		.uleb128 0x1
 8688 2d24 9C       		.byte	0x9c
 8689 2d25 902F0000 		.4byte	0x2f90
 8690 2d29 1F       		.uleb128 0x1f
 8691 2d2a 6C1C0000 		.4byte	.LASF870
 8692 2d2e 01       		.byte	0x1
 8693 2d2f F802     		.2byte	0x2f8
 8694 2d31 C5000000 		.4byte	0xc5
 8695 2d35 490C0000 		.4byte	.LLST79
 8696 2d39 1F       		.uleb128 0x1f
 8697 2d3a 8F150000 		.4byte	.LASF871
 8698 2d3e 01       		.byte	0x1
 8699 2d3f F802     		.2byte	0x2f8
ARM GAS  C:\Users\AHMED~1.ELE\AppData\Local\Temp\ccGujCBB.s 			page 172


 8700 2d41 A4000000 		.4byte	0xa4
 8701 2d45 750C0000 		.4byte	.LLST80
 8702 2d49 20       		.uleb128 0x20
 8703 2d4a 77310000 		.4byte	.LASF872
 8704 2d4e 01       		.byte	0x1
 8705 2d4f FA02     		.2byte	0x2fa
 8706 2d51 AF000000 		.4byte	0xaf
 8707 2d55 02       		.uleb128 0x2
 8708 2d56 91       		.byte	0x91
 8709 2d57 53       		.sleb128 -45
 8710 2d58 20       		.uleb128 0x20
 8711 2d59 B7290000 		.4byte	.LASF873
 8712 2d5d 01       		.byte	0x1
 8713 2d5e FB02     		.2byte	0x2fb
 8714 2d60 46130000 		.4byte	0x1346
 8715 2d64 02       		.uleb128 0x2
 8716 2d65 91       		.byte	0x91
 8717 2d66 54       		.sleb128 -44
 8718 2d67 21       		.uleb128 0x21
 8719 2d68 50000000 		.4byte	.LBB13
 8720 2d6c 18000000 		.4byte	.LBE13-.LBB13
 8721 2d70 CC2D0000 		.4byte	0x2dcc
 8722 2d74 22       		.uleb128 0x22
 8723 2d75 6C656E00 		.ascii	"len\000"
 8724 2d79 01       		.byte	0x1
 8725 2d7a 0803     		.2byte	0x308
 8726 2d7c C5000000 		.4byte	0xc5
 8727 2d80 960C0000 		.4byte	.LLST81
 8728 2d84 22       		.uleb128 0x22
 8729 2d85 70747200 		.ascii	"ptr\000"
 8730 2d89 01       		.byte	0x1
 8731 2d8a 0803     		.2byte	0x308
 8732 2d8c DB000000 		.4byte	0xdb
 8733 2d90 AA0C0000 		.4byte	.LLST82
 8734 2d94 1A       		.uleb128 0x1a
 8735 2d95 58000000 		.4byte	.LVL273
 8736 2d99 9B330000 		.4byte	0x339b
 8737 2d9d AD2D0000 		.4byte	0x2dad
 8738 2da1 15       		.uleb128 0x15
 8739 2da2 01       		.uleb128 0x1
 8740 2da3 51       		.byte	0x51
 8741 2da4 01       		.uleb128 0x1
 8742 2da5 42       		.byte	0x42
 8743 2da6 15       		.uleb128 0x15
 8744 2da7 01       		.uleb128 0x1
 8745 2da8 50       		.byte	0x50
 8746 2da9 02       		.uleb128 0x2
 8747 2daa 08       		.byte	0x8
 8748 2dab 92       		.byte	0x92
 8749 2dac 00       		.byte	0
 8750 2dad 1B       		.uleb128 0x1b
 8751 2dae 64000000 		.4byte	.LVL274
 8752 2db2 B5330000 		.4byte	0x33b5
 8753 2db6 15       		.uleb128 0x15
 8754 2db7 01       		.uleb128 0x1
 8755 2db8 52       		.byte	0x52
 8756 2db9 01       		.uleb128 0x1
ARM GAS  C:\Users\AHMED~1.ELE\AppData\Local\Temp\ccGujCBB.s 			page 173


 8757 2dba 41       		.byte	0x41
 8758 2dbb 15       		.uleb128 0x15
 8759 2dbc 01       		.uleb128 0x1
 8760 2dbd 51       		.byte	0x51
 8761 2dbe 05       		.uleb128 0x5
 8762 2dbf 03       		.byte	0x3
 8763 2dc0 4A000000 		.4byte	.LC6
 8764 2dc4 15       		.uleb128 0x15
 8765 2dc5 01       		.uleb128 0x1
 8766 2dc6 50       		.byte	0x50
 8767 2dc7 02       		.uleb128 0x2
 8768 2dc8 75       		.byte	0x75
 8769 2dc9 00       		.sleb128 0
 8770 2dca 00       		.byte	0
 8771 2dcb 00       		.byte	0
 8772 2dcc 21       		.uleb128 0x21
 8773 2dcd 7C000000 		.4byte	.LBB14
 8774 2dd1 34000000 		.4byte	.LBE14-.LBB14
 8775 2dd5 792E0000 		.4byte	0x2e79
 8776 2dd9 22       		.uleb128 0x22
 8777 2dda 6C656E00 		.ascii	"len\000"
 8778 2dde 01       		.byte	0x1
 8779 2ddf 0E03     		.2byte	0x30e
 8780 2de1 C5000000 		.4byte	0xc5
 8781 2de5 C80C0000 		.4byte	.LLST83
 8782 2de9 22       		.uleb128 0x22
 8783 2dea 70747200 		.ascii	"ptr\000"
 8784 2dee 01       		.byte	0x1
 8785 2def 0E03     		.2byte	0x30e
 8786 2df1 DB000000 		.4byte	0xdb
 8787 2df5 DC0C0000 		.4byte	.LLST84
 8788 2df9 1A       		.uleb128 0x1a
 8789 2dfa 84000000 		.4byte	.LVL278
 8790 2dfe 9B330000 		.4byte	0x339b
 8791 2e02 122E0000 		.4byte	0x2e12
 8792 2e06 15       		.uleb128 0x15
 8793 2e07 01       		.uleb128 0x1
 8794 2e08 51       		.byte	0x51
 8795 2e09 01       		.uleb128 0x1
 8796 2e0a 44       		.byte	0x44
 8797 2e0b 15       		.uleb128 0x15
 8798 2e0c 01       		.uleb128 0x1
 8799 2e0d 50       		.byte	0x50
 8800 2e0e 02       		.uleb128 0x2
 8801 2e0f 08       		.byte	0x8
 8802 2e10 92       		.byte	0x92
 8803 2e11 00       		.byte	0
 8804 2e12 1A       		.uleb128 0x1a
 8805 2e13 90000000 		.4byte	.LVL279
 8806 2e17 B5330000 		.4byte	0x33b5
 8807 2e1b 342E0000 		.4byte	0x2e34
 8808 2e1f 15       		.uleb128 0x15
 8809 2e20 01       		.uleb128 0x1
 8810 2e21 52       		.byte	0x52
 8811 2e22 01       		.uleb128 0x1
 8812 2e23 43       		.byte	0x43
 8813 2e24 15       		.uleb128 0x15
ARM GAS  C:\Users\AHMED~1.ELE\AppData\Local\Temp\ccGujCBB.s 			page 174


 8814 2e25 01       		.uleb128 0x1
 8815 2e26 51       		.byte	0x51
 8816 2e27 05       		.uleb128 0x5
 8817 2e28 03       		.byte	0x3
 8818 2e29 5C000000 		.4byte	.LC7
 8819 2e2d 15       		.uleb128 0x15
 8820 2e2e 01       		.uleb128 0x1
 8821 2e2f 50       		.byte	0x50
 8822 2e30 02       		.uleb128 0x2
 8823 2e31 75       		.byte	0x75
 8824 2e32 00       		.sleb128 0
 8825 2e33 00       		.byte	0
 8826 2e34 1A       		.uleb128 0x1a
 8827 2e35 A6000000 		.4byte	.LVL281
 8828 2e39 5D330000 		.4byte	0x335d
 8829 2e3d 622E0000 		.4byte	0x2e62
 8830 2e41 15       		.uleb128 0x15
 8831 2e42 01       		.uleb128 0x1
 8832 2e43 53       		.byte	0x53
 8833 2e44 03       		.uleb128 0x3
 8834 2e45 0A       		.byte	0xa
 8835 2e46 0007     		.2byte	0x700
 8836 2e48 15       		.uleb128 0x15
 8837 2e49 01       		.uleb128 0x1
 8838 2e4a 52       		.byte	0x52
 8839 2e4b 02       		.uleb128 0x2
 8840 2e4c 75       		.byte	0x75
 8841 2e4d 00       		.sleb128 0
 8842 2e4e 15       		.uleb128 0x15
 8843 2e4f 01       		.uleb128 0x1
 8844 2e50 51       		.byte	0x51
 8845 2e51 02       		.uleb128 0x2
 8846 2e52 08       		.byte	0x8
 8847 2e53 25       		.byte	0x25
 8848 2e54 15       		.uleb128 0x15
 8849 2e55 01       		.uleb128 0x1
 8850 2e56 50       		.byte	0x50
 8851 2e57 01       		.uleb128 0x1
 8852 2e58 3F       		.byte	0x3f
 8853 2e59 15       		.uleb128 0x15
 8854 2e5a 02       		.uleb128 0x2
 8855 2e5b 7D       		.byte	0x7d
 8856 2e5c 00       		.sleb128 0
 8857 2e5d 03       		.uleb128 0x3
 8858 2e5e 0A       		.byte	0xa
 8859 2e5f 0220     		.2byte	0x2002
 8860 2e61 00       		.byte	0
 8861 2e62 1B       		.uleb128 0x1b
 8862 2e63 AE000000 		.4byte	.LVL282
 8863 2e67 9B330000 		.4byte	0x339b
 8864 2e6b 15       		.uleb128 0x15
 8865 2e6c 01       		.uleb128 0x1
 8866 2e6d 51       		.byte	0x51
 8867 2e6e 02       		.uleb128 0x2
 8868 2e6f 75       		.byte	0x75
 8869 2e70 00       		.sleb128 0
 8870 2e71 15       		.uleb128 0x15
ARM GAS  C:\Users\AHMED~1.ELE\AppData\Local\Temp\ccGujCBB.s 			page 175


 8871 2e72 01       		.uleb128 0x1
 8872 2e73 50       		.byte	0x50
 8873 2e74 02       		.uleb128 0x2
 8874 2e75 08       		.byte	0x8
 8875 2e76 94       		.byte	0x94
 8876 2e77 00       		.byte	0
 8877 2e78 00       		.byte	0
 8878 2e79 1A       		.uleb128 0x1a
 8879 2e7a 16000000 		.4byte	.LVL266
 8880 2e7e D2330000 		.4byte	0x33d2
 8881 2e82 982E0000 		.4byte	0x2e98
 8882 2e86 15       		.uleb128 0x15
 8883 2e87 01       		.uleb128 0x1
 8884 2e88 52       		.byte	0x52
 8885 2e89 02       		.uleb128 0x2
 8886 2e8a 91       		.byte	0x91
 8887 2e8b 53       		.sleb128 -45
 8888 2e8c 15       		.uleb128 0x15
 8889 2e8d 01       		.uleb128 0x1
 8890 2e8e 51       		.byte	0x51
 8891 2e8f 01       		.uleb128 0x1
 8892 2e90 42       		.byte	0x42
 8893 2e91 15       		.uleb128 0x15
 8894 2e92 01       		.uleb128 0x1
 8895 2e93 50       		.byte	0x50
 8896 2e94 02       		.uleb128 0x2
 8897 2e95 08       		.byte	0x8
 8898 2e96 B9       		.byte	0xb9
 8899 2e97 00       		.byte	0
 8900 2e98 1A       		.uleb128 0x1a
 8901 2e99 20000000 		.4byte	.LVL267
 8902 2e9d D2330000 		.4byte	0x33d2
 8903 2ea1 B12E0000 		.4byte	0x2eb1
 8904 2ea5 15       		.uleb128 0x15
 8905 2ea6 01       		.uleb128 0x1
 8906 2ea7 52       		.byte	0x52
 8907 2ea8 02       		.uleb128 0x2
 8908 2ea9 75       		.byte	0x75
 8909 2eaa 00       		.sleb128 0
 8910 2eab 15       		.uleb128 0x15
 8911 2eac 01       		.uleb128 0x1
 8912 2ead 50       		.byte	0x50
 8913 2eae 01       		.uleb128 0x1
 8914 2eaf 3C       		.byte	0x3c
 8915 2eb0 00       		.byte	0
 8916 2eb1 1A       		.uleb128 0x1a
 8917 2eb2 28000000 		.4byte	.LVL268
 8918 2eb6 48330000 		.4byte	0x3348
 8919 2eba C62E0000 		.4byte	0x2ec6
 8920 2ebe 15       		.uleb128 0x15
 8921 2ebf 01       		.uleb128 0x1
 8922 2ec0 50       		.byte	0x50
 8923 2ec1 03       		.uleb128 0x3
 8924 2ec2 0A       		.byte	0xa
 8925 2ec3 9C01     		.2byte	0x19c
 8926 2ec5 00       		.byte	0
 8927 2ec6 1A       		.uleb128 0x1a
ARM GAS  C:\Users\AHMED~1.ELE\AppData\Local\Temp\ccGujCBB.s 			page 176


 8928 2ec7 36000000 		.4byte	.LVL269
 8929 2ecb 5D330000 		.4byte	0x335d
 8930 2ecf EE2E0000 		.4byte	0x2eee
 8931 2ed3 15       		.uleb128 0x15
 8932 2ed4 01       		.uleb128 0x1
 8933 2ed5 53       		.byte	0x53
 8934 2ed6 01       		.uleb128 0x1
 8935 2ed7 30       		.byte	0x30
 8936 2ed8 15       		.uleb128 0x15
 8937 2ed9 01       		.uleb128 0x1
 8938 2eda 52       		.byte	0x52
 8939 2edb 01       		.uleb128 0x1
 8940 2edc 30       		.byte	0x30
 8941 2edd 15       		.uleb128 0x15
 8942 2ede 01       		.uleb128 0x1
 8943 2edf 51       		.byte	0x51
 8944 2ee0 01       		.uleb128 0x1
 8945 2ee1 46       		.byte	0x46
 8946 2ee2 15       		.uleb128 0x15
 8947 2ee3 01       		.uleb128 0x1
 8948 2ee4 50       		.byte	0x50
 8949 2ee5 01       		.uleb128 0x1
 8950 2ee6 3F       		.byte	0x3f
 8951 2ee7 15       		.uleb128 0x15
 8952 2ee8 02       		.uleb128 0x2
 8953 2ee9 7D       		.byte	0x7d
 8954 2eea 00       		.sleb128 0
 8955 2eeb 01       		.uleb128 0x1
 8956 2eec 30       		.byte	0x30
 8957 2eed 00       		.byte	0
 8958 2eee 19       		.uleb128 0x19
 8959 2eef 42000000 		.4byte	.LVL270
 8960 2ef3 67160000 		.4byte	0x1667
 8961 2ef7 1A       		.uleb128 0x1a
 8962 2ef8 4A000000 		.4byte	.LVL271
 8963 2efc 4E350000 		.4byte	0x354e
 8964 2f00 102F0000 		.4byte	0x2f10
 8965 2f04 15       		.uleb128 0x15
 8966 2f05 01       		.uleb128 0x1
 8967 2f06 51       		.byte	0x51
 8968 2f07 01       		.uleb128 0x1
 8969 2f08 30       		.byte	0x30
 8970 2f09 15       		.uleb128 0x15
 8971 2f0a 01       		.uleb128 0x1
 8972 2f0b 50       		.byte	0x50
 8973 2f0c 02       		.uleb128 0x2
 8974 2f0d 08       		.byte	0x8
 8975 2f0e 42       		.byte	0x42
 8976 2f0f 00       		.byte	0
 8977 2f10 1A       		.uleb128 0x1a
 8978 2f11 78000000 		.4byte	.LVL276
 8979 2f15 68350000 		.4byte	0x3568
 8980 2f19 2E2F0000 		.4byte	0x2f2e
 8981 2f1d 15       		.uleb128 0x15
 8982 2f1e 01       		.uleb128 0x1
 8983 2f1f 52       		.byte	0x52
 8984 2f20 02       		.uleb128 0x2
ARM GAS  C:\Users\AHMED~1.ELE\AppData\Local\Temp\ccGujCBB.s 			page 177


 8985 2f21 91       		.byte	0x91
 8986 2f22 54       		.sleb128 -44
 8987 2f23 15       		.uleb128 0x15
 8988 2f24 01       		.uleb128 0x1
 8989 2f25 51       		.byte	0x51
 8990 2f26 01       		.uleb128 0x1
 8991 2f27 30       		.byte	0x30
 8992 2f28 15       		.uleb128 0x15
 8993 2f29 01       		.uleb128 0x1
 8994 2f2a 50       		.byte	0x50
 8995 2f2b 01       		.uleb128 0x1
 8996 2f2c 43       		.byte	0x43
 8997 2f2d 00       		.byte	0
 8998 2f2e 1A       		.uleb128 0x1a
 8999 2f2f C0000000 		.4byte	.LVL283
 9000 2f33 5D330000 		.4byte	0x335d
 9001 2f37 592F0000 		.4byte	0x2f59
 9002 2f3b 15       		.uleb128 0x15
 9003 2f3c 01       		.uleb128 0x1
 9004 2f3d 53       		.byte	0x53
 9005 2f3e 01       		.uleb128 0x1
 9006 2f3f 30       		.byte	0x30
 9007 2f40 15       		.uleb128 0x15
 9008 2f41 01       		.uleb128 0x1
 9009 2f42 52       		.byte	0x52
 9010 2f43 03       		.uleb128 0x3
 9011 2f44 0A       		.byte	0xa
 9012 2f45 0007     		.2byte	0x700
 9013 2f47 15       		.uleb128 0x15
 9014 2f48 01       		.uleb128 0x1
 9015 2f49 51       		.byte	0x51
 9016 2f4a 02       		.uleb128 0x2
 9017 2f4b 08       		.byte	0x8
 9018 2f4c 23       		.byte	0x23
 9019 2f4d 15       		.uleb128 0x15
 9020 2f4e 01       		.uleb128 0x1
 9021 2f4f 50       		.byte	0x50
 9022 2f50 01       		.uleb128 0x1
 9023 2f51 3F       		.byte	0x3f
 9024 2f52 15       		.uleb128 0x15
 9025 2f53 02       		.uleb128 0x2
 9026 2f54 7D       		.byte	0x7d
 9027 2f55 00       		.sleb128 0
 9028 2f56 01       		.uleb128 0x1
 9029 2f57 30       		.byte	0x30
 9030 2f58 00       		.byte	0
 9031 2f59 1A       		.uleb128 0x1a
 9032 2f5a C6000000 		.4byte	.LVL284
 9033 2f5e 1D180000 		.4byte	0x181d
 9034 2f62 6D2F0000 		.4byte	0x2f6d
 9035 2f66 15       		.uleb128 0x15
 9036 2f67 01       		.uleb128 0x1
 9037 2f68 50       		.byte	0x50
 9038 2f69 02       		.uleb128 0x2
 9039 2f6a 08       		.byte	0x8
 9040 2f6b 32       		.byte	0x32
 9041 2f6c 00       		.byte	0
ARM GAS  C:\Users\AHMED~1.ELE\AppData\Local\Temp\ccGujCBB.s 			page 178


 9042 2f6d 1A       		.uleb128 0x1a
 9043 2f6e D0000000 		.4byte	.LVL285
 9044 2f72 9B330000 		.4byte	0x339b
 9045 2f76 802F0000 		.4byte	0x2f80
 9046 2f7a 15       		.uleb128 0x15
 9047 2f7b 01       		.uleb128 0x1
 9048 2f7c 50       		.byte	0x50
 9049 2f7d 01       		.uleb128 0x1
 9050 2f7e 3D       		.byte	0x3d
 9051 2f7f 00       		.byte	0
 9052 2f80 1B       		.uleb128 0x1b
 9053 2f81 DC000000 		.4byte	.LVL286
 9054 2f85 9B330000 		.4byte	0x339b
 9055 2f89 15       		.uleb128 0x15
 9056 2f8a 01       		.uleb128 0x1
 9057 2f8b 50       		.byte	0x50
 9058 2f8c 01       		.uleb128 0x1
 9059 2f8d 3D       		.byte	0x3d
 9060 2f8e 00       		.byte	0
 9061 2f8f 00       		.byte	0
 9062 2f90 24       		.uleb128 0x24
 9063 2f91 531D0000 		.4byte	.LASF874
 9064 2f95 01       		.byte	0x1
 9065 2f96 2503     		.2byte	0x325
 9066 2f98 A4000000 		.4byte	0xa4
 9067 2f9c 00000000 		.4byte	.LFB31
 9068 2fa0 EC000000 		.4byte	.LFE31-.LFB31
 9069 2fa4 01       		.uleb128 0x1
 9070 2fa5 9C       		.byte	0x9c
 9071 2fa6 F0310000 		.4byte	0x31f0
 9072 2faa 1F       		.uleb128 0x1f
 9073 2fab 6C1C0000 		.4byte	.LASF870
 9074 2faf 01       		.byte	0x1
 9075 2fb0 2503     		.2byte	0x325
 9076 2fb2 C5000000 		.4byte	0xc5
 9077 2fb6 FA0C0000 		.4byte	.LLST85
 9078 2fba 1F       		.uleb128 0x1f
 9079 2fbb 8F150000 		.4byte	.LASF871
 9080 2fbf 01       		.byte	0x1
 9081 2fc0 2503     		.2byte	0x325
 9082 2fc2 A4000000 		.4byte	0xa4
 9083 2fc6 260D0000 		.4byte	.LLST86
 9084 2fca 20       		.uleb128 0x20
 9085 2fcb B7290000 		.4byte	.LASF873
 9086 2fcf 01       		.byte	0x1
 9087 2fd0 2703     		.2byte	0x327
 9088 2fd2 46130000 		.4byte	0x1346
 9089 2fd6 02       		.uleb128 0x2
 9090 2fd7 91       		.byte	0x91
 9091 2fd8 54       		.sleb128 -44
 9092 2fd9 21       		.uleb128 0x21
 9093 2fda 12000000 		.4byte	.LBB15
 9094 2fde 32000000 		.4byte	.LBE15-.LBB15
 9095 2fe2 86300000 		.4byte	0x3086
 9096 2fe6 22       		.uleb128 0x22
 9097 2fe7 6C656E00 		.ascii	"len\000"
 9098 2feb 01       		.byte	0x1
ARM GAS  C:\Users\AHMED~1.ELE\AppData\Local\Temp\ccGujCBB.s 			page 179


 9099 2fec 2B03     		.2byte	0x32b
 9100 2fee C5000000 		.4byte	0xc5
 9101 2ff2 470D0000 		.4byte	.LLST87
 9102 2ff6 22       		.uleb128 0x22
 9103 2ff7 70747200 		.ascii	"ptr\000"
 9104 2ffb 01       		.byte	0x1
 9105 2ffc 2B03     		.2byte	0x32b
 9106 2ffe DB000000 		.4byte	0xdb
 9107 3002 5B0D0000 		.4byte	.LLST88
 9108 3006 1A       		.uleb128 0x1a
 9109 3007 1A000000 		.4byte	.LVL290
 9110 300b 9B330000 		.4byte	0x339b
 9111 300f 1F300000 		.4byte	0x301f
 9112 3013 15       		.uleb128 0x15
 9113 3014 01       		.uleb128 0x1
 9114 3015 51       		.byte	0x51
 9115 3016 01       		.uleb128 0x1
 9116 3017 46       		.byte	0x46
 9117 3018 15       		.uleb128 0x15
 9118 3019 01       		.uleb128 0x1
 9119 301a 50       		.byte	0x50
 9120 301b 02       		.uleb128 0x2
 9121 301c 08       		.byte	0x8
 9122 301d 92       		.byte	0x92
 9123 301e 00       		.byte	0
 9124 301f 1A       		.uleb128 0x1a
 9125 3020 26000000 		.4byte	.LVL291
 9126 3024 B5330000 		.4byte	0x33b5
 9127 3028 41300000 		.4byte	0x3041
 9128 302c 15       		.uleb128 0x15
 9129 302d 01       		.uleb128 0x1
 9130 302e 52       		.byte	0x52
 9131 302f 01       		.uleb128 0x1
 9132 3030 45       		.byte	0x45
 9133 3031 15       		.uleb128 0x15
 9134 3032 01       		.uleb128 0x1
 9135 3033 51       		.byte	0x51
 9136 3034 05       		.uleb128 0x5
 9137 3035 03       		.byte	0x3
 9138 3036 70000000 		.4byte	.LC8
 9139 303a 15       		.uleb128 0x15
 9140 303b 01       		.uleb128 0x1
 9141 303c 50       		.byte	0x50
 9142 303d 02       		.uleb128 0x2
 9143 303e 74       		.byte	0x74
 9144 303f 00       		.sleb128 0
 9145 3040 00       		.byte	0
 9146 3041 1A       		.uleb128 0x1a
 9147 3042 3C000000 		.4byte	.LVL292
 9148 3046 5D330000 		.4byte	0x335d
 9149 304a 6F300000 		.4byte	0x306f
 9150 304e 15       		.uleb128 0x15
 9151 304f 01       		.uleb128 0x1
 9152 3050 53       		.byte	0x53
 9153 3051 03       		.uleb128 0x3
 9154 3052 0A       		.byte	0xa
 9155 3053 0007     		.2byte	0x700
ARM GAS  C:\Users\AHMED~1.ELE\AppData\Local\Temp\ccGujCBB.s 			page 180


 9156 3055 15       		.uleb128 0x15
 9157 3056 01       		.uleb128 0x1
 9158 3057 52       		.byte	0x52
 9159 3058 02       		.uleb128 0x2
 9160 3059 74       		.byte	0x74
 9161 305a 00       		.sleb128 0
 9162 305b 15       		.uleb128 0x15
 9163 305c 01       		.uleb128 0x1
 9164 305d 51       		.byte	0x51
 9165 305e 02       		.uleb128 0x2
 9166 305f 08       		.byte	0x8
 9167 3060 25       		.byte	0x25
 9168 3061 15       		.uleb128 0x15
 9169 3062 01       		.uleb128 0x1
 9170 3063 50       		.byte	0x50
 9171 3064 01       		.uleb128 0x1
 9172 3065 3F       		.byte	0x3f
 9173 3066 15       		.uleb128 0x15
 9174 3067 02       		.uleb128 0x2
 9175 3068 7D       		.byte	0x7d
 9176 3069 00       		.sleb128 0
 9177 306a 03       		.uleb128 0x3
 9178 306b 0A       		.byte	0xa
 9179 306c 2220     		.2byte	0x2022
 9180 306e 00       		.byte	0
 9181 306f 1B       		.uleb128 0x1b
 9182 3070 44000000 		.4byte	.LVL293
 9183 3074 9B330000 		.4byte	0x339b
 9184 3078 15       		.uleb128 0x15
 9185 3079 01       		.uleb128 0x1
 9186 307a 51       		.byte	0x51
 9187 307b 02       		.uleb128 0x2
 9188 307c 74       		.byte	0x74
 9189 307d 00       		.sleb128 0
 9190 307e 15       		.uleb128 0x15
 9191 307f 01       		.uleb128 0x1
 9192 3080 50       		.byte	0x50
 9193 3081 02       		.uleb128 0x2
 9194 3082 08       		.byte	0x8
 9195 3083 94       		.byte	0x94
 9196 3084 00       		.byte	0
 9197 3085 00       		.byte	0
 9198 3086 21       		.uleb128 0x21
 9199 3087 9A000000 		.4byte	.LBB16
 9200 308b 32000000 		.4byte	.LBE16-.LBB16
 9201 308f 33310000 		.4byte	0x3133
 9202 3093 22       		.uleb128 0x22
 9203 3094 6C656E00 		.ascii	"len\000"
 9204 3098 01       		.byte	0x1
 9205 3099 3B03     		.2byte	0x33b
 9206 309b C5000000 		.4byte	0xc5
 9207 309f 790D0000 		.4byte	.LLST89
 9208 30a3 22       		.uleb128 0x22
 9209 30a4 70747200 		.ascii	"ptr\000"
 9210 30a8 01       		.byte	0x1
 9211 30a9 3B03     		.2byte	0x33b
 9212 30ab DB000000 		.4byte	0xdb
ARM GAS  C:\Users\AHMED~1.ELE\AppData\Local\Temp\ccGujCBB.s 			page 181


 9213 30af 8D0D0000 		.4byte	.LLST90
 9214 30b3 1A       		.uleb128 0x1a
 9215 30b4 A2000000 		.4byte	.LVL303
 9216 30b8 9B330000 		.4byte	0x339b
 9217 30bc CC300000 		.4byte	0x30cc
 9218 30c0 15       		.uleb128 0x15
 9219 30c1 01       		.uleb128 0x1
 9220 30c2 51       		.byte	0x51
 9221 30c3 01       		.uleb128 0x1
 9222 30c4 45       		.byte	0x45
 9223 30c5 15       		.uleb128 0x15
 9224 30c6 01       		.uleb128 0x1
 9225 30c7 50       		.byte	0x50
 9226 30c8 02       		.uleb128 0x2
 9227 30c9 08       		.byte	0x8
 9228 30ca 92       		.byte	0x92
 9229 30cb 00       		.byte	0
 9230 30cc 1A       		.uleb128 0x1a
 9231 30cd AE000000 		.4byte	.LVL304
 9232 30d1 B5330000 		.4byte	0x33b5
 9233 30d5 EE300000 		.4byte	0x30ee
 9234 30d9 15       		.uleb128 0x15
 9235 30da 01       		.uleb128 0x1
 9236 30db 52       		.byte	0x52
 9237 30dc 01       		.uleb128 0x1
 9238 30dd 44       		.byte	0x44
 9239 30de 15       		.uleb128 0x15
 9240 30df 01       		.uleb128 0x1
 9241 30e0 51       		.byte	0x51
 9242 30e1 05       		.uleb128 0x5
 9243 30e2 03       		.byte	0x3
 9244 30e3 86000000 		.4byte	.LC9
 9245 30e7 15       		.uleb128 0x15
 9246 30e8 01       		.uleb128 0x1
 9247 30e9 50       		.byte	0x50
 9248 30ea 02       		.uleb128 0x2
 9249 30eb 75       		.byte	0x75
 9250 30ec 00       		.sleb128 0
 9251 30ed 00       		.byte	0
 9252 30ee 1A       		.uleb128 0x1a
 9253 30ef C4000000 		.4byte	.LVL305
 9254 30f3 5D330000 		.4byte	0x335d
 9255 30f7 1C310000 		.4byte	0x311c
 9256 30fb 15       		.uleb128 0x15
 9257 30fc 01       		.uleb128 0x1
 9258 30fd 53       		.byte	0x53
 9259 30fe 03       		.uleb128 0x3
 9260 30ff 0A       		.byte	0xa
 9261 3100 0007     		.2byte	0x700
 9262 3102 15       		.uleb128 0x15
 9263 3103 01       		.uleb128 0x1
 9264 3104 52       		.byte	0x52
 9265 3105 02       		.uleb128 0x2
 9266 3106 75       		.byte	0x75
 9267 3107 00       		.sleb128 0
 9268 3108 15       		.uleb128 0x15
 9269 3109 01       		.uleb128 0x1
ARM GAS  C:\Users\AHMED~1.ELE\AppData\Local\Temp\ccGujCBB.s 			page 182


 9270 310a 51       		.byte	0x51
 9271 310b 02       		.uleb128 0x2
 9272 310c 08       		.byte	0x8
 9273 310d 25       		.byte	0x25
 9274 310e 15       		.uleb128 0x15
 9275 310f 01       		.uleb128 0x1
 9276 3110 50       		.byte	0x50
 9277 3111 01       		.uleb128 0x1
 9278 3112 3F       		.byte	0x3f
 9279 3113 15       		.uleb128 0x15
 9280 3114 02       		.uleb128 0x2
 9281 3115 7D       		.byte	0x7d
 9282 3116 00       		.sleb128 0
 9283 3117 03       		.uleb128 0x3
 9284 3118 0A       		.byte	0xa
 9285 3119 0220     		.2byte	0x2002
 9286 311b 00       		.byte	0
 9287 311c 1B       		.uleb128 0x1b
 9288 311d CC000000 		.4byte	.LVL306
 9289 3121 9B330000 		.4byte	0x339b
 9290 3125 15       		.uleb128 0x15
 9291 3126 01       		.uleb128 0x1
 9292 3127 51       		.byte	0x51
 9293 3128 02       		.uleb128 0x2
 9294 3129 75       		.byte	0x75
 9295 312a 00       		.sleb128 0
 9296 312b 15       		.uleb128 0x15
 9297 312c 01       		.uleb128 0x1
 9298 312d 50       		.byte	0x50
 9299 312e 02       		.uleb128 0x2
 9300 312f 08       		.byte	0x8
 9301 3130 94       		.byte	0x94
 9302 3131 00       		.byte	0
 9303 3132 00       		.byte	0
 9304 3133 19       		.uleb128 0x19
 9305 3134 0C000000 		.4byte	.LVL288
 9306 3138 87350000 		.4byte	0x3587
 9307 313c 1A       		.uleb128 0x1a
 9308 313d 4A000000 		.4byte	.LVL294
 9309 3141 1D180000 		.4byte	0x181d
 9310 3145 50310000 		.4byte	0x3150
 9311 3149 15       		.uleb128 0x15
 9312 314a 01       		.uleb128 0x1
 9313 314b 50       		.byte	0x50
 9314 314c 02       		.uleb128 0x2
 9315 314d 08       		.byte	0x8
 9316 314e 64       		.byte	0x64
 9317 314f 00       		.byte	0
 9318 3150 1A       		.uleb128 0x1a
 9319 3151 5A000000 		.4byte	.LVL296
 9320 3155 D2330000 		.4byte	0x33d2
 9321 3159 69310000 		.4byte	0x3169
 9322 315d 15       		.uleb128 0x15
 9323 315e 01       		.uleb128 0x1
 9324 315f 52       		.byte	0x52
 9325 3160 02       		.uleb128 0x2
 9326 3161 75       		.byte	0x75
ARM GAS  C:\Users\AHMED~1.ELE\AppData\Local\Temp\ccGujCBB.s 			page 183


 9327 3162 00       		.sleb128 0
 9328 3163 15       		.uleb128 0x15
 9329 3164 01       		.uleb128 0x1
 9330 3165 50       		.byte	0x50
 9331 3166 01       		.uleb128 0x1
 9332 3167 3C       		.byte	0x3c
 9333 3168 00       		.byte	0
 9334 3169 1A       		.uleb128 0x1a
 9335 316a 62000000 		.4byte	.LVL297
 9336 316e 48330000 		.4byte	0x3348
 9337 3172 7E310000 		.4byte	0x317e
 9338 3176 15       		.uleb128 0x15
 9339 3177 01       		.uleb128 0x1
 9340 3178 50       		.byte	0x50
 9341 3179 03       		.uleb128 0x3
 9342 317a 0A       		.byte	0xa
 9343 317b 9C01     		.2byte	0x19c
 9344 317d 00       		.byte	0
 9345 317e 1A       		.uleb128 0x1a
 9346 317f 70000000 		.4byte	.LVL298
 9347 3183 5D330000 		.4byte	0x335d
 9348 3187 A6310000 		.4byte	0x31a6
 9349 318b 15       		.uleb128 0x15
 9350 318c 01       		.uleb128 0x1
 9351 318d 53       		.byte	0x53
 9352 318e 01       		.uleb128 0x1
 9353 318f 30       		.byte	0x30
 9354 3190 15       		.uleb128 0x15
 9355 3191 01       		.uleb128 0x1
 9356 3192 52       		.byte	0x52
 9357 3193 01       		.uleb128 0x1
 9358 3194 30       		.byte	0x30
 9359 3195 15       		.uleb128 0x15
 9360 3196 01       		.uleb128 0x1
 9361 3197 51       		.byte	0x51
 9362 3198 01       		.uleb128 0x1
 9363 3199 46       		.byte	0x46
 9364 319a 15       		.uleb128 0x15
 9365 319b 01       		.uleb128 0x1
 9366 319c 50       		.byte	0x50
 9367 319d 01       		.uleb128 0x1
 9368 319e 3F       		.byte	0x3f
 9369 319f 15       		.uleb128 0x15
 9370 31a0 02       		.uleb128 0x2
 9371 31a1 7D       		.byte	0x7d
 9372 31a2 00       		.sleb128 0
 9373 31a3 01       		.uleb128 0x1
 9374 31a4 30       		.byte	0x30
 9375 31a5 00       		.byte	0
 9376 31a6 1A       		.uleb128 0x1a
 9377 31a7 7E000000 		.4byte	.LVL299
 9378 31ab 9B330000 		.4byte	0x339b
 9379 31af B9310000 		.4byte	0x31b9
 9380 31b3 15       		.uleb128 0x15
 9381 31b4 01       		.uleb128 0x1
 9382 31b5 50       		.byte	0x50
 9383 31b6 01       		.uleb128 0x1
ARM GAS  C:\Users\AHMED~1.ELE\AppData\Local\Temp\ccGujCBB.s 			page 184


 9384 31b7 3D       		.byte	0x3d
 9385 31b8 00       		.byte	0
 9386 31b9 19       		.uleb128 0x19
 9387 31ba 8A000000 		.4byte	.LVL300
 9388 31be 67160000 		.4byte	0x1667
 9389 31c2 1A       		.uleb128 0x1a
 9390 31c3 94000000 		.4byte	.LVL301
 9391 31c7 68350000 		.4byte	0x3568
 9392 31cb E0310000 		.4byte	0x31e0
 9393 31cf 15       		.uleb128 0x15
 9394 31d0 01       		.uleb128 0x1
 9395 31d1 52       		.byte	0x52
 9396 31d2 02       		.uleb128 0x2
 9397 31d3 91       		.byte	0x91
 9398 31d4 54       		.sleb128 -44
 9399 31d5 15       		.uleb128 0x15
 9400 31d6 01       		.uleb128 0x1
 9401 31d7 51       		.byte	0x51
 9402 31d8 01       		.uleb128 0x1
 9403 31d9 33       		.byte	0x33
 9404 31da 15       		.uleb128 0x15
 9405 31db 01       		.uleb128 0x1
 9406 31dc 50       		.byte	0x50
 9407 31dd 01       		.uleb128 0x1
 9408 31de 43       		.byte	0x43
 9409 31df 00       		.byte	0
 9410 31e0 1B       		.uleb128 0x1b
 9411 31e1 D4000000 		.4byte	.LVL307
 9412 31e5 9B330000 		.4byte	0x339b
 9413 31e9 15       		.uleb128 0x15
 9414 31ea 01       		.uleb128 0x1
 9415 31eb 50       		.byte	0x50
 9416 31ec 01       		.uleb128 0x1
 9417 31ed 3D       		.byte	0x3d
 9418 31ee 00       		.byte	0
 9419 31ef 00       		.byte	0
 9420 31f0 1E       		.uleb128 0x1e
 9421 31f1 20150000 		.4byte	.LASF875
 9422 31f5 01       		.byte	0x1
 9423 31f6 7903     		.2byte	0x379
 9424 31f8 00000000 		.4byte	.LFB32
 9425 31fc 94000000 		.4byte	.LFE32-.LFB32
 9426 3200 01       		.uleb128 0x1
 9427 3201 9C       		.byte	0x9c
 9428 3202 B9320000 		.4byte	0x32b9
 9429 3206 26       		.uleb128 0x26
 9430 3207 3B190000 		.4byte	.LASF860
 9431 320b 01       		.byte	0x1
 9432 320c 7C03     		.2byte	0x37c
 9433 320e C5000000 		.4byte	0xc5
 9434 3212 AB0D0000 		.4byte	.LLST91
 9435 3216 1A       		.uleb128 0x1a
 9436 3217 1A000000 		.4byte	.LVL309
 9437 321b 92350000 		.4byte	0x3592
 9438 321f 2A320000 		.4byte	0x322a
 9439 3223 15       		.uleb128 0x15
 9440 3224 01       		.uleb128 0x1
ARM GAS  C:\Users\AHMED~1.ELE\AppData\Local\Temp\ccGujCBB.s 			page 185


 9441 3225 50       		.byte	0x50
 9442 3226 02       		.uleb128 0x2
 9443 3227 08       		.byte	0x8
 9444 3228 40       		.byte	0x40
 9445 3229 00       		.byte	0
 9446 322a 1A       		.uleb128 0x1a
 9447 322b 26000000 		.4byte	.LVL310
 9448 322f 4E350000 		.4byte	0x354e
 9449 3233 43320000 		.4byte	0x3243
 9450 3237 15       		.uleb128 0x15
 9451 3238 01       		.uleb128 0x1
 9452 3239 51       		.byte	0x51
 9453 323a 01       		.uleb128 0x1
 9454 323b 30       		.byte	0x30
 9455 323c 15       		.uleb128 0x15
 9456 323d 01       		.uleb128 0x1
 9457 323e 50       		.byte	0x50
 9458 323f 02       		.uleb128 0x2
 9459 3240 08       		.byte	0x8
 9460 3241 42       		.byte	0x42
 9461 3242 00       		.byte	0
 9462 3243 19       		.uleb128 0x19
 9463 3244 36000000 		.4byte	.LVL312
 9464 3248 27210000 		.4byte	0x2127
 9465 324c 1A       		.uleb128 0x1a
 9466 324d 44000000 		.4byte	.LVL313
 9467 3251 92350000 		.4byte	0x3592
 9468 3255 60320000 		.4byte	0x3260
 9469 3259 15       		.uleb128 0x15
 9470 325a 01       		.uleb128 0x1
 9471 325b 50       		.byte	0x50
 9472 325c 02       		.uleb128 0x2
 9473 325d 08       		.byte	0x8
 9474 325e 41       		.byte	0x41
 9475 325f 00       		.byte	0
 9476 3260 19       		.uleb128 0x19
 9477 3261 4C000000 		.4byte	.LVL314
 9478 3265 FB200000 		.4byte	0x20fb
 9479 3269 1A       		.uleb128 0x1a
 9480 326a 58000000 		.4byte	.LVL315
 9481 326e 4E350000 		.4byte	0x354e
 9482 3272 82320000 		.4byte	0x3282
 9483 3276 15       		.uleb128 0x15
 9484 3277 01       		.uleb128 0x1
 9485 3278 51       		.byte	0x51
 9486 3279 01       		.uleb128 0x1
 9487 327a 30       		.byte	0x30
 9488 327b 15       		.uleb128 0x15
 9489 327c 01       		.uleb128 0x1
 9490 327d 50       		.byte	0x50
 9491 327e 02       		.uleb128 0x2
 9492 327f 08       		.byte	0x8
 9493 3280 42       		.byte	0x42
 9494 3281 00       		.byte	0
 9495 3282 1A       		.uleb128 0x1a
 9496 3283 62000000 		.4byte	.LVL317
 9497 3287 92350000 		.4byte	0x3592
ARM GAS  C:\Users\AHMED~1.ELE\AppData\Local\Temp\ccGujCBB.s 			page 186


 9498 328b 96320000 		.4byte	0x3296
 9499 328f 15       		.uleb128 0x15
 9500 3290 01       		.uleb128 0x1
 9501 3291 50       		.byte	0x50
 9502 3292 02       		.uleb128 0x2
 9503 3293 08       		.byte	0x8
 9504 3294 41       		.byte	0x41
 9505 3295 00       		.byte	0
 9506 3296 19       		.uleb128 0x19
 9507 3297 6A000000 		.4byte	.LVL318
 9508 329b FB200000 		.4byte	0x20fb
 9509 329f 19       		.uleb128 0x19
 9510 32a0 78000000 		.4byte	.LVL319
 9511 32a4 27210000 		.4byte	0x2127
 9512 32a8 14       		.uleb128 0x14
 9513 32a9 8C000000 		.4byte	.LVL320
 9514 32ad 48330000 		.4byte	0x3348
 9515 32b1 15       		.uleb128 0x15
 9516 32b2 01       		.uleb128 0x1
 9517 32b3 50       		.byte	0x50
 9518 32b4 02       		.uleb128 0x2
 9519 32b5 08       		.byte	0x8
 9520 32b6 80       		.byte	0x80
 9521 32b7 00       		.byte	0
 9522 32b8 00       		.byte	0
 9523 32b9 09       		.uleb128 0x9
 9524 32ba AF000000 		.4byte	0xaf
 9525 32be CF320000 		.4byte	0x32cf
 9526 32c2 0A       		.uleb128 0xa
 9527 32c3 76000000 		.4byte	0x76
 9528 32c7 0C       		.byte	0xc
 9529 32c8 0A       		.uleb128 0xa
 9530 32c9 76000000 		.4byte	0x76
 9531 32cd 02       		.byte	0x2
 9532 32ce 00       		.byte	0
 9533 32cf 17       		.uleb128 0x17
 9534 32d0 CE310000 		.4byte	.LASF876
 9535 32d4 01       		.byte	0x1
 9536 32d5 3B       		.byte	0x3b
 9537 32d6 E0320000 		.4byte	0x32e0
 9538 32da 05       		.uleb128 0x5
 9539 32db 03       		.byte	0x3
 9540 32dc 00000000 		.4byte	KMonthText
 9541 32e0 07       		.uleb128 0x7
 9542 32e1 B9320000 		.4byte	0x32b9
 9543 32e5 20       		.uleb128 0x20
 9544 32e6 39170000 		.4byte	.LASF877
 9545 32ea 01       		.byte	0x1
 9546 32eb 7703     		.2byte	0x377
 9547 32ed C5000000 		.4byte	0xc5
 9548 32f1 05       		.uleb128 0x5
 9549 32f2 03       		.byte	0x3
 9550 32f3 00000000 		.4byte	gHpState
 9551 32f7 20       		.uleb128 0x20
 9552 32f8 03130000 		.4byte	.LASF878
 9553 32fc 01       		.byte	0x1
 9554 32fd 7803     		.2byte	0x378
ARM GAS  C:\Users\AHMED~1.ELE\AppData\Local\Temp\ccGujCBB.s 			page 187


 9555 32ff C5000000 		.4byte	0xc5
 9556 3303 05       		.uleb128 0x5
 9557 3304 03       		.byte	0x3
 9558 3305 04000000 		.4byte	gHotPlugCnt
 9559 3309 09       		.uleb128 0x9
 9560 330a 37000000 		.4byte	0x37
 9561 330e 19330000 		.4byte	0x3319
 9562 3312 0A       		.uleb128 0xa
 9563 3313 76000000 		.4byte	0x76
 9564 3317 05       		.byte	0x5
 9565 3318 00       		.byte	0
 9566 3319 29       		.uleb128 0x29
 9567 331a 100D0000 		.4byte	.LASF905
 9568 331e 08       		.byte	0x8
 9569 331f 3E       		.byte	0x3e
 9570 3320 09330000 		.4byte	0x3309
 9571 3324 2A       		.uleb128 0x2a
 9572 3325 D2210000 		.4byte	.LASF879
 9573 3329 04       		.byte	0x4
 9574 332a A4       		.byte	0xa4
 9575 332b C5000000 		.4byte	0xc5
 9576 332f 48330000 		.4byte	0x3348
 9577 3333 2B       		.uleb128 0x2b
 9578 3334 C5000000 		.4byte	0xc5
 9579 3338 2B       		.uleb128 0x2b
 9580 3339 C5000000 		.4byte	0xc5
 9581 333d 2B       		.uleb128 0x2b
 9582 333e C5000000 		.4byte	0xc5
 9583 3342 2B       		.uleb128 0x2b
 9584 3343 C5000000 		.4byte	0xc5
 9585 3347 00       		.byte	0
 9586 3348 2A       		.uleb128 0x2a
 9587 3349 B4210000 		.4byte	.LASF880
 9588 334d 04       		.byte	0x4
 9589 334e A1       		.byte	0xa1
 9590 334f C5000000 		.4byte	0xc5
 9591 3353 5D330000 		.4byte	0x335d
 9592 3357 2B       		.uleb128 0x2b
 9593 3358 C5000000 		.4byte	0xc5
 9594 335c 00       		.byte	0
 9595 335d 2A       		.uleb128 0x2a
 9596 335e 320E0000 		.4byte	.LASF881
 9597 3362 04       		.byte	0x4
 9598 3363 A0       		.byte	0xa0
 9599 3364 C5000000 		.4byte	0xc5
 9600 3368 86330000 		.4byte	0x3386
 9601 336c 2B       		.uleb128 0x2b
 9602 336d C5000000 		.4byte	0xc5
 9603 3371 2B       		.uleb128 0x2b
 9604 3372 C5000000 		.4byte	0xc5
 9605 3376 2B       		.uleb128 0x2b
 9606 3377 C5000000 		.4byte	0xc5
 9607 337b 2B       		.uleb128 0x2b
 9608 337c C5000000 		.4byte	0xc5
 9609 3380 2B       		.uleb128 0x2b
 9610 3381 C5000000 		.4byte	0xc5
 9611 3385 00       		.byte	0
ARM GAS  C:\Users\AHMED~1.ELE\AppData\Local\Temp\ccGujCBB.s 			page 188


 9612 3386 2A       		.uleb128 0x2a
 9613 3387 A2330000 		.4byte	.LASF882
 9614 338b 0A       		.byte	0xa
 9615 338c 21       		.byte	0x21
 9616 338d 25000000 		.4byte	0x25
 9617 3391 9B330000 		.4byte	0x339b
 9618 3395 2B       		.uleb128 0x2b
 9619 3396 92000000 		.4byte	0x92
 9620 339a 00       		.byte	0
 9621 339b 2A       		.uleb128 0x2a
 9622 339c BE210000 		.4byte	.LASF883
 9623 33a0 04       		.byte	0x4
 9624 33a1 A2       		.byte	0xa2
 9625 33a2 C5000000 		.4byte	0xc5
 9626 33a6 B5330000 		.4byte	0x33b5
 9627 33aa 2B       		.uleb128 0x2b
 9628 33ab C5000000 		.4byte	0xc5
 9629 33af 2B       		.uleb128 0x2b
 9630 33b0 C5000000 		.4byte	0xc5
 9631 33b4 00       		.byte	0
 9632 33b5 2C       		.uleb128 0x2c
 9633 33b6 08340000 		.4byte	.LASF885
 9634 33ba 7D000000 		.4byte	0x7d
 9635 33be D2330000 		.4byte	0x33d2
 9636 33c2 2B       		.uleb128 0x2b
 9637 33c3 7D000000 		.4byte	0x7d
 9638 33c7 2B       		.uleb128 0x2b
 9639 33c8 9D000000 		.4byte	0x9d
 9640 33cc 2B       		.uleb128 0x2b
 9641 33cd 76000000 		.4byte	0x76
 9642 33d1 00       		.byte	0
 9643 33d2 2A       		.uleb128 0x2a
 9644 33d3 C8210000 		.4byte	.LASF884
 9645 33d7 04       		.byte	0x4
 9646 33d8 A3       		.byte	0xa3
 9647 33d9 C5000000 		.4byte	0xc5
 9648 33dd F1330000 		.4byte	0x33f1
 9649 33e1 2B       		.uleb128 0x2b
 9650 33e2 C5000000 		.4byte	0xc5
 9651 33e6 2B       		.uleb128 0x2b
 9652 33e7 C5000000 		.4byte	0xc5
 9653 33eb 2B       		.uleb128 0x2b
 9654 33ec C5000000 		.4byte	0xc5
 9655 33f0 00       		.byte	0
 9656 33f1 2C       		.uleb128 0x2c
 9657 33f2 7F2C0000 		.4byte	.LASF886
 9658 33f6 7D000000 		.4byte	0x7d
 9659 33fa 0E340000 		.4byte	0x340e
 9660 33fe 2B       		.uleb128 0x2b
 9661 33ff 7D000000 		.4byte	0x7d
 9662 3403 2B       		.uleb128 0x2b
 9663 3404 37000000 		.4byte	0x37
 9664 3408 2B       		.uleb128 0x2b
 9665 3409 76000000 		.4byte	0x76
 9666 340d 00       		.byte	0
 9667 340e 2D       		.uleb128 0x2d
 9668 340f 3F360000 		.4byte	.LASF887
ARM GAS  C:\Users\AHMED~1.ELE\AppData\Local\Temp\ccGujCBB.s 			page 189


 9669 3413 0B       		.byte	0xb
 9670 3414 29       		.byte	0x29
 9671 3415 29340000 		.4byte	0x3429
 9672 3419 2B       		.uleb128 0x2b
 9673 341a DB000000 		.4byte	0xdb
 9674 341e 2B       		.uleb128 0x2b
 9675 341f DB000000 		.4byte	0xdb
 9676 3423 2B       		.uleb128 0x2b
 9677 3424 C5000000 		.4byte	0xc5
 9678 3428 00       		.byte	0
 9679 3429 2D       		.uleb128 0x2d
 9680 342a D6200000 		.4byte	.LASF888
 9681 342e 0B       		.byte	0xb
 9682 342f 28       		.byte	0x28
 9683 3430 44340000 		.4byte	0x3444
 9684 3434 2B       		.uleb128 0x2b
 9685 3435 DB000000 		.4byte	0xdb
 9686 3439 2B       		.uleb128 0x2b
 9687 343a DB000000 		.4byte	0xdb
 9688 343e 2B       		.uleb128 0x2b
 9689 343f C5000000 		.4byte	0xc5
 9690 3443 00       		.byte	0
 9691 3444 2A       		.uleb128 0x2a
 9692 3445 7F2C0000 		.4byte	.LASF886
 9693 3449 0A       		.byte	0xa
 9694 344a 19       		.byte	0x19
 9695 344b 7D000000 		.4byte	0x7d
 9696 344f 63340000 		.4byte	0x3463
 9697 3453 2B       		.uleb128 0x2b
 9698 3454 7D000000 		.4byte	0x7d
 9699 3458 2B       		.uleb128 0x2b
 9700 3459 37000000 		.4byte	0x37
 9701 345d 2B       		.uleb128 0x2b
 9702 345e 25000000 		.4byte	0x25
 9703 3462 00       		.byte	0
 9704 3463 2A       		.uleb128 0x2a
 9705 3464 1E240000 		.4byte	.LASF889
 9706 3468 0B       		.byte	0xb
 9707 3469 4A       		.byte	0x4a
 9708 346a C5000000 		.4byte	0xc5
 9709 346e 78340000 		.4byte	0x3478
 9710 3472 2B       		.uleb128 0x2b
 9711 3473 C5000000 		.4byte	0xc5
 9712 3477 00       		.byte	0
 9713 3478 2A       		.uleb128 0x2a
 9714 3479 77090000 		.4byte	.LASF890
 9715 347d 0A       		.byte	0xa
 9716 347e 18       		.byte	0x18
 9717 347f 7D000000 		.4byte	0x7d
 9718 3483 97340000 		.4byte	0x3497
 9719 3487 2B       		.uleb128 0x2b
 9720 3488 7D000000 		.4byte	0x7d
 9721 348c 2B       		.uleb128 0x2b
 9722 348d 9D000000 		.4byte	0x9d
 9723 3491 2B       		.uleb128 0x2b
 9724 3492 25000000 		.4byte	0x25
 9725 3496 00       		.byte	0
ARM GAS  C:\Users\AHMED~1.ELE\AppData\Local\Temp\ccGujCBB.s 			page 190


 9726 3497 2A       		.uleb128 0x2a
 9727 3498 8B100000 		.4byte	.LASF891
 9728 349c 0B       		.byte	0xb
 9729 349d 4D       		.byte	0x4d
 9730 349e C5000000 		.4byte	0xc5
 9731 34a2 B6340000 		.4byte	0x34b6
 9732 34a6 2B       		.uleb128 0x2b
 9733 34a7 DB000000 		.4byte	0xdb
 9734 34ab 2B       		.uleb128 0x2b
 9735 34ac DB000000 		.4byte	0xdb
 9736 34b0 2B       		.uleb128 0x2b
 9737 34b1 C5000000 		.4byte	0xc5
 9738 34b5 00       		.byte	0
 9739 34b6 2A       		.uleb128 0x2a
 9740 34b7 5E120000 		.4byte	.LASF892
 9741 34bb 0B       		.byte	0xb
 9742 34bc 4C       		.byte	0x4c
 9743 34bd C5000000 		.4byte	0xc5
 9744 34c1 D5340000 		.4byte	0x34d5
 9745 34c5 2B       		.uleb128 0x2b
 9746 34c6 DB000000 		.4byte	0xdb
 9747 34ca 2B       		.uleb128 0x2b
 9748 34cb DB000000 		.4byte	0xdb
 9749 34cf 2B       		.uleb128 0x2b
 9750 34d0 C5000000 		.4byte	0xc5
 9751 34d4 00       		.byte	0
 9752 34d5 2A       		.uleb128 0x2a
 9753 34d6 B52E0000 		.4byte	.LASF893
 9754 34da 0C       		.byte	0xc
 9755 34db DD       		.byte	0xdd
 9756 34dc 37000000 		.4byte	0x37
 9757 34e0 F0340000 		.4byte	0x34f0
 9758 34e4 2B       		.uleb128 0x2b
 9759 34e5 85000000 		.4byte	0x85
 9760 34e9 2B       		.uleb128 0x2b
 9761 34ea 92000000 		.4byte	0x92
 9762 34ee 2E       		.uleb128 0x2e
 9763 34ef 00       		.byte	0
 9764 34f0 2A       		.uleb128 0x2a
 9765 34f1 72110000 		.4byte	.LASF894
 9766 34f5 0D       		.byte	0xd
 9767 34f6 39       		.byte	0x39
 9768 34f7 C5000000 		.4byte	0xc5
 9769 34fb 05350000 		.4byte	0x3505
 9770 34ff 2B       		.uleb128 0x2b
 9771 3500 C5000000 		.4byte	0xc5
 9772 3504 00       		.byte	0
 9773 3505 2A       		.uleb128 0x2a
 9774 3506 F0300000 		.4byte	.LASF895
 9775 350a 0D       		.byte	0xd
 9776 350b 5D       		.byte	0x5d
 9777 350c A4000000 		.4byte	0xa4
 9778 3510 24350000 		.4byte	0x3524
 9779 3514 2B       		.uleb128 0x2b
 9780 3515 C5000000 		.4byte	0xc5
 9781 3519 2B       		.uleb128 0x2b
 9782 351a C5000000 		.4byte	0xc5
ARM GAS  C:\Users\AHMED~1.ELE\AppData\Local\Temp\ccGujCBB.s 			page 191


 9783 351e 2B       		.uleb128 0x2b
 9784 351f DB000000 		.4byte	0xdb
 9785 3523 00       		.byte	0
 9786 3524 2A       		.uleb128 0x2a
 9787 3525 29080000 		.4byte	.LASF896
 9788 3529 0E       		.byte	0xe
 9789 352a 49       		.byte	0x49
 9790 352b 37000000 		.4byte	0x37
 9791 352f 39350000 		.4byte	0x3539
 9792 3533 2B       		.uleb128 0x2b
 9793 3534 92000000 		.4byte	0x92
 9794 3538 00       		.byte	0
 9795 3539 2A       		.uleb128 0x2a
 9796 353a 04380000 		.4byte	.LASF897
 9797 353e 0B       		.byte	0xb
 9798 353f 63       		.byte	0x63
 9799 3540 C5000000 		.4byte	0xc5
 9800 3544 4E350000 		.4byte	0x354e
 9801 3548 2B       		.uleb128 0x2b
 9802 3549 7D000000 		.4byte	0x7d
 9803 354d 00       		.byte	0
 9804 354e 2A       		.uleb128 0x2a
 9805 354f DD2D0000 		.4byte	.LASF898
 9806 3553 05       		.byte	0x5
 9807 3554 14       		.byte	0x14
 9808 3555 C5000000 		.4byte	0xc5
 9809 3559 68350000 		.4byte	0x3568
 9810 355d 2B       		.uleb128 0x2b
 9811 355e C5000000 		.4byte	0xc5
 9812 3562 2B       		.uleb128 0x2b
 9813 3563 C5000000 		.4byte	0xc5
 9814 3567 00       		.byte	0
 9815 3568 2A       		.uleb128 0x2a
 9816 3569 E82D0000 		.4byte	.LASF899
 9817 356d 05       		.byte	0x5
 9818 356e 15       		.byte	0x15
 9819 356f C5000000 		.4byte	0xc5
 9820 3573 87350000 		.4byte	0x3587
 9821 3577 2B       		.uleb128 0x2b
 9822 3578 C5000000 		.4byte	0xc5
 9823 357c 2B       		.uleb128 0x2b
 9824 357d C5000000 		.4byte	0xc5
 9825 3581 2B       		.uleb128 0x2b
 9826 3582 C5000000 		.4byte	0xc5
 9827 3586 00       		.byte	0
 9828 3587 2F       		.uleb128 0x2f
 9829 3588 82260000 		.4byte	.LASF906
 9830 358c 0F       		.byte	0xf
 9831 358d 21       		.byte	0x21
 9832 358e C5000000 		.4byte	0xc5
 9833 3592 30       		.uleb128 0x30
 9834 3593 D22D0000 		.4byte	.LASF900
 9835 3597 05       		.byte	0x5
 9836 3598 13       		.byte	0x13
 9837 3599 C5000000 		.4byte	0xc5
 9838 359d 2B       		.uleb128 0x2b
 9839 359e C5000000 		.4byte	0xc5
ARM GAS  C:\Users\AHMED~1.ELE\AppData\Local\Temp\ccGujCBB.s 			page 192


 9840 35a2 00       		.byte	0
 9841 35a3 00       		.byte	0
 9842              		.section	.debug_abbrev,"",%progbits
 9843              	.Ldebug_abbrev0:
 9844 0000 01       		.uleb128 0x1
 9845 0001 11       		.uleb128 0x11
 9846 0002 01       		.byte	0x1
 9847 0003 25       		.uleb128 0x25
 9848 0004 0E       		.uleb128 0xe
 9849 0005 13       		.uleb128 0x13
 9850 0006 0B       		.uleb128 0xb
 9851 0007 03       		.uleb128 0x3
 9852 0008 0E       		.uleb128 0xe
 9853 0009 1B       		.uleb128 0x1b
 9854 000a 0E       		.uleb128 0xe
 9855 000b 55       		.uleb128 0x55
 9856 000c 17       		.uleb128 0x17
 9857 000d 11       		.uleb128 0x11
 9858 000e 01       		.uleb128 0x1
 9859 000f 10       		.uleb128 0x10
 9860 0010 17       		.uleb128 0x17
 9861 0011 00       		.byte	0
 9862 0012 00       		.byte	0
 9863 0013 02       		.uleb128 0x2
 9864 0014 16       		.uleb128 0x16
 9865 0015 00       		.byte	0
 9866 0016 03       		.uleb128 0x3
 9867 0017 0E       		.uleb128 0xe
 9868 0018 3A       		.uleb128 0x3a
 9869 0019 0B       		.uleb128 0xb
 9870 001a 3B       		.uleb128 0x3b
 9871 001b 0B       		.uleb128 0xb
 9872 001c 49       		.uleb128 0x49
 9873 001d 13       		.uleb128 0x13
 9874 001e 00       		.byte	0
 9875 001f 00       		.byte	0
 9876 0020 03       		.uleb128 0x3
 9877 0021 24       		.uleb128 0x24
 9878 0022 00       		.byte	0
 9879 0023 0B       		.uleb128 0xb
 9880 0024 0B       		.uleb128 0xb
 9881 0025 3E       		.uleb128 0x3e
 9882 0026 0B       		.uleb128 0xb
 9883 0027 03       		.uleb128 0x3
 9884 0028 0E       		.uleb128 0xe
 9885 0029 00       		.byte	0
 9886 002a 00       		.byte	0
 9887 002b 04       		.uleb128 0x4
 9888 002c 24       		.uleb128 0x24
 9889 002d 00       		.byte	0
 9890 002e 0B       		.uleb128 0xb
 9891 002f 0B       		.uleb128 0xb
 9892 0030 3E       		.uleb128 0x3e
 9893 0031 0B       		.uleb128 0xb
 9894 0032 03       		.uleb128 0x3
 9895 0033 08       		.uleb128 0x8
 9896 0034 00       		.byte	0
ARM GAS  C:\Users\AHMED~1.ELE\AppData\Local\Temp\ccGujCBB.s 			page 193


 9897 0035 00       		.byte	0
 9898 0036 05       		.uleb128 0x5
 9899 0037 0F       		.uleb128 0xf
 9900 0038 00       		.byte	0
 9901 0039 0B       		.uleb128 0xb
 9902 003a 0B       		.uleb128 0xb
 9903 003b 00       		.byte	0
 9904 003c 00       		.byte	0
 9905 003d 06       		.uleb128 0x6
 9906 003e 0F       		.uleb128 0xf
 9907 003f 00       		.byte	0
 9908 0040 0B       		.uleb128 0xb
 9909 0041 0B       		.uleb128 0xb
 9910 0042 49       		.uleb128 0x49
 9911 0043 13       		.uleb128 0x13
 9912 0044 00       		.byte	0
 9913 0045 00       		.byte	0
 9914 0046 07       		.uleb128 0x7
 9915 0047 26       		.uleb128 0x26
 9916 0048 00       		.byte	0
 9917 0049 49       		.uleb128 0x49
 9918 004a 13       		.uleb128 0x13
 9919 004b 00       		.byte	0
 9920 004c 00       		.byte	0
 9921 004d 08       		.uleb128 0x8
 9922 004e 26       		.uleb128 0x26
 9923 004f 00       		.byte	0
 9924 0050 00       		.byte	0
 9925 0051 00       		.byte	0
 9926 0052 09       		.uleb128 0x9
 9927 0053 01       		.uleb128 0x1
 9928 0054 01       		.byte	0x1
 9929 0055 49       		.uleb128 0x49
 9930 0056 13       		.uleb128 0x13
 9931 0057 01       		.uleb128 0x1
 9932 0058 13       		.uleb128 0x13
 9933 0059 00       		.byte	0
 9934 005a 00       		.byte	0
 9935 005b 0A       		.uleb128 0xa
 9936 005c 21       		.uleb128 0x21
 9937 005d 00       		.byte	0
 9938 005e 49       		.uleb128 0x49
 9939 005f 13       		.uleb128 0x13
 9940 0060 2F       		.uleb128 0x2f
 9941 0061 0B       		.uleb128 0xb
 9942 0062 00       		.byte	0
 9943 0063 00       		.byte	0
 9944 0064 0B       		.uleb128 0xb
 9945 0065 04       		.uleb128 0x4
 9946 0066 01       		.byte	0x1
 9947 0067 03       		.uleb128 0x3
 9948 0068 0E       		.uleb128 0xe
 9949 0069 0B       		.uleb128 0xb
 9950 006a 0B       		.uleb128 0xb
 9951 006b 3A       		.uleb128 0x3a
 9952 006c 0B       		.uleb128 0xb
 9953 006d 3B       		.uleb128 0x3b
ARM GAS  C:\Users\AHMED~1.ELE\AppData\Local\Temp\ccGujCBB.s 			page 194


 9954 006e 05       		.uleb128 0x5
 9955 006f 01       		.uleb128 0x1
 9956 0070 13       		.uleb128 0x13
 9957 0071 00       		.byte	0
 9958 0072 00       		.byte	0
 9959 0073 0C       		.uleb128 0xc
 9960 0074 28       		.uleb128 0x28
 9961 0075 00       		.byte	0
 9962 0076 03       		.uleb128 0x3
 9963 0077 0E       		.uleb128 0xe
 9964 0078 1C       		.uleb128 0x1c
 9965 0079 0D       		.uleb128 0xd
 9966 007a 00       		.byte	0
 9967 007b 00       		.byte	0
 9968 007c 0D       		.uleb128 0xd
 9969 007d 04       		.uleb128 0x4
 9970 007e 01       		.byte	0x1
 9971 007f 0B       		.uleb128 0xb
 9972 0080 0B       		.uleb128 0xb
 9973 0081 3A       		.uleb128 0x3a
 9974 0082 0B       		.uleb128 0xb
 9975 0083 3B       		.uleb128 0x3b
 9976 0084 05       		.uleb128 0x5
 9977 0085 01       		.uleb128 0x1
 9978 0086 13       		.uleb128 0x13
 9979 0087 00       		.byte	0
 9980 0088 00       		.byte	0
 9981 0089 0E       		.uleb128 0xe
 9982 008a 13       		.uleb128 0x13
 9983 008b 01       		.byte	0x1
 9984 008c 03       		.uleb128 0x3
 9985 008d 0E       		.uleb128 0xe
 9986 008e 0B       		.uleb128 0xb
 9987 008f 0B       		.uleb128 0xb
 9988 0090 3A       		.uleb128 0x3a
 9989 0091 0B       		.uleb128 0xb
 9990 0092 3B       		.uleb128 0x3b
 9991 0093 05       		.uleb128 0x5
 9992 0094 01       		.uleb128 0x1
 9993 0095 13       		.uleb128 0x13
 9994 0096 00       		.byte	0
 9995 0097 00       		.byte	0
 9996 0098 0F       		.uleb128 0xf
 9997 0099 0D       		.uleb128 0xd
 9998 009a 00       		.byte	0
 9999 009b 03       		.uleb128 0x3
 10000 009c 0E       		.uleb128 0xe
 10001 009d 3A       		.uleb128 0x3a
 10002 009e 0B       		.uleb128 0xb
 10003 009f 3B       		.uleb128 0x3b
 10004 00a0 05       		.uleb128 0x5
 10005 00a1 49       		.uleb128 0x49
 10006 00a2 13       		.uleb128 0x13
 10007 00a3 38       		.uleb128 0x38
 10008 00a4 0B       		.uleb128 0xb
 10009 00a5 00       		.byte	0
 10010 00a6 00       		.byte	0
ARM GAS  C:\Users\AHMED~1.ELE\AppData\Local\Temp\ccGujCBB.s 			page 195


 10011 00a7 10       		.uleb128 0x10
 10012 00a8 04       		.uleb128 0x4
 10013 00a9 01       		.byte	0x1
 10014 00aa 0B       		.uleb128 0xb
 10015 00ab 0B       		.uleb128 0xb
 10016 00ac 3A       		.uleb128 0x3a
 10017 00ad 0B       		.uleb128 0xb
 10018 00ae 3B       		.uleb128 0x3b
 10019 00af 0B       		.uleb128 0xb
 10020 00b0 01       		.uleb128 0x1
 10021 00b1 13       		.uleb128 0x13
 10022 00b2 00       		.byte	0
 10023 00b3 00       		.byte	0
 10024 00b4 11       		.uleb128 0x11
 10025 00b5 13       		.uleb128 0x13
 10026 00b6 01       		.byte	0x1
 10027 00b7 03       		.uleb128 0x3
 10028 00b8 0E       		.uleb128 0xe
 10029 00b9 0B       		.uleb128 0xb
 10030 00ba 0B       		.uleb128 0xb
 10031 00bb 3A       		.uleb128 0x3a
 10032 00bc 0B       		.uleb128 0xb
 10033 00bd 3B       		.uleb128 0x3b
 10034 00be 0B       		.uleb128 0xb
 10035 00bf 01       		.uleb128 0x1
 10036 00c0 13       		.uleb128 0x13
 10037 00c1 00       		.byte	0
 10038 00c2 00       		.byte	0
 10039 00c3 12       		.uleb128 0x12
 10040 00c4 0D       		.uleb128 0xd
 10041 00c5 00       		.byte	0
 10042 00c6 03       		.uleb128 0x3
 10043 00c7 0E       		.uleb128 0xe
 10044 00c8 3A       		.uleb128 0x3a
 10045 00c9 0B       		.uleb128 0xb
 10046 00ca 3B       		.uleb128 0x3b
 10047 00cb 0B       		.uleb128 0xb
 10048 00cc 49       		.uleb128 0x49
 10049 00cd 13       		.uleb128 0x13
 10050 00ce 38       		.uleb128 0x38
 10051 00cf 0B       		.uleb128 0xb
 10052 00d0 00       		.byte	0
 10053 00d1 00       		.byte	0
 10054 00d2 13       		.uleb128 0x13
 10055 00d3 2E       		.uleb128 0x2e
 10056 00d4 01       		.byte	0x1
 10057 00d5 3F       		.uleb128 0x3f
 10058 00d6 19       		.uleb128 0x19
 10059 00d7 03       		.uleb128 0x3
 10060 00d8 0E       		.uleb128 0xe
 10061 00d9 3A       		.uleb128 0x3a
 10062 00da 0B       		.uleb128 0xb
 10063 00db 3B       		.uleb128 0x3b
 10064 00dc 0B       		.uleb128 0xb
 10065 00dd 27       		.uleb128 0x27
 10066 00de 19       		.uleb128 0x19
 10067 00df 11       		.uleb128 0x11
ARM GAS  C:\Users\AHMED~1.ELE\AppData\Local\Temp\ccGujCBB.s 			page 196


 10068 00e0 01       		.uleb128 0x1
 10069 00e1 12       		.uleb128 0x12
 10070 00e2 06       		.uleb128 0x6
 10071 00e3 40       		.uleb128 0x40
 10072 00e4 18       		.uleb128 0x18
 10073 00e5 9742     		.uleb128 0x2117
 10074 00e7 19       		.uleb128 0x19
 10075 00e8 01       		.uleb128 0x1
 10076 00e9 13       		.uleb128 0x13
 10077 00ea 00       		.byte	0
 10078 00eb 00       		.byte	0
 10079 00ec 14       		.uleb128 0x14
 10080 00ed 898201   		.uleb128 0x4109
 10081 00f0 01       		.byte	0x1
 10082 00f1 11       		.uleb128 0x11
 10083 00f2 01       		.uleb128 0x1
 10084 00f3 9542     		.uleb128 0x2115
 10085 00f5 19       		.uleb128 0x19
 10086 00f6 31       		.uleb128 0x31
 10087 00f7 13       		.uleb128 0x13
 10088 00f8 00       		.byte	0
 10089 00f9 00       		.byte	0
 10090 00fa 15       		.uleb128 0x15
 10091 00fb 8A8201   		.uleb128 0x410a
 10092 00fe 00       		.byte	0
 10093 00ff 02       		.uleb128 0x2
 10094 0100 18       		.uleb128 0x18
 10095 0101 9142     		.uleb128 0x2111
 10096 0103 18       		.uleb128 0x18
 10097 0104 00       		.byte	0
 10098 0105 00       		.byte	0
 10099 0106 16       		.uleb128 0x16
 10100 0107 05       		.uleb128 0x5
 10101 0108 00       		.byte	0
 10102 0109 03       		.uleb128 0x3
 10103 010a 0E       		.uleb128 0xe
 10104 010b 3A       		.uleb128 0x3a
 10105 010c 0B       		.uleb128 0xb
 10106 010d 3B       		.uleb128 0x3b
 10107 010e 0B       		.uleb128 0xb
 10108 010f 49       		.uleb128 0x49
 10109 0110 13       		.uleb128 0x13
 10110 0111 02       		.uleb128 0x2
 10111 0112 17       		.uleb128 0x17
 10112 0113 00       		.byte	0
 10113 0114 00       		.byte	0
 10114 0115 17       		.uleb128 0x17
 10115 0116 34       		.uleb128 0x34
 10116 0117 00       		.byte	0
 10117 0118 03       		.uleb128 0x3
 10118 0119 0E       		.uleb128 0xe
 10119 011a 3A       		.uleb128 0x3a
 10120 011b 0B       		.uleb128 0xb
 10121 011c 3B       		.uleb128 0x3b
 10122 011d 0B       		.uleb128 0xb
 10123 011e 49       		.uleb128 0x49
 10124 011f 13       		.uleb128 0x13
ARM GAS  C:\Users\AHMED~1.ELE\AppData\Local\Temp\ccGujCBB.s 			page 197


 10125 0120 02       		.uleb128 0x2
 10126 0121 18       		.uleb128 0x18
 10127 0122 00       		.byte	0
 10128 0123 00       		.byte	0
 10129 0124 18       		.uleb128 0x18
 10130 0125 34       		.uleb128 0x34
 10131 0126 00       		.byte	0
 10132 0127 03       		.uleb128 0x3
 10133 0128 0E       		.uleb128 0xe
 10134 0129 3A       		.uleb128 0x3a
 10135 012a 0B       		.uleb128 0xb
 10136 012b 3B       		.uleb128 0x3b
 10137 012c 0B       		.uleb128 0xb
 10138 012d 49       		.uleb128 0x49
 10139 012e 13       		.uleb128 0x13
 10140 012f 02       		.uleb128 0x2
 10141 0130 17       		.uleb128 0x17
 10142 0131 00       		.byte	0
 10143 0132 00       		.byte	0
 10144 0133 19       		.uleb128 0x19
 10145 0134 898201   		.uleb128 0x4109
 10146 0137 00       		.byte	0
 10147 0138 11       		.uleb128 0x11
 10148 0139 01       		.uleb128 0x1
 10149 013a 31       		.uleb128 0x31
 10150 013b 13       		.uleb128 0x13
 10151 013c 00       		.byte	0
 10152 013d 00       		.byte	0
 10153 013e 1A       		.uleb128 0x1a
 10154 013f 898201   		.uleb128 0x4109
 10155 0142 01       		.byte	0x1
 10156 0143 11       		.uleb128 0x11
 10157 0144 01       		.uleb128 0x1
 10158 0145 31       		.uleb128 0x31
 10159 0146 13       		.uleb128 0x13
 10160 0147 01       		.uleb128 0x1
 10161 0148 13       		.uleb128 0x13
 10162 0149 00       		.byte	0
 10163 014a 00       		.byte	0
 10164 014b 1B       		.uleb128 0x1b
 10165 014c 898201   		.uleb128 0x4109
 10166 014f 01       		.byte	0x1
 10167 0150 11       		.uleb128 0x11
 10168 0151 01       		.uleb128 0x1
 10169 0152 31       		.uleb128 0x31
 10170 0153 13       		.uleb128 0x13
 10171 0154 00       		.byte	0
 10172 0155 00       		.byte	0
 10173 0156 1C       		.uleb128 0x1c
 10174 0157 0B       		.uleb128 0xb
 10175 0158 01       		.byte	0x1
 10176 0159 55       		.uleb128 0x55
 10177 015a 17       		.uleb128 0x17
 10178 015b 00       		.byte	0
 10179 015c 00       		.byte	0
 10180 015d 1D       		.uleb128 0x1d
 10181 015e 34       		.uleb128 0x34
ARM GAS  C:\Users\AHMED~1.ELE\AppData\Local\Temp\ccGujCBB.s 			page 198


 10182 015f 00       		.byte	0
 10183 0160 03       		.uleb128 0x3
 10184 0161 08       		.uleb128 0x8
 10185 0162 3A       		.uleb128 0x3a
 10186 0163 0B       		.uleb128 0xb
 10187 0164 3B       		.uleb128 0x3b
 10188 0165 0B       		.uleb128 0xb
 10189 0166 49       		.uleb128 0x49
 10190 0167 13       		.uleb128 0x13
 10191 0168 02       		.uleb128 0x2
 10192 0169 17       		.uleb128 0x17
 10193 016a 00       		.byte	0
 10194 016b 00       		.byte	0
 10195 016c 1E       		.uleb128 0x1e
 10196 016d 2E       		.uleb128 0x2e
 10197 016e 01       		.byte	0x1
 10198 016f 3F       		.uleb128 0x3f
 10199 0170 19       		.uleb128 0x19
 10200 0171 03       		.uleb128 0x3
 10201 0172 0E       		.uleb128 0xe
 10202 0173 3A       		.uleb128 0x3a
 10203 0174 0B       		.uleb128 0xb
 10204 0175 3B       		.uleb128 0x3b
 10205 0176 05       		.uleb128 0x5
 10206 0177 27       		.uleb128 0x27
 10207 0178 19       		.uleb128 0x19
 10208 0179 11       		.uleb128 0x11
 10209 017a 01       		.uleb128 0x1
 10210 017b 12       		.uleb128 0x12
 10211 017c 06       		.uleb128 0x6
 10212 017d 40       		.uleb128 0x40
 10213 017e 18       		.uleb128 0x18
 10214 017f 9742     		.uleb128 0x2117
 10215 0181 19       		.uleb128 0x19
 10216 0182 01       		.uleb128 0x1
 10217 0183 13       		.uleb128 0x13
 10218 0184 00       		.byte	0
 10219 0185 00       		.byte	0
 10220 0186 1F       		.uleb128 0x1f
 10221 0187 05       		.uleb128 0x5
 10222 0188 00       		.byte	0
 10223 0189 03       		.uleb128 0x3
 10224 018a 0E       		.uleb128 0xe
 10225 018b 3A       		.uleb128 0x3a
 10226 018c 0B       		.uleb128 0xb
 10227 018d 3B       		.uleb128 0x3b
 10228 018e 05       		.uleb128 0x5
 10229 018f 49       		.uleb128 0x49
 10230 0190 13       		.uleb128 0x13
 10231 0191 02       		.uleb128 0x2
 10232 0192 17       		.uleb128 0x17
 10233 0193 00       		.byte	0
 10234 0194 00       		.byte	0
 10235 0195 20       		.uleb128 0x20
 10236 0196 34       		.uleb128 0x34
 10237 0197 00       		.byte	0
 10238 0198 03       		.uleb128 0x3
ARM GAS  C:\Users\AHMED~1.ELE\AppData\Local\Temp\ccGujCBB.s 			page 199


 10239 0199 0E       		.uleb128 0xe
 10240 019a 3A       		.uleb128 0x3a
 10241 019b 0B       		.uleb128 0xb
 10242 019c 3B       		.uleb128 0x3b
 10243 019d 05       		.uleb128 0x5
 10244 019e 49       		.uleb128 0x49
 10245 019f 13       		.uleb128 0x13
 10246 01a0 02       		.uleb128 0x2
 10247 01a1 18       		.uleb128 0x18
 10248 01a2 00       		.byte	0
 10249 01a3 00       		.byte	0
 10250 01a4 21       		.uleb128 0x21
 10251 01a5 0B       		.uleb128 0xb
 10252 01a6 01       		.byte	0x1
 10253 01a7 11       		.uleb128 0x11
 10254 01a8 01       		.uleb128 0x1
 10255 01a9 12       		.uleb128 0x12
 10256 01aa 06       		.uleb128 0x6
 10257 01ab 01       		.uleb128 0x1
 10258 01ac 13       		.uleb128 0x13
 10259 01ad 00       		.byte	0
 10260 01ae 00       		.byte	0
 10261 01af 22       		.uleb128 0x22
 10262 01b0 34       		.uleb128 0x34
 10263 01b1 00       		.byte	0
 10264 01b2 03       		.uleb128 0x3
 10265 01b3 08       		.uleb128 0x8
 10266 01b4 3A       		.uleb128 0x3a
 10267 01b5 0B       		.uleb128 0xb
 10268 01b6 3B       		.uleb128 0x3b
 10269 01b7 05       		.uleb128 0x5
 10270 01b8 49       		.uleb128 0x49
 10271 01b9 13       		.uleb128 0x13
 10272 01ba 02       		.uleb128 0x2
 10273 01bb 17       		.uleb128 0x17
 10274 01bc 00       		.byte	0
 10275 01bd 00       		.byte	0
 10276 01be 23       		.uleb128 0x23
 10277 01bf 0B       		.uleb128 0xb
 10278 01c0 01       		.byte	0x1
 10279 01c1 55       		.uleb128 0x55
 10280 01c2 17       		.uleb128 0x17
 10281 01c3 01       		.uleb128 0x1
 10282 01c4 13       		.uleb128 0x13
 10283 01c5 00       		.byte	0
 10284 01c6 00       		.byte	0
 10285 01c7 24       		.uleb128 0x24
 10286 01c8 2E       		.uleb128 0x2e
 10287 01c9 01       		.byte	0x1
 10288 01ca 3F       		.uleb128 0x3f
 10289 01cb 19       		.uleb128 0x19
 10290 01cc 03       		.uleb128 0x3
 10291 01cd 0E       		.uleb128 0xe
 10292 01ce 3A       		.uleb128 0x3a
 10293 01cf 0B       		.uleb128 0xb
 10294 01d0 3B       		.uleb128 0x3b
 10295 01d1 05       		.uleb128 0x5
ARM GAS  C:\Users\AHMED~1.ELE\AppData\Local\Temp\ccGujCBB.s 			page 200


 10296 01d2 27       		.uleb128 0x27
 10297 01d3 19       		.uleb128 0x19
 10298 01d4 49       		.uleb128 0x49
 10299 01d5 13       		.uleb128 0x13
 10300 01d6 11       		.uleb128 0x11
 10301 01d7 01       		.uleb128 0x1
 10302 01d8 12       		.uleb128 0x12
 10303 01d9 06       		.uleb128 0x6
 10304 01da 40       		.uleb128 0x40
 10305 01db 18       		.uleb128 0x18
 10306 01dc 9742     		.uleb128 0x2117
 10307 01de 19       		.uleb128 0x19
 10308 01df 01       		.uleb128 0x1
 10309 01e0 13       		.uleb128 0x13
 10310 01e1 00       		.byte	0
 10311 01e2 00       		.byte	0
 10312 01e3 25       		.uleb128 0x25
 10313 01e4 34       		.uleb128 0x34
 10314 01e5 00       		.byte	0
 10315 01e6 03       		.uleb128 0x3
 10316 01e7 08       		.uleb128 0x8
 10317 01e8 3A       		.uleb128 0x3a
 10318 01e9 0B       		.uleb128 0xb
 10319 01ea 3B       		.uleb128 0x3b
 10320 01eb 05       		.uleb128 0x5
 10321 01ec 49       		.uleb128 0x49
 10322 01ed 13       		.uleb128 0x13
 10323 01ee 02       		.uleb128 0x2
 10324 01ef 18       		.uleb128 0x18
 10325 01f0 00       		.byte	0
 10326 01f1 00       		.byte	0
 10327 01f2 26       		.uleb128 0x26
 10328 01f3 34       		.uleb128 0x34
 10329 01f4 00       		.byte	0
 10330 01f5 03       		.uleb128 0x3
 10331 01f6 0E       		.uleb128 0xe
 10332 01f7 3A       		.uleb128 0x3a
 10333 01f8 0B       		.uleb128 0xb
 10334 01f9 3B       		.uleb128 0x3b
 10335 01fa 05       		.uleb128 0x5
 10336 01fb 49       		.uleb128 0x49
 10337 01fc 13       		.uleb128 0x13
 10338 01fd 02       		.uleb128 0x2
 10339 01fe 17       		.uleb128 0x17
 10340 01ff 00       		.byte	0
 10341 0200 00       		.byte	0
 10342 0201 27       		.uleb128 0x27
 10343 0202 05       		.uleb128 0x5
 10344 0203 00       		.byte	0
 10345 0204 03       		.uleb128 0x3
 10346 0205 08       		.uleb128 0x8
 10347 0206 3A       		.uleb128 0x3a
 10348 0207 0B       		.uleb128 0xb
 10349 0208 3B       		.uleb128 0x3b
 10350 0209 05       		.uleb128 0x5
 10351 020a 49       		.uleb128 0x49
 10352 020b 13       		.uleb128 0x13
ARM GAS  C:\Users\AHMED~1.ELE\AppData\Local\Temp\ccGujCBB.s 			page 201


 10353 020c 02       		.uleb128 0x2
 10354 020d 17       		.uleb128 0x17
 10355 020e 00       		.byte	0
 10356 020f 00       		.byte	0
 10357 0210 28       		.uleb128 0x28
 10358 0211 34       		.uleb128 0x34
 10359 0212 00       		.byte	0
 10360 0213 03       		.uleb128 0x3
 10361 0214 08       		.uleb128 0x8
 10362 0215 3A       		.uleb128 0x3a
 10363 0216 0B       		.uleb128 0xb
 10364 0217 3B       		.uleb128 0x3b
 10365 0218 05       		.uleb128 0x5
 10366 0219 49       		.uleb128 0x49
 10367 021a 13       		.uleb128 0x13
 10368 021b 00       		.byte	0
 10369 021c 00       		.byte	0
 10370 021d 29       		.uleb128 0x29
 10371 021e 34       		.uleb128 0x34
 10372 021f 00       		.byte	0
 10373 0220 03       		.uleb128 0x3
 10374 0221 0E       		.uleb128 0xe
 10375 0222 3A       		.uleb128 0x3a
 10376 0223 0B       		.uleb128 0xb
 10377 0224 3B       		.uleb128 0x3b
 10378 0225 0B       		.uleb128 0xb
 10379 0226 49       		.uleb128 0x49
 10380 0227 13       		.uleb128 0x13
 10381 0228 3F       		.uleb128 0x3f
 10382 0229 19       		.uleb128 0x19
 10383 022a 3C       		.uleb128 0x3c
 10384 022b 19       		.uleb128 0x19
 10385 022c 00       		.byte	0
 10386 022d 00       		.byte	0
 10387 022e 2A       		.uleb128 0x2a
 10388 022f 2E       		.uleb128 0x2e
 10389 0230 01       		.byte	0x1
 10390 0231 3F       		.uleb128 0x3f
 10391 0232 19       		.uleb128 0x19
 10392 0233 03       		.uleb128 0x3
 10393 0234 0E       		.uleb128 0xe
 10394 0235 3A       		.uleb128 0x3a
 10395 0236 0B       		.uleb128 0xb
 10396 0237 3B       		.uleb128 0x3b
 10397 0238 0B       		.uleb128 0xb
 10398 0239 27       		.uleb128 0x27
 10399 023a 19       		.uleb128 0x19
 10400 023b 49       		.uleb128 0x49
 10401 023c 13       		.uleb128 0x13
 10402 023d 3C       		.uleb128 0x3c
 10403 023e 19       		.uleb128 0x19
 10404 023f 01       		.uleb128 0x1
 10405 0240 13       		.uleb128 0x13
 10406 0241 00       		.byte	0
 10407 0242 00       		.byte	0
 10408 0243 2B       		.uleb128 0x2b
 10409 0244 05       		.uleb128 0x5
ARM GAS  C:\Users\AHMED~1.ELE\AppData\Local\Temp\ccGujCBB.s 			page 202


 10410 0245 00       		.byte	0
 10411 0246 49       		.uleb128 0x49
 10412 0247 13       		.uleb128 0x13
 10413 0248 00       		.byte	0
 10414 0249 00       		.byte	0
 10415 024a 2C       		.uleb128 0x2c
 10416 024b 2E       		.uleb128 0x2e
 10417 024c 01       		.byte	0x1
 10418 024d 3F       		.uleb128 0x3f
 10419 024e 19       		.uleb128 0x19
 10420 024f 03       		.uleb128 0x3
 10421 0250 0E       		.uleb128 0xe
 10422 0251 27       		.uleb128 0x27
 10423 0252 19       		.uleb128 0x19
 10424 0253 49       		.uleb128 0x49
 10425 0254 13       		.uleb128 0x13
 10426 0255 34       		.uleb128 0x34
 10427 0256 19       		.uleb128 0x19
 10428 0257 3C       		.uleb128 0x3c
 10429 0258 19       		.uleb128 0x19
 10430 0259 01       		.uleb128 0x1
 10431 025a 13       		.uleb128 0x13
 10432 025b 00       		.byte	0
 10433 025c 00       		.byte	0
 10434 025d 2D       		.uleb128 0x2d
 10435 025e 2E       		.uleb128 0x2e
 10436 025f 01       		.byte	0x1
 10437 0260 3F       		.uleb128 0x3f
 10438 0261 19       		.uleb128 0x19
 10439 0262 03       		.uleb128 0x3
 10440 0263 0E       		.uleb128 0xe
 10441 0264 3A       		.uleb128 0x3a
 10442 0265 0B       		.uleb128 0xb
 10443 0266 3B       		.uleb128 0x3b
 10444 0267 0B       		.uleb128 0xb
 10445 0268 27       		.uleb128 0x27
 10446 0269 19       		.uleb128 0x19
 10447 026a 3C       		.uleb128 0x3c
 10448 026b 19       		.uleb128 0x19
 10449 026c 01       		.uleb128 0x1
 10450 026d 13       		.uleb128 0x13
 10451 026e 00       		.byte	0
 10452 026f 00       		.byte	0
 10453 0270 2E       		.uleb128 0x2e
 10454 0271 18       		.uleb128 0x18
 10455 0272 00       		.byte	0
 10456 0273 00       		.byte	0
 10457 0274 00       		.byte	0
 10458 0275 2F       		.uleb128 0x2f
 10459 0276 2E       		.uleb128 0x2e
 10460 0277 00       		.byte	0
 10461 0278 3F       		.uleb128 0x3f
 10462 0279 19       		.uleb128 0x19
 10463 027a 03       		.uleb128 0x3
 10464 027b 0E       		.uleb128 0xe
 10465 027c 3A       		.uleb128 0x3a
 10466 027d 0B       		.uleb128 0xb
ARM GAS  C:\Users\AHMED~1.ELE\AppData\Local\Temp\ccGujCBB.s 			page 203


 10467 027e 3B       		.uleb128 0x3b
 10468 027f 0B       		.uleb128 0xb
 10469 0280 27       		.uleb128 0x27
 10470 0281 19       		.uleb128 0x19
 10471 0282 49       		.uleb128 0x49
 10472 0283 13       		.uleb128 0x13
 10473 0284 3C       		.uleb128 0x3c
 10474 0285 19       		.uleb128 0x19
 10475 0286 00       		.byte	0
 10476 0287 00       		.byte	0
 10477 0288 30       		.uleb128 0x30
 10478 0289 2E       		.uleb128 0x2e
 10479 028a 01       		.byte	0x1
 10480 028b 3F       		.uleb128 0x3f
 10481 028c 19       		.uleb128 0x19
 10482 028d 03       		.uleb128 0x3
 10483 028e 0E       		.uleb128 0xe
 10484 028f 3A       		.uleb128 0x3a
 10485 0290 0B       		.uleb128 0xb
 10486 0291 3B       		.uleb128 0x3b
 10487 0292 0B       		.uleb128 0xb
 10488 0293 27       		.uleb128 0x27
 10489 0294 19       		.uleb128 0x19
 10490 0295 49       		.uleb128 0x49
 10491 0296 13       		.uleb128 0x13
 10492 0297 3C       		.uleb128 0x3c
 10493 0298 19       		.uleb128 0x19
 10494 0299 00       		.byte	0
 10495 029a 00       		.byte	0
 10496 029b 00       		.byte	0
 10497              		.section	.debug_loc,"",%progbits
 10498              	.Ldebug_loc0:
 10499              	.LLST0:
 10500 0000 00000000 		.4byte	.LVL4
 10501 0004 09000000 		.4byte	.LVL5-1
 10502 0008 0100     		.2byte	0x1
 10503 000a 50       		.byte	0x50
 10504 000b 09000000 		.4byte	.LVL5-1
 10505 000f 44000000 		.4byte	.LFE4
 10506 0013 0100     		.2byte	0x1
 10507 0015 54       		.byte	0x54
 10508 0016 00000000 		.4byte	0
 10509 001a 00000000 		.4byte	0
 10510              	.LLST1:
 10511 001e 00000000 		.4byte	.LVL4
 10512 0022 09000000 		.4byte	.LVL5-1
 10513 0026 0100     		.2byte	0x1
 10514 0028 51       		.byte	0x51
 10515 0029 09000000 		.4byte	.LVL5-1
 10516 002d 44000000 		.4byte	.LFE4
 10517 0031 0400     		.2byte	0x4
 10518 0033 F3       		.byte	0xf3
 10519 0034 01       		.uleb128 0x1
 10520 0035 51       		.byte	0x51
 10521 0036 9F       		.byte	0x9f
 10522 0037 00000000 		.4byte	0
 10523 003b 00000000 		.4byte	0
ARM GAS  C:\Users\AHMED~1.ELE\AppData\Local\Temp\ccGujCBB.s 			page 204


 10524              	.LLST2:
 10525 003f 3A000000 		.4byte	.LVL11
 10526 0043 3C000000 		.4byte	.LVL12
 10527 0047 0600     		.2byte	0x6
 10528 0049 70       		.byte	0x70
 10529 004a 00       		.sleb128 0
 10530 004b 75       		.byte	0x75
 10531 004c 00       		.sleb128 0
 10532 004d 1C       		.byte	0x1c
 10533 004e 9F       		.byte	0x9f
 10534 004f 3C000000 		.4byte	.LVL12
 10535 0053 40000000 		.4byte	.LVL13
 10536 0057 0100     		.2byte	0x1
 10537 0059 50       		.byte	0x50
 10538 005a 00000000 		.4byte	0
 10539 005e 00000000 		.4byte	0
 10540              	.LLST3:
 10541 0062 00000000 		.4byte	.LVL15
 10542 0066 08000000 		.4byte	.LVL16
 10543 006a 0100     		.2byte	0x1
 10544 006c 50       		.byte	0x50
 10545 006d 08000000 		.4byte	.LVL16
 10546 0071 0E000000 		.4byte	.LVL18
 10547 0075 0100     		.2byte	0x1
 10548 0077 54       		.byte	0x54
 10549 0078 0E000000 		.4byte	.LVL18
 10550 007c 10000000 		.4byte	.LVL19
 10551 0080 0400     		.2byte	0x4
 10552 0082 F3       		.byte	0xf3
 10553 0083 01       		.uleb128 0x1
 10554 0084 50       		.byte	0x50
 10555 0085 9F       		.byte	0x9f
 10556 0086 10000000 		.4byte	.LVL19
 10557 008a 28000000 		.4byte	.LFE6
 10558 008e 0100     		.2byte	0x1
 10559 0090 54       		.byte	0x54
 10560 0091 00000000 		.4byte	0
 10561 0095 00000000 		.4byte	0
 10562              	.LLST4:
 10563 0099 20000000 		.4byte	.LVL21
 10564 009d 22000000 		.4byte	.LVL22
 10565 00a1 0600     		.2byte	0x6
 10566 00a3 70       		.byte	0x70
 10567 00a4 00       		.sleb128 0
 10568 00a5 75       		.byte	0x75
 10569 00a6 00       		.sleb128 0
 10570 00a7 1C       		.byte	0x1c
 10571 00a8 9F       		.byte	0x9f
 10572 00a9 22000000 		.4byte	.LVL22
 10573 00ad 28000000 		.4byte	.LFE6
 10574 00b1 0100     		.2byte	0x1
 10575 00b3 50       		.byte	0x50
 10576 00b4 00000000 		.4byte	0
 10577 00b8 00000000 		.4byte	0
 10578              	.LLST5:
 10579 00bc 00000000 		.4byte	.LVL23
 10580 00c0 07000000 		.4byte	.LVL24-1
ARM GAS  C:\Users\AHMED~1.ELE\AppData\Local\Temp\ccGujCBB.s 			page 205


 10581 00c4 0100     		.2byte	0x1
 10582 00c6 50       		.byte	0x50
 10583 00c7 07000000 		.4byte	.LVL24-1
 10584 00cb 40000000 		.4byte	.LVL30
 10585 00cf 0100     		.2byte	0x1
 10586 00d1 56       		.byte	0x56
 10587 00d2 40000000 		.4byte	.LVL30
 10588 00d6 44000000 		.4byte	.LVL31
 10589 00da 0400     		.2byte	0x4
 10590 00dc F3       		.byte	0xf3
 10591 00dd 01       		.uleb128 0x1
 10592 00de 50       		.byte	0x50
 10593 00df 9F       		.byte	0x9f
 10594 00e0 44000000 		.4byte	.LVL31
 10595 00e4 48000000 		.4byte	.LFE7
 10596 00e8 0100     		.2byte	0x1
 10597 00ea 56       		.byte	0x56
 10598 00eb 00000000 		.4byte	0
 10599 00ef 00000000 		.4byte	0
 10600              	.LLST6:
 10601 00f3 00000000 		.4byte	.LVL23
 10602 00f7 07000000 		.4byte	.LVL24-1
 10603 00fb 0100     		.2byte	0x1
 10604 00fd 51       		.byte	0x51
 10605 00fe 07000000 		.4byte	.LVL24-1
 10606 0102 48000000 		.4byte	.LFE7
 10607 0106 0400     		.2byte	0x4
 10608 0108 F3       		.byte	0xf3
 10609 0109 01       		.uleb128 0x1
 10610 010a 51       		.byte	0x51
 10611 010b 9F       		.byte	0x9f
 10612 010c 00000000 		.4byte	0
 10613 0110 00000000 		.4byte	0
 10614              	.LLST7:
 10615 0114 0A000000 		.4byte	.LVL25
 10616 0118 0E000000 		.4byte	.LVL26
 10617 011c 0100     		.2byte	0x1
 10618 011e 50       		.byte	0x50
 10619 011f 0E000000 		.4byte	.LVL26
 10620 0123 40000000 		.4byte	.LVL30
 10621 0127 0100     		.2byte	0x1
 10622 0129 55       		.byte	0x55
 10623 012a 44000000 		.4byte	.LVL31
 10624 012e 48000000 		.4byte	.LFE7
 10625 0132 0100     		.2byte	0x1
 10626 0134 55       		.byte	0x55
 10627 0135 00000000 		.4byte	0
 10628 0139 00000000 		.4byte	0
 10629              	.LLST8:
 10630 013d 12000000 		.4byte	.LVL27
 10631 0141 1D000000 		.4byte	.LVL28-1
 10632 0145 0100     		.2byte	0x1
 10633 0147 50       		.byte	0x50
 10634 0148 1D000000 		.4byte	.LVL28-1
 10635 014c 40000000 		.4byte	.LVL30
 10636 0150 0100     		.2byte	0x1
 10637 0152 54       		.byte	0x54
ARM GAS  C:\Users\AHMED~1.ELE\AppData\Local\Temp\ccGujCBB.s 			page 206


 10638 0153 40000000 		.4byte	.LVL30
 10639 0157 43000000 		.4byte	.LVL31-1
 10640 015b 0100     		.2byte	0x1
 10641 015d 51       		.byte	0x51
 10642 015e 44000000 		.4byte	.LVL31
 10643 0162 48000000 		.4byte	.LFE7
 10644 0166 0100     		.2byte	0x1
 10645 0168 50       		.byte	0x50
 10646 0169 00000000 		.4byte	0
 10647 016d 00000000 		.4byte	0
 10648              	.LLST9:
 10649 0171 00000000 		.4byte	.LVL32
 10650 0175 07000000 		.4byte	.LVL33-1
 10651 0179 0100     		.2byte	0x1
 10652 017b 50       		.byte	0x50
 10653 017c 07000000 		.4byte	.LVL33-1
 10654 0180 30000000 		.4byte	.LVL38
 10655 0184 0100     		.2byte	0x1
 10656 0186 56       		.byte	0x56
 10657 0187 30000000 		.4byte	.LVL38
 10658 018b 34000000 		.4byte	.LVL39
 10659 018f 0400     		.2byte	0x4
 10660 0191 F3       		.byte	0xf3
 10661 0192 01       		.uleb128 0x1
 10662 0193 50       		.byte	0x50
 10663 0194 9F       		.byte	0x9f
 10664 0195 34000000 		.4byte	.LVL39
 10665 0199 36000000 		.4byte	.LFE8
 10666 019d 0100     		.2byte	0x1
 10667 019f 56       		.byte	0x56
 10668 01a0 00000000 		.4byte	0
 10669 01a4 00000000 		.4byte	0
 10670              	.LLST10:
 10671 01a8 0A000000 		.4byte	.LVL34
 10672 01ac 30000000 		.4byte	.LVL38
 10673 01b0 0100     		.2byte	0x1
 10674 01b2 54       		.byte	0x54
 10675 01b3 34000000 		.4byte	.LVL39
 10676 01b7 36000000 		.4byte	.LFE8
 10677 01bb 0100     		.2byte	0x1
 10678 01bd 54       		.byte	0x54
 10679 01be 00000000 		.4byte	0
 10680 01c2 00000000 		.4byte	0
 10681              	.LLST11:
 10682 01c6 12000000 		.4byte	.LVL35
 10683 01ca 1D000000 		.4byte	.LVL36-1
 10684 01ce 0100     		.2byte	0x1
 10685 01d0 50       		.byte	0x50
 10686 01d1 1D000000 		.4byte	.LVL36-1
 10687 01d5 30000000 		.4byte	.LVL38
 10688 01d9 0100     		.2byte	0x1
 10689 01db 55       		.byte	0x55
 10690 01dc 30000000 		.4byte	.LVL38
 10691 01e0 33000000 		.4byte	.LVL39-1
 10692 01e4 0100     		.2byte	0x1
 10693 01e6 51       		.byte	0x51
 10694 01e7 34000000 		.4byte	.LVL39
ARM GAS  C:\Users\AHMED~1.ELE\AppData\Local\Temp\ccGujCBB.s 			page 207


 10695 01eb 36000000 		.4byte	.LFE8
 10696 01ef 0100     		.2byte	0x1
 10697 01f1 50       		.byte	0x50
 10698 01f2 00000000 		.4byte	0
 10699 01f6 00000000 		.4byte	0
 10700              	.LLST12:
 10701 01fa 00000000 		.4byte	.LVL40
 10702 01fe 06000000 		.4byte	.LVL41
 10703 0202 0100     		.2byte	0x1
 10704 0204 50       		.byte	0x50
 10705 0205 06000000 		.4byte	.LVL41
 10706 0209 30000000 		.4byte	.LVL45
 10707 020d 0100     		.2byte	0x1
 10708 020f 56       		.byte	0x56
 10709 0210 30000000 		.4byte	.LVL45
 10710 0214 34000000 		.4byte	.LVL46
 10711 0218 0400     		.2byte	0x4
 10712 021a F3       		.byte	0xf3
 10713 021b 01       		.uleb128 0x1
 10714 021c 50       		.byte	0x50
 10715 021d 9F       		.byte	0x9f
 10716 021e 34000000 		.4byte	.LVL46
 10717 0222 38000000 		.4byte	.LFE9
 10718 0226 0100     		.2byte	0x1
 10719 0228 56       		.byte	0x56
 10720 0229 00000000 		.4byte	0
 10721 022d 00000000 		.4byte	0
 10722              	.LLST13:
 10723 0231 00000000 		.4byte	.LVL40
 10724 0235 0B000000 		.4byte	.LVL42-1
 10725 0239 0100     		.2byte	0x1
 10726 023b 51       		.byte	0x51
 10727 023c 0B000000 		.4byte	.LVL42-1
 10728 0240 30000000 		.4byte	.LVL45
 10729 0244 0100     		.2byte	0x1
 10730 0246 55       		.byte	0x55
 10731 0247 30000000 		.4byte	.LVL45
 10732 024b 34000000 		.4byte	.LVL46
 10733 024f 0400     		.2byte	0x4
 10734 0251 F3       		.byte	0xf3
 10735 0252 01       		.uleb128 0x1
 10736 0253 51       		.byte	0x51
 10737 0254 9F       		.byte	0x9f
 10738 0255 34000000 		.4byte	.LVL46
 10739 0259 38000000 		.4byte	.LFE9
 10740 025d 0100     		.2byte	0x1
 10741 025f 55       		.byte	0x55
 10742 0260 00000000 		.4byte	0
 10743 0264 00000000 		.4byte	0
 10744              	.LLST14:
 10745 0268 0C000000 		.4byte	.LVL42
 10746 026c 17000000 		.4byte	.LVL43-1
 10747 0270 0100     		.2byte	0x1
 10748 0272 50       		.byte	0x50
 10749 0273 17000000 		.4byte	.LVL43-1
 10750 0277 30000000 		.4byte	.LVL45
 10751 027b 0100     		.2byte	0x1
ARM GAS  C:\Users\AHMED~1.ELE\AppData\Local\Temp\ccGujCBB.s 			page 208


 10752 027d 54       		.byte	0x54
 10753 027e 30000000 		.4byte	.LVL45
 10754 0282 33000000 		.4byte	.LVL46-1
 10755 0286 0100     		.2byte	0x1
 10756 0288 51       		.byte	0x51
 10757 0289 34000000 		.4byte	.LVL46
 10758 028d 38000000 		.4byte	.LFE9
 10759 0291 0100     		.2byte	0x1
 10760 0293 50       		.byte	0x50
 10761 0294 00000000 		.4byte	0
 10762 0298 00000000 		.4byte	0
 10763              	.LLST15:
 10764 029c 00000000 		.4byte	.LVL47
 10765 02a0 10000000 		.4byte	.LVL49
 10766 02a4 0100     		.2byte	0x1
 10767 02a6 50       		.byte	0x50
 10768 02a7 10000000 		.4byte	.LVL49
 10769 02ab 2A000000 		.4byte	.LVL53
 10770 02af 0100     		.2byte	0x1
 10771 02b1 57       		.byte	0x57
 10772 02b2 2A000000 		.4byte	.LVL53
 10773 02b6 80000000 		.4byte	.LFE10
 10774 02ba 0400     		.2byte	0x4
 10775 02bc F3       		.byte	0xf3
 10776 02bd 01       		.uleb128 0x1
 10777 02be 50       		.byte	0x50
 10778 02bf 9F       		.byte	0x9f
 10779 02c0 00000000 		.4byte	0
 10780 02c4 00000000 		.4byte	0
 10781              	.LLST16:
 10782 02c8 00000000 		.4byte	.LVL47
 10783 02cc 14000000 		.4byte	.LVL50
 10784 02d0 0100     		.2byte	0x1
 10785 02d2 51       		.byte	0x51
 10786 02d3 14000000 		.4byte	.LVL50
 10787 02d7 7C000000 		.4byte	.LVL60
 10788 02db 0100     		.2byte	0x1
 10789 02dd 56       		.byte	0x56
 10790 02de 7C000000 		.4byte	.LVL60
 10791 02e2 80000000 		.4byte	.LFE10
 10792 02e6 0400     		.2byte	0x4
 10793 02e8 F3       		.byte	0xf3
 10794 02e9 01       		.uleb128 0x1
 10795 02ea 51       		.byte	0x51
 10796 02eb 9F       		.byte	0x9f
 10797 02ec 00000000 		.4byte	0
 10798 02f0 00000000 		.4byte	0
 10799              	.LLST17:
 10800 02f4 20000000 		.4byte	.LVL52
 10801 02f8 2C000000 		.4byte	.LVL54
 10802 02fc 0100     		.2byte	0x1
 10803 02fe 50       		.byte	0x50
 10804 02ff 2C000000 		.4byte	.LVL54
 10805 0303 7C000000 		.4byte	.LVL60
 10806 0307 0100     		.2byte	0x1
 10807 0309 54       		.byte	0x54
 10808 030a 7C000000 		.4byte	.LVL60
ARM GAS  C:\Users\AHMED~1.ELE\AppData\Local\Temp\ccGujCBB.s 			page 209


 10809 030e 7F000000 		.4byte	.LVL61-1
 10810 0312 0100     		.2byte	0x1
 10811 0314 51       		.byte	0x51
 10812 0315 00000000 		.4byte	0
 10813 0319 00000000 		.4byte	0
 10814              	.LLST18:
 10815 031d 0E000000 		.4byte	.LVL48
 10816 0321 7C000000 		.4byte	.LVL60
 10817 0325 0100     		.2byte	0x1
 10818 0327 55       		.byte	0x55
 10819 0328 00000000 		.4byte	0
 10820 032c 00000000 		.4byte	0
 10821              	.LLST19:
 10822 0330 2C000000 		.4byte	.LVL54
 10823 0334 42000000 		.4byte	.LVL55
 10824 0338 0100     		.2byte	0x1
 10825 033a 57       		.byte	0x57
 10826 033b 42000000 		.4byte	.LVL55
 10827 033f 68000000 		.4byte	.LVL58
 10828 0343 0300     		.2byte	0x3
 10829 0345 77       		.byte	0x77
 10830 0346 7E       		.sleb128 -2
 10831 0347 9F       		.byte	0x9f
 10832 0348 68000000 		.4byte	.LVL58
 10833 034c 7C000000 		.4byte	.LVL60
 10834 0350 0100     		.2byte	0x1
 10835 0352 57       		.byte	0x57
 10836 0353 00000000 		.4byte	0
 10837 0357 00000000 		.4byte	0
 10838              	.LLST20:
 10839 035b 44000000 		.4byte	.LVL56
 10840 035f 58000000 		.4byte	.LVL57
 10841 0363 0100     		.2byte	0x1
 10842 0365 53       		.byte	0x53
 10843 0366 58000000 		.4byte	.LVL57
 10844 036a 67000000 		.4byte	.LVL58-1
 10845 036e 1C00     		.2byte	0x1c
 10846 0370 76       		.byte	0x76
 10847 0371 00       		.sleb128 0
 10848 0372 77       		.byte	0x77
 10849 0373 00       		.sleb128 0
 10850 0374 22       		.byte	0x22
 10851 0375 31       		.byte	0x31
 10852 0376 1C       		.byte	0x1c
 10853 0377 94       		.byte	0x94
 10854 0378 01       		.byte	0x1
 10855 0379 08       		.byte	0x8
 10856 037a FF       		.byte	0xff
 10857 037b 1A       		.byte	0x1a
 10858 037c 38       		.byte	0x38
 10859 037d 24       		.byte	0x24
 10860 037e 76       		.byte	0x76
 10861 037f 00       		.sleb128 0
 10862 0380 77       		.byte	0x77
 10863 0381 00       		.sleb128 0
 10864 0382 22       		.byte	0x22
 10865 0383 32       		.byte	0x32
ARM GAS  C:\Users\AHMED~1.ELE\AppData\Local\Temp\ccGujCBB.s 			page 210


 10866 0384 1C       		.byte	0x1c
 10867 0385 94       		.byte	0x94
 10868 0386 01       		.byte	0x1
 10869 0387 08       		.byte	0x8
 10870 0388 FF       		.byte	0xff
 10871 0389 1A       		.byte	0x1a
 10872 038a 22       		.byte	0x22
 10873 038b 9F       		.byte	0x9f
 10874 038c 00000000 		.4byte	0
 10875 0390 00000000 		.4byte	0
 10876              	.LLST21:
 10877 0394 00000000 		.4byte	.LVL62
 10878 0398 12000000 		.4byte	.LVL65
 10879 039c 0100     		.2byte	0x1
 10880 039e 50       		.byte	0x50
 10881 039f 12000000 		.4byte	.LVL65
 10882 03a3 BC000000 		.4byte	.LFE11
 10883 03a7 0100     		.2byte	0x1
 10884 03a9 58       		.byte	0x58
 10885 03aa 00000000 		.4byte	0
 10886 03ae 00000000 		.4byte	0
 10887              	.LLST22:
 10888 03b2 00000000 		.4byte	.LVL62
 10889 03b6 0E000000 		.4byte	.LVL63
 10890 03ba 0100     		.2byte	0x1
 10891 03bc 51       		.byte	0x51
 10892 03bd 0E000000 		.4byte	.LVL63
 10893 03c1 BC000000 		.4byte	.LFE11
 10894 03c5 0100     		.2byte	0x1
 10895 03c7 57       		.byte	0x57
 10896 03c8 00000000 		.4byte	0
 10897 03cc 00000000 		.4byte	0
 10898              	.LLST23:
 10899 03d0 00000000 		.4byte	.LVL62
 10900 03d4 10000000 		.4byte	.LVL64
 10901 03d8 0100     		.2byte	0x1
 10902 03da 52       		.byte	0x52
 10903 03db 10000000 		.4byte	.LVL64
 10904 03df 9A000000 		.4byte	.LVL84
 10905 03e3 0100     		.2byte	0x1
 10906 03e5 54       		.byte	0x54
 10907 03e6 9A000000 		.4byte	.LVL84
 10908 03ea BC000000 		.4byte	.LFE11
 10909 03ee 0800     		.2byte	0x8
 10910 03f0 F3       		.byte	0xf3
 10911 03f1 01       		.uleb128 0x1
 10912 03f2 52       		.byte	0x52
 10913 03f3 0B       		.byte	0xb
 10914 03f4 7FFF     		.2byte	0xff7f
 10915 03f6 1A       		.byte	0x1a
 10916 03f7 9F       		.byte	0x9f
 10917 03f8 00000000 		.4byte	0
 10918 03fc 00000000 		.4byte	0
 10919              	.LLST24:
 10920 0400 28000000 		.4byte	.LVL69
 10921 0404 2C000000 		.4byte	.LVL70
 10922 0408 0100     		.2byte	0x1
ARM GAS  C:\Users\AHMED~1.ELE\AppData\Local\Temp\ccGujCBB.s 			page 211


 10923 040a 50       		.byte	0x50
 10924 040b 2C000000 		.4byte	.LVL70
 10925 040f 82000000 		.4byte	.LVL79
 10926 0413 0100     		.2byte	0x1
 10927 0415 56       		.byte	0x56
 10928 0416 00000000 		.4byte	0
 10929 041a 00000000 		.4byte	0
 10930              	.LLST25:
 10931 041e 30000000 		.4byte	.LVL71
 10932 0422 3B000000 		.4byte	.LVL72-1
 10933 0426 0100     		.2byte	0x1
 10934 0428 50       		.byte	0x50
 10935 0429 3B000000 		.4byte	.LVL72-1
 10936 042d 8C000000 		.4byte	.LVL82
 10937 0431 0100     		.2byte	0x1
 10938 0433 55       		.byte	0x55
 10939 0434 00000000 		.4byte	0
 10940 0438 00000000 		.4byte	0
 10941              	.LLST26:
 10942 043c 82000000 		.4byte	.LVL79
 10943 0440 86000000 		.4byte	.LVL80
 10944 0444 0100     		.2byte	0x1
 10945 0446 50       		.byte	0x50
 10946 0447 86000000 		.4byte	.LVL80
 10947 044b BC000000 		.4byte	.LFE11
 10948 044f 0100     		.2byte	0x1
 10949 0451 56       		.byte	0x56
 10950 0452 00000000 		.4byte	0
 10951 0456 00000000 		.4byte	0
 10952              	.LLST27:
 10953 045a 8A000000 		.4byte	.LVL81
 10954 045e 95000000 		.4byte	.LVL83-1
 10955 0462 0100     		.2byte	0x1
 10956 0464 50       		.byte	0x50
 10957 0465 95000000 		.4byte	.LVL83-1
 10958 0469 BC000000 		.4byte	.LFE11
 10959 046d 0100     		.2byte	0x1
 10960 046f 55       		.byte	0x55
 10961 0470 00000000 		.4byte	0
 10962 0474 00000000 		.4byte	0
 10963              	.LLST28:
 10964 0478 00000000 		.4byte	.LVL87
 10965 047c 14000000 		.4byte	.LVL88
 10966 0480 0100     		.2byte	0x1
 10967 0482 50       		.byte	0x50
 10968 0483 14000000 		.4byte	.LVL88
 10969 0487 17000000 		.4byte	.LVL89-1
 10970 048b 0100     		.2byte	0x1
 10971 048d 51       		.byte	0x51
 10972 048e 17000000 		.4byte	.LVL89-1
 10973 0492 26000000 		.4byte	.LFE12
 10974 0496 0400     		.2byte	0x4
 10975 0498 F3       		.byte	0xf3
 10976 0499 01       		.uleb128 0x1
 10977 049a 50       		.byte	0x50
 10978 049b 9F       		.byte	0x9f
 10979 049c 00000000 		.4byte	0
ARM GAS  C:\Users\AHMED~1.ELE\AppData\Local\Temp\ccGujCBB.s 			page 212


 10980 04a0 00000000 		.4byte	0
 10981              	.LLST29:
 10982 04a4 00000000 		.4byte	.LVL91
 10983 04a8 08000000 		.4byte	.LVL92
 10984 04ac 0100     		.2byte	0x1
 10985 04ae 50       		.byte	0x50
 10986 04af 08000000 		.4byte	.LVL92
 10987 04b3 1A000000 		.4byte	.LFE13
 10988 04b7 0100     		.2byte	0x1
 10989 04b9 54       		.byte	0x54
 10990 04ba 00000000 		.4byte	0
 10991 04be 00000000 		.4byte	0
 10992              	.LLST30:
 10993 04c2 00000000 		.4byte	.LVL95
 10994 04c6 0F000000 		.4byte	.LVL98-1
 10995 04ca 0100     		.2byte	0x1
 10996 04cc 50       		.byte	0x50
 10997 04cd 0F000000 		.4byte	.LVL98-1
 10998 04d1 76000000 		.4byte	.LVL105
 10999 04d5 0100     		.2byte	0x1
 11000 04d7 54       		.byte	0x54
 11001 04d8 76000000 		.4byte	.LVL105
 11002 04dc 7B000000 		.4byte	.LVL106-1
 11003 04e0 0300     		.2byte	0x3
 11004 04e2 71       		.byte	0x71
 11005 04e3 76       		.sleb128 -10
 11006 04e4 9F       		.byte	0x9f
 11007 04e5 7B000000 		.4byte	.LVL106-1
 11008 04e9 7C000000 		.4byte	.LVL106
 11009 04ed 0400     		.2byte	0x4
 11010 04ef F3       		.byte	0xf3
 11011 04f0 01       		.uleb128 0x1
 11012 04f1 50       		.byte	0x50
 11013 04f2 9F       		.byte	0x9f
 11014 04f3 7C000000 		.4byte	.LVL106
 11015 04f7 7E000000 		.4byte	.LVL107
 11016 04fb 0100     		.2byte	0x1
 11017 04fd 54       		.byte	0x54
 11018 04fe 7E000000 		.4byte	.LVL107
 11019 0502 84000000 		.4byte	.LFE14
 11020 0506 0400     		.2byte	0x4
 11021 0508 F3       		.byte	0xf3
 11022 0509 01       		.uleb128 0x1
 11023 050a 50       		.byte	0x50
 11024 050b 9F       		.byte	0x9f
 11025 050c 00000000 		.4byte	0
 11026 0510 00000000 		.4byte	0
 11027              	.LLST31:
 11028 0514 00000000 		.4byte	.LVL95
 11029 0518 08000000 		.4byte	.LVL96
 11030 051c 0100     		.2byte	0x1
 11031 051e 51       		.byte	0x51
 11032 051f 08000000 		.4byte	.LVL96
 11033 0523 76000000 		.4byte	.LVL105
 11034 0527 0100     		.2byte	0x1
 11035 0529 55       		.byte	0x55
 11036 052a 76000000 		.4byte	.LVL105
ARM GAS  C:\Users\AHMED~1.ELE\AppData\Local\Temp\ccGujCBB.s 			page 213


 11037 052e 7C000000 		.4byte	.LVL106
 11038 0532 0400     		.2byte	0x4
 11039 0534 F3       		.byte	0xf3
 11040 0535 01       		.uleb128 0x1
 11041 0536 51       		.byte	0x51
 11042 0537 9F       		.byte	0x9f
 11043 0538 7C000000 		.4byte	.LVL106
 11044 053c 7E000000 		.4byte	.LVL107
 11045 0540 0100     		.2byte	0x1
 11046 0542 55       		.byte	0x55
 11047 0543 7E000000 		.4byte	.LVL107
 11048 0547 84000000 		.4byte	.LFE14
 11049 054b 0400     		.2byte	0x4
 11050 054d F3       		.byte	0xf3
 11051 054e 01       		.uleb128 0x1
 11052 054f 51       		.byte	0x51
 11053 0550 9F       		.byte	0x9f
 11054 0551 00000000 		.4byte	0
 11055 0555 00000000 		.4byte	0
 11056              	.LLST32:
 11057 0559 00000000 		.4byte	.LVL95
 11058 055d 0A000000 		.4byte	.LVL97
 11059 0561 0100     		.2byte	0x1
 11060 0563 52       		.byte	0x52
 11061 0564 0A000000 		.4byte	.LVL97
 11062 0568 84000000 		.4byte	.LFE14
 11063 056c 0400     		.2byte	0x4
 11064 056e F3       		.byte	0xf3
 11065 056f 01       		.uleb128 0x1
 11066 0570 52       		.byte	0x52
 11067 0571 9F       		.byte	0x9f
 11068 0572 00000000 		.4byte	0
 11069 0576 00000000 		.4byte	0
 11070              	.LLST33:
 11071 057a 00000000 		.4byte	.LVL108
 11072 057e 06000000 		.4byte	.LVL109
 11073 0582 0100     		.2byte	0x1
 11074 0584 50       		.byte	0x50
 11075 0585 06000000 		.4byte	.LVL109
 11076 0589 5A000000 		.4byte	.LFE15
 11077 058d 0100     		.2byte	0x1
 11078 058f 54       		.byte	0x54
 11079 0590 00000000 		.4byte	0
 11080 0594 00000000 		.4byte	0
 11081              	.LLST34:
 11082 0598 00000000 		.4byte	.LVL116
 11083 059c 08000000 		.4byte	.LVL117
 11084 05a0 0100     		.2byte	0x1
 11085 05a2 50       		.byte	0x50
 11086 05a3 08000000 		.4byte	.LVL117
 11087 05a7 14000000 		.4byte	.LFE17
 11088 05ab 0100     		.2byte	0x1
 11089 05ad 54       		.byte	0x54
 11090 05ae 00000000 		.4byte	0
 11091 05b2 00000000 		.4byte	0
 11092              	.LLST35:
 11093 05b6 0C000000 		.4byte	.LVL118
ARM GAS  C:\Users\AHMED~1.ELE\AppData\Local\Temp\ccGujCBB.s 			page 214


 11094 05ba 10000000 		.4byte	.LVL119
 11095 05be 0100     		.2byte	0x1
 11096 05c0 50       		.byte	0x50
 11097 05c1 00000000 		.4byte	0
 11098 05c5 00000000 		.4byte	0
 11099              	.LLST36:
 11100 05c9 00000000 		.4byte	.LVL120
 11101 05cd 10000000 		.4byte	.LVL121
 11102 05d1 0100     		.2byte	0x1
 11103 05d3 50       		.byte	0x50
 11104 05d4 10000000 		.4byte	.LVL121
 11105 05d8 4C000000 		.4byte	.LVL131
 11106 05dc 0100     		.2byte	0x1
 11107 05de 54       		.byte	0x54
 11108 05df 4C000000 		.4byte	.LVL131
 11109 05e3 88000000 		.4byte	.LFE18
 11110 05e7 0400     		.2byte	0x4
 11111 05e9 F3       		.byte	0xf3
 11112 05ea 01       		.uleb128 0x1
 11113 05eb 50       		.byte	0x50
 11114 05ec 9F       		.byte	0x9f
 11115 05ed 00000000 		.4byte	0
 11116 05f1 00000000 		.4byte	0
 11117              	.LLST37:
 11118 05f5 00000000 		.4byte	.LVL120
 11119 05f9 12000000 		.4byte	.LVL122
 11120 05fd 0100     		.2byte	0x1
 11121 05ff 51       		.byte	0x51
 11122 0600 12000000 		.4byte	.LVL122
 11123 0604 82000000 		.4byte	.LVL136
 11124 0608 0100     		.2byte	0x1
 11125 060a 57       		.byte	0x57
 11126 060b 82000000 		.4byte	.LVL136
 11127 060f 88000000 		.4byte	.LFE18
 11128 0613 0400     		.2byte	0x4
 11129 0615 F3       		.byte	0xf3
 11130 0616 01       		.uleb128 0x1
 11131 0617 51       		.byte	0x51
 11132 0618 9F       		.byte	0x9f
 11133 0619 00000000 		.4byte	0
 11134 061d 00000000 		.4byte	0
 11135              	.LLST38:
 11136 0621 00000000 		.4byte	.LVL120
 11137 0625 14000000 		.4byte	.LVL123
 11138 0629 0100     		.2byte	0x1
 11139 062b 52       		.byte	0x52
 11140 062c 14000000 		.4byte	.LVL123
 11141 0630 82000000 		.4byte	.LVL136
 11142 0634 0100     		.2byte	0x1
 11143 0636 56       		.byte	0x56
 11144 0637 82000000 		.4byte	.LVL136
 11145 063b 88000000 		.4byte	.LFE18
 11146 063f 0400     		.2byte	0x4
 11147 0641 F3       		.byte	0xf3
 11148 0642 01       		.uleb128 0x1
 11149 0643 52       		.byte	0x52
 11150 0644 9F       		.byte	0x9f
ARM GAS  C:\Users\AHMED~1.ELE\AppData\Local\Temp\ccGujCBB.s 			page 215


 11151 0645 00000000 		.4byte	0
 11152 0649 00000000 		.4byte	0
 11153              	.LLST39:
 11154 064d 42000000 		.4byte	.LVL128
 11155 0651 46000000 		.4byte	.LVL129
 11156 0655 0100     		.2byte	0x1
 11157 0657 50       		.byte	0x50
 11158 0658 46000000 		.4byte	.LVL129
 11159 065c 82000000 		.4byte	.LVL136
 11160 0660 0100     		.2byte	0x1
 11161 0662 55       		.byte	0x55
 11162 0663 00000000 		.4byte	0
 11163 0667 00000000 		.4byte	0
 11164              	.LLST40:
 11165 066b 4A000000 		.4byte	.LVL130
 11166 066f 55000000 		.4byte	.LVL132-1
 11167 0673 0100     		.2byte	0x1
 11168 0675 50       		.byte	0x50
 11169 0676 55000000 		.4byte	.LVL132-1
 11170 067a 82000000 		.4byte	.LVL136
 11171 067e 0100     		.2byte	0x1
 11172 0680 54       		.byte	0x54
 11173 0681 00000000 		.4byte	0
 11174 0685 00000000 		.4byte	0
 11175              	.LLST41:
 11176 0689 00000000 		.4byte	.LVL137
 11177 068d 0C000000 		.4byte	.LVL138
 11178 0691 0100     		.2byte	0x1
 11179 0693 50       		.byte	0x50
 11180 0694 0C000000 		.4byte	.LVL138
 11181 0698 30010000 		.4byte	.LVL184
 11182 069c 0100     		.2byte	0x1
 11183 069e 57       		.byte	0x57
 11184 069f 30010000 		.4byte	.LVL184
 11185 06a3 34010000 		.4byte	.LFE19
 11186 06a7 0400     		.2byte	0x4
 11187 06a9 F3       		.byte	0xf3
 11188 06aa 01       		.uleb128 0x1
 11189 06ab 50       		.byte	0x50
 11190 06ac 9F       		.byte	0x9f
 11191 06ad 00000000 		.4byte	0
 11192 06b1 00000000 		.4byte	0
 11193              	.LLST42:
 11194 06b5 00000000 		.4byte	.LVL137
 11195 06b9 0E000000 		.4byte	.LVL139
 11196 06bd 0100     		.2byte	0x1
 11197 06bf 51       		.byte	0x51
 11198 06c0 0E000000 		.4byte	.LVL139
 11199 06c4 30010000 		.4byte	.LVL184
 11200 06c8 0100     		.2byte	0x1
 11201 06ca 56       		.byte	0x56
 11202 06cb 30010000 		.4byte	.LVL184
 11203 06cf 34010000 		.4byte	.LFE19
 11204 06d3 0400     		.2byte	0x4
 11205 06d5 F3       		.byte	0xf3
 11206 06d6 01       		.uleb128 0x1
 11207 06d7 51       		.byte	0x51
ARM GAS  C:\Users\AHMED~1.ELE\AppData\Local\Temp\ccGujCBB.s 			page 216


 11208 06d8 9F       		.byte	0x9f
 11209 06d9 00000000 		.4byte	0
 11210 06dd 00000000 		.4byte	0
 11211              	.LLST43:
 11212 06e1 14000000 		.4byte	.LVL140
 11213 06e5 18000000 		.4byte	.LVL141
 11214 06e9 0200     		.2byte	0x2
 11215 06eb 34       		.byte	0x34
 11216 06ec 9F       		.byte	0x9f
 11217 06ed 18000000 		.4byte	.LVL141
 11218 06f1 1C000000 		.4byte	.LVL142
 11219 06f5 0100     		.2byte	0x1
 11220 06f7 54       		.byte	0x54
 11221 06f8 86000000 		.4byte	.LVL153
 11222 06fc 98000000 		.4byte	.LVL156
 11223 0700 0100     		.2byte	0x1
 11224 0702 54       		.byte	0x54
 11225 0703 98000000 		.4byte	.LVL156
 11226 0707 A8000000 		.4byte	.LVL159
 11227 070b 0200     		.2byte	0x2
 11228 070d 34       		.byte	0x34
 11229 070e 9F       		.byte	0x9f
 11230 070f AE000000 		.4byte	.LVL160
 11231 0713 06010000 		.4byte	.LVL174
 11232 0717 0100     		.2byte	0x1
 11233 0719 54       		.byte	0x54
 11234 071a 08010000 		.4byte	.LVL175
 11235 071e 12010000 		.4byte	.LVL177
 11236 0722 0100     		.2byte	0x1
 11237 0724 54       		.byte	0x54
 11238 0725 14010000 		.4byte	.LVL178
 11239 0729 30010000 		.4byte	.LVL184
 11240 072d 0100     		.2byte	0x1
 11241 072f 54       		.byte	0x54
 11242 0730 00000000 		.4byte	0
 11243 0734 00000000 		.4byte	0
 11244              	.LLST44:
 11245 0738 00000000 		.4byte	.LVL137
 11246 073c 18000000 		.4byte	.LVL141
 11247 0740 0200     		.2byte	0x2
 11248 0742 30       		.byte	0x30
 11249 0743 9F       		.byte	0x9f
 11250 0744 18000000 		.4byte	.LVL141
 11251 0748 98000000 		.4byte	.LVL156
 11252 074c 0100     		.2byte	0x1
 11253 074e 55       		.byte	0x55
 11254 074f 98000000 		.4byte	.LVL156
 11255 0753 9C000000 		.4byte	.LVL157
 11256 0757 0200     		.2byte	0x2
 11257 0759 30       		.byte	0x30
 11258 075a 9F       		.byte	0x9f
 11259 075b 9C000000 		.4byte	.LVL157
 11260 075f B6000000 		.4byte	.LVL161
 11261 0763 0100     		.2byte	0x1
 11262 0765 55       		.byte	0x55
 11263 0766 BA000000 		.4byte	.LVL162
 11264 076a BC000000 		.4byte	.LVL163
ARM GAS  C:\Users\AHMED~1.ELE\AppData\Local\Temp\ccGujCBB.s 			page 217


 11265 076e 0200     		.2byte	0x2
 11266 0770 31       		.byte	0x31
 11267 0771 9F       		.byte	0x9f
 11268 0772 BC000000 		.4byte	.LVL163
 11269 0776 CE000000 		.4byte	.LVL166
 11270 077a 0100     		.2byte	0x1
 11271 077c 55       		.byte	0x55
 11272 077d CE000000 		.4byte	.LVL166
 11273 0781 D8000000 		.4byte	.LVL168
 11274 0785 0300     		.2byte	0x3
 11275 0787 75       		.byte	0x75
 11276 0788 7F       		.sleb128 -1
 11277 0789 9F       		.byte	0x9f
 11278 078a D8000000 		.4byte	.LVL168
 11279 078e EA000000 		.4byte	.LVL171
 11280 0792 0100     		.2byte	0x1
 11281 0794 55       		.byte	0x55
 11282 0795 08010000 		.4byte	.LVL175
 11283 0799 0C010000 		.4byte	.LVL176
 11284 079d 0200     		.2byte	0x2
 11285 079f 30       		.byte	0x30
 11286 07a0 9F       		.byte	0x9f
 11287 07a1 0C010000 		.4byte	.LVL176
 11288 07a5 20010000 		.4byte	.LVL180
 11289 07a9 0100     		.2byte	0x1
 11290 07ab 55       		.byte	0x55
 11291 07ac 26010000 		.4byte	.LVL181
 11292 07b0 28010000 		.4byte	.LVL182
 11293 07b4 0200     		.2byte	0x2
 11294 07b6 30       		.byte	0x30
 11295 07b7 9F       		.byte	0x9f
 11296 07b8 28010000 		.4byte	.LVL182
 11297 07bc 2A010000 		.4byte	.LVL183
 11298 07c0 0100     		.2byte	0x1
 11299 07c2 55       		.byte	0x55
 11300 07c3 00000000 		.4byte	0
 11301 07c7 00000000 		.4byte	0
 11302              	.LLST45:
 11303 07cb D2000000 		.4byte	.LVL167
 11304 07cf DC000000 		.4byte	.LVL169
 11305 07d3 0100     		.2byte	0x1
 11306 07d5 53       		.byte	0x53
 11307 07d6 00000000 		.4byte	0
 11308 07da 00000000 		.4byte	0
 11309              	.LLST46:
 11310 07de 7E000000 		.4byte	.LVL152
 11311 07e2 90000000 		.4byte	.LVL154
 11312 07e6 0100     		.2byte	0x1
 11313 07e8 50       		.byte	0x50
 11314 07e9 90000000 		.4byte	.LVL154
 11315 07ed 94000000 		.4byte	.LVL155
 11316 07f1 0300     		.2byte	0x3
 11317 07f3 72       		.byte	0x72
 11318 07f4 30       		.sleb128 48
 11319 07f5 9F       		.byte	0x9f
 11320 07f6 A8000000 		.4byte	.LVL159
 11321 07fa CA000000 		.4byte	.LVL164
ARM GAS  C:\Users\AHMED~1.ELE\AppData\Local\Temp\ccGujCBB.s 			page 218


 11322 07fe 0100     		.2byte	0x1
 11323 0800 50       		.byte	0x50
 11324 0801 CA000000 		.4byte	.LVL164
 11325 0805 CC000000 		.4byte	.LVL165
 11326 0809 0300     		.2byte	0x3
 11327 080b 72       		.byte	0x72
 11328 080c 30       		.sleb128 48
 11329 080d 9F       		.byte	0x9f
 11330 080e E2000000 		.4byte	.LVL170
 11331 0812 EA000000 		.4byte	.LVL171
 11332 0816 0100     		.2byte	0x1
 11333 0818 50       		.byte	0x50
 11334 0819 0C010000 		.4byte	.LVL176
 11335 081d 2A010000 		.4byte	.LVL183
 11336 0821 0100     		.2byte	0x1
 11337 0823 50       		.byte	0x50
 11338 0824 00000000 		.4byte	0
 11339 0828 00000000 		.4byte	0
 11340              	.LLST47:
 11341 082c 3E000000 		.4byte	.LVL146
 11342 0830 44000000 		.4byte	.LVL147
 11343 0834 0100     		.2byte	0x1
 11344 0836 50       		.byte	0x50
 11345 0837 44000000 		.4byte	.LVL147
 11346 083b 76000000 		.4byte	.LVL151
 11347 083f 0100     		.2byte	0x1
 11348 0841 59       		.byte	0x59
 11349 0842 00000000 		.4byte	0
 11350 0846 00000000 		.4byte	0
 11351              	.LLST48:
 11352 084a 48000000 		.4byte	.LVL148
 11353 084e 53000000 		.4byte	.LVL149-1
 11354 0852 0100     		.2byte	0x1
 11355 0854 50       		.byte	0x50
 11356 0855 53000000 		.4byte	.LVL149-1
 11357 0859 76000000 		.4byte	.LVL151
 11358 085d 0100     		.2byte	0x1
 11359 085f 58       		.byte	0x58
 11360 0860 00000000 		.4byte	0
 11361 0864 00000000 		.4byte	0
 11362              	.LLST49:
 11363 0868 00000000 		.4byte	.LVL185
 11364 086c 10000000 		.4byte	.LVL186
 11365 0870 0100     		.2byte	0x1
 11366 0872 50       		.byte	0x50
 11367 0873 10000000 		.4byte	.LVL186
 11368 0877 4E000000 		.4byte	.LVL192
 11369 087b 0100     		.2byte	0x1
 11370 087d 56       		.byte	0x56
 11371 087e 4E000000 		.4byte	.LVL192
 11372 0882 54000000 		.4byte	.LFE20
 11373 0886 0400     		.2byte	0x4
 11374 0888 F3       		.byte	0xf3
 11375 0889 01       		.uleb128 0x1
 11376 088a 50       		.byte	0x50
 11377 088b 9F       		.byte	0x9f
 11378 088c 00000000 		.4byte	0
ARM GAS  C:\Users\AHMED~1.ELE\AppData\Local\Temp\ccGujCBB.s 			page 219


 11379 0890 00000000 		.4byte	0
 11380              	.LLST50:
 11381 0894 00000000 		.4byte	.LVL185
 11382 0898 12000000 		.4byte	.LVL187
 11383 089c 0100     		.2byte	0x1
 11384 089e 51       		.byte	0x51
 11385 089f 12000000 		.4byte	.LVL187
 11386 08a3 4E000000 		.4byte	.LVL192
 11387 08a7 0100     		.2byte	0x1
 11388 08a9 55       		.byte	0x55
 11389 08aa 4E000000 		.4byte	.LVL192
 11390 08ae 54000000 		.4byte	.LFE20
 11391 08b2 0400     		.2byte	0x4
 11392 08b4 F3       		.byte	0xf3
 11393 08b5 01       		.uleb128 0x1
 11394 08b6 51       		.byte	0x51
 11395 08b7 9F       		.byte	0x9f
 11396 08b8 00000000 		.4byte	0
 11397 08bc 00000000 		.4byte	0
 11398              	.LLST51:
 11399 08c0 00000000 		.4byte	.LVL193
 11400 08c4 06000000 		.4byte	.LVL194
 11401 08c8 0100     		.2byte	0x1
 11402 08ca 50       		.byte	0x50
 11403 08cb 06000000 		.4byte	.LVL194
 11404 08cf 0E000000 		.4byte	.LVL196
 11405 08d3 0600     		.2byte	0x6
 11406 08d5 70       		.byte	0x70
 11407 08d6 8080C000 		.sleb128 1048576
 11408 08da 9F       		.byte	0x9f
 11409 08db 0E000000 		.4byte	.LVL196
 11410 08df 68000000 		.4byte	.LFE21
 11411 08e3 0400     		.2byte	0x4
 11412 08e5 F3       		.byte	0xf3
 11413 08e6 01       		.uleb128 0x1
 11414 08e7 50       		.byte	0x50
 11415 08e8 9F       		.byte	0x9f
 11416 08e9 00000000 		.4byte	0
 11417 08ed 00000000 		.4byte	0
 11418              	.LLST53:
 11419 08f1 0C000000 		.4byte	.LVL195
 11420 08f5 5E000000 		.4byte	.LVL204
 11421 08f9 0200     		.2byte	0x2
 11422 08fb 45       		.byte	0x45
 11423 08fc 9F       		.byte	0x9f
 11424 08fd 00000000 		.4byte	0
 11425 0901 00000000 		.4byte	0
 11426              	.LLST54:
 11427 0905 14000000 		.4byte	.LVL197
 11428 0909 1F000000 		.4byte	.LVL198-1
 11429 090d 0100     		.2byte	0x1
 11430 090f 50       		.byte	0x50
 11431 0910 1F000000 		.4byte	.LVL198-1
 11432 0914 5E000000 		.4byte	.LVL204
 11433 0918 0100     		.2byte	0x1
 11434 091a 54       		.byte	0x54
 11435 091b 00000000 		.4byte	0
ARM GAS  C:\Users\AHMED~1.ELE\AppData\Local\Temp\ccGujCBB.s 			page 220


 11436 091f 00000000 		.4byte	0
 11437              	.LLST55:
 11438 0923 00000000 		.4byte	.LVL205
 11439 0927 08000000 		.4byte	.LVL207
 11440 092b 0100     		.2byte	0x1
 11441 092d 50       		.byte	0x50
 11442 092e 08000000 		.4byte	.LVL207
 11443 0932 60000000 		.4byte	.LVL215
 11444 0936 0100     		.2byte	0x1
 11445 0938 55       		.byte	0x55
 11446 0939 60000000 		.4byte	.LVL215
 11447 093d 64000000 		.4byte	.LVL216
 11448 0941 0400     		.2byte	0x4
 11449 0943 F3       		.byte	0xf3
 11450 0944 01       		.uleb128 0x1
 11451 0945 50       		.byte	0x50
 11452 0946 9F       		.byte	0x9f
 11453 0947 64000000 		.4byte	.LVL216
 11454 094b 6C000000 		.4byte	.LFE22
 11455 094f 0100     		.2byte	0x1
 11456 0951 50       		.byte	0x50
 11457 0952 00000000 		.4byte	0
 11458 0956 00000000 		.4byte	0
 11459              	.LLST56:
 11460 095a 06000000 		.4byte	.LVL206
 11461 095e 64000000 		.4byte	.LVL216
 11462 0962 0200     		.2byte	0x2
 11463 0964 3E       		.byte	0x3e
 11464 0965 9F       		.byte	0x9f
 11465 0966 00000000 		.4byte	0
 11466 096a 00000000 		.4byte	0
 11467              	.LLST57:
 11468 096e 0E000000 		.4byte	.LVL208
 11469 0972 19000000 		.4byte	.LVL209-1
 11470 0976 0100     		.2byte	0x1
 11471 0978 50       		.byte	0x50
 11472 0979 19000000 		.4byte	.LVL209-1
 11473 097d 60000000 		.4byte	.LVL215
 11474 0981 0100     		.2byte	0x1
 11475 0983 54       		.byte	0x54
 11476 0984 00000000 		.4byte	0
 11477 0988 00000000 		.4byte	0
 11478              	.LLST58:
 11479 098c 1E000000 		.4byte	.LVL220
 11480 0990 38000000 		.4byte	.LVL221
 11481 0994 0200     		.2byte	0x2
 11482 0996 30       		.byte	0x30
 11483 0997 9F       		.byte	0x9f
 11484 0998 00000000 		.4byte	0
 11485 099c 00000000 		.4byte	0
 11486              	.LLST60:
 11487 09a0 00000000 		.4byte	.LVL222
 11488 09a4 07000000 		.4byte	.LVL223-1
 11489 09a8 0100     		.2byte	0x1
 11490 09aa 50       		.byte	0x50
 11491 09ab 07000000 		.4byte	.LVL223-1
 11492 09af 5C000000 		.4byte	.LFE25
ARM GAS  C:\Users\AHMED~1.ELE\AppData\Local\Temp\ccGujCBB.s 			page 221


 11493 09b3 0100     		.2byte	0x1
 11494 09b5 56       		.byte	0x56
 11495 09b6 00000000 		.4byte	0
 11496 09ba 00000000 		.4byte	0
 11497              	.LLST61:
 11498 09be 0A000000 		.4byte	.LVL224
 11499 09c2 0E000000 		.4byte	.LVL225
 11500 09c6 0100     		.2byte	0x1
 11501 09c8 50       		.byte	0x50
 11502 09c9 0E000000 		.4byte	.LVL225
 11503 09cd 5C000000 		.4byte	.LFE25
 11504 09d1 0100     		.2byte	0x1
 11505 09d3 55       		.byte	0x55
 11506 09d4 00000000 		.4byte	0
 11507 09d8 00000000 		.4byte	0
 11508              	.LLST62:
 11509 09dc 12000000 		.4byte	.LVL226
 11510 09e0 1D000000 		.4byte	.LVL227-1
 11511 09e4 0100     		.2byte	0x1
 11512 09e6 50       		.byte	0x50
 11513 09e7 1D000000 		.4byte	.LVL227-1
 11514 09eb 5C000000 		.4byte	.LFE25
 11515 09ef 0100     		.2byte	0x1
 11516 09f1 54       		.byte	0x54
 11517 09f2 00000000 		.4byte	0
 11518 09f6 00000000 		.4byte	0
 11519              	.LLST63:
 11520 09fa 00000000 		.4byte	.LVL232
 11521 09fe 16000000 		.4byte	.LVL236
 11522 0a02 0100     		.2byte	0x1
 11523 0a04 50       		.byte	0x50
 11524 0a05 16000000 		.4byte	.LVL236
 11525 0a09 19000000 		.4byte	.LVL237-1
 11526 0a0d 0100     		.2byte	0x1
 11527 0a0f 52       		.byte	0x52
 11528 0a10 19000000 		.4byte	.LVL237-1
 11529 0a14 32000000 		.4byte	.LFE26
 11530 0a18 0100     		.2byte	0x1
 11531 0a1a 55       		.byte	0x55
 11532 0a1b 00000000 		.4byte	0
 11533 0a1f 00000000 		.4byte	0
 11534              	.LLST64:
 11535 0a23 00000000 		.4byte	.LVL232
 11536 0a27 14000000 		.4byte	.LVL235
 11537 0a2b 0100     		.2byte	0x1
 11538 0a2d 51       		.byte	0x51
 11539 0a2e 14000000 		.4byte	.LVL235
 11540 0a32 19000000 		.4byte	.LVL237-1
 11541 0a36 0100     		.2byte	0x1
 11542 0a38 53       		.byte	0x53
 11543 0a39 19000000 		.4byte	.LVL237-1
 11544 0a3d 32000000 		.4byte	.LFE26
 11545 0a41 0100     		.2byte	0x1
 11546 0a43 57       		.byte	0x57
 11547 0a44 00000000 		.4byte	0
 11548 0a48 00000000 		.4byte	0
 11549              	.LLST65:
ARM GAS  C:\Users\AHMED~1.ELE\AppData\Local\Temp\ccGujCBB.s 			page 222


 11550 0a4c 00000000 		.4byte	.LVL232
 11551 0a50 10000000 		.4byte	.LVL234
 11552 0a54 0100     		.2byte	0x1
 11553 0a56 52       		.byte	0x52
 11554 0a57 10000000 		.4byte	.LVL234
 11555 0a5b 32000000 		.4byte	.LFE26
 11556 0a5f 0100     		.2byte	0x1
 11557 0a61 56       		.byte	0x56
 11558 0a62 00000000 		.4byte	0
 11559 0a66 00000000 		.4byte	0
 11560              	.LLST66:
 11561 0a6a 00000000 		.4byte	.LVL232
 11562 0a6e 06000000 		.4byte	.LVL233
 11563 0a72 0100     		.2byte	0x1
 11564 0a74 53       		.byte	0x53
 11565 0a75 06000000 		.4byte	.LVL233
 11566 0a79 32000000 		.4byte	.LFE26
 11567 0a7d 0100     		.2byte	0x1
 11568 0a7f 54       		.byte	0x54
 11569 0a80 00000000 		.4byte	0
 11570 0a84 00000000 		.4byte	0
 11571              	.LLST67:
 11572 0a88 28000000 		.4byte	.LVL238
 11573 0a8c 2C000000 		.4byte	.LVL239
 11574 0a90 0100     		.2byte	0x1
 11575 0a92 50       		.byte	0x50
 11576 0a93 00000000 		.4byte	0
 11577 0a97 00000000 		.4byte	0
 11578              	.LLST68:
 11579 0a9b 00000000 		.4byte	.LVL240
 11580 0a9f 16000000 		.4byte	.LVL244
 11581 0aa3 0100     		.2byte	0x1
 11582 0aa5 50       		.byte	0x50
 11583 0aa6 16000000 		.4byte	.LVL244
 11584 0aaa 19000000 		.4byte	.LVL245-1
 11585 0aae 0100     		.2byte	0x1
 11586 0ab0 52       		.byte	0x52
 11587 0ab1 19000000 		.4byte	.LVL245-1
 11588 0ab5 38000000 		.4byte	.LVL251
 11589 0ab9 0100     		.2byte	0x1
 11590 0abb 55       		.byte	0x55
 11591 0abc 38000000 		.4byte	.LVL251
 11592 0ac0 74000000 		.4byte	.LFE27
 11593 0ac4 0400     		.2byte	0x4
 11594 0ac6 F3       		.byte	0xf3
 11595 0ac7 01       		.uleb128 0x1
 11596 0ac8 50       		.byte	0x50
 11597 0ac9 9F       		.byte	0x9f
 11598 0aca 00000000 		.4byte	0
 11599 0ace 00000000 		.4byte	0
 11600              	.LLST69:
 11601 0ad2 00000000 		.4byte	.LVL240
 11602 0ad6 10000000 		.4byte	.LVL242
 11603 0ada 0100     		.2byte	0x1
 11604 0adc 51       		.byte	0x51
 11605 0add 10000000 		.4byte	.LVL242
 11606 0ae1 19000000 		.4byte	.LVL245-1
ARM GAS  C:\Users\AHMED~1.ELE\AppData\Local\Temp\ccGujCBB.s 			page 223


 11607 0ae5 0100     		.2byte	0x1
 11608 0ae7 53       		.byte	0x53
 11609 0ae8 19000000 		.4byte	.LVL245-1
 11610 0aec 74000000 		.4byte	.LFE27
 11611 0af0 0400     		.2byte	0x4
 11612 0af2 F3       		.byte	0xf3
 11613 0af3 01       		.uleb128 0x1
 11614 0af4 51       		.byte	0x51
 11615 0af5 9F       		.byte	0x9f
 11616 0af6 00000000 		.4byte	0
 11617 0afa 00000000 		.4byte	0
 11618              	.LLST70:
 11619 0afe 00000000 		.4byte	.LVL240
 11620 0b02 12000000 		.4byte	.LVL243
 11621 0b06 0100     		.2byte	0x1
 11622 0b08 52       		.byte	0x52
 11623 0b09 12000000 		.4byte	.LVL243
 11624 0b0d 2C000000 		.4byte	.LVL247
 11625 0b11 0100     		.2byte	0x1
 11626 0b13 56       		.byte	0x56
 11627 0b14 2C000000 		.4byte	.LVL247
 11628 0b18 74000000 		.4byte	.LFE27
 11629 0b1c 0400     		.2byte	0x4
 11630 0b1e F3       		.byte	0xf3
 11631 0b1f 01       		.uleb128 0x1
 11632 0b20 52       		.byte	0x52
 11633 0b21 9F       		.byte	0x9f
 11634 0b22 00000000 		.4byte	0
 11635 0b26 00000000 		.4byte	0
 11636              	.LLST71:
 11637 0b2a 00000000 		.4byte	.LVL240
 11638 0b2e 0E000000 		.4byte	.LVL241
 11639 0b32 0100     		.2byte	0x1
 11640 0b34 53       		.byte	0x53
 11641 0b35 0E000000 		.4byte	.LVL241
 11642 0b39 6E000000 		.4byte	.LVL256
 11643 0b3d 0100     		.2byte	0x1
 11644 0b3f 54       		.byte	0x54
 11645 0b40 6E000000 		.4byte	.LVL256
 11646 0b44 74000000 		.4byte	.LFE27
 11647 0b48 0400     		.2byte	0x4
 11648 0b4a F3       		.byte	0xf3
 11649 0b4b 01       		.uleb128 0x1
 11650 0b4c 53       		.byte	0x53
 11651 0b4d 9F       		.byte	0x9f
 11652 0b4e 00000000 		.4byte	0
 11653 0b52 00000000 		.4byte	0
 11654              	.LLST72:
 11655 0b56 2C000000 		.4byte	.LVL247
 11656 0b5a 30000000 		.4byte	.LVL249
 11657 0b5e 0100     		.2byte	0x1
 11658 0b60 50       		.byte	0x50
 11659 0b61 30000000 		.4byte	.LVL249
 11660 0b65 6E000000 		.4byte	.LVL256
 11661 0b69 0100     		.2byte	0x1
 11662 0b6b 56       		.byte	0x56
 11663 0b6c 00000000 		.4byte	0
ARM GAS  C:\Users\AHMED~1.ELE\AppData\Local\Temp\ccGujCBB.s 			page 224


 11664 0b70 00000000 		.4byte	0
 11665              	.LLST73:
 11666 0b74 2E000000 		.4byte	.LVL248
 11667 0b78 64000000 		.4byte	.LVL255
 11668 0b7c 0200     		.2byte	0x2
 11669 0b7e 3C       		.byte	0x3c
 11670 0b7f 9F       		.byte	0x9f
 11671 0b80 00000000 		.4byte	0
 11672 0b84 00000000 		.4byte	0
 11673              	.LLST74:
 11674 0b88 36000000 		.4byte	.LVL250
 11675 0b8c 41000000 		.4byte	.LVL252-1
 11676 0b90 0100     		.2byte	0x1
 11677 0b92 50       		.byte	0x50
 11678 0b93 41000000 		.4byte	.LVL252-1
 11679 0b97 64000000 		.4byte	.LVL255
 11680 0b9b 0100     		.2byte	0x1
 11681 0b9d 55       		.byte	0x55
 11682 0b9e 00000000 		.4byte	0
 11683 0ba2 00000000 		.4byte	0
 11684              	.LLST75:
 11685 0ba6 00000000 		.4byte	.LVL257
 11686 0baa 08000000 		.4byte	.LVL258
 11687 0bae 0100     		.2byte	0x1
 11688 0bb0 50       		.byte	0x50
 11689 0bb1 08000000 		.4byte	.LVL258
 11690 0bb5 0C000000 		.4byte	.LFE28
 11691 0bb9 0400     		.2byte	0x4
 11692 0bbb F3       		.byte	0xf3
 11693 0bbc 01       		.uleb128 0x1
 11694 0bbd 50       		.byte	0x50
 11695 0bbe 9F       		.byte	0x9f
 11696 0bbf 00000000 		.4byte	0
 11697 0bc3 00000000 		.4byte	0
 11698              	.LLST76:
 11699 0bc7 00000000 		.4byte	.LVL259
 11700 0bcb 06000000 		.4byte	.LVL260
 11701 0bcf 0100     		.2byte	0x1
 11702 0bd1 50       		.byte	0x50
 11703 0bd2 06000000 		.4byte	.LVL260
 11704 0bd6 14000000 		.4byte	.LFE29
 11705 0bda 0300     		.2byte	0x3
 11706 0bdc 73       		.byte	0x73
 11707 0bdd 7D       		.sleb128 -3
 11708 0bde 9F       		.byte	0x9f
 11709 0bdf 00000000 		.4byte	0
 11710 0be3 00000000 		.4byte	0
 11711              	.LLST77:
 11712 0be7 00000000 		.4byte	.LVL259
 11713 0beb 06000000 		.4byte	.LVL260
 11714 0bef 0200     		.2byte	0x2
 11715 0bf1 30       		.byte	0x30
 11716 0bf2 9F       		.byte	0x9f
 11717 0bf3 06000000 		.4byte	.LVL260
 11718 0bf7 10000000 		.4byte	.LVL262
 11719 0bfb 0500     		.2byte	0x5
 11720 0bfd 70       		.byte	0x70
ARM GAS  C:\Users\AHMED~1.ELE\AppData\Local\Temp\ccGujCBB.s 			page 225


 11721 0bfe 00       		.sleb128 0
 11722 0bff 38       		.byte	0x38
 11723 0c00 24       		.byte	0x24
 11724 0c01 9F       		.byte	0x9f
 11725 0c02 10000000 		.4byte	.LVL262
 11726 0c06 14000000 		.4byte	.LFE29
 11727 0c0a 0100     		.2byte	0x1
 11728 0c0c 50       		.byte	0x50
 11729 0c0d 00000000 		.4byte	0
 11730 0c11 00000000 		.4byte	0
 11731              	.LLST78:
 11732 0c15 00000000 		.4byte	.LVL259
 11733 0c19 06000000 		.4byte	.LVL260
 11734 0c1d 0200     		.2byte	0x2
 11735 0c1f 30       		.byte	0x30
 11736 0c20 9F       		.byte	0x9f
 11737 0c21 06000000 		.4byte	.LVL260
 11738 0c25 0A000000 		.4byte	.LVL261
 11739 0c29 0600     		.2byte	0x6
 11740 0c2b 72       		.byte	0x72
 11741 0c2c 00       		.sleb128 0
 11742 0c2d 73       		.byte	0x73
 11743 0c2e 7C       		.sleb128 -4
 11744 0c2f 1C       		.byte	0x1c
 11745 0c30 9F       		.byte	0x9f
 11746 0c31 10000000 		.4byte	.LVL262
 11747 0c35 14000000 		.4byte	.LFE29
 11748 0c39 0600     		.2byte	0x6
 11749 0c3b 72       		.byte	0x72
 11750 0c3c 00       		.sleb128 0
 11751 0c3d 73       		.byte	0x73
 11752 0c3e 7C       		.sleb128 -4
 11753 0c3f 1C       		.byte	0x1c
 11754 0c40 9F       		.byte	0x9f
 11755 0c41 00000000 		.4byte	0
 11756 0c45 00000000 		.4byte	0
 11757              	.LLST79:
 11758 0c49 00000000 		.4byte	.LVL263
 11759 0c4d 10000000 		.4byte	.LVL264
 11760 0c51 0100     		.2byte	0x1
 11761 0c53 50       		.byte	0x50
 11762 0c54 10000000 		.4byte	.LVL264
 11763 0c58 20000000 		.4byte	.LVL267
 11764 0c5c 0100     		.2byte	0x1
 11765 0c5e 55       		.byte	0x55
 11766 0c5f 20000000 		.4byte	.LVL267
 11767 0c63 F4000000 		.4byte	.LFE30
 11768 0c67 0400     		.2byte	0x4
 11769 0c69 F3       		.byte	0xf3
 11770 0c6a 01       		.uleb128 0x1
 11771 0c6b 50       		.byte	0x50
 11772 0c6c 9F       		.byte	0x9f
 11773 0c6d 00000000 		.4byte	0
 11774 0c71 00000000 		.4byte	0
 11775              	.LLST80:
 11776 0c75 00000000 		.4byte	.LVL263
 11777 0c79 12000000 		.4byte	.LVL265
ARM GAS  C:\Users\AHMED~1.ELE\AppData\Local\Temp\ccGujCBB.s 			page 226


 11778 0c7d 0100     		.2byte	0x1
 11779 0c7f 51       		.byte	0x51
 11780 0c80 12000000 		.4byte	.LVL265
 11781 0c84 F4000000 		.4byte	.LFE30
 11782 0c88 0400     		.2byte	0x4
 11783 0c8a F3       		.byte	0xf3
 11784 0c8b 01       		.uleb128 0x1
 11785 0c8c 51       		.byte	0x51
 11786 0c8d 9F       		.byte	0x9f
 11787 0c8e 00000000 		.4byte	0
 11788 0c92 00000000 		.4byte	0
 11789              	.LLST81:
 11790 0c96 50000000 		.4byte	.LVL272
 11791 0c9a 68000000 		.4byte	.LVL275
 11792 0c9e 0200     		.2byte	0x2
 11793 0ca0 41       		.byte	0x41
 11794 0ca1 9F       		.byte	0x9f
 11795 0ca2 00000000 		.4byte	0
 11796 0ca6 00000000 		.4byte	0
 11797              	.LLST82:
 11798 0caa 58000000 		.4byte	.LVL273
 11799 0cae 63000000 		.4byte	.LVL274-1
 11800 0cb2 0100     		.2byte	0x1
 11801 0cb4 50       		.byte	0x50
 11802 0cb5 63000000 		.4byte	.LVL274-1
 11803 0cb9 68000000 		.4byte	.LVL275
 11804 0cbd 0100     		.2byte	0x1
 11805 0cbf 55       		.byte	0x55
 11806 0cc0 00000000 		.4byte	0
 11807 0cc4 00000000 		.4byte	0
 11808              	.LLST83:
 11809 0cc8 7C000000 		.4byte	.LVL277
 11810 0ccc 92000000 		.4byte	.LVL280
 11811 0cd0 0200     		.2byte	0x2
 11812 0cd2 43       		.byte	0x43
 11813 0cd3 9F       		.byte	0x9f
 11814 0cd4 00000000 		.4byte	0
 11815 0cd8 00000000 		.4byte	0
 11816              	.LLST84:
 11817 0cdc 84000000 		.4byte	.LVL278
 11818 0ce0 8F000000 		.4byte	.LVL279-1
 11819 0ce4 0100     		.2byte	0x1
 11820 0ce6 50       		.byte	0x50
 11821 0ce7 8F000000 		.4byte	.LVL279-1
 11822 0ceb 92000000 		.4byte	.LVL280
 11823 0cef 0100     		.2byte	0x1
 11824 0cf1 55       		.byte	0x55
 11825 0cf2 00000000 		.4byte	0
 11826 0cf6 00000000 		.4byte	0
 11827              	.LLST85:
 11828 0cfa 00000000 		.4byte	.LVL287
 11829 0cfe 0B000000 		.4byte	.LVL288-1
 11830 0d02 0100     		.2byte	0x1
 11831 0d04 50       		.byte	0x50
 11832 0d05 0B000000 		.4byte	.LVL288-1
 11833 0d09 5A000000 		.4byte	.LVL296
 11834 0d0d 0100     		.2byte	0x1
ARM GAS  C:\Users\AHMED~1.ELE\AppData\Local\Temp\ccGujCBB.s 			page 227


 11835 0d0f 55       		.byte	0x55
 11836 0d10 5A000000 		.4byte	.LVL296
 11837 0d14 EC000000 		.4byte	.LFE31
 11838 0d18 0400     		.2byte	0x4
 11839 0d1a F3       		.byte	0xf3
 11840 0d1b 01       		.uleb128 0x1
 11841 0d1c 50       		.byte	0x50
 11842 0d1d 9F       		.byte	0x9f
 11843 0d1e 00000000 		.4byte	0
 11844 0d22 00000000 		.4byte	0
 11845              	.LLST86:
 11846 0d26 00000000 		.4byte	.LVL287
 11847 0d2a 0B000000 		.4byte	.LVL288-1
 11848 0d2e 0100     		.2byte	0x1
 11849 0d30 51       		.byte	0x51
 11850 0d31 0B000000 		.4byte	.LVL288-1
 11851 0d35 EC000000 		.4byte	.LFE31
 11852 0d39 0400     		.2byte	0x4
 11853 0d3b F3       		.byte	0xf3
 11854 0d3c 01       		.uleb128 0x1
 11855 0d3d 51       		.byte	0x51
 11856 0d3e 9F       		.byte	0x9f
 11857 0d3f 00000000 		.4byte	0
 11858 0d43 00000000 		.4byte	0
 11859              	.LLST87:
 11860 0d47 12000000 		.4byte	.LVL289
 11861 0d4b 4E000000 		.4byte	.LVL295
 11862 0d4f 0200     		.2byte	0x2
 11863 0d51 45       		.byte	0x45
 11864 0d52 9F       		.byte	0x9f
 11865 0d53 00000000 		.4byte	0
 11866 0d57 00000000 		.4byte	0
 11867              	.LLST88:
 11868 0d5b 1A000000 		.4byte	.LVL290
 11869 0d5f 25000000 		.4byte	.LVL291-1
 11870 0d63 0100     		.2byte	0x1
 11871 0d65 50       		.byte	0x50
 11872 0d66 25000000 		.4byte	.LVL291-1
 11873 0d6a 4E000000 		.4byte	.LVL295
 11874 0d6e 0100     		.2byte	0x1
 11875 0d70 54       		.byte	0x54
 11876 0d71 00000000 		.4byte	0
 11877 0d75 00000000 		.4byte	0
 11878              	.LLST89:
 11879 0d79 9A000000 		.4byte	.LVL302
 11880 0d7d DA000000 		.4byte	.LVL308
 11881 0d81 0200     		.2byte	0x2
 11882 0d83 44       		.byte	0x44
 11883 0d84 9F       		.byte	0x9f
 11884 0d85 00000000 		.4byte	0
 11885 0d89 00000000 		.4byte	0
 11886              	.LLST90:
 11887 0d8d A2000000 		.4byte	.LVL303
 11888 0d91 AD000000 		.4byte	.LVL304-1
 11889 0d95 0100     		.2byte	0x1
 11890 0d97 50       		.byte	0x50
 11891 0d98 AD000000 		.4byte	.LVL304-1
ARM GAS  C:\Users\AHMED~1.ELE\AppData\Local\Temp\ccGujCBB.s 			page 228


 11892 0d9c DA000000 		.4byte	.LVL308
 11893 0da0 0100     		.2byte	0x1
 11894 0da2 55       		.byte	0x55
 11895 0da3 00000000 		.4byte	0
 11896 0da7 00000000 		.4byte	0
 11897              	.LLST91:
 11898 0dab 26000000 		.4byte	.LVL310
 11899 0daf 32000000 		.4byte	.LVL311
 11900 0db3 0100     		.2byte	0x1
 11901 0db5 50       		.byte	0x50
 11902 0db6 58000000 		.4byte	.LVL315
 11903 0dba 5E000000 		.4byte	.LVL316
 11904 0dbe 0100     		.2byte	0x1
 11905 0dc0 50       		.byte	0x50
 11906 0dc1 00000000 		.4byte	0
 11907 0dc5 00000000 		.4byte	0
 11908              		.section	.debug_aranges,"",%progbits
 11909 0000 1C010000 		.4byte	0x11c
 11910 0004 0200     		.2byte	0x2
 11911 0006 00000000 		.4byte	.Ldebug_info0
 11912 000a 04       		.byte	0x4
 11913 000b 00       		.byte	0
 11914 000c 0000     		.2byte	0
 11915 000e 0000     		.2byte	0
 11916 0010 00000000 		.4byte	.LFB0
 11917 0014 0C000000 		.4byte	.LFE0-.LFB0
 11918 0018 00000000 		.4byte	.LFB1
 11919 001c 0C000000 		.4byte	.LFE1-.LFB1
 11920 0020 00000000 		.4byte	.LFB2
 11921 0024 0C000000 		.4byte	.LFE2-.LFB2
 11922 0028 00000000 		.4byte	.LFB3
 11923 002c 0C000000 		.4byte	.LFE3-.LFB3
 11924 0030 00000000 		.4byte	.LFB4
 11925 0034 44000000 		.4byte	.LFE4-.LFB4
 11926 0038 00000000 		.4byte	.LFB5
 11927 003c 08000000 		.4byte	.LFE5-.LFB5
 11928 0040 00000000 		.4byte	.LFB6
 11929 0044 28000000 		.4byte	.LFE6-.LFB6
 11930 0048 00000000 		.4byte	.LFB7
 11931 004c 48000000 		.4byte	.LFE7-.LFB7
 11932 0050 00000000 		.4byte	.LFB8
 11933 0054 36000000 		.4byte	.LFE8-.LFB8
 11934 0058 00000000 		.4byte	.LFB9
 11935 005c 38000000 		.4byte	.LFE9-.LFB9
 11936 0060 00000000 		.4byte	.LFB10
 11937 0064 80000000 		.4byte	.LFE10-.LFB10
 11938 0068 00000000 		.4byte	.LFB11
 11939 006c BC000000 		.4byte	.LFE11-.LFB11
 11940 0070 00000000 		.4byte	.LFB12
 11941 0074 26000000 		.4byte	.LFE12-.LFB12
 11942 0078 00000000 		.4byte	.LFB13
 11943 007c 1A000000 		.4byte	.LFE13-.LFB13
 11944 0080 00000000 		.4byte	.LFB14
 11945 0084 84000000 		.4byte	.LFE14-.LFB14
 11946 0088 00000000 		.4byte	.LFB15
 11947 008c 5A000000 		.4byte	.LFE15-.LFB15
 11948 0090 00000000 		.4byte	.LFB16
ARM GAS  C:\Users\AHMED~1.ELE\AppData\Local\Temp\ccGujCBB.s 			page 229


 11949 0094 08000000 		.4byte	.LFE16-.LFB16
 11950 0098 00000000 		.4byte	.LFB17
 11951 009c 14000000 		.4byte	.LFE17-.LFB17
 11952 00a0 00000000 		.4byte	.LFB18
 11953 00a4 88000000 		.4byte	.LFE18-.LFB18
 11954 00a8 00000000 		.4byte	.LFB19
 11955 00ac 34010000 		.4byte	.LFE19-.LFB19
 11956 00b0 00000000 		.4byte	.LFB20
 11957 00b4 54000000 		.4byte	.LFE20-.LFB20
 11958 00b8 00000000 		.4byte	.LFB21
 11959 00bc 68000000 		.4byte	.LFE21-.LFB21
 11960 00c0 00000000 		.4byte	.LFB22
 11961 00c4 6C000000 		.4byte	.LFE22-.LFB22
 11962 00c8 00000000 		.4byte	.LFB23
 11963 00cc 16000000 		.4byte	.LFE23-.LFB23
 11964 00d0 00000000 		.4byte	.LFB24
 11965 00d4 44000000 		.4byte	.LFE24-.LFB24
 11966 00d8 00000000 		.4byte	.LFB25
 11967 00dc 5C000000 		.4byte	.LFE25-.LFB25
 11968 00e0 00000000 		.4byte	.LFB26
 11969 00e4 32000000 		.4byte	.LFE26-.LFB26
 11970 00e8 00000000 		.4byte	.LFB27
 11971 00ec 74000000 		.4byte	.LFE27-.LFB27
 11972 00f0 00000000 		.4byte	.LFB28
 11973 00f4 0C000000 		.4byte	.LFE28-.LFB28
 11974 00f8 00000000 		.4byte	.LFB29
 11975 00fc 14000000 		.4byte	.LFE29-.LFB29
 11976 0100 00000000 		.4byte	.LFB30
 11977 0104 F4000000 		.4byte	.LFE30-.LFB30
 11978 0108 00000000 		.4byte	.LFB31
 11979 010c EC000000 		.4byte	.LFE31-.LFB31
 11980 0110 00000000 		.4byte	.LFB32
 11981 0114 94000000 		.4byte	.LFE32-.LFB32
 11982 0118 00000000 		.4byte	0
 11983 011c 00000000 		.4byte	0
 11984              		.section	.debug_ranges,"",%progbits
 11985              	.Ldebug_ranges0:
 11986 0000 04000000 		.4byte	.LBB2
 11987 0004 3A000000 		.4byte	.LBE2
 11988 0008 40000000 		.4byte	.LBB3
 11989 000c 44000000 		.4byte	.LBE3
 11990 0010 00000000 		.4byte	0
 11991 0014 00000000 		.4byte	0
 11992 0018 76000000 		.4byte	.LBB5
 11993 001c 7C000000 		.4byte	.LBE5
 11994 0020 80000000 		.4byte	.LBB6
 11995 0024 B6000000 		.4byte	.LBE6
 11996 0028 00000000 		.4byte	0
 11997 002c 00000000 		.4byte	0
 11998 0030 00000000 		.4byte	.LFB0
 11999 0034 0C000000 		.4byte	.LFE0
 12000 0038 00000000 		.4byte	.LFB1
 12001 003c 0C000000 		.4byte	.LFE1
 12002 0040 00000000 		.4byte	.LFB2
 12003 0044 0C000000 		.4byte	.LFE2
 12004 0048 00000000 		.4byte	.LFB3
 12005 004c 0C000000 		.4byte	.LFE3
ARM GAS  C:\Users\AHMED~1.ELE\AppData\Local\Temp\ccGujCBB.s 			page 230


 12006 0050 00000000 		.4byte	.LFB4
 12007 0054 44000000 		.4byte	.LFE4
 12008 0058 00000000 		.4byte	.LFB5
 12009 005c 08000000 		.4byte	.LFE5
 12010 0060 00000000 		.4byte	.LFB6
 12011 0064 28000000 		.4byte	.LFE6
 12012 0068 00000000 		.4byte	.LFB7
 12013 006c 48000000 		.4byte	.LFE7
 12014 0070 00000000 		.4byte	.LFB8
 12015 0074 36000000 		.4byte	.LFE8
 12016 0078 00000000 		.4byte	.LFB9
 12017 007c 38000000 		.4byte	.LFE9
 12018 0080 00000000 		.4byte	.LFB10
 12019 0084 80000000 		.4byte	.LFE10
 12020 0088 00000000 		.4byte	.LFB11
 12021 008c BC000000 		.4byte	.LFE11
 12022 0090 00000000 		.4byte	.LFB12
 12023 0094 26000000 		.4byte	.LFE12
 12024 0098 00000000 		.4byte	.LFB13
 12025 009c 1A000000 		.4byte	.LFE13
 12026 00a0 00000000 		.4byte	.LFB14
 12027 00a4 84000000 		.4byte	.LFE14
 12028 00a8 00000000 		.4byte	.LFB15
 12029 00ac 5A000000 		.4byte	.LFE15
 12030 00b0 00000000 		.4byte	.LFB16
 12031 00b4 08000000 		.4byte	.LFE16
 12032 00b8 00000000 		.4byte	.LFB17
 12033 00bc 14000000 		.4byte	.LFE17
 12034 00c0 00000000 		.4byte	.LFB18
 12035 00c4 88000000 		.4byte	.LFE18
 12036 00c8 00000000 		.4byte	.LFB19
 12037 00cc 34010000 		.4byte	.LFE19
 12038 00d0 00000000 		.4byte	.LFB20
 12039 00d4 54000000 		.4byte	.LFE20
 12040 00d8 00000000 		.4byte	.LFB21
 12041 00dc 68000000 		.4byte	.LFE21
 12042 00e0 00000000 		.4byte	.LFB22
 12043 00e4 6C000000 		.4byte	.LFE22
 12044 00e8 00000000 		.4byte	.LFB23
 12045 00ec 16000000 		.4byte	.LFE23
 12046 00f0 00000000 		.4byte	.LFB24
 12047 00f4 44000000 		.4byte	.LFE24
 12048 00f8 00000000 		.4byte	.LFB25
 12049 00fc 5C000000 		.4byte	.LFE25
 12050 0100 00000000 		.4byte	.LFB26
 12051 0104 32000000 		.4byte	.LFE26
 12052 0108 00000000 		.4byte	.LFB27
 12053 010c 74000000 		.4byte	.LFE27
 12054 0110 00000000 		.4byte	.LFB28
 12055 0114 0C000000 		.4byte	.LFE28
 12056 0118 00000000 		.4byte	.LFB29
 12057 011c 14000000 		.4byte	.LFE29
 12058 0120 00000000 		.4byte	.LFB30
 12059 0124 F4000000 		.4byte	.LFE30
 12060 0128 00000000 		.4byte	.LFB31
 12061 012c EC000000 		.4byte	.LFE31
 12062 0130 00000000 		.4byte	.LFB32
ARM GAS  C:\Users\AHMED~1.ELE\AppData\Local\Temp\ccGujCBB.s 			page 231


 12063 0134 94000000 		.4byte	.LFE32
 12064 0138 00000000 		.4byte	0
 12065 013c 00000000 		.4byte	0
 12066              		.section	.debug_line,"",%progbits
 12067              	.Ldebug_line0:
 12068 0000 C2050000 		.section	.debug_str,"MS",%progbits,1
 12068      02004901 
 12068      00000201 
 12068      FB0E0D00 
 12068      01010101 
 12069              	.LASF556:
 12070 0000 4B5F4346 		.ascii	"K_CF_NotDelAppData\000"
 12070      5F4E6F74 
 12070      44656C41 
 12070      70704461 
 12070      746100
 12071              	.LASF327:
 12072 0013 4F535F46 		.ascii	"OS_FN_CLICC_LED_OPEN\000"
 12072      4E5F434C 
 12072      4943435F 
 12072      4C45445F 
 12072      4F50454E 
 12073              	.LASF819:
 12074 0028 61446174 		.ascii	"aDat\000"
 12074      00
 12075              	.LASF478:
 12076 002d 4F535F46 		.ascii	"OS_FN_GPRS_SET_PIN_STATUS\000"
 12076      4E5F4750 
 12076      52535F53 
 12076      45545F50 
 12076      494E5F53 
 12077              	.LASF10:
 12078 0047 63686172 		.ascii	"char\000"
 12078      00
 12079              	.LASF315:
 12080 004c 4F535F46 		.ascii	"OS_FN_CODEC_CLOSE\000"
 12080      4E5F434F 
 12080      4445435F 
 12080      434C4F53 
 12080      4500
 12081              	.LASF427:
 12082 005e 4F535F46 		.ascii	"OS_FN_GET_CALLID\000"
 12082      4E5F4745 
 12082      545F4341 
 12082      4C4C4944 
 12082      00
 12083              	.LASF528:
 12084 006f 4B5F4346 		.ascii	"K_CF_MdmHandshakeDelay\000"
 12084      5F4D646D 
 12084      48616E64 
 12084      7368616B 
 12084      6544656C 
 12085              	.LASF193:
 12086 0086 4F535F46 		.ascii	"OS_FN_FILE_INIT_SEARCH\000"
 12086      4E5F4649 
 12086      4C455F49 
 12086      4E49545F 
ARM GAS  C:\Users\AHMED~1.ELE\AppData\Local\Temp\ccGujCBB.s 			page 232


 12086      53454152 
 12087              	.LASF11:
 12088 009d 73697A65 		.ascii	"size_t\000"
 12088      5F7400
 12089              	.LASF173:
 12090 00a4 4F535F46 		.ascii	"OS_FN_FILE_SEEK\000"
 12090      4E5F4649 
 12090      4C455F53 
 12090      45454B00 
 12091              	.LASF9:
 12092 00b4 73697A65 		.ascii	"sizetype\000"
 12092      74797065 
 12092      00
 12093              	.LASF850:
 12094 00bd 45646974 		.ascii	"EditPort\000"
 12094      506F7274 
 12094      00
 12095              	.LASF165:
 12096 00c6 4F535F46 		.ascii	"OS_FN_FILE_CREATE_OWNER\000"
 12096      4E5F4649 
 12096      4C455F43 
 12096      52454154 
 12096      455F4F57 
 12097              	.LASF576:
 12098 00de 4B5F4346 		.ascii	"K_CF_WIFI_GATEWAY\000"
 12098      5F574946 
 12098      495F4741 
 12098      54455741 
 12098      5900
 12099              	.LASF647:
 12100 00f0 42535F46 		.ascii	"BS_FN_PPP_UPTIME\000"
 12100      4E5F5050 
 12100      505F5550 
 12100      54494D45 
 12100      00
 12101              	.LASF303:
 12102 0101 4F535F46 		.ascii	"OS_FN_GPRS_SMS_SEND\000"
 12102      4E5F4750 
 12102      52535F53 
 12102      4D535F53 
 12102      454E4400 
 12103              	.LASF550:
 12104 0115 4B5F4346 		.ascii	"K_CF_LptStamp\000"
 12104      5F4C7074 
 12104      5374616D 
 12104      7000
 12105              	.LASF545:
 12106 0123 4B5F4346 		.ascii	"K_CF_ARPMac\000"
 12106      5F415250 
 12106      4D616300 
 12107              	.LASF789:
 12108 012f 62486F75 		.ascii	"bHour\000"
 12108      7200
 12109              	.LASF764:
 12110 0135 41504D5F 		.ascii	"APM_SDEV_MSR\000"
 12110      53444556 
 12110      5F4D5352 
ARM GAS  C:\Users\AHMED~1.ELE\AppData\Local\Temp\ccGujCBB.s 			page 233


 12110      00
 12111              	.LASF332:
 12112 0142 4F535F46 		.ascii	"OS_FN_CLICC_LED_ON\000"
 12112      4E5F434C 
 12112      4943435F 
 12112      4C45445F 
 12112      4F4E00
 12113              	.LASF800:
 12114 0155 44656C61 		.ascii	"Delay1Sec\000"
 12114      79315365 
 12114      6300
 12115              	.LASF339:
 12116 015f 4F535F46 		.ascii	"OS_FN_USBHOST_DEVICEMAP\000"
 12116      4E5F5553 
 12116      42484F53 
 12116      545F4445 
 12116      56494345 
 12117              	.LASF716:
 12118 0177 464F5045 		.ascii	"FOPENMW\000"
 12118      4E4D5700 
 12119              	.LASF668:
 12120 017f 42535F46 		.ascii	"BS_FN_HTTP_CONNECT\000"
 12120      4E5F4854 
 12120      54505F43 
 12120      4F4E4E45 
 12120      435400
 12121              	.LASF124:
 12122 0192 4F535F46 		.ascii	"OS_FN_KEY_DUKPT_ENCRYPT\000"
 12122      4E5F4B45 
 12122      595F4455 
 12122      4B50545F 
 12122      454E4352 
 12123              	.LASF457:
 12124 01aa 4F535F46 		.ascii	"OS_FN_GCM_AES_OPEN\000"
 12124      4E5F4743 
 12124      4D5F4145 
 12124      535F4F50 
 12124      454E00
 12125              	.LASF741:
 12126 01bd 44495350 		.ascii	"DISP_SETPMW\000"
 12126      5F534554 
 12126      504D5700 
 12127              	.LASF314:
 12128 01c9 4F535F46 		.ascii	"OS_FN_CODEC_OPEN\000"
 12128      4E5F434F 
 12128      4445435F 
 12128      4F50454E 
 12128      00
 12129              	.LASF749:
 12130 01da 534D535F 		.ascii	"SMS_TX_MW\000"
 12130      54585F4D 
 12130      5700
 12131              	.LASF81:
 12132 01e4 4F535F46 		.ascii	"OS_FN_COM3_SREAD\000"
 12132      4E5F434F 
 12132      4D335F53 
 12132      52454144 
ARM GAS  C:\Users\AHMED~1.ELE\AppData\Local\Temp\ccGujCBB.s 			page 234


 12132      00
 12133              	.LASF169:
 12134 01f5 4F535F46 		.ascii	"OS_FN_FILE_EXIST\000"
 12134      4E5F4649 
 12134      4C455F45 
 12134      58495354 
 12134      00
 12135              	.LASF479:
 12136 0206 4F535F46 		.ascii	"OS_FN_IMG_SENSOR_LED_OPEN\000"
 12136      4E5F494D 
 12136      475F5345 
 12136      4E534F52 
 12136      5F4C4544 
 12137              	.LASF118:
 12138 0220 4F535F46 		.ascii	"OS_FN_SM4_DECRYPT\000"
 12138      4E5F534D 
 12138      345F4445 
 12138      43525950 
 12138      5400
 12139              	.LASF505:
 12140 0232 4B5F4346 		.ascii	"K_CF_UDPPort\000"
 12140      5F554450 
 12140      506F7274 
 12140      00
 12141              	.LASF487:
 12142 023f 4F535F46 		.ascii	"OS_FN_GPS_GET_DETAIL_INFO\000"
 12142      4E5F4750 
 12142      535F4745 
 12142      545F4445 
 12142      5441494C 
 12143              	.LASF853:
 12144 0259 61507472 		.ascii	"aPtr\000"
 12144      00
 12145              	.LASF600:
 12146 025e 42535F46 		.ascii	"BS_FN_TCP_SEND\000"
 12146      4E5F5443 
 12146      505F5345 
 12146      4E4400
 12147              	.LASF572:
 12148 026d 4B5F4346 		.ascii	"K_CF_GPS_PowerOnOff\000"
 12148      5F475053 
 12148      5F506F77 
 12148      65724F6E 
 12148      4F666600 
 12149              	.LASF299:
 12150 0281 4F535F46 		.ascii	"OS_FN_GPRS_GET_CID\000"
 12150      4E5F4750 
 12150      52535F47 
 12150      45545F43 
 12150      494400
 12151              	.LASF368:
 12152 0294 4F535F46 		.ascii	"OS_FN_TAMPER_RESET_STATUS\000"
 12152      4E5F5441 
 12152      4D504552 
 12152      5F524553 
 12152      45545F53 
 12153              	.LASF441:
ARM GAS  C:\Users\AHMED~1.ELE\AppData\Local\Temp\ccGujCBB.s 			page 235


 12154 02ae 4F535F46 		.ascii	"OS_FN_POWER\000"
 12154      4E5F504F 
 12154      57455200 
 12155              	.LASF780:
 12156 02ba 77506F73 		.ascii	"wPosX\000"
 12156      5800
 12157              	.LASF781:
 12158 02c0 77506F73 		.ascii	"wPosY\000"
 12158      5900
 12159              	.LASF627:
 12160 02c6 42535F46 		.ascii	"BS_FN_PPP_OPEN\000"
 12160      4E5F5050 
 12160      505F4F50 
 12160      454E00
 12161              	.LASF289:
 12162 02d5 4F535F46 		.ascii	"OS_FN_ADC_CH_DISABLE\000"
 12162      4E5F4144 
 12162      435F4348 
 12162      5F444953 
 12162      41424C45 
 12163              	.LASF215:
 12164 02ea 4F535F46 		.ascii	"OS_FN_MMC_SIZE\000"
 12164      4E5F4D4D 
 12164      435F5349 
 12164      5A4500
 12165              	.LASF673:
 12166 02f9 42535F46 		.ascii	"BS_FN_CLIENTCERT_INJECT\000"
 12166      4E5F434C 
 12166      49454E54 
 12166      43455254 
 12166      5F494E4A 
 12167              	.LASF484:
 12168 0311 4F535F46 		.ascii	"OS_FN_TAMPER_UNLOCK\000"
 12168      4E5F5441 
 12168      4D504552 
 12168      5F554E4C 
 12168      4F434B00 
 12169              	.LASF182:
 12170 0325 4F535F46 		.ascii	"OS_FN_FILE_DSEARCH_ALL\000"
 12170      4E5F4649 
 12170      4C455F44 
 12170      53454152 
 12170      43485F41 
 12171              	.LASF436:
 12172 033c 4F535F46 		.ascii	"OS_FN_DMK_KVC_READ\000"
 12172      4E5F444D 
 12172      4B5F4B56 
 12172      435F5245 
 12172      414400
 12173              	.LASF28:
 12174 034f 4F535F46 		.ascii	"OS_FN_TIMER_SET\000"
 12174      4E5F5449 
 12174      4D45525F 
 12174      53455400 
 12175              	.LASF522:
 12176 035f 4B5F4346 		.ascii	"K_CF_SimSelect\000"
 12176      5F53696D 
ARM GAS  C:\Users\AHMED~1.ELE\AppData\Local\Temp\ccGujCBB.s 			page 236


 12176      53656C65 
 12176      637400
 12177              	.LASF463:
 12178 036e 4F535F46 		.ascii	"OS_FN_SYS_THREAD_CREATE\000"
 12178      4E5F5359 
 12178      535F5448 
 12178      52454144 
 12178      5F435245 
 12179              	.LASF676:
 12180 0386 42535F46 		.ascii	"BS_FN_NET_ENABLE\000"
 12180      4E5F4E45 
 12180      545F454E 
 12180      41424C45 
 12180      00
 12181              	.LASF146:
 12182 0397 4F535F46 		.ascii	"OS_FN_BUFMAN_FREE\000"
 12182      4E5F4255 
 12182      464D414E 
 12182      5F465245 
 12182      4500
 12183              	.LASF294:
 12184 03a9 4F535F46 		.ascii	"OS_FN_GPRS_AT_RESP\000"
 12184      4E5F4750 
 12184      52535F41 
 12184      545F5245 
 12184      535000
 12185              	.LASF818:
 12186 03bc 614C6F63 		.ascii	"aLoc\000"
 12186      00
 12187              	.LASF828:
 12188 03c1 746D7062 		.ascii	"tmpbuf\000"
 12188      756600
 12189              	.LASF814:
 12190 03c8 614C6F67 		.ascii	"aLogoDat\000"
 12190      6F446174 
 12190      00
 12191              	.LASF489:
 12192 03d1 4B5F4346 		.ascii	"K_CF_Version\000"
 12192      5F566572 
 12192      73696F6E 
 12192      00
 12193              	.LASF633:
 12194 03de 42535F46 		.ascii	"BS_FN_PPP_SET_SPEED\000"
 12194      4E5F5050 
 12194      505F5345 
 12194      545F5350 
 12194      45454400 
 12195              	.LASF537:
 12196 03f2 4B5F4346 		.ascii	"K_CF_CurRdllInf\000"
 12196      5F437572 
 12196      52646C6C 
 12196      496E6600 
 12197              	.LASF754:
 12198 0402 46465452 		.ascii	"FFTRUNCATEMW\000"
 12198      554E4341 
 12198      54454D57 
 12198      00
ARM GAS  C:\Users\AHMED~1.ELE\AppData\Local\Temp\ccGujCBB.s 			page 237


 12199              	.LASF490:
 12200 040f 4B5F4346 		.ascii	"K_CF_DebugMode\000"
 12200      5F446562 
 12200      75674D6F 
 12200      646500
 12201              	.LASF678:
 12202 041e 42535F46 		.ascii	"BS_FN_NET_STATUS\000"
 12202      4E5F4E45 
 12202      545F5354 
 12202      41545553 
 12202      00
 12203              	.LASF630:
 12204 042f 42535F46 		.ascii	"BS_FN_PPP_SET_MTU\000"
 12204      4E5F5050 
 12204      505F5345 
 12204      545F4D54 
 12204      5500
 12205              	.LASF356:
 12206 0441 4F535F46 		.ascii	"OS_FN_USBOTG_GET_STATE\000"
 12206      4E5F5553 
 12206      424F5447 
 12206      5F474554 
 12206      5F535441 
 12207              	.LASF477:
 12208 0458 4F535F46 		.ascii	"OS_FN_GPRS_IS_HL6RD_OLD_FRM\000"
 12208      4E5F4750 
 12208      52535F49 
 12208      535F484C 
 12208      3652445F 
 12209              	.LASF241:
 12210 0474 4F535F46 		.ascii	"OS_FN_LPT_PUTC\000"
 12210      4E5F4C50 
 12210      545F5055 
 12210      544300
 12211              	.LASF278:
 12212 0483 4F535F46 		.ascii	"OS_FN_MCOM_TXRDY\000"
 12212      4E5F4D43 
 12212      4F4D5F54 
 12212      58524459 
 12212      00
 12213              	.LASF802:
 12214 0494 61426565 		.ascii	"aBeepReqd\000"
 12214      70526571 
 12214      6400
 12215              	.LASF768:
 12216 049e 41504D5F 		.ascii	"APM_SDEV_CDC\000"
 12216      53444556 
 12216      5F434443 
 12216      00
 12217              	.LASF516:
 12218 04ab 4B5F4346 		.ascii	"K_CF_TimeStamp\000"
 12218      5F54696D 
 12218      65537461 
 12218      6D7000
 12219              	.LASF599:
 12220 04ba 42535F46 		.ascii	"BS_FN_TCP_DISCONNECT\000"
 12220      4E5F5443 
ARM GAS  C:\Users\AHMED~1.ELE\AppData\Local\Temp\ccGujCBB.s 			page 238


 12220      505F4449 
 12220      53434F4E 
 12220      4E454354 
 12221              	.LASF49:
 12222 04cf 4F535F46 		.ascii	"OS_FN_DISP_BRIGHTNESS\000"
 12222      4E5F4449 
 12222      53505F42 
 12222      52494748 
 12222      544E4553 
 12223              	.LASF305:
 12224 04e5 4F535F46 		.ascii	"OS_FN_GPRS_SMS_READ\000"
 12224      4E5F4750 
 12224      52535F53 
 12224      4D535F52 
 12224      45414400 
 12225              	.LASF731:
 12226 04f9 49434349 		.ascii	"ICCINSERTEDMW\000"
 12226      4E534552 
 12226      5445444D 
 12226      5700
 12227              	.LASF296:
 12228 0507 4F535F46 		.ascii	"OS_FN_GPRS_READ\000"
 12228      4E5F4750 
 12228      52535F52 
 12228      45414400 
 12229              	.LASF593:
 12230 0517 55534246 		.ascii	"USBFPRT_GENERAL_INFO_IMG_BPP\000"
 12230      5052545F 
 12230      47454E45 
 12230      52414C5F 
 12230      494E464F 
 12231              	.LASF616:
 12232 0534 42535F46 		.ascii	"BS_FN_PHONE_LINE\000"
 12232      4E5F5048 
 12232      4F4E455F 
 12232      4C494E45 
 12232      00
 12233              	.LASF757:
 12234 0545 4D575F4E 		.ascii	"MW_NIF_INFO\000"
 12234      49465F49 
 12234      4E464F00 
 12235              	.LASF189:
 12236 0551 4F535F46 		.ascii	"OS_FN_FILE_GET_FREE_SPACE\000"
 12236      4E5F4649 
 12236      4C455F47 
 12236      45545F46 
 12236      5245455F 
 12237              	.LASF129:
 12238 056b 4F535F46 		.ascii	"OS_FN_KEY_SAVE_NC\000"
 12238      4E5F4B45 
 12238      595F5341 
 12238      56455F4E 
 12238      4300
 12239              	.LASF468:
 12240 057d 4F535F46 		.ascii	"OS_FN_WIFI_SOCKET_SEND_UDP\000"
 12240      4E5F5749 
 12240      46495F53 
ARM GAS  C:\Users\AHMED~1.ELE\AppData\Local\Temp\ccGujCBB.s 			page 239


 12240      4F434B45 
 12240      545F5345 
 12241              	.LASF687:
 12242 0598 42535F46 		.ascii	"BS_FN_TCP_EXTRA_CONTROL_RESET\000"
 12242      4E5F5443 
 12242      505F4558 
 12242      5452415F 
 12242      434F4E54 
 12243              	.LASF439:
 12244 05b6 4F535F46 		.ascii	"OS_FN_RMB_CONTROL\000"
 12244      4E5F524D 
 12244      425F434F 
 12244      4E54524F 
 12244      4C00
 12245              	.LASF109:
 12246 05c8 4F535F46 		.ascii	"OS_FN_SM2_GET_SIGNATURE\000"
 12246      4E5F534D 
 12246      325F4745 
 12246      545F5349 
 12246      474E4154 
 12247              	.LASF75:
 12248 05e0 4F535F46 		.ascii	"OS_FN_COM3_CLOSE\000"
 12248      4E5F434F 
 12248      4D335F43 
 12248      4C4F5345 
 12248      00
 12249              	.LASF470:
 12250 05f1 4F535F46 		.ascii	"OS_FN_WIFI_SOCKET_GET_STATUS\000"
 12250      4E5F5749 
 12250      46495F53 
 12250      4F434B45 
 12250      545F4745 
 12251              	.LASF35:
 12252 060e 4F535F46 		.ascii	"OS_FN_RTC_SET\000"
 12252      4E5F5254 
 12252      435F5345 
 12252      5400
 12253              	.LASF338:
 12254 061c 4F535F46 		.ascii	"OS_FN_USBHOST_DEVINFO\000"
 12254      4E5F5553 
 12254      42484F53 
 12254      545F4445 
 12254      56494E46 
 12255              	.LASF235:
 12256 0632 4F535F46 		.ascii	"OS_FN_MSR_RXLEN\000"
 12256      4E5F4D53 
 12256      525F5258 
 12256      4C454E00 
 12257              	.LASF759:
 12258 0642 775F6873 		.ascii	"w_hstart\000"
 12258      74617274 
 12258      00
 12259              	.LASF348:
 12260 064b 4F535F46 		.ascii	"OS_FN_DEVICE_SEARCH_NEXT\000"
 12260      4E5F4445 
 12260      56494345 
 12260      5F534541 
ARM GAS  C:\Users\AHMED~1.ELE\AppData\Local\Temp\ccGujCBB.s 			page 240


 12260      5243485F 
 12261              	.LASF94:
 12262 0664 4F535F46 		.ascii	"OS_FN_AES_ENCRYPT_BLOCK\000"
 12262      4E5F4145 
 12262      535F454E 
 12262      43525950 
 12262      545F424C 
 12263              	.LASF179:
 12264 067c 4F535F46 		.ascii	"OS_FN_FILE_END\000"
 12264      4E5F4649 
 12264      4C455F45 
 12264      4E4400
 12265              	.LASF515:
 12266 068b 4B5F4346 		.ascii	"K_CF_DMK\000"
 12266      5F444D4B 
 12266      00
 12267              	.LASF206:
 12268 0694 4F535F46 		.ascii	"OS_FN_SAM_SELECT\000"
 12268      4E5F5341 
 12268      4D5F5345 
 12268      4C454354 
 12268      00
 12269              	.LASF423:
 12270 06a5 4F535F46 		.ascii	"OS_FN_GPS_ENABLED\000"
 12270      4E5F4750 
 12270      535F454E 
 12270      41424C45 
 12270      4400
 12271              	.LASF399:
 12272 06b7 4F535F46 		.ascii	"OS_FN_BARCODE_STATUS\000"
 12272      4E5F4241 
 12272      52434F44 
 12272      455F5354 
 12272      41545553 
 12273              	.LASF526:
 12274 06cc 4B5F4346 		.ascii	"K_CF_MdmCountry\000"
 12274      5F4D646D 
 12274      436F756E 
 12274      74727900 
 12275              	.LASF644:
 12276 06dc 42535F46 		.ascii	"BS_FN_PPP_LOGIN_WRITE\000"
 12276      4E5F5050 
 12276      505F4C4F 
 12276      47494E5F 
 12276      57524954 
 12277              	.LASF204:
 12278 06f2 4F535F46 		.ascii	"OS_FN_SAM_OPEN\000"
 12278      4E5F5341 
 12278      4D5F4F50 
 12278      454E00
 12279              	.LASF558:
 12280 0701 4B5F4346 		.ascii	"K_CF_MdmHypercomAnsToneTo\000"
 12280      5F4D646D 
 12280      48797065 
 12280      72636F6D 
 12280      416E7354 
 12281              	.LASF729:
ARM GAS  C:\Users\AHMED~1.ELE\AppData\Local\Temp\ccGujCBB.s 			page 241


 12282 071b 44455332 		.ascii	"DES2MW\000"
 12282      4D5700
 12283              	.LASF102:
 12284 0722 4F535F46 		.ascii	"OS_FN_SHA_FINISH\000"
 12284      4E5F5348 
 12284      415F4649 
 12284      4E495348 
 12284      00
 12285              	.LASF383:
 12286 0733 4F535F46 		.ascii	"OS_FN_MIF_INC\000"
 12286      4E5F4D49 
 12286      465F494E 
 12286      4300
 12287              	.LASF421:
 12288 0741 4F535F46 		.ascii	"OS_FN_GPS_RESP\000"
 12288      4E5F4750 
 12288      535F5245 
 12288      535000
 12289              	.LASF185:
 12290 0750 4F535F46 		.ascii	"OS_FN_FILE_GET_NAME\000"
 12290      4E5F4649 
 12290      4C455F47 
 12290      45545F4E 
 12290      414D4500 
 12291              	.LASF856:
 12292 0764 614D656D 		.ascii	"aMemPtr\000"
 12292      50747200 
 12293              	.LASF902:
 12294 076c 7372632F 		.ascii	"src/sysutil.c\000"
 12294      73797375 
 12294      74696C2E 
 12294      6300
 12295              	.LASF851:
 12296 077a 61506F72 		.ascii	"aPort\000"
 12296      7400
 12297              	.LASF706:
 12298 0780 434C4F53 		.ascii	"CLOSEMW\000"
 12298      454D5700 
 12299              	.LASF95:
 12300 0788 4F535F46 		.ascii	"OS_FN_AES_DECRYPT_BLOCK\000"
 12300      4E5F4145 
 12300      535F4445 
 12300      43525950 
 12300      545F424C 
 12301              	.LASF121:
 12302 07a0 4F535F46 		.ascii	"OS_FN_KEY_DES\000"
 12302      4E5F4B45 
 12302      595F4445 
 12302      5300
 12303              	.LASF827:
 12304 07ae 6E657874 		.ascii	"next_line\000"
 12304      5F6C696E 
 12304      6500
 12305              	.LASF684:
 12306 07b8 42535F46 		.ascii	"BS_FN_TCP_CONNECT2\000"
 12306      4E5F5443 
 12306      505F434F 
ARM GAS  C:\Users\AHMED~1.ELE\AppData\Local\Temp\ccGujCBB.s 			page 242


 12306      4E4E4543 
 12306      543200
 12307              	.LASF13:
 12308 07cb 42595445 		.ascii	"BYTE\000"
 12308      00
 12309              	.LASF406:
 12310 07d0 4F535F46 		.ascii	"OS_FN_WIFI_PROFILES_WRITE\000"
 12310      4E5F5749 
 12310      46495F50 
 12310      524F4649 
 12310      4C45535F 
 12311              	.LASF119:
 12312 07ea 4F535F46 		.ascii	"OS_FN_KEY_SAVE\000"
 12312      4E5F4B45 
 12312      595F5341 
 12312      564500
 12313              	.LASF92:
 12314 07f9 4F535F46 		.ascii	"OS_FN_RSA_PRIVATE\000"
 12314      4E5F5253 
 12314      415F5052 
 12314      49564154 
 12314      4500
 12315              	.LASF254:
 12316 080b 4F535F46 		.ascii	"OS_FN_FL_PGM\000"
 12316      4E5F464C 
 12316      5F50474D 
 12316      00
 12317              	.LASF196:
 12318 0818 4F535F46 		.ascii	"OS_FN_FILE_RMDIR\000"
 12318      4E5F4649 
 12318      4C455F52 
 12318      4D444952 
 12318      00
 12319              	.LASF896:
 12320 0829 61746F69 		.ascii	"atoi\000"
 12320      00
 12321              	.LASF722:
 12322 082e 46434F4D 		.ascii	"FCOMMITALLMW\000"
 12322      4D495441 
 12322      4C4C4D57 
 12322      00
 12323              	.LASF442:
 12324 083b 4F535F46 		.ascii	"OS_FN_CLICC_DEBUG\000"
 12324      4E5F434C 
 12324      4943435F 
 12324      44454255 
 12324      4700
 12325              	.LASF385:
 12326 084d 4F535F46 		.ascii	"OS_FN_MIF_RESTORE\000"
 12326      4E5F4D49 
 12326      465F5245 
 12326      53544F52 
 12326      4500
 12327              	.LASF280:
 12328 085f 4F535F46 		.ascii	"OS_FN_MCOM_SSEND\000"
 12328      4E5F4D43 
 12328      4F4D5F53 
ARM GAS  C:\Users\AHMED~1.ELE\AppData\Local\Temp\ccGujCBB.s 			page 243


 12328      53454E44 
 12328      00
 12329              	.LASF688:
 12330 0870 42535F46 		.ascii	"BS_FN_TCP_EXTRA_CONTROL_SET\000"
 12330      4E5F5443 
 12330      505F4558 
 12330      5452415F 
 12330      434F4E54 
 12331              	.LASF810:
 12332 088c 614D6F64 		.ascii	"aMode\000"
 12332      6500
 12333              	.LASF453:
 12334 0892 4F535F46 		.ascii	"OS_FN_FPRT_INFO_GET\000"
 12334      4E5F4650 
 12334      52545F49 
 12334      4E464F5F 
 12334      47455400 
 12335              	.LASF219:
 12336 08a6 4F535F46 		.ascii	"OS_FN_MMC_READ\000"
 12336      4E5F4D4D 
 12336      435F5245 
 12336      414400
 12337              	.LASF198:
 12338 08b5 4F535F46 		.ascii	"OS_FN_FILE_SYNC\000"
 12338      4E5F4649 
 12338      4C455F53 
 12338      594E4300 
 12339              	.LASF449:
 12340 08c5 4F535F46 		.ascii	"OS_FN_FPRT_OPEN\000"
 12340      4E5F4650 
 12340      52545F4F 
 12340      50454E00 
 12341              	.LASF696:
 12342 08d5 42535F46 		.ascii	"BS_FN_UDP_WIFI_SOCKET_UPDATE_STATE\000"
 12342      4E5F5544 
 12342      505F5749 
 12342      46495F53 
 12342      4F434B45 
 12343              	.LASF717:
 12344 08f8 46434C4F 		.ascii	"FCLOSEMW\000"
 12344      53454D57 
 12344      00
 12345              	.LASF712:
 12346 0901 4745544C 		.ascii	"GETLASTERRMW\000"
 12346      41535445 
 12346      52524D57 
 12346      00
 12347              	.LASF236:
 12348 090e 4F535F46 		.ascii	"OS_FN_MSR_GETC\000"
 12348      4E5F4D53 
 12348      525F4745 
 12348      544300
 12349              	.LASF705:
 12350 091d 4F50454E 		.ascii	"OPENMW\000"
 12350      4D5700
 12351              	.LASF287:
 12352 0924 4F535F46 		.ascii	"OS_FN_BATT_CHARGE_MODE\000"
ARM GAS  C:\Users\AHMED~1.ELE\AppData\Local\Temp\ccGujCBB.s 			page 244


 12352      4E5F4241 
 12352      54545F43 
 12352      48415247 
 12352      455F4D4F 
 12353              	.LASF391:
 12354 093b 4F535F46 		.ascii	"OS_FN_MIF_INFO_SET\000"
 12354      4E5F4D49 
 12354      465F494E 
 12354      464F5F53 
 12354      455400
 12355              	.LASF567:
 12356 094e 4B5F4346 		.ascii	"K_CF_ArpAlways\000"
 12356      5F417270 
 12356      416C7761 
 12356      797300
 12357              	.LASF5:
 12358 095d 6C6F6E67 		.ascii	"long int\000"
 12358      20696E74 
 12358      00
 12359              	.LASF277:
 12360 0966 4F535F46 		.ascii	"OS_FN_MCOM_RXRDY\000"
 12360      4E5F4D43 
 12360      4F4D5F52 
 12360      58524459 
 12360      00
 12361              	.LASF890:
 12362 0977 6D656D6D 		.ascii	"memmove\000"
 12362      6F766500 
 12363              	.LASF613:
 12364 097f 42535F46 		.ascii	"BS_FN_ICMP_READ\000"
 12364      4E5F4943 
 12364      4D505F52 
 12364      45414400 
 12365              	.LASF611:
 12366 098f 42535F46 		.ascii	"BS_FN_ICMP_CONFIG\000"
 12366      4E5F4943 
 12366      4D505F43 
 12366      4F4E4649 
 12366      4700
 12367              	.LASF145:
 12368 09a1 4F535F46 		.ascii	"OS_FN_BUFMAN_ALLOC\000"
 12368      4E5F4255 
 12368      464D414E 
 12368      5F414C4C 
 12368      4F4300
 12369              	.LASF573:
 12370 09b4 4B5F4346 		.ascii	"K_CF_WIFI_IP_CONFIG\000"
 12370      5F574946 
 12370      495F4950 
 12370      5F434F4E 
 12370      46494700 
 12371              	.LASF56:
 12372 09c8 4F535F46 		.ascii	"OS_FN_COM1_OPEN\000"
 12372      4E5F434F 
 12372      4D315F4F 
 12372      50454E00 
 12373              	.LASF300:
ARM GAS  C:\Users\AHMED~1.ELE\AppData\Local\Temp\ccGujCBB.s 			page 245


 12374 09d8 4F535F46 		.ascii	"OS_FN_GPRS_READ_USSD\000"
 12374      4E5F4750 
 12374      52535F52 
 12374      4541445F 
 12374      55535344 
 12375              	.LASF111:
 12376 09ed 4F535F46 		.ascii	"OS_FN_SM2_ENCRYPT\000"
 12376      4E5F534D 
 12376      325F454E 
 12376      43525950 
 12376      5400
 12377              	.LASF598:
 12378 09ff 42535F46 		.ascii	"BS_FN_TCP_CONNECT\000"
 12378      4E5F5443 
 12378      505F434F 
 12378      4E4E4543 
 12378      5400
 12379              	.LASF662:
 12380 0a11 42535F46 		.ascii	"BS_FN_DNS_OPEN\000"
 12380      4E5F444E 
 12380      535F4F50 
 12380      454E00
 12381              	.LASF863:
 12382 0a20 52656164 		.ascii	"ReadSFile\000"
 12382      5346696C 
 12382      6500
 12383              	.LASF460:
 12384 0a2a 4F535F46 		.ascii	"OS_FN_GCM_AES_PROCESS\000"
 12384      4E5F4743 
 12384      4D5F4145 
 12384      535F5052 
 12384      4F434553 
 12385              	.LASF344:
 12386 0a40 4F535F46 		.ascii	"OS_FN_DEVICE_UNREGISTER\000"
 12386      4E5F4445 
 12386      56494345 
 12386      5F554E52 
 12386      45474953 
 12387              	.LASF587:
 12388 0a58 4B5F4346 		.ascii	"K_CF_WIFI_SCAN_REGION\000"
 12388      5F574946 
 12388      495F5343 
 12388      414E5F52 
 12388      4547494F 
 12389              	.LASF646:
 12390 0a6e 42535F46 		.ascii	"BS_FN_PPP_SET_TIMEOUT\000"
 12390      4E5F5050 
 12390      505F5345 
 12390      545F5449 
 12390      4D454F55 
 12391              	.LASF108:
 12392 0a84 4F535F46 		.ascii	"OS_FN_SM2_FREE_CURVE\000"
 12392      4E5F534D 
 12392      325F4652 
 12392      45455F43 
 12392      55525645 
 12393              	.LASF485:
ARM GAS  C:\Users\AHMED~1.ELE\AppData\Local\Temp\ccGujCBB.s 			page 246


 12394 0a99 4F535F46 		.ascii	"OS_FN_BATT_LEVEL2\000"
 12394      4E5F4241 
 12394      54545F4C 
 12394      4556454C 
 12394      3200
 12395              	.LASF288:
 12396 0aab 4F535F46 		.ascii	"OS_FN_ADC_CH_ENABLE\000"
 12396      4E5F4144 
 12396      435F4348 
 12396      5F454E41 
 12396      424C4500 
 12397              	.LASF675:
 12398 0abf 42535F46 		.ascii	"BS_FN_NET_NIF_INFO2\000"
 12398      4E5F4E45 
 12398      545F4E49 
 12398      465F494E 
 12398      464F3200 
 12399              	.LASF685:
 12400 0ad3 42535F46 		.ascii	"BS_FN_TCP_EXTRA_CONTROL_ALLOC\000"
 12400      4E5F5443 
 12400      505F4558 
 12400      5452415F 
 12400      434F4E54 
 12401              	.LASF260:
 12402 0af1 4F535F46 		.ascii	"OS_FN_FL_COPYB_START\000"
 12402      4E5F464C 
 12402      5F434F50 
 12402      59425F53 
 12402      54415254 
 12403              	.LASF47:
 12404 0b06 4F535F46 		.ascii	"OS_FN_DISP_TEXTC\000"
 12404      4E5F4449 
 12404      53505F54 
 12404      45585443 
 12404      00
 12405              	.LASF815:
 12406 0b17 614C6F67 		.ascii	"aLogoSize\000"
 12406      6F53697A 
 12406      6500
 12407              	.LASF420:
 12408 0b21 4F535F46 		.ascii	"OS_FN_GPS_CMD\000"
 12408      4E5F4750 
 12408      535F434D 
 12408      4400
 12409              	.LASF319:
 12410 0b2f 4F535F46 		.ascii	"OS_FN_CODEC_STATUS\000"
 12410      4E5F434F 
 12410      4445435F 
 12410      53544154 
 12410      555300
 12411              	.LASF181:
 12412 0b42 4F535F46 		.ascii	"OS_FN_FILE_DSEARCH\000"
 12412      4E5F4649 
 12412      4C455F44 
 12412      53454152 
 12412      434800
 12413              	.LASF564:
ARM GAS  C:\Users\AHMED~1.ELE\AppData\Local\Temp\ccGujCBB.s 			page 247


 12414 0b55 4B5F4346 		.ascii	"K_CF_AbecsEnable\000"
 12414      5F416265 
 12414      6373456E 
 12414      61626C65 
 12414      00
 12415              	.LASF775:
 12416 0b66 54494D45 		.ascii	"TIMER_DEFAULTAPP\000"
 12416      525F4445 
 12416      4641554C 
 12416      54415050 
 12416      00
 12417              	.LASF404:
 12418 0b77 4F535F46 		.ascii	"OS_FN_WIFI_STATUS\000"
 12418      4E5F5749 
 12418      46495F53 
 12418      54415455 
 12418      5300
 12419              	.LASF748:
 12420 0b89 534D535F 		.ascii	"SMS_RX_MW\000"
 12420      52585F4D 
 12420      5700
 12421              	.LASF594:
 12422 0b93 55534246 		.ascii	"USBFPRT_GENERAL_INFO_END\000"
 12422      5052545F 
 12422      47454E45 
 12422      52414C5F 
 12422      494E464F 
 12423              	.LASF36:
 12424 0bac 4F535F46 		.ascii	"OS_FN_DISP_OPEN\000"
 12424      4E5F4449 
 12424      53505F4F 
 12424      50454E00 
 12425              	.LASF38:
 12426 0bbc 4F535F46 		.ascii	"OS_FN_DISP_PUTC\000"
 12426      4E5F4449 
 12426      53505F50 
 12426      55544300 
 12427              	.LASF326:
 12428 0bcc 4F535F46 		.ascii	"OS_FN_CLICC_EMV_LV1\000"
 12428      4E5F434C 
 12428      4943435F 
 12428      454D565F 
 12428      4C563100 
 12429              	.LASF807:
 12430 0be0 61436E74 		.ascii	"aCnt\000"
 12430      00
 12431              	.LASF42:
 12432 0be5 4F535F46 		.ascii	"OS_FN_DISP_PUTG\000"
 12432      4E5F4449 
 12432      53505F50 
 12432      55544700 
 12433              	.LASF132:
 12434 0bf5 4F535F46 		.ascii	"OS_FN_KEY_SAVE_TMK_CBC_NC\000"
 12434      4E5F4B45 
 12434      595F5341 
 12434      56455F54 
 12434      4D4B5F43 
ARM GAS  C:\Users\AHMED~1.ELE\AppData\Local\Temp\ccGujCBB.s 			page 248


 12435              	.LASF714:
 12436 0c0f 46435245 		.ascii	"FCREATEMW\000"
 12436      4154454D 
 12436      5700
 12437              	.LASF607:
 12438 0c19 42535F46 		.ascii	"BS_FN_UDP_SEND\000"
 12438      4E5F5544 
 12438      505F5345 
 12438      4E4400
 12439              	.LASF40:
 12440 0c28 4F535F46 		.ascii	"OS_FN_DISP_PUTN\000"
 12440      4E5F4449 
 12440      53505F50 
 12440      55544E00 
 12441              	.LASF473:
 12442 0c38 4F535F46 		.ascii	"OS_FN_IMG_SENSOR_GET_FRAME\000"
 12442      4E5F494D 
 12442      475F5345 
 12442      4E534F52 
 12442      5F474554 
 12443              	.LASF43:
 12444 0c53 4F535F46 		.ascii	"OS_FN_DISP_PUTP\000"
 12444      4E5F4449 
 12444      53505F50 
 12444      55545000 
 12445              	.LASF434:
 12446 0c63 4F535F46 		.ascii	"OS_FN_DUMMY\000"
 12446      4E5F4455 
 12446      4D4D5900 
 12447              	.LASF318:
 12448 0c6f 4F535F46 		.ascii	"OS_FN_CODEC_STOP\000"
 12448      4E5F434F 
 12448      4445435F 
 12448      53544F50 
 12448      00
 12449              	.LASF39:
 12450 0c80 4F535F46 		.ascii	"OS_FN_DISP_PUTS\000"
 12450      4E5F4449 
 12450      53505F50 
 12450      55545300 
 12451              	.LASF201:
 12452 0c90 4F535F46 		.ascii	"OS_FN_CONFIG_READ\000"
 12452      4E5F434F 
 12452      4E464947 
 12452      5F524541 
 12452      4400
 12453              	.LASF784:
 12454 0ca2 44415445 		.ascii	"DATETIME\000"
 12454      54494D45 
 12454      00
 12455              	.LASF502:
 12456 0cab 4B5F4346 		.ascii	"K_CF_Gateway\000"
 12456      5F476174 
 12456      65776179 
 12456      00
 12457              	.LASF248:
 12458 0cb8 4F535F46 		.ascii	"OS_FN_USBSER_STATUS\000"
ARM GAS  C:\Users\AHMED~1.ELE\AppData\Local\Temp\ccGujCBB.s 			page 249


 12458      4E5F5553 
 12458      42534552 
 12458      5F535441 
 12458      54555300 
 12459              	.LASF690:
 12460 0ccc 42535F46 		.ascii	"BS_FN_FTP_CONNECT2\000"
 12460      4E5F4654 
 12460      505F434F 
 12460      4E4E4543 
 12460      543200
 12461              	.LASF770:
 12462 0cdf 41504D5F 		.ascii	"APM_SDEV_WIFI\000"
 12462      53444556 
 12462      5F574946 
 12462      4900
 12463              	.LASF407:
 12464 0ced 4F535F46 		.ascii	"OS_FN_NFC_OPEN_FELICA\000"
 12464      4E5F4E46 
 12464      435F4F50 
 12464      454E5F46 
 12464      454C4943 
 12465              	.LASF154:
 12466 0d03 4F535F46 		.ascii	"OS_FN_LED_ON\000"
 12466      4E5F4C45 
 12466      445F4F4E 
 12466      00
 12467              	.LASF905:
 12468 0d10 6754696D 		.ascii	"gTimerHdl\000"
 12468      65724864 
 12468      6C00
 12469              	.LASF787:
 12470 0d1a 624D6F6E 		.ascii	"bMonth\000"
 12470      746800
 12471              	.LASF661:
 12472 0d21 42535F46 		.ascii	"BS_FN_LAN_STATUS\000"
 12472      4E5F4C41 
 12472      4E5F5354 
 12472      41545553 
 12472      00
 12473              	.LASF150:
 12474 0d32 4F535F46 		.ascii	"OS_FN_LED_CLOSE\000"
 12474      4E5F4C45 
 12474      445F434C 
 12474      4F534500 
 12475              	.LASF740:
 12476 0d42 44495350 		.ascii	"DISP_LINEMW\000"
 12476      5F4C494E 
 12476      454D5700 
 12477              	.LASF503:
 12478 0d4e 4B5F4346 		.ascii	"K_CF_DNS1\000"
 12478      5F444E53 
 12478      3100
 12479              	.LASF166:
 12480 0d58 4F535F46 		.ascii	"OS_FN_FILE_OPEN\000"
 12480      4E5F4649 
 12480      4C455F4F 
 12480      50454E00 
ARM GAS  C:\Users\AHMED~1.ELE\AppData\Local\Temp\ccGujCBB.s 			page 250


 12481              	.LASF176:
 12482 0d68 4F535F46 		.ascii	"OS_FN_FILE_PUTC\000"
 12482      4E5F4649 
 12482      4C455F50 
 12482      55544300 
 12483              	.LASF142:
 12484 0d78 4F535F46 		.ascii	"OS_FN_THREAD_PUSH\000"
 12484      4E5F5448 
 12484      52454144 
 12484      5F505553 
 12484      4800
 12485              	.LASF663:
 12486 0d8a 42535F46 		.ascii	"BS_FN_DNS_CLOSE\000"
 12486      4E5F444E 
 12486      535F434C 
 12486      4F534500 
 12487              	.LASF803:
 12488 0d9a 66726565 		.ascii	"free_run\000"
 12488      5F72756E 
 12488      00
 12489              	.LASF699:
 12490 0da3 645F6970 		.ascii	"d_ip\000"
 12490      00
 12491              	.LASF700:
 12492 0da8 645F6E65 		.ascii	"d_netmask\000"
 12492      746D6173 
 12492      6B00
 12493              	.LASF730:
 12494 0db2 44495350 		.ascii	"DISPLOGOMW\000"
 12494      4C4F474F 
 12494      4D5700
 12495              	.LASF435:
 12496 0dbd 4F535F46 		.ascii	"OS_FN_OFF\000"
 12496      4E5F4F46 
 12496      4600
 12497              	.LASF207:
 12498 0dc7 4F535F46 		.ascii	"OS_FN_SAM_INSERTED\000"
 12498      4E5F5341 
 12498      4D5F494E 
 12498      53455254 
 12498      454400
 12499              	.LASF96:
 12500 0dda 4F535F46 		.ascii	"OS_FN_SHA1\000"
 12500      4E5F5348 
 12500      413100
 12501              	.LASF524:
 12502 0de5 4B5F4346 		.ascii	"K_CF_SmsEnable\000"
 12502      5F536D73 
 12502      456E6162 
 12502      6C6500
 12503              	.LASF838:
 12504 0df4 46726565 		.ascii	"FreeRunMark\000"
 12504      52756E4D 
 12504      61726B00 
 12505              	.LASF711:
 12506 0e00 53544154 		.ascii	"STATMW\000"
 12506      4D5700
ARM GAS  C:\Users\AHMED~1.ELE\AppData\Local\Temp\ccGujCBB.s 			page 251


 12507              	.LASF19:
 12508 0e07 4F535F46 		.ascii	"OS_FN_KBD_OPEN\000"
 12508      4E5F4B42 
 12508      445F4F50 
 12508      454E00
 12509              	.LASF772:
 12510 0e16 54494D45 		.ascii	"TIMER_GEN\000"
 12510      525F4745 
 12510      4E00
 12511              	.LASF126:
 12512 0e20 4F535F46 		.ascii	"OS_FN_KEY_CUP_MAC\000"
 12512      4E5F4B45 
 12512      595F4355 
 12512      505F4D41 
 12512      4300
 12513              	.LASF881:
 12514 0e32 6C69625F 		.ascii	"lib_app_call\000"
 12514      6170705F 
 12514      63616C6C 
 12514      00
 12515              	.LASF52:
 12516 0e3f 4F535F46 		.ascii	"OS_FN_DISP_ICON_PUTC\000"
 12516      4E5F4449 
 12516      53505F49 
 12516      434F4E5F 
 12516      50555443 
 12517              	.LASF200:
 12518 0e54 4F535F46 		.ascii	"OS_FN_CONFIG_LENGTH\000"
 12518      4E5F434F 
 12518      4E464947 
 12518      5F4C454E 
 12518      47544800 
 12519              	.LASF263:
 12520 0e68 4F535F46 		.ascii	"OS_FN_FL_CREAD_RAND\000"
 12520      4E5F464C 
 12520      5F435245 
 12520      41445F52 
 12520      414E4400 
 12521              	.LASF721:
 12522 0e7c 46575249 		.ascii	"FWRITEMW\000"
 12522      54454D57 
 12522      00
 12523              	.LASF579:
 12524 0e85 4B5F4346 		.ascii	"K_CF_CLICC_CFG\000"
 12524      5F434C49 
 12524      43435F43 
 12524      464700
 12525              	.LASF724:
 12526 0e94 46445345 		.ascii	"FDSEARCHMW\000"
 12526      41524348 
 12526      4D5700
 12527              	.LASF806:
 12528 0e9f 44656C61 		.ascii	"Delay10ms\000"
 12528      7931306D 
 12528      7300
 12529              	.LASF136:
 12530 0ea9 4F535F46 		.ascii	"OS_FN_THREAD_OPEN\000"
ARM GAS  C:\Users\AHMED~1.ELE\AppData\Local\Temp\ccGujCBB.s 			page 252


 12530      4E5F5448 
 12530      52454144 
 12530      5F4F5045 
 12530      4E00
 12531              	.LASF175:
 12532 0ebb 4F535F46 		.ascii	"OS_FN_FILE_WRITE\000"
 12532      4E5F4649 
 12532      4C455F57 
 12532      52495445 
 12532      00
 12533              	.LASF409:
 12534 0ecc 4F535F46 		.ascii	"OS_FN_NFC_CANCEL\000"
 12534      4E5F4E46 
 12534      435F4341 
 12534      4E43454C 
 12534      00
 12535              	.LASF733:
 12536 0edd 5343484E 		.ascii	"SCHNLGETPINMW\000"
 12536      4C474554 
 12536      50494E4D 
 12536      5700
 12537              	.LASF834:
 12538 0eeb 61427566 		.ascii	"aBuf\000"
 12538      00
 12539              	.LASF469:
 12540 0ef0 4F535F46 		.ascii	"OS_FN_WIFI_GET_DEVICE_STATE\000"
 12540      4E5F5749 
 12540      46495F47 
 12540      45545F44 
 12540      45564943 
 12541              	.LASF61:
 12542 0f0c 4F535F46 		.ascii	"OS_FN_COM1_SEND\000"
 12542      4E5F434F 
 12542      4D315F53 
 12542      454E4400 
 12543              	.LASF643:
 12544 0f1c 42535F46 		.ascii	"BS_FN_PPP_LOGIN_READ\000"
 12544      4E5F5050 
 12544      505F4C4F 
 12544      47494E5F 
 12544      52454144 
 12545              	.LASF135:
 12546 0f31 4F535F46 		.ascii	"OS_FN_PCI_DSS\000"
 12546      4E5F5043 
 12546      495F4453 
 12546      5300
 12547              	.LASF903:
 12548 0f3f 433A5C54 		.ascii	"C:\\T1000-A5\\Projects\\APM\\apm_v3.0s03\000"
 12548      31303030 
 12548      2D41355C 
 12548      50726F6A 
 12548      65637473 
 12549              	.LASF746:
 12550 0f64 42535F43 		.ascii	"BS_CALL_MW\000"
 12550      414C4C5F 
 12550      4D5700
 12551              	.LASF353:
ARM GAS  C:\Users\AHMED~1.ELE\AppData\Local\Temp\ccGujCBB.s 			page 253


 12552 0f6f 4F535F46 		.ascii	"OS_FN_INTERRUPT_UNREGISTER\000"
 12552      4E5F494E 
 12552      54455252 
 12552      5550545F 
 12552      554E5245 
 12553              	.LASF621:
 12554 0f8a 42535F46 		.ascii	"BS_FN_LINE_CLOSE\000"
 12554      4E5F4C49 
 12554      4E455F43 
 12554      4C4F5345 
 12554      00
 12555              	.LASF151:
 12556 0f9b 4F535F46 		.ascii	"OS_FN_LED_STATUS\000"
 12556      4E5F4C45 
 12556      445F5354 
 12556      41545553 
 12556      00
 12557              	.LASF69:
 12558 0fac 4F535F46 		.ascii	"OS_FN_COM2_READ\000"
 12558      4E5F434F 
 12558      4D325F52 
 12558      45414400 
 12559              	.LASF492:
 12560 0fbc 4B5F4346 		.ascii	"K_CF_Tid\000"
 12560      5F546964 
 12560      00
 12561              	.LASF857:
 12562 0fc5 46726565 		.ascii	"FreeRunSec\000"
 12562      52756E53 
 12562      656300
 12563              	.LASF626:
 12564 0fd0 42535F46 		.ascii	"BS_FN_LINE_STATUS\000"
 12564      4E5F4C49 
 12564      4E455F53 
 12564      54415455 
 12564      5300
 12565              	.LASF30:
 12566 0fe2 4F535F46 		.ascii	"OS_FN_BUZ_OPEN\000"
 12566      4E5F4255 
 12566      5A5F4F50 
 12566      454E00
 12567              	.LASF328:
 12568 0ff1 4F535F46 		.ascii	"OS_FN_CLICC_LED_CLOSE\000"
 12568      4E5F434C 
 12568      4943435F 
 12568      4C45445F 
 12568      434C4F53 
 12569              	.LASF384:
 12570 1007 4F535F46 		.ascii	"OS_FN_MIF_DEC\000"
 12570      4E5F4D49 
 12570      465F4445 
 12570      4300
 12571              	.LASF226:
 12572 1015 4F535F46 		.ascii	"OS_FN_LAN_OPEN\000"
 12572      4E5F4C41 
 12572      4E5F4F50 
 12572      454E00
ARM GAS  C:\Users\AHMED~1.ELE\AppData\Local\Temp\ccGujCBB.s 			page 254


 12573              	.LASF738:
 12574 1024 44495350 		.ascii	"DISP_CLRBELOWMW\000"
 12574      5F434C52 
 12574      42454C4F 
 12574      574D5700 
 12575              	.LASF448:
 12576 1034 4F535F46 		.ascii	"OS_FN_LPT_GET_COUNT\000"
 12576      4E5F4C50 
 12576      545F4745 
 12576      545F434F 
 12576      554E5400 
 12577              	.LASF284:
 12578 1048 4F535F46 		.ascii	"OS_FN_BATT_LEVEL\000"
 12578      4E5F4241 
 12578      54545F4C 
 12578      4556454C 
 12578      00
 12579              	.LASF432:
 12580 1059 4F535F46 		.ascii	"OS_FN_HD_CONFIG\000"
 12580      4E5F4844 
 12580      5F434F4E 
 12580      46494700 
 12581              	.LASF816:
 12582 1069 6C6F676F 		.ascii	"logo_ptr\000"
 12582      5F707472 
 12582      00
 12583              	.LASF640:
 12584 1072 42535F46 		.ascii	"BS_FN_PPP_SET_DIAL_PARAM\000"
 12584      4E5F5050 
 12584      505F5345 
 12584      545F4449 
 12584      414C5F50 
 12585              	.LASF891:
 12586 108b 62636473 		.ascii	"bcdsub\000"
 12586      756200
 12587              	.LASF192:
 12588 1092 4F535F46 		.ascii	"OS_FN_FILE_FTRUNCATE\000"
 12588      4E5F4649 
 12588      4C455F46 
 12588      5452554E 
 12588      43415445 
 12589              	.LASF623:
 12590 10a7 42535F46 		.ascii	"BS_FN_LINE_DISC\000"
 12590      4E5F4C49 
 12590      4E455F44 
 12590      49534300 
 12591              	.LASF577:
 12592 10b7 4B5F4346 		.ascii	"K_CF_WIFI_DNS1\000"
 12592      5F574946 
 12592      495F444E 
 12592      533100
 12593              	.LASF578:
 12594 10c6 4B5F4346 		.ascii	"K_CF_WIFI_DNS2\000"
 12594      5F574946 
 12594      495F444E 
 12594      533200
 12595              	.LASF864:
ARM GAS  C:\Users\AHMED~1.ELE\AppData\Local\Temp\ccGujCBB.s 			page 255


 12596 10d5 6146696C 		.ascii	"aFileHandle\000"
 12596      6548616E 
 12596      646C6500 
 12597              	.LASF229:
 12598 10e1 4F535F46 		.ascii	"OS_FN_LAN_TXRDY\000"
 12598      4E5F4C41 
 12598      4E5F5458 
 12598      52445900 
 12599              	.LASF137:
 12600 10f1 4F535F46 		.ascii	"OS_FN_THREAD_CLOSE\000"
 12600      4E5F5448 
 12600      52454144 
 12600      5F434C4F 
 12600      534500
 12601              	.LASF286:
 12602 1104 4F535F46 		.ascii	"OS_FN_BATT_CONTROL\000"
 12602      4E5F4241 
 12602      54545F43 
 12602      4F4E5452 
 12602      4F4C00
 12603              	.LASF373:
 12604 1117 4F535F46 		.ascii	"OS_FN_MIF_CARD_TYPE\000"
 12604      4E5F4D49 
 12604      465F4341 
 12604      52445F54 
 12604      59504500 
 12605              	.LASF220:
 12606 112b 4F535F46 		.ascii	"OS_FN_MMC_WRITE\000"
 12606      4E5F4D4D 
 12606      435F5752 
 12606      49544500 
 12607              	.LASF115:
 12608 113b 4F535F46 		.ascii	"OS_FN_SM3\000"
 12608      4E5F534D 
 12608      3300
 12609              	.LASF454:
 12610 1145 4F535F46 		.ascii	"OS_FN_ECC_KEYPAIR_GENERATE\000"
 12610      4E5F4543 
 12610      435F4B45 
 12610      59504149 
 12610      525F4745 
 12611              	.LASF276:
 12612 1160 4F535F46 		.ascii	"OS_FN_MCOM_PERMIT\000"
 12612      4E5F4D43 
 12612      4F4D5F50 
 12612      45524D49 
 12612      5400
 12613              	.LASF894:
 12614 1172 57616974 		.ascii	"WaitKey\000"
 12614      4B657900 
 12615              	.LASF389:
 12616 117a 4F535F46 		.ascii	"OS_FN_MIF_SENDCMD\000"
 12616      4E5F4D49 
 12616      465F5345 
 12616      4E44434D 
 12616      4400
 12617              	.LASF22:
ARM GAS  C:\Users\AHMED~1.ELE\AppData\Local\Temp\ccGujCBB.s 			page 256


 12618 118c 4F535F46 		.ascii	"OS_FN_KBD_SCODE\000"
 12618      4E5F4B42 
 12618      445F5343 
 12618      4F444500 
 12619              	.LASF761:
 12620 119c 775F6877 		.ascii	"w_hwidth\000"
 12620      69647468 
 12620      00
 12621              	.LASF812:
 12622 11a5 61446973 		.ascii	"aDispStr\000"
 12622      70537472 
 12622      00
 12623              	.LASF529:
 12624 11ae 4B5F4346 		.ascii	"K_CF_HwConfig\000"
 12624      5F487743 
 12624      6F6E6669 
 12624      6700
 12625              	.LASF519:
 12626 11bc 4B5F4346 		.ascii	"K_CF_BattError\000"
 12626      5F426174 
 12626      74457272 
 12626      6F7200
 12627              	.LASF464:
 12628 11cb 4F535F46 		.ascii	"OS_FN_WIFI_SOCKET_CONNECT\000"
 12628      4E5F5749 
 12628      46495F53 
 12628      4F434B45 
 12628      545F434F 
 12629              	.LASF777:
 12630 11e5 54494D45 		.ascii	"TIMER_REMOTEDL\000"
 12630      525F5245 
 12630      4D4F5445 
 12630      444C00
 12631              	.LASF456:
 12632 11f4 4F535F46 		.ascii	"OS_FN_ECC_SCALAR_MULTIPLY\000"
 12632      4E5F4543 
 12632      435F5343 
 12632      414C4152 
 12632      5F4D554C 
 12633              	.LASF362:
 12634 120e 4F535F46 		.ascii	"OS_FN_USBKBD_OPEN\000"
 12634      4E5F5553 
 12634      424B4244 
 12634      5F4F5045 
 12634      4E00
 12635              	.LASF563:
 12636 1220 4B5F4346 		.ascii	"K_CF_MdmMinAnsToneDur\000"
 12636      5F4D646D 
 12636      4D696E41 
 12636      6E73546F 
 12636      6E654475 
 12637              	.LASF379:
 12638 1236 4F535F46 		.ascii	"OS_FN_MIF_AUTH1\000"
 12638      4E5F4D49 
 12638      465F4155 
 12638      54483100 
 12639              	.LASF380:
ARM GAS  C:\Users\AHMED~1.ELE\AppData\Local\Temp\ccGujCBB.s 			page 257


 12640 1246 4F535F46 		.ascii	"OS_FN_MIF_AUTH2\000"
 12640      4E5F4D49 
 12640      465F4155 
 12640      54483200 
 12641              	.LASF12:
 12642 1256 424F4F4C 		.ascii	"BOOLEAN\000"
 12642      45414E00 
 12643              	.LASF892:
 12644 125e 62636461 		.ascii	"bcdadd\000"
 12644      646400
 12645              	.LASF85:
 12646 1265 4F535F46 		.ascii	"OS_FN_DES2\000"
 12646      4E5F4445 
 12646      533200
 12647              	.LASF105:
 12648 1270 4F535F46 		.ascii	"OS_FN_MD4_PROCESS\000"
 12648      4E5F4D44 
 12648      345F5052 
 12648      4F434553 
 12648      5300
 12649              	.LASF695:
 12650 1282 42535F46 		.ascii	"BS_FN_UDP_WIFI_SOCKET_RECEIVE\000"
 12650      4E5F5544 
 12650      505F5749 
 12650      46495F53 
 12650      4F434B45 
 12651              	.LASF387:
 12652 12a0 4F535F46 		.ascii	"OS_FN_MIF_DEC_TRANS\000"
 12652      4E5F4D49 
 12652      465F4445 
 12652      435F5452 
 12652      414E5300 
 12653              	.LASF343:
 12654 12b4 4F535F46 		.ascii	"OS_FN_DEVICE_REGISTER\000"
 12654      4E5F4445 
 12654      56494345 
 12654      5F524547 
 12654      49535445 
 12655              	.LASF60:
 12656 12ca 4F535F46 		.ascii	"OS_FN_COM1_READ\000"
 12656      4E5F434F 
 12656      4D315F52 
 12656      45414400 
 12657              	.LASF223:
 12658 12da 4F535F46 		.ascii	"OS_FN_SLE_CLOSE\000"
 12658      4E5F534C 
 12658      455F434C 
 12658      4F534500 
 12659              	.LASF232:
 12660 12ea 4F535F46 		.ascii	"OS_FN_LAN_STATUS\000"
 12660      4E5F4C41 
 12660      4E5F5354 
 12660      41545553 
 12660      00
 12661              	.LASF859:
 12662 12fb 6F737461 		.ascii	"ostatus\000"
 12662      74757300 
ARM GAS  C:\Users\AHMED~1.ELE\AppData\Local\Temp\ccGujCBB.s 			page 258


 12663              	.LASF878:
 12664 1303 67486F74 		.ascii	"gHotPlugCnt\000"
 12664      506C7567 
 12664      436E7400 
 12665              	.LASF726:
 12666 130f 4B424453 		.ascii	"KBDSCODEMW\000"
 12666      434F4445 
 12666      4D5700
 12667              	.LASF208:
 12668 131a 4F535F46 		.ascii	"OS_FN_SAM_ON\000"
 12668      4E5F5341 
 12668      4D5F4F4E 
 12668      00
 12669              	.LASF651:
 12670 1327 42535F46 		.ascii	"BS_FN_FTP_CLOSE\000"
 12670      4E5F4654 
 12670      505F434C 
 12670      4F534500 
 12671              	.LASF369:
 12672 1337 4F535F46 		.ascii	"OS_FN_MIF_OPEN\000"
 12672      4E5F4D49 
 12672      465F4F50 
 12672      454E00
 12673              	.LASF245:
 12674 1346 4F535F46 		.ascii	"OS_FN_USBSER_CLOSE\000"
 12674      4E5F5553 
 12674      42534552 
 12674      5F434C4F 
 12674      534500
 12675              	.LASF763:
 12676 1359 73625F64 		.ascii	"sb_data\000"
 12676      61746100 
 12677              	.LASF418:
 12678 1361 4F535F46 		.ascii	"OS_FN_GPS_GET_INFO\000"
 12678      4E5F4750 
 12678      535F4745 
 12678      545F494E 
 12678      464F00
 12679              	.LASF532:
 12680 1374 4B5F4346 		.ascii	"K_CF_SNControlOff\000"
 12680      5F534E43 
 12680      6F6E7472 
 12680      6F6C4F66 
 12680      6600
 12681              	.LASF760:
 12682 1386 775F7673 		.ascii	"w_vstart\000"
 12682      74617274 
 12682      00
 12683              	.LASF269:
 12684 138f 4F535F46 		.ascii	"OS_FN_MDM_DIAL\000"
 12684      4E5F4D44 
 12684      4D5F4449 
 12684      414C00
 12685              	.LASF139:
 12686 139e 4F535F46 		.ascii	"OS_FN_THREAD_DELETE\000"
 12686      4E5F5448 
 12686      52454144 
ARM GAS  C:\Users\AHMED~1.ELE\AppData\Local\Temp\ccGujCBB.s 			page 259


 12686      5F44454C 
 12686      45544500 
 12687              	.LASF514:
 12688 13b2 4B5F4346 		.ascii	"K_CF_EnforcePsw\000"
 12688      5F456E66 
 12688      6F726365 
 12688      50737700 
 12689              	.LASF149:
 12690 13c2 4F535F46 		.ascii	"OS_FN_LED_OPEN\000"
 12690      4E5F4C45 
 12690      445F4F50 
 12690      454E00
 12691              	.LASF34:
 12692 13d1 4F535F46 		.ascii	"OS_FN_RTC_GET\000"
 12692      4E5F5254 
 12692      435F4745 
 12692      5400
 12693              	.LASF401:
 12694 13df 4F535F46 		.ascii	"OS_FN_WIFI_CONTROL\000"
 12694      4E5F5749 
 12694      46495F43 
 12694      4F4E5452 
 12694      4F4C00
 12695              	.LASF153:
 12696 13f2 4F535F46 		.ascii	"OS_FN_LED_CLEAR\000"
 12696      4E5F4C45 
 12696      445F434C 
 12696      45415200 
 12697              	.LASF26:
 12698 1402 4F535F46 		.ascii	"OS_FN_TIMER_OPEN\000"
 12698      4E5F5449 
 12698      4D45525F 
 12698      4F50454E 
 12698      00
 12699              	.LASF445:
 12700 1413 4F535F46 		.ascii	"OS_FN_DTIMER_LATCH_STOP\000"
 12700      4E5F4454 
 12700      494D4552 
 12700      5F4C4154 
 12700      43485F53 
 12701              	.LASF354:
 12702 142b 4F535F46 		.ascii	"OS_FN_BUS_START\000"
 12702      4E5F4255 
 12702      535F5354 
 12702      41525400 
 12703              	.LASF99:
 12704 143b 4F535F46 		.ascii	"OS_FN_MD5_FINISH\000"
 12704      4E5F4D44 
 12704      355F4649 
 12704      4E495348 
 12704      00
 12705              	.LASF590:
 12706 144c 55534246 		.ascii	"USBFPRT_GENERAL_INFO_MODEL\000"
 12706      5052545F 
 12706      47454E45 
 12706      52414C5F 
 12706      494E464F 
ARM GAS  C:\Users\AHMED~1.ELE\AppData\Local\Temp\ccGujCBB.s 			page 260


 12707              	.LASF641:
 12708 1467 42535F46 		.ascii	"BS_FN_PPP_SET_REDIAL\000"
 12708      4E5F5050 
 12708      505F5345 
 12708      545F5245 
 12708      4449414C 
 12709              	.LASF416:
 12710 147c 4F535F46 		.ascii	"OS_FN_GPS_ON\000"
 12710      4E5F4750 
 12710      535F4F4E 
 12710      00
 12711              	.LASF826:
 12712 1489 61437472 		.ascii	"aCtrl\000"
 12712      6C00
 12713              	.LASF639:
 12714 148f 42535F46 		.ascii	"BS_FN_PPP_SET_PHONES\000"
 12714      4E5F5050 
 12714      505F5345 
 12714      545F5048 
 12714      4F4E4553 
 12715              	.LASF458:
 12716 14a4 4F535F46 		.ascii	"OS_FN_GCM_AES_INIT\000"
 12716      4E5F4743 
 12716      4D5F4145 
 12716      535F494E 
 12716      495400
 12717              	.LASF88:
 12718 14b7 4F535F46 		.ascii	"OS_FN_COM_DES2\000"
 12718      4E5F434F 
 12718      4D5F4445 
 12718      533200
 12719              	.LASF317:
 12720 14c6 4F535F46 		.ascii	"OS_FN_CODEC_PLAY_RAM\000"
 12720      4E5F434F 
 12720      4445435F 
 12720      504C4159 
 12720      5F52414D 
 12721              	.LASF281:
 12722 14db 4F535F46 		.ascii	"OS_FN_MCOM_STATUS\000"
 12722      4E5F4D43 
 12722      4F4D5F53 
 12722      54415455 
 12722      5300
 12723              	.LASF580:
 12724 14ed 4B5F4346 		.ascii	"K_CF_MIF_CFG\000"
 12724      5F4D4946 
 12724      5F434647 
 12724      00
 12725              	.LASF534:
 12726 14fa 4B5F4346 		.ascii	"K_CF_LcdBOffset\000"
 12726      5F4C6364 
 12726      424F6666 
 12726      73657400 
 12727              	.LASF53:
 12728 150a 4F535F46 		.ascii	"OS_FN_DISP_ICON_TEXTC\000"
 12728      4E5F4449 
 12728      53505F49 
ARM GAS  C:\Users\AHMED~1.ELE\AppData\Local\Temp\ccGujCBB.s 			page 261


 12728      434F4E5F 
 12728      54455854 
 12729              	.LASF875:
 12730 1520 486F7450 		.ascii	"HotPlug\000"
 12730      6C756700 
 12731              	.LASF831:
 12732 1528 62756666 		.ascii	"buffer\000"
 12732      657200
 12733              	.LASF167:
 12734 152f 4F535F46 		.ascii	"OS_FN_FILE_CREATE\000"
 12734      4E5F4649 
 12734      4C455F43 
 12734      52454154 
 12734      4500
 12735              	.LASF239:
 12736 1541 4F535F46 		.ascii	"OS_FN_LPT_OPEN\000"
 12736      4E5F4C50 
 12736      545F4F50 
 12736      454E00
 12737              	.LASF869:
 12738 1550 57616974 		.ascii	"WaitLanNetRdy\000"
 12738      4C616E4E 
 12738      65745264 
 12738      7900
 12739              	.LASF666:
 12740 155e 42535F46 		.ascii	"BS_FN_HTTP_OPEN\000"
 12740      4E5F4854 
 12740      54505F4F 
 12740      50454E00 
 12741              	.LASF231:
 12742 156e 4F535F46 		.ascii	"OS_FN_LAN_SEND\000"
 12742      4E5F4C41 
 12742      4E5F5345 
 12742      4E4400
 12743              	.LASF547:
 12744 157d 4B5F4346 		.ascii	"K_CF_BattStatData\000"
 12744      5F426174 
 12744      74537461 
 12744      74446174 
 12744      6100
 12745              	.LASF871:
 12746 158f 614E6F43 		.ascii	"aNoCancel\000"
 12746      616E6365 
 12746      6C00
 12747              	.LASF451:
 12748 1599 4F535F46 		.ascii	"OS_FN_FPRT_SCAN_IMG\000"
 12748      4E5F4650 
 12748      52545F53 
 12748      43414E5F 
 12748      494D4700 
 12749              	.LASF309:
 12750 15ad 4F535F46 		.ascii	"OS_FN_TPAD_DEL_OBJ\000"
 12750      4E5F5450 
 12750      41445F44 
 12750      454C5F4F 
 12750      424A00
 12751              	.LASF713:
ARM GAS  C:\Users\AHMED~1.ELE\AppData\Local\Temp\ccGujCBB.s 			page 262


 12752 15c0 46535953 		.ascii	"FSYSINITMW\000"
 12752      494E4954 
 12752      4D5700
 12753              	.LASF710:
 12754 15cb 494F4354 		.ascii	"IOCTLMW\000"
 12754      4C4D5700 
 12755              	.LASF395:
 12756 15d3 4F535F46 		.ascii	"OS_FN_BARCODE_CMD\000"
 12756      4E5F4241 
 12756      52434F44 
 12756      455F434D 
 12756      4400
 12757              	.LASF244:
 12758 15e5 4F535F46 		.ascii	"OS_FN_USBSER_OPEN\000"
 12758      4E5F5553 
 12758      42534552 
 12758      5F4F5045 
 12758      4E00
 12759              	.LASF433:
 12760 15f7 4F535F46 		.ascii	"OS_FN_RDLL_APP\000"
 12760      4E5F5244 
 12760      4C4C5F41 
 12760      505000
 12761              	.LASF174:
 12762 1606 4F535F46 		.ascii	"OS_FN_FILE_READ\000"
 12762      4E5F4649 
 12762      4C455F52 
 12762      45414400 
 12763              	.LASF143:
 12764 1616 4F535F46 		.ascii	"OS_FN_THREAD_POP\000"
 12764      4E5F5448 
 12764      52454144 
 12764      5F504F50 
 12764      00
 12765              	.LASF544:
 12766 1627 4B5F4346 		.ascii	"K_CF_TcpHostEnable\000"
 12766      5F546370 
 12766      486F7374 
 12766      456E6162 
 12766      6C6500
 12767              	.LASF506:
 12768 163a 4B5F4346 		.ascii	"K_CF_TCPPort\000"
 12768      5F544350 
 12768      506F7274 
 12768      00
 12769              	.LASF799:
 12770 1647 53686F72 		.ascii	"Short1Beep\000"
 12770      74314265 
 12770      657000
 12771              	.LASF734:
 12772 1652 4C4C5345 		.ascii	"LLSEEKMW\000"
 12772      454B4D57 
 12772      00
 12773              	.LASF323:
 12774 165b 4F535F46 		.ascii	"OS_FN_CLICC_CLOSE\000"
 12774      4E5F434C 
 12774      4943435F 
ARM GAS  C:\Users\AHMED~1.ELE\AppData\Local\Temp\ccGujCBB.s 			page 263


 12774      434C4F53 
 12774      4500
 12775              	.LASF336:
 12776 166d 4F535F46 		.ascii	"OS_FN_USBHOST_STATUS\000"
 12776      4E5F5553 
 12776      42484F53 
 12776      545F5354 
 12776      41545553 
 12777              	.LASF552:
 12778 1682 4B5F4346 		.ascii	"K_CF_ReqSettleMsg\000"
 12778      5F526571 
 12778      53657474 
 12778      6C654D73 
 12778      6700
 12779              	.LASF180:
 12780 1694 4F535F46 		.ascii	"OS_FN_FILE_SEARCH\000"
 12780      4E5F4649 
 12780      4C455F53 
 12780      45415243 
 12780      4800
 12781              	.LASF480:
 12782 16a6 4F535F46 		.ascii	"OS_FN_DISP_PUTS_ANYWHERE\000"
 12782      4E5F4449 
 12782      53505F50 
 12782      5554535F 
 12782      414E5957 
 12783              	.LASF904:
 12784 16bf 73797374 		.ascii	"system_call_list\000"
 12784      656D5F63 
 12784      616C6C5F 
 12784      6C697374 
 12784      00
 12785              	.LASF752:
 12786 16d0 4652454E 		.ascii	"FRENAMEMW\000"
 12786      414D454D 
 12786      5700
 12787              	.LASF225:
 12788 16da 4F535F46 		.ascii	"OS_FN_SLE_IO\000"
 12788      4E5F534C 
 12788      455F494F 
 12788      00
 12789              	.LASF551:
 12790 16e7 4B5F4346 		.ascii	"K_CF_Settled\000"
 12790      5F536574 
 12790      746C6564 
 12790      00
 12791              	.LASF271:
 12792 16f4 4F535F46 		.ascii	"OS_FN_MDM_CID\000"
 12792      4E5F4D44 
 12792      4D5F4349 
 12792      4400
 12793              	.LASF778:
 12794 1702 4D41585F 		.ascii	"MAX_TIMER_SUPPORT\000"
 12794      54494D45 
 12794      525F5355 
 12794      50504F52 
 12794      5400
ARM GAS  C:\Users\AHMED~1.ELE\AppData\Local\Temp\ccGujCBB.s 			page 264


 12795              	.LASF159:
 12796 1714 4F535F46 		.ascii	"OS_FN_APP_GET_VIRGIN\000"
 12796      4E5F4150 
 12796      505F4745 
 12796      545F5649 
 12796      5247494E 
 12797              	.LASF240:
 12798 1729 4F535F46 		.ascii	"OS_FN_LPT_CLOSE\000"
 12798      4E5F4C50 
 12798      545F434C 
 12798      4F534500 
 12799              	.LASF877:
 12800 1739 67487053 		.ascii	"gHpState\000"
 12800      74617465 
 12800      00
 12801              	.LASF122:
 12802 1742 4F535F46 		.ascii	"OS_FN_KEY_RSA\000"
 12802      4E5F4B45 
 12802      595F5253 
 12802      4100
 12803              	.LASF134:
 12804 1750 4F535F46 		.ascii	"OS_FN_PCI_DSS_REGEN_KEY\000"
 12804      4E5F5043 
 12804      495F4453 
 12804      535F5245 
 12804      47454E5F 
 12805              	.LASF836:
 12806 1768 61446174 		.ascii	"aDateTime\000"
 12806      6554696D 
 12806      6500
 12807              	.LASF205:
 12808 1772 4F535F46 		.ascii	"OS_FN_SAM_CLOSE\000"
 12808      4E5F5341 
 12808      4D5F434C 
 12808      4F534500 
 12809              	.LASF86:
 12810 1782 4F535F46 		.ascii	"OS_FN_COM_DESKEY\000"
 12810      4E5F434F 
 12810      4D5F4445 
 12810      534B4559 
 12810      00
 12811              	.LASF504:
 12812 1793 4B5F4346 		.ascii	"K_CF_DNS2\000"
 12812      5F444E53 
 12812      3200
 12813              	.LASF809:
 12814 179d 614D7367 		.ascii	"aMsg\000"
 12814      00
 12815              	.LASF664:
 12816 17a2 42535F46 		.ascii	"BS_FN_DNS_REQUEST\000"
 12816      4E5F444E 
 12816      535F5245 
 12816      51554553 
 12816      5400
 12817              	.LASF481:
 12818 17b4 4F535F46 		.ascii	"OS_FN_BATT_CHARGE_NOW\000"
 12818      4E5F4241 
ARM GAS  C:\Users\AHMED~1.ELE\AppData\Local\Temp\ccGujCBB.s 			page 265


 12818      54545F43 
 12818      48415247 
 12818      455F4E4F 
 12819              	.LASF197:
 12820 17ca 4F535F46 		.ascii	"OS_FN_FILE_GET_LONGNAME\000"
 12820      4E5F4649 
 12820      4C455F47 
 12820      45545F4C 
 12820      4F4E474E 
 12821              	.LASF372:
 12822 17e2 4F535F46 		.ascii	"OS_FN_MIF_HALT\000"
 12822      4E5F4D49 
 12822      465F4841 
 12822      4C5400
 12823              	.LASF631:
 12824 17f1 42535F46 		.ascii	"BS_FN_PPP_SET_MODE\000"
 12824      4E5F5050 
 12824      505F5345 
 12824      545F4D4F 
 12824      444500
 12825              	.LASF265:
 12826 1804 4F535F46 		.ascii	"OS_FN_FL_CREAD_END\000"
 12826      4E5F464C 
 12826      5F435245 
 12826      41445F45 
 12826      4E4400
 12827              	.LASF238:
 12828 1817 4F535F46 		.ascii	"OS_FN_MSR_STATUS\000"
 12828      4E5F4D53 
 12828      525F5354 
 12828      41545553 
 12828      00
 12829              	.LASF393:
 12830 1828 4F535F46 		.ascii	"OS_FN_BARCODE_OPEN\000"
 12830      4E5F4241 
 12830      52434F44 
 12830      455F4F50 
 12830      454E00
 12831              	.LASF471:
 12832 183b 4F535F46 		.ascii	"OS_FN_WIFI_SOCKET_LISTEN\000"
 12832      4E5F5749 
 12832      46495F53 
 12832      4F434B45 
 12832      545F4C49 
 12833              	.LASF340:
 12834 1854 4F535F46 		.ascii	"OS_FN_DRIVER_REGISTER\000"
 12834      4E5F4452 
 12834      49564552 
 12834      5F524547 
 12834      49535445 
 12835              	.LASF247:
 12836 186a 4F535F46 		.ascii	"OS_FN_USBSER_WRITE\000"
 12836      4E5F5553 
 12836      42534552 
 12836      5F575249 
 12836      544500
 12837              	.LASF583:
ARM GAS  C:\Users\AHMED~1.ELE\AppData\Local\Temp\ccGujCBB.s 			page 266


 12838 187d 4B5F4346 		.ascii	"K_CF_Bc2DSensitivity\000"
 12838      5F426332 
 12838      4453656E 
 12838      73697469 
 12838      76697479 
 12839              	.LASF371:
 12840 1892 4F535F46 		.ascii	"OS_FN_MIF_CANCEL\000"
 12840      4E5F4D49 
 12840      465F4341 
 12840      4E43454C 
 12840      00
 12841              	.LASF6:
 12842 18a3 6C6F6E67 		.ascii	"long unsigned int\000"
 12842      20756E73 
 12842      69676E65 
 12842      6420696E 
 12842      7400
 12843              	.LASF48:
 12844 18b5 4F535F46 		.ascii	"OS_FN_DISP_BACKC\000"
 12844      4E5F4449 
 12844      53505F42 
 12844      41434B43 
 12844      00
 12845              	.LASF632:
 12846 18c6 42535F46 		.ascii	"BS_FN_PPP_GET_SPEED\000"
 12846      4E5F5050 
 12846      505F4745 
 12846      545F5350 
 12846      45454400 
 12847              	.LASF665:
 12848 18da 42535F46 		.ascii	"BS_FN_DNS_RESPONSE\000"
 12848      4E5F444E 
 12848      535F5245 
 12848      53504F4E 
 12848      534500
 12849              	.LASF44:
 12850 18ed 4F535F46 		.ascii	"OS_FN_DISP_GETP\000"
 12850      4E5F4449 
 12850      53505F47 
 12850      45545000 
 12851              	.LASF424:
 12852 18fd 4F535F46 		.ascii	"OS_FN_BREG_READ\000"
 12852      4E5F4252 
 12852      45475F52 
 12852      45414400 
 12853              	.LASF302:
 12854 190d 4F535F46 		.ascii	"OS_FN_GPRS_SMS_ACK\000"
 12854      4E5F4750 
 12854      52535F53 
 12854      4D535F41 
 12854      434B00
 12855              	.LASF17:
 12856 1920 4F535F46 		.ascii	"OS_FN_RAND\000"
 12856      4E5F5241 
 12856      4E4400
 12857              	.LASF234:
 12858 192b 4F535F46 		.ascii	"OS_FN_MSR_CLOSE\000"
ARM GAS  C:\Users\AHMED~1.ELE\AppData\Local\Temp\ccGujCBB.s 			page 267


 12858      4E5F4D53 
 12858      525F434C 
 12858      4F534500 
 12859              	.LASF860:
 12860 193b 73746174 		.ascii	"status\000"
 12860      757300
 12861              	.LASF667:
 12862 1942 42535F46 		.ascii	"BS_FN_HTTP_CLOSE\000"
 12862      4E5F4854 
 12862      54505F43 
 12862      4C4F5345 
 12862      00
 12863              	.LASF854:
 12864 1953 61646472 		.ascii	"address\000"
 12864      65737300 
 12865              	.LASF691:
 12866 195b 42535F46 		.ascii	"BS_FN_TCP_SET_LINE_WINDOW_SIZE\000"
 12866      4E5F5443 
 12866      505F5345 
 12866      545F4C49 
 12866      4E455F57 
 12867              	.LASF403:
 12868 197a 4F535F46 		.ascii	"OS_FN_WIFI_RECV_RESPONSE\000"
 12868      4E5F5749 
 12868      46495F52 
 12868      4543565F 
 12868      52455350 
 12869              	.LASF230:
 12870 1993 4F535F46 		.ascii	"OS_FN_LAN_READ\000"
 12870      4E5F4C41 
 12870      4E5F5245 
 12870      414400
 12871              	.LASF507:
 12872 19a2 4B5F4346 		.ascii	"K_CF_DHCPEnable\000"
 12872      5F444843 
 12872      50456E61 
 12872      626C6500 
 12873              	.LASF703:
 12874 19b2 53544152 		.ascii	"STARTUPMW\000"
 12874      5455504D 
 12874      5700
 12875              	.LASF112:
 12876 19bc 4F535F46 		.ascii	"OS_FN_SM2_DECRYPT\000"
 12876      4E5F534D 
 12876      325F4445 
 12876      43525950 
 12876      5400
 12877              	.LASF901:
 12878 19ce 474E5520 		.ascii	"GNU C 4.9.3 20141119 (release) [ARM/embedded-4_9-br"
 12878      4320342E 
 12878      392E3320 
 12878      32303134 
 12878      31313139 
 12879 1a01 616E6368 		.ascii	"anch revision 218278] -mthumb -mcpu=cortex-a5 -mthu"
 12879      20726576 
 12879      6973696F 
 12879      6E203231 
ARM GAS  C:\Users\AHMED~1.ELE\AppData\Local\Temp\ccGujCBB.s 			page 268


 12879      38323738 
 12880 1a34 6D622D69 		.ascii	"mb-interwork -mstructure-size-boundary=32 -mno-unal"
 12880      6E746572 
 12880      776F726B 
 12880      202D6D73 
 12880      74727563 
 12881 1a67 69676E65 		.ascii	"igned-access -g -Os -ffunction-sections -fsigned-ch"
 12881      642D6163 
 12881      63657373 
 12881      202D6720 
 12881      2D4F7320 
 12882 1a9a 617200   		.ascii	"ar\000"
 12883              	.LASF462:
 12884 1a9d 4F535F46 		.ascii	"OS_FN_GCM_AES_CLOSE\000"
 12884      4E5F4743 
 12884      4D5F4145 
 12884      535F434C 
 12884      4F534500 
 12885              	.LASF267:
 12886 1ab1 4F535F46 		.ascii	"OS_FN_MDM_OPEN\000"
 12886      4E5F4D44 
 12886      4D5F4F50 
 12886      454E00
 12887              	.LASF273:
 12888 1ac0 4F535F46 		.ascii	"OS_FN_MDM_LAST_CONN_STAT\000"
 12888      4E5F4D44 
 12888      4D5F4C41 
 12888      53545F43 
 12888      4F4E4E5F 
 12889              	.LASF428:
 12890 1ad9 4F535F46 		.ascii	"OS_FN_SLEEP\000"
 12890      4E5F534C 
 12890      45455000 
 12891              	.LASF750:
 12892 1ae5 534D535F 		.ascii	"SMS_COUNT_MW\000"
 12892      434F554E 
 12892      545F4D57 
 12892      00
 12893              	.LASF242:
 12894 1af2 4F535F46 		.ascii	"OS_FN_LPT_PUTDW\000"
 12894      4E5F4C50 
 12894      545F5055 
 12894      54445700 
 12895              	.LASF804:
 12896 1b02 63757272 		.ascii	"curr\000"
 12896      00
 12897              	.LASF24:
 12898 1b07 4F535F46 		.ascii	"OS_FN_KBD_LOCK\000"
 12898      4E5F4B42 
 12898      445F4C4F 
 12898      434B00
 12899              	.LASF476:
 12900 1b16 4F535F46 		.ascii	"OS_FN_GPRS_IS_HL6RD\000"
 12900      4E5F4750 
 12900      52535F49 
 12900      535F484C 
 12900      36524400 
ARM GAS  C:\Users\AHMED~1.ELE\AppData\Local\Temp\ccGujCBB.s 			page 269


 12901              	.LASF538:
 12902 1b2a 4B5F4346 		.ascii	"K_CF_SysRdllInf\000"
 12902      5F537973 
 12902      52646C6C 
 12902      496E6600 
 12903              	.LASF152:
 12904 1b3a 4F535F46 		.ascii	"OS_FN_LED_SET\000"
 12904      4E5F4C45 
 12904      445F5345 
 12904      5400
 12905              	.LASF718:
 12906 1b48 464C454E 		.ascii	"FLENGTHMW\000"
 12906      4754484D 
 12906      5700
 12907              	.LASF575:
 12908 1b52 4B5F4346 		.ascii	"K_CF_WIFI_IP_MASK\000"
 12908      5F574946 
 12908      495F4950 
 12908      5F4D4153 
 12908      4B00
 12909              	.LASF645:
 12910 1b64 42535F46 		.ascii	"BS_FN_PPP_LOGIN_FINISH\000"
 12910      4E5F5050 
 12910      505F4C4F 
 12910      47494E5F 
 12910      46494E49 
 12911              	.LASF776:
 12912 1b7b 54494D45 		.ascii	"TIMER_WIFI\000"
 12912      525F5749 
 12912      464900
 12913              	.LASF455:
 12914 1b86 4F535F46 		.ascii	"OS_FN_ECC_PUBKEY_VERIFY\000"
 12914      4E5F4543 
 12914      435F5055 
 12914      424B4559 
 12914      5F564552 
 12915              	.LASF622:
 12916 1b9e 42535F46 		.ascii	"BS_FN_LINE_DIAL\000"
 12916      4E5F4C49 
 12916      4E455F44 
 12916      49414C00 
 12917              	.LASF682:
 12918 1bae 42535F46 		.ascii	"BS_FN_HTTP_REQUEST2\000"
 12918      4E5F4854 
 12918      54505F52 
 12918      45515545 
 12918      53543200 
 12919              	.LASF364:
 12920 1bc2 4F535F46 		.ascii	"OS_FN_USBKBD_INKEY\000"
 12920      4E5F5553 
 12920      424B4244 
 12920      5F494E4B 
 12920      455900
 12921              	.LASF68:
 12922 1bd5 4F535F46 		.ascii	"OS_FN_COM2_TXRDY\000"
 12922      4E5F434F 
 12922      4D325F54 
ARM GAS  C:\Users\AHMED~1.ELE\AppData\Local\Temp\ccGujCBB.s 			page 270


 12922      58524459 
 12922      00
 12923              	.LASF140:
 12924 1be6 4F535F46 		.ascii	"OS_FN_THREAD_LOCK\000"
 12924      4E5F5448 
 12924      52454144 
 12924      5F4C4F43 
 12924      4B00
 12925              	.LASF557:
 12926 1bf8 4B5F4346 		.ascii	"K_CF_MirrorApp\000"
 12926      5F4D6972 
 12926      726F7241 
 12926      707000
 12927              	.LASF615:
 12928 1c07 42535F46 		.ascii	"BS_FN_PHONE_DETECT\000"
 12928      4E5F5048 
 12928      4F4E455F 
 12928      44455445 
 12928      435400
 12929              	.LASF355:
 12930 1c1a 4F535F46 		.ascii	"OS_FN_BUS_STOP\000"
 12930      4E5F4255 
 12930      535F5354 
 12930      4F5000
 12931              	.LASF513:
 12932 1c29 4B5F4346 		.ascii	"K_CF_TamperPsw\000"
 12932      5F54616D 
 12932      70657250 
 12932      737700
 12933              	.LASF561:
 12934 1c38 4B5F4346 		.ascii	"K_CF_MdmDTMFPwr\000"
 12934      5F4D646D 
 12934      44544D46 
 12934      50777200 
 12935              	.LASF554:
 12936 1c48 4B5F4346 		.ascii	"K_CF_UserSignKeyLimit\000"
 12936      5F557365 
 12936      72536967 
 12936      6E4B6579 
 12936      4C696D69 
 12937              	.LASF500:
 12938 1c5e 4B5F4346 		.ascii	"K_CF_SnPrefix\000"
 12938      5F536E50 
 12938      72656669 
 12938      7800
 12939              	.LASF870:
 12940 1c6c 6154696D 		.ascii	"aTimeout\000"
 12940      656F7574 
 12940      00
 12941              	.LASF301:
 12942 1c75 4F535F46 		.ascii	"OS_FN_GPRS_SMS_DECODE\000"
 12942      4E5F4750 
 12942      52535F53 
 12942      4D535F44 
 12942      45434F44 
 12943              	.LASF279:
 12944 1c8b 4F535F46 		.ascii	"OS_FN_MCOM_SREAD\000"
ARM GAS  C:\Users\AHMED~1.ELE\AppData\Local\Temp\ccGujCBB.s 			page 271


 12944      4E5F4D43 
 12944      4F4D5F53 
 12944      52454144 
 12944      00
 12945              	.LASF128:
 12946 1c9c 4F535F46 		.ascii	"OS_FN_KEY_HASH\000"
 12946      4E5F4B45 
 12946      595F4841 
 12946      534800
 12947              	.LASF190:
 12948 1cab 4F535F46 		.ascii	"OS_FN_FILE_FREESPACE\000"
 12948      4E5F4649 
 12948      4C455F46 
 12948      52454553 
 12948      50414345 
 12949              	.LASF283:
 12950 1cc0 4F535F46 		.ascii	"OS_FN_MCOM_SEND\000"
 12950      4E5F4D43 
 12950      4F4D5F53 
 12950      454E4400 
 12951              	.LASF210:
 12952 1cd0 4F535F46 		.ascii	"OS_FN_SAM_T1\000"
 12952      4E5F5341 
 12952      4D5F5431 
 12952      00
 12953              	.LASF824:
 12954 1cdd 44697370 		.ascii	"Disp2x16Msg\000"
 12954      32783136 
 12954      4D736700 
 12955              	.LASF698:
 12956 1ce9 42535F46 		.ascii	"BS_FN_MAX\000"
 12956      4E5F4D41 
 12956      5800
 12957              	.LASF194:
 12958 1cf3 4F535F46 		.ascii	"OS_FN_FILE_READDIR\000"
 12958      4E5F4649 
 12958      4C455F52 
 12958      45414444 
 12958      495200
 12959              	.LASF32:
 12960 1d06 4F535F46 		.ascii	"OS_FN_BUZ_BEEP\000"
 12960      4E5F4255 
 12960      5A5F4245 
 12960      455000
 12961              	.LASF782:
 12962 1d15 77576964 		.ascii	"wWidth\000"
 12962      746800
 12963              	.LASF440:
 12964 1d1c 4F535F46 		.ascii	"OS_FN_APPCALL_RETURN\000"
 12964      4E5F4150 
 12964      5043414C 
 12964      4C5F5245 
 12964      5455524E 
 12965              	.LASF120:
 12966 1d31 4F535F46 		.ascii	"OS_FN_KEY_SAVE_TMK\000"
 12966      4E5F4B45 
 12966      595F5341 
ARM GAS  C:\Users\AHMED~1.ELE\AppData\Local\Temp\ccGujCBB.s 			page 272


 12966      56455F54 
 12966      4D4B00
 12967              	.LASF493:
 12968 1d44 4B5F4346 		.ascii	"K_CF_AppKekKvc\000"
 12968      5F417070 
 12968      4B656B4B 
 12968      766300
 12969              	.LASF874:
 12970 1d53 57616974 		.ascii	"WaitWifiNetRdy\000"
 12970      57696669 
 12970      4E657452 
 12970      647900
 12971              	.LASF520:
 12972 1d62 4B5F4346 		.ascii	"K_CF_LcdBrightness\000"
 12972      5F4C6364 
 12972      42726967 
 12972      68746E65 
 12972      737300
 12973              	.LASF725:
 12974 1d75 47455443 		.ascii	"GETCHARMW\000"
 12974      4841524D 
 12974      5700
 12975              	.LASF18:
 12976 1d7f 4F535F46 		.ascii	"OS_FN_RAND_UPDATE\000"
 12976      4E5F5241 
 12976      4E445F55 
 12976      50444154 
 12976      4500
 12977              	.LASF405:
 12978 1d91 4F535F46 		.ascii	"OS_FN_WIFI_PROFILES_READ\000"
 12978      4E5F5749 
 12978      46495F50 
 12978      524F4649 
 12978      4C45535F 
 12979              	.LASF168:
 12980 1daa 4F535F46 		.ascii	"OS_FN_FILE_CLOSE\000"
 12980      4E5F4649 
 12980      4C455F43 
 12980      4C4F5345 
 12980      00
 12981              	.LASF164:
 12982 1dbb 4F535F46 		.ascii	"OS_FN_FREE\000"
 12982      4E5F4652 
 12982      454500
 12983              	.LASF509:
 12984 1dc6 4B5F4346 		.ascii	"K_CF_Tampered\000"
 12984      5F54616D 
 12984      70657265 
 12984      6400
 12985              	.LASF737:
 12986 1dd4 44495350 		.ascii	"DISP_CLRLINEMW\000"
 12986      5F434C52 
 12986      4C494E45 
 12986      4D5700
 12987              	.LASF634:
 12988 1de3 42535F46 		.ascii	"BS_FN_PPP_GET_PHASE\000"
 12988      4E5F5050 
ARM GAS  C:\Users\AHMED~1.ELE\AppData\Local\Temp\ccGujCBB.s 			page 273


 12988      505F4745 
 12988      545F5048 
 12988      41534500 
 12989              	.LASF858:
 12990 1df7 53686F77 		.ascii	"ShowTxRxLed\000"
 12990      54785278 
 12990      4C656400 
 12991              	.LASF7:
 12992 1e03 6C6F6E67 		.ascii	"long long int\000"
 12992      206C6F6E 
 12992      6720696E 
 12992      7400
 12993              	.LASF37:
 12994 1e11 4F535F46 		.ascii	"OS_FN_DISP_CLOSE\000"
 12994      4E5F4449 
 12994      53505F43 
 12994      4C4F5345 
 12994      00
 12995              	.LASF791:
 12996 1e22 62536563 		.ascii	"bSecond\000"
 12996      6F6E6400 
 12997              	.LASF581:
 12998 1e2a 4B5F4346 		.ascii	"K_CF_NFC_CFG\000"
 12998      5F4E4643 
 12998      5F434647 
 12998      00
 12999              	.LASF790:
 13000 1e37 624D696E 		.ascii	"bMinute\000"
 13000      75746500 
 13001              	.LASF266:
 13002 1e3f 4F535F46 		.ascii	"OS_FN_FL_COPYBACK\000"
 13002      4E5F464C 
 13002      5F434F50 
 13002      59424143 
 13002      4B00
 13003              	.LASF727:
 13004 1e51 4445534B 		.ascii	"DESKEYMW\000"
 13004      45594D57 
 13004      00
 13005              	.LASF360:
 13006 1e5a 4F535F46 		.ascii	"OS_FN_NETDEV_EVENT\000"
 13006      4E5F4E45 
 13006      54444556 
 13006      5F455645 
 13006      4E5400
 13007              	.LASF71:
 13008 1e6d 4F535F46 		.ascii	"OS_FN_COM2_STATUS\000"
 13008      4E5F434F 
 13008      4D325F53 
 13008      54415455 
 13008      5300
 13009              	.LASF574:
 13010 1e7f 4B5F4346 		.ascii	"K_CF_WIFI_IP_ADDR\000"
 13010      5F574946 
 13010      495F4950 
 13010      5F414444 
 13010      5200
ARM GAS  C:\Users\AHMED~1.ELE\AppData\Local\Temp\ccGujCBB.s 			page 274


 13011              	.LASF366:
 13012 1e91 4F535F46 		.ascii	"OS_FN_TAMPER_ON\000"
 13012      4E5F5441 
 13012      4D504552 
 13012      5F4F4E00 
 13013              	.LASF788:
 13014 1ea1 62446179 		.ascii	"bDay\000"
 13014      00
 13015              	.LASF342:
 13016 1ea6 4F535F46 		.ascii	"OS_FN_DEVICE_ALLOC\000"
 13016      4E5F4445 
 13016      56494345 
 13016      5F414C4C 
 13016      4F4300
 13017              	.LASF715:
 13018 1eb9 4644454C 		.ascii	"FDELETEMW\000"
 13018      4554454D 
 13018      5700
 13019              	.LASF835:
 13020 1ec3 614C6F6E 		.ascii	"aLongYear\000"
 13020      67596561 
 13020      7200
 13021              	.LASF586:
 13022 1ecd 4B5F4346 		.ascii	"K_CF_WIFI_DEFAULT_AP\000"
 13022      5F574946 
 13022      495F4445 
 13022      4641554C 
 13022      545F4150 
 13023              	.LASF293:
 13024 1ee2 4F535F46 		.ascii	"OS_FN_GPRS_AT_CMD\000"
 13024      4E5F4750 
 13024      52535F41 
 13024      545F434D 
 13024      4400
 13025              	.LASF394:
 13026 1ef4 4F535F46 		.ascii	"OS_FN_BARCODE_CLOSE\000"
 13026      4E5F4241 
 13026      52434F44 
 13026      455F434C 
 13026      4F534500 
 13027              	.LASF658:
 13028 1f08 42535F46 		.ascii	"BS_FN_FTP_STATUS\000"
 13028      4E5F4654 
 13028      505F5354 
 13028      41545553 
 13028      00
 13029              	.LASF672:
 13030 1f19 42535F46 		.ascii	"BS_FN_HTTP_STATUS\000"
 13030      4E5F4854 
 13030      54505F53 
 13030      54415455 
 13030      5300
 13031              	.LASF259:
 13032 1f2b 4F535F46 		.ascii	"OS_FN_FL_ERASE_END\000"
 13032      4E5F464C 
 13032      5F455241 
 13032      53455F45 
ARM GAS  C:\Users\AHMED~1.ELE\AppData\Local\Temp\ccGujCBB.s 			page 275


 13032      4E4400
 13033              	.LASF295:
 13034 1f3e 4F535F46 		.ascii	"OS_FN_GPRS_SEND\000"
 13034      4E5F4750 
 13034      52535F53 
 13034      454E4400 
 13035              	.LASF243:
 13036 1f4e 4F535F46 		.ascii	"OS_FN_LPT_STATUS\000"
 13036      4E5F4C50 
 13036      545F5354 
 13036      41545553 
 13036      00
 13037              	.LASF843:
 13038 1f5f 61506F73 		.ascii	"aPos\000"
 13038      00
 13039              	.LASF51:
 13040 1f64 4F535F46 		.ascii	"OS_FN_DISP_ICON_COLOR\000"
 13040      4E5F4449 
 13040      53505F49 
 13040      434F4E5F 
 13040      434F4C4F 
 13041              	.LASF592:
 13042 1f7a 55534246 		.ascii	"USBFPRT_GENERAL_INFO_IMG_HEIGHT\000"
 13042      5052545F 
 13042      47454E45 
 13042      52414C5F 
 13042      494E464F 
 13043              	.LASF157:
 13044 1f9a 4F535F46 		.ascii	"OS_FN_APP_SEARCH_ID\000"
 13044      4E5F4150 
 13044      505F5345 
 13044      41524348 
 13044      5F494400 
 13045              	.LASF349:
 13046 1fae 4F535F46 		.ascii	"OS_FN_DEVICE_OPEN\000"
 13046      4E5F4445 
 13046      56494345 
 13046      5F4F5045 
 13046      4E00
 13047              	.LASF55:
 13048 1fc0 4F535F46 		.ascii	"OS_FN_DISP_OVERLAY\000"
 13048      4E5F4449 
 13048      53505F4F 
 13048      5645524C 
 13048      415900
 13049              	.LASF313:
 13050 1fd3 4F535F46 		.ascii	"OS_FN_TPAD_RAW_POS\000"
 13050      4E5F5450 
 13050      41445F52 
 13050      41575F50 
 13050      4F5300
 13051              	.LASF518:
 13052 1fe6 4B5F4346 		.ascii	"K_CF_BattChgMode\000"
 13052      5F426174 
 13052      74436867 
 13052      4D6F6465 
 13052      00
ARM GAS  C:\Users\AHMED~1.ELE\AppData\Local\Temp\ccGujCBB.s 			page 276


 13053              	.LASF769:
 13054 1ff7 41504D5F 		.ascii	"APM_SDEV_MDM\000"
 13054      53444556 
 13054      5F4D444D 
 13054      00
 13055              	.LASF767:
 13056 2004 41504D5F 		.ascii	"APM_SDEV_PPP\000"
 13056      53444556 
 13056      5F505050 
 13056      00
 13057              	.LASF83:
 13058 2011 4F535F46 		.ascii	"OS_FN_DESKEY\000"
 13058      4E5F4445 
 13058      534B4559 
 13058      00
 13059              	.LASF58:
 13060 201e 4F535F46 		.ascii	"OS_FN_COM1_RXRDY\000"
 13060      4E5F434F 
 13060      4D315F52 
 13060      58524459 
 13060      00
 13061              	.LASF246:
 13062 202f 4F535F46 		.ascii	"OS_FN_USBSER_READ\000"
 13062      4E5F5553 
 13062      42534552 
 13062      5F524541 
 13062      4400
 13063              	.LASF677:
 13064 2041 42535F46 		.ascii	"BS_FN_NET_DISABLE\000"
 13064      4E5F4E45 
 13064      545F4449 
 13064      5341424C 
 13064      4500
 13065              	.LASF614:
 13066 2053 42535F46 		.ascii	"BS_FN_NET_NIF_INFO\000"
 13066      4E5F4E45 
 13066      545F4E49 
 13066      465F494E 
 13066      464F00
 13067              	.LASF377:
 13068 2066 4F535F46 		.ascii	"OS_FN_MIF_SELECT\000"
 13068      4E5F4D49 
 13068      465F5345 
 13068      4C454354 
 13068      00
 13069              	.LASF709:
 13070 2077 4C534545 		.ascii	"LSEEKMW\000"
 13070      4B4D5700 
 13071              	.LASF536:
 13072 207f 4B5F4346 		.ascii	"K_CF_PublicKey\000"
 13072      5F507562 
 13072      6C69634B 
 13072      657900
 13073              	.LASF612:
 13074 208e 42535F46 		.ascii	"BS_FN_ICMP_SEND\000"
 13074      4E5F4943 
 13074      4D505F53 
ARM GAS  C:\Users\AHMED~1.ELE\AppData\Local\Temp\ccGujCBB.s 			page 277


 13074      454E4400 
 13075              	.LASF569:
 13076 209e 4B5F4346 		.ascii	"K_CF_SysRebootEnable\000"
 13076      5F537973 
 13076      5265626F 
 13076      6F74456E 
 13076      61626C65 
 13077              	.LASF59:
 13078 20b3 4F535F46 		.ascii	"OS_FN_COM1_TXRDY\000"
 13078      4E5F434F 
 13078      4D315F54 
 13078      58524459 
 13078      00
 13079              	.LASF170:
 13080 20c4 4F535F46 		.ascii	"OS_FN_FILE_RENAME\000"
 13080      4E5F4649 
 13080      4C455F52 
 13080      454E414D 
 13080      4500
 13081              	.LASF888:
 13082 20d6 636F6D70 		.ascii	"compress\000"
 13082      72657373 
 13082      00
 13083              	.LASF450:
 13084 20df 4F535F46 		.ascii	"OS_FN_FPRT_CLOSE\000"
 13084      4E5F4650 
 13084      52545F43 
 13084      4C4F5345 
 13084      00
 13085              	.LASF125:
 13086 20f0 4F535F46 		.ascii	"OS_FN_KEY_DUKPT_MAC_CAL\000"
 13086      4E5F4B45 
 13086      595F4455 
 13086      4B50545F 
 13086      4D41435F 
 13087              	.LASF352:
 13088 2108 4F535F46 		.ascii	"OS_FN_INTERRUPT_REGISTER\000"
 13088      4E5F494E 
 13088      54455252 
 13088      5550545F 
 13088      52454749 
 13089              	.LASF211:
 13090 2121 4F535F46 		.ascii	"OS_FN_SAM_CHANGE\000"
 13090      4E5F5341 
 13090      4D5F4348 
 13090      414E4745 
 13090      00
 13091              	.LASF184:
 13092 2132 4F535F46 		.ascii	"OS_FN_FILE_ACTIVATE\000"
 13092      4E5F4649 
 13092      4C455F41 
 13092      43544956 
 13092      41544500 
 13093              	.LASF45:
 13094 2146 4F535F46 		.ascii	"OS_FN_DISP_LENGTH\000"
 13094      4E5F4449 
 13094      53505F4C 
ARM GAS  C:\Users\AHMED~1.ELE\AppData\Local\Temp\ccGujCBB.s 			page 278


 13094      454E4754 
 13094      4800
 13095              	.LASF751:
 13096 2158 534D535F 		.ascii	"SMS_CLEAR_ALL_MW\000"
 13096      434C4541 
 13096      525F414C 
 13096      4C5F4D57 
 13096      00
 13097              	.LASF620:
 13098 2169 42535F46 		.ascii	"BS_FN_LINE_OPEN\000"
 13098      4E5F4C49 
 13098      4E455F4F 
 13098      50454E00 
 13099              	.LASF452:
 13100 2179 4F535F46 		.ascii	"OS_FN_FPRT_INFO_SET\000"
 13100      4E5F4650 
 13100      52545F49 
 13100      4E464F5F 
 13100      53455400 
 13101              	.LASF523:
 13102 218d 4B5F4346 		.ascii	"K_CF_IncomingCall\000"
 13102      5F496E63 
 13102      6F6D696E 
 13102      6743616C 
 13102      6C00
 13103              	.LASF0:
 13104 219f 756E7369 		.ascii	"unsigned int\000"
 13104      676E6564 
 13104      20696E74 
 13104      00
 13105              	.LASF496:
 13106 21ac 4B5F4346 		.ascii	"K_CF_IP\000"
 13106      5F495000 
 13107              	.LASF880:
 13108 21b4 7379735F 		.ascii	"sys_func0\000"
 13108      66756E63 
 13108      3000
 13109              	.LASF883:
 13110 21be 7379735F 		.ascii	"sys_func1\000"
 13110      66756E63 
 13110      3100
 13111              	.LASF884:
 13112 21c8 7379735F 		.ascii	"sys_func2\000"
 13112      66756E63 
 13112      3200
 13113              	.LASF879:
 13114 21d2 7379735F 		.ascii	"sys_func3\000"
 13114      66756E63 
 13114      3300
 13115              	.LASF446:
 13116 21dc 4F535F46 		.ascii	"OS_FN_DTIMER_LATCH_TIME\000"
 13116      4E5F4454 
 13116      494D4552 
 13116      5F4C4154 
 13116      43485F54 
 13117              	.LASF796:
 13118 21f4 4C6F6E67 		.ascii	"LongBeep\000"
ARM GAS  C:\Users\AHMED~1.ELE\AppData\Local\Temp\ccGujCBB.s 			page 279


 13118      42656570 
 13118      00
 13119              	.LASF324:
 13120 21fd 4F535F46 		.ascii	"OS_FN_CLICC_SENDCOMMAND\000"
 13120      4E5F434C 
 13120      4943435F 
 13120      53454E44 
 13120      434F4D4D 
 13121              	.LASF437:
 13122 2215 4F535F46 		.ascii	"OS_FN_DLL_REQ\000"
 13122      4E5F444C 
 13122      4C5F5245 
 13122      5100
 13123              	.LASF70:
 13124 2223 4F535F46 		.ascii	"OS_FN_COM2_SEND\000"
 13124      4E5F434F 
 13124      4D325F53 
 13124      454E4400 
 13125              	.LASF650:
 13126 2233 42535F46 		.ascii	"BS_FN_FTP_OPEN\000"
 13126      4E5F4654 
 13126      505F4F50 
 13126      454E00
 13127              	.LASF553:
 13128 2242 4B5F4346 		.ascii	"K_CF_FreqBand\000"
 13128      5F467265 
 13128      7142616E 
 13128      6400
 13129              	.LASF397:
 13130 2250 4F535F46 		.ascii	"OS_FN_BARCODE_READ\000"
 13130      4E5F4241 
 13130      52434F44 
 13130      455F5245 
 13130      414400
 13131              	.LASF743:
 13132 2263 44495350 		.ascii	"DISP_PUTGMW\000"
 13132      5F505554 
 13132      474D5700 
 13133              	.LASF474:
 13134 226f 4F535F46 		.ascii	"OS_FN_IMG_SENSOR_GET_FRAME_COMPLETE\000"
 13134      4E5F494D 
 13134      475F5345 
 13134      4E534F52 
 13134      5F474554 
 13135              	.LASF670:
 13136 2293 42535F46 		.ascii	"BS_FN_HTTP_REQUEST\000"
 13136      4E5F4854 
 13136      54505F52 
 13136      45515545 
 13136      535400
 13137              	.LASF842:
 13138 22a6 53686F77 		.ascii	"ShowIp\000"
 13138      497000
 13139              	.LASF419:
 13140 22ad 4F535F46 		.ascii	"OS_FN_GPRS_GET_GPS_INFO\000"
 13140      4E5F4750 
 13140      52535F47 
ARM GAS  C:\Users\AHMED~1.ELE\AppData\Local\Temp\ccGujCBB.s 			page 280


 13140      45545F47 
 13140      50535F49 
 13141              	.LASF127:
 13142 22c5 4F535F46 		.ascii	"OS_FN_KEY_CBC_MAC\000"
 13142      4E5F4B45 
 13142      595F4342 
 13142      435F4D41 
 13142      4300
 13143              	.LASF93:
 13144 22d7 4F535F46 		.ascii	"OS_FN_AES_SETUP_KEY\000"
 13144      4E5F4145 
 13144      535F5345 
 13144      5455505F 
 13144      4B455900 
 13145              	.LASF653:
 13146 22eb 42535F46 		.ascii	"BS_FN_FTP_DISCONNECT\000"
 13146      4E5F4654 
 13146      505F4449 
 13146      53434F4E 
 13146      4E454354 
 13147              	.LASF350:
 13148 2300 4F535F46 		.ascii	"OS_FN_DEVICE_MOUNT\000"
 13148      4E5F4445 
 13148      56494345 
 13148      5F4D4F55 
 13148      4E5400
 13149              	.LASF89:
 13150 2313 4F535F46 		.ascii	"OS_FN_NEW_DES\000"
 13150      4E5F4E45 
 13150      575F4445 
 13150      5300
 13151              	.LASF183:
 13152 2321 4F535F46 		.ascii	"OS_FN_FILE_DEACTIVATE\000"
 13152      4E5F4649 
 13152      4C455F44 
 13152      45414354 
 13152      49564154 
 13153              	.LASF566:
 13154 2337 4B5F4346 		.ascii	"K_CF_AgentLogged\000"
 13154      5F416765 
 13154      6E744C6F 
 13154      67676564 
 13154      00
 13155              	.LASF257:
 13156 2348 4F535F46 		.ascii	"OS_FN_FL_PGM_END\000"
 13156      4E5F464C 
 13156      5F50474D 
 13156      5F454E44 
 13156      00
 13157              	.LASF619:
 13158 2359 42535F46 		.ascii	"BS_FN_CID_READ\000"
 13158      4E5F4349 
 13158      445F5245 
 13158      414400
 13159              	.LASF264:
 13160 2368 4F535F46 		.ascii	"OS_FN_FL_CREAD\000"
 13160      4E5F464C 
ARM GAS  C:\Users\AHMED~1.ELE\AppData\Local\Temp\ccGujCBB.s 			page 281


 13160      5F435245 
 13160      414400
 13161              	.LASF745:
 13162 2377 4F535F43 		.ascii	"OS_CALL_MW\000"
 13162      414C4C5F 
 13162      4D5700
 13163              	.LASF415:
 13164 2382 4F535F46 		.ascii	"OS_FN_NFC_IC_REG_DIRECT_READ\000"
 13164      4E5F4E46 
 13164      435F4943 
 13164      5F524547 
 13164      5F444952 
 13165              	.LASF535:
 13166 239f 4B5F4346 		.ascii	"K_CF_Logo\000"
 13166      5F4C6F67 
 13166      6F00
 13167              	.LASF635:
 13168 23a9 42535F46 		.ascii	"BS_FN_PPP_SET_LOGIN_ID\000"
 13168      4E5F5050 
 13168      505F5345 
 13168      545F4C4F 
 13168      47494E5F 
 13169              	.LASF629:
 13170 23c0 42535F46 		.ascii	"BS_FN_PPP_SET_DEVICE\000"
 13170      4E5F5050 
 13170      505F5345 
 13170      545F4445 
 13170      56494345 
 13171              	.LASF852:
 13172 23d5 43686563 		.ascii	"CheckPointerAddr\000"
 13172      6B506F69 
 13172      6E746572 
 13172      41646472 
 13172      00
 13173              	.LASF540:
 13174 23e6 4B5F4346 		.ascii	"K_CF_SensitiveBlock\000"
 13174      5F53656E 
 13174      73697469 
 13174      7665426C 
 13174      6F636B00 
 13175              	.LASF388:
 13176 23fa 4F535F46 		.ascii	"OS_FN_MIF_SNO\000"
 13176      4E5F4D49 
 13176      465F534E 
 13176      4F00
 13177              	.LASF130:
 13178 2408 4F535F46 		.ascii	"OS_FN_KEY_SAVE_TMK_NC\000"
 13178      4E5F4B45 
 13178      595F5341 
 13178      56455F54 
 13178      4D4B5F4E 
 13179              	.LASF889:
 13180 241e 62636432 		.ascii	"bcd2bin\000"
 13180      62696E00 
 13181              	.LASF251:
 13182 2426 4F535F46 		.ascii	"OS_FN_FL_STATUS\000"
 13182      4E5F464C 
ARM GAS  C:\Users\AHMED~1.ELE\AppData\Local\Temp\ccGujCBB.s 			page 282


 13182      5F535441 
 13182      54555300 
 13183              	.LASF306:
 13184 2436 4F535F46 		.ascii	"OS_FN_TPAD_OPEN\000"
 13184      4E5F5450 
 13184      41445F4F 
 13184      50454E00 
 13185              	.LASF637:
 13186 2446 42535F46 		.ascii	"BS_FN_PPP_SET_ID_STR\000"
 13186      4E5F5050 
 13186      505F5345 
 13186      545F4944 
 13186      5F535452 
 13187              	.LASF589:
 13188 245b 4B5F4346 		.ascii	"K_CF_Max\000"
 13188      5F4D6178 
 13188      00
 13189              	.LASF224:
 13190 2464 4F535F46 		.ascii	"OS_FN_SLE_HIST\000"
 13190      4E5F534C 
 13190      455F4849 
 13190      535400
 13191              	.LASF425:
 13192 2473 4F535F46 		.ascii	"OS_FN_BREG_WRITE\000"
 13192      4E5F4252 
 13192      45475F57 
 13192      52495445 
 13192      00
 13193              	.LASF429:
 13194 2484 4F535F46 		.ascii	"OS_FN_POWER_SLEEP\000"
 13194      4E5F504F 
 13194      5745525F 
 13194      534C4545 
 13194      5000
 13195              	.LASF117:
 13196 2496 4F535F46 		.ascii	"OS_FN_SM4_ENCRYPT\000"
 13196      4E5F534D 
 13196      345F454E 
 13196      43525950 
 13196      5400
 13197              	.LASF216:
 13198 24a8 4F535F46 		.ascii	"OS_FN_MMC_PSTATUS\000"
 13198      4E5F4D4D 
 13198      435F5053 
 13198      54415455 
 13198      5300
 13199              	.LASF430:
 13200 24ba 4F535F46 		.ascii	"OS_FN_RESET\000"
 13200      4E5F5245 
 13200      53455400 
 13201              	.LASF840:
 13202 24c6 61537461 		.ascii	"aStartMark\000"
 13202      72744D61 
 13202      726B00
 13203              	.LASF316:
 13204 24d1 4F535F46 		.ascii	"OS_FN_CODEC_PLAY\000"
 13204      4E5F434F 
ARM GAS  C:\Users\AHMED~1.ELE\AppData\Local\Temp\ccGujCBB.s 			page 283


 13204      4445435F 
 13204      504C4159 
 13204      00
 13205              	.LASF50:
 13206 24e2 4F535F46 		.ascii	"OS_FN_DISP_BL_CONTROL\000"
 13206      4E5F4449 
 13206      53505F42 
 13206      4C5F434F 
 13206      4E54524F 
 13207              	.LASF14:
 13208 24f8 574F5244 		.ascii	"WORD\000"
 13208      00
 13209              	.LASF357:
 13210 24fd 4F535F46 		.ascii	"OS_FN_NETDEV_OPEN\000"
 13210      4E5F4E45 
 13210      54444556 
 13210      5F4F5045 
 13210      4E00
 13211              	.LASF461:
 13212 250f 4F535F46 		.ascii	"OS_FN_GCM_AES_FINISH\000"
 13212      4E5F4743 
 13212      4D5F4145 
 13212      535F4649 
 13212      4E495348 
 13213              	.LASF2:
 13214 2524 756E7369 		.ascii	"unsigned char\000"
 13214      676E6564 
 13214      20636861 
 13214      7200
 13215              	.LASF330:
 13216 2532 4F535F46 		.ascii	"OS_FN_CLICC_LED_SET\000"
 13216      4E5F434C 
 13216      4943435F 
 13216      4C45445F 
 13216      53455400 
 13217              	.LASF272:
 13218 2546 4F535F46 		.ascii	"OS_FN_MDM_STATUS\000"
 13218      4E5F4D44 
 13218      4D5F5354 
 13218      41545553 
 13218      00
 13219              	.LASF701:
 13220 2557 645F6761 		.ascii	"d_gateway\000"
 13220      74657761 
 13220      7900
 13221              	.LASF408:
 13222 2561 4F535F46 		.ascii	"OS_FN_NFC_SEND_FELICA_COMMAND\000"
 13222      4E5F4E46 
 13222      435F5345 
 13222      4E445F46 
 13222      454C4943 
 13223              	.LASF41:
 13224 257f 4F535F46 		.ascii	"OS_FN_DISP_GETG\000"
 13224      4E5F4449 
 13224      53505F47 
 13224      45544700 
 13225              	.LASF617:
ARM GAS  C:\Users\AHMED~1.ELE\AppData\Local\Temp\ccGujCBB.s 			page 284


 13226 258f 42535F46 		.ascii	"BS_FN_PHONE_DIAL\000"
 13226      4E5F5048 
 13226      4F4E455F 
 13226      4449414C 
 13226      00
 13227              	.LASF837:
 13228 25a0 53657444 		.ascii	"SetDTG\000"
 13228      544700
 13229              	.LASF325:
 13230 25a7 4F535F46 		.ascii	"OS_FN_CLICC_CTRL\000"
 13230      4E5F434C 
 13230      4943435F 
 13230      4354524C 
 13230      00
 13231              	.LASF546:
 13232 25b8 4B5F4346 		.ascii	"K_CF_ARPIp\000"
 13232      5F415250 
 13232      497000
 13233              	.LASF609:
 13234 25c3 42535F46 		.ascii	"BS_FN_UDP_STATUS\000"
 13234      4E5F5544 
 13234      505F5354 
 13234      41545553 
 13234      00
 13235              	.LASF845:
 13236 25d4 45646974 		.ascii	"EditIp\000"
 13236      497000
 13237              	.LASF498:
 13238 25db 4B5F4346 		.ascii	"K_CF_Tpad\000"
 13238      5F547061 
 13238      6400
 13239              	.LASF218:
 13240 25e5 4F535F46 		.ascii	"OS_FN_MMC_BLK_WRITE\000"
 13240      4E5F4D4D 
 13240      435F424C 
 13240      4B5F5752 
 13240      49544500 
 13241              	.LASF298:
 13242 25f9 4F535F46 		.ascii	"OS_FN_GPRS_CONTROL\000"
 13242      4E5F4750 
 13242      52535F43 
 13242      4F4E5452 
 13242      4F4C00
 13243              	.LASF683:
 13244 260c 42535F46 		.ascii	"BS_FN_NET_IOCTL\000"
 13244      4E5F4E45 
 13244      545F494F 
 13244      43544C00 
 13245              	.LASF363:
 13246 261c 4F535F46 		.ascii	"OS_FN_USBKBD_CLOSE\000"
 13246      4E5F5553 
 13246      424B4244 
 13246      5F434C4F 
 13246      534500
 13247              	.LASF605:
 13248 262f 42535F46 		.ascii	"BS_FN_UDP_CONNECT\000"
 13248      4E5F5544 
ARM GAS  C:\Users\AHMED~1.ELE\AppData\Local\Temp\ccGujCBB.s 			page 285


 13248      505F434F 
 13248      4E4E4543 
 13248      5400
 13249              	.LASF187:
 13250 2641 4F535F46 		.ascii	"OS_FN_FILE_AUTH\000"
 13250      4E5F4649 
 13250      4C455F41 
 13250      55544800 
 13251              	.LASF603:
 13252 2651 42535F46 		.ascii	"BS_FN_UDP_OPEN\000"
 13252      4E5F5544 
 13252      505F4F50 
 13252      454E00
 13253              	.LASF21:
 13254 2660 4F535F46 		.ascii	"OS_FN_KBD_INKEY\000"
 13254      4E5F4B42 
 13254      445F494E 
 13254      4B455900 
 13255              	.LASF98:
 13256 2670 4F535F46 		.ascii	"OS_FN_MD5_PROCESS\000"
 13256      4E5F4D44 
 13256      355F5052 
 13256      4F434553 
 13256      5300
 13257              	.LASF906:
 13258 2682 47657457 		.ascii	"GetWifiStatus\000"
 13258      69666953 
 13258      74617475 
 13258      7300
 13259              	.LASF855:
 13260 2690 4D656D46 		.ascii	"MemFatalErr\000"
 13260      6174616C 
 13260      45727200 
 13261              	.LASF29:
 13262 269c 4F535F46 		.ascii	"OS_FN_TIMER_GET\000"
 13262      4E5F5449 
 13262      4D45525F 
 13262      47455400 
 13263              	.LASF77:
 13264 26ac 4F535F46 		.ascii	"OS_FN_COM3_TXRDY\000"
 13264      4E5F434F 
 13264      4D335F54 
 13264      58524459 
 13264      00
 13265              	.LASF178:
 13266 26bd 4F535F46 		.ascii	"OS_FN_FILE_LENGTH\000"
 13266      4E5F4649 
 13266      4C455F4C 
 13266      454E4754 
 13266      4800
 13267              	.LASF488:
 13268 26cf 454E445F 		.ascii	"END_OF_OS_FN_LIST\000"
 13268      4F465F4F 
 13268      535F464E 
 13268      5F4C4953 
 13268      5400
 13269              	.LASF648:
ARM GAS  C:\Users\AHMED~1.ELE\AppData\Local\Temp\ccGujCBB.s 			page 286


 13270 26e1 42535F46 		.ascii	"BS_FN_PPP_SET_ALIVE_TIME\000"
 13270      4E5F5050 
 13270      505F5345 
 13270      545F414C 
 13270      4956455F 
 13271              	.LASF744:
 13272 26fa 4745545F 		.ascii	"GET_LCD_TYPEMW\000"
 13272      4C43445F 
 13272      54595045 
 13272      4D5700
 13273              	.LASF162:
 13274 2709 4F535F46 		.ascii	"OS_FN_MALLOC\000"
 13274      4E5F4D41 
 13274      4C4C4F43 
 13274      00
 13275              	.LASF365:
 13276 2716 4F535F46 		.ascii	"OS_FN_USBKBD_GETKEY\000"
 13276      4E5F5553 
 13276      424B4244 
 13276      5F474554 
 13276      4B455900 
 13277              	.LASF862:
 13278 272a 61537472 		.ascii	"aStr\000"
 13278      00
 13279              	.LASF444:
 13280 272f 4F535F46 		.ascii	"OS_FN_DTIMER_LATCH_START\000"
 13280      4E5F4454 
 13280      494D4552 
 13280      5F4C4154 
 13280      43485F53 
 13281              	.LASF624:
 13282 2748 42535F46 		.ascii	"BS_FN_LINE_SEND\000"
 13282      4E5F4C49 
 13282      4E455F53 
 13282      454E4400 
 13283              	.LASF585:
 13284 2758 4B5F4346 		.ascii	"K_CF_WIFI_AP_PROFILE\000"
 13284      5F574946 
 13284      495F4150 
 13284      5F50524F 
 13284      46494C45 
 13285              	.LASF400:
 13286 276d 4F535F46 		.ascii	"OS_FN_BARCODE_ENABLED\000"
 13286      4E5F4241 
 13286      52434F44 
 13286      455F454E 
 13286      41424C45 
 13287              	.LASF171:
 13288 2783 4F535F46 		.ascii	"OS_FN_FILE_DELETE\000"
 13288      4E5F4649 
 13288      4C455F44 
 13288      454C4554 
 13288      4500
 13289              	.LASF147:
 13290 2795 4F535F46 		.ascii	"OS_FN_BUFMAN_REALLOC\000"
 13290      4E5F4255 
 13290      464D414E 
ARM GAS  C:\Users\AHMED~1.ELE\AppData\Local\Temp\ccGujCBB.s 			page 287


 13290      5F524541 
 13290      4C4C4F43 
 13291              	.LASF312:
 13292 27aa 4F535F46 		.ascii	"OS_FN_TPAD_CALIBRATE\000"
 13292      4E5F5450 
 13292      41445F43 
 13292      414C4942 
 13292      52415445 
 13293              	.LASF359:
 13294 27bf 4F535F46 		.ascii	"OS_FN_NETDEV_GETLINK\000"
 13294      4E5F4E45 
 13294      54444556 
 13294      5F474554 
 13294      4C494E4B 
 13295              	.LASF868:
 13296 27d4 44574765 		.ascii	"DWGet\000"
 13296      7400
 13297              	.LASF833:
 13298 27da 436F6E76 		.ascii	"ConvDateTime\000"
 13298      44617465 
 13298      54696D65 
 13298      00
 13299              	.LASF805:
 13300 27e7 4572726F 		.ascii	"ErrorDelay\000"
 13300      7244656C 
 13300      617900
 13301              	.LASF107:
 13302 27f2 4F535F46 		.ascii	"OS_FN_SM2_SET_CURVE\000"
 13302      4E5F534D 
 13302      325F5345 
 13302      545F4355 
 13302      52564500 
 13303              	.LASF274:
 13304 2806 4F535F46 		.ascii	"OS_FN_MCOM_OPEN\000"
 13304      4E5F4D43 
 13304      4F4D5F4F 
 13304      50454E00 
 13305              	.LASF867:
 13306 2816 57476574 		.ascii	"WGet\000"
 13306      00
 13307              	.LASF331:
 13308 281b 4F535F46 		.ascii	"OS_FN_CLICC_LED_CLEAR\000"
 13308      4E5F434C 
 13308      4943435F 
 13308      4C45445F 
 13308      434C4541 
 13309              	.LASF548:
 13310 2831 4B5F4346 		.ascii	"K_CF_BattStatCount\000"
 13310      5F426174 
 13310      74537461 
 13310      74436F75 
 13310      6E7400
 13311              	.LASF158:
 13312 2844 4F535F46 		.ascii	"OS_FN_APP_SEARCH_NAME\000"
 13312      4E5F4150 
 13312      505F5345 
 13312      41524348 
ARM GAS  C:\Users\AHMED~1.ELE\AppData\Local\Temp\ccGujCBB.s 			page 288


 13312      5F4E414D 
 13313              	.LASF101:
 13314 285a 4F535F46 		.ascii	"OS_FN_SHA_PROCESS\000"
 13314      4E5F5348 
 13314      415F5052 
 13314      4F434553 
 13314      5300
 13315              	.LASF361:
 13316 286c 4F535F46 		.ascii	"OS_FN_NETDEV_IOCTL\000"
 13316      4E5F4E45 
 13316      54444556 
 13316      5F494F43 
 13316      544C00
 13317              	.LASF84:
 13318 287f 4F535F46 		.ascii	"OS_FN_DES\000"
 13318      4E5F4445 
 13318      5300
 13319              	.LASF475:
 13320 2889 4F535F46 		.ascii	"OS_FN_IMG_SENSOR_CLOSE\000"
 13320      4E5F494D 
 13320      475F5345 
 13320      4E534F52 
 13320      5F434C4F 
 13321              	.LASF57:
 13322 28a0 4F535F46 		.ascii	"OS_FN_COM1_CLOSE\000"
 13322      4E5F434F 
 13322      4D315F43 
 13322      4C4F5345 
 13322      00
 13323              	.LASF686:
 13324 28b1 42535F46 		.ascii	"BS_FN_TCP_EXTRA_CONTROL_FREE\000"
 13324      4E5F5443 
 13324      505F4558 
 13324      5452415F 
 13324      434F4E54 
 13325              	.LASF543:
 13326 28ce 4B5F4346 		.ascii	"K_CF_PingEnable\000"
 13326      5F50696E 
 13326      67456E61 
 13326      626C6500 
 13327              	.LASF396:
 13328 28de 4F535F46 		.ascii	"OS_FN_BARCODE_SCAN\000"
 13328      4E5F4241 
 13328      52434F44 
 13328      455F5343 
 13328      414E00
 13329              	.LASF23:
 13330 28f1 4F535F46 		.ascii	"OS_FN_KBD_GETKEY\000"
 13330      4E5F4B42 
 13330      445F4745 
 13330      544B4559 
 13330      00
 13331              	.LASF811:
 13332 2902 44697370 		.ascii	"DispPutStr\000"
 13332      50757453 
 13332      747200
 13333              	.LASF335:
ARM GAS  C:\Users\AHMED~1.ELE\AppData\Local\Temp\ccGujCBB.s 			page 289


 13334 290d 4F535F46 		.ascii	"OS_FN_USBHOST_RESET_DEVICE\000"
 13334      4E5F5553 
 13334      42484F53 
 13334      545F5245 
 13334      5345545F 
 13335              	.LASF213:
 13336 2928 4F535F46 		.ascii	"OS_FN_MMC_CLOSE\000"
 13336      4E5F4D4D 
 13336      435F434C 
 13336      4F534500 
 13337              	.LASF785:
 13338 2938 6243656E 		.ascii	"bCentury\000"
 13338      74757279 
 13338      00
 13339              	.LASF308:
 13340 2941 4F535F46 		.ascii	"OS_FN_TPAD_ADD_OBJ\000"
 13340      4E5F5450 
 13340      41445F41 
 13340      44445F4F 
 13340      424A00
 13341              	.LASF765:
 13342 2954 41504D5F 		.ascii	"APM_SDEV_ICC\000"
 13342      53444556 
 13342      5F494343 
 13342      00
 13343              	.LASF160:
 13344 2961 4F535F46 		.ascii	"OS_FN_APP_CLR_VIRGIN\000"
 13344      4E5F4150 
 13344      505F434C 
 13344      525F5649 
 13344      5247494E 
 13345              	.LASF571:
 13346 2976 4B5F4346 		.ascii	"K_CF_BUpDllControl\000"
 13346      5F425570 
 13346      446C6C43 
 13346      6F6E7472 
 13346      6F6C00
 13347              	.LASF841:
 13348 2989 63757272 		.ascii	"curr_mark\000"
 13348      5F6D6172 
 13348      6B00
 13349              	.LASF199:
 13350 2993 4F535F46 		.ascii	"OS_FN_FILE_IOCTL\000"
 13350      4E5F4649 
 13350      4C455F49 
 13350      4F43544C 
 13350      00
 13351              	.LASF610:
 13352 29a4 42535F46 		.ascii	"BS_FN_CAKEY_INJECT\000"
 13352      4E5F4341 
 13352      4B45595F 
 13352      494E4A45 
 13352      435400
 13353              	.LASF873:
 13354 29b7 6E657469 		.ascii	"netinfo\000"
 13354      6E666F00 
 13355              	.LASF411:
ARM GAS  C:\Users\AHMED~1.ELE\AppData\Local\Temp\ccGujCBB.s 			page 290


 13356 29bf 4F535F46 		.ascii	"OS_FN_NFC_GET_VALID_RESP\000"
 13356      4E5F4E46 
 13356      435F4745 
 13356      545F5641 
 13356      4C49445F 
 13357              	.LASF177:
 13358 29d8 4F535F46 		.ascii	"OS_FN_FILE_GETC\000"
 13358      4E5F4649 
 13358      4C455F47 
 13358      45544300 
 13359              	.LASF756:
 13360 29e8 4D575F46 		.ascii	"MW_FUNC_COUNT\000"
 13360      554E435F 
 13360      434F554E 
 13360      5400
 13361              	.LASF642:
 13362 29f6 42535F46 		.ascii	"BS_FN_PPP_SET_RECONNECT\000"
 13362      4E5F5050 
 13362      505F5345 
 13362      545F5245 
 13362      434F4E4E 
 13363              	.LASF341:
 13364 2a0e 4F535F46 		.ascii	"OS_FN_DRIVER_UNREGISTER\000"
 13364      4E5F4452 
 13364      49564552 
 13364      5F554E52 
 13364      45474953 
 13365              	.LASF465:
 13366 2a26 4F535F46 		.ascii	"OS_FN_WIFI_SOCKET_DISCONNECT\000"
 13366      4E5F5749 
 13366      46495F53 
 13366      4F434B45 
 13366      545F4449 
 13367              	.LASF654:
 13368 2a43 42535F46 		.ascii	"BS_FN_FTP_DATA_SEND\000"
 13368      4E5F4654 
 13368      505F4441 
 13368      54415F53 
 13368      454E4400 
 13369              	.LASF861:
 13370 2a57 44656275 		.ascii	"DebugPoint\000"
 13370      67506F69 
 13370      6E7400
 13371              	.LASF311:
 13372 2a62 4F535F46 		.ascii	"OS_FN_TPAD_ALERT_RETURN\000"
 13372      4E5F5450 
 13372      41445F41 
 13372      4C455254 
 13372      5F524554 
 13373              	.LASF131:
 13374 2a7a 4F535F46 		.ascii	"OS_FN_KEY_SAVE_TMK_CBC\000"
 13374      4E5F4B45 
 13374      595F5341 
 13374      56455F54 
 13374      4D4B5F43 
 13375              	.LASF87:
 13376 2a91 4F535F46 		.ascii	"OS_FN_COM_DES\000"
ARM GAS  C:\Users\AHMED~1.ELE\AppData\Local\Temp\ccGujCBB.s 			page 291


 13376      4E5F434F 
 13376      4D5F4445 
 13376      5300
 13377              	.LASF106:
 13378 2a9f 4F535F46 		.ascii	"OS_FN_MD4_FINISH\000"
 13378      4E5F4D44 
 13378      345F4649 
 13378      4E495348 
 13378      00
 13379              	.LASF74:
 13380 2ab0 4F535F46 		.ascii	"OS_FN_COM3_OPEN\000"
 13380      4E5F434F 
 13380      4D335F4F 
 13380      50454E00 
 13381              	.LASF779:
 13382 2ac0 474C4F43 		.ascii	"GLOC\000"
 13382      00
 13383              	.LASF261:
 13384 2ac5 4F535F46 		.ascii	"OS_FN_FL_COPYB_PGM\000"
 13384      4E5F464C 
 13384      5F434F50 
 13384      59425F50 
 13384      474D00
 13385              	.LASF549:
 13386 2ad8 4B5F4346 		.ascii	"K_CF_BattStatValid\000"
 13386      5F426174 
 13386      74537461 
 13386      7456616C 
 13386      696400
 13387              	.LASF486:
 13388 2aeb 4F535F46 		.ascii	"OS_FN_IMG_SENSOR_SET_MODE\000"
 13388      4E5F494D 
 13388      475F5345 
 13388      4E534F52 
 13388      5F534554 
 13389              	.LASF568:
 13390 2b05 4B5F4346 		.ascii	"K_CF_LCDC_ALWAYS_ON\000"
 13390      5F4C4344 
 13390      435F414C 
 13390      57415953 
 13390      5F4F4E00 
 13391              	.LASF625:
 13392 2b19 42535F46 		.ascii	"BS_FN_LINE_READ\000"
 13392      4E5F4C49 
 13392      4E455F52 
 13392      45414400 
 13393              	.LASF374:
 13394 2b29 4F535F46 		.ascii	"OS_FN_MIF_TAG\000"
 13394      4E5F4D49 
 13394      465F5441 
 13394      4700
 13395              	.LASF844:
 13396 2b37 61526576 		.ascii	"aReverse\000"
 13396      65727365 
 13396      00
 13397              	.LASF262:
 13398 2b40 4F535F46 		.ascii	"OS_FN_FL_COPYB_END\000"
ARM GAS  C:\Users\AHMED~1.ELE\AppData\Local\Temp\ccGujCBB.s 			page 292


 13398      4E5F464C 
 13398      5F434F50 
 13398      59425F45 
 13398      4E4400
 13399              	.LASF821:
 13400 2b53 6C6F676F 		.ascii	"logo_size\000"
 13400      5F73697A 
 13400      6500
 13401              	.LASF66:
 13402 2b5d 4F535F46 		.ascii	"OS_FN_COM2_CLOSE\000"
 13402      4E5F434F 
 13402      4D325F43 
 13402      4C4F5345 
 13402      00
 13403              	.LASF766:
 13404 2b6e 41504D5F 		.ascii	"APM_SDEV_GPRS\000"
 13404      53444556 
 13404      5F475052 
 13404      5300
 13405              	.LASF747:
 13406 2b7c 534D535F 		.ascii	"SMS_ENB_MW\000"
 13406      454E425F 
 13406      4D5700
 13407              	.LASF221:
 13408 2b87 4F535F46 		.ascii	"OS_FN_MMC_INSERTED\000"
 13408      4E5F4D4D 
 13408      435F494E 
 13408      53455254 
 13408      454400
 13409              	.LASF422:
 13410 2b9a 4F535F46 		.ascii	"OS_FN_GPS_RESET\000"
 13410      4E5F4750 
 13410      535F5245 
 13410      53455400 
 13411              	.LASF636:
 13412 2baa 42535F46 		.ascii	"BS_FN_PPP_SET_DIAL_SC\000"
 13412      4E5F5050 
 13412      505F5345 
 13412      545F4449 
 13412      414C5F53 
 13413              	.LASF533:
 13414 2bc0 4B5F4346 		.ascii	"K_CF_LcdBannerEnable\000"
 13414      5F4C6364 
 13414      42616E6E 
 13414      6572456E 
 13414      61626C65 
 13415              	.LASF512:
 13416 2bd5 4B5F4346 		.ascii	"K_CF_SetupPsw\000"
 13416      5F536574 
 13416      75705073 
 13416      7700
 13417              	.LASF753:
 13418 2be3 46545255 		.ascii	"FTRUNCATEMW\000"
 13418      4E434154 
 13418      454D5700 
 13419              	.LASF817:
 13420 2bef 53686F77 		.ascii	"ShowGraphicT800\000"
ARM GAS  C:\Users\AHMED~1.ELE\AppData\Local\Temp\ccGujCBB.s 			page 293


 13420      47726170 
 13420      68696354 
 13420      38303000 
 13421              	.LASF483:
 13422 2bff 4F535F46 		.ascii	"OS_FN_WIFI_SET_REGULATORY_DOMAIN\000"
 13422      4E5F5749 
 13422      46495F53 
 13422      45545F52 
 13422      4547554C 
 13423              	.LASF510:
 13424 2c20 4B5F4346 		.ascii	"K_CF_BSysPsw\000"
 13424      5F425379 
 13424      73507377 
 13424      00
 13425              	.LASF285:
 13426 2c2d 4F535F46 		.ascii	"OS_FN_BATT_TEMP\000"
 13426      4E5F4241 
 13426      54545F54 
 13426      454D5000 
 13427              	.LASF386:
 13428 2c3d 4F535F46 		.ascii	"OS_FN_MIF_TRANSFER\000"
 13428      4E5F4D49 
 13428      465F5452 
 13428      414E5346 
 13428      455200
 13429              	.LASF680:
 13430 2c50 42535F46 		.ascii	"BS_FN_NET_DEQUEUE\000"
 13430      4E5F4E45 
 13430      545F4445 
 13430      51554555 
 13430      4500
 13431              	.LASF797:
 13432 2c62 41636365 		.ascii	"AcceptBeep\000"
 13432      70744265 
 13432      657000
 13433              	.LASF679:
 13434 2c6d 42535F46 		.ascii	"BS_FN_NET_ENQUEUE\000"
 13434      4E5F4E45 
 13434      545F454E 
 13434      51554555 
 13434      4500
 13435              	.LASF886:
 13436 2c7f 6D656D73 		.ascii	"memset\000"
 13436      657400
 13437              	.LASF110:
 13438 2c86 4F535F46 		.ascii	"OS_FN_SM2_VERIFY_SIGNATURE\000"
 13438      4E5F534D 
 13438      325F5645 
 13438      52494659 
 13438      5F534947 
 13439              	.LASF865:
 13440 2ca1 614C656E 		.ascii	"aLen\000"
 13440      00
 13441              	.LASF27:
 13442 2ca6 4F535F46 		.ascii	"OS_FN_TIMER_CLOSE\000"
 13442      4E5F5449 
 13442      4D45525F 
ARM GAS  C:\Users\AHMED~1.ELE\AppData\Local\Temp\ccGujCBB.s 			page 294


 13442      434C4F53 
 13442      4500
 13443              	.LASF148:
 13444 2cb8 4F535F46 		.ascii	"OS_FN_BUFMAN_SHRINK\000"
 13444      4E5F4255 
 13444      464D414E 
 13444      5F534852 
 13444      494E4B00 
 13445              	.LASF601:
 13446 2ccc 42535F46 		.ascii	"BS_FN_TCP_READ\000"
 13446      4E5F5443 
 13446      505F5245 
 13446      414400
 13447              	.LASF829:
 13448 2cdb 53657452 		.ascii	"SetRTC\000"
 13448      544300
 13449              	.LASF275:
 13450 2ce2 4F535F46 		.ascii	"OS_FN_MCOM_CLOSE\000"
 13450      4E5F4D43 
 13450      4F4D5F43 
 13450      4C4F5345 
 13450      00
 13451              	.LASF104:
 13452 2cf3 4F535F46 		.ascii	"OS_FN_RC4_ENCRYPT\000"
 13452      4E5F5243 
 13452      345F454E 
 13452      43525950 
 13452      5400
 13453              	.LASF398:
 13454 2d05 4F535F46 		.ascii	"OS_FN_BARCODE_ABORT\000"
 13454      4E5F4241 
 13454      52434F44 
 13454      455F4142 
 13454      4F525400 
 13455              	.LASF792:
 13456 2d19 48505F57 		.ascii	"HP_WAITON\000"
 13456      4149544F 
 13456      4E00
 13457              	.LASF565:
 13458 2d23 4B5F4346 		.ascii	"K_CF_DllControlEnable\000"
 13458      5F446C6C 
 13458      436F6E74 
 13458      726F6C45 
 13458      6E61626C 
 13459              	.LASF704:
 13460 2d39 53485554 		.ascii	"SHUTDOWNMW\000"
 13460      444F574E 
 13460      4D5700
 13461              	.LASF866:
 13462 2d44 57726974 		.ascii	"WriteSFile\000"
 13462      65534669 
 13462      6C6500
 13463              	.LASF33:
 13464 2d4f 4F535F46 		.ascii	"OS_FN_BUZ_STATE\000"
 13464      4E5F4255 
 13464      5A5F5354 
 13464      41544500 
ARM GAS  C:\Users\AHMED~1.ELE\AppData\Local\Temp\ccGujCBB.s 			page 295


 13465              	.LASF304:
 13466 2d5f 4F535F46 		.ascii	"OS_FN_GPRS_SMS_CONTROL\000"
 13466      4E5F4750 
 13466      52535F53 
 13466      4D535F43 
 13466      4F4E5452 
 13467              	.LASF228:
 13468 2d76 4F535F46 		.ascii	"OS_FN_LAN_RXRDY\000"
 13468      4E5F4C41 
 13468      4E5F5258 
 13468      52445900 
 13469              	.LASF801:
 13470 2d86 6154696D 		.ascii	"aTime\000"
 13470      6500
 13471              	.LASF212:
 13472 2d8c 4F535F46 		.ascii	"OS_FN_MMC_OPEN\000"
 13472      4E5F4D4D 
 13472      435F4F50 
 13472      454E00
 13473              	.LASF652:
 13474 2d9b 42535F46 		.ascii	"BS_FN_FTP_CONNECT\000"
 13474      4E5F4654 
 13474      505F434F 
 13474      4E4E4543 
 13474      5400
 13475              	.LASF735:
 13476 2dad 44495350 		.ascii	"DISP_PUTCMW\000"
 13476      5F505554 
 13476      434D5700 
 13477              	.LASF822:
 13478 2db9 636F6C6F 		.ascii	"color\000"
 13478      7200
 13479              	.LASF346:
 13480 2dbf 4F535F46 		.ascii	"OS_FN_DEVICE_IOCTL\000"
 13480      4E5F4445 
 13480      56494345 
 13480      5F494F43 
 13480      544C00
 13481              	.LASF900:
 13482 2dd2 62617365 		.ascii	"base_func0\000"
 13482      5F66756E 
 13482      633000
 13483              	.LASF898:
 13484 2ddd 62617365 		.ascii	"base_func1\000"
 13484      5F66756E 
 13484      633100
 13485              	.LASF899:
 13486 2de8 62617365 		.ascii	"base_func2\000"
 13486      5F66756E 
 13486      633200
 13487              	.LASF155:
 13488 2df3 4F535F46 		.ascii	"OS_FN_GET_CHALLENGE\000"
 13488      4E5F4745 
 13488      545F4348 
 13488      414C4C45 
 13488      4E474500 
 13489              	.LASF217:
ARM GAS  C:\Users\AHMED~1.ELE\AppData\Local\Temp\ccGujCBB.s 			page 296


 13490 2e07 4F535F46 		.ascii	"OS_FN_MMC_BLK_READ\000"
 13490      4E5F4D4D 
 13490      435F424C 
 13490      4B5F5245 
 13490      414400
 13491              	.LASF655:
 13492 2e1a 42535F46 		.ascii	"BS_FN_FTP_DATA_READ\000"
 13492      4E5F4654 
 13492      505F4441 
 13492      54415F52 
 13492      45414400 
 13493              	.LASF508:
 13494 2e2e 4B5F4346 		.ascii	"K_CF_TamperOn\000"
 13494      5F54616D 
 13494      7065724F 
 13494      6E00
 13495              	.LASF97:
 13496 2e3c 4F535F46 		.ascii	"OS_FN_MD5_INIT\000"
 13496      4E5F4D44 
 13496      355F494E 
 13496      495400
 13497              	.LASF494:
 13498 2e4b 4B5F4346 		.ascii	"K_CF_EtherID\000"
 13498      5F457468 
 13498      65724944 
 13498      00
 13499              	.LASF689:
 13500 2e58 42535F46 		.ascii	"BS_FN_HTTP_CONNECT2\000"
 13500      4E5F4854 
 13500      54505F43 
 13500      4F4E4E45 
 13500      43543200 
 13501              	.LASF253:
 13502 2e6c 4F535F46 		.ascii	"OS_FN_FL_PAGE\000"
 13502      4E5F464C 
 13502      5F504147 
 13502      4500
 13503              	.LASF144:
 13504 2e7a 4F535F46 		.ascii	"OS_FN_THREAD_RETURN\000"
 13504      4E5F5448 
 13504      52454144 
 13504      5F524554 
 13504      55524E00 
 13505              	.LASF203:
 13506 2e8e 4F535F46 		.ascii	"OS_FN_CONFIG_UPDATE\000"
 13506      4E5F434F 
 13506      4E464947 
 13506      5F555044 
 13506      41544500 
 13507              	.LASF412:
 13508 2ea2 4F535F46 		.ascii	"OS_FN_NFC_INFO_GET\000"
 13508      4E5F4E46 
 13508      435F494E 
 13508      464F5F47 
 13508      455400
 13509              	.LASF893:
 13510 2eb5 73707269 		.ascii	"sprintf\000"
ARM GAS  C:\Users\AHMED~1.ELE\AppData\Local\Temp\ccGujCBB.s 			page 297


 13510      6E746600 
 13511              	.LASF559:
 13512 2ebd 4B5F4346 		.ascii	"K_CF_MdmAutoTxPwr\000"
 13512      5F4D646D 
 13512      4175746F 
 13512      54785077 
 13512      7200
 13513              	.LASF191:
 13514 2ecf 4F535F46 		.ascii	"OS_FN_FILE_GET_SYSTEMINFO\000"
 13514      4E5F4649 
 13514      4C455F47 
 13514      45545F53 
 13514      59535445 
 13515              	.LASF378:
 13516 2ee9 4F535F46 		.ascii	"OS_FN_MIF_LOAD_KEY\000"
 13516      4E5F4D49 
 13516      465F4C4F 
 13516      41445F4B 
 13516      455900
 13517              	.LASF100:
 13518 2efc 4F535F46 		.ascii	"OS_FN_SHA_INIT\000"
 13518      4E5F5348 
 13518      415F494E 
 13518      495400
 13519              	.LASF608:
 13520 2f0b 42535F46 		.ascii	"BS_FN_UDP_READ\000"
 13520      4E5F5544 
 13520      505F5245 
 13520      414400
 13521              	.LASF345:
 13522 2f1a 4F535F46 		.ascii	"OS_FN_DEVICE_ALLOC_MEDIA\000"
 13522      4E5F4445 
 13522      56494345 
 13522      5F414C4C 
 13522      4F435F4D 
 13523              	.LASF562:
 13524 2f33 4B5F4346 		.ascii	"K_CF_MdmU80\000"
 13524      5F4D646D 
 13524      55383000 
 13525              	.LASF582:
 13526 2f3f 4B5F4346 		.ascii	"K_CF_Barcode\000"
 13526      5F426172 
 13526      636F6465 
 13526      00
 13527              	.LASF459:
 13528 2f4c 4F535F46 		.ascii	"OS_FN_GCM_AES_PROCESS_AAD\000"
 13528      4E5F4743 
 13528      4D5F4145 
 13528      535F5052 
 13528      4F434553 
 13529              	.LASF820:
 13530 2f66 70477261 		.ascii	"pGraphic\000"
 13530      70686963 
 13530      00
 13531              	.LASF671:
 13532 2f6f 42535F46 		.ascii	"BS_FN_HTTP_RESPONSE\000"
 13532      4E5F4854 
ARM GAS  C:\Users\AHMED~1.ELE\AppData\Local\Temp\ccGujCBB.s 			page 298


 13532      54505F52 
 13532      4553504F 
 13532      4E534500 
 13533              	.LASF79:
 13534 2f83 4F535F46 		.ascii	"OS_FN_COM3_SEND\000"
 13534      4E5F434F 
 13534      4D335F53 
 13534      454E4400 
 13535              	.LASF657:
 13536 2f93 42535F46 		.ascii	"BS_FN_FTP_CMD_READ\000"
 13536      4E5F4654 
 13536      505F434D 
 13536      445F5245 
 13536      414400
 13537              	.LASF222:
 13538 2fa6 4F535F46 		.ascii	"OS_FN_SLE_OPEN\000"
 13538      4E5F534C 
 13538      455F4F50 
 13538      454E00
 13539              	.LASF694:
 13540 2fb5 42535F46 		.ascii	"BS_FN_TCP_WIFI_SOCKET_RECEIVE\000"
 13540      4E5F5443 
 13540      505F5749 
 13540      46495F53 
 13540      4F434B45 
 13541              	.LASF794:
 13542 2fd3 48505F57 		.ascii	"HP_WAITCLOSE\000"
 13542      41495443 
 13542      4C4F5345 
 13542      00
 13543              	.LASF141:
 13544 2fe0 4F535F46 		.ascii	"OS_FN_THREAD_UNLOCK\000"
 13544      4E5F5448 
 13544      52454144 
 13544      5F554E4C 
 13544      4F434B00 
 13545              	.LASF370:
 13546 2ff4 4F535F46 		.ascii	"OS_FN_MIF_CLOSE\000"
 13546      4E5F4D49 
 13546      465F434C 
 13546      4F534500 
 13547              	.LASF649:
 13548 3004 42535F46 		.ascii	"BS_FN_PPP_GET_STATUS\000"
 13548      4E5F5050 
 13548      505F4745 
 13548      545F5354 
 13548      41545553 
 13549              	.LASF80:
 13550 3019 4F535F46 		.ascii	"OS_FN_COM3_STATUS\000"
 13550      4E5F434F 
 13550      4D335F53 
 13550      54415455 
 13550      5300
 13551              	.LASF307:
 13552 302b 4F535F46 		.ascii	"OS_FN_TPAD_CLOSE\000"
 13552      4E5F5450 
 13552      41445F43 
ARM GAS  C:\Users\AHMED~1.ELE\AppData\Local\Temp\ccGujCBB.s 			page 299


 13552      4C4F5345 
 13552      00
 13553              	.LASF3:
 13554 303c 73686F72 		.ascii	"short int\000"
 13554      7420696E 
 13554      7400
 13555              	.LASF660:
 13556 3046 42535F46 		.ascii	"BS_FN_LAN_CLOSE\000"
 13556      4E5F4C41 
 13556      4E5F434C 
 13556      4F534500 
 13557              	.LASF604:
 13558 3056 42535F46 		.ascii	"BS_FN_UDP_CLOSE\000"
 13558      4E5F5544 
 13558      505F434C 
 13558      4F534500 
 13559              	.LASF591:
 13560 3066 55534246 		.ascii	"USBFPRT_GENERAL_INFO_IMG_WIDTH\000"
 13560      5052545F 
 13560      47454E45 
 13560      52414C5F 
 13560      494E464F 
 13561              	.LASF329:
 13562 3085 4F535F46 		.ascii	"OS_FN_CLICC_LED_STATUS\000"
 13562      4E5F434C 
 13562      4943435F 
 13562      4C45445F 
 13562      53544154 
 13563              	.LASF320:
 13564 309c 4F535F46 		.ascii	"OS_FN_CLICC_OPEN\000"
 13564      4E5F434C 
 13564      4943435F 
 13564      4F50454E 
 13564      00
 13565              	.LASF64:
 13566 30ad 4F535F46 		.ascii	"OS_FN_COM1_SSEND\000"
 13566      4E5F434F 
 13566      4D315F53 
 13566      53454E44 
 13566      00
 13567              	.LASF347:
 13568 30be 4F535F46 		.ascii	"OS_FN_DEVICE_SEARCH_INIT\000"
 13568      4E5F4445 
 13568      56494345 
 13568      5F534541 
 13568      5243485F 
 13569              	.LASF282:
 13570 30d7 4F535F46 		.ascii	"OS_FN_MCOM_READ\000"
 13570      4E5F4D43 
 13570      4F4D5F52 
 13570      45414400 
 13571              	.LASF762:
 13572 30e7 775F7677 		.ascii	"w_vwidth\000"
 13572      69647468 
 13572      00
 13573              	.LASF895:
 13574 30f0 4765744B 		.ascii	"GetKbd\000"
ARM GAS  C:\Users\AHMED~1.ELE\AppData\Local\Temp\ccGujCBB.s 			page 300


 13574      626400
 13575              	.LASF656:
 13576 30f7 42535F46 		.ascii	"BS_FN_FTP_CMD_SEND\000"
 13576      4E5F4654 
 13576      505F434D 
 13576      445F5345 
 13576      4E4400
 13577              	.LASF431:
 13578 310a 4F535F46 		.ascii	"OS_FN_FREE_RUN\000"
 13578      4E5F4652 
 13578      45455F52 
 13578      554E00
 13579              	.LASF297:
 13580 3119 4F535F46 		.ascii	"OS_FN_GPRS_RESET\000"
 13580      4E5F4750 
 13580      52535F52 
 13580      45534554 
 13580      00
 13581              	.LASF291:
 13582 312a 4F535F46 		.ascii	"OS_FN_GPRS_SIGNAL\000"
 13582      4E5F4750 
 13582      52535F53 
 13582      49474E41 
 13582      4C00
 13583              	.LASF250:
 13584 313c 4F535F46 		.ascii	"OS_FN_FL_INFO\000"
 13584      4E5F464C 
 13584      5F494E46 
 13584      4F00
 13585              	.LASF606:
 13586 314a 42535F46 		.ascii	"BS_FN_UDP_DISCONNECT\000"
 13586      4E5F5544 
 13586      505F4449 
 13586      53434F4E 
 13586      4E454354 
 13587              	.LASF825:
 13588 315f 614F6666 		.ascii	"aOffset\000"
 13588      73657400 
 13589              	.LASF114:
 13590 3167 4F535F46 		.ascii	"OS_FN_SM3_ASCII\000"
 13590      4E5F534D 
 13590      335F4153 
 13590      43494900 
 13591              	.LASF872:
 13592 3177 64686370 		.ascii	"dhcp\000"
 13592      00
 13593              	.LASF774:
 13594 317c 54494D45 		.ascii	"TIMER_COMM\000"
 13594      525F434F 
 13594      4D4D00
 13595              	.LASF209:
 13596 3187 4F535F46 		.ascii	"OS_FN_SAM_OFF\000"
 13596      4E5F5341 
 13596      4D5F4F46 
 13596      4600
 13597              	.LASF539:
 13598 3195 4B5F4346 		.ascii	"K_CF_RdllInf\000"
ARM GAS  C:\Users\AHMED~1.ELE\AppData\Local\Temp\ccGujCBB.s 			page 301


 13598      5F52646C 
 13598      6C496E66 
 13598      00
 13599              	.LASF560:
 13600 31a2 4B5F4346 		.ascii	"K_CF_MdmDTPwr\000"
 13600      5F4D646D 
 13600      44545077 
 13600      7200
 13601              	.LASF417:
 13602 31b0 4F535F46 		.ascii	"OS_FN_GPS_OFF\000"
 13602      4E5F4750 
 13602      535F4F46 
 13602      4600
 13603              	.LASF123:
 13604 31be 4F535F46 		.ascii	"OS_FN_KEY_FLUSH\000"
 13604      4E5F4B45 
 13604      595F464C 
 13604      55534800 
 13605              	.LASF876:
 13606 31ce 4B4D6F6E 		.ascii	"KMonthText\000"
 13606      74685465 
 13606      787400
 13607              	.LASF113:
 13608 31d9 4F535F46 		.ascii	"OS_FN_SM2_GET_MESS\000"
 13608      4E5F534D 
 13608      325F4745 
 13608      545F4D45 
 13608      535300
 13609              	.LASF588:
 13610 31ec 4B5F4346 		.ascii	"K_CF_TermIDControlOff\000"
 13610      5F546572 
 13610      6D494443 
 13610      6F6E7472 
 13610      6F6C4F66 
 13611              	.LASF501:
 13612 3202 4B5F4346 		.ascii	"K_CF_Netmask\000"
 13612      5F4E6574 
 13612      6D61736B 
 13612      00
 13613              	.LASF252:
 13614 320f 4F535F46 		.ascii	"OS_FN_FL_PAGE_READ\000"
 13614      4E5F464C 
 13614      5F504147 
 13614      455F5245 
 13614      414400
 13615              	.LASF163:
 13616 3222 4F535F46 		.ascii	"OS_FN_REALLOC\000"
 13616      4E5F5245 
 13616      414C4C4F 
 13616      4300
 13617              	.LASF466:
 13618 3230 4F535F46 		.ascii	"OS_FN_WIFI_SOCKET_GET_STATE\000"
 13618      4E5F5749 
 13618      46495F53 
 13618      4F434B45 
 13618      545F4745 
 13619              	.LASF376:
ARM GAS  C:\Users\AHMED~1.ELE\AppData\Local\Temp\ccGujCBB.s 			page 302


 13620 324c 4F535F46 		.ascii	"OS_FN_MIF_ANTICOLL\000"
 13620      4E5F4D49 
 13620      465F414E 
 13620      5449434F 
 13620      4C4C00
 13621              	.LASF697:
 13622 325f 42535F46 		.ascii	"BS_FN_HTTP_RESPONSE_HEADER\000"
 13622      4E5F4854 
 13622      54505F52 
 13622      4553504F 
 13622      4E53455F 
 13623              	.LASF255:
 13624 327a 4F535F46 		.ascii	"OS_FN_FL_PGM_START\000"
 13624      4E5F464C 
 13624      5F50474D 
 13624      5F535441 
 13624      525400
 13625              	.LASF618:
 13626 328d 42535F46 		.ascii	"BS_FN_CID_DETECT\000"
 13626      4E5F4349 
 13626      445F4445 
 13626      54454354 
 13626      00
 13627              	.LASF413:
 13628 329e 4F535F46 		.ascii	"OS_FN_NFC_INFO_SET\000"
 13628      4E5F4E46 
 13628      435F494E 
 13628      464F5F53 
 13628      455400
 13629              	.LASF467:
 13630 32b1 4F535F46 		.ascii	"OS_FN_WIFI_SOCKET_SEND_TCP\000"
 13630      4E5F5749 
 13630      46495F53 
 13630      4F434B45 
 13630      545F5345 
 13631              	.LASF742:
 13632 32cc 44495350 		.ascii	"DISP_GETGMW\000"
 13632      5F474554 
 13632      474D5700 
 13633              	.LASF133:
 13634 32d8 4F535F46 		.ascii	"OS_FN_PCI_DSS_GET_KVC\000"
 13634      4E5F5043 
 13634      495F4453 
 13634      535F4745 
 13634      545F4B56 
 13635              	.LASF669:
 13636 32ee 42535F46 		.ascii	"BS_FN_HTTP_DISCONNECT\000"
 13636      4E5F4854 
 13636      54505F44 
 13636      4953434F 
 13636      4E4E4543 
 13637              	.LASF541:
 13638 3304 4B5F4346 		.ascii	"K_CF_PswError\000"
 13638      5F507377 
 13638      4572726F 
 13638      7200
 13639              	.LASF555:
ARM GAS  C:\Users\AHMED~1.ELE\AppData\Local\Temp\ccGujCBB.s 			page 303


 13640 3312 4B5F4346 		.ascii	"K_CF_ParamTerm2Term\000"
 13640      5F506172 
 13640      616D5465 
 13640      726D3254 
 13640      65726D00 
 13641              	.LASF116:
 13642 3326 4F535F46 		.ascii	"OS_FN_SM4_SET_KEY\000"
 13642      4E5F534D 
 13642      345F5345 
 13642      545F4B45 
 13642      5900
 13643              	.LASF54:
 13644 3338 4F535F46 		.ascii	"OS_FN_DISP_ICON_SET_SIGNAL_TYPE\000"
 13644      4E5F4449 
 13644      53505F49 
 13644      434F4E5F 
 13644      5345545F 
 13645              	.LASF310:
 13646 3358 4F535F46 		.ascii	"OS_FN_TPAD_CPOS\000"
 13646      4E5F5450 
 13646      41445F43 
 13646      504F5300 
 13647              	.LASF1:
 13648 3368 7369676E 		.ascii	"signed char\000"
 13648      65642063 
 13648      68617200 
 13649              	.LASF402:
 13650 3374 4F535F46 		.ascii	"OS_FN_WIFI_SEND_COMMAND\000"
 13650      4E5F5749 
 13650      46495F53 
 13650      454E445F 
 13650      434F4D4D 
 13651              	.LASF527:
 13652 338c 4B5F4346 		.ascii	"K_CF_MdmTxPwr\000"
 13652      5F4D646D 
 13652      54785077 
 13652      7200
 13653              	.LASF720:
 13654 339a 46524541 		.ascii	"FREADMW\000"
 13654      444D5700 
 13655              	.LASF882:
 13656 33a2 7374726C 		.ascii	"strlen\000"
 13656      656E00
 13657              	.LASF62:
 13658 33a9 4F535F46 		.ascii	"OS_FN_COM1_STATUS\000"
 13658      4E5F434F 
 13658      4D315F53 
 13658      54415455 
 13658      5300
 13659              	.LASF795:
 13660 33bb 48505F57 		.ascii	"HP_WAITOFF\000"
 13660      4149544F 
 13660      464600
 13661              	.LASF78:
 13662 33c6 4F535F46 		.ascii	"OS_FN_COM3_READ\000"
 13662      4E5F434F 
 13662      4D335F52 
ARM GAS  C:\Users\AHMED~1.ELE\AppData\Local\Temp\ccGujCBB.s 			page 304


 13662      45414400 
 13663              	.LASF482:
 13664 33d6 4F535F46 		.ascii	"OS_FN_WIFI_GET_REGULATORY_DOMAIN\000"
 13664      4E5F5749 
 13664      46495F47 
 13664      45545F52 
 13664      4547554C 
 13665              	.LASF846:
 13666 33f7 63757272 		.ascii	"curr_field\000"
 13666      5F666965 
 13666      6C6400
 13667              	.LASF702:
 13668 3402 735F646E 		.ascii	"s_dns\000"
 13668      7300
 13669              	.LASF885:
 13670 3408 6D656D63 		.ascii	"memcpy\000"
 13670      707900
 13671              	.LASF390:
 13672 340f 4F535F46 		.ascii	"OS_FN_MIF_GET\000"
 13672      4E5F4D49 
 13672      465F4745 
 13672      5400
 13673              	.LASF188:
 13674 341d 4F535F46 		.ascii	"OS_FN_FILE_SET_LOCK\000"
 13674      4E5F4649 
 13674      4C455F53 
 13674      45545F4C 
 13674      4F434B00 
 13675              	.LASF659:
 13676 3431 42535F46 		.ascii	"BS_FN_LAN_OPEN\000"
 13676      4E5F4C41 
 13676      4E5F4F50 
 13676      454E00
 13677              	.LASF258:
 13678 3440 4F535F46 		.ascii	"OS_FN_FL_ERASE_START\000"
 13678      4E5F464C 
 13678      5F455241 
 13678      53455F53 
 13678      54415254 
 13679              	.LASF161:
 13680 3455 4F535F46 		.ascii	"OS_FN_APP_INFO\000"
 13680      4E5F4150 
 13680      505F494E 
 13680      464F00
 13681              	.LASF491:
 13682 3464 4B5F4346 		.ascii	"K_CF_SerialNo\000"
 13682      5F536572 
 13682      69616C4E 
 13682      6F00
 13683              	.LASF708:
 13684 3472 57524954 		.ascii	"WRITEMW\000"
 13684      454D5700 
 13685              	.LASF237:
 13686 347a 4F535F46 		.ascii	"OS_FN_MSR_READ\000"
 13686      4E5F4D53 
 13686      525F5245 
 13686      414400
ARM GAS  C:\Users\AHMED~1.ELE\AppData\Local\Temp\ccGujCBB.s 			page 305


 13687              	.LASF382:
 13688 3489 4F535F46 		.ascii	"OS_FN_MIF_WRITE\000"
 13688      4E5F4D49 
 13688      465F5752 
 13688      49544500 
 13689              	.LASF25:
 13690 3499 4F535F46 		.ascii	"OS_FN_KBD_UNLOCK\000"
 13690      4E5F4B42 
 13690      445F554E 
 13690      4C4F434B 
 13690      00
 13691              	.LASF755:
 13692 34aa 41505049 		.ascii	"APPINFO_GETMW\000"
 13692      4E464F5F 
 13692      4745544D 
 13692      5700
 13693              	.LASF531:
 13694 34b8 4B5F4346 		.ascii	"K_CF_RtcControlOff\000"
 13694      5F527463 
 13694      436F6E74 
 13694      726F6C4F 
 13694      666600
 13695              	.LASF381:
 13696 34cb 4F535F46 		.ascii	"OS_FN_MIF_READ\000"
 13696      4E5F4D49 
 13696      465F5245 
 13696      414400
 13697              	.LASF758:
 13698 34da 43475241 		.ascii	"CGRAPH\000"
 13698      504800
 13699              	.LASF426:
 13700 34e1 4F535F46 		.ascii	"OS_FN_APPDL_WRITE_APP\000"
 13700      4E5F4150 
 13700      50444C5F 
 13700      57524954 
 13700      455F4150 
 13701              	.LASF195:
 13702 34f7 4F535F46 		.ascii	"OS_FN_FILE_MKDIR\000"
 13702      4E5F4649 
 13702      4C455F4D 
 13702      4B444952 
 13702      00
 13703              	.LASF156:
 13704 3508 4F535F46 		.ascii	"OS_FN_AUTH\000"
 13704      4E5F4155 
 13704      544800
 13705              	.LASF8:
 13706 3513 6C6F6E67 		.ascii	"long long unsigned int\000"
 13706      206C6F6E 
 13706      6720756E 
 13706      7369676E 
 13706      65642069 
 13707              	.LASF793:
 13708 352a 48505F43 		.ascii	"HP_CHKSTATE\000"
 13708      484B5354 
 13708      41544500 
 13709              	.LASF227:
ARM GAS  C:\Users\AHMED~1.ELE\AppData\Local\Temp\ccGujCBB.s 			page 306


 13710 3536 4F535F46 		.ascii	"OS_FN_LAN_CLOSE\000"
 13710      4E5F4C41 
 13710      4E5F434C 
 13710      4F534500 
 13711              	.LASF783:
 13712 3546 77486569 		.ascii	"wHeight\000"
 13712      67687400 
 13713              	.LASF497:
 13714 354e 4B5F4346 		.ascii	"K_CF_DssMkKvc\000"
 13714      5F447373 
 13714      4D6B4B76 
 13714      6300
 13715              	.LASF499:
 13716 355c 4B5F4346 		.ascii	"K_CF_TpadOffset\000"
 13716      5F547061 
 13716      644F6666 
 13716      73657400 
 13717              	.LASF214:
 13718 356c 4F535F46 		.ascii	"OS_FN_MMC_BLK_SIZE\000"
 13718      4E5F4D4D 
 13718      435F424C 
 13718      4B5F5349 
 13718      5A4500
 13719              	.LASF67:
 13720 357f 4F535F46 		.ascii	"OS_FN_COM2_RXRDY\000"
 13720      4E5F434F 
 13720      4D325F52 
 13720      58524459 
 13720      00
 13721              	.LASF438:
 13722 3590 4F535F46 		.ascii	"OS_FN_GET_MCLK\000"
 13722      4E5F4745 
 13722      545F4D43 
 13722      4C4B00
 13723              	.LASF65:
 13724 359f 4F535F46 		.ascii	"OS_FN_COM2_OPEN\000"
 13724      4E5F434F 
 13724      4D325F4F 
 13724      50454E00 
 13725              	.LASF692:
 13726 35af 42535F46 		.ascii	"BS_FN_TCP_SAVE_TLS_SESSION_STATE\000"
 13726      4E5F5443 
 13726      505F5341 
 13726      56455F54 
 13726      4C535F53 
 13727              	.LASF732:
 13728 35d0 5343484E 		.ascii	"SCHNLSETUPMW\000"
 13728      4C534554 
 13728      55504D57 
 13728      00
 13729              	.LASF813:
 13730 35dd 53686F77 		.ascii	"ShowBWLogo\000"
 13730      42574C6F 
 13730      676F00
 13731              	.LASF15:
 13732 35e8 44574F52 		.ascii	"DWORD\000"
 13732      4400
ARM GAS  C:\Users\AHMED~1.ELE\AppData\Local\Temp\ccGujCBB.s 			page 307


 13733              	.LASF602:
 13734 35ee 42535F46 		.ascii	"BS_FN_TCP_STATUS\000"
 13734      4E5F5443 
 13734      505F5354 
 13734      41545553 
 13734      00
 13735              	.LASF728:
 13736 35ff 4445534D 		.ascii	"DESMW\000"
 13736      5700
 13737              	.LASF233:
 13738 3605 4F535F46 		.ascii	"OS_FN_MSR_OPEN\000"
 13738      4E5F4D53 
 13738      525F4F50 
 13738      454E00
 13739              	.LASF674:
 13740 3614 42535F46 		.ascii	"BS_FN_PRIVATEKEY_INJECT\000"
 13740      4E5F5052 
 13740      49564154 
 13740      454B4559 
 13740      5F494E4A 
 13741              	.LASF322:
 13742 362c 4F535F46 		.ascii	"OS_FN_CLICC_REMOVE\000"
 13742      4E5F434C 
 13742      4943435F 
 13742      52454D4F 
 13742      564500
 13743              	.LASF887:
 13744 363f 73706C69 		.ascii	"split\000"
 13744      7400
 13745              	.LASF570:
 13746 3645 4B5F4346 		.ascii	"K_CF_GPRS_StkiRespMsgOn\000"
 13746      5F475052 
 13746      535F5374 
 13746      6B695265 
 13746      73704D73 
 13747              	.LASF719:
 13748 365d 46534545 		.ascii	"FSEEKMW\000"
 13748      4B4D5700 
 13749              	.LASF256:
 13750 3665 4F535F46 		.ascii	"OS_FN_FL_WRITE\000"
 13750      4E5F464C 
 13750      5F575249 
 13750      544500
 13751              	.LASF73:
 13752 3674 4F535F46 		.ascii	"OS_FN_COM2_SSEND\000"
 13752      4E5F434F 
 13752      4D325F53 
 13752      53454E44 
 13752      00
 13753              	.LASF739:
 13754 3685 44495350 		.ascii	"DISP_GOTOMW\000"
 13754      5F474F54 
 13754      4F4D5700 
 13755              	.LASF521:
 13756 3691 4B5F4346 		.ascii	"K_CF_LcdTimeout\000"
 13756      5F4C6364 
 13756      54696D65 
ARM GAS  C:\Users\AHMED~1.ELE\AppData\Local\Temp\ccGujCBB.s 			page 308


 13756      6F757400 
 13757              	.LASF542:
 13758 36a1 4B5F4346 		.ascii	"K_CF_LandingZone\000"
 13758      5F4C616E 
 13758      64696E67 
 13758      5A6F6E65 
 13758      00
 13759              	.LASF367:
 13760 36b2 4F535F46 		.ascii	"OS_FN_TAMPER_GET_STATUS\000"
 13760      4E5F5441 
 13760      4D504552 
 13760      5F474554 
 13760      5F535441 
 13761              	.LASF270:
 13762 36ca 4F535F46 		.ascii	"OS_FN_MDM_DISC\000"
 13762      4E5F4D44 
 13762      4D5F4449 
 13762      534300
 13763              	.LASF90:
 13764 36d9 4F535F46 		.ascii	"OS_FN_NEW_DES2\000"
 13764      4E5F4E45 
 13764      575F4445 
 13764      533200
 13765              	.LASF584:
 13766 36e8 4B5F4346 		.ascii	"K_CF_LogoDeactivate\000"
 13766      5F4C6F67 
 13766      6F446561 
 13766      63746976 
 13766      61746500 
 13767              	.LASF186:
 13768 36fc 4F535F46 		.ascii	"OS_FN_FILE_TRUNCATE\000"
 13768      4E5F4649 
 13768      4C455F54 
 13768      52554E43 
 13768      41544500 
 13769              	.LASF4:
 13770 3710 73686F72 		.ascii	"short unsigned int\000"
 13770      7420756E 
 13770      7369676E 
 13770      65642069 
 13770      6E7400
 13771              	.LASF138:
 13772 3723 4F535F46 		.ascii	"OS_FN_THREAD_CREATE\000"
 13772      4E5F5448 
 13772      52454144 
 13772      5F435245 
 13772      41544500 
 13773              	.LASF511:
 13774 3737 4B5F4346 		.ascii	"K_CF_DllPsw\000"
 13774      5F446C6C 
 13774      50737700 
 13775              	.LASF773:
 13776 3743 54494D45 		.ascii	"TIMER_KBD\000"
 13776      525F4B42 
 13776      4400
 13777              	.LASF358:
 13778 374d 4F535F46 		.ascii	"OS_FN_NETDEV_CLOSE\000"
ARM GAS  C:\Users\AHMED~1.ELE\AppData\Local\Temp\ccGujCBB.s 			page 309


 13778      4E5F4E45 
 13778      54444556 
 13778      5F434C4F 
 13778      534500
 13779              	.LASF472:
 13780 3760 4F535F46 		.ascii	"OS_FN_IMG_SENSOR_OPEN\000"
 13780      4E5F494D 
 13780      475F5345 
 13780      4E534F52 
 13780      5F4F5045 
 13781              	.LASF63:
 13782 3776 4F535F46 		.ascii	"OS_FN_COM1_SREAD\000"
 13782      4E5F434F 
 13782      4D315F53 
 13782      52454144 
 13782      00
 13783              	.LASF595:
 13784 3787 42535F46 		.ascii	"BS_FN_GET_VERSION\000"
 13784      4E5F4745 
 13784      545F5645 
 13784      5253494F 
 13784      4E00
 13785              	.LASF103:
 13786 3799 4F535F46 		.ascii	"OS_FN_RC4_SETUP\000"
 13786      4E5F5243 
 13786      345F5345 
 13786      54555000 
 13787              	.LASF530:
 13788 37a9 4B5F4346 		.ascii	"K_CF_KbdBL\000"
 13788      5F4B6264 
 13788      424C00
 13789              	.LASF91:
 13790 37b4 4F535F46 		.ascii	"OS_FN_RSA\000"
 13790      4E5F5253 
 13790      4100
 13791              	.LASF337:
 13792 37be 4F535F46 		.ascii	"OS_FN_USBHOST_RHPORT_STATUS\000"
 13792      4E5F5553 
 13792      42484F53 
 13792      545F5248 
 13792      504F5254 
 13793              	.LASF693:
 13794 37da 42535F46 		.ascii	"BS_FN_NET_SET_NIF_IP\000"
 13794      4E5F4E45 
 13794      545F5345 
 13794      545F4E49 
 13794      465F4950 
 13795              	.LASF351:
 13796 37ef 4F535F46 		.ascii	"OS_FN_DEVICE_UNMOUNT\000"
 13796      4E5F4445 
 13796      56494345 
 13796      5F554E4D 
 13796      4F554E54 
 13797              	.LASF897:
 13798 3804 52544332 		.ascii	"RTC2UNIX\000"
 13798      554E4958 
 13798      00
ARM GAS  C:\Users\AHMED~1.ELE\AppData\Local\Temp\ccGujCBB.s 			page 310


 13799              	.LASF798:
 13800 380d 53686F72 		.ascii	"Short2Beep\000"
 13800      74324265 
 13800      657000
 13801              	.LASF596:
 13802 3818 42535F46 		.ascii	"BS_FN_TCP_OPEN\000"
 13802      4E5F5443 
 13802      505F4F50 
 13802      454E00
 13803              	.LASF76:
 13804 3827 4F535F46 		.ascii	"OS_FN_COM3_RXRDY\000"
 13804      4E5F434F 
 13804      4D335F52 
 13804      58524459 
 13804      00
 13805              	.LASF392:
 13806 3838 4F535F46 		.ascii	"OS_FN_MIF_INFO_GET\000"
 13806      4E5F4D49 
 13806      465F494E 
 13806      464F5F47 
 13806      455400
 13807              	.LASF638:
 13808 384b 42535F46 		.ascii	"BS_FN_PPP_SET_LOGIN_SCRIPT\000"
 13808      4E5F5050 
 13808      505F5345 
 13808      545F4C4F 
 13808      47494E5F 
 13809              	.LASF771:
 13810 3866 41504D5F 		.ascii	"APM_SDEV_MAX\000"
 13810      53444556 
 13810      5F4D4158 
 13810      00
 13811              	.LASF249:
 13812 3873 4F535F46 		.ascii	"OS_FN_USBSER_ENABLE\000"
 13812      4E5F5553 
 13812      42534552 
 13812      5F454E41 
 13812      424C4500 
 13813              	.LASF447:
 13814 3887 4F535F46 		.ascii	"OS_FN_LPT_RESET_COUNT\000"
 13814      4E5F4C50 
 13814      545F5245 
 13814      5345545F 
 13814      434F554E 
 13815              	.LASF20:
 13816 389d 4F535F46 		.ascii	"OS_FN_KBD_CLOSE\000"
 13816      4E5F4B42 
 13816      445F434C 
 13816      4F534500 
 13817              	.LASF597:
 13818 38ad 42535F46 		.ascii	"BS_FN_TCP_CLOSE\000"
 13818      4E5F5443 
 13818      505F434C 
 13818      4F534500 
 13819              	.LASF823:
 13820 38bd 74656D70 		.ascii	"temp\000"
 13820      00
ARM GAS  C:\Users\AHMED~1.ELE\AppData\Local\Temp\ccGujCBB.s 			page 311


 13821              	.LASF723:
 13822 38c2 46464C55 		.ascii	"FFLUSHMW\000"
 13822      53484D57 
 13822      00
 13823              	.LASF517:
 13824 38cb 4B5F4346 		.ascii	"K_CF_ParsePhrase\000"
 13824      5F506172 
 13824      73655068 
 13824      72617365 
 13824      00
 13825              	.LASF292:
 13826 38dc 4F535F46 		.ascii	"OS_FN_GPRS_STATUS\000"
 13826      4E5F4750 
 13826      52535F53 
 13826      54415455 
 13826      5300
 13827              	.LASF525:
 13828 38ee 4B5F4346 		.ascii	"K_CF_GprsPowerOnOff\000"
 13828      5F477072 
 13828      73506F77 
 13828      65724F6E 
 13828      4F666600 
 13829              	.LASF82:
 13830 3902 4F535F46 		.ascii	"OS_FN_COM3_SSEND\000"
 13830      4E5F434F 
 13830      4D335F53 
 13830      53454E44 
 13830      00
 13831              	.LASF839:
 13832 3913 46726565 		.ascii	"FreeRunElapsed\000"
 13832      52756E45 
 13832      6C617073 
 13832      656400
 13833              	.LASF830:
 13834 3922 61447467 		.ascii	"aDtg\000"
 13834      00
 13835              	.LASF832:
 13836 3927 52656164 		.ascii	"ReadRTC\000"
 13836      52544300 
 13837              	.LASF410:
 13838 392f 4F535F46 		.ascii	"OS_FN_NFC_CLOSE\000"
 13838      4E5F4E46 
 13838      435F434C 
 13838      4F534500 
 13839              	.LASF16:
 13840 393f 4F535F46 		.ascii	"OS_FN_GET_VERSION\000"
 13840      4E5F4745 
 13840      545F5645 
 13840      5253494F 
 13840      4E00
 13841              	.LASF808:
 13842 3951 53686F77 		.ascii	"ShowStatus\000"
 13842      53746174 
 13842      757300
 13843              	.LASF848:
 13844 395c 64617461 		.ascii	"data\000"
 13844      00
ARM GAS  C:\Users\AHMED~1.ELE\AppData\Local\Temp\ccGujCBB.s 			page 312


 13845              	.LASF290:
 13846 3961 4F535F46 		.ascii	"OS_FN_ADC_CH_READ\000"
 13846      4E5F4144 
 13846      435F4348 
 13846      5F524541 
 13846      4400
 13847              	.LASF268:
 13848 3973 4F535F46 		.ascii	"OS_FN_MDM_CLOSE\000"
 13848      4E5F4D44 
 13848      4D5F434C 
 13848      4F534500 
 13849              	.LASF736:
 13850 3983 44495350 		.ascii	"DISP_PUTNMW\000"
 13850      5F505554 
 13850      4E4D5700 
 13851              	.LASF443:
 13852 398f 4F535F46 		.ascii	"OS_FN_DMK_INJECT\000"
 13852      4E5F444D 
 13852      4B5F494E 
 13852      4A454354 
 13852      00
 13853              	.LASF707:
 13854 39a0 52454144 		.ascii	"READMW\000"
 13854      4D5700
 13855              	.LASF31:
 13856 39a7 4F535F46 		.ascii	"OS_FN_BUZ_CLOSE\000"
 13856      4E5F4255 
 13856      5A5F434C 
 13856      4F534500 
 13857              	.LASF172:
 13858 39b7 4F535F46 		.ascii	"OS_FN_FILE_FLUSHED\000"
 13858      4E5F4649 
 13858      4C455F46 
 13858      4C555348 
 13858      454400
 13859              	.LASF681:
 13860 39ca 42535F46 		.ascii	"BS_FN_PPP_GET_NIF\000"
 13860      4E5F5050 
 13860      505F4745 
 13860      545F4E49 
 13860      4600
 13861              	.LASF46:
 13862 39dc 4F535F46 		.ascii	"OS_FN_DISP_GET_LCD_BUFFER\000"
 13862      4E5F4449 
 13862      53505F47 
 13862      45545F4C 
 13862      43445F42 
 13863              	.LASF847:
 13864 39f6 63757273 		.ascii	"cursor\000"
 13864      6F7200
 13865              	.LASF321:
 13866 39fd 4F535F46 		.ascii	"OS_FN_CLICC_POLL\000"
 13866      4E5F434C 
 13866      4943435F 
 13866      504F4C4C 
 13866      00
 13867              	.LASF72:
ARM GAS  C:\Users\AHMED~1.ELE\AppData\Local\Temp\ccGujCBB.s 			page 313


 13868 3a0e 4F535F46 		.ascii	"OS_FN_COM2_SREAD\000"
 13868      4E5F434F 
 13868      4D325F53 
 13868      52454144 
 13868      00
 13869              	.LASF375:
 13870 3a1f 4F535F46 		.ascii	"OS_FN_MIF_STATUS\000"
 13870      4E5F4D49 
 13870      465F5354 
 13870      41545553 
 13870      00
 13871              	.LASF333:
 13872 3a30 4F535F46 		.ascii	"OS_FN_USBHOST_SUBMIT_BUFFER\000"
 13872      4E5F5553 
 13872      42484F53 
 13872      545F5355 
 13872      424D4954 
 13873              	.LASF628:
 13874 3a4c 42535F46 		.ascii	"BS_FN_PPP_CLOSE\000"
 13874      4E5F5050 
 13874      505F434C 
 13874      4F534500 
 13875              	.LASF495:
 13876 3a5c 4B5F4346 		.ascii	"K_CF_PppFixIP\000"
 13876      5F507070 
 13876      46697849 
 13876      5000
 13877              	.LASF202:
 13878 3a6a 4F535F46 		.ascii	"OS_FN_CONFIG_WRITE\000"
 13878      4E5F434F 
 13878      4E464947 
 13878      5F575249 
 13878      544500
 13879              	.LASF414:
 13880 3a7d 4F535F46 		.ascii	"OS_FN_NFC_IC_REG_DIRECT_WRITE\000"
 13880      4E5F4E46 
 13880      435F4943 
 13880      5F524547 
 13880      5F444952 
 13881              	.LASF849:
 13882 3a9b 6B657969 		.ascii	"keyin\000"
 13882      6E00
 13883              	.LASF334:
 13884 3aa1 4F535F46 		.ascii	"OS_FN_USBHOST_UNLINK_BUFFER\000"
 13884      4E5F5553 
 13884      42484F53 
 13884      545F554E 
 13884      4C494E4B 
 13885              	.LASF786:
 13886 3abd 62596561 		.ascii	"bYear\000"
 13886      7200
 13887              		.ident	"GCC: (GNU Tools for ARM Embedded Processors) 4.9.3 20141119 (release) [ARM/embedded-4_9-br
ARM GAS  C:\Users\AHMED~1.ELE\AppData\Local\Temp\ccGujCBB.s 			page 314


DEFINED SYMBOLS
                            *ABS*:00000000 sysutil.c
C:\Users\AHMED~1.ELE\AppData\Local\Temp\ccGujCBB.s:19     .text.LongBeep:00000000 $t
C:\Users\AHMED~1.ELE\AppData\Local\Temp\ccGujCBB.s:24     .text.LongBeep:00000000 LongBeep
C:\Users\AHMED~1.ELE\AppData\Local\Temp\ccGujCBB.s:43     .text.AcceptBeep:00000000 $t
C:\Users\AHMED~1.ELE\AppData\Local\Temp\ccGujCBB.s:48     .text.AcceptBeep:00000000 AcceptBeep
C:\Users\AHMED~1.ELE\AppData\Local\Temp\ccGujCBB.s:66     .text.Short2Beep:00000000 $t
C:\Users\AHMED~1.ELE\AppData\Local\Temp\ccGujCBB.s:71     .text.Short2Beep:00000000 Short2Beep
C:\Users\AHMED~1.ELE\AppData\Local\Temp\ccGujCBB.s:89     .text.Short1Beep:00000000 $t
C:\Users\AHMED~1.ELE\AppData\Local\Temp\ccGujCBB.s:94     .text.Short1Beep:00000000 Short1Beep
C:\Users\AHMED~1.ELE\AppData\Local\Temp\ccGujCBB.s:112    .text.Delay1Sec:00000000 $t
C:\Users\AHMED~1.ELE\AppData\Local\Temp\ccGujCBB.s:117    .text.Delay1Sec:00000000 Delay1Sec
C:\Users\AHMED~1.ELE\AppData\Local\Temp\ccGujCBB.s:185    .text.ErrorDelay:00000000 $t
C:\Users\AHMED~1.ELE\AppData\Local\Temp\ccGujCBB.s:190    .text.ErrorDelay:00000000 ErrorDelay
C:\Users\AHMED~1.ELE\AppData\Local\Temp\ccGujCBB.s:206    .text.Delay10ms:00000000 $t
C:\Users\AHMED~1.ELE\AppData\Local\Temp\ccGujCBB.s:211    .text.Delay10ms:00000000 Delay10ms
C:\Users\AHMED~1.ELE\AppData\Local\Temp\ccGujCBB.s:258    .text.ShowStatus:00000000 $t
C:\Users\AHMED~1.ELE\AppData\Local\Temp\ccGujCBB.s:263    .text.ShowStatus:00000000 ShowStatus
C:\Users\AHMED~1.ELE\AppData\Local\Temp\ccGujCBB.s:337    .text.DispPutStr:00000000 $t
C:\Users\AHMED~1.ELE\AppData\Local\Temp\ccGujCBB.s:342    .text.DispPutStr:00000000 DispPutStr
C:\Users\AHMED~1.ELE\AppData\Local\Temp\ccGujCBB.s:403    .text.ShowBWLogo:00000000 $t
C:\Users\AHMED~1.ELE\AppData\Local\Temp\ccGujCBB.s:408    .text.ShowBWLogo:00000000 ShowBWLogo
C:\Users\AHMED~1.ELE\AppData\Local\Temp\ccGujCBB.s:476    .text.ShowGraphicT800:00000000 $t
C:\Users\AHMED~1.ELE\AppData\Local\Temp\ccGujCBB.s:481    .text.ShowGraphicT800:00000000 ShowGraphicT800
C:\Users\AHMED~1.ELE\AppData\Local\Temp\ccGujCBB.s:599    .text.Disp2x16Msg:00000000 $t
C:\Users\AHMED~1.ELE\AppData\Local\Temp\ccGujCBB.s:604    .text.Disp2x16Msg:00000000 Disp2x16Msg
C:\Users\AHMED~1.ELE\AppData\Local\Temp\ccGujCBB.s:742    .text.SetRTC:00000000 $t
C:\Users\AHMED~1.ELE\AppData\Local\Temp\ccGujCBB.s:747    .text.SetRTC:00000000 SetRTC
C:\Users\AHMED~1.ELE\AppData\Local\Temp\ccGujCBB.s:789    .text.ReadRTC:00000000 $t
C:\Users\AHMED~1.ELE\AppData\Local\Temp\ccGujCBB.s:794    .text.ReadRTC:00000000 ReadRTC
C:\Users\AHMED~1.ELE\AppData\Local\Temp\ccGujCBB.s:828    .text.ConvDateTime:00000000 $t
C:\Users\AHMED~1.ELE\AppData\Local\Temp\ccGujCBB.s:833    .text.ConvDateTime:00000000 ConvDateTime
C:\Users\AHMED~1.ELE\AppData\Local\Temp\ccGujCBB.s:948    .text.ConvDateTime:00000080 $d
C:\Users\AHMED~1.ELE\AppData\Local\Temp\ccGujCBB.s:953    .text.SetDTG:00000000 $t
C:\Users\AHMED~1.ELE\AppData\Local\Temp\ccGujCBB.s:958    .text.SetDTG:00000000 SetDTG
C:\Users\AHMED~1.ELE\AppData\Local\Temp\ccGujCBB.s:1030   .text.FreeRunMark:00000000 $t
C:\Users\AHMED~1.ELE\AppData\Local\Temp\ccGujCBB.s:1035   .text.FreeRunMark:00000000 FreeRunMark
C:\Users\AHMED~1.ELE\AppData\Local\Temp\ccGujCBB.s:1050   .text.FreeRunElapsed:00000000 $t
C:\Users\AHMED~1.ELE\AppData\Local\Temp\ccGujCBB.s:1055   .text.FreeRunElapsed:00000000 FreeRunElapsed
C:\Users\AHMED~1.ELE\AppData\Local\Temp\ccGujCBB.s:1085   .text.ShowIp:00000000 $t
C:\Users\AHMED~1.ELE\AppData\Local\Temp\ccGujCBB.s:1090   .text.ShowIp:00000000 ShowIp
C:\Users\AHMED~1.ELE\AppData\Local\Temp\ccGujCBB.s:1196   .text.ShowIp:00000084 $d
C:\Users\AHMED~1.ELE\AppData\Local\Temp\ccGujCBB.s:1201   .text.EditIp:00000000 $t
C:\Users\AHMED~1.ELE\AppData\Local\Temp\ccGujCBB.s:1206   .text.EditIp:00000000 EditIp
C:\Users\AHMED~1.ELE\AppData\Local\Temp\ccGujCBB.s:1459   .text.EditIp:00000130 $d
C:\Users\AHMED~1.ELE\AppData\Local\Temp\ccGujCBB.s:1464   .text.EditPort:00000000 $t
C:\Users\AHMED~1.ELE\AppData\Local\Temp\ccGujCBB.s:1469   .text.EditPort:00000000 EditPort
C:\Users\AHMED~1.ELE\AppData\Local\Temp\ccGujCBB.s:1537   .text.EditPort:00000050 $d
C:\Users\AHMED~1.ELE\AppData\Local\Temp\ccGujCBB.s:1542   .text.CheckPointerAddr:00000000 $t
C:\Users\AHMED~1.ELE\AppData\Local\Temp\ccGujCBB.s:1547   .text.CheckPointerAddr:00000000 CheckPointerAddr
C:\Users\AHMED~1.ELE\AppData\Local\Temp\ccGujCBB.s:1622   .text.CheckPointerAddr:00000064 $d
C:\Users\AHMED~1.ELE\AppData\Local\Temp\ccGujCBB.s:1627   .text.MemFatalErr:00000000 $t
C:\Users\AHMED~1.ELE\AppData\Local\Temp\ccGujCBB.s:1632   .text.MemFatalErr:00000000 MemFatalErr
C:\Users\AHMED~1.ELE\AppData\Local\Temp\ccGujCBB.s:1722   .text.MemFatalErr:00000068 $d
C:\Users\AHMED~1.ELE\AppData\Local\Temp\ccGujCBB.s:1727   .text.FreeRunSec:00000000 $t
C:\Users\AHMED~1.ELE\AppData\Local\Temp\ccGujCBB.s:1732   .text.FreeRunSec:00000000 FreeRunSec
C:\Users\AHMED~1.ELE\AppData\Local\Temp\ccGujCBB.s:1759   .text.ShowTxRxLed:00000000 $t
ARM GAS  C:\Users\AHMED~1.ELE\AppData\Local\Temp\ccGujCBB.s 			page 315


C:\Users\AHMED~1.ELE\AppData\Local\Temp\ccGujCBB.s:1764   .text.ShowTxRxLed:00000000 ShowTxRxLed
C:\Users\AHMED~1.ELE\AppData\Local\Temp\ccGujCBB.s:1818   .text.ShowTxRxLed:00000040 $d
C:\Users\AHMED~1.ELE\AppData\Local\Temp\ccGujCBB.s:1823   .text.DebugPoint:00000000 $t
C:\Users\AHMED~1.ELE\AppData\Local\Temp\ccGujCBB.s:1828   .text.DebugPoint:00000000 DebugPoint
C:\Users\AHMED~1.ELE\AppData\Local\Temp\ccGujCBB.s:1901   .text.ReadSFile:00000000 $t
C:\Users\AHMED~1.ELE\AppData\Local\Temp\ccGujCBB.s:1906   .text.ReadSFile:00000000 ReadSFile
C:\Users\AHMED~1.ELE\AppData\Local\Temp\ccGujCBB.s:1961   .text.WriteSFile:00000000 $t
C:\Users\AHMED~1.ELE\AppData\Local\Temp\ccGujCBB.s:1966   .text.WriteSFile:00000000 WriteSFile
C:\Users\AHMED~1.ELE\AppData\Local\Temp\ccGujCBB.s:2061   .text.WriteSFile:00000070 $d
C:\Users\AHMED~1.ELE\AppData\Local\Temp\ccGujCBB.s:2066   .text.WGet:00000000 $t
C:\Users\AHMED~1.ELE\AppData\Local\Temp\ccGujCBB.s:2071   .text.WGet:00000000 WGet
C:\Users\AHMED~1.ELE\AppData\Local\Temp\ccGujCBB.s:2091   .text.DWGet:00000000 $t
C:\Users\AHMED~1.ELE\AppData\Local\Temp\ccGujCBB.s:2096   .text.DWGet:00000000 DWGet
C:\Users\AHMED~1.ELE\AppData\Local\Temp\ccGujCBB.s:2126   .text.WaitLanNetRdy:00000000 $t
C:\Users\AHMED~1.ELE\AppData\Local\Temp\ccGujCBB.s:2131   .text.WaitLanNetRdy:00000000 WaitLanNetRdy
C:\Users\AHMED~1.ELE\AppData\Local\Temp\ccGujCBB.s:2300   .text.WaitLanNetRdy:000000e8 $d
C:\Users\AHMED~1.ELE\AppData\Local\Temp\ccGujCBB.s:2307   .text.WaitWifiNetRdy:00000000 $t
C:\Users\AHMED~1.ELE\AppData\Local\Temp\ccGujCBB.s:2312   .text.WaitWifiNetRdy:00000000 WaitWifiNetRdy
C:\Users\AHMED~1.ELE\AppData\Local\Temp\ccGujCBB.s:2471   .text.WaitWifiNetRdy:000000e0 $d
C:\Users\AHMED~1.ELE\AppData\Local\Temp\ccGujCBB.s:2478   .text.HotPlug:00000000 $t
C:\Users\AHMED~1.ELE\AppData\Local\Temp\ccGujCBB.s:2483   .text.HotPlug:00000000 HotPlug
C:\Users\AHMED~1.ELE\AppData\Local\Temp\ccGujCBB.s:2503   .text.HotPlug:00000010 $d
C:\Users\AHMED~1.ELE\AppData\Local\Temp\ccGujCBB.s:2507   .text.HotPlug:00000014 $t
C:\Users\AHMED~1.ELE\AppData\Local\Temp\ccGujCBB.s:2602   .text.HotPlug:0000008c $d
C:\Users\AHMED~1.ELE\AppData\Local\Temp\ccGujCBB.s:2611   .rodata:00000000 KMonthText
C:\Users\AHMED~1.ELE\AppData\Local\Temp\ccGujCBB.s:2673   .data:00000000 $d
C:\Users\AHMED~1.ELE\AppData\Local\Temp\ccGujCBB.s:2677   .data:00000000 gHpState
C:\Users\AHMED~1.ELE\AppData\Local\Temp\ccGujCBB.s:2680   .bss:00000000 $d
C:\Users\AHMED~1.ELE\AppData\Local\Temp\ccGujCBB.s:2684   .bss:00000000 ostatus.12154
C:\Users\AHMED~1.ELE\AppData\Local\Temp\ccGujCBB.s:2688   .bss:00000004 gHotPlugCnt
                     .debug_frame:00000010 $d

UNDEFINED SYMBOLS
sys_func3
sys_func0
lib_app_call
strlen
sys_func1
memcpy
sys_func2
memset
split
compress
bcd2bin
memmove
bcdsub
bcdadd
sprintf
WaitKey
GetKbd
atoi
RTC2UNIX
base_func1
base_func2
gTimerHdl
GetWifiStatus
base_func0
ARM GAS  C:\Users\AHMED~1.ELE\AppData\Local\Temp\ccGujCBB.s 			page 316


