ARM GAS  C:\Users\AHMED~1.ELE\AppData\Local\Temp\ccGujCBB.s 			page 1


   1              		.syntax unified
   2              		.cpu cortex-a5
   3              		.fpu softvfp
   4              		.eabi_attribute 20, 1
   5              		.eabi_attribute 21, 1
   6              		.eabi_attribute 23, 3
   7              		.eabi_attribute 24, 1
   8              		.eabi_attribute 25, 1
   9              		.eabi_attribute 26, 1
  10              		.eabi_attribute 30, 4
  11              		.eabi_attribute 34, 0
  12              		.eabi_attribute 18, 4
  13              		.thumb
  14              		.file	"sysutil.c"
  15              		.text
  16              	.Ltext0:
  17              		.cfi_sections	.debug_frame
  18              		.section	.text.LongBeep,"ax",%progbits
  19              		.align	1
  20              		.global	LongBeep
  21              		.thumb
  22              		.thumb_func
  23              		.type	LongBeep, %function
  24              	LongBeep:
  25              	.LFB0:
  26              		.file 1 "src/sysutil.c"
   1:src/sysutil.c **** //-----------------------------------------------------------------------------
   2:src/sysutil.c **** //  File          : sysutil.c
   3:src/sysutil.c **** //  Module        :
   4:src/sysutil.c **** //  Description   : Include Enhance System utitilies function.
   5:src/sysutil.c **** //  Author        : Lewis
   6:src/sysutil.c **** //  Notes         : No UI is include in the routines & call SYSTEM or UTILIB
   7:src/sysutil.c **** //                  Only.
   8:src/sysutil.c **** //
   9:src/sysutil.c **** // ============================================================================
  10:src/sysutil.c **** // | Naming conventions                                                       |
  11:src/sysutil.c **** // | ~~~~~~~~~~~~~~~~~~                                                       |
  12:src/sysutil.c **** // |         Struct/Array : Leading s                                         |
  13:src/sysutil.c **** // |             Constant : Leading K                                         |
  14:src/sysutil.c **** // |      Global Variable : Leading g  (variable use outside one C file)      |
  15:src/sysutil.c **** // |                                                                          |
  16:src/sysutil.c **** // |   BYTE( 8 Bits) size : Leading b                                         |
  17:src/sysutil.c **** // |   CHAR( 8 Bits) size : Leading c                                         |
  18:src/sysutil.c **** // |   WORD(16 Bits) size : Leading w                                         |
  19:src/sysutil.c **** // |  DWORD(32 Bits) size : Leading d                                         |
  20:src/sysutil.c **** // |    int(32 Bits) size : Leading i                                         |
  21:src/sysutil.c **** // | DDWORD(64 Bits) size : Leading dd                                        |
  22:src/sysutil.c **** // |              Pointer : Leading p                                         |
  23:src/sysutil.c **** // |                                                                          |
  24:src/sysutil.c **** // |    Function argument : Leading a                                         |
  25:src/sysutil.c **** // |       Local Variable : All lower case                                    |
  26:src/sysutil.c **** // |                                                                          |
  27:src/sysutil.c **** // | Examples:                                                                |
  28:src/sysutil.c **** // |                Array : Leading s, (sb = arrary of byte, etc)             |
  29:src/sysutil.c **** // |              Pointer : Leading p, (pb = pointer of byte, etc)            |
  30:src/sysutil.c **** // ============================================================================
  31:src/sysutil.c **** //
ARM GAS  C:\Users\AHMED~1.ELE\AppData\Local\Temp\ccGujCBB.s 			page 2


  32:src/sysutil.c **** //  Date          Who         Action
  33:src/sysutil.c **** //  ------------  ----------- -------------------------------------------------
  34:src/sysutil.c **** //  29 Sept 2008  Lewis       Initial Version.
  35:src/sysutil.c **** //-----------------------------------------------------------------------------
  36:src/sysutil.c **** #include <stdlib.h>
  37:src/sysutil.c **** #include <string.h>
  38:src/sysutil.c **** #include "hwdef.h"
  39:src/sysutil.c **** #include "midware.h"
  40:src/sysutil.c **** #include "hardware.h"
  41:src/sysutil.c **** #include "util.h"
  42:src/sysutil.c **** #include "kbdutil.h"
  43:src/sysutil.c **** #include "wifi.h"
  44:src/sysutil.c **** #include "mcp.h"
  45:src/sysutil.c **** #include "sysutil.h"
  46:src/sysutil.c **** 
  47:src/sysutil.c **** //-----------------------------------------------------------------------------
  48:src/sysutil.c **** //      Defines
  49:src/sysutil.c **** //-----------------------------------------------------------------------------
  50:src/sysutil.c **** #define DEBUG_POINT         1
  51:src/sysutil.c **** //-----------------------------------------------------------------------------
  52:src/sysutil.c **** 
  53:src/sysutil.c **** //-----------------------------------------------------------------------------
  54:src/sysutil.c **** //      Constants
  55:src/sysutil.c **** //-----------------------------------------------------------------------------
  56:src/sysutil.c **** #define FLASH_START_ADDRESS         0x00100000
  57:src/sysutil.c **** #define SRAM_END_ADDRESS            0x002FFFFF
  58:src/sysutil.c **** 
  59:src/sysutil.c **** static const BYTE KMonthText[13][3] = {
  60:src/sysutil.c ****   {' ',' ',' '},
  61:src/sysutil.c ****   {'J','A','N'},
  62:src/sysutil.c ****   {'F','E','B'},
  63:src/sysutil.c ****   {'M','A','R'},
  64:src/sysutil.c ****   {'A','P','R'},
  65:src/sysutil.c ****   {'M','A','Y'},
  66:src/sysutil.c ****   {'J','U','N'},
  67:src/sysutil.c ****   {'J','U','L'},
  68:src/sysutil.c ****   {'A','U','G'},
  69:src/sysutil.c ****   {'S','E','P'},
  70:src/sysutil.c ****   {'O','C','T'},
  71:src/sysutil.c ****   {'N','O','V'},
  72:src/sysutil.c ****   {'D','E','C'}
  73:src/sysutil.c **** };
  74:src/sysutil.c **** 
  75:src/sysutil.c **** 
  76:src/sysutil.c **** //*****************************************************************************
  77:src/sysutil.c **** //  Function        : LongBeep
  78:src/sysutil.c **** //  Description     : Generate long beep sound.
  79:src/sysutil.c **** //  Input           : N/A
  80:src/sysutil.c **** //  Return          : N/A
  81:src/sysutil.c **** //  Note            : 30ms;
  82:src/sysutil.c **** //  Globals Changed : N/A
  83:src/sysutil.c **** //*****************************************************************************
  84:src/sysutil.c **** void LongBeep(void)
  85:src/sysutil.c **** {
  27              		.loc 1 85 0
  28              		.cfi_startproc
  29              		@ args = 0, pretend = 0, frame = 0
ARM GAS  C:\Users\AHMED~1.ELE\AppData\Local\Temp\ccGujCBB.s 			page 3


  30              		@ frame_needed = 0, uses_anonymous_args = 0
  31              		@ link register save eliminated.
  86:src/sysutil.c ****   BeepMW(30, 9, 1);
  32              		.loc 1 86 0
  33 0000 1020     		movs	r0, #16
  34 0002 1E21     		movs	r1, #30
  35 0004 0922     		movs	r2, #9
  36 0006 0123     		movs	r3, #1
  37 0008 FFF7FEBF 		b	sys_func3
  38              	.LVL0:
  39              		.cfi_endproc
  40              	.LFE0:
  41              		.size	LongBeep, .-LongBeep
  42              		.section	.text.AcceptBeep,"ax",%progbits
  43              		.align	1
  44              		.global	AcceptBeep
  45              		.thumb
  46              		.thumb_func
  47              		.type	AcceptBeep, %function
  48              	AcceptBeep:
  49              	.LFB1:
  87:src/sysutil.c **** }
  88:src/sysutil.c **** //*****************************************************************************
  89:src/sysutil.c **** //  Function        : AcceptBeep
  90:src/sysutil.c **** //  Description     : Generate a beep sound for accept.
  91:src/sysutil.c **** //  Input           : N/A
  92:src/sysutil.c **** //  Return          : N/A
  93:src/sysutil.c **** //  Note            : 3 X 100ms
  94:src/sysutil.c **** //  Globals Changed : N/A
  95:src/sysutil.c **** //*****************************************************************************
  96:src/sysutil.c **** void AcceptBeep(void)
  97:src/sysutil.c **** {
  50              		.loc 1 97 0
  51              		.cfi_startproc
  52              		@ args = 0, pretend = 0, frame = 0
  53              		@ frame_needed = 0, uses_anonymous_args = 0
  54              		@ link register save eliminated.
  98:src/sysutil.c ****   BeepMW(10, 10, 3);
  55              		.loc 1 98 0
  56 0000 0A21     		movs	r1, #10
  57 0002 1020     		movs	r0, #16
  58 0004 0A46     		mov	r2, r1
  59 0006 0323     		movs	r3, #3
  60 0008 FFF7FEBF 		b	sys_func3
  61              	.LVL1:
  62              		.cfi_endproc
  63              	.LFE1:
  64              		.size	AcceptBeep, .-AcceptBeep
  65              		.section	.text.Short2Beep,"ax",%progbits
  66              		.align	1
  67              		.global	Short2Beep
  68              		.thumb
  69              		.thumb_func
  70              		.type	Short2Beep, %function
  71              	Short2Beep:
  72              	.LFB2:
  99:src/sysutil.c **** }
ARM GAS  C:\Users\AHMED~1.ELE\AppData\Local\Temp\ccGujCBB.s 			page 4


 100:src/sysutil.c **** //*****************************************************************************
 101:src/sysutil.c **** //  Function        : Short2Beep
 102:src/sysutil.c **** //  Description     : Generate two short beep sound.
 103:src/sysutil.c **** //  Input           : N/A
 104:src/sysutil.c **** //  Return          : N/A
 105:src/sysutil.c **** //  Note            : 2 X 20ms
 106:src/sysutil.c **** //  Globals Changed : N/A
 107:src/sysutil.c **** //*****************************************************************************
 108:src/sysutil.c **** void Short2Beep(void)
 109:src/sysutil.c **** {
  73              		.loc 1 109 0
  74              		.cfi_startproc
  75              		@ args = 0, pretend = 0, frame = 0
  76              		@ frame_needed = 0, uses_anonymous_args = 0
  77              		@ link register save eliminated.
 110:src/sysutil.c ****   BeepMW(2, 2, 2);
  78              		.loc 1 110 0
  79 0000 0221     		movs	r1, #2
  80 0002 1020     		movs	r0, #16
  81 0004 0A46     		mov	r2, r1
  82 0006 0B46     		mov	r3, r1
  83 0008 FFF7FEBF 		b	sys_func3
  84              	.LVL2:
  85              		.cfi_endproc
  86              	.LFE2:
  87              		.size	Short2Beep, .-Short2Beep
  88              		.section	.text.Short1Beep,"ax",%progbits
  89              		.align	1
  90              		.global	Short1Beep
  91              		.thumb
  92              		.thumb_func
  93              		.type	Short1Beep, %function
  94              	Short1Beep:
  95              	.LFB3:
 111:src/sysutil.c **** }
 112:src/sysutil.c **** //*****************************************************************************
 113:src/sysutil.c **** //  Function        : Short1Beep
 114:src/sysutil.c **** //  Description     : Generate one short beep sound.
 115:src/sysutil.c **** //  Input           : N/A
 116:src/sysutil.c **** //  Return          : N/A
 117:src/sysutil.c **** //  Note            : 1 X 20ms
 118:src/sysutil.c **** //  Globals Changed : N/A
 119:src/sysutil.c **** //*****************************************************************************
 120:src/sysutil.c **** void Short1Beep(void)
 121:src/sysutil.c **** {
  96              		.loc 1 121 0
  97              		.cfi_startproc
  98              		@ args = 0, pretend = 0, frame = 0
  99              		@ frame_needed = 0, uses_anonymous_args = 0
 100              		@ link register save eliminated.
 122:src/sysutil.c ****   BeepMW(2, 2, 1);
 101              		.loc 1 122 0
 102 0000 0221     		movs	r1, #2
 103 0002 1020     		movs	r0, #16
 104 0004 0A46     		mov	r2, r1
 105 0006 0123     		movs	r3, #1
 106 0008 FFF7FEBF 		b	sys_func3
ARM GAS  C:\Users\AHMED~1.ELE\AppData\Local\Temp\ccGujCBB.s 			page 5


 107              	.LVL3:
 108              		.cfi_endproc
 109              	.LFE3:
 110              		.size	Short1Beep, .-Short1Beep
 111              		.section	.text.Delay1Sec,"ax",%progbits
 112              		.align	1
 113              		.global	Delay1Sec
 114              		.thumb
 115              		.thumb_func
 116              		.type	Delay1Sec, %function
 117              	Delay1Sec:
 118              	.LFB4:
 123:src/sysutil.c **** }
 124:src/sysutil.c **** //*****************************************************************************
 125:src/sysutil.c **** //  Function        : Delay1Sec
 126:src/sysutil.c **** //  Description     : Delay for certain second or key pressed.
 127:src/sysutil.c **** //  Input           : time;         // seconds to Delay
 128:src/sysutil.c **** //                    beep_reqd;    // beep required ?
 129:src/sysutil.c **** //  Return          : N/A
 130:src/sysutil.c **** //  Note            : N/A
 131:src/sysutil.c **** //  Globals Changed : N/A
 132:src/sysutil.c **** //*****************************************************************************
 133:src/sysutil.c **** void Delay1Sec(DWORD aTime, BOOLEAN aBeepReqd)
 134:src/sysutil.c **** {
 119              		.loc 1 134 0
 120              		.cfi_startproc
 121              		@ args = 0, pretend = 0, frame = 0
 122              		@ frame_needed = 0, uses_anonymous_args = 0
 123              	.LVL4:
 124 0000 37B5     		push	{r0, r1, r2, r4, r5, lr}
 125              		.cfi_def_cfa_offset 24
 126              		.cfi_offset 4, -12
 127              		.cfi_offset 5, -8
 128              		.cfi_offset 14, -4
 129              		.loc 1 134 0
 130 0002 0446     		mov	r4, r0
 135:src/sysutil.c ****   DWORD free_run, curr;
 136:src/sysutil.c ****   if (aBeepReqd)
 131              		.loc 1 136 0
 132 0004 09B1     		cbz	r1, .L6
 137:src/sysutil.c ****     LongBeep();
 133              		.loc 1 137 0
 134 0006 FFF7FEFF 		bl	LongBeep
 135              	.LVL5:
 136              	.L6:
 138:src/sysutil.c **** 
 139:src/sysutil.c ****   aTime *= 200;  // convert to 5ms units
 137              		.loc 1 139 0
 138 000a C823     		movs	r3, #200
 140:src/sysutil.c ****   free_run = FreeRunMW();
 139              		.loc 1 140 0
 140 000c 40F29F10 		movw	r0, #415
 139:src/sysutil.c ****   free_run = FreeRunMW();
 141              		.loc 1 139 0
 142 0010 5C43     		muls	r4, r3, r4
 143              	.LVL6:
 144              		.loc 1 140 0
ARM GAS  C:\Users\AHMED~1.ELE\AppData\Local\Temp\ccGujCBB.s 			page 6


 145 0012 FFF7FEFF 		bl	sys_func0
 146              	.LVL7:
 147 0016 0546     		mov	r5, r0
 148              	.LVL8:
 149              	.L7:
 141:src/sysutil.c ****   while (GetCharMW() != MWKEY_CANCL) {
 150              		.loc 1 141 0
 151 0018 0022     		movs	r2, #0
 152 001a 0F20     		movs	r0, #15
 153 001c 0092     		str	r2, [sp]
 154 001e 1621     		movs	r1, #22
 155 0020 1346     		mov	r3, r2
 156 0022 FFF7FEFF 		bl	lib_app_call
 157              	.LVL9:
 158 0026 1128     		cmp	r0, #17
 159 0028 0AD0     		beq	.L5
 142:src/sysutil.c ****     SleepMW();
 160              		.loc 1 142 0
 161 002a 4FF4CE70 		mov	r0, #412
 162 002e FFF7FEFF 		bl	sys_func0
 163              	.LVL10:
 143:src/sysutil.c ****     curr = FreeRunMW();
 164              		.loc 1 143 0
 165 0032 40F29F10 		movw	r0, #415
 166 0036 FFF7FEFF 		bl	sys_func0
 167              	.LVL11:
 144:src/sysutil.c ****     curr -= free_run;
 168              		.loc 1 144 0
 169 003a 401B     		subs	r0, r0, r5
 170              	.LVL12:
 145:src/sysutil.c ****     if (curr >= aTime)
 171              		.loc 1 145 0
 172 003c A042     		cmp	r0, r4
 173 003e EBD3     		bcc	.L7
 174              	.LVL13:
 175              	.L5:
 146:src/sysutil.c ****       break;
 147:src/sysutil.c ****   }
 148:src/sysutil.c **** }
 176              		.loc 1 148 0
 177 0040 03B0     		add	sp, sp, #12
 178              		.cfi_def_cfa_offset 12
 179              		@ sp needed
 180 0042 30BD     		pop	{r4, r5, pc}
 181              		.cfi_endproc
 182              	.LFE4:
 183              		.size	Delay1Sec, .-Delay1Sec
 184              		.section	.text.ErrorDelay,"ax",%progbits
 185              		.align	1
 186              		.global	ErrorDelay
 187              		.thumb
 188              		.thumb_func
 189              		.type	ErrorDelay, %function
 190              	ErrorDelay:
 191              	.LFB5:
 149:src/sysutil.c **** //*****************************************************************************
 150:src/sysutil.c **** //  Function        : ErrorDelay
ARM GAS  C:\Users\AHMED~1.ELE\AppData\Local\Temp\ccGujCBB.s 			page 7


 151:src/sysutil.c **** //  Description     : Special Delay routine for error.
 152:src/sysutil.c **** //  Input           : N/A
 153:src/sysutil.c **** //  Return          : N/A
 154:src/sysutil.c **** //  Note            : N/A
 155:src/sysutil.c **** //  Globals Changed : N/A
 156:src/sysutil.c **** //*****************************************************************************
 157:src/sysutil.c **** void ErrorDelay(void)
 158:src/sysutil.c **** {
 192              		.loc 1 158 0
 193              		.cfi_startproc
 194              		@ args = 0, pretend = 0, frame = 0
 195              		@ frame_needed = 0, uses_anonymous_args = 0
 196              		@ link register save eliminated.
 159:src/sysutil.c ****   Delay1Sec(10, 1);
 197              		.loc 1 159 0
 198 0000 0A20     		movs	r0, #10
 199 0002 0121     		movs	r1, #1
 200 0004 FFF7FEBF 		b	Delay1Sec
 201              	.LVL14:
 202              		.cfi_endproc
 203              	.LFE5:
 204              		.size	ErrorDelay, .-ErrorDelay
 205              		.section	.text.Delay10ms,"ax",%progbits
 206              		.align	1
 207              		.global	Delay10ms
 208              		.thumb
 209              		.thumb_func
 210              		.type	Delay10ms, %function
 211              	Delay10ms:
 212              	.LFB6:
 160:src/sysutil.c **** }
 161:src/sysutil.c **** //*****************************************************************************
 162:src/sysutil.c **** //  Function        : Delay10ms
 163:src/sysutil.c **** //  Description     : Delay a number of 10ms .
 164:src/sysutil.c **** //  Input           : cnt; // count of 10ms to Delay
 165:src/sysutil.c **** //  Return          : N/A
 166:src/sysutil.c **** //  Note            : N/A
 167:src/sysutil.c **** //  Globals Changed : N/A
 168:src/sysutil.c **** //*****************************************************************************
 169:src/sysutil.c **** void Delay10ms(DWORD aCnt)
 170:src/sysutil.c **** {
 213              		.loc 1 170 0
 214              		.cfi_startproc
 215              		@ args = 0, pretend = 0, frame = 0
 216              		@ frame_needed = 0, uses_anonymous_args = 0
 217              	.LVL15:
 218 0000 38B5     		push	{r3, r4, r5, lr}
 219              		.cfi_def_cfa_offset 16
 220              		.cfi_offset 3, -16
 221              		.cfi_offset 4, -12
 222              		.cfi_offset 5, -8
 223              		.cfi_offset 14, -4
 224              		.loc 1 170 0
 225 0002 0446     		mov	r4, r0
 171:src/sysutil.c ****   DWORD curr, free_run = FreeRunMW();
 226              		.loc 1 171 0
 227 0004 40F29F10 		movw	r0, #415
ARM GAS  C:\Users\AHMED~1.ELE\AppData\Local\Temp\ccGujCBB.s 			page 8


 228              	.LVL16:
 229 0008 FFF7FEFF 		bl	sys_func0
 230              	.LVL17:
 172:src/sysutil.c ****   aCnt *= 2;
 231              		.loc 1 172 0
 232 000c 6400     		lsls	r4, r4, #1
 233              	.LVL18:
 171:src/sysutil.c ****   DWORD curr, free_run = FreeRunMW();
 234              		.loc 1 171 0
 235 000e 0546     		mov	r5, r0
 236              	.LVL19:
 237              	.L17:
 173:src/sysutil.c ****   do {
 174:src/sysutil.c ****     SleepMW();
 238              		.loc 1 174 0 discriminator 1
 239 0010 4FF4CE70 		mov	r0, #412
 240 0014 FFF7FEFF 		bl	sys_func0
 241              	.LVL20:
 175:src/sysutil.c ****     curr = FreeRunMW();
 242              		.loc 1 175 0 discriminator 1
 243 0018 40F29F10 		movw	r0, #415
 244 001c FFF7FEFF 		bl	sys_func0
 245              	.LVL21:
 176:src/sysutil.c ****     curr -= free_run;
 246              		.loc 1 176 0 discriminator 1
 247 0020 401B     		subs	r0, r0, r5
 248              	.LVL22:
 177:src/sysutil.c ****   } while (curr < aCnt);
 249              		.loc 1 177 0 discriminator 1
 250 0022 A042     		cmp	r0, r4
 251 0024 F4D3     		bcc	.L17
 178:src/sysutil.c **** }
 252              		.loc 1 178 0
 253 0026 38BD     		pop	{r3, r4, r5, pc}
 254              		.cfi_endproc
 255              	.LFE6:
 256              		.size	Delay10ms, .-Delay10ms
 257              		.section	.text.ShowStatus,"ax",%progbits
 258              		.align	1
 259              		.global	ShowStatus
 260              		.thumb
 261              		.thumb_func
 262              		.type	ShowStatus, %function
 263              	ShowStatus:
 264              	.LFB7:
 179:src/sysutil.c **** //*****************************************************************************
 180:src/sysutil.c **** //  Function        : ShowStatus
 181:src/sysutil.c **** //  Description     : Show message on status line.
 182:src/sysutil.c **** //  Input           : aMsg;     // pointer to string message
 183:src/sysutil.c **** //                    aMode;    // Display Mode
 184:src/sysutil.c **** //  Return          : N/A
 185:src/sysutil.c **** //  Note            : N/A
 186:src/sysutil.c **** //  Globals Changed : N/A
 187:src/sysutil.c **** //*****************************************************************************
 188:src/sysutil.c **** void ShowStatus(char *aMsg, DWORD aMode)
 189:src/sysutil.c **** {
 265              		.loc 1 189 0
ARM GAS  C:\Users\AHMED~1.ELE\AppData\Local\Temp\ccGujCBB.s 			page 9


 266              		.cfi_startproc
 267              		@ args = 0, pretend = 0, frame = 0
 268              		@ frame_needed = 0, uses_anonymous_args = 0
 269              	.LVL23:
 270 0000 73B5     		push	{r0, r1, r4, r5, r6, lr}
 271              		.cfi_def_cfa_offset 24
 272              		.cfi_offset 4, -16
 273              		.cfi_offset 5, -12
 274              		.cfi_offset 6, -8
 275              		.cfi_offset 14, -4
 276              		.loc 1 189 0
 277 0002 0646     		mov	r6, r0
 278              	.LBB2:
 190:src/sysutil.c ****   DispLineMW(aMsg, MW_MAX_LINE, MW_REVERSE|MW_CENTER|MW_SPFONT);
 279              		.loc 1 190 0
 280 0004 FFF7FEFF 		bl	strlen
 281              	.LVL24:
 282 0008 0546     		mov	r5, r0
 283              	.LVL25:
 284 000a 691C     		adds	r1, r5, #1
 285 000c 9220     		movs	r0, #146
 286              	.LVL26:
 287 000e FFF7FEFF 		bl	sys_func1
 288              	.LVL27:
 289 0012 0446     		mov	r4, r0
 290 0014 B0B1     		cbz	r0, .L19
 291              		.loc 1 190 0 is_stmt 0 discriminator 1
 292 0016 3146     		mov	r1, r6
 293 0018 2A46     		mov	r2, r5
 294 001a FFF7FEFF 		bl	memcpy
 295              	.LVL28:
 296 001e 0023     		movs	r3, #0
 297 0020 2521     		movs	r1, #37
 298 0022 6355     		strb	r3, [r4, r5]
 299 0024 42F21203 		movw	r3, #8210
 300 0028 2246     		mov	r2, r4
 301 002a 0093     		str	r3, [sp]
 302 002c 0F20     		movs	r0, #15
 303 002e 4FF41063 		mov	r3, #2304
 304 0032 FFF7FEFF 		bl	lib_app_call
 305              	.LVL29:
 306 0036 9420     		movs	r0, #148
 307 0038 2146     		mov	r1, r4
 308              	.LBE2:
 191:src/sysutil.c **** }
 309              		.loc 1 191 0 is_stmt 1 discriminator 1
 310 003a 02B0     		add	sp, sp, #8
 311              		.cfi_remember_state
 312              		.cfi_def_cfa_offset 16
 313              		@ sp needed
 314 003c BDE87040 		pop	{r4, r5, r6, lr}
 315              		.cfi_restore 14
 316              		.cfi_restore 6
 317              		.cfi_restore 5
 318              		.cfi_restore 4
 319              		.cfi_def_cfa_offset 0
 320              	.LVL30:
ARM GAS  C:\Users\AHMED~1.ELE\AppData\Local\Temp\ccGujCBB.s 			page 10


 321              	.LBB3:
 190:src/sysutil.c ****   DispLineMW(aMsg, MW_MAX_LINE, MW_REVERSE|MW_CENTER|MW_SPFONT);
 322              		.loc 1 190 0 discriminator 1
 323 0040 FFF7FEBF 		b	sys_func1
 324              	.LVL31:
 325              	.L19:
 326              		.cfi_restore_state
 327              	.LBE3:
 328              		.loc 1 191 0
 329 0044 02B0     		add	sp, sp, #8
 330              		.cfi_def_cfa_offset 16
 331              		@ sp needed
 332 0046 70BD     		pop	{r4, r5, r6, pc}
 333              		.cfi_endproc
 334              	.LFE7:
 335              		.size	ShowStatus, .-ShowStatus
 336              		.section	.text.DispPutStr,"ax",%progbits
 337              		.align	1
 338              		.global	DispPutStr
 339              		.thumb
 340              		.thumb_func
 341              		.type	DispPutStr, %function
 342              	DispPutStr:
 343              	.LFB8:
 192:src/sysutil.c **** //*****************************************************************************
 193:src/sysutil.c **** //  Function        : DispPutStr
 194:src/sysutil.c **** //  Description     : Put a String on display.
 195:src/sysutil.c **** //  Input           : aDispStr;         // message string
 196:src/sysutil.c **** //  Return          : N/A
 197:src/sysutil.c **** //  Note            : N/A
 198:src/sysutil.c **** //  Globals Changed : N/A
 199:src/sysutil.c **** //*****************************************************************************
 200:src/sysutil.c **** void DispPutStr(const char *aDispStr)
 201:src/sysutil.c **** {
 344              		.loc 1 201 0
 345              		.cfi_startproc
 346              		@ args = 0, pretend = 0, frame = 0
 347              		@ frame_needed = 0, uses_anonymous_args = 0
 348              	.LVL32:
 349 0000 70B5     		push	{r4, r5, r6, lr}
 350              		.cfi_def_cfa_offset 16
 351              		.cfi_offset 4, -16
 352              		.cfi_offset 5, -12
 353              		.cfi_offset 6, -8
 354              		.cfi_offset 14, -4
 355              		.loc 1 201 0
 356 0002 0646     		mov	r6, r0
 202:src/sysutil.c ****   DWORD len = strlen(aDispStr)+1;
 357              		.loc 1 202 0
 358 0004 FFF7FEFF 		bl	strlen
 359              	.LVL33:
 360 0008 441C     		adds	r4, r0, #1
 361              	.LVL34:
 203:src/sysutil.c ****   BYTE *ptr = (BYTE *)MallocMW(len);
 362              		.loc 1 203 0
 363 000a 2146     		mov	r1, r4
 364 000c 9220     		movs	r0, #146
ARM GAS  C:\Users\AHMED~1.ELE\AppData\Local\Temp\ccGujCBB.s 			page 11


 365 000e FFF7FEFF 		bl	sys_func1
 366              	.LVL35:
 204:src/sysutil.c ****   if (ptr != NULL) {
 367              		.loc 1 204 0
 368 0012 0546     		mov	r5, r0
 369 0014 70B1     		cbz	r0, .L21
 205:src/sysutil.c ****     memcpy(ptr, aDispStr, len);
 370              		.loc 1 205 0
 371 0016 3146     		mov	r1, r6
 372 0018 2246     		mov	r2, r4
 373 001a FFF7FEFF 		bl	memcpy
 374              	.LVL36:
 206:src/sysutil.c ****     DispPutNCMW(ptr, len);
 375              		.loc 1 206 0
 376 001e 2946     		mov	r1, r5
 377 0020 2246     		mov	r2, r4
 378 0022 1820     		movs	r0, #24
 379 0024 FFF7FEFF 		bl	sys_func2
 380              	.LVL37:
 207:src/sysutil.c ****     FreeMW(ptr);
 381              		.loc 1 207 0
 382 0028 2946     		mov	r1, r5
 383 002a 9420     		movs	r0, #148
 208:src/sysutil.c ****   }
 209:src/sysutil.c **** }
 384              		.loc 1 209 0
 385 002c BDE87040 		pop	{r4, r5, r6, lr}
 386              		.cfi_remember_state
 387              		.cfi_restore 14
 388              		.cfi_restore 6
 389              		.cfi_restore 5
 390              		.cfi_restore 4
 391              		.cfi_def_cfa_offset 0
 392              	.LVL38:
 207:src/sysutil.c ****     FreeMW(ptr);
 393              		.loc 1 207 0
 394 0030 FFF7FEBF 		b	sys_func1
 395              	.LVL39:
 396              	.L21:
 397              		.cfi_restore_state
 398 0034 70BD     		pop	{r4, r5, r6, pc}
 399              		.cfi_endproc
 400              	.LFE8:
 401              		.size	DispPutStr, .-DispPutStr
 402              		.section	.text.ShowBWLogo,"ax",%progbits
 403              		.align	1
 404              		.global	ShowBWLogo
 405              		.thumb
 406              		.thumb_func
 407              		.type	ShowBWLogo, %function
 408              	ShowBWLogo:
 409              	.LFB9:
 210:src/sysutil.c **** //*****************************************************************************
 211:src/sysutil.c **** //  Function        : ShowBWLogo
 212:src/sysutil.c **** //  Description     : Display Black&White Logo.
 213:src/sysutil.c **** //  Input           : aLogoDat;     // pointer to logo data
 214:src/sysutil.c **** //                    aLogoSize;    // Size of logo data
ARM GAS  C:\Users\AHMED~1.ELE\AppData\Local\Temp\ccGujCBB.s 			page 12


 215:src/sysutil.c **** //  Return          : N/A
 216:src/sysutil.c **** //  Note            : N/A
 217:src/sysutil.c **** //  Globals Changed : N/A
 218:src/sysutil.c **** //*****************************************************************************
 219:src/sysutil.c **** void ShowBWLogo(const BYTE *aLogoDat, DWORD aLogoSize)
 220:src/sysutil.c **** {
 410              		.loc 1 220 0
 411              		.cfi_startproc
 412              		@ args = 0, pretend = 0, frame = 0
 413              		@ frame_needed = 0, uses_anonymous_args = 0
 414              	.LVL40:
 415 0000 73B5     		push	{r0, r1, r4, r5, r6, lr}
 416              		.cfi_def_cfa_offset 24
 417              		.cfi_offset 4, -16
 418              		.cfi_offset 5, -12
 419              		.cfi_offset 6, -8
 420              		.cfi_offset 14, -4
 421              		.loc 1 220 0
 422 0002 0646     		mov	r6, r0
 221:src/sysutil.c ****   BYTE *logo_ptr;
 222:src/sysutil.c ****   logo_ptr = (BYTE *)MallocMW(aLogoSize);
 423              		.loc 1 222 0
 424 0004 9220     		movs	r0, #146
 425              	.LVL41:
 220:src/sysutil.c ****   BYTE *logo_ptr;
 426              		.loc 1 220 0
 427 0006 0D46     		mov	r5, r1
 428              		.loc 1 222 0
 429 0008 FFF7FEFF 		bl	sys_func1
 430              	.LVL42:
 223:src/sysutil.c ****   if (logo_ptr != NULL) {
 431              		.loc 1 223 0
 432 000c 0446     		mov	r4, r0
 433 000e 88B1     		cbz	r0, .L23
 224:src/sysutil.c ****     memcpy(logo_ptr, aLogoDat, aLogoSize);
 434              		.loc 1 224 0
 435 0010 3146     		mov	r1, r6
 436 0012 2A46     		mov	r2, r5
 437 0014 FFF7FEFF 		bl	memcpy
 438              	.LVL43:
 225:src/sysutil.c ****     DispLogoMW(logo_ptr, 1, 1);
 439              		.loc 1 225 0
 440 0018 0123     		movs	r3, #1
 441 001a 1B21     		movs	r1, #27
 442 001c 0093     		str	r3, [sp]
 443 001e 2246     		mov	r2, r4
 444 0020 0F20     		movs	r0, #15
 445 0022 FFF7FEFF 		bl	lib_app_call
 446              	.LVL44:
 226:src/sysutil.c ****     FreeMW(logo_ptr);
 447              		.loc 1 226 0
 448 0026 9420     		movs	r0, #148
 449 0028 2146     		mov	r1, r4
 227:src/sysutil.c ****   }
 228:src/sysutil.c **** }
 450              		.loc 1 228 0
 451 002a 02B0     		add	sp, sp, #8
ARM GAS  C:\Users\AHMED~1.ELE\AppData\Local\Temp\ccGujCBB.s 			page 13


 452              		.cfi_remember_state
 453              		.cfi_def_cfa_offset 16
 454              		@ sp needed
 455 002c BDE87040 		pop	{r4, r5, r6, lr}
 456              		.cfi_restore 14
 457              		.cfi_restore 6
 458              		.cfi_restore 5
 459              		.cfi_restore 4
 460              		.cfi_def_cfa_offset 0
 461              	.LVL45:
 226:src/sysutil.c ****     FreeMW(logo_ptr);
 462              		.loc 1 226 0
 463 0030 FFF7FEBF 		b	sys_func1
 464              	.LVL46:
 465              	.L23:
 466              		.cfi_restore_state
 467              		.loc 1 228 0
 468 0034 02B0     		add	sp, sp, #8
 469              		.cfi_def_cfa_offset 16
 470              		@ sp needed
 471 0036 70BD     		pop	{r4, r5, r6, pc}
 472              		.cfi_endproc
 473              	.LFE9:
 474              		.size	ShowBWLogo, .-ShowBWLogo
 475              		.section	.text.ShowGraphicT800,"ax",%progbits
 476              		.align	1
 477              		.global	ShowGraphicT800
 478              		.thumb
 479              		.thumb_func
 480              		.type	ShowGraphicT800, %function
 481              	ShowGraphicT800:
 482              	.LFB10:
 229:src/sysutil.c **** //*****************************************************************************
 230:src/sysutil.c **** //  Function        : ShowGraphicT800
 231:src/sysutil.c **** //  Description     : Display Color graphic on LCD.
 232:src/sysutil.c **** //  Input           : aDat;     // pointer to graphic data (USing T800 converter)
 233:src/sysutil.c **** //  Return          : N/A
 234:src/sysutil.c **** //  Note            : N/A
 235:src/sysutil.c **** //  Globals Changed : N/A
 236:src/sysutil.c **** //*****************************************************************************
 237:src/sysutil.c **** void ShowGraphicT800(struct GLOC *aLoc, const BYTE *aDat)
 238:src/sysutil.c **** {
 483              		.loc 1 238 0
 484              		.cfi_startproc
 485              		@ args = 0, pretend = 0, frame = 8
 486              		@ frame_needed = 0, uses_anonymous_args = 0
 487              	.LVL47:
 488 0000 F7B5     		push	{r0, r1, r2, r4, r5, r6, r7, lr}
 489              		.cfi_def_cfa_offset 32
 490              		.cfi_offset 4, -20
 491              		.cfi_offset 5, -16
 492              		.cfi_offset 6, -12
 493              		.cfi_offset 7, -8
 494              		.cfi_offset 14, -4
 239:src/sysutil.c ****   #if (CLCD_SUPPORT)
 240:src/sysutil.c ****   struct CGRAPH *pGraphic;
 241:src/sysutil.c ****   DWORD  logo_size;
ARM GAS  C:\Users\AHMED~1.ELE\AppData\Local\Temp\ccGujCBB.s 			page 14


 242:src/sysutil.c ****   #if (T300|T810|A5T1000|T1000)
 243:src/sysutil.c ****   DWORD  i;
 244:src/sysutil.c ****   WORD   color;
 245:src/sysutil.c ****   WORD   temp;
 246:src/sysutil.c ****   #endif
 247:src/sysutil.c **** 
 248:src/sysutil.c ****   logo_size = aLoc->wWidth*aLoc->wHeight*sizeof(WORD);
 495              		.loc 1 248 0
 496 0002 C388     		ldrh	r3, [r0, #6]
 497 0004 8588     		ldrh	r5, [r0, #4]
 238:src/sysutil.c ****   #if (CLCD_SUPPORT)
 498              		.loc 1 238 0
 499 0006 0746     		mov	r7, r0
 500              		.loc 1 248 0
 501 0008 5D43     		muls	r5, r3, r5
 238:src/sysutil.c ****   #if (CLCD_SUPPORT)
 502              		.loc 1 238 0
 503 000a 0E46     		mov	r6, r1
 504              		.loc 1 248 0
 505 000c 6D00     		lsls	r5, r5, #1
 506              	.LVL48:
 249:src/sysutil.c ****   pGraphic = (struct CGRAPH *)MallocMW(logo_size+8);
 507              		.loc 1 249 0
 508 000e 9220     		movs	r0, #146
 509              	.LVL49:
 510 0010 05F10801 		add	r1, r5, #8
 511              	.LVL50:
 512 0014 FFF7FEFF 		bl	sys_func1
 513              	.LVL51:
 250:src/sysutil.c ****   pGraphic->w_hstart = aLoc->wPosX;
 514              		.loc 1 250 0
 515 0018 3B88     		ldrh	r3, [r7]
 516 001a 0380     		strh	r3, [r0]	@ movhi
 251:src/sysutil.c ****   pGraphic->w_vstart = aLoc->wPosY;
 517              		.loc 1 251 0
 518 001c 7B88     		ldrh	r3, [r7, #2]
 249:src/sysutil.c ****   pGraphic = (struct CGRAPH *)MallocMW(logo_size+8);
 519              		.loc 1 249 0
 520 001e 0446     		mov	r4, r0
 521              	.LVL52:
 522              		.loc 1 251 0
 523 0020 4380     		strh	r3, [r0, #2]	@ movhi
 252:src/sysutil.c ****   pGraphic->w_hwidth = aLoc->wWidth;
 524              		.loc 1 252 0
 525 0022 BB88     		ldrh	r3, [r7, #4]
 526 0024 8380     		strh	r3, [r0, #4]	@ movhi
 253:src/sysutil.c ****   pGraphic->w_vwidth = aLoc->wHeight;
 527              		.loc 1 253 0
 528 0026 FB88     		ldrh	r3, [r7, #6]
 254:src/sysutil.c ****   #if (T300|T810|A5T1000|T1000)
 255:src/sysutil.c ****   for (i = 0; i < logo_size; i+=2){
 529              		.loc 1 255 0
 530 0028 0027     		movs	r7, #0
 531              	.LVL53:
 253:src/sysutil.c ****   pGraphic->w_vwidth = aLoc->wHeight;
 532              		.loc 1 253 0
 533 002a C380     		strh	r3, [r0, #6]	@ movhi
ARM GAS  C:\Users\AHMED~1.ELE\AppData\Local\Temp\ccGujCBB.s 			page 15


 534              	.LVL54:
 535              	.L26:
 536              		.loc 1 255 0 discriminator 1
 537 002c AF42     		cmp	r7, r5
 538 002e 1CD2     		bcs	.L28
 539 0030 F319     		adds	r3, r6, r7
 540 0032 04F10800 		add	r0, r4, #8
 256:src/sysutil.c ****     temp = aDat[i]+(aDat[i+1]*256);
 541              		.loc 1 256 0 discriminator 3
 542 0036 5A78     		ldrb	r2, [r3, #1]	@ zero_extendqisi2
 543 0038 F35D     		ldrb	r3, [r6, r7]	@ zero_extendqisi2
 257:src/sysutil.c ****     color = T800_TO_T1000(temp);
 258:src/sysutil.c ****     memcpy(&pGraphic->sb_data[i], (BYTE *)&color, 2);
 544              		.loc 1 258 0 discriminator 3
 545 003a 3844     		add	r0, r0, r7
 256:src/sysutil.c ****     temp = aDat[i]+(aDat[i+1]*256);
 546              		.loc 1 256 0 discriminator 3
 547 003c 03EB0223 		add	r3, r3, r2, lsl #8
 255:src/sysutil.c ****     temp = aDat[i]+(aDat[i+1]*256);
 548              		.loc 1 255 0 discriminator 3
 549 0040 0237     		adds	r7, r7, #2
 550              	.LVL55:
 256:src/sysutil.c ****     temp = aDat[i]+(aDat[i+1]*256);
 551              		.loc 1 256 0 discriminator 3
 552 0042 9BB2     		uxth	r3, r3
 553              	.LVL56:
 257:src/sysutil.c ****     color = T800_TO_T1000(temp);
 554              		.loc 1 257 0 discriminator 3
 555 0044 03F47871 		and	r1, r3, #992
 556 0048 C3F38422 		ubfx	r2, r3, #10, #5
 557 004c 42EA4102 		orr	r2, r2, r1, lsl #1
 558 0050 42EAC322 		orr	r2, r2, r3, lsl #11
 559 0054 03F40043 		and	r3, r3, #32768
 560              	.LVL57:
 561 0058 02A9     		add	r1, sp, #8
 562 005a 42EA9323 		orr	r3, r2, r3, lsr #10
 563              		.loc 1 258 0 discriminator 3
 564 005e 0222     		movs	r2, #2
 257:src/sysutil.c ****     color = T800_TO_T1000(temp);
 565              		.loc 1 257 0 discriminator 3
 566 0060 21F8023D 		strh	r3, [r1, #-2]!	@ movhi
 567              		.loc 1 258 0 discriminator 3
 568 0064 FFF7FEFF 		bl	memcpy
 569              	.LVL58:
 570 0068 E0E7     		b	.L26
 571              	.L28:
 259:src/sysutil.c ****   }
 260:src/sysutil.c ****   #else
 261:src/sysutil.c ****   memcpy(pGraphic->sb_data, aDat, logo_size);
 262:src/sysutil.c ****   #endif
 263:src/sysutil.c **** 
 264:src/sysutil.c ****   DispPutGMW(pGraphic);
 572              		.loc 1 264 0
 573 006a 2146     		mov	r1, r4
 574 006c 1A20     		movs	r0, #26
 575 006e FFF7FEFF 		bl	sys_func1
 576              	.LVL59:
ARM GAS  C:\Users\AHMED~1.ELE\AppData\Local\Temp\ccGujCBB.s 			page 16


 265:src/sysutil.c ****   FreeMW(pGraphic);
 577              		.loc 1 265 0
 578 0072 9420     		movs	r0, #148
 579 0074 2146     		mov	r1, r4
 266:src/sysutil.c ****   #endif
 267:src/sysutil.c **** }
 580              		.loc 1 267 0
 581 0076 03B0     		add	sp, sp, #12
 582              		.cfi_def_cfa_offset 20
 583              		@ sp needed
 584 0078 BDE8F040 		pop	{r4, r5, r6, r7, lr}
 585              		.cfi_restore 14
 586              		.cfi_restore 7
 587              		.cfi_restore 6
 588              		.cfi_restore 5
 589              		.cfi_restore 4
 590              		.cfi_def_cfa_offset 0
 591              	.LVL60:
 265:src/sysutil.c ****   FreeMW(pGraphic);
 592              		.loc 1 265 0
 593 007c FFF7FEBF 		b	sys_func1
 594              	.LVL61:
 595              		.cfi_endproc
 596              	.LFE10:
 597              		.size	ShowGraphicT800, .-ShowGraphicT800
 598              		.section	.text.Disp2x16Msg,"ax",%progbits
 599              		.align	1
 600              		.global	Disp2x16Msg
 601              		.thumb
 602              		.thumb_func
 603              		.type	Disp2x16Msg, %function
 604              	Disp2x16Msg:
 605              	.LFB11:
 268:src/sysutil.c **** //*****************************************************************************
 269:src/sysutil.c **** //  Function        : Disp2x16Msg
 270:src/sysutil.c **** //  Description     : Display 2x16 message on lcd using DispLine
 271:src/sysutil.c **** //  Input           : aMsg;         // pointer to 2x16 message
 272:src/sysutil.c **** //                    aOffset;      // DispLine's offset
 273:src/sysutil.c **** //                    aCtrl;        // DispLine's control
 274:src/sysutil.c **** //  Return          : N/A
 275:src/sysutil.c **** //  Note            : N/A
 276:src/sysutil.c **** //  Globals Changed : N/A
 277:src/sysutil.c **** //*****************************************************************************
 278:src/sysutil.c **** void Disp2x16Msg(const BYTE *aMsg, DWORD aOffset, DWORD aCtrl)
 279:src/sysutil.c **** {
 606              		.loc 1 279 0
 607              		.cfi_startproc
 608              		@ args = 0, pretend = 0, frame = 24
 609              		@ frame_needed = 0, uses_anonymous_args = 0
 610              	.LVL62:
 611 0000 2DE9F043 		push	{r4, r5, r6, r7, r8, r9, lr}
 612              		.cfi_def_cfa_offset 28
 613              		.cfi_offset 4, -28
 614              		.cfi_offset 5, -24
 615              		.cfi_offset 6, -20
 616              		.cfi_offset 7, -16
 617              		.cfi_offset 8, -12
ARM GAS  C:\Users\AHMED~1.ELE\AppData\Local\Temp\ccGujCBB.s 			page 17


 618              		.cfi_offset 9, -8
 619              		.cfi_offset 14, -4
 620 0004 89B0     		sub	sp, sp, #36
 621              		.cfi_def_cfa_offset 64
 622              		.loc 1 279 0
 623 0006 8046     		mov	r8, r0
 624 0008 0F46     		mov	r7, r1
 625 000a 1446     		mov	r4, r2
 280:src/sysutil.c ****   DWORD next_line;
 281:src/sysutil.c ****   BYTE  tmpbuf[17];
 282:src/sysutil.c **** 
 283:src/sysutil.c ****   memset(tmpbuf, 0, sizeof(tmpbuf));
 626              		.loc 1 283 0
 627 000c 0021     		movs	r1, #0
 628              	.LVL63:
 629 000e 1122     		movs	r2, #17
 630              	.LVL64:
 631 0010 03A8     		add	r0, sp, #12
 632              	.LVL65:
 633 0012 FFF7FEFF 		bl	memset
 634              	.LVL66:
 284:src/sysutil.c ****   memcpy(tmpbuf, aMsg, 16);
 635              		.loc 1 284 0
 636 0016 4146     		mov	r1, r8
 637 0018 1022     		movs	r2, #16
 638 001a 03A8     		add	r0, sp, #12
 639 001c FFF7FEFF 		bl	memcpy
 640              	.LVL67:
 641              	.LBB4:
 285:src/sysutil.c ****   DispLineMW(tmpbuf,  aOffset, aCtrl|MW_CENTER);
 642              		.loc 1 285 0
 643 0020 03A8     		add	r0, sp, #12
 644 0022 FFF7FEFF 		bl	strlen
 645              	.LVL68:
 646 0026 0646     		mov	r6, r0
 647              	.LVL69:
 648 0028 711C     		adds	r1, r6, #1
 649 002a 9220     		movs	r0, #146
 650              	.LVL70:
 651 002c FFF7FEFF 		bl	sys_func1
 652              	.LVL71:
 653 0030 0546     		mov	r5, r0
 654 0032 90B1     		cbz	r0, .L30
 655              		.loc 1 285 0 is_stmt 0 discriminator 1
 656 0034 03A9     		add	r1, sp, #12
 657 0036 3246     		mov	r2, r6
 658 0038 FFF7FEFF 		bl	memcpy
 659              	.LVL72:
 660 003c 0023     		movs	r3, #0
 661 003e 2521     		movs	r1, #37
 662 0040 AB55     		strb	r3, [r5, r6]
 663 0042 44F00203 		orr	r3, r4, #2
 664 0046 0F20     		movs	r0, #15
 665 0048 0093     		str	r3, [sp]
 666 004a 2A46     		mov	r2, r5
 667 004c 3B46     		mov	r3, r7
 668 004e FFF7FEFF 		bl	lib_app_call
ARM GAS  C:\Users\AHMED~1.ELE\AppData\Local\Temp\ccGujCBB.s 			page 18


 669              	.LVL73:
 670 0052 9420     		movs	r0, #148
 671 0054 2946     		mov	r1, r5
 672 0056 FFF7FEFF 		bl	sys_func1
 673              	.LVL74:
 674              	.L30:
 675              	.LBE4:
 286:src/sysutil.c ****   next_line = (aCtrl&MW_BIGFONT)?(MW_LINE3-MW_LINE1):(MW_LINE2-MW_LINE1);
 676              		.loc 1 286 0 is_stmt 1
 677 005a 14F4805F 		tst	r4, #4096
 287:src/sysutil.c ****   aCtrl &= ~MW_CLRDISP;
 288:src/sysutil.c ****   memcpy(tmpbuf, &aMsg[16], 16);
 678              		.loc 1 288 0
 679 005e 08F11001 		add	r1, r8, #16
 680 0062 4FF01002 		mov	r2, #16
 681 0066 03A8     		add	r0, sp, #12
 286:src/sysutil.c ****   next_line = (aCtrl&MW_BIGFONT)?(MW_LINE3-MW_LINE1):(MW_LINE2-MW_LINE1);
 682              		.loc 1 286 0
 683 0068 14BF     		ite	ne
 684 006a 4FF40079 		movne	r9, #512
 685 006e 4FF48079 		moveq	r9, #256
 686              	.LVL75:
 687              		.loc 1 288 0
 688 0072 FFF7FEFF 		bl	memcpy
 689              	.LVL76:
 690              	.LBB5:
 289:src/sysutil.c ****   DispLineMW(tmpbuf, aOffset+next_line, aCtrl|MW_CENTER);
 691              		.loc 1 289 0
 692 0076 03A8     		add	r0, sp, #12
 693 0078 FFF7FEFF 		bl	strlen
 694              	.LVL77:
 695              	.LBE5:
 287:src/sysutil.c ****   aCtrl &= ~MW_CLRDISP;
 696              		.loc 1 287 0
 697 007c 24F08004 		bic	r4, r4, #128
 698              	.LVL78:
 699              	.LBB6:
 700              		.loc 1 289 0
 701 0080 0646     		mov	r6, r0
 702              	.LVL79:
 703 0082 711C     		adds	r1, r6, #1
 704 0084 9220     		movs	r0, #146
 705              	.LVL80:
 706 0086 FFF7FEFF 		bl	sys_func1
 707              	.LVL81:
 708 008a 0546     		mov	r5, r0
 709              	.LVL82:
 710 008c 98B1     		cbz	r0, .L29
 711              		.loc 1 289 0 is_stmt 0 discriminator 1
 712 008e 03A9     		add	r1, sp, #12
 713 0090 3246     		mov	r2, r6
 714 0092 FFF7FEFF 		bl	memcpy
 715              	.LVL83:
 716 0096 44F00204 		orr	r4, r4, #2
 717              	.LVL84:
 718 009a 0023     		movs	r3, #0
 719 009c 2521     		movs	r1, #37
ARM GAS  C:\Users\AHMED~1.ELE\AppData\Local\Temp\ccGujCBB.s 			page 19


 720 009e AB55     		strb	r3, [r5, r6]
 721 00a0 0F20     		movs	r0, #15
 722 00a2 0094     		str	r4, [sp]
 723 00a4 2A46     		mov	r2, r5
 724 00a6 09EB0703 		add	r3, r9, r7
 725 00aa FFF7FEFF 		bl	lib_app_call
 726              	.LVL85:
 727 00ae 9420     		movs	r0, #148
 728 00b0 2946     		mov	r1, r5
 729 00b2 FFF7FEFF 		bl	sys_func1
 730              	.LVL86:
 731              	.L29:
 732              	.LBE6:
 290:src/sysutil.c **** }
 733              		.loc 1 290 0 is_stmt 1
 734 00b6 09B0     		add	sp, sp, #36
 735              		.cfi_def_cfa_offset 28
 736              		@ sp needed
 737 00b8 BDE8F083 		pop	{r4, r5, r6, r7, r8, r9, pc}
 738              		.cfi_endproc
 739              	.LFE11:
 740              		.size	Disp2x16Msg, .-Disp2x16Msg
 741              		.section	.text.SetRTC,"ax",%progbits
 742              		.align	1
 743              		.global	SetRTC
 744              		.thumb
 745              		.thumb_func
 746              		.type	SetRTC, %function
 747              	SetRTC:
 748              	.LFB12:
 291:src/sysutil.c **** //*****************************************************************************
 292:src/sysutil.c **** //  Function        : SetRTC
 293:src/sysutil.c **** //  Description     : Set Real Time clock.
 294:src/sysutil.c **** //  Input           : aDtg;     // pointer to structure DATETIME.
 295:src/sysutil.c **** //  Return          : N/A
 296:src/sysutil.c **** //  Note            : N/A
 297:src/sysutil.c **** //  Globals Changed : N/A
 298:src/sysutil.c **** //*****************************************************************************
 299:src/sysutil.c **** void SetRTC(struct DATETIME *aDtg)
 300:src/sysutil.c **** {
 749              		.loc 1 300 0
 750              		.cfi_startproc
 751              		@ args = 0, pretend = 0, frame = 16
 752              		@ frame_needed = 0, uses_anonymous_args = 0
 753              	.LVL87:
 754 0000 1FB5     		push	{r0, r1, r2, r3, r4, lr}
 755              		.cfi_def_cfa_offset 24
 756              		.cfi_offset 14, -4
 301:src/sysutil.c ****   BYTE buffer[15];
 302:src/sysutil.c **** 
 303:src/sysutil.c ****   aDtg->bCentury = (aDtg->bYear>0x50)?0x19:0x20;
 757              		.loc 1 303 0
 758 0002 4378     		ldrb	r3, [r0, #1]	@ zero_extendqisi2
 300:src/sysutil.c ****   BYTE buffer[15];
 759              		.loc 1 300 0
 760 0004 0146     		mov	r1, r0
 761              		.loc 1 303 0
ARM GAS  C:\Users\AHMED~1.ELE\AppData\Local\Temp\ccGujCBB.s 			page 20


 762 0006 502B     		cmp	r3, #80
 763 0008 8CBF     		ite	hi
 764 000a 1923     		movhi	r3, #25
 765 000c 2023     		movls	r3, #32
 304:src/sysutil.c ****   split(buffer,(BYTE*)aDtg,7);
 766              		.loc 1 304 0
 767 000e 0722     		movs	r2, #7
 303:src/sysutil.c ****   split(buffer,(BYTE*)aDtg,7);
 768              		.loc 1 303 0
 769 0010 0370     		strb	r3, [r0]
 770              		.loc 1 304 0
 771 0012 6846     		mov	r0, sp
 772              	.LVL88:
 773 0014 FFF7FEFF 		bl	split
 774              	.LVL89:
 305:src/sysutil.c ****   RtcSetMW(buffer);
 775              		.loc 1 305 0
 776 0018 6946     		mov	r1, sp
 777 001a 1320     		movs	r0, #19
 778 001c FFF7FEFF 		bl	sys_func1
 779              	.LVL90:
 306:src/sysutil.c **** }
 780              		.loc 1 306 0
 781 0020 05B0     		add	sp, sp, #20
 782              		.cfi_def_cfa_offset 4
 783              		@ sp needed
 784 0022 5DF804FB 		ldr	pc, [sp], #4
 785              		.cfi_endproc
 786              	.LFE12:
 787              		.size	SetRTC, .-SetRTC
 788              		.section	.text.ReadRTC,"ax",%progbits
 789              		.align	1
 790              		.global	ReadRTC
 791              		.thumb
 792              		.thumb_func
 793              		.type	ReadRTC, %function
 794              	ReadRTC:
 795              	.LFB13:
 307:src/sysutil.c **** //*****************************************************************************
 308:src/sysutil.c **** //  Function        : ReadRTC
 309:src/sysutil.c **** //  Description     : Get Real Time clock.
 310:src/sysutil.c **** //  Input           : aDtg;     // pointer to structure struct DATETIME buffer.
 311:src/sysutil.c **** //  Return          : N/A
 312:src/sysutil.c **** //  Note            : N/A
 313:src/sysutil.c **** //  Globals Changed : N/A
 314:src/sysutil.c **** //*****************************************************************************
 315:src/sysutil.c **** void ReadRTC(struct DATETIME *aDtg)
 316:src/sysutil.c **** {
 796              		.loc 1 316 0
 797              		.cfi_startproc
 798              		@ args = 0, pretend = 0, frame = 16
 799              		@ frame_needed = 0, uses_anonymous_args = 0
 800              	.LVL91:
 801 0000 1FB5     		push	{r0, r1, r2, r3, r4, lr}
 802              		.cfi_def_cfa_offset 24
 803              		.cfi_offset 4, -8
 804              		.cfi_offset 14, -4
ARM GAS  C:\Users\AHMED~1.ELE\AppData\Local\Temp\ccGujCBB.s 			page 21


 805              		.loc 1 316 0
 806 0002 0446     		mov	r4, r0
 317:src/sysutil.c ****   BYTE buffer[14];
 318:src/sysutil.c **** 
 319:src/sysutil.c ****   RtcGetMW(buffer);
 807              		.loc 1 319 0
 808 0004 6946     		mov	r1, sp
 809 0006 1220     		movs	r0, #18
 810              	.LVL92:
 811 0008 FFF7FEFF 		bl	sys_func1
 812              	.LVL93:
 320:src/sysutil.c ****   compress((BYTE*)aDtg,buffer,7);
 813              		.loc 1 320 0
 814 000c 2046     		mov	r0, r4
 815 000e 6946     		mov	r1, sp
 816 0010 0722     		movs	r2, #7
 817 0012 FFF7FEFF 		bl	compress
 818              	.LVL94:
 321:src/sysutil.c **** }
 819              		.loc 1 321 0
 820 0016 04B0     		add	sp, sp, #16
 821              		.cfi_def_cfa_offset 8
 822              		@ sp needed
 823 0018 10BD     		pop	{r4, pc}
 824              		.cfi_endproc
 825              	.LFE13:
 826              		.size	ReadRTC, .-ReadRTC
 827              		.section	.text.ConvDateTime,"ax",%progbits
 828              		.align	1
 829              		.global	ConvDateTime
 830              		.thumb
 831              		.thumb_func
 832              		.type	ConvDateTime, %function
 833              	ConvDateTime:
 834              	.LFB14:
 322:src/sysutil.c **** //*****************************************************************************
 323:src/sysutil.c **** //  Function        : ConvDateTime
 324:src/sysutil.c **** //  Description     : Convert input DATETIME to specify string.
 325:src/sysutil.c **** //  Input           : aBuf;       // pointer to output buf
 326:src/sysutil.c **** //                    aDtg;       // pointer struct DATETIME value
 327:src/sysutil.c **** //                    aLongYear;  // convert to LONG year fmt when TRUE.
 328:src/sysutil.c **** //  Return          : N/A
 329:src/sysutil.c **** //  Note            : N/A
 330:src/sysutil.c **** //  Globals Changed : N/A
 331:src/sysutil.c **** //*****************************************************************************
 332:src/sysutil.c **** void ConvDateTime(BYTE *aBuf, struct DATETIME *aDtg, BOOLEAN aLongYear)
 333:src/sysutil.c **** {
 835              		.loc 1 333 0
 836              		.cfi_startproc
 837              		@ args = 0, pretend = 0, frame = 0
 838              		@ frame_needed = 0, uses_anonymous_args = 0
 839              	.LVL95:
 840 0000 F8B5     		push	{r3, r4, r5, r6, r7, lr}
 841              		.cfi_def_cfa_offset 24
 842              		.cfi_offset 3, -24
 843              		.cfi_offset 4, -20
 844              		.cfi_offset 5, -16
ARM GAS  C:\Users\AHMED~1.ELE\AppData\Local\Temp\ccGujCBB.s 			page 22


 845              		.cfi_offset 6, -12
 846              		.cfi_offset 7, -8
 847              		.cfi_offset 14, -4
 848              		.loc 1 333 0
 849 0002 0D46     		mov	r5, r1
 850 0004 1746     		mov	r7, r2
 334:src/sysutil.c ****   memset(aBuf,' ',18);
 851              		.loc 1 334 0
 852 0006 2021     		movs	r1, #32
 853              	.LVL96:
 854 0008 1222     		movs	r2, #18
 855              	.LVL97:
 333:src/sysutil.c ****   memset(aBuf,' ',18);
 856              		.loc 1 333 0
 857 000a 0446     		mov	r4, r0
 858              		.loc 1 334 0
 859 000c FFF7FEFF 		bl	memset
 860              	.LVL98:
 335:src/sysutil.c ****   memcpy(aBuf, KMonthText[(BYTE)bcd2bin(aDtg->bMonth)], 3); /* month */
 861              		.loc 1 335 0
 862 0010 A878     		ldrb	r0, [r5, #2]	@ zero_extendqisi2
 863 0012 FFF7FEFF 		bl	bcd2bin
 864              	.LVL99:
 865 0016 1A4B     		ldr	r3, .L47
 866 0018 0322     		movs	r2, #3
 336:src/sysutil.c ****   split(&aBuf[4], &aDtg->bDay, 1); /* day */
 337:src/sysutil.c ****   if (aBuf[4] == '0')
 338:src/sysutil.c ****     aBuf[4] = ' ';
 339:src/sysutil.c ****   aBuf[6] = ',';
 340:src/sysutil.c ****   split(&aBuf[8],&aDtg->bCentury,2);
 867              		.loc 1 340 0
 868 001a 04F10806 		add	r6, r4, #8
 869 001e C1B2     		uxtb	r1, r0
 335:src/sysutil.c ****   memcpy(aBuf, KMonthText[(BYTE)bcd2bin(aDtg->bMonth)], 3); /* month */
 870              		.loc 1 335 0
 871 0020 2046     		mov	r0, r4
 872 0022 02FB0131 		mla	r1, r2, r1, r3
 873 0026 FFF7FEFF 		bl	memcpy
 874              	.LVL100:
 336:src/sysutil.c ****   split(&aBuf[4], &aDtg->bDay, 1); /* day */
 875              		.loc 1 336 0
 876 002a 201D     		adds	r0, r4, #4
 877 002c E91C     		adds	r1, r5, #3
 878 002e 0122     		movs	r2, #1
 879 0030 FFF7FEFF 		bl	split
 880              	.LVL101:
 337:src/sysutil.c ****     aBuf[4] = ' ';
 881              		.loc 1 337 0
 882 0034 2379     		ldrb	r3, [r4, #4]	@ zero_extendqisi2
 883              		.loc 1 340 0
 884 0036 3046     		mov	r0, r6
 337:src/sysutil.c ****     aBuf[4] = ' ';
 885              		.loc 1 337 0
 886 0038 302B     		cmp	r3, #48
 338:src/sysutil.c ****   aBuf[6] = ',';
 887              		.loc 1 338 0
 888 003a 08BF     		it	eq
ARM GAS  C:\Users\AHMED~1.ELE\AppData\Local\Temp\ccGujCBB.s 			page 23


 889 003c 2023     		moveq	r3, #32
 890              		.loc 1 340 0
 891 003e 2946     		mov	r1, r5
 338:src/sysutil.c ****   aBuf[6] = ',';
 892              		.loc 1 338 0
 893 0040 08BF     		it	eq
 894 0042 2371     		strbeq	r3, [r4, #4]
 339:src/sysutil.c ****   split(&aBuf[8],&aDtg->bCentury,2);
 895              		.loc 1 339 0
 896 0044 2C23     		movs	r3, #44
 897              		.loc 1 340 0
 898 0046 0222     		movs	r2, #2
 339:src/sysutil.c ****   split(&aBuf[8],&aDtg->bCentury,2);
 899              		.loc 1 339 0
 900 0048 A371     		strb	r3, [r4, #6]
 901              		.loc 1 340 0
 902 004a FFF7FEFF 		bl	split
 903              	.LVL102:
 341:src/sysutil.c ****   split(&aBuf[13], &aDtg->bHour, 1);
 904              		.loc 1 341 0
 905 004e 04F10D00 		add	r0, r4, #13
 906 0052 291D     		adds	r1, r5, #4
 907 0054 0122     		movs	r2, #1
 908 0056 FFF7FEFF 		bl	split
 909              	.LVL103:
 342:src/sysutil.c ****   aBuf[15] = ':';
 910              		.loc 1 342 0
 911 005a 3A23     		movs	r3, #58
 343:src/sysutil.c ****   split(&aBuf[16], &aDtg->bMinute, 1);
 912              		.loc 1 343 0
 913 005c 04F11000 		add	r0, r4, #16
 342:src/sysutil.c ****   aBuf[15] = ':';
 914              		.loc 1 342 0
 915 0060 E373     		strb	r3, [r4, #15]
 916              		.loc 1 343 0
 917 0062 691D     		adds	r1, r5, #5
 918 0064 0122     		movs	r2, #1
 919 0066 FFF7FEFF 		bl	split
 920              	.LVL104:
 344:src/sysutil.c ****   if (!aLongYear)
 921              		.loc 1 344 0
 922 006a 3FB9     		cbnz	r7, .L44
 345:src/sysutil.c ****     memmove(&aBuf[8],&aBuf[10], 8);
 923              		.loc 1 345 0
 924 006c 3046     		mov	r0, r6
 925 006e 04F10A01 		add	r1, r4, #10
 346:src/sysutil.c **** }
 926              		.loc 1 346 0
 927 0072 BDE8F840 		pop	{r3, r4, r5, r6, r7, lr}
 928              		.cfi_remember_state
 929              		.cfi_restore 14
 930              		.cfi_restore 7
 931              		.cfi_restore 6
 932              		.cfi_restore 5
 933              		.cfi_restore 4
 934              		.cfi_restore 3
 935              		.cfi_def_cfa_offset 0
ARM GAS  C:\Users\AHMED~1.ELE\AppData\Local\Temp\ccGujCBB.s 			page 24


 936              	.LVL105:
 345:src/sysutil.c ****     memmove(&aBuf[8],&aBuf[10], 8);
 937              		.loc 1 345 0
 938 0076 0822     		movs	r2, #8
 939 0078 FFF7FEBF 		b	memmove
 940              	.LVL106:
 941              	.L44:
 942              		.cfi_restore_state
 943 007c F8BD     		pop	{r3, r4, r5, r6, r7, pc}
 944              	.LVL107:
 945              	.L48:
 946 007e 00BF     		.align	2
 947              	.L47:
 948 0080 00000000 		.word	.LANCHOR0
 949              		.cfi_endproc
 950              	.LFE14:
 951              		.size	ConvDateTime, .-ConvDateTime
 952              		.section	.text.SetDTG,"ax",%progbits
 953              		.align	1
 954              		.global	SetDTG
 955              		.thumb
 956              		.thumb_func
 957              		.type	SetDTG, %function
 958              	SetDTG:
 959              	.LFB15:
 347:src/sysutil.c **** //*****************************************************************************
 348:src/sysutil.c **** //  Function        : SetDTG
 349:src/sysutil.c **** //  Description     : Sync RTC with input date time.
 350:src/sysutil.c **** //  Input           : aDataTime;   // pointer to 6 byte date_time
 351:src/sysutil.c **** //                                 // in bcd YYMMDDHHMMSS
 352:src/sysutil.c **** //  Return          : System Year BCD value;
 353:src/sysutil.c **** //  Note            : Year is adjust when necessary.
 354:src/sysutil.c **** //  Globals Changed : N/A
 355:src/sysutil.c **** //*****************************************************************************
 356:src/sysutil.c **** BYTE SetDTG(BYTE *aDateTime)
 357:src/sysutil.c **** {
 960              		.loc 1 357 0
 961              		.cfi_startproc
 962              		@ args = 0, pretend = 0, frame = 16
 963              		@ frame_needed = 0, uses_anonymous_args = 0
 964              	.LVL108:
 965 0000 1FB5     		push	{r0, r1, r2, r3, r4, lr}
 966              		.cfi_def_cfa_offset 24
 967              		.cfi_offset 4, -8
 968              		.cfi_offset 14, -4
 969              		.loc 1 357 0
 970 0002 0446     		mov	r4, r0
 358:src/sysutil.c ****   BYTE tmp;
 359:src/sysutil.c ****   struct DATETIME dtg;
 360:src/sysutil.c **** 
 361:src/sysutil.c ****   ReadRTC(&dtg);
 971              		.loc 1 361 0
 972 0004 02A8     		add	r0, sp, #8
 973              	.LVL109:
 974 0006 FFF7FEFF 		bl	ReadRTC
 975              	.LVL110:
 362:src/sysutil.c ****   tmp = 1;
ARM GAS  C:\Users\AHMED~1.ELE\AppData\Local\Temp\ccGujCBB.s 			page 25


 363:src/sysutil.c ****   if ((aDateTime[1] == 0x12) && (dtg.bMonth == 0x01))
 976              		.loc 1 363 0
 977 000a 6278     		ldrb	r2, [r4, #1]	@ zero_extendqisi2
 362:src/sysutil.c ****   tmp = 1;
 978              		.loc 1 362 0
 979 000c 0123     		movs	r3, #1
 980              		.loc 1 363 0
 981 000e 122A     		cmp	r2, #18
 362:src/sysutil.c ****   tmp = 1;
 982              		.loc 1 362 0
 983 0010 8DF80730 		strb	r3, [sp, #7]
 984              		.loc 1 363 0
 985 0014 09D1     		bne	.L50
 986              		.loc 1 363 0 is_stmt 0 discriminator 1
 987 0016 9DF80A20 		ldrb	r2, [sp, #10]	@ zero_extendqisi2
 988 001a 9A42     		cmp	r2, r3
 989 001c 10D1     		bne	.L51
 364:src/sysutil.c ****     bcdsub(aDateTime,&tmp,1);
 990              		.loc 1 364 0 is_stmt 1
 991 001e 2046     		mov	r0, r4
 992 0020 0DF10701 		add	r1, sp, #7
 993 0024 FFF7FEFF 		bl	bcdsub
 994              	.LVL111:
 995 0028 0AE0     		b	.L51
 996              	.L50:
 365:src/sysutil.c ****   else
 366:src/sysutil.c ****     if ((aDateTime[1] == 0x01) && (dtg.bMonth == 0x12))
 997              		.loc 1 366 0
 998 002a 012A     		cmp	r2, #1
 999 002c 08D1     		bne	.L51
 1000              		.loc 1 366 0 is_stmt 0 discriminator 1
 1001 002e 9DF80A30 		ldrb	r3, [sp, #10]	@ zero_extendqisi2
 1002 0032 122B     		cmp	r3, #18
 1003 0034 04D1     		bne	.L51
 367:src/sysutil.c ****       bcdadd(aDateTime,&tmp,1);
 1004              		.loc 1 367 0 is_stmt 1
 1005 0036 2046     		mov	r0, r4
 1006 0038 0DF10701 		add	r1, sp, #7
 1007 003c FFF7FEFF 		bl	bcdadd
 1008              	.LVL112:
 1009              	.L51:
 368:src/sysutil.c ****   memcpy(&dtg.bYear,aDateTime,6);
 1010              		.loc 1 368 0
 1011 0040 2146     		mov	r1, r4
 1012 0042 0622     		movs	r2, #6
 1013 0044 0DF10900 		add	r0, sp, #9
 1014 0048 FFF7FEFF 		bl	memcpy
 1015              	.LVL113:
 369:src/sysutil.c ****   SetRTC(&dtg);
 1016              		.loc 1 369 0
 1017 004c 02A8     		add	r0, sp, #8
 1018 004e FFF7FEFF 		bl	SetRTC
 1019              	.LVL114:
 370:src/sysutil.c **** 
 371:src/sysutil.c ****   return dtg.bYear;
 372:src/sysutil.c **** }
 1020              		.loc 1 372 0
ARM GAS  C:\Users\AHMED~1.ELE\AppData\Local\Temp\ccGujCBB.s 			page 26


 1021 0052 9DF80900 		ldrb	r0, [sp, #9]	@ zero_extendqisi2
 1022 0056 04B0     		add	sp, sp, #16
 1023              		.cfi_def_cfa_offset 8
 1024              		@ sp needed
 1025 0058 10BD     		pop	{r4, pc}
 1026              		.cfi_endproc
 1027              	.LFE15:
 1028              		.size	SetDTG, .-SetDTG
 1029              		.section	.text.FreeRunMark,"ax",%progbits
 1030              		.align	1
 1031              		.global	FreeRunMark
 1032              		.thumb
 1033              		.thumb_func
 1034              		.type	FreeRunMark, %function
 1035              	FreeRunMark:
 1036              	.LFB16:
 373:src/sysutil.c **** //*****************************************************************************
 374:src/sysutil.c **** //  Function        : FreeRunMark
 375:src/sysutil.c **** //  Description     : Get the current free run mark.
 376:src/sysutil.c **** //  Input           : N/A
 377:src/sysutil.c **** //  Return          : current mark.
 378:src/sysutil.c **** //  Note            : //25-07-17 JC ++
 379:src/sysutil.c **** //  Globals Changed : N/A
 380:src/sysutil.c **** //*****************************************************************************
 381:src/sysutil.c **** DWORD FreeRunMark(void)
 382:src/sysutil.c **** {
 1037              		.loc 1 382 0
 1038              		.cfi_startproc
 1039              		@ args = 0, pretend = 0, frame = 0
 1040              		@ frame_needed = 0, uses_anonymous_args = 0
 1041              		@ link register save eliminated.
 383:src/sysutil.c ****   return FreeRunMW();
 1042              		.loc 1 383 0
 1043 0000 40F29F10 		movw	r0, #415
 1044 0004 FFF7FEBF 		b	sys_func0
 1045              	.LVL115:
 1046              		.cfi_endproc
 1047              	.LFE16:
 1048              		.size	FreeRunMark, .-FreeRunMark
 1049              		.section	.text.FreeRunElapsed,"ax",%progbits
 1050              		.align	1
 1051              		.global	FreeRunElapsed
 1052              		.thumb
 1053              		.thumb_func
 1054              		.type	FreeRunElapsed, %function
 1055              	FreeRunElapsed:
 1056              	.LFB17:
 384:src/sysutil.c **** }
 385:src/sysutil.c **** //*****************************************************************************
 386:src/sysutil.c **** //  Function        : FreeRunElapsed
 387:src/sysutil.c **** //  Description     : Calc the Time elapsed in ms start from mark.
 388:src/sysutil.c **** //  Input           : aStartMark.
 389:src/sysutil.c **** //  Return          : time in ms.
 390:src/sysutil.c **** //  Note            : //25-07-17 JC ++
 391:src/sysutil.c **** //  Globals Changed : N/A
 392:src/sysutil.c **** //*****************************************************************************
 393:src/sysutil.c **** DWORD FreeRunElapsed(DWORD aStartMark)
ARM GAS  C:\Users\AHMED~1.ELE\AppData\Local\Temp\ccGujCBB.s 			page 27


 394:src/sysutil.c **** {
 1057              		.loc 1 394 0
 1058              		.cfi_startproc
 1059              		@ args = 0, pretend = 0, frame = 0
 1060              		@ frame_needed = 0, uses_anonymous_args = 0
 1061              	.LVL116:
 1062 0000 10B5     		push	{r4, lr}
 1063              		.cfi_def_cfa_offset 8
 1064              		.cfi_offset 4, -8
 1065              		.cfi_offset 14, -4
 1066              		.loc 1 394 0
 1067 0002 0446     		mov	r4, r0
 395:src/sysutil.c ****   DWORD curr_mark = FreeRunMW();
 1068              		.loc 1 395 0
 1069 0004 40F29F10 		movw	r0, #415
 1070              	.LVL117:
 1071 0008 FFF7FEFF 		bl	sys_func0
 1072              	.LVL118:
 396:src/sysutil.c **** 
 397:src/sysutil.c ****   return ((curr_mark - aStartMark) * 5);   // 5ms per tick.
 398:src/sysutil.c **** }
 1073              		.loc 1 398 0
 1074 000c 0523     		movs	r3, #5
 397:src/sysutil.c **** }
 1075              		.loc 1 397 0
 1076 000e 001B     		subs	r0, r0, r4
 1077              	.LVL119:
 1078              		.loc 1 398 0
 1079 0010 5843     		muls	r0, r3, r0
 1080 0012 10BD     		pop	{r4, pc}
 1081              		.cfi_endproc
 1082              	.LFE17:
 1083              		.size	FreeRunElapsed, .-FreeRunElapsed
 1084              		.section	.text.ShowIp,"ax",%progbits
 1085              		.align	1
 1086              		.global	ShowIp
 1087              		.thumb
 1088              		.thumb_func
 1089              		.type	ShowIp, %function
 1090              	ShowIp:
 1091              	.LFB18:
 399:src/sysutil.c **** //*****************************************************************************
 400:src/sysutil.c **** //  Function        : ShowIp
 401:src/sysutil.c **** //  Description     : Show ip addr.
 402:src/sysutil.c **** //  Input           : aIp;        // pointer to 4 byte ip.
 403:src/sysutil.c **** //                    aPos;       // line pos.
 404:src/sysutil.c **** //                    aReverse;   // TRUE=> reverse on.
 405:src/sysutil.c **** //  Return          : -1;         // Cancel;
 406:src/sysutil.c **** //  Note            : N/A
 407:src/sysutil.c **** //  Globals Changed : N/A
 408:src/sysutil.c **** //*****************************************************************************
 409:src/sysutil.c **** void ShowIp(unsigned char *aIp, int aPos, int aReverse)
 410:src/sysutil.c **** {
 1092              		.loc 1 410 0
 1093              		.cfi_startproc
 1094              		@ args = 0, pretend = 0, frame = 128
 1095              		@ frame_needed = 0, uses_anonymous_args = 0
ARM GAS  C:\Users\AHMED~1.ELE\AppData\Local\Temp\ccGujCBB.s 			page 28


 1096              	.LVL120:
 1097 0000 F0B5     		push	{r4, r5, r6, r7, lr}
 1098              		.cfi_def_cfa_offset 20
 1099              		.cfi_offset 4, -20
 1100              		.cfi_offset 5, -16
 1101              		.cfi_offset 6, -12
 1102              		.cfi_offset 7, -8
 1103              		.cfi_offset 14, -4
 411:src/sysutil.c ****   BYTE buf[128];
 412:src/sysutil.c **** 
 413:src/sysutil.c ****   DispGotoMW(aPos, MW_SPFONT);
 1104              		.loc 1 413 0
 1105 0002 0023     		movs	r3, #0
 410:src/sysutil.c ****   BYTE buf[128];
 1106              		.loc 1 410 0
 1107 0004 A3B0     		sub	sp, sp, #140
 1108              		.cfi_def_cfa_offset 160
 410:src/sysutil.c ****   BYTE buf[128];
 1109              		.loc 1 410 0
 1110 0006 0F46     		mov	r7, r1
 1111 0008 1646     		mov	r6, r2
 1112 000a 0446     		mov	r4, r0
 1113              		.loc 1 413 0
 1114 000c 0093     		str	r3, [sp]
 1115 000e 0F20     		movs	r0, #15
 1116              	.LVL121:
 1117 0010 2421     		movs	r1, #36
 1118              	.LVL122:
 1119 0012 3A46     		mov	r2, r7
 1120              	.LVL123:
 1121 0014 4FF40053 		mov	r3, #8192
 1122 0018 FFF7FEFF 		bl	lib_app_call
 1123              	.LVL124:
 414:src/sysutil.c ****   if (aReverse) DispCtrlMW(MW_REV_ON);
 1124              		.loc 1 414 0
 1125 001c 1EB1     		cbz	r6, .L55
 1126              		.loc 1 414 0 is_stmt 0 discriminator 1
 1127 001e 1620     		movs	r0, #22
 1128 0020 1C21     		movs	r1, #28
 1129 0022 FFF7FEFF 		bl	sys_func1
 1130              	.LVL125:
 1131              	.L55:
 415:src/sysutil.c ****   sprintf(buf, "%3d.%3d.%3d.%3d", aIp[0], aIp[1], aIp[2], aIp[3]);
 1132              		.loc 1 415 0 is_stmt 1
 1133 0026 A178     		ldrb	r1, [r4, #2]	@ zero_extendqisi2
 1134 0028 2278     		ldrb	r2, [r4]	@ zero_extendqisi2
 1135 002a 6378     		ldrb	r3, [r4, #1]	@ zero_extendqisi2
 1136 002c 0091     		str	r1, [sp]
 1137 002e E178     		ldrb	r1, [r4, #3]	@ zero_extendqisi2
 1138 0030 02A8     		add	r0, sp, #8
 1139 0032 0191     		str	r1, [sp, #4]
 1140 0034 1349     		ldr	r1, .L67
 1141 0036 FFF7FEFF 		bl	sprintf
 1142              	.LVL126:
 1143              	.LBB7:
 416:src/sysutil.c ****   DispLineMW(buf, aPos, MW_SPFONT);
 1144              		.loc 1 416 0
ARM GAS  C:\Users\AHMED~1.ELE\AppData\Local\Temp\ccGujCBB.s 			page 29


 1145 003a 02A8     		add	r0, sp, #8
 1146 003c FFF7FEFF 		bl	strlen
 1147              	.LVL127:
 1148 0040 0546     		mov	r5, r0
 1149              	.LVL128:
 1150 0042 691C     		adds	r1, r5, #1
 1151 0044 9220     		movs	r0, #146
 1152              	.LVL129:
 1153 0046 FFF7FEFF 		bl	sys_func1
 1154              	.LVL130:
 1155 004a 0446     		mov	r4, r0
 1156              	.LVL131:
 1157 004c 90B1     		cbz	r0, .L56
 1158              		.loc 1 416 0 is_stmt 0 discriminator 1
 1159 004e 02A9     		add	r1, sp, #8
 1160 0050 2A46     		mov	r2, r5
 1161 0052 FFF7FEFF 		bl	memcpy
 1162              	.LVL132:
 1163 0056 0023     		movs	r3, #0
 1164 0058 2521     		movs	r1, #37
 1165 005a 6355     		strb	r3, [r4, r5]
 1166 005c 4FF40053 		mov	r3, #8192
 1167 0060 0F20     		movs	r0, #15
 1168 0062 0093     		str	r3, [sp]
 1169 0064 2246     		mov	r2, r4
 1170 0066 3B46     		mov	r3, r7
 1171 0068 FFF7FEFF 		bl	lib_app_call
 1172              	.LVL133:
 1173 006c 9420     		movs	r0, #148
 1174 006e 2146     		mov	r1, r4
 1175 0070 FFF7FEFF 		bl	sys_func1
 1176              	.LVL134:
 1177              	.L56:
 1178              	.LBE7:
 417:src/sysutil.c ****   if (aReverse) DispCtrlMW(MW_REV_OFF);
 1179              		.loc 1 417 0 is_stmt 1
 1180 0074 1EB1     		cbz	r6, .L54
 1181              		.loc 1 417 0 is_stmt 0 discriminator 1
 1182 0076 1620     		movs	r0, #22
 1183 0078 1D21     		movs	r1, #29
 1184 007a FFF7FEFF 		bl	sys_func1
 1185              	.LVL135:
 1186              	.L54:
 418:src/sysutil.c **** }
 1187              		.loc 1 418 0 is_stmt 1
 1188 007e 23B0     		add	sp, sp, #140
 1189              		.cfi_def_cfa_offset 20
 1190              		@ sp needed
 1191 0080 F0BD     		pop	{r4, r5, r6, r7, pc}
 1192              	.LVL136:
 1193              	.L68:
 1194 0082 00BF     		.align	2
 1195              	.L67:
 1196 0084 00000000 		.word	.LC0
 1197              		.cfi_endproc
 1198              	.LFE18:
 1199              		.size	ShowIp, .-ShowIp
ARM GAS  C:\Users\AHMED~1.ELE\AppData\Local\Temp\ccGujCBB.s 			page 30


 1200              		.section	.text.EditIp,"ax",%progbits
 1201              		.align	1
 1202              		.global	EditIp
 1203              		.thumb
 1204              		.thumb_func
 1205              		.type	EditIp, %function
 1206              	EditIp:
 1207              	.LFB19:
 419:src/sysutil.c **** //*****************************************************************************
 420:src/sysutil.c **** //  Function        : EditIp
 421:src/sysutil.c **** //  Description     : Edit IP address.
 422:src/sysutil.c **** //  Input           : aip;    // pointer to 4 bytes IP address buffer.
 423:src/sysutil.c **** //                    aPos;   // position to display.
 424:src/sysutil.c **** //  Return          : TRUE;
 425:src/sysutil.c **** //                    FALSE;    // USER CANCEL
 426:src/sysutil.c **** //  Note            : N/A
 427:src/sysutil.c **** //  Globals Changed : N/A
 428:src/sysutil.c **** //*****************************************************************************
 429:src/sysutil.c **** BOOLEAN EditIp(BYTE *aIp, DWORD aPos)
 430:src/sysutil.c **** {
 1208              		.loc 1 430 0
 1209              		.cfi_startproc
 1210              		@ args = 0, pretend = 0, frame = 136
 1211              		@ frame_needed = 0, uses_anonymous_args = 0
 1212              	.LVL137:
 1213 0000 2DE9F043 		push	{r4, r5, r6, r7, r8, r9, lr}
 1214              		.cfi_def_cfa_offset 28
 1215              		.cfi_offset 4, -28
 1216              		.cfi_offset 5, -24
 1217              		.cfi_offset 6, -20
 1218              		.cfi_offset 7, -16
 1219              		.cfi_offset 8, -12
 1220              		.cfi_offset 9, -8
 1221              		.cfi_offset 14, -4
 1222 0004 0746     		mov	r7, r0
 1223 0006 A5B0     		sub	sp, sp, #148
 1224              		.cfi_def_cfa_offset 176
 1225              		.loc 1 430 0
 1226 0008 0E46     		mov	r6, r1
 431:src/sysutil.c ****   DWORD curr_field;
 432:src/sysutil.c ****   DWORD cursor=0;
 433:src/sysutil.c ****   BYTE data[IP_LEN], buf[128];
 434:src/sysutil.c ****   DWORD i;
 435:src/sysutil.c ****   DWORD keyin;
 436:src/sysutil.c **** 
 437:src/sysutil.c ****   memcpy(data,aIp,IP_LEN);
 1227              		.loc 1 437 0
 1228 000a 03A8     		add	r0, sp, #12
 1229              	.LVL138:
 1230 000c 3946     		mov	r1, r7
 1231              	.LVL139:
 1232 000e 0422     		movs	r2, #4
 1233 0010 FFF7FEFF 		bl	memcpy
 1234              	.LVL140:
 432:src/sysutil.c ****   BYTE data[IP_LEN], buf[128];
 1235              		.loc 1 432 0
 1236 0014 0025     		movs	r5, #0
ARM GAS  C:\Users\AHMED~1.ELE\AppData\Local\Temp\ccGujCBB.s 			page 31


 438:src/sysutil.c **** 
 439:src/sysutil.c ****   curr_field=IP_LEN;
 1237              		.loc 1 439 0
 1238 0016 0424     		movs	r4, #4
 1239              	.LVL141:
 1240              	.L70:
 440:src/sysutil.c ****   while (1) {
 441:src/sysutil.c ****     if (curr_field<IP_LEN) {
 1241              		.loc 1 441 0
 1242 0018 042C     		cmp	r4, #4
 1243 001a 3FD0     		beq	.L72
 1244              	.LVL142:
 1245              	.L99:
 442:src/sysutil.c ****       /* Show all data */
 443:src/sysutil.c ****       ShowIp(data, aPos, FALSE);
 1246              		.loc 1 443 0
 1247 001c 03A8     		add	r0, sp, #12
 1248 001e 3146     		mov	r1, r6
 1249 0020 0022     		movs	r2, #0
 1250 0022 FFF7FEFF 		bl	ShowIp
 1251              	.LVL143:
 444:src/sysutil.c ****       /* Show editing field */
 445:src/sysutil.c ****       sprintf(buf, "%-3d", data[curr_field]);
 1252              		.loc 1 445 0
 1253 0026 24AB     		add	r3, sp, #144
 1254 0028 2344     		add	r3, r3, r4
 1255 002a 4149     		ldr	r1, .L103
 1256 002c 13F8842C 		ldrb	r2, [r3, #-132]	@ zero_extendqisi2
 1257 0030 04A8     		add	r0, sp, #16
 1258 0032 FFF7FEFF 		bl	sprintf
 1259              	.LVL144:
 1260              	.LBB8:
 446:src/sysutil.c ****       DispLineMW(buf, aPos+(curr_field*4)+EDITIP_COL, MW_REVERSE|MW_SPFONT);
 1261              		.loc 1 446 0
 1262 0036 04A8     		add	r0, sp, #16
 1263 0038 FFF7FEFF 		bl	strlen
 1264              	.LVL145:
 1265 003c 8146     		mov	r9, r0
 1266              	.LVL146:
 1267 003e 09F10101 		add	r1, r9, #1
 1268 0042 9220     		movs	r0, #146
 1269              	.LVL147:
 1270 0044 FFF7FEFF 		bl	sys_func1
 1271              	.LVL148:
 1272 0048 8046     		mov	r8, r0
 1273 004a A0B1     		cbz	r0, .L73
 1274              		.loc 1 446 0 is_stmt 0 discriminator 1
 1275 004c 04A9     		add	r1, sp, #16
 1276 004e 4A46     		mov	r2, r9
 1277 0050 FFF7FEFF 		bl	memcpy
 1278              	.LVL149:
 1279 0054 0023     		movs	r3, #0
 1280 0056 2521     		movs	r1, #37
 1281 0058 08F80930 		strb	r3, [r8, r9]
 1282 005c 42F21003 		movw	r3, #8208
 1283 0060 0F20     		movs	r0, #15
 1284 0062 0093     		str	r3, [sp]
ARM GAS  C:\Users\AHMED~1.ELE\AppData\Local\Temp\ccGujCBB.s 			page 32


 1285 0064 4246     		mov	r2, r8
 1286 0066 06EB8403 		add	r3, r6, r4, lsl #2
 1287 006a FFF7FEFF 		bl	lib_app_call
 1288              	.LVL150:
 1289 006e 9420     		movs	r0, #148
 1290 0070 4146     		mov	r1, r8
 1291 0072 FFF7FEFF 		bl	sys_func1
 1292              	.LVL151:
 1293              	.L73:
 1294              	.LBE8:
 447:src/sysutil.c ****     }
 448:src/sysutil.c ****     else
 449:src/sysutil.c ****       ShowIp(data,aPos,TRUE);
 450:src/sysutil.c **** 
 451:src/sysutil.c ****     keyin = WaitKey(KBD_TIMEOUT);
 1295              		.loc 1 451 0 is_stmt 1
 1296 0076 42F22830 		movw	r0, #9000
 1297 007a FFF7FEFF 		bl	WaitKey
 1298              	.LVL152:
 452:src/sysutil.c **** 
 453:src/sysutil.c ****     /* Valid numeric key */
 454:src/sysutil.c ****     if ((keyin>=MWKEY_0)&&(keyin<=MWKEY_9)) {
 1299              		.loc 1 454 0
 1300 007e A0F13002 		sub	r2, r0, #48
 1301 0082 092A     		cmp	r2, #9
 1302 0084 10D9     		bls	.L100
 1303              	.LVL153:
 455:src/sysutil.c ****       /* Start edit 1st field at all field selected */
 456:src/sysutil.c ****       if (curr_field>=IP_LEN)
 457:src/sysutil.c ****         curr_field=0;
 458:src/sysutil.c ****       /* Editing digit */
 459:src/sysutil.c ****       if (cursor==0) {
 460:src/sysutil.c ****         data[curr_field]=(BYTE) (keyin-'0');
 461:src/sysutil.c ****         cursor++;
 462:src/sysutil.c ****       }
 463:src/sysutil.c ****       else
 464:src/sysutil.c ****         if (cursor<EDITIP_CURSOR_MAX) {
 465:src/sysutil.c ****           i=data[curr_field]*10+(BYTE) (keyin-'0');
 466:src/sysutil.c ****           if (i>255)
 467:src/sysutil.c ****             i=255;
 468:src/sysutil.c ****           data[curr_field]=(BYTE)i;
 469:src/sysutil.c ****           cursor++;
 470:src/sysutil.c ****         }
 471:src/sysutil.c ****       /* Last digit, auto ENTER */
 472:src/sysutil.c ****       if (cursor==EDITIP_CURSOR_MAX)
 473:src/sysutil.c ****         keyin=MWKEY_ENTER;
 474:src/sysutil.c ****     }
 475:src/sysutil.c **** 
 476:src/sysutil.c ****     /* Other keys */
 477:src/sysutil.c ****     switch (keyin) {
 1304              		.loc 1 477 0
 1305 0086 1128     		cmp	r0, #17
 1306 0088 2BD1     		bne	.L101
 478:src/sysutil.c ****       case MWKEY_ENTER:
 479:src/sysutil.c ****         if (curr_field>=IP_LEN) {
 480:src/sysutil.c ****           memcpy(aIp,data,IP_LEN);
 481:src/sysutil.c ****           ShowIp(data,aPos,FALSE);
ARM GAS  C:\Users\AHMED~1.ELE\AppData\Local\Temp\ccGujCBB.s 			page 33


 482:src/sysutil.c ****           return TRUE;
 483:src/sysutil.c ****         }
 484:src/sysutil.c ****         curr_field++;
 485:src/sysutil.c ****         cursor=0;
 486:src/sysutil.c ****         break;
 487:src/sysutil.c ****       case MWKEY_CLR:
 488:src/sysutil.c ****         if (curr_field >= IP_LEN) {
 489:src/sysutil.c ****           curr_field = 0;
 490:src/sysutil.c ****         }
 491:src/sysutil.c ****         else if ((cursor == 0)&&(curr_field>0))
 492:src/sysutil.c ****           curr_field--;
 493:src/sysutil.c ****         else if (curr_field<IP_LEN) {
 494:src/sysutil.c ****           data[curr_field]=0;
 495:src/sysutil.c ****           cursor=0;
 496:src/sysutil.c ****         }
 497:src/sysutil.c ****         break;
 498:src/sysutil.c ****       case MWKEY_CANCL:
 499:src/sysutil.c ****         if (curr_field<IP_LEN) {
 1307              		.loc 1 499 0
 1308 008a 042C     		cmp	r4, #4
 1309 008c 4CD0     		beq	.L89
 500:src/sysutil.c ****           memcpy(data,aIp,IP_LEN);
 1310              		.loc 1 500 0
 1311 008e 03A8     		add	r0, sp, #12
 1312              	.LVL154:
 1313 0090 3946     		mov	r1, r7
 1314 0092 0422     		movs	r2, #4
 1315              	.LVL155:
 1316 0094 FFF7FEFF 		bl	memcpy
 1317              	.LVL156:
 501:src/sysutil.c ****           curr_field=IP_LEN;
 502:src/sysutil.c ****           cursor=0;
 1318              		.loc 1 502 0
 1319 0098 0025     		movs	r5, #0
 501:src/sysutil.c ****           curr_field=IP_LEN;
 1320              		.loc 1 501 0
 1321 009a 0424     		movs	r4, #4
 1322              	.LVL157:
 1323              	.L72:
 449:src/sysutil.c **** 
 1324              		.loc 1 449 0
 1325 009c 03A8     		add	r0, sp, #12
 1326 009e 3146     		mov	r1, r6
 1327 00a0 0122     		movs	r2, #1
 1328 00a2 FFF7FEFF 		bl	ShowIp
 1329              	.LVL158:
 1330 00a6 E6E7     		b	.L73
 1331              	.LVL159:
 1332              	.L100:
 457:src/sysutil.c ****       /* Editing digit */
 1333              		.loc 1 457 0
 1334 00a8 042C     		cmp	r4, #4
 1335 00aa 08BF     		it	eq
 1336 00ac 0024     		moveq	r4, #0
 1337              	.LVL160:
 459:src/sysutil.c ****         data[curr_field]=(BYTE) (keyin-'0');
 1338              		.loc 1 459 0
ARM GAS  C:\Users\AHMED~1.ELE\AppData\Local\Temp\ccGujCBB.s 			page 34


 1339 00ae 2DB9     		cbnz	r5, .L76
 460:src/sysutil.c ****         cursor++;
 1340              		.loc 1 460 0
 1341 00b0 24AB     		add	r3, sp, #144
 1342 00b2 2344     		add	r3, r3, r4
 461:src/sysutil.c ****       }
 1343              		.loc 1 461 0
 1344 00b4 0125     		movs	r5, #1
 1345              	.LVL161:
 460:src/sysutil.c ****         cursor++;
 1346              		.loc 1 460 0
 1347 00b6 03F8842C 		strb	r2, [r3, #-132]
 1348              	.LVL162:
 1349 00ba ADE7     		b	.L70
 1350              	.LVL163:
 1351              	.L76:
 464:src/sysutil.c ****           i=data[curr_field]*10+(BYTE) (keyin-'0');
 1352              		.loc 1 464 0
 1353 00bc 022D     		cmp	r5, #2
 1354 00be 0DD8     		bhi	.L78
 465:src/sysutil.c ****           if (i>255)
 1355              		.loc 1 465 0
 1356 00c0 24AB     		add	r3, sp, #144
 1357 00c2 1919     		adds	r1, r3, r4
 1358 00c4 D3B2     		uxtb	r3, r2
 1359 00c6 11F8840C 		ldrb	r0, [r1, #-132]	@ zero_extendqisi2
 1360              	.LVL164:
 1361 00ca 0A22     		movs	r2, #10
 1362              	.LVL165:
 469:src/sysutil.c ****         }
 1363              		.loc 1 469 0
 1364 00cc 0135     		adds	r5, r5, #1
 1365              	.LVL166:
 465:src/sysutil.c ****           if (i>255)
 1366              		.loc 1 465 0
 1367 00ce 12FB0033 		smlabb	r3, r2, r0, r3
 1368              	.LVL167:
 1369 00d2 FF2B     		cmp	r3, #255
 1370 00d4 A8BF     		it	ge
 1371 00d6 FF23     		movge	r3, #255
 1372              	.LVL168:
 468:src/sysutil.c ****           cursor++;
 1373              		.loc 1 468 0
 1374 00d8 01F8843C 		strb	r3, [r1, #-132]
 1375              	.LVL169:
 1376              	.L78:
 472:src/sysutil.c ****         keyin=MWKEY_ENTER;
 1377              		.loc 1 472 0
 1378 00dc 032D     		cmp	r5, #3
 1379 00de 12D0     		beq	.L84
 1380 00e0 9AE7     		b	.L70
 1381              	.LVL170:
 1382              	.L101:
 477:src/sysutil.c ****       case MWKEY_ENTER:
 1383              		.loc 1 477 0
 1384 00e2 1228     		cmp	r0, #18
 1385 00e4 12D0     		beq	.L82
ARM GAS  C:\Users\AHMED~1.ELE\AppData\Local\Temp\ccGujCBB.s 			page 35


 1386 00e6 1028     		cmp	r0, #16
 1387 00e8 96D1     		bne	.L70
 1388              	.LVL171:
 479:src/sysutil.c ****           memcpy(aIp,data,IP_LEN);
 1389              		.loc 1 479 0
 1390 00ea 042C     		cmp	r4, #4
 1391 00ec 0BD1     		bne	.L84
 480:src/sysutil.c ****           ShowIp(data,aPos,FALSE);
 1392              		.loc 1 480 0
 1393 00ee 03A9     		add	r1, sp, #12
 1394 00f0 2246     		mov	r2, r4
 1395 00f2 3846     		mov	r0, r7
 1396 00f4 FFF7FEFF 		bl	memcpy
 1397              	.LVL172:
 481:src/sysutil.c ****           return TRUE;
 1398              		.loc 1 481 0
 1399 00f8 03A8     		add	r0, sp, #12
 1400 00fa 3146     		mov	r1, r6
 1401 00fc 0022     		movs	r2, #0
 1402 00fe FFF7FEFF 		bl	ShowIp
 1403              	.LVL173:
 482:src/sysutil.c ****         }
 1404              		.loc 1 482 0
 1405 0102 0120     		movs	r0, #1
 1406 0104 11E0     		b	.L85
 1407              	.L84:
 1408              	.LVL174:
 484:src/sysutil.c ****         cursor=0;
 1409              		.loc 1 484 0
 1410 0106 0134     		adds	r4, r4, #1
 1411              	.LVL175:
 485:src/sysutil.c ****         break;
 1412              		.loc 1 485 0
 1413 0108 0025     		movs	r5, #0
 486:src/sysutil.c ****       case MWKEY_CLR:
 1414              		.loc 1 486 0
 1415 010a 85E7     		b	.L70
 1416              	.LVL176:
 1417              	.L82:
 488:src/sysutil.c ****           curr_field = 0;
 1418              		.loc 1 488 0
 1419 010c 042C     		cmp	r4, #4
 1420 010e 01D1     		bne	.L102
 489:src/sysutil.c ****         }
 1421              		.loc 1 489 0
 1422 0110 0024     		movs	r4, #0
 1423              	.LVL177:
 1424 0112 83E7     		b	.L99
 1425              	.LVL178:
 1426              	.L102:
 491:src/sysutil.c ****           curr_field--;
 1427              		.loc 1 491 0
 1428 0114 15B9     		cbnz	r5, .L86
 491:src/sysutil.c ****           curr_field--;
 1429              		.loc 1 491 0 is_stmt 0 discriminator 1
 1430 0116 0CB1     		cbz	r4, .L86
 492:src/sysutil.c ****         else if (curr_field<IP_LEN) {
ARM GAS  C:\Users\AHMED~1.ELE\AppData\Local\Temp\ccGujCBB.s 			page 36


 1431              		.loc 1 492 0 is_stmt 1
 1432 0118 013C     		subs	r4, r4, #1
 1433              	.LVL179:
 1434 011a 7DE7     		b	.L70
 1435              	.L86:
 494:src/sysutil.c ****           cursor=0;
 1436              		.loc 1 494 0
 1437 011c 24AB     		add	r3, sp, #144
 1438 011e 0025     		movs	r5, #0
 1439              	.LVL180:
 1440 0120 2344     		add	r3, r3, r4
 1441 0122 03F8845C 		strb	r5, [r3, #-132]
 1442              	.LVL181:
 1443 0126 77E7     		b	.L70
 1444              	.LVL182:
 1445              	.L89:
 503:src/sysutil.c ****         }
 504:src/sysutil.c ****         else
 505:src/sysutil.c ****           return FALSE;
 1446              		.loc 1 505 0
 1447 0128 0020     		movs	r0, #0
 1448              	.LVL183:
 1449              	.L85:
 506:src/sysutil.c ****         break;
 507:src/sysutil.c ****     }
 508:src/sysutil.c ****   }  // while
 509:src/sysutil.c **** }
 1450              		.loc 1 509 0
 1451 012a 25B0     		add	sp, sp, #148
 1452              		.cfi_def_cfa_offset 28
 1453              		@ sp needed
 1454 012c BDE8F083 		pop	{r4, r5, r6, r7, r8, r9, pc}
 1455              	.LVL184:
 1456              	.L104:
 1457              		.align	2
 1458              	.L103:
 1459 0130 10000000 		.word	.LC1
 1460              		.cfi_endproc
 1461              	.LFE19:
 1462              		.size	EditIp, .-EditIp
 1463              		.section	.text.EditPort,"ax",%progbits
 1464              		.align	1
 1465              		.global	EditPort
 1466              		.thumb
 1467              		.thumb_func
 1468              		.type	EditPort, %function
 1469              	EditPort:
 1470              	.LFB20:
 510:src/sysutil.c **** //*****************************************************************************
 511:src/sysutil.c **** //  Function        : EditPort
 512:src/sysutil.c **** //  Description     : Edit port number.
 513:src/sysutil.c **** //  Input           : port;     // pointer to port number buffer
 514:src/sysutil.c **** //                    aRow;     // Row number to display.
 515:src/sysutil.c **** //  Return          : TRUE;
 516:src/sysutil.c **** //                    FALSE;    // USER CANCEL
 517:src/sysutil.c **** //  Note            : N/A
 518:src/sysutil.c **** //  Globals Changed : N/A
ARM GAS  C:\Users\AHMED~1.ELE\AppData\Local\Temp\ccGujCBB.s 			page 37


 519:src/sysutil.c **** //*****************************************************************************
 520:src/sysutil.c **** BOOLEAN EditPort(DWORD *aPort, DWORD aPos)
 521:src/sysutil.c **** {
 1471              		.loc 1 521 0
 1472              		.cfi_startproc
 1473              		@ args = 0, pretend = 0, frame = 32
 1474              		@ frame_needed = 0, uses_anonymous_args = 0
 1475              	.LVL185:
 1476 0000 70B5     		push	{r4, r5, r6, lr}
 1477              		.cfi_def_cfa_offset 16
 1478              		.cfi_offset 4, -16
 1479              		.cfi_offset 5, -12
 1480              		.cfi_offset 6, -8
 1481              		.cfi_offset 14, -4
 1482 0002 0646     		mov	r6, r0
 1483 0004 88B0     		sub	sp, sp, #32
 1484              		.cfi_def_cfa_offset 48
 522:src/sysutil.c ****   BYTE tmp[32];
 523:src/sysutil.c **** 
 524:src/sysutil.c ****   sprintf ((char *)&tmp[1], "%d", *aPort);
 1485              		.loc 1 524 0
 1486 0006 0DF10104 		add	r4, sp, #1
 1487 000a 3268     		ldr	r2, [r6]
 521:src/sysutil.c ****   BYTE tmp[32];
 1488              		.loc 1 521 0
 1489 000c 0D46     		mov	r5, r1
 1490              		.loc 1 524 0
 1491 000e 2046     		mov	r0, r4
 1492              	.LVL186:
 1493 0010 0F49     		ldr	r1, .L110
 1494              	.LVL187:
 1495 0012 FFF7FEFF 		bl	sprintf
 1496              	.LVL188:
 525:src/sysutil.c ****   tmp[0] = strlen(&tmp[1]);
 1497              		.loc 1 525 0
 1498 0016 2046     		mov	r0, r4
 1499 0018 FFF7FEFF 		bl	strlen
 1500              	.LVL189:
 526:src/sysutil.c ****   if (!GetKbd(ECHO+NUMERIC_INPUT+MW_SPFONT+aPos, IMAX(5), tmp))
 1501              		.loc 1 526 0
 1502 001c 0521     		movs	r1, #5
 1503 001e 6A46     		mov	r2, sp
 525:src/sysutil.c ****   tmp[0] = strlen(&tmp[1]);
 1504              		.loc 1 525 0
 1505 0020 8DF80000 		strb	r0, [sp]
 1506              		.loc 1 526 0
 1507 0024 05F50010 		add	r0, r5, #2097152
 1508 0028 00F50050 		add	r0, r0, #8192
 1509 002c FFF7FEFF 		bl	GetKbd
 1510              	.LVL190:
 1511 0030 58B1     		cbz	r0, .L106
 527:src/sysutil.c ****     return FALSE;
 528:src/sysutil.c ****   tmp[tmp[0]+1] = 0;
 1512              		.loc 1 528 0
 1513 0032 9DF80030 		ldrb	r3, [sp]	@ zero_extendqisi2
 1514 0036 08AA     		add	r2, sp, #32
 1515 0038 1344     		add	r3, r3, r2
ARM GAS  C:\Users\AHMED~1.ELE\AppData\Local\Temp\ccGujCBB.s 			page 38


 1516 003a 0022     		movs	r2, #0
 529:src/sysutil.c ****   *aPort = atoi ((char *)&tmp[1]);
 1517              		.loc 1 529 0
 1518 003c 2046     		mov	r0, r4
 528:src/sysutil.c ****   *aPort = atoi ((char *)&tmp[1]);
 1519              		.loc 1 528 0
 1520 003e 03F81F2C 		strb	r2, [r3, #-31]
 1521              		.loc 1 529 0
 1522 0042 FFF7FEFF 		bl	atoi
 1523              	.LVL191:
 1524 0046 3060     		str	r0, [r6]
 530:src/sysutil.c ****   return TRUE;
 1525              		.loc 1 530 0
 1526 0048 0120     		movs	r0, #1
 1527              	.L106:
 531:src/sysutil.c **** }
 1528              		.loc 1 531 0
 1529 004a 08B0     		add	sp, sp, #32
 1530              		.cfi_def_cfa_offset 16
 1531              		@ sp needed
 1532 004c 70BD     		pop	{r4, r5, r6, pc}
 1533              	.LVL192:
 1534              	.L111:
 1535 004e 00BF     		.align	2
 1536              	.L110:
 1537 0050 15000000 		.word	.LC2
 1538              		.cfi_endproc
 1539              	.LFE20:
 1540              		.size	EditPort, .-EditPort
 1541              		.section	.text.CheckPointerAddr,"ax",%progbits
 1542              		.align	1
 1543              		.global	CheckPointerAddr
 1544              		.thumb
 1545              		.thumb_func
 1546              		.type	CheckPointerAddr, %function
 1547              	CheckPointerAddr:
 1548              	.LFB21:
 532:src/sysutil.c **** //*****************************************************************************
 533:src/sysutil.c **** //  Function        : CheckPointerAddr
 534:src/sysutil.c **** //  Description     : Check whether pointer is syster pointer (stack or malloc)
 535:src/sysutil.c **** //                    or not
 536:src/sysutil.c **** //  Input           : aPtr
 537:src/sysutil.c **** //  Return          : N/A
 538:src/sysutil.c **** //  Note            : N/A
 539:src/sysutil.c **** //  Globals Changed : N/A
 540:src/sysutil.c **** //*****************************************************************************
 541:src/sysutil.c **** void CheckPointerAddr(void *aPtr)
 542:src/sysutil.c **** {
 1549              		.loc 1 542 0
 1550              		.cfi_startproc
 1551              		@ args = 0, pretend = 0, frame = 0
 1552              		@ frame_needed = 0, uses_anonymous_args = 0
 1553              	.LVL193:
 1554 0000 13B5     		push	{r0, r1, r4, lr}
 1555              		.cfi_def_cfa_offset 16
 1556              		.cfi_offset 4, -8
 1557              		.cfi_offset 14, -4
ARM GAS  C:\Users\AHMED~1.ELE\AppData\Local\Temp\ccGujCBB.s 			page 39


 543:src/sysutil.c ****   #ifndef WIN32
 544:src/sysutil.c ****   DWORD address;
 545:src/sysutil.c **** 
 546:src/sysutil.c ****   address = (DWORD)aPtr;
 547:src/sysutil.c ****   if ((address < FLASH_START_ADDRESS) || (address > SRAM_END_ADDRESS))
 1558              		.loc 1 547 0
 1559 0002 A0F58010 		sub	r0, r0, #1048576
 1560              	.LVL194:
 1561 0006 B0F5001F 		cmp	r0, #2097152
 1562 000a 28D2     		bcs	.L112
 1563              	.LVL195:
 1564              	.LBB9:
 548:src/sysutil.c ****     return;
 549:src/sysutil.c **** 
 550:src/sysutil.c ****   DispLineMW("Not A Valid Pointer!!", MW_MAX_LINE, MW_REVERSE|MW_CENTER|MW_SPFONT);
 1565              		.loc 1 550 0
 1566 000c 9220     		movs	r0, #146
 1567              	.LVL196:
 1568 000e 1621     		movs	r1, #22
 1569 0010 FFF7FEFF 		bl	sys_func1
 1570              	.LVL197:
 1571 0014 0446     		mov	r4, r0
 1572 0016 98B1     		cbz	r0, .L114
 1573              		.loc 1 550 0 is_stmt 0 discriminator 1
 1574 0018 1249     		ldr	r1, .L121
 1575 001a 1522     		movs	r2, #21
 1576 001c FFF7FEFF 		bl	memcpy
 1577              	.LVL198:
 1578 0020 0023     		movs	r3, #0
 1579 0022 2521     		movs	r1, #37
 1580 0024 6375     		strb	r3, [r4, #21]
 1581 0026 42F21203 		movw	r3, #8210
 1582 002a 0F20     		movs	r0, #15
 1583 002c 0093     		str	r3, [sp]
 1584 002e 2246     		mov	r2, r4
 1585 0030 4FF41063 		mov	r3, #2304
 1586 0034 FFF7FEFF 		bl	lib_app_call
 1587              	.LVL199:
 1588 0038 9420     		movs	r0, #148
 1589 003a 2146     		mov	r1, r4
 1590 003c FFF7FEFF 		bl	sys_func1
 1591              	.LVL200:
 1592              	.L114:
 1593              	.LBE9:
 551:src/sysutil.c ****   LongBeep();
 1594              		.loc 1 551 0 is_stmt 1
 1595 0040 FFF7FEFF 		bl	LongBeep
 1596              	.LVL201:
 1597              	.L115:
 552:src/sysutil.c ****   while (GetCharMW() == 0) SleepMW();
 1598              		.loc 1 552 0 discriminator 1
 1599 0044 0022     		movs	r2, #0
 1600 0046 0F20     		movs	r0, #15
 1601 0048 0092     		str	r2, [sp]
 1602 004a 1621     		movs	r1, #22
 1603 004c 1346     		mov	r3, r2
 1604 004e FFF7FEFF 		bl	lib_app_call
ARM GAS  C:\Users\AHMED~1.ELE\AppData\Local\Temp\ccGujCBB.s 			page 40


 1605              	.LVL202:
 1606 0052 20B9     		cbnz	r0, .L112
 1607              		.loc 1 552 0 is_stmt 0 discriminator 2
 1608 0054 4FF4CE70 		mov	r0, #412
 1609 0058 FFF7FEFF 		bl	sys_func0
 1610              	.LVL203:
 1611 005c F2E7     		b	.L115
 1612              	.LVL204:
 1613              	.L112:
 553:src/sysutil.c ****   #endif
 554:src/sysutil.c **** }
 1614              		.loc 1 554 0 is_stmt 1
 1615 005e 02B0     		add	sp, sp, #8
 1616              		.cfi_def_cfa_offset 8
 1617              		@ sp needed
 1618 0060 10BD     		pop	{r4, pc}
 1619              	.L122:
 1620 0062 00BF     		.align	2
 1621              	.L121:
 1622 0064 18000000 		.word	.LC3
 1623              		.cfi_endproc
 1624              	.LFE21:
 1625              		.size	CheckPointerAddr, .-CheckPointerAddr
 1626              		.section	.text.MemFatalErr,"ax",%progbits
 1627              		.align	1
 1628              		.global	MemFatalErr
 1629              		.thumb
 1630              		.thumb_func
 1631              		.type	MemFatalErr, %function
 1632              	MemFatalErr:
 1633              	.LFB22:
 555:src/sysutil.c **** //*****************************************************************************
 556:src/sysutil.c **** //  Function        : MemFatalErr
 557:src/sysutil.c **** //  Description     : Check for valid memory allocated pointer.
 558:src/sysutil.c **** //                    Err: Prompt Error Message & Reset.
 559:src/sysutil.c **** //  Input           : aMemPtr;          // pointer to allocated memory
 560:src/sysutil.c **** //  Return          : N/A
 561:src/sysutil.c **** //  Note            : N/A
 562:src/sysutil.c **** //  Globals Changed : N/A
 563:src/sysutil.c **** //*****************************************************************************
 564:src/sysutil.c **** void MemFatalErr(void *aMemPtr)
 565:src/sysutil.c **** {
 1634              		.loc 1 565 0
 1635              		.cfi_startproc
 1636              		@ args = 0, pretend = 0, frame = 0
 1637              		@ frame_needed = 0, uses_anonymous_args = 0
 1638              	.LVL205:
 1639 0000 37B5     		push	{r0, r1, r2, r4, r5, lr}
 1640              		.cfi_def_cfa_offset 24
 1641              		.cfi_offset 4, -12
 1642              		.cfi_offset 5, -8
 1643              		.cfi_offset 14, -4
 566:src/sysutil.c ****   if (aMemPtr == NULL) {
 1644              		.loc 1 566 0
 1645 0002 0546     		mov	r5, r0
 1646 0004 70BB     		cbnz	r0, .L123
 1647              	.LVL206:
ARM GAS  C:\Users\AHMED~1.ELE\AppData\Local\Temp\ccGujCBB.s 			page 41


 1648              	.LBB10:
 567:src/sysutil.c ****     DispLineMW("Memory Error !", MW_LINE3, MW_CLRDISP|MW_BIGFONT);
 1649              		.loc 1 567 0
 1650 0006 9220     		movs	r0, #146
 1651              	.LVL207:
 1652 0008 0F21     		movs	r1, #15
 1653 000a FFF7FEFF 		bl	sys_func1
 1654              	.LVL208:
 1655 000e 0446     		mov	r4, r0
 1656 0010 90B1     		cbz	r0, .L125
 1657              		.loc 1 567 0 is_stmt 0 discriminator 1
 1658 0012 1549     		ldr	r1, .L132
 1659 0014 0E22     		movs	r2, #14
 1660 0016 FFF7FEFF 		bl	memcpy
 1661              	.LVL209:
 1662 001a 4FF48453 		mov	r3, #4224
 1663 001e A573     		strb	r5, [r4, #14]
 1664 0020 2521     		movs	r1, #37
 1665 0022 0093     		str	r3, [sp]
 1666 0024 0F20     		movs	r0, #15
 1667 0026 2246     		mov	r2, r4
 1668 0028 4FF44073 		mov	r3, #768
 1669 002c FFF7FEFF 		bl	lib_app_call
 1670              	.LVL210:
 1671 0030 9420     		movs	r0, #148
 1672 0032 2146     		mov	r1, r4
 1673 0034 FFF7FEFF 		bl	sys_func1
 1674              	.LVL211:
 1675              	.L125:
 1676              	.LBE10:
 568:src/sysutil.c ****     LongBeep();
 1677              		.loc 1 568 0 is_stmt 1
 1678 0038 FFF7FEFF 		bl	LongBeep
 1679              	.LVL212:
 1680              	.L126:
 569:src/sysutil.c ****     while (GetCharMW() == 0) SleepMW();
 1681              		.loc 1 569 0 discriminator 1
 1682 003c 0022     		movs	r2, #0
 1683 003e 0F20     		movs	r0, #15
 1684 0040 0092     		str	r2, [sp]
 1685 0042 1621     		movs	r1, #22
 1686 0044 1346     		mov	r3, r2
 1687 0046 FFF7FEFF 		bl	lib_app_call
 1688              	.LVL213:
 1689 004a 20B9     		cbnz	r0, .L131
 1690              		.loc 1 569 0 is_stmt 0 discriminator 2
 1691 004c 4FF4CE70 		mov	r0, #412
 1692 0050 FFF7FEFF 		bl	sys_func0
 1693              	.LVL214:
 1694 0054 F2E7     		b	.L126
 1695              	.L131:
 570:src/sysutil.c ****     ResetMW();
 1696              		.loc 1 570 0 is_stmt 1
 1697 0056 4FF4CF70 		mov	r0, #414
 571:src/sysutil.c ****   }
 572:src/sysutil.c **** }
 1698              		.loc 1 572 0
ARM GAS  C:\Users\AHMED~1.ELE\AppData\Local\Temp\ccGujCBB.s 			page 42


 1699 005a 03B0     		add	sp, sp, #12
 1700              		.cfi_remember_state
 1701              		.cfi_def_cfa_offset 12
 1702              		@ sp needed
 1703 005c BDE83040 		pop	{r4, r5, lr}
 1704              		.cfi_restore 14
 1705              		.cfi_restore 5
 1706              		.cfi_restore 4
 1707              		.cfi_def_cfa_offset 0
 1708              	.LVL215:
 570:src/sysutil.c ****     ResetMW();
 1709              		.loc 1 570 0
 1710 0060 FFF7FEBF 		b	sys_func0
 1711              	.LVL216:
 1712              	.L123:
 1713              		.cfi_restore_state
 1714              		.loc 1 572 0
 1715 0064 03B0     		add	sp, sp, #12
 1716              		.cfi_def_cfa_offset 12
 1717              		@ sp needed
 1718 0066 30BD     		pop	{r4, r5, pc}
 1719              	.L133:
 1720              		.align	2
 1721              	.L132:
 1722 0068 2E000000 		.word	.LC4
 1723              		.cfi_endproc
 1724              	.LFE22:
 1725              		.size	MemFatalErr, .-MemFatalErr
 1726              		.section	.text.FreeRunSec,"ax",%progbits
 1727              		.align	1
 1728              		.global	FreeRunSec
 1729              		.thumb
 1730              		.thumb_func
 1731              		.type	FreeRunSec, %function
 1732              	FreeRunSec:
 1733              	.LFB23:
 573:src/sysutil.c **** //*****************************************************************************
 574:src/sysutil.c **** //  Function        : FreeRunSec
 575:src/sysutil.c **** //  Description     : Return Number of seconds since 1 Jan 1970.
 576:src/sysutil.c **** //  Input           : N/A
 577:src/sysutil.c **** //  Return          : N/A
 578:src/sysutil.c **** //  Note            : N/A
 579:src/sysutil.c **** //  Globals Changed : N/A
 580:src/sysutil.c **** //*****************************************************************************
 581:src/sysutil.c **** DWORD FreeRunSec(void)
 582:src/sysutil.c **** {
 1734              		.loc 1 582 0
 1735              		.cfi_startproc
 1736              		@ args = 0, pretend = 0, frame = 16
 1737              		@ frame_needed = 0, uses_anonymous_args = 0
 1738 0000 1FB5     		push	{r0, r1, r2, r3, r4, lr}
 1739              		.cfi_def_cfa_offset 24
 1740              		.cfi_offset 14, -4
 583:src/sysutil.c ****   BYTE rtc[15];
 584:src/sysutil.c **** 
 585:src/sysutil.c ****   RtcGetMW(rtc);
 1741              		.loc 1 585 0
ARM GAS  C:\Users\AHMED~1.ELE\AppData\Local\Temp\ccGujCBB.s 			page 43


 1742 0002 1220     		movs	r0, #18
 1743 0004 6946     		mov	r1, sp
 1744 0006 FFF7FEFF 		bl	sys_func1
 1745              	.LVL217:
 586:src/sysutil.c ****   return RTC2UNIX(rtc);
 1746              		.loc 1 586 0
 1747 000a 6846     		mov	r0, sp
 1748 000c FFF7FEFF 		bl	RTC2UNIX
 1749              	.LVL218:
 587:src/sysutil.c **** }
 1750              		.loc 1 587 0
 1751 0010 05B0     		add	sp, sp, #20
 1752              		.cfi_def_cfa_offset 4
 1753              		@ sp needed
 1754 0012 5DF804FB 		ldr	pc, [sp], #4
 1755              		.cfi_endproc
 1756              	.LFE23:
 1757              		.size	FreeRunSec, .-FreeRunSec
 1758              		.section	.text.ShowTxRxLed,"ax",%progbits
 1759              		.align	1
 1760              		.global	ShowTxRxLed
 1761              		.thumb
 1762              		.thumb_func
 1763              		.type	ShowTxRxLed, %function
 1764              	ShowTxRxLed:
 1765              	.LFB24:
 588:src/sysutil.c **** //*****************************************************************************
 589:src/sysutil.c **** //  Function        : ShowTxRxLed
 590:src/sysutil.c **** //  Description     : Show TX/RX Led indicator.
 591:src/sysutil.c **** //  Input           : N/A
 592:src/sysutil.c **** //  Return          : N/A
 593:src/sysutil.c **** //  Note            : N/A
 594:src/sysutil.c **** //  Globals Changed : N/A
 595:src/sysutil.c **** //*****************************************************************************
 596:src/sysutil.c **** void ShowTxRxLed(void)
 597:src/sysutil.c **** {
 1766              		.loc 1 597 0
 1767              		.cfi_startproc
 1768              		@ args = 0, pretend = 0, frame = 0
 1769              		@ frame_needed = 0, uses_anonymous_args = 0
 1770 0000 07B5     		push	{r0, r1, r2, lr}
 1771              		.cfi_def_cfa_offset 16
 1772              		.cfi_offset 14, -4
 598:src/sysutil.c ****   #define ALL_ICON                  (DWORD)0x00FFFFC0
 599:src/sysutil.c ****   static DWORD ostatus;
 600:src/sysutil.c ****   DWORD status, tmp;
 601:src/sysutil.c ****   int i;
 602:src/sysutil.c **** 
 603:src/sysutil.c ****   if (GetLcdTypeMW()==MW_DISP_COLOR) {
 1773              		.loc 1 603 0
 1774 0002 0022     		movs	r2, #0
 1775 0004 0F20     		movs	r0, #15
 1776 0006 0092     		str	r2, [sp]
 1777 0008 2921     		movs	r1, #41
 1778 000a 1346     		mov	r3, r2
 1779 000c FFF7FEFF 		bl	lib_app_call
 1780              	.LVL219:
ARM GAS  C:\Users\AHMED~1.ELE\AppData\Local\Temp\ccGujCBB.s 			page 44


 1781 0010 0128     		cmp	r0, #1
 1782 0012 11D0     		beq	.L135
 604:src/sysutil.c ****     return;
 605:src/sysutil.c ****   }
 606:src/sysutil.c **** 
 607:src/sysutil.c ****   // Show UDP, TCP, USBS, AUX2, AUX1, MDM
 608:src/sysutil.c ****   #ifdef os_pseudo_led_status
 609:src/sysutil.c ****   status = os_pseudo_led_status((DWORD)-1);
 610:src/sysutil.c ****   #elif defined os_led_status
 611:src/sysutil.c ****   status = os_led_status((DWORD)-1);
 1783              		.loc 1 611 0
 1784 0014 4FF0FF31 		mov	r1, #-1
 1785 0018 8720     		movs	r0, #135
 1786 001a FFF7FEFF 		bl	sys_func1
 1787              	.LVL220:
 612:src/sysutil.c ****   #else
 613:src/sysutil.c ****   status = 0;
 614:src/sysutil.c ****   #endif
 615:src/sysutil.c **** 
 616:src/sysutil.c ****   #if (TIRO|PR608)
 617:src/sysutil.c ****   tmp   =  (status & 0x3F);
 618:src/sysutil.c ****   tmp   |= ((status&0x00C00)>>4);
 619:src/sysutil.c ****   tmp   |= ((status&0x3C000)>>6);
 620:src/sysutil.c ****   #else
 621:src/sysutil.c ****   tmp    = ((status >> 20) & 0x03);                 // mdm
 622:src/sysutil.c ****   tmp   |= ((status & 0x0F) << 2);                  // aux2 & aux1
 623:src/sysutil.c ****   tmp   |= ((status & 0x30000)>>10);                // USBS
 624:src/sysutil.c ****   tmp   |= (status & 0x550) ? 0x100 : 0x000;        // TCP TX
 625:src/sysutil.c ****   tmp   |= (status & 0x660) ? 0x200 : 0x000;        // TCP RX
 626:src/sysutil.c ****   tmp   |= (status & 0x5000) ? 0x400 : 0x000;       // UDP TX
 627:src/sysutil.c ****   tmp   |= (status & 0x6000) ? 0x800 : 0x000;       // UDP RX
 628:src/sysutil.c ****   #endif
 629:src/sysutil.c **** 
 630:src/sysutil.c ****   status = 0;
 631:src/sysutil.c ****   for (i = 0; i < 6; i++) {
 632:src/sysutil.c ****     status <<= 3;
 633:src/sysutil.c ****     if (tmp & 0x01)
 634:src/sysutil.c ****       status |= 0x05;
 635:src/sysutil.c ****     if (tmp & 0x02)
 636:src/sysutil.c ****       status |= 0x02;
 637:src/sysutil.c ****     tmp >>= 2;
 638:src/sysutil.c ****   }
 639:src/sysutil.c ****   status <<= 6;
 640:src/sysutil.c ****   //ignore gprs signal and battery
 641:src/sysutil.c ****   ostatus &= ALL_ICON;
 1788              		.loc 1 641 0
 1789 001e 084A     		ldr	r2, .L137
 642:src/sysutil.c ****   status &= ALL_ICON;
 643:src/sysutil.c **** 
 644:src/sysutil.c ****   #ifdef os_disp_icon_set
 645:src/sysutil.c ****   if (status != ostatus) {
 646:src/sysutil.c ****     #if (T800)
 647:src/sysutil.c ****     os_disp_icon_clear(((ostatus>>6)&0x3FFFF), 0);
 648:src/sysutil.c ****     #else
 649:src/sysutil.c ****     os_disp_icon_clear(ostatus);
 650:src/sysutil.c ****     #endif
 651:src/sysutil.c **** 
ARM GAS  C:\Users\AHMED~1.ELE\AppData\Local\Temp\ccGujCBB.s 			page 45


 652:src/sysutil.c ****     ostatus = status;
 653:src/sysutil.c ****     #if (T800)
 654:src/sysutil.c ****     os_disp_icon_set(((status>>6)&0x3FFFF), 0);
 655:src/sysutil.c ****     #else
 656:src/sysutil.c ****     os_disp_icon_set(status);
 657:src/sysutil.c ****     #endif
 658:src/sysutil.c ****   }
 659:src/sysutil.c ****   #endif
 660:src/sysutil.c **** 
 661:src/sysutil.c ****   os_thread_return();
 1790              		.loc 1 661 0
 1791 0020 8020     		movs	r0, #128
 641:src/sysutil.c ****   status &= ALL_ICON;
 1792              		.loc 1 641 0
 1793 0022 1368     		ldr	r3, [r2]
 1794 0024 23F07F43 		bic	r3, r3, #-16777216
 1795 0028 23F03F03 		bic	r3, r3, #63
 1796 002c 1360     		str	r3, [r2]
 662:src/sysutil.c **** }
 1797              		.loc 1 662 0
 1798 002e 03B0     		add	sp, sp, #12
 1799              		.cfi_remember_state
 1800              		.cfi_def_cfa_offset 4
 1801              		@ sp needed
 1802 0030 5DF804EB 		ldr	lr, [sp], #4
 1803              		.cfi_restore 14
 1804              		.cfi_def_cfa_offset 0
 661:src/sysutil.c **** }
 1805              		.loc 1 661 0
 1806 0034 FFF7FEBF 		b	sys_func0
 1807              	.LVL221:
 1808              	.L135:
 1809              		.cfi_restore_state
 1810              		.loc 1 662 0
 1811 0038 03B0     		add	sp, sp, #12
 1812              		.cfi_def_cfa_offset 4
 1813              		@ sp needed
 1814 003a 5DF804FB 		ldr	pc, [sp], #4
 1815              	.L138:
 1816 003e 00BF     		.align	2
 1817              	.L137:
 1818 0040 00000000 		.word	.LANCHOR1
 1819              		.cfi_endproc
 1820              	.LFE24:
 1821              		.size	ShowTxRxLed, .-ShowTxRxLed
 1822              		.section	.text.DebugPoint,"ax",%progbits
 1823              		.align	1
 1824              		.global	DebugPoint
 1825              		.thumb
 1826              		.thumb_func
 1827              		.type	DebugPoint, %function
 1828              	DebugPoint:
 1829              	.LFB25:
 663:src/sysutil.c **** //*****************************************************************************
 664:src/sysutil.c **** //  Function        : DebugPoint
 665:src/sysutil.c **** //  Description     : Display Msg on line 9 and wait for key press.
 666:src/sysutil.c **** //  Input           : aStr;         // pointer to message string.
ARM GAS  C:\Users\AHMED~1.ELE\AppData\Local\Temp\ccGujCBB.s 			page 46


 667:src/sysutil.c **** //  Return          : N/A
 668:src/sysutil.c **** //  Note            : N/A
 669:src/sysutil.c **** //  Globals Changed : N/A
 670:src/sysutil.c **** //*****************************************************************************
 671:src/sysutil.c **** void DebugPoint(char *aStr)
 672:src/sysutil.c **** {
 1830              		.loc 1 672 0
 1831              		.cfi_startproc
 1832              		@ args = 0, pretend = 0, frame = 0
 1833              		@ frame_needed = 0, uses_anonymous_args = 0
 1834              	.LVL222:
 1835 0000 73B5     		push	{r0, r1, r4, r5, r6, lr}
 1836              		.cfi_def_cfa_offset 24
 1837              		.cfi_offset 4, -16
 1838              		.cfi_offset 5, -12
 1839              		.cfi_offset 6, -8
 1840              		.cfi_offset 14, -4
 1841              		.loc 1 672 0
 1842 0002 0646     		mov	r6, r0
 1843              	.LBB11:
 673:src/sysutil.c ****   #if (DEBUG_POINT)
 674:src/sysutil.c ****   DispLineMW(aStr, MW_MAX_LINE, MW_REVERSE|MW_CLREOL|MW_SPFONT);
 1844              		.loc 1 674 0
 1845 0004 FFF7FEFF 		bl	strlen
 1846              	.LVL223:
 1847 0008 0546     		mov	r5, r0
 1848              	.LVL224:
 1849 000a 691C     		adds	r1, r5, #1
 1850 000c 9220     		movs	r0, #146
 1851              	.LVL225:
 1852 000e FFF7FEFF 		bl	sys_func1
 1853              	.LVL226:
 1854 0012 0446     		mov	r4, r0
 1855 0014 98B1     		cbz	r0, .L141
 1856              		.loc 1 674 0 is_stmt 0 discriminator 1
 1857 0016 3146     		mov	r1, r6
 1858 0018 2A46     		mov	r2, r5
 1859 001a FFF7FEFF 		bl	memcpy
 1860              	.LVL227:
 1861 001e 0023     		movs	r3, #0
 1862 0020 2521     		movs	r1, #37
 1863 0022 6355     		strb	r3, [r4, r5]
 1864 0024 42F23003 		movw	r3, #8240
 1865 0028 0F20     		movs	r0, #15
 1866 002a 0093     		str	r3, [sp]
 1867 002c 2246     		mov	r2, r4
 1868 002e 4FF41063 		mov	r3, #2304
 1869 0032 FFF7FEFF 		bl	lib_app_call
 1870              	.LVL228:
 1871 0036 9420     		movs	r0, #148
 1872 0038 2146     		mov	r1, r4
 1873 003a FFF7FEFF 		bl	sys_func1
 1874              	.LVL229:
 1875              	.L141:
 1876              	.LBE11:
 675:src/sysutil.c ****   while (GetCharMW() == 0) SleepMW();
 1877              		.loc 1 675 0 is_stmt 1 discriminator 1
ARM GAS  C:\Users\AHMED~1.ELE\AppData\Local\Temp\ccGujCBB.s 			page 47


 1878 003e 0022     		movs	r2, #0
 1879 0040 0F20     		movs	r0, #15
 1880 0042 0092     		str	r2, [sp]
 1881 0044 1621     		movs	r1, #22
 1882 0046 1346     		mov	r3, r2
 1883 0048 FFF7FEFF 		bl	lib_app_call
 1884              	.LVL230:
 1885 004c 20B9     		cbnz	r0, .L146
 1886              		.loc 1 675 0 is_stmt 0 discriminator 2
 1887 004e 4FF4CE70 		mov	r0, #412
 1888 0052 FFF7FEFF 		bl	sys_func0
 1889              	.LVL231:
 1890 0056 F2E7     		b	.L141
 1891              	.L146:
 676:src/sysutil.c ****   #endif // DEBUG_POINT
 677:src/sysutil.c **** }
 1892              		.loc 1 677 0 is_stmt 1
 1893 0058 02B0     		add	sp, sp, #8
 1894              		.cfi_def_cfa_offset 16
 1895              		@ sp needed
 1896 005a 70BD     		pop	{r4, r5, r6, pc}
 1897              		.cfi_endproc
 1898              	.LFE25:
 1899              		.size	DebugPoint, .-DebugPoint
 1900              		.section	.text.ReadSFile,"ax",%progbits
 1901              		.align	1
 1902              		.global	ReadSFile
 1903              		.thumb
 1904              		.thumb_func
 1905              		.type	ReadSFile, %function
 1906              	ReadSFile:
 1907              	.LFB26:
 678:src/sysutil.c **** //*****************************************************************************
 679:src/sysutil.c **** //  Function        : ReadSFile
 680:src/sysutil.c **** //  Description     : Read from structure data file.
 681:src/sysutil.c **** //  Input           : aFileHandle;      // file handle
 682:src/sysutil.c **** //                    aOffset;          // file offset from beginning
 683:src/sysutil.c **** //                    aBuf;             // data buffer
 684:src/sysutil.c **** //                    aLen;             // len to read.
 685:src/sysutil.c **** //  Return          : TRUE/FALSE;
 686:src/sysutil.c **** //  Note            : N/A
 687:src/sysutil.c **** //  Globals Changed : N/A
 688:src/sysutil.c **** //*****************************************************************************
 689:src/sysutil.c **** BOOLEAN ReadSFile(DWORD aFileHandle, DWORD aOffset, void *aBuf, DWORD aLen)
 690:src/sysutil.c **** {
 1908              		.loc 1 690 0
 1909              		.cfi_startproc
 1910              		@ args = 0, pretend = 0, frame = 0
 1911              		@ frame_needed = 0, uses_anonymous_args = 0
 1912              	.LVL232:
 1913 0000 F7B5     		push	{r0, r1, r2, r4, r5, r6, r7, lr}
 1914              		.cfi_def_cfa_offset 32
 1915              		.cfi_offset 4, -20
 1916              		.cfi_offset 5, -16
 1917              		.cfi_offset 6, -12
 1918              		.cfi_offset 7, -8
 1919              		.cfi_offset 14, -4
ARM GAS  C:\Users\AHMED~1.ELE\AppData\Local\Temp\ccGujCBB.s 			page 48


 1920              		.loc 1 690 0
 1921 0002 1C46     		mov	r4, r3
 691:src/sysutil.c ****   DWORD len;
 692:src/sysutil.c **** 
 693:src/sysutil.c ****   fSeekMW(aFileHandle, aOffset);
 1922              		.loc 1 693 0
 1923 0004 0023     		movs	r3, #0
 1924              	.LVL233:
 690:src/sysutil.c ****   DWORD len;
 1925              		.loc 1 690 0
 1926 0006 0546     		mov	r5, r0
 1927 0008 0F46     		mov	r7, r1
 1928 000a 1646     		mov	r6, r2
 1929              		.loc 1 693 0
 1930 000c 0093     		str	r3, [sp]
 1931 000e 2A46     		mov	r2, r5
 1932              	.LVL234:
 1933 0010 3B46     		mov	r3, r7
 1934 0012 1021     		movs	r1, #16
 1935              	.LVL235:
 1936 0014 0F20     		movs	r0, #15
 1937              	.LVL236:
 1938 0016 FFF7FEFF 		bl	lib_app_call
 1939              	.LVL237:
 694:src/sysutil.c ****   len = fReadMW(aFileHandle, aBuf, aLen);
 1940              		.loc 1 694 0
 1941 001a 3346     		mov	r3, r6
 1942 001c 0094     		str	r4, [sp]
 1943 001e 1121     		movs	r1, #17
 1944 0020 2A46     		mov	r2, r5
 1945 0022 0F20     		movs	r0, #15
 1946 0024 FFF7FEFF 		bl	lib_app_call
 1947              	.LVL238:
 695:src/sysutil.c ****   return (len == aLen) ? TRUE : FALSE;
 696:src/sysutil.c **** }
 1948              		.loc 1 696 0
 1949 0028 031B     		subs	r3, r0, r4
 1950 002a 5842     		rsbs	r0, r3, #0
 1951              	.LVL239:
 1952 002c 5841     		adcs	r0, r0, r3
 1953 002e 03B0     		add	sp, sp, #12
 1954              		.cfi_def_cfa_offset 20
 1955              		@ sp needed
 1956 0030 F0BD     		pop	{r4, r5, r6, r7, pc}
 1957              		.cfi_endproc
 1958              	.LFE26:
 1959              		.size	ReadSFile, .-ReadSFile
 1960              		.section	.text.WriteSFile,"ax",%progbits
 1961              		.align	1
 1962              		.global	WriteSFile
 1963              		.thumb
 1964              		.thumb_func
 1965              		.type	WriteSFile, %function
 1966              	WriteSFile:
 1967              	.LFB27:
 697:src/sysutil.c **** //*****************************************************************************
 698:src/sysutil.c **** //  Function        : WriteSFile
ARM GAS  C:\Users\AHMED~1.ELE\AppData\Local\Temp\ccGujCBB.s 			page 49


 699:src/sysutil.c **** //  Description     : Write to structure data file.
 700:src/sysutil.c **** //  Input           : aFileHandle;      // file handle
 701:src/sysutil.c **** //                    aOffset;          // file offset from beginning
 702:src/sysutil.c **** //                    aBuf;             // data buffer
 703:src/sysutil.c **** //                    aLen;             // len to read.
 704:src/sysutil.c **** //  Return          : TRUE/FALSE;
 705:src/sysutil.c **** //  Note            : N/A
 706:src/sysutil.c **** //  Globals Changed : N/A
 707:src/sysutil.c **** //*****************************************************************************
 708:src/sysutil.c **** BOOLEAN WriteSFile(DWORD aFileHandle, DWORD aOffset, const void *aBuf, DWORD aLen)
 709:src/sysutil.c **** {
 1968              		.loc 1 709 0
 1969              		.cfi_startproc
 1970              		@ args = 0, pretend = 0, frame = 0
 1971              		@ frame_needed = 0, uses_anonymous_args = 0
 1972              	.LVL240:
 1973 0000 F7B5     		push	{r0, r1, r2, r4, r5, r6, r7, lr}
 1974              		.cfi_def_cfa_offset 32
 1975              		.cfi_offset 4, -20
 1976              		.cfi_offset 5, -16
 1977              		.cfi_offset 6, -12
 1978              		.cfi_offset 7, -8
 1979              		.cfi_offset 14, -4
 710:src/sysutil.c ****   DWORD len;
 711:src/sysutil.c **** 
 712:src/sysutil.c ****   fSeekMW(aFileHandle, aOffset);
 1980              		.loc 1 712 0
 1981 0002 0027     		movs	r7, #0
 709:src/sysutil.c ****   DWORD len;
 1982              		.loc 1 709 0
 1983 0004 8E46     		mov	lr, r1
 1984 0006 0546     		mov	r5, r0
 1985 0008 1C46     		mov	r4, r3
 1986 000a 1646     		mov	r6, r2
 1987              		.loc 1 712 0
 1988 000c 7346     		mov	r3, lr
 1989              	.LVL241:
 1990 000e 1021     		movs	r1, #16
 1991              	.LVL242:
 1992 0010 2A46     		mov	r2, r5
 1993              	.LVL243:
 1994 0012 0097     		str	r7, [sp]
 1995 0014 0F20     		movs	r0, #15
 1996              	.LVL244:
 1997 0016 FFF7FEFF 		bl	lib_app_call
 1998              	.LVL245:
 713:src/sysutil.c ****   len = fWriteMW(aFileHandle, aBuf, aLen);
 1999              		.loc 1 713 0
 2000 001a 3346     		mov	r3, r6
 2001 001c 0094     		str	r4, [sp]
 2002 001e 0F20     		movs	r0, #15
 2003 0020 1221     		movs	r1, #18
 2004 0022 2A46     		mov	r2, r5
 2005 0024 FFF7FEFF 		bl	lib_app_call
 2006              	.LVL246:
 714:src/sysutil.c ****   if (len != aLen) {
 2007              		.loc 1 714 0
ARM GAS  C:\Users\AHMED~1.ELE\AppData\Local\Temp\ccGujCBB.s 			page 50


 2008 0028 A042     		cmp	r0, r4
 713:src/sysutil.c ****   len = fWriteMW(aFileHandle, aBuf, aLen);
 2009              		.loc 1 713 0
 2010 002a 0646     		mov	r6, r0
 2011              	.LVL247:
 2012              		.loc 1 714 0
 2013 002c 1AD0     		beq	.L149
 2014              	.LVL248:
 2015              	.LBB12:
 715:src/sysutil.c ****     DispLineMW("File WR Err!", MW_LINE3, MW_CLRDISP|MW_BIGFONT);
 2016              		.loc 1 715 0
 2017 002e 9220     		movs	r0, #146
 2018              	.LVL249:
 2019 0030 0D21     		movs	r1, #13
 2020 0032 FFF7FEFF 		bl	sys_func1
 2021              	.LVL250:
 2022 0036 0546     		mov	r5, r0
 2023              	.LVL251:
 2024 0038 90B1     		cbz	r0, .L150
 2025              		.loc 1 715 0 is_stmt 0 discriminator 1
 2026 003a 0D49     		ldr	r1, .L154
 2027 003c 0C22     		movs	r2, #12
 2028 003e FFF7FEFF 		bl	memcpy
 2029              	.LVL252:
 2030 0042 4FF48453 		mov	r3, #4224
 2031 0046 2F73     		strb	r7, [r5, #12]
 2032 0048 2521     		movs	r1, #37
 2033 004a 0093     		str	r3, [sp]
 2034 004c 0F20     		movs	r0, #15
 2035 004e 2A46     		mov	r2, r5
 2036 0050 4FF44073 		mov	r3, #768
 2037 0054 FFF7FEFF 		bl	lib_app_call
 2038              	.LVL253:
 2039 0058 9420     		movs	r0, #148
 2040 005a 2946     		mov	r1, r5
 2041 005c FFF7FEFF 		bl	sys_func1
 2042              	.LVL254:
 2043              	.L150:
 2044              	.LBE12:
 716:src/sysutil.c ****     ErrorDelay();
 2045              		.loc 1 716 0 is_stmt 1
 2046 0060 FFF7FEFF 		bl	ErrorDelay
 2047              	.LVL255:
 2048              	.L149:
 717:src/sysutil.c ****   }
 718:src/sysutil.c ****   return (len == aLen) ? TRUE : FALSE;
 719:src/sysutil.c **** }
 2049              		.loc 1 719 0
 2050 0064 331B     		subs	r3, r6, r4
 2051 0066 5842     		rsbs	r0, r3, #0
 2052 0068 5841     		adcs	r0, r0, r3
 2053 006a 03B0     		add	sp, sp, #12
 2054              		.cfi_def_cfa_offset 20
 2055              		@ sp needed
 2056 006c F0BD     		pop	{r4, r5, r6, r7, pc}
 2057              	.LVL256:
 2058              	.L155:
ARM GAS  C:\Users\AHMED~1.ELE\AppData\Local\Temp\ccGujCBB.s 			page 51


 2059 006e 00BF     		.align	2
 2060              	.L154:
 2061 0070 3D000000 		.word	.LC5
 2062              		.cfi_endproc
 2063              	.LFE27:
 2064              		.size	WriteSFile, .-WriteSFile
 2065              		.section	.text.WGet,"ax",%progbits
 2066              		.align	1
 2067              		.global	WGet
 2068              		.thumb
 2069              		.thumb_func
 2070              		.type	WGet, %function
 2071              	WGet:
 2072              	.LFB28:
 720:src/sysutil.c **** //*****************************************************************************
 721:src/sysutil.c **** //  Function        : WGet
 722:src/sysutil.c **** //  Description     : Retrieve WORD from input buffer.
 723:src/sysutil.c **** //  Input           : aBuf;     // Data buffer
 724:src/sysutil.c **** //  Return          : N/A
 725:src/sysutil.c **** //  Note            : N/A
 726:src/sysutil.c **** //  Globals Changed : N/A
 727:src/sysutil.c **** //*****************************************************************************
 728:src/sysutil.c **** WORD WGet(void *aBuf)
 729:src/sysutil.c **** {
 2073              		.loc 1 729 0
 2074              		.cfi_startproc
 2075              		@ args = 0, pretend = 0, frame = 0
 2076              		@ frame_needed = 0, uses_anonymous_args = 0
 2077              		@ link register save eliminated.
 2078              	.LVL257:
 730:src/sysutil.c ****   return *(BYTE *)aBuf * 256 + *((BYTE *)aBuf + 1);
 2079              		.loc 1 730 0
 2080 0000 0278     		ldrb	r2, [r0]	@ zero_extendqisi2
 2081 0002 4378     		ldrb	r3, [r0, #1]	@ zero_extendqisi2
 2082 0004 03EB0220 		add	r0, r3, r2, lsl #8
 2083              	.LVL258:
 731:src/sysutil.c **** }
 2084              		.loc 1 731 0
 2085 0008 80B2     		uxth	r0, r0
 2086 000a 7047     		bx	lr
 2087              		.cfi_endproc
 2088              	.LFE28:
 2089              		.size	WGet, .-WGet
 2090              		.section	.text.DWGet,"ax",%progbits
 2091              		.align	1
 2092              		.global	DWGet
 2093              		.thumb
 2094              		.thumb_func
 2095              		.type	DWGet, %function
 2096              	DWGet:
 2097              	.LFB29:
 732:src/sysutil.c **** //*****************************************************************************
 733:src/sysutil.c **** //  Function        : DWGet
 734:src/sysutil.c **** //  Description     : Retrieve DWORD from input buffer.
 735:src/sysutil.c **** //  Input           : aBuf;     // Data buffer
 736:src/sysutil.c **** //  Return          : N/A
 737:src/sysutil.c **** //  Note            : N/A
ARM GAS  C:\Users\AHMED~1.ELE\AppData\Local\Temp\ccGujCBB.s 			page 52


 738:src/sysutil.c **** //  Globals Changed : N/A
 739:src/sysutil.c **** //*****************************************************************************
 740:src/sysutil.c **** DWORD DWGet(void *aBuf)
 741:src/sysutil.c **** {
 2098              		.loc 1 741 0
 2099              		.cfi_startproc
 2100              		@ args = 0, pretend = 0, frame = 0
 2101              		@ frame_needed = 0, uses_anonymous_args = 0
 2102              		@ link register save eliminated.
 2103              	.LVL259:
 2104 0000 421E     		subs	r2, r0, #1
 2105 0002 C31C     		adds	r3, r0, #3
 742:src/sysutil.c ****   DWORD ret;
 743:src/sysutil.c ****   BYTE i;
 744:src/sysutil.c **** 
 745:src/sysutil.c ****   ret = 0;
 2106              		.loc 1 745 0
 2107 0004 0020     		movs	r0, #0
 2108              	.LVL260:
 2109              	.L158:
 746:src/sysutil.c ****   for (i=0; i<4; i++) {
 747:src/sysutil.c ****     ret <<= 8;
 748:src/sysutil.c ****     ret |= *((BYTE *)aBuf+i);
 2110              		.loc 1 748 0 discriminator 3
 2111 0006 12F8011F 		ldrb	r1, [r2, #1]!	@ zero_extendqisi2
 2112              	.LVL261:
 746:src/sysutil.c ****   for (i=0; i<4; i++) {
 2113              		.loc 1 746 0 discriminator 3
 2114 000a 9A42     		cmp	r2, r3
 2115              		.loc 1 748 0 discriminator 3
 2116 000c 41EA0020 		orr	r0, r1, r0, lsl #8
 2117              	.LVL262:
 746:src/sysutil.c ****   for (i=0; i<4; i++) {
 2118              		.loc 1 746 0 discriminator 3
 2119 0010 F9D1     		bne	.L158
 749:src/sysutil.c ****   }
 750:src/sysutil.c ****   return ret;
 751:src/sysutil.c **** }
 2120              		.loc 1 751 0
 2121 0012 7047     		bx	lr
 2122              		.cfi_endproc
 2123              	.LFE29:
 2124              		.size	DWGet, .-DWGet
 2125              		.section	.text.WaitLanNetRdy,"ax",%progbits
 2126              		.align	1
 2127              		.global	WaitLanNetRdy
 2128              		.thumb
 2129              		.thumb_func
 2130              		.type	WaitLanNetRdy, %function
 2131              	WaitLanNetRdy:
 2132              	.LFB30:
 752:src/sysutil.c **** //*****************************************************************************
 753:src/sysutil.c **** //  Function        : WaitLanNetRdy
 754:src/sysutil.c **** //  Description     : Wait LAN Network Ready;
 755:src/sysutil.c **** //  Input           : N/A
 756:src/sysutil.c **** //  Return          : N/A
 757:src/sysutil.c **** //  Note            : N/A
ARM GAS  C:\Users\AHMED~1.ELE\AppData\Local\Temp\ccGujCBB.s 			page 53


 758:src/sysutil.c **** //  Globals Changed : N/A
 759:src/sysutil.c **** //*****************************************************************************
 760:src/sysutil.c **** BOOLEAN WaitLanNetRdy(DWORD aTimeout, BOOLEAN aNoCancel)
 761:src/sysutil.c **** {
 2133              		.loc 1 761 0
 2134              		.cfi_startproc
 2135              		@ args = 0, pretend = 0, frame = 24
 2136              		@ frame_needed = 0, uses_anonymous_args = 0
 2137              	.LVL263:
 2138 0000 F0B5     		push	{r4, r5, r6, r7, lr}
 2139              		.cfi_def_cfa_offset 20
 2140              		.cfi_offset 4, -20
 2141              		.cfi_offset 5, -16
 2142              		.cfi_offset 6, -12
 2143              		.cfi_offset 7, -8
 2144              		.cfi_offset 14, -4
 762:src/sysutil.c ****   BYTE dhcp;
 763:src/sysutil.c ****   struct MW_NIF_INFO netinfo;
 764:src/sysutil.c **** 
 765:src/sysutil.c ****   // wait until LAN cable is plugged & DHCP ready
 766:src/sysutil.c ****   GetSysCfgMW(MW_SYSCFG_DHCP_ENABLE, &dhcp);
 767:src/sysutil.c ****   TimerSetMW(gTimerHdl[TIMER_COMM], aTimeout);
 2145              		.loc 1 767 0
 2146 0002 394C     		ldr	r4, .L181
 761:src/sysutil.c ****   BYTE dhcp;
 2147              		.loc 1 761 0
 2148 0004 89B0     		sub	sp, sp, #36
 2149              		.cfi_def_cfa_offset 56
 761:src/sysutil.c ****   BYTE dhcp;
 2150              		.loc 1 761 0
 2151 0006 0546     		mov	r5, r0
 766:src/sysutil.c ****   TimerSetMW(gTimerHdl[TIMER_COMM], aTimeout);
 2152              		.loc 1 766 0
 2153 0008 0DF10B02 		add	r2, sp, #11
 761:src/sysutil.c ****   BYTE dhcp;
 2154              		.loc 1 761 0
 2155 000c 0F46     		mov	r7, r1
 766:src/sysutil.c ****   TimerSetMW(gTimerHdl[TIMER_COMM], aTimeout);
 2156              		.loc 1 766 0
 2157 000e B920     		movs	r0, #185
 2158              	.LVL264:
 2159 0010 1221     		movs	r1, #18
 2160              	.LVL265:
 2161 0012 FFF7FEFF 		bl	sys_func2
 2162              	.LVL266:
 2163              		.loc 1 767 0
 2164 0016 0C20     		movs	r0, #12
 2165 0018 A168     		ldr	r1, [r4, #8]
 2166 001a 2A46     		mov	r2, r5
 2167 001c FFF7FEFF 		bl	sys_func2
 2168              	.LVL267:
 2169              	.L168:
 768:src/sysutil.c ****   do {
 769:src/sysutil.c ****     SleepMW();
 2170              		.loc 1 769 0
 2171 0020 4FF4CE70 		mov	r0, #412
 2172 0024 FFF7FEFF 		bl	sys_func0
ARM GAS  C:\Users\AHMED~1.ELE\AppData\Local\Temp\ccGujCBB.s 			page 54


 2173              	.LVL268:
 770:src/sysutil.c ****     if (GetCharMW()==MWKEY_CANCL) {
 2174              		.loc 1 770 0
 2175 0028 0022     		movs	r2, #0
 2176 002a 0F20     		movs	r0, #15
 2177 002c 0092     		str	r2, [sp]
 2178 002e 1621     		movs	r1, #22
 2179 0030 1346     		mov	r3, r2
 2180 0032 FFF7FEFF 		bl	lib_app_call
 2181              	.LVL269:
 2182 0036 1128     		cmp	r0, #17
 2183 0038 03D1     		bne	.L161
 771:src/sysutil.c ****       if (!aNoCancel)
 2184              		.loc 1 771 0
 2185 003a 002F     		cmp	r7, #0
 2186 003c 4AD0     		beq	.L163
 772:src/sysutil.c ****         break;
 773:src/sysutil.c ****       LongBeep();
 2187              		.loc 1 773 0
 2188 003e FFF7FEFF 		bl	LongBeep
 2189              	.LVL270:
 2190              	.L161:
 774:src/sysutil.c ****     }
 775:src/sysutil.c ****     if (!LanCableInsertedMW()) {
 2191              		.loc 1 775 0
 2192 0042 4220     		movs	r0, #66
 2193 0044 0021     		movs	r1, #0
 2194 0046 FFF7FEFF 		bl	base_func1
 2195              	.LVL271:
 2196 004a 10F00106 		ands	r6, r0, #1
 2197 004e 0BD1     		bne	.L164
 2198              	.LVL272:
 2199              	.LBB13:
 776:src/sysutil.c ****       DispLineMW("Check Lan Cable!\x05", MW_LINE7, MW_CENTER|MW_SPFONT);
 2200              		.loc 1 776 0
 2201 0050 9220     		movs	r0, #146
 2202 0052 1221     		movs	r1, #18
 2203 0054 FFF7FEFF 		bl	sys_func1
 2204              	.LVL273:
 2205 0058 0546     		mov	r5, r0
 2206 005a A8B3     		cbz	r0, .L166
 2207              		.loc 1 776 0 is_stmt 0 discriminator 1
 2208 005c 2349     		ldr	r1, .L181+4
 2209 005e 1122     		movs	r2, #17
 2210 0060 FFF7FEFF 		bl	memcpy
 2211              	.LVL274:
 2212 0064 6E74     		strb	r6, [r5, #17]
 2213 0066 14E0     		b	.L180
 2214              	.LVL275:
 2215              	.L164:
 2216              	.LBE13:
 777:src/sysutil.c ****     }
 778:src/sysutil.c ****     else {
 779:src/sysutil.c ****       if (dhcp) {
 2217              		.loc 1 779 0 is_stmt 1
 2218 0068 9DF80B30 		ldrb	r3, [sp, #11]	@ zero_extendqisi2
 2219 006c 03B3     		cbz	r3, .L167
ARM GAS  C:\Users\AHMED~1.ELE\AppData\Local\Temp\ccGujCBB.s 			page 55


 780:src/sysutil.c ****         NetInfoMW(MW_NIF_ETHERNET, &netinfo);
 2220              		.loc 1 780 0
 2221 006e 1320     		movs	r0, #19
 2222 0070 0021     		movs	r1, #0
 2223 0072 03AA     		add	r2, sp, #12
 2224 0074 FFF7FEFF 		bl	base_func2
 2225              	.LVL276:
 781:src/sysutil.c ****         if (netinfo.d_ip == 0) {
 2226              		.loc 1 781 0
 2227 0078 039E     		ldr	r6, [sp, #12]
 2228 007a CEB9     		cbnz	r6, .L167
 2229              	.LVL277:
 2230              	.LBB14:
 782:src/sysutil.c ****           DispLineMW("Waiting LAN DHCP..\x05", MW_LINE7, MW_CENTER|MW_SPFONT);
 2231              		.loc 1 782 0
 2232 007c 9220     		movs	r0, #146
 2233 007e 1421     		movs	r1, #20
 2234 0080 FFF7FEFF 		bl	sys_func1
 2235              	.LVL278:
 2236 0084 0546     		mov	r5, r0
 2237 0086 F8B1     		cbz	r0, .L166
 2238              		.loc 1 782 0 is_stmt 0 discriminator 1
 2239 0088 1949     		ldr	r1, .L181+8
 2240 008a 1322     		movs	r2, #19
 2241 008c FFF7FEFF 		bl	memcpy
 2242              	.LVL279:
 2243 0090 EE74     		strb	r6, [r5, #19]
 2244              	.LVL280:
 2245              	.L180:
 2246 0092 42F20203 		movw	r3, #8194
 2247 0096 2521     		movs	r1, #37
 2248 0098 0093     		str	r3, [sp]
 2249 009a 2A46     		mov	r2, r5
 2250 009c 4FF4E063 		mov	r3, #1792
 2251 00a0 0F20     		movs	r0, #15
 2252 00a2 FFF7FEFF 		bl	lib_app_call
 2253              	.LVL281:
 2254 00a6 2946     		mov	r1, r5
 2255 00a8 9420     		movs	r0, #148
 2256 00aa FFF7FEFF 		bl	sys_func1
 2257              	.LVL282:
 2258 00ae 0BE0     		b	.L166
 2259              	.L167:
 2260              	.LBE14:
 783:src/sysutil.c ****           continue;
 784:src/sysutil.c ****         }
 785:src/sysutil.c ****       }
 786:src/sysutil.c ****       DispClrBelowMW(MW_LINE7);
 2261              		.loc 1 786 0 is_stmt 1
 2262 00b0 0023     		movs	r3, #0
 2263 00b2 2321     		movs	r1, #35
 2264 00b4 0093     		str	r3, [sp]
 2265 00b6 4FF4E062 		mov	r2, #1792
 2266 00ba 0F20     		movs	r0, #15
 2267 00bc FFF7FEFF 		bl	lib_app_call
 2268              	.LVL283:
 787:src/sysutil.c ****       Delay10ms(50);
ARM GAS  C:\Users\AHMED~1.ELE\AppData\Local\Temp\ccGujCBB.s 			page 56


 2269              		.loc 1 787 0
 2270 00c0 3220     		movs	r0, #50
 2271 00c2 FFF7FEFF 		bl	Delay10ms
 2272              	.LVL284:
 788:src/sysutil.c ****       break;
 2273              		.loc 1 788 0
 2274 00c6 05E0     		b	.L163
 2275              	.L166:
 789:src/sysutil.c ****     }
 790:src/sysutil.c ****   } while (TimerGetMW(gTimerHdl[TIMER_COMM]) > 0);
 2276              		.loc 1 790 0
 2277 00c8 0D20     		movs	r0, #13
 2278 00ca A168     		ldr	r1, [r4, #8]
 2279 00cc FFF7FEFF 		bl	sys_func1
 2280              	.LVL285:
 2281 00d0 0028     		cmp	r0, #0
 2282 00d2 A5D1     		bne	.L168
 2283              	.L163:
 791:src/sysutil.c **** 
 792:src/sysutil.c ****   if (TimerGetMW(gTimerHdl[TIMER_COMM]) == 0)
 2284              		.loc 1 792 0
 2285 00d4 A168     		ldr	r1, [r4, #8]
 2286 00d6 0D20     		movs	r0, #13
 2287 00d8 FFF7FEFF 		bl	sys_func1
 2288              	.LVL286:
 793:src/sysutil.c ****     return FALSE;
 794:src/sysutil.c **** 
 795:src/sysutil.c ****   return TRUE;
 796:src/sysutil.c **** }
 2289              		.loc 1 796 0
 2290 00dc 0030     		adds	r0, r0, #0
 2291 00de 18BF     		it	ne
 2292 00e0 0120     		movne	r0, #1
 2293 00e2 09B0     		add	sp, sp, #36
 2294              		.cfi_def_cfa_offset 20
 2295              		@ sp needed
 2296 00e4 F0BD     		pop	{r4, r5, r6, r7, pc}
 2297              	.L182:
 2298 00e6 00BF     		.align	2
 2299              	.L181:
 2300 00e8 00000000 		.word	gTimerHdl
 2301 00ec 4A000000 		.word	.LC6
 2302 00f0 5C000000 		.word	.LC7
 2303              		.cfi_endproc
 2304              	.LFE30:
 2305              		.size	WaitLanNetRdy, .-WaitLanNetRdy
 2306              		.section	.text.WaitWifiNetRdy,"ax",%progbits
 2307              		.align	1
 2308              		.global	WaitWifiNetRdy
 2309              		.thumb
 2310              		.thumb_func
 2311              		.type	WaitWifiNetRdy, %function
 2312              	WaitWifiNetRdy:
 2313              	.LFB31:
 797:src/sysutil.c **** //*****************************************************************************
 798:src/sysutil.c **** //  Function        : WaitWifiNetRdy
 799:src/sysutil.c **** //  Description     : Wait Wifi Network Ready;
ARM GAS  C:\Users\AHMED~1.ELE\AppData\Local\Temp\ccGujCBB.s 			page 57


 800:src/sysutil.c **** //  Input           : N/A
 801:src/sysutil.c **** //  Return          : N/A
 802:src/sysutil.c **** //  Note            : N/A
 803:src/sysutil.c **** //  Globals Changed : N/A
 804:src/sysutil.c **** //*****************************************************************************
 805:src/sysutil.c **** BOOLEAN WaitWifiNetRdy(DWORD aTimeout, BOOLEAN aNoCancel)
 806:src/sysutil.c **** {
 2314              		.loc 1 806 0
 2315              		.cfi_startproc
 2316              		@ args = 0, pretend = 0, frame = 24
 2317              		@ frame_needed = 0, uses_anonymous_args = 0
 2318              	.LVL287:
 2319 0000 F0B5     		push	{r4, r5, r6, r7, lr}
 2320              		.cfi_def_cfa_offset 20
 2321              		.cfi_offset 4, -20
 2322              		.cfi_offset 5, -16
 2323              		.cfi_offset 6, -12
 2324              		.cfi_offset 7, -8
 2325              		.cfi_offset 14, -4
 2326 0002 89B0     		sub	sp, sp, #36
 2327              		.cfi_def_cfa_offset 56
 2328              		.loc 1 806 0
 2329 0004 0546     		mov	r5, r0
 2330 0006 0F46     		mov	r7, r1
 807:src/sysutil.c ****   struct MW_NIF_INFO netinfo;
 808:src/sysutil.c **** 
 809:src/sysutil.c ****   // check if AP is connected
 810:src/sysutil.c ****   if ((GetWifiStatus() & MW_WIFI_CONNECTED) == 0) {
 2331              		.loc 1 810 0
 2332 0008 FFF7FEFF 		bl	GetWifiStatus
 2333              	.LVL288:
 2334 000c 10F00106 		ands	r6, r0, #1
 2335 0010 1DD1     		bne	.L184
 2336              	.LVL289:
 2337              	.LBB15:
 811:src/sysutil.c ****     DispLineMW("Wifi AP Disconnected!", MW_LINE7, MW_CLREOL|MW_CENTER|MW_SPFONT);
 2338              		.loc 1 811 0
 2339 0012 9220     		movs	r0, #146
 2340 0014 1621     		movs	r1, #22
 2341 0016 FFF7FEFF 		bl	sys_func1
 2342              	.LVL290:
 2343 001a 0446     		mov	r4, r0
 2344 001c 90B1     		cbz	r0, .L185
 2345              		.loc 1 811 0 is_stmt 0 discriminator 1
 2346 001e 3049     		ldr	r1, .L199
 2347 0020 1522     		movs	r2, #21
 2348 0022 FFF7FEFF 		bl	memcpy
 2349              	.LVL291:
 2350 0026 42F22203 		movw	r3, #8226
 2351 002a 6675     		strb	r6, [r4, #21]
 2352 002c 2521     		movs	r1, #37
 2353 002e 0093     		str	r3, [sp]
 2354 0030 0F20     		movs	r0, #15
 2355 0032 2246     		mov	r2, r4
 2356 0034 4FF4E063 		mov	r3, #1792
 2357 0038 FFF7FEFF 		bl	lib_app_call
 2358              	.LVL292:
ARM GAS  C:\Users\AHMED~1.ELE\AppData\Local\Temp\ccGujCBB.s 			page 58


 2359 003c 9420     		movs	r0, #148
 2360 003e 2146     		mov	r1, r4
 2361 0040 FFF7FEFF 		bl	sys_func1
 2362              	.LVL293:
 2363              	.L185:
 2364              	.LBE15:
 812:src/sysutil.c ****     Delay10ms(100);
 2365              		.loc 1 812 0 is_stmt 1
 2366 0044 6420     		movs	r0, #100
 2367 0046 FFF7FEFF 		bl	Delay10ms
 2368              	.LVL294:
 813:src/sysutil.c ****     return FALSE;
 2369              		.loc 1 813 0
 2370 004a 0020     		movs	r0, #0
 2371 004c 45E0     		b	.L186
 2372              	.LVL295:
 2373              	.L184:
 814:src/sysutil.c ****   }
 815:src/sysutil.c **** 
 816:src/sysutil.c ****   // wait until DHCP ready
 817:src/sysutil.c ****   TimerSetMW(gTimerHdl[TIMER_COMM], aTimeout);
 2374              		.loc 1 817 0
 2375 004e 254C     		ldr	r4, .L199+4
 2376 0050 0C20     		movs	r0, #12
 2377 0052 A168     		ldr	r1, [r4, #8]
 2378 0054 2A46     		mov	r2, r5
 2379 0056 FFF7FEFF 		bl	sys_func2
 2380              	.LVL296:
 2381              	.L191:
 818:src/sysutil.c ****   do {
 819:src/sysutil.c ****     SleepMW();
 2382              		.loc 1 819 0
 2383 005a 4FF4CE70 		mov	r0, #412
 2384 005e FFF7FEFF 		bl	sys_func0
 2385              	.LVL297:
 820:src/sysutil.c ****     if (GetCharMW()==MWKEY_CANCL) {
 2386              		.loc 1 820 0
 2387 0062 0022     		movs	r2, #0
 2388 0064 0F20     		movs	r0, #15
 2389 0066 0092     		str	r2, [sp]
 2390 0068 1621     		movs	r1, #22
 2391 006a 1346     		mov	r3, r2
 2392 006c FFF7FEFF 		bl	lib_app_call
 2393              	.LVL298:
 2394 0070 1128     		cmp	r0, #17
 2395 0072 0AD1     		bne	.L187
 821:src/sysutil.c ****       if (!aNoCancel)
 2396              		.loc 1 821 0
 2397 0074 3FB9     		cbnz	r7, .L188
 2398              	.L189:
 822:src/sysutil.c ****         break;
 823:src/sysutil.c ****       LongBeep();
 824:src/sysutil.c ****     }
 825:src/sysutil.c ****     NetInfoMW(MW_NIF_WIFI, &netinfo);
 826:src/sysutil.c ****     if (netinfo.d_ip == 0) {
 827:src/sysutil.c ****       DispLineMW("Waiting Wifi DHCP..\x05", MW_LINE7, MW_CENTER|MW_SPFONT);
 828:src/sysutil.c ****       continue;
ARM GAS  C:\Users\AHMED~1.ELE\AppData\Local\Temp\ccGujCBB.s 			page 59


 829:src/sysutil.c ****     }
 830:src/sysutil.c ****     else
 831:src/sysutil.c ****       break;
 832:src/sysutil.c ****   } while (TimerGetMW(gTimerHdl[TIMER_COMM]) > 0);
 833:src/sysutil.c **** 
 834:src/sysutil.c ****   if (TimerGetMW(gTimerHdl[TIMER_COMM]) == 0)
 2399              		.loc 1 834 0
 2400 0076 0D20     		movs	r0, #13
 2401 0078 A168     		ldr	r1, [r4, #8]
 2402 007a FFF7FEFF 		bl	sys_func1
 2403              	.LVL299:
 813:src/sysutil.c ****   }
 2404              		.loc 1 813 0
 2405 007e 0030     		adds	r0, r0, #0
 2406 0080 18BF     		it	ne
 2407 0082 0120     		movne	r0, #1
 2408 0084 29E0     		b	.L186
 2409              	.L188:
 823:src/sysutil.c ****     }
 2410              		.loc 1 823 0
 2411 0086 FFF7FEFF 		bl	LongBeep
 2412              	.LVL300:
 2413              	.L187:
 825:src/sysutil.c ****     if (netinfo.d_ip == 0) {
 2414              		.loc 1 825 0
 2415 008a 1320     		movs	r0, #19
 2416 008c 0321     		movs	r1, #3
 2417 008e 03AA     		add	r2, sp, #12
 2418 0090 FFF7FEFF 		bl	base_func2
 2419              	.LVL301:
 826:src/sysutil.c ****       DispLineMW("Waiting Wifi DHCP..\x05", MW_LINE7, MW_CENTER|MW_SPFONT);
 2420              		.loc 1 826 0
 2421 0094 039E     		ldr	r6, [sp, #12]
 2422 0096 002E     		cmp	r6, #0
 2423 0098 EDD1     		bne	.L189
 2424              	.LVL302:
 2425              	.LBB16:
 827:src/sysutil.c ****       continue;
 2426              		.loc 1 827 0
 2427 009a 9220     		movs	r0, #146
 2428 009c 1521     		movs	r1, #21
 2429 009e FFF7FEFF 		bl	sys_func1
 2430              	.LVL303:
 2431 00a2 0546     		mov	r5, r0
 2432 00a4 90B1     		cbz	r0, .L190
 827:src/sysutil.c ****       continue;
 2433              		.loc 1 827 0 is_stmt 0 discriminator 1
 2434 00a6 1049     		ldr	r1, .L199+8
 2435 00a8 1422     		movs	r2, #20
 2436 00aa FFF7FEFF 		bl	memcpy
 2437              	.LVL304:
 2438 00ae 42F20203 		movw	r3, #8194
 2439 00b2 2E75     		strb	r6, [r5, #20]
 2440 00b4 2521     		movs	r1, #37
 2441 00b6 0093     		str	r3, [sp]
 2442 00b8 0F20     		movs	r0, #15
 2443 00ba 2A46     		mov	r2, r5
ARM GAS  C:\Users\AHMED~1.ELE\AppData\Local\Temp\ccGujCBB.s 			page 60


 2444 00bc 4FF4E063 		mov	r3, #1792
 2445 00c0 FFF7FEFF 		bl	lib_app_call
 2446              	.LVL305:
 2447 00c4 9420     		movs	r0, #148
 2448 00c6 2946     		mov	r1, r5
 2449 00c8 FFF7FEFF 		bl	sys_func1
 2450              	.LVL306:
 2451              	.L190:
 2452              	.LBE16:
 832:src/sysutil.c **** 
 2453              		.loc 1 832 0 is_stmt 1
 2454 00cc 0D20     		movs	r0, #13
 2455 00ce A168     		ldr	r1, [r4, #8]
 2456 00d0 FFF7FEFF 		bl	sys_func1
 2457              	.LVL307:
 2458 00d4 0028     		cmp	r0, #0
 2459 00d6 C0D1     		bne	.L191
 2460 00d8 CDE7     		b	.L189
 2461              	.LVL308:
 2462              	.L186:
 835:src/sysutil.c ****     return FALSE;
 836:src/sysutil.c **** 
 837:src/sysutil.c ****   return TRUE;
 838:src/sysutil.c **** }
 2463              		.loc 1 838 0
 2464 00da 09B0     		add	sp, sp, #36
 2465              		.cfi_def_cfa_offset 20
 2466              		@ sp needed
 2467 00dc F0BD     		pop	{r4, r5, r6, r7, pc}
 2468              	.L200:
 2469 00de 00BF     		.align	2
 2470              	.L199:
 2471 00e0 70000000 		.word	.LC8
 2472 00e4 00000000 		.word	gTimerHdl
 2473 00e8 86000000 		.word	.LC9
 2474              		.cfi_endproc
 2475              	.LFE31:
 2476              		.size	WaitWifiNetRdy, .-WaitWifiNetRdy
 2477              		.section	.text.HotPlug,"ax",%progbits
 2478              		.align	1
 2479              		.global	HotPlug
 2480              		.thumb
 2481              		.thumb_func
 2482              		.type	HotPlug, %function
 2483              	HotPlug:
 2484              	.LFB32:
 839:src/sysutil.c **** #if (MCP_SUPPORT)
 840:src/sysutil.c **** //*****************************************************************************
 841:src/sysutil.c **** //  Function        : WaitMcpNetRdy
 842:src/sysutil.c **** //  Description     : Wait MCP Network Ready;
 843:src/sysutil.c **** //  Input           : N/A
 844:src/sysutil.c **** //  Return          : N/A
 845:src/sysutil.c **** //  Note            : N/A
 846:src/sysutil.c **** //  Globals Changed : N/A
 847:src/sysutil.c **** //*****************************************************************************
 848:src/sysutil.c **** BOOLEAN WaitMcpNetRdy(DWORD aTimeout, BOOLEAN aNoCancel)
 849:src/sysutil.c **** {
ARM GAS  C:\Users\AHMED~1.ELE\AppData\Local\Temp\ccGujCBB.s 			page 61


 850:src/sysutil.c ****   // wait until MCP ready
 851:src/sysutil.c ****   TimerSetMW(gTimerHdl[TIMER_COMM], aTimeout);
 852:src/sysutil.c ****   do {
 853:src/sysutil.c ****     SleepMW();
 854:src/sysutil.c ****     if (GetCharMW()==MWKEY_CANCL) {
 855:src/sysutil.c ****       if (!aNoCancel)
 856:src/sysutil.c ****         break;
 857:src/sysutil.c ****       LongBeep();
 858:src/sysutil.c ****     }
 859:src/sysutil.c ****     if (GetMCPStatus() != K_MCP_PHASE_CONNECTED) {
 860:src/sysutil.c ****       DispLineMW("Waiting MCP Rdy..\x05", MW_LINE7, MW_CENTER|MW_SPFONT);
 861:src/sysutil.c ****       continue;
 862:src/sysutil.c ****     }
 863:src/sysutil.c ****     else
 864:src/sysutil.c ****       break;
 865:src/sysutil.c ****   } while (TimerGetMW(gTimerHdl[TIMER_COMM]) > 0);
 866:src/sysutil.c **** 
 867:src/sysutil.c ****   if (TimerGetMW(gTimerHdl[TIMER_COMM]) == 0)
 868:src/sysutil.c ****     return FALSE;
 869:src/sysutil.c **** 
 870:src/sysutil.c ****   return TRUE;
 871:src/sysutil.c **** }
 872:src/sysutil.c **** #endif
 873:src/sysutil.c **** //*****************************************************************************
 874:src/sysutil.c **** //  Function        : HotPlug
 875:src/sysutil.c **** //  Description     : Handle LAN cable Hot Plug.
 876:src/sysutil.c **** //  Input           : N/A
 877:src/sysutil.c **** //  Return          : N/A
 878:src/sysutil.c **** //  Note            : //25-07-17 JC ++
 879:src/sysutil.c **** //  Globals Changed : N/A
 880:src/sysutil.c **** //*****************************************************************************
 881:src/sysutil.c **** enum {
 882:src/sysutil.c ****  HP_WAITON   = 1,
 883:src/sysutil.c ****  HP_CHKSTATE    ,
 884:src/sysutil.c ****  HP_WAITCLOSE   ,
 885:src/sysutil.c ****  HP_WAITOFF     ,
 886:src/sysutil.c **** };
 887:src/sysutil.c **** static DWORD gHpState = HP_WAITON;
 888:src/sysutil.c **** static DWORD gHotPlugCnt;
 889:src/sysutil.c **** void HotPlug(void)
 890:src/sysutil.c **** {
 2485              		.loc 1 890 0
 2486              		.cfi_startproc
 2487              		@ args = 0, pretend = 0, frame = 0
 2488              		@ frame_needed = 0, uses_anonymous_args = 0
 2489 0000 38B5     		push	{r3, r4, r5, lr}
 2490              		.cfi_def_cfa_offset 16
 2491              		.cfi_offset 3, -16
 2492              		.cfi_offset 4, -12
 2493              		.cfi_offset 5, -8
 2494              		.cfi_offset 14, -4
 891:src/sysutil.c ****   #define KSecIn1ms(x)    x*1000
 892:src/sysutil.c ****   DWORD status;
 893:src/sysutil.c ****   //BYTE buf[32];
 894:src/sysutil.c **** 
 895:src/sysutil.c ****   //SprintfMW(buf, "HotPlug: %d\x05", gHpState);
 896:src/sysutil.c ****   //DispLineMW(buf, MW_LINE8, MW_SPFONT);
ARM GAS  C:\Users\AHMED~1.ELE\AppData\Local\Temp\ccGujCBB.s 			page 62


 897:src/sysutil.c ****   switch (gHpState) {
 2495              		.loc 1 897 0
 2496 0002 224C     		ldr	r4, .L213
 2497 0004 2368     		ldr	r3, [r4]
 2498 0006 013B     		subs	r3, r3, #1
 2499 0008 032B     		cmp	r3, #3
 2500 000a 3AD8     		bhi	.L202
 2501 000c DFE803F0 		tbb	[pc, r3]
 2502              	.L204:
 2503 0010 02       		.byte	(.L203-.L204)/2
 2504 0011 07       		.byte	(.L205-.L204)/2
 2505 0012 30       		.byte	(.L206-.L204)/2
 2506 0013 20       		.byte	(.L207-.L204)/2
 2507              		.p2align 1
 2508              	.L203:
 898:src/sysutil.c ****     case HP_WAITON:
 899:src/sysutil.c ****        bs_lan_open();
 2509              		.loc 1 899 0
 2510 0014 4020     		movs	r0, #64
 2511 0016 FFF7FEFF 		bl	base_func0
 2512              	.LVL309:
 900:src/sysutil.c ****        gHpState = HP_CHKSTATE;
 2513              		.loc 1 900 0
 2514 001a 0223     		movs	r3, #2
 2515 001c 22E0     		b	.L211
 2516              	.L205:
 901:src/sysutil.c ****        gHotPlugCnt = FreeRunMark();
 902:src/sysutil.c ****        break;
 903:src/sysutil.c ****     case HP_CHKSTATE:
 904:src/sysutil.c ****        status = bs_lan_status(K_BsLanStatus);
 2517              		.loc 1 904 0
 2518 001e 4220     		movs	r0, #66
 2519 0020 0021     		movs	r1, #0
 2520 0022 FFF7FEFF 		bl	base_func1
 2521              	.LVL310:
 905:src/sysutil.c ****        if (status & K_LanPlugIn) {
 2522              		.loc 1 905 0
 2523 0026 C207     		lsls	r2, r0, #31
 2524 0028 01D5     		bpl	.L208
 906:src/sysutil.c ****          gHpState = HP_WAITOFF;
 2525              		.loc 1 906 0
 2526 002a 0423     		movs	r3, #4
 2527 002c 28E0     		b	.L212
 2528              	.L208:
 907:src/sysutil.c ****          break;
 908:src/sysutil.c ****        }
 909:src/sysutil.c ****        if (FreeRunElapsed(gHotPlugCnt) > KSecIn1ms(5)) {
 2529              		.loc 1 909 0
 2530 002e 184D     		ldr	r5, .L213+4
 2531 0030 6868     		ldr	r0, [r5, #4]
 2532              	.LVL311:
 2533 0032 FFF7FEFF 		bl	FreeRunElapsed
 2534              	.LVL312:
 2535 0036 41F28833 		movw	r3, #5000
 2536 003a 9842     		cmp	r0, r3
 2537 003c 21D9     		bls	.L202
 910:src/sysutil.c ****          bs_lan_close();
ARM GAS  C:\Users\AHMED~1.ELE\AppData\Local\Temp\ccGujCBB.s 			page 63


 2538              		.loc 1 910 0
 2539 003e 4120     		movs	r0, #65
 2540 0040 FFF7FEFF 		bl	base_func0
 2541              	.LVL313:
 911:src/sysutil.c ****          gHpState = HP_WAITCLOSE;
 2542              		.loc 1 911 0
 2543 0044 0323     		movs	r3, #3
 2544 0046 2360     		str	r3, [r4]
 912:src/sysutil.c ****          gHotPlugCnt = FreeRunMark();
 2545              		.loc 1 912 0
 2546 0048 FFF7FEFF 		bl	FreeRunMark
 2547              	.LVL314:
 2548 004c 6860     		str	r0, [r5, #4]
 2549 004e 18E0     		b	.L202
 2550              	.L207:
 913:src/sysutil.c ****        }
 914:src/sysutil.c ****        break;
 915:src/sysutil.c ****     case HP_WAITOFF:
 916:src/sysutil.c ****        status = bs_lan_status(K_BsLanStatus);
 2551              		.loc 1 916 0
 2552 0050 4220     		movs	r0, #66
 2553 0052 0021     		movs	r1, #0
 2554 0054 FFF7FEFF 		bl	base_func1
 2555              	.LVL315:
 917:src/sysutil.c ****        if (!(status & K_LanPlugIn)) {
 2556              		.loc 1 917 0
 2557 0058 C307     		lsls	r3, r0, #31
 2558 005a 12D4     		bmi	.L202
 918:src/sysutil.c ****          bs_lan_close();
 2559              		.loc 1 918 0
 2560 005c 4120     		movs	r0, #65
 2561              	.LVL316:
 2562 005e FFF7FEFF 		bl	base_func0
 2563              	.LVL317:
 919:src/sysutil.c ****          gHpState = HP_WAITCLOSE;
 2564              		.loc 1 919 0
 2565 0062 0323     		movs	r3, #3
 2566              	.L211:
 2567 0064 2360     		str	r3, [r4]
 920:src/sysutil.c ****          gHotPlugCnt = FreeRunMark();
 2568              		.loc 1 920 0
 2569 0066 FFF7FEFF 		bl	FreeRunMark
 2570              	.LVL318:
 2571 006a 094B     		ldr	r3, .L213+4
 2572 006c 5860     		str	r0, [r3, #4]
 2573 006e 08E0     		b	.L202
 2574              	.L206:
 921:src/sysutil.c ****        }
 922:src/sysutil.c ****        break;
 923:src/sysutil.c ****     case HP_WAITCLOSE:
 924:src/sysutil.c ****        if (FreeRunElapsed(gHotPlugCnt) > KSecIn1ms(2)) {
 2575              		.loc 1 924 0
 2576 0070 074B     		ldr	r3, .L213+4
 2577 0072 5868     		ldr	r0, [r3, #4]
 2578 0074 FFF7FEFF 		bl	FreeRunElapsed
 2579              	.LVL319:
 2580 0078 B0F5FA6F 		cmp	r0, #2000
ARM GAS  C:\Users\AHMED~1.ELE\AppData\Local\Temp\ccGujCBB.s 			page 64


 2581 007c 01D9     		bls	.L202
 925:src/sysutil.c ****          gHpState = HP_WAITON;
 2582              		.loc 1 925 0
 2583 007e 0123     		movs	r3, #1
 2584              	.L212:
 2585 0080 2360     		str	r3, [r4]
 2586              	.L202:
 926:src/sysutil.c ****        }
 927:src/sysutil.c ****        break;
 928:src/sysutil.c ****   }
 929:src/sysutil.c ****   os_thread_return();
 2587              		.loc 1 929 0
 2588 0082 8020     		movs	r0, #128
 930:src/sysutil.c **** }
 2589              		.loc 1 930 0
 2590 0084 BDE83840 		pop	{r3, r4, r5, lr}
 2591              		.cfi_restore 14
 2592              		.cfi_restore 5
 2593              		.cfi_restore 4
 2594              		.cfi_restore 3
 2595              		.cfi_def_cfa_offset 0
 929:src/sysutil.c **** }
 2596              		.loc 1 929 0
 2597 0088 FFF7FEBF 		b	sys_func0
 2598              	.LVL320:
 2599              	.L214:
 2600              		.align	2
 2601              	.L213:
 2602 008c 00000000 		.word	.LANCHOR2
 2603 0090 00000000 		.word	.LANCHOR1
 2604              		.cfi_endproc
 2605              	.LFE32:
 2606              		.size	HotPlug, .-HotPlug
 2607              		.section	.rodata
 2608              		.set	.LANCHOR0,. + 0
 2609              		.type	KMonthText, %object
 2610              		.size	KMonthText, 39
 2611              	KMonthText:
 2612 0000 20       		.byte	32
 2613 0001 20       		.byte	32
 2614 0002 20       		.byte	32
 2615 0003 4A       		.byte	74
 2616 0004 41       		.byte	65
 2617 0005 4E       		.byte	78
 2618 0006 46       		.byte	70
 2619 0007 45       		.byte	69
 2620 0008 42       		.byte	66
 2621 0009 4D       		.byte	77
 2622 000a 41       		.byte	65
 2623 000b 52       		.byte	82
 2624 000c 41       		.byte	65
 2625 000d 50       		.byte	80
 2626 000e 52       		.byte	82
 2627 000f 4D       		.byte	77
 2628 0010 41       		.byte	65
 2629 0011 59       		.byte	89
 2630 0012 4A       		.byte	74
ARM GAS  C:\Users\AHMED~1.ELE\AppData\Local\Temp\ccGujCBB.s 			page 65


 2631 0013 55       		.byte	85
 2632 0014 4E       		.byte	78
 2633 0015 4A       		.byte	74
 2634 0016 55       		.byte	85
 2635 0017 4C       		.byte	76
 2636 0018 41       		.byte	65
 2637 0019 55       		.byte	85
 2638 001a 47       		.byte	71
 2639 001b 53       		.byte	83
 2640 001c 45       		.byte	69
 2641 001d 50       		.byte	80
 2642 001e 4F       		.byte	79
 2643 001f 43       		.byte	67
 2644 0020 54       		.byte	84
 2645 0021 4E       		.byte	78
 2646 0022 4F       		.byte	79
 2647 0023 56       		.byte	86
 2648 0024 44       		.byte	68
 2649 0025 45       		.byte	69
 2650 0026 43       		.byte	67
 2651              		.section	.rodata.str1.1,"aMS",%progbits,1
 2652              	.LC0:
 2653 0000 2533642E 		.ascii	"%3d.%3d.%3d.%3d\000"
 2653      2533642E 
 2653      2533642E 
 2653      25336400 
 2654              	.LC1:
 2655 0010 252D3364 		.ascii	"%-3d\000"
 2655      00
 2656              	.LC2:
 2657 0015 256400   		.ascii	"%d\000"
 2658              	.LC3:
 2659 0018 4E6F7420 		.ascii	"Not A Valid Pointer!!\000"
 2659      41205661 
 2659      6C696420 
 2659      506F696E 
 2659      74657221 
 2660              	.LC4:
 2661 002e 4D656D6F 		.ascii	"Memory Error !\000"
 2661      72792045 
 2661      72726F72 
 2661      202100
 2662              	.LC5:
 2663 003d 46696C65 		.ascii	"File WR Err!\000"
 2663      20575220 
 2663      45727221 
 2663      00
 2664              	.LC6:
 2665 004a 43686563 		.ascii	"Check Lan Cable!\005\000"
 2665      6B204C61 
 2665      6E204361 
 2665      626C6521 
 2665      0500
 2666              	.LC7:
 2667 005c 57616974 		.ascii	"Waiting LAN DHCP..\005\000"
 2667      696E6720 
 2667      4C414E20 
ARM GAS  C:\Users\AHMED~1.ELE\AppData\Local\Temp\ccGujCBB.s 			page 66


 2667      44484350 
 2667      2E2E0500 
 2668              	.LC8:
 2669 0070 57696669 		.ascii	"Wifi AP Disconnected!\000"
 2669      20415020 
 2669      44697363 
 2669      6F6E6E65 
 2669      63746564 
 2670              	.LC9:
 2671 0086 57616974 		.ascii	"Waiting Wifi DHCP..\005\000"
 2671      696E6720 
 2671      57696669 
 2671      20444843 
 2671      502E2E05 
 2672              		.data
 2673              		.align	2
 2674              		.set	.LANCHOR2,. + 0
 2675              		.type	gHpState, %object
 2676              		.size	gHpState, 4
 2677              	gHpState:
 2678 0000 01000000 		.word	1
 2679              		.bss
 2680              		.align	2
 2681              		.set	.LANCHOR1,. + 0
 2682              		.type	ostatus.12154, %object
 2683              		.size	ostatus.12154, 4
 2684              	ostatus.12154:
 2685 0000 00000000 		.space	4
 2686              		.type	gHotPlugCnt, %object
 2687              		.size	gHotPlugCnt, 4
 2688              	gHotPlugCnt:
 2689 0004 00000000 		.space	4
 2690              		.text
 2691              	.Letext0:
 2692              		.file 2 "c:\\devtools\\gcc_v49_2014q4\\lib\\gcc\\arm-none-eabi\\4.9.3\\include\\stddef.h"
 2693              		.file 3 "../LibA5T1000/common.h"
 2694              		.file 4 "../LibA5T1000/system.h"
 2695              		.file 5 "../LibA5T1000/basecall.h"
 2696              		.file 6 "../LibA5T1000/midware.h"
 2697              		.file 7 "../LibA5T1000/apm.h"
 2698              		.file 8 "src/hardware.h"
 2699              		.file 9 "src/sysutil.h"
 2700              		.file 10 "c:\\devtools\\gcc_v49_2014q4\\arm-none-eabi\\include\\string.h"
 2701              		.file 11 "../LibA5T1000/util.h"
 2702              		.file 12 "c:\\devtools\\gcc_v49_2014q4\\arm-none-eabi\\include\\stdio.h"
 2703              		.file 13 "src/kbdutil.h"
 2704              		.file 14 "c:\\devtools\\gcc_v49_2014q4\\arm-none-eabi\\include\\stdlib.h"
 2705              		.file 15 "src/wifi.h"