ARM GAS  C:\Users\AHMED~1.ELE\AppData\Local\Temp\ccxPWhsV.s 			page 1


   1              		.syntax unified
   2              		.cpu cortex-a5
   3              		.fpu softvfp
   4              		.eabi_attribute 20, 1
   5              		.eabi_attribute 21, 1
   6              		.eabi_attribute 23, 3
   7              		.eabi_attribute 24, 1
   8              		.eabi_attribute 25, 1
   9              		.eabi_attribute 26, 1
  10              		.eabi_attribute 30, 4
  11              		.eabi_attribute 34, 0
  12              		.eabi_attribute 18, 4
  13              		.thumb
  14              		.file	"toggle.c"
  15              		.text
  16              	.Ltext0:
  17              		.cfi_sections	.debug_frame
  18              		.global	__aeabi_idivmod
  19              		.section	.text.ToggleOption,"ax",%progbits
  20              		.align	1
  21              		.global	ToggleOption
  22              		.thumb
  23              		.thumb_func
  24              		.type	ToggleOption, %function
  25              	ToggleOption:
  26              	.LFB0:
  27              		.file 1 "src/toggle.c"
   1:src/toggle.c  **** //-----------------------------------------------------------------------------
   2:src/toggle.c  **** //  File          : toggle.c
   3:src/toggle.c  **** //  Module        :
   4:src/toggle.c  **** //  Description   : Include Toggle Selection functions.
   5:src/toggle.c  **** //  Author        : Lewis
   6:src/toggle.c  **** //  Notes         :
   7:src/toggle.c  **** //
   8:src/toggle.c  **** // ============================================================================
   9:src/toggle.c  **** // | Naming conventions                                                       |
  10:src/toggle.c  **** // | ~~~~~~~~~~~~~~~~~~                                                       |
  11:src/toggle.c  **** // |         Struct/Array : Leading s                                         |
  12:src/toggle.c  **** // |             Constant : Leading K                                         |
  13:src/toggle.c  **** // |      Global Variable : Leading g  (variable use outside one C file)      |
  14:src/toggle.c  **** // |                                                                          |
  15:src/toggle.c  **** // |   BYTE( 8 Bits) size : Leading b                                         |
  16:src/toggle.c  **** // |   CHAR( 8 Bits) size : Leading c                                         |
  17:src/toggle.c  **** // |   WORD(16 Bits) size : Leading w                                         |
  18:src/toggle.c  **** // |  DWORD(32 Bits) size : Leading d                                         |
  19:src/toggle.c  **** // |    int(32 Bits) size : Leading i                                         |
  20:src/toggle.c  **** // | DDWORD(64 Bits) size : Leading dd                                        |
  21:src/toggle.c  **** // |              Pointer : Leading p                                         |
  22:src/toggle.c  **** // |                                                                          |
  23:src/toggle.c  **** // |    Function argument : Leading a                                         |
  24:src/toggle.c  **** // |       Local Variable : All lower case                                    |
  25:src/toggle.c  **** // |                                                                          |
  26:src/toggle.c  **** // | Examples:                                                                |
  27:src/toggle.c  **** // |                Array : Leading s, (sb = arrary of byte, etc)             |
  28:src/toggle.c  **** // |              Pointer : Leading p, (pb = pointer of byte, etc)            |
  29:src/toggle.c  **** // ============================================================================
  30:src/toggle.c  **** //
ARM GAS  C:\Users\AHMED~1.ELE\AppData\Local\Temp\ccxPWhsV.s 			page 2


  31:src/toggle.c  **** //  Date          Who         Action
  32:src/toggle.c  **** //  ------------  ----------- -------------------------------------------------
  33:src/toggle.c  **** //  29 Sept 2008  Lewis       Initial Version.
  34:src/toggle.c  **** //-----------------------------------------------------------------------------
  35:src/toggle.c  **** #include <string.h>
  36:src/toggle.c  **** #include "midware.h"
  37:src/toggle.c  **** #include "sysutil.h"
  38:src/toggle.c  **** #include "kbdutil.h"
  39:src/toggle.c  **** #include "toggle.h"
  40:src/toggle.c  **** 
  41:src/toggle.c  **** //-----------------------------------------------------------------------------
  42:src/toggle.c  **** //      Defines
  43:src/toggle.c  **** //-----------------------------------------------------------------------------
  44:src/toggle.c  **** 
  45:src/toggle.c  **** //-----------------------------------------------------------------------------
  46:src/toggle.c  **** //      Constants
  47:src/toggle.c  **** //-----------------------------------------------------------------------------
  48:src/toggle.c  **** const char *KInitMode[] =    { "SYNC  ", "ASYNC ", "TCP/IP", "GPRS  ", "AUX   ", "WIFI  ", NULL};
  49:src/toggle.c  **** #if (MCP_SUPPORT)
  50:src/toggle.c  **** const char *KInitModeBt[] =  { "SYNC  ", "ASYNC ", "TCP/IP", "GPRS  ", "AUX   ", "WIFI  ", "BT    "
  51:src/toggle.c  **** #endif
  52:src/toggle.c  **** const char *KDialMode[] =  { "TONE ", "PULSE", NULL};
  53:src/toggle.c  **** const char *KEnable[] =  {"Disable", " Enable", NULL};
  54:src/toggle.c  **** #if (PR608|R700)
  55:src/toggle.c  **** const char *KAuxPort[]     = { "NONE", "AUX1", "AUX2", NULL};
  56:src/toggle.c  **** const char *KAuxUsbPort[]  = { "NONE", "AUX1", "AUX2", "USB ", NULL};
  57:src/toggle.c  **** #elif (TIRO)
  58:src/toggle.c  **** const char *KAuxPort[]     = { "NONE", "AUXD", "AUX1", "AUX2", NULL};
  59:src/toggle.c  **** const char *KAuxUsbPort[]  = { "NONE", "AUXD", "AUX1", "AUX2", "USB ", NULL};
  60:src/toggle.c  **** #elif (T700|T800)
  61:src/toggle.c  **** const char *KAuxPort[]     = { "NONE", "AUX1", "AUXD", NULL};
  62:src/toggle.c  **** const char *KAuxUsbPort[]  = { "NONE", "AUX1", "AUXD", "USB ", NULL};
  63:src/toggle.c  **** #elif (T300|T810|A5T1000|T1000)
  64:src/toggle.c  **** const char *KAuxPort[]     = { "NONE", "AUX1", "AUXD", NULL};
  65:src/toggle.c  **** const char *KAuxUsbPort[]  = { "NONE", "AUX1", "AUXD", "USB ", "LAN ", NULL};
  66:src/toggle.c  **** const char *KAuxUsbWifiPort[]   = { "NONE", "AUX1", "AUXD", "USB ", "LAN ", "WIFI", NULL};
  67:src/toggle.c  **** #if (MCP_SUPPORT)
  68:src/toggle.c  **** const char *KAuxUsbWifiBtPort[] = { "NONE", "AUX1", "AUXD", "USB ", "LAN ", "WIFI", "BT  ", NULL};
  69:src/toggle.c  **** #endif
  70:src/toggle.c  **** #elif (PR608D)
  71:src/toggle.c  **** const char *KAuxPort[]     = { "NONE", "ECR1", "ECR2", NULL};
  72:src/toggle.c  **** const char *KAuxUsbPort[]  = { "NONE", "ECR1", "ECR2", NULL};
  73:src/toggle.c  **** #elif (PR500)
  74:src/toggle.c  **** const char *KAuxPort[]     = { "NONE", "AUXD", NULL};
  75:src/toggle.c  **** const char *KAuxUsbPort[]  = { "NONE", "AUXD", NULL};
  76:src/toggle.c  **** #else
  77:src/toggle.c  **** NEW_TERMINAL_HERE
  78:src/toggle.c  **** #endif
  79:src/toggle.c  **** const char *KYesNo[]       = { "YES", "NO ", NULL};
  80:src/toggle.c  **** const char *KSimSel[]      = { "01", "02", NULL};
  81:src/toggle.c  **** const char *KFTPInitMode[] = { "DIAL  ", "TCP/IP", "GPRS  ", "WIFI  ", NULL};    //29-09-16 JC ++
  82:src/toggle.c  **** 
  83:src/toggle.c  **** //*****************************************************************************
  84:src/toggle.c  **** //  Function        : ToggleOption
  85:src/toggle.c  **** //  Description     : Prompt user to toggle option.
  86:src/toggle.c  **** //  Input           : aMsg;         // message to display
  87:src/toggle.c  **** //                    aOptTbl;      // Pointer to Option Table
ARM GAS  C:\Users\AHMED~1.ELE\AppData\Local\Temp\ccxPWhsV.s 			page 3


  88:src/toggle.c  **** //                    aCurVal;      // current option & Display Mode
  89:src/toggle.c  **** //  Return          : user select option.
  90:src/toggle.c  **** //  Note            : N/A
  91:src/toggle.c  **** //  Globals Changed : N/A
  92:src/toggle.c  **** //*****************************************************************************
  93:src/toggle.c  **** char ToggleOption(const char *aMsg, const char **aOptTbl, DWORD aCurVal)
  94:src/toggle.c  **** {
  28              		.loc 1 94 0
  29              		.cfi_startproc
  30              		@ args = 0, pretend = 0, frame = 0
  31              		@ frame_needed = 0, uses_anonymous_args = 0
  32              	.LVL0:
  33 0000 2DE9F347 		push	{r0, r1, r4, r5, r6, r7, r8, r9, r10, lr}
  34              		.cfi_def_cfa_offset 40
  35              		.cfi_offset 4, -32
  36              		.cfi_offset 5, -28
  37              		.cfi_offset 6, -24
  38              		.cfi_offset 7, -20
  39              		.cfi_offset 8, -16
  40              		.cfi_offset 9, -12
  41              		.cfi_offset 10, -8
  42              		.cfi_offset 14, -4
  43              		.loc 1 94 0
  44 0004 0023     		movs	r3, #0
  45 0006 0746     		mov	r7, r0
  46 0008 0E46     		mov	r6, r1
  47              	.LVL1:
  48              	.L3:
  95:src/toggle.c  ****   BYTE max_opt, max_len, len;
  96:src/toggle.c  ****   BYTE cur_val;
  97:src/toggle.c  ****   DWORD mode;
  98:src/toggle.c  **** 
  99:src/toggle.c  **** 
 100:src/toggle.c  ****   // Find Max Option & Len;
 101:src/toggle.c  ****   max_len = 0;
 102:src/toggle.c  ****   for (max_opt = 0; max_opt < MAX_OPTION_LIST; max_opt++) {
 103:src/toggle.c  ****     if (aOptTbl[max_opt] == NULL)
  49              		.loc 1 103 0
  50 000a 56F82310 		ldr	r1, [r6, r3, lsl #2]
  51 000e 5FFA83F8 		uxtb	r8, r3
  52              	.LVL2:
  53 0012 19B1     		cbz	r1, .L2
  54              	.LVL3:
  55 0014 0133     		adds	r3, r3, #1
  56              	.LVL4:
 102:src/toggle.c  ****     if (aOptTbl[max_opt] == NULL)
  57              		.loc 1 102 0 discriminator 2
  58 0016 0A2B     		cmp	r3, #10
  59 0018 F7D1     		bne	.L3
  60 001a 9846     		mov	r8, r3
  61              	.LVL5:
  62              	.L2:
 104:src/toggle.c  ****       break;
 105:src/toggle.c  ****     len = strlen(aOptTbl[max_opt]);
 106:src/toggle.c  ****     max_len = max_len < len ? len : max_len;
 107:src/toggle.c  ****   }
 108:src/toggle.c  **** 
ARM GAS  C:\Users\AHMED~1.ELE\AppData\Local\Temp\ccxPWhsV.s 			page 4


 109:src/toggle.c  **** 
 110:src/toggle.c  ****   cur_val = (BYTE)(aCurVal & 0xFF);
  63              		.loc 1 110 0
  64 001c D4B2     		uxtb	r4, r2
  65              	.LVL6:
 111:src/toggle.c  ****   mode    = aCurVal & 0xFF00;
  66              		.loc 1 111 0
  67 001e 02F47F45 		and	r5, r2, #65280
  68              	.LVL7:
 112:src/toggle.c  ****   if (cur_val > max_opt)
 113:src/toggle.c  ****     cur_val = 0;
  69              		.loc 1 113 0
  70 0022 4445     		cmp	r4, r8
  71 0024 88BF     		it	hi
  72 0026 0024     		movhi	r4, #0
  73              	.LVL8:
 114:src/toggle.c  **** 
 115:src/toggle.c  ****   if (aMsg != NULL) {
  74              		.loc 1 115 0
  75 0028 BFB3     		cbz	r7, .L9
  76              	.LBB2:
 116:src/toggle.c  ****     if (mode == TOGGLE_MODE_4LINE) {
 117:src/toggle.c  ****       DispLineMW(aMsg, MW_LINE5, MW_BIGFONT);
  77              		.loc 1 117 0
  78 002a 3846     		mov	r0, r7
  79              	.LVL9:
  80              	.LBE2:
 116:src/toggle.c  ****     if (mode == TOGGLE_MODE_4LINE) {
  81              		.loc 1 116 0
  82 002c C5B9     		cbnz	r5, .L7
  83              	.LVL10:
  84              	.LBB3:
  85              		.loc 1 117 0
  86 002e FFF7FEFF 		bl	strlen
  87              	.LVL11:
  88 0032 8246     		mov	r10, r0
  89              	.LVL12:
  90 0034 0AF10101 		add	r1, r10, #1
  91 0038 9220     		movs	r0, #146
  92              	.LVL13:
  93 003a FFF7FEFF 		bl	sys_func1
  94              	.LVL14:
  95 003e 8146     		mov	r9, r0
  96 0040 58B3     		cbz	r0, .L9
  97              		.loc 1 117 0 is_stmt 0 discriminator 1
  98 0042 3946     		mov	r1, r7
  99 0044 5246     		mov	r2, r10
 100 0046 FFF7FEFF 		bl	memcpy
 101              	.LVL15:
 102 004a 4FF48053 		mov	r3, #4096
 103 004e 09F80A50 		strb	r5, [r9, r10]
 104 0052 0F20     		movs	r0, #15
 105 0054 0093     		str	r3, [sp]
 106 0056 2521     		movs	r1, #37
 107 0058 4A46     		mov	r2, r9
 108 005a 4FF4A063 		mov	r3, #1280
 109 005e 16E0     		b	.L40
ARM GAS  C:\Users\AHMED~1.ELE\AppData\Local\Temp\ccxPWhsV.s 			page 5


 110              	.LVL16:
 111              	.L7:
 112              	.LBE3:
 113              	.LBB4:
 118:src/toggle.c  ****     }
 119:src/toggle.c  ****     else {
 120:src/toggle.c  ****       DispLineMW(aMsg, MW_LINE7, MW_SMFONT);
 114              		.loc 1 120 0 is_stmt 1
 115 0060 FFF7FEFF 		bl	strlen
 116              	.LVL17:
 117 0064 8246     		mov	r10, r0
 118              	.LVL18:
 119 0066 0AF10101 		add	r1, r10, #1
 120 006a 9220     		movs	r0, #146
 121              	.LVL19:
 122 006c FFF7FEFF 		bl	sys_func1
 123              	.LVL20:
 124 0070 8146     		mov	r9, r0
 125 0072 90B1     		cbz	r0, .L9
 126              		.loc 1 120 0 is_stmt 0 discriminator 1
 127 0074 3946     		mov	r1, r7
 128 0076 5246     		mov	r2, r10
 129 0078 FFF7FEFF 		bl	memcpy
 130              	.LVL21:
 131 007c 0023     		movs	r3, #0
 132 007e 0F20     		movs	r0, #15
 133 0080 09F80A30 		strb	r3, [r9, r10]
 134 0084 2521     		movs	r1, #37
 135 0086 0093     		str	r3, [sp]
 136 0088 4A46     		mov	r2, r9
 137 008a 4FF4E063 		mov	r3, #1792
 138              	.LVL22:
 139              	.L40:
 140 008e FFF7FEFF 		bl	lib_app_call
 141              	.LVL23:
 142 0092 9420     		movs	r0, #148
 143 0094 4946     		mov	r1, r9
 144 0096 FFF7FEFF 		bl	sys_func1
 145              	.LVL24:
 146              	.L9:
 147 009a 27B2     		sxth	r7, r4
 148              	.LBE4:
 149              	.LBB5:
 121:src/toggle.c  ****     }
 122:src/toggle.c  ****   }
 123:src/toggle.c  ****   while (1) {
 124:src/toggle.c  ****     if (mode == TOGGLE_MODE_4LINE) {
 125:src/toggle.c  ****       DispLineMW(aOptTbl[cur_val], MW_LINE7, MW_REVERSE|MW_RIGHT|MW_BIGFONT);
 150              		.loc 1 125 0 is_stmt 1
 151 009c 56F82700 		ldr	r0, [r6, r7, lsl #2]
 152              	.LBE5:
 124:src/toggle.c  ****       DispLineMW(aOptTbl[cur_val], MW_LINE7, MW_REVERSE|MW_RIGHT|MW_BIGFONT);
 153              		.loc 1 124 0
 154 00a0 CDB9     		cbnz	r5, .L10
 155              	.LBB6:
 156              		.loc 1 125 0
 157 00a2 FFF7FEFF 		bl	strlen
ARM GAS  C:\Users\AHMED~1.ELE\AppData\Local\Temp\ccxPWhsV.s 			page 6


 158              	.LVL25:
 159 00a6 8246     		mov	r10, r0
 160              	.LVL26:
 161 00a8 0AF10101 		add	r1, r10, #1
 162 00ac 9220     		movs	r0, #146
 163              	.LVL27:
 164 00ae FFF7FEFF 		bl	sys_func1
 165              	.LVL28:
 166 00b2 8146     		mov	r9, r0
 167 00b4 70B3     		cbz	r0, .L12
 168              		.loc 1 125 0 is_stmt 0 discriminator 1
 169 00b6 56F82710 		ldr	r1, [r6, r7, lsl #2]
 170 00ba 5246     		mov	r2, r10
 171 00bc FFF7FEFF 		bl	memcpy
 172              	.LVL29:
 173 00c0 41F21103 		movw	r3, #4113
 174 00c4 09F80A50 		strb	r5, [r9, r10]
 175 00c8 0F20     		movs	r0, #15
 176 00ca 0093     		str	r3, [sp]
 177 00cc 2521     		movs	r1, #37
 178 00ce 4A46     		mov	r2, r9
 179 00d0 4FF4E063 		mov	r3, #1792
 180 00d4 18E0     		b	.L41
 181              	.LVL30:
 182              	.L10:
 183              	.LBE6:
 184              	.LBB7:
 126:src/toggle.c  ****     }
 127:src/toggle.c  ****     else {
 128:src/toggle.c  ****       DispLineMW(aOptTbl[cur_val], MW_LINE8, MW_REVERSE|MW_RIGHT|MW_SMFONT);
 185              		.loc 1 128 0 is_stmt 1
 186 00d6 FFF7FEFF 		bl	strlen
 187              	.LVL31:
 188 00da 8246     		mov	r10, r0
 189              	.LVL32:
 190 00dc 0AF10101 		add	r1, r10, #1
 191 00e0 9220     		movs	r0, #146
 192              	.LVL33:
 193 00e2 FFF7FEFF 		bl	sys_func1
 194              	.LVL34:
 195 00e6 8146     		mov	r9, r0
 196 00e8 A0B1     		cbz	r0, .L12
 197              		.loc 1 128 0 is_stmt 0 discriminator 1
 198 00ea 56F82710 		ldr	r1, [r6, r7, lsl #2]
 199 00ee 5246     		mov	r2, r10
 200 00f0 FFF7FEFF 		bl	memcpy
 201              	.LVL35:
 202 00f4 0023     		movs	r3, #0
 203 00f6 0F20     		movs	r0, #15
 204 00f8 09F80A30 		strb	r3, [r9, r10]
 205 00fc 1123     		movs	r3, #17
 206 00fe 2521     		movs	r1, #37
 207 0100 0093     		str	r3, [sp]
 208 0102 4A46     		mov	r2, r9
 209 0104 4FF40063 		mov	r3, #2048
 210              	.LVL36:
 211              	.L41:
ARM GAS  C:\Users\AHMED~1.ELE\AppData\Local\Temp\ccxPWhsV.s 			page 7


 212 0108 FFF7FEFF 		bl	lib_app_call
 213              	.LVL37:
 214 010c 9420     		movs	r0, #148
 215 010e 4946     		mov	r1, r9
 216 0110 FFF7FEFF 		bl	sys_func1
 217              	.LVL38:
 218              	.L12:
 219              	.LBE7:
 129:src/toggle.c  ****     }
 130:src/toggle.c  ****     switch (WaitKey(KBD_TIMEOUT)) {
 220              		.loc 1 130 0 is_stmt 1
 221 0114 42F22830 		movw	r0, #9000
 222 0118 FFF7FEFF 		bl	WaitKey
 223              	.LVL39:
 224 011c 1128     		cmp	r0, #17
 225 011e 11D0     		beq	.L20
 226 0120 01D8     		bhi	.L16
 227 0122 1028     		cmp	r0, #16
 228 0124 02E0     		b	.L42
 229              	.L16:
 230 0126 1228     		cmp	r0, #18
 231 0128 03D0     		beq	.L18
 232 012a 4D28     		cmp	r0, #77
 233              	.L42:
 234 012c 07D1     		bne	.L14
 131:src/toggle.c  ****       case MWKEY_ENTER:
 132:src/toggle.c  ****       case MWKEY_SELECT:
 133:src/toggle.c  ****         return(cur_val);
 235              		.loc 1 133 0
 236 012e E0B2     		uxtb	r0, r4
 237 0130 09E0     		b	.L15
 238              	.L18:
 134:src/toggle.c  ****       case MWKEY_CANCL:
 135:src/toggle.c  ****         return -1;
 136:src/toggle.c  ****       case MWKEY_CLR:
 137:src/toggle.c  ****         cur_val = (cur_val+1)%max_opt;
 239              		.loc 1 137 0
 240 0132 601C     		adds	r0, r4, #1
 241 0134 4146     		mov	r1, r8
 242 0136 FFF7FEFF 		bl	__aeabi_idivmod
 243              	.LVL40:
 244 013a CCB2     		uxtb	r4, r1
 245              	.LVL41:
 138:src/toggle.c  ****         break;
 246              		.loc 1 138 0
 247 013c ADE7     		b	.L9
 248              	.L14:
 139:src/toggle.c  ****       default:
 140:src/toggle.c  ****         LongBeep();
 249              		.loc 1 140 0
 250 013e FFF7FEFF 		bl	LongBeep
 251              	.LVL42:
 252 0142 AAE7     		b	.L9
 253              	.L20:
 135:src/toggle.c  ****       case MWKEY_CLR:
 254              		.loc 1 135 0
 255 0144 FF20     		movs	r0, #255
ARM GAS  C:\Users\AHMED~1.ELE\AppData\Local\Temp\ccxPWhsV.s 			page 8


 256              	.L15:
 141:src/toggle.c  ****     }
 142:src/toggle.c  ****   }
 143:src/toggle.c  **** }
 257              		.loc 1 143 0
 258 0146 40B2     		sxtb	r0, r0
 259 0148 02B0     		add	sp, sp, #8
 260              		.cfi_def_cfa_offset 32
 261              		@ sp needed
 262 014a BDE8F087 		pop	{r4, r5, r6, r7, r8, r9, r10, pc}
 263              		.cfi_endproc
 264              	.LFE0:
 265              		.size	ToggleOption, .-ToggleOption
 266              		.section	.text.ToggleYesNo,"ax",%progbits
 267              		.align	1
 268              		.global	ToggleYesNo
 269              		.thumb
 270              		.thumb_func
 271              		.type	ToggleYesNo, %function
 272              	ToggleYesNo:
 273              	.LFB1:
 144:src/toggle.c  **** //*****************************************************************************
 145:src/toggle.c  **** //  Function        : ToggleYesNo
 146:src/toggle.c  **** //  Description     : Wait user to select YES or NO.
 147:src/toggle.c  **** //  Input           : N/A
 148:src/toggle.c  **** //  Return          : 0 - Cancel key pressed,
 149:src/toggle.c  **** //                    1 - No Select
 150:src/toggle.c  **** //                    2 - Yes Select
 151:src/toggle.c  **** //  Note            : N/A
 152:src/toggle.c  **** //  Globals Changed : N/A
 153:src/toggle.c  **** //*****************************************************************************
 154:src/toggle.c  **** DWORD ToggleYesNo(void)
 155:src/toggle.c  **** {
 274              		.loc 1 155 0
 275              		.cfi_startproc
 276              		@ args = 0, pretend = 0, frame = 0
 277              		@ frame_needed = 0, uses_anonymous_args = 0
 156:src/toggle.c  ****   DWORD ret;
 157:src/toggle.c  ****   char select = ToggleOption(NULL, KYesNo, 0);
 278              		.loc 1 157 0
 279 0000 0020     		movs	r0, #0
 155:src/toggle.c  ****   DWORD ret;
 280              		.loc 1 155 0
 281 0002 08B5     		push	{r3, lr}
 282              		.cfi_def_cfa_offset 8
 283              		.cfi_offset 3, -8
 284              		.cfi_offset 14, -4
 285              		.loc 1 157 0
 286 0004 0549     		ldr	r1, .L49
 287 0006 0246     		mov	r2, r0
 288 0008 FFF7FEFF 		bl	ToggleOption
 289              	.LVL43:
 158:src/toggle.c  **** 
 159:src/toggle.c  ****   switch (select) {
 290              		.loc 1 159 0
 291 000c 18B1     		cbz	r0, .L48
 160:src/toggle.c  ****     case 0: // Yes
ARM GAS  C:\Users\AHMED~1.ELE\AppData\Local\Temp\ccxPWhsV.s 			page 9


 161:src/toggle.c  ****       ret = 2;
 162:src/toggle.c  ****       break;
 163:src/toggle.c  ****     case 1: // No
 164:src/toggle.c  ****       ret = 1;
 165:src/toggle.c  ****       break;
 166:src/toggle.c  ****     default:
 167:src/toggle.c  ****       ret = 0;
 292              		.loc 1 167 0
 293 000e 431E     		subs	r3, r0, #1
 294 0010 5842     		rsbs	r0, r3, #0
 295              	.LVL44:
 296 0012 5841     		adcs	r0, r0, r3
 297 0014 08BD     		pop	{r3, pc}
 298              	.LVL45:
 299              	.L48:
 161:src/toggle.c  ****       break;
 300              		.loc 1 161 0
 301 0016 0220     		movs	r0, #2
 302              	.LVL46:
 168:src/toggle.c  ****       break;
 169:src/toggle.c  ****   }
 170:src/toggle.c  ****   return ret;
 171:src/toggle.c  **** }
 303              		.loc 1 171 0
 304 0018 08BD     		pop	{r3, pc}
 305              	.L50:
 306 001a 00BF     		.align	2
 307              	.L49:
 308 001c 00000000 		.word	.LANCHOR0
 309              		.cfi_endproc
 310              	.LFE1:
 311              		.size	ToggleYesNo, .-ToggleYesNo
 312              		.global	KFTPInitMode
 313              		.global	KSimSel
 314              		.global	KYesNo
 315              		.global	KAuxUsbWifiPort
 316              		.global	KAuxUsbPort
 317              		.global	KAuxPort
 318              		.global	KEnable
 319              		.global	KDialMode
 320              		.global	KInitMode
 321              		.section	.rodata.str1.1,"aMS",%progbits,1
 322              	.LC0:
 323 0000 4449414C 		.ascii	"DIAL  \000"
 323      202000
 324              	.LC1:
 325 0007 5443502F 		.ascii	"TCP/IP\000"
 325      495000
 326              	.LC2:
 327 000e 47505253 		.ascii	"GPRS  \000"
 327      202000
 328              	.LC3:
 329 0015 57494649 		.ascii	"WIFI  \000"
 329      202000
 330              	.LC4:
 331 001c 303100   		.ascii	"01\000"
 332              	.LC5:
ARM GAS  C:\Users\AHMED~1.ELE\AppData\Local\Temp\ccxPWhsV.s 			page 10


 333 001f 303200   		.ascii	"02\000"
 334              	.LC6:
 335 0022 59455300 		.ascii	"YES\000"
 336              	.LC7:
 337 0026 4E4F2000 		.ascii	"NO \000"
 338              	.LC8:
 339 002a 4E4F4E45 		.ascii	"NONE\000"
 339      00
 340              	.LC9:
 341 002f 41555831 		.ascii	"AUX1\000"
 341      00
 342              	.LC10:
 343 0034 41555844 		.ascii	"AUXD\000"
 343      00
 344              	.LC11:
 345 0039 55534220 		.ascii	"USB \000"
 345      00
 346              	.LC12:
 347 003e 4C414E20 		.ascii	"LAN \000"
 347      00
 348              	.LC13:
 349 0043 57494649 		.ascii	"WIFI\000"
 349      00
 350              	.LC14:
 351 0048 44697361 		.ascii	"Disable\000"
 351      626C6500 
 352              	.LC15:
 353 0050 20456E61 		.ascii	" Enable\000"
 353      626C6500 
 354              	.LC16:
 355 0058 544F4E45 		.ascii	"TONE \000"
 355      2000
 356              	.LC17:
 357 005e 50554C53 		.ascii	"PULSE\000"
 357      4500
 358              	.LC18:
 359 0064 53594E43 		.ascii	"SYNC  \000"
 359      202000
 360              	.LC19:
 361 006b 4153594E 		.ascii	"ASYNC \000"
 361      432000
 362              	.LC20:
 363 0072 41555820 		.ascii	"AUX   \000"
 363      202000
 364              		.data
 365              		.align	2
 366              		.set	.LANCHOR0,. + 0
 367              		.type	KYesNo, %object
 368              		.size	KYesNo, 12
 369              	KYesNo:
 370 0000 22000000 		.word	.LC6
 371 0004 26000000 		.word	.LC7
 372 0008 00000000 		.word	0
 373              		.type	KFTPInitMode, %object
 374              		.size	KFTPInitMode, 20
 375              	KFTPInitMode:
 376 000c 00000000 		.word	.LC0
ARM GAS  C:\Users\AHMED~1.ELE\AppData\Local\Temp\ccxPWhsV.s 			page 11


 377 0010 07000000 		.word	.LC1
 378 0014 0E000000 		.word	.LC2
 379 0018 15000000 		.word	.LC3
 380 001c 00000000 		.word	0
 381              		.type	KSimSel, %object
 382              		.size	KSimSel, 12
 383              	KSimSel:
 384 0020 1C000000 		.word	.LC4
 385 0024 1F000000 		.word	.LC5
 386 0028 00000000 		.word	0
 387              		.type	KAuxUsbWifiPort, %object
 388              		.size	KAuxUsbWifiPort, 28
 389              	KAuxUsbWifiPort:
 390 002c 2A000000 		.word	.LC8
 391 0030 2F000000 		.word	.LC9
 392 0034 34000000 		.word	.LC10
 393 0038 39000000 		.word	.LC11
 394 003c 3E000000 		.word	.LC12
 395 0040 43000000 		.word	.LC13
 396 0044 00000000 		.word	0
 397              		.type	KAuxUsbPort, %object
 398              		.size	KAuxUsbPort, 24
 399              	KAuxUsbPort:
 400 0048 2A000000 		.word	.LC8
 401 004c 2F000000 		.word	.LC9
 402 0050 34000000 		.word	.LC10
 403 0054 39000000 		.word	.LC11
 404 0058 3E000000 		.word	.LC12
 405 005c 00000000 		.word	0
 406              		.type	KAuxPort, %object
 407              		.size	KAuxPort, 16
 408              	KAuxPort:
 409 0060 2A000000 		.word	.LC8
 410 0064 2F000000 		.word	.LC9
 411 0068 34000000 		.word	.LC10
 412 006c 00000000 		.word	0
 413              		.type	KEnable, %object
 414              		.size	KEnable, 12
 415              	KEnable:
 416 0070 48000000 		.word	.LC14
 417 0074 50000000 		.word	.LC15
 418 0078 00000000 		.word	0
 419              		.type	KDialMode, %object
 420              		.size	KDialMode, 12
 421              	KDialMode:
 422 007c 58000000 		.word	.LC16
 423 0080 5E000000 		.word	.LC17
 424 0084 00000000 		.word	0
 425              		.type	KInitMode, %object
 426              		.size	KInitMode, 28
 427              	KInitMode:
 428 0088 64000000 		.word	.LC18
 429 008c 6B000000 		.word	.LC19
 430 0090 07000000 		.word	.LC1
 431 0094 0E000000 		.word	.LC2
 432 0098 72000000 		.word	.LC20
 433 009c 15000000 		.word	.LC3
ARM GAS  C:\Users\AHMED~1.ELE\AppData\Local\Temp\ccxPWhsV.s 			page 12


 434 00a0 00000000 		.word	0
 435              		.text
 436              	.Letext0:
 437              		.file 2 "c:\\devtools\\gcc_v49_2014q4\\lib\\gcc\\arm-none-eabi\\4.9.3\\include\\stddef.h"
 438              		.file 3 "../LibA5T1000/common.h"
 439              		.file 4 "../LibA5T1000/system.h"
 440              		.file 5 "../LibA5T1000/midware.h"
 441              		.file 6 "c:\\devtools\\gcc_v49_2014q4\\arm-none-eabi\\include\\string.h"
 442              		.file 7 "src/kbdutil.h"
 443              		.file 8 "src/sysutil.h"