ARM GAS  C:\Users\AHMED~1.ELE\AppData\Local\Temp\ccaBET3e.s 			page 1


   1              		.syntax unified
   2              		.cpu cortex-a5
   3              		.fpu softvfp
   4              		.eabi_attribute 20, 1
   5              		.eabi_attribute 21, 1
   6              		.eabi_attribute 23, 3
   7              		.eabi_attribute 24, 1
   8              		.eabi_attribute 25, 1
   9              		.eabi_attribute 26, 1
  10              		.eabi_attribute 30, 4
  11              		.eabi_attribute 34, 0
  12              		.eabi_attribute 18, 4
  13              		.thumb
  14              		.file	"x509.c"
  15              		.text
  16              	.Ltext0:
  17              		.cfi_sections	.debug_frame
  18              		.section	.text.oid_to_hash_value,"ax",%progbits
  19              		.align	1
  20              		.thumb
  21              		.thumb_func
  22              		.type	oid_to_hash_value, %function
  23              	oid_to_hash_value:
  24              	.LFB0:
  25              		.file 1 "src/x509.c"
   1:src/x509.c    **** /*
   2:src/x509.c    **** ************************************
   3:src/x509.c    **** *       Module : x509.c            *
   4:src/x509.c    **** *       Name   : TF                *
   5:src/x509.c    **** *       Date   : 31-01-2013        *
   6:src/x509.c    **** ************************************
   7:src/x509.c    **** */
   8:src/x509.c    **** /*==========================================================================*/
   9:src/x509.c    **** /* Naming conventions                                                       */
  10:src/x509.c    **** /* ~~~~~~~~~~~~~~~~~~                                                       */
  11:src/x509.c    **** /*         Class define : Leading C                                         */
  12:src/x509.c    **** /*        Struct define : Leading T                                         */
  13:src/x509.c    **** /*               Struct : Leading s                                         */
  14:src/x509.c    **** /*               Class  : Leading c                                         */
  15:src/x509.c    **** /*             Constant : Leading K                                         */
  16:src/x509.c    **** /*      Global Variable : Leading g                                         */
  17:src/x509.c    **** /*    Function argument : Leading a                                         */
  18:src/x509.c    **** /*       Local Variable : All lower case                                    */
  19:src/x509.c    **** /*            Byte size : Leading b                                         */
  20:src/x509.c    **** /*            Word size : Leading w                                         */
  21:src/x509.c    **** /*           Dword size : Leading d                                         */
  22:src/x509.c    **** /*              Pointer : Leading p                                         */
  23:src/x509.c    **** /*==========================================================================*/
  24:src/x509.c    **** 
  25:src/x509.c    **** /* ----------------------------------------------------------------------
  26:src/x509.c    ****  * Revision History
  27:src/x509.c    ****  * ----------------------------------------------------------------------
  28:src/x509.c    ****  * 22 Jan 2015 - Kong
  29:src/x509.c    ****  *   1. remove certificate verification code from x509_parse_cert().
  30:src/x509.c    ****  *   2. add x509_verify_cert_by_key() and x509_verify_cert_by_cert()
  31:src/x509.c    ****  *      for certificate verficiation against system injected CA public
  32:src/x509.c    ****  *      key and its signer CA for chained certification scenario.
ARM GAS  C:\Users\AHMED~1.ELE\AppData\Local\Temp\ccaBET3e.s 			page 2


  33:src/x509.c    ****  *   3. re-enable parsing BasicConstraint and KeyUsage extension info.
  34:src/x509.c    ****  *   4. add support of RSASSA-PSS signature padding scheme.
  35:src/x509.c    ****  *   5. add support of the following signature algorithm,
  36:src/x509.c    ****  *      a. sha224WithRSAEncryption,
  37:src/x509.c    ****  *      b. sha256WithRSAEncryption,
  38:src/x509.c    ****  *      c. sha384WithRSAEncryption, and
  39:src/x509.c    ****  *      d, sha512WithRSAEncryption.
  40:src/x509.c    ****  *   6. return BasicConstraint::CA boolean result for classification of
  41:src/x509.c    ****  *      the subject being a CA.
  42:src/x509.c    ****  *   7. return SHA1 digest of subject and isser distinguished name info
  43:src/x509.c    ****  *      for chained certificate verification and self-signed certificate
  44:src/x509.c    ****  *      recognition.
  45:src/x509.c    ****  *
  46:src/x509.c    ****  * 16 Feb 2015 - Kong
  47:src/x509.c    ****  *   1. Release server's certificate public key length constrain to 4096
  48:src/x509.c    ****  *      since RSA routine implemented in system can support public key
  49:src/x509.c    ****  *      lenght up to 4096 bits.
  50:src/x509.c    ****  * ---------------------------------------------------------------------- */
  51:src/x509.c    **** 
  52:src/x509.c    **** #include <string.h>
  53:src/x509.c    **** #include "system.h"
  54:src/x509.c    **** #include "x509.h"
  55:src/x509.c    **** #include "hashops.h"
  56:src/x509.c    **** 
  57:src/x509.c    **** /* #define KONG_DEBUG_X509_MODULE */
  58:src/x509.c    **** 
  59:src/x509.c    **** #if defined(KONG_DEBUG_X509_MODULE)
  60:src/x509.c    **** #include "ssl_tls_utils.h"
  61:src/x509.c    **** #endif
  62:src/x509.c    **** 
  63:src/x509.c    **** #if defined(KONG_DEBUG_X509_MODULE)
  64:src/x509.c    **** #define THIS_DBG_LVL   4
  65:src/x509.c    **** #define dbg_printf(...)      SslTlsUtils_TraceLog_Printf(THIS_DBG_LVL,__VA_ARGS__)
  66:src/x509.c    **** #define dbg_hexvect(v,l)     SslTlsUtils_TraceLog_Hexvect(THIS_DBG_LVL,(v),(l))
  67:src/x509.c    **** #define dbg_hexdump(v,l)     SslTlsUtils_TraceLog_Hexdump(THIS_DBG_LVL,(v),(l))
  68:src/x509.c    **** #define dbg_println()        SslTlsUtils_TraceLog_Printf(THIS_DBG_LVL,"\r\n")
  69:src/x509.c    **** #else
  70:src/x509.c    **** #define dbg_printf(...)      do {} while (0)
  71:src/x509.c    **** #define dbg_hexvect(v,l)     do {} while (0)
  72:src/x509.c    **** #define dbg_hexdump(v,l)     do {} while (0)
  73:src/x509.c    **** #define dbg_println()        do {} while (0)
  74:src/x509.c    **** #endif
  75:src/x509.c    **** 
  76:src/x509.c    **** /* MACROS to wrap key routines based on platform difference */
  77:src/x509.c    **** #define EXEC_RSA(x,y)             os_rsa((x),(y))
  78:src/x509.c    **** #define EXEC_SHA1_INIT(x)         os_sha1_init((x))
  79:src/x509.c    **** #define EXEC_SHA1_UPDATE(x,y,z)   os_sha1_process((x),(y),(z))
  80:src/x509.c    **** #define EXEC_SHA1_FINISH(x,y)     os_sha1_finish((x),(y))
  81:src/x509.c    **** #define EXEC_RTC_GET(x)           os_rtc_get((x))
  82:src/x509.c    **** 
  83:src/x509.c    **** 
  84:src/x509.c    **** /* Kong: we are interested in keyUsage extension info */
  85:src/x509.c    **** #define USE_FULL_CERT_PARSE
  86:src/x509.c    **** /* #define USE_FULL_CERT_PARSE_AUTHKEYID */
  87:src/x509.c    **** #define USE_FULL_CERT_PARSE_KEYUSAGE
  88:src/x509.c    **** /* #define USE_FULL_CERT_PARSE_SUBJKEYID */
  89:src/x509.c    **** 
ARM GAS  C:\Users\AHMED~1.ELE\AppData\Local\Temp\ccaBET3e.s 			page 3


  90:src/x509.c    **** #define USE_OID_HASH_TYPE   1   /* use new OID string hash function */
  91:src/x509.c    **** //#define USE_OID_HASH_TYPE   0   /* use old OID string hash function */
  92:src/x509.c    **** 
  93:src/x509.c    **** #define K_AsnPrimitive            0x00
  94:src/x509.c    **** #define K_AsnConstructed          0x20
  95:src/x509.c    **** 
  96:src/x509.c    **** #define K_AsnUniversal            0x00
  97:src/x509.c    **** #define K_AsnApplication          0x40
  98:src/x509.c    **** #define K_AsnContextSpecific      0x80
  99:src/x509.c    **** #define K_AsnPrivate              0xC0
 100:src/x509.c    **** 
 101:src/x509.c    **** #define K_AsnBoolean              1
 102:src/x509.c    **** #define K_AsnInteger              2
 103:src/x509.c    **** #define K_AsnBitString            3
 104:src/x509.c    **** #define K_AsnOctetString          4
 105:src/x509.c    **** #define K_AsnNull                 5
 106:src/x509.c    **** #define K_AsnOId                  6
 107:src/x509.c    **** #define K_AsnUtf8String           12
 108:src/x509.c    **** #define K_AsnSequence             16
 109:src/x509.c    **** #define K_AsnSet                  17
 110:src/x509.c    **** #define K_AsnPrintableString      19
 111:src/x509.c    **** #define K_AsnT61String            20
 112:src/x509.c    **** #define K_AsnIa5String            22
 113:src/x509.c    **** #define K_AsnUtcTime              23
 114:src/x509.c    **** #define K_AsnGeneralizedTime      24
 115:src/x509.c    **** 
 116:src/x509.c    **** #define K_AttribCountryName       6
 117:src/x509.c    **** #define K_AttribLocality          7
 118:src/x509.c    **** #define K_AttribOrganization      10
 119:src/x509.c    **** #define K_AttribOrgUnit           11
 120:src/x509.c    **** #define K_AttribDnQualifier       46
 121:src/x509.c    **** #define K_AttribStateProvince     8
 122:src/x509.c    **** #define K_AttribCommonName        3
 123:src/x509.c    **** // syspack V1.2 9-7-2012
 124:src/x509.c    **** #define K_AttribSerialNumber      5
 125:src/x509.c    **** 
 126:src/x509.c    **** #define K_ImplicitIssuerId        1
 127:src/x509.c    **** #define K_ImplicitSubjectId       2
 128:src/x509.c    **** #define K_ExplicitExtension       3
 129:src/x509.c    **** 
 130:src/x509.c    **** //#define K_OIdExtCertPolicies         146
 131:src/x509.c    **** //#define K_OIdExtBasicConstraints     133
 132:src/x509.c    **** //#define K_OIdExtAuthKeyId            149
 133:src/x509.c    **** //#define K_OIdExtKeyUsage             129
 134:src/x509.c    **** //#define K_OIdExtAltSubjectName       131
 135:src/x509.c    **** //#define K_OIdExtAltIssuerName        132
 136:src/x509.c    **** //#define K_OIdExtSubjKeyId            128
 137:src/x509.c    **** 
 138:src/x509.c    **** #if defined(USE_OID_HASH_TYPE) && (USE_OID_HASH_TYPE == 1)
 139:src/x509.c    **** 
 140:src/x509.c    **** /* OID string hash value using new general string hash function */
 141:src/x509.c    **** 
 142:src/x509.c    **** #define K_OIdExtBasicConstraints  0x0b87f19e
 143:src/x509.c    **** #define K_OIdExtAuthKeyId         0x0b87f1ae
 144:src/x509.c    **** #define K_OIdExtKeyUsage          0x0b87f182
 145:src/x509.c    **** #define K_OIdExtSubjKeyId         0x0b87f183
 146:src/x509.c    **** #define K_OIdExtAltSubjectName    0x0b87f19c
ARM GAS  C:\Users\AHMED~1.ELE\AppData\Local\Temp\ccaBET3e.s 			page 4


 147:src/x509.c    **** 
 148:src/x509.c    **** #define K_OIdRsaEncryption        0x8b757efc
 149:src/x509.c    **** #define K_OIdRsaMd2               0x8b757eff
 150:src/x509.c    **** #define K_OIdRsaMd5               0x8b757ef9
 151:src/x509.c    **** #define K_OIdRsaSha1              0x8b757ef8
 152:src/x509.c    **** #define K_OIdRsaSha224            0x8b757ef3
 153:src/x509.c    **** #define K_OIdRsaSha256            0x8b757ef6
 154:src/x509.c    **** #define K_OIdRsaSha384            0x8b757ef1
 155:src/x509.c    **** #define K_OIdRsaSha512            0x8b757ef0
 156:src/x509.c    **** #define K_OIdRsaPSS               0x8b757ef7
 157:src/x509.c    **** #define K_OIdMgf1                 0x8b757ef5
 158:src/x509.c    **** 
 159:src/x509.c    **** #define K_OIdMd2                  0x691313bd
 160:src/x509.c    **** #define K_OIdMd5                  0x691313ba
 161:src/x509.c    **** #define K_OIdSha1                 0x06572bdb
 162:src/x509.c    **** #define K_OIdSha224               0xf39ad36e
 163:src/x509.c    **** #define K_OIdSha256               0xf39ad36b
 164:src/x509.c    **** #define K_OIdSha384               0xf39ad368
 165:src/x509.c    **** #define K_OIdSha512               0xf39ad369
 166:src/x509.c    **** 
 167:src/x509.c    **** #else
 168:src/x509.c    **** 
 169:src/x509.c    **** /* OID hash values using simple addition as hash function */
 170:src/x509.c    **** 
 171:src/x509.c    **** #define K_OIdExtBasicConstraints  133
 172:src/x509.c    **** #define K_OIdExtAuthKeyId         149
 173:src/x509.c    **** #define K_OIdExtKeyUsage          129
 174:src/x509.c    **** #define K_OIdExtSubjKeyId         128
 175:src/x509.c    **** #define K_OIdExtAltSubjectName    131
 176:src/x509.c    **** 
 177:src/x509.c    **** #define K_OIdRsaEncryption        645
 178:src/x509.c    **** #define K_OIdRsaMd2               646
 179:src/x509.c    **** #define K_OIdRsaMd5               648
 180:src/x509.c    **** #define K_OIdRsaSha1              649
 181:src/x509.c    **** #define K_OIdRsaSha224            658
 182:src/x509.c    **** #define K_OIdRsaSha256            655
 183:src/x509.c    **** #define K_OIdRsaSha384            656
 184:src/x509.c    **** #define K_OIdRsaSha512            657
 185:src/x509.c    **** #define K_OIdRsaPSS               654
 186:src/x509.c    **** 
 187:src/x509.c    **** #define K_OIdMgf1                 652
 188:src/x509.c    **** 
 189:src/x509.c    **** #define K_OIdMd2                  646
 190:src/x509.c    **** #define K_OIdMd5                  649
 191:src/x509.c    **** #define K_OIdSha1                 88
 192:src/x509.c    **** #define K_OIdSha224               417
 193:src/x509.c    **** #define K_OIdSha256               414
 194:src/x509.c    **** #define K_OIdSha384               415
 195:src/x509.c    **** #define K_OIdSha512               416
 196:src/x509.c    **** 
 197:src/x509.c    **** #endif
 198:src/x509.c    **** 
 199:src/x509.c    **** /* static T_KEY            s_x509_cakey; */
 200:src/x509.c    **** 
 201:src/x509.c    **** static BYTE             s_x509_sign[K_X509_CertSignMaxSize];
 202:src/x509.c    **** 
 203:src/x509.c    **** #if defined(USE_OID_HASH_TYPE) && (USE_OID_HASH_TYPE == 1)
ARM GAS  C:\Users\AHMED~1.ELE\AppData\Local\Temp\ccaBET3e.s 			page 5


 204:src/x509.c    **** static DWORD oid_to_hash_value(BYTE *p, int len)
 205:src/x509.c    **** {
  26              		.loc 1 205 0
  27              		.cfi_startproc
  28              		@ args = 0, pretend = 0, frame = 0
  29              		@ frame_needed = 0, uses_anonymous_args = 0
  30              	.LVL0:
 206:src/x509.c    ****   DWORD hash = 5381;
 207:src/x509.c    ****   int i;
 208:src/x509.c    **** 
 209:src/x509.c    ****   for ( i=0; i<len; ++i, ++p ) {
  31              		.loc 1 209 0
  32 0000 0246     		mov	r2, r0
 205:src/x509.c    ****   DWORD hash = 5381;
  33              		.loc 1 205 0
  34 0002 10B5     		push	{r4, lr}
  35              		.cfi_def_cfa_offset 8
  36              		.cfi_offset 4, -8
  37              		.cfi_offset 14, -4
 206:src/x509.c    ****   DWORD hash = 5381;
  38              		.loc 1 206 0
  39 0004 41F20553 		movw	r3, #5381
  40              	.LVL1:
  41              	.L2:
  42 0008 141A     		subs	r4, r2, r0
  43              	.LVL2:
  44              		.loc 1 209 0 discriminator 1
  45 000a 8C42     		cmp	r4, r1
  46 000c 05DA     		bge	.L5
 210:src/x509.c    ****     hash = (hash * 33) ^ (*p);
  47              		.loc 1 210 0 discriminator 3
  48 000e 2124     		movs	r4, #33
  49              	.LVL3:
  50 0010 6343     		muls	r3, r4, r3
  51              	.LVL4:
  52 0012 12F8014B 		ldrb	r4, [r2], #1	@ zero_extendqisi2
  53              	.LVL5:
  54 0016 6340     		eors	r3, r3, r4
  55              	.LVL6:
  56 0018 F6E7     		b	.L2
  57              	.LVL7:
  58              	.L5:
 211:src/x509.c    ****   };
 212:src/x509.c    ****   return hash;
 213:src/x509.c    **** }
  59              		.loc 1 213 0
  60 001a 1846     		mov	r0, r3
  61 001c 10BD     		pop	{r4, pc}
  62              		.cfi_endproc
  63              	.LFE0:
  64              		.size	oid_to_hash_value, .-oid_to_hash_value
  65              		.section	.text.x509_get_asn_length,"ax",%progbits
  66              		.align	1
  67              		.thumb
  68              		.thumb_func
  69              		.type	x509_get_asn_length, %function
  70              	x509_get_asn_length:
ARM GAS  C:\Users\AHMED~1.ELE\AppData\Local\Temp\ccaBET3e.s 			page 6


  71              	.LFB2:
 214:src/x509.c    **** #else
 215:src/x509.c    **** static DWORD oid_to_hash_value(BYTE *p, int len)
 216:src/x509.c    **** {
 217:src/x509.c    ****   DWORD hash = 0;
 218:src/x509.c    ****   int i;
 219:src/x509.c    **** 
 220:src/x509.c    ****   for ( i=0; i<len; ++i, ++p ) {
 221:src/x509.c    ****     hash += *p;
 222:src/x509.c    ****   };
 223:src/x509.c    ****   return hash;
 224:src/x509.c    **** }
 225:src/x509.c    **** #endif
 226:src/x509.c    **** 
 227:src/x509.c    **** static DWORD x509_bit_reverse(DWORD x)
 228:src/x509.c    **** {
 229:src/x509.c    ****   x = (((x & 0xaaaaaaaa) >> 1) | ((x & 0x55555555) << 1));
 230:src/x509.c    ****   x = (((x & 0xcccccccc) >> 2) | ((x & 0x33333333) << 2));
 231:src/x509.c    ****   x = (((x & 0xf0f0f0f0) >> 4) | ((x & 0x0f0f0f0f) << 4));
 232:src/x509.c    ****   x = (((x & 0xff00ff00) >> 8) | ((x & 0x00ff00ff) << 8));
 233:src/x509.c    ****   return((x >> 16) | (x << 16));
 234:src/x509.c    **** }
 235:src/x509.c    **** 
 236:src/x509.c    **** /*---------------------------------------------------------------------*/
 237:src/x509.c    **** static int x509_get_asn_length(BYTE ** a_p,DWORD a_size,int * a_valLen)
 238:src/x509.c    **** {
  72              		.loc 1 238 0
  73              		.cfi_startproc
  74              		@ args = 0, pretend = 0, frame = 0
  75              		@ frame_needed = 0, uses_anonymous_args = 0
  76              	.LVL8:
 239:src/x509.c    ****   BYTE  *c, *end;
 240:src/x509.c    ****   int   len, olen;
 241:src/x509.c    **** 
 242:src/x509.c    ****   c = *a_p;
 243:src/x509.c    ****   end = c + a_size;
 244:src/x509.c    ****   if (end - c < 1)
  77              		.loc 1 244 0
  78 0000 0029     		cmp	r1, #0
 238:src/x509.c    ****   BYTE  *c, *end;
  79              		.loc 1 238 0
  80 0002 F0B5     		push	{r4, r5, r6, r7, lr}
  81              		.cfi_def_cfa_offset 20
  82              		.cfi_offset 4, -20
  83              		.cfi_offset 5, -16
  84              		.cfi_offset 6, -12
  85              		.cfi_offset 7, -8
  86              		.cfi_offset 14, -4
 242:src/x509.c    ****   end = c + a_size;
  87              		.loc 1 242 0
  88 0004 0668     		ldr	r6, [r0]
  89              	.LVL9:
  90              		.loc 1 244 0
  91 0006 26DD     		ble	.L15
 245:src/x509.c    ****     return 0;
 246:src/x509.c    **** 
 247:src/x509.c    ****   /*
ARM GAS  C:\Users\AHMED~1.ELE\AppData\Local\Temp\ccaBET3e.s 			page 7


 248:src/x509.c    ****     If the length byte has high bit only set, it's an indefinite length
 249:src/x509.c    ****     We don't support this!
 250:src/x509.c    ****   */
 251:src/x509.c    ****   if (*c == 0x80)
  92              		.loc 1 251 0
  93 0008 3778     		ldrb	r7, [r6]	@ zero_extendqisi2
  94 000a 802F     		cmp	r7, #128
  95 000c 03D1     		bne	.L8
 252:src/x509.c    ****   {
 253:src/x509.c    ****     *a_valLen = -1;
  96              		.loc 1 253 0
  97 000e 4FF0FF33 		mov	r3, #-1
  98 0012 1360     		str	r3, [r2]
  99 0014 1FE0     		b	.L15
 100              	.L8:
 254:src/x509.c    ****     return 0;
 255:src/x509.c    ****   }
 256:src/x509.c    ****   /*
 257:src/x509.c    ****     If the high bit is set, the lower 7 bits represent the number of
 258:src/x509.c    ****     bytes that follow and represent length
 259:src/x509.c    ****     If the high bit is not set, the lower 7 represent the actual length
 260:src/x509.c    ****   */
 261:src/x509.c    ****   len = *c & 0x7F;
 101              		.loc 1 261 0
 102 0016 07F07F05 		and	r5, r7, #127
 262:src/x509.c    ****   if ((*(c++) & 0x80) != 0)
 103              		.loc 1 262 0
 104 001a 3F06     		lsls	r7, r7, #24
 261:src/x509.c    ****   if ((*(c++) & 0x80) != 0)
 105              		.loc 1 261 0
 106 001c 2B46     		mov	r3, r5
 107              	.LVL10:
 108              		.loc 1 262 0
 109 001e 06F10104 		add	r4, r6, #1
 110              	.LVL11:
 111 0022 13D5     		bpl	.L9
 263:src/x509.c    ****   {
 264:src/x509.c    ****     /*
 265:src/x509.c    ****       Make sure there aren't more than 4 bytes of length specifier,
 266:src/x509.c    ****       and that we have that many bytes left in the buffer
 267:src/x509.c    ****     */
 268:src/x509.c    ****     if (len > 4 || len == 0x7f || (end - c) < len)
 112              		.loc 1 268 0
 113 0024 042D     		cmp	r5, #4
 114 0026 16D8     		bhi	.L15
 243:src/x509.c    ****   if (end - c < 1)
 115              		.loc 1 243 0 discriminator 1
 116 0028 3144     		add	r1, r1, r6
 117              	.LVL12:
 118              		.loc 1 268 0 discriminator 1
 119 002a 091B     		subs	r1, r1, r4
 120 002c A942     		cmp	r1, r5
 121 002e 12DB     		blt	.L15
 122 0030 2646     		mov	r6, r4
 123              		.loc 1 268 0 is_stmt 0
 124 0032 0021     		movs	r1, #0
 125              	.LVL13:
ARM GAS  C:\Users\AHMED~1.ELE\AppData\Local\Temp\ccaBET3e.s 			page 8


 126              	.L10:
 269:src/x509.c    ****       return 0;
 270:src/x509.c    **** 
 271:src/x509.c    ****     olen = 0;
 272:src/x509.c    ****     while (len > 0)
 127              		.loc 1 272 0 is_stmt 1
 128 0034 2BB1     		cbz	r3, .L16
 273:src/x509.c    ****     {
 274:src/x509.c    ****       olen = (olen << 8) | *c;
 129              		.loc 1 274 0
 130 0036 16F8017B 		ldrb	r7, [r6], #1	@ zero_extendqisi2
 131              	.LVL14:
 275:src/x509.c    ****       c++; len--;
 132              		.loc 1 275 0
 133 003a 013B     		subs	r3, r3, #1
 134              	.LVL15:
 274:src/x509.c    ****       c++; len--;
 135              		.loc 1 274 0
 136 003c 47EA0121 		orr	r1, r7, r1, lsl #8
 137              	.LVL16:
 138 0040 F8E7     		b	.L10
 139              	.L16:
 276:src/x509.c    ****     }
 277:src/x509.c    ****     if (olen < 0 || olen > 0x7FFFFF)
 140              		.loc 1 277 0
 141 0042 B1F5000F 		cmp	r1, #8388608
 142 0046 0B46     		mov	r3, r1
 143              	.LVL17:
 144 0048 2C44     		add	r4, r4, r5
 145 004a 04D2     		bcs	.L15
 146              	.LVL18:
 147              	.L9:
 278:src/x509.c    ****     {
 279:src/x509.c    ****       return 0;
 280:src/x509.c    ****     }
 281:src/x509.c    ****     len = olen;
 282:src/x509.c    ****   }
 283:src/x509.c    **** 
 284:src/x509.c    ****   *a_p = c;
 148              		.loc 1 284 0
 149 004c 0460     		str	r4, [r0]
 285:src/x509.c    ****   *a_valLen = len;
 150              		.loc 1 285 0
 151 004e 1360     		str	r3, [r2]
 286:src/x509.c    ****   return -1;
 152              		.loc 1 286 0
 153 0050 4FF0FF30 		mov	r0, #-1
 154              	.LVL19:
 155 0054 F0BD     		pop	{r4, r5, r6, r7, pc}
 156              	.LVL20:
 157              	.L15:
 245:src/x509.c    **** 
 158              		.loc 1 245 0
 159 0056 0020     		movs	r0, #0
 160              	.LVL21:
 287:src/x509.c    **** }
 161              		.loc 1 287 0
ARM GAS  C:\Users\AHMED~1.ELE\AppData\Local\Temp\ccaBET3e.s 			page 9


 162 0058 F0BD     		pop	{r4, r5, r6, r7, pc}
 163              		.cfi_endproc
 164              	.LFE2:
 165              		.size	x509_get_asn_length, .-x509_get_asn_length
 166              		.section	.text.x509_get_integer,"ax",%progbits
 167              		.align	1
 168              		.thumb
 169              		.thumb_func
 170              		.type	x509_get_integer, %function
 171              	x509_get_integer:
 172              	.LFB4:
 288:src/x509.c    **** 
 289:src/x509.c    **** /*---------------------------------------------------------------------*/
 290:src/x509.c    **** static int x509_get_boolean(BYTE **a_pp, int a_len, int *a_bool)
 291:src/x509.c    **** {
 292:src/x509.c    ****   BYTE *p;
 293:src/x509.c    ****   int blen;
 294:src/x509.c    **** 
 295:src/x509.c    ****   p = *a_pp;
 296:src/x509.c    ****   
 297:src/x509.c    ****   if ( a_len < 3 || *(p++) != K_AsnBoolean ||
 298:src/x509.c    ****        x509_get_asn_length(&p,a_len-1, &blen) == 0 )
 299:src/x509.c    ****     return 0;
 300:src/x509.c    ****   if ( blen != 1 )
 301:src/x509.c    ****     return 0;
 302:src/x509.c    **** 
 303:src/x509.c    ****   *a_bool = *p++;
 304:src/x509.c    ****   *a_pp = p;
 305:src/x509.c    ****   return -1;
 306:src/x509.c    **** }
 307:src/x509.c    **** 
 308:src/x509.c    **** /*---------------------------------------------------------------------*/
 309:src/x509.c    **** static int x509_get_integer(BYTE ** a_pp,int a_len,int * a_val)
 310:src/x509.c    **** {
 173              		.loc 1 310 0
 174              		.cfi_startproc
 175              		@ args = 0, pretend = 0, frame = 8
 176              		@ frame_needed = 0, uses_anonymous_args = 0
 177              	.LVL22:
 178 0000 F7B5     		push	{r0, r1, r2, r4, r5, r6, r7, lr}
 179              		.cfi_def_cfa_offset 32
 180              		.cfi_offset 4, -20
 181              		.cfi_offset 5, -16
 182              		.cfi_offset 6, -12
 183              		.cfi_offset 7, -8
 184              		.cfi_offset 14, -4
 311:src/x509.c    ****   BYTE  *p, *end;
 312:src/x509.c    ****   DWORD ui;
 313:src/x509.c    ****   int   vlen;
 314:src/x509.c    **** 
 315:src/x509.c    ****   p = *a_pp;
 316:src/x509.c    ****   end = p + a_len;
 317:src/x509.c    ****   if (a_len < 1 || *(p++) != K_AsnInteger ||
 185              		.loc 1 317 0
 186 0002 0C1E     		subs	r4, r1, #0
 310:src/x509.c    ****   BYTE  *p, *end;
 187              		.loc 1 310 0
ARM GAS  C:\Users\AHMED~1.ELE\AppData\Local\Temp\ccaBET3e.s 			page 10


 188 0004 0546     		mov	r5, r0
 189 0006 1646     		mov	r6, r2
 315:src/x509.c    ****   end = p + a_len;
 190              		.loc 1 315 0
 191 0008 0768     		ldr	r7, [r0]
 192              	.LVL23:
 193              		.loc 1 317 0
 194 000a 01DC     		bgt	.L18
 195              	.LVL24:
 196              	.L20:
 318:src/x509.c    ****       x509_get_asn_length(&p, a_len - 1, &vlen) == 0)
 319:src/x509.c    ****     return 0;
 197              		.loc 1 319 0
 198 000c 0020     		movs	r0, #0
 199 000e 3AE0     		b	.L19
 200              	.LVL25:
 201              	.L18:
 317:src/x509.c    ****       x509_get_asn_length(&p, a_len - 1, &vlen) == 0)
 202              		.loc 1 317 0 discriminator 1
 203 0010 7B1C     		adds	r3, r7, #1
 204 0012 0093     		str	r3, [sp]
 205 0014 3B78     		ldrb	r3, [r7]	@ zero_extendqisi2
 206 0016 022B     		cmp	r3, #2
 207 0018 F8D1     		bne	.L20
 318:src/x509.c    ****       x509_get_asn_length(&p, a_len - 1, &vlen) == 0)
 208              		.loc 1 318 0 discriminator 2
 209 001a 6846     		mov	r0, sp
 210              	.LVL26:
 211 001c 611E     		subs	r1, r4, #1
 212              	.LVL27:
 213 001e 01AA     		add	r2, sp, #4
 214              	.LVL28:
 215 0020 FFF7FEFF 		bl	x509_get_asn_length
 216              	.LVL29:
 317:src/x509.c    ****       x509_get_asn_length(&p, a_len - 1, &vlen) == 0)
 217              		.loc 1 317 0 discriminator 2
 218 0024 0028     		cmp	r0, #0
 219 0026 F1D0     		beq	.L20
 320:src/x509.c    **** 
 321:src/x509.c    ****   /*
 322:src/x509.c    ****     This check prevents us from having a big positive integer where the
 323:src/x509.c    ****     high bit is set because it will be encoded as 5 bytes (with leading
 324:src/x509.c    ****     blank byte).  If that is required, a getUnsigned routine should be used
 325:src/x509.c    ****   */
 326:src/x509.c    ****   if (vlen > sizeof(int) || end - p < vlen)
 220              		.loc 1 326 0
 221 0028 019A     		ldr	r2, [sp, #4]
 222 002a 042A     		cmp	r2, #4
 223 002c EED8     		bhi	.L20
 224              		.loc 1 326 0 is_stmt 0 discriminator 1
 225 002e 009B     		ldr	r3, [sp]
 316:src/x509.c    ****   if (a_len < 1 || *(p++) != K_AsnInteger ||
 226              		.loc 1 316 0 is_stmt 1 discriminator 1
 227 0030 3C44     		add	r4, r4, r7
 228              	.LVL30:
 229              		.loc 1 326 0 discriminator 1
 230 0032 E41A     		subs	r4, r4, r3
ARM GAS  C:\Users\AHMED~1.ELE\AppData\Local\Temp\ccaBET3e.s 			page 11


 231 0034 9442     		cmp	r4, r2
 232 0036 E9DB     		blt	.L20
 233              	.LVL31:
 327:src/x509.c    ****     return 0;
 328:src/x509.c    **** 
 329:src/x509.c    ****   ui = 0;
 330:src/x509.c    ****   /*
 331:src/x509.c    ****     If high bit is set, it's a negative integer, so perform the two's compliment
 332:src/x509.c    ****     Otherwise do a standard big endian read (most likely case for RSA)
 333:src/x509.c    ****   */
 334:src/x509.c    ****   if (*p & 0x80)
 234              		.loc 1 334 0
 235 0038 93F90030 		ldrsb	r3, [r3]
 236 003c 002B     		cmp	r3, #0
 237 003e 4FF00003 		mov	r3, #0
 238 0042 0FDA     		bge	.L22
 239              	.LVL32:
 240              	.L21:
 335:src/x509.c    ****   {
 336:src/x509.c    ****     while (vlen-- > 0)
 241              		.loc 1 336 0
 242 0044 019A     		ldr	r2, [sp, #4]
 243 0046 511E     		subs	r1, r2, #1
 244 0048 002A     		cmp	r2, #0
 245 004a 0191     		str	r1, [sp, #4]
 246 004c 08DD     		ble	.L31
 337:src/x509.c    ****     {
 338:src/x509.c    ****       ui = (ui << 8) | (*p ^ 0xFF);
 247              		.loc 1 338 0
 248 004e 0099     		ldr	r1, [sp]
 249 0050 11F8012B 		ldrb	r2, [r1], #1	@ zero_extendqisi2
 250 0054 D243     		mvns	r2, r2
 339:src/x509.c    ****       p++;
 251              		.loc 1 339 0
 252 0056 0091     		str	r1, [sp]
 338:src/x509.c    ****       p++;
 253              		.loc 1 338 0
 254 0058 D2B2     		uxtb	r2, r2
 255 005a 42EA0323 		orr	r3, r2, r3, lsl #8
 256              	.LVL33:
 257 005e F1E7     		b	.L21
 258              	.L31:
 340:src/x509.c    ****     }
 341:src/x509.c    ****     vlen = (int)ui;
 342:src/x509.c    ****     vlen++;
 343:src/x509.c    ****     vlen = -vlen;
 259              		.loc 1 343 0
 260 0060 DB43     		mvns	r3, r3
 261              	.LVL34:
 262 0062 0BE0     		b	.L30
 263              	.LVL35:
 264              	.L22:
 344:src/x509.c    ****     *a_val = vlen;
 345:src/x509.c    ****   }
 346:src/x509.c    ****   else
 347:src/x509.c    ****   {
 348:src/x509.c    ****     while (vlen-- > 0)
ARM GAS  C:\Users\AHMED~1.ELE\AppData\Local\Temp\ccaBET3e.s 			page 12


 265              		.loc 1 348 0
 266 0064 019A     		ldr	r2, [sp, #4]
 267 0066 511E     		subs	r1, r2, #1
 268 0068 002A     		cmp	r2, #0
 269 006a 0191     		str	r1, [sp, #4]
 270 006c 06DD     		ble	.L30
 349:src/x509.c    ****     {
 350:src/x509.c    ****       ui = (ui << 8) | *p;
 271              		.loc 1 350 0
 272 006e 009A     		ldr	r2, [sp]
 273 0070 12F8011B 		ldrb	r1, [r2], #1	@ zero_extendqisi2
 274 0074 41EA0323 		orr	r3, r1, r3, lsl #8
 275              	.LVL36:
 351:src/x509.c    ****       p++;
 276              		.loc 1 351 0
 277 0078 0092     		str	r2, [sp]
 278 007a F3E7     		b	.L22
 279              	.LVL37:
 280              	.L30:
 352:src/x509.c    ****     }
 353:src/x509.c    ****     *a_val = (int)ui;
 281              		.loc 1 353 0
 282 007c 3360     		str	r3, [r6]
 354:src/x509.c    ****   }
 355:src/x509.c    ****   *a_pp = p;
 356:src/x509.c    ****   return -1;
 283              		.loc 1 356 0
 284 007e 4FF0FF30 		mov	r0, #-1
 355:src/x509.c    ****   return -1;
 285              		.loc 1 355 0
 286 0082 009B     		ldr	r3, [sp]
 287 0084 2B60     		str	r3, [r5]
 288              	.L19:
 357:src/x509.c    **** }
 289              		.loc 1 357 0
 290 0086 03B0     		add	sp, sp, #12
 291              		.cfi_def_cfa_offset 20
 292              		@ sp needed
 293 0088 F0BD     		pop	{r4, r5, r6, r7, pc}
 294              		.cfi_endproc
 295              	.LFE4:
 296              		.size	x509_get_integer, .-x509_get_integer
 297              		.section	.text.x509_get_sequence,"ax",%progbits
 298              		.align	1
 299              		.thumb
 300              		.thumb_func
 301              		.type	x509_get_sequence, %function
 302              	x509_get_sequence:
 303              	.LFB6:
 358:src/x509.c    **** 
 359:src/x509.c    **** /*---------------------------------------------------------------------*/
 360:src/x509.c    **** static int x509_get_set(BYTE ** a_pp,int a_len,int * a_setlen)
 361:src/x509.c    **** {
 362:src/x509.c    ****   BYTE * p;
 363:src/x509.c    **** 
 364:src/x509.c    ****   p = *a_pp;
 365:src/x509.c    ****   if (a_len<1 || *(p++)!=(K_AsnSet|K_AsnConstructed) ||
ARM GAS  C:\Users\AHMED~1.ELE\AppData\Local\Temp\ccaBET3e.s 			page 13


 366:src/x509.c    ****       x509_get_asn_length(&p,a_len-1,a_setlen)==0 || a_len<*a_setlen)
 367:src/x509.c    ****     return 0;
 368:src/x509.c    **** 
 369:src/x509.c    ****   *a_pp = p;
 370:src/x509.c    ****   return -1;
 371:src/x509.c    **** }
 372:src/x509.c    **** 
 373:src/x509.c    **** /*---------------------------------------------------------------------*/
 374:src/x509.c    **** /* x509_get_sequence -- Find Sequence Object From Buffer
 375:src/x509.c    ****  * pp     - Pointer to Buffer
 376:src/x509.c    ****  * len    - Size of Buffer
 377:src/x509.c    ****  * seqlen - Return the Length of Sequence Object
 378:src/x509.c    ****  */
 379:src/x509.c    **** static int x509_get_sequence(BYTE ** a_pp,DWORD a_len,int * a_seqlen)
 380:src/x509.c    **** {
 304              		.loc 1 380 0
 305              		.cfi_startproc
 306              		@ args = 0, pretend = 0, frame = 8
 307              		@ frame_needed = 0, uses_anonymous_args = 0
 308              	.LVL38:
 309 0000 73B5     		push	{r0, r1, r4, r5, r6, lr}
 310              		.cfi_def_cfa_offset 24
 311              		.cfi_offset 4, -16
 312              		.cfi_offset 5, -12
 313              		.cfi_offset 6, -8
 314              		.cfi_offset 14, -4
 381:src/x509.c    ****   BYTE * p;
 382:src/x509.c    **** 
 383:src/x509.c    ****   p = *a_pp;
 315              		.loc 1 383 0
 316 0002 0368     		ldr	r3, [r0]
 380:src/x509.c    ****   BYTE * p;
 317              		.loc 1 380 0
 318 0004 0546     		mov	r5, r0
 319 0006 1646     		mov	r6, r2
 384:src/x509.c    ****   if (a_len<1 || *(p++)!=(K_AsnSequence|K_AsnConstructed) ||
 320              		.loc 1 384 0
 321 0008 0C46     		mov	r4, r1
 322 000a 09B9     		cbnz	r1, .L33
 323              	.LVL39:
 324              	.L35:
 385:src/x509.c    ****       x509_get_asn_length(&p,a_len-1,a_seqlen)==0 || a_len<*a_seqlen)
 386:src/x509.c    ****     return 0;
 325              		.loc 1 386 0
 326 000c 0020     		movs	r0, #0
 327 000e 11E0     		b	.L34
 328              	.LVL40:
 329              	.L33:
 384:src/x509.c    ****   if (a_len<1 || *(p++)!=(K_AsnSequence|K_AsnConstructed) ||
 330              		.loc 1 384 0 discriminator 1
 331 0010 591C     		adds	r1, r3, #1
 332              	.LVL41:
 333 0012 0191     		str	r1, [sp, #4]
 334 0014 1B78     		ldrb	r3, [r3]	@ zero_extendqisi2
 335 0016 302B     		cmp	r3, #48
 336 0018 F8D1     		bne	.L35
 385:src/x509.c    ****       x509_get_asn_length(&p,a_len-1,a_seqlen)==0 || a_len<*a_seqlen)
ARM GAS  C:\Users\AHMED~1.ELE\AppData\Local\Temp\ccaBET3e.s 			page 14


 337              		.loc 1 385 0 discriminator 2
 338 001a 01A8     		add	r0, sp, #4
 339              	.LVL42:
 340 001c 611E     		subs	r1, r4, #1
 341 001e FFF7FEFF 		bl	x509_get_asn_length
 342              	.LVL43:
 384:src/x509.c    ****   if (a_len<1 || *(p++)!=(K_AsnSequence|K_AsnConstructed) ||
 343              		.loc 1 384 0 discriminator 2
 344 0022 0028     		cmp	r0, #0
 345 0024 F2D0     		beq	.L35
 385:src/x509.c    ****       x509_get_asn_length(&p,a_len-1,a_seqlen)==0 || a_len<*a_seqlen)
 346              		.loc 1 385 0
 347 0026 3368     		ldr	r3, [r6]
 348 0028 9C42     		cmp	r4, r3
 349 002a EFD3     		bcc	.L35
 387:src/x509.c    **** 
 388:src/x509.c    ****   *a_pp = p;
 350              		.loc 1 388 0
 351 002c 019B     		ldr	r3, [sp, #4]
 389:src/x509.c    ****   return -1;
 352              		.loc 1 389 0
 353 002e 4FF0FF30 		mov	r0, #-1
 388:src/x509.c    ****   return -1;
 354              		.loc 1 388 0
 355 0032 2B60     		str	r3, [r5]
 356              	.L34:
 390:src/x509.c    **** }
 357              		.loc 1 390 0
 358 0034 02B0     		add	sp, sp, #8
 359              		.cfi_def_cfa_offset 16
 360              		@ sp needed
 361 0036 70BD     		pop	{r4, r5, r6, pc}
 362              		.cfi_endproc
 363              	.LFE6:
 364              		.size	x509_get_sequence, .-x509_get_sequence
 365              		.section	.text.x509_get_oid,"ax",%progbits
 366              		.align	1
 367              		.thumb
 368              		.thumb_func
 369              		.type	x509_get_oid, %function
 370              	x509_get_oid:
 371              	.LFB7:
 391:src/x509.c    **** 
 392:src/x509.c    **** /*---------------------------------------------------------------------*/
 393:src/x509.c    **** /* x509_get_oid -- Find OID object from Buffer
 394:src/x509.c    ****  * pp      - Pointer to Buffer
 395:src/x509.c    ****  * len     - Size of Buffer
 396:src/x509.c    ****  * seqlen  - return the length of OID
 397:src/x509.c    ****  */
 398:src/x509.c    **** static int x509_get_oid(BYTE **a_pp, DWORD a_len, int *a_seqlen)
 399:src/x509.c    **** {
 372              		.loc 1 399 0
 373              		.cfi_startproc
 374              		@ args = 0, pretend = 0, frame = 8
 375              		@ frame_needed = 0, uses_anonymous_args = 0
 376              	.LVL44:
 377 0000 73B5     		push	{r0, r1, r4, r5, r6, lr}
ARM GAS  C:\Users\AHMED~1.ELE\AppData\Local\Temp\ccaBET3e.s 			page 15


 378              		.cfi_def_cfa_offset 24
 379              		.cfi_offset 4, -16
 380              		.cfi_offset 5, -12
 381              		.cfi_offset 6, -8
 382              		.cfi_offset 14, -4
 400:src/x509.c    ****   BYTE *p;
 401:src/x509.c    **** 
 402:src/x509.c    ****   p = *a_pp;
 383              		.loc 1 402 0
 384 0002 0368     		ldr	r3, [r0]
 399:src/x509.c    ****   BYTE *p;
 385              		.loc 1 399 0
 386 0004 0546     		mov	r5, r0
 387 0006 1646     		mov	r6, r2
 403:src/x509.c    ****   if ( a_len < 1 || *(p++) != K_AsnOId ||
 388              		.loc 1 403 0
 389 0008 0C46     		mov	r4, r1
 390 000a 09B9     		cbnz	r1, .L40
 391              	.LVL45:
 392              	.L42:
 404:src/x509.c    ****        x509_get_asn_length(&p,a_len-1,a_seqlen)==0 || a_len<*a_seqlen )
 405:src/x509.c    ****     return 0;
 393              		.loc 1 405 0
 394 000c 0020     		movs	r0, #0
 395 000e 11E0     		b	.L41
 396              	.LVL46:
 397              	.L40:
 403:src/x509.c    ****   if ( a_len < 1 || *(p++) != K_AsnOId ||
 398              		.loc 1 403 0 discriminator 1
 399 0010 591C     		adds	r1, r3, #1
 400              	.LVL47:
 401 0012 0191     		str	r1, [sp, #4]
 402 0014 1B78     		ldrb	r3, [r3]	@ zero_extendqisi2
 403 0016 062B     		cmp	r3, #6
 404 0018 F8D1     		bne	.L42
 404:src/x509.c    ****        x509_get_asn_length(&p,a_len-1,a_seqlen)==0 || a_len<*a_seqlen )
 405              		.loc 1 404 0 discriminator 2
 406 001a 01A8     		add	r0, sp, #4
 407              	.LVL48:
 408 001c 611E     		subs	r1, r4, #1
 409 001e FFF7FEFF 		bl	x509_get_asn_length
 410              	.LVL49:
 403:src/x509.c    ****   if ( a_len < 1 || *(p++) != K_AsnOId ||
 411              		.loc 1 403 0 discriminator 2
 412 0022 0028     		cmp	r0, #0
 413 0024 F2D0     		beq	.L42
 404:src/x509.c    ****        x509_get_asn_length(&p,a_len-1,a_seqlen)==0 || a_len<*a_seqlen )
 414              		.loc 1 404 0
 415 0026 3368     		ldr	r3, [r6]
 416 0028 9C42     		cmp	r4, r3
 417 002a EFD3     		bcc	.L42
 406:src/x509.c    **** 
 407:src/x509.c    ****   *a_pp = p;
 418              		.loc 1 407 0
 419 002c 019B     		ldr	r3, [sp, #4]
 408:src/x509.c    ****   return -1;
 420              		.loc 1 408 0
ARM GAS  C:\Users\AHMED~1.ELE\AppData\Local\Temp\ccaBET3e.s 			page 16


 421 002e 4FF0FF30 		mov	r0, #-1
 407:src/x509.c    ****   return -1;
 422              		.loc 1 407 0
 423 0032 2B60     		str	r3, [r5]
 424              	.L41:
 409:src/x509.c    **** }
 425              		.loc 1 409 0
 426 0034 02B0     		add	sp, sp, #8
 427              		.cfi_def_cfa_offset 16
 428              		@ sp needed
 429 0036 70BD     		pop	{r4, r5, r6, pc}
 430              		.cfi_endproc
 431              	.LFE7:
 432              		.size	x509_get_oid, .-x509_get_oid
 433              		.section	.text.unlikely.x509_get_implicit_bit_string,"ax",%progbits
 434              		.align	1
 435              		.thumb
 436              		.thumb_func
 437              		.type	x509_get_implicit_bit_string, %function
 438              	x509_get_implicit_bit_string:
 439              	.LFB10:
 410:src/x509.c    **** 
 411:src/x509.c    **** /*---------------------------------------------------------------------*/
 412:src/x509.c    **** static int x509_get_dn_attrib(BYTE ** a_pp, int a_len, BYTE *a_dn_mac)
 413:src/x509.c    **** {
 414:src/x509.c    **** /* sslSha1Context_t hash; */
 415:src/x509.c    ****   BYTE *  p;
 416:src/x509.c    ****   BYTE *  dnEnd;
 417:src/x509.c    ****   int     llen,setlen,arcLen,id,stringType;
 418:src/x509.c    ****   T_SHA1_CONTEXT sha1_ctx;
 419:src/x509.c    **** 
 420:src/x509.c    ****   p = *a_pp;
 421:src/x509.c    ****   if (x509_get_sequence(&p,a_len,&llen) == 0)
 422:src/x509.c    ****     return 0;
 423:src/x509.c    **** 
 424:src/x509.c    ****   dnEnd = p + llen;
 425:src/x509.c    **** 
 426:src/x509.c    ****   if ( a_dn_mac != NULL )
 427:src/x509.c    ****   {
 428:src/x509.c    ****     EXEC_SHA1_INIT(&sha1_ctx);
 429:src/x509.c    ****     EXEC_SHA1_UPDATE(&sha1_ctx,p,llen);
 430:src/x509.c    ****     EXEC_SHA1_FINISH(&sha1_ctx,a_dn_mac);
 431:src/x509.c    ****   }
 432:src/x509.c    **** 
 433:src/x509.c    **** /* matrixSha1Init(&hash); */
 434:src/x509.c    ****   while (p < dnEnd)
 435:src/x509.c    ****   {
 436:src/x509.c    ****     if (x509_get_set(&p,(int)(dnEnd - p),&setlen) == 0)
 437:src/x509.c    ****       return 0;
 438:src/x509.c    ****     if (x509_get_sequence(&p,(int)(dnEnd - p),&llen) == 0)
 439:src/x509.c    ****       return 0;
 440:src/x509.c    ****     if (dnEnd <= p || (*(p++) != K_AsnOId) ||
 441:src/x509.c    ****         x509_get_asn_length(&p,(int)(dnEnd - p),&arcLen) == 0 ||
 442:src/x509.c    ****         (dnEnd - p) < arcLen)
 443:src/x509.c    ****       return 0;
 444:src/x509.c    **** /*
 445:src/x509.c    ****   id-at                        OBJECT IDENTIFIER ::= {joint-iso-ccitt(2) ds(5) 4}
ARM GAS  C:\Users\AHMED~1.ELE\AppData\Local\Temp\ccaBET3e.s 			page 17


 446:src/x509.c    ****   id-at-commonName             OBJECT IDENTIFIER ::= {id-at 3}
 447:src/x509.c    ****   id-at-countryName            OBJECT IDENTIFIER ::= {id-at 6}
 448:src/x509.c    ****   id-at-localityName           OBJECT IDENTIFIER ::= {id-at 7}
 449:src/x509.c    ****   id-at-stateOrProvinceName    OBJECT IDENTIFIER ::= {id-at 8}
 450:src/x509.c    ****   id-at-organizationName       OBJECT IDENTIFIER ::= {id-at 10}
 451:src/x509.c    ****   id-at-organizationalUnitName OBJECT IDENTIFIER ::= {id-at 11}
 452:src/x509.c    **** */
 453:src/x509.c    ****     *a_pp = p;
 454:src/x509.c    **** /*
 455:src/x509.c    ****   FUTURE: Currently skipping OIDs not of type {joint-iso-ccitt(2) ds(5) 4}
 456:src/x509.c    ****   However, we could be dealing with an OID we MUST support per RFC.
 457:src/x509.c    ****   domainComponent is one such example.
 458:src/x509.c    **** */
 459:src/x509.c    ****     if (dnEnd - p < 2)
 460:src/x509.c    ****       return 0;
 461:src/x509.c    ****     if ((*p++ != 85) || (*p++ != 4) )
 462:src/x509.c    ****     {
 463:src/x509.c    ****       p = *a_pp;
 464:src/x509.c    **** /*
 465:src/x509.c    ****   Move past the OID and string type, get data size, and skip it.
 466:src/x509.c    ****   NOTE: Have had problems parsing older certs in this area.
 467:src/x509.c    **** */
 468:src/x509.c    ****       if (dnEnd - p < arcLen + 1)
 469:src/x509.c    ****         return 0;
 470:src/x509.c    ****       p += arcLen + 1;
 471:src/x509.c    ****       if (x509_get_asn_length(&p,(int)(dnEnd - p),&llen) == 0 ||
 472:src/x509.c    ****           dnEnd - p < llen)
 473:src/x509.c    ****         return 0;
 474:src/x509.c    ****       p = p + llen;
 475:src/x509.c    ****       continue;
 476:src/x509.c    ****     }
 477:src/x509.c    **** /*
 478:src/x509.c    ****   Next are the id of the attribute type and the ASN string type
 479:src/x509.c    **** */
 480:src/x509.c    ****     if (arcLen != 3 || dnEnd - p < 2)
 481:src/x509.c    ****       return 0;
 482:src/x509.c    ****     id = (int)*p++;
 483:src/x509.c    ****     /*
 484:src/x509.c    ****       Done with OID parsing
 485:src/x509.c    ****     */
 486:src/x509.c    ****     stringType = (int)*p++;
 487:src/x509.c    **** 
 488:src/x509.c    ****     x509_get_asn_length(&p,(int)(dnEnd - p),&llen);
 489:src/x509.c    ****     if (dnEnd - p < llen)
 490:src/x509.c    ****       return 0;
 491:src/x509.c    ****     switch (stringType)
 492:src/x509.c    ****     {
 493:src/x509.c    ****       case K_AsnPrintableString:
 494:src/x509.c    ****       case K_AsnUtf8String:
 495:src/x509.c    ****       case K_AsnT61String:
 496:src/x509.c    ****         p = p + llen;
 497:src/x509.c    ****         break;
 498:src/x509.c    ****       default:
 499:src/x509.c    ****         return 0;
 500:src/x509.c    ****     }
 501:src/x509.c    **** // syspack V1.2 9-7-2012
 502:src/x509.c    **** #if 0
ARM GAS  C:\Users\AHMED~1.ELE\AppData\Local\Temp\ccaBET3e.s 			page 18


 503:src/x509.c    ****     switch (id)
 504:src/x509.c    ****     {
 505:src/x509.c    ****       case K_AttribCountryName:
 506:src/x509.c    **** /*       if (attribs->country) { */
 507:src/x509.c    **** /*         psFree(attribs->country); */
 508:src/x509.c    **** /*       } */
 509:src/x509.c    **** /*       attribs->country = stringOut; */
 510:src/x509.c    ****         break;
 511:src/x509.c    ****       case K_AttribStateProvince:
 512:src/x509.c    **** /*       if (attribs->state) { */
 513:src/x509.c    **** /*         psFree(attribs->state); */
 514:src/x509.c    **** /*       } */
 515:src/x509.c    **** /*       attribs->state = stringOut; */
 516:src/x509.c    ****         break;
 517:src/x509.c    ****       case K_AttribLocality:
 518:src/x509.c    **** /*       if (attribs->locality) { */
 519:src/x509.c    **** /*         psFree(attribs->locality); */
 520:src/x509.c    **** /*       } */
 521:src/x509.c    **** /*       attribs->locality = stringOut; */
 522:src/x509.c    ****         break;
 523:src/x509.c    ****       case K_AttribOrganization:
 524:src/x509.c    **** /*       if (attribs->organization) { */
 525:src/x509.c    **** /*         psFree(attribs->organization); */
 526:src/x509.c    **** /*       } */
 527:src/x509.c    **** /*       attribs->organization = stringOut; */
 528:src/x509.c    ****         break;
 529:src/x509.c    ****       case K_AttribOrgUnit:
 530:src/x509.c    **** /*       if (attribs->orgUnit) { */
 531:src/x509.c    **** /*         psFree(attribs->orgUnit); */
 532:src/x509.c    **** /*       } */
 533:src/x509.c    **** /*       attribs->orgUnit = stringOut; */
 534:src/x509.c    ****         break;
 535:src/x509.c    ****       case K_AttribCommonName:
 536:src/x509.c    **** /*       if (attribs->commonName) { */
 537:src/x509.c    **** /*         psFree(attribs->commonName); */
 538:src/x509.c    **** /*       } */
 539:src/x509.c    **** /*       attribs->commonName = stringOut; */
 540:src/x509.c    ****         break;
 541:src/x509.c    **** //
 542:src/x509.c    ****     case K_AttribSerialNumber:
 543:src/x509.c    ****       break;
 544:src/x509.c    **** /*
 545:src/x509.c    ****   Not a MUST support
 546:src/x509.c    **** */
 547:src/x509.c    ****       default:
 548:src/x509.c    **** /*       psFree(stringOut); */
 549:src/x509.c    ****         return 0;
 550:src/x509.c    ****     }
 551:src/x509.c    **** /*
 552:src/x509.c    ****   Hash up the DN.  Nice for validation later
 553:src/x509.c    **** */
 554:src/x509.c    **** /*     if (stringOut != NULL) { */
 555:src/x509.c    **** /*       matrixSha1Update(&hash, (BYTE*)stringOut, llen); */
 556:src/x509.c    **** /*     } */
 557:src/x509.c    **** #else
 558:src/x509.c    ****      if (id > 53)
 559:src/x509.c    ****        return 0;
ARM GAS  C:\Users\AHMED~1.ELE\AppData\Local\Temp\ccaBET3e.s 			page 19


 560:src/x509.c    **** #endif
 561:src/x509.c    ****   }
 562:src/x509.c    **** /*   matrixSha1Final(&hash, (BYTE*)attribs->hash); */
 563:src/x509.c    ****   *a_pp = p;
 564:src/x509.c    ****   return -1;
 565:src/x509.c    **** }
 566:src/x509.c    **** 
 567:src/x509.c    **** /*---------------------------------------------------------------------*/
 568:src/x509.c    **** static int x509_get_explicit_version(BYTE ** a_pp,int a_len,int a_expVal,int * a_val)
 569:src/x509.c    **** {
 570:src/x509.c    ****   BYTE *  p;
 571:src/x509.c    ****   int     exLen;
 572:src/x509.c    **** 
 573:src/x509.c    ****   if (a_len < 1)
 574:src/x509.c    ****     return 0;
 575:src/x509.c    **** 
 576:src/x509.c    ****   p = * a_pp;
 577:src/x509.c    **** 
 578:src/x509.c    ****   /*
 579:src/x509.c    ****     This is an optional value, so don't error if not present.  The default
 580:src/x509.c    ****     value is version 1
 581:src/x509.c    ****   */
 582:src/x509.c    ****   if (*p != (K_AsnContextSpecific | K_AsnConstructed | a_expVal))
 583:src/x509.c    ****   {
 584:src/x509.c    ****     *a_val = 0;
 585:src/x509.c    ****     return -1;
 586:src/x509.c    ****   }
 587:src/x509.c    ****   p++;
 588:src/x509.c    **** 
 589:src/x509.c    ****   if (x509_get_asn_length(&p,a_len-1,&exLen)==0 || (a_len-1)<exLen)
 590:src/x509.c    ****     return 0;
 591:src/x509.c    **** 
 592:src/x509.c    ****   if (x509_get_integer(&p,exLen,a_val) == 0)
 593:src/x509.c    ****     return 0;
 594:src/x509.c    **** 
 595:src/x509.c    ****   *a_pp = p;
 596:src/x509.c    ****   return -1;
 597:src/x509.c    **** }
 598:src/x509.c    **** 
 599:src/x509.c    **** /*---------------------------------------------------------------------*/
 600:src/x509.c    **** static int x509_get_implicit_bit_string(BYTE ** a_pp,int a_len,int a_impVal)
 601:src/x509.c    **** {
 440              		.loc 1 601 0
 441              		.cfi_startproc
 442              		@ args = 0, pretend = 0, frame = 8
 443              		@ frame_needed = 0, uses_anonymous_args = 0
 444              	.LVL50:
 602:src/x509.c    ****   BYTE *  p ;
 603:src/x509.c    ****   int     ignore_bits;
 604:src/x509.c    ****   int     bitLen;
 605:src/x509.c    **** 
 606:src/x509.c    ****   if (a_len < 1) return 0;
 445              		.loc 1 606 0
 446 0000 0029     		cmp	r1, #0
 601:src/x509.c    ****   BYTE *  p ;
 447              		.loc 1 601 0
 448 0002 13B5     		push	{r0, r1, r4, lr}
ARM GAS  C:\Users\AHMED~1.ELE\AppData\Local\Temp\ccaBET3e.s 			page 20


 449              		.cfi_def_cfa_offset 16
 450              		.cfi_offset 4, -8
 451              		.cfi_offset 14, -4
 601:src/x509.c    ****   BYTE *  p ;
 452              		.loc 1 601 0
 453 0004 0446     		mov	r4, r0
 454              		.loc 1 606 0
 455 0006 01DC     		bgt	.L47
 456              	.LVL51:
 457              	.L49:
 458 0008 0020     		movs	r0, #0
 459 000a 1AE0     		b	.L48
 460              	.LVL52:
 461              	.L47:
 607:src/x509.c    ****   p = * a_pp;
 462              		.loc 1 607 0
 463 000c 0368     		ldr	r3, [r0]
 608:src/x509.c    ****   /*
 609:src/x509.c    ****     We don't treat this case as an error, because of the optional nature.
 610:src/x509.c    ****   */
 611:src/x509.c    ****   if (*p != (K_AsnContextSpecific | K_AsnConstructed | a_impVal))
 464              		.loc 1 611 0
 465 000e 42F0A002 		orr	r2, r2, #160
 466              	.LVL53:
 607:src/x509.c    ****   p = * a_pp;
 467              		.loc 1 607 0
 468 0012 0093     		str	r3, [sp]
 469              		.loc 1 611 0
 470 0014 1878     		ldrb	r0, [r3]	@ zero_extendqisi2
 471              	.LVL54:
 472 0016 9042     		cmp	r0, r2
 473 0018 11D1     		bne	.L50
 612:src/x509.c    ****     return -1;
 613:src/x509.c    **** 
 614:src/x509.c    ****   p++;
 474              		.loc 1 614 0
 475 001a 0133     		adds	r3, r3, #1
 476 001c 02A8     		add	r0, sp, #8
 615:src/x509.c    ****   if (x509_get_asn_length(&p, a_len, &bitLen) == 0)
 477              		.loc 1 615 0
 478 001e 01AA     		add	r2, sp, #4
 614:src/x509.c    ****   if (x509_get_asn_length(&p, a_len, &bitLen) == 0)
 479              		.loc 1 614 0
 480 0020 40F8083D 		str	r3, [r0, #-8]!
 481              		.loc 1 615 0
 482 0024 FFF7FEFF 		bl	x509_get_asn_length
 483              	.LVL55:
 484 0028 0028     		cmp	r0, #0
 485 002a EDD0     		beq	.L49
 616:src/x509.c    ****     return 0;
 617:src/x509.c    **** 
 618:src/x509.c    ****   ignore_bits = *p++;
 486              		.loc 1 618 0
 487 002c 009B     		ldr	r3, [sp]
 488 002e 5A1C     		adds	r2, r3, #1
 489 0030 0092     		str	r2, [sp]
 490              	.LVL56:
ARM GAS  C:\Users\AHMED~1.ELE\AppData\Local\Temp\ccaBET3e.s 			page 21


 619:src/x509.c    ****   if (ignore_bits != 0)
 491              		.loc 1 619 0
 492 0032 1B78     		ldrb	r3, [r3]	@ zero_extendqisi2
 493              	.LVL57:
 494 0034 002B     		cmp	r3, #0
 495 0036 E7D1     		bne	.L49
 620:src/x509.c    ****     return 0;
 621:src/x509.c    **** 
 622:src/x509.c    ****   *a_pp = p + bitLen;
 496              		.loc 1 622 0
 497 0038 019B     		ldr	r3, [sp, #4]
 498              	.LVL58:
 499 003a 1344     		add	r3, r3, r2
 500 003c 2360     		str	r3, [r4]
 501              	.LVL59:
 502              	.L50:
 612:src/x509.c    **** 
 503              		.loc 1 612 0
 504 003e 4FF0FF30 		mov	r0, #-1
 505              	.L48:
 623:src/x509.c    ****   return -1;
 624:src/x509.c    **** }
 506              		.loc 1 624 0
 507 0042 02B0     		add	sp, sp, #8
 508              		.cfi_def_cfa_offset 8
 509              		@ sp needed
 510 0044 10BD     		pop	{r4, pc}
 511              		.cfi_endproc
 512              	.LFE10:
 513              		.size	x509_get_implicit_bit_string, .-x509_get_implicit_bit_string
 514              		.section	.text.x509_get_algorithm_identifier,"ax",%progbits
 515              		.align	1
 516              		.thumb
 517              		.thumb_func
 518              		.type	x509_get_algorithm_identifier, %function
 519              	x509_get_algorithm_identifier:
 520              	.LFB15:
 625:src/x509.c    **** 
 626:src/x509.c    **** /*---------------------------------------------------------------------*/
 627:src/x509.c    **** static int x509_get_explicit_extensions(BYTE ** a_pp,int a_inlen, int a_expVal, T_X509_CERT_INFO *a
 628:src/x509.c    **** {
 629:src/x509.c    ****   BYTE *  p;
 630:src/x509.c    ****   BYTE *  end;
 631:src/x509.c    ****   BYTE *  extEnd;
 632:src/x509.c    ****   int     len, oid, tmpLen;
 633:src/x509.c    **** // syspack V1.2
 634:src/x509.c    **** //  int     critical;
 635:src/x509.c    ****   int     pathLenConstraint;
 636:src/x509.c    ****   int     bool_val;
 637:src/x509.c    **** 
 638:src/x509.c    ****   if (a_inlen < 1) return 0;
 639:src/x509.c    ****   p   = *a_pp;
 640:src/x509.c    ****   end = p + a_inlen;
 641:src/x509.c    **** /*
 642:src/x509.c    ****   Not treating this as an error because it is optional.
 643:src/x509.c    **** */
 644:src/x509.c    ****   if (*p != (K_AsnContextSpecific | K_AsnConstructed | a_expVal))
ARM GAS  C:\Users\AHMED~1.ELE\AppData\Local\Temp\ccaBET3e.s 			page 22


 645:src/x509.c    ****     return -1;
 646:src/x509.c    **** 
 647:src/x509.c    ****   p++;
 648:src/x509.c    ****   if (x509_get_asn_length(&p,(int)(end - p),&len) == 0 || (end-p) < len)
 649:src/x509.c    ****     return 0;
 650:src/x509.c    **** /*
 651:src/x509.c    ****   Extensions ::= SEQUENCE SIZE (1..MAX) OF Extension
 652:src/x509.c    **** 
 653:src/x509.c    ****   Extension  ::= SEQUENCE {
 654:src/x509.c    ****                extnID    OBJECT IDENTIFIER,
 655:src/x509.c    ****      extnValue OCTET STRING }
 656:src/x509.c    **** */
 657:src/x509.c    ****   if (x509_get_sequence(&p,(int)(end - p),&len) == 0)
 658:src/x509.c    ****     return 0;
 659:src/x509.c    ****   extEnd = p + len;
 660:src/x509.c    ****   while ((p != extEnd) && *p == (K_AsnSequence|K_AsnConstructed))
 661:src/x509.c    ****   {
 662:src/x509.c    ****     if (x509_get_sequence(&p,(int)(extEnd - p),&len) == 0)
 663:src/x509.c    ****       return 0;
 664:src/x509.c    **** /*
 665:src/x509.c    ****   Conforming CAs MUST support key identifiers, basic constraints,
 666:src/x509.c    ****   key usage, and certificate policies extensions
 667:src/x509.c    **** 
 668:src/x509.c    ****   id-ce-authorityKeyIdentifier OBJECT IDENTIFIER ::= { id-ce 35 }
 669:src/x509.c    ****   id2-ce-basicConstraints      OBJECT IDENTIFIER ::= { id-ce 19 } 133
 670:src/x509.c    ****   id-ce-keyUsage               OBJECT IDENTIFIER ::= { id-ce 15 }
 671:src/x509.c    ****   id-ce-certificatePolicies    OBJECT IDENTIFIER ::= { id-ce 32 }
 672:src/x509.c    ****   id-ce-subjectAltName         OBJECT IDENTIFIER ::= { id-ce 17 } 131
 673:src/x509.c    **** */
 674:src/x509.c    ****     if (extEnd - p < 1 || *p++ != K_AsnOId)
 675:src/x509.c    ****       return 0;
 676:src/x509.c    **** 
 677:src/x509.c    ****     oid = 0;
 678:src/x509.c    ****     if (x509_get_asn_length(&p,(int)(extEnd - p),&len) == 0 ||
 679:src/x509.c    ****         (extEnd - p) < len)
 680:src/x509.c    ****       return 0;
 681:src/x509.c    **** 
 682:src/x509.c    **** #if 0
 683:src/x509.c    ****     while (len-- > 0)
 684:src/x509.c    ****       oid += (int)*p++;
 685:src/x509.c    **** #else
 686:src/x509.c    ****     oid = oid_to_hash_value(p,len);
 687:src/x509.c    ****     p += len;
 688:src/x509.c    **** #endif
 689:src/x509.c    **** /*
 690:src/x509.c    ****   Possible boolean value here for 'critical' id.  It's a failure if a
 691:src/x509.c    ****   critical extension is found that is not supported
 692:src/x509.c    **** */
 693:src/x509.c    **** // syspack V1.2 9-7-2012
 694:src/x509.c    **** //    critical = 0;
 695:src/x509.c    ****     if (*p == K_AsnBoolean)
 696:src/x509.c    ****     {
 697:src/x509.c    ****       p++;
 698:src/x509.c    ****       if (*p++ != 1)
 699:src/x509.c    ****         return 0;
 700:src/x509.c    ****       if (*p++ > 0);
 701:src/x509.c    **** // syspack V1.2 9-7-2012
ARM GAS  C:\Users\AHMED~1.ELE\AppData\Local\Temp\ccaBET3e.s 			page 23


 702:src/x509.c    **** //        critical = 1;
 703:src/x509.c    ****     }
 704:src/x509.c    ****     if (extEnd - p < 1 || (*p++ != K_AsnOctetString) ||
 705:src/x509.c    ****         x509_get_asn_length(&p,(int)(extEnd - p),&len) == 0 ||
 706:src/x509.c    ****         extEnd - p < len)
 707:src/x509.c    ****       return 0;
 708:src/x509.c    **** 
 709:src/x509.c    ****     switch (oid)
 710:src/x509.c    ****     {
 711:src/x509.c    **** /*
 712:src/x509.c    ****   BasicConstraints ::= SEQUENCE {
 713:src/x509.c    ****                           cA BOOLEAN DEFAULT FALSE,
 714:src/x509.c    ****                           pathLenConstraint INTEGER (0..MAX) OPTIONAL }
 715:src/x509.c    **** */
 716:src/x509.c    ****       case K_OIdExtBasicConstraints:
 717:src/x509.c    ****         if (x509_get_sequence(&p,(int)(extEnd - p),&len) == 0)
 718:src/x509.c    ****           return 0;
 719:src/x509.c    **** 
 720:src/x509.c    ****         /* dbg_printf(" -- basic constrains (len=%u)\n",len); */
 721:src/x509.c    ****         /* dbg_hexdump(p,len); */
 722:src/x509.c    ****         
 723:src/x509.c    **** /*
 724:src/x509.c    ****   "This goes against PKIX guidelines but some CAs do it and some
 725:src/x509.c    ****   software requires this to avoid interpreting an end user
 726:src/x509.c    ****   certificate as a CA."
 727:src/x509.c    ****     - OpenSSL certificate configuration doc
 728:src/x509.c    ****     basicConstraints=CA:FALSE
 729:src/x509.c    **** */
 730:src/x509.c    ****         if (len == 0)
 731:src/x509.c    ****           break;
 732:src/x509.c    **** 
 733:src/x509.c    ****         if ( x509_get_boolean(&p,len,&bool_val) == 0 )
 734:src/x509.c    ****           return 0;
 735:src/x509.c    ****         if ( bool_val ) {
 736:src/x509.c    ****           a_cert_info->w_key_usage |= K_X509_KeyUsageFlag_IsCA;
 737:src/x509.c    ****         } else {
 738:src/x509.c    ****           a_cert_info->w_key_usage &= ~K_X509_KeyUsageFlag_IsCA;
 739:src/x509.c    ****         };
 740:src/x509.c    ****         
 741:src/x509.c    ****         /* if (extEnd - p < 3) */
 742:src/x509.c    ****         /*   return 0; */
 743:src/x509.c    ****         /* if (*p++ != K_AsnBoolean) */
 744:src/x509.c    ****         /*   return 0; */
 745:src/x509.c    ****         /* if (*p++ != 1) */
 746:src/x509.c    ****         /*   return 0; */
 747:src/x509.c    ****         /* // *p++; */
 748:src/x509.c    **** 	/* p++; */
 749:src/x509.c    **** /*
 750:src/x509.c    ****   Now need to check if there is a path constraint. Only makes
 751:src/x509.c    ****   sense if cA is true.  If it's missing, there is no limit to
 752:src/x509.c    ****   the cert path
 753:src/x509.c    **** */
 754:src/x509.c    ****         if (*p == K_AsnInteger)
 755:src/x509.c    ****         {
 756:src/x509.c    ****           if (x509_get_integer(&p,(int)(extEnd - p),&pathLenConstraint) == 0)
 757:src/x509.c    ****             return 0;
 758:src/x509.c    ****         }
ARM GAS  C:\Users\AHMED~1.ELE\AppData\Local\Temp\ccaBET3e.s 			page 24


 759:src/x509.c    ****         else
 760:src/x509.c    ****           pathLenConstraint = -1;
 761:src/x509.c    ****         break;
 762:src/x509.c    ****         
 763:src/x509.c    ****       case K_OIdExtAltSubjectName:
 764:src/x509.c    ****         
 765:src/x509.c    ****         if (x509_get_sequence(&p,(int)(extEnd - p),&len) == 0)
 766:src/x509.c    ****           return 0;
 767:src/x509.c    **** /*
 768:src/x509.c    ****   Looking only for DNS, URI, and email here to support
 769:src/x509.c    ****   FQDN for Web clients
 770:src/x509.c    **** 
 771:src/x509.c    ****   FUTURE:  Support all subject alt name members
 772:src/x509.c    ****   GeneralName ::= CHOICE {
 773:src/x509.c    ****     otherName[0]                    OtherName,
 774:src/x509.c    ****     rfc822Name[1]                   IA5String,
 775:src/x509.c    ****     dNSName[2]                      IA5String,
 776:src/x509.c    ****     x400Address [3]                 ORAddress,
 777:src/x509.c    ****     directoryName[4]                Name,
 778:src/x509.c    ****     ediPartyName[5]                 EDIPartyName,
 779:src/x509.c    ****     uniformResourceIdentifier[6]    IA5String,
 780:src/x509.c    ****     iPAddress[7]                    OCTET STRING,
 781:src/x509.c    ****     registeredID[8]                 OBJECT IDENTIFIER }
 782:src/x509.c    **** */
 783:src/x509.c    ****         while (len > 0)
 784:src/x509.c    ****         {
 785:src/x509.c    ****           if (*p == (K_AsnContextSpecific | K_AsnPrimitive | 2))
 786:src/x509.c    ****           {
 787:src/x509.c    ****             p++;
 788:src/x509.c    ****             tmpLen = *p++;
 789:src/x509.c    ****             if (extEnd - p < tmpLen)
 790:src/x509.c    ****             return 0;
 791:src/x509.c    ****           }
 792:src/x509.c    ****           else
 793:src/x509.c    ****             if (*p == (K_AsnContextSpecific | K_AsnPrimitive | 6))
 794:src/x509.c    ****             {
 795:src/x509.c    ****               p++;
 796:src/x509.c    ****               tmpLen = *p++;
 797:src/x509.c    ****               if (extEnd - p < tmpLen)
 798:src/x509.c    ****                 return 0;
 799:src/x509.c    ****             }
 800:src/x509.c    ****             else
 801:src/x509.c    ****               if (*p == (K_AsnContextSpecific | K_AsnPrimitive | 1))
 802:src/x509.c    ****               {
 803:src/x509.c    ****                 p++;
 804:src/x509.c    ****                 tmpLen = *p++;
 805:src/x509.c    ****                 if (extEnd - p < tmpLen)
 806:src/x509.c    ****                   return 0;
 807:src/x509.c    ****               }
 808:src/x509.c    ****               else
 809:src/x509.c    ****               {
 810:src/x509.c    ****                 p++;
 811:src/x509.c    ****                 tmpLen = *p++;
 812:src/x509.c    ****                 if (extEnd - p < tmpLen)
 813:src/x509.c    ****                   return 0;
 814:src/x509.c    ****               }
 815:src/x509.c    ****           p = p + tmpLen;
ARM GAS  C:\Users\AHMED~1.ELE\AppData\Local\Temp\ccaBET3e.s 			page 25


 816:src/x509.c    ****           len -= tmpLen + 2; /* the magic 2 is the type and length */
 817:src/x509.c    ****         }
 818:src/x509.c    ****         break;
 819:src/x509.c    **** 
 820:src/x509.c    **** /***********************************************************************/
 821:src/x509.c    **** #ifdef USE_FULL_CERT_PARSE
 822:src/x509.c    **** 
 823:src/x509.c    **** #if defined(USE_FULL_CERT_PARSE_AUTHKEYID)
 824:src/x509.c    ****       case K_OIdExtAuthKeyId:
 825:src/x509.c    **** /*
 826:src/x509.c    ****   AuthorityKeyIdentifier ::= SEQUENCE {
 827:src/x509.c    ****     keyIdentifier[0] K            KeyIdentifier OPTIONAL,
 828:src/x509.c    ****     authorityCertIssuer[1]        GeneralNames OPTIONAL,
 829:src/x509.c    ****     authorityCertSerialNumber[2]  CertificateSerialNumber OPTIONAL }
 830:src/x509.c    **** 
 831:src/x509.c    ****   KeyIdentifier ::= OCTET STRING
 832:src/x509.c    **** */
 833:src/x509.c    ****         if (x509_get_sequence(&p,(int)(extEnd - p),&len) == 0 || len < 1)
 834:src/x509.c    ****           return 0;
 835:src/x509.c    **** /*
 836:src/x509.c    ****   All memebers are optional
 837:src/x509.c    **** */
 838:src/x509.c    ****         if (*p == (K_AsnContextSpecific|K_AsnPrimitive | 0))
 839:src/x509.c    ****         {
 840:src/x509.c    ****           p++;
 841:src/x509.c    ****           if (x509_get_asn_length(&p,(int)(extEnd - p),&keyLen) == 0 ||
 842:src/x509.c    ****               extEnd - p < keyLen)
 843:src/x509.c    ****             return 0;
 844:src/x509.c    **** /* extensions->ak.keyId = psMalloc(extensions->ak.keyLen); */
 845:src/x509.c    **** /* memcpy(extensions->ak.keyId, p, extensions->ak.keyLen); */
 846:src/x509.c    ****           p = p + keyLen;
 847:src/x509.c    ****         }
 848:src/x509.c    **** 
 849:src/x509.c    ****         if (*p == (K_AsnContextSpecific | K_AsnConstructed | 1))
 850:src/x509.c    ****         {
 851:src/x509.c    ****           p++;
 852:src/x509.c    ****           if (x509_get_asn_length(&p,(int)(extEnd - p),&len) == 0 ||
 853:src/x509.c    ****               len < 1 || extEnd - p < len)
 854:src/x509.c    ****           return 0;
 855:src/x509.c    ****           if ((*p ^ K_AsnContextSpecific ^ K_AsnConstructed) != 4)
 856:src/x509.c    ****             /*
 857:src/x509.c    ****               FUTURE: support other name types
 858:src/x509.c    ****               We are just dealing with DN formats here
 859:src/x509.c    ****             */
 860:src/x509.c    ****             return 0;
 861:src/x509.c    ****           p++;
 862:src/x509.c    ****           if (x509_get_asn_length(&p,(int)(extEnd - p),&len) == 0 ||
 863:src/x509.c    ****               extEnd - p < len)
 864:src/x509.c    ****             return 0;
 865:src/x509.c    ****           if (x509_get_dn_attrib(&p,(int)(extEnd - p),NULL) == 0)
 866:src/x509.c    ****             return 0;
 867:src/x509.c    ****         }
 868:src/x509.c    **** 
 869:src/x509.c    ****         /* Certficiate Serial Number can be a really big big integer
 870:src/x509.c    ****          * practically.  Since we don't need this piece of
 871:src/x509.c    ****          * information, just skip this block entirely unless we are
 872:src/x509.c    ****          * interested in this entity.
ARM GAS  C:\Users\AHMED~1.ELE\AppData\Local\Temp\ccaBET3e.s 			page 26


 873:src/x509.c    ****          */
 874:src/x509.c    **** #if 0
 875:src/x509.c    ****         if (*p == (K_AsnContextSpecific|K_AsnPrimitive | 2))
 876:src/x509.c    ****         {
 877:src/x509.c    ****           BYTE * ptr = p, temp;
 878:src/x509.c    ****           temp = *p;
 879:src/x509.c    ****           /*
 880:src/x509.c    ****             Standard x509_get_integer doesn't like CONTEXT_SPECIFIC tag
 881:src/x509.c    ****           */
 882:src/x509.c    ****           *p &= K_AsnInteger;
 883:src/x509.c    ****           if (x509_get_integer(&p,(int)(extEnd - p),&serialNum) == 0)
 884:src/x509.c    ****           {
 885:src/x509.c    ****             *ptr = temp;
 886:src/x509.c    ****             return 0;
 887:src/x509.c    ****           }
 888:src/x509.c    ****           *ptr = temp;
 889:src/x509.c    ****         }
 890:src/x509.c    **** #else
 891:src/x509.c    ****         if ( *p == (K_AsnContextSpecific|K_AsnPrimitive | 2) )
 892:src/x509.c    ****         {
 893:src/x509.c    ****           int bilen;            /* big integer length */
 894:src/x509.c    ****           p++;
 895:src/x509.c    ****           if ( x509_get_asn_length(&p,(int)(extEnd-p),&bilen) == 0 )
 896:src/x509.c    ****             return 0;
 897:src/x509.c    ****           p += bilen;
 898:src/x509.c    ****         }
 899:src/x509.c    **** #endif
 900:src/x509.c    ****         break;
 901:src/x509.c    **** #endif  /* USE_FULL_CERT_PARSE_AUTHKEYID */
 902:src/x509.c    **** 
 903:src/x509.c    **** #if defined(USE_FULL_CERT_PARSE_KEYUSAGE)
 904:src/x509.c    ****       case K_OIdExtKeyUsage:
 905:src/x509.c    **** /*
 906:src/x509.c    ****   KeyUsage ::= BIT STRING {
 907:src/x509.c    ****     digitalSignature    (0),
 908:src/x509.c    ****     nonRepudiation      (1),
 909:src/x509.c    ****     keyEncipherment     (2),
 910:src/x509.c    ****     dataEncipherment    (3),
 911:src/x509.c    ****     keyAgreement        (4),
 912:src/x509.c    ****     keyCertSign         (5),
 913:src/x509.c    ****     cRLSign             (6),
 914:src/x509.c    ****     encipherOnly        (7),
 915:src/x509.c    ****     decipherOnly        (8) }
 916:src/x509.c    **** */
 917:src/x509.c    ****         if (*p++ != K_AsnBitString)
 918:src/x509.c    ****           return 0;
 919:src/x509.c    ****         if (x509_get_asn_length(&p,(int)(extEnd - p),&len) == 0 ||
 920:src/x509.c    ****             extEnd - p < len)
 921:src/x509.c    ****           return 0;
 922:src/x509.c    ****         
 923:src/x509.c    ****         if ( len < 1 )
 924:src/x509.c    ****         {
 925:src/x509.c    ****           
 926:src/x509.c    ****           return 0;
 927:src/x509.c    ****           
 928:src/x509.c    ****         } else {
 929:src/x509.c    ****           
ARM GAS  C:\Users\AHMED~1.ELE\AppData\Local\Temp\ccaBET3e.s 			page 27


 930:src/x509.c    ****           /* Bit string may be of variable length due to future
 931:src/x509.c    ****            * expansion.  According to RFC5280, only 9 bits are
 932:src/x509.c    ****            * defined.  It is possible to have this bit-string size
 933:src/x509.c    ****            * more than 2 octets for the time being.
 934:src/x509.c    ****            */
 935:src/x509.c    ****           DWORD d_usage = 0;
 936:src/x509.c    ****           
 937:src/x509.c    ****           /* dbg_printf(" -- key usage pattern\r\n"); */
 938:src/x509.c    ****           /* dbg_hexdump(p,len); */
 939:src/x509.c    ****           
 940:src/x509.c    ****           /* bit string structure -
 941:src/x509.c    ****            *   nn mm ll ....
 942:src/x509.c    ****            *    -- nn is a initial byte descibing the how many unused
 943:src/x509.c    ****            *       bits at the last bit-string content byte.
 944:src/x509.c    ****            *    -- bit 0x80 of mm is the bit at position 0.
 945:src/x509.c    ****            *       bit 0x40 of mm is the bit at position 1.
 946:src/x509.c    ****            *       ...
 947:src/x509.c    ****            *       bit 0x01 of mm is the bit at position 7.
 948:src/x509.c    ****            *
 949:src/x509.c    ****            *    -- bit 0x80 of nn is the bit at position 
 950:src/x509.c    ****            * leading initial byte (nn) must take the value within
 951:src/x509.c    ****            * 0 to 7 which denotes number of unused bits in last bytes
 952:src/x509.c    ****            */
 953:src/x509.c    ****           if ( len < 1 || *p > 7 )
 954:src/x509.c    ****             return 0;           /* initial byte must be within 0 to 7 */
 955:src/x509.c    ****           if ( len > 1 )
 956:src/x509.c    ****             d_usage |= p[1] << 24;
 957:src/x509.c    ****           if ( len > 2 )
 958:src/x509.c    ****             d_usage |= p[2] << 16;
 959:src/x509.c    ****           /* do a 16-bits reversal */
 960:src/x509.c    ****           d_usage = x509_bit_reverse(d_usage);
 961:src/x509.c    ****           a_cert_info->w_key_usage &= 0xFE00;
 962:src/x509.c    ****           a_cert_info->w_key_usage |= d_usage & 0x1FF;
 963:src/x509.c    ****           a_cert_info->w_key_usage |= K_X509_KeyUsageFlag_HasKeyUsage;
 964:src/x509.c    ****         };
 965:src/x509.c    ****         p = p + len;
 966:src/x509.c    ****         break;
 967:src/x509.c    **** #endif  /* USE_FULL_CERT_PARSE_EXTKEYUSAGE */
 968:src/x509.c    **** 
 969:src/x509.c    **** #if defined(USE_FULL_CERT_PARSE_SUBJKEYID)
 970:src/x509.c    ****       case K_OIdExtSubjKeyId:
 971:src/x509.c    **** /*
 972:src/x509.c    ****   The value of the subject key identifier MUST be the value
 973:src/x509.c    ****   placed in the key identifier field of the Auth Key Identifier
 974:src/x509.c    ****   extension of certificates issued by the subject of
 975:src/x509.c    ****   this certificate.
 976:src/x509.c    **** */
 977:src/x509.c    ****         if (*p++ != K_AsnOctetString ||
 978:src/x509.c    ****             x509_get_asn_length(&p,(int)(extEnd - p),&keyLen) == 0 ||
 979:src/x509.c    ****             extEnd - p < keyLen)
 980:src/x509.c    ****           return 0;
 981:src/x509.c    **** /* extensions->sk.id = psMalloc(extensions->sk.len); */
 982:src/x509.c    **** /* memcpy(extensions->sk.id, p, extensions->sk.len); */
 983:src/x509.c    ****         p = p + keyLen;
 984:src/x509.c    ****         break;
 985:src/x509.c    **** #endif
 986:src/x509.c    **** #endif /* USE_FULL_CERT_PARSE */
ARM GAS  C:\Users\AHMED~1.ELE\AppData\Local\Temp\ccaBET3e.s 			page 28


 987:src/x509.c    **** /*
 988:src/x509.c    ****   Unsupported or skipping because USE_FULL_CERT_PARSE is undefined
 989:src/x509.c    **** */
 990:src/x509.c    **** /***********************************************************************/
 991:src/x509.c    **** 
 992:src/x509.c    ****       default:
 993:src/x509.c    **** // syspack V1.2 9-7-2012
 994:src/x509.c    **** #if 0
 995:src/x509.c    ****         if (critical)
 996:src/x509.c    ****           return 0;
 997:src/x509.c    **** #endif
 998:src/x509.c    ****         p++;
 999:src/x509.c    ****         if (x509_get_asn_length(&p,(int)(extEnd - p),&len) == 0 ||
1000:src/x509.c    ****             extEnd - p < len)
1001:src/x509.c    ****           return 0;
1002:src/x509.c    ****         p = p + len;
1003:src/x509.c    ****         break;
1004:src/x509.c    ****     }
1005:src/x509.c    ****   }
1006:src/x509.c    ****   *a_pp = p;
1007:src/x509.c    ****   return -1;
1008:src/x509.c    **** }
1009:src/x509.c    **** 
1010:src/x509.c    **** /*---------------------------------------------------------------------*/
1011:src/x509.c    **** static int x509_get_SerialNum(BYTE ** a_pp,int a_len)
1012:src/x509.c    **** {
1013:src/x509.c    ****   BYTE *  p;
1014:src/x509.c    ****   int     vlen;
1015:src/x509.c    **** 
1016:src/x509.c    ****   p = *a_pp;
1017:src/x509.c    ****   if (a_len < 1 || *(p++) != K_AsnInteger ||
1018:src/x509.c    ****       x509_get_asn_length(&p,a_len-1,&vlen) == 0)
1019:src/x509.c    ****     return 0;
1020:src/x509.c    **** 
1021:src/x509.c    ****    p += vlen;
1022:src/x509.c    ****   *a_pp = p;
1023:src/x509.c    ****   return -1;
1024:src/x509.c    **** }
1025:src/x509.c    **** 
1026:src/x509.c    **** static BOOLEAN x509_rsapss_param_identical(T_RSAPSS_PARAM *s1, T_RSAPSS_PARAM *s2)
1027:src/x509.c    **** {
1028:src/x509.c    ****   if ( s1 == NULL || s2 == NULL )
1029:src/x509.c    ****     return FALSE;
1030:src/x509.c    ****   if ( s1 == s2 )
1031:src/x509.c    ****     return TRUE;
1032:src/x509.c    ****   return (memcmp(s1,s2,sizeof(T_RSAPSS_PARAM))) ? FALSE : TRUE;
1033:src/x509.c    **** }
1034:src/x509.c    **** 
1035:src/x509.c    **** static int x509_get_rsapss_param(BYTE ** a_pp, int a_len, T_RSAPSS_PARAM *param)
1036:src/x509.c    **** {
1037:src/x509.c    **** 
1038:src/x509.c    ****   /* -------------------------------------------------------------------
1039:src/x509.c    ****    * RFC3447 PKCS#1 v2.1 (Appendix A.2.3)
1040:src/x509.c    ****    * RSASSA-PSS-params ::= SEQUENCE {
1041:src/x509.c    ****    *   hashAlgorithm [0] HashAlgorithm DEFAULT sha1,
1042:src/x509.c    ****    *   maskGenAlgorithm [1] MaskGenAlgorithm DEFAULT mgf1SHA1,
1043:src/x509.c    ****    *   saltLength [2] INTEGER DEFAULT 20,
ARM GAS  C:\Users\AHMED~1.ELE\AppData\Local\Temp\ccaBET3e.s 			page 29


1044:src/x509.c    ****    *   trailerField [3] TrailerField DEFAULT trailerFieldBC
1045:src/x509.c    ****    * }
1046:src/x509.c    ****    * ------------------------------------------------------------------- */
1047:src/x509.c    ****   BYTE *p, *p_e, *p_pe;
1048:src/x509.c    ****   BYTE *end;
1049:src/x509.c    ****   int arcLen, llen;
1050:src/x509.c    ****   BYTE tag;
1051:src/x509.c    ****   const BYTE b_ctx_struct = K_AsnContextSpecific | K_AsnConstructed;
1052:src/x509.c    **** 
1053:src/x509.c    ****   p = *a_pp;
1054:src/x509.c    ****   end = p + a_len;
1055:src/x509.c    **** 
1056:src/x509.c    ****   if ( a_len < 2 || x509_get_sequence(&p,a_len,&llen) == 0 )
1057:src/x509.c    ****     return 0;
1058:src/x509.c    **** 
1059:src/x509.c    ****   param->d_hash_algo = K_OIdSha1;
1060:src/x509.c    ****   param->d_mask_gen_func = K_OIdMgf1;
1061:src/x509.c    ****   param->d_mgf_digest = K_OIdSha1;
1062:src/x509.c    ****   param->d_salt_length = 20;
1063:src/x509.c    ****   param->d_trailer_field = 1;
1064:src/x509.c    **** 
1065:src/x509.c    ****   if ( llen == 0 )
1066:src/x509.c    ****   {
1067:src/x509.c    ****     /* dbg_printf("empty PSS param, use default settings...\n"); */
1068:src/x509.c    ****     *a_pp = p;
1069:src/x509.c    ****     /* use default PSS parameters */
1070:src/x509.c    ****     return -1;
1071:src/x509.c    ****   };
1072:src/x509.c    **** 
1073:src/x509.c    ****   /* dbg_printf("PSS param content size = %d\n",llen); */
1074:src/x509.c    ****   if ( end - p < llen )
1075:src/x509.c    ****     return 0;
1076:src/x509.c    **** 
1077:src/x509.c    ****   /* all context-specific constucture are using tag 0~3, minimal
1078:src/x509.c    ****    * length of tag id and length field is 2 bytes */
1079:src/x509.c    ****   p_e = p + llen;
1080:src/x509.c    ****   while ( (int)(p_e - p) >= 2 ) {
1081:src/x509.c    **** 
1082:src/x509.c    ****     /* dbg_printf("\ntag %x\n",*p); */
1083:src/x509.c    ****     tag = *p++;
1084:src/x509.c    **** 
1085:src/x509.c    ****     if ( (tag & b_ctx_struct) != b_ctx_struct )
1086:src/x509.c    ****       return 0;
1087:src/x509.c    ****     
1088:src/x509.c    ****     tag &= 0x1f;
1089:src/x509.c    ****     if ( tag > 3 )
1090:src/x509.c    ****       return 0;                 /* error! */
1091:src/x509.c    **** 
1092:src/x509.c    ****     if ( x509_get_asn_length(&p,(int)(p_e - p),&arcLen) == 0 )
1093:src/x509.c    ****       return 0;
1094:src/x509.c    **** 
1095:src/x509.c    ****     /* p_e  - points to end of PSS-PARAMS
1096:src/x509.c    ****      * p_pe - points to end of this context-specific struct */
1097:src/x509.c    ****     p_pe = p + arcLen;
1098:src/x509.c    ****     /* dbg_printf("\ntag %d len = %d\n",tag, arcLen); */
1099:src/x509.c    ****     /* dbg_hexdump(p,arcLen); */
1100:src/x509.c    **** 
ARM GAS  C:\Users\AHMED~1.ELE\AppData\Local\Temp\ccaBET3e.s 			page 30


1101:src/x509.c    ****     switch ( tag )
1102:src/x509.c    ****     {
1103:src/x509.c    ****       case 0:
1104:src/x509.c    ****       /* hashAlgorithm [0] HashAlgorithm DEFAULT sha1
1105:src/x509.c    ****        *  - an OID in the set of OAEP-PSSDigestAlgorithms */
1106:src/x509.c    ****       if ( (int)(p_pe - p) < 2 || x509_get_sequence(&p,(int)(p_pe-p),&arcLen) == 0 )
1107:src/x509.c    **** 	return 0;
1108:src/x509.c    ****       if ( (int)(p_pe - p) < 2 || x509_get_oid(&p,(int)(p_pe-p),&arcLen) == 0 )
1109:src/x509.c    **** 	return 0;
1110:src/x509.c    **** 
1111:src/x509.c    ****       param->d_hash_algo = oid_to_hash_value(p,arcLen);
1112:src/x509.c    ****       /* dbg_printf("tag %u oid hash 0x%08x\n",tag,param->d_hash_algo); */
1113:src/x509.c    ****       break;
1114:src/x509.c    **** 
1115:src/x509.c    ****       case 1:
1116:src/x509.c    ****       /* maskGenAlgorithm [1] MaskGenAlgorithm DEFAULT mgf1SHA1 */
1117:src/x509.c    ****       if ( (int)(p_pe - p) < 2 || x509_get_sequence(&p,(int)(p_pe-p),&arcLen) == 0 )
1118:src/x509.c    **** 	return 0;
1119:src/x509.c    ****       if ( (int)(p_pe - p) < 2 || x509_get_oid(&p,(int)(p_pe-p),&arcLen) == 0 )
1120:src/x509.c    **** 	return 0;
1121:src/x509.c    ****         
1122:src/x509.c    ****       param->d_mask_gen_func = oid_to_hash_value(p,arcLen);
1123:src/x509.c    ****       /* dbg_printf("tag %u oid hash #1 0x%08x\n",tag,param->d_mask_gen_func); */
1124:src/x509.c    ****       p += arcLen;
1125:src/x509.c    **** 
1126:src/x509.c    ****       if ( (int)(p_pe - p) < 2 || x509_get_sequence(&p,(int)(p_pe-p),&arcLen) == 0 )
1127:src/x509.c    **** 	return 0;
1128:src/x509.c    ****       if ( (int)(p_pe - p) < 2 || x509_get_oid(&p,(int)(p_pe-p),&arcLen) == 0 )
1129:src/x509.c    **** 	return 0;
1130:src/x509.c    ****       param->d_mgf_digest = oid_to_hash_value(p,arcLen);
1131:src/x509.c    ****       /* dbg_printf("tag %u oid hash #2 0x%08x\n",tag,param->d_mgf_digest); */
1132:src/x509.c    ****       break;
1133:src/x509.c    **** 
1134:src/x509.c    ****     case 2:
1135:src/x509.c    ****       /* saltLength [2] INTEGER DEFAULT 20 */
1136:src/x509.c    ****       if ( (int)(p_pe - p) < 2 || x509_get_integer(&p,(int)(p_pe-p),&arcLen) == 0 )
1137:src/x509.c    ****       return 0;
1138:src/x509.c    ****       param->d_salt_length = arcLen;
1139:src/x509.c    ****       /* dbg_printf("tag %u salt-length = %u\n",tag,param->d_salt_length); */
1140:src/x509.c    ****       break;
1141:src/x509.c    **** 
1142:src/x509.c    ****     case 3:
1143:src/x509.c    ****       /* trailerField [3] TrailerField DEFAULT trailerFieldBC */
1144:src/x509.c    ****       if ( (int)(p_pe - p) < 2 || x509_get_integer(&p,(int)(p_pe-p),&arcLen) == 0 )
1145:src/x509.c    **** 	return 0;
1146:src/x509.c    ****       param->d_trailer_field = arcLen;
1147:src/x509.c    ****       /* dbg_printf("tag %u trailer-field = %u\n",tag,param->d_trailer_field); */
1148:src/x509.c    ****       break;
1149:src/x509.c    ****     };
1150:src/x509.c    **** 
1151:src/x509.c    ****     p = p_pe;
1152:src/x509.c    ****     
1153:src/x509.c    ****   };
1154:src/x509.c    **** 
1155:src/x509.c    ****   *a_pp = p_e;
1156:src/x509.c    **** 
1157:src/x509.c    ****   if ( param->d_hash_algo != param->d_mgf_digest )
ARM GAS  C:\Users\AHMED~1.ELE\AppData\Local\Temp\ccaBET3e.s 			page 31


1158:src/x509.c    ****     return 0;
1159:src/x509.c    ****   /* only 0x1 are defined for the d_trailer_field so far. */ 
1160:src/x509.c    ****   if ( param->d_trailer_field != 1 )
1161:src/x509.c    ****     return 0;
1162:src/x509.c    ****   /* only id-mgf1 are defined for mask function */
1163:src/x509.c    ****   if( param->d_mask_gen_func != K_OIdMgf1 )
1164:src/x509.c    ****     return 0;
1165:src/x509.c    **** 
1166:src/x509.c    ****   return -1;
1167:src/x509.c    ****   
1168:src/x509.c    **** }
1169:src/x509.c    **** 
1170:src/x509.c    **** /*---------------------------------------------------------------------*/
1171:src/x509.c    **** static int x509_get_algorithm_identifier(BYTE **a_pp, int a_len, int *a_oi, T_RSAPSS_PARAM *a_pss, 
1172:src/x509.c    **** {
 521              		.loc 1 1172 0
 522              		.cfi_startproc
 523              		@ args = 4, pretend = 0, frame = 24
 524              		@ frame_needed = 0, uses_anonymous_args = 0
 525              	.LVL60:
 526 0000 2DE9F043 		push	{r4, r5, r6, r7, r8, r9, lr}
 527              		.cfi_def_cfa_offset 28
 528              		.cfi_offset 4, -28
 529              		.cfi_offset 5, -24
 530              		.cfi_offset 6, -20
 531              		.cfi_offset 7, -16
 532              		.cfi_offset 8, -12
 533              		.cfi_offset 9, -8
 534              		.cfi_offset 14, -4
1173:src/x509.c    ****   BYTE *  p;
1174:src/x509.c    ****   BYTE *  end;
1175:src/x509.c    ****   int     arcLen,llen;
1176:src/x509.c    **** 
1177:src/x509.c    ****   p = *a_pp;
 535              		.loc 1 1177 0
 536 0004 0568     		ldr	r5, [r0]
1172:src/x509.c    ****   BYTE *  p;
 537              		.loc 1 1172 0
 538 0006 87B0     		sub	sp, sp, #28
 539              		.cfi_def_cfa_offset 56
1178:src/x509.c    ****   end = p + a_len;
1179:src/x509.c    **** 
1180:src/x509.c    ****   if (a_len < 1 || x509_get_sequence(&p,a_len,&llen) == 0)
 540              		.loc 1 1180 0
 541 0008 0E1E     		subs	r6, r1, #0
1172:src/x509.c    ****   BYTE *  p;
 542              		.loc 1 1172 0
 543 000a 0746     		mov	r7, r0
 544 000c 9146     		mov	r9, r2
 545 000e 1C46     		mov	r4, r3
1177:src/x509.c    ****   end = p + a_len;
 546              		.loc 1 1177 0
 547 0010 0095     		str	r5, [sp]
 548              	.LVL61:
 549              		.loc 1 1180 0
 550 0012 01DC     		bgt	.L55
 551              	.LVL62:
ARM GAS  C:\Users\AHMED~1.ELE\AppData\Local\Temp\ccaBET3e.s 			page 32


 552              	.L57:
1181:src/x509.c    ****     return 0;
 553              		.loc 1 1181 0
 554 0014 0020     		movs	r0, #0
 555 0016 04E1     		b	.L56
 556              	.LVL63:
 557              	.L55:
1180:src/x509.c    ****     return 0;
 558              		.loc 1 1180 0 discriminator 1
 559 0018 6846     		mov	r0, sp
 560              	.LVL64:
 561 001a 02AA     		add	r2, sp, #8
 562              	.LVL65:
 563 001c FFF7FEFF 		bl	x509_get_sequence
 564              	.LVL66:
 565 0020 0028     		cmp	r0, #0
 566 0022 F7D0     		beq	.L57
1182:src/x509.c    **** 
1183:src/x509.c    ****   if (end - p < 1)
 567              		.loc 1 1183 0
 568 0024 009B     		ldr	r3, [sp]
1178:src/x509.c    **** 
 569              		.loc 1 1178 0
 570 0026 3544     		add	r5, r5, r6
 571              	.LVL67:
 572              		.loc 1 1183 0
 573 0028 EA1A     		subs	r2, r5, r3
 574 002a 002A     		cmp	r2, #0
 575 002c F2DD     		ble	.L57
1184:src/x509.c    ****     return 0;
1185:src/x509.c    **** 
1186:src/x509.c    ****   if (*(p++) != K_AsnOId || x509_get_asn_length(&p,(int)(end - p),&arcLen) == 0 ||
 576              		.loc 1 1186 0
 577 002e 591C     		adds	r1, r3, #1
 578 0030 0091     		str	r1, [sp]
 579 0032 1B78     		ldrb	r3, [r3]	@ zero_extendqisi2
 580 0034 062B     		cmp	r3, #6
 581 0036 EDD1     		bne	.L57
 582              		.loc 1 1186 0 is_stmt 0 discriminator 1
 583 0038 6846     		mov	r0, sp
 584 003a 691A     		subs	r1, r5, r1
 585 003c 01AA     		add	r2, sp, #4
 586 003e FFF7FEFF 		bl	x509_get_asn_length
 587              	.LVL68:
 588 0042 0028     		cmp	r0, #0
 589 0044 E6D0     		beq	.L57
1187:src/x509.c    ****       llen < arcLen)
 590              		.loc 1 1187 0 is_stmt 1 discriminator 2
 591 0046 DDF80480 		ldr	r8, [sp, #4]
1186:src/x509.c    ****       llen < arcLen)
 592              		.loc 1 1186 0 discriminator 2
 593 004a 029B     		ldr	r3, [sp, #8]
 594 004c 4345     		cmp	r3, r8
 595 004e E1DB     		blt	.L57
1188:src/x509.c    ****     return 0;
1189:src/x509.c    ****   /*
1190:src/x509.c    ****     List of expected (currently supported) OIDs
ARM GAS  C:\Users\AHMED~1.ELE\AppData\Local\Temp\ccaBET3e.s 			page 33


1191:src/x509.c    ****     algorithm               summed  length  hex
1192:src/x509.c    ****     s_x509_sha1             88      05      2b0e03021a
1193:src/x509.c    ****     md2                     646     08      2a864886f70d0202
1194:src/x509.c    ****     s_x509_md5              649     08      2a864886f70d0205
1195:src/x509.c    ****     rsaEncryption           645     09      2a864886f70d010101
1196:src/x509.c    ****     md2WithRSAEncryption    646     09      2a864886f70d010102
1197:src/x509.c    ****     md5WithRSAEncryption    648     09      2a864886f70d010104
1198:src/x509.c    ****     sha-1WithRSAEncryption  649     09      2a864886f70d010105
1199:src/x509.c    ****     sha224WithRSAEncryption 658     09      2a864886f70d01010e
1200:src/x509.c    ****     sha256WithRSAEncryption 655     09      2a864886f70d01010b
1201:src/x509.c    ****     sha384WithRSAEncryption 656     09      2a864886f70d01010c
1202:src/x509.c    ****     sha512WithRSAEncryption 657     09      2a864886f70d01010d
1203:src/x509.c    **** 
1204:src/x509.c    ****     Yes, the summing isn't ideal (as can be seen with the duplicate 649),
1205:src/x509.c    ****     but the specific implementation makes this ok.
1206:src/x509.c    ****   */
1207:src/x509.c    ****   if (end - p < 2)
 596              		.loc 1 1207 0
 597 0050 009E     		ldr	r6, [sp]
 598              	.LVL69:
 599 0052 AB1B     		subs	r3, r5, r6
 600 0054 012B     		cmp	r3, #1
 601 0056 DDDD     		ble	.L57
1208:src/x509.c    ****     return 0;
1209:src/x509.c    **** 
1210:src/x509.c    ****   if (a_isPubKey && (*p != 0x2a) && (*(p + 1) != 0x86))
 602              		.loc 1 1210 0
 603 0058 0E9B     		ldr	r3, [sp, #56]
 604 005a 2BB1     		cbz	r3, .L58
 605              		.loc 1 1210 0 is_stmt 0 discriminator 1
 606 005c 3378     		ldrb	r3, [r6]	@ zero_extendqisi2
 607 005e 2A2B     		cmp	r3, #42
 608 0060 02D0     		beq	.L58
 609              		.loc 1 1210 0 discriminator 2
 610 0062 7378     		ldrb	r3, [r6, #1]	@ zero_extendqisi2
 611 0064 862B     		cmp	r3, #134
 612 0066 D5D1     		bne	.L57
 613              	.L58:
1211:src/x509.c    ****     /*
1212:src/x509.c    ****       Expecting DSA here if not RSA, but OID doesn't always match
1213:src/x509.c    ****     */
1214:src/x509.c    ****     return 0;
1215:src/x509.c    **** 
1216:src/x509.c    **** #if 0
1217:src/x509.c    ****   *a_oi = 0;
1218:src/x509.c    ****   while (arcLen-- > 0)
1219:src/x509.c    ****     *a_oi += (int)*p++;
1220:src/x509.c    **** #else
1221:src/x509.c    ****   *a_oi = oid_to_hash_value(p,arcLen);
 614              		.loc 1 1221 0 is_stmt 1
 615 0068 4146     		mov	r1, r8
 616 006a 3046     		mov	r0, r6
 617 006c FFF7FEFF 		bl	oid_to_hash_value
 618              	.LVL70:
1222:src/x509.c    ****   p += arcLen;
1223:src/x509.c    **** #endif
1224:src/x509.c    **** 
ARM GAS  C:\Users\AHMED~1.ELE\AppData\Local\Temp\ccaBET3e.s 			page 34


1225:src/x509.c    ****   /* Kong: PKCS #1 v2.1 has specified two kind of signature padding schemem.
1226:src/x509.c    ****    *       Either RSASSA-PSS or RSASSA-PKCS1-V1_5.
1227:src/x509.c    ****    *       Special care should be applied to RSASSA-PSS algorithm ID.
1228:src/x509.c    ****    *       RSASSA-PKCS1-V1_5 all have a NULL following the algorithm OID.
1229:src/x509.c    ****    *       However, it is another sequence of parameters block after
1230:src/x509.c    ****    *       RSASSA-PSS OID.
1231:src/x509.c    ****    */
1232:src/x509.c    **** 
1233:src/x509.c    ****   if ( *a_oi != K_OIdRsaPSS )
 619              		.loc 1 1233 0
 620 0070 6D4A     		ldr	r2, .L119
1222:src/x509.c    ****   p += arcLen;
 621              		.loc 1 1222 0
 622 0072 06EB0803 		add	r3, r6, r8
 623 0076 E91A     		subs	r1, r5, r3
 624              		.loc 1 1233 0
 625 0078 9042     		cmp	r0, r2
1221:src/x509.c    ****   p += arcLen;
 626              		.loc 1 1221 0
 627 007a C9F80000 		str	r0, [r9]
1222:src/x509.c    ****   p += arcLen;
 628              		.loc 1 1222 0
 629 007e 0093     		str	r3, [sp]
 630              		.loc 1 1233 0
 631 0080 07D0     		beq	.L59
1234:src/x509.c    ****   {
1235:src/x509.c    **** 
1236:src/x509.c    ****     /* assume RSASSA-PKCS1-V1_5 algorithm IDs */
1237:src/x509.c    **** 
1238:src/x509.c    ****     /*
1239:src/x509.c    ****       Each of these cases should have a trailing NULL parameter.  Skip it
1240:src/x509.c    ****     */
1241:src/x509.c    ****     if (end - p < 2)
 632              		.loc 1 1241 0
 633 0082 0129     		cmp	r1, #1
 634 0084 C6DD     		ble	.L57
1242:src/x509.c    ****       return 0;
1243:src/x509.c    **** 
1244:src/x509.c    ****     if (*p != K_AsnNull)
 635              		.loc 1 1244 0
 636 0086 16F80820 		ldrb	r2, [r6, r8]	@ zero_extendqisi2
 637 008a 052A     		cmp	r2, #5
 638 008c C2D1     		bne	.L57
1245:src/x509.c    ****     {
1246:src/x509.c    ****       return 0;
1247:src/x509.c    ****     };
1248:src/x509.c    ****     *a_pp = p + 2;
 639              		.loc 1 1248 0
 640 008e 0233     		adds	r3, r3, #2
 641 0090 C4E0     		b	.L117
 642              	.L59:
 643              	.LVL71:
 644              	.LBB8:
 645              	.LBB9:
1056:src/x509.c    ****     return 0;
 646              		.loc 1 1056 0
 647 0092 0129     		cmp	r1, #1
ARM GAS  C:\Users\AHMED~1.ELE\AppData\Local\Temp\ccaBET3e.s 			page 35


1053:src/x509.c    ****   end = p + a_len;
 648              		.loc 1 1053 0
 649 0094 0393     		str	r3, [sp, #12]
 650              	.LVL72:
1056:src/x509.c    ****     return 0;
 651              		.loc 1 1056 0
 652 0096 BDDD     		ble	.L57
 653 0098 03A8     		add	r0, sp, #12
 654 009a 05AA     		add	r2, sp, #20
 655 009c FFF7FEFF 		bl	x509_get_sequence
 656              	.LVL73:
 657 00a0 0028     		cmp	r0, #0
 658 00a2 B7D0     		beq	.L57
1059:src/x509.c    ****   param->d_mask_gen_func = K_OIdMgf1;
 659              		.loc 1 1059 0
 660 00a4 614B     		ldr	r3, .L119+4
1060:src/x509.c    ****   param->d_mgf_digest = K_OIdSha1;
 661              		.loc 1 1060 0
 662 00a6 624A     		ldr	r2, .L119+8
1059:src/x509.c    ****   param->d_mask_gen_func = K_OIdMgf1;
 663              		.loc 1 1059 0
 664 00a8 2360     		str	r3, [r4]
1061:src/x509.c    ****   param->d_salt_length = 20;
 665              		.loc 1 1061 0
 666 00aa A360     		str	r3, [r4, #8]
1062:src/x509.c    ****   param->d_trailer_field = 1;
 667              		.loc 1 1062 0
 668 00ac 1423     		movs	r3, #20
1060:src/x509.c    ****   param->d_mgf_digest = K_OIdSha1;
 669              		.loc 1 1060 0
 670 00ae 6260     		str	r2, [r4, #4]
1062:src/x509.c    ****   param->d_trailer_field = 1;
 671              		.loc 1 1062 0
 672 00b0 E360     		str	r3, [r4, #12]
1063:src/x509.c    **** 
 673              		.loc 1 1063 0
 674 00b2 0123     		movs	r3, #1
 675 00b4 039E     		ldr	r6, [sp, #12]
 676              	.LVL74:
 677 00b6 2361     		str	r3, [r4, #16]
1065:src/x509.c    ****   {
 678              		.loc 1 1065 0
 679 00b8 059B     		ldr	r3, [sp, #20]
 680 00ba 0BB9     		cbnz	r3, .L63
1068:src/x509.c    ****     /* use default PSS parameters */
 681              		.loc 1 1068 0
 682 00bc 0096     		str	r6, [sp]
 683 00be ACE0     		b	.L116
 684              	.L63:
1074:src/x509.c    ****     return 0;
 685              		.loc 1 1074 0
 686 00c0 AD1B     		subs	r5, r5, r6
 687 00c2 9D42     		cmp	r5, r3
 688 00c4 A6DB     		blt	.L57
1079:src/x509.c    ****   while ( (int)(p_e - p) >= 2 ) {
 689              		.loc 1 1079 0
 690 00c6 1E44     		add	r6, r6, r3
ARM GAS  C:\Users\AHMED~1.ELE\AppData\Local\Temp\ccaBET3e.s 			page 36


 691              	.LVL75:
 692              	.L64:
1080:src/x509.c    **** 
 693              		.loc 1 1080 0
 694 00c8 039B     		ldr	r3, [sp, #12]
 695 00ca F21A     		subs	r2, r6, r3
 696 00cc 012A     		cmp	r2, #1
 697 00ce 40F39580 		ble	.L118
1083:src/x509.c    **** 
 698              		.loc 1 1083 0
 699 00d2 591C     		adds	r1, r3, #1
 700 00d4 0391     		str	r1, [sp, #12]
 701 00d6 1D78     		ldrb	r5, [r3]	@ zero_extendqisi2
 702              	.LVL76:
1085:src/x509.c    ****       return 0;
 703              		.loc 1 1085 0
 704 00d8 05F0A003 		and	r3, r5, #160
 705 00dc A02B     		cmp	r3, #160
 706 00de 99D1     		bne	.L57
1088:src/x509.c    ****     if ( tag > 3 )
 707              		.loc 1 1088 0
 708 00e0 05F01F05 		and	r5, r5, #31
 709              	.LVL77:
1089:src/x509.c    ****       return 0;                 /* error! */
 710              		.loc 1 1089 0
 711 00e4 032D     		cmp	r5, #3
 712 00e6 95D8     		bhi	.L57
1092:src/x509.c    ****       return 0;
 713              		.loc 1 1092 0
 714 00e8 03A8     		add	r0, sp, #12
 715 00ea 711A     		subs	r1, r6, r1
 716 00ec 04AA     		add	r2, sp, #16
 717 00ee FFF7FEFF 		bl	x509_get_asn_length
 718              	.LVL78:
 719 00f2 0028     		cmp	r0, #0
 720 00f4 8ED0     		beq	.L57
1097:src/x509.c    ****     /* dbg_printf("\ntag %d len = %d\n",tag, arcLen); */
 721              		.loc 1 1097 0
 722 00f6 0499     		ldr	r1, [sp, #16]
 723 00f8 039B     		ldr	r3, [sp, #12]
1101:src/x509.c    ****     {
 724              		.loc 1 1101 0
 725 00fa 022D     		cmp	r5, #2
1097:src/x509.c    ****     /* dbg_printf("\ntag %d len = %d\n",tag, arcLen); */
 726              		.loc 1 1097 0
 727 00fc 03EB0108 		add	r8, r3, r1
 728              	.LVL79:
1101:src/x509.c    ****     {
 729              		.loc 1 1101 0
 730 0100 60D0     		beq	.L66
 731 0102 032D     		cmp	r5, #3
 732 0104 6BD0     		beq	.L67
 733 0106 012D     		cmp	r5, #1
 734 0108 1BD0     		beq	.L68
1106:src/x509.c    **** 	return 0;
 735              		.loc 1 1106 0
 736 010a 0129     		cmp	r1, #1
ARM GAS  C:\Users\AHMED~1.ELE\AppData\Local\Temp\ccaBET3e.s 			page 37


 737 010c 82DD     		ble	.L57
 738 010e 03A8     		add	r0, sp, #12
 739 0110 04AA     		add	r2, sp, #16
 740 0112 FFF7FEFF 		bl	x509_get_sequence
 741              	.LVL80:
 742 0116 0028     		cmp	r0, #0
 743 0118 3FF47CAF 		beq	.L57
1108:src/x509.c    **** 	return 0;
 744              		.loc 1 1108 0
 745 011c 0399     		ldr	r1, [sp, #12]
 746 011e C1EB0801 		rsb	r1, r1, r8
 747 0122 0129     		cmp	r1, #1
 748 0124 7FF776AF 		ble	.L57
 749 0128 03A8     		add	r0, sp, #12
 750 012a 04AA     		add	r2, sp, #16
 751 012c FFF7FEFF 		bl	x509_get_oid
 752              	.LVL81:
 753 0130 0028     		cmp	r0, #0
 754 0132 3FF46FAF 		beq	.L57
1111:src/x509.c    ****       /* dbg_printf("tag %u oid hash 0x%08x\n",tag,param->d_hash_algo); */
 755              		.loc 1 1111 0
 756 0136 0398     		ldr	r0, [sp, #12]
 757 0138 0499     		ldr	r1, [sp, #16]
 758 013a FFF7FEFF 		bl	oid_to_hash_value
 759              	.LVL82:
 760 013e 2060     		str	r0, [r4]
 761 0140 59E0     		b	.L69
 762              	.L68:
1117:src/x509.c    **** 	return 0;
 763              		.loc 1 1117 0
 764 0142 0129     		cmp	r1, #1
 765 0144 7FF766AF 		ble	.L57
 766 0148 03A8     		add	r0, sp, #12
 767 014a 04AA     		add	r2, sp, #16
 768 014c FFF7FEFF 		bl	x509_get_sequence
 769              	.LVL83:
 770 0150 0028     		cmp	r0, #0
 771 0152 3FF45FAF 		beq	.L57
1119:src/x509.c    **** 	return 0;
 772              		.loc 1 1119 0
 773 0156 0399     		ldr	r1, [sp, #12]
 774 0158 C1EB0801 		rsb	r1, r1, r8
 775 015c 0129     		cmp	r1, #1
 776 015e 7FF759AF 		ble	.L57
 777 0162 03A8     		add	r0, sp, #12
 778 0164 04AA     		add	r2, sp, #16
 779 0166 FFF7FEFF 		bl	x509_get_oid
 780              	.LVL84:
 781 016a 0028     		cmp	r0, #0
 782 016c 3FF452AF 		beq	.L57
1122:src/x509.c    ****       /* dbg_printf("tag %u oid hash #1 0x%08x\n",tag,param->d_mask_gen_func); */
 783              		.loc 1 1122 0
 784 0170 DDF80C90 		ldr	r9, [sp, #12]
 785 0174 049D     		ldr	r5, [sp, #16]
 786              	.LVL85:
 787 0176 4846     		mov	r0, r9
 788 0178 2946     		mov	r1, r5
ARM GAS  C:\Users\AHMED~1.ELE\AppData\Local\Temp\ccaBET3e.s 			page 38


 789 017a FFF7FEFF 		bl	oid_to_hash_value
 790              	.LVL86:
1124:src/x509.c    **** 
 791              		.loc 1 1124 0
 792 017e 09EB0501 		add	r1, r9, r5
 793 0182 0391     		str	r1, [sp, #12]
1126:src/x509.c    **** 	return 0;
 794              		.loc 1 1126 0
 795 0184 C1EB0801 		rsb	r1, r1, r8
 796 0188 0129     		cmp	r1, #1
1122:src/x509.c    ****       /* dbg_printf("tag %u oid hash #1 0x%08x\n",tag,param->d_mask_gen_func); */
 797              		.loc 1 1122 0
 798 018a 6060     		str	r0, [r4, #4]
1126:src/x509.c    **** 	return 0;
 799              		.loc 1 1126 0
 800 018c 7FF742AF 		ble	.L57
 801 0190 03A8     		add	r0, sp, #12
 802 0192 04AA     		add	r2, sp, #16
 803 0194 FFF7FEFF 		bl	x509_get_sequence
 804              	.LVL87:
 805 0198 0028     		cmp	r0, #0
 806 019a 3FF43BAF 		beq	.L57
1128:src/x509.c    **** 	return 0;
 807              		.loc 1 1128 0
 808 019e 0399     		ldr	r1, [sp, #12]
 809 01a0 C1EB0801 		rsb	r1, r1, r8
 810 01a4 0129     		cmp	r1, #1
 811 01a6 7FF735AF 		ble	.L57
 812 01aa 03A8     		add	r0, sp, #12
 813 01ac 04AA     		add	r2, sp, #16
 814 01ae FFF7FEFF 		bl	x509_get_oid
 815              	.LVL88:
 816 01b2 0028     		cmp	r0, #0
 817 01b4 3FF42EAF 		beq	.L57
1130:src/x509.c    ****       /* dbg_printf("tag %u oid hash #2 0x%08x\n",tag,param->d_mgf_digest); */
 818              		.loc 1 1130 0
 819 01b8 0398     		ldr	r0, [sp, #12]
 820 01ba 0499     		ldr	r1, [sp, #16]
 821 01bc FFF7FEFF 		bl	oid_to_hash_value
 822              	.LVL89:
 823 01c0 A060     		str	r0, [r4, #8]
 824 01c2 18E0     		b	.L69
 825              	.LVL90:
 826              	.L66:
1136:src/x509.c    ****       return 0;
 827              		.loc 1 1136 0
 828 01c4 0129     		cmp	r1, #1
 829 01c6 7FF725AF 		ble	.L57
 830 01ca 03A8     		add	r0, sp, #12
 831 01cc 04AA     		add	r2, sp, #16
 832 01ce FFF7FEFF 		bl	x509_get_integer
 833              	.LVL91:
 834 01d2 0028     		cmp	r0, #0
 835 01d4 3FF41EAF 		beq	.L57
1138:src/x509.c    ****       /* dbg_printf("tag %u salt-length = %u\n",tag,param->d_salt_length); */
 836              		.loc 1 1138 0
 837 01d8 049B     		ldr	r3, [sp, #16]
ARM GAS  C:\Users\AHMED~1.ELE\AppData\Local\Temp\ccaBET3e.s 			page 39


 838 01da E360     		str	r3, [r4, #12]
 839 01dc 0BE0     		b	.L69
 840              	.L67:
1144:src/x509.c    **** 	return 0;
 841              		.loc 1 1144 0
 842 01de 0129     		cmp	r1, #1
 843 01e0 7FF718AF 		ble	.L57
 844 01e4 03A8     		add	r0, sp, #12
 845 01e6 04AA     		add	r2, sp, #16
 846 01e8 FFF7FEFF 		bl	x509_get_integer
 847              	.LVL92:
 848 01ec 0028     		cmp	r0, #0
 849 01ee 3FF411AF 		beq	.L57
1146:src/x509.c    ****       /* dbg_printf("tag %u trailer-field = %u\n",tag,param->d_trailer_field); */
 850              		.loc 1 1146 0
 851 01f2 049B     		ldr	r3, [sp, #16]
 852 01f4 2361     		str	r3, [r4, #16]
 853              	.LVL93:
 854              	.L69:
1151:src/x509.c    ****     
 855              		.loc 1 1151 0
 856 01f6 CDF80C80 		str	r8, [sp, #12]
 857 01fa 65E7     		b	.L64
 858              	.LVL94:
 859              	.L118:
1157:src/x509.c    ****     return 0;
 860              		.loc 1 1157 0
 861 01fc 2268     		ldr	r2, [r4]
 862 01fe A368     		ldr	r3, [r4, #8]
1155:src/x509.c    **** 
 863              		.loc 1 1155 0
 864 0200 0096     		str	r6, [sp]
1157:src/x509.c    ****     return 0;
 865              		.loc 1 1157 0
 866 0202 9A42     		cmp	r2, r3
 867 0204 7FF406AF 		bne	.L57
1160:src/x509.c    ****     return 0;
 868              		.loc 1 1160 0
 869 0208 2369     		ldr	r3, [r4, #16]
 870 020a 012B     		cmp	r3, #1
 871 020c 7FF402AF 		bne	.L57
1163:src/x509.c    ****     return 0;
 872              		.loc 1 1163 0
 873 0210 6268     		ldr	r2, [r4, #4]
 874              	.LBE9:
 875              	.LBE8:
1249:src/x509.c    ****     return -1;
1250:src/x509.c    ****     
1251:src/x509.c    ****   } else {
1252:src/x509.c    **** 
1253:src/x509.c    ****     /* parameter description of PSS is a constructred sequence */
1254:src/x509.c    ****     if ( x509_get_rsapss_param(&p,(int)(end-p),a_pss) == 0 )
 876              		.loc 1 1254 0
 877 0212 074B     		ldr	r3, .L119+8
 878 0214 9A42     		cmp	r2, r3
 879 0216 7FF4FDAE 		bne	.L57
 880              	.LVL95:
ARM GAS  C:\Users\AHMED~1.ELE\AppData\Local\Temp\ccaBET3e.s 			page 40


 881              	.L116:
1255:src/x509.c    ****     {
1256:src/x509.c    ****       return 0;
1257:src/x509.c    ****     }
1258:src/x509.c    **** 
1259:src/x509.c    ****     *a_pp = p;
 882              		.loc 1 1259 0
 883 021a 009B     		ldr	r3, [sp]
 884              	.LVL96:
 885              	.L117:
1260:src/x509.c    ****     return -1;
 886              		.loc 1 1260 0
 887 021c 4FF0FF30 		mov	r0, #-1
1259:src/x509.c    ****     return -1;
 888              		.loc 1 1259 0
 889 0220 3B60     		str	r3, [r7]
 890              	.L56:
1261:src/x509.c    ****   }
1262:src/x509.c    **** }
 891              		.loc 1 1262 0
 892 0222 07B0     		add	sp, sp, #28
 893              		.cfi_def_cfa_offset 28
 894              		@ sp needed
 895 0224 BDE8F083 		pop	{r4, r5, r6, r7, r8, r9, pc}
 896              	.LVL97:
 897              	.L120:
 898              		.align	2
 899              	.L119:
 900 0228 F77E758B 		.word	-1955234057
 901 022c DB2B5706 		.word	106376155
 902 0230 F57E758B 		.word	-1955234059
 903              		.cfi_endproc
 904              	.LFE15:
 905              		.size	x509_get_algorithm_identifier, .-x509_get_algorithm_identifier
 906              		.section	.text.unlikely.x509_get_big,"ax",%progbits
 907              		.align	1
 908              		.thumb
 909              		.thumb_func
 910              		.type	x509_get_big, %function
 911              	x509_get_big:
 912              	.LFB18:
1263:src/x509.c    **** 
1264:src/x509.c    **** /*---------------------------------------------------------------------*/
1265:src/x509.c    **** static void x509_generalize_time(BYTE a_timeFormat, int a_timeLen, BYTE* a_inTime, BYTE* a_outTime)
1266:src/x509.c    **** {
1267:src/x509.c    ****   if (a_timeFormat == K_AsnUtcTime)
1268:src/x509.c    ****   {
1269:src/x509.c    ****     if (a_inTime[0] >= '5')
1270:src/x509.c    ****     {
1271:src/x509.c    ****       a_outTime[0] = '1';
1272:src/x509.c    ****       a_outTime[1] = '9';
1273:src/x509.c    ****     }
1274:src/x509.c    ****     else
1275:src/x509.c    ****     {
1276:src/x509.c    ****       a_outTime[0] = '2';
1277:src/x509.c    ****       a_outTime[1] = '0';
1278:src/x509.c    ****     }
ARM GAS  C:\Users\AHMED~1.ELE\AppData\Local\Temp\ccaBET3e.s 			page 41


1279:src/x509.c    ****     memcpy(&a_outTime[2], a_inTime, a_timeLen);
1280:src/x509.c    ****     a_outTime[a_timeLen+1] = 0;
1281:src/x509.c    ****   }
1282:src/x509.c    ****   else
1283:src/x509.c    ****   {
1284:src/x509.c    ****     memcpy(a_outTime, a_inTime, a_timeLen);
1285:src/x509.c    ****     a_outTime[a_timeLen-1] = 0;
1286:src/x509.c    ****   }
1287:src/x509.c    **** }
1288:src/x509.c    **** 
1289:src/x509.c    **** /*---------------------------------------------------------------------*/
1290:src/x509.c    **** static int x509_get_validity(BYTE ** a_pp,int a_len)
1291:src/x509.c    **** {
1292:src/x509.c    ****   BYTE *  p;
1293:src/x509.c    ****   BYTE *  end;
1294:src/x509.c    ****   int     seqLen,timeLen;
1295:src/x509.c    ****   BYTE    timeFormat;
1296:src/x509.c    ****   BYTE    currTime[15];
1297:src/x509.c    ****   BYTE    notBefore[15];
1298:src/x509.c    ****   BYTE    notAfter[15];
1299:src/x509.c    **** 
1300:src/x509.c    ****   p = *a_pp;
1301:src/x509.c    ****   end = p + a_len;
1302:src/x509.c    ****   if (a_len<1 || *(p++)!=(K_AsnSequence|K_AsnConstructed) ||
1303:src/x509.c    ****       x509_get_asn_length(&p,a_len-1,&seqLen)==0 || (end-p)<seqLen)
1304:src/x509.c    ****     return 0;
1305:src/x509.c    **** /*
1306:src/x509.c    ****   Have notBefore and notAfter times in UTCTime or GeneralizedTime formats
1307:src/x509.c    **** */
1308:src/x509.c    ****   if ((end-p)<1 || ((*p!=K_AsnUtcTime) && (*p!=K_AsnGeneralizedTime)))
1309:src/x509.c    ****     return 0;
1310:src/x509.c    **** 
1311:src/x509.c    ****   timeFormat = *p;
1312:src/x509.c    **** 
1313:src/x509.c    ****   p++;
1314:src/x509.c    **** /*
1315:src/x509.c    ****   Allocate them as null terminated strings
1316:src/x509.c    **** */
1317:src/x509.c    ****   if (x509_get_asn_length(&p,seqLen,&timeLen)==0 || (end-p)<timeLen)
1318:src/x509.c    ****     return 0;
1319:src/x509.c    **** 
1320:src/x509.c    ****   /* os_rtc_get(currTime); */
1321:src/x509.c    ****   EXEC_RTC_GET(currTime);
1322:src/x509.c    ****   currTime[14] = 0;
1323:src/x509.c    ****   x509_generalize_time(timeFormat, timeLen, p, notBefore);
1324:src/x509.c    ****   if (memcmp(currTime, notBefore, 14) < 0)
1325:src/x509.c    ****     return 0;
1326:src/x509.c    **** 
1327:src/x509.c    ****   p = p + timeLen;
1328:src/x509.c    ****   if ((end-p)<1 || ((*p!=K_AsnUtcTime) && (*p!=K_AsnGeneralizedTime)))
1329:src/x509.c    ****     return 0;
1330:src/x509.c    **** 
1331:src/x509.c    ****   timeFormat = *p;
1332:src/x509.c    **** 
1333:src/x509.c    ****   p++;
1334:src/x509.c    ****   if (x509_get_asn_length(&p,seqLen-timeLen,&timeLen)==0 || (end-p)<timeLen)
1335:src/x509.c    ****     return 0;
ARM GAS  C:\Users\AHMED~1.ELE\AppData\Local\Temp\ccaBET3e.s 			page 42


1336:src/x509.c    **** 
1337:src/x509.c    ****   x509_generalize_time(timeFormat, timeLen, p, notAfter);
1338:src/x509.c    ****   if (memcmp(currTime, notAfter, 14) > 0)
1339:src/x509.c    ****     return 0;
1340:src/x509.c    **** 
1341:src/x509.c    ****   p = p + timeLen;
1342:src/x509.c    ****   *a_pp = p;
1343:src/x509.c    ****   return -1;
1344:src/x509.c    **** }
1345:src/x509.c    **** 
1346:src/x509.c    **** /*---------------------------------------------------------------------*/
1347:src/x509.c    **** static int x509_get_big(BYTE ** a_pp,int a_len,BYTE * a_big,DWORD * a_keylen)
1348:src/x509.c    **** {
 913              		.loc 1 1348 0
 914              		.cfi_startproc
 915              		@ args = 0, pretend = 0, frame = 8
 916              		@ frame_needed = 0, uses_anonymous_args = 0
 917              	.LVL98:
 918 0000 F7B5     		push	{r0, r1, r2, r4, r5, r6, r7, lr}
 919              		.cfi_def_cfa_offset 32
 920              		.cfi_offset 4, -20
 921              		.cfi_offset 5, -16
 922              		.cfi_offset 6, -12
 923              		.cfi_offset 7, -8
 924              		.cfi_offset 14, -4
1349:src/x509.c    ****   BYTE *  p;
1350:src/x509.c    ****   int     vlen;
1351:src/x509.c    **** 
1352:src/x509.c    ****   p = *a_pp;
1353:src/x509.c    ****   if (a_len < 1 || *(p++) != K_AsnInteger ||
 925              		.loc 1 1353 0
 926 0002 0029     		cmp	r1, #0
1348:src/x509.c    ****   BYTE *  p;
 927              		.loc 1 1348 0
 928 0004 1E46     		mov	r6, r3
 929 0006 0546     		mov	r5, r0
 930 0008 1746     		mov	r7, r2
1352:src/x509.c    ****   if (a_len < 1 || *(p++) != K_AsnInteger ||
 931              		.loc 1 1352 0
 932 000a 0368     		ldr	r3, [r0]
 933              	.LVL99:
 934              		.loc 1 1353 0
 935 000c 01DC     		bgt	.L122
 936              	.LVL100:
 937              	.L124:
1354:src/x509.c    ****       x509_get_asn_length(&p,a_len-1,&vlen) == 0)
1355:src/x509.c    ****     return 0;
 938              		.loc 1 1355 0
 939 000e 0020     		movs	r0, #0
 940 0010 22E0     		b	.L123
 941              	.LVL101:
 942              	.L122:
1353:src/x509.c    ****       x509_get_asn_length(&p,a_len-1,&vlen) == 0)
 943              		.loc 1 1353 0 discriminator 1
 944 0012 5A1C     		adds	r2, r3, #1
 945              	.LVL102:
 946 0014 0092     		str	r2, [sp]
ARM GAS  C:\Users\AHMED~1.ELE\AppData\Local\Temp\ccaBET3e.s 			page 43


 947 0016 1B78     		ldrb	r3, [r3]	@ zero_extendqisi2
 948 0018 022B     		cmp	r3, #2
 949 001a F8D1     		bne	.L124
1354:src/x509.c    ****       x509_get_asn_length(&p,a_len-1,&vlen) == 0)
 950              		.loc 1 1354 0 discriminator 2
 951 001c 6846     		mov	r0, sp
 952              	.LVL103:
 953 001e 0139     		subs	r1, r1, #1
 954              	.LVL104:
 955 0020 01AA     		add	r2, sp, #4
 956 0022 FFF7FEFF 		bl	x509_get_asn_length
 957              	.LVL105:
1353:src/x509.c    ****       x509_get_asn_length(&p,a_len-1,&vlen) == 0)
 958              		.loc 1 1353 0 discriminator 2
 959 0026 0028     		cmp	r0, #0
 960 0028 F1D0     		beq	.L124
1356:src/x509.c    **** 
1357:src/x509.c    ****   if (*p == 0)
 961              		.loc 1 1357 0
 962 002a 009A     		ldr	r2, [sp]
 963 002c 1378     		ldrb	r3, [r2]	@ zero_extendqisi2
 964 002e 23B9     		cbnz	r3, .L125
1358:src/x509.c    ****   {
1359:src/x509.c    ****     p++;
 965              		.loc 1 1359 0
 966 0030 0132     		adds	r2, r2, #1
 967 0032 0092     		str	r2, [sp]
1360:src/x509.c    ****     vlen--;
 968              		.loc 1 1360 0
 969 0034 019A     		ldr	r2, [sp, #4]
 970 0036 013A     		subs	r2, r2, #1
 971 0038 0192     		str	r2, [sp, #4]
 972              	.L125:
1361:src/x509.c    ****   }
1362:src/x509.c    **** 
1363:src/x509.c    ****   if (vlen > *a_keylen)
 973              		.loc 1 1363 0
 974 003a 019C     		ldr	r4, [sp, #4]
 975 003c 3368     		ldr	r3, [r6]
 976 003e 9C42     		cmp	r4, r3
 977 0040 E5D8     		bhi	.L124
1364:src/x509.c    ****   {
1365:src/x509.c    **** #if defined(KONG_DEBUG_X509_MODULE)
1366:src/x509.c    ****     dbg_printf("*** get_big() length error %d vs %d\r\n",
1367:src/x509.c    ****                vlen, *a_keylen);
1368:src/x509.c    **** #endif
1369:src/x509.c    ****     return 0;
1370:src/x509.c    ****   };
1371:src/x509.c    **** 
1372:src/x509.c    ****   *a_keylen = vlen;
 978              		.loc 1 1372 0
 979 0042 3460     		str	r4, [r6]
1373:src/x509.c    ****   memcpy(a_big,(void*)p,vlen);
 980              		.loc 1 1373 0
 981 0044 009E     		ldr	r6, [sp]
 982              	.LVL106:
 983 0046 2246     		mov	r2, r4
ARM GAS  C:\Users\AHMED~1.ELE\AppData\Local\Temp\ccaBET3e.s 			page 44


 984 0048 3846     		mov	r0, r7
 985 004a 3146     		mov	r1, r6
 986 004c FFF7FEFF 		bl	memcpy
 987              	.LVL107:
1374:src/x509.c    **** 
1375:src/x509.c    ****   p += vlen;
 988              		.loc 1 1375 0
 989 0050 3444     		add	r4, r4, r6
 990              	.LVL108:
1376:src/x509.c    ****   *a_pp = p;
1377:src/x509.c    **** 
1378:src/x509.c    ****   return -1;
 991              		.loc 1 1378 0
 992 0052 4FF0FF30 		mov	r0, #-1
1376:src/x509.c    ****   *a_pp = p;
 993              		.loc 1 1376 0
 994 0056 2C60     		str	r4, [r5]
 995              	.LVL109:
 996              	.L123:
1379:src/x509.c    **** }
 997              		.loc 1 1379 0
 998 0058 03B0     		add	sp, sp, #12
 999              		.cfi_def_cfa_offset 20
 1000              		@ sp needed
 1001 005a F0BD     		pop	{r4, r5, r6, r7, pc}
 1002              		.cfi_endproc
 1003              	.LFE18:
 1004              		.size	x509_get_big, .-x509_get_big
 1005              		.section	.text.unlikely.x509_get_dn_attrib,"ax",%progbits
 1006              		.align	1
 1007              		.thumb
 1008              		.thumb_func
 1009              		.type	x509_get_dn_attrib, %function
 1010              	x509_get_dn_attrib:
 1011              	.LFB8:
 413:src/x509.c    **** /* sslSha1Context_t hash; */
 1012              		.loc 1 413 0
 1013              		.cfi_startproc
 1014              		@ args = 0, pretend = 0, frame = 360
 1015              		@ frame_needed = 0, uses_anonymous_args = 0
 1016              	.LVL110:
 1017 0000 F0B5     		push	{r4, r5, r6, r7, lr}
 1018              		.cfi_def_cfa_offset 20
 1019              		.cfi_offset 4, -20
 1020              		.cfi_offset 5, -16
 1021              		.cfi_offset 6, -12
 1022              		.cfi_offset 7, -8
 1023              		.cfi_offset 14, -4
 420:src/x509.c    ****   if (x509_get_sequence(&p,a_len,&llen) == 0)
 1024              		.loc 1 420 0
 1025 0002 0368     		ldr	r3, [r0]
 413:src/x509.c    **** /* sslSha1Context_t hash; */
 1026              		.loc 1 413 0
 1027 0004 DBB0     		sub	sp, sp, #364
 1028              		.cfi_def_cfa_offset 384
 413:src/x509.c    **** /* sslSha1Context_t hash; */
 1029              		.loc 1 413 0
ARM GAS  C:\Users\AHMED~1.ELE\AppData\Local\Temp\ccaBET3e.s 			page 45


 1030 0006 0646     		mov	r6, r0
 1031 0008 1546     		mov	r5, r2
 421:src/x509.c    ****     return 0;
 1032              		.loc 1 421 0
 1033 000a 01A8     		add	r0, sp, #4
 1034              	.LVL111:
 1035 000c 02AA     		add	r2, sp, #8
 1036              	.LVL112:
 420:src/x509.c    ****   if (x509_get_sequence(&p,a_len,&llen) == 0)
 1037              		.loc 1 420 0
 1038 000e 0193     		str	r3, [sp, #4]
 421:src/x509.c    ****     return 0;
 1039              		.loc 1 421 0
 1040 0010 FFF7FEFF 		bl	x509_get_sequence
 1041              	.LVL113:
 1042 0014 08B9     		cbnz	r0, .L130
 1043              	.LVL114:
 1044              	.L137:
 422:src/x509.c    **** 
 1045              		.loc 1 422 0
 1046 0016 0020     		movs	r0, #0
 1047 0018 95E0     		b	.L131
 1048              	.LVL115:
 1049              	.L130:
 424:src/x509.c    **** 
 1050              		.loc 1 424 0
 1051 001a 019C     		ldr	r4, [sp, #4]
 1052 001c 029B     		ldr	r3, [sp, #8]
 1053 001e 1C44     		add	r4, r4, r3
 1054              	.LVL116:
 426:src/x509.c    ****   {
 1055              		.loc 1 426 0
 1056 0020 002D     		cmp	r5, #0
 1057 0022 5BD0     		beq	.L133
 428:src/x509.c    ****     EXEC_SHA1_UPDATE(&sha1_ctx,p,llen);
 1058              		.loc 1 428 0
 1059 0024 0022     		movs	r2, #0
 1060 0026 06A9     		add	r1, sp, #24
 1061 0028 1346     		mov	r3, r2
 1062 002a 5420     		movs	r0, #84
 1063 002c FFF7FEFF 		bl	sys_func3
 1064              	.LVL117:
 429:src/x509.c    ****     EXEC_SHA1_FINISH(&sha1_ctx,a_dn_mac);
 1065              		.loc 1 429 0
 1066 0030 06A9     		add	r1, sp, #24
 1067 0032 019A     		ldr	r2, [sp, #4]
 1068 0034 029B     		ldr	r3, [sp, #8]
 1069 0036 5520     		movs	r0, #85
 1070 0038 FFF7FEFF 		bl	sys_func3
 1071              	.LVL118:
 430:src/x509.c    ****   }
 1072              		.loc 1 430 0
 1073 003c 06A9     		add	r1, sp, #24
 1074 003e 2A46     		mov	r2, r5
 1075 0040 5620     		movs	r0, #86
 1076 0042 FFF7FEFF 		bl	sys_func2
 1077              	.LVL119:
ARM GAS  C:\Users\AHMED~1.ELE\AppData\Local\Temp\ccaBET3e.s 			page 46


 1078 0046 49E0     		b	.L133
 1079              	.LVL120:
 1080              	.L143:
 436:src/x509.c    ****       return 0;
 1081              		.loc 1 436 0
 1082 0048 E51A     		subs	r5, r4, r3
 1083              	.LVL121:
 1084              	.LBB12:
 1085              	.LBB13:
 365:src/x509.c    ****       x509_get_asn_length(&p,a_len-1,a_setlen)==0 || a_len<*a_setlen)
 1086              		.loc 1 365 0
 1087 004a 002D     		cmp	r5, #0
 1088 004c E3DD     		ble	.L137
 1089 004e 5A1C     		adds	r2, r3, #1
 1090 0050 0592     		str	r2, [sp, #20]
 1091 0052 1B78     		ldrb	r3, [r3]	@ zero_extendqisi2
 1092 0054 312B     		cmp	r3, #49
 1093 0056 DED1     		bne	.L137
 366:src/x509.c    ****     return 0;
 1094              		.loc 1 366 0
 1095 0058 05A8     		add	r0, sp, #20
 1096 005a 691E     		subs	r1, r5, #1
 1097 005c 03AA     		add	r2, sp, #12
 1098              	.LVL122:
 1099 005e FFF7FEFF 		bl	x509_get_asn_length
 1100              	.LVL123:
 365:src/x509.c    ****       x509_get_asn_length(&p,a_len-1,a_setlen)==0 || a_len<*a_setlen)
 1101              		.loc 1 365 0
 1102 0062 0028     		cmp	r0, #0
 1103 0064 D7D0     		beq	.L137
 366:src/x509.c    ****     return 0;
 1104              		.loc 1 366 0
 1105 0066 039B     		ldr	r3, [sp, #12]
 1106 0068 9D42     		cmp	r5, r3
 1107 006a D4DB     		blt	.L137
 369:src/x509.c    ****   return -1;
 1108              		.loc 1 369 0
 1109 006c 0599     		ldr	r1, [sp, #20]
 1110              	.LBE13:
 1111              	.LBE12:
 438:src/x509.c    ****       return 0;
 1112              		.loc 1 438 0
 1113 006e 01A8     		add	r0, sp, #4
 1114              	.LVL124:
 1115              	.LBB15:
 1116              	.LBB14:
 369:src/x509.c    ****   return -1;
 1117              		.loc 1 369 0
 1118 0070 0191     		str	r1, [sp, #4]
 1119              	.LBE14:
 1120              	.LBE15:
 438:src/x509.c    ****       return 0;
 1121              		.loc 1 438 0
 1122 0072 02AA     		add	r2, sp, #8
 1123 0074 611A     		subs	r1, r4, r1
 1124 0076 FFF7FEFF 		bl	x509_get_sequence
 1125              	.LVL125:
ARM GAS  C:\Users\AHMED~1.ELE\AppData\Local\Temp\ccaBET3e.s 			page 47


 1126 007a 0028     		cmp	r0, #0
 1127 007c CBD0     		beq	.L137
 440:src/x509.c    ****         x509_get_asn_length(&p,(int)(dnEnd - p),&arcLen) == 0 ||
 1128              		.loc 1 440 0
 1129 007e 019B     		ldr	r3, [sp, #4]
 1130 0080 9C42     		cmp	r4, r3
 1131 0082 C8D9     		bls	.L137
 440:src/x509.c    ****         x509_get_asn_length(&p,(int)(dnEnd - p),&arcLen) == 0 ||
 1132              		.loc 1 440 0 is_stmt 0 discriminator 1
 1133 0084 591C     		adds	r1, r3, #1
 1134 0086 0191     		str	r1, [sp, #4]
 1135 0088 1B78     		ldrb	r3, [r3]	@ zero_extendqisi2
 1136 008a 062B     		cmp	r3, #6
 1137 008c C3D1     		bne	.L137
 441:src/x509.c    ****         (dnEnd - p) < arcLen)
 1138              		.loc 1 441 0 is_stmt 1 discriminator 2
 1139 008e 01A8     		add	r0, sp, #4
 1140              	.LVL126:
 1141 0090 611A     		subs	r1, r4, r1
 1142 0092 04AA     		add	r2, sp, #16
 1143 0094 FFF7FEFF 		bl	x509_get_asn_length
 1144              	.LVL127:
 440:src/x509.c    ****         x509_get_asn_length(&p,(int)(dnEnd - p),&arcLen) == 0 ||
 1145              		.loc 1 440 0 discriminator 2
 1146 0098 0028     		cmp	r0, #0
 1147 009a BCD0     		beq	.L137
 442:src/x509.c    ****       return 0;
 1148              		.loc 1 442 0
 1149 009c 019B     		ldr	r3, [sp, #4]
 1150 009e 0499     		ldr	r1, [sp, #16]
 1151 00a0 E01A     		subs	r0, r4, r3
 441:src/x509.c    ****         (dnEnd - p) < arcLen)
 1152              		.loc 1 441 0
 1153 00a2 8842     		cmp	r0, r1
 1154 00a4 B7DB     		blt	.L137
 459:src/x509.c    ****       return 0;
 1155              		.loc 1 459 0
 1156 00a6 0128     		cmp	r0, #1
 453:src/x509.c    **** /*
 1157              		.loc 1 453 0
 1158 00a8 3360     		str	r3, [r6]
 459:src/x509.c    ****       return 0;
 1159              		.loc 1 459 0
 1160 00aa B4DD     		ble	.L137
 461:src/x509.c    ****     {
 1161              		.loc 1 461 0
 1162 00ac 5A1C     		adds	r2, r3, #1
 1163 00ae 0192     		str	r2, [sp, #4]
 1164 00b0 1A78     		ldrb	r2, [r3]	@ zero_extendqisi2
 1165 00b2 552A     		cmp	r2, #85
 1166 00b4 16D0     		beq	.L138
 1167              	.LVL128:
 1168              	.L140:
 468:src/x509.c    ****         return 0;
 1169              		.loc 1 468 0
 1170 00b6 8142     		cmp	r1, r0
 1171 00b8 ADDA     		bge	.L137
ARM GAS  C:\Users\AHMED~1.ELE\AppData\Local\Temp\ccaBET3e.s 			page 48


 470:src/x509.c    ****       if (x509_get_asn_length(&p,(int)(dnEnd - p),&llen) == 0 ||
 1172              		.loc 1 470 0
 1173 00ba 0131     		adds	r1, r1, #1
 1174 00bc 1944     		add	r1, r1, r3
 471:src/x509.c    ****           dnEnd - p < llen)
 1175              		.loc 1 471 0
 1176 00be 01A8     		add	r0, sp, #4
 1177              	.LVL129:
 470:src/x509.c    ****       if (x509_get_asn_length(&p,(int)(dnEnd - p),&llen) == 0 ||
 1178              		.loc 1 470 0
 1179 00c0 0191     		str	r1, [sp, #4]
 471:src/x509.c    ****           dnEnd - p < llen)
 1180              		.loc 1 471 0
 1181 00c2 02AA     		add	r2, sp, #8
 1182 00c4 611A     		subs	r1, r4, r1
 1183 00c6 FFF7FEFF 		bl	x509_get_asn_length
 1184              	.LVL130:
 1185 00ca 0028     		cmp	r0, #0
 1186 00cc A3D0     		beq	.L137
 472:src/x509.c    ****         return 0;
 1187              		.loc 1 472 0 discriminator 1
 1188 00ce 019A     		ldr	r2, [sp, #4]
 1189 00d0 029B     		ldr	r3, [sp, #8]
 1190 00d2 A11A     		subs	r1, r4, r2
 471:src/x509.c    ****           dnEnd - p < llen)
 1191              		.loc 1 471 0 discriminator 1
 1192 00d4 9942     		cmp	r1, r3
 1193 00d6 9EDB     		blt	.L137
 474:src/x509.c    ****       continue;
 1194              		.loc 1 474 0
 1195 00d8 1344     		add	r3, r3, r2
 1196 00da 0193     		str	r3, [sp, #4]
 1197              	.LVL131:
 1198              	.L133:
 434:src/x509.c    ****   {
 1199              		.loc 1 434 0
 1200 00dc 019B     		ldr	r3, [sp, #4]
 1201 00de A342     		cmp	r3, r4
 1202 00e0 B2D3     		bcc	.L143
 1203 00e2 2DE0     		b	.L165
 1204              	.LVL132:
 1205              	.L138:
 461:src/x509.c    ****     {
 1206              		.loc 1 461 0 discriminator 1
 1207 00e4 9A1C     		adds	r2, r3, #2
 1208 00e6 0192     		str	r2, [sp, #4]
 1209 00e8 5D78     		ldrb	r5, [r3, #1]	@ zero_extendqisi2
 1210              	.LVL133:
 1211 00ea 042D     		cmp	r5, #4
 1212 00ec E3D1     		bne	.L140
 480:src/x509.c    ****       return 0;
 1213              		.loc 1 480 0
 1214 00ee 0329     		cmp	r1, #3
 1215 00f0 91D1     		bne	.L137
 480:src/x509.c    ****       return 0;
 1216              		.loc 1 480 0 is_stmt 0 discriminator 1
 1217 00f2 A21A     		subs	r2, r4, r2
ARM GAS  C:\Users\AHMED~1.ELE\AppData\Local\Temp\ccaBET3e.s 			page 49


 1218 00f4 012A     		cmp	r2, #1
 1219 00f6 8EDD     		ble	.L137
 482:src/x509.c    ****     /*
 1220              		.loc 1 482 0 is_stmt 1
 1221 00f8 DA1C     		adds	r2, r3, #3
 486:src/x509.c    **** 
 1222              		.loc 1 486 0
 1223 00fa 191D     		adds	r1, r3, #4
 482:src/x509.c    ****     /*
 1224              		.loc 1 482 0
 1225 00fc 0192     		str	r2, [sp, #4]
 488:src/x509.c    ****     if (dnEnd - p < llen)
 1226              		.loc 1 488 0
 1227 00fe 01A8     		add	r0, sp, #4
 1228              	.LVL134:
 482:src/x509.c    ****     /*
 1229              		.loc 1 482 0
 1230 0100 9F78     		ldrb	r7, [r3, #2]	@ zero_extendqisi2
 1231              	.LVL135:
 488:src/x509.c    ****     if (dnEnd - p < llen)
 1232              		.loc 1 488 0
 1233 0102 02AA     		add	r2, sp, #8
 486:src/x509.c    **** 
 1234              		.loc 1 486 0
 1235 0104 0191     		str	r1, [sp, #4]
 488:src/x509.c    ****     if (dnEnd - p < llen)
 1236              		.loc 1 488 0
 1237 0106 611A     		subs	r1, r4, r1
 486:src/x509.c    **** 
 1238              		.loc 1 486 0
 1239 0108 DD78     		ldrb	r5, [r3, #3]	@ zero_extendqisi2
 1240              	.LVL136:
 488:src/x509.c    ****     if (dnEnd - p < llen)
 1241              		.loc 1 488 0
 1242 010a FFF7FEFF 		bl	x509_get_asn_length
 1243              	.LVL137:
 489:src/x509.c    ****       return 0;
 1244              		.loc 1 489 0
 1245 010e 0198     		ldr	r0, [sp, #4]
 1246 0110 029A     		ldr	r2, [sp, #8]
 1247 0112 231A     		subs	r3, r4, r0
 1248 0114 9342     		cmp	r3, r2
 1249 0116 FFF67EAF 		blt	.L137
 1250 011a A5F10C03 		sub	r3, r5, #12
 1251 011e DBB2     		uxtb	r3, r3
 1252 0120 082B     		cmp	r3, #8
 1253 0122 3FF678AF 		bhi	.L137
 1254 0126 0121     		movs	r1, #1
 1255 0128 9940     		lsls	r1, r1, r3
 1256 012a 40F28113 		movw	r3, #385
 1257 012e 0B40     		ands	r3, r3, r1
 1258 0130 002B     		cmp	r3, #0
 1259 0132 3FF470AF 		beq	.L137
 496:src/x509.c    ****         break;
 1260              		.loc 1 496 0
 1261 0136 0244     		add	r2, r2, r0
 558:src/x509.c    ****        return 0;
ARM GAS  C:\Users\AHMED~1.ELE\AppData\Local\Temp\ccaBET3e.s 			page 50


 1262              		.loc 1 558 0
 1263 0138 352F     		cmp	r7, #53
 496:src/x509.c    ****         break;
 1264              		.loc 1 496 0
 1265 013a 0192     		str	r2, [sp, #4]
 558:src/x509.c    ****        return 0;
 1266              		.loc 1 558 0
 1267 013c CEDD     		ble	.L133
 1268 013e 6AE7     		b	.L137
 1269              	.LVL138:
 1270              	.L165:
 564:src/x509.c    **** }
 1271              		.loc 1 564 0
 1272 0140 4FF0FF30 		mov	r0, #-1
 563:src/x509.c    ****   return -1;
 1273              		.loc 1 563 0
 1274 0144 3360     		str	r3, [r6]
 1275              	.LVL139:
 1276              	.L131:
 565:src/x509.c    **** 
 1277              		.loc 1 565 0
 1278 0146 5BB0     		add	sp, sp, #364
 1279              		.cfi_def_cfa_offset 20
 1280              		@ sp needed
 1281 0148 F0BD     		pop	{r4, r5, r6, r7, pc}
 1282              		.cfi_endproc
 1283              	.LFE8:
 1284              		.size	x509_get_dn_attrib, .-x509_get_dn_attrib
 1285              		.section	.text.x509_select_hashops,"ax",%progbits
 1286              		.align	1
 1287              		.thumb
 1288              		.thumb_func
 1289              		.type	x509_select_hashops, %function
 1290              	x509_select_hashops:
 1291              	.LFB22:
1380:src/x509.c    **** 
1381:src/x509.c    **** /*---------------------------------------------------------------------*/
1382:src/x509.c    **** static int x509_get_signature(BYTE ** a_pp,int a_len,BYTE * a_sig)
1383:src/x509.c    **** {
1384:src/x509.c    ****   BYTE *  p;
1385:src/x509.c    ****   BYTE *  end;
1386:src/x509.c    ****   int     ignore_bits,llen,sigLen;
1387:src/x509.c    **** 
1388:src/x509.c    ****   p = *a_pp;
1389:src/x509.c    ****   end = p + a_len;
1390:src/x509.c    ****   if (a_len<1 || (*(p++)!=K_AsnBitString) ||
1391:src/x509.c    ****       x509_get_asn_length(&p,a_len-1,&llen)==0 || (end-p)<llen)
1392:src/x509.c    ****     return 0;
1393:src/x509.c    **** 
1394:src/x509.c    ****   ignore_bits = *p++;
1395:src/x509.c    **** /*
1396:src/x509.c    ****   We assume this is always 0.
1397:src/x509.c    **** */
1398:src/x509.c    ****   if (ignore_bits != 0)
1399:src/x509.c    ****     return 0;
1400:src/x509.c    **** 
1401:src/x509.c    **** /*
ARM GAS  C:\Users\AHMED~1.ELE\AppData\Local\Temp\ccaBET3e.s 			page 51


1402:src/x509.c    ****   Length included the ignore_bits byte
1403:src/x509.c    **** */
1404:src/x509.c    ****   sigLen = llen - 1;
1405:src/x509.c    ****   memcpy(a_sig,&sigLen,4);
1406:src/x509.c    ****   memcpy(a_sig + 4,p,sigLen);
1407:src/x509.c    ****   *a_pp = p + sigLen;
1408:src/x509.c    **** 
1409:src/x509.c    ****   return -1;
1410:src/x509.c    **** }
1411:src/x509.c    **** 
1412:src/x509.c    **** /*---------------------------------------------------------------------*/
1413:src/x509.c    **** static int x509_get_pubkey(BYTE** a_pp, int a_len, T_KEY * a_pubKey)
1414:src/x509.c    **** {
1415:src/x509.c    ****   BYTE *  p;
1416:src/x509.c    ****   BYTE    value[4];
1417:src/x509.c    ****   int     pubKeyLen,ignore_bits,seqLen;
1418:src/x509.c    ****   DWORD   keyLen,expLen,count;
1419:src/x509.c    **** 
1420:src/x509.c    ****   p = *a_pp;
1421:src/x509.c    ****   if (a_len<1 || (*(p++)!=K_AsnBitString) ||
1422:src/x509.c    ****       x509_get_asn_length(&p,a_len-1,&pubKeyLen)==0 || (a_len-1)<pubKeyLen)
1423:src/x509.c    ****     return 0;
1424:src/x509.c    **** 
1425:src/x509.c    ****   ignore_bits = *p++;
1426:src/x509.c    **** /*
1427:src/x509.c    ****   We assume this is always zero
1428:src/x509.c    **** */
1429:src/x509.c    ****   if (ignore_bits != 0)
1430:src/x509.c    ****     return 0;
1431:src/x509.c    **** 
1432:src/x509.c    ****   expLen = 4;
1433:src/x509.c    **** #if 0
1434:src/x509.c    ****   keyLen = 258;
1435:src/x509.c    **** #else
1436:src/x509.c    ****   keyLen = sizeof(a_pubKey->s_key);
1437:src/x509.c    **** #endif
1438:src/x509.c    ****   if (x509_get_sequence(&p,pubKeyLen,&seqLen) == 0 ||
1439:src/x509.c    ****       x509_get_big(&p,seqLen,(BYTE*)a_pubKey->s_key,&keyLen) == 0 ||
1440:src/x509.c    ****       x509_get_big(&p,seqLen,(BYTE*)value,&expLen) == 0)
1441:src/x509.c    ****     return 0;
1442:src/x509.c    **** 
1443:src/x509.c    **** #ifdef _PCI_  /* Accept only 2048 bits key or above */
1444:src/x509.c    ****   if (keyLen < 256)
1445:src/x509.c    ****     return 0;
1446:src/x509.c    **** #endif
1447:src/x509.c    **** 
1448:src/x509.c    ****   a_pubKey->d_keysize  = keyLen;
1449:src/x509.c    ****   a_pubKey->d_exponent = 0;
1450:src/x509.c    ****   for (count=0;count<expLen;count++)
1451:src/x509.c    ****     a_pubKey->d_exponent = (a_pubKey->d_exponent<<8) | value[count];
1452:src/x509.c    **** 
1453:src/x509.c    ****   *a_pp = p;
1454:src/x509.c    ****   return -1;
1455:src/x509.c    **** }
1456:src/x509.c    **** 
1457:src/x509.c    **** /*---------------------------------------------------------------------*/
1458:src/x509.c    **** static int x509_unpad_rsa(BYTE * a_ptr,DWORD a_len)
ARM GAS  C:\Users\AHMED~1.ELE\AppData\Local\Temp\ccaBET3e.s 			page 52


1459:src/x509.c    **** {
1460:src/x509.c    ****   BYTE *c, *end;
1461:src/x509.c    **** 
1462:src/x509.c    ****   c   = a_ptr;
1463:src/x509.c    ****   end = c + a_len;
1464:src/x509.c    ****   if (*c++ != 0x00 || *c != 0x01)
1465:src/x509.c    ****     return -1;
1466:src/x509.c    **** 
1467:src/x509.c    ****   c++;
1468:src/x509.c    ****   while (c < end && *c != 0x00)
1469:src/x509.c    ****   {
1470:src/x509.c    ****     if (*c != 0xFF)
1471:src/x509.c    ****       return -1;
1472:src/x509.c    ****     c++;
1473:src/x509.c    ****   }
1474:src/x509.c    ****   c++;
1475:src/x509.c    **** 
1476:src/x509.c    ****   return end - c;
1477:src/x509.c    **** }
1478:src/x509.c    **** 
1479:src/x509.c    **** static BOOLEAN x509_select_hashops(T_HASH_OPS *a_hash_ops, DWORD algo_oid_hash)
1480:src/x509.c    **** {
 1292              		.loc 1 1480 0
 1293              		.cfi_startproc
 1294              		@ args = 0, pretend = 0, frame = 0
 1295              		@ frame_needed = 0, uses_anonymous_args = 0
 1296              		@ link register save eliminated.
 1297              	.LVL140:
1481:src/x509.c    ****   switch ( algo_oid_hash )
 1298              		.loc 1 1481 0
 1299 0000 1B4B     		ldr	r3, .L179
 1300 0002 9942     		cmp	r1, r3
 1301 0004 2AD0     		beq	.L168
 1302 0006 0FD8     		bhi	.L169
 1303 0008 063B     		subs	r3, r3, #6
 1304 000a 9942     		cmp	r1, r3
 1305 000c 2AD0     		beq	.L170
 1306 000e 04D8     		bhi	.L171
 1307 0010 184B     		ldr	r3, .L179+4
 1308 0012 9942     		cmp	r1, r3
 1309 0014 1ED0     		beq	.L172
 1310 0016 184B     		ldr	r3, .L179+8
 1311 0018 0EE0     		b	.L177
 1312              	.L171:
 1313 001a 184B     		ldr	r3, .L179+12
 1314 001c 9942     		cmp	r1, r3
 1315 001e 1FD0     		beq	.L174
 1316 0020 0233     		adds	r3, r3, #2
 1317 0022 9942     		cmp	r1, r3
 1318 0024 18D0     		beq	.L175
 1319 0026 20E0     		b	.L167
 1320              	.L169:
 1321 0028 154B     		ldr	r3, .L179+16
 1322 002a 9942     		cmp	r1, r3
 1323 002c 18D0     		beq	.L174
 1324 002e 07D8     		bhi	.L176
 1325 0030 144B     		ldr	r3, .L179+20
ARM GAS  C:\Users\AHMED~1.ELE\AppData\Local\Temp\ccaBET3e.s 			page 53


 1326 0032 9942     		cmp	r1, r3
 1327 0034 0ED0     		beq	.L172
 1328 0036 0133     		adds	r3, r3, #1
 1329              	.L177:
 1330 0038 9942     		cmp	r1, r3
 1331 003a 16D1     		bne	.L167
1482:src/x509.c    ****   {
1483:src/x509.c    **** #ifndef _PCI_
1484:src/x509.c    ****     case K_OIdMd5:
1485:src/x509.c    ****     case K_OIdRsaMd5:
1486:src/x509.c    ****       return hashops_get(a_hash_ops,E_HashOps_AlgoId_md5);
 1332              		.loc 1 1486 0
 1333 003c 0121     		movs	r1, #1
 1334              	.LVL141:
 1335 003e 12E0     		b	.L178
 1336              	.LVL142:
 1337              	.L176:
1481:src/x509.c    ****   switch ( algo_oid_hash )
 1338              		.loc 1 1481 0
 1339 0040 114B     		ldr	r3, .L179+24
 1340 0042 9942     		cmp	r1, r3
 1341 0044 0AD0     		beq	.L168
 1342 0046 0333     		adds	r3, r3, #3
 1343 0048 9942     		cmp	r1, r3
 1344 004a 05D0     		beq	.L175
 1345 004c 053B     		subs	r3, r3, #5
 1346 004e 9942     		cmp	r1, r3
 1347 0050 0BD1     		bne	.L167
 1348 0052 07E0     		b	.L170
 1349              	.L172:
1487:src/x509.c    **** #endif
1488:src/x509.c    **** 
1489:src/x509.c    ****     case K_OIdSha1:
1490:src/x509.c    ****     case K_OIdRsaSha1:
1491:src/x509.c    ****       return hashops_get(a_hash_ops,E_HashOps_AlgoId_sha1);
 1350              		.loc 1 1491 0
 1351 0054 0221     		movs	r1, #2
 1352              	.LVL143:
 1353 0056 06E0     		b	.L178
 1354              	.LVL144:
 1355              	.L175:
1492:src/x509.c    **** 
1493:src/x509.c    ****     case K_OIdSha224:
1494:src/x509.c    ****     case K_OIdRsaSha224:
1495:src/x509.c    ****       return hashops_get(a_hash_ops,E_HashOps_AlgoId_sha224);
 1356              		.loc 1 1495 0
 1357 0058 0321     		movs	r1, #3
 1358              	.LVL145:
 1359 005a 04E0     		b	.L178
 1360              	.LVL146:
 1361              	.L168:
1496:src/x509.c    **** 
1497:src/x509.c    ****     case K_OIdSha256:
1498:src/x509.c    ****     case K_OIdRsaSha256:
1499:src/x509.c    ****       return hashops_get(a_hash_ops,E_HashOps_AlgoId_sha256);
 1362              		.loc 1 1499 0
 1363 005c 0421     		movs	r1, #4
ARM GAS  C:\Users\AHMED~1.ELE\AppData\Local\Temp\ccaBET3e.s 			page 54


 1364              	.LVL147:
 1365 005e 02E0     		b	.L178
 1366              	.LVL148:
 1367              	.L174:
1500:src/x509.c    **** 
1501:src/x509.c    ****     case K_OIdSha384:
1502:src/x509.c    ****     case K_OIdRsaSha384:
1503:src/x509.c    ****       return hashops_get(a_hash_ops,E_HashOps_AlgoId_sha384);
 1368              		.loc 1 1503 0
 1369 0060 0521     		movs	r1, #5
 1370              	.LVL149:
 1371 0062 00E0     		b	.L178
 1372              	.LVL150:
 1373              	.L170:
1504:src/x509.c    **** 
1505:src/x509.c    ****     case K_OIdSha512:
1506:src/x509.c    ****     case K_OIdRsaSha512:
1507:src/x509.c    ****       return hashops_get(a_hash_ops,E_HashOps_AlgoId_sha512);
 1374              		.loc 1 1507 0
 1375 0064 0621     		movs	r1, #6
 1376              	.LVL151:
 1377              	.L178:
 1378 0066 FFF7FEBF 		b	hashops_get
 1379              	.LVL152:
 1380              	.L167:
1508:src/x509.c    ****   };
1509:src/x509.c    **** 
1510:src/x509.c    ****   return FALSE;
1511:src/x509.c    **** }
 1381              		.loc 1 1511 0
 1382 006a 0020     		movs	r0, #0
 1383              	.LVL153:
 1384 006c 7047     		bx	lr
 1385              	.L180:
 1386 006e 00BF     		.align	2
 1387              	.L179:
 1388 0070 F67E758B 		.word	-1955234058
 1389 0074 DB2B5706 		.word	106376155
 1390 0078 BA131369 		.word	1762857914
 1391 007c F17E758B 		.word	-1955234063
 1392 0080 68D39AF3 		.word	-207957144
 1393 0084 F87E758B 		.word	-1955234056
 1394 0088 6BD39AF3 		.word	-207957141
 1395              		.cfi_endproc
 1396              	.LFE22:
 1397              		.size	x509_select_hashops, .-x509_select_hashops
 1398              		.section	.text.unlikely.x509_generalize_time,"ax",%progbits
 1399              		.align	1
 1400              		.thumb
 1401              		.thumb_func
 1402              		.type	x509_generalize_time, %function
 1403              	x509_generalize_time:
 1404              	.LFB16:
1266:src/x509.c    ****   if (a_timeFormat == K_AsnUtcTime)
 1405              		.loc 1 1266 0
 1406              		.cfi_startproc
 1407              		@ args = 0, pretend = 0, frame = 0
ARM GAS  C:\Users\AHMED~1.ELE\AppData\Local\Temp\ccaBET3e.s 			page 55


 1408              		@ frame_needed = 0, uses_anonymous_args = 0
 1409              	.LVL154:
1267:src/x509.c    ****   {
 1410              		.loc 1 1267 0
 1411 0000 1728     		cmp	r0, #23
1266:src/x509.c    ****   if (a_timeFormat == K_AsnUtcTime)
 1412              		.loc 1 1266 0
 1413 0002 38B5     		push	{r3, r4, r5, lr}
 1414              		.cfi_def_cfa_offset 16
 1415              		.cfi_offset 3, -16
 1416              		.cfi_offset 4, -12
 1417              		.cfi_offset 5, -8
 1418              		.cfi_offset 14, -4
1266:src/x509.c    ****   if (a_timeFormat == K_AsnUtcTime)
 1419              		.loc 1 1266 0
 1420 0004 0C46     		mov	r4, r1
 1421 0006 03EB0405 		add	r5, r3, r4
 1422 000a 1146     		mov	r1, r2
 1423              	.LVL155:
1267:src/x509.c    ****   {
 1424              		.loc 1 1267 0
 1425 000c 11D1     		bne	.L182
 1426              	.LVL156:
 1427              	.LBB18:
 1428              	.LBB19:
1269:src/x509.c    ****     {
 1429              		.loc 1 1269 0
 1430 000e 1278     		ldrb	r2, [r2]	@ zero_extendqisi2
 1431              	.LVL157:
1279:src/x509.c    ****     a_outTime[a_timeLen+1] = 0;
 1432              		.loc 1 1279 0
 1433 0010 981C     		adds	r0, r3, #2
 1434              	.LVL158:
1269:src/x509.c    ****     {
 1435              		.loc 1 1269 0
 1436 0012 342A     		cmp	r2, #52
1271:src/x509.c    ****       a_outTime[1] = '9';
 1437              		.loc 1 1271 0
 1438 0014 8BBF     		itete	hi
 1439 0016 3122     		movhi	r2, #49
1276:src/x509.c    ****       a_outTime[1] = '0';
 1440              		.loc 1 1276 0
 1441 0018 3222     		movls	r2, #50
1271:src/x509.c    ****       a_outTime[1] = '9';
 1442              		.loc 1 1271 0
 1443 001a 1A70     		strbhi	r2, [r3]
1276:src/x509.c    ****       a_outTime[1] = '0';
 1444              		.loc 1 1276 0
 1445 001c 1A70     		strbls	r2, [r3]
1272:src/x509.c    ****     }
 1446              		.loc 1 1272 0
 1447 001e 8CBF     		ite	hi
 1448 0020 3922     		movhi	r2, #57
1277:src/x509.c    ****     }
 1449              		.loc 1 1277 0
 1450 0022 3022     		movls	r2, #48
 1451 0024 5A70     		strb	r2, [r3, #1]
ARM GAS  C:\Users\AHMED~1.ELE\AppData\Local\Temp\ccaBET3e.s 			page 56


1279:src/x509.c    ****     a_outTime[a_timeLen+1] = 0;
 1452              		.loc 1 1279 0
 1453 0026 2246     		mov	r2, r4
 1454 0028 FFF7FEFF 		bl	memcpy
 1455              	.LVL159:
1280:src/x509.c    ****   }
 1456              		.loc 1 1280 0
 1457 002c 0023     		movs	r3, #0
 1458 002e 6B70     		strb	r3, [r5, #1]
 1459 0030 38BD     		pop	{r3, r4, r5, pc}
 1460              	.LVL160:
 1461              	.L182:
 1462              	.LBE19:
 1463              	.LBE18:
1284:src/x509.c    ****     a_outTime[a_timeLen-1] = 0;
 1464              		.loc 1 1284 0
 1465 0032 1846     		mov	r0, r3
 1466              	.LVL161:
 1467 0034 2246     		mov	r2, r4
 1468 0036 FFF7FEFF 		bl	memcpy
 1469              	.LVL162:
1285:src/x509.c    ****   }
 1470              		.loc 1 1285 0
 1471 003a 0023     		movs	r3, #0
 1472 003c 05F8013C 		strb	r3, [r5, #-1]
 1473 0040 38BD     		pop	{r3, r4, r5, pc}
 1474              		.cfi_endproc
 1475              	.LFE16:
 1476              		.size	x509_generalize_time, .-x509_generalize_time
 1477              		.section	.text.x509_check_leading_zeros.constprop.6,"ax",%progbits
 1478              		.align	1
 1479              		.thumb
 1480              		.thumb_func
 1481              		.type	x509_check_leading_zeros.constprop.6, %function
 1482              	x509_check_leading_zeros.constprop.6:
 1483              	.LFB37:
1512:src/x509.c    **** 
1513:src/x509.c    **** /*---------------------------------------------------------------------*/
1514:src/x509.c    **** DWORD x509_parse_cert(BYTE *a_ptr, DWORD a_size, T_X509_CERT_INFO *a_cert_info)
1515:src/x509.c    **** {
1516:src/x509.c    ****   BYTE *p;
1517:src/x509.c    ****   BYTE *certStart;
1518:src/x509.c    ****   BYTE *certEnd;
1519:src/x509.c    ****   BYTE *end;
1520:src/x509.c    ****   /* BYTE *sigptr; */
1521:src/x509.c    ****   /* BYTE *sigend; */
1522:src/x509.c    ****   int  len,certLen;
1523:src/x509.c    ****   int  certVersion,certAlgorithm,pubKeyAlgorithm,sigAlgorithm;
1524:src/x509.c    **** 
1525:src/x509.c    ****   T_RSAPSS_PARAM certAlgorithm_pss_param;
1526:src/x509.c    ****   T_RSAPSS_PARAM anyAlgorithm_pss_param;
1527:src/x509.c    ****   DWORD certDigestAlgo;
1528:src/x509.c    **** 
1529:src/x509.c    ****   T_HASH_OPS     hash_ops;
1530:src/x509.c    ****   T_HASH_OPS_CTX hash_ctx;
1531:src/x509.c    ****   BYTE           hash_digest[K_HashOps_Digest_Max];
1532:src/x509.c    **** 
ARM GAS  C:\Users\AHMED~1.ELE\AppData\Local\Temp\ccaBET3e.s 			page 57


1533:src/x509.c    ****   p   = a_ptr;
1534:src/x509.c    ****   len = 0;
1535:src/x509.c    ****   end = p + a_size;
1536:src/x509.c    **** 
1537:src/x509.c    ****   /* general input parameters checking */
1538:src/x509.c    ****   if ( a_ptr == NULL || a_size == 0 || a_cert_info == NULL )
1539:src/x509.c    ****     return K_X509ErrGeneral;
1540:src/x509.c    **** 
1541:src/x509.c    ****   memset(a_cert_info,0,sizeof(*a_cert_info));
1542:src/x509.c    ****   memset(a_cert_info->s_issuer_dn_mac,0xff,K_X509_MacLen_Sha1);
1543:src/x509.c    **** 
1544:src/x509.c    **** /*
1545:src/x509.c    ****   Certificate ::= SEQUENCE  {
1546:src/x509.c    ****                     tbsCertificate      TBSCertificate,
1547:src/x509.c    ****                     signatureAlgorithm  AlgorithmIdentifier,
1548:src/x509.c    ****                     signatureValue      BIT STRING  }
1549:src/x509.c    **** */
1550:src/x509.c    ****   if (x509_get_sequence(&p,a_size,&len) == 0)
1551:src/x509.c    ****     return K_X509ErrCertSequence;
1552:src/x509.c    **** 
1553:src/x509.c    ****   certStart = p;
1554:src/x509.c    **** /*
1555:src/x509.c    ****   TBSCertificate ::=  SEQUENCE  {
1556:src/x509.c    ****       version[0] EXPLICIT Version DEFAULT v1,
1557:src/x509.c    ****       serialNumber CertificateSerialNumber,
1558:src/x509.c    ****       signature AlgorithmIdentifier,
1559:src/x509.c    ****       issuer Name,
1560:src/x509.c    ****       validity Validity,
1561:src/x509.c    ****       subject Name,
1562:src/x509.c    ****       subjectPublicKeyInfo SubjectPublicKeyInfo,
1563:src/x509.c    ****       issuerUniqueID[1] IMPLICIT UniqueIdentifier OPTIONAL,
1564:src/x509.c    ****         -- If present, version shall be v2 or v3
1565:src/x509.c    ****       subjectUniqueID[2] IMPLICIT UniqueIdentifier OPTIONAL,
1566:src/x509.c    ****         -- If present, version shall be v2 or v3
1567:src/x509.c    ****       extensions[3] EXPLICIT Extensions OPTIONAL
1568:src/x509.c    ****         -- If present, version shall be v3  }
1569:src/x509.c    **** */
1570:src/x509.c    ****   if (x509_get_sequence(&p,(DWORD)(end - p),&len) == 0)
1571:src/x509.c    ****     return K_X509ErrMainSequence;
1572:src/x509.c    **** 
1573:src/x509.c    ****   certEnd = p + len;
1574:src/x509.c    ****   certLen = (DWORD)(certEnd - certStart);
1575:src/x509.c    **** 
1576:src/x509.c    **** /*
1577:src/x509.c    ****   Version ::= INTEGER  {  v1(0), v2(1), v3(2)  }
1578:src/x509.c    **** */
1579:src/x509.c    ****   if (x509_get_explicit_version(&p,(int)(end - p),0,&certVersion) == 0)
1580:src/x509.c    ****     return K_X509ErrExplicit;
1581:src/x509.c    **** 
1582:src/x509.c    **** /*
1583:src/x509.c    ****   CertificateSerialNumber ::= INTEGER
1584:src/x509.c    **** */
1585:src/x509.c    ****   if (x509_get_SerialNum(&p,(int)(end - p)) == 0)
1586:src/x509.c    ****     return K_X509ErrSerialNum;
1587:src/x509.c    **** 
1588:src/x509.c    **** /*
1589:src/x509.c    ****   AlgorithmIdentifier ::= SEQUENCE  {
ARM GAS  C:\Users\AHMED~1.ELE\AppData\Local\Temp\ccaBET3e.s 			page 58


1590:src/x509.c    ****                   algorithm   OBJECT IDENTIFIER,
1591:src/x509.c    ****                   parameters  ANY DEFINED BY algorithm OPTIONAL }
1592:src/x509.c    **** */
1593:src/x509.c    ****   if (x509_get_algorithm_identifier(&p,(int)(end - p),&certAlgorithm,&certAlgorithm_pss_param,0) ==
1594:src/x509.c    ****     return K_X509ErrCertAlg;
1595:src/x509.c    **** 
1596:src/x509.c    **** /*
1597:src/x509.c    ****   Name ::= CHOICE {
1598:src/x509.c    ****     RDNSequence }
1599:src/x509.c    **** 
1600:src/x509.c    ****     RDNSequence ::= SEQUENCE OF RelativeDistinguishedName
1601:src/x509.c    **** 
1602:src/x509.c    ****     RelativeDistinguishedName ::= SET OF AttributeTypeAndValue
1603:src/x509.c    **** 
1604:src/x509.c    ****     AttributeTypeAndValue ::= SEQUENCE {
1605:src/x509.c    ****       type  AttributeType,
1606:src/x509.c    ****       value AttributeValue }
1607:src/x509.c    **** 
1608:src/x509.c    ****     AttributeType ::= OBJECT IDENTIFIER
1609:src/x509.c    **** 
1610:src/x509.c    ****     AttributeValue ::= ANY DEFINED BY AttributeType
1611:src/x509.c    **** */
1612:src/x509.c    ****   if (x509_get_dn_attrib(&p,(int)(end - p),a_cert_info->s_issuer_dn_mac) == 0)
1613:src/x509.c    ****     return K_X509ErrDnAttrib;
1614:src/x509.c    **** 
1615:src/x509.c    **** /*
1616:src/x509.c    ****   Validity ::= SEQUENCE {
1617:src/x509.c    ****     notBefore Time,
1618:src/x509.c    ****     notAfter  Time  }
1619:src/x509.c    **** */
1620:src/x509.c    ****   if (x509_get_validity(&p,(int)(end - p)) == 0)
1621:src/x509.c    ****     return K_X509ErrValId;
1622:src/x509.c    **** 
1623:src/x509.c    **** /*
1624:src/x509.c    ****   Subject DN
1625:src/x509.c    **** */
1626:src/x509.c    ****   if (x509_get_dn_attrib(&p,(int)(end - p),a_cert_info->s_subject_dn_mac) == 0)
1627:src/x509.c    ****     return K_X509ErrSubDn;
1628:src/x509.c    **** 
1629:src/x509.c    **** /*
1630:src/x509.c    ****   SubjectPublicKeyInfo  ::=  SEQUENCE  {
1631:src/x509.c    ****     algorithm   AlgorithmIdentifier,
1632:src/x509.c    ****     subjectPublicKey  BIT STRING  }
1633:src/x509.c    **** */
1634:src/x509.c    ****   if (x509_get_sequence(&p,(int)(end - p),&len) == 0)
1635:src/x509.c    ****     return K_X509ErrPubSeq;
1636:src/x509.c    **** 
1637:src/x509.c    ****   if (x509_get_algorithm_identifier(&p,(int)(end - p),&pubKeyAlgorithm,&anyAlgorithm_pss_param,1) =
1638:src/x509.c    ****     return K_X509ErrPubAlg;
1639:src/x509.c    ****   if ( pubKeyAlgorithm != K_OIdRsaEncryption )
1640:src/x509.c    ****     return K_X509ErrPubAlg;
1641:src/x509.c    **** 
1642:src/x509.c    ****   if (x509_get_pubkey(&p,(int)(end - p),&a_cert_info->s_public_key) == 0)
1643:src/x509.c    ****     return K_X509ErrPubKey;
1644:src/x509.c    ****   /* dbg_printf("x509 public key size = %d\r\n", */
1645:src/x509.c    ****   /*            a_cert_info->s_public_key.d_keysize); */
1646:src/x509.c    **** 
ARM GAS  C:\Users\AHMED~1.ELE\AppData\Local\Temp\ccaBET3e.s 			page 59


1647:src/x509.c    ****   if (*p != (K_AsnSequence | K_AsnConstructed))
1648:src/x509.c    ****     if (x509_get_implicit_bit_string(&p,(int)(end - p),K_ImplicitIssuerId) == 0 ||
1649:src/x509.c    ****         x509_get_implicit_bit_string(&p,(int)(end - p),K_ImplicitSubjectId) == 0 ||
1650:src/x509.c    ****         x509_get_explicit_extensions(&p,(int)(end - p),K_ExplicitExtension,a_cert_info) == 0)
1651:src/x509.c    ****       return K_X509ErrExternsion;
1652:src/x509.c    **** 
1653:src/x509.c    ****   if (certEnd != p)
1654:src/x509.c    ****     return K_X509ErrCertEnd;
1655:src/x509.c    **** 
1656:src/x509.c    ****   if (x509_get_algorithm_identifier(&p,(int)(end - p),&sigAlgorithm,&anyAlgorithm_pss_param,0) == 0
1657:src/x509.c    ****     return K_X509ErrSigAlg;
1658:src/x509.c    **** 
1659:src/x509.c    ****   if (certAlgorithm != sigAlgorithm)
1660:src/x509.c    ****     return K_X509ErrSigUnmatch;
1661:src/x509.c    **** 
1662:src/x509.c    ****   if ( certAlgorithm == K_OIdRsaPSS &&
1663:src/x509.c    ****        !x509_rsapss_param_identical(&certAlgorithm_pss_param,
1664:src/x509.c    ****                                     &anyAlgorithm_pss_param) )
1665:src/x509.c    ****     return K_X509ErrSigUnmatch;
1666:src/x509.c    **** 
1667:src/x509.c    ****   memset(hash_digest,0,sizeof(hash_digest));
1668:src/x509.c    ****   if ( (certDigestAlgo = certAlgorithm) == K_OIdRsaPSS )
1669:src/x509.c    ****     certDigestAlgo = certAlgorithm_pss_param.d_hash_algo;
1670:src/x509.c    **** 
1671:src/x509.c    ****   if ( x509_select_hashops(&hash_ops,certDigestAlgo) == FALSE )
1672:src/x509.c    ****     return K_X509ErrPubAlg;
1673:src/x509.c    ****   
1674:src/x509.c    ****   hash_ops.init(&hash_ctx);
1675:src/x509.c    ****   hash_ops.update(&hash_ctx,certStart,certLen);
1676:src/x509.c    ****   hash_ops.finish(&hash_ctx,a_cert_info->s_digest);
1677:src/x509.c    ****   a_cert_info->w_digest_algo_id = hash_ops.algo_type_id;
1678:src/x509.c    ****   a_cert_info->w_digest_len = hash_ops.dgst_len;
1679:src/x509.c    **** 
1680:src/x509.c    ****   if (x509_get_signature(&p,(int)(end - p),s_x509_sign) == 0)
1681:src/x509.c    ****     return K_X509ErrSignature;
1682:src/x509.c    **** 
1683:src/x509.c    ****   do {
1684:src/x509.c    ****     DWORD sig_len = s_x509_sign[0] + (s_x509_sign[1]<<8) + (s_x509_sign[2]<<16) + (s_x509_sign[3]<<
1685:src/x509.c    ****     a_cert_info->w_sign_len = sig_len;
1686:src/x509.c    ****     memcpy(a_cert_info->s_signature,&s_x509_sign[4],sig_len);
1687:src/x509.c    ****   } while ( 0 );
1688:src/x509.c    **** 
1689:src/x509.c    ****   if ( certAlgorithm == K_OIdRsaPSS ) {
1690:src/x509.c    ****     a_cert_info->s_rsapss_param = certAlgorithm_pss_param;
1691:src/x509.c    ****     a_cert_info->w_digest_algo_id |= K_X509_AlgoId_PSS_Mask;
1692:src/x509.c    ****   };
1693:src/x509.c    ****   
1694:src/x509.c    ****   dbg_printf("x509 certVersion     = 0x%08x\r\n",certVersion);
1695:src/x509.c    ****   dbg_printf("x509 certAlgorithm   = 0x%08x\r\n",certAlgorithm);
1696:src/x509.c    ****   dbg_printf("x509 pubKeyAlgorithm = 0x%08x\r\n",pubKeyAlgorithm);
1697:src/x509.c    ****   dbg_printf("x509 sigAlgorithm    = 0x%08x\r\n",sigAlgorithm);
1698:src/x509.c    ****   dbg_printf("x509 digest algo     = 0x%08x\r\n",a_cert_info->w_digest_algo_id);
1699:src/x509.c    ****   if ( certAlgorithm == K_OIdRsaPSS ) {
1700:src/x509.c    ****     dbg_printf("x509 -- pss hash     0x%08x\r\n",certAlgorithm_pss_param.d_hash_algo);
1701:src/x509.c    ****     dbg_printf("x509 -- pss mgf      0x%08x\r\n",certAlgorithm_pss_param.d_mask_gen_func);
1702:src/x509.c    ****     dbg_printf("x509 -- pss mgf-dig  0x%08x\r\n",certAlgorithm_pss_param.d_mgf_digest);
1703:src/x509.c    ****     dbg_printf("x509 -- pss salt-len %u\r\n",certAlgorithm_pss_param.d_salt_length);
ARM GAS  C:\Users\AHMED~1.ELE\AppData\Local\Temp\ccaBET3e.s 			page 60


1704:src/x509.c    ****     dbg_printf("x509 -- pss trailer  %u\r\n",certAlgorithm_pss_param.d_trailer_field);
1705:src/x509.c    ****   };
1706:src/x509.c    **** 
1707:src/x509.c    ****   /* Find out that this certificate is self-signed or not.  We have
1708:src/x509.c    ****    * simplified to checking issuer and subject DNs SHA1 digest hash
1709:src/x509.c    ****    * value and verify certficate signature against its public key.
1710:src/x509.c    ****    * There is no need to check key usage flag in this kind of checking.
1711:src/x509.c    ****    */
1712:src/x509.c    ****   if ( ( memcmp(a_cert_info->s_issuer_dn_mac,
1713:src/x509.c    **** 		a_cert_info->s_subject_dn_mac,
1714:src/x509.c    **** 		K_X509_MacLen_Sha1) == 0 ) &&
1715:src/x509.c    ****        (x509_verify_cert_by_key(a_cert_info,&a_cert_info->s_public_key)) )
1716:src/x509.c    ****   {
1717:src/x509.c    ****     a_cert_info->w_key_usage |= K_X509_KeyUsageFlag_SelfSigned;
1718:src/x509.c    ****   };
1719:src/x509.c    **** 
1720:src/x509.c    ****   /* KeyUsage extension is not mandatory.  It wiil be absent if there
1721:src/x509.c    ****    * is restriction are being imposed to subject's public key usages.
1722:src/x509.c    ****    * Apply default key usage value for normal SSL/TLS application.
1723:src/x509.c    ****    * Additionally, certificate signing and CRL list verficiation
1724:src/x509.c    ****    * capability are added if this certificate is flagged as CA. */
1725:src/x509.c    ****   if ( !(a_cert_info->w_key_usage & K_X509_KeyUsageFlag_HasKeyUsage ) )
1726:src/x509.c    ****   {
1727:src/x509.c    ****     a_cert_info->w_key_usage |= K_X509_KeyUsageFlag_digitalSign;
1728:src/x509.c    ****     a_cert_info->w_key_usage |= K_X509_KeyUsageFlag_contentCommit;
1729:src/x509.c    ****     a_cert_info->w_key_usage |= K_X509_KeyUsageFlag_keyEncipher;  /* for SSL/TLS */
1730:src/x509.c    ****     a_cert_info->w_key_usage |= K_X509_KeyUsageFlag_keyAgreement; /* for DH algo */
1731:src/x509.c    ****     /* a_cert_info->w_key_usage |= K_X509_KeyUsageFlag_dataEncipher; */
1732:src/x509.c    ****     if ( a_cert_info->w_key_usage & K_X509_KeyUsageFlag_IsCA )
1733:src/x509.c    ****     {
1734:src/x509.c    ****       a_cert_info->w_key_usage |= K_X509_KeyUsageFlag_keyCertSign;
1735:src/x509.c    ****       a_cert_info->w_key_usage |= K_X509_KeyUsageFlag_cRLSign;
1736:src/x509.c    ****     };
1737:src/x509.c    ****   };
1738:src/x509.c    **** 
1739:src/x509.c    ****   return K_X509Ok;
1740:src/x509.c    **** }
1741:src/x509.c    **** 
1742:src/x509.c    **** static BOOLEAN x509_check_leading_zeros(BYTE *p, int bits)
 1484              		.loc 1 1742 0
 1485              		.cfi_startproc
 1486              		@ args = 0, pretend = 0, frame = 0
 1487              		@ frame_needed = 0, uses_anonymous_args = 0
 1488              		@ link register save eliminated.
 1489              	.LVL163:
1743:src/x509.c    **** {
1744:src/x509.c    ****   if ( bits <= 0 )
 1490              		.loc 1 1744 0
 1491 0000 0028     		cmp	r0, #0
 1492 0002 14DD     		ble	.L193
 1493 0004 0B4A     		ldr	r2, .L195
 1494              	.LVL164:
 1495              	.L189:
1745:src/x509.c    ****     return TRUE;
1746:src/x509.c    **** 
1747:src/x509.c    ****   /* dbg_printf("leading zero %d\n",bits); */
1748:src/x509.c    ****   
ARM GAS  C:\Users\AHMED~1.ELE\AppData\Local\Temp\ccaBET3e.s 			page 61


1749:src/x509.c    ****   while ( bits >= 8 ) {
 1496              		.loc 1 1749 0
 1497 0006 0728     		cmp	r0, #7
 1498 0008 04DD     		ble	.L194
1750:src/x509.c    ****     if ( *p++ )
 1499              		.loc 1 1750 0
 1500 000a 12F8013B 		ldrb	r3, [r2], #1	@ zero_extendqisi2
 1501              	.LVL165:
 1502 000e 63B9     		cbnz	r3, .L192
1751:src/x509.c    ****       return FALSE;
1752:src/x509.c    ****     bits -= 8;
 1503              		.loc 1 1752 0
 1504 0010 0838     		subs	r0, r0, #8
 1505              	.LVL166:
 1506 0012 F8E7     		b	.L189
 1507              	.LVL167:
 1508              	.L194:
1753:src/x509.c    ****   };
1754:src/x509.c    **** 
1755:src/x509.c    ****   if ( bits ) {
 1509              		.loc 1 1755 0
 1510 0014 58B1     		cbz	r0, .L193
 1511              	.LVL168:
 1512              	.LBB20:
1756:src/x509.c    ****     BYTE mask;
1757:src/x509.c    ****     mask = (0xff << (8-bits)) & 0xff;
 1513              		.loc 1 1757 0
 1514 0016 C0F10800 		rsb	r0, r0, #8
 1515              	.LVL169:
 1516 001a FF23     		movs	r3, #255
1758:src/x509.c    ****     /* dbg_printf("last mask %02x\n",mask); */
1759:src/x509.c    ****     if ( *p & mask )
 1517              		.loc 1 1759 0
 1518 001c 1278     		ldrb	r2, [r2]	@ zero_extendqisi2
 1519              	.LVL170:
1757:src/x509.c    ****     /* dbg_printf("last mask %02x\n",mask); */
 1520              		.loc 1 1757 0
 1521 001e 8340     		lsls	r3, r3, r0
 1522              		.loc 1 1759 0
 1523 0020 1342     		tst	r3, r2
 1524              	.LBE20:
1745:src/x509.c    **** 
 1525              		.loc 1 1745 0
 1526 0022 0CBF     		ite	eq
 1527 0024 0120     		moveq	r0, #1
 1528 0026 0020     		movne	r0, #0
 1529 0028 7047     		bx	lr
 1530              	.LVL171:
 1531              	.L192:
1751:src/x509.c    ****     bits -= 8;
 1532              		.loc 1 1751 0
 1533 002a 0020     		movs	r0, #0
 1534              	.LVL172:
 1535 002c 7047     		bx	lr
 1536              	.LVL173:
 1537              	.L193:
1760:src/x509.c    ****       return FALSE;
ARM GAS  C:\Users\AHMED~1.ELE\AppData\Local\Temp\ccaBET3e.s 			page 62


1761:src/x509.c    ****   };
1762:src/x509.c    **** 
1763:src/x509.c    ****   return TRUE;
 1538              		.loc 1 1763 0
 1539 002e 0120     		movs	r0, #1
 1540              	.LVL174:
1764:src/x509.c    **** }
 1541              		.loc 1 1764 0
 1542 0030 7047     		bx	lr
 1543              	.L196:
 1544 0032 00BF     		.align	2
 1545              	.L195:
 1546 0034 00000000 		.word	.LANCHOR0
 1547              		.cfi_endproc
 1548              	.LFE37:
 1549              		.size	x509_check_leading_zeros.constprop.6, .-x509_check_leading_zeros.constprop.6
 1550              		.global	__aeabi_idiv
 1551              		.global	__aeabi_idivmod
 1552              		.section	.text.x509_verify_cert_with_PSS,"ax",%progbits
 1553              		.align	1
 1554              		.thumb
 1555              		.thumb_func
 1556              		.type	x509_verify_cert_with_PSS, %function
 1557              	x509_verify_cert_with_PSS:
 1558              	.LFB27:
1765:src/x509.c    **** 
1766:src/x509.c    **** static void x509_set_leading_zeros(BYTE *p, int bits)
1767:src/x509.c    **** {
1768:src/x509.c    ****   if ( bits <= 0 )
1769:src/x509.c    ****     return;
1770:src/x509.c    **** 
1771:src/x509.c    ****   /* dbg_printf("leading zero %d\n",bits); */
1772:src/x509.c    ****   
1773:src/x509.c    ****   while ( bits >= 8 ) {
1774:src/x509.c    ****     *p++ = 0;
1775:src/x509.c    ****     bits -= 8;
1776:src/x509.c    ****   };
1777:src/x509.c    **** 
1778:src/x509.c    ****   if ( bits ) {
1779:src/x509.c    ****     BYTE mask;
1780:src/x509.c    ****     mask = (0xff >> bits) & 0xff;
1781:src/x509.c    ****     /* dbg_printf("last mask %02x\n",mask); */
1782:src/x509.c    ****     *p &= mask;
1783:src/x509.c    ****   };
1784:src/x509.c    **** }
1785:src/x509.c    **** 
1786:src/x509.c    **** /* ----------------------------------------------------------------------
1787:src/x509.c    ****  * x509_mgf1_xor
1788:src/x509.c    ****  * ----------------------------------------------------------------------
1789:src/x509.c    ****  *   - calculate the MGF1(hash) noise mask and XOR the target content
1790:src/x509.c    ****  *     block.
1791:src/x509.c    ****  *   - definition of MGF1 can be found from PKCS#1 v2.1 (RFC3447).
1792:src/x509.c    ****  * ---------------------------------------------------------------------- */
1793:src/x509.c    **** static void x509_mgf1_xor(BYTE *seed,
1794:src/x509.c    ****                           int seed_len,
1795:src/x509.c    ****                           int mask_len,
1796:src/x509.c    ****                           BYTE *xor_this,
ARM GAS  C:\Users\AHMED~1.ELE\AppData\Local\Temp\ccaBET3e.s 			page 63


1797:src/x509.c    **** 			  T_HASH_OPS *p_hash_ops)
1798:src/x509.c    **** {
1799:src/x509.c    ****   BYTE cnt_buf[4];
1800:src/x509.c    ****   DWORD cnt_max, cnt;
1801:src/x509.c    ****   BYTE *d;
1802:src/x509.c    ****   int out_bytes, i;
1803:src/x509.c    **** 
1804:src/x509.c    ****   if ( p_hash_ops == NULL ||
1805:src/x509.c    ****        p_hash_ops->dgst_len == 0 ||
1806:src/x509.c    ****        p_hash_ops->p_ctx == NULL ||
1807:src/x509.c    ****        p_hash_ops->p_digest == NULL )
1808:src/x509.c    ****     return;
1809:src/x509.c    **** 
1810:src/x509.c    ****   cnt_max = mask_len / p_hash_ops->dgst_len;
1811:src/x509.c    ****   if ( mask_len % p_hash_ops->dgst_len )
1812:src/x509.c    ****     cnt_max++;
1813:src/x509.c    **** 
1814:src/x509.c    ****   d = xor_this;
1815:src/x509.c    ****   memset(cnt_buf,0,sizeof(cnt_buf));
1816:src/x509.c    **** 
1817:src/x509.c    ****   for ( cnt = 0; cnt < cnt_max; ++cnt )
1818:src/x509.c    ****   {
1819:src/x509.c    ****     p_hash_ops->init(p_hash_ops->p_ctx);
1820:src/x509.c    ****     p_hash_ops->update(p_hash_ops->p_ctx,seed,seed_len);
1821:src/x509.c    ****     p_hash_ops->update(p_hash_ops->p_ctx,cnt_buf,sizeof(cnt_buf));
1822:src/x509.c    ****     p_hash_ops->finish(p_hash_ops->p_ctx,p_hash_ops->p_digest);
1823:src/x509.c    **** 
1824:src/x509.c    ****     if ( mask_len > p_hash_ops->dgst_len )
1825:src/x509.c    ****       out_bytes = p_hash_ops->dgst_len;
1826:src/x509.c    ****     else
1827:src/x509.c    ****       out_bytes = mask_len;
1828:src/x509.c    **** 
1829:src/x509.c    ****     mask_len -= out_bytes;
1830:src/x509.c    **** 
1831:src/x509.c    ****     for ( i=0; i<out_bytes; ++i )
1832:src/x509.c    ****       *d++ ^= p_hash_ops->p_digest[i];
1833:src/x509.c    **** 
1834:src/x509.c    ****     for ( i=sizeof(cnt_buf)-1; i>=0; i-- ) {
1835:src/x509.c    ****       cnt_buf[i]++;
1836:src/x509.c    ****       if ( cnt_buf[i] != 0 )
1837:src/x509.c    **** 	break;
1838:src/x509.c    ****     };
1839:src/x509.c    ****   }
1840:src/x509.c    **** }
1841:src/x509.c    **** 
1842:src/x509.c    **** static BOOLEAN x509_verify_cert_with_PSS(T_X509_CERT_INFO *a_cert, T_KEY *a_key)
1843:src/x509.c    **** {
 1559              		.loc 1 1843 0
 1560              		.cfi_startproc
 1561              		@ args = 0, pretend = 0, frame = 440
 1562              		@ frame_needed = 0, uses_anonymous_args = 0
 1563              	.LVL175:
 1564 0000 2DE9F04F 		push	{r4, r5, r6, r7, r8, r9, r10, fp, lr}
 1565              		.cfi_def_cfa_offset 36
 1566              		.cfi_offset 4, -36
 1567              		.cfi_offset 5, -32
 1568              		.cfi_offset 6, -28
ARM GAS  C:\Users\AHMED~1.ELE\AppData\Local\Temp\ccaBET3e.s 			page 64


 1569              		.cfi_offset 7, -24
 1570              		.cfi_offset 8, -20
 1571              		.cfi_offset 9, -16
 1572              		.cfi_offset 10, -12
 1573              		.cfi_offset 11, -8
 1574              		.cfi_offset 14, -4
 1575 0004 0446     		mov	r4, r0
 1576 0006 EFB0     		sub	sp, sp, #444
 1577              		.cfi_def_cfa_offset 480
 1578              		.loc 1 1843 0
 1579 0008 0F46     		mov	r7, r1
1844:src/x509.c    ****   /* perform EMSA-PSS-VERIFY(hash,EM,modBits-1) */
1845:src/x509.c    ****   BYTE *EM    = s_x509_sign;
1846:src/x509.c    ****   int   emLen = a_cert->w_sign_len;
 1580              		.loc 1 1846 0
 1581 000a 4588     		ldrh	r5, [r0, #2]
 1582              	.LVL176:
1847:src/x509.c    ****   BYTE *mHash = a_cert->s_digest;
1848:src/x509.c    ****   int   hLen  = a_cert->w_digest_len;
 1583              		.loc 1 1848 0
 1584 000c B0F80690 		ldrh	r9, [r0, #6]
 1585              	.LVL177:
1849:src/x509.c    ****   int modBits = a_cert->w_sign_len << 3;
1850:src/x509.c    ****   int emBits = modBits - 1;
1851:src/x509.c    ****   int zBits, dbLen, zBytes;
1852:src/x509.c    ****   T_RSAPSS_PARAM *p_pss = &a_cert->s_rsapss_param;
1853:src/x509.c    ****   BYTE *H, *DB;
1854:src/x509.c    ****   BYTE *salt;
1855:src/x509.c    ****   T_HASH_OPS hash_ops;
1856:src/x509.c    ****   T_HASH_OPS_CTX hash_ctx;
1857:src/x509.c    ****   BYTE digest[K_HashOps_Digest_Max];
1858:src/x509.c    **** 
1859:src/x509.c    ****   dbg_printf("x509 verify using RSARSS-PSS padding scheme.\r\n");
1860:src/x509.c    **** 
1861:src/x509.c    ****   if ( !x509_select_hashops(&hash_ops,p_pss->d_hash_algo) )
 1586              		.loc 1 1861 0
 1587 0010 D4F87412 		ldr	r1, [r4, #628]
 1588              	.LVL178:
 1589 0014 04A8     		add	r0, sp, #16
 1590              	.LVL179:
 1591 0016 FFF7FEFF 		bl	x509_select_hashops
 1592              	.LVL180:
 1593 001a 08B9     		cbnz	r0, .L198
 1594              	.LVL181:
 1595              	.L200:
1862:src/x509.c    ****   {
1863:src/x509.c    ****     dbg_printf("x509 hash algo operations selection error.\r\n");
1864:src/x509.c    ****     return FALSE;
 1596              		.loc 1 1864 0
 1597 001c 0020     		movs	r0, #0
 1598 001e C6E0     		b	.L199
 1599              	.LVL182:
 1600              	.L198:
1865:src/x509.c    ****   }
1866:src/x509.c    **** 
1867:src/x509.c    ****   hash_ops.p_digest = digest;
 1601              		.loc 1 1867 0
ARM GAS  C:\Users\AHMED~1.ELE\AppData\Local\Temp\ccaBET3e.s 			page 65


 1602 0020 0AAB     		add	r3, sp, #40
1868:src/x509.c    ****   hash_ops.p_ctx = &hash_ctx;
1869:src/x509.c    **** 
1870:src/x509.c    ****   memset(s_x509_sign,0,sizeof(s_x509_sign));
 1603              		.loc 1 1870 0
 1604 0022 644E     		ldr	r6, .L230
1867:src/x509.c    ****   hash_ops.p_ctx = &hash_ctx;
 1605              		.loc 1 1867 0
 1606 0024 0593     		str	r3, [sp, #20]
1868:src/x509.c    ****   hash_ops.p_ctx = &hash_ctx;
 1607              		.loc 1 1868 0
 1608 0026 1AAB     		add	r3, sp, #104
 1609              		.loc 1 1870 0
 1610 0028 0021     		movs	r1, #0
 1611 002a 4FF40172 		mov	r2, #516
 1612 002e 3046     		mov	r0, r6
1868:src/x509.c    ****   hash_ops.p_ctx = &hash_ctx;
 1613              		.loc 1 1868 0
 1614 0030 0693     		str	r3, [sp, #24]
 1615              		.loc 1 1870 0
 1616 0032 FFF7FEFF 		bl	memset
 1617              	.LVL183:
1871:src/x509.c    ****   memcpy(s_x509_sign,a_cert->s_signature,a_cert->w_sign_len);
 1618              		.loc 1 1871 0
 1619 0036 04F10801 		add	r1, r4, #8
 1620 003a 6288     		ldrh	r2, [r4, #2]
 1621 003c 3046     		mov	r0, r6
 1622 003e FFF7FEFF 		bl	memcpy
 1623              	.LVL184:
1872:src/x509.c    **** 
1873:src/x509.c    ****   /* execute RSA once! */
1874:src/x509.c    ****   EXEC_RSA(s_x509_sign,a_key);  
 1624              		.loc 1 1874 0
 1625 0042 4B20     		movs	r0, #75
 1626 0044 3146     		mov	r1, r6
 1627 0046 3A46     		mov	r2, r7
 1628 0048 FFF7FEFF 		bl	sys_func2
 1629              	.LVL185:
 1630 004c D4F88032 		ldr	r3, [r4, #640]
 1631 0050 0233     		adds	r3, r3, #2
1875:src/x509.c    **** 
1876:src/x509.c    ****   /* M->mHash and hLen, as a side-effect of certificate parsing */
1877:src/x509.c    ****   if ( emLen < hLen + p_pss->d_salt_length + 2 )
 1632              		.loc 1 1877 0
 1633 0052 4B44     		add	r3, r3, r9
 1634 0054 9D42     		cmp	r5, r3
 1635 0056 E1D3     		bcc	.L200
1878:src/x509.c    ****     return FALSE;
1879:src/x509.c    **** 
1880:src/x509.c    ****   /* dbg_printf("EM (len=%d)-\n",emLen); */
1881:src/x509.c    ****   /* dbg_hexdump(EM,emLen); */
1882:src/x509.c    ****     
1883:src/x509.c    ****   /* p_pss->d_trail_field == 1 => trail_field is 0xbc */
1884:src/x509.c    ****   if ( EM[emLen-1] != 0xbc )
 1636              		.loc 1 1884 0
 1637 0058 7319     		adds	r3, r6, r5
 1638 005a 13F8013C 		ldrb	r3, [r3, #-1]	@ zero_extendqisi2
ARM GAS  C:\Users\AHMED~1.ELE\AppData\Local\Temp\ccaBET3e.s 			page 66


 1639 005e BC2B     		cmp	r3, #188
 1640 0060 DCD1     		bne	.L200
 1641              	.LVL186:
1885:src/x509.c    ****     return FALSE;
1886:src/x509.c    **** 
1887:src/x509.c    ****   DB = EM;                      /* DB's length = emLen - hLen - 1 */
1888:src/x509.c    ****   dbLen = emLen - hLen - 1;
1889:src/x509.c    ****   H = DB + dbLen;
1890:src/x509.c    **** 
1891:src/x509.c    ****   zBits = (emLen << 3) - emBits;
1892:src/x509.c    ****   if ( !x509_check_leading_zeros(DB,zBits) )
 1642              		.loc 1 1892 0
 1643 0062 0120     		movs	r0, #1
 1644 0064 FFF7FEFF 		bl	x509_check_leading_zeros.constprop.6
 1645              	.LVL187:
 1646 0068 0028     		cmp	r0, #0
 1647 006a D7D0     		beq	.L200
1888:src/x509.c    ****   H = DB + dbLen;
 1648              		.loc 1 1888 0
 1649 006c C9EB0505 		rsb	r5, r9, r5
 1650              	.LVL188:
 1651 0070 6F1E     		subs	r7, r5, #1
 1652              	.LVL189:
 1653              	.LBB26:
 1654              	.LBB27:
1805:src/x509.c    ****        p_hash_ops->p_ctx == NULL ||
 1655              		.loc 1 1805 0
 1656 0072 BDF81080 		ldrh	r8, [sp, #16]
 1657              	.LBE27:
 1658              	.LBE26:
1889:src/x509.c    **** 
 1659              		.loc 1 1889 0
 1660 0076 0097     		str	r7, [sp]
 1661 0078 3E44     		add	r6, r6, r7
 1662              	.LVL190:
 1663              	.LBB29:
 1664              	.LBB28:
1804:src/x509.c    ****        p_hash_ops->dgst_len == 0 ||
 1665              		.loc 1 1804 0
 1666 007a B8F1000F 		cmp	r8, #0
 1667 007e 56D0     		beq	.L209
1805:src/x509.c    ****        p_hash_ops->p_ctx == NULL ||
 1668              		.loc 1 1805 0
 1669 0080 069B     		ldr	r3, [sp, #24]
 1670 0082 002B     		cmp	r3, #0
 1671 0084 53D0     		beq	.L209
1806:src/x509.c    ****        p_hash_ops->p_digest == NULL )
 1672              		.loc 1 1806 0
 1673 0086 059B     		ldr	r3, [sp, #20]
 1674 0088 002B     		cmp	r3, #0
 1675 008a 50D0     		beq	.L209
1810:src/x509.c    ****   if ( mask_len % p_hash_ops->dgst_len )
 1676              		.loc 1 1810 0
 1677 008c 4146     		mov	r1, r8
 1678 008e 3846     		mov	r0, r7
 1679 0090 FFF7FEFF 		bl	__aeabi_idiv
 1680              	.LVL191:
ARM GAS  C:\Users\AHMED~1.ELE\AppData\Local\Temp\ccaBET3e.s 			page 67


1811:src/x509.c    ****     cnt_max++;
 1681              		.loc 1 1811 0
 1682 0094 4146     		mov	r1, r8
1810:src/x509.c    ****   if ( mask_len % p_hash_ops->dgst_len )
 1683              		.loc 1 1810 0
 1684 0096 8346     		mov	fp, r0
 1685              	.LVL192:
1811:src/x509.c    ****     cnt_max++;
 1686              		.loc 1 1811 0
 1687 0098 3846     		mov	r0, r7
 1688              	.LVL193:
 1689 009a FFF7FEFF 		bl	__aeabi_idivmod
 1690              	.LVL194:
 1691 009e 09B1     		cbz	r1, .L202
1812:src/x509.c    **** 
 1692              		.loc 1 1812 0
 1693 00a0 0BF1010B 		add	fp, fp, #1
 1694              	.LVL195:
 1695              	.L202:
1815:src/x509.c    **** 
 1696              		.loc 1 1815 0
 1697 00a4 0023     		movs	r3, #0
1814:src/x509.c    ****   memset(cnt_buf,0,sizeof(cnt_buf));
 1698              		.loc 1 1814 0
 1699 00a6 DFF80CA1 		ldr	r10, .L230
1817:src/x509.c    ****   {
 1700              		.loc 1 1817 0
 1701 00aa 9846     		mov	r8, r3
1815:src/x509.c    **** 
 1702              		.loc 1 1815 0
 1703 00ac 0393     		str	r3, [sp, #12]
 1704              	.LVL196:
 1705              	.L203:
1817:src/x509.c    ****   {
 1706              		.loc 1 1817 0
 1707 00ae D845     		cmp	r8, fp
 1708 00b0 3DD0     		beq	.L209
1819:src/x509.c    ****     p_hash_ops->update(p_hash_ops->p_ctx,seed,seed_len);
 1709              		.loc 1 1819 0
 1710 00b2 079B     		ldr	r3, [sp, #28]
 1711 00b4 0698     		ldr	r0, [sp, #24]
 1712 00b6 9847     		blx	r3
 1713              	.LVL197:
1820:src/x509.c    ****     p_hash_ops->update(p_hash_ops->p_ctx,cnt_buf,sizeof(cnt_buf));
 1714              		.loc 1 1820 0
 1715 00b8 089B     		ldr	r3, [sp, #32]
 1716 00ba 0698     		ldr	r0, [sp, #24]
 1717 00bc 3146     		mov	r1, r6
 1718 00be 4A46     		mov	r2, r9
 1719 00c0 9847     		blx	r3
 1720              	.LVL198:
1821:src/x509.c    ****     p_hash_ops->finish(p_hash_ops->p_ctx,p_hash_ops->p_digest);
 1721              		.loc 1 1821 0
 1722 00c2 0DF10C0C 		add	ip, sp, #12
 1723 00c6 6146     		mov	r1, ip
 1724 00c8 0422     		movs	r2, #4
 1725 00ca 089B     		ldr	r3, [sp, #32]
ARM GAS  C:\Users\AHMED~1.ELE\AppData\Local\Temp\ccaBET3e.s 			page 68


 1726 00cc 0698     		ldr	r0, [sp, #24]
 1727 00ce CDF804C0 		str	ip, [sp, #4]
 1728 00d2 9847     		blx	r3
 1729              	.LVL199:
1822:src/x509.c    **** 
 1730              		.loc 1 1822 0
 1731 00d4 099B     		ldr	r3, [sp, #36]
 1732 00d6 0599     		ldr	r1, [sp, #20]
 1733 00d8 0698     		ldr	r0, [sp, #24]
 1734 00da 9847     		blx	r3
 1735              	.LVL200:
1824:src/x509.c    ****       out_bytes = p_hash_ops->dgst_len;
 1736              		.loc 1 1824 0
 1737 00dc BDF81030 		ldrh	r3, [sp, #16]
 1738 00e0 0599     		ldr	r1, [sp, #20]
 1739 00e2 BB42     		cmp	r3, r7
 1740 00e4 A8BF     		it	ge
 1741 00e6 3B46     		movge	r3, r7
 1742              	.LVL201:
1829:src/x509.c    **** 
 1743              		.loc 1 1829 0
 1744 00e8 FF1A     		subs	r7, r7, r3
 1745              	.LVL202:
 1746 00ea 0139     		subs	r1, r1, #1
1832:src/x509.c    **** 
 1747              		.loc 1 1832 0
 1748 00ec 5246     		mov	r2, r10
 1749 00ee DDF804C0 		ldr	ip, [sp, #4]
 1750              	.LVL203:
 1751              	.L204:
 1752 00f2 CAEB0200 		rsb	r0, r10, r2
 1753              	.LVL204:
1831:src/x509.c    ****       *d++ ^= p_hash_ops->p_digest[i];
 1754              		.loc 1 1831 0
 1755 00f6 9842     		cmp	r0, r3
 1756 00f8 08DA     		bge	.L229
1832:src/x509.c    **** 
 1757              		.loc 1 1832 0
 1758 00fa 12F801EB 		ldrb	lr, [r2], #1	@ zero_extendqisi2
 1759              	.LVL205:
 1760 00fe 11F8010F 		ldrb	r0, [r1, #1]!	@ zero_extendqisi2
 1761              	.LVL206:
 1762 0102 8EEA0000 		eor	r0, lr, r0
 1763 0106 02F8010C 		strb	r0, [r2, #-1]
 1764              	.LVL207:
 1765 010a F2E7     		b	.L204
 1766              	.LVL208:
 1767              	.L229:
 1768 010c 002B     		cmp	r3, #0
 1769 010e A8BF     		it	ge
 1770 0110 9A44     		addge	r10, r10, r3
1831:src/x509.c    ****       *d++ ^= p_hash_ops->p_digest[i];
 1771              		.loc 1 1831 0
 1772 0112 0322     		movs	r2, #3
 1773              	.LVL209:
 1774              	.L207:
1835:src/x509.c    ****       if ( cnt_buf[i] != 0 )
ARM GAS  C:\Users\AHMED~1.ELE\AppData\Local\Temp\ccaBET3e.s 			page 69


 1775              		.loc 1 1835 0
 1776 0114 1CF80230 		ldrb	r3, [ip, r2]	@ zero_extendqisi2
 1777 0118 0133     		adds	r3, r3, #1
 1778 011a DBB2     		uxtb	r3, r3
 1779 011c 0CF80230 		strb	r3, [ip, r2]
1836:src/x509.c    **** 	break;
 1780              		.loc 1 1836 0
 1781 0120 13B9     		cbnz	r3, .L206
1834:src/x509.c    ****       cnt_buf[i]++;
 1782              		.loc 1 1834 0
 1783 0122 12F1FF32 		adds	r2, r2, #-1
 1784              	.LVL210:
 1785 0126 F5D2     		bcs	.L207
 1786              	.LVL211:
 1787              	.L206:
1817:src/x509.c    ****   {
 1788              		.loc 1 1817 0
 1789 0128 08F10108 		add	r8, r8, #1
 1790              	.LVL212:
 1791 012c BFE7     		b	.L203
 1792              	.LVL213:
 1793              	.L209:
 1794              	.LBE28:
 1795              	.LBE29:
 1796              	.LBB30:
 1797              	.LBB31:
1782:src/x509.c    ****   };
 1798              		.loc 1 1782 0
 1799 012e DFF88480 		ldr	r8, .L230
 1800              	.LBE31:
 1801              	.LBE30:
1893:src/x509.c    ****     return FALSE;
1894:src/x509.c    **** 
1895:src/x509.c    ****   /* dbg_printf("before masking -\n"); */
1896:src/x509.c    ****   /* dbg_hexdump(EM,emLen); */
1897:src/x509.c    **** 
1898:src/x509.c    ****   /* unmask DB against MGF1-algo mask function */
1899:src/x509.c    ****   x509_mgf1_xor(H,hLen,dbLen,DB,&hash_ops);
1900:src/x509.c    ****   x509_set_leading_zeros(DB,zBits);
1901:src/x509.c    **** 
1902:src/x509.c    ****   /* dbg_printf("demasked - (dbLen=%d)\n",dbLen); */
1903:src/x509.c    ****   /* dbg_hexdump(EM,emLen); */
1904:src/x509.c    **** 
1905:src/x509.c    ****   zBytes = emLen - hLen - p_pss->d_salt_length - 2;
 1802              		.loc 1 1905 0
 1803 0132 D4F88072 		ldr	r7, [r4, #640]
 1804              	.LBB33:
 1805              	.LBB32:
1782:src/x509.c    ****   };
 1806              		.loc 1 1782 0
 1807 0136 98F80030 		ldrb	r3, [r8]	@ zero_extendqisi2
 1808 013a 03F07F03 		and	r3, r3, #127
 1809 013e 88F80030 		strb	r3, [r8]
 1810 0142 6FF00103 		mvn	r3, #1
 1811 0146 DB1B     		subs	r3, r3, r7
 1812              	.LBE32:
 1813              	.LBE33:
ARM GAS  C:\Users\AHMED~1.ELE\AppData\Local\Temp\ccaBET3e.s 			page 70


 1814              		.loc 1 1905 0
 1815 0148 1D44     		add	r5, r5, r3
 1816              	.LVL214:
1906:src/x509.c    ****   if ( !x509_check_leading_zeros(DB,zBytes<<3) )
 1817              		.loc 1 1906 0
 1818 014a E800     		lsls	r0, r5, #3
 1819 014c FFF7FEFF 		bl	x509_check_leading_zeros.constprop.6
 1820              	.LVL215:
 1821 0150 0028     		cmp	r0, #0
 1822 0152 3FF463AF 		beq	.L200
1907:src/x509.c    ****     return FALSE;
1908:src/x509.c    **** 
1909:src/x509.c    ****   if ( DB[zBytes] != 0x01 )
 1823              		.loc 1 1909 0
 1824 0156 18F80530 		ldrb	r3, [r8, r5]	@ zero_extendqisi2
 1825 015a 012B     		cmp	r3, #1
 1826 015c 7FF45EAF 		bne	.L200
 1827              	.LVL216:
1910:src/x509.c    ****     return FALSE;
1911:src/x509.c    **** 
1912:src/x509.c    ****   salt = DB + dbLen - p_pss->d_salt_length;
1913:src/x509.c    ****   dbg_printf("x509 salt -\r\n");
1914:src/x509.c    ****   dbg_hexdump(salt,p_pss->d_salt_length);
1915:src/x509.c    **** 
1916:src/x509.c    ****   dbg_printf("x509 H -\r\n");
1917:src/x509.c    ****   dbg_hexdump(H,hLen);
1918:src/x509.c    **** 
1919:src/x509.c    ****   memset(hash_ops.p_digest,0,8);
 1828              		.loc 1 1919 0
 1829 0160 0021     		movs	r1, #0
 1830 0162 0822     		movs	r2, #8
 1831 0164 0598     		ldr	r0, [sp, #20]
 1832 0166 FFF7FEFF 		bl	memset
 1833              	.LVL217:
1920:src/x509.c    ****   hash_ops.init(hash_ops.p_ctx);
 1834              		.loc 1 1920 0
 1835 016a 079B     		ldr	r3, [sp, #28]
 1836 016c 0698     		ldr	r0, [sp, #24]
 1837 016e 9847     		blx	r3
 1838              	.LVL218:
1921:src/x509.c    ****   hash_ops.update(hash_ops.p_ctx,hash_ops.p_digest,8);
 1839              		.loc 1 1921 0
 1840 0170 089B     		ldr	r3, [sp, #32]
 1841 0172 0698     		ldr	r0, [sp, #24]
 1842 0174 0599     		ldr	r1, [sp, #20]
 1843 0176 0822     		movs	r2, #8
 1844 0178 9847     		blx	r3
 1845              	.LVL219:
1922:src/x509.c    ****   hash_ops.update(hash_ops.p_ctx,mHash,hLen);
 1846              		.loc 1 1922 0
 1847 017a 089B     		ldr	r3, [sp, #32]
 1848 017c 0698     		ldr	r0, [sp, #24]
 1849 017e 04F50D71 		add	r1, r4, #564
 1850 0182 4A46     		mov	r2, r9
 1851 0184 9847     		blx	r3
 1852              	.LVL220:
1912:src/x509.c    ****   dbg_printf("x509 salt -\r\n");
ARM GAS  C:\Users\AHMED~1.ELE\AppData\Local\Temp\ccaBET3e.s 			page 71


 1853              		.loc 1 1912 0
 1854 0186 009B     		ldr	r3, [sp]
1923:src/x509.c    ****   hash_ops.update(hash_ops.p_ctx,salt,p_pss->d_salt_length);
 1855              		.loc 1 1923 0
 1856 0188 D4F88022 		ldr	r2, [r4, #640]
1912:src/x509.c    ****   dbg_printf("x509 salt -\r\n");
 1857              		.loc 1 1912 0
 1858 018c D91B     		subs	r1, r3, r7
 1859              		.loc 1 1923 0
 1860 018e 0698     		ldr	r0, [sp, #24]
 1861 0190 089B     		ldr	r3, [sp, #32]
 1862 0192 4144     		add	r1, r1, r8
 1863 0194 9847     		blx	r3
 1864              	.LVL221:
1924:src/x509.c    ****   hash_ops.finish(hash_ops.p_ctx,hash_ops.p_digest);
 1865              		.loc 1 1924 0
 1866 0196 099B     		ldr	r3, [sp, #36]
 1867 0198 0698     		ldr	r0, [sp, #24]
 1868 019a 0599     		ldr	r1, [sp, #20]
 1869 019c 9847     		blx	r3
 1870              	.LVL222:
1925:src/x509.c    **** 
1926:src/x509.c    ****   dbg_printf("x509 H' -\r\n");
1927:src/x509.c    ****   dbg_hexdump(hash_ops.p_digest,hLen);
1928:src/x509.c    **** 
1929:src/x509.c    ****   /* dbg_printf("left most %d must be zero\n", */
1930:src/x509.c    ****   /*            emLen - hLen - p_pss->d_salt_length - 2); */
1931:src/x509.c    **** 
1932:src/x509.c    ****   if ( memcmp(hash_ops.p_digest,H,hLen) == 0 )
 1871              		.loc 1 1932 0
 1872 019e 0598     		ldr	r0, [sp, #20]
 1873 01a0 3146     		mov	r1, r6
 1874 01a2 4A46     		mov	r2, r9
 1875 01a4 FFF7FEFF 		bl	memcmp
 1876              	.LVL223:
1864:src/x509.c    ****   }
 1877              		.loc 1 1864 0
 1878 01a8 B0FA80F0 		clz	r0, r0
 1879 01ac 4009     		lsrs	r0, r0, #5
 1880              	.LVL224:
 1881              	.L199:
1933:src/x509.c    ****     return TRUE;
1934:src/x509.c    ****   else
1935:src/x509.c    ****     return FALSE;
1936:src/x509.c    **** }
 1882              		.loc 1 1936 0
 1883 01ae 6FB0     		add	sp, sp, #444
 1884              		.cfi_def_cfa_offset 36
 1885              		@ sp needed
 1886 01b0 BDE8F08F 		pop	{r4, r5, r6, r7, r8, r9, r10, fp, pc}
 1887              	.LVL225:
 1888              	.L231:
 1889              		.align	2
 1890              	.L230:
 1891 01b4 00000000 		.word	.LANCHOR0
 1892              		.cfi_endproc
 1893              	.LFE27:
ARM GAS  C:\Users\AHMED~1.ELE\AppData\Local\Temp\ccaBET3e.s 			page 72


 1894              		.size	x509_verify_cert_with_PSS, .-x509_verify_cert_with_PSS
 1895              		.section	.text.x509_verify_cert_by_key,"ax",%progbits
 1896              		.align	1
 1897              		.global	x509_verify_cert_by_key
 1898              		.thumb
 1899              		.thumb_func
 1900              		.type	x509_verify_cert_by_key, %function
 1901              	x509_verify_cert_by_key:
 1902              	.LFB29:
1937:src/x509.c    **** 
1938:src/x509.c    **** static BOOLEAN x509_verify_cert_with_PKCS1_v1_5(T_X509_CERT_INFO *a_cert,
1939:src/x509.c    ****                                                 T_KEY *a_key)
1940:src/x509.c    **** {
1941:src/x509.c    ****   int sign_len, l, algo;
1942:src/x509.c    ****   BYTE *p, *p_e;
1943:src/x509.c    ****   T_RSAPSS_PARAM pss;
1944:src/x509.c    ****   
1945:src/x509.c    ****   memset(s_x509_sign,0,sizeof(s_x509_sign));
1946:src/x509.c    ****   memcpy(s_x509_sign,a_cert->s_signature,a_cert->w_sign_len);
1947:src/x509.c    **** 
1948:src/x509.c    ****   dbg_printf("x509 verify using PKCS#1 v1.5 padding scheme.\r\n");
1949:src/x509.c    **** 
1950:src/x509.c    ****   /* execute RSA once! */
1951:src/x509.c    ****   EXEC_RSA(s_x509_sign,a_key);
1952:src/x509.c    ****   sign_len = x509_unpad_rsa(s_x509_sign,a_cert->w_sign_len);
1953:src/x509.c    ****   if ( sign_len <= 0 )
1954:src/x509.c    ****   {
1955:src/x509.c    ****     dbg_printf("x509 RSA unpack fails\r\n");
1956:src/x509.c    ****     return FALSE;
1957:src/x509.c    ****   };
1958:src/x509.c    **** 
1959:src/x509.c    ****   p = s_x509_sign;
1960:src/x509.c    ****   p_e = p + a_cert->w_sign_len;
1961:src/x509.c    ****   p = p_e - sign_len;
1962:src/x509.c    **** 
1963:src/x509.c    ****   /* dbg_printf("Digest Info location...\n"); */
1964:src/x509.c    ****   /* dbg_hexdump(p,sign_len); */
1965:src/x509.c    ****   
1966:src/x509.c    ****   if ( x509_get_sequence(&p,sign_len,&l) == 0 )
1967:src/x509.c    ****     return FALSE;
1968:src/x509.c    **** 
1969:src/x509.c    ****   if ( x509_get_algorithm_identifier(&p,(int)(p_e-p),&algo,&pss,FALSE) == 0 )
1970:src/x509.c    ****     return FALSE;
1971:src/x509.c    **** 
1972:src/x509.c    ****   if ( (*p++ != K_AsnOctetString) ||
1973:src/x509.c    ****        x509_get_asn_length(&p,(int)(p_e-p),&l) == 0 ||
1974:src/x509.c    ****        (int)(p_e-p) < l )
1975:src/x509.c    ****     return FALSE;
1976:src/x509.c    ****   
1977:src/x509.c    ****   dbg_printf("x509 last --\r\n");
1978:src/x509.c    ****   dbg_hexdump(p,(int)(p_e-p));
1979:src/x509.c    ****   
1980:src/x509.c    ****   dbg_printf("x509 cert mac --\r\n");
1981:src/x509.c    ****   dbg_hexdump(a_cert->s_digest,a_cert->w_digest_len);
1982:src/x509.c    **** 
1983:src/x509.c    ****   if ( a_cert->w_digest_len != l ||
1984:src/x509.c    ****        memcmp(p,a_cert->s_digest,l) != 0 )
ARM GAS  C:\Users\AHMED~1.ELE\AppData\Local\Temp\ccaBET3e.s 			page 73


1985:src/x509.c    ****   {
1986:src/x509.c    ****     dbg_printf("x509 digest pattern unmatched!\r\n");
1987:src/x509.c    ****     return FALSE;
1988:src/x509.c    ****   };
1989:src/x509.c    ****   
1990:src/x509.c    ****   return TRUE;
1991:src/x509.c    **** }
1992:src/x509.c    **** 
1993:src/x509.c    **** BOOLEAN x509_verify_cert_by_key(T_X509_CERT_INFO *a_cert, T_KEY *a_key)
1994:src/x509.c    **** {
 1903              		.loc 1 1994 0
 1904              		.cfi_startproc
 1905              		@ args = 0, pretend = 0, frame = 32
 1906              		@ frame_needed = 0, uses_anonymous_args = 0
 1907              	.LVL226:
1995:src/x509.c    ****   if ( a_cert->w_sign_len != a_key->d_keysize ) {
 1908              		.loc 1 1995 0
 1909 0000 4288     		ldrh	r2, [r0, #2]
1994:src/x509.c    ****   if ( a_cert->w_sign_len != a_key->d_keysize ) {
 1910              		.loc 1 1994 0
 1911 0002 70B5     		push	{r4, r5, r6, lr}
 1912              		.cfi_def_cfa_offset 16
 1913              		.cfi_offset 4, -16
 1914              		.cfi_offset 5, -12
 1915              		.cfi_offset 6, -8
 1916              		.cfi_offset 14, -4
 1917              		.loc 1 1995 0
 1918 0004 4B68     		ldr	r3, [r1, #4]
1994:src/x509.c    ****   if ( a_cert->w_sign_len != a_key->d_keysize ) {
 1919              		.loc 1 1994 0
 1920 0006 8AB0     		sub	sp, sp, #40
 1921              		.cfi_def_cfa_offset 56
 1922              		.loc 1 1995 0
 1923 0008 9A42     		cmp	r2, r3
1994:src/x509.c    ****   if ( a_cert->w_sign_len != a_key->d_keysize ) {
 1924              		.loc 1 1994 0
 1925 000a 0646     		mov	r6, r0
 1926 000c 0D46     		mov	r5, r1
 1927              		.loc 1 1995 0
 1928 000e 60D1     		bne	.L243
 1929              	.LVL227:
 1930              	.LBB40:
 1931              	.LBB41:
1996:src/x509.c    ****     dbg_printf("x509 unmatched key size...\r\n");
1997:src/x509.c    ****     return FALSE;
1998:src/x509.c    ****   };
1999:src/x509.c    ****   
2000:src/x509.c    ****   if ( a_cert->w_digest_algo_id & K_X509_AlgoId_PSS_Mask )
 1932              		.loc 1 2000 0
 1933 0010 8388     		ldrh	r3, [r0, #4]
 1934 0012 03F48073 		and	r3, r3, #256
 1935 0016 9BB2     		uxth	r3, r3
 1936 0018 13B1     		cbz	r3, .L234
2001:src/x509.c    ****     return x509_verify_cert_with_PSS(a_cert,a_key);
 1937              		.loc 1 2001 0
 1938 001a FFF7FEFF 		bl	x509_verify_cert_with_PSS
 1939              	.LVL228:
ARM GAS  C:\Users\AHMED~1.ELE\AppData\Local\Temp\ccaBET3e.s 			page 74


 1940 001e 59E0     		b	.L233
 1941              	.LVL229:
 1942              	.L234:
 1943              	.LBB42:
 1944              	.LBB43:
1945:src/x509.c    ****   memcpy(s_x509_sign,a_cert->s_signature,a_cert->w_sign_len);
 1945              		.loc 1 1945 0
 1946 0020 2D4C     		ldr	r4, .L254
 1947 0022 1946     		mov	r1, r3
 1948              	.LVL230:
 1949 0024 4FF40172 		mov	r2, #516
 1950 0028 2046     		mov	r0, r4
 1951              	.LVL231:
 1952 002a FFF7FEFF 		bl	memset
 1953              	.LVL232:
1946:src/x509.c    **** 
 1954              		.loc 1 1946 0
 1955 002e 06F10801 		add	r1, r6, #8
 1956 0032 7288     		ldrh	r2, [r6, #2]
 1957 0034 2046     		mov	r0, r4
 1958 0036 FFF7FEFF 		bl	memcpy
 1959              	.LVL233:
1951:src/x509.c    ****   sign_len = x509_unpad_rsa(s_x509_sign,a_cert->w_sign_len);
 1960              		.loc 1 1951 0
 1961 003a 2A46     		mov	r2, r5
 1962 003c 4B20     		movs	r0, #75
 1963 003e 2146     		mov	r1, r4
 1964 0040 FFF7FEFF 		bl	sys_func2
 1965              	.LVL234:
1952:src/x509.c    ****   if ( sign_len <= 0 )
 1966              		.loc 1 1952 0
 1967 0044 7588     		ldrh	r5, [r6, #2]
 1968              	.LVL235:
 1969              	.LBB44:
 1970              	.LBB45:
1464:src/x509.c    ****     return -1;
 1971              		.loc 1 1464 0
 1972 0046 2378     		ldrb	r3, [r4]	@ zero_extendqisi2
1463:src/x509.c    ****   if (*c++ != 0x00 || *c != 0x01)
 1973              		.loc 1 1463 0
 1974 0048 2544     		add	r5, r5, r4
 1975              	.LVL236:
1464:src/x509.c    ****     return -1;
 1976              		.loc 1 1464 0
 1977 004a 002B     		cmp	r3, #0
 1978 004c 41D1     		bne	.L243
 1979 004e 6378     		ldrb	r3, [r4, #1]	@ zero_extendqisi2
 1980 0050 012B     		cmp	r3, #1
 1981 0052 3ED1     		bne	.L243
 1982 0054 0234     		adds	r4, r4, #2
 1983              	.LVL237:
 1984              	.L238:
1468:src/x509.c    ****   {
 1985              		.loc 1 1468 0
 1986 0056 AC42     		cmp	r4, r5
 1987 0058 2146     		mov	r1, r4
 1988              	.LVL238:
ARM GAS  C:\Users\AHMED~1.ELE\AppData\Local\Temp\ccaBET3e.s 			page 75


 1989 005a 04D3     		bcc	.L239
 1990              	.L242:
 1991              	.LVL239:
1474:src/x509.c    **** 
 1992              		.loc 1 1474 0
 1993 005c 0131     		adds	r1, r1, #1
 1994              	.LVL240:
1476:src/x509.c    **** }
 1995              		.loc 1 1476 0
 1996 005e 691A     		subs	r1, r5, r1
 1997              	.LVL241:
 1998              	.LBE45:
 1999              	.LBE44:
1953:src/x509.c    ****   {
 2000              		.loc 1 1953 0
 2001 0060 0029     		cmp	r1, #0
 2002 0062 07DC     		bgt	.L253
 2003 0064 35E0     		b	.L243
 2004              	.LVL242:
 2005              	.L239:
 2006              	.LBB47:
 2007              	.LBB46:
1468:src/x509.c    ****   {
 2008              		.loc 1 1468 0
 2009 0066 14F8013B 		ldrb	r3, [r4], #1	@ zero_extendqisi2
 2010 006a 002B     		cmp	r3, #0
 2011 006c F6D0     		beq	.L242
1470:src/x509.c    ****       return -1;
 2012              		.loc 1 1470 0
 2013 006e FF2B     		cmp	r3, #255
 2014 0070 F1D0     		beq	.L238
 2015 0072 2EE0     		b	.L243
 2016              	.LVL243:
 2017              	.L253:
 2018              	.LBE46:
 2019              	.LBE47:
1961:src/x509.c    **** 
 2020              		.loc 1 1961 0
 2021 0074 0AAC     		add	r4, sp, #40
 2022 0076 6B1A     		subs	r3, r5, r1
1966:src/x509.c    ****     return FALSE;
 2023              		.loc 1 1966 0
 2024 0078 02AA     		add	r2, sp, #8
1961:src/x509.c    **** 
 2025              		.loc 1 1961 0
 2026 007a 44F8183D 		str	r3, [r4, #-24]!
1966:src/x509.c    ****     return FALSE;
 2027              		.loc 1 1966 0
 2028 007e 2046     		mov	r0, r4
 2029 0080 FFF7FEFF 		bl	x509_get_sequence
 2030              	.LVL244:
 2031 0084 28B3     		cbz	r0, .L243
1969:src/x509.c    ****     return FALSE;
 2032              		.loc 1 1969 0
 2033 0086 0023     		movs	r3, #0
 2034 0088 0499     		ldr	r1, [sp, #16]
 2035 008a 0093     		str	r3, [sp]
ARM GAS  C:\Users\AHMED~1.ELE\AppData\Local\Temp\ccaBET3e.s 			page 76


 2036 008c 2046     		mov	r0, r4
 2037 008e 691A     		subs	r1, r5, r1
 2038 0090 03AA     		add	r2, sp, #12
 2039 0092 05AB     		add	r3, sp, #20
 2040 0094 FFF7FEFF 		bl	x509_get_algorithm_identifier
 2041              	.LVL245:
 2042 0098 D8B1     		cbz	r0, .L243
1972:src/x509.c    ****        x509_get_asn_length(&p,(int)(p_e-p),&l) == 0 ||
 2043              		.loc 1 1972 0
 2044 009a 049B     		ldr	r3, [sp, #16]
 2045 009c 591C     		adds	r1, r3, #1
 2046 009e 0491     		str	r1, [sp, #16]
 2047 00a0 1B78     		ldrb	r3, [r3]	@ zero_extendqisi2
 2048 00a2 042B     		cmp	r3, #4
 2049 00a4 15D1     		bne	.L243
1973:src/x509.c    ****        (int)(p_e-p) < l )
 2050              		.loc 1 1973 0
 2051 00a6 2046     		mov	r0, r4
 2052 00a8 691A     		subs	r1, r5, r1
 2053 00aa 02AA     		add	r2, sp, #8
 2054 00ac FFF7FEFF 		bl	x509_get_asn_length
 2055              	.LVL246:
1972:src/x509.c    ****        x509_get_asn_length(&p,(int)(p_e-p),&l) == 0 ||
 2056              		.loc 1 1972 0
 2057 00b0 78B1     		cbz	r0, .L243
1974:src/x509.c    ****     return FALSE;
 2058              		.loc 1 1974 0
 2059 00b2 0498     		ldr	r0, [sp, #16]
 2060 00b4 029B     		ldr	r3, [sp, #8]
 2061 00b6 2D1A     		subs	r5, r5, r0
 2062              	.LVL247:
1973:src/x509.c    ****        (int)(p_e-p) < l )
 2063              		.loc 1 1973 0
 2064 00b8 9D42     		cmp	r5, r3
 2065 00ba 0ADB     		blt	.L243
1983:src/x509.c    ****        memcmp(p,a_cert->s_digest,l) != 0 )
 2066              		.loc 1 1983 0
 2067 00bc F288     		ldrh	r2, [r6, #6]
 2068 00be 9A42     		cmp	r2, r3
 2069 00c0 07D1     		bne	.L243
1984:src/x509.c    ****   {
 2070              		.loc 1 1984 0
 2071 00c2 06F50D71 		add	r1, r6, #564
 2072 00c6 FFF7FEFF 		bl	memcmp
 2073              	.LVL248:
1956:src/x509.c    ****   };
 2074              		.loc 1 1956 0
 2075 00ca B0FA80F0 		clz	r0, r0
 2076 00ce 4009     		lsrs	r0, r0, #5
 2077 00d0 00E0     		b	.L233
 2078              	.LVL249:
 2079              	.L243:
 2080              	.LBE43:
 2081              	.LBE42:
 2082              	.LBE41:
 2083              	.LBE40:
1997:src/x509.c    ****   };
ARM GAS  C:\Users\AHMED~1.ELE\AppData\Local\Temp\ccaBET3e.s 			page 77


 2084              		.loc 1 1997 0
 2085 00d2 0020     		movs	r0, #0
 2086              	.L233:
2002:src/x509.c    ****   else
2003:src/x509.c    ****     return x509_verify_cert_with_PKCS1_v1_5(a_cert,a_key);
2004:src/x509.c    **** }
 2087              		.loc 1 2004 0
 2088 00d4 0AB0     		add	sp, sp, #40
 2089              		.cfi_def_cfa_offset 16
 2090              		@ sp needed
 2091 00d6 70BD     		pop	{r4, r5, r6, pc}
 2092              	.LVL250:
 2093              	.L255:
 2094              		.align	2
 2095              	.L254:
 2096 00d8 00000000 		.word	.LANCHOR0
 2097              		.cfi_endproc
 2098              	.LFE29:
 2099              		.size	x509_verify_cert_by_key, .-x509_verify_cert_by_key
 2100              		.section	.text.x509_parse_cert,"ax",%progbits
 2101              		.align	1
 2102              		.global	x509_parse_cert
 2103              		.thumb
 2104              		.thumb_func
 2105              		.type	x509_parse_cert, %function
 2106              	x509_parse_cert:
 2107              	.LFB23:
1515:src/x509.c    ****   BYTE *p;
 2108              		.loc 1 1515 0
 2109              		.cfi_startproc
 2110              		@ args = 0, pretend = 0, frame = 520
 2111              		@ frame_needed = 0, uses_anonymous_args = 0
 2112              	.LVL251:
 2113 0000 2DE9F04F 		push	{r4, r5, r6, r7, r8, r9, r10, fp, lr}
 2114              		.cfi_def_cfa_offset 36
 2115              		.cfi_offset 4, -36
 2116              		.cfi_offset 5, -32
 2117              		.cfi_offset 6, -28
 2118              		.cfi_offset 7, -24
 2119              		.cfi_offset 8, -20
 2120              		.cfi_offset 9, -16
 2121              		.cfi_offset 10, -12
 2122              		.cfi_offset 11, -8
 2123              		.cfi_offset 14, -4
1534:src/x509.c    ****   end = p + a_size;
 2124              		.loc 1 1534 0
 2125 0004 4FF00009 		mov	r9, #0
1515:src/x509.c    ****   BYTE *p;
 2126              		.loc 1 1515 0
 2127 0008 ADF5057D 		sub	sp, sp, #532
 2128              		.cfi_def_cfa_offset 568
1515:src/x509.c    ****   BYTE *p;
 2129              		.loc 1 1515 0
 2130 000c 0646     		mov	r6, r0
 2131 000e 0D46     		mov	r5, r1
 2132 0010 1446     		mov	r4, r2
1533:src/x509.c    ****   len = 0;
ARM GAS  C:\Users\AHMED~1.ELE\AppData\Local\Temp\ccaBET3e.s 			page 78


 2133              		.loc 1 1533 0
 2134 0012 0790     		str	r0, [sp, #28]
1534:src/x509.c    ****   end = p + a_size;
 2135              		.loc 1 1534 0
 2136 0014 CDF82090 		str	r9, [sp, #32]
 2137              	.LVL252:
1538:src/x509.c    ****     return K_X509ErrGeneral;
 2138              		.loc 1 1538 0
 2139 0018 0028     		cmp	r0, #0
 2140 001a 00F06283 		beq	.L316
1538:src/x509.c    ****     return K_X509ErrGeneral;
 2141              		.loc 1 1538 0 is_stmt 0 discriminator 1
 2142 001e 0029     		cmp	r1, #0
 2143 0020 00F05F83 		beq	.L316
1538:src/x509.c    ****     return K_X509ErrGeneral;
 2144              		.loc 1 1538 0 discriminator 2
 2145 0024 002A     		cmp	r2, #0
 2146 0026 00F05C83 		beq	.L316
1541:src/x509.c    ****   memset(a_cert_info->s_issuer_dn_mac,0xff,K_X509_MacLen_Sha1);
 2147              		.loc 1 1541 0 is_stmt 1
 2148 002a 1046     		mov	r0, r2
 2149              	.LVL253:
 2150 002c 4946     		mov	r1, r9
 2151              	.LVL254:
 2152 002e 40F29442 		movw	r2, #1172
 2153              	.LVL255:
1542:src/x509.c    **** 
 2154              		.loc 1 1542 0
 2155 0032 04F50378 		add	r8, r4, #524
1541:src/x509.c    ****   memset(a_cert_info->s_issuer_dn_mac,0xff,K_X509_MacLen_Sha1);
 2156              		.loc 1 1541 0
 2157 0036 FFF7FEFF 		bl	memset
 2158              	.LVL256:
1542:src/x509.c    **** 
 2159              		.loc 1 1542 0
 2160 003a FF21     		movs	r1, #255
 2161 003c 1422     		movs	r2, #20
 2162 003e 4046     		mov	r0, r8
 2163 0040 FFF7FEFF 		bl	memset
 2164              	.LVL257:
1550:src/x509.c    ****     return K_X509ErrCertSequence;
 2165              		.loc 1 1550 0
 2166 0044 07A8     		add	r0, sp, #28
 2167 0046 2946     		mov	r1, r5
 2168 0048 08AA     		add	r2, sp, #32
 2169 004a FFF7FEFF 		bl	x509_get_sequence
 2170              	.LVL258:
 2171 004e 0028     		cmp	r0, #0
 2172 0050 00F04983 		beq	.L317
1553:src/x509.c    **** /*
 2173              		.loc 1 1553 0
 2174 0054 DDF81CA0 		ldr	r10, [sp, #28]
 2175              	.LVL259:
1535:src/x509.c    **** 
 2176              		.loc 1 1535 0
 2177 0058 3544     		add	r5, r5, r6
 2178              	.LVL260:
ARM GAS  C:\Users\AHMED~1.ELE\AppData\Local\Temp\ccaBET3e.s 			page 79


1570:src/x509.c    ****     return K_X509ErrMainSequence;
 2179              		.loc 1 1570 0
 2180 005a 07A8     		add	r0, sp, #28
 2181 005c CAEB0501 		rsb	r1, r10, r5
 2182 0060 08AA     		add	r2, sp, #32
 2183 0062 FFF7FEFF 		bl	x509_get_sequence
 2184              	.LVL261:
 2185 0066 0028     		cmp	r0, #0
 2186 0068 00F03F83 		beq	.L318
1573:src/x509.c    ****   certLen = (DWORD)(certEnd - certStart);
 2187              		.loc 1 1573 0
 2188 006c 079F     		ldr	r7, [sp, #28]
 2189 006e 089B     		ldr	r3, [sp, #32]
1579:src/x509.c    ****     return K_X509ErrExplicit;
 2190              		.loc 1 1579 0
 2191 0070 EE1B     		subs	r6, r5, r7
 2192              	.LVL262:
 2193              	.LBB68:
 2194              	.LBB69:
 573:src/x509.c    ****     return 0;
 2195              		.loc 1 573 0
 2196 0072 4E45     		cmp	r6, r9
 2197              	.LBE69:
 2198              	.LBE68:
1573:src/x509.c    ****   certLen = (DWORD)(certEnd - certStart);
 2199              		.loc 1 1573 0
 2200 0074 0293     		str	r3, [sp, #8]
 2201              	.LVL263:
 2202              	.LBB72:
 2203              	.LBB70:
 573:src/x509.c    ****     return 0;
 2204              		.loc 1 573 0
 2205 0076 01DC     		bgt	.L258
 2206              	.LVL264:
 2207              	.L261:
 2208              	.LBE70:
 2209              	.LBE72:
1580:src/x509.c    **** 
 2210              		.loc 1 1580 0
 2211 0078 0320     		movs	r0, #3
 2212 007a 45E3     		b	.L257
 2213              	.LVL265:
 2214              	.L258:
 2215              	.LBB73:
 2216              	.LBB71:
 576:src/x509.c    **** 
 2217              		.loc 1 576 0
 2218 007c 2097     		str	r7, [sp, #128]
 582:src/x509.c    ****   {
 2219              		.loc 1 582 0
 2220 007e 3B78     		ldrb	r3, [r7]	@ zero_extendqisi2
 2221              	.LVL266:
 2222 0080 A02B     		cmp	r3, #160
 2223 0082 02D0     		beq	.L260
 584:src/x509.c    ****     return -1;
 2224              		.loc 1 584 0
 2225 0084 CDF82490 		str	r9, [sp, #36]
ARM GAS  C:\Users\AHMED~1.ELE\AppData\Local\Temp\ccaBET3e.s 			page 80


 2226 0088 13E0     		b	.L420
 2227              	.L260:
 587:src/x509.c    **** 
 2228              		.loc 1 587 0
 2229 008a 7B1C     		adds	r3, r7, #1
 589:src/x509.c    ****     return 0;
 2230              		.loc 1 589 0
 2231 008c 20A8     		add	r0, sp, #128
 2232 008e 711E     		subs	r1, r6, #1
 2233 0090 30AA     		add	r2, sp, #192
 587:src/x509.c    **** 
 2234              		.loc 1 587 0
 2235 0092 2093     		str	r3, [sp, #128]
 589:src/x509.c    ****     return 0;
 2236              		.loc 1 589 0
 2237 0094 FFF7FEFF 		bl	x509_get_asn_length
 2238              	.LVL267:
 2239 0098 0028     		cmp	r0, #0
 2240 009a EDD0     		beq	.L261
 2241 009c 3099     		ldr	r1, [sp, #192]
 2242 009e 8E42     		cmp	r6, r1
 2243 00a0 EADD     		ble	.L261
 592:src/x509.c    ****     return 0;
 2244              		.loc 1 592 0
 2245 00a2 20A8     		add	r0, sp, #128
 2246 00a4 09AA     		add	r2, sp, #36
 2247              	.LVL268:
 2248 00a6 FFF7FEFF 		bl	x509_get_integer
 2249              	.LVL269:
 2250 00aa 0028     		cmp	r0, #0
 2251 00ac E4D0     		beq	.L261
 595:src/x509.c    ****   return -1;
 2252              		.loc 1 595 0
 2253 00ae 209B     		ldr	r3, [sp, #128]
 2254 00b0 0793     		str	r3, [sp, #28]
 2255              	.L420:
 2256              	.LBE71:
 2257              	.LBE73:
1585:src/x509.c    ****     return K_X509ErrSerialNum;
 2258              		.loc 1 1585 0
 2259 00b2 079B     		ldr	r3, [sp, #28]
 2260 00b4 E91A     		subs	r1, r5, r3
 2261              	.LVL270:
 2262              	.LBB74:
 2263              	.LBB75:
1017:src/x509.c    ****       x509_get_asn_length(&p,a_len-1,&vlen) == 0)
 2264              		.loc 1 1017 0
 2265 00b6 0029     		cmp	r1, #0
 2266 00b8 01DC     		bgt	.L262
 2267              	.LVL271:
 2268              	.L264:
 2269              	.LBE75:
 2270              	.LBE74:
1586:src/x509.c    **** 
 2271              		.loc 1 1586 0
 2272 00ba 0420     		movs	r0, #4
 2273 00bc 24E3     		b	.L257
ARM GAS  C:\Users\AHMED~1.ELE\AppData\Local\Temp\ccaBET3e.s 			page 81


 2274              	.LVL272:
 2275              	.L262:
 2276              	.LBB79:
 2277              	.LBB76:
1017:src/x509.c    ****       x509_get_asn_length(&p,a_len-1,&vlen) == 0)
 2278              		.loc 1 1017 0
 2279 00be 5A1C     		adds	r2, r3, #1
 2280 00c0 2092     		str	r2, [sp, #128]
 2281 00c2 1B78     		ldrb	r3, [r3]	@ zero_extendqisi2
 2282 00c4 022B     		cmp	r3, #2
 2283 00c6 F8D1     		bne	.L264
1018:src/x509.c    ****     return 0;
 2284              		.loc 1 1018 0
 2285 00c8 20A8     		add	r0, sp, #128
 2286 00ca 0139     		subs	r1, r1, #1
 2287              	.LVL273:
 2288 00cc 30AA     		add	r2, sp, #192
 2289 00ce FFF7FEFF 		bl	x509_get_asn_length
 2290              	.LVL274:
1017:src/x509.c    ****       x509_get_asn_length(&p,a_len-1,&vlen) == 0)
 2291              		.loc 1 1017 0
 2292 00d2 0028     		cmp	r0, #0
 2293 00d4 F1D0     		beq	.L264
 2294              	.LVL275:
1021:src/x509.c    ****   *a_pp = p;
 2295              		.loc 1 1021 0
 2296 00d6 309B     		ldr	r3, [sp, #192]
 2297 00d8 2099     		ldr	r1, [sp, #128]
 2298              	.LBE76:
 2299              	.LBE79:
1593:src/x509.c    ****     return K_X509ErrCertAlg;
 2300              		.loc 1 1593 0
 2301 00da 07A8     		add	r0, sp, #28
 2302              	.LVL276:
 2303              	.LBB80:
 2304              	.LBB77:
1021:src/x509.c    ****   *a_pp = p;
 2305              		.loc 1 1021 0
 2306 00dc 1944     		add	r1, r1, r3
 2307              	.LVL277:
 2308              	.LBE77:
 2309              	.LBE80:
1593:src/x509.c    ****     return K_X509ErrCertAlg;
 2310              		.loc 1 1593 0
 2311 00de 0023     		movs	r3, #0
 2312              	.LBB81:
 2313              	.LBB78:
1022:src/x509.c    ****   return -1;
 2314              		.loc 1 1022 0
 2315 00e0 0791     		str	r1, [sp, #28]
 2316              	.LBE78:
 2317              	.LBE81:
1593:src/x509.c    ****     return K_X509ErrCertAlg;
 2318              		.loc 1 1593 0
 2319 00e2 0093     		str	r3, [sp]
 2320 00e4 691A     		subs	r1, r5, r1
 2321              	.LVL278:
ARM GAS  C:\Users\AHMED~1.ELE\AppData\Local\Temp\ccaBET3e.s 			page 82


 2322 00e6 0AAA     		add	r2, sp, #40
 2323 00e8 10AB     		add	r3, sp, #64
 2324 00ea FFF7FEFF 		bl	x509_get_algorithm_identifier
 2325              	.LVL279:
 2326 00ee 0028     		cmp	r0, #0
 2327 00f0 00F0FD82 		beq	.L321
1612:src/x509.c    ****     return K_X509ErrDnAttrib;
 2328              		.loc 1 1612 0
 2329 00f4 0799     		ldr	r1, [sp, #28]
 2330 00f6 07A8     		add	r0, sp, #28
 2331              	.LVL280:
 2332 00f8 691A     		subs	r1, r5, r1
 2333 00fa 4246     		mov	r2, r8
 2334 00fc FFF7FEFF 		bl	x509_get_dn_attrib
 2335              	.LVL281:
 2336 0100 0028     		cmp	r0, #0
 2337 0102 00F0F682 		beq	.L322
1620:src/x509.c    ****     return K_X509ErrValId;
 2338              		.loc 1 1620 0
 2339 0106 079B     		ldr	r3, [sp, #28]
 2340 0108 E91A     		subs	r1, r5, r3
 2341              	.LVL282:
 2342              	.LBB82:
 2343              	.LBB83:
1302:src/x509.c    ****       x509_get_asn_length(&p,a_len-1,&seqLen)==0 || (end-p)<seqLen)
 2344              		.loc 1 1302 0
 2345 010a 0029     		cmp	r1, #0
 2346 010c 01DC     		bgt	.L265
 2347              	.LVL283:
 2348              	.L267:
 2349              	.LBE83:
 2350              	.LBE82:
1621:src/x509.c    **** 
 2351              		.loc 1 1621 0
 2352 010e 0720     		movs	r0, #7
 2353 0110 FAE2     		b	.L257
 2354              	.LVL284:
 2355              	.L265:
 2356              	.LBB87:
 2357              	.LBB84:
1302:src/x509.c    ****       x509_get_asn_length(&p,a_len-1,&seqLen)==0 || (end-p)<seqLen)
 2358              		.loc 1 1302 0
 2359 0112 5A1C     		adds	r2, r3, #1
 2360 0114 0E92     		str	r2, [sp, #56]
 2361 0116 1B78     		ldrb	r3, [r3]	@ zero_extendqisi2
 2362 0118 302B     		cmp	r3, #48
 2363 011a F8D1     		bne	.L267
1303:src/x509.c    ****     return 0;
 2364              		.loc 1 1303 0
 2365 011c 0EA8     		add	r0, sp, #56
 2366 011e 0139     		subs	r1, r1, #1
 2367              	.LVL285:
 2368 0120 0FAA     		add	r2, sp, #60
 2369 0122 FFF7FEFF 		bl	x509_get_asn_length
 2370              	.LVL286:
1302:src/x509.c    ****       x509_get_asn_length(&p,a_len-1,&seqLen)==0 || (end-p)<seqLen)
 2371              		.loc 1 1302 0
ARM GAS  C:\Users\AHMED~1.ELE\AppData\Local\Temp\ccaBET3e.s 			page 83


 2372 0126 0028     		cmp	r0, #0
 2373 0128 F1D0     		beq	.L267
1303:src/x509.c    ****     return 0;
 2374              		.loc 1 1303 0
 2375 012a 0E9B     		ldr	r3, [sp, #56]
 2376 012c 0F99     		ldr	r1, [sp, #60]
 2377 012e EA1A     		subs	r2, r5, r3
 2378 0130 8A42     		cmp	r2, r1
 2379 0132 ECDB     		blt	.L267
1308:src/x509.c    ****     return 0;
 2380              		.loc 1 1308 0
 2381 0134 002A     		cmp	r2, #0
 2382 0136 EADD     		ble	.L267
 2383 0138 1E78     		ldrb	r6, [r3]	@ zero_extendqisi2
 2384              	.LVL287:
 2385 013a A6F11702 		sub	r2, r6, #23
 2386 013e 012A     		cmp	r2, #1
 2387 0140 E5D8     		bhi	.L267
 2388              	.LVL288:
1313:src/x509.c    **** /*
 2389              		.loc 1 1313 0
 2390 0142 0133     		adds	r3, r3, #1
1317:src/x509.c    ****     return 0;
 2391              		.loc 1 1317 0
 2392 0144 0EA8     		add	r0, sp, #56
 2393 0146 15AA     		add	r2, sp, #84
1313:src/x509.c    **** /*
 2394              		.loc 1 1313 0
 2395 0148 0E93     		str	r3, [sp, #56]
1317:src/x509.c    ****     return 0;
 2396              		.loc 1 1317 0
 2397 014a FFF7FEFF 		bl	x509_get_asn_length
 2398              	.LVL289:
 2399 014e 0028     		cmp	r0, #0
 2400 0150 DDD0     		beq	.L267
 2401 0152 0E9B     		ldr	r3, [sp, #56]
 2402 0154 159A     		ldr	r2, [sp, #84]
 2403 0156 EB1A     		subs	r3, r5, r3
 2404 0158 9342     		cmp	r3, r2
 2405 015a D8DB     		blt	.L267
1321:src/x509.c    ****   currTime[14] = 0;
 2406              		.loc 1 1321 0
 2407 015c 1AA9     		add	r1, sp, #104
 2408 015e 1220     		movs	r0, #18
 2409 0160 FFF7FEFF 		bl	sys_func1
 2410              	.LVL290:
1322:src/x509.c    ****   x509_generalize_time(timeFormat, timeLen, p, notBefore);
 2411              		.loc 1 1322 0
 2412 0164 0023     		movs	r3, #0
1323:src/x509.c    ****   if (memcmp(currTime, notBefore, 14) < 0)
 2413              		.loc 1 1323 0
 2414 0166 3046     		mov	r0, r6
1322:src/x509.c    ****   x509_generalize_time(timeFormat, timeLen, p, notBefore);
 2415              		.loc 1 1322 0
 2416 0168 8DF87630 		strb	r3, [sp, #118]
1323:src/x509.c    ****   if (memcmp(currTime, notBefore, 14) < 0)
 2417              		.loc 1 1323 0
ARM GAS  C:\Users\AHMED~1.ELE\AppData\Local\Temp\ccaBET3e.s 			page 84


 2418 016c 1599     		ldr	r1, [sp, #84]
 2419 016e 0E9A     		ldr	r2, [sp, #56]
 2420 0170 20AB     		add	r3, sp, #128
 2421 0172 FFF7FEFF 		bl	x509_generalize_time
 2422              	.LVL291:
1324:src/x509.c    ****     return 0;
 2423              		.loc 1 1324 0
 2424 0176 1AA8     		add	r0, sp, #104
 2425 0178 20A9     		add	r1, sp, #128
 2426 017a 0E22     		movs	r2, #14
 2427 017c FFF7FEFF 		bl	memcmp
 2428              	.LVL292:
 2429 0180 0028     		cmp	r0, #0
 2430 0182 C4DB     		blt	.L267
1327:src/x509.c    ****   if ((end-p)<1 || ((*p!=K_AsnUtcTime) && (*p!=K_AsnGeneralizedTime)))
 2431              		.loc 1 1327 0
 2432 0184 0E99     		ldr	r1, [sp, #56]
 2433 0186 159A     		ldr	r2, [sp, #84]
 2434 0188 8B18     		adds	r3, r1, r2
1328:src/x509.c    ****     return 0;
 2435              		.loc 1 1328 0
 2436 018a E81A     		subs	r0, r5, r3
 2437 018c 0028     		cmp	r0, #0
1327:src/x509.c    ****   if ((end-p)<1 || ((*p!=K_AsnUtcTime) && (*p!=K_AsnGeneralizedTime)))
 2438              		.loc 1 1327 0
 2439 018e 0E93     		str	r3, [sp, #56]
1328:src/x509.c    ****     return 0;
 2440              		.loc 1 1328 0
 2441 0190 BDDD     		ble	.L267
 2442 0192 8E5C     		ldrb	r6, [r1, r2]	@ zero_extendqisi2
 2443              	.LVL293:
 2444 0194 A6F11701 		sub	r1, r6, #23
 2445 0198 0129     		cmp	r1, #1
 2446 019a B8D8     		bhi	.L267
 2447              	.LVL294:
1334:src/x509.c    ****     return 0;
 2448              		.loc 1 1334 0
 2449 019c 0F99     		ldr	r1, [sp, #60]
1333:src/x509.c    ****   if (x509_get_asn_length(&p,seqLen-timeLen,&timeLen)==0 || (end-p)<timeLen)
 2450              		.loc 1 1333 0
 2451 019e 0133     		adds	r3, r3, #1
1334:src/x509.c    ****     return 0;
 2452              		.loc 1 1334 0
 2453 01a0 891A     		subs	r1, r1, r2
 2454 01a2 0EA8     		add	r0, sp, #56
 2455 01a4 15AA     		add	r2, sp, #84
1333:src/x509.c    ****   if (x509_get_asn_length(&p,seqLen-timeLen,&timeLen)==0 || (end-p)<timeLen)
 2456              		.loc 1 1333 0
 2457 01a6 0E93     		str	r3, [sp, #56]
1334:src/x509.c    ****     return 0;
 2458              		.loc 1 1334 0
 2459 01a8 FFF7FEFF 		bl	x509_get_asn_length
 2460              	.LVL295:
 2461 01ac 0028     		cmp	r0, #0
 2462 01ae AED0     		beq	.L267
 2463 01b0 0E9A     		ldr	r2, [sp, #56]
 2464 01b2 1599     		ldr	r1, [sp, #84]
ARM GAS  C:\Users\AHMED~1.ELE\AppData\Local\Temp\ccaBET3e.s 			page 85


 2465 01b4 AB1A     		subs	r3, r5, r2
 2466 01b6 8B42     		cmp	r3, r1
 2467 01b8 A9DB     		blt	.L267
1337:src/x509.c    ****   if (memcmp(currTime, notAfter, 14) > 0)
 2468              		.loc 1 1337 0
 2469 01ba 3046     		mov	r0, r6
 2470 01bc 30AB     		add	r3, sp, #192
 2471 01be FFF7FEFF 		bl	x509_generalize_time
 2472              	.LVL296:
1338:src/x509.c    ****     return 0;
 2473              		.loc 1 1338 0
 2474 01c2 1AA8     		add	r0, sp, #104
 2475 01c4 30A9     		add	r1, sp, #192
 2476 01c6 0E22     		movs	r2, #14
 2477 01c8 FFF7FEFF 		bl	memcmp
 2478              	.LVL297:
 2479 01cc 0028     		cmp	r0, #0
 2480 01ce 9EDC     		bgt	.L267
 2481              	.LVL298:
1341:src/x509.c    ****   *a_pp = p;
 2482              		.loc 1 1341 0
 2483 01d0 0E99     		ldr	r1, [sp, #56]
 2484 01d2 159B     		ldr	r3, [sp, #84]
 2485              	.LBE84:
 2486              	.LBE87:
1626:src/x509.c    ****     return K_X509ErrSubDn;
 2487              		.loc 1 1626 0
 2488 01d4 04F50879 		add	r9, r4, #544
 2489              	.LBB88:
 2490              	.LBB85:
1341:src/x509.c    ****   *a_pp = p;
 2491              		.loc 1 1341 0
 2492 01d8 1944     		add	r1, r1, r3
 2493              	.LVL299:
 2494              	.LBE85:
 2495              	.LBE88:
1626:src/x509.c    ****     return K_X509ErrSubDn;
 2496              		.loc 1 1626 0
 2497 01da 07A8     		add	r0, sp, #28
 2498              	.LVL300:
 2499              	.LBB89:
 2500              	.LBB86:
1342:src/x509.c    ****   return -1;
 2501              		.loc 1 1342 0
 2502 01dc 0791     		str	r1, [sp, #28]
 2503              	.LBE86:
 2504              	.LBE89:
1626:src/x509.c    ****     return K_X509ErrSubDn;
 2505              		.loc 1 1626 0
 2506 01de 4A46     		mov	r2, r9
 2507 01e0 691A     		subs	r1, r5, r1
 2508              	.LVL301:
 2509 01e2 FFF7FEFF 		bl	x509_get_dn_attrib
 2510              	.LVL302:
 2511 01e6 0028     		cmp	r0, #0
 2512 01e8 00F08582 		beq	.L324
1634:src/x509.c    ****     return K_X509ErrPubSeq;
ARM GAS  C:\Users\AHMED~1.ELE\AppData\Local\Temp\ccaBET3e.s 			page 86


 2513              		.loc 1 1634 0
 2514 01ec 0799     		ldr	r1, [sp, #28]
 2515 01ee 07A8     		add	r0, sp, #28
 2516              	.LVL303:
 2517 01f0 691A     		subs	r1, r5, r1
 2518 01f2 08AA     		add	r2, sp, #32
 2519 01f4 FFF7FEFF 		bl	x509_get_sequence
 2520              	.LVL304:
 2521 01f8 0028     		cmp	r0, #0
 2522 01fa 00F07E82 		beq	.L325
1637:src/x509.c    ****     return K_X509ErrPubAlg;
 2523              		.loc 1 1637 0
 2524 01fe 0123     		movs	r3, #1
 2525 0200 0799     		ldr	r1, [sp, #28]
 2526 0202 0093     		str	r3, [sp]
 2527 0204 07A8     		add	r0, sp, #28
 2528              	.LVL305:
 2529 0206 691A     		subs	r1, r5, r1
 2530 0208 0BAA     		add	r2, sp, #44
 2531 020a 15AB     		add	r3, sp, #84
 2532 020c FFF7FEFF 		bl	x509_get_algorithm_identifier
 2533              	.LVL306:
 2534 0210 08B9     		cbnz	r0, .L268
 2535              	.LVL307:
 2536              	.L269:
1638:src/x509.c    ****   if ( pubKeyAlgorithm != K_OIdRsaEncryption )
 2537              		.loc 1 1638 0
 2538 0212 0A20     		movs	r0, #10
 2539 0214 78E2     		b	.L257
 2540              	.LVL308:
 2541              	.L268:
1639:src/x509.c    ****     return K_X509ErrPubAlg;
 2542              		.loc 1 1639 0
 2543 0216 0B9A     		ldr	r2, [sp, #44]
 2544 0218 A84B     		ldr	r3, .L431
 2545 021a 9A42     		cmp	r2, r3
 2546 021c F9D1     		bne	.L269
1642:src/x509.c    ****     return K_X509ErrPubKey;
 2547              		.loc 1 1642 0
 2548 021e 079A     		ldr	r2, [sp, #28]
 2549 0220 04F52273 		add	r3, r4, #648
 2550 0224 C2EB050B 		rsb	fp, r2, r5
 2551              	.LBB90:
 2552              	.LBB91:
1421:src/x509.c    ****       x509_get_asn_length(&p,a_len-1,&pubKeyLen)==0 || (a_len-1)<pubKeyLen)
 2553              		.loc 1 1421 0
 2554 0228 BBF1000F 		cmp	fp, #0
 2555              	.LBE91:
 2556              	.LBE90:
1642:src/x509.c    ****     return K_X509ErrPubKey;
 2557              		.loc 1 1642 0
 2558 022c 0393     		str	r3, [sp, #12]
 2559              	.LVL309:
 2560              	.LBB94:
 2561              	.LBB92:
1420:src/x509.c    ****   if (a_len<1 || (*(p++)!=K_AsnBitString) ||
 2562              		.loc 1 1420 0
ARM GAS  C:\Users\AHMED~1.ELE\AppData\Local\Temp\ccaBET3e.s 			page 87


 2563 022e 0DAE     		add	r6, sp, #52
 2564              	.LVL310:
1421:src/x509.c    ****       x509_get_asn_length(&p,a_len-1,&pubKeyLen)==0 || (a_len-1)<pubKeyLen)
 2565              		.loc 1 1421 0
 2566 0230 01DC     		bgt	.L270
 2567              	.LVL311:
 2568              	.L272:
 2569              	.LBE92:
 2570              	.LBE94:
1643:src/x509.c    ****   /* dbg_printf("x509 public key size = %d\r\n", */
 2571              		.loc 1 1643 0
 2572 0232 0B20     		movs	r0, #11
 2573 0234 68E2     		b	.L257
 2574              	.LVL312:
 2575              	.L270:
 2576              	.LBB95:
 2577              	.LBB93:
1421:src/x509.c    ****       x509_get_asn_length(&p,a_len-1,&pubKeyLen)==0 || (a_len-1)<pubKeyLen)
 2578              		.loc 1 1421 0
 2579 0236 511C     		adds	r1, r2, #1
 2580 0238 3160     		str	r1, [r6]
 2581 023a 1278     		ldrb	r2, [r2]	@ zero_extendqisi2
 2582 023c 032A     		cmp	r2, #3
 2583 023e F8D1     		bne	.L272
1422:src/x509.c    ****     return 0;
 2584              		.loc 1 1422 0
 2585 0240 3046     		mov	r0, r6
 2586 0242 0BF1FF31 		add	r1, fp, #-1
 2587 0246 0FAA     		add	r2, sp, #60
 2588 0248 FFF7FEFF 		bl	x509_get_asn_length
 2589              	.LVL313:
1421:src/x509.c    ****       x509_get_asn_length(&p,a_len-1,&pubKeyLen)==0 || (a_len-1)<pubKeyLen)
 2590              		.loc 1 1421 0
 2591 024c 0028     		cmp	r0, #0
 2592 024e F0D0     		beq	.L272
1422:src/x509.c    ****     return 0;
 2593              		.loc 1 1422 0
 2594 0250 0F99     		ldr	r1, [sp, #60]
 2595 0252 8B45     		cmp	fp, r1
 2596 0254 EDDD     		ble	.L272
1425:src/x509.c    **** /*
 2597              		.loc 1 1425 0
 2598 0256 3368     		ldr	r3, [r6]
 2599 0258 5A1C     		adds	r2, r3, #1
 2600 025a 3260     		str	r2, [r6]
 2601              	.LVL314:
1429:src/x509.c    ****     return 0;
 2602              		.loc 1 1429 0
 2603 025c 1B78     		ldrb	r3, [r3]	@ zero_extendqisi2
 2604              	.LVL315:
 2605 025e 002B     		cmp	r3, #0
 2606 0260 E7D1     		bne	.L272
1432:src/x509.c    **** #if 0
 2607              		.loc 1 1432 0
 2608 0262 0423     		movs	r3, #4
 2609              	.LVL316:
1438:src/x509.c    ****       x509_get_big(&p,seqLen,(BYTE*)a_pubKey->s_key,&keyLen) == 0 ||
ARM GAS  C:\Users\AHMED~1.ELE\AppData\Local\Temp\ccaBET3e.s 			page 88


 2610              		.loc 1 1438 0
 2611 0264 3046     		mov	r0, r6
1432:src/x509.c    **** #if 0
 2612              		.loc 1 1432 0
 2613 0266 3093     		str	r3, [sp, #192]
 2614              	.LVL317:
1436:src/x509.c    **** #endif
 2615              		.loc 1 1436 0
 2616 0268 4FF40073 		mov	r3, #512
1438:src/x509.c    ****       x509_get_big(&p,seqLen,(BYTE*)a_pubKey->s_key,&keyLen) == 0 ||
 2617              		.loc 1 1438 0
 2618 026c 1AAA     		add	r2, sp, #104
1436:src/x509.c    **** #endif
 2619              		.loc 1 1436 0
 2620 026e 2093     		str	r3, [sp, #128]
1438:src/x509.c    ****       x509_get_big(&p,seqLen,(BYTE*)a_pubKey->s_key,&keyLen) == 0 ||
 2621              		.loc 1 1438 0
 2622 0270 FFF7FEFF 		bl	x509_get_sequence
 2623              	.LVL318:
 2624 0274 0028     		cmp	r0, #0
 2625 0276 DCD0     		beq	.L272
1439:src/x509.c    ****       x509_get_big(&p,seqLen,(BYTE*)value,&expLen) == 0)
 2626              		.loc 1 1439 0
 2627 0278 3046     		mov	r0, r6
 2628 027a 1A99     		ldr	r1, [sp, #104]
 2629 027c 04F52472 		add	r2, r4, #656
 2630 0280 20AB     		add	r3, sp, #128
 2631 0282 FFF7FEFF 		bl	x509_get_big
 2632              	.LVL319:
1438:src/x509.c    ****       x509_get_big(&p,seqLen,(BYTE*)a_pubKey->s_key,&keyLen) == 0 ||
 2633              		.loc 1 1438 0
 2634 0286 0028     		cmp	r0, #0
 2635 0288 D3D0     		beq	.L272
1440:src/x509.c    ****     return 0;
 2636              		.loc 1 1440 0
 2637 028a 0DF1380B 		add	fp, sp, #56
 2638              	.LVL320:
 2639 028e 3046     		mov	r0, r6
 2640 0290 1A99     		ldr	r1, [sp, #104]
 2641 0292 5A46     		mov	r2, fp
 2642 0294 30AB     		add	r3, sp, #192
 2643 0296 FFF7FEFF 		bl	x509_get_big
 2644              	.LVL321:
1439:src/x509.c    ****       x509_get_big(&p,seqLen,(BYTE*)value,&expLen) == 0)
 2645              		.loc 1 1439 0
 2646 029a 0028     		cmp	r0, #0
 2647 029c C9D0     		beq	.L272
1448:src/x509.c    ****   a_pubKey->d_exponent = 0;
 2648              		.loc 1 1448 0
 2649 029e 209B     		ldr	r3, [sp, #128]
1450:src/x509.c    ****     a_pubKey->d_exponent = (a_pubKey->d_exponent<<8) | value[count];
 2650              		.loc 1 1450 0
 2651 02a0 3099     		ldr	r1, [sp, #192]
1448:src/x509.c    ****   a_pubKey->d_exponent = 0;
 2652              		.loc 1 1448 0
 2653 02a2 C4F88C32 		str	r3, [r4, #652]
1449:src/x509.c    ****   for (count=0;count<expLen;count++)
ARM GAS  C:\Users\AHMED~1.ELE\AppData\Local\Temp\ccaBET3e.s 			page 89


 2654              		.loc 1 1449 0
 2655 02a6 0023     		movs	r3, #0
 2656 02a8 C4F88832 		str	r3, [r4, #648]
 2657              	.LVL322:
 2658              	.L273:
1450:src/x509.c    ****     a_pubKey->d_exponent = (a_pubKey->d_exponent<<8) | value[count];
 2659              		.loc 1 1450 0
 2660 02ac 8B42     		cmp	r3, r1
 2661 02ae 09D0     		beq	.L428
1451:src/x509.c    **** 
 2662              		.loc 1 1451 0
 2663 02b0 1BF80300 		ldrb	r0, [fp, r3]	@ zero_extendqisi2
 2664 02b4 D4F88822 		ldr	r2, [r4, #648]
1450:src/x509.c    ****     a_pubKey->d_exponent = (a_pubKey->d_exponent<<8) | value[count];
 2665              		.loc 1 1450 0
 2666 02b8 0133     		adds	r3, r3, #1
 2667              	.LVL323:
1451:src/x509.c    **** 
 2668              		.loc 1 1451 0
 2669 02ba 40EA0222 		orr	r2, r0, r2, lsl #8
 2670 02be C4F88822 		str	r2, [r4, #648]
 2671 02c2 F3E7     		b	.L273
 2672              	.L428:
1453:src/x509.c    ****   return -1;
 2673              		.loc 1 1453 0
 2674 02c4 0D99     		ldr	r1, [sp, #52]
 2675 02c6 0791     		str	r1, [sp, #28]
 2676              	.LBE93:
 2677              	.LBE95:
1647:src/x509.c    ****     if (x509_get_implicit_bit_string(&p,(int)(end - p),K_ImplicitIssuerId) == 0 ||
 2678              		.loc 1 1647 0
 2679 02c8 0B78     		ldrb	r3, [r1]	@ zero_extendqisi2
 2680              	.LVL324:
 2681 02ca 302B     		cmp	r3, #48
 2682 02cc 06D1     		bne	.L275
 2683              	.L302:
1573:src/x509.c    ****   certLen = (DWORD)(certEnd - certStart);
 2684              		.loc 1 1573 0
 2685 02ce 029B     		ldr	r3, [sp, #8]
 2686 02d0 1F44     		add	r7, r7, r3
 2687              	.LVL325:
1653:src/x509.c    ****     return K_X509ErrCertEnd;
 2688              		.loc 1 1653 0
 2689 02d2 079B     		ldr	r3, [sp, #28]
 2690 02d4 9F42     		cmp	r7, r3
 2691 02d6 40F01282 		bne	.L327
 2692 02da 5AE1     		b	.L429
 2693              	.LVL326:
 2694              	.L275:
1648:src/x509.c    ****         x509_get_implicit_bit_string(&p,(int)(end - p),K_ImplicitSubjectId) == 0 ||
 2695              		.loc 1 1648 0
 2696 02dc 07A8     		add	r0, sp, #28
 2697              	.LVL327:
 2698 02de 691A     		subs	r1, r5, r1
 2699 02e0 0122     		movs	r2, #1
 2700 02e2 FFF7FEFF 		bl	x509_get_implicit_bit_string
 2701              	.LVL328:
ARM GAS  C:\Users\AHMED~1.ELE\AppData\Local\Temp\ccaBET3e.s 			page 90


 2702 02e6 08B9     		cbnz	r0, .L277
 2703              	.L278:
1651:src/x509.c    **** 
 2704              		.loc 1 1651 0
 2705 02e8 0C20     		movs	r0, #12
 2706 02ea 0DE2     		b	.L257
 2707              	.L277:
1649:src/x509.c    ****         x509_get_explicit_extensions(&p,(int)(end - p),K_ExplicitExtension,a_cert_info) == 0)
 2708              		.loc 1 1649 0 discriminator 1
 2709 02ec 0799     		ldr	r1, [sp, #28]
 2710 02ee 07A8     		add	r0, sp, #28
 2711              	.LVL329:
 2712 02f0 691A     		subs	r1, r5, r1
 2713 02f2 0222     		movs	r2, #2
 2714 02f4 FFF7FEFF 		bl	x509_get_implicit_bit_string
 2715              	.LVL330:
1648:src/x509.c    ****         x509_get_implicit_bit_string(&p,(int)(end - p),K_ImplicitSubjectId) == 0 ||
 2716              		.loc 1 1648 0 discriminator 1
 2717 02f8 0028     		cmp	r0, #0
 2718 02fa F5D0     		beq	.L278
1650:src/x509.c    ****       return K_X509ErrExternsion;
 2719              		.loc 1 1650 0
 2720 02fc 0799     		ldr	r1, [sp, #28]
 2721              	.LVL331:
 2722 02fe 6B1A     		subs	r3, r5, r1
 2723              	.LVL332:
 2724              	.LBB96:
 2725              	.LBB97:
 638:src/x509.c    ****   p   = *a_pp;
 2726              		.loc 1 638 0
 2727 0300 002B     		cmp	r3, #0
 2728 0302 F1DD     		ble	.L278
 639:src/x509.c    ****   end = p + a_inlen;
 2729              		.loc 1 639 0
 2730 0304 CBF80010 		str	r1, [fp]
 2731              	.LVL333:
 644:src/x509.c    ****     return -1;
 2732              		.loc 1 644 0
 2733 0308 0B78     		ldrb	r3, [r1]	@ zero_extendqisi2
 2734              	.LVL334:
 2735 030a A32B     		cmp	r3, #163
 2736 030c DFD1     		bne	.L302
 647:src/x509.c    ****   if (x509_get_asn_length(&p,(int)(end - p),&len) == 0 || (end-p) < len)
 2737              		.loc 1 647 0
 2738 030e 0131     		adds	r1, r1, #1
 2739              	.LVL335:
 648:src/x509.c    ****     return 0;
 2740              		.loc 1 648 0
 2741 0310 5846     		mov	r0, fp
 647:src/x509.c    ****   if (x509_get_asn_length(&p,(int)(end - p),&len) == 0 || (end-p) < len)
 2742              		.loc 1 647 0
 2743 0312 CBF80010 		str	r1, [fp]
 648:src/x509.c    ****     return 0;
 2744              		.loc 1 648 0
 2745 0316 0FAA     		add	r2, sp, #60
 2746 0318 691A     		subs	r1, r5, r1
 2747 031a FFF7FEFF 		bl	x509_get_asn_length
ARM GAS  C:\Users\AHMED~1.ELE\AppData\Local\Temp\ccaBET3e.s 			page 91


 2748              	.LVL336:
 2749 031e 0028     		cmp	r0, #0
 2750 0320 E2D0     		beq	.L278
 2751 0322 DBF80010 		ldr	r1, [fp]
 2752 0326 0F9B     		ldr	r3, [sp, #60]
 2753 0328 691A     		subs	r1, r5, r1
 2754 032a 9942     		cmp	r1, r3
 2755 032c DCDB     		blt	.L278
 657:src/x509.c    ****     return 0;
 2756              		.loc 1 657 0
 2757 032e 5846     		mov	r0, fp
 2758 0330 0FAA     		add	r2, sp, #60
 2759 0332 FFF7FEFF 		bl	x509_get_sequence
 2760              	.LVL337:
 2761 0336 0028     		cmp	r0, #0
 2762 0338 D6D0     		beq	.L278
 659:src/x509.c    ****   while ((p != extEnd) && *p == (K_AsnSequence|K_AsnConstructed))
 2763              		.loc 1 659 0
 2764 033a DBF80060 		ldr	r6, [fp]
 2765 033e 0F9B     		ldr	r3, [sp, #60]
 2766 0340 1E44     		add	r6, r6, r3
 2767              	.LVL338:
 2768              	.L282:
 660:src/x509.c    ****   {
 2769              		.loc 1 660 0
 2770 0342 0E99     		ldr	r1, [sp, #56]
 2771 0344 B142     		cmp	r1, r6
 2772 0346 00F02281 		beq	.L300
 2773 034a 0B78     		ldrb	r3, [r1]	@ zero_extendqisi2
 2774 034c 302B     		cmp	r3, #48
 2775 034e 40F01E81 		bne	.L300
 662:src/x509.c    ****       return 0;
 2776              		.loc 1 662 0
 2777 0352 0EA8     		add	r0, sp, #56
 2778 0354 711A     		subs	r1, r6, r1
 2779 0356 0FAA     		add	r2, sp, #60
 2780 0358 FFF7FEFF 		bl	x509_get_sequence
 2781              	.LVL339:
 2782 035c 0028     		cmp	r0, #0
 2783 035e C3D0     		beq	.L278
 674:src/x509.c    ****       return 0;
 2784              		.loc 1 674 0
 2785 0360 0E9B     		ldr	r3, [sp, #56]
 2786 0362 F21A     		subs	r2, r6, r3
 2787 0364 002A     		cmp	r2, #0
 2788 0366 BFDD     		ble	.L278
 2789 0368 591C     		adds	r1, r3, #1
 2790 036a 0E91     		str	r1, [sp, #56]
 2791 036c 1B78     		ldrb	r3, [r3]	@ zero_extendqisi2
 2792 036e 062B     		cmp	r3, #6
 2793 0370 BAD1     		bne	.L278
 2794              	.LVL340:
 678:src/x509.c    ****         (extEnd - p) < len)
 2795              		.loc 1 678 0
 2796 0372 0EA8     		add	r0, sp, #56
 2797 0374 711A     		subs	r1, r6, r1
 2798 0376 0FAA     		add	r2, sp, #60
ARM GAS  C:\Users\AHMED~1.ELE\AppData\Local\Temp\ccaBET3e.s 			page 92


 2799 0378 FFF7FEFF 		bl	x509_get_asn_length
 2800              	.LVL341:
 2801 037c 0028     		cmp	r0, #0
 2802 037e B3D0     		beq	.L278
 679:src/x509.c    ****       return 0;
 2803              		.loc 1 679 0
 2804 0380 0E9A     		ldr	r2, [sp, #56]
 2805 0382 0F9B     		ldr	r3, [sp, #60]
 2806 0384 B11A     		subs	r1, r6, r2
 678:src/x509.c    ****         (extEnd - p) < len)
 2807              		.loc 1 678 0
 2808 0386 9942     		cmp	r1, r3
 2809 0388 AEDB     		blt	.L278
 686:src/x509.c    ****     p += len;
 2810              		.loc 1 686 0
 2811 038a 1946     		mov	r1, r3
 2812 038c 1046     		mov	r0, r2
 2813 038e 0592     		str	r2, [sp, #20]
 2814 0390 0493     		str	r3, [sp, #16]
 2815 0392 FFF7FEFF 		bl	oid_to_hash_value
 2816              	.LVL342:
 687:src/x509.c    **** #endif
 2817              		.loc 1 687 0
 2818 0396 049B     		ldr	r3, [sp, #16]
 2819 0398 059A     		ldr	r2, [sp, #20]
 686:src/x509.c    ****     p += len;
 2820              		.loc 1 686 0
 2821 039a 8446     		mov	ip, r0
 2822              	.LVL343:
 687:src/x509.c    **** #endif
 2823              		.loc 1 687 0
 2824 039c D118     		adds	r1, r2, r3
 2825 039e 0E91     		str	r1, [sp, #56]
 695:src/x509.c    ****     {
 2826              		.loc 1 695 0
 2827 03a0 D35C     		ldrb	r3, [r2, r3]	@ zero_extendqisi2
 2828 03a2 012B     		cmp	r3, #1
 2829 03a4 06D1     		bne	.L283
 698:src/x509.c    ****         return 0;
 2830              		.loc 1 698 0
 2831 03a6 8B1C     		adds	r3, r1, #2
 2832 03a8 0E93     		str	r3, [sp, #56]
 2833 03aa 4B78     		ldrb	r3, [r1, #1]	@ zero_extendqisi2
 2834 03ac 012B     		cmp	r3, #1
 2835 03ae 9BD1     		bne	.L278
 700:src/x509.c    **** // syspack V1.2 9-7-2012
 2836              		.loc 1 700 0
 2837 03b0 0331     		adds	r1, r1, #3
 2838 03b2 0E91     		str	r1, [sp, #56]
 2839              	.L283:
 704:src/x509.c    ****         x509_get_asn_length(&p,(int)(extEnd - p),&len) == 0 ||
 2840              		.loc 1 704 0
 2841 03b4 0E9B     		ldr	r3, [sp, #56]
 2842 03b6 CDF810C0 		str	ip, [sp, #16]
 2843 03ba F21A     		subs	r2, r6, r3
 2844 03bc 002A     		cmp	r2, #0
 2845 03be 93DD     		ble	.L278
ARM GAS  C:\Users\AHMED~1.ELE\AppData\Local\Temp\ccaBET3e.s 			page 93


 2846 03c0 591C     		adds	r1, r3, #1
 2847 03c2 0E91     		str	r1, [sp, #56]
 2848 03c4 1B78     		ldrb	r3, [r3]	@ zero_extendqisi2
 2849 03c6 042B     		cmp	r3, #4
 2850 03c8 8ED1     		bne	.L278
 705:src/x509.c    ****         extEnd - p < len)
 2851              		.loc 1 705 0
 2852 03ca 0EA8     		add	r0, sp, #56
 2853              	.LVL344:
 2854 03cc 711A     		subs	r1, r6, r1
 2855 03ce 0FAA     		add	r2, sp, #60
 2856 03d0 FFF7FEFF 		bl	x509_get_asn_length
 2857              	.LVL345:
 704:src/x509.c    ****         x509_get_asn_length(&p,(int)(extEnd - p),&len) == 0 ||
 2858              		.loc 1 704 0
 2859 03d4 0028     		cmp	r0, #0
 2860 03d6 87D0     		beq	.L278
 706:src/x509.c    ****       return 0;
 2861              		.loc 1 706 0
 2862 03d8 0E9B     		ldr	r3, [sp, #56]
 705:src/x509.c    ****         extEnd - p < len)
 2863              		.loc 1 705 0
 2864 03da 0F9A     		ldr	r2, [sp, #60]
 706:src/x509.c    ****       return 0;
 2865              		.loc 1 706 0
 2866 03dc F11A     		subs	r1, r6, r3
 705:src/x509.c    ****         extEnd - p < len)
 2867              		.loc 1 705 0
 2868 03de 9142     		cmp	r1, r2
 2869 03e0 82DB     		blt	.L278
 709:src/x509.c    ****     {
 2870              		.loc 1 709 0
 2871 03e2 374A     		ldr	r2, .L431+4
 2872 03e4 DDF810C0 		ldr	ip, [sp, #16]
 2873 03e8 9445     		cmp	ip, r2
 2874 03ea 49D0     		beq	.L285
 2875 03ec 0232     		adds	r2, r2, #2
 2876 03ee 9445     		cmp	ip, r2
 2877 03f0 06D0     		beq	.L286
 2878 03f2 1C3A     		subs	r2, r2, #28
 2879 03f4 9445     		cmp	ip, r2
 2880 03f6 03F10101 		add	r1, r3, #1
 2881 03fa 40F0B680 		bne	.L422
 2882 03fe 61E0     		b	.L430
 2883              	.L286:
 717:src/x509.c    ****           return 0;
 2884              		.loc 1 717 0
 2885 0400 0EA8     		add	r0, sp, #56
 2886 0402 0FAA     		add	r2, sp, #60
 2887 0404 FFF7FEFF 		bl	x509_get_sequence
 2888              	.LVL346:
 2889 0408 0028     		cmp	r0, #0
 2890 040a 3FF46DAF 		beq	.L278
 730:src/x509.c    ****           break;
 2891              		.loc 1 730 0
 2892 040e 0F99     		ldr	r1, [sp, #60]
 2893 0410 0029     		cmp	r1, #0
ARM GAS  C:\Users\AHMED~1.ELE\AppData\Local\Temp\ccaBET3e.s 			page 94


 2894 0412 96D0     		beq	.L282
 2895              	.LVL347:
 2896              	.LBB98:
 2897              	.LBB99:
 297:src/x509.c    ****        x509_get_asn_length(&p,a_len-1, &blen) == 0 )
 2898              		.loc 1 297 0
 2899 0414 0229     		cmp	r1, #2
 295:src/x509.c    ****   
 2900              		.loc 1 295 0
 2901 0416 0E9B     		ldr	r3, [sp, #56]
 297:src/x509.c    ****        x509_get_asn_length(&p,a_len-1, &blen) == 0 )
 2902              		.loc 1 297 0
 2903 0418 7FF766AF 		ble	.L278
 2904 041c 5A1C     		adds	r2, r3, #1
 2905 041e 2092     		str	r2, [sp, #128]
 2906 0420 1B78     		ldrb	r3, [r3]	@ zero_extendqisi2
 2907 0422 012B     		cmp	r3, #1
 2908 0424 7FF460AF 		bne	.L278
 298:src/x509.c    ****     return 0;
 2909              		.loc 1 298 0
 2910 0428 20A8     		add	r0, sp, #128
 2911 042a 0139     		subs	r1, r1, #1
 2912              	.LVL348:
 2913 042c 30AA     		add	r2, sp, #192
 2914 042e FFF7FEFF 		bl	x509_get_asn_length
 2915              	.LVL349:
 297:src/x509.c    ****        x509_get_asn_length(&p,a_len-1, &blen) == 0 )
 2916              		.loc 1 297 0
 2917 0432 0028     		cmp	r0, #0
 2918 0434 3FF458AF 		beq	.L278
 300:src/x509.c    ****     return 0;
 2919              		.loc 1 300 0
 2920 0438 309B     		ldr	r3, [sp, #192]
 2921 043a 012B     		cmp	r3, #1
 2922 043c 7FF454AF 		bne	.L278
 303:src/x509.c    ****   *a_pp = p;
 2923              		.loc 1 303 0
 2924 0440 209A     		ldr	r2, [sp, #128]
 2925 0442 531C     		adds	r3, r2, #1
 2926 0444 2093     		str	r3, [sp, #128]
 2927              	.LVL350:
 2928 0446 1278     		ldrb	r2, [r2]	@ zero_extendqisi2
 2929              	.LVL351:
 304:src/x509.c    ****   return -1;
 2930              		.loc 1 304 0
 2931 0448 0E93     		str	r3, [sp, #56]
 2932 044a 2388     		ldrh	r3, [r4]
 2933              	.LBE99:
 2934              	.LBE98:
 735:src/x509.c    ****           a_cert_info->w_key_usage |= K_X509_KeyUsageFlag_IsCA;
 2935              		.loc 1 735 0
 2936 044c 22B1     		cbz	r2, .L290
 736:src/x509.c    ****         } else {
 2937              		.loc 1 736 0
 2938 044e 6FEA4343 		mvn	r3, r3, lsl #17
 2939 0452 6FEA5343 		mvn	r3, r3, lsr #17
 2940 0456 01E0     		b	.L427
ARM GAS  C:\Users\AHMED~1.ELE\AppData\Local\Temp\ccaBET3e.s 			page 95


 2941              	.L290:
 738:src/x509.c    ****         };
 2942              		.loc 1 738 0
 2943 0458 C3F30E03 		ubfx	r3, r3, #0, #15
 2944              	.L427:
 754:src/x509.c    ****         {
 2945              		.loc 1 754 0
 2946 045c 0E99     		ldr	r1, [sp, #56]
 738:src/x509.c    ****         };
 2947              		.loc 1 738 0
 2948 045e 2380     		strh	r3, [r4]	@ movhi
 754:src/x509.c    ****         {
 2949              		.loc 1 754 0
 2950 0460 0B78     		ldrb	r3, [r1]	@ zero_extendqisi2
 2951 0462 022B     		cmp	r3, #2
 2952 0464 08D1     		bne	.L292
 756:src/x509.c    ****             return 0;
 2953              		.loc 1 756 0
 2954 0466 0EA8     		add	r0, sp, #56
 2955 0468 711A     		subs	r1, r6, r1
 2956 046a 1AAA     		add	r2, sp, #104
 2957              	.LVL352:
 2958 046c FFF7FEFF 		bl	x509_get_integer
 2959              	.LVL353:
 2960 0470 0028     		cmp	r0, #0
 2961 0472 7FF466AF 		bne	.L282
 2962 0476 37E7     		b	.L278
 2963              	.LVL354:
 2964              	.L292:
 760:src/x509.c    ****         break;
 2965              		.loc 1 760 0
 2966 0478 4FF0FF33 		mov	r3, #-1
 2967 047c 1A93     		str	r3, [sp, #104]
 2968 047e 60E7     		b	.L282
 2969              	.LVL355:
 2970              	.L285:
 765:src/x509.c    ****           return 0;
 2971              		.loc 1 765 0
 2972 0480 0EA8     		add	r0, sp, #56
 2973 0482 0FAA     		add	r2, sp, #60
 2974 0484 FFF7FEFF 		bl	x509_get_sequence
 2975              	.LVL356:
 2976 0488 0028     		cmp	r0, #0
 2977 048a 3FF42DAF 		beq	.L278
 2978              	.L293:
 783:src/x509.c    ****         {
 2979              		.loc 1 783 0
 2980 048e 0F99     		ldr	r1, [sp, #60]
 2981 0490 0029     		cmp	r1, #0
 2982 0492 7FF756AF 		ble	.L282
 785:src/x509.c    ****           {
 2983              		.loc 1 785 0
 2984 0496 0E9A     		ldr	r2, [sp, #56]
 2985 0498 1346     		mov	r3, r2
 2986 049a 13F8020B 		ldrb	r0, [r3], #2	@ zero_extendqisi2
 811:src/x509.c    ****                 if (extEnd - p < tmpLen)
 2987              		.loc 1 811 0
ARM GAS  C:\Users\AHMED~1.ELE\AppData\Local\Temp\ccaBET3e.s 			page 96


 2988 049e 0E93     		str	r3, [sp, #56]
 2989 04a0 5278     		ldrb	r2, [r2, #1]	@ zero_extendqisi2
 2990              	.LVL357:
 812:src/x509.c    ****                   return 0;
 2991              		.loc 1 812 0
 2992 04a2 F31A     		subs	r3, r6, r3
 2993 04a4 9342     		cmp	r3, r2
 2994 04a6 FFF61FAF 		blt	.L278
 815:src/x509.c    ****           len -= tmpLen + 2; /* the magic 2 is the type and length */
 2995              		.loc 1 815 0
 2996 04aa 0E9B     		ldr	r3, [sp, #56]
 2997 04ac 1344     		add	r3, r3, r2
 2998 04ae 0E93     		str	r3, [sp, #56]
 816:src/x509.c    ****         }
 2999              		.loc 1 816 0
 3000 04b0 6FF00103 		mvn	r3, #1
 3001 04b4 9B1A     		subs	r3, r3, r2
 3002 04b6 1944     		add	r1, r1, r3
 3003 04b8 0F91     		str	r1, [sp, #60]
 3004 04ba E8E7     		b	.L293
 3005              	.L432:
 3006              		.align	2
 3007              	.L431:
 3008 04bc FC7E758B 		.word	-1955234052
 3009 04c0 9CF1870B 		.word	193458588
 3010              	.LVL358:
 3011              	.L430:
 917:src/x509.c    ****           return 0;
 3012              		.loc 1 917 0
 3013 04c4 0E91     		str	r1, [sp, #56]
 3014 04c6 1B78     		ldrb	r3, [r3]	@ zero_extendqisi2
 3015 04c8 032B     		cmp	r3, #3
 3016 04ca 7FF40DAF 		bne	.L278
 919:src/x509.c    ****             extEnd - p < len)
 3017              		.loc 1 919 0
 3018 04ce 0EA8     		add	r0, sp, #56
 3019 04d0 711A     		subs	r1, r6, r1
 3020 04d2 0FAA     		add	r2, sp, #60
 3021 04d4 FFF7FEFF 		bl	x509_get_asn_length
 3022              	.LVL359:
 3023 04d8 0028     		cmp	r0, #0
 3024 04da 3FF405AF 		beq	.L278
 920:src/x509.c    ****           return 0;
 3025              		.loc 1 920 0
 3026 04de DDF838E0 		ldr	lr, [sp, #56]
 3027 04e2 0F98     		ldr	r0, [sp, #60]
 3028 04e4 CEEB0603 		rsb	r3, lr, r6
 919:src/x509.c    ****             extEnd - p < len)
 3029              		.loc 1 919 0
 3030 04e8 8342     		cmp	r3, r0
 3031 04ea FFF6FDAE 		blt	.L278
 923:src/x509.c    ****         {
 3032              		.loc 1 923 0
 3033 04ee 0028     		cmp	r0, #0
 3034 04f0 7FF7FAAE 		ble	.L278
 3035              	.LVL360:
 3036              	.LBB100:
ARM GAS  C:\Users\AHMED~1.ELE\AppData\Local\Temp\ccaBET3e.s 			page 97


 953:src/x509.c    ****             return 0;           /* initial byte must be within 0 to 7 */
 3037              		.loc 1 953 0
 3038 04f4 9EF80030 		ldrb	r3, [lr]	@ zero_extendqisi2
 3039 04f8 072B     		cmp	r3, #7
 3040 04fa 3FF6F5AE 		bhi	.L278
 955:src/x509.c    ****             d_usage |= p[1] << 24;
 3041              		.loc 1 955 0
 3042 04fe 0128     		cmp	r0, #1
 3043 0500 0AD0     		beq	.L332
 956:src/x509.c    ****           if ( len > 2 )
 3044              		.loc 1 956 0
 3045 0502 9EF80130 		ldrb	r3, [lr, #1]	@ zero_extendqisi2
 957:src/x509.c    ****             d_usage |= p[2] << 16;
 3046              		.loc 1 957 0
 3047 0506 0228     		cmp	r0, #2
 956:src/x509.c    ****           if ( len > 2 )
 3048              		.loc 1 956 0
 3049 0508 4FEA0363 		lsl	r3, r3, #24
 3050              	.LVL361:
 957:src/x509.c    ****             d_usage |= p[2] << 16;
 3051              		.loc 1 957 0
 3052 050c 05D0     		beq	.L299
 958:src/x509.c    ****           /* do a 16-bits reversal */
 3053              		.loc 1 958 0
 3054 050e 9EF80220 		ldrb	r2, [lr, #2]	@ zero_extendqisi2
 3055 0512 43EA0243 		orr	r3, r3, r2, lsl #16
 3056              	.LVL362:
 3057 0516 00E0     		b	.L299
 3058              	.LVL363:
 3059              	.L332:
 935:src/x509.c    ****           
 3060              		.loc 1 935 0
 3061 0518 0023     		movs	r3, #0
 3062              	.LVL364:
 3063              	.L299:
 3064              	.LBB101:
 3065              	.LBB102:
 229:src/x509.c    ****   x = (((x & 0xcccccccc) >> 2) | ((x & 0x33333333) << 2));
 3066              		.loc 1 229 0
 3067 051a 03F05531 		and	r1, r3, #1431655765
 3068 051e 03F0AA33 		and	r3, r3, #-1431655766
 3069              	.LVL365:
 3070              	.LBE102:
 3071              	.LBE101:
 3072              	.LBE100:
 965:src/x509.c    ****         break;
 3073              		.loc 1 965 0
 3074 0522 7044     		add	r0, r0, lr
 3075              	.LBB109:
 3076              	.LBB106:
 3077              	.LBB103:
 229:src/x509.c    ****   x = (((x & 0xcccccccc) >> 2) | ((x & 0x33333333) << 2));
 3078              		.loc 1 229 0
 3079 0524 5B08     		lsrs	r3, r3, #1
 3080 0526 43EA4101 		orr	r1, r3, r1, lsl #1
 3081              	.LVL366:
 230:src/x509.c    ****   x = (((x & 0xf0f0f0f0) >> 4) | ((x & 0x0f0f0f0f) << 4));
ARM GAS  C:\Users\AHMED~1.ELE\AppData\Local\Temp\ccaBET3e.s 			page 98


 3082              		.loc 1 230 0
 3083 052a 01F0CC32 		and	r2, r1, #-858993460
 3084 052e 01F03331 		and	r1, r1, #858993459
 3085              	.LVL367:
 3086              	.LBE103:
 3087              	.LBE106:
 3088              	.LBE109:
 965:src/x509.c    ****         break;
 3089              		.loc 1 965 0
 3090 0532 0E90     		str	r0, [sp, #56]
 3091              	.LBB110:
 3092              	.LBB107:
 3093              	.LBB104:
 230:src/x509.c    ****   x = (((x & 0xf0f0f0f0) >> 4) | ((x & 0x0f0f0f0f) << 4));
 3094              		.loc 1 230 0
 3095 0534 8900     		lsls	r1, r1, #2
 3096 0536 41EA9202 		orr	r2, r1, r2, lsr #2
 3097              	.LVL368:
 231:src/x509.c    ****   x = (((x & 0xff00ff00) >> 8) | ((x & 0x00ff00ff) << 8));
 3098              		.loc 1 231 0
 3099 053a 02F0F033 		and	r3, r2, #-252645136
 3100 053e 02F00F32 		and	r2, r2, #252645135
 3101              	.LVL369:
 3102 0542 1201     		lsls	r2, r2, #4
 3103 0544 42EA1313 		orr	r3, r2, r3, lsr #4
 3104              	.LVL370:
 232:src/x509.c    ****   return((x >> 16) | (x << 16));
 3105              		.loc 1 232 0
 3106 0548 03F0FF2C 		and	ip, r3, #-16711936
 3107 054c 1A02     		lsls	r2, r3, #8
 3108              	.LVL371:
 3109              	.LBE104:
 3110              	.LBE107:
 961:src/x509.c    ****           a_cert_info->w_key_usage |= d_usage & 0x1FF;
 3111              		.loc 1 961 0
 3112 054e 2388     		ldrh	r3, [r4]
 3113 0550 23F4FF73 		bic	r3, r3, #510
 3114 0554 23F00103 		bic	r3, r3, #1
 3115 0558 43F40051 		orr	r1, r3, #8192
 3116              	.LBB108:
 3117              	.LBB105:
 232:src/x509.c    ****   return((x >> 16) | (x << 16));
 3118              		.loc 1 232 0
 3119 055c 42EA1C23 		orr	r3, r2, ip, lsr #8
 3120              	.LVL372:
 3121              	.LBE105:
 3122              	.LBE108:
 962:src/x509.c    ****           a_cert_info->w_key_usage |= K_X509_KeyUsageFlag_HasKeyUsage;
 3123              		.loc 1 962 0
 3124 0560 C3F30843 		ubfx	r3, r3, #16, #9
 3125              	.LVL373:
 963:src/x509.c    ****         };
 3126              		.loc 1 963 0
 3127 0564 0B43     		orrs	r3, r3, r1
 3128 0566 2380     		strh	r3, [r4]	@ movhi
 3129 0568 EBE6     		b	.L282
 3130              	.LVL374:
ARM GAS  C:\Users\AHMED~1.ELE\AppData\Local\Temp\ccaBET3e.s 			page 99


 3131              	.L422:
 3132              	.LBE110:
 998:src/x509.c    ****         if (x509_get_asn_length(&p,(int)(extEnd - p),&len) == 0 ||
 3133              		.loc 1 998 0
 3134 056a 0E91     		str	r1, [sp, #56]
 999:src/x509.c    ****             extEnd - p < len)
 3135              		.loc 1 999 0
 3136 056c 0EA8     		add	r0, sp, #56
 3137 056e 711A     		subs	r1, r6, r1
 3138 0570 0FAA     		add	r2, sp, #60
 3139 0572 FFF7FEFF 		bl	x509_get_asn_length
 3140              	.LVL375:
 3141 0576 0028     		cmp	r0, #0
 3142 0578 3FF4B6AE 		beq	.L278
1000:src/x509.c    ****           return 0;
 3143              		.loc 1 1000 0
 3144 057c 0E9A     		ldr	r2, [sp, #56]
 3145 057e 0F9B     		ldr	r3, [sp, #60]
 3146 0580 B11A     		subs	r1, r6, r2
 999:src/x509.c    ****             extEnd - p < len)
 3147              		.loc 1 999 0
 3148 0582 9942     		cmp	r1, r3
 3149 0584 FFF6B0AE 		blt	.L278
1002:src/x509.c    ****         break;
 3150              		.loc 1 1002 0
 3151 0588 1344     		add	r3, r3, r2
 3152 058a 0E93     		str	r3, [sp, #56]
 3153 058c D9E6     		b	.L282
 3154              	.LVL376:
 3155              	.L300:
1006:src/x509.c    ****   return -1;
 3156              		.loc 1 1006 0
 3157 058e 0791     		str	r1, [sp, #28]
 3158 0590 9DE6     		b	.L302
 3159              	.LVL377:
 3160              	.L429:
 3161              	.LBE97:
 3162              	.LBE96:
1656:src/x509.c    ****     return K_X509ErrSigAlg;
 3163              		.loc 1 1656 0
 3164 0592 0023     		movs	r3, #0
 3165 0594 07A8     		add	r0, sp, #28
 3166              	.LVL378:
 3167 0596 0093     		str	r3, [sp]
 3168 0598 E91B     		subs	r1, r5, r7
 3169 059a 0CAA     		add	r2, sp, #48
 3170 059c 15AB     		add	r3, sp, #84
 3171 059e FFF7FEFF 		bl	x509_get_algorithm_identifier
 3172              	.LVL379:
 3173 05a2 0028     		cmp	r0, #0
 3174 05a4 00F0AD80 		beq	.L333
1659:src/x509.c    ****     return K_X509ErrSigUnmatch;
 3175              		.loc 1 1659 0
 3176 05a8 0A9E     		ldr	r6, [sp, #40]
 3177 05aa 0C9B     		ldr	r3, [sp, #48]
 3178 05ac 9E42     		cmp	r6, r3
 3179 05ae 40F0AA80 		bne	.L335
ARM GAS  C:\Users\AHMED~1.ELE\AppData\Local\Temp\ccaBET3e.s 			page 100


1662:src/x509.c    ****        !x509_rsapss_param_identical(&certAlgorithm_pss_param,
 3180              		.loc 1 1662 0
 3181 05b2 574B     		ldr	r3, .L433
 3182 05b4 9E42     		cmp	r6, r3
 3183 05b6 07D1     		bne	.L303
 3184              	.LVL380:
 3185              	.LBB111:
 3186              	.LBB112:
1032:src/x509.c    **** }
 3187              		.loc 1 1032 0
 3188 05b8 10A8     		add	r0, sp, #64
 3189              	.LVL381:
 3190 05ba 15A9     		add	r1, sp, #84
 3191              	.LVL382:
 3192 05bc 1422     		movs	r2, #20
 3193 05be FFF7FEFF 		bl	memcmp
 3194              	.LVL383:
 3195              	.LBE112:
 3196              	.LBE111:
1662:src/x509.c    ****        !x509_rsapss_param_identical(&certAlgorithm_pss_param,
 3197              		.loc 1 1662 0
 3198 05c2 0028     		cmp	r0, #0
 3199 05c4 40F09F80 		bne	.L335
 3200              	.LVL384:
 3201              	.L303:
1667:src/x509.c    ****   if ( (certDigestAlgo = certAlgorithm) == K_OIdRsaPSS )
 3202              		.loc 1 1667 0
 3203 05c8 0021     		movs	r1, #0
 3204 05ca 20A8     		add	r0, sp, #128
 3205 05cc 4022     		movs	r2, #64
 3206 05ce FFF7FEFF 		bl	memset
 3207              	.LVL385:
1668:src/x509.c    ****     certDigestAlgo = certAlgorithm_pss_param.d_hash_algo;
 3208              		.loc 1 1668 0
 3209 05d2 4F4B     		ldr	r3, .L433
 3210 05d4 3146     		mov	r1, r6
 3211              	.LVL386:
 3212 05d6 9E42     		cmp	r6, r3
 3213              	.LVL387:
1671:src/x509.c    ****     return K_X509ErrPubAlg;
 3214              		.loc 1 1671 0
 3215 05d8 1AA8     		add	r0, sp, #104
1669:src/x509.c    **** 
 3216              		.loc 1 1669 0
 3217 05da 08BF     		it	eq
 3218 05dc 1099     		ldreq	r1, [sp, #64]
 3219              	.LVL388:
1671:src/x509.c    ****     return K_X509ErrPubAlg;
 3220              		.loc 1 1671 0
 3221 05de FFF7FEFF 		bl	x509_select_hashops
 3222              	.LVL389:
 3223 05e2 0028     		cmp	r0, #0
 3224 05e4 3FF415AE 		beq	.L269
1674:src/x509.c    ****   hash_ops.update(&hash_ctx,certStart,certLen);
 3225              		.loc 1 1674 0
 3226 05e8 1D9B     		ldr	r3, [sp, #116]
 3227 05ea 30A8     		add	r0, sp, #192
ARM GAS  C:\Users\AHMED~1.ELE\AppData\Local\Temp\ccaBET3e.s 			page 101


 3228 05ec 9847     		blx	r3
