ARM GAS  C:\Users\AHMED~1.ELE\AppData\Local\Temp\ccaBET3e.s 			page 1


   1              		.syntax unified
   2              		.cpu cortex-a5
   3              		.fpu softvfp
   4              		.eabi_attribute 20, 1
   5              		.eabi_attribute 21, 1
   6              		.eabi_attribute 23, 3
   7              		.eabi_attribute 24, 1
   8              		.eabi_attribute 25, 1
   9              		.eabi_attribute 26, 1
  10              		.eabi_attribute 30, 4
  11              		.eabi_attribute 34, 0
  12              		.eabi_attribute 18, 4
  13              		.thumb
  14              		.file	"x509.c"
  15              		.text
  16              	.Ltext0:
  17              		.cfi_sections	.debug_frame
  18              		.section	.text.oid_to_hash_value,"ax",%progbits
  19              		.align	1
  20              		.thumb
  21              		.thumb_func
  22              		.type	oid_to_hash_value, %function
  23              	oid_to_hash_value:
  24              	.LFB0:
  25              		.file 1 "src/x509.c"
   1:src/x509.c    **** /*
   2:src/x509.c    **** ************************************
   3:src/x509.c    **** *       Module : x509.c            *
   4:src/x509.c    **** *       Name   : TF                *
   5:src/x509.c    **** *       Date   : 31-01-2013        *
   6:src/x509.c    **** ************************************
   7:src/x509.c    **** */
   8:src/x509.c    **** /*==========================================================================*/
   9:src/x509.c    **** /* Naming conventions                                                       */
  10:src/x509.c    **** /* ~~~~~~~~~~~~~~~~~~                                                       */
  11:src/x509.c    **** /*         Class define : Leading C                                         */
  12:src/x509.c    **** /*        Struct define : Leading T                                         */
  13:src/x509.c    **** /*               Struct : Leading s                                         */
  14:src/x509.c    **** /*               Class  : Leading c                                         */
  15:src/x509.c    **** /*             Constant : Leading K                                         */
  16:src/x509.c    **** /*      Global Variable : Leading g                                         */
  17:src/x509.c    **** /*    Function argument : Leading a                                         */
  18:src/x509.c    **** /*       Local Variable : All lower case                                    */
  19:src/x509.c    **** /*            Byte size : Leading b                                         */
  20:src/x509.c    **** /*            Word size : Leading w                                         */
  21:src/x509.c    **** /*           Dword size : Leading d                                         */
  22:src/x509.c    **** /*              Pointer : Leading p                                         */
  23:src/x509.c    **** /*==========================================================================*/
  24:src/x509.c    **** 
  25:src/x509.c    **** /* ----------------------------------------------------------------------
  26:src/x509.c    ****  * Revision History
  27:src/x509.c    ****  * ----------------------------------------------------------------------
  28:src/x509.c    ****  * 22 Jan 2015 - Kong
  29:src/x509.c    ****  *   1. remove certificate verification code from x509_parse_cert().
  30:src/x509.c    ****  *   2. add x509_verify_cert_by_key() and x509_verify_cert_by_cert()
  31:src/x509.c    ****  *      for certificate verficiation against system injected CA public
  32:src/x509.c    ****  *      key and its signer CA for chained certification scenario.
ARM GAS  C:\Users\AHMED~1.ELE\AppData\Local\Temp\ccaBET3e.s 			page 2


  33:src/x509.c    ****  *   3. re-enable parsing BasicConstraint and KeyUsage extension info.
  34:src/x509.c    ****  *   4. add support of RSASSA-PSS signature padding scheme.
  35:src/x509.c    ****  *   5. add support of the following signature algorithm,
  36:src/x509.c    ****  *      a. sha224WithRSAEncryption,
  37:src/x509.c    ****  *      b. sha256WithRSAEncryption,
  38:src/x509.c    ****  *      c. sha384WithRSAEncryption, and
  39:src/x509.c    ****  *      d, sha512WithRSAEncryption.
  40:src/x509.c    ****  *   6. return BasicConstraint::CA boolean result for classification of
  41:src/x509.c    ****  *      the subject being a CA.
  42:src/x509.c    ****  *   7. return SHA1 digest of subject and isser distinguished name info
  43:src/x509.c    ****  *      for chained certificate verification and self-signed certificate
  44:src/x509.c    ****  *      recognition.
  45:src/x509.c    ****  *
  46:src/x509.c    ****  * 16 Feb 2015 - Kong
  47:src/x509.c    ****  *   1. Release server's certificate public key length constrain to 4096
  48:src/x509.c    ****  *      since RSA routine implemented in system can support public key
  49:src/x509.c    ****  *      lenght up to 4096 bits.
  50:src/x509.c    ****  * ---------------------------------------------------------------------- */
  51:src/x509.c    **** 
  52:src/x509.c    **** #include <string.h>
  53:src/x509.c    **** #include "system.h"
  54:src/x509.c    **** #include "x509.h"
  55:src/x509.c    **** #include "hashops.h"
  56:src/x509.c    **** 
  57:src/x509.c    **** /* #define KONG_DEBUG_X509_MODULE */
  58:src/x509.c    **** 
  59:src/x509.c    **** #if defined(KONG_DEBUG_X509_MODULE)
  60:src/x509.c    **** #include "ssl_tls_utils.h"
  61:src/x509.c    **** #endif
  62:src/x509.c    **** 
  63:src/x509.c    **** #if defined(KONG_DEBUG_X509_MODULE)
  64:src/x509.c    **** #define THIS_DBG_LVL   4
  65:src/x509.c    **** #define dbg_printf(...)      SslTlsUtils_TraceLog_Printf(THIS_DBG_LVL,__VA_ARGS__)
  66:src/x509.c    **** #define dbg_hexvect(v,l)     SslTlsUtils_TraceLog_Hexvect(THIS_DBG_LVL,(v),(l))
  67:src/x509.c    **** #define dbg_hexdump(v,l)     SslTlsUtils_TraceLog_Hexdump(THIS_DBG_LVL,(v),(l))
  68:src/x509.c    **** #define dbg_println()        SslTlsUtils_TraceLog_Printf(THIS_DBG_LVL,"\r\n")
  69:src/x509.c    **** #else
  70:src/x509.c    **** #define dbg_printf(...)      do {} while (0)
  71:src/x509.c    **** #define dbg_hexvect(v,l)     do {} while (0)
  72:src/x509.c    **** #define dbg_hexdump(v,l)     do {} while (0)
  73:src/x509.c    **** #define dbg_println()        do {} while (0)
  74:src/x509.c    **** #endif
  75:src/x509.c    **** 
  76:src/x509.c    **** /* MACROS to wrap key routines based on platform difference */
  77:src/x509.c    **** #define EXEC_RSA(x,y)             os_rsa((x),(y))
  78:src/x509.c    **** #define EXEC_SHA1_INIT(x)         os_sha1_init((x))
  79:src/x509.c    **** #define EXEC_SHA1_UPDATE(x,y,z)   os_sha1_process((x),(y),(z))
  80:src/x509.c    **** #define EXEC_SHA1_FINISH(x,y)     os_sha1_finish((x),(y))
  81:src/x509.c    **** #define EXEC_RTC_GET(x)           os_rtc_get((x))
  82:src/x509.c    **** 
  83:src/x509.c    **** 
  84:src/x509.c    **** /* Kong: we are interested in keyUsage extension info */
  85:src/x509.c    **** #define USE_FULL_CERT_PARSE
  86:src/x509.c    **** /* #define USE_FULL_CERT_PARSE_AUTHKEYID */
  87:src/x509.c    **** #define USE_FULL_CERT_PARSE_KEYUSAGE
  88:src/x509.c    **** /* #define USE_FULL_CERT_PARSE_SUBJKEYID */
  89:src/x509.c    **** 
ARM GAS  C:\Users\AHMED~1.ELE\AppData\Local\Temp\ccaBET3e.s 			page 3


  90:src/x509.c    **** #define USE_OID_HASH_TYPE   1   /* use new OID string hash function */
  91:src/x509.c    **** //#define USE_OID_HASH_TYPE   0   /* use old OID string hash function */
  92:src/x509.c    **** 
  93:src/x509.c    **** #define K_AsnPrimitive            0x00
  94:src/x509.c    **** #define K_AsnConstructed          0x20
  95:src/x509.c    **** 
  96:src/x509.c    **** #define K_AsnUniversal            0x00
  97:src/x509.c    **** #define K_AsnApplication          0x40
  98:src/x509.c    **** #define K_AsnContextSpecific      0x80
  99:src/x509.c    **** #define K_AsnPrivate              0xC0
 100:src/x509.c    **** 
 101:src/x509.c    **** #define K_AsnBoolean              1
 102:src/x509.c    **** #define K_AsnInteger              2
 103:src/x509.c    **** #define K_AsnBitString            3
 104:src/x509.c    **** #define K_AsnOctetString          4
 105:src/x509.c    **** #define K_AsnNull                 5
 106:src/x509.c    **** #define K_AsnOId                  6
 107:src/x509.c    **** #define K_AsnUtf8String           12
 108:src/x509.c    **** #define K_AsnSequence             16
 109:src/x509.c    **** #define K_AsnSet                  17
 110:src/x509.c    **** #define K_AsnPrintableString      19
 111:src/x509.c    **** #define K_AsnT61String            20
 112:src/x509.c    **** #define K_AsnIa5String            22
 113:src/x509.c    **** #define K_AsnUtcTime              23
 114:src/x509.c    **** #define K_AsnGeneralizedTime      24
 115:src/x509.c    **** 
 116:src/x509.c    **** #define K_AttribCountryName       6
 117:src/x509.c    **** #define K_AttribLocality          7
 118:src/x509.c    **** #define K_AttribOrganization      10
 119:src/x509.c    **** #define K_AttribOrgUnit           11
 120:src/x509.c    **** #define K_AttribDnQualifier       46
 121:src/x509.c    **** #define K_AttribStateProvince     8
 122:src/x509.c    **** #define K_AttribCommonName        3
 123:src/x509.c    **** // syspack V1.2 9-7-2012
 124:src/x509.c    **** #define K_AttribSerialNumber      5
 125:src/x509.c    **** 
 126:src/x509.c    **** #define K_ImplicitIssuerId        1
 127:src/x509.c    **** #define K_ImplicitSubjectId       2
 128:src/x509.c    **** #define K_ExplicitExtension       3
 129:src/x509.c    **** 
 130:src/x509.c    **** //#define K_OIdExtCertPolicies         146
 131:src/x509.c    **** //#define K_OIdExtBasicConstraints     133
 132:src/x509.c    **** //#define K_OIdExtAuthKeyId            149
 133:src/x509.c    **** //#define K_OIdExtKeyUsage             129
 134:src/x509.c    **** //#define K_OIdExtAltSubjectName       131
 135:src/x509.c    **** //#define K_OIdExtAltIssuerName        132
 136:src/x509.c    **** //#define K_OIdExtSubjKeyId            128
 137:src/x509.c    **** 
 138:src/x509.c    **** #if defined(USE_OID_HASH_TYPE) && (USE_OID_HASH_TYPE == 1)
 139:src/x509.c    **** 
 140:src/x509.c    **** /* OID string hash value using new general string hash function */
 141:src/x509.c    **** 
 142:src/x509.c    **** #define K_OIdExtBasicConstraints  0x0b87f19e
 143:src/x509.c    **** #define K_OIdExtAuthKeyId         0x0b87f1ae
 144:src/x509.c    **** #define K_OIdExtKeyUsage          0x0b87f182
 145:src/x509.c    **** #define K_OIdExtSubjKeyId         0x0b87f183
 146:src/x509.c    **** #define K_OIdExtAltSubjectName    0x0b87f19c
ARM GAS  C:\Users\AHMED~1.ELE\AppData\Local\Temp\ccaBET3e.s 			page 4


 147:src/x509.c    **** 
 148:src/x509.c    **** #define K_OIdRsaEncryption        0x8b757efc
 149:src/x509.c    **** #define K_OIdRsaMd2               0x8b757eff
 150:src/x509.c    **** #define K_OIdRsaMd5               0x8b757ef9
 151:src/x509.c    **** #define K_OIdRsaSha1              0x8b757ef8
 152:src/x509.c    **** #define K_OIdRsaSha224            0x8b757ef3
 153:src/x509.c    **** #define K_OIdRsaSha256            0x8b757ef6
 154:src/x509.c    **** #define K_OIdRsaSha384            0x8b757ef1
 155:src/x509.c    **** #define K_OIdRsaSha512            0x8b757ef0
 156:src/x509.c    **** #define K_OIdRsaPSS               0x8b757ef7
 157:src/x509.c    **** #define K_OIdMgf1                 0x8b757ef5
 158:src/x509.c    **** 
 159:src/x509.c    **** #define K_OIdMd2                  0x691313bd
 160:src/x509.c    **** #define K_OIdMd5                  0x691313ba
 161:src/x509.c    **** #define K_OIdSha1                 0x06572bdb
 162:src/x509.c    **** #define K_OIdSha224               0xf39ad36e
 163:src/x509.c    **** #define K_OIdSha256               0xf39ad36b
 164:src/x509.c    **** #define K_OIdSha384               0xf39ad368
 165:src/x509.c    **** #define K_OIdSha512               0xf39ad369
 166:src/x509.c    **** 
 167:src/x509.c    **** #else
 168:src/x509.c    **** 
 169:src/x509.c    **** /* OID hash values using simple addition as hash function */
 170:src/x509.c    **** 
 171:src/x509.c    **** #define K_OIdExtBasicConstraints  133
 172:src/x509.c    **** #define K_OIdExtAuthKeyId         149
 173:src/x509.c    **** #define K_OIdExtKeyUsage          129
 174:src/x509.c    **** #define K_OIdExtSubjKeyId         128
 175:src/x509.c    **** #define K_OIdExtAltSubjectName    131
 176:src/x509.c    **** 
 177:src/x509.c    **** #define K_OIdRsaEncryption        645
 178:src/x509.c    **** #define K_OIdRsaMd2               646
 179:src/x509.c    **** #define K_OIdRsaMd5               648
 180:src/x509.c    **** #define K_OIdRsaSha1              649
 181:src/x509.c    **** #define K_OIdRsaSha224            658
 182:src/x509.c    **** #define K_OIdRsaSha256            655
 183:src/x509.c    **** #define K_OIdRsaSha384            656
 184:src/x509.c    **** #define K_OIdRsaSha512            657
 185:src/x509.c    **** #define K_OIdRsaPSS               654
 186:src/x509.c    **** 
 187:src/x509.c    **** #define K_OIdMgf1                 652
 188:src/x509.c    **** 
 189:src/x509.c    **** #define K_OIdMd2                  646
 190:src/x509.c    **** #define K_OIdMd5                  649
 191:src/x509.c    **** #define K_OIdSha1                 88
 192:src/x509.c    **** #define K_OIdSha224               417
 193:src/x509.c    **** #define K_OIdSha256               414
 194:src/x509.c    **** #define K_OIdSha384               415
 195:src/x509.c    **** #define K_OIdSha512               416
 196:src/x509.c    **** 
 197:src/x509.c    **** #endif
 198:src/x509.c    **** 
 199:src/x509.c    **** /* static T_KEY            s_x509_cakey; */
 200:src/x509.c    **** 
 201:src/x509.c    **** static BYTE             s_x509_sign[K_X509_CertSignMaxSize];
 202:src/x509.c    **** 
 203:src/x509.c    **** #if defined(USE_OID_HASH_TYPE) && (USE_OID_HASH_TYPE == 1)
ARM GAS  C:\Users\AHMED~1.ELE\AppData\Local\Temp\ccaBET3e.s 			page 5


 204:src/x509.c    **** static DWORD oid_to_hash_value(BYTE *p, int len)
 205:src/x509.c    **** {
  26              		.loc 1 205 0
  27              		.cfi_startproc
  28              		@ args = 0, pretend = 0, frame = 0
  29              		@ frame_needed = 0, uses_anonymous_args = 0
  30              	.LVL0:
 206:src/x509.c    ****   DWORD hash = 5381;
 207:src/x509.c    ****   int i;
 208:src/x509.c    **** 
 209:src/x509.c    ****   for ( i=0; i<len; ++i, ++p ) {
  31              		.loc 1 209 0
  32 0000 0246     		mov	r2, r0
 205:src/x509.c    ****   DWORD hash = 5381;
  33              		.loc 1 205 0
  34 0002 10B5     		push	{r4, lr}
  35              		.cfi_def_cfa_offset 8
  36              		.cfi_offset 4, -8
  37              		.cfi_offset 14, -4
 206:src/x509.c    ****   DWORD hash = 5381;
  38              		.loc 1 206 0
  39 0004 41F20553 		movw	r3, #5381
  40              	.LVL1:
  41              	.L2:
  42 0008 141A     		subs	r4, r2, r0
  43              	.LVL2:
  44              		.loc 1 209 0 discriminator 1
  45 000a 8C42     		cmp	r4, r1
  46 000c 05DA     		bge	.L5
 210:src/x509.c    ****     hash = (hash * 33) ^ (*p);
  47              		.loc 1 210 0 discriminator 3
  48 000e 2124     		movs	r4, #33
  49              	.LVL3:
  50 0010 6343     		muls	r3, r4, r3
  51              	.LVL4:
  52 0012 12F8014B 		ldrb	r4, [r2], #1	@ zero_extendqisi2
  53              	.LVL5:
  54 0016 6340     		eors	r3, r3, r4
  55              	.LVL6:
  56 0018 F6E7     		b	.L2
  57              	.LVL7:
  58              	.L5:
 211:src/x509.c    ****   };
 212:src/x509.c    ****   return hash;
 213:src/x509.c    **** }
  59              		.loc 1 213 0
  60 001a 1846     		mov	r0, r3
  61 001c 10BD     		pop	{r4, pc}
  62              		.cfi_endproc
  63              	.LFE0:
  64              		.size	oid_to_hash_value, .-oid_to_hash_value
  65              		.section	.text.x509_get_asn_length,"ax",%progbits
  66              		.align	1
  67              		.thumb
  68              		.thumb_func
  69              		.type	x509_get_asn_length, %function
  70              	x509_get_asn_length:
ARM GAS  C:\Users\AHMED~1.ELE\AppData\Local\Temp\ccaBET3e.s 			page 6


  71              	.LFB2:
 214:src/x509.c    **** #else
 215:src/x509.c    **** static DWORD oid_to_hash_value(BYTE *p, int len)
 216:src/x509.c    **** {
 217:src/x509.c    ****   DWORD hash = 0;
 218:src/x509.c    ****   int i;
 219:src/x509.c    **** 
 220:src/x509.c    ****   for ( i=0; i<len; ++i, ++p ) {
 221:src/x509.c    ****     hash += *p;
 222:src/x509.c    ****   };
 223:src/x509.c    ****   return hash;
 224:src/x509.c    **** }
 225:src/x509.c    **** #endif
 226:src/x509.c    **** 
 227:src/x509.c    **** static DWORD x509_bit_reverse(DWORD x)
 228:src/x509.c    **** {
 229:src/x509.c    ****   x = (((x & 0xaaaaaaaa) >> 1) | ((x & 0x55555555) << 1));
 230:src/x509.c    ****   x = (((x & 0xcccccccc) >> 2) | ((x & 0x33333333) << 2));
 231:src/x509.c    ****   x = (((x & 0xf0f0f0f0) >> 4) | ((x & 0x0f0f0f0f) << 4));
 232:src/x509.c    ****   x = (((x & 0xff00ff00) >> 8) | ((x & 0x00ff00ff) << 8));
 233:src/x509.c    ****   return((x >> 16) | (x << 16));
 234:src/x509.c    **** }
 235:src/x509.c    **** 
 236:src/x509.c    **** /*---------------------------------------------------------------------*/
 237:src/x509.c    **** static int x509_get_asn_length(BYTE ** a_p,DWORD a_size,int * a_valLen)
 238:src/x509.c    **** {
  72              		.loc 1 238 0
  73              		.cfi_startproc
  74              		@ args = 0, pretend = 0, frame = 0
  75              		@ frame_needed = 0, uses_anonymous_args = 0
  76              	.LVL8:
 239:src/x509.c    ****   BYTE  *c, *end;
 240:src/x509.c    ****   int   len, olen;
 241:src/x509.c    **** 
 242:src/x509.c    ****   c = *a_p;
 243:src/x509.c    ****   end = c + a_size;
 244:src/x509.c    ****   if (end - c < 1)
  77              		.loc 1 244 0
  78 0000 0029     		cmp	r1, #0
 238:src/x509.c    ****   BYTE  *c, *end;
  79              		.loc 1 238 0
  80 0002 F0B5     		push	{r4, r5, r6, r7, lr}
  81              		.cfi_def_cfa_offset 20
  82              		.cfi_offset 4, -20
  83              		.cfi_offset 5, -16
  84              		.cfi_offset 6, -12
  85              		.cfi_offset 7, -8
  86              		.cfi_offset 14, -4
 242:src/x509.c    ****   end = c + a_size;
  87              		.loc 1 242 0
  88 0004 0668     		ldr	r6, [r0]
  89              	.LVL9:
  90              		.loc 1 244 0
  91 0006 26DD     		ble	.L15
 245:src/x509.c    ****     return 0;
 246:src/x509.c    **** 
 247:src/x509.c    ****   /*
ARM GAS  C:\Users\AHMED~1.ELE\AppData\Local\Temp\ccaBET3e.s 			page 7


 248:src/x509.c    ****     If the length byte has high bit only set, it's an indefinite length
 249:src/x509.c    ****     We don't support this!
 250:src/x509.c    ****   */
 251:src/x509.c    ****   if (*c == 0x80)
  92              		.loc 1 251 0
  93 0008 3778     		ldrb	r7, [r6]	@ zero_extendqisi2
  94 000a 802F     		cmp	r7, #128
  95 000c 03D1     		bne	.L8
 252:src/x509.c    ****   {
 253:src/x509.c    ****     *a_valLen = -1;
  96              		.loc 1 253 0
  97 000e 4FF0FF33 		mov	r3, #-1
  98 0012 1360     		str	r3, [r2]
  99 0014 1FE0     		b	.L15
 100              	.L8:
 254:src/x509.c    ****     return 0;
 255:src/x509.c    ****   }
 256:src/x509.c    ****   /*
 257:src/x509.c    ****     If the high bit is set, the lower 7 bits represent the number of
 258:src/x509.c    ****     bytes that follow and represent length
 259:src/x509.c    ****     If the high bit is not set, the lower 7 represent the actual length
 260:src/x509.c    ****   */
 261:src/x509.c    ****   len = *c & 0x7F;
 101              		.loc 1 261 0
 102 0016 07F07F05 		and	r5, r7, #127
 262:src/x509.c    ****   if ((*(c++) & 0x80) != 0)
 103              		.loc 1 262 0
 104 001a 3F06     		lsls	r7, r7, #24
 261:src/x509.c    ****   if ((*(c++) & 0x80) != 0)
 105              		.loc 1 261 0
 106 001c 2B46     		mov	r3, r5
 107              	.LVL10:
 108              		.loc 1 262 0
 109 001e 06F10104 		add	r4, r6, #1
 110              	.LVL11:
 111 0022 13D5     		bpl	.L9
 263:src/x509.c    ****   {
 264:src/x509.c    ****     /*
 265:src/x509.c    ****       Make sure there aren't more than 4 bytes of length specifier,
 266:src/x509.c    ****       and that we have that many bytes left in the buffer
 267:src/x509.c    ****     */
 268:src/x509.c    ****     if (len > 4 || len == 0x7f || (end - c) < len)
 112              		.loc 1 268 0
 113 0024 042D     		cmp	r5, #4
 114 0026 16D8     		bhi	.L15
 243:src/x509.c    ****   if (end - c < 1)
 115              		.loc 1 243 0 discriminator 1
 116 0028 3144     		add	r1, r1, r6
 117              	.LVL12:
 118              		.loc 1 268 0 discriminator 1
 119 002a 091B     		subs	r1, r1, r4
 120 002c A942     		cmp	r1, r5
 121 002e 12DB     		blt	.L15
 122 0030 2646     		mov	r6, r4
 123              		.loc 1 268 0 is_stmt 0
 124 0032 0021     		movs	r1, #0
 125              	.LVL13:
ARM GAS  C:\Users\AHMED~1.ELE\AppData\Local\Temp\ccaBET3e.s 			page 8


 126              	.L10:
 269:src/x509.c    ****       return 0;
 270:src/x509.c    **** 
 271:src/x509.c    ****     olen = 0;
 272:src/x509.c    ****     while (len > 0)
 127              		.loc 1 272 0 is_stmt 1
 128 0034 2BB1     		cbz	r3, .L16
 273:src/x509.c    ****     {
 274:src/x509.c    ****       olen = (olen << 8) | *c;
 129              		.loc 1 274 0
 130 0036 16F8017B 		ldrb	r7, [r6], #1	@ zero_extendqisi2
 131              	.LVL14:
 275:src/x509.c    ****       c++; len--;
 132              		.loc 1 275 0
 133 003a 013B     		subs	r3, r3, #1
 134              	.LVL15:
 274:src/x509.c    ****       c++; len--;
 135              		.loc 1 274 0
 136 003c 47EA0121 		orr	r1, r7, r1, lsl #8
 137              	.LVL16:
 138 0040 F8E7     		b	.L10
 139              	.L16:
 276:src/x509.c    ****     }
 277:src/x509.c    ****     if (olen < 0 || olen > 0x7FFFFF)
 140              		.loc 1 277 0
 141 0042 B1F5000F 		cmp	r1, #8388608
 142 0046 0B46     		mov	r3, r1
 143              	.LVL17:
 144 0048 2C44     		add	r4, r4, r5
 145 004a 04D2     		bcs	.L15
 146              	.LVL18:
 147              	.L9:
 278:src/x509.c    ****     {
 279:src/x509.c    ****       return 0;
 280:src/x509.c    ****     }
 281:src/x509.c    ****     len = olen;
 282:src/x509.c    ****   }
 283:src/x509.c    **** 
 284:src/x509.c    ****   *a_p = c;
 148              		.loc 1 284 0
 149 004c 0460     		str	r4, [r0]
 285:src/x509.c    ****   *a_valLen = len;
 150              		.loc 1 285 0
 151 004e 1360     		str	r3, [r2]
 286:src/x509.c    ****   return -1;
 152              		.loc 1 286 0
 153 0050 4FF0FF30 		mov	r0, #-1
 154              	.LVL19:
 155 0054 F0BD     		pop	{r4, r5, r6, r7, pc}
 156              	.LVL20:
 157              	.L15:
 245:src/x509.c    **** 
 158              		.loc 1 245 0
 159 0056 0020     		movs	r0, #0
 160              	.LVL21:
 287:src/x509.c    **** }
 161              		.loc 1 287 0
ARM GAS  C:\Users\AHMED~1.ELE\AppData\Local\Temp\ccaBET3e.s 			page 9


 162 0058 F0BD     		pop	{r4, r5, r6, r7, pc}
 163              		.cfi_endproc
 164              	.LFE2:
 165              		.size	x509_get_asn_length, .-x509_get_asn_length
 166              		.section	.text.x509_get_integer,"ax",%progbits
 167              		.align	1
 168              		.thumb
 169              		.thumb_func
 170              		.type	x509_get_integer, %function
 171              	x509_get_integer:
 172              	.LFB4:
 288:src/x509.c    **** 
 289:src/x509.c    **** /*---------------------------------------------------------------------*/
 290:src/x509.c    **** static int x509_get_boolean(BYTE **a_pp, int a_len, int *a_bool)
 291:src/x509.c    **** {
 292:src/x509.c    ****   BYTE *p;
 293:src/x509.c    ****   int blen;
 294:src/x509.c    **** 
 295:src/x509.c    ****   p = *a_pp;
 296:src/x509.c    ****   
 297:src/x509.c    ****   if ( a_len < 3 || *(p++) != K_AsnBoolean ||
 298:src/x509.c    ****        x509_get_asn_length(&p,a_len-1, &blen) == 0 )
 299:src/x509.c    ****     return 0;
 300:src/x509.c    ****   if ( blen != 1 )
 301:src/x509.c    ****     return 0;
 302:src/x509.c    **** 
 303:src/x509.c    ****   *a_bool = *p++;
 304:src/x509.c    ****   *a_pp = p;
 305:src/x509.c    ****   return -1;
 306:src/x509.c    **** }
 307:src/x509.c    **** 
 308:src/x509.c    **** /*---------------------------------------------------------------------*/
 309:src/x509.c    **** static int x509_get_integer(BYTE ** a_pp,int a_len,int * a_val)
 310:src/x509.c    **** {
 173              		.loc 1 310 0
 174              		.cfi_startproc
 175              		@ args = 0, pretend = 0, frame = 8
 176              		@ frame_needed = 0, uses_anonymous_args = 0
 177              	.LVL22:
 178 0000 F7B5     		push	{r0, r1, r2, r4, r5, r6, r7, lr}
 179              		.cfi_def_cfa_offset 32
 180              		.cfi_offset 4, -20
 181              		.cfi_offset 5, -16
 182              		.cfi_offset 6, -12
 183              		.cfi_offset 7, -8
 184              		.cfi_offset 14, -4
 311:src/x509.c    ****   BYTE  *p, *end;
 312:src/x509.c    ****   DWORD ui;
 313:src/x509.c    ****   int   vlen;
 314:src/x509.c    **** 
 315:src/x509.c    ****   p = *a_pp;
 316:src/x509.c    ****   end = p + a_len;
 317:src/x509.c    ****   if (a_len < 1 || *(p++) != K_AsnInteger ||
 185              		.loc 1 317 0
 186 0002 0C1E     		subs	r4, r1, #0
 310:src/x509.c    ****   BYTE  *p, *end;
 187              		.loc 1 310 0
ARM GAS  C:\Users\AHMED~1.ELE\AppData\Local\Temp\ccaBET3e.s 			page 10


 188 0004 0546     		mov	r5, r0
 189 0006 1646     		mov	r6, r2
 315:src/x509.c    ****   end = p + a_len;
 190              		.loc 1 315 0
 191 0008 0768     		ldr	r7, [r0]
 192              	.LVL23:
 193              		.loc 1 317 0
 194 000a 01DC     		bgt	.L18
 195              	.LVL24:
 196              	.L20:
 318:src/x509.c    ****       x509_get_asn_length(&p, a_len - 1, &vlen) == 0)
 319:src/x509.c    ****     return 0;
 197              		.loc 1 319 0
 198 000c 0020     		movs	r0, #0
 199 000e 3AE0     		b	.L19
 200              	.LVL25:
 201              	.L18:
 317:src/x509.c    ****       x509_get_asn_length(&p, a_len - 1, &vlen) == 0)
 202              		.loc 1 317 0 discriminator 1
 203 0010 7B1C     		adds	r3, r7, #1
 204 0012 0093     		str	r3, [sp]
 205 0014 3B78     		ldrb	r3, [r7]	@ zero_extendqisi2
 206 0016 022B     		cmp	r3, #2
 207 0018 F8D1     		bne	.L20
 318:src/x509.c    ****       x509_get_asn_length(&p, a_len - 1, &vlen) == 0)
 208              		.loc 1 318 0 discriminator 2
 209 001a 6846     		mov	r0, sp
 210              	.LVL26:
 211 001c 611E     		subs	r1, r4, #1
 212              	.LVL27:
 213 001e 01AA     		add	r2, sp, #4
 214              	.LVL28:
 215 0020 FFF7FEFF 		bl	x509_get_asn_length
 216              	.LVL29:
 317:src/x509.c    ****       x509_get_asn_length(&p, a_len - 1, &vlen) == 0)
 217              		.loc 1 317 0 discriminator 2
 218 0024 0028     		cmp	r0, #0
 219 0026 F1D0     		beq	.L20
 320:src/x509.c    **** 
 321:src/x509.c    ****   /*
 322:src/x509.c    ****     This check prevents us from having a big positive integer where the
 323:src/x509.c    ****     high bit is set because it will be encoded as 5 bytes (with leading
 324:src/x509.c    ****     blank byte).  If that is required, a getUnsigned routine should be used
 325:src/x509.c    ****   */
 326:src/x509.c    ****   if (vlen > sizeof(int) || end - p < vlen)
 220              		.loc 1 326 0
 221 0028 019A     		ldr	r2, [sp, #4]
 222 002a 042A     		cmp	r2, #4
 223 002c EED8     		bhi	.L20
 224              		.loc 1 326 0 is_stmt 0 discriminator 1
 225 002e 009B     		ldr	r3, [sp]
 316:src/x509.c    ****   if (a_len < 1 || *(p++) != K_AsnInteger ||
 226              		.loc 1 316 0 is_stmt 1 discriminator 1
 227 0030 3C44     		add	r4, r4, r7
 228              	.LVL30:
 229              		.loc 1 326 0 discriminator 1
 230 0032 E41A     		subs	r4, r4, r3
ARM GAS  C:\Users\AHMED~1.ELE\AppData\Local\Temp\ccaBET3e.s 			page 11


 231 0034 9442     		cmp	r4, r2
 232 0036 E9DB     		blt	.L20
 233              	.LVL31:
 327:src/x509.c    ****     return 0;
 328:src/x509.c    **** 
 329:src/x509.c    ****   ui = 0;
 330:src/x509.c    ****   /*
 331:src/x509.c    ****     If high bit is set, it's a negative integer, so perform the two's compliment
 332:src/x509.c    ****     Otherwise do a standard big endian read (most likely case for RSA)
 333:src/x509.c    ****   */
 334:src/x509.c    ****   if (*p & 0x80)
 234              		.loc 1 334 0
 235 0038 93F90030 		ldrsb	r3, [r3]
 236 003c 002B     		cmp	r3, #0
 237 003e 4FF00003 		mov	r3, #0
 238 0042 0FDA     		bge	.L22
 239              	.LVL32:
 240              	.L21:
 335:src/x509.c    ****   {
 336:src/x509.c    ****     while (vlen-- > 0)
 241              		.loc 1 336 0
 242 0044 019A     		ldr	r2, [sp, #4]
 243 0046 511E     		subs	r1, r2, #1
 244 0048 002A     		cmp	r2, #0
 245 004a 0191     		str	r1, [sp, #4]
 246 004c 08DD     		ble	.L31
 337:src/x509.c    ****     {
 338:src/x509.c    ****       ui = (ui << 8) | (*p ^ 0xFF);
 247              		.loc 1 338 0
 248 004e 0099     		ldr	r1, [sp]
 249 0050 11F8012B 		ldrb	r2, [r1], #1	@ zero_extendqisi2
 250 0054 D243     		mvns	r2, r2
 339:src/x509.c    ****       p++;
 251              		.loc 1 339 0
 252 0056 0091     		str	r1, [sp]
 338:src/x509.c    ****       p++;
 253              		.loc 1 338 0
 254 0058 D2B2     		uxtb	r2, r2
 255 005a 42EA0323 		orr	r3, r2, r3, lsl #8
 256              	.LVL33:
 257 005e F1E7     		b	.L21
 258              	.L31:
 340:src/x509.c    ****     }
 341:src/x509.c    ****     vlen = (int)ui;
 342:src/x509.c    ****     vlen++;
 343:src/x509.c    ****     vlen = -vlen;
 259              		.loc 1 343 0
 260 0060 DB43     		mvns	r3, r3
 261              	.LVL34:
 262 0062 0BE0     		b	.L30
 263              	.LVL35:
 264              	.L22:
 344:src/x509.c    ****     *a_val = vlen;
 345:src/x509.c    ****   }
 346:src/x509.c    ****   else
 347:src/x509.c    ****   {
 348:src/x509.c    ****     while (vlen-- > 0)
ARM GAS  C:\Users\AHMED~1.ELE\AppData\Local\Temp\ccaBET3e.s 			page 12


 265              		.loc 1 348 0
 266 0064 019A     		ldr	r2, [sp, #4]
 267 0066 511E     		subs	r1, r2, #1
 268 0068 002A     		cmp	r2, #0
 269 006a 0191     		str	r1, [sp, #4]
 270 006c 06DD     		ble	.L30
 349:src/x509.c    ****     {
 350:src/x509.c    ****       ui = (ui << 8) | *p;
 271              		.loc 1 350 0
 272 006e 009A     		ldr	r2, [sp]
 273 0070 12F8011B 		ldrb	r1, [r2], #1	@ zero_extendqisi2
 274 0074 41EA0323 		orr	r3, r1, r3, lsl #8
 275              	.LVL36:
 351:src/x509.c    ****       p++;
 276              		.loc 1 351 0
 277 0078 0092     		str	r2, [sp]
 278 007a F3E7     		b	.L22
 279              	.LVL37:
 280              	.L30:
 352:src/x509.c    ****     }
 353:src/x509.c    ****     *a_val = (int)ui;
 281              		.loc 1 353 0
 282 007c 3360     		str	r3, [r6]
 354:src/x509.c    ****   }
 355:src/x509.c    ****   *a_pp = p;
 356:src/x509.c    ****   return -1;
 283              		.loc 1 356 0
 284 007e 4FF0FF30 		mov	r0, #-1
 355:src/x509.c    ****   return -1;
 285              		.loc 1 355 0
 286 0082 009B     		ldr	r3, [sp]
 287 0084 2B60     		str	r3, [r5]
 288              	.L19:
 357:src/x509.c    **** }
 289              		.loc 1 357 0
 290 0086 03B0     		add	sp, sp, #12
 291              		.cfi_def_cfa_offset 20
 292              		@ sp needed
 293 0088 F0BD     		pop	{r4, r5, r6, r7, pc}
 294              		.cfi_endproc
 295              	.LFE4:
 296              		.size	x509_get_integer, .-x509_get_integer
 297              		.section	.text.x509_get_sequence,"ax",%progbits
 298              		.align	1
 299              		.thumb
 300              		.thumb_func
 301              		.type	x509_get_sequence, %function
 302              	x509_get_sequence:
 303              	.LFB6:
 358:src/x509.c    **** 
 359:src/x509.c    **** /*---------------------------------------------------------------------*/
 360:src/x509.c    **** static int x509_get_set(BYTE ** a_pp,int a_len,int * a_setlen)
 361:src/x509.c    **** {
 362:src/x509.c    ****   BYTE * p;
 363:src/x509.c    **** 
 364:src/x509.c    ****   p = *a_pp;
 365:src/x509.c    ****   if (a_len<1 || *(p++)!=(K_AsnSet|K_AsnConstructed) ||
ARM GAS  C:\Users\AHMED~1.ELE\AppData\Local\Temp\ccaBET3e.s 			page 13


 366:src/x509.c    ****       x509_get_asn_length(&p,a_len-1,a_setlen)==0 || a_len<*a_setlen)
 367:src/x509.c    ****     return 0;
 368:src/x509.c    **** 
 369:src/x509.c    ****   *a_pp = p;
 370:src/x509.c    ****   return -1;
 371:src/x509.c    **** }
 372:src/x509.c    **** 
 373:src/x509.c    **** /*---------------------------------------------------------------------*/
 374:src/x509.c    **** /* x509_get_sequence -- Find Sequence Object From Buffer
 375:src/x509.c    ****  * pp     - Pointer to Buffer
 376:src/x509.c    ****  * len    - Size of Buffer
 377:src/x509.c    ****  * seqlen - Return the Length of Sequence Object
 378:src/x509.c    ****  */
 379:src/x509.c    **** static int x509_get_sequence(BYTE ** a_pp,DWORD a_len,int * a_seqlen)
 380:src/x509.c    **** {
 304              		.loc 1 380 0
 305              		.cfi_startproc
 306              		@ args = 0, pretend = 0, frame = 8
 307              		@ frame_needed = 0, uses_anonymous_args = 0
 308              	.LVL38:
 309 0000 73B5     		push	{r0, r1, r4, r5, r6, lr}
 310              		.cfi_def_cfa_offset 24
 311              		.cfi_offset 4, -16
 312              		.cfi_offset 5, -12
 313              		.cfi_offset 6, -8
 314              		.cfi_offset 14, -4
 381:src/x509.c    ****   BYTE * p;
 382:src/x509.c    **** 
 383:src/x509.c    ****   p = *a_pp;
 315              		.loc 1 383 0
 316 0002 0368     		ldr	r3, [r0]
 380:src/x509.c    ****   BYTE * p;
 317              		.loc 1 380 0
 318 0004 0546     		mov	r5, r0
 319 0006 1646     		mov	r6, r2
 384:src/x509.c    ****   if (a_len<1 || *(p++)!=(K_AsnSequence|K_AsnConstructed) ||
 320              		.loc 1 384 0
 321 0008 0C46     		mov	r4, r1
 322 000a 09B9     		cbnz	r1, .L33
 323              	.LVL39:
 324              	.L35:
 385:src/x509.c    ****       x509_get_asn_length(&p,a_len-1,a_seqlen)==0 || a_len<*a_seqlen)
 386:src/x509.c    ****     return 0;
 325              		.loc 1 386 0
 326 000c 0020     		movs	r0, #0
 327 000e 11E0     		b	.L34
 328              	.LVL40:
 329              	.L33:
 384:src/x509.c    ****   if (a_len<1 || *(p++)!=(K_AsnSequence|K_AsnConstructed) ||
 330              		.loc 1 384 0 discriminator 1
 331 0010 591C     		adds	r1, r3, #1
 332              	.LVL41:
 333 0012 0191     		str	r1, [sp, #4]
 334 0014 1B78     		ldrb	r3, [r3]	@ zero_extendqisi2
 335 0016 302B     		cmp	r3, #48
 336 0018 F8D1     		bne	.L35
 385:src/x509.c    ****       x509_get_asn_length(&p,a_len-1,a_seqlen)==0 || a_len<*a_seqlen)
ARM GAS  C:\Users\AHMED~1.ELE\AppData\Local\Temp\ccaBET3e.s 			page 14


 337              		.loc 1 385 0 discriminator 2
 338 001a 01A8     		add	r0, sp, #4
 339              	.LVL42:
 340 001c 611E     		subs	r1, r4, #1
 341 001e FFF7FEFF 		bl	x509_get_asn_length
 342              	.LVL43:
 384:src/x509.c    ****   if (a_len<1 || *(p++)!=(K_AsnSequence|K_AsnConstructed) ||
 343              		.loc 1 384 0 discriminator 2
 344 0022 0028     		cmp	r0, #0
 345 0024 F2D0     		beq	.L35
 385:src/x509.c    ****       x509_get_asn_length(&p,a_len-1,a_seqlen)==0 || a_len<*a_seqlen)
 346              		.loc 1 385 0
 347 0026 3368     		ldr	r3, [r6]
 348 0028 9C42     		cmp	r4, r3
 349 002a EFD3     		bcc	.L35
 387:src/x509.c    **** 
 388:src/x509.c    ****   *a_pp = p;
 350              		.loc 1 388 0
 351 002c 019B     		ldr	r3, [sp, #4]
 389:src/x509.c    ****   return -1;
 352              		.loc 1 389 0
 353 002e 4FF0FF30 		mov	r0, #-1
 388:src/x509.c    ****   return -1;
 354              		.loc 1 388 0
 355 0032 2B60     		str	r3, [r5]
 356              	.L34:
 390:src/x509.c    **** }
 357              		.loc 1 390 0
 358 0034 02B0     		add	sp, sp, #8
 359              		.cfi_def_cfa_offset 16
 360              		@ sp needed
 361 0036 70BD     		pop	{r4, r5, r6, pc}
 362              		.cfi_endproc
 363              	.LFE6:
 364              		.size	x509_get_sequence, .-x509_get_sequence
 365              		.section	.text.x509_get_oid,"ax",%progbits
 366              		.align	1
 367              		.thumb
 368              		.thumb_func
 369              		.type	x509_get_oid, %function
 370              	x509_get_oid:
 371              	.LFB7:
 391:src/x509.c    **** 
 392:src/x509.c    **** /*---------------------------------------------------------------------*/
 393:src/x509.c    **** /* x509_get_oid -- Find OID object from Buffer
 394:src/x509.c    ****  * pp      - Pointer to Buffer
 395:src/x509.c    ****  * len     - Size of Buffer
 396:src/x509.c    ****  * seqlen  - return the length of OID
 397:src/x509.c    ****  */
 398:src/x509.c    **** static int x509_get_oid(BYTE **a_pp, DWORD a_len, int *a_seqlen)
 399:src/x509.c    **** {
 372              		.loc 1 399 0
 373              		.cfi_startproc
 374              		@ args = 0, pretend = 0, frame = 8
 375              		@ frame_needed = 0, uses_anonymous_args = 0
 376              	.LVL44:
 377 0000 73B5     		push	{r0, r1, r4, r5, r6, lr}
ARM GAS  C:\Users\AHMED~1.ELE\AppData\Local\Temp\ccaBET3e.s 			page 15


 378              		.cfi_def_cfa_offset 24
 379              		.cfi_offset 4, -16
 380              		.cfi_offset 5, -12
 381              		.cfi_offset 6, -8
 382              		.cfi_offset 14, -4
 400:src/x509.c    ****   BYTE *p;
 401:src/x509.c    **** 
 402:src/x509.c    ****   p = *a_pp;
 383              		.loc 1 402 0
 384 0002 0368     		ldr	r3, [r0]
 399:src/x509.c    ****   BYTE *p;
 385              		.loc 1 399 0
 386 0004 0546     		mov	r5, r0
 387 0006 1646     		mov	r6, r2
 403:src/x509.c    ****   if ( a_len < 1 || *(p++) != K_AsnOId ||
 388              		.loc 1 403 0
 389 0008 0C46     		mov	r4, r1
 390 000a 09B9     		cbnz	r1, .L40
 391              	.LVL45:
 392              	.L42:
 404:src/x509.c    ****        x509_get_asn_length(&p,a_len-1,a_seqlen)==0 || a_len<*a_seqlen )
 405:src/x509.c    ****     return 0;
 393              		.loc 1 405 0
 394 000c 0020     		movs	r0, #0
 395 000e 11E0     		b	.L41
 396              	.LVL46:
 397              	.L40:
 403:src/x509.c    ****   if ( a_len < 1 || *(p++) != K_AsnOId ||
 398              		.loc 1 403 0 discriminator 1
 399 0010 591C     		adds	r1, r3, #1
 400              	.LVL47:
 401 0012 0191     		str	r1, [sp, #4]
 402 0014 1B78     		ldrb	r3, [r3]	@ zero_extendqisi2
 403 0016 062B     		cmp	r3, #6
 404 0018 F8D1     		bne	.L42
 404:src/x509.c    ****        x509_get_asn_length(&p,a_len-1,a_seqlen)==0 || a_len<*a_seqlen )
 405              		.loc 1 404 0 discriminator 2
 406 001a 01A8     		add	r0, sp, #4
 407              	.LVL48:
 408 001c 611E     		subs	r1, r4, #1
 409 001e FFF7FEFF 		bl	x509_get_asn_length
 410              	.LVL49:
 403:src/x509.c    ****   if ( a_len < 1 || *(p++) != K_AsnOId ||
 411              		.loc 1 403 0 discriminator 2
 412 0022 0028     		cmp	r0, #0
 413 0024 F2D0     		beq	.L42
 404:src/x509.c    ****        x509_get_asn_length(&p,a_len-1,a_seqlen)==0 || a_len<*a_seqlen )
 414              		.loc 1 404 0
 415 0026 3368     		ldr	r3, [r6]
 416 0028 9C42     		cmp	r4, r3
 417 002a EFD3     		bcc	.L42
 406:src/x509.c    **** 
 407:src/x509.c    ****   *a_pp = p;
 418              		.loc 1 407 0
 419 002c 019B     		ldr	r3, [sp, #4]
 408:src/x509.c    ****   return -1;
 420              		.loc 1 408 0
ARM GAS  C:\Users\AHMED~1.ELE\AppData\Local\Temp\ccaBET3e.s 			page 16


 421 002e 4FF0FF30 		mov	r0, #-1
 407:src/x509.c    ****   return -1;
 422              		.loc 1 407 0
 423 0032 2B60     		str	r3, [r5]
 424              	.L41:
 409:src/x509.c    **** }
 425              		.loc 1 409 0
 426 0034 02B0     		add	sp, sp, #8
 427              		.cfi_def_cfa_offset 16
 428              		@ sp needed
 429 0036 70BD     		pop	{r4, r5, r6, pc}
 430              		.cfi_endproc
 431              	.LFE7:
 432              		.size	x509_get_oid, .-x509_get_oid
 433              		.section	.text.unlikely.x509_get_implicit_bit_string,"ax",%progbits
 434              		.align	1
 435              		.thumb
 436              		.thumb_func
 437              		.type	x509_get_implicit_bit_string, %function
 438              	x509_get_implicit_bit_string:
 439              	.LFB10:
 410:src/x509.c    **** 
 411:src/x509.c    **** /*---------------------------------------------------------------------*/
 412:src/x509.c    **** static int x509_get_dn_attrib(BYTE ** a_pp, int a_len, BYTE *a_dn_mac)
 413:src/x509.c    **** {
 414:src/x509.c    **** /* sslSha1Context_t hash; */
 415:src/x509.c    ****   BYTE *  p;
 416:src/x509.c    ****   BYTE *  dnEnd;
 417:src/x509.c    ****   int     llen,setlen,arcLen,id,stringType;
 418:src/x509.c    ****   T_SHA1_CONTEXT sha1_ctx;
 419:src/x509.c    **** 
 420:src/x509.c    ****   p = *a_pp;
 421:src/x509.c    ****   if (x509_get_sequence(&p,a_len,&llen) == 0)
 422:src/x509.c    ****     return 0;
 423:src/x509.c    **** 
 424:src/x509.c    ****   dnEnd = p + llen;
 425:src/x509.c    **** 
 426:src/x509.c    ****   if ( a_dn_mac != NULL )
 427:src/x509.c    ****   {
 428:src/x509.c    ****     EXEC_SHA1_INIT(&sha1_ctx);
 429:src/x509.c    ****     EXEC_SHA1_UPDATE(&sha1_ctx,p,llen);
 430:src/x509.c    ****     EXEC_SHA1_FINISH(&sha1_ctx,a_dn_mac);
 431:src/x509.c    ****   }
 432:src/x509.c    **** 
 433:src/x509.c    **** /* matrixSha1Init(&hash); */
 434:src/x509.c    ****   while (p < dnEnd)
 435:src/x509.c    ****   {
 436:src/x509.c    ****     if (x509_get_set(&p,(int)(dnEnd - p),&setlen) == 0)
 437:src/x509.c    ****       return 0;
 438:src/x509.c    ****     if (x509_get_sequence(&p,(int)(dnEnd - p),&llen) == 0)
 439:src/x509.c    ****       return 0;
 440:src/x509.c    ****     if (dnEnd <= p || (*(p++) != K_AsnOId) ||
 441:src/x509.c    ****         x509_get_asn_length(&p,(int)(dnEnd - p),&arcLen) == 0 ||
 442:src/x509.c    ****         (dnEnd - p) < arcLen)
 443:src/x509.c    ****       return 0;
 444:src/x509.c    **** /*
 445:src/x509.c    ****   id-at                        OBJECT IDENTIFIER ::= {joint-iso-ccitt(2) ds(5) 4}
ARM GAS  C:\Users\AHMED~1.ELE\AppData\Local\Temp\ccaBET3e.s 			page 17


 446:src/x509.c    ****   id-at-commonName             OBJECT IDENTIFIER ::= {id-at 3}
 447:src/x509.c    ****   id-at-countryName            OBJECT IDENTIFIER ::= {id-at 6}
 448:src/x509.c    ****   id-at-localityName           OBJECT IDENTIFIER ::= {id-at 7}
 449:src/x509.c    ****   id-at-stateOrProvinceName    OBJECT IDENTIFIER ::= {id-at 8}
 450:src/x509.c    ****   id-at-organizationName       OBJECT IDENTIFIER ::= {id-at 10}
 451:src/x509.c    ****   id-at-organizationalUnitName OBJECT IDENTIFIER ::= {id-at 11}
 452:src/x509.c    **** */
 453:src/x509.c    ****     *a_pp = p;
 454:src/x509.c    **** /*
 455:src/x509.c    ****   FUTURE: Currently skipping OIDs not of type {joint-iso-ccitt(2) ds(5) 4}
 456:src/x509.c    ****   However, we could be dealing with an OID we MUST support per RFC.
 457:src/x509.c    ****   domainComponent is one such example.
 458:src/x509.c    **** */
 459:src/x509.c    ****     if (dnEnd - p < 2)
 460:src/x509.c    ****       return 0;
 461:src/x509.c    ****     if ((*p++ != 85) || (*p++ != 4) )
 462:src/x509.c    ****     {
 463:src/x509.c    ****       p = *a_pp;
 464:src/x509.c    **** /*
 465:src/x509.c    ****   Move past the OID and string type, get data size, and skip it.
 466:src/x509.c    ****   NOTE: Have had problems parsing older certs in this area.
 467:src/x509.c    **** */
 468:src/x509.c    ****       if (dnEnd - p < arcLen + 1)
 469:src/x509.c    ****         return 0;
 470:src/x509.c    ****       p += arcLen + 1;
 471:src/x509.c    ****       if (x509_get_asn_length(&p,(int)(dnEnd - p),&llen) == 0 ||
 472:src/x509.c    ****           dnEnd - p < llen)
 473:src/x509.c    ****         return 0;
 474:src/x509.c    ****       p = p + llen;
 475:src/x509.c    ****       continue;
 476:src/x509.c    ****     }
 477:src/x509.c    **** /*
 478:src/x509.c    ****   Next are the id of the attribute type and the ASN string type
 479:src/x509.c    **** */
 480:src/x509.c    ****     if (arcLen != 3 || dnEnd - p < 2)
 481:src/x509.c    ****       return 0;
 482:src/x509.c    ****     id = (int)*p++;
 483:src/x509.c    ****     /*
 484:src/x509.c    ****       Done with OID parsing
 485:src/x509.c    ****     */
 486:src/x509.c    ****     stringType = (int)*p++;
 487:src/x509.c    **** 
 488:src/x509.c    ****     x509_get_asn_length(&p,(int)(dnEnd - p),&llen);
 489:src/x509.c    ****     if (dnEnd - p < llen)
 490:src/x509.c    ****       return 0;
 491:src/x509.c    ****     switch (stringType)
 492:src/x509.c    ****     {
 493:src/x509.c    ****       case K_AsnPrintableString:
 494:src/x509.c    ****       case K_AsnUtf8String:
 495:src/x509.c    ****       case K_AsnT61String:
 496:src/x509.c    ****         p = p + llen;
 497:src/x509.c    ****         break;
 498:src/x509.c    ****       default:
 499:src/x509.c    ****         return 0;
 500:src/x509.c    ****     }
 501:src/x509.c    **** // syspack V1.2 9-7-2012
 502:src/x509.c    **** #if 0
ARM GAS  C:\Users\AHMED~1.ELE\AppData\Local\Temp\ccaBET3e.s 			page 18


 503:src/x509.c    ****     switch (id)
 504:src/x509.c    ****     {
 505:src/x509.c    ****       case K_AttribCountryName:
 506:src/x509.c    **** /*       if (attribs->country) { */
 507:src/x509.c    **** /*         psFree(attribs->country); */
 508:src/x509.c    **** /*       } */
 509:src/x509.c    **** /*       attribs->country = stringOut; */
 510:src/x509.c    ****         break;
 511:src/x509.c    ****       case K_AttribStateProvince:
 512:src/x509.c    **** /*       if (attribs->state) { */
 513:src/x509.c    **** /*         psFree(attribs->state); */
 514:src/x509.c    **** /*       } */
 515:src/x509.c    **** /*       attribs->state = stringOut; */
 516:src/x509.c    ****         break;
 517:src/x509.c    ****       case K_AttribLocality:
 518:src/x509.c    **** /*       if (attribs->locality) { */
 519:src/x509.c    **** /*         psFree(attribs->locality); */
 520:src/x509.c    **** /*       } */
 521:src/x509.c    **** /*       attribs->locality = stringOut; */
 522:src/x509.c    ****         break;
 523:src/x509.c    ****       case K_AttribOrganization:
 524:src/x509.c    **** /*       if (attribs->organization) { */
 525:src/x509.c    **** /*         psFree(attribs->organization); */
 526:src/x509.c    **** /*       } */
 527:src/x509.c    **** /*       attribs->organization = stringOut; */
 528:src/x509.c    ****         break;
 529:src/x509.c    ****       case K_AttribOrgUnit:
 530:src/x509.c    **** /*       if (attribs->orgUnit) { */
 531:src/x509.c    **** /*         psFree(attribs->orgUnit); */
 532:src/x509.c    **** /*       } */
 533:src/x509.c    **** /*       attribs->orgUnit = stringOut; */
 534:src/x509.c    ****         break;
 535:src/x509.c    ****       case K_AttribCommonName:
 536:src/x509.c    **** /*       if (attribs->commonName) { */
 537:src/x509.c    **** /*         psFree(attribs->commonName); */
 538:src/x509.c    **** /*       } */
 539:src/x509.c    **** /*       attribs->commonName = stringOut; */
 540:src/x509.c    ****         break;
 541:src/x509.c    **** //
 542:src/x509.c    ****     case K_AttribSerialNumber:
 543:src/x509.c    ****       break;
 544:src/x509.c    **** /*
 545:src/x509.c    ****   Not a MUST support
 546:src/x509.c    **** */
 547:src/x509.c    ****       default:
 548:src/x509.c    **** /*       psFree(stringOut); */
 549:src/x509.c    ****         return 0;
 550:src/x509.c    ****     }
 551:src/x509.c    **** /*
 552:src/x509.c    ****   Hash up the DN.  Nice for validation later
 553:src/x509.c    **** */
 554:src/x509.c    **** /*     if (stringOut != NULL) { */
 555:src/x509.c    **** /*       matrixSha1Update(&hash, (BYTE*)stringOut, llen); */
 556:src/x509.c    **** /*     } */
 557:src/x509.c    **** #else
 558:src/x509.c    ****      if (id > 53)
 559:src/x509.c    ****        return 0;
ARM GAS  C:\Users\AHMED~1.ELE\AppData\Local\Temp\ccaBET3e.s 			page 19


 560:src/x509.c    **** #endif
 561:src/x509.c    ****   }
 562:src/x509.c    **** /*   matrixSha1Final(&hash, (BYTE*)attribs->hash); */
 563:src/x509.c    ****   *a_pp = p;
 564:src/x509.c    ****   return -1;
 565:src/x509.c    **** }
 566:src/x509.c    **** 
 567:src/x509.c    **** /*---------------------------------------------------------------------*/
 568:src/x509.c    **** static int x509_get_explicit_version(BYTE ** a_pp,int a_len,int a_expVal,int * a_val)
 569:src/x509.c    **** {
 570:src/x509.c    ****   BYTE *  p;
 571:src/x509.c    ****   int     exLen;
 572:src/x509.c    **** 
 573:src/x509.c    ****   if (a_len < 1)
 574:src/x509.c    ****     return 0;
 575:src/x509.c    **** 
 576:src/x509.c    ****   p = * a_pp;
 577:src/x509.c    **** 
 578:src/x509.c    ****   /*
 579:src/x509.c    ****     This is an optional value, so don't error if not present.  The default
 580:src/x509.c    ****     value is version 1
 581:src/x509.c    ****   */
 582:src/x509.c    ****   if (*p != (K_AsnContextSpecific | K_AsnConstructed | a_expVal))
 583:src/x509.c    ****   {
 584:src/x509.c    ****     *a_val = 0;
 585:src/x509.c    ****     return -1;
 586:src/x509.c    ****   }
 587:src/x509.c    ****   p++;
 588:src/x509.c    **** 
 589:src/x509.c    ****   if (x509_get_asn_length(&p,a_len-1,&exLen)==0 || (a_len-1)<exLen)
 590:src/x509.c    ****     return 0;
 591:src/x509.c    **** 
 592:src/x509.c    ****   if (x509_get_integer(&p,exLen,a_val) == 0)
 593:src/x509.c    ****     return 0;
 594:src/x509.c    **** 
 595:src/x509.c    ****   *a_pp = p;
 596:src/x509.c    ****   return -1;
 597:src/x509.c    **** }
 598:src/x509.c    **** 
 599:src/x509.c    **** /*---------------------------------------------------------------------*/
 600:src/x509.c    **** static int x509_get_implicit_bit_string(BYTE ** a_pp,int a_len,int a_impVal)
 601:src/x509.c    **** {
 440              		.loc 1 601 0
 441              		.cfi_startproc
 442              		@ args = 0, pretend = 0, frame = 8
 443              		@ frame_needed = 0, uses_anonymous_args = 0
 444              	.LVL50:
 602:src/x509.c    ****   BYTE *  p ;
 603:src/x509.c    ****   int     ignore_bits;
 604:src/x509.c    ****   int     bitLen;
 605:src/x509.c    **** 
 606:src/x509.c    ****   if (a_len < 1) return 0;
 445              		.loc 1 606 0
 446 0000 0029     		cmp	r1, #0
 601:src/x509.c    ****   BYTE *  p ;
 447              		.loc 1 601 0
 448 0002 13B5     		push	{r0, r1, r4, lr}
ARM GAS  C:\Users\AHMED~1.ELE\AppData\Local\Temp\ccaBET3e.s 			page 20


 449              		.cfi_def_cfa_offset 16
 450              		.cfi_offset 4, -8
 451              		.cfi_offset 14, -4
 601:src/x509.c    ****   BYTE *  p ;
 452              		.loc 1 601 0
 453 0004 0446     		mov	r4, r0
 454              		.loc 1 606 0
 455 0006 01DC     		bgt	.L47
 456              	.LVL51:
 457              	.L49:
 458 0008 0020     		movs	r0, #0
 459 000a 1AE0     		b	.L48
 460              	.LVL52:
 461              	.L47:
 607:src/x509.c    ****   p = * a_pp;
 462              		.loc 1 607 0
 463 000c 0368     		ldr	r3, [r0]
 608:src/x509.c    ****   /*
 609:src/x509.c    ****     We don't treat this case as an error, because of the optional nature.
 610:src/x509.c    ****   */
 611:src/x509.c    ****   if (*p != (K_AsnContextSpecific | K_AsnConstructed | a_impVal))
 464              		.loc 1 611 0
 465 000e 42F0A002 		orr	r2, r2, #160
 466              	.LVL53:
 607:src/x509.c    ****   p = * a_pp;
 467              		.loc 1 607 0
 468 0012 0093     		str	r3, [sp]
 469              		.loc 1 611 0
 470 0014 1878     		ldrb	r0, [r3]	@ zero_extendqisi2
 471              	.LVL54:
 472 0016 9042     		cmp	r0, r2
 473 0018 11D1     		bne	.L50
 612:src/x509.c    ****     return -1;
 613:src/x509.c    **** 
 614:src/x509.c    ****   p++;
 474              		.loc 1 614 0
 475 001a 0133     		adds	r3, r3, #1
 476 001c 02A8     		add	r0, sp, #8
 615:src/x509.c    ****   if (x509_get_asn_length(&p, a_len, &bitLen) == 0)
 477              		.loc 1 615 0
 478 001e 01AA     		add	r2, sp, #4
 614:src/x509.c    ****   if (x509_get_asn_length(&p, a_len, &bitLen) == 0)
 479              		.loc 1 614 0
 480 0020 40F8083D 		str	r3, [r0, #-8]!
 481              		.loc 1 615 0
 482 0024 FFF7FEFF 		bl	x509_get_asn_length
 483              	.LVL55:
 484 0028 0028     		cmp	r0, #0
 485 002a EDD0     		beq	.L49
 616:src/x509.c    ****     return 0;
 617:src/x509.c    **** 
 618:src/x509.c    ****   ignore_bits = *p++;
 486              		.loc 1 618 0
 487 002c 009B     		ldr	r3, [sp]
 488 002e 5A1C     		adds	r2, r3, #1
 489 0030 0092     		str	r2, [sp]
 490              	.LVL56:
ARM GAS  C:\Users\AHMED~1.ELE\AppData\Local\Temp\ccaBET3e.s 			page 21


 619:src/x509.c    ****   if (ignore_bits != 0)
 491              		.loc 1 619 0
 492 0032 1B78     		ldrb	r3, [r3]	@ zero_extendqisi2
 493              	.LVL57:
 494 0034 002B     		cmp	r3, #0
 495 0036 E7D1     		bne	.L49
 620:src/x509.c    ****     return 0;
 621:src/x509.c    **** 
 622:src/x509.c    ****   *a_pp = p + bitLen;
 496              		.loc 1 622 0
 497 0038 019B     		ldr	r3, [sp, #4]
 498              	.LVL58:
 499 003a 1344     		add	r3, r3, r2
 500 003c 2360     		str	r3, [r4]
 501              	.LVL59:
 502              	.L50:
 612:src/x509.c    **** 
 503              		.loc 1 612 0
 504 003e 4FF0FF30 		mov	r0, #-1
 505              	.L48:
 623:src/x509.c    ****   return -1;
 624:src/x509.c    **** }
 506              		.loc 1 624 0
 507 0042 02B0     		add	sp, sp, #8
 508              		.cfi_def_cfa_offset 8
 509              		@ sp needed
 510 0044 10BD     		pop	{r4, pc}
 511              		.cfi_endproc
 512              	.LFE10:
 513              		.size	x509_get_implicit_bit_string, .-x509_get_implicit_bit_string
 514              		.section	.text.x509_get_algorithm_identifier,"ax",%progbits
 515              		.align	1
 516              		.thumb
 517              		.thumb_func
 518              		.type	x509_get_algorithm_identifier, %function
 519              	x509_get_algorithm_identifier:
 520              	.LFB15:
 625:src/x509.c    **** 
 626:src/x509.c    **** /*---------------------------------------------------------------------*/
 627:src/x509.c    **** static int x509_get_explicit_extensions(BYTE ** a_pp,int a_inlen, int a_expVal, T_X509_CERT_INFO *a
 628:src/x509.c    **** {
 629:src/x509.c    ****   BYTE *  p;
 630:src/x509.c    ****   BYTE *  end;
 631:src/x509.c    ****   BYTE *  extEnd;
 632:src/x509.c    ****   int     len, oid, tmpLen;
 633:src/x509.c    **** // syspack V1.2
 634:src/x509.c    **** //  int     critical;
 635:src/x509.c    ****   int     pathLenConstraint;
 636:src/x509.c    ****   int     bool_val;
 637:src/x509.c    **** 
 638:src/x509.c    ****   if (a_inlen < 1) return 0;
 639:src/x509.c    ****   p   = *a_pp;
 640:src/x509.c    ****   end = p + a_inlen;
 641:src/x509.c    **** /*
 642:src/x509.c    ****   Not treating this as an error because it is optional.
 643:src/x509.c    **** */
 644:src/x509.c    ****   if (*p != (K_AsnContextSpecific | K_AsnConstructed | a_expVal))
ARM GAS  C:\Users\AHMED~1.ELE\AppData\Local\Temp\ccaBET3e.s 			page 22


 645:src/x509.c    ****     return -1;
 646:src/x509.c    **** 
 647:src/x509.c    ****   p++;
 648:src/x509.c    ****   if (x509_get_asn_length(&p,(int)(end - p),&len) == 0 || (end-p) < len)
 649:src/x509.c    ****     return 0;
 650:src/x509.c    **** /*
 651:src/x509.c    ****   Extensions ::= SEQUENCE SIZE (1..MAX) OF Extension
 652:src/x509.c    **** 
 653:src/x509.c    ****   Extension  ::= SEQUENCE {
 654:src/x509.c    ****                extnID    OBJECT IDENTIFIER,
 655:src/x509.c    ****      extnValue OCTET STRING }
 656:src/x509.c    **** */
 657:src/x509.c    ****   if (x509_get_sequence(&p,(int)(end - p),&len) == 0)
 658:src/x509.c    ****     return 0;
 659:src/x509.c    ****   extEnd = p + len;
 660:src/x509.c    ****   while ((p != extEnd) && *p == (K_AsnSequence|K_AsnConstructed))
 661:src/x509.c    ****   {
 662:src/x509.c    ****     if (x509_get_sequence(&p,(int)(extEnd - p),&len) == 0)
 663:src/x509.c    ****       return 0;
 664:src/x509.c    **** /*
 665:src/x509.c    ****   Conforming CAs MUST support key identifiers, basic constraints,
 666:src/x509.c    ****   key usage, and certificate policies extensions
 667:src/x509.c    **** 
 668:src/x509.c    ****   id-ce-authorityKeyIdentifier OBJECT IDENTIFIER ::= { id-ce 35 }
 669:src/x509.c    ****   id2-ce-basicConstraints      OBJECT IDENTIFIER ::= { id-ce 19 } 133
 670:src/x509.c    ****   id-ce-keyUsage               OBJECT IDENTIFIER ::= { id-ce 15 }
 671:src/x509.c    ****   id-ce-certificatePolicies    OBJECT IDENTIFIER ::= { id-ce 32 }
 672:src/x509.c    ****   id-ce-subjectAltName         OBJECT IDENTIFIER ::= { id-ce 17 } 131
 673:src/x509.c    **** */
 674:src/x509.c    ****     if (extEnd - p < 1 || *p++ != K_AsnOId)
 675:src/x509.c    ****       return 0;
 676:src/x509.c    **** 
 677:src/x509.c    ****     oid = 0;
 678:src/x509.c    ****     if (x509_get_asn_length(&p,(int)(extEnd - p),&len) == 0 ||
 679:src/x509.c    ****         (extEnd - p) < len)
 680:src/x509.c    ****       return 0;
 681:src/x509.c    **** 
 682:src/x509.c    **** #if 0
 683:src/x509.c    ****     while (len-- > 0)
 684:src/x509.c    ****       oid += (int)*p++;
 685:src/x509.c    **** #else
 686:src/x509.c    ****     oid = oid_to_hash_value(p,len);
 687:src/x509.c    ****     p += len;
 688:src/x509.c    **** #endif
 689:src/x509.c    **** /*
 690:src/x509.c    ****   Possible boolean value here for 'critical' id.  It's a failure if a
 691:src/x509.c    ****   critical extension is found that is not supported
 692:src/x509.c    **** */
 693:src/x509.c    **** // syspack V1.2 9-7-2012
 694:src/x509.c    **** //    critical = 0;
 695:src/x509.c    ****     if (*p == K_AsnBoolean)
 696:src/x509.c    ****     {
 697:src/x509.c    ****       p++;
 698:src/x509.c    ****       if (*p++ != 1)
 699:src/x509.c    ****         return 0;
 700:src/x509.c    ****       if (*p++ > 0);
 701:src/x509.c    **** // syspack V1.2 9-7-2012
ARM GAS  C:\Users\AHMED~1.ELE\AppData\Local\Temp\ccaBET3e.s 			page 23


 702:src/x509.c    **** //        critical = 1;
 703:src/x509.c    ****     }
 704:src/x509.c    ****     if (extEnd - p < 1 || (*p++ != K_AsnOctetString) ||
 705:src/x509.c    ****         x509_get_asn_length(&p,(int)(extEnd - p),&len) == 0 ||
 706:src/x509.c    ****         extEnd - p < len)
 707:src/x509.c    ****       return 0;
 708:src/x509.c    **** 
 709:src/x509.c    ****     switch (oid)
 710:src/x509.c    ****     {
 711:src/x509.c    **** /*
 712:src/x509.c    ****   BasicConstraints ::= SEQUENCE {
 713:src/x509.c    ****                           cA BOOLEAN DEFAULT FALSE,
 714:src/x509.c    ****                           pathLenConstraint INTEGER (0..MAX) OPTIONAL }
 715:src/x509.c    **** */
 716:src/x509.c    ****       case K_OIdExtBasicConstraints:
 717:src/x509.c    ****         if (x509_get_sequence(&p,(int)(extEnd - p),&len) == 0)
 718:src/x509.c    ****           return 0;
 719:src/x509.c    **** 
 720:src/x509.c    ****         /* dbg_printf(" -- basic constrains (len=%u)\n",len); */
 721:src/x509.c    ****         /* dbg_hexdump(p,len); */
 722:src/x509.c    ****         
 723:src/x509.c    **** /*
 724:src/x509.c    ****   "This goes against PKIX guidelines but some CAs do it and some
 725:src/x509.c    ****   software requires this to avoid interpreting an end user
 726:src/x509.c    ****   certificate as a CA."
 727:src/x509.c    ****     - OpenSSL certificate configuration doc
 728:src/x509.c    ****     basicConstraints=CA:FALSE
 729:src/x509.c    **** */
 730:src/x509.c    ****         if (len == 0)
 731:src/x509.c    ****           break;
 732:src/x509.c    **** 
 733:src/x509.c    ****         if ( x509_get_boolean(&p,len,&bool_val) == 0 )
 734:src/x509.c    ****           return 0;
 735:src/x509.c    ****         if ( bool_val ) {
 736:src/x509.c    ****           a_cert_info->w_key_usage |= K_X509_KeyUsageFlag_IsCA;
 737:src/x509.c    ****         } else {
 738:src/x509.c    ****           a_cert_info->w_key_usage &= ~K_X509_KeyUsageFlag_IsCA;
 739:src/x509.c    ****         };
 740:src/x509.c    ****         
 741:src/x509.c    ****         /* if (extEnd - p < 3) */
 742:src/x509.c    ****         /*   return 0; */
 743:src/x509.c    ****         /* if (*p++ != K_AsnBoolean) */
 744:src/x509.c    ****         /*   return 0; */
 745:src/x509.c    ****         /* if (*p++ != 1) */
 746:src/x509.c    ****         /*   return 0; */
 747:src/x509.c    ****         /* // *p++; */
 748:src/x509.c    **** 	/* p++; */
 749:src/x509.c    **** /*
 750:src/x509.c    ****   Now need to check if there is a path constraint. Only makes
 751:src/x509.c    ****   sense if cA is true.  If it's missing, there is no limit to
 752:src/x509.c    ****   the cert path
 753:src/x509.c    **** */
 754:src/x509.c    ****         if (*p == K_AsnInteger)
 755:src/x509.c    ****         {
 756:src/x509.c    ****           if (x509_get_integer(&p,(int)(extEnd - p),&pathLenConstraint) == 0)
 757:src/x509.c    ****             return 0;
 758:src/x509.c    ****         }
ARM GAS  C:\Users\AHMED~1.ELE\AppData\Local\Temp\ccaBET3e.s 			page 24


 759:src/x509.c    ****         else
 760:src/x509.c    ****           pathLenConstraint = -1;
 761:src/x509.c    ****         break;
 762:src/x509.c    ****         
 763:src/x509.c    ****       case K_OIdExtAltSubjectName:
 764:src/x509.c    ****         
 765:src/x509.c    ****         if (x509_get_sequence(&p,(int)(extEnd - p),&len) == 0)
 766:src/x509.c    ****           return 0;
 767:src/x509.c    **** /*
 768:src/x509.c    ****   Looking only for DNS, URI, and email here to support
 769:src/x509.c    ****   FQDN for Web clients
 770:src/x509.c    **** 
 771:src/x509.c    ****   FUTURE:  Support all subject alt name members
 772:src/x509.c    ****   GeneralName ::= CHOICE {
 773:src/x509.c    ****     otherName[0]                    OtherName,
 774:src/x509.c    ****     rfc822Name[1]                   IA5String,
 775:src/x509.c    ****     dNSName[2]                      IA5String,
 776:src/x509.c    ****     x400Address [3]                 ORAddress,
 777:src/x509.c    ****     directoryName[4]                Name,
 778:src/x509.c    ****     ediPartyName[5]                 EDIPartyName,
 779:src/x509.c    ****     uniformResourceIdentifier[6]    IA5String,
 780:src/x509.c    ****     iPAddress[7]                    OCTET STRING,
 781:src/x509.c    ****     registeredID[8]                 OBJECT IDENTIFIER }
 782:src/x509.c    **** */
 783:src/x509.c    ****         while (len > 0)
 784:src/x509.c    ****         {
 785:src/x509.c    ****           if (*p == (K_AsnContextSpecific | K_AsnPrimitive | 2))
 786:src/x509.c    ****           {
 787:src/x509.c    ****             p++;
 788:src/x509.c    ****             tmpLen = *p++;
 789:src/x509.c    ****             if (extEnd - p < tmpLen)
 790:src/x509.c    ****             return 0;
 791:src/x509.c    ****           }
 792:src/x509.c    ****           else
 793:src/x509.c    ****             if (*p == (K_AsnContextSpecific | K_AsnPrimitive | 6))
 794:src/x509.c    ****             {
 795:src/x509.c    ****               p++;
 796:src/x509.c    ****               tmpLen = *p++;
 797:src/x509.c    ****               if (extEnd - p < tmpLen)
 798:src/x509.c    ****                 return 0;
 799:src/x509.c    ****             }
 800:src/x509.c    ****             else
 801:src/x509.c    ****               if (*p == (K_AsnContextSpecific | K_AsnPrimitive | 1))
 802:src/x509.c    ****               {
 803:src/x509.c    ****                 p++;
 804:src/x509.c    ****                 tmpLen = *p++;
 805:src/x509.c    ****                 if (extEnd - p < tmpLen)
 806:src/x509.c    ****                   return 0;
 807:src/x509.c    ****               }
 808:src/x509.c    ****               else
 809:src/x509.c    ****               {
 810:src/x509.c    ****                 p++;
 811:src/x509.c    ****                 tmpLen = *p++;
 812:src/x509.c    ****                 if (extEnd - p < tmpLen)
 813:src/x509.c    ****                   return 0;
 814:src/x509.c    ****               }
 815:src/x509.c    ****           p = p + tmpLen;
ARM GAS  C:\Users\AHMED~1.ELE\AppData\Local\Temp\ccaBET3e.s 			page 25


 816:src/x509.c    ****           len -= tmpLen + 2; /* the magic 2 is the type and length */
 817:src/x509.c    ****         }
 818:src/x509.c    ****         break;
 819:src/x509.c    **** 
 820:src/x509.c    **** /***********************************************************************/
 821:src/x509.c    **** #ifdef USE_FULL_CERT_PARSE
 822:src/x509.c    **** 
 823:src/x509.c    **** #if defined(USE_FULL_CERT_PARSE_AUTHKEYID)
 824:src/x509.c    ****       case K_OIdExtAuthKeyId:
 825:src/x509.c    **** /*
 826:src/x509.c    ****   AuthorityKeyIdentifier ::= SEQUENCE {
 827:src/x509.c    ****     keyIdentifier[0] K            KeyIdentifier OPTIONAL,
 828:src/x509.c    ****     authorityCertIssuer[1]        GeneralNames OPTIONAL,
 829:src/x509.c    ****     authorityCertSerialNumber[2]  CertificateSerialNumber OPTIONAL }
 830:src/x509.c    **** 
 831:src/x509.c    ****   KeyIdentifier ::= OCTET STRING
 832:src/x509.c    **** */
 833:src/x509.c    ****         if (x509_get_sequence(&p,(int)(extEnd - p),&len) == 0 || len < 1)
 834:src/x509.c    ****           return 0;
 835:src/x509.c    **** /*
 836:src/x509.c    ****   All memebers are optional
 837:src/x509.c    **** */
 838:src/x509.c    ****         if (*p == (K_AsnContextSpecific|K_AsnPrimitive | 0))
 839:src/x509.c    ****         {
 840:src/x509.c    ****           p++;
 841:src/x509.c    ****           if (x509_get_asn_length(&p,(int)(extEnd - p),&keyLen) == 0 ||
 842:src/x509.c    ****               extEnd - p < keyLen)
 843:src/x509.c    ****             return 0;
 844:src/x509.c    **** /* extensions->ak.keyId = psMalloc(extensions->ak.keyLen); */
 845:src/x509.c    **** /* memcpy(extensions->ak.keyId, p, extensions->ak.keyLen); */
 846:src/x509.c    ****           p = p + keyLen;
 847:src/x509.c    ****         }
 848:src/x509.c    **** 
 849:src/x509.c    ****         if (*p == (K_AsnContextSpecific | K_AsnConstructed | 1))
 850:src/x509.c    ****         {
 851:src/x509.c    ****           p++;
 852:src/x509.c    ****           if (x509_get_asn_length(&p,(int)(extEnd - p),&len) == 0 ||
 853:src/x509.c    ****               len < 1 || extEnd - p < len)
 854:src/x509.c    ****           return 0;
 855:src/x509.c    ****           if ((*p ^ K_AsnContextSpecific ^ K_AsnConstructed) != 4)
 856:src/x509.c    ****             /*
 857:src/x509.c    ****               FUTURE: support other name types
 858:src/x509.c    ****               We are just dealing with DN formats here
 859:src/x509.c    ****             */
 860:src/x509.c    ****             return 0;
 861:src/x509.c    ****           p++;
 862:src/x509.c    ****           if (x509_get_asn_length(&p,(int)(extEnd - p),&len) == 0 ||
 863:src/x509.c    ****               extEnd - p < len)
 864:src/x509.c    ****             return 0;
 865:src/x509.c    ****           if (x509_get_dn_attrib(&p,(int)(extEnd - p),NULL) == 0)
 866:src/x509.c    ****             return 0;
 867:src/x509.c    ****         }
 868:src/x509.c    **** 
 869:src/x509.c    ****         /* Certficiate Serial Number can be a really big big integer
 870:src/x509.c    ****          * practically.  Since we don't need this piece of
 871:src/x509.c    ****          * information, just skip this block entirely unless we are
 872:src/x509.c    ****          * interested in this entity.
ARM GAS  C:\Users\AHMED~1.ELE\AppData\Local\Temp\ccaBET3e.s 			page 26


 873:src/x509.c    ****          */
 874:src/x509.c    **** #if 0
 875:src/x509.c    ****         if (*p == (K_AsnContextSpecific|K_AsnPrimitive | 2))
 876:src/x509.c    ****         {
 877:src/x509.c    ****           BYTE * ptr = p, temp;
 878:src/x509.c    ****           temp = *p;
 879:src/x509.c    ****           /*
 880:src/x509.c    ****             Standard x509_get_integer doesn't like CONTEXT_SPECIFIC tag
 881:src/x509.c    ****           */
 882:src/x509.c    ****           *p &= K_AsnInteger;
 883:src/x509.c    ****           if (x509_get_integer(&p,(int)(extEnd - p),&serialNum) == 0)
 884:src/x509.c    ****           {
 885:src/x509.c    ****             *ptr = temp;
 886:src/x509.c    ****             return 0;
 887:src/x509.c    ****           }
 888:src/x509.c    ****           *ptr = temp;
 889:src/x509.c    ****         }
 890:src/x509.c    **** #else
 891:src/x509.c    ****         if ( *p == (K_AsnContextSpecific|K_AsnPrimitive | 2) )
 892:src/x509.c    ****         {
 893:src/x509.c    ****           int bilen;            /* big integer length */
 894:src/x509.c    ****           p++;
 895:src/x509.c    ****           if ( x509_get_asn_length(&p,(int)(extEnd-p),&bilen) == 0 )
 896:src/x509.c    ****             return 0;
 897:src/x509.c    ****           p += bilen;
 898:src/x509.c    ****         }
 899:src/x509.c    **** #endif
 900:src/x509.c    ****         break;
 901:src/x509.c    **** #endif  /* USE_FULL_CERT_PARSE_AUTHKEYID */
 902:src/x509.c    **** 
 903:src/x509.c    **** #if defined(USE_FULL_CERT_PARSE_KEYUSAGE)
 904:src/x509.c    ****       case K_OIdExtKeyUsage:
 905:src/x509.c    **** /*
 906:src/x509.c    ****   KeyUsage ::= BIT STRING {
 907:src/x509.c    ****     digitalSignature    (0),
 908:src/x509.c    ****     nonRepudiation      (1),
 909:src/x509.c    ****     keyEncipherment     (2),
 910:src/x509.c    ****     dataEncipherment    (3),
 911:src/x509.c    ****     keyAgreement        (4),
 912:src/x509.c    ****     keyCertSign         (5),
 913:src/x509.c    ****     cRLSign             (6),
 914:src/x509.c    ****     encipherOnly        (7),
 915:src/x509.c    ****     decipherOnly        (8) }
 916:src/x509.c    **** */
 917:src/x509.c    ****         if (*p++ != K_AsnBitString)
 918:src/x509.c    ****           return 0;
 919:src/x509.c    ****         if (x509_get_asn_length(&p,(int)(extEnd - p),&len) == 0 ||
 920:src/x509.c    ****             extEnd - p < len)
 921:src/x509.c    ****           return 0;
 922:src/x509.c    ****         
 923:src/x509.c    ****         if ( len < 1 )
 924:src/x509.c    ****         {
 925:src/x509.c    ****           
 926:src/x509.c    ****           return 0;
 927:src/x509.c    ****           
 928:src/x509.c    ****         } else {
 929:src/x509.c    ****           
ARM GAS  C:\Users\AHMED~1.ELE\AppData\Local\Temp\ccaBET3e.s 			page 27


 930:src/x509.c    ****           /* Bit string may be of variable length due to future
 931:src/x509.c    ****            * expansion.  According to RFC5280, only 9 bits are
 932:src/x509.c    ****            * defined.  It is possible to have this bit-string size
 933:src/x509.c    ****            * more than 2 octets for the time being.
 934:src/x509.c    ****            */
 935:src/x509.c    ****           DWORD d_usage = 0;
 936:src/x509.c    ****           
 937:src/x509.c    ****           /* dbg_printf(" -- key usage pattern\r\n"); */
 938:src/x509.c    ****           /* dbg_hexdump(p,len); */
 939:src/x509.c    ****           
 940:src/x509.c    ****           /* bit string structure -
 941:src/x509.c    ****            *   nn mm ll ....
 942:src/x509.c    ****            *    -- nn is a initial byte descibing the how many unused
 943:src/x509.c    ****            *       bits at the last bit-string content byte.
 944:src/x509.c    ****            *    -- bit 0x80 of mm is the bit at position 0.
 945:src/x509.c    ****            *       bit 0x40 of mm is the bit at position 1.
 946:src/x509.c    ****            *       ...
 947:src/x509.c    ****            *       bit 0x01 of mm is the bit at position 7.
 948:src/x509.c    ****            *
 949:src/x509.c    ****            *    -- bit 0x80 of nn is the bit at position 
 950:src/x509.c    ****            * leading initial byte (nn) must take the value within
 951:src/x509.c    ****            * 0 to 7 which denotes number of unused bits in last bytes
 952:src/x509.c    ****            */
 953:src/x509.c    ****           if ( len < 1 || *p > 7 )
 954:src/x509.c    ****             return 0;           /* initial byte must be within 0 to 7 */
 955:src/x509.c    ****           if ( len > 1 )
 956:src/x509.c    ****             d_usage |= p[1] << 24;
 957:src/x509.c    ****           if ( len > 2 )
 958:src/x509.c    ****             d_usage |= p[2] << 16;
 959:src/x509.c    ****           /* do a 16-bits reversal */
 960:src/x509.c    ****           d_usage = x509_bit_reverse(d_usage);
 961:src/x509.c    ****           a_cert_info->w_key_usage &= 0xFE00;
 962:src/x509.c    ****           a_cert_info->w_key_usage |= d_usage & 0x1FF;
 963:src/x509.c    ****           a_cert_info->w_key_usage |= K_X509_KeyUsageFlag_HasKeyUsage;
 964:src/x509.c    ****         };
 965:src/x509.c    ****         p = p + len;
 966:src/x509.c    ****         break;
 967:src/x509.c    **** #endif  /* USE_FULL_CERT_PARSE_EXTKEYUSAGE */
 968:src/x509.c    **** 
 969:src/x509.c    **** #if defined(USE_FULL_CERT_PARSE_SUBJKEYID)
 970:src/x509.c    ****       case K_OIdExtSubjKeyId:
 971:src/x509.c    **** /*
 972:src/x509.c    ****   The value of the subject key identifier MUST be the value
 973:src/x509.c    ****   placed in the key identifier field of the Auth Key Identifier
 974:src/x509.c    ****   extension of certificates issued by the subject of
 975:src/x509.c    ****   this certificate.
 976:src/x509.c    **** */
 977:src/x509.c    ****         if (*p++ != K_AsnOctetString ||
 978:src/x509.c    ****             x509_get_asn_length(&p,(int)(extEnd - p),&keyLen) == 0 ||
 979:src/x509.c    ****             extEnd - p < keyLen)
 980:src/x509.c    ****           return 0;
 981:src/x509.c    **** /* extensions->sk.id = psMalloc(extensions->sk.len); */
 982:src/x509.c    **** /* memcpy(extensions->sk.id, p, extensions->sk.len); */
 983:src/x509.c    ****         p = p + keyLen;
 984:src/x509.c    ****         break;
 985:src/x509.c    **** #endif
 986:src/x509.c    **** #endif /* USE_FULL_CERT_PARSE */
ARM GAS  C:\Users\AHMED~1.ELE\AppData\Local\Temp\ccaBET3e.s 			page 28


 987:src/x509.c    **** /*
 988:src/x509.c    ****   Unsupported or skipping because USE_FULL_CERT_PARSE is undefined
 989:src/x509.c    **** */
 990:src/x509.c    **** /***********************************************************************/
 991:src/x509.c    **** 
 992:src/x509.c    ****       default:
 993:src/x509.c    **** // syspack V1.2 9-7-2012
 994:src/x509.c    **** #if 0
 995:src/x509.c    ****         if (critical)
 996:src/x509.c    ****           return 0;
 997:src/x509.c    **** #endif
 998:src/x509.c    ****         p++;
 999:src/x509.c    ****         if (x509_get_asn_length(&p,(int)(extEnd - p),&len) == 0 ||
1000:src/x509.c    ****             extEnd - p < len)
1001:src/x509.c    ****           return 0;
1002:src/x509.c    ****         p = p + len;
1003:src/x509.c    ****         break;
1004:src/x509.c    ****     }
1005:src/x509.c    ****   }
1006:src/x509.c    ****   *a_pp = p;
1007:src/x509.c    ****   return -1;
1008:src/x509.c    **** }
1009:src/x509.c    **** 
1010:src/x509.c    **** /*---------------------------------------------------------------------*/
1011:src/x509.c    **** static int x509_get_SerialNum(BYTE ** a_pp,int a_len)
1012:src/x509.c    **** {
1013:src/x509.c    ****   BYTE *  p;
1014:src/x509.c    ****   int     vlen;
1015:src/x509.c    **** 
1016:src/x509.c    ****   p = *a_pp;
1017:src/x509.c    ****   if (a_len < 1 || *(p++) != K_AsnInteger ||
1018:src/x509.c    ****       x509_get_asn_length(&p,a_len-1,&vlen) == 0)
1019:src/x509.c    ****     return 0;
1020:src/x509.c    **** 
1021:src/x509.c    ****    p += vlen;
1022:src/x509.c    ****   *a_pp = p;
1023:src/x509.c    ****   return -1;
1024:src/x509.c    **** }
1025:src/x509.c    **** 
1026:src/x509.c    **** static BOOLEAN x509_rsapss_param_identical(T_RSAPSS_PARAM *s1, T_RSAPSS_PARAM *s2)
1027:src/x509.c    **** {
1028:src/x509.c    ****   if ( s1 == NULL || s2 == NULL )
1029:src/x509.c    ****     return FALSE;
1030:src/x509.c    ****   if ( s1 == s2 )
1031:src/x509.c    ****     return TRUE;
1032:src/x509.c    ****   return (memcmp(s1,s2,sizeof(T_RSAPSS_PARAM))) ? FALSE : TRUE;
1033:src/x509.c    **** }
1034:src/x509.c    **** 
1035:src/x509.c    **** static int x509_get_rsapss_param(BYTE ** a_pp, int a_len, T_RSAPSS_PARAM *param)
1036:src/x509.c    **** {
1037:src/x509.c    **** 
1038:src/x509.c    ****   /* -------------------------------------------------------------------
1039:src/x509.c    ****    * RFC3447 PKCS#1 v2.1 (Appendix A.2.3)
1040:src/x509.c    ****    * RSASSA-PSS-params ::= SEQUENCE {
1041:src/x509.c    ****    *   hashAlgorithm [0] HashAlgorithm DEFAULT sha1,
1042:src/x509.c    ****    *   maskGenAlgorithm [1] MaskGenAlgorithm DEFAULT mgf1SHA1,
1043:src/x509.c    ****    *   saltLength [2] INTEGER DEFAULT 20,
ARM GAS  C:\Users\AHMED~1.ELE\AppData\Local\Temp\ccaBET3e.s 			page 29


1044:src/x509.c    ****    *   trailerField [3] TrailerField DEFAULT trailerFieldBC
1045:src/x509.c    ****    * }
1046:src/x509.c    ****    * ------------------------------------------------------------------- */
1047:src/x509.c    ****   BYTE *p, *p_e, *p_pe;
1048:src/x509.c    ****   BYTE *end;
1049:src/x509.c    ****   int arcLen, llen;
1050:src/x509.c    ****   BYTE tag;
1051:src/x509.c    ****   const BYTE b_ctx_struct = K_AsnContextSpecific | K_AsnConstructed;
1052:src/x509.c    **** 
1053:src/x509.c    ****   p = *a_pp;
1054:src/x509.c    ****   end = p + a_len;
1055:src/x509.c    **** 
1056:src/x509.c    ****   if ( a_len < 2 || x509_get_sequence(&p,a_len,&llen) == 0 )
1057:src/x509.c    ****     return 0;
1058:src/x509.c    **** 
1059:src/x509.c    ****   param->d_hash_algo = K_OIdSha1;
1060:src/x509.c    ****   param->d_mask_gen_func = K_OIdMgf1;
1061:src/x509.c    ****   param->d_mgf_digest = K_OIdSha1;
1062:src/x509.c    ****   param->d_salt_length = 20;
1063:src/x509.c    ****   param->d_trailer_field = 1;
1064:src/x509.c    **** 
1065:src/x509.c    ****   if ( llen == 0 )
1066:src/x509.c    ****   {
1067:src/x509.c    ****     /* dbg_printf("empty PSS param, use default settings...\n"); */
1068:src/x509.c    ****     *a_pp = p;
1069:src/x509.c    ****     /* use default PSS parameters */
1070:src/x509.c    ****     return -1;
1071:src/x509.c    ****   };
1072:src/x509.c    **** 
1073:src/x509.c    ****   /* dbg_printf("PSS param content size = %d\n",llen); */
1074:src/x509.c    ****   if ( end - p < llen )
1075:src/x509.c    ****     return 0;
1076:src/x509.c    **** 
1077:src/x509.c    ****   /* all context-specific constucture are using tag 0~3, minimal
1078:src/x509.c    ****    * length of tag id and length field is 2 bytes */
1079:src/x509.c    ****   p_e = p + llen;
1080:src/x509.c    ****   while ( (int)(p_e - p) >= 2 ) {
1081:src/x509.c    **** 
1082:src/x509.c    ****     /* dbg_printf("\ntag %x\n",*p); */
1083:src/x509.c    ****     tag = *p++;
1084:src/x509.c    **** 
1085:src/x509.c    ****     if ( (tag & b_ctx_struct) != b_ctx_struct )
1086:src/x509.c    ****       return 0;
1087:src/x509.c    ****     
1088:src/x509.c    ****     tag &= 0x1f;
1089:src/x509.c    ****     if ( tag > 3 )
1090:src/x509.c    ****       return 0;                 /* error! */
1091:src/x509.c    **** 
1092:src/x509.c    ****     if ( x509_get_asn_length(&p,(int)(p_e - p),&arcLen) == 0 )
1093:src/x509.c    ****       return 0;
1094:src/x509.c    **** 
1095:src/x509.c    ****     /* p_e  - points to end of PSS-PARAMS
1096:src/x509.c    ****      * p_pe - points to end of this context-specific struct */
1097:src/x509.c    ****     p_pe = p + arcLen;
1098:src/x509.c    ****     /* dbg_printf("\ntag %d len = %d\n",tag, arcLen); */
1099:src/x509.c    ****     /* dbg_hexdump(p,arcLen); */
1100:src/x509.c    **** 
ARM GAS  C:\Users\AHMED~1.ELE\AppData\Local\Temp\ccaBET3e.s 			page 30


1101:src/x509.c    ****     switch ( tag )
1102:src/x509.c    ****     {
1103:src/x509.c    ****       case 0:
1104:src/x509.c    ****       /* hashAlgorithm [0] HashAlgorithm DEFAULT sha1
1105:src/x509.c    ****        *  - an OID in the set of OAEP-PSSDigestAlgorithms */
1106:src/x509.c    ****       if ( (int)(p_pe - p) < 2 || x509_get_sequence(&p,(int)(p_pe-p),&arcLen) == 0 )
1107:src/x509.c    **** 	return 0;
1108:src/x509.c    ****       if ( (int)(p_pe - p) < 2 || x509_get_oid(&p,(int)(p_pe-p),&arcLen) == 0 )
1109:src/x509.c    **** 	return 0;
1110:src/x509.c    **** 
1111:src/x509.c    ****       param->d_hash_algo = oid_to_hash_value(p,arcLen);
1112:src/x509.c    ****       /* dbg_printf("tag %u oid hash 0x%08x\n",tag,param->d_hash_algo); */
1113:src/x509.c    ****       break;
1114:src/x509.c    **** 
1115:src/x509.c    ****       case 1:
1116:src/x509.c    ****       /* maskGenAlgorithm [1] MaskGenAlgorithm DEFAULT mgf1SHA1 */
1117:src/x509.c    ****       if ( (int)(p_pe - p) < 2 || x509_get_sequence(&p,(int)(p_pe-p),&arcLen) == 0 )
1118:src/x509.c    **** 	return 0;
1119:src/x509.c    ****       if ( (int)(p_pe - p) < 2 || x509_get_oid(&p,(int)(p_pe-p),&arcLen) == 0 )
1120:src/x509.c    **** 	return 0;
1121:src/x509.c    ****         
1122:src/x509.c    ****       param->d_mask_gen_func = oid_to_hash_value(p,arcLen);
1123:src/x509.c    ****       /* dbg_printf("tag %u oid hash #1 0x%08x\n",tag,param->d_mask_gen_func); */
1124:src/x509.c    ****       p += arcLen;
1125:src/x509.c    **** 
1126:src/x509.c    ****       if ( (int)(p_pe - p) < 2 || x509_get_sequence(&p,(int)(p_pe-p),&arcLen) == 0 )
1127:src/x509.c    **** 	return 0;
1128:src/x509.c    ****       if ( (int)(p_pe - p) < 2 || x509_get_oid(&p,(int)(p_pe-p),&arcLen) == 0 )
1129:src/x509.c    **** 	return 0;
1130:src/x509.c    ****       param->d_mgf_digest = oid_to_hash_value(p,arcLen);
1131:src/x509.c    ****       /* dbg_printf("tag %u oid hash #2 0x%08x\n",tag,param->d_mgf_digest); */
1132:src/x509.c    ****       break;
1133:src/x509.c    **** 
1134:src/x509.c    ****     case 2:
1135:src/x509.c    ****       /* saltLength [2] INTEGER DEFAULT 20 */
1136:src/x509.c    ****       if ( (int)(p_pe - p) < 2 || x509_get_integer(&p,(int)(p_pe-p),&arcLen) == 0 )
1137:src/x509.c    ****       return 0;
1138:src/x509.c    ****       param->d_salt_length = arcLen;
1139:src/x509.c    ****       /* dbg_printf("tag %u salt-length = %u\n",tag,param->d_salt_length); */
1140:src/x509.c    ****       break;
1141:src/x509.c    **** 
1142:src/x509.c    ****     case 3:
1143:src/x509.c    ****       /* trailerField [3] TrailerField DEFAULT trailerFieldBC */
1144:src/x509.c    ****       if ( (int)(p_pe - p) < 2 || x509_get_integer(&p,(int)(p_pe-p),&arcLen) == 0 )
1145:src/x509.c    **** 	return 0;
1146:src/x509.c    ****       param->d_trailer_field = arcLen;
1147:src/x509.c    ****       /* dbg_printf("tag %u trailer-field = %u\n",tag,param->d_trailer_field); */
1148:src/x509.c    ****       break;
1149:src/x509.c    ****     };
1150:src/x509.c    **** 
1151:src/x509.c    ****     p = p_pe;
1152:src/x509.c    ****     
1153:src/x509.c    ****   };
1154:src/x509.c    **** 
1155:src/x509.c    ****   *a_pp = p_e;
1156:src/x509.c    **** 
1157:src/x509.c    ****   if ( param->d_hash_algo != param->d_mgf_digest )
ARM GAS  C:\Users\AHMED~1.ELE\AppData\Local\Temp\ccaBET3e.s 			page 31


1158:src/x509.c    ****     return 0;
1159:src/x509.c    ****   /* only 0x1 are defined for the d_trailer_field so far. */ 
1160:src/x509.c    ****   if ( param->d_trailer_field != 1 )
1161:src/x509.c    ****     return 0;
1162:src/x509.c    ****   /* only id-mgf1 are defined for mask function */
1163:src/x509.c    ****   if( param->d_mask_gen_func != K_OIdMgf1 )
1164:src/x509.c    ****     return 0;
1165:src/x509.c    **** 
1166:src/x509.c    ****   return -1;
1167:src/x509.c    ****   
1168:src/x509.c    **** }
1169:src/x509.c    **** 
1170:src/x509.c    **** /*---------------------------------------------------------------------*/
1171:src/x509.c    **** static int x509_get_algorithm_identifier(BYTE **a_pp, int a_len, int *a_oi, T_RSAPSS_PARAM *a_pss, 
1172:src/x509.c    **** {
 521              		.loc 1 1172 0
 522              		.cfi_startproc
 523              		@ args = 4, pretend = 0, frame = 24
 524              		@ frame_needed = 0, uses_anonymous_args = 0
 525              	.LVL60:
 526 0000 2DE9F043 		push	{r4, r5, r6, r7, r8, r9, lr}
 527              		.cfi_def_cfa_offset 28
 528              		.cfi_offset 4, -28
 529              		.cfi_offset 5, -24
 530              		.cfi_offset 6, -20
 531              		.cfi_offset 7, -16
 532              		.cfi_offset 8, -12
 533              		.cfi_offset 9, -8
 534              		.cfi_offset 14, -4
1173:src/x509.c    ****   BYTE *  p;
1174:src/x509.c    ****   BYTE *  end;
1175:src/x509.c    ****   int     arcLen,llen;
1176:src/x509.c    **** 
1177:src/x509.c    ****   p = *a_pp;
 535              		.loc 1 1177 0
 536 0004 0568     		ldr	r5, [r0]
1172:src/x509.c    ****   BYTE *  p;
 537              		.loc 1 1172 0
 538 0006 87B0     		sub	sp, sp, #28
 539              		.cfi_def_cfa_offset 56
1178:src/x509.c    ****   end = p + a_len;
1179:src/x509.c    **** 
1180:src/x509.c    ****   if (a_len < 1 || x509_get_sequence(&p,a_len,&llen) == 0)
 540              		.loc 1 1180 0
 541 0008 0E1E     		subs	r6, r1, #0
1172:src/x509.c    ****   BYTE *  p;
 542              		.loc 1 1172 0
 543 000a 0746     		mov	r7, r0
 544 000c 9146     		mov	r9, r2
 545 000e 1C46     		mov	r4, r3
1177:src/x509.c    ****   end = p + a_len;
 546              		.loc 1 1177 0
 547 0010 0095     		str	r5, [sp]
 548              	.LVL61:
 549              		.loc 1 1180 0
 550 0012 01DC     		bgt	.L55
 551              	.LVL62:
ARM GAS  C:\Users\AHMED~1.ELE\AppData\Local\Temp\ccaBET3e.s 			page 32


 552              	.L57:
1181:src/x509.c    ****     return 0;
 553              		.loc 1 1181 0
 554 0014 0020     		movs	r0, #0
 555 0016 04E1     		b	.L56
 556              	.LVL63:
 557              	.L55:
1180:src/x509.c    ****     return 0;
 558              		.loc 1 1180 0 discriminator 1
 559 0018 6846     		mov	r0, sp
 560              	.LVL64:
 561 001a 02AA     		add	r2, sp, #8
 562              	.LVL65:
 563 001c FFF7FEFF 		bl	x509_get_sequence
 564              	.LVL66:
 565 0020 0028     		cmp	r0, #0
 566 0022 F7D0     		beq	.L57
1182:src/x509.c    **** 
1183:src/x509.c    ****   if (end - p < 1)
 567              		.loc 1 1183 0
 568 0024 009B     		ldr	r3, [sp]
1178:src/x509.c    **** 
 569              		.loc 1 1178 0
 570 0026 3544     		add	r5, r5, r6
 571              	.LVL67:
 572              		.loc 1 1183 0
 573 0028 EA1A     		subs	r2, r5, r3
 574 002a 002A     		cmp	r2, #0
 575 002c F2DD     		ble	.L57
1184:src/x509.c    ****     return 0;
1185:src/x509.c    **** 
1186:src/x509.c    ****   if (*(p++) != K_AsnOId || x509_get_asn_length(&p,(int)(end - p),&arcLen) == 0 ||
 576              		.loc 1 1186 0
 577 002e 591C     		adds	r1, r3, #1
 578 0030 0091     		str	r1, [sp]
 579 0032 1B78     		ldrb	r3, [r3]	@ zero_extendqisi2
 580 0034 062B     		cmp	r3, #6
 581 0036 EDD1     		bne	.L57
 582              		.loc 1 1186 0 is_stmt 0 discriminator 1
 583 0038 6846     		mov	r0, sp
 584 003a 691A     		subs	r1, r5, r1
 585 003c 01AA     		add	r2, sp, #4
 586 003e FFF7FEFF 		bl	x509_get_asn_length
 587              	.LVL68:
 588 0042 0028     		cmp	r0, #0
 589 0044 E6D0     		beq	.L57
1187:src/x509.c    ****       llen < arcLen)
 590              		.loc 1 1187 0 is_stmt 1 discriminator 2
 591 0046 DDF80480 		ldr	r8, [sp, #4]
1186:src/x509.c    ****       llen < arcLen)
 592              		.loc 1 1186 0 discriminator 2
 593 004a 029B     		ldr	r3, [sp, #8]
 594 004c 4345     		cmp	r3, r8
 595 004e E1DB     		blt	.L57
1188:src/x509.c    ****     return 0;
1189:src/x509.c    ****   /*
1190:src/x509.c    ****     List of expected (currently supported) OIDs
ARM GAS  C:\Users\AHMED~1.ELE\AppData\Local\Temp\ccaBET3e.s 			page 33


1191:src/x509.c    ****     algorithm               summed  length  hex
1192:src/x509.c    ****     s_x509_sha1             88      05      2b0e03021a
1193:src/x509.c    ****     md2                     646     08      2a864886f70d0202
1194:src/x509.c    ****     s_x509_md5              649     08      2a864886f70d0205
1195:src/x509.c    ****     rsaEncryption           645     09      2a864886f70d010101
1196:src/x509.c    ****     md2WithRSAEncryption    646     09      2a864886f70d010102
1197:src/x509.c    ****     md5WithRSAEncryption    648     09      2a864886f70d010104
1198:src/x509.c    ****     sha-1WithRSAEncryption  649     09      2a864886f70d010105
1199:src/x509.c    ****     sha224WithRSAEncryption 658     09      2a864886f70d01010e
1200:src/x509.c    ****     sha256WithRSAEncryption 655     09      2a864886f70d01010b
1201:src/x509.c    ****     sha384WithRSAEncryption 656     09      2a864886f70d01010c
1202:src/x509.c    ****     sha512WithRSAEncryption 657     09      2a864886f70d01010d
1203:src/x509.c    **** 
1204:src/x509.c    ****     Yes, the summing isn't ideal (as can be seen with the duplicate 649),
1205:src/x509.c    ****     but the specific implementation makes this ok.
1206:src/x509.c    ****   */
1207:src/x509.c    ****   if (end - p < 2)
 596              		.loc 1 1207 0
 597 0050 009E     		ldr	r6, [sp]
 598              	.LVL69:
 599 0052 AB1B     		subs	r3, r5, r6
 600 0054 012B     		cmp	r3, #1
 601 0056 DDDD     		ble	.L57
1208:src/x509.c    ****     return 0;
1209:src/x509.c    **** 
1210:src/x509.c    ****   if (a_isPubKey && (*p != 0x2a) && (*(p + 1) != 0x86))
 602              		.loc 1 1210 0
 603 0058 0E9B     		ldr	r3, [sp, #56]
 604 005a 2BB1     		cbz	r3, .L58
 605              		.loc 1 1210 0 is_stmt 0 discriminator 1
 606 005c 3378     		ldrb	r3, [r6]	@ zero_extendqisi2
 607 005e 2A2B     		cmp	r3, #42
 608 0060 02D0     		beq	.L58
 609              		.loc 1 1210 0 discriminator 2
 610 0062 7378     		ldrb	r3, [r6, #1]	@ zero_extendqisi2
 611 0064 862B     		cmp	r3, #134
 612 0066 D5D1     		bne	.L57
 613              	.L58:
1211:src/x509.c    ****     /*
1212:src/x509.c    ****       Expecting DSA here if not RSA, but OID doesn't always match
1213:src/x509.c    ****     */
1214:src/x509.c    ****     return 0;
1215:src/x509.c    **** 
1216:src/x509.c    **** #if 0
1217:src/x509.c    ****   *a_oi = 0;
1218:src/x509.c    ****   while (arcLen-- > 0)
1219:src/x509.c    ****     *a_oi += (int)*p++;
1220:src/x509.c    **** #else
1221:src/x509.c    ****   *a_oi = oid_to_hash_value(p,arcLen);
 614              		.loc 1 1221 0 is_stmt 1
 615 0068 4146     		mov	r1, r8
 616 006a 3046     		mov	r0, r6
 617 006c FFF7FEFF 		bl	oid_to_hash_value
 618              	.LVL70:
1222:src/x509.c    ****   p += arcLen;
1223:src/x509.c    **** #endif
1224:src/x509.c    **** 
ARM GAS  C:\Users\AHMED~1.ELE\AppData\Local\Temp\ccaBET3e.s 			page 34


1225:src/x509.c    ****   /* Kong: PKCS #1 v2.1 has specified two kind of signature padding schemem.
1226:src/x509.c    ****    *       Either RSASSA-PSS or RSASSA-PKCS1-V1_5.
1227:src/x509.c    ****    *       Special care should be applied to RSASSA-PSS algorithm ID.
1228:src/x509.c    ****    *       RSASSA-PKCS1-V1_5 all have a NULL following the algorithm OID.
1229:src/x509.c    ****    *       However, it is another sequence of parameters block after
1230:src/x509.c    ****    *       RSASSA-PSS OID.
1231:src/x509.c    ****    */
1232:src/x509.c    **** 
1233:src/x509.c    ****   if ( *a_oi != K_OIdRsaPSS )
 619              		.loc 1 1233 0
 620 0070 6D4A     		ldr	r2, .L119
1222:src/x509.c    ****   p += arcLen;
 621              		.loc 1 1222 0
 622 0072 06EB0803 		add	r3, r6, r8
 623 0076 E91A     		subs	r1, r5, r3
 624              		.loc 1 1233 0
 625 0078 9042     		cmp	r0, r2
1221:src/x509.c    ****   p += arcLen;
 626              		.loc 1 1221 0
 627 007a C9F80000 		str	r0, [r9]
1222:src/x509.c    ****   p += arcLen;
 628              		.loc 1 1222 0
 629 007e 0093     		str	r3, [sp]
 630              		.loc 1 1233 0
 631 0080 07D0     		beq	.L59
1234:src/x509.c    ****   {
1235:src/x509.c    **** 
1236:src/x509.c    ****     /* assume RSASSA-PKCS1-V1_5 algorithm IDs */
1237:src/x509.c    **** 
1238:src/x509.c    ****     /*
1239:src/x509.c    ****       Each of these cases should have a trailing NULL parameter.  Skip it
1240:src/x509.c    ****     */
1241:src/x509.c    ****     if (end - p < 2)
 632              		.loc 1 1241 0
 633 0082 0129     		cmp	r1, #1
 634 0084 C6DD     		ble	.L57
1242:src/x509.c    ****       return 0;
1243:src/x509.c    **** 
1244:src/x509.c    ****     if (*p != K_AsnNull)
 635              		.loc 1 1244 0
 636 0086 16F80820 		ldrb	r2, [r6, r8]	@ zero_extendqisi2
 637 008a 052A     		cmp	r2, #5
 638 008c C2D1     		bne	.L57
1245:src/x509.c    ****     {
1246:src/x509.c    ****       return 0;
1247:src/x509.c    ****     };
1248:src/x509.c    ****     *a_pp = p + 2;
 639              		.loc 1 1248 0
 640 008e 0233     		adds	r3, r3, #2
 641 0090 C4E0     		b	.L117
 642              	.L59:
 643              	.LVL71:
 644              	.LBB8:
 645              	.LBB9:
1056:src/x509.c    ****     return 0;
 646              		.loc 1 1056 0
 647 0092 0129     		cmp	r1, #1
ARM GAS  C:\Users\AHMED~1.ELE\AppData\Local\Temp\ccaBET3e.s 			page 35


1053:src/x509.c    ****   end = p + a_len;
 648              		.loc 1 1053 0
 649 0094 0393     		str	r3, [sp, #12]
 650              	.LVL72:
1056:src/x509.c    ****     return 0;
 651              		.loc 1 1056 0
 652 0096 BDDD     		ble	.L57
 653 0098 03A8     		add	r0, sp, #12
 654 009a 05AA     		add	r2, sp, #20
 655 009c FFF7FEFF 		bl	x509_get_sequence
 656              	.LVL73:
 657 00a0 0028     		cmp	r0, #0
 658 00a2 B7D0     		beq	.L57
1059:src/x509.c    ****   param->d_mask_gen_func = K_OIdMgf1;
 659              		.loc 1 1059 0
 660 00a4 614B     		ldr	r3, .L119+4
1060:src/x509.c    ****   param->d_mgf_digest = K_OIdSha1;
 661              		.loc 1 1060 0
 662 00a6 624A     		ldr	r2, .L119+8
1059:src/x509.c    ****   param->d_mask_gen_func = K_OIdMgf1;
 663              		.loc 1 1059 0
 664 00a8 2360     		str	r3, [r4]
1061:src/x509.c    ****   param->d_salt_length = 20;
 665              		.loc 1 1061 0
 666 00aa A360     		str	r3, [r4, #8]
1062:src/x509.c    ****   param->d_trailer_field = 1;
 667              		.loc 1 1062 0
 668 00ac 1423     		movs	r3, #20
1060:src/x509.c    ****   param->d_mgf_digest = K_OIdSha1;
 669              		.loc 1 1060 0
 670 00ae 6260     		str	r2, [r4, #4]
1062:src/x509.c    ****   param->d_trailer_field = 1;
 671              		.loc 1 1062 0
 672 00b0 E360     		str	r3, [r4, #12]
1063:src/x509.c    **** 
 673              		.loc 1 1063 0
 674 00b2 0123     		movs	r3, #1
 675 00b4 039E     		ldr	r6, [sp, #12]
 676              	.LVL74:
 677 00b6 2361     		str	r3, [r4, #16]
1065:src/x509.c    ****   {
 678              		.loc 1 1065 0
 679 00b8 059B     		ldr	r3, [sp, #20]
 680 00ba 0BB9     		cbnz	r3, .L63
1068:src/x509.c    ****     /* use default PSS parameters */
 681              		.loc 1 1068 0
 682 00bc 0096     		str	r6, [sp]
 683 00be ACE0     		b	.L116
 684              	.L63:
1074:src/x509.c    ****     return 0;
 685              		.loc 1 1074 0
 686 00c0 AD1B     		subs	r5, r5, r6
 687 00c2 9D42     		cmp	r5, r3
 688 00c4 A6DB     		blt	.L57
1079:src/x509.c    ****   while ( (int)(p_e - p) >= 2 ) {
 689              		.loc 1 1079 0
 690 00c6 1E44     		add	r6, r6, r3
ARM GAS  C:\Users\AHMED~1.ELE\AppData\Local\Temp\ccaBET3e.s 			page 36


 691              	.LVL75:
 692              	.L64:
1080:src/x509.c    **** 
 693              		.loc 1 1080 0
 694 00c8 039B     		ldr	r3, [sp, #12]
 695 00ca F21A     		subs	r2, r6, r3
 696 00cc 012A     		cmp	r2, #1
 697 00ce 40F39580 		ble	.L118
1083:src/x509.c    **** 
 698              		.loc 1 1083 0
 699 00d2 591C     		adds	r1, r3, #1
 700 00d4 0391     		str	r1, [sp, #12]
 701 00d6 1D78     		ldrb	r5, [r3]	@ zero_extendqisi2
 702              	.LVL76:
1085:src/x509.c    ****       return 0;
 703              		.loc 1 1085 0
 704 00d8 05F0A003 		and	r3, r5, #160
 705 00dc A02B     		cmp	r3, #160
 706 00de 99D1     		bne	.L57
1088:src/x509.c    ****     if ( tag > 3 )
 707              		.loc 1 1088 0
 708 00e0 05F01F05 		and	r5, r5, #31
 709              	.LVL77:
1089:src/x509.c    ****       return 0;                 /* error! */
 710              		.loc 1 1089 0
 711 00e4 032D     		cmp	r5, #3
 712 00e6 95D8     		bhi	.L57
1092:src/x509.c    ****       return 0;
 713              		.loc 1 1092 0
 714 00e8 03A8     		add	r0, sp, #12
 715 00ea 711A     		subs	r1, r6, r1
 716 00ec 04AA     		add	r2, sp, #16
 717 00ee FFF7FEFF 		bl	x509_get_asn_length
 718              	.LVL78:
 719 00f2 0028     		cmp	r0, #0
 720 00f4 8ED0     		beq	.L57
1097:src/x509.c    ****     /* dbg_printf("\ntag %d len = %d\n",tag, arcLen); */
 721              		.loc 1 1097 0
 722 00f6 0499     		ldr	r1, [sp, #16]
 723 00f8 039B     		ldr	r3, [sp, #12]
1101:src/x509.c    ****     {
 724              		.loc 1 1101 0
 725 00fa 022D     		cmp	r5, #2
1097:src/x509.c    ****     /* dbg_printf("\ntag %d len = %d\n",tag, arcLen); */
 726              		.loc 1 1097 0
 727 00fc 03EB0108 		add	r8, r3, r1
 728              	.LVL79:
1101:src/x509.c    ****     {
 729              		.loc 1 1101 0
 730 0100 60D0     		beq	.L66
 731 0102 032D     		cmp	r5, #3
 732 0104 6BD0     		beq	.L67
 733 0106 012D     		cmp	r5, #1
 734 0108 1BD0     		beq	.L68
1106:src/x509.c    **** 	return 0;
 735              		.loc 1 1106 0
 736 010a 0129     		cmp	r1, #1
ARM GAS  C:\Users\AHMED~1.ELE\AppData\Local\Temp\ccaBET3e.s 			page 37


 737 010c 82DD     		ble	.L57
 738 010e 03A8     		add	r0, sp, #12
 739 0110 04AA     		add	r2, sp, #16
 740 0112 FFF7FEFF 		bl	x509_get_sequence
 741              	.LVL80:
 742 0116 0028     		cmp	r0, #0
 743 0118 3FF47CAF 		beq	.L57
1108:src/x509.c    **** 	return 0;
 744              		.loc 1 1108 0
 745 011c 0399     		ldr	r1, [sp, #12]
 746 011e C1EB0801 		rsb	r1, r1, r8
 747 0122 0129     		cmp	r1, #1
 748 0124 7FF776AF 		ble	.L57
 749 0128 03A8     		add	r0, sp, #12
 750 012a 04AA     		add	r2, sp, #16
 751 012c FFF7FEFF 		bl	x509_get_oid
 752              	.LVL81:
 753 0130 0028     		cmp	r0, #0
 754 0132 3FF46FAF 		beq	.L57
1111:src/x509.c    ****       /* dbg_printf("tag %u oid hash 0x%08x\n",tag,param->d_hash_algo); */
 755              		.loc 1 1111 0
 756 0136 0398     		ldr	r0, [sp, #12]
 757 0138 0499     		ldr	r1, [sp, #16]
 758 013a FFF7FEFF 		bl	oid_to_hash_value
 759              	.LVL82:
 760 013e 2060     		str	r0, [r4]
 761 0140 59E0     		b	.L69
 762              	.L68:
1117:src/x509.c    **** 	return 0;
 763              		.loc 1 1117 0
 764 0142 0129     		cmp	r1, #1
 765 0144 7FF766AF 		ble	.L57
 766 0148 03A8     		add	r0, sp, #12
 767 014a 04AA     		add	r2, sp, #16
 768 014c FFF7FEFF 		bl	x509_get_sequence
 769              	.LVL83:
 770 0150 0028     		cmp	r0, #0
 771 0152 3FF45FAF 		beq	.L57
1119:src/x509.c    **** 	return 0;
 772              		.loc 1 1119 0
 773 0156 0399     		ldr	r1, [sp, #12]
 774 0158 C1EB0801 		rsb	r1, r1, r8
 775 015c 0129     		cmp	r1, #1
 776 015e 7FF759AF 		ble	.L57
 777 0162 03A8     		add	r0, sp, #12
 778 0164 04AA     		add	r2, sp, #16
 779 0166 FFF7FEFF 		bl	x509_get_oid
 780              	.LVL84:
 781 016a 0028     		cmp	r0, #0
 782 016c 3FF452AF 		beq	.L57
1122:src/x509.c    ****       /* dbg_printf("tag %u oid hash #1 0x%08x\n",tag,param->d_mask_gen_func); */
 783              		.loc 1 1122 0
 784 0170 DDF80C90 		ldr	r9, [sp, #12]
 785 0174 049D     		ldr	r5, [sp, #16]
 786              	.LVL85:
 787 0176 4846     		mov	r0, r9
 788 0178 2946     		mov	r1, r5
ARM GAS  C:\Users\AHMED~1.ELE\AppData\Local\Temp\ccaBET3e.s 			page 38


 789 017a FFF7FEFF 		bl	oid_to_hash_value
 790              	.LVL86:
1124:src/x509.c    **** 
 791              		.loc 1 1124 0
 792 017e 09EB0501 		add	r1, r9, r5
 793 0182 0391     		str	r1, [sp, #12]
1126:src/x509.c    **** 	return 0;
 794              		.loc 1 1126 0
 795 0184 C1EB0801 		rsb	r1, r1, r8
 796 0188 0129     		cmp	r1, #1
1122:src/x509.c    ****       /* dbg_printf("tag %u oid hash #1 0x%08x\n",tag,param->d_mask_gen_func); */
 797              		.loc 1 1122 0
 798 018a 6060     		str	r0, [r4, #4]
1126:src/x509.c    **** 	return 0;
 799              		.loc 1 1126 0
 800 018c 7FF742AF 		ble	.L57
 801 0190 03A8     		add	r0, sp, #12
 802 0192 04AA     		add	r2, sp, #16
 803 0194 FFF7FEFF 		bl	x509_get_sequence
 804              	.LVL87:
 805 0198 0028     		cmp	r0, #0
 806 019a 3FF43BAF 		beq	.L57
1128:src/x509.c    **** 	return 0;
 807              		.loc 1 1128 0
 808 019e 0399     		ldr	r1, [sp, #12]
 809 01a0 C1EB0801 		rsb	r1, r1, r8
 810 01a4 0129     		cmp	r1, #1
 811 01a6 7FF735AF 		ble	.L57
 812 01aa 03A8     		add	r0, sp, #12
 813 01ac 04AA     		add	r2, sp, #16
 814 01ae FFF7FEFF 		bl	x509_get_oid
 815              	.LVL88:
 816 01b2 0028     		cmp	r0, #0
 817 01b4 3FF42EAF 		beq	.L57
1130:src/x509.c    ****       /* dbg_printf("tag %u oid hash #2 0x%08x\n",tag,param->d_mgf_digest); */
 818              		.loc 1 1130 0
 819 01b8 0398     		ldr	r0, [sp, #12]
 820 01ba 0499     		ldr	r1, [sp, #16]
 821 01bc FFF7FEFF 		bl	oid_to_hash_value
 822              	.LVL89:
 823 01c0 A060     		str	r0, [r4, #8]
 824 01c2 18E0     		b	.L69
 825              	.LVL90:
 826              	.L66:
1136:src/x509.c    ****       return 0;
 827              		.loc 1 1136 0
 828 01c4 0129     		cmp	r1, #1
 829 01c6 7FF725AF 		ble	.L57
 830 01ca 03A8     		add	r0, sp, #12
 831 01cc 04AA     		add	r2, sp, #16
 832 01ce FFF7FEFF 		bl	x509_get_integer
 833              	.LVL91:
 834 01d2 0028     		cmp	r0, #0
 835 01d4 3FF41EAF 		beq	.L57
1138:src/x509.c    ****       /* dbg_printf("tag %u salt-length = %u\n",tag,param->d_salt_length); */
 836              		.loc 1 1138 0
 837 01d8 049B     		ldr	r3, [sp, #16]
ARM GAS  C:\Users\AHMED~1.ELE\AppData\Local\Temp\ccaBET3e.s 			page 39


 838 01da E360     		str	r3, [r4, #12]
 839 01dc 0BE0     		b	.L69
 840              	.L67:
1144:src/x509.c    **** 	return 0;
 841              		.loc 1 1144 0
 842 01de 0129     		cmp	r1, #1
 843 01e0 7FF718AF 		ble	.L57
 844 01e4 03A8     		add	r0, sp, #12
 845 01e6 04AA     		add	r2, sp, #16
 846 01e8 FFF7FEFF 		bl	x509_get_integer
 847              	.LVL92:
 848 01ec 0028     		cmp	r0, #0
 849 01ee 3FF411AF 		beq	.L57
1146:src/x509.c    ****       /* dbg_printf("tag %u trailer-field = %u\n",tag,param->d_trailer_field); */
 850              		.loc 1 1146 0
 851 01f2 049B     		ldr	r3, [sp, #16]
 852 01f4 2361     		str	r3, [r4, #16]
 853              	.LVL93:
 854              	.L69:
1151:src/x509.c    ****     
 855              		.loc 1 1151 0
 856 01f6 CDF80C80 		str	r8, [sp, #12]
 857 01fa 65E7     		b	.L64
 858              	.LVL94:
 859              	.L118:
1157:src/x509.c    ****     return 0;
 860              		.loc 1 1157 0
 861 01fc 2268     		ldr	r2, [r4]
 862 01fe A368     		ldr	r3, [r4, #8]
1155:src/x509.c    **** 
 863              		.loc 1 1155 0
 864 0200 0096     		str	r6, [sp]
1157:src/x509.c    ****     return 0;
 865              		.loc 1 1157 0
 866 0202 9A42     		cmp	r2, r3
 867 0204 7FF406AF 		bne	.L57
1160:src/x509.c    ****     return 0;
 868              		.loc 1 1160 0
 869 0208 2369     		ldr	r3, [r4, #16]
 870 020a 012B     		cmp	r3, #1
 871 020c 7FF402AF 		bne	.L57
1163:src/x509.c    ****     return 0;
 872              		.loc 1 1163 0
 873 0210 6268     		ldr	r2, [r4, #4]
 874              	.LBE9:
 875              	.LBE8:
1249:src/x509.c    ****     return -1;
1250:src/x509.c    ****     
1251:src/x509.c    ****   } else {
1252:src/x509.c    **** 
1253:src/x509.c    ****     /* parameter description of PSS is a constructred sequence */
1254:src/x509.c    ****     if ( x509_get_rsapss_param(&p,(int)(end-p),a_pss) == 0 )
 876              		.loc 1 1254 0
 877 0212 074B     		ldr	r3, .L119+8
 878 0214 9A42     		cmp	r2, r3
 879 0216 7FF4FDAE 		bne	.L57
 880              	.LVL95:
ARM GAS  C:\Users\AHMED~1.ELE\AppData\Local\Temp\ccaBET3e.s 			page 40


 881              	.L116:
1255:src/x509.c    ****     {
1256:src/x509.c    ****       return 0;
1257:src/x509.c    ****     }
1258:src/x509.c    **** 
1259:src/x509.c    ****     *a_pp = p;
 882              		.loc 1 1259 0
 883 021a 009B     		ldr	r3, [sp]
 884              	.LVL96:
 885              	.L117:
1260:src/x509.c    ****     return -1;
 886              		.loc 1 1260 0
 887 021c 4FF0FF30 		mov	r0, #-1
1259:src/x509.c    ****     return -1;
 888              		.loc 1 1259 0
 889 0220 3B60     		str	r3, [r7]
 890              	.L56:
1261:src/x509.c    ****   }
1262:src/x509.c    **** }
 891              		.loc 1 1262 0
 892 0222 07B0     		add	sp, sp, #28
 893              		.cfi_def_cfa_offset 28
 894              		@ sp needed
 895 0224 BDE8F083 		pop	{r4, r5, r6, r7, r8, r9, pc}
 896              	.LVL97:
 897              	.L120:
 898              		.align	2
 899              	.L119:
 900 0228 F77E758B 		.word	-1955234057
 901 022c DB2B5706 		.word	106376155
 902 0230 F57E758B 		.word	-1955234059
 903              		.cfi_endproc
 904              	.LFE15:
 905              		.size	x509_get_algorithm_identifier, .-x509_get_algorithm_identifier
 906              		.section	.text.unlikely.x509_get_big,"ax",%progbits
 907              		.align	1
 908              		.thumb
 909              		.thumb_func
 910              		.type	x509_get_big, %function
 911              	x509_get_big:
 912              	.LFB18:
1263:src/x509.c    **** 
1264:src/x509.c    **** /*---------------------------------------------------------------------*/
1265:src/x509.c    **** static void x509_generalize_time(BYTE a_timeFormat, int a_timeLen, BYTE* a_inTime, BYTE* a_outTime)
1266:src/x509.c    **** {
1267:src/x509.c    ****   if (a_timeFormat == K_AsnUtcTime)
1268:src/x509.c    ****   {
1269:src/x509.c    ****     if (a_inTime[0] >= '5')
1270:src/x509.c    ****     {
1271:src/x509.c    ****       a_outTime[0] = '1';
1272:src/x509.c    ****       a_outTime[1] = '9';
1273:src/x509.c    ****     }
1274:src/x509.c    ****     else
1275:src/x509.c    ****     {
1276:src/x509.c    ****       a_outTime[0] = '2';
1277:src/x509.c    ****       a_outTime[1] = '0';
1278:src/x509.c    ****     }
ARM GAS  C:\Users\AHMED~1.ELE\AppData\Local\Temp\ccaBET3e.s 			page 41


1279:src/x509.c    ****     memcpy(&a_outTime[2], a_inTime, a_timeLen);
1280:src/x509.c    ****     a_outTime[a_timeLen+1] = 0;
1281:src/x509.c    ****   }
1282:src/x509.c    ****   else
1283:src/x509.c    ****   {
1284:src/x509.c    ****     memcpy(a_outTime, a_inTime, a_timeLen);
1285:src/x509.c    ****     a_outTime[a_timeLen-1] = 0;
1286:src/x509.c    ****   }
1287:src/x509.c    **** }
1288:src/x509.c    **** 
1289:src/x509.c    **** /*---------------------------------------------------------------------*/
1290:src/x509.c    **** static int x509_get_validity(BYTE ** a_pp,int a_len)
1291:src/x509.c    **** {
1292:src/x509.c    ****   BYTE *  p;
1293:src/x509.c    ****   BYTE *  end;
1294:src/x509.c    ****   int     seqLen,timeLen;
1295:src/x509.c    ****   BYTE    timeFormat;
1296:src/x509.c    ****   BYTE    currTime[15];
1297:src/x509.c    ****   BYTE    notBefore[15];
1298:src/x509.c    ****   BYTE    notAfter[15];
1299:src/x509.c    **** 
1300:src/x509.c    ****   p = *a_pp;
1301:src/x509.c    ****   end = p + a_len;
1302:src/x509.c    ****   if (a_len<1 || *(p++)!=(K_AsnSequence|K_AsnConstructed) ||
1303:src/x509.c    ****       x509_get_asn_length(&p,a_len-1,&seqLen)==0 || (end-p)<seqLen)
1304:src/x509.c    ****     return 0;
1305:src/x509.c    **** /*
1306:src/x509.c    ****   Have notBefore and notAfter times in UTCTime or GeneralizedTime formats
1307:src/x509.c    **** */
1308:src/x509.c    ****   if ((end-p)<1 || ((*p!=K_AsnUtcTime) && (*p!=K_AsnGeneralizedTime)))
1309:src/x509.c    ****     return 0;
1310:src/x509.c    **** 
1311:src/x509.c    ****   timeFormat = *p;
1312:src/x509.c    **** 
1313:src/x509.c    ****   p++;
1314:src/x509.c    **** /*
1315:src/x509.c    ****   Allocate them as null terminated strings
1316:src/x509.c    **** */
1317:src/x509.c    ****   if (x509_get_asn_length(&p,seqLen,&timeLen)==0 || (end-p)<timeLen)
1318:src/x509.c    ****     return 0;
1319:src/x509.c    **** 
1320:src/x509.c    ****   /* os_rtc_get(currTime); */
1321:src/x509.c    ****   EXEC_RTC_GET(currTime);
1322:src/x509.c    ****   currTime[14] = 0;
1323:src/x509.c    ****   x509_generalize_time(timeFormat, timeLen, p, notBefore);
1324:src/x509.c    ****   if (memcmp(currTime, notBefore, 14) < 0)
1325:src/x509.c    ****     return 0;
1326:src/x509.c    **** 
1327:src/x509.c    ****   p = p + timeLen;
1328:src/x509.c    ****   if ((end-p)<1 || ((*p!=K_AsnUtcTime) && (*p!=K_AsnGeneralizedTime)))
1329:src/x509.c    ****     return 0;
1330:src/x509.c    **** 
1331:src/x509.c    ****   timeFormat = *p;
1332:src/x509.c    **** 
1333:src/x509.c    ****   p++;
1334:src/x509.c    ****   if (x509_get_asn_length(&p,seqLen-timeLen,&timeLen)==0 || (end-p)<timeLen)
1335:src/x509.c    ****     return 0;
ARM GAS  C:\Users\AHMED~1.ELE\AppData\Local\Temp\ccaBET3e.s 			page 42


1336:src/x509.c    **** 
1337:src/x509.c    ****   x509_generalize_time(timeFormat, timeLen, p, notAfter);
1338:src/x509.c    ****   if (memcmp(currTime, notAfter, 14) > 0)
1339:src/x509.c    ****     return 0;
1340:src/x509.c    **** 
1341:src/x509.c    ****   p = p + timeLen;
1342:src/x509.c    ****   *a_pp = p;
1343:src/x509.c    ****   return -1;
1344:src/x509.c    **** }
1345:src/x509.c    **** 
1346:src/x509.c    **** /*---------------------------------------------------------------------*/
1347:src/x509.c    **** static int x509_get_big(BYTE ** a_pp,int a_len,BYTE * a_big,DWORD * a_keylen)
1348:src/x509.c    **** {
 913              		.loc 1 1348 0
 914              		.cfi_startproc
 915              		@ args = 0, pretend = 0, frame = 8
 916              		@ frame_needed = 0, uses_anonymous_args = 0
 917              	.LVL98:
 918 0000 F7B5     		push	{r0, r1, r2, r4, r5, r6, r7, lr}
 919              		.cfi_def_cfa_offset 32
 920              		.cfi_offset 4, -20
 921              		.cfi_offset 5, -16
 922              		.cfi_offset 6, -12
 923              		.cfi_offset 7, -8
 924              		.cfi_offset 14, -4
1349:src/x509.c    ****   BYTE *  p;
1350:src/x509.c    ****   int     vlen;
1351:src/x509.c    **** 
1352:src/x509.c    ****   p = *a_pp;
1353:src/x509.c    ****   if (a_len < 1 || *(p++) != K_AsnInteger ||
 925              		.loc 1 1353 0
 926 0002 0029     		cmp	r1, #0
1348:src/x509.c    ****   BYTE *  p;
 927              		.loc 1 1348 0
 928 0004 1E46     		mov	r6, r3
 929 0006 0546     		mov	r5, r0
 930 0008 1746     		mov	r7, r2
1352:src/x509.c    ****   if (a_len < 1 || *(p++) != K_AsnInteger ||
 931              		.loc 1 1352 0
 932 000a 0368     		ldr	r3, [r0]
 933              	.LVL99:
 934              		.loc 1 1353 0
 935 000c 01DC     		bgt	.L122
 936              	.LVL100:
 937              	.L124:
1354:src/x509.c    ****       x509_get_asn_length(&p,a_len-1,&vlen) == 0)
1355:src/x509.c    ****     return 0;
 938              		.loc 1 1355 0
 939 000e 0020     		movs	r0, #0
 940 0010 22E0     		b	.L123
 941              	.LVL101:
 942              	.L122:
1353:src/x509.c    ****       x509_get_asn_length(&p,a_len-1,&vlen) == 0)
 943              		.loc 1 1353 0 discriminator 1
 944 0012 5A1C     		adds	r2, r3, #1
 945              	.LVL102:
 946 0014 0092     		str	r2, [sp]
ARM GAS  C:\Users\AHMED~1.ELE\AppData\Local\Temp\ccaBET3e.s 			page 43


 947 0016 1B78     		ldrb	r3, [r3]	@ zero_extendqisi2
 948 0018 022B     		cmp	r3, #2
 949 001a F8D1     		bne	.L124
1354:src/x509.c    ****       x509_get_asn_length(&p,a_len-1,&vlen) == 0)
 950              		.loc 1 1354 0 discriminator 2
 951 001c 6846     		mov	r0, sp
 952              	.LVL103:
 953 001e 0139     		subs	r1, r1, #1
 954              	.LVL104:
 955 0020 01AA     		add	r2, sp, #4
 956 0022 FFF7FEFF 		bl	x509_get_asn_length
 957              	.LVL105:
1353:src/x509.c    ****       x509_get_asn_length(&p,a_len-1,&vlen) == 0)
 958              		.loc 1 1353 0 discriminator 2
 959 0026 0028     		cmp	r0, #0
 960 0028 F1D0     		beq	.L124
1356:src/x509.c    **** 
1357:src/x509.c    ****   if (*p == 0)
 961              		.loc 1 1357 0
 962 002a 009A     		ldr	r2, [sp]
 963 002c 1378     		ldrb	r3, [r2]	@ zero_extendqisi2
 964 002e 23B9     		cbnz	r3, .L125
1358:src/x509.c    ****   {
1359:src/x509.c    ****     p++;
 965              		.loc 1 1359 0
 966 0030 0132     		adds	r2, r2, #1
 967 0032 0092     		str	r2, [sp]
1360:src/x509.c    ****     vlen--;
 968              		.loc 1 1360 0
 969 0034 019A     		ldr	r2, [sp, #4]
 970 0036 013A     		subs	r2, r2, #1
 971 0038 0192     		str	r2, [sp, #4]
 972              	.L125:
1361:src/x509.c    ****   }
1362:src/x509.c    **** 
1363:src/x509.c    ****   if (vlen > *a_keylen)
 973              		.loc 1 1363 0
 974 003a 019C     		ldr	r4, [sp, #4]
 975 003c 3368     		ldr	r3, [r6]
 976 003e 9C42     		cmp	r4, r3
 977 0040 E5D8     		bhi	.L124
1364:src/x509.c    ****   {
1365:src/x509.c    **** #if defined(KONG_DEBUG_X509_MODULE)
1366:src/x509.c    ****     dbg_printf("*** get_big() length error %d vs %d\r\n",
1367:src/x509.c    ****                vlen, *a_keylen);
1368:src/x509.c    **** #endif
1369:src/x509.c    ****     return 0;
1370:src/x509.c    ****   };
1371:src/x509.c    **** 
1372:src/x509.c    ****   *a_keylen = vlen;
 978              		.loc 1 1372 0
 979 0042 3460     		str	r4, [r6]
1373:src/x509.c    ****   memcpy(a_big,(void*)p,vlen);
 980              		.loc 1 1373 0
 981 0044 009E     		ldr	r6, [sp]
 982              	.LVL106:
 983 0046 2246     		mov	r2, r4
ARM GAS  C:\Users\AHMED~1.ELE\AppData\Local\Temp\ccaBET3e.s 			page 44


 984 0048 3846     		mov	r0, r7
 985 004a 3146     		mov	r1, r6
 986 004c FFF7FEFF 		bl	memcpy
 987              	.LVL107:
1374:src/x509.c    **** 
1375:src/x509.c    ****   p += vlen;
 988              		.loc 1 1375 0
 989 0050 3444     		add	r4, r4, r6
 990              	.LVL108:
1376:src/x509.c    ****   *a_pp = p;
1377:src/x509.c    **** 
1378:src/x509.c    ****   return -1;
 991              		.loc 1 1378 0
 992 0052 4FF0FF30 		mov	r0, #-1
1376:src/x509.c    ****   *a_pp = p;
 993              		.loc 1 1376 0
 994 0056 2C60     		str	r4, [r5]
 995              	.LVL109:
 996              	.L123:
1379:src/x509.c    **** }
 997              		.loc 1 1379 0
 998 0058 03B0     		add	sp, sp, #12
 999              		.cfi_def_cfa_offset 20
 1000              		@ sp needed
 1001 005a F0BD     		pop	{r4, r5, r6, r7, pc}
 1002              		.cfi_endproc
 1003              	.LFE18:
 1004              		.size	x509_get_big, .-x509_get_big
 1005              		.section	.text.unlikely.x509_get_dn_attrib,"ax",%progbits
 1006              		.align	1
 1007              		.thumb
 1008              		.thumb_func
 1009              		.type	x509_get_dn_attrib, %function
 1010              	x509_get_dn_attrib:
 1011              	.LFB8:
 413:src/x509.c    **** /* sslSha1Context_t hash; */
 1012              		.loc 1 413 0
 1013              		.cfi_startproc
 1014              		@ args = 0, pretend = 0, frame = 360
 1015              		@ frame_needed = 0, uses_anonymous_args = 0
 1016              	.LVL110:
 1017 0000 F0B5     		push	{r4, r5, r6, r7, lr}
 1018              		.cfi_def_cfa_offset 20
 1019              		.cfi_offset 4, -20
 1020              		.cfi_offset 5, -16
 1021              		.cfi_offset 6, -12
 1022              		.cfi_offset 7, -8
 1023              		.cfi_offset 14, -4
 420:src/x509.c    ****   if (x509_get_sequence(&p,a_len,&llen) == 0)
 1024              		.loc 1 420 0
 1025 0002 0368     		ldr	r3, [r0]
 413:src/x509.c    **** /* sslSha1Context_t hash; */
 1026              		.loc 1 413 0
 1027 0004 DBB0     		sub	sp, sp, #364
 1028              		.cfi_def_cfa_offset 384
 413:src/x509.c    **** /* sslSha1Context_t hash; */
 1029              		.loc 1 413 0
ARM GAS  C:\Users\AHMED~1.ELE\AppData\Local\Temp\ccaBET3e.s 			page 45


 1030 0006 0646     		mov	r6, r0
 1031 0008 1546     		mov	r5, r2
 421:src/x509.c    ****     return 0;
 1032              		.loc 1 421 0
 1033 000a 01A8     		add	r0, sp, #4
 1034              	.LVL111:
 1035 000c 02AA     		add	r2, sp, #8
 1036              	.LVL112:
 420:src/x509.c    ****   if (x509_get_sequence(&p,a_len,&llen) == 0)
 1037              		.loc 1 420 0
 1038 000e 0193     		str	r3, [sp, #4]
 421:src/x509.c    ****     return 0;
 1039              		.loc 1 421 0
 1040 0010 FFF7FEFF 		bl	x509_get_sequence
 1041              	.LVL113:
 1042 0014 08B9     		cbnz	r0, .L130
 1043              	.LVL114:
 1044              	.L137:
 422:src/x509.c    **** 
 1045              		.loc 1 422 0
 1046 0016 0020     		movs	r0, #0
 1047 0018 95E0     		b	.L131
 1048              	.LVL115:
 1049              	.L130:
 424:src/x509.c    **** 
 1050              		.loc 1 424 0
 1051 001a 019C     		ldr	r4, [sp, #4]
 1052 001c 029B     		ldr	r3, [sp, #8]
 1053 001e 1C44     		add	r4, r4, r3
 1054              	.LVL116:
 426:src/x509.c    ****   {
 1055              		.loc 1 426 0
 1056 0020 002D     		cmp	r5, #0
 1057 0022 5BD0     		beq	.L133
 428:src/x509.c    ****     EXEC_SHA1_UPDATE(&sha1_ctx,p,llen);
 1058              		.loc 1 428 0
 1059 0024 0022     		movs	r2, #0
 1060 0026 06A9     		add	r1, sp, #24
 1061 0028 1346     		mov	r3, r2
 1062 002a 5420     		movs	r0, #84
 1063 002c FFF7FEFF 		bl	sys_func3
 1064              	.LVL117:
 429:src/x509.c    ****     EXEC_SHA1_FINISH(&sha1_ctx,a_dn_mac);
 1065              		.loc 1 429 0
 1066 0030 06A9     		add	r1, sp, #24
 1067 0032 019A     		ldr	r2, [sp, #4]
 1068 0034 029B     		ldr	r3, [sp, #8]
 1069 0036 5520     		movs	r0, #85
 1070 0038 FFF7FEFF 		bl	sys_func3
 1071              	.LVL118:
 430:src/x509.c    ****   }
 1072              		.loc 1 430 0
 1073 003c 06A9     		add	r1, sp, #24
 1074 003e 2A46     		mov	r2, r5
 1075 0040 5620     		movs	r0, #86
 1076 0042 FFF7FEFF 		bl	sys_func2
 1077              	.LVL119:
ARM GAS  C:\Users\AHMED~1.ELE\AppData\Local\Temp\ccaBET3e.s 			page 46


 1078 0046 49E0     		b	.L133
 1079              	.LVL120:
 1080              	.L143:
 436:src/x509.c    ****       return 0;
 1081              		.loc 1 436 0
 1082 0048 E51A     		subs	r5, r4, r3
 1083              	.LVL121:
 1084              	.LBB12:
 1085              	.LBB13:
 365:src/x509.c    ****       x509_get_asn_length(&p,a_len-1,a_setlen)==0 || a_len<*a_setlen)
 1086              		.loc 1 365 0
 1087 004a 002D     		cmp	r5, #0
 1088 004c E3DD     		ble	.L137
 1089 004e 5A1C     		adds	r2, r3, #1
 1090 0050 0592     		str	r2, [sp, #20]
 1091 0052 1B78     		ldrb	r3, [r3]	@ zero_extendqisi2
 1092 0054 312B     		cmp	r3, #49
 1093 0056 DED1     		bne	.L137
 366:src/x509.c    ****     return 0;
 1094              		.loc 1 366 0
 1095 0058 05A8     		add	r0, sp, #20
 1096 005a 691E     		subs	r1, r5, #1
 1097 005c 03AA     		add	r2, sp, #12
 1098              	.LVL122:
 1099 005e FFF7FEFF 		bl	x509_get_asn_length
 1100              	.LVL123:
 365:src/x509.c    ****       x509_get_asn_length(&p,a_len-1,a_setlen)==0 || a_len<*a_setlen)
 1101              		.loc 1 365 0
 1102 0062 0028     		cmp	r0, #0
 1103 0064 D7D0     		beq	.L137
 366:src/x509.c    ****     return 0;
 1104              		.loc 1 366 0
 1105 0066 039B     		ldr	r3, [sp, #12]
 1106 0068 9D42     		cmp	r5, r3
 1107 006a D4DB     		blt	.L137
 369:src/x509.c    ****   return -1;
 1108              		.loc 1 369 0
 1109 006c 0599     		ldr	r1, [sp, #20]
 1110              	.LBE13:
 1111              	.LBE12:
 438:src/x509.c    ****       return 0;
 1112              		.loc 1 438 0
 1113 006e 01A8     		add	r0, sp, #4
 1114              	.LVL124:
 1115              	.LBB15:
 1116              	.LBB14:
 369:src/x509.c    ****   return -1;
 1117              		.loc 1 369 0
 1118 0070 0191     		str	r1, [sp, #4]
 1119              	.LBE14:
 1120              	.LBE15:
 438:src/x509.c    ****       return 0;
 1121              		.loc 1 438 0
 1122 0072 02AA     		add	r2, sp, #8
 1123 0074 611A     		subs	r1, r4, r1
 1124 0076 FFF7FEFF 		bl	x509_get_sequence
 1125              	.LVL125:
ARM GAS  C:\Users\AHMED~1.ELE\AppData\Local\Temp\ccaBET3e.s 			page 47


 1126 007a 0028     		cmp	r0, #0
 1127 007c CBD0     		beq	.L137
 440:src/x509.c    ****         x509_get_asn_length(&p,(int)(dnEnd - p),&arcLen) == 0 ||
 1128              		.loc 1 440 0
 1129 007e 019B     		ldr	r3, [sp, #4]
 1130 0080 9C42     		cmp	r4, r3
 1131 0082 C8D9     		bls	.L137
 440:src/x509.c    ****         x509_get_asn_length(&p,(int)(dnEnd - p),&arcLen) == 0 ||
 1132              		.loc 1 440 0 is_stmt 0 discriminator 1
 1133 0084 591C     		adds	r1, r3, #1
 1134 0086 0191     		str	r1, [sp, #4]
 1135 0088 1B78     		ldrb	r3, [r3]	@ zero_extendqisi2
 1136 008a 062B     		cmp	r3, #6
 1137 008c C3D1     		bne	.L137
 441:src/x509.c    ****         (dnEnd - p) < arcLen)
 1138              		.loc 1 441 0 is_stmt 1 discriminator 2
 1139 008e 01A8     		add	r0, sp, #4
 1140              	.LVL126:
 1141 0090 611A     		subs	r1, r4, r1
 1142 0092 04AA     		add	r2, sp, #16
 1143 0094 FFF7FEFF 		bl	x509_get_asn_length
 1144              	.LVL127:
 440:src/x509.c    ****         x509_get_asn_length(&p,(int)(dnEnd - p),&arcLen) == 0 ||
 1145              		.loc 1 440 0 discriminator 2
 1146 0098 0028     		cmp	r0, #0
 1147 009a BCD0     		beq	.L137
 442:src/x509.c    ****       return 0;
 1148              		.loc 1 442 0
 1149 009c 019B     		ldr	r3, [sp, #4]
 1150 009e 0499     		ldr	r1, [sp, #16]
 1151 00a0 E01A     		subs	r0, r4, r3
 441:src/x509.c    ****         (dnEnd - p) < arcLen)
 1152              		.loc 1 441 0
 1153 00a2 8842     		cmp	r0, r1
 1154 00a4 B7DB     		blt	.L137
 459:src/x509.c    ****       return 0;
 1155              		.loc 1 459 0
 1156 00a6 0128     		cmp	r0, #1
 453:src/x509.c    **** /*
 1157              		.loc 1 453 0
 1158 00a8 3360     		str	r3, [r6]
 459:src/x509.c    ****       return 0;
 1159              		.loc 1 459 0
 1160 00aa B4DD     		ble	.L137
 461:src/x509.c    ****     {
 1161              		.loc 1 461 0
 1162 00ac 5A1C     		adds	r2, r3, #1
 1163 00ae 0192     		str	r2, [sp, #4]
 1164 00b0 1A78     		ldrb	r2, [r3]	@ zero_extendqisi2
 1165 00b2 552A     		cmp	r2, #85
 1166 00b4 16D0     		beq	.L138
 1167              	.LVL128:
 1168              	.L140:
 468:src/x509.c    ****         return 0;
 1169              		.loc 1 468 0
 1170 00b6 8142     		cmp	r1, r0
 1171 00b8 ADDA     		bge	.L137
ARM GAS  C:\Users\AHMED~1.ELE\AppData\Local\Temp\ccaBET3e.s 			page 48


 470:src/x509.c    ****       if (x509_get_asn_length(&p,(int)(dnEnd - p),&llen) == 0 ||
 1172              		.loc 1 470 0
 1173 00ba 0131     		adds	r1, r1, #1
 1174 00bc 1944     		add	r1, r1, r3
 471:src/x509.c    ****           dnEnd - p < llen)
 1175              		.loc 1 471 0
 1176 00be 01A8     		add	r0, sp, #4
 1177              	.LVL129:
 470:src/x509.c    ****       if (x509_get_asn_length(&p,(int)(dnEnd - p),&llen) == 0 ||
 1178              		.loc 1 470 0
 1179 00c0 0191     		str	r1, [sp, #4]
 471:src/x509.c    ****           dnEnd - p < llen)
 1180              		.loc 1 471 0
 1181 00c2 02AA     		add	r2, sp, #8
 1182 00c4 611A     		subs	r1, r4, r1
 1183 00c6 FFF7FEFF 		bl	x509_get_asn_length
 1184              	.LVL130:
 1185 00ca 0028     		cmp	r0, #0
 1186 00cc A3D0     		beq	.L137
 472:src/x509.c    ****         return 0;
 1187              		.loc 1 472 0 discriminator 1
 1188 00ce 019A     		ldr	r2, [sp, #4]
 1189 00d0 029B     		ldr	r3, [sp, #8]
 1190 00d2 A11A     		subs	r1, r4, r2
 471:src/x509.c    ****           dnEnd - p < llen)
 1191              		.loc 1 471 0 discriminator 1
 1192 00d4 9942     		cmp	r1, r3
 1193 00d6 9EDB     		blt	.L137
 474:src/x509.c    ****       continue;
 1194              		.loc 1 474 0
 1195 00d8 1344     		add	r3, r3, r2
 1196 00da 0193     		str	r3, [sp, #4]
 1197              	.LVL131:
 1198              	.L133:
 434:src/x509.c    ****   {
 1199              		.loc 1 434 0
 1200 00dc 019B     		ldr	r3, [sp, #4]
 1201 00de A342     		cmp	r3, r4
 1202 00e0 B2D3     		bcc	.L143
 1203 00e2 2DE0     		b	.L165
 1204              	.LVL132:
 1205              	.L138:
 461:src/x509.c    ****     {
 1206              		.loc 1 461 0 discriminator 1
 1207 00e4 9A1C     		adds	r2, r3, #2
 1208 00e6 0192     		str	r2, [sp, #4]
 1209 00e8 5D78     		ldrb	r5, [r3, #1]	@ zero_extendqisi2
 1210              	.LVL133:
 1211 00ea 042D     		cmp	r5, #4
 1212 00ec E3D1     		bne	.L140
 480:src/x509.c    ****       return 0;
 1213              		.loc 1 480 0
 1214 00ee 0329     		cmp	r1, #3
 1215 00f0 91D1     		bne	.L137
 480:src/x509.c    ****       return 0;
 1216              		.loc 1 480 0 is_stmt 0 discriminator 1
 1217 00f2 A21A     		subs	r2, r4, r2
ARM GAS  C:\Users\AHMED~1.ELE\AppData\Local\Temp\ccaBET3e.s 			page 49


 1218 00f4 012A     		cmp	r2, #1
 1219 00f6 8EDD     		ble	.L137
 482:src/x509.c    ****     /*
 1220              		.loc 1 482 0 is_stmt 1
 1221 00f8 DA1C     		adds	r2, r3, #3
 486:src/x509.c    **** 
 1222              		.loc 1 486 0
 1223 00fa 191D     		adds	r1, r3, #4
 482:src/x509.c    ****     /*
 1224              		.loc 1 482 0
 1225 00fc 0192     		str	r2, [sp, #4]
 488:src/x509.c    ****     if (dnEnd - p < llen)
 1226              		.loc 1 488 0
 1227 00fe 01A8     		add	r0, sp, #4
 1228              	.LVL134:
 482:src/x509.c    ****     /*
 1229              		.loc 1 482 0
 1230 0100 9F78     		ldrb	r7, [r3, #2]	@ zero_extendqisi2
 1231              	.LVL135:
 488:src/x509.c    ****     if (dnEnd - p < llen)
 1232              		.loc 1 488 0
 1233 0102 02AA     		add	r2, sp, #8
 486:src/x509.c    **** 
 1234              		.loc 1 486 0
 1235 0104 0191     		str	r1, [sp, #4]
 488:src/x509.c    ****     if (dnEnd - p < llen)
 1236              		.loc 1 488 0
 1237 0106 611A     		subs	r1, r4, r1
 486:src/x509.c    **** 
 1238              		.loc 1 486 0
 1239 0108 DD78     		ldrb	r5, [r3, #3]	@ zero_extendqisi2
 1240              	.LVL136:
 488:src/x509.c    ****     if (dnEnd - p < llen)
 1241              		.loc 1 488 0
 1242 010a FFF7FEFF 		bl	x509_get_asn_length
 1243              	.LVL137:
 489:src/x509.c    ****       return 0;
 1244              		.loc 1 489 0
 1245 010e 0198     		ldr	r0, [sp, #4]
 1246 0110 029A     		ldr	r2, [sp, #8]
 1247 0112 231A     		subs	r3, r4, r0
 1248 0114 9342     		cmp	r3, r2
 1249 0116 FFF67EAF 		blt	.L137
 1250 011a A5F10C03 		sub	r3, r5, #12
 1251 011e DBB2     		uxtb	r3, r3
 1252 0120 082B     		cmp	r3, #8
 1253 0122 3FF678AF 		bhi	.L137
 1254 0126 0121     		movs	r1, #1
 1255 0128 9940     		lsls	r1, r1, r3
 1256 012a 40F28113 		movw	r3, #385
 1257 012e 0B40     		ands	r3, r3, r1
 1258 0130 002B     		cmp	r3, #0
 1259 0132 3FF470AF 		beq	.L137
 496:src/x509.c    ****         break;
 1260              		.loc 1 496 0
 1261 0136 0244     		add	r2, r2, r0
 558:src/x509.c    ****        return 0;
ARM GAS  C:\Users\AHMED~1.ELE\AppData\Local\Temp\ccaBET3e.s 			page 50


 1262              		.loc 1 558 0
 1263 0138 352F     		cmp	r7, #53
 496:src/x509.c    ****         break;
 1264              		.loc 1 496 0
 1265 013a 0192     		str	r2, [sp, #4]
 558:src/x509.c    ****        return 0;
 1266              		.loc 1 558 0
 1267 013c CEDD     		ble	.L133
 1268 013e 6AE7     		b	.L137
 1269              	.LVL138:
 1270              	.L165:
 564:src/x509.c    **** }
 1271              		.loc 1 564 0
 1272 0140 4FF0FF30 		mov	r0, #-1
 563:src/x509.c    ****   return -1;
 1273              		.loc 1 563 0
 1274 0144 3360     		str	r3, [r6]
 1275              	.LVL139:
 1276              	.L131:
 565:src/x509.c    **** 
 1277              		.loc 1 565 0
 1278 0146 5BB0     		add	sp, sp, #364
 1279              		.cfi_def_cfa_offset 20
 1280              		@ sp needed
 1281 0148 F0BD     		pop	{r4, r5, r6, r7, pc}
 1282              		.cfi_endproc
 1283              	.LFE8:
 1284              		.size	x509_get_dn_attrib, .-x509_get_dn_attrib
 1285              		.section	.text.x509_select_hashops,"ax",%progbits
 1286              		.align	1
 1287              		.thumb
 1288              		.thumb_func
 1289              		.type	x509_select_hashops, %function
 1290              	x509_select_hashops:
 1291              	.LFB22:
1380:src/x509.c    **** 
1381:src/x509.c    **** /*---------------------------------------------------------------------*/
1382:src/x509.c    **** static int x509_get_signature(BYTE ** a_pp,int a_len,BYTE * a_sig)
1383:src/x509.c    **** {
1384:src/x509.c    ****   BYTE *  p;
1385:src/x509.c    ****   BYTE *  end;
1386:src/x509.c    ****   int     ignore_bits,llen,sigLen;
1387:src/x509.c    **** 
1388:src/x509.c    ****   p = *a_pp;
1389:src/x509.c    ****   end = p + a_len;
1390:src/x509.c    ****   if (a_len<1 || (*(p++)!=K_AsnBitString) ||
1391:src/x509.c    ****       x509_get_asn_length(&p,a_len-1,&llen)==0 || (end-p)<llen)
1392:src/x509.c    ****     return 0;
1393:src/x509.c    **** 
1394:src/x509.c    ****   ignore_bits = *p++;
1395:src/x509.c    **** /*
1396:src/x509.c    ****   We assume this is always 0.
1397:src/x509.c    **** */
1398:src/x509.c    ****   if (ignore_bits != 0)
1399:src/x509.c    ****     return 0;
1400:src/x509.c    **** 
1401:src/x509.c    **** /*
ARM GAS  C:\Users\AHMED~1.ELE\AppData\Local\Temp\ccaBET3e.s 			page 51


1402:src/x509.c    ****   Length included the ignore_bits byte
1403:src/x509.c    **** */
1404:src/x509.c    ****   sigLen = llen - 1;
1405:src/x509.c    ****   memcpy(a_sig,&sigLen,4);
1406:src/x509.c    ****   memcpy(a_sig + 4,p,sigLen);
1407:src/x509.c    ****   *a_pp = p + sigLen;
1408:src/x509.c    **** 
1409:src/x509.c    ****   return -1;
1410:src/x509.c    **** }
1411:src/x509.c    **** 
1412:src/x509.c    **** /*---------------------------------------------------------------------*/
1413:src/x509.c    **** static int x509_get_pubkey(BYTE** a_pp, int a_len, T_KEY * a_pubKey)
1414:src/x509.c    **** {
1415:src/x509.c    ****   BYTE *  p;
1416:src/x509.c    ****   BYTE    value[4];
1417:src/x509.c    ****   int     pubKeyLen,ignore_bits,seqLen;
1418:src/x509.c    ****   DWORD   keyLen,expLen,count;
1419:src/x509.c    **** 
1420:src/x509.c    ****   p = *a_pp;
1421:src/x509.c    ****   if (a_len<1 || (*(p++)!=K_AsnBitString) ||
1422:src/x509.c    ****       x509_get_asn_length(&p,a_len-1,&pubKeyLen)==0 || (a_len-1)<pubKeyLen)
1423:src/x509.c    ****     return 0;
1424:src/x509.c    **** 
1425:src/x509.c    ****   ignore_bits = *p++;
1426:src/x509.c    **** /*
1427:src/x509.c    ****   We assume this is always zero
1428:src/x509.c    **** */
1429:src/x509.c    ****   if (ignore_bits != 0)
1430:src/x509.c    ****     return 0;
1431:src/x509.c    **** 
1432:src/x509.c    ****   expLen = 4;
1433:src/x509.c    **** #if 0
1434:src/x509.c    ****   keyLen = 258;
1435:src/x509.c    **** #else
1436:src/x509.c    ****   keyLen = sizeof(a_pubKey->s_key);
1437:src/x509.c    **** #endif
1438:src/x509.c    ****   if (x509_get_sequence(&p,pubKeyLen,&seqLen) == 0 ||
1439:src/x509.c    ****       x509_get_big(&p,seqLen,(BYTE*)a_pubKey->s_key,&keyLen) == 0 ||
1440:src/x509.c    ****       x509_get_big(&p,seqLen,(BYTE*)value,&expLen) == 0)
1441:src/x509.c    ****     return 0;
1442:src/x509.c    **** 
1443:src/x509.c    **** #ifdef _PCI_  /* Accept only 2048 bits key or above */
1444:src/x509.c    ****   if (keyLen < 256)
1445:src/x509.c    ****     return 0;
1446:src/x509.c    **** #endif
1447:src/x509.c    **** 
1448:src/x509.c    ****   a_pubKey->d_keysize  = keyLen;
1449:src/x509.c    ****   a_pubKey->d_exponent = 0;
1450:src/x509.c    ****   for (count=0;count<expLen;count++)
1451:src/x509.c    ****     a_pubKey->d_exponent = (a_pubKey->d_exponent<<8) | value[count];
1452:src/x509.c    **** 
1453:src/x509.c    ****   *a_pp = p;
1454:src/x509.c    ****   return -1;
1455:src/x509.c    **** }
1456:src/x509.c    **** 
1457:src/x509.c    **** /*---------------------------------------------------------------------*/
1458:src/x509.c    **** static int x509_unpad_rsa(BYTE * a_ptr,DWORD a_len)
ARM GAS  C:\Users\AHMED~1.ELE\AppData\Local\Temp\ccaBET3e.s 			page 52


1459:src/x509.c    **** {
1460:src/x509.c    ****   BYTE *c, *end;
1461:src/x509.c    **** 
1462:src/x509.c    ****   c   = a_ptr;
1463:src/x509.c    ****   end = c + a_len;
1464:src/x509.c    ****   if (*c++ != 0x00 || *c != 0x01)
1465:src/x509.c    ****     return -1;
1466:src/x509.c    **** 
1467:src/x509.c    ****   c++;
1468:src/x509.c    ****   while (c < end && *c != 0x00)
1469:src/x509.c    ****   {
1470:src/x509.c    ****     if (*c != 0xFF)
1471:src/x509.c    ****       return -1;
1472:src/x509.c    ****     c++;
1473:src/x509.c    ****   }
1474:src/x509.c    ****   c++;
1475:src/x509.c    **** 
1476:src/x509.c    ****   return end - c;
1477:src/x509.c    **** }
1478:src/x509.c    **** 
1479:src/x509.c    **** static BOOLEAN x509_select_hashops(T_HASH_OPS *a_hash_ops, DWORD algo_oid_hash)
1480:src/x509.c    **** {
 1292              		.loc 1 1480 0
 1293              		.cfi_startproc
 1294              		@ args = 0, pretend = 0, frame = 0
 1295              		@ frame_needed = 0, uses_anonymous_args = 0
 1296              		@ link register save eliminated.
 1297              	.LVL140:
1481:src/x509.c    ****   switch ( algo_oid_hash )
 1298              		.loc 1 1481 0
 1299 0000 1B4B     		ldr	r3, .L179
 1300 0002 9942     		cmp	r1, r3
 1301 0004 2AD0     		beq	.L168
 1302 0006 0FD8     		bhi	.L169
 1303 0008 063B     		subs	r3, r3, #6
 1304 000a 9942     		cmp	r1, r3
 1305 000c 2AD0     		beq	.L170
 1306 000e 04D8     		bhi	.L171
 1307 0010 184B     		ldr	r3, .L179+4
 1308 0012 9942     		cmp	r1, r3
 1309 0014 1ED0     		beq	.L172
 1310 0016 184B     		ldr	r3, .L179+8
 1311 0018 0EE0     		b	.L177
 1312              	.L171:
 1313 001a 184B     		ldr	r3, .L179+12
 1314 001c 9942     		cmp	r1, r3
 1315 001e 1FD0     		beq	.L174
 1316 0020 0233     		adds	r3, r3, #2
 1317 0022 9942     		cmp	r1, r3
 1318 0024 18D0     		beq	.L175
 1319 0026 20E0     		b	.L167
 1320              	.L169:
 1321 0028 154B     		ldr	r3, .L179+16
 1322 002a 9942     		cmp	r1, r3
 1323 002c 18D0     		beq	.L174
 1324 002e 07D8     		bhi	.L176
 1325 0030 144B     		ldr	r3, .L179+20
ARM GAS  C:\Users\AHMED~1.ELE\AppData\Local\Temp\ccaBET3e.s 			page 53


 1326 0032 9942     		cmp	r1, r3
 1327 0034 0ED0     		beq	.L172
 1328 0036 0133     		adds	r3, r3, #1
 1329              	.L177:
 1330 0038 9942     		cmp	r1, r3
 1331 003a 16D1     		bne	.L167
1482:src/x509.c    ****   {
1483:src/x509.c    **** #ifndef _PCI_
1484:src/x509.c    ****     case K_OIdMd5:
1485:src/x509.c    ****     case K_OIdRsaMd5:
1486:src/x509.c    ****       return hashops_get(a_hash_ops,E_HashOps_AlgoId_md5);
 1332              		.loc 1 1486 0
 1333 003c 0121     		movs	r1, #1
 1334              	.LVL141:
 1335 003e 12E0     		b	.L178
 1336              	.LVL142:
 1337              	.L176:
1481:src/x509.c    ****   switch ( algo_oid_hash )
 1338              		.loc 1 1481 0
 1339 0040 114B     		ldr	r3, .L179+24
 1340 0042 9942     		cmp	r1, r3
 1341 0044 0AD0     		beq	.L168
 1342 0046 0333     		adds	r3, r3, #3
 1343 0048 9942     		cmp	r1, r3
 1344 004a 05D0     		beq	.L175
 1345 004c 053B     		subs	r3, r3, #5
 1346 004e 9942     		cmp	r1, r3
 1347 0050 0BD1     		bne	.L167
 1348 0052 07E0     		b	.L170
 1349              	.L172:
1487:src/x509.c    **** #endif
1488:src/x509.c    **** 
1489:src/x509.c    ****     case K_OIdSha1:
1490:src/x509.c    ****     case K_OIdRsaSha1:
1491:src/x509.c    ****       return hashops_get(a_hash_ops,E_HashOps_AlgoId_sha1);
 1350              		.loc 1 1491 0
 1351 0054 0221     		movs	r1, #2
 1352              	.LVL143:
 1353 0056 06E0     		b	.L178
 1354              	.LVL144:
 1355              	.L175:
1492:src/x509.c    **** 
1493:src/x509.c    ****     case K_OIdSha224:
1494:src/x509.c    ****     case K_OIdRsaSha224:
1495:src/x509.c    ****       return hashops_get(a_hash_ops,E_HashOps_AlgoId_sha224);
 1356              		.loc 1 1495 0
 1357 0058 0321     		movs	r1, #3
 1358              	.LVL145:
 1359 005a 04E0     		b	.L178
 1360              	.LVL146:
 1361              	.L168:
1496:src/x509.c    **** 
1497:src/x509.c    ****     case K_OIdSha256:
1498:src/x509.c    ****     case K_OIdRsaSha256:
1499:src/x509.c    ****       return hashops_get(a_hash_ops,E_HashOps_AlgoId_sha256);
 1362              		.loc 1 1499 0
 1363 005c 0421     		movs	r1, #4
ARM GAS  C:\Users\AHMED~1.ELE\AppData\Local\Temp\ccaBET3e.s 			page 54


 1364              	.LVL147:
 1365 005e 02E0     		b	.L178
 1366              	.LVL148:
 1367              	.L174:
1500:src/x509.c    **** 
1501:src/x509.c    ****     case K_OIdSha384:
1502:src/x509.c    ****     case K_OIdRsaSha384:
1503:src/x509.c    ****       return hashops_get(a_hash_ops,E_HashOps_AlgoId_sha384);
 1368              		.loc 1 1503 0
 1369 0060 0521     		movs	r1, #5
 1370              	.LVL149:
 1371 0062 00E0     		b	.L178
 1372              	.LVL150:
 1373              	.L170:
1504:src/x509.c    **** 
1505:src/x509.c    ****     case K_OIdSha512:
1506:src/x509.c    ****     case K_OIdRsaSha512:
1507:src/x509.c    ****       return hashops_get(a_hash_ops,E_HashOps_AlgoId_sha512);
 1374              		.loc 1 1507 0
 1375 0064 0621     		movs	r1, #6
 1376              	.LVL151:
 1377              	.L178:
 1378 0066 FFF7FEBF 		b	hashops_get
 1379              	.LVL152:
 1380              	.L167:
1508:src/x509.c    ****   };
1509:src/x509.c    **** 
1510:src/x509.c    ****   return FALSE;
1511:src/x509.c    **** }
 1381              		.loc 1 1511 0
 1382 006a 0020     		movs	r0, #0
 1383              	.LVL153:
 1384 006c 7047     		bx	lr
 1385              	.L180:
 1386 006e 00BF     		.align	2
 1387              	.L179:
 1388 0070 F67E758B 		.word	-1955234058
 1389 0074 DB2B5706 		.word	106376155
 1390 0078 BA131369 		.word	1762857914
 1391 007c F17E758B 		.word	-1955234063
 1392 0080 68D39AF3 		.word	-207957144
 1393 0084 F87E758B 		.word	-1955234056
 1394 0088 6BD39AF3 		.word	-207957141
 1395              		.cfi_endproc
 1396              	.LFE22:
 1397              		.size	x509_select_hashops, .-x509_select_hashops
 1398              		.section	.text.unlikely.x509_generalize_time,"ax",%progbits
 1399              		.align	1
 1400              		.thumb
 1401              		.thumb_func
 1402              		.type	x509_generalize_time, %function
 1403              	x509_generalize_time:
 1404              	.LFB16:
1266:src/x509.c    ****   if (a_timeFormat == K_AsnUtcTime)
 1405              		.loc 1 1266 0
 1406              		.cfi_startproc
 1407              		@ args = 0, pretend = 0, frame = 0
ARM GAS  C:\Users\AHMED~1.ELE\AppData\Local\Temp\ccaBET3e.s 			page 55


 1408              		@ frame_needed = 0, uses_anonymous_args = 0
 1409              	.LVL154:
1267:src/x509.c    ****   {
 1410              		.loc 1 1267 0
 1411 0000 1728     		cmp	r0, #23
1266:src/x509.c    ****   if (a_timeFormat == K_AsnUtcTime)
 1412              		.loc 1 1266 0
 1413 0002 38B5     		push	{r3, r4, r5, lr}
 1414              		.cfi_def_cfa_offset 16
 1415              		.cfi_offset 3, -16
 1416              		.cfi_offset 4, -12
 1417              		.cfi_offset 5, -8
 1418              		.cfi_offset 14, -4
1266:src/x509.c    ****   if (a_timeFormat == K_AsnUtcTime)
 1419              		.loc 1 1266 0
 1420 0004 0C46     		mov	r4, r1
 1421 0006 03EB0405 		add	r5, r3, r4
 1422 000a 1146     		mov	r1, r2
 1423              	.LVL155:
1267:src/x509.c    ****   {
 1424              		.loc 1 1267 0
 1425 000c 11D1     		bne	.L182
 1426              	.LVL156:
 1427              	.LBB18:
 1428              	.LBB19:
1269:src/x509.c    ****     {
 1429              		.loc 1 1269 0
 1430 000e 1278     		ldrb	r2, [r2]	@ zero_extendqisi2
 1431              	.LVL157:
1279:src/x509.c    ****     a_outTime[a_timeLen+1] = 0;
 1432              		.loc 1 1279 0
 1433 0010 981C     		adds	r0, r3, #2
 1434              	.LVL158:
1269:src/x509.c    ****     {
 1435              		.loc 1 1269 0
 1436 0012 342A     		cmp	r2, #52
1271:src/x509.c    ****       a_outTime[1] = '9';
 1437              		.loc 1 1271 0
 1438 0014 8BBF     		itete	hi
 1439 0016 3122     		movhi	r2, #49
1276:src/x509.c    ****       a_outTime[1] = '0';
 1440              		.loc 1 1276 0
 1441 0018 3222     		movls	r2, #50
1271:src/x509.c    ****       a_outTime[1] = '9';
 1442              		.loc 1 1271 0
 1443 001a 1A70     		strbhi	r2, [r3]
1276:src/x509.c    ****       a_outTime[1] = '0';
 1444              		.loc 1 1276 0
 1445 001c 1A70     		strbls	r2, [r3]
1272:src/x509.c    ****     }
 1446              		.loc 1 1272 0
 1447 001e 8CBF     		ite	hi
 1448 0020 3922     		movhi	r2, #57
1277:src/x509.c    ****     }
 1449              		.loc 1 1277 0
 1450 0022 3022     		movls	r2, #48
 1451 0024 5A70     		strb	r2, [r3, #1]
ARM GAS  C:\Users\AHMED~1.ELE\AppData\Local\Temp\ccaBET3e.s 			page 56


1279:src/x509.c    ****     a_outTime[a_timeLen+1] = 0;
 1452              		.loc 1 1279 0
 1453 0026 2246     		mov	r2, r4
 1454 0028 FFF7FEFF 		bl	memcpy
 1455              	.LVL159:
1280:src/x509.c    ****   }
 1456              		.loc 1 1280 0
 1457 002c 0023     		movs	r3, #0
 1458 002e 6B70     		strb	r3, [r5, #1]
 1459 0030 38BD     		pop	{r3, r4, r5, pc}
 1460              	.LVL160:
 1461              	.L182:
 1462              	.LBE19:
 1463              	.LBE18:
1284:src/x509.c    ****     a_outTime[a_timeLen-1] = 0;
 1464              		.loc 1 1284 0
 1465 0032 1846     		mov	r0, r3
 1466              	.LVL161:
 1467 0034 2246     		mov	r2, r4
 1468 0036 FFF7FEFF 		bl	memcpy
 1469              	.LVL162:
1285:src/x509.c    ****   }
 1470              		.loc 1 1285 0
 1471 003a 0023     		movs	r3, #0
 1472 003c 05F8013C 		strb	r3, [r5, #-1]
 1473 0040 38BD     		pop	{r3, r4, r5, pc}
 1474              		.cfi_endproc
 1475              	.LFE16:
 1476              		.size	x509_generalize_time, .-x509_generalize_time
 1477              		.section	.text.x509_check_leading_zeros.constprop.6,"ax",%progbits
 1478              		.align	1
 1479              		.thumb
 1480              		.thumb_func
 1481              		.type	x509_check_leading_zeros.constprop.6, %function
 1482              	x509_check_leading_zeros.constprop.6:
 1483              	.LFB37:
1512:src/x509.c    **** 
1513:src/x509.c    **** /*---------------------------------------------------------------------*/
1514:src/x509.c    **** DWORD x509_parse_cert(BYTE *a_ptr, DWORD a_size, T_X509_CERT_INFO *a_cert_info)
1515:src/x509.c    **** {
1516:src/x509.c    ****   BYTE *p;
1517:src/x509.c    ****   BYTE *certStart;
1518:src/x509.c    ****   BYTE *certEnd;
1519:src/x509.c    ****   BYTE *end;
1520:src/x509.c    ****   /* BYTE *sigptr; */
1521:src/x509.c    ****   /* BYTE *sigend; */
1522:src/x509.c    ****   int  len,certLen;
1523:src/x509.c    ****   int  certVersion,certAlgorithm,pubKeyAlgorithm,sigAlgorithm;
1524:src/x509.c    **** 
1525:src/x509.c    ****   T_RSAPSS_PARAM certAlgorithm_pss_param;
1526:src/x509.c    ****   T_RSAPSS_PARAM anyAlgorithm_pss_param;
1527:src/x509.c    ****   DWORD certDigestAlgo;
1528:src/x509.c    **** 
1529:src/x509.c    ****   T_HASH_OPS     hash_ops;
1530:src/x509.c    ****   T_HASH_OPS_CTX hash_ctx;
1531:src/x509.c    ****   BYTE           hash_digest[K_HashOps_Digest_Max];
1532:src/x509.c    **** 
ARM GAS  C:\Users\AHMED~1.ELE\AppData\Local\Temp\ccaBET3e.s 			page 57


1533:src/x509.c    ****   p   = a_ptr;
1534:src/x509.c    ****   len = 0;
1535:src/x509.c    ****   end = p + a_size;
1536:src/x509.c    **** 
1537:src/x509.c    ****   /* general input parameters checking */
1538:src/x509.c    ****   if ( a_ptr == NULL || a_size == 0 || a_cert_info == NULL )
1539:src/x509.c    ****     return K_X509ErrGeneral;
1540:src/x509.c    **** 
1541:src/x509.c    ****   memset(a_cert_info,0,sizeof(*a_cert_info));
1542:src/x509.c    ****   memset(a_cert_info->s_issuer_dn_mac,0xff,K_X509_MacLen_Sha1);
1543:src/x509.c    **** 
1544:src/x509.c    **** /*
1545:src/x509.c    ****   Certificate ::= SEQUENCE  {
1546:src/x509.c    ****                     tbsCertificate      TBSCertificate,
1547:src/x509.c    ****                     signatureAlgorithm  AlgorithmIdentifier,
1548:src/x509.c    ****                     signatureValue      BIT STRING  }
1549:src/x509.c    **** */
1550:src/x509.c    ****   if (x509_get_sequence(&p,a_size,&len) == 0)
1551:src/x509.c    ****     return K_X509ErrCertSequence;
1552:src/x509.c    **** 
1553:src/x509.c    ****   certStart = p;
1554:src/x509.c    **** /*
1555:src/x509.c    ****   TBSCertificate ::=  SEQUENCE  {
1556:src/x509.c    ****       version[0] EXPLICIT Version DEFAULT v1,
1557:src/x509.c    ****       serialNumber CertificateSerialNumber,
1558:src/x509.c    ****       signature AlgorithmIdentifier,
1559:src/x509.c    ****       issuer Name,
1560:src/x509.c    ****       validity Validity,
1561:src/x509.c    ****       subject Name,
1562:src/x509.c    ****       subjectPublicKeyInfo SubjectPublicKeyInfo,
1563:src/x509.c    ****       issuerUniqueID[1] IMPLICIT UniqueIdentifier OPTIONAL,
1564:src/x509.c    ****         -- If present, version shall be v2 or v3
1565:src/x509.c    ****       subjectUniqueID[2] IMPLICIT UniqueIdentifier OPTIONAL,
1566:src/x509.c    ****         -- If present, version shall be v2 or v3
1567:src/x509.c    ****       extensions[3] EXPLICIT Extensions OPTIONAL
1568:src/x509.c    ****         -- If present, version shall be v3  }
1569:src/x509.c    **** */
1570:src/x509.c    ****   if (x509_get_sequence(&p,(DWORD)(end - p),&len) == 0)
1571:src/x509.c    ****     return K_X509ErrMainSequence;
1572:src/x509.c    **** 
1573:src/x509.c    ****   certEnd = p + len;
1574:src/x509.c    ****   certLen = (DWORD)(certEnd - certStart);
1575:src/x509.c    **** 
1576:src/x509.c    **** /*
1577:src/x509.c    ****   Version ::= INTEGER  {  v1(0), v2(1), v3(2)  }
1578:src/x509.c    **** */
1579:src/x509.c    ****   if (x509_get_explicit_version(&p,(int)(end - p),0,&certVersion) == 0)
1580:src/x509.c    ****     return K_X509ErrExplicit;
1581:src/x509.c    **** 
1582:src/x509.c    **** /*
1583:src/x509.c    ****   CertificateSerialNumber ::= INTEGER
1584:src/x509.c    **** */
1585:src/x509.c    ****   if (x509_get_SerialNum(&p,(int)(end - p)) == 0)
1586:src/x509.c    ****     return K_X509ErrSerialNum;
1587:src/x509.c    **** 
1588:src/x509.c    **** /*
1589:src/x509.c    ****   AlgorithmIdentifier ::= SEQUENCE  {
ARM GAS  C:\Users\AHMED~1.ELE\AppData\Local\Temp\ccaBET3e.s 			page 58


1590:src/x509.c    ****                   algorithm   OBJECT IDENTIFIER,
1591:src/x509.c    ****                   parameters  ANY DEFINED BY algorithm OPTIONAL }
1592:src/x509.c    **** */
1593:src/x509.c    ****   if (x509_get_algorithm_identifier(&p,(int)(end - p),&certAlgorithm,&certAlgorithm_pss_param,0) ==
1594:src/x509.c    ****     return K_X509ErrCertAlg;
1595:src/x509.c    **** 
1596:src/x509.c    **** /*
1597:src/x509.c    ****   Name ::= CHOICE {
1598:src/x509.c    ****     RDNSequence }
1599:src/x509.c    **** 
1600:src/x509.c    ****     RDNSequence ::= SEQUENCE OF RelativeDistinguishedName
1601:src/x509.c    **** 
1602:src/x509.c    ****     RelativeDistinguishedName ::= SET OF AttributeTypeAndValue
1603:src/x509.c    **** 
1604:src/x509.c    ****     AttributeTypeAndValue ::= SEQUENCE {
1605:src/x509.c    ****       type  AttributeType,
1606:src/x509.c    ****       value AttributeValue }
1607:src/x509.c    **** 
1608:src/x509.c    ****     AttributeType ::= OBJECT IDENTIFIER
1609:src/x509.c    **** 
1610:src/x509.c    ****     AttributeValue ::= ANY DEFINED BY AttributeType
1611:src/x509.c    **** */
1612:src/x509.c    ****   if (x509_get_dn_attrib(&p,(int)(end - p),a_cert_info->s_issuer_dn_mac) == 0)
1613:src/x509.c    ****     return K_X509ErrDnAttrib;
1614:src/x509.c    **** 
1615:src/x509.c    **** /*
1616:src/x509.c    ****   Validity ::= SEQUENCE {
1617:src/x509.c    ****     notBefore Time,
1618:src/x509.c    ****     notAfter  Time  }
1619:src/x509.c    **** */
1620:src/x509.c    ****   if (x509_get_validity(&p,(int)(end - p)) == 0)
1621:src/x509.c    ****     return K_X509ErrValId;
1622:src/x509.c    **** 
1623:src/x509.c    **** /*
1624:src/x509.c    ****   Subject DN
1625:src/x509.c    **** */
1626:src/x509.c    ****   if (x509_get_dn_attrib(&p,(int)(end - p),a_cert_info->s_subject_dn_mac) == 0)
1627:src/x509.c    ****     return K_X509ErrSubDn;
1628:src/x509.c    **** 
1629:src/x509.c    **** /*
1630:src/x509.c    ****   SubjectPublicKeyInfo  ::=  SEQUENCE  {
1631:src/x509.c    ****     algorithm   AlgorithmIdentifier,
1632:src/x509.c    ****     subjectPublicKey  BIT STRING  }
1633:src/x509.c    **** */
1634:src/x509.c    ****   if (x509_get_sequence(&p,(int)(end - p),&len) == 0)
1635:src/x509.c    ****     return K_X509ErrPubSeq;
1636:src/x509.c    **** 
1637:src/x509.c    ****   if (x509_get_algorithm_identifier(&p,(int)(end - p),&pubKeyAlgorithm,&anyAlgorithm_pss_param,1) =
1638:src/x509.c    ****     return K_X509ErrPubAlg;
1639:src/x509.c    ****   if ( pubKeyAlgorithm != K_OIdRsaEncryption )
1640:src/x509.c    ****     return K_X509ErrPubAlg;
1641:src/x509.c    **** 
1642:src/x509.c    ****   if (x509_get_pubkey(&p,(int)(end - p),&a_cert_info->s_public_key) == 0)
1643:src/x509.c    ****     return K_X509ErrPubKey;
1644:src/x509.c    ****   /* dbg_printf("x509 public key size = %d\r\n", */
1645:src/x509.c    ****   /*            a_cert_info->s_public_key.d_keysize); */
1646:src/x509.c    **** 
ARM GAS  C:\Users\AHMED~1.ELE\AppData\Local\Temp\ccaBET3e.s 			page 59


1647:src/x509.c    ****   if (*p != (K_AsnSequence | K_AsnConstructed))
1648:src/x509.c    ****     if (x509_get_implicit_bit_string(&p,(int)(end - p),K_ImplicitIssuerId) == 0 ||
1649:src/x509.c    ****         x509_get_implicit_bit_string(&p,(int)(end - p),K_ImplicitSubjectId) == 0 ||
1650:src/x509.c    ****         x509_get_explicit_extensions(&p,(int)(end - p),K_ExplicitExtension,a_cert_info) == 0)
1651:src/x509.c    ****       return K_X509ErrExternsion;
1652:src/x509.c    **** 
1653:src/x509.c    ****   if (certEnd != p)
1654:src/x509.c    ****     return K_X509ErrCertEnd;
1655:src/x509.c    **** 
1656:src/x509.c    ****   if (x509_get_algorithm_identifier(&p,(int)(end - p),&sigAlgorithm,&anyAlgorithm_pss_param,0) == 0
1657:src/x509.c    ****     return K_X509ErrSigAlg;
1658:src/x509.c    **** 
1659:src/x509.c    ****   if (certAlgorithm != sigAlgorithm)
1660:src/x509.c    ****     return K_X509ErrSigUnmatch;
1661:src/x509.c    **** 
1662:src/x509.c    ****   if ( certAlgorithm == K_OIdRsaPSS &&
1663:src/x509.c    ****        !x509_rsapss_param_identical(&certAlgorithm_pss_param,
1664:src/x509.c    ****                                     &anyAlgorithm_pss_param) )
1665:src/x509.c    ****     return K_X509ErrSigUnmatch;
1666:src/x509.c    **** 
1667:src/x509.c    ****   memset(hash_digest,0,sizeof(hash_digest));
1668:src/x509.c    ****   if ( (certDigestAlgo = certAlgorithm) == K_OIdRsaPSS )
1669:src/x509.c    ****     certDigestAlgo = certAlgorithm_pss_param.d_hash_algo;
1670:src/x509.c    **** 
1671:src/x509.c    ****   if ( x509_select_hashops(&hash_ops,certDigestAlgo) == FALSE )
1672:src/x509.c    ****     return K_X509ErrPubAlg;
1673:src/x509.c    ****   
1674:src/x509.c    ****   hash_ops.init(&hash_ctx);
1675:src/x509.c    ****   hash_ops.update(&hash_ctx,certStart,certLen);
1676:src/x509.c    ****   hash_ops.finish(&hash_ctx,a_cert_info->s_digest);
1677:src/x509.c    ****   a_cert_info->w_digest_algo_id = hash_ops.algo_type_id;
1678:src/x509.c    ****   a_cert_info->w_digest_len = hash_ops.dgst_len;
1679:src/x509.c    **** 
1680:src/x509.c    ****   if (x509_get_signature(&p,(int)(end - p),s_x509_sign) == 0)
1681:src/x509.c    ****     return K_X509ErrSignature;
1682:src/x509.c    **** 
1683:src/x509.c    ****   do {
1684:src/x509.c    ****     DWORD sig_len = s_x509_sign[0] + (s_x509_sign[1]<<8) + (s_x509_sign[2]<<16) + (s_x509_sign[3]<<
1685:src/x509.c    ****     a_cert_info->w_sign_len = sig_len;
1686:src/x509.c    ****     memcpy(a_cert_info->s_signature,&s_x509_sign[4],sig_len);
1687:src/x509.c    ****   } while ( 0 );
1688:src/x509.c    **** 
1689:src/x509.c    ****   if ( certAlgorithm == K_OIdRsaPSS ) {
1690:src/x509.c    ****     a_cert_info->s_rsapss_param = certAlgorithm_pss_param;
1691:src/x509.c    ****     a_cert_info->w_digest_algo_id |= K_X509_AlgoId_PSS_Mask;
1692:src/x509.c    ****   };
1693:src/x509.c    ****   
1694:src/x509.c    ****   dbg_printf("x509 certVersion     = 0x%08x\r\n",certVersion);
1695:src/x509.c    ****   dbg_printf("x509 certAlgorithm   = 0x%08x\r\n",certAlgorithm);
1696:src/x509.c    ****   dbg_printf("x509 pubKeyAlgorithm = 0x%08x\r\n",pubKeyAlgorithm);
1697:src/x509.c    ****   dbg_printf("x509 sigAlgorithm    = 0x%08x\r\n",sigAlgorithm);
1698:src/x509.c    ****   dbg_printf("x509 digest algo     = 0x%08x\r\n",a_cert_info->w_digest_algo_id);
1699:src/x509.c    ****   if ( certAlgorithm == K_OIdRsaPSS ) {
1700:src/x509.c    ****     dbg_printf("x509 -- pss hash     0x%08x\r\n",certAlgorithm_pss_param.d_hash_algo);
1701:src/x509.c    ****     dbg_printf("x509 -- pss mgf      0x%08x\r\n",certAlgorithm_pss_param.d_mask_gen_func);
1702:src/x509.c    ****     dbg_printf("x509 -- pss mgf-dig  0x%08x\r\n",certAlgorithm_pss_param.d_mgf_digest);
1703:src/x509.c    ****     dbg_printf("x509 -- pss salt-len %u\r\n",certAlgorithm_pss_param.d_salt_length);
ARM GAS  C:\Users\AHMED~1.ELE\AppData\Local\Temp\ccaBET3e.s 			page 60


1704:src/x509.c    ****     dbg_printf("x509 -- pss trailer  %u\r\n",certAlgorithm_pss_param.d_trailer_field);
1705:src/x509.c    ****   };
1706:src/x509.c    **** 
1707:src/x509.c    ****   /* Find out that this certificate is self-signed or not.  We have
1708:src/x509.c    ****    * simplified to checking issuer and subject DNs SHA1 digest hash
1709:src/x509.c    ****    * value and verify certficate signature against its public key.
1710:src/x509.c    ****    * There is no need to check key usage flag in this kind of checking.
1711:src/x509.c    ****    */
1712:src/x509.c    ****   if ( ( memcmp(a_cert_info->s_issuer_dn_mac,
1713:src/x509.c    **** 		a_cert_info->s_subject_dn_mac,
1714:src/x509.c    **** 		K_X509_MacLen_Sha1) == 0 ) &&
1715:src/x509.c    ****        (x509_verify_cert_by_key(a_cert_info,&a_cert_info->s_public_key)) )
1716:src/x509.c    ****   {
1717:src/x509.c    ****     a_cert_info->w_key_usage |= K_X509_KeyUsageFlag_SelfSigned;
1718:src/x509.c    ****   };
1719:src/x509.c    **** 
1720:src/x509.c    ****   /* KeyUsage extension is not mandatory.  It wiil be absent if there
1721:src/x509.c    ****    * is restriction are being imposed to subject's public key usages.
1722:src/x509.c    ****    * Apply default key usage value for normal SSL/TLS application.
1723:src/x509.c    ****    * Additionally, certificate signing and CRL list verficiation
1724:src/x509.c    ****    * capability are added if this certificate is flagged as CA. */
1725:src/x509.c    ****   if ( !(a_cert_info->w_key_usage & K_X509_KeyUsageFlag_HasKeyUsage ) )
1726:src/x509.c    ****   {
1727:src/x509.c    ****     a_cert_info->w_key_usage |= K_X509_KeyUsageFlag_digitalSign;
1728:src/x509.c    ****     a_cert_info->w_key_usage |= K_X509_KeyUsageFlag_contentCommit;
1729:src/x509.c    ****     a_cert_info->w_key_usage |= K_X509_KeyUsageFlag_keyEncipher;  /* for SSL/TLS */
1730:src/x509.c    ****     a_cert_info->w_key_usage |= K_X509_KeyUsageFlag_keyAgreement; /* for DH algo */
1731:src/x509.c    ****     /* a_cert_info->w_key_usage |= K_X509_KeyUsageFlag_dataEncipher; */
1732:src/x509.c    ****     if ( a_cert_info->w_key_usage & K_X509_KeyUsageFlag_IsCA )
1733:src/x509.c    ****     {
1734:src/x509.c    ****       a_cert_info->w_key_usage |= K_X509_KeyUsageFlag_keyCertSign;
1735:src/x509.c    ****       a_cert_info->w_key_usage |= K_X509_KeyUsageFlag_cRLSign;
1736:src/x509.c    ****     };
1737:src/x509.c    ****   };
1738:src/x509.c    **** 
1739:src/x509.c    ****   return K_X509Ok;
1740:src/x509.c    **** }
1741:src/x509.c    **** 
1742:src/x509.c    **** static BOOLEAN x509_check_leading_zeros(BYTE *p, int bits)
 1484              		.loc 1 1742 0
 1485              		.cfi_startproc
 1486              		@ args = 0, pretend = 0, frame = 0
 1487              		@ frame_needed = 0, uses_anonymous_args = 0
 1488              		@ link register save eliminated.
 1489              	.LVL163:
1743:src/x509.c    **** {
1744:src/x509.c    ****   if ( bits <= 0 )
 1490              		.loc 1 1744 0
 1491 0000 0028     		cmp	r0, #0
 1492 0002 14DD     		ble	.L193
 1493 0004 0B4A     		ldr	r2, .L195
 1494              	.LVL164:
 1495              	.L189:
1745:src/x509.c    ****     return TRUE;
1746:src/x509.c    **** 
1747:src/x509.c    ****   /* dbg_printf("leading zero %d\n",bits); */
1748:src/x509.c    ****   
ARM GAS  C:\Users\AHMED~1.ELE\AppData\Local\Temp\ccaBET3e.s 			page 61


1749:src/x509.c    ****   while ( bits >= 8 ) {
 1496              		.loc 1 1749 0
 1497 0006 0728     		cmp	r0, #7
 1498 0008 04DD     		ble	.L194
1750:src/x509.c    ****     if ( *p++ )
 1499              		.loc 1 1750 0
 1500 000a 12F8013B 		ldrb	r3, [r2], #1	@ zero_extendqisi2
 1501              	.LVL165:
 1502 000e 63B9     		cbnz	r3, .L192
1751:src/x509.c    ****       return FALSE;
1752:src/x509.c    ****     bits -= 8;
 1503              		.loc 1 1752 0
 1504 0010 0838     		subs	r0, r0, #8
 1505              	.LVL166:
 1506 0012 F8E7     		b	.L189
 1507              	.LVL167:
 1508              	.L194:
1753:src/x509.c    ****   };
1754:src/x509.c    **** 
1755:src/x509.c    ****   if ( bits ) {
 1509              		.loc 1 1755 0
 1510 0014 58B1     		cbz	r0, .L193
 1511              	.LVL168:
 1512              	.LBB20:
1756:src/x509.c    ****     BYTE mask;
1757:src/x509.c    ****     mask = (0xff << (8-bits)) & 0xff;
 1513              		.loc 1 1757 0
 1514 0016 C0F10800 		rsb	r0, r0, #8
 1515              	.LVL169:
 1516 001a FF23     		movs	r3, #255
1758:src/x509.c    ****     /* dbg_printf("last mask %02x\n",mask); */
1759:src/x509.c    ****     if ( *p & mask )
 1517              		.loc 1 1759 0
 1518 001c 1278     		ldrb	r2, [r2]	@ zero_extendqisi2
 1519              	.LVL170:
1757:src/x509.c    ****     /* dbg_printf("last mask %02x\n",mask); */
 1520              		.loc 1 1757 0
 1521 001e 8340     		lsls	r3, r3, r0
 1522              		.loc 1 1759 0
 1523 0020 1342     		tst	r3, r2
 1524              	.LBE20:
1745:src/x509.c    **** 
 1525              		.loc 1 1745 0
 1526 0022 0CBF     		ite	eq
 1527 0024 0120     		moveq	r0, #1
 1528 0026 0020     		movne	r0, #0
 1529 0028 7047     		bx	lr
 1530              	.LVL171:
 1531              	.L192:
1751:src/x509.c    ****     bits -= 8;
 1532              		.loc 1 1751 0
 1533 002a 0020     		movs	r0, #0
 1534              	.LVL172:
 1535 002c 7047     		bx	lr
 1536              	.LVL173:
 1537              	.L193:
1760:src/x509.c    ****       return FALSE;
ARM GAS  C:\Users\AHMED~1.ELE\AppData\Local\Temp\ccaBET3e.s 			page 62


1761:src/x509.c    ****   };
1762:src/x509.c    **** 
1763:src/x509.c    ****   return TRUE;
 1538              		.loc 1 1763 0
 1539 002e 0120     		movs	r0, #1
 1540              	.LVL174:
1764:src/x509.c    **** }
 1541              		.loc 1 1764 0
 1542 0030 7047     		bx	lr
 1543              	.L196:
 1544 0032 00BF     		.align	2
 1545              	.L195:
 1546 0034 00000000 		.word	.LANCHOR0
 1547              		.cfi_endproc
 1548              	.LFE37:
 1549              		.size	x509_check_leading_zeros.constprop.6, .-x509_check_leading_zeros.constprop.6
 1550              		.global	__aeabi_idiv
 1551              		.global	__aeabi_idivmod
 1552              		.section	.text.x509_verify_cert_with_PSS,"ax",%progbits
 1553              		.align	1
 1554              		.thumb
 1555              		.thumb_func
 1556              		.type	x509_verify_cert_with_PSS, %function
 1557              	x509_verify_cert_with_PSS:
 1558              	.LFB27:
1765:src/x509.c    **** 
1766:src/x509.c    **** static void x509_set_leading_zeros(BYTE *p, int bits)
1767:src/x509.c    **** {
1768:src/x509.c    ****   if ( bits <= 0 )
1769:src/x509.c    ****     return;
1770:src/x509.c    **** 
1771:src/x509.c    ****   /* dbg_printf("leading zero %d\n",bits); */
1772:src/x509.c    ****   
1773:src/x509.c    ****   while ( bits >= 8 ) {
1774:src/x509.c    ****     *p++ = 0;
1775:src/x509.c    ****     bits -= 8;
1776:src/x509.c    ****   };
1777:src/x509.c    **** 
1778:src/x509.c    ****   if ( bits ) {
1779:src/x509.c    ****     BYTE mask;
1780:src/x509.c    ****     mask = (0xff >> bits) & 0xff;
1781:src/x509.c    ****     /* dbg_printf("last mask %02x\n",mask); */
1782:src/x509.c    ****     *p &= mask;
1783:src/x509.c    ****   };
1784:src/x509.c    **** }
1785:src/x509.c    **** 
1786:src/x509.c    **** /* ----------------------------------------------------------------------
1787:src/x509.c    ****  * x509_mgf1_xor
1788:src/x509.c    ****  * ----------------------------------------------------------------------
1789:src/x509.c    ****  *   - calculate the MGF1(hash) noise mask and XOR the target content
1790:src/x509.c    ****  *     block.
1791:src/x509.c    ****  *   - definition of MGF1 can be found from PKCS#1 v2.1 (RFC3447).
1792:src/x509.c    ****  * ---------------------------------------------------------------------- */
1793:src/x509.c    **** static void x509_mgf1_xor(BYTE *seed,
1794:src/x509.c    ****                           int seed_len,
1795:src/x509.c    ****                           int mask_len,
1796:src/x509.c    ****                           BYTE *xor_this,
ARM GAS  C:\Users\AHMED~1.ELE\AppData\Local\Temp\ccaBET3e.s 			page 63


1797:src/x509.c    **** 			  T_HASH_OPS *p_hash_ops)
1798:src/x509.c    **** {
1799:src/x509.c    ****   BYTE cnt_buf[4];
1800:src/x509.c    ****   DWORD cnt_max, cnt;
1801:src/x509.c    ****   BYTE *d;
1802:src/x509.c    ****   int out_bytes, i;
1803:src/x509.c    **** 
1804:src/x509.c    ****   if ( p_hash_ops == NULL ||
1805:src/x509.c    ****        p_hash_ops->dgst_len == 0 ||
1806:src/x509.c    ****        p_hash_ops->p_ctx == NULL ||
1807:src/x509.c    ****        p_hash_ops->p_digest == NULL )
1808:src/x509.c    ****     return;
1809:src/x509.c    **** 
1810:src/x509.c    ****   cnt_max = mask_len / p_hash_ops->dgst_len;
1811:src/x509.c    ****   if ( mask_len % p_hash_ops->dgst_len )
1812:src/x509.c    ****     cnt_max++;
1813:src/x509.c    **** 
1814:src/x509.c    ****   d = xor_this;
1815:src/x509.c    ****   memset(cnt_buf,0,sizeof(cnt_buf));
1816:src/x509.c    **** 
1817:src/x509.c    ****   for ( cnt = 0; cnt < cnt_max; ++cnt )
1818:src/x509.c    ****   {
1819:src/x509.c    ****     p_hash_ops->init(p_hash_ops->p_ctx);
1820:src/x509.c    ****     p_hash_ops->update(p_hash_ops->p_ctx,seed,seed_len);
1821:src/x509.c    ****     p_hash_ops->update(p_hash_ops->p_ctx,cnt_buf,sizeof(cnt_buf));
1822:src/x509.c    ****     p_hash_ops->finish(p_hash_ops->p_ctx,p_hash_ops->p_digest);
1823:src/x509.c    **** 
1824:src/x509.c    ****     if ( mask_len > p_hash_ops->dgst_len )
1825:src/x509.c    ****       out_bytes = p_hash_ops->dgst_len;
1826:src/x509.c    ****     else
1827:src/x509.c    ****       out_bytes = mask_len;
1828:src/x509.c    **** 
1829:src/x509.c    ****     mask_len -= out_bytes;
1830:src/x509.c    **** 
1831:src/x509.c    ****     for ( i=0; i<out_bytes; ++i )
1832:src/x509.c    ****       *d++ ^= p_hash_ops->p_digest[i];
1833:src/x509.c    **** 
1834:src/x509.c    ****     for ( i=sizeof(cnt_buf)-1; i>=0; i-- ) {
1835:src/x509.c    ****       cnt_buf[i]++;
1836:src/x509.c    ****       if ( cnt_buf[i] != 0 )
1837:src/x509.c    **** 	break;
1838:src/x509.c    ****     };
1839:src/x509.c    ****   }
1840:src/x509.c    **** }
1841:src/x509.c    **** 
1842:src/x509.c    **** static BOOLEAN x509_verify_cert_with_PSS(T_X509_CERT_INFO *a_cert, T_KEY *a_key)
1843:src/x509.c    **** {
 1559              		.loc 1 1843 0
 1560              		.cfi_startproc
 1561              		@ args = 0, pretend = 0, frame = 440
 1562              		@ frame_needed = 0, uses_anonymous_args = 0
 1563              	.LVL175:
 1564 0000 2DE9F04F 		push	{r4, r5, r6, r7, r8, r9, r10, fp, lr}
 1565              		.cfi_def_cfa_offset 36
 1566              		.cfi_offset 4, -36
 1567              		.cfi_offset 5, -32
 1568              		.cfi_offset 6, -28
ARM GAS  C:\Users\AHMED~1.ELE\AppData\Local\Temp\ccaBET3e.s 			page 64


 1569              		.cfi_offset 7, -24
 1570              		.cfi_offset 8, -20
 1571              		.cfi_offset 9, -16
 1572              		.cfi_offset 10, -12
 1573              		.cfi_offset 11, -8
 1574              		.cfi_offset 14, -4
 1575 0004 0446     		mov	r4, r0
 1576 0006 EFB0     		sub	sp, sp, #444
 1577              		.cfi_def_cfa_offset 480
 1578              		.loc 1 1843 0
 1579 0008 0F46     		mov	r7, r1
1844:src/x509.c    ****   /* perform EMSA-PSS-VERIFY(hash,EM,modBits-1) */
1845:src/x509.c    ****   BYTE *EM    = s_x509_sign;
1846:src/x509.c    ****   int   emLen = a_cert->w_sign_len;
 1580              		.loc 1 1846 0
 1581 000a 4588     		ldrh	r5, [r0, #2]
 1582              	.LVL176:
1847:src/x509.c    ****   BYTE *mHash = a_cert->s_digest;
1848:src/x509.c    ****   int   hLen  = a_cert->w_digest_len;
 1583              		.loc 1 1848 0
 1584 000c B0F80690 		ldrh	r9, [r0, #6]
 1585              	.LVL177:
1849:src/x509.c    ****   int modBits = a_cert->w_sign_len << 3;
1850:src/x509.c    ****   int emBits = modBits - 1;
1851:src/x509.c    ****   int zBits, dbLen, zBytes;
1852:src/x509.c    ****   T_RSAPSS_PARAM *p_pss = &a_cert->s_rsapss_param;
1853:src/x509.c    ****   BYTE *H, *DB;
1854:src/x509.c    ****   BYTE *salt;
1855:src/x509.c    ****   T_HASH_OPS hash_ops;
1856:src/x509.c    ****   T_HASH_OPS_CTX hash_ctx;
1857:src/x509.c    ****   BYTE digest[K_HashOps_Digest_Max];
1858:src/x509.c    **** 
1859:src/x509.c    ****   dbg_printf("x509 verify using RSARSS-PSS padding scheme.\r\n");
1860:src/x509.c    **** 
1861:src/x509.c    ****   if ( !x509_select_hashops(&hash_ops,p_pss->d_hash_algo) )
 1586              		.loc 1 1861 0
 1587 0010 D4F87412 		ldr	r1, [r4, #628]
 1588              	.LVL178:
 1589 0014 04A8     		add	r0, sp, #16
 1590              	.LVL179:
 1591 0016 FFF7FEFF 		bl	x509_select_hashops
 1592              	.LVL180:
 1593 001a 08B9     		cbnz	r0, .L198
 1594              	.LVL181:
 1595              	.L200:
1862:src/x509.c    ****   {
1863:src/x509.c    ****     dbg_printf("x509 hash algo operations selection error.\r\n");
1864:src/x509.c    ****     return FALSE;
 1596              		.loc 1 1864 0
 1597 001c 0020     		movs	r0, #0
 1598 001e C6E0     		b	.L199
 1599              	.LVL182:
 1600              	.L198:
1865:src/x509.c    ****   }
1866:src/x509.c    **** 
1867:src/x509.c    ****   hash_ops.p_digest = digest;
 1601              		.loc 1 1867 0
ARM GAS  C:\Users\AHMED~1.ELE\AppData\Local\Temp\ccaBET3e.s 			page 65


 1602 0020 0AAB     		add	r3, sp, #40
1868:src/x509.c    ****   hash_ops.p_ctx = &hash_ctx;
1869:src/x509.c    **** 
1870:src/x509.c    ****   memset(s_x509_sign,0,sizeof(s_x509_sign));
 1603              		.loc 1 1870 0
 1604 0022 644E     		ldr	r6, .L230
1867:src/x509.c    ****   hash_ops.p_ctx = &hash_ctx;
 1605              		.loc 1 1867 0
 1606 0024 0593     		str	r3, [sp, #20]
1868:src/x509.c    ****   hash_ops.p_ctx = &hash_ctx;
 1607              		.loc 1 1868 0
 1608 0026 1AAB     		add	r3, sp, #104
 1609              		.loc 1 1870 0
 1610 0028 0021     		movs	r1, #0
 1611 002a 4FF40172 		mov	r2, #516
 1612 002e 3046     		mov	r0, r6
1868:src/x509.c    ****   hash_ops.p_ctx = &hash_ctx;
 1613              		.loc 1 1868 0
 1614 0030 0693     		str	r3, [sp, #24]
 1615              		.loc 1 1870 0
 1616 0032 FFF7FEFF 		bl	memset
 1617              	.LVL183:
1871:src/x509.c    ****   memcpy(s_x509_sign,a_cert->s_signature,a_cert->w_sign_len);
 1618              		.loc 1 1871 0
 1619 0036 04F10801 		add	r1, r4, #8
 1620 003a 6288     		ldrh	r2, [r4, #2]
 1621 003c 3046     		mov	r0, r6
 1622 003e FFF7FEFF 		bl	memcpy
 1623              	.LVL184:
1872:src/x509.c    **** 
1873:src/x509.c    ****   /* execute RSA once! */
1874:src/x509.c    ****   EXEC_RSA(s_x509_sign,a_key);  
 1624              		.loc 1 1874 0
 1625 0042 4B20     		movs	r0, #75
 1626 0044 3146     		mov	r1, r6
 1627 0046 3A46     		mov	r2, r7
 1628 0048 FFF7FEFF 		bl	sys_func2
 1629              	.LVL185:
 1630 004c D4F88032 		ldr	r3, [r4, #640]
 1631 0050 0233     		adds	r3, r3, #2
1875:src/x509.c    **** 
1876:src/x509.c    ****   /* M->mHash and hLen, as a side-effect of certificate parsing */
1877:src/x509.c    ****   if ( emLen < hLen + p_pss->d_salt_length + 2 )
 1632              		.loc 1 1877 0
 1633 0052 4B44     		add	r3, r3, r9
 1634 0054 9D42     		cmp	r5, r3
 1635 0056 E1D3     		bcc	.L200
1878:src/x509.c    ****     return FALSE;
1879:src/x509.c    **** 
1880:src/x509.c    ****   /* dbg_printf("EM (len=%d)-\n",emLen); */
1881:src/x509.c    ****   /* dbg_hexdump(EM,emLen); */
1882:src/x509.c    ****     
1883:src/x509.c    ****   /* p_pss->d_trail_field == 1 => trail_field is 0xbc */
1884:src/x509.c    ****   if ( EM[emLen-1] != 0xbc )
 1636              		.loc 1 1884 0
 1637 0058 7319     		adds	r3, r6, r5
 1638 005a 13F8013C 		ldrb	r3, [r3, #-1]	@ zero_extendqisi2
ARM GAS  C:\Users\AHMED~1.ELE\AppData\Local\Temp\ccaBET3e.s 			page 66


 1639 005e BC2B     		cmp	r3, #188
 1640 0060 DCD1     		bne	.L200
 1641              	.LVL186:
1885:src/x509.c    ****     return FALSE;
1886:src/x509.c    **** 
1887:src/x509.c    ****   DB = EM;                      /* DB's length = emLen - hLen - 1 */
1888:src/x509.c    ****   dbLen = emLen - hLen - 1;
1889:src/x509.c    ****   H = DB + dbLen;
1890:src/x509.c    **** 
1891:src/x509.c    ****   zBits = (emLen << 3) - emBits;
1892:src/x509.c    ****   if ( !x509_check_leading_zeros(DB,zBits) )
 1642              		.loc 1 1892 0
 1643 0062 0120     		movs	r0, #1
 1644 0064 FFF7FEFF 		bl	x509_check_leading_zeros.constprop.6
 1645              	.LVL187:
 1646 0068 0028     		cmp	r0, #0
 1647 006a D7D0     		beq	.L200
1888:src/x509.c    ****   H = DB + dbLen;
 1648              		.loc 1 1888 0
 1649 006c C9EB0505 		rsb	r5, r9, r5
 1650              	.LVL188:
 1651 0070 6F1E     		subs	r7, r5, #1
 1652              	.LVL189:
 1653              	.LBB26:
 1654              	.LBB27:
1805:src/x509.c    ****        p_hash_ops->p_ctx == NULL ||
 1655              		.loc 1 1805 0
 1656 0072 BDF81080 		ldrh	r8, [sp, #16]
 1657              	.LBE27:
 1658              	.LBE26:
1889:src/x509.c    **** 
 1659              		.loc 1 1889 0
 1660 0076 0097     		str	r7, [sp]
 1661 0078 3E44     		add	r6, r6, r7
 1662              	.LVL190:
 1663              	.LBB29:
 1664              	.LBB28:
1804:src/x509.c    ****        p_hash_ops->dgst_len == 0 ||
 1665              		.loc 1 1804 0
 1666 007a B8F1000F 		cmp	r8, #0
 1667 007e 56D0     		beq	.L209
1805:src/x509.c    ****        p_hash_ops->p_ctx == NULL ||
 1668              		.loc 1 1805 0
 1669 0080 069B     		ldr	r3, [sp, #24]
 1670 0082 002B     		cmp	r3, #0
 1671 0084 53D0     		beq	.L209
1806:src/x509.c    ****        p_hash_ops->p_digest == NULL )
 1672              		.loc 1 1806 0
 1673 0086 059B     		ldr	r3, [sp, #20]
 1674 0088 002B     		cmp	r3, #0
 1675 008a 50D0     		beq	.L209
1810:src/x509.c    ****   if ( mask_len % p_hash_ops->dgst_len )
 1676              		.loc 1 1810 0
 1677 008c 4146     		mov	r1, r8
 1678 008e 3846     		mov	r0, r7
 1679 0090 FFF7FEFF 		bl	__aeabi_idiv
 1680              	.LVL191:
ARM GAS  C:\Users\AHMED~1.ELE\AppData\Local\Temp\ccaBET3e.s 			page 67


1811:src/x509.c    ****     cnt_max++;
 1681              		.loc 1 1811 0
 1682 0094 4146     		mov	r1, r8
1810:src/x509.c    ****   if ( mask_len % p_hash_ops->dgst_len )
 1683              		.loc 1 1810 0
 1684 0096 8346     		mov	fp, r0
 1685              	.LVL192:
1811:src/x509.c    ****     cnt_max++;
 1686              		.loc 1 1811 0
 1687 0098 3846     		mov	r0, r7
 1688              	.LVL193:
 1689 009a FFF7FEFF 		bl	__aeabi_idivmod
 1690              	.LVL194:
 1691 009e 09B1     		cbz	r1, .L202
1812:src/x509.c    **** 
 1692              		.loc 1 1812 0
 1693 00a0 0BF1010B 		add	fp, fp, #1
 1694              	.LVL195:
 1695              	.L202:
1815:src/x509.c    **** 
 1696              		.loc 1 1815 0
 1697 00a4 0023     		movs	r3, #0
1814:src/x509.c    ****   memset(cnt_buf,0,sizeof(cnt_buf));
 1698              		.loc 1 1814 0
 1699 00a6 DFF80CA1 		ldr	r10, .L230
1817:src/x509.c    ****   {
 1700              		.loc 1 1817 0
 1701 00aa 9846     		mov	r8, r3
1815:src/x509.c    **** 
 1702              		.loc 1 1815 0
 1703 00ac 0393     		str	r3, [sp, #12]
 1704              	.LVL196:
 1705              	.L203:
1817:src/x509.c    ****   {
 1706              		.loc 1 1817 0
 1707 00ae D845     		cmp	r8, fp
 1708 00b0 3DD0     		beq	.L209
1819:src/x509.c    ****     p_hash_ops->update(p_hash_ops->p_ctx,seed,seed_len);
 1709              		.loc 1 1819 0
 1710 00b2 079B     		ldr	r3, [sp, #28]
 1711 00b4 0698     		ldr	r0, [sp, #24]
 1712 00b6 9847     		blx	r3
 1713              	.LVL197:
1820:src/x509.c    ****     p_hash_ops->update(p_hash_ops->p_ctx,cnt_buf,sizeof(cnt_buf));
 1714              		.loc 1 1820 0
 1715 00b8 089B     		ldr	r3, [sp, #32]
 1716 00ba 0698     		ldr	r0, [sp, #24]
 1717 00bc 3146     		mov	r1, r6
 1718 00be 4A46     		mov	r2, r9
 1719 00c0 9847     		blx	r3
 1720              	.LVL198:
1821:src/x509.c    ****     p_hash_ops->finish(p_hash_ops->p_ctx,p_hash_ops->p_digest);
 1721              		.loc 1 1821 0
 1722 00c2 0DF10C0C 		add	ip, sp, #12
 1723 00c6 6146     		mov	r1, ip
 1724 00c8 0422     		movs	r2, #4
 1725 00ca 089B     		ldr	r3, [sp, #32]
ARM GAS  C:\Users\AHMED~1.ELE\AppData\Local\Temp\ccaBET3e.s 			page 68


 1726 00cc 0698     		ldr	r0, [sp, #24]
 1727 00ce CDF804C0 		str	ip, [sp, #4]
 1728 00d2 9847     		blx	r3
 1729              	.LVL199:
1822:src/x509.c    **** 
 1730              		.loc 1 1822 0
 1731 00d4 099B     		ldr	r3, [sp, #36]
 1732 00d6 0599     		ldr	r1, [sp, #20]
 1733 00d8 0698     		ldr	r0, [sp, #24]
 1734 00da 9847     		blx	r3
 1735              	.LVL200:
1824:src/x509.c    ****       out_bytes = p_hash_ops->dgst_len;
 1736              		.loc 1 1824 0
 1737 00dc BDF81030 		ldrh	r3, [sp, #16]
 1738 00e0 0599     		ldr	r1, [sp, #20]
 1739 00e2 BB42     		cmp	r3, r7
 1740 00e4 A8BF     		it	ge
 1741 00e6 3B46     		movge	r3, r7
 1742              	.LVL201:
1829:src/x509.c    **** 
 1743              		.loc 1 1829 0
 1744 00e8 FF1A     		subs	r7, r7, r3
 1745              	.LVL202:
 1746 00ea 0139     		subs	r1, r1, #1
1832:src/x509.c    **** 
 1747              		.loc 1 1832 0
 1748 00ec 5246     		mov	r2, r10
 1749 00ee DDF804C0 		ldr	ip, [sp, #4]
 1750              	.LVL203:
 1751              	.L204:
 1752 00f2 CAEB0200 		rsb	r0, r10, r2
 1753              	.LVL204:
1831:src/x509.c    ****       *d++ ^= p_hash_ops->p_digest[i];
 1754              		.loc 1 1831 0
 1755 00f6 9842     		cmp	r0, r3
 1756 00f8 08DA     		bge	.L229
1832:src/x509.c    **** 
 1757              		.loc 1 1832 0
 1758 00fa 12F801EB 		ldrb	lr, [r2], #1	@ zero_extendqisi2
 1759              	.LVL205:
 1760 00fe 11F8010F 		ldrb	r0, [r1, #1]!	@ zero_extendqisi2
 1761              	.LVL206:
 1762 0102 8EEA0000 		eor	r0, lr, r0
 1763 0106 02F8010C 		strb	r0, [r2, #-1]
 1764              	.LVL207:
 1765 010a F2E7     		b	.L204
 1766              	.LVL208:
 1767              	.L229:
 1768 010c 002B     		cmp	r3, #0
 1769 010e A8BF     		it	ge
 1770 0110 9A44     		addge	r10, r10, r3
1831:src/x509.c    ****       *d++ ^= p_hash_ops->p_digest[i];
 1771              		.loc 1 1831 0
 1772 0112 0322     		movs	r2, #3
 1773              	.LVL209:
 1774              	.L207:
1835:src/x509.c    ****       if ( cnt_buf[i] != 0 )
ARM GAS  C:\Users\AHMED~1.ELE\AppData\Local\Temp\ccaBET3e.s 			page 69


 1775              		.loc 1 1835 0
 1776 0114 1CF80230 		ldrb	r3, [ip, r2]	@ zero_extendqisi2
 1777 0118 0133     		adds	r3, r3, #1
 1778 011a DBB2     		uxtb	r3, r3
 1779 011c 0CF80230 		strb	r3, [ip, r2]
1836:src/x509.c    **** 	break;
 1780              		.loc 1 1836 0
 1781 0120 13B9     		cbnz	r3, .L206
1834:src/x509.c    ****       cnt_buf[i]++;
 1782              		.loc 1 1834 0
 1783 0122 12F1FF32 		adds	r2, r2, #-1
 1784              	.LVL210:
 1785 0126 F5D2     		bcs	.L207
 1786              	.LVL211:
 1787              	.L206:
1817:src/x509.c    ****   {
 1788              		.loc 1 1817 0
 1789 0128 08F10108 		add	r8, r8, #1
 1790              	.LVL212:
 1791 012c BFE7     		b	.L203
 1792              	.LVL213:
 1793              	.L209:
 1794              	.LBE28:
 1795              	.LBE29:
 1796              	.LBB30:
 1797              	.LBB31:
1782:src/x509.c    ****   };
 1798              		.loc 1 1782 0
 1799 012e DFF88480 		ldr	r8, .L230
 1800              	.LBE31:
 1801              	.LBE30:
1893:src/x509.c    ****     return FALSE;
1894:src/x509.c    **** 
1895:src/x509.c    ****   /* dbg_printf("before masking -\n"); */
1896:src/x509.c    ****   /* dbg_hexdump(EM,emLen); */
1897:src/x509.c    **** 
1898:src/x509.c    ****   /* unmask DB against MGF1-algo mask function */
1899:src/x509.c    ****   x509_mgf1_xor(H,hLen,dbLen,DB,&hash_ops);
1900:src/x509.c    ****   x509_set_leading_zeros(DB,zBits);
1901:src/x509.c    **** 
1902:src/x509.c    ****   /* dbg_printf("demasked - (dbLen=%d)\n",dbLen); */
1903:src/x509.c    ****   /* dbg_hexdump(EM,emLen); */
1904:src/x509.c    **** 
1905:src/x509.c    ****   zBytes = emLen - hLen - p_pss->d_salt_length - 2;
 1802              		.loc 1 1905 0
 1803 0132 D4F88072 		ldr	r7, [r4, #640]
 1804              	.LBB33:
 1805              	.LBB32:
1782:src/x509.c    ****   };
 1806              		.loc 1 1782 0
 1807 0136 98F80030 		ldrb	r3, [r8]	@ zero_extendqisi2
 1808 013a 03F07F03 		and	r3, r3, #127
 1809 013e 88F80030 		strb	r3, [r8]
 1810 0142 6FF00103 		mvn	r3, #1
 1811 0146 DB1B     		subs	r3, r3, r7
 1812              	.LBE32:
 1813              	.LBE33:
ARM GAS  C:\Users\AHMED~1.ELE\AppData\Local\Temp\ccaBET3e.s 			page 70


 1814              		.loc 1 1905 0
 1815 0148 1D44     		add	r5, r5, r3
 1816              	.LVL214:
1906:src/x509.c    ****   if ( !x509_check_leading_zeros(DB,zBytes<<3) )
 1817              		.loc 1 1906 0
 1818 014a E800     		lsls	r0, r5, #3
 1819 014c FFF7FEFF 		bl	x509_check_leading_zeros.constprop.6
 1820              	.LVL215:
 1821 0150 0028     		cmp	r0, #0
 1822 0152 3FF463AF 		beq	.L200
1907:src/x509.c    ****     return FALSE;
1908:src/x509.c    **** 
1909:src/x509.c    ****   if ( DB[zBytes] != 0x01 )
 1823              		.loc 1 1909 0
 1824 0156 18F80530 		ldrb	r3, [r8, r5]	@ zero_extendqisi2
 1825 015a 012B     		cmp	r3, #1
 1826 015c 7FF45EAF 		bne	.L200
 1827              	.LVL216:
1910:src/x509.c    ****     return FALSE;
1911:src/x509.c    **** 
1912:src/x509.c    ****   salt = DB + dbLen - p_pss->d_salt_length;
1913:src/x509.c    ****   dbg_printf("x509 salt -\r\n");
1914:src/x509.c    ****   dbg_hexdump(salt,p_pss->d_salt_length);
1915:src/x509.c    **** 
1916:src/x509.c    ****   dbg_printf("x509 H -\r\n");
1917:src/x509.c    ****   dbg_hexdump(H,hLen);
1918:src/x509.c    **** 
1919:src/x509.c    ****   memset(hash_ops.p_digest,0,8);
 1828              		.loc 1 1919 0
 1829 0160 0021     		movs	r1, #0
 1830 0162 0822     		movs	r2, #8
 1831 0164 0598     		ldr	r0, [sp, #20]
 1832 0166 FFF7FEFF 		bl	memset
 1833              	.LVL217:
1920:src/x509.c    ****   hash_ops.init(hash_ops.p_ctx);
 1834              		.loc 1 1920 0
 1835 016a 079B     		ldr	r3, [sp, #28]
 1836 016c 0698     		ldr	r0, [sp, #24]
 1837 016e 9847     		blx	r3
 1838              	.LVL218:
1921:src/x509.c    ****   hash_ops.update(hash_ops.p_ctx,hash_ops.p_digest,8);
 1839              		.loc 1 1921 0
 1840 0170 089B     		ldr	r3, [sp, #32]
 1841 0172 0698     		ldr	r0, [sp, #24]
 1842 0174 0599     		ldr	r1, [sp, #20]
 1843 0176 0822     		movs	r2, #8
 1844 0178 9847     		blx	r3
 1845              	.LVL219:
1922:src/x509.c    ****   hash_ops.update(hash_ops.p_ctx,mHash,hLen);
 1846              		.loc 1 1922 0
 1847 017a 089B     		ldr	r3, [sp, #32]
 1848 017c 0698     		ldr	r0, [sp, #24]
 1849 017e 04F50D71 		add	r1, r4, #564
 1850 0182 4A46     		mov	r2, r9
 1851 0184 9847     		blx	r3
 1852              	.LVL220:
1912:src/x509.c    ****   dbg_printf("x509 salt -\r\n");
ARM GAS  C:\Users\AHMED~1.ELE\AppData\Local\Temp\ccaBET3e.s 			page 71


 1853              		.loc 1 1912 0
 1854 0186 009B     		ldr	r3, [sp]
1923:src/x509.c    ****   hash_ops.update(hash_ops.p_ctx,salt,p_pss->d_salt_length);
 1855              		.loc 1 1923 0
 1856 0188 D4F88022 		ldr	r2, [r4, #640]
1912:src/x509.c    ****   dbg_printf("x509 salt -\r\n");
 1857              		.loc 1 1912 0
 1858 018c D91B     		subs	r1, r3, r7
 1859              		.loc 1 1923 0
 1860 018e 0698     		ldr	r0, [sp, #24]
 1861 0190 089B     		ldr	r3, [sp, #32]
 1862 0192 4144     		add	r1, r1, r8
 1863 0194 9847     		blx	r3
 1864              	.LVL221:
1924:src/x509.c    ****   hash_ops.finish(hash_ops.p_ctx,hash_ops.p_digest);
 1865              		.loc 1 1924 0
 1866 0196 099B     		ldr	r3, [sp, #36]
 1867 0198 0698     		ldr	r0, [sp, #24]
 1868 019a 0599     		ldr	r1, [sp, #20]
 1869 019c 9847     		blx	r3
 1870              	.LVL222:
1925:src/x509.c    **** 
1926:src/x509.c    ****   dbg_printf("x509 H' -\r\n");
1927:src/x509.c    ****   dbg_hexdump(hash_ops.p_digest,hLen);
1928:src/x509.c    **** 
1929:src/x509.c    ****   /* dbg_printf("left most %d must be zero\n", */
1930:src/x509.c    ****   /*            emLen - hLen - p_pss->d_salt_length - 2); */
1931:src/x509.c    **** 
1932:src/x509.c    ****   if ( memcmp(hash_ops.p_digest,H,hLen) == 0 )
 1871              		.loc 1 1932 0
 1872 019e 0598     		ldr	r0, [sp, #20]
 1873 01a0 3146     		mov	r1, r6
 1874 01a2 4A46     		mov	r2, r9
 1875 01a4 FFF7FEFF 		bl	memcmp
 1876              	.LVL223:
1864:src/x509.c    ****   }
 1877              		.loc 1 1864 0
 1878 01a8 B0FA80F0 		clz	r0, r0
 1879 01ac 4009     		lsrs	r0, r0, #5
 1880              	.LVL224:
 1881              	.L199:
1933:src/x509.c    ****     return TRUE;
1934:src/x509.c    ****   else
1935:src/x509.c    ****     return FALSE;
1936:src/x509.c    **** }
 1882              		.loc 1 1936 0
 1883 01ae 6FB0     		add	sp, sp, #444
 1884              		.cfi_def_cfa_offset 36
 1885              		@ sp needed
 1886 01b0 BDE8F08F 		pop	{r4, r5, r6, r7, r8, r9, r10, fp, pc}
 1887              	.LVL225:
 1888              	.L231:
 1889              		.align	2
 1890              	.L230:
 1891 01b4 00000000 		.word	.LANCHOR0
 1892              		.cfi_endproc
 1893              	.LFE27:
ARM GAS  C:\Users\AHMED~1.ELE\AppData\Local\Temp\ccaBET3e.s 			page 72


 1894              		.size	x509_verify_cert_with_PSS, .-x509_verify_cert_with_PSS
 1895              		.section	.text.x509_verify_cert_by_key,"ax",%progbits
 1896              		.align	1
 1897              		.global	x509_verify_cert_by_key
 1898              		.thumb
 1899              		.thumb_func
 1900              		.type	x509_verify_cert_by_key, %function
 1901              	x509_verify_cert_by_key:
 1902              	.LFB29:
1937:src/x509.c    **** 
1938:src/x509.c    **** static BOOLEAN x509_verify_cert_with_PKCS1_v1_5(T_X509_CERT_INFO *a_cert,
1939:src/x509.c    ****                                                 T_KEY *a_key)
1940:src/x509.c    **** {
1941:src/x509.c    ****   int sign_len, l, algo;
1942:src/x509.c    ****   BYTE *p, *p_e;
1943:src/x509.c    ****   T_RSAPSS_PARAM pss;
1944:src/x509.c    ****   
1945:src/x509.c    ****   memset(s_x509_sign,0,sizeof(s_x509_sign));
1946:src/x509.c    ****   memcpy(s_x509_sign,a_cert->s_signature,a_cert->w_sign_len);
1947:src/x509.c    **** 
1948:src/x509.c    ****   dbg_printf("x509 verify using PKCS#1 v1.5 padding scheme.\r\n");
1949:src/x509.c    **** 
1950:src/x509.c    ****   /* execute RSA once! */
1951:src/x509.c    ****   EXEC_RSA(s_x509_sign,a_key);
1952:src/x509.c    ****   sign_len = x509_unpad_rsa(s_x509_sign,a_cert->w_sign_len);
1953:src/x509.c    ****   if ( sign_len <= 0 )
1954:src/x509.c    ****   {
1955:src/x509.c    ****     dbg_printf("x509 RSA unpack fails\r\n");
1956:src/x509.c    ****     return FALSE;
1957:src/x509.c    ****   };
1958:src/x509.c    **** 
1959:src/x509.c    ****   p = s_x509_sign;
1960:src/x509.c    ****   p_e = p + a_cert->w_sign_len;
1961:src/x509.c    ****   p = p_e - sign_len;
1962:src/x509.c    **** 
1963:src/x509.c    ****   /* dbg_printf("Digest Info location...\n"); */
1964:src/x509.c    ****   /* dbg_hexdump(p,sign_len); */
1965:src/x509.c    ****   
1966:src/x509.c    ****   if ( x509_get_sequence(&p,sign_len,&l) == 0 )
1967:src/x509.c    ****     return FALSE;
1968:src/x509.c    **** 
1969:src/x509.c    ****   if ( x509_get_algorithm_identifier(&p,(int)(p_e-p),&algo,&pss,FALSE) == 0 )
1970:src/x509.c    ****     return FALSE;
1971:src/x509.c    **** 
1972:src/x509.c    ****   if ( (*p++ != K_AsnOctetString) ||
1973:src/x509.c    ****        x509_get_asn_length(&p,(int)(p_e-p),&l) == 0 ||
1974:src/x509.c    ****        (int)(p_e-p) < l )
1975:src/x509.c    ****     return FALSE;
1976:src/x509.c    ****   
1977:src/x509.c    ****   dbg_printf("x509 last --\r\n");
1978:src/x509.c    ****   dbg_hexdump(p,(int)(p_e-p));
1979:src/x509.c    ****   
1980:src/x509.c    ****   dbg_printf("x509 cert mac --\r\n");
1981:src/x509.c    ****   dbg_hexdump(a_cert->s_digest,a_cert->w_digest_len);
1982:src/x509.c    **** 
1983:src/x509.c    ****   if ( a_cert->w_digest_len != l ||
1984:src/x509.c    ****        memcmp(p,a_cert->s_digest,l) != 0 )
ARM GAS  C:\Users\AHMED~1.ELE\AppData\Local\Temp\ccaBET3e.s 			page 73


1985:src/x509.c    ****   {
1986:src/x509.c    ****     dbg_printf("x509 digest pattern unmatched!\r\n");
1987:src/x509.c    ****     return FALSE;
1988:src/x509.c    ****   };
1989:src/x509.c    ****   
1990:src/x509.c    ****   return TRUE;
1991:src/x509.c    **** }
1992:src/x509.c    **** 
1993:src/x509.c    **** BOOLEAN x509_verify_cert_by_key(T_X509_CERT_INFO *a_cert, T_KEY *a_key)
1994:src/x509.c    **** {
 1903              		.loc 1 1994 0
 1904              		.cfi_startproc
 1905              		@ args = 0, pretend = 0, frame = 32
 1906              		@ frame_needed = 0, uses_anonymous_args = 0
 1907              	.LVL226:
1995:src/x509.c    ****   if ( a_cert->w_sign_len != a_key->d_keysize ) {
 1908              		.loc 1 1995 0
 1909 0000 4288     		ldrh	r2, [r0, #2]
1994:src/x509.c    ****   if ( a_cert->w_sign_len != a_key->d_keysize ) {
 1910              		.loc 1 1994 0
 1911 0002 70B5     		push	{r4, r5, r6, lr}
 1912              		.cfi_def_cfa_offset 16
 1913              		.cfi_offset 4, -16
 1914              		.cfi_offset 5, -12
 1915              		.cfi_offset 6, -8
 1916              		.cfi_offset 14, -4
 1917              		.loc 1 1995 0
 1918 0004 4B68     		ldr	r3, [r1, #4]
1994:src/x509.c    ****   if ( a_cert->w_sign_len != a_key->d_keysize ) {
 1919              		.loc 1 1994 0
 1920 0006 8AB0     		sub	sp, sp, #40
 1921              		.cfi_def_cfa_offset 56
 1922              		.loc 1 1995 0
 1923 0008 9A42     		cmp	r2, r3
1994:src/x509.c    ****   if ( a_cert->w_sign_len != a_key->d_keysize ) {
 1924              		.loc 1 1994 0
 1925 000a 0646     		mov	r6, r0
 1926 000c 0D46     		mov	r5, r1
 1927              		.loc 1 1995 0
 1928 000e 60D1     		bne	.L243
 1929              	.LVL227:
 1930              	.LBB40:
 1931              	.LBB41:
1996:src/x509.c    ****     dbg_printf("x509 unmatched key size...\r\n");
1997:src/x509.c    ****     return FALSE;
1998:src/x509.c    ****   };
1999:src/x509.c    ****   
2000:src/x509.c    ****   if ( a_cert->w_digest_algo_id & K_X509_AlgoId_PSS_Mask )
 1932              		.loc 1 2000 0
 1933 0010 8388     		ldrh	r3, [r0, #4]
 1934 0012 03F48073 		and	r3, r3, #256
 1935 0016 9BB2     		uxth	r3, r3
 1936 0018 13B1     		cbz	r3, .L234
2001:src/x509.c    ****     return x509_verify_cert_with_PSS(a_cert,a_key);
 1937              		.loc 1 2001 0
 1938 001a FFF7FEFF 		bl	x509_verify_cert_with_PSS
 1939              	.LVL228:
ARM GAS  C:\Users\AHMED~1.ELE\AppData\Local\Temp\ccaBET3e.s 			page 74


 1940 001e 59E0     		b	.L233
 1941              	.LVL229:
 1942              	.L234:
 1943              	.LBB42:
 1944              	.LBB43:
1945:src/x509.c    ****   memcpy(s_x509_sign,a_cert->s_signature,a_cert->w_sign_len);
 1945              		.loc 1 1945 0
 1946 0020 2D4C     		ldr	r4, .L254
 1947 0022 1946     		mov	r1, r3
 1948              	.LVL230:
 1949 0024 4FF40172 		mov	r2, #516
 1950 0028 2046     		mov	r0, r4
 1951              	.LVL231:
 1952 002a FFF7FEFF 		bl	memset
 1953              	.LVL232:
1946:src/x509.c    **** 
 1954              		.loc 1 1946 0
 1955 002e 06F10801 		add	r1, r6, #8
 1956 0032 7288     		ldrh	r2, [r6, #2]
 1957 0034 2046     		mov	r0, r4
 1958 0036 FFF7FEFF 		bl	memcpy
 1959              	.LVL233:
1951:src/x509.c    ****   sign_len = x509_unpad_rsa(s_x509_sign,a_cert->w_sign_len);
 1960              		.loc 1 1951 0
 1961 003a 2A46     		mov	r2, r5
 1962 003c 4B20     		movs	r0, #75
 1963 003e 2146     		mov	r1, r4
 1964 0040 FFF7FEFF 		bl	sys_func2
 1965              	.LVL234:
1952:src/x509.c    ****   if ( sign_len <= 0 )
 1966              		.loc 1 1952 0
 1967 0044 7588     		ldrh	r5, [r6, #2]
 1968              	.LVL235:
 1969              	.LBB44:
 1970              	.LBB45:
1464:src/x509.c    ****     return -1;
 1971              		.loc 1 1464 0
 1972 0046 2378     		ldrb	r3, [r4]	@ zero_extendqisi2
1463:src/x509.c    ****   if (*c++ != 0x00 || *c != 0x01)
 1973              		.loc 1 1463 0
 1974 0048 2544     		add	r5, r5, r4
 1975              	.LVL236:
1464:src/x509.c    ****     return -1;
 1976              		.loc 1 1464 0
 1977 004a 002B     		cmp	r3, #0
 1978 004c 41D1     		bne	.L243
 1979 004e 6378     		ldrb	r3, [r4, #1]	@ zero_extendqisi2
 1980 0050 012B     		cmp	r3, #1
 1981 0052 3ED1     		bne	.L243
 1982 0054 0234     		adds	r4, r4, #2
 1983              	.LVL237:
 1984              	.L238:
1468:src/x509.c    ****   {
 1985              		.loc 1 1468 0
 1986 0056 AC42     		cmp	r4, r5
 1987 0058 2146     		mov	r1, r4
 1988              	.LVL238:
ARM GAS  C:\Users\AHMED~1.ELE\AppData\Local\Temp\ccaBET3e.s 			page 75


 1989 005a 04D3     		bcc	.L239
 1990              	.L242:
 1991              	.LVL239:
1474:src/x509.c    **** 
 1992              		.loc 1 1474 0
 1993 005c 0131     		adds	r1, r1, #1
 1994              	.LVL240:
1476:src/x509.c    **** }
 1995              		.loc 1 1476 0
 1996 005e 691A     		subs	r1, r5, r1
 1997              	.LVL241:
 1998              	.LBE45:
 1999              	.LBE44:
1953:src/x509.c    ****   {
 2000              		.loc 1 1953 0
 2001 0060 0029     		cmp	r1, #0
 2002 0062 07DC     		bgt	.L253
 2003 0064 35E0     		b	.L243
 2004              	.LVL242:
 2005              	.L239:
 2006              	.LBB47:
 2007              	.LBB46:
1468:src/x509.c    ****   {
 2008              		.loc 1 1468 0
 2009 0066 14F8013B 		ldrb	r3, [r4], #1	@ zero_extendqisi2
 2010 006a 002B     		cmp	r3, #0
 2011 006c F6D0     		beq	.L242
1470:src/x509.c    ****       return -1;
 2012              		.loc 1 1470 0
 2013 006e FF2B     		cmp	r3, #255
 2014 0070 F1D0     		beq	.L238
 2015 0072 2EE0     		b	.L243
 2016              	.LVL243:
 2017              	.L253:
 2018              	.LBE46:
 2019              	.LBE47:
1961:src/x509.c    **** 
 2020              		.loc 1 1961 0
 2021 0074 0AAC     		add	r4, sp, #40
 2022 0076 6B1A     		subs	r3, r5, r1
1966:src/x509.c    ****     return FALSE;
 2023              		.loc 1 1966 0
 2024 0078 02AA     		add	r2, sp, #8
1961:src/x509.c    **** 
 2025              		.loc 1 1961 0
 2026 007a 44F8183D 		str	r3, [r4, #-24]!
1966:src/x509.c    ****     return FALSE;
 2027              		.loc 1 1966 0
 2028 007e 2046     		mov	r0, r4
 2029 0080 FFF7FEFF 		bl	x509_get_sequence
 2030              	.LVL244:
 2031 0084 28B3     		cbz	r0, .L243
1969:src/x509.c    ****     return FALSE;
 2032              		.loc 1 1969 0
 2033 0086 0023     		movs	r3, #0
 2034 0088 0499     		ldr	r1, [sp, #16]
 2035 008a 0093     		str	r3, [sp]
ARM GAS  C:\Users\AHMED~1.ELE\AppData\Local\Temp\ccaBET3e.s 			page 76


 2036 008c 2046     		mov	r0, r4
 2037 008e 691A     		subs	r1, r5, r1
 2038 0090 03AA     		add	r2, sp, #12
 2039 0092 05AB     		add	r3, sp, #20
 2040 0094 FFF7FEFF 		bl	x509_get_algorithm_identifier
 2041              	.LVL245:
 2042 0098 D8B1     		cbz	r0, .L243
1972:src/x509.c    ****        x509_get_asn_length(&p,(int)(p_e-p),&l) == 0 ||
 2043              		.loc 1 1972 0
 2044 009a 049B     		ldr	r3, [sp, #16]
 2045 009c 591C     		adds	r1, r3, #1
 2046 009e 0491     		str	r1, [sp, #16]
 2047 00a0 1B78     		ldrb	r3, [r3]	@ zero_extendqisi2
 2048 00a2 042B     		cmp	r3, #4
 2049 00a4 15D1     		bne	.L243
1973:src/x509.c    ****        (int)(p_e-p) < l )
 2050              		.loc 1 1973 0
 2051 00a6 2046     		mov	r0, r4
 2052 00a8 691A     		subs	r1, r5, r1
 2053 00aa 02AA     		add	r2, sp, #8
 2054 00ac FFF7FEFF 		bl	x509_get_asn_length
 2055              	.LVL246:
1972:src/x509.c    ****        x509_get_asn_length(&p,(int)(p_e-p),&l) == 0 ||
 2056              		.loc 1 1972 0
 2057 00b0 78B1     		cbz	r0, .L243
1974:src/x509.c    ****     return FALSE;
 2058              		.loc 1 1974 0
 2059 00b2 0498     		ldr	r0, [sp, #16]
 2060 00b4 029B     		ldr	r3, [sp, #8]
 2061 00b6 2D1A     		subs	r5, r5, r0
 2062              	.LVL247:
1973:src/x509.c    ****        (int)(p_e-p) < l )
 2063              		.loc 1 1973 0
 2064 00b8 9D42     		cmp	r5, r3
 2065 00ba 0ADB     		blt	.L243
1983:src/x509.c    ****        memcmp(p,a_cert->s_digest,l) != 0 )
 2066              		.loc 1 1983 0
 2067 00bc F288     		ldrh	r2, [r6, #6]
 2068 00be 9A42     		cmp	r2, r3
 2069 00c0 07D1     		bne	.L243
1984:src/x509.c    ****   {
 2070              		.loc 1 1984 0
 2071 00c2 06F50D71 		add	r1, r6, #564
 2072 00c6 FFF7FEFF 		bl	memcmp
 2073              	.LVL248:
1956:src/x509.c    ****   };
 2074              		.loc 1 1956 0
 2075 00ca B0FA80F0 		clz	r0, r0
 2076 00ce 4009     		lsrs	r0, r0, #5
 2077 00d0 00E0     		b	.L233
 2078              	.LVL249:
 2079              	.L243:
 2080              	.LBE43:
 2081              	.LBE42:
 2082              	.LBE41:
 2083              	.LBE40:
1997:src/x509.c    ****   };
ARM GAS  C:\Users\AHMED~1.ELE\AppData\Local\Temp\ccaBET3e.s 			page 77


 2084              		.loc 1 1997 0
 2085 00d2 0020     		movs	r0, #0
 2086              	.L233:
2002:src/x509.c    ****   else
2003:src/x509.c    ****     return x509_verify_cert_with_PKCS1_v1_5(a_cert,a_key);
2004:src/x509.c    **** }
 2087              		.loc 1 2004 0
 2088 00d4 0AB0     		add	sp, sp, #40
 2089              		.cfi_def_cfa_offset 16
 2090              		@ sp needed
 2091 00d6 70BD     		pop	{r4, r5, r6, pc}
 2092              	.LVL250:
 2093              	.L255:
 2094              		.align	2
 2095              	.L254:
 2096 00d8 00000000 		.word	.LANCHOR0
 2097              		.cfi_endproc
 2098              	.LFE29:
 2099              		.size	x509_verify_cert_by_key, .-x509_verify_cert_by_key
 2100              		.section	.text.x509_parse_cert,"ax",%progbits
 2101              		.align	1
 2102              		.global	x509_parse_cert
 2103              		.thumb
 2104              		.thumb_func
 2105              		.type	x509_parse_cert, %function
 2106              	x509_parse_cert:
 2107              	.LFB23:
1515:src/x509.c    ****   BYTE *p;
 2108              		.loc 1 1515 0
 2109              		.cfi_startproc
 2110              		@ args = 0, pretend = 0, frame = 520
 2111              		@ frame_needed = 0, uses_anonymous_args = 0
 2112              	.LVL251:
 2113 0000 2DE9F04F 		push	{r4, r5, r6, r7, r8, r9, r10, fp, lr}
 2114              		.cfi_def_cfa_offset 36
 2115              		.cfi_offset 4, -36
 2116              		.cfi_offset 5, -32
 2117              		.cfi_offset 6, -28
 2118              		.cfi_offset 7, -24
 2119              		.cfi_offset 8, -20
 2120              		.cfi_offset 9, -16
 2121              		.cfi_offset 10, -12
 2122              		.cfi_offset 11, -8
 2123              		.cfi_offset 14, -4
1534:src/x509.c    ****   end = p + a_size;
 2124              		.loc 1 1534 0
 2125 0004 4FF00009 		mov	r9, #0
1515:src/x509.c    ****   BYTE *p;
 2126              		.loc 1 1515 0
 2127 0008 ADF5057D 		sub	sp, sp, #532
 2128              		.cfi_def_cfa_offset 568
1515:src/x509.c    ****   BYTE *p;
 2129              		.loc 1 1515 0
 2130 000c 0646     		mov	r6, r0
 2131 000e 0D46     		mov	r5, r1
 2132 0010 1446     		mov	r4, r2
1533:src/x509.c    ****   len = 0;
ARM GAS  C:\Users\AHMED~1.ELE\AppData\Local\Temp\ccaBET3e.s 			page 78


 2133              		.loc 1 1533 0
 2134 0012 0790     		str	r0, [sp, #28]
1534:src/x509.c    ****   end = p + a_size;
 2135              		.loc 1 1534 0
 2136 0014 CDF82090 		str	r9, [sp, #32]
 2137              	.LVL252:
1538:src/x509.c    ****     return K_X509ErrGeneral;
 2138              		.loc 1 1538 0
 2139 0018 0028     		cmp	r0, #0
 2140 001a 00F06283 		beq	.L316
1538:src/x509.c    ****     return K_X509ErrGeneral;
 2141              		.loc 1 1538 0 is_stmt 0 discriminator 1
 2142 001e 0029     		cmp	r1, #0
 2143 0020 00F05F83 		beq	.L316
1538:src/x509.c    ****     return K_X509ErrGeneral;
 2144              		.loc 1 1538 0 discriminator 2
 2145 0024 002A     		cmp	r2, #0
 2146 0026 00F05C83 		beq	.L316
1541:src/x509.c    ****   memset(a_cert_info->s_issuer_dn_mac,0xff,K_X509_MacLen_Sha1);
 2147              		.loc 1 1541 0 is_stmt 1
 2148 002a 1046     		mov	r0, r2
 2149              	.LVL253:
 2150 002c 4946     		mov	r1, r9
 2151              	.LVL254:
 2152 002e 40F29442 		movw	r2, #1172
 2153              	.LVL255:
1542:src/x509.c    **** 
 2154              		.loc 1 1542 0
 2155 0032 04F50378 		add	r8, r4, #524
1541:src/x509.c    ****   memset(a_cert_info->s_issuer_dn_mac,0xff,K_X509_MacLen_Sha1);
 2156              		.loc 1 1541 0
 2157 0036 FFF7FEFF 		bl	memset
 2158              	.LVL256:
1542:src/x509.c    **** 
 2159              		.loc 1 1542 0
 2160 003a FF21     		movs	r1, #255
 2161 003c 1422     		movs	r2, #20
 2162 003e 4046     		mov	r0, r8
 2163 0040 FFF7FEFF 		bl	memset
 2164              	.LVL257:
1550:src/x509.c    ****     return K_X509ErrCertSequence;
 2165              		.loc 1 1550 0
 2166 0044 07A8     		add	r0, sp, #28
 2167 0046 2946     		mov	r1, r5
 2168 0048 08AA     		add	r2, sp, #32
 2169 004a FFF7FEFF 		bl	x509_get_sequence
 2170              	.LVL258:
 2171 004e 0028     		cmp	r0, #0
 2172 0050 00F04983 		beq	.L317
1553:src/x509.c    **** /*
 2173              		.loc 1 1553 0
 2174 0054 DDF81CA0 		ldr	r10, [sp, #28]
 2175              	.LVL259:
1535:src/x509.c    **** 
 2176              		.loc 1 1535 0
 2177 0058 3544     		add	r5, r5, r6
 2178              	.LVL260:
ARM GAS  C:\Users\AHMED~1.ELE\AppData\Local\Temp\ccaBET3e.s 			page 79


1570:src/x509.c    ****     return K_X509ErrMainSequence;
 2179              		.loc 1 1570 0
 2180 005a 07A8     		add	r0, sp, #28
 2181 005c CAEB0501 		rsb	r1, r10, r5
 2182 0060 08AA     		add	r2, sp, #32
 2183 0062 FFF7FEFF 		bl	x509_get_sequence
 2184              	.LVL261:
 2185 0066 0028     		cmp	r0, #0
 2186 0068 00F03F83 		beq	.L318
1573:src/x509.c    ****   certLen = (DWORD)(certEnd - certStart);
 2187              		.loc 1 1573 0
 2188 006c 079F     		ldr	r7, [sp, #28]
 2189 006e 089B     		ldr	r3, [sp, #32]
1579:src/x509.c    ****     return K_X509ErrExplicit;
 2190              		.loc 1 1579 0
 2191 0070 EE1B     		subs	r6, r5, r7
 2192              	.LVL262:
 2193              	.LBB68:
 2194              	.LBB69:
 573:src/x509.c    ****     return 0;
 2195              		.loc 1 573 0
 2196 0072 4E45     		cmp	r6, r9
 2197              	.LBE69:
 2198              	.LBE68:
1573:src/x509.c    ****   certLen = (DWORD)(certEnd - certStart);
 2199              		.loc 1 1573 0
 2200 0074 0293     		str	r3, [sp, #8]
 2201              	.LVL263:
 2202              	.LBB72:
 2203              	.LBB70:
 573:src/x509.c    ****     return 0;
 2204              		.loc 1 573 0
 2205 0076 01DC     		bgt	.L258
 2206              	.LVL264:
 2207              	.L261:
 2208              	.LBE70:
 2209              	.LBE72:
1580:src/x509.c    **** 
 2210              		.loc 1 1580 0
 2211 0078 0320     		movs	r0, #3
 2212 007a 45E3     		b	.L257
 2213              	.LVL265:
 2214              	.L258:
 2215              	.LBB73:
 2216              	.LBB71:
 576:src/x509.c    **** 
 2217              		.loc 1 576 0
 2218 007c 2097     		str	r7, [sp, #128]
 582:src/x509.c    ****   {
 2219              		.loc 1 582 0
 2220 007e 3B78     		ldrb	r3, [r7]	@ zero_extendqisi2
 2221              	.LVL266:
 2222 0080 A02B     		cmp	r3, #160
 2223 0082 02D0     		beq	.L260
 584:src/x509.c    ****     return -1;
 2224              		.loc 1 584 0
 2225 0084 CDF82490 		str	r9, [sp, #36]
ARM GAS  C:\Users\AHMED~1.ELE\AppData\Local\Temp\ccaBET3e.s 			page 80


 2226 0088 13E0     		b	.L420
 2227              	.L260:
 587:src/x509.c    **** 
 2228              		.loc 1 587 0
 2229 008a 7B1C     		adds	r3, r7, #1
 589:src/x509.c    ****     return 0;
 2230              		.loc 1 589 0
 2231 008c 20A8     		add	r0, sp, #128
 2232 008e 711E     		subs	r1, r6, #1
 2233 0090 30AA     		add	r2, sp, #192
 587:src/x509.c    **** 
 2234              		.loc 1 587 0
 2235 0092 2093     		str	r3, [sp, #128]
 589:src/x509.c    ****     return 0;
 2236              		.loc 1 589 0
 2237 0094 FFF7FEFF 		bl	x509_get_asn_length
 2238              	.LVL267:
 2239 0098 0028     		cmp	r0, #0
 2240 009a EDD0     		beq	.L261
 2241 009c 3099     		ldr	r1, [sp, #192]
 2242 009e 8E42     		cmp	r6, r1
 2243 00a0 EADD     		ble	.L261
 592:src/x509.c    ****     return 0;
 2244              		.loc 1 592 0
 2245 00a2 20A8     		add	r0, sp, #128
 2246 00a4 09AA     		add	r2, sp, #36
 2247              	.LVL268:
 2248 00a6 FFF7FEFF 		bl	x509_get_integer
 2249              	.LVL269:
 2250 00aa 0028     		cmp	r0, #0
 2251 00ac E4D0     		beq	.L261
 595:src/x509.c    ****   return -1;
 2252              		.loc 1 595 0
 2253 00ae 209B     		ldr	r3, [sp, #128]
 2254 00b0 0793     		str	r3, [sp, #28]
 2255              	.L420:
 2256              	.LBE71:
 2257              	.LBE73:
1585:src/x509.c    ****     return K_X509ErrSerialNum;
 2258              		.loc 1 1585 0
 2259 00b2 079B     		ldr	r3, [sp, #28]
 2260 00b4 E91A     		subs	r1, r5, r3
 2261              	.LVL270:
 2262              	.LBB74:
 2263              	.LBB75:
1017:src/x509.c    ****       x509_get_asn_length(&p,a_len-1,&vlen) == 0)
 2264              		.loc 1 1017 0
 2265 00b6 0029     		cmp	r1, #0
 2266 00b8 01DC     		bgt	.L262
 2267              	.LVL271:
 2268              	.L264:
 2269              	.LBE75:
 2270              	.LBE74:
1586:src/x509.c    **** 
 2271              		.loc 1 1586 0
 2272 00ba 0420     		movs	r0, #4
 2273 00bc 24E3     		b	.L257
ARM GAS  C:\Users\AHMED~1.ELE\AppData\Local\Temp\ccaBET3e.s 			page 81


 2274              	.LVL272:
 2275              	.L262:
 2276              	.LBB79:
 2277              	.LBB76:
1017:src/x509.c    ****       x509_get_asn_length(&p,a_len-1,&vlen) == 0)
 2278              		.loc 1 1017 0
 2279 00be 5A1C     		adds	r2, r3, #1
 2280 00c0 2092     		str	r2, [sp, #128]
 2281 00c2 1B78     		ldrb	r3, [r3]	@ zero_extendqisi2
 2282 00c4 022B     		cmp	r3, #2
 2283 00c6 F8D1     		bne	.L264
1018:src/x509.c    ****     return 0;
 2284              		.loc 1 1018 0
 2285 00c8 20A8     		add	r0, sp, #128
 2286 00ca 0139     		subs	r1, r1, #1
 2287              	.LVL273:
 2288 00cc 30AA     		add	r2, sp, #192
 2289 00ce FFF7FEFF 		bl	x509_get_asn_length
 2290              	.LVL274:
1017:src/x509.c    ****       x509_get_asn_length(&p,a_len-1,&vlen) == 0)
 2291              		.loc 1 1017 0
 2292 00d2 0028     		cmp	r0, #0
 2293 00d4 F1D0     		beq	.L264
 2294              	.LVL275:
1021:src/x509.c    ****   *a_pp = p;
 2295              		.loc 1 1021 0
 2296 00d6 309B     		ldr	r3, [sp, #192]
 2297 00d8 2099     		ldr	r1, [sp, #128]
 2298              	.LBE76:
 2299              	.LBE79:
1593:src/x509.c    ****     return K_X509ErrCertAlg;
 2300              		.loc 1 1593 0
 2301 00da 07A8     		add	r0, sp, #28
 2302              	.LVL276:
 2303              	.LBB80:
 2304              	.LBB77:
1021:src/x509.c    ****   *a_pp = p;
 2305              		.loc 1 1021 0
 2306 00dc 1944     		add	r1, r1, r3
 2307              	.LVL277:
 2308              	.LBE77:
 2309              	.LBE80:
1593:src/x509.c    ****     return K_X509ErrCertAlg;
 2310              		.loc 1 1593 0
 2311 00de 0023     		movs	r3, #0
 2312              	.LBB81:
 2313              	.LBB78:
1022:src/x509.c    ****   return -1;
 2314              		.loc 1 1022 0
 2315 00e0 0791     		str	r1, [sp, #28]
 2316              	.LBE78:
 2317              	.LBE81:
1593:src/x509.c    ****     return K_X509ErrCertAlg;
 2318              		.loc 1 1593 0
 2319 00e2 0093     		str	r3, [sp]
 2320 00e4 691A     		subs	r1, r5, r1
 2321              	.LVL278:
ARM GAS  C:\Users\AHMED~1.ELE\AppData\Local\Temp\ccaBET3e.s 			page 82


 2322 00e6 0AAA     		add	r2, sp, #40
 2323 00e8 10AB     		add	r3, sp, #64
 2324 00ea FFF7FEFF 		bl	x509_get_algorithm_identifier
 2325              	.LVL279:
 2326 00ee 0028     		cmp	r0, #0
 2327 00f0 00F0FD82 		beq	.L321
1612:src/x509.c    ****     return K_X509ErrDnAttrib;
 2328              		.loc 1 1612 0
 2329 00f4 0799     		ldr	r1, [sp, #28]
 2330 00f6 07A8     		add	r0, sp, #28
 2331              	.LVL280:
 2332 00f8 691A     		subs	r1, r5, r1
 2333 00fa 4246     		mov	r2, r8
 2334 00fc FFF7FEFF 		bl	x509_get_dn_attrib
 2335              	.LVL281:
 2336 0100 0028     		cmp	r0, #0
 2337 0102 00F0F682 		beq	.L322
1620:src/x509.c    ****     return K_X509ErrValId;
 2338              		.loc 1 1620 0
 2339 0106 079B     		ldr	r3, [sp, #28]
 2340 0108 E91A     		subs	r1, r5, r3
 2341              	.LVL282:
 2342              	.LBB82:
 2343              	.LBB83:
1302:src/x509.c    ****       x509_get_asn_length(&p,a_len-1,&seqLen)==0 || (end-p)<seqLen)
 2344              		.loc 1 1302 0
 2345 010a 0029     		cmp	r1, #0
 2346 010c 01DC     		bgt	.L265
 2347              	.LVL283:
 2348              	.L267:
 2349              	.LBE83:
 2350              	.LBE82:
1621:src/x509.c    **** 
 2351              		.loc 1 1621 0
 2352 010e 0720     		movs	r0, #7
 2353 0110 FAE2     		b	.L257
 2354              	.LVL284:
 2355              	.L265:
 2356              	.LBB87:
 2357              	.LBB84:
1302:src/x509.c    ****       x509_get_asn_length(&p,a_len-1,&seqLen)==0 || (end-p)<seqLen)
 2358              		.loc 1 1302 0
 2359 0112 5A1C     		adds	r2, r3, #1
 2360 0114 0E92     		str	r2, [sp, #56]
 2361 0116 1B78     		ldrb	r3, [r3]	@ zero_extendqisi2
 2362 0118 302B     		cmp	r3, #48
 2363 011a F8D1     		bne	.L267
1303:src/x509.c    ****     return 0;
 2364              		.loc 1 1303 0
 2365 011c 0EA8     		add	r0, sp, #56
 2366 011e 0139     		subs	r1, r1, #1
 2367              	.LVL285:
 2368 0120 0FAA     		add	r2, sp, #60
 2369 0122 FFF7FEFF 		bl	x509_get_asn_length
 2370              	.LVL286:
1302:src/x509.c    ****       x509_get_asn_length(&p,a_len-1,&seqLen)==0 || (end-p)<seqLen)
 2371              		.loc 1 1302 0
ARM GAS  C:\Users\AHMED~1.ELE\AppData\Local\Temp\ccaBET3e.s 			page 83


 2372 0126 0028     		cmp	r0, #0
 2373 0128 F1D0     		beq	.L267
1303:src/x509.c    ****     return 0;
 2374              		.loc 1 1303 0
 2375 012a 0E9B     		ldr	r3, [sp, #56]
 2376 012c 0F99     		ldr	r1, [sp, #60]
 2377 012e EA1A     		subs	r2, r5, r3
 2378 0130 8A42     		cmp	r2, r1
 2379 0132 ECDB     		blt	.L267
1308:src/x509.c    ****     return 0;
 2380              		.loc 1 1308 0
 2381 0134 002A     		cmp	r2, #0
 2382 0136 EADD     		ble	.L267
 2383 0138 1E78     		ldrb	r6, [r3]	@ zero_extendqisi2
 2384              	.LVL287:
 2385 013a A6F11702 		sub	r2, r6, #23
 2386 013e 012A     		cmp	r2, #1
 2387 0140 E5D8     		bhi	.L267
 2388              	.LVL288:
1313:src/x509.c    **** /*
 2389              		.loc 1 1313 0
 2390 0142 0133     		adds	r3, r3, #1
1317:src/x509.c    ****     return 0;
 2391              		.loc 1 1317 0
 2392 0144 0EA8     		add	r0, sp, #56
 2393 0146 15AA     		add	r2, sp, #84
1313:src/x509.c    **** /*
 2394              		.loc 1 1313 0
 2395 0148 0E93     		str	r3, [sp, #56]
1317:src/x509.c    ****     return 0;
 2396              		.loc 1 1317 0
 2397 014a FFF7FEFF 		bl	x509_get_asn_length
 2398              	.LVL289:
 2399 014e 0028     		cmp	r0, #0
 2400 0150 DDD0     		beq	.L267
 2401 0152 0E9B     		ldr	r3, [sp, #56]
 2402 0154 159A     		ldr	r2, [sp, #84]
 2403 0156 EB1A     		subs	r3, r5, r3
 2404 0158 9342     		cmp	r3, r2
 2405 015a D8DB     		blt	.L267
1321:src/x509.c    ****   currTime[14] = 0;
 2406              		.loc 1 1321 0
 2407 015c 1AA9     		add	r1, sp, #104
 2408 015e 1220     		movs	r0, #18
 2409 0160 FFF7FEFF 		bl	sys_func1
 2410              	.LVL290:
1322:src/x509.c    ****   x509_generalize_time(timeFormat, timeLen, p, notBefore);
 2411              		.loc 1 1322 0
 2412 0164 0023     		movs	r3, #0
1323:src/x509.c    ****   if (memcmp(currTime, notBefore, 14) < 0)
 2413              		.loc 1 1323 0
 2414 0166 3046     		mov	r0, r6
1322:src/x509.c    ****   x509_generalize_time(timeFormat, timeLen, p, notBefore);
 2415              		.loc 1 1322 0
 2416 0168 8DF87630 		strb	r3, [sp, #118]
1323:src/x509.c    ****   if (memcmp(currTime, notBefore, 14) < 0)
 2417              		.loc 1 1323 0
ARM GAS  C:\Users\AHMED~1.ELE\AppData\Local\Temp\ccaBET3e.s 			page 84


 2418 016c 1599     		ldr	r1, [sp, #84]
 2419 016e 0E9A     		ldr	r2, [sp, #56]
 2420 0170 20AB     		add	r3, sp, #128
 2421 0172 FFF7FEFF 		bl	x509_generalize_time
 2422              	.LVL291:
1324:src/x509.c    ****     return 0;
 2423              		.loc 1 1324 0
 2424 0176 1AA8     		add	r0, sp, #104
 2425 0178 20A9     		add	r1, sp, #128
 2426 017a 0E22     		movs	r2, #14
 2427 017c FFF7FEFF 		bl	memcmp
 2428              	.LVL292:
 2429 0180 0028     		cmp	r0, #0
 2430 0182 C4DB     		blt	.L267
1327:src/x509.c    ****   if ((end-p)<1 || ((*p!=K_AsnUtcTime) && (*p!=K_AsnGeneralizedTime)))
 2431              		.loc 1 1327 0
 2432 0184 0E99     		ldr	r1, [sp, #56]
 2433 0186 159A     		ldr	r2, [sp, #84]
 2434 0188 8B18     		adds	r3, r1, r2
1328:src/x509.c    ****     return 0;
 2435              		.loc 1 1328 0
 2436 018a E81A     		subs	r0, r5, r3
 2437 018c 0028     		cmp	r0, #0
1327:src/x509.c    ****   if ((end-p)<1 || ((*p!=K_AsnUtcTime) && (*p!=K_AsnGeneralizedTime)))
 2438              		.loc 1 1327 0
 2439 018e 0E93     		str	r3, [sp, #56]
1328:src/x509.c    ****     return 0;
 2440              		.loc 1 1328 0
 2441 0190 BDDD     		ble	.L267
 2442 0192 8E5C     		ldrb	r6, [r1, r2]	@ zero_extendqisi2
 2443              	.LVL293:
 2444 0194 A6F11701 		sub	r1, r6, #23
 2445 0198 0129     		cmp	r1, #1
 2446 019a B8D8     		bhi	.L267
 2447              	.LVL294:
1334:src/x509.c    ****     return 0;
 2448              		.loc 1 1334 0
 2449 019c 0F99     		ldr	r1, [sp, #60]
1333:src/x509.c    ****   if (x509_get_asn_length(&p,seqLen-timeLen,&timeLen)==0 || (end-p)<timeLen)
 2450              		.loc 1 1333 0
 2451 019e 0133     		adds	r3, r3, #1
1334:src/x509.c    ****     return 0;
 2452              		.loc 1 1334 0
 2453 01a0 891A     		subs	r1, r1, r2
 2454 01a2 0EA8     		add	r0, sp, #56
 2455 01a4 15AA     		add	r2, sp, #84
1333:src/x509.c    ****   if (x509_get_asn_length(&p,seqLen-timeLen,&timeLen)==0 || (end-p)<timeLen)
 2456              		.loc 1 1333 0
 2457 01a6 0E93     		str	r3, [sp, #56]
1334:src/x509.c    ****     return 0;
 2458              		.loc 1 1334 0
 2459 01a8 FFF7FEFF 		bl	x509_get_asn_length
 2460              	.LVL295:
 2461 01ac 0028     		cmp	r0, #0
 2462 01ae AED0     		beq	.L267
 2463 01b0 0E9A     		ldr	r2, [sp, #56]
 2464 01b2 1599     		ldr	r1, [sp, #84]
ARM GAS  C:\Users\AHMED~1.ELE\AppData\Local\Temp\ccaBET3e.s 			page 85


 2465 01b4 AB1A     		subs	r3, r5, r2
 2466 01b6 8B42     		cmp	r3, r1
 2467 01b8 A9DB     		blt	.L267
1337:src/x509.c    ****   if (memcmp(currTime, notAfter, 14) > 0)
 2468              		.loc 1 1337 0
 2469 01ba 3046     		mov	r0, r6
 2470 01bc 30AB     		add	r3, sp, #192
 2471 01be FFF7FEFF 		bl	x509_generalize_time
 2472              	.LVL296:
1338:src/x509.c    ****     return 0;
 2473              		.loc 1 1338 0
 2474 01c2 1AA8     		add	r0, sp, #104
 2475 01c4 30A9     		add	r1, sp, #192
 2476 01c6 0E22     		movs	r2, #14
 2477 01c8 FFF7FEFF 		bl	memcmp
 2478              	.LVL297:
 2479 01cc 0028     		cmp	r0, #0
 2480 01ce 9EDC     		bgt	.L267
 2481              	.LVL298:
1341:src/x509.c    ****   *a_pp = p;
 2482              		.loc 1 1341 0
 2483 01d0 0E99     		ldr	r1, [sp, #56]
 2484 01d2 159B     		ldr	r3, [sp, #84]
 2485              	.LBE84:
 2486              	.LBE87:
1626:src/x509.c    ****     return K_X509ErrSubDn;
 2487              		.loc 1 1626 0
 2488 01d4 04F50879 		add	r9, r4, #544
 2489              	.LBB88:
 2490              	.LBB85:
1341:src/x509.c    ****   *a_pp = p;
 2491              		.loc 1 1341 0
 2492 01d8 1944     		add	r1, r1, r3
 2493              	.LVL299:
 2494              	.LBE85:
 2495              	.LBE88:
1626:src/x509.c    ****     return K_X509ErrSubDn;
 2496              		.loc 1 1626 0
 2497 01da 07A8     		add	r0, sp, #28
 2498              	.LVL300:
 2499              	.LBB89:
 2500              	.LBB86:
1342:src/x509.c    ****   return -1;
 2501              		.loc 1 1342 0
 2502 01dc 0791     		str	r1, [sp, #28]
 2503              	.LBE86:
 2504              	.LBE89:
1626:src/x509.c    ****     return K_X509ErrSubDn;
 2505              		.loc 1 1626 0
 2506 01de 4A46     		mov	r2, r9
 2507 01e0 691A     		subs	r1, r5, r1
 2508              	.LVL301:
 2509 01e2 FFF7FEFF 		bl	x509_get_dn_attrib
 2510              	.LVL302:
 2511 01e6 0028     		cmp	r0, #0
 2512 01e8 00F08582 		beq	.L324
1634:src/x509.c    ****     return K_X509ErrPubSeq;
ARM GAS  C:\Users\AHMED~1.ELE\AppData\Local\Temp\ccaBET3e.s 			page 86


 2513              		.loc 1 1634 0
 2514 01ec 0799     		ldr	r1, [sp, #28]
 2515 01ee 07A8     		add	r0, sp, #28
 2516              	.LVL303:
 2517 01f0 691A     		subs	r1, r5, r1
 2518 01f2 08AA     		add	r2, sp, #32
 2519 01f4 FFF7FEFF 		bl	x509_get_sequence
 2520              	.LVL304:
 2521 01f8 0028     		cmp	r0, #0
 2522 01fa 00F07E82 		beq	.L325
1637:src/x509.c    ****     return K_X509ErrPubAlg;
 2523              		.loc 1 1637 0
 2524 01fe 0123     		movs	r3, #1
 2525 0200 0799     		ldr	r1, [sp, #28]
 2526 0202 0093     		str	r3, [sp]
 2527 0204 07A8     		add	r0, sp, #28
 2528              	.LVL305:
 2529 0206 691A     		subs	r1, r5, r1
 2530 0208 0BAA     		add	r2, sp, #44
 2531 020a 15AB     		add	r3, sp, #84
 2532 020c FFF7FEFF 		bl	x509_get_algorithm_identifier
 2533              	.LVL306:
 2534 0210 08B9     		cbnz	r0, .L268
 2535              	.LVL307:
 2536              	.L269:
1638:src/x509.c    ****   if ( pubKeyAlgorithm != K_OIdRsaEncryption )
 2537              		.loc 1 1638 0
 2538 0212 0A20     		movs	r0, #10
 2539 0214 78E2     		b	.L257
 2540              	.LVL308:
 2541              	.L268:
1639:src/x509.c    ****     return K_X509ErrPubAlg;
 2542              		.loc 1 1639 0
 2543 0216 0B9A     		ldr	r2, [sp, #44]
 2544 0218 A84B     		ldr	r3, .L431
 2545 021a 9A42     		cmp	r2, r3
 2546 021c F9D1     		bne	.L269
1642:src/x509.c    ****     return K_X509ErrPubKey;
 2547              		.loc 1 1642 0
 2548 021e 079A     		ldr	r2, [sp, #28]
 2549 0220 04F52273 		add	r3, r4, #648
 2550 0224 C2EB050B 		rsb	fp, r2, r5
 2551              	.LBB90:
 2552              	.LBB91:
1421:src/x509.c    ****       x509_get_asn_length(&p,a_len-1,&pubKeyLen)==0 || (a_len-1)<pubKeyLen)
 2553              		.loc 1 1421 0
 2554 0228 BBF1000F 		cmp	fp, #0
 2555              	.LBE91:
 2556              	.LBE90:
1642:src/x509.c    ****     return K_X509ErrPubKey;
 2557              		.loc 1 1642 0
 2558 022c 0393     		str	r3, [sp, #12]
 2559              	.LVL309:
 2560              	.LBB94:
 2561              	.LBB92:
1420:src/x509.c    ****   if (a_len<1 || (*(p++)!=K_AsnBitString) ||
 2562              		.loc 1 1420 0
ARM GAS  C:\Users\AHMED~1.ELE\AppData\Local\Temp\ccaBET3e.s 			page 87


 2563 022e 0DAE     		add	r6, sp, #52
 2564              	.LVL310:
1421:src/x509.c    ****       x509_get_asn_length(&p,a_len-1,&pubKeyLen)==0 || (a_len-1)<pubKeyLen)
 2565              		.loc 1 1421 0
 2566 0230 01DC     		bgt	.L270
 2567              	.LVL311:
 2568              	.L272:
 2569              	.LBE92:
 2570              	.LBE94:
1643:src/x509.c    ****   /* dbg_printf("x509 public key size = %d\r\n", */
 2571              		.loc 1 1643 0
 2572 0232 0B20     		movs	r0, #11
 2573 0234 68E2     		b	.L257
 2574              	.LVL312:
 2575              	.L270:
 2576              	.LBB95:
 2577              	.LBB93:
1421:src/x509.c    ****       x509_get_asn_length(&p,a_len-1,&pubKeyLen)==0 || (a_len-1)<pubKeyLen)
 2578              		.loc 1 1421 0
 2579 0236 511C     		adds	r1, r2, #1
 2580 0238 3160     		str	r1, [r6]
 2581 023a 1278     		ldrb	r2, [r2]	@ zero_extendqisi2
 2582 023c 032A     		cmp	r2, #3
 2583 023e F8D1     		bne	.L272
1422:src/x509.c    ****     return 0;
 2584              		.loc 1 1422 0
 2585 0240 3046     		mov	r0, r6
 2586 0242 0BF1FF31 		add	r1, fp, #-1
 2587 0246 0FAA     		add	r2, sp, #60
 2588 0248 FFF7FEFF 		bl	x509_get_asn_length
 2589              	.LVL313:
1421:src/x509.c    ****       x509_get_asn_length(&p,a_len-1,&pubKeyLen)==0 || (a_len-1)<pubKeyLen)
 2590              		.loc 1 1421 0
 2591 024c 0028     		cmp	r0, #0
 2592 024e F0D0     		beq	.L272
1422:src/x509.c    ****     return 0;
 2593              		.loc 1 1422 0
 2594 0250 0F99     		ldr	r1, [sp, #60]
 2595 0252 8B45     		cmp	fp, r1
 2596 0254 EDDD     		ble	.L272
1425:src/x509.c    **** /*
 2597              		.loc 1 1425 0
 2598 0256 3368     		ldr	r3, [r6]
 2599 0258 5A1C     		adds	r2, r3, #1
 2600 025a 3260     		str	r2, [r6]
 2601              	.LVL314:
1429:src/x509.c    ****     return 0;
 2602              		.loc 1 1429 0
 2603 025c 1B78     		ldrb	r3, [r3]	@ zero_extendqisi2
 2604              	.LVL315:
 2605 025e 002B     		cmp	r3, #0
 2606 0260 E7D1     		bne	.L272
1432:src/x509.c    **** #if 0
 2607              		.loc 1 1432 0
 2608 0262 0423     		movs	r3, #4
 2609              	.LVL316:
1438:src/x509.c    ****       x509_get_big(&p,seqLen,(BYTE*)a_pubKey->s_key,&keyLen) == 0 ||
ARM GAS  C:\Users\AHMED~1.ELE\AppData\Local\Temp\ccaBET3e.s 			page 88


 2610              		.loc 1 1438 0
 2611 0264 3046     		mov	r0, r6
1432:src/x509.c    **** #if 0
 2612              		.loc 1 1432 0
 2613 0266 3093     		str	r3, [sp, #192]
 2614              	.LVL317:
1436:src/x509.c    **** #endif
 2615              		.loc 1 1436 0
 2616 0268 4FF40073 		mov	r3, #512
1438:src/x509.c    ****       x509_get_big(&p,seqLen,(BYTE*)a_pubKey->s_key,&keyLen) == 0 ||
 2617              		.loc 1 1438 0
 2618 026c 1AAA     		add	r2, sp, #104
1436:src/x509.c    **** #endif
 2619              		.loc 1 1436 0
 2620 026e 2093     		str	r3, [sp, #128]
1438:src/x509.c    ****       x509_get_big(&p,seqLen,(BYTE*)a_pubKey->s_key,&keyLen) == 0 ||
 2621              		.loc 1 1438 0
 2622 0270 FFF7FEFF 		bl	x509_get_sequence
 2623              	.LVL318:
 2624 0274 0028     		cmp	r0, #0
 2625 0276 DCD0     		beq	.L272
1439:src/x509.c    ****       x509_get_big(&p,seqLen,(BYTE*)value,&expLen) == 0)
 2626              		.loc 1 1439 0
 2627 0278 3046     		mov	r0, r6
 2628 027a 1A99     		ldr	r1, [sp, #104]
 2629 027c 04F52472 		add	r2, r4, #656
 2630 0280 20AB     		add	r3, sp, #128
 2631 0282 FFF7FEFF 		bl	x509_get_big
 2632              	.LVL319:
1438:src/x509.c    ****       x509_get_big(&p,seqLen,(BYTE*)a_pubKey->s_key,&keyLen) == 0 ||
 2633              		.loc 1 1438 0
 2634 0286 0028     		cmp	r0, #0
 2635 0288 D3D0     		beq	.L272
1440:src/x509.c    ****     return 0;
 2636              		.loc 1 1440 0
 2637 028a 0DF1380B 		add	fp, sp, #56
 2638              	.LVL320:
 2639 028e 3046     		mov	r0, r6
 2640 0290 1A99     		ldr	r1, [sp, #104]
 2641 0292 5A46     		mov	r2, fp
 2642 0294 30AB     		add	r3, sp, #192
 2643 0296 FFF7FEFF 		bl	x509_get_big
 2644              	.LVL321:
1439:src/x509.c    ****       x509_get_big(&p,seqLen,(BYTE*)value,&expLen) == 0)
 2645              		.loc 1 1439 0
 2646 029a 0028     		cmp	r0, #0
 2647 029c C9D0     		beq	.L272
1448:src/x509.c    ****   a_pubKey->d_exponent = 0;
 2648              		.loc 1 1448 0
 2649 029e 209B     		ldr	r3, [sp, #128]
1450:src/x509.c    ****     a_pubKey->d_exponent = (a_pubKey->d_exponent<<8) | value[count];
 2650              		.loc 1 1450 0
 2651 02a0 3099     		ldr	r1, [sp, #192]
1448:src/x509.c    ****   a_pubKey->d_exponent = 0;
 2652              		.loc 1 1448 0
 2653 02a2 C4F88C32 		str	r3, [r4, #652]
1449:src/x509.c    ****   for (count=0;count<expLen;count++)
ARM GAS  C:\Users\AHMED~1.ELE\AppData\Local\Temp\ccaBET3e.s 			page 89


 2654              		.loc 1 1449 0
 2655 02a6 0023     		movs	r3, #0
 2656 02a8 C4F88832 		str	r3, [r4, #648]
 2657              	.LVL322:
 2658              	.L273:
1450:src/x509.c    ****     a_pubKey->d_exponent = (a_pubKey->d_exponent<<8) | value[count];
 2659              		.loc 1 1450 0
 2660 02ac 8B42     		cmp	r3, r1
 2661 02ae 09D0     		beq	.L428
1451:src/x509.c    **** 
 2662              		.loc 1 1451 0
 2663 02b0 1BF80300 		ldrb	r0, [fp, r3]	@ zero_extendqisi2
 2664 02b4 D4F88822 		ldr	r2, [r4, #648]
1450:src/x509.c    ****     a_pubKey->d_exponent = (a_pubKey->d_exponent<<8) | value[count];
 2665              		.loc 1 1450 0
 2666 02b8 0133     		adds	r3, r3, #1
 2667              	.LVL323:
1451:src/x509.c    **** 
 2668              		.loc 1 1451 0
 2669 02ba 40EA0222 		orr	r2, r0, r2, lsl #8
 2670 02be C4F88822 		str	r2, [r4, #648]
 2671 02c2 F3E7     		b	.L273
 2672              	.L428:
1453:src/x509.c    ****   return -1;
 2673              		.loc 1 1453 0
 2674 02c4 0D99     		ldr	r1, [sp, #52]
 2675 02c6 0791     		str	r1, [sp, #28]
 2676              	.LBE93:
 2677              	.LBE95:
1647:src/x509.c    ****     if (x509_get_implicit_bit_string(&p,(int)(end - p),K_ImplicitIssuerId) == 0 ||
 2678              		.loc 1 1647 0
 2679 02c8 0B78     		ldrb	r3, [r1]	@ zero_extendqisi2
 2680              	.LVL324:
 2681 02ca 302B     		cmp	r3, #48
 2682 02cc 06D1     		bne	.L275
 2683              	.L302:
1573:src/x509.c    ****   certLen = (DWORD)(certEnd - certStart);
 2684              		.loc 1 1573 0
 2685 02ce 029B     		ldr	r3, [sp, #8]
 2686 02d0 1F44     		add	r7, r7, r3
 2687              	.LVL325:
1653:src/x509.c    ****     return K_X509ErrCertEnd;
 2688              		.loc 1 1653 0
 2689 02d2 079B     		ldr	r3, [sp, #28]
 2690 02d4 9F42     		cmp	r7, r3
 2691 02d6 40F01282 		bne	.L327
 2692 02da 5AE1     		b	.L429
 2693              	.LVL326:
 2694              	.L275:
1648:src/x509.c    ****         x509_get_implicit_bit_string(&p,(int)(end - p),K_ImplicitSubjectId) == 0 ||
 2695              		.loc 1 1648 0
 2696 02dc 07A8     		add	r0, sp, #28
 2697              	.LVL327:
 2698 02de 691A     		subs	r1, r5, r1
 2699 02e0 0122     		movs	r2, #1
 2700 02e2 FFF7FEFF 		bl	x509_get_implicit_bit_string
 2701              	.LVL328:
ARM GAS  C:\Users\AHMED~1.ELE\AppData\Local\Temp\ccaBET3e.s 			page 90


 2702 02e6 08B9     		cbnz	r0, .L277
 2703              	.L278:
1651:src/x509.c    **** 
 2704              		.loc 1 1651 0
 2705 02e8 0C20     		movs	r0, #12
 2706 02ea 0DE2     		b	.L257
 2707              	.L277:
1649:src/x509.c    ****         x509_get_explicit_extensions(&p,(int)(end - p),K_ExplicitExtension,a_cert_info) == 0)
 2708              		.loc 1 1649 0 discriminator 1
 2709 02ec 0799     		ldr	r1, [sp, #28]
 2710 02ee 07A8     		add	r0, sp, #28
 2711              	.LVL329:
 2712 02f0 691A     		subs	r1, r5, r1
 2713 02f2 0222     		movs	r2, #2
 2714 02f4 FFF7FEFF 		bl	x509_get_implicit_bit_string
 2715              	.LVL330:
1648:src/x509.c    ****         x509_get_implicit_bit_string(&p,(int)(end - p),K_ImplicitSubjectId) == 0 ||
 2716              		.loc 1 1648 0 discriminator 1
 2717 02f8 0028     		cmp	r0, #0
 2718 02fa F5D0     		beq	.L278
1650:src/x509.c    ****       return K_X509ErrExternsion;
 2719              		.loc 1 1650 0
 2720 02fc 0799     		ldr	r1, [sp, #28]
 2721              	.LVL331:
 2722 02fe 6B1A     		subs	r3, r5, r1
 2723              	.LVL332:
 2724              	.LBB96:
 2725              	.LBB97:
 638:src/x509.c    ****   p   = *a_pp;
 2726              		.loc 1 638 0
 2727 0300 002B     		cmp	r3, #0
 2728 0302 F1DD     		ble	.L278
 639:src/x509.c    ****   end = p + a_inlen;
 2729              		.loc 1 639 0
 2730 0304 CBF80010 		str	r1, [fp]
 2731              	.LVL333:
 644:src/x509.c    ****     return -1;
 2732              		.loc 1 644 0
 2733 0308 0B78     		ldrb	r3, [r1]	@ zero_extendqisi2
 2734              	.LVL334:
 2735 030a A32B     		cmp	r3, #163
 2736 030c DFD1     		bne	.L302
 647:src/x509.c    ****   if (x509_get_asn_length(&p,(int)(end - p),&len) == 0 || (end-p) < len)
 2737              		.loc 1 647 0
 2738 030e 0131     		adds	r1, r1, #1
 2739              	.LVL335:
 648:src/x509.c    ****     return 0;
 2740              		.loc 1 648 0
 2741 0310 5846     		mov	r0, fp
 647:src/x509.c    ****   if (x509_get_asn_length(&p,(int)(end - p),&len) == 0 || (end-p) < len)
 2742              		.loc 1 647 0
 2743 0312 CBF80010 		str	r1, [fp]
 648:src/x509.c    ****     return 0;
 2744              		.loc 1 648 0
 2745 0316 0FAA     		add	r2, sp, #60
 2746 0318 691A     		subs	r1, r5, r1
 2747 031a FFF7FEFF 		bl	x509_get_asn_length
ARM GAS  C:\Users\AHMED~1.ELE\AppData\Local\Temp\ccaBET3e.s 			page 91


 2748              	.LVL336:
 2749 031e 0028     		cmp	r0, #0
 2750 0320 E2D0     		beq	.L278
 2751 0322 DBF80010 		ldr	r1, [fp]
 2752 0326 0F9B     		ldr	r3, [sp, #60]
 2753 0328 691A     		subs	r1, r5, r1
 2754 032a 9942     		cmp	r1, r3
 2755 032c DCDB     		blt	.L278
 657:src/x509.c    ****     return 0;
 2756              		.loc 1 657 0
 2757 032e 5846     		mov	r0, fp
 2758 0330 0FAA     		add	r2, sp, #60
 2759 0332 FFF7FEFF 		bl	x509_get_sequence
 2760              	.LVL337:
 2761 0336 0028     		cmp	r0, #0
 2762 0338 D6D0     		beq	.L278
 659:src/x509.c    ****   while ((p != extEnd) && *p == (K_AsnSequence|K_AsnConstructed))
 2763              		.loc 1 659 0
 2764 033a DBF80060 		ldr	r6, [fp]
 2765 033e 0F9B     		ldr	r3, [sp, #60]
 2766 0340 1E44     		add	r6, r6, r3
 2767              	.LVL338:
 2768              	.L282:
 660:src/x509.c    ****   {
 2769              		.loc 1 660 0
 2770 0342 0E99     		ldr	r1, [sp, #56]
 2771 0344 B142     		cmp	r1, r6
 2772 0346 00F02281 		beq	.L300
 2773 034a 0B78     		ldrb	r3, [r1]	@ zero_extendqisi2
 2774 034c 302B     		cmp	r3, #48
 2775 034e 40F01E81 		bne	.L300
 662:src/x509.c    ****       return 0;
 2776              		.loc 1 662 0
 2777 0352 0EA8     		add	r0, sp, #56
 2778 0354 711A     		subs	r1, r6, r1
 2779 0356 0FAA     		add	r2, sp, #60
 2780 0358 FFF7FEFF 		bl	x509_get_sequence
 2781              	.LVL339:
 2782 035c 0028     		cmp	r0, #0
 2783 035e C3D0     		beq	.L278
 674:src/x509.c    ****       return 0;
 2784              		.loc 1 674 0
 2785 0360 0E9B     		ldr	r3, [sp, #56]
 2786 0362 F21A     		subs	r2, r6, r3
 2787 0364 002A     		cmp	r2, #0
 2788 0366 BFDD     		ble	.L278
 2789 0368 591C     		adds	r1, r3, #1
 2790 036a 0E91     		str	r1, [sp, #56]
 2791 036c 1B78     		ldrb	r3, [r3]	@ zero_extendqisi2
 2792 036e 062B     		cmp	r3, #6
 2793 0370 BAD1     		bne	.L278
 2794              	.LVL340:
 678:src/x509.c    ****         (extEnd - p) < len)
 2795              		.loc 1 678 0
 2796 0372 0EA8     		add	r0, sp, #56
 2797 0374 711A     		subs	r1, r6, r1
 2798 0376 0FAA     		add	r2, sp, #60
ARM GAS  C:\Users\AHMED~1.ELE\AppData\Local\Temp\ccaBET3e.s 			page 92


 2799 0378 FFF7FEFF 		bl	x509_get_asn_length
 2800              	.LVL341:
 2801 037c 0028     		cmp	r0, #0
 2802 037e B3D0     		beq	.L278
 679:src/x509.c    ****       return 0;
 2803              		.loc 1 679 0
 2804 0380 0E9A     		ldr	r2, [sp, #56]
 2805 0382 0F9B     		ldr	r3, [sp, #60]
 2806 0384 B11A     		subs	r1, r6, r2
 678:src/x509.c    ****         (extEnd - p) < len)
 2807              		.loc 1 678 0
 2808 0386 9942     		cmp	r1, r3
 2809 0388 AEDB     		blt	.L278
 686:src/x509.c    ****     p += len;
 2810              		.loc 1 686 0
 2811 038a 1946     		mov	r1, r3
 2812 038c 1046     		mov	r0, r2
 2813 038e 0592     		str	r2, [sp, #20]
 2814 0390 0493     		str	r3, [sp, #16]
 2815 0392 FFF7FEFF 		bl	oid_to_hash_value
 2816              	.LVL342:
 687:src/x509.c    **** #endif
 2817              		.loc 1 687 0
 2818 0396 049B     		ldr	r3, [sp, #16]
 2819 0398 059A     		ldr	r2, [sp, #20]
 686:src/x509.c    ****     p += len;
 2820              		.loc 1 686 0
 2821 039a 8446     		mov	ip, r0
 2822              	.LVL343:
 687:src/x509.c    **** #endif
 2823              		.loc 1 687 0
 2824 039c D118     		adds	r1, r2, r3
 2825 039e 0E91     		str	r1, [sp, #56]
 695:src/x509.c    ****     {
 2826              		.loc 1 695 0
 2827 03a0 D35C     		ldrb	r3, [r2, r3]	@ zero_extendqisi2
 2828 03a2 012B     		cmp	r3, #1
 2829 03a4 06D1     		bne	.L283
 698:src/x509.c    ****         return 0;
 2830              		.loc 1 698 0
 2831 03a6 8B1C     		adds	r3, r1, #2
 2832 03a8 0E93     		str	r3, [sp, #56]
 2833 03aa 4B78     		ldrb	r3, [r1, #1]	@ zero_extendqisi2
 2834 03ac 012B     		cmp	r3, #1
 2835 03ae 9BD1     		bne	.L278
 700:src/x509.c    **** // syspack V1.2 9-7-2012
 2836              		.loc 1 700 0
 2837 03b0 0331     		adds	r1, r1, #3
 2838 03b2 0E91     		str	r1, [sp, #56]
 2839              	.L283:
 704:src/x509.c    ****         x509_get_asn_length(&p,(int)(extEnd - p),&len) == 0 ||
 2840              		.loc 1 704 0
 2841 03b4 0E9B     		ldr	r3, [sp, #56]
 2842 03b6 CDF810C0 		str	ip, [sp, #16]
 2843 03ba F21A     		subs	r2, r6, r3
 2844 03bc 002A     		cmp	r2, #0
 2845 03be 93DD     		ble	.L278
ARM GAS  C:\Users\AHMED~1.ELE\AppData\Local\Temp\ccaBET3e.s 			page 93


 2846 03c0 591C     		adds	r1, r3, #1
 2847 03c2 0E91     		str	r1, [sp, #56]
 2848 03c4 1B78     		ldrb	r3, [r3]	@ zero_extendqisi2
 2849 03c6 042B     		cmp	r3, #4
 2850 03c8 8ED1     		bne	.L278
 705:src/x509.c    ****         extEnd - p < len)
 2851              		.loc 1 705 0
 2852 03ca 0EA8     		add	r0, sp, #56
 2853              	.LVL344:
 2854 03cc 711A     		subs	r1, r6, r1
 2855 03ce 0FAA     		add	r2, sp, #60
 2856 03d0 FFF7FEFF 		bl	x509_get_asn_length
 2857              	.LVL345:
 704:src/x509.c    ****         x509_get_asn_length(&p,(int)(extEnd - p),&len) == 0 ||
 2858              		.loc 1 704 0
 2859 03d4 0028     		cmp	r0, #0
 2860 03d6 87D0     		beq	.L278
 706:src/x509.c    ****       return 0;
 2861              		.loc 1 706 0
 2862 03d8 0E9B     		ldr	r3, [sp, #56]
 705:src/x509.c    ****         extEnd - p < len)
 2863              		.loc 1 705 0
 2864 03da 0F9A     		ldr	r2, [sp, #60]
 706:src/x509.c    ****       return 0;
 2865              		.loc 1 706 0
 2866 03dc F11A     		subs	r1, r6, r3
 705:src/x509.c    ****         extEnd - p < len)
 2867              		.loc 1 705 0
 2868 03de 9142     		cmp	r1, r2
 2869 03e0 82DB     		blt	.L278
 709:src/x509.c    ****     {
 2870              		.loc 1 709 0
 2871 03e2 374A     		ldr	r2, .L431+4
 2872 03e4 DDF810C0 		ldr	ip, [sp, #16]
 2873 03e8 9445     		cmp	ip, r2
 2874 03ea 49D0     		beq	.L285
 2875 03ec 0232     		adds	r2, r2, #2
 2876 03ee 9445     		cmp	ip, r2
 2877 03f0 06D0     		beq	.L286
 2878 03f2 1C3A     		subs	r2, r2, #28
 2879 03f4 9445     		cmp	ip, r2
 2880 03f6 03F10101 		add	r1, r3, #1
 2881 03fa 40F0B680 		bne	.L422
 2882 03fe 61E0     		b	.L430
 2883              	.L286:
 717:src/x509.c    ****           return 0;
 2884              		.loc 1 717 0
 2885 0400 0EA8     		add	r0, sp, #56
 2886 0402 0FAA     		add	r2, sp, #60
 2887 0404 FFF7FEFF 		bl	x509_get_sequence
 2888              	.LVL346:
 2889 0408 0028     		cmp	r0, #0
 2890 040a 3FF46DAF 		beq	.L278
 730:src/x509.c    ****           break;
 2891              		.loc 1 730 0
 2892 040e 0F99     		ldr	r1, [sp, #60]
 2893 0410 0029     		cmp	r1, #0
ARM GAS  C:\Users\AHMED~1.ELE\AppData\Local\Temp\ccaBET3e.s 			page 94


 2894 0412 96D0     		beq	.L282
 2895              	.LVL347:
 2896              	.LBB98:
 2897              	.LBB99:
 297:src/x509.c    ****        x509_get_asn_length(&p,a_len-1, &blen) == 0 )
 2898              		.loc 1 297 0
 2899 0414 0229     		cmp	r1, #2
 295:src/x509.c    ****   
 2900              		.loc 1 295 0
 2901 0416 0E9B     		ldr	r3, [sp, #56]
 297:src/x509.c    ****        x509_get_asn_length(&p,a_len-1, &blen) == 0 )
 2902              		.loc 1 297 0
 2903 0418 7FF766AF 		ble	.L278
 2904 041c 5A1C     		adds	r2, r3, #1
 2905 041e 2092     		str	r2, [sp, #128]
 2906 0420 1B78     		ldrb	r3, [r3]	@ zero_extendqisi2
 2907 0422 012B     		cmp	r3, #1
 2908 0424 7FF460AF 		bne	.L278
 298:src/x509.c    ****     return 0;
 2909              		.loc 1 298 0
 2910 0428 20A8     		add	r0, sp, #128
 2911 042a 0139     		subs	r1, r1, #1
 2912              	.LVL348:
 2913 042c 30AA     		add	r2, sp, #192
 2914 042e FFF7FEFF 		bl	x509_get_asn_length
 2915              	.LVL349:
 297:src/x509.c    ****        x509_get_asn_length(&p,a_len-1, &blen) == 0 )
 2916              		.loc 1 297 0
 2917 0432 0028     		cmp	r0, #0
 2918 0434 3FF458AF 		beq	.L278
 300:src/x509.c    ****     return 0;
 2919              		.loc 1 300 0
 2920 0438 309B     		ldr	r3, [sp, #192]
 2921 043a 012B     		cmp	r3, #1
 2922 043c 7FF454AF 		bne	.L278
 303:src/x509.c    ****   *a_pp = p;
 2923              		.loc 1 303 0
 2924 0440 209A     		ldr	r2, [sp, #128]
 2925 0442 531C     		adds	r3, r2, #1
 2926 0444 2093     		str	r3, [sp, #128]
 2927              	.LVL350:
 2928 0446 1278     		ldrb	r2, [r2]	@ zero_extendqisi2
 2929              	.LVL351:
 304:src/x509.c    ****   return -1;
 2930              		.loc 1 304 0
 2931 0448 0E93     		str	r3, [sp, #56]
 2932 044a 2388     		ldrh	r3, [r4]
 2933              	.LBE99:
 2934              	.LBE98:
 735:src/x509.c    ****           a_cert_info->w_key_usage |= K_X509_KeyUsageFlag_IsCA;
 2935              		.loc 1 735 0
 2936 044c 22B1     		cbz	r2, .L290
 736:src/x509.c    ****         } else {
 2937              		.loc 1 736 0
 2938 044e 6FEA4343 		mvn	r3, r3, lsl #17
 2939 0452 6FEA5343 		mvn	r3, r3, lsr #17
 2940 0456 01E0     		b	.L427
ARM GAS  C:\Users\AHMED~1.ELE\AppData\Local\Temp\ccaBET3e.s 			page 95


 2941              	.L290:
 738:src/x509.c    ****         };
 2942              		.loc 1 738 0
 2943 0458 C3F30E03 		ubfx	r3, r3, #0, #15
 2944              	.L427:
 754:src/x509.c    ****         {
 2945              		.loc 1 754 0
 2946 045c 0E99     		ldr	r1, [sp, #56]
 738:src/x509.c    ****         };
 2947              		.loc 1 738 0
 2948 045e 2380     		strh	r3, [r4]	@ movhi
 754:src/x509.c    ****         {
 2949              		.loc 1 754 0
 2950 0460 0B78     		ldrb	r3, [r1]	@ zero_extendqisi2
 2951 0462 022B     		cmp	r3, #2
 2952 0464 08D1     		bne	.L292
 756:src/x509.c    ****             return 0;
 2953              		.loc 1 756 0
 2954 0466 0EA8     		add	r0, sp, #56
 2955 0468 711A     		subs	r1, r6, r1
 2956 046a 1AAA     		add	r2, sp, #104
 2957              	.LVL352:
 2958 046c FFF7FEFF 		bl	x509_get_integer
 2959              	.LVL353:
 2960 0470 0028     		cmp	r0, #0
 2961 0472 7FF466AF 		bne	.L282
 2962 0476 37E7     		b	.L278
 2963              	.LVL354:
 2964              	.L292:
 760:src/x509.c    ****         break;
 2965              		.loc 1 760 0
 2966 0478 4FF0FF33 		mov	r3, #-1
 2967 047c 1A93     		str	r3, [sp, #104]
 2968 047e 60E7     		b	.L282
 2969              	.LVL355:
 2970              	.L285:
 765:src/x509.c    ****           return 0;
 2971              		.loc 1 765 0
 2972 0480 0EA8     		add	r0, sp, #56
 2973 0482 0FAA     		add	r2, sp, #60
 2974 0484 FFF7FEFF 		bl	x509_get_sequence
 2975              	.LVL356:
 2976 0488 0028     		cmp	r0, #0
 2977 048a 3FF42DAF 		beq	.L278
 2978              	.L293:
 783:src/x509.c    ****         {
 2979              		.loc 1 783 0
 2980 048e 0F99     		ldr	r1, [sp, #60]
 2981 0490 0029     		cmp	r1, #0
 2982 0492 7FF756AF 		ble	.L282
 785:src/x509.c    ****           {
 2983              		.loc 1 785 0
 2984 0496 0E9A     		ldr	r2, [sp, #56]
 2985 0498 1346     		mov	r3, r2
 2986 049a 13F8020B 		ldrb	r0, [r3], #2	@ zero_extendqisi2
 811:src/x509.c    ****                 if (extEnd - p < tmpLen)
 2987              		.loc 1 811 0
ARM GAS  C:\Users\AHMED~1.ELE\AppData\Local\Temp\ccaBET3e.s 			page 96


 2988 049e 0E93     		str	r3, [sp, #56]
 2989 04a0 5278     		ldrb	r2, [r2, #1]	@ zero_extendqisi2
 2990              	.LVL357:
 812:src/x509.c    ****                   return 0;
 2991              		.loc 1 812 0
 2992 04a2 F31A     		subs	r3, r6, r3
 2993 04a4 9342     		cmp	r3, r2
 2994 04a6 FFF61FAF 		blt	.L278
 815:src/x509.c    ****           len -= tmpLen + 2; /* the magic 2 is the type and length */
 2995              		.loc 1 815 0
 2996 04aa 0E9B     		ldr	r3, [sp, #56]
 2997 04ac 1344     		add	r3, r3, r2
 2998 04ae 0E93     		str	r3, [sp, #56]
 816:src/x509.c    ****         }
 2999              		.loc 1 816 0
 3000 04b0 6FF00103 		mvn	r3, #1
 3001 04b4 9B1A     		subs	r3, r3, r2
 3002 04b6 1944     		add	r1, r1, r3
 3003 04b8 0F91     		str	r1, [sp, #60]
 3004 04ba E8E7     		b	.L293
 3005              	.L432:
 3006              		.align	2
 3007              	.L431:
 3008 04bc FC7E758B 		.word	-1955234052
 3009 04c0 9CF1870B 		.word	193458588
 3010              	.LVL358:
 3011              	.L430:
 917:src/x509.c    ****           return 0;
 3012              		.loc 1 917 0
 3013 04c4 0E91     		str	r1, [sp, #56]
 3014 04c6 1B78     		ldrb	r3, [r3]	@ zero_extendqisi2
 3015 04c8 032B     		cmp	r3, #3
 3016 04ca 7FF40DAF 		bne	.L278
 919:src/x509.c    ****             extEnd - p < len)
 3017              		.loc 1 919 0
 3018 04ce 0EA8     		add	r0, sp, #56
 3019 04d0 711A     		subs	r1, r6, r1
 3020 04d2 0FAA     		add	r2, sp, #60
 3021 04d4 FFF7FEFF 		bl	x509_get_asn_length
 3022              	.LVL359:
 3023 04d8 0028     		cmp	r0, #0
 3024 04da 3FF405AF 		beq	.L278
 920:src/x509.c    ****           return 0;
 3025              		.loc 1 920 0
 3026 04de DDF838E0 		ldr	lr, [sp, #56]
 3027 04e2 0F98     		ldr	r0, [sp, #60]
 3028 04e4 CEEB0603 		rsb	r3, lr, r6
 919:src/x509.c    ****             extEnd - p < len)
 3029              		.loc 1 919 0
 3030 04e8 8342     		cmp	r3, r0
 3031 04ea FFF6FDAE 		blt	.L278
 923:src/x509.c    ****         {
 3032              		.loc 1 923 0
 3033 04ee 0028     		cmp	r0, #0
 3034 04f0 7FF7FAAE 		ble	.L278
 3035              	.LVL360:
 3036              	.LBB100:
ARM GAS  C:\Users\AHMED~1.ELE\AppData\Local\Temp\ccaBET3e.s 			page 97


 953:src/x509.c    ****             return 0;           /* initial byte must be within 0 to 7 */
 3037              		.loc 1 953 0
 3038 04f4 9EF80030 		ldrb	r3, [lr]	@ zero_extendqisi2
 3039 04f8 072B     		cmp	r3, #7
 3040 04fa 3FF6F5AE 		bhi	.L278
 955:src/x509.c    ****             d_usage |= p[1] << 24;
 3041              		.loc 1 955 0
 3042 04fe 0128     		cmp	r0, #1
 3043 0500 0AD0     		beq	.L332
 956:src/x509.c    ****           if ( len > 2 )
 3044              		.loc 1 956 0
 3045 0502 9EF80130 		ldrb	r3, [lr, #1]	@ zero_extendqisi2
 957:src/x509.c    ****             d_usage |= p[2] << 16;
 3046              		.loc 1 957 0
 3047 0506 0228     		cmp	r0, #2
 956:src/x509.c    ****           if ( len > 2 )
 3048              		.loc 1 956 0
 3049 0508 4FEA0363 		lsl	r3, r3, #24
 3050              	.LVL361:
 957:src/x509.c    ****             d_usage |= p[2] << 16;
 3051              		.loc 1 957 0
 3052 050c 05D0     		beq	.L299
 958:src/x509.c    ****           /* do a 16-bits reversal */
 3053              		.loc 1 958 0
 3054 050e 9EF80220 		ldrb	r2, [lr, #2]	@ zero_extendqisi2
 3055 0512 43EA0243 		orr	r3, r3, r2, lsl #16
 3056              	.LVL362:
 3057 0516 00E0     		b	.L299
 3058              	.LVL363:
 3059              	.L332:
 935:src/x509.c    ****           
 3060              		.loc 1 935 0
 3061 0518 0023     		movs	r3, #0
 3062              	.LVL364:
 3063              	.L299:
 3064              	.LBB101:
 3065              	.LBB102:
 229:src/x509.c    ****   x = (((x & 0xcccccccc) >> 2) | ((x & 0x33333333) << 2));
 3066              		.loc 1 229 0
 3067 051a 03F05531 		and	r1, r3, #1431655765
 3068 051e 03F0AA33 		and	r3, r3, #-1431655766
 3069              	.LVL365:
 3070              	.LBE102:
 3071              	.LBE101:
 3072              	.LBE100:
 965:src/x509.c    ****         break;
 3073              		.loc 1 965 0
 3074 0522 7044     		add	r0, r0, lr
 3075              	.LBB109:
 3076              	.LBB106:
 3077              	.LBB103:
 229:src/x509.c    ****   x = (((x & 0xcccccccc) >> 2) | ((x & 0x33333333) << 2));
 3078              		.loc 1 229 0
 3079 0524 5B08     		lsrs	r3, r3, #1
 3080 0526 43EA4101 		orr	r1, r3, r1, lsl #1
 3081              	.LVL366:
 230:src/x509.c    ****   x = (((x & 0xf0f0f0f0) >> 4) | ((x & 0x0f0f0f0f) << 4));
ARM GAS  C:\Users\AHMED~1.ELE\AppData\Local\Temp\ccaBET3e.s 			page 98


 3082              		.loc 1 230 0
 3083 052a 01F0CC32 		and	r2, r1, #-858993460
 3084 052e 01F03331 		and	r1, r1, #858993459
 3085              	.LVL367:
 3086              	.LBE103:
 3087              	.LBE106:
 3088              	.LBE109:
 965:src/x509.c    ****         break;
 3089              		.loc 1 965 0
 3090 0532 0E90     		str	r0, [sp, #56]
 3091              	.LBB110:
 3092              	.LBB107:
 3093              	.LBB104:
 230:src/x509.c    ****   x = (((x & 0xf0f0f0f0) >> 4) | ((x & 0x0f0f0f0f) << 4));
 3094              		.loc 1 230 0
 3095 0534 8900     		lsls	r1, r1, #2
 3096 0536 41EA9202 		orr	r2, r1, r2, lsr #2
 3097              	.LVL368:
 231:src/x509.c    ****   x = (((x & 0xff00ff00) >> 8) | ((x & 0x00ff00ff) << 8));
 3098              		.loc 1 231 0
 3099 053a 02F0F033 		and	r3, r2, #-252645136
 3100 053e 02F00F32 		and	r2, r2, #252645135
 3101              	.LVL369:
 3102 0542 1201     		lsls	r2, r2, #4
 3103 0544 42EA1313 		orr	r3, r2, r3, lsr #4
 3104              	.LVL370:
 232:src/x509.c    ****   return((x >> 16) | (x << 16));
 3105              		.loc 1 232 0
 3106 0548 03F0FF2C 		and	ip, r3, #-16711936
 3107 054c 1A02     		lsls	r2, r3, #8
 3108              	.LVL371:
 3109              	.LBE104:
 3110              	.LBE107:
 961:src/x509.c    ****           a_cert_info->w_key_usage |= d_usage & 0x1FF;
 3111              		.loc 1 961 0
 3112 054e 2388     		ldrh	r3, [r4]
 3113 0550 23F4FF73 		bic	r3, r3, #510
 3114 0554 23F00103 		bic	r3, r3, #1
 3115 0558 43F40051 		orr	r1, r3, #8192
 3116              	.LBB108:
 3117              	.LBB105:
 232:src/x509.c    ****   return((x >> 16) | (x << 16));
 3118              		.loc 1 232 0
 3119 055c 42EA1C23 		orr	r3, r2, ip, lsr #8
 3120              	.LVL372:
 3121              	.LBE105:
 3122              	.LBE108:
 962:src/x509.c    ****           a_cert_info->w_key_usage |= K_X509_KeyUsageFlag_HasKeyUsage;
 3123              		.loc 1 962 0
 3124 0560 C3F30843 		ubfx	r3, r3, #16, #9
 3125              	.LVL373:
 963:src/x509.c    ****         };
 3126              		.loc 1 963 0
 3127 0564 0B43     		orrs	r3, r3, r1
 3128 0566 2380     		strh	r3, [r4]	@ movhi
 3129 0568 EBE6     		b	.L282
 3130              	.LVL374:
ARM GAS  C:\Users\AHMED~1.ELE\AppData\Local\Temp\ccaBET3e.s 			page 99


 3131              	.L422:
 3132              	.LBE110:
 998:src/x509.c    ****         if (x509_get_asn_length(&p,(int)(extEnd - p),&len) == 0 ||
 3133              		.loc 1 998 0
 3134 056a 0E91     		str	r1, [sp, #56]
 999:src/x509.c    ****             extEnd - p < len)
 3135              		.loc 1 999 0
 3136 056c 0EA8     		add	r0, sp, #56
 3137 056e 711A     		subs	r1, r6, r1
 3138 0570 0FAA     		add	r2, sp, #60
 3139 0572 FFF7FEFF 		bl	x509_get_asn_length
 3140              	.LVL375:
 3141 0576 0028     		cmp	r0, #0
 3142 0578 3FF4B6AE 		beq	.L278
1000:src/x509.c    ****           return 0;
 3143              		.loc 1 1000 0
 3144 057c 0E9A     		ldr	r2, [sp, #56]
 3145 057e 0F9B     		ldr	r3, [sp, #60]
 3146 0580 B11A     		subs	r1, r6, r2
 999:src/x509.c    ****             extEnd - p < len)
 3147              		.loc 1 999 0
 3148 0582 9942     		cmp	r1, r3
 3149 0584 FFF6B0AE 		blt	.L278
1002:src/x509.c    ****         break;
 3150              		.loc 1 1002 0
 3151 0588 1344     		add	r3, r3, r2
 3152 058a 0E93     		str	r3, [sp, #56]
 3153 058c D9E6     		b	.L282
 3154              	.LVL376:
 3155              	.L300:
1006:src/x509.c    ****   return -1;
 3156              		.loc 1 1006 0
 3157 058e 0791     		str	r1, [sp, #28]
 3158 0590 9DE6     		b	.L302
 3159              	.LVL377:
 3160              	.L429:
 3161              	.LBE97:
 3162              	.LBE96:
1656:src/x509.c    ****     return K_X509ErrSigAlg;
 3163              		.loc 1 1656 0
 3164 0592 0023     		movs	r3, #0
 3165 0594 07A8     		add	r0, sp, #28
 3166              	.LVL378:
 3167 0596 0093     		str	r3, [sp]
 3168 0598 E91B     		subs	r1, r5, r7
 3169 059a 0CAA     		add	r2, sp, #48
 3170 059c 15AB     		add	r3, sp, #84
 3171 059e FFF7FEFF 		bl	x509_get_algorithm_identifier
 3172              	.LVL379:
 3173 05a2 0028     		cmp	r0, #0
 3174 05a4 00F0AD80 		beq	.L333
1659:src/x509.c    ****     return K_X509ErrSigUnmatch;
 3175              		.loc 1 1659 0
 3176 05a8 0A9E     		ldr	r6, [sp, #40]
 3177 05aa 0C9B     		ldr	r3, [sp, #48]
 3178 05ac 9E42     		cmp	r6, r3
 3179 05ae 40F0AA80 		bne	.L335
ARM GAS  C:\Users\AHMED~1.ELE\AppData\Local\Temp\ccaBET3e.s 			page 100


1662:src/x509.c    ****        !x509_rsapss_param_identical(&certAlgorithm_pss_param,
 3180              		.loc 1 1662 0
 3181 05b2 574B     		ldr	r3, .L433
 3182 05b4 9E42     		cmp	r6, r3
 3183 05b6 07D1     		bne	.L303
 3184              	.LVL380:
 3185              	.LBB111:
 3186              	.LBB112:
1032:src/x509.c    **** }
 3187              		.loc 1 1032 0
 3188 05b8 10A8     		add	r0, sp, #64
 3189              	.LVL381:
 3190 05ba 15A9     		add	r1, sp, #84
 3191              	.LVL382:
 3192 05bc 1422     		movs	r2, #20
 3193 05be FFF7FEFF 		bl	memcmp
 3194              	.LVL383:
 3195              	.LBE112:
 3196              	.LBE111:
1662:src/x509.c    ****        !x509_rsapss_param_identical(&certAlgorithm_pss_param,
 3197              		.loc 1 1662 0
 3198 05c2 0028     		cmp	r0, #0
 3199 05c4 40F09F80 		bne	.L335
 3200              	.LVL384:
 3201              	.L303:
1667:src/x509.c    ****   if ( (certDigestAlgo = certAlgorithm) == K_OIdRsaPSS )
 3202              		.loc 1 1667 0
 3203 05c8 0021     		movs	r1, #0
 3204 05ca 20A8     		add	r0, sp, #128
 3205 05cc 4022     		movs	r2, #64
 3206 05ce FFF7FEFF 		bl	memset
 3207              	.LVL385:
1668:src/x509.c    ****     certDigestAlgo = certAlgorithm_pss_param.d_hash_algo;
 3208              		.loc 1 1668 0
 3209 05d2 4F4B     		ldr	r3, .L433
 3210 05d4 3146     		mov	r1, r6
 3211              	.LVL386:
 3212 05d6 9E42     		cmp	r6, r3
 3213              	.LVL387:
1671:src/x509.c    ****     return K_X509ErrPubAlg;
 3214              		.loc 1 1671 0
 3215 05d8 1AA8     		add	r0, sp, #104
1669:src/x509.c    **** 
 3216              		.loc 1 1669 0
 3217 05da 08BF     		it	eq
 3218 05dc 1099     		ldreq	r1, [sp, #64]
 3219              	.LVL388:
1671:src/x509.c    ****     return K_X509ErrPubAlg;
 3220              		.loc 1 1671 0
 3221 05de FFF7FEFF 		bl	x509_select_hashops
 3222              	.LVL389:
 3223 05e2 0028     		cmp	r0, #0
 3224 05e4 3FF415AE 		beq	.L269
1674:src/x509.c    ****   hash_ops.update(&hash_ctx,certStart,certLen);
 3225              		.loc 1 1674 0
 3226 05e8 1D9B     		ldr	r3, [sp, #116]
 3227 05ea 30A8     		add	r0, sp, #192
ARM GAS  C:\Users\AHMED~1.ELE\AppData\Local\Temp\ccaBET3e.s 			page 101


 3228 05ec 9847     		blx	r3
 3229              	.LVL390:
1675:src/x509.c    ****   hash_ops.finish(&hash_ctx,a_cert_info->s_digest);
 3230              		.loc 1 1675 0
 3231 05ee 5146     		mov	r1, r10
 3232 05f0 7A1A     		subs	r2, r7, r1
 3233 05f2 1E9B     		ldr	r3, [sp, #120]
 3234 05f4 30A8     		add	r0, sp, #192
 3235 05f6 9847     		blx	r3
 3236              	.LVL391:
1676:src/x509.c    ****   a_cert_info->w_digest_algo_id = hash_ops.algo_type_id;
 3237              		.loc 1 1676 0
 3238 05f8 1F9B     		ldr	r3, [sp, #124]
 3239 05fa 04F50D71 		add	r1, r4, #564
 3240 05fe 30A8     		add	r0, sp, #192
 3241 0600 9847     		blx	r3
 3242              	.LVL392:
1677:src/x509.c    ****   a_cert_info->w_digest_len = hash_ops.dgst_len;
 3243              		.loc 1 1677 0
 3244 0602 BDF86A30 		ldrh	r3, [sp, #106]
 3245 0606 A380     		strh	r3, [r4, #4]	@ movhi
1678:src/x509.c    **** 
 3246              		.loc 1 1678 0
 3247 0608 BDF86830 		ldrh	r3, [sp, #104]
 3248 060c E380     		strh	r3, [r4, #6]	@ movhi
1680:src/x509.c    ****     return K_X509ErrSignature;
 3249              		.loc 1 1680 0
 3250 060e 079B     		ldr	r3, [sp, #28]
 3251 0610 E91A     		subs	r1, r5, r3
 3252              	.LVL393:
 3253              	.LBB113:
 3254              	.LBB114:
1390:src/x509.c    ****       x509_get_asn_length(&p,a_len-1,&llen)==0 || (end-p)<llen)
 3255              		.loc 1 1390 0
 3256 0612 0029     		cmp	r1, #0
 3257 0614 01DC     		bgt	.L305
 3258              	.LVL394:
 3259              	.L307:
 3260              	.LBE114:
 3261              	.LBE113:
1681:src/x509.c    **** 
 3262              		.loc 1 1681 0
 3263 0616 1020     		movs	r0, #16
 3264 0618 76E0     		b	.L257
 3265              	.LVL395:
 3266              	.L305:
 3267              	.LBB118:
 3268              	.LBB115:
1390:src/x509.c    ****       x509_get_asn_length(&p,a_len-1,&llen)==0 || (end-p)<llen)
 3269              		.loc 1 1390 0
 3270 061a 5A1C     		adds	r2, r3, #1
 3271 061c 0D92     		str	r2, [sp, #52]
 3272 061e 1B78     		ldrb	r3, [r3]	@ zero_extendqisi2
 3273 0620 032B     		cmp	r3, #3
 3274 0622 F8D1     		bne	.L307
1391:src/x509.c    ****     return 0;
 3275              		.loc 1 1391 0
ARM GAS  C:\Users\AHMED~1.ELE\AppData\Local\Temp\ccaBET3e.s 			page 102


 3276 0624 0DA8     		add	r0, sp, #52
 3277 0626 0139     		subs	r1, r1, #1
 3278              	.LVL396:
 3279 0628 0EAA     		add	r2, sp, #56
 3280 062a FFF7FEFF 		bl	x509_get_asn_length
 3281              	.LVL397:
1390:src/x509.c    ****       x509_get_asn_length(&p,a_len-1,&llen)==0 || (end-p)<llen)
 3282              		.loc 1 1390 0
 3283 062e 0028     		cmp	r0, #0
 3284 0630 F1D0     		beq	.L307
1391:src/x509.c    ****     return 0;
 3285              		.loc 1 1391 0
 3286 0632 0D9A     		ldr	r2, [sp, #52]
 3287 0634 0E9B     		ldr	r3, [sp, #56]
 3288 0636 AD1A     		subs	r5, r5, r2
 3289              	.LVL398:
 3290 0638 9D42     		cmp	r5, r3
 3291 063a ECDB     		blt	.L307
1394:src/x509.c    **** /*
 3292              		.loc 1 1394 0
 3293 063c 561C     		adds	r6, r2, #1
 3294 063e 0D96     		str	r6, [sp, #52]
 3295              	.LVL399:
1398:src/x509.c    ****     return 0;
 3296              		.loc 1 1398 0
 3297 0640 1278     		ldrb	r2, [r2]	@ zero_extendqisi2
 3298              	.LVL400:
 3299 0642 002A     		cmp	r2, #0
 3300 0644 E7D1     		bne	.L307
1404:src/x509.c    ****   memcpy(a_sig,&sigLen,4);
 3301              		.loc 1 1404 0
 3302 0646 5D1E     		subs	r5, r3, #1
1405:src/x509.c    ****   memcpy(a_sig + 4,p,sigLen);
 3303              		.loc 1 1405 0
 3304 0648 0FA9     		add	r1, sp, #60
 3305 064a 0422     		movs	r2, #4
 3306              	.LVL401:
 3307 064c 3148     		ldr	r0, .L433+4
1404:src/x509.c    ****   memcpy(a_sig,&sigLen,4);
 3308              		.loc 1 1404 0
 3309 064e 0F95     		str	r5, [sp, #60]
 3310              	.LVL402:
1405:src/x509.c    ****   memcpy(a_sig + 4,p,sigLen);
 3311              		.loc 1 1405 0
 3312 0650 FFF7FEFF 		bl	memcpy
 3313              	.LVL403:
1406:src/x509.c    ****   *a_pp = p + sigLen;
 3314              		.loc 1 1406 0
 3315 0654 2A46     		mov	r2, r5
 3316 0656 3146     		mov	r1, r6
 3317 0658 2F48     		ldr	r0, .L433+8
 3318 065a FFF7FEFF 		bl	memcpy
 3319              	.LVL404:
 3320              	.LBE115:
 3321              	.LBE118:
 3322              	.LBB119:
1684:src/x509.c    ****     a_cert_info->w_sign_len = sig_len;
ARM GAS  C:\Users\AHMED~1.ELE\AppData\Local\Temp\ccaBET3e.s 			page 103


 3323              		.loc 1 1684 0
 3324 065e 2D49     		ldr	r1, .L433+4
 3325              	.LBE119:
 3326              	.LBB120:
 3327              	.LBB116:
1407:src/x509.c    **** 
 3328              		.loc 1 1407 0
 3329 0660 3544     		add	r5, r5, r6
 3330              	.LBE116:
 3331              	.LBE120:
 3332              	.LBB121:
1684:src/x509.c    ****     a_cert_info->w_sign_len = sig_len;
 3333              		.loc 1 1684 0
 3334 0662 0B78     		ldrb	r3, [r1]	@ zero_extendqisi2
 3335 0664 4A78     		ldrb	r2, [r1, #1]	@ zero_extendqisi2
1686:src/x509.c    ****   } while ( 0 );
 3336              		.loc 1 1686 0
 3337 0666 04F10800 		add	r0, r4, #8
1684:src/x509.c    ****     a_cert_info->w_sign_len = sig_len;
 3338              		.loc 1 1684 0
 3339 066a 03EB0222 		add	r2, r3, r2, lsl #8
 3340 066e 8B78     		ldrb	r3, [r1, #2]	@ zero_extendqisi2
1686:src/x509.c    ****   } while ( 0 );
 3341              		.loc 1 1686 0
 3342 0670 0431     		adds	r1, r1, #4
1684:src/x509.c    ****     a_cert_info->w_sign_len = sig_len;
 3343              		.loc 1 1684 0
 3344 0672 02EB0342 		add	r2, r2, r3, lsl #16
 3345 0676 11F8013C 		ldrb	r3, [r1, #-1]	@ zero_extendqisi2
 3346              	.LBE121:
 3347              	.LBB122:
 3348              	.LBB117:
1407:src/x509.c    **** 
 3349              		.loc 1 1407 0
 3350 067a 0795     		str	r5, [sp, #28]
 3351              	.LBE117:
 3352              	.LBE122:
 3353              	.LBB123:
1684:src/x509.c    ****     a_cert_info->w_sign_len = sig_len;
 3354              		.loc 1 1684 0
 3355 067c 02EB0362 		add	r2, r2, r3, lsl #24
 3356              	.LVL405:
1685:src/x509.c    ****     memcpy(a_cert_info->s_signature,&s_x509_sign[4],sig_len);
 3357              		.loc 1 1685 0
 3358 0680 6280     		strh	r2, [r4, #2]	@ movhi
1686:src/x509.c    ****   } while ( 0 );
 3359              		.loc 1 1686 0
 3360 0682 FFF7FEFF 		bl	memcpy
 3361              	.LVL406:
 3362              	.LBE123:
1689:src/x509.c    ****     a_cert_info->s_rsapss_param = certAlgorithm_pss_param;
 3363              		.loc 1 1689 0
 3364 0686 0A9A     		ldr	r2, [sp, #40]
 3365 0688 214B     		ldr	r3, .L433
 3366 068a 9A42     		cmp	r2, r3
 3367 068c 0AD1     		bne	.L308
1690:src/x509.c    ****     a_cert_info->w_digest_algo_id |= K_X509_AlgoId_PSS_Mask;
ARM GAS  C:\Users\AHMED~1.ELE\AppData\Local\Temp\ccaBET3e.s 			page 104


 3368              		.loc 1 1690 0
 3369 068e 04F51D75 		add	r5, r4, #628
 3370 0692 10AE     		add	r6, sp, #64
 3371 0694 0FCE     		ldmia	r6!, {r0, r1, r2, r3}
 3372 0696 0FC5     		stmia	r5!, {r0, r1, r2, r3}
 3373 0698 3368     		ldr	r3, [r6]
 3374 069a 2B60     		str	r3, [r5]
1691:src/x509.c    ****   };
 3375              		.loc 1 1691 0
 3376 069c A388     		ldrh	r3, [r4, #4]
 3377 069e 43F48073 		orr	r3, r3, #256
 3378 06a2 A380     		strh	r3, [r4, #4]	@ movhi
 3379              	.L308:
1712:src/x509.c    **** 		a_cert_info->s_subject_dn_mac,
 3380              		.loc 1 1712 0
 3381 06a4 4046     		mov	r0, r8
 3382 06a6 4946     		mov	r1, r9
 3383 06a8 1422     		movs	r2, #20
 3384 06aa FFF7FEFF 		bl	memcmp
 3385              	.LVL407:
 3386 06ae 40B9     		cbnz	r0, .L310
1715:src/x509.c    ****   {
 3387              		.loc 1 1715 0
 3388 06b0 2046     		mov	r0, r4
 3389 06b2 0399     		ldr	r1, [sp, #12]
 3390 06b4 FFF7FEFF 		bl	x509_verify_cert_by_key
 3391              	.LVL408:
1714:src/x509.c    ****        (x509_verify_cert_by_key(a_cert_info,&a_cert_info->s_public_key)) )
 3392              		.loc 1 1714 0
 3393 06b8 18B1     		cbz	r0, .L310
1717:src/x509.c    ****   };
 3394              		.loc 1 1717 0
 3395 06ba 2388     		ldrh	r3, [r4]
 3396 06bc 43F48043 		orr	r3, r3, #16384
 3397 06c0 2380     		strh	r3, [r4]	@ movhi
 3398              	.L310:
1725:src/x509.c    ****   {
 3399              		.loc 1 1725 0
 3400 06c2 2388     		ldrh	r3, [r4]
 3401 06c4 03F40050 		and	r0, r3, #8192
 3402 06c8 80B2     		uxth	r0, r0
 3403 06ca 08B1     		cbz	r0, .L312
 3404              	.L313:
1739:src/x509.c    **** }
 3405              		.loc 1 1739 0
 3406 06cc 0020     		movs	r0, #0
 3407 06ce 1BE0     		b	.L257
 3408              	.L312:
1730:src/x509.c    ****     /* a_cert_info->w_key_usage |= K_X509_KeyUsageFlag_dataEncipher; */
 3409              		.loc 1 1730 0
 3410 06d0 43F01702 		orr	r2, r3, #23
 3411 06d4 2280     		strh	r2, [r4]	@ movhi
1732:src/x509.c    ****     {
 3412              		.loc 1 1732 0
 3413 06d6 1204     		lsls	r2, r2, #16
 3414 06d8 F8D5     		bpl	.L313
1735:src/x509.c    ****     };
ARM GAS  C:\Users\AHMED~1.ELE\AppData\Local\Temp\ccaBET3e.s 			page 105


 3415              		.loc 1 1735 0
 3416 06da 43F07703 		orr	r3, r3, #119
 3417 06de 2380     		strh	r3, [r4]	@ movhi
 3418 06e0 12E0     		b	.L257
 3419              	.LVL409:
 3420              	.L316:
1539:src/x509.c    **** 
 3421              		.loc 1 1539 0
 3422 06e2 1220     		movs	r0, #18
 3423              	.LVL410:
 3424 06e4 10E0     		b	.L257
 3425              	.LVL411:
 3426              	.L317:
1551:src/x509.c    **** 
 3427              		.loc 1 1551 0
 3428 06e6 0220     		movs	r0, #2
 3429 06e8 0EE0     		b	.L257
 3430              	.LVL412:
 3431              	.L318:
1571:src/x509.c    **** 
 3432              		.loc 1 1571 0
 3433 06ea 0120     		movs	r0, #1
 3434 06ec 0CE0     		b	.L257
 3435              	.LVL413:
 3436              	.L321:
1594:src/x509.c    **** 
 3437              		.loc 1 1594 0
 3438 06ee 0520     		movs	r0, #5
 3439 06f0 0AE0     		b	.L257
 3440              	.L322:
1613:src/x509.c    **** 
 3441              		.loc 1 1613 0
 3442 06f2 0620     		movs	r0, #6
 3443 06f4 08E0     		b	.L257
 3444              	.LVL414:
 3445              	.L324:
1627:src/x509.c    **** 
 3446              		.loc 1 1627 0
 3447 06f6 0820     		movs	r0, #8
 3448 06f8 06E0     		b	.L257
 3449              	.L325:
1635:src/x509.c    **** 
 3450              		.loc 1 1635 0
 3451 06fa 0920     		movs	r0, #9
 3452 06fc 04E0     		b	.L257
 3453              	.LVL415:
 3454              	.L327:
1654:src/x509.c    **** 
 3455              		.loc 1 1654 0
 3456 06fe 0D20     		movs	r0, #13
 3457 0700 02E0     		b	.L257
 3458              	.L333:
1657:src/x509.c    **** 
 3459              		.loc 1 1657 0
 3460 0702 0E20     		movs	r0, #14
 3461 0704 00E0     		b	.L257
 3462              	.L335:
ARM GAS  C:\Users\AHMED~1.ELE\AppData\Local\Temp\ccaBET3e.s 			page 106


1660:src/x509.c    **** 
 3463              		.loc 1 1660 0
 3464 0706 0F20     		movs	r0, #15
 3465              	.LVL416:
 3466              	.L257:
1740:src/x509.c    **** 
 3467              		.loc 1 1740 0
 3468 0708 0DF5057D 		add	sp, sp, #532
 3469              		.cfi_def_cfa_offset 36
 3470              		@ sp needed
 3471 070c BDE8F08F 		pop	{r4, r5, r6, r7, r8, r9, r10, fp, pc}
 3472              	.LVL417:
 3473              	.L434:
 3474              		.align	2
 3475              	.L433:
 3476 0710 F77E758B 		.word	-1955234057
 3477 0714 00000000 		.word	.LANCHOR0
 3478 0718 04000000 		.word	.LANCHOR0+4
 3479              		.cfi_endproc
 3480              	.LFE23:
 3481              		.size	x509_parse_cert, .-x509_parse_cert
 3482              		.section	.text.x509_verify_cert_by_cert,"ax",%progbits
 3483              		.align	1
 3484              		.global	x509_verify_cert_by_cert
 3485              		.thumb
 3486              		.thumb_func
 3487              		.type	x509_verify_cert_by_cert, %function
 3488              	x509_verify_cert_by_cert:
 3489              	.LFB30:
2005:src/x509.c    **** 
2006:src/x509.c    **** BOOLEAN x509_verify_cert_by_cert(T_X509_CERT_INFO *a_cert,
2007:src/x509.c    ****                                  T_X509_CERT_INFO *a_cert_signer)
2008:src/x509.c    **** {  
 3490              		.loc 1 2008 0
 3491              		.cfi_startproc
 3492              		@ args = 0, pretend = 0, frame = 0
 3493              		@ frame_needed = 0, uses_anonymous_args = 0
 3494              	.LVL418:
 3495 0000 38B5     		push	{r3, r4, r5, lr}
 3496              		.cfi_def_cfa_offset 16
 3497              		.cfi_offset 3, -16
 3498              		.cfi_offset 4, -12
 3499              		.cfi_offset 5, -8
 3500              		.cfi_offset 14, -4
 3501              		.loc 1 2008 0
 3502 0002 0C46     		mov	r4, r1
2009:src/x509.c    ****   if ( a_cert == NULL || a_cert_signer == NULL )
 3503              		.loc 1 2009 0
 3504 0004 0546     		mov	r5, r0
 3505 0006 A0B1     		cbz	r0, .L436
 3506              		.loc 1 2009 0 is_stmt 0 discriminator 1
 3507 0008 99B1     		cbz	r1, .L436
2010:src/x509.c    ****     return FALSE;
2011:src/x509.c    **** 
2012:src/x509.c    ****   /* signer must be marked as CA */
2013:src/x509.c    ****   if ( !(a_cert_signer->w_key_usage & K_X509_KeyUsageFlag_IsCA) )
 3508              		.loc 1 2013 0 is_stmt 1
ARM GAS  C:\Users\AHMED~1.ELE\AppData\Local\Temp\ccaBET3e.s 			page 107


 3509 000a 0B88     		ldrh	r3, [r1]
 3510 000c 1A04     		lsls	r2, r3, #16
 3511 000e 10D5     		bpl	.L436
2014:src/x509.c    ****     return FALSE;
2015:src/x509.c    **** 
2016:src/x509.c    ****   /* signer must be keyCerSign bit enabled */
2017:src/x509.c    ****   if ( !(a_cert_signer->w_key_usage & K_X509_KeyUsageFlag_keyCertSign) )
 3512              		.loc 1 2017 0
 3513 0010 9B06     		lsls	r3, r3, #26
 3514 0012 0ED5     		bpl	.L436
2018:src/x509.c    ****     return FALSE;
2019:src/x509.c    **** 
2020:src/x509.c    ****   /* signer's subject digest must match up with issuer digest */
2021:src/x509.c    ****   if ( memcmp(a_cert->s_issuer_dn_mac,
 3515              		.loc 1 2021 0
 3516 0014 00F50370 		add	r0, r0, #524
 3517              	.LVL419:
 3518 0018 01F50871 		add	r1, r1, #544
 3519              	.LVL420:
 3520 001c 1422     		movs	r2, #20
 3521 001e FFF7FEFF 		bl	memcmp
 3522              	.LVL421:
 3523 0022 30B9     		cbnz	r0, .L436
2022:src/x509.c    ****               a_cert_signer->s_subject_dn_mac,
2023:src/x509.c    ****               K_X509_MacLen_Sha1) )
2024:src/x509.c    ****     return FALSE;
2025:src/x509.c    **** 
2026:src/x509.c    ****   return x509_verify_cert_by_key(a_cert,&a_cert_signer->s_public_key);
 3524              		.loc 1 2026 0
 3525 0024 2846     		mov	r0, r5
 3526 0026 04F52271 		add	r1, r4, #648
2027:src/x509.c    **** }
 3527              		.loc 1 2027 0
 3528 002a BDE83840 		pop	{r3, r4, r5, lr}
 3529              		.cfi_remember_state
 3530              		.cfi_restore 14
 3531              		.cfi_restore 5
 3532              		.cfi_restore 4
 3533              		.cfi_restore 3
 3534              		.cfi_def_cfa_offset 0
 3535              	.LVL422:
2026:src/x509.c    **** }
 3536              		.loc 1 2026 0
 3537 002e FFF7FEBF 		b	x509_verify_cert_by_key
 3538              	.LVL423:
 3539              	.L436:
 3540              		.cfi_restore_state
 3541              		.loc 1 2027 0
 3542 0032 0020     		movs	r0, #0
 3543 0034 38BD     		pop	{r3, r4, r5, pc}
 3544              		.cfi_endproc
 3545              	.LFE30:
 3546              		.size	x509_verify_cert_by_cert, .-x509_verify_cert_by_cert
 3547              		.bss
 3548              		.set	.LANCHOR0,. + 0
 3549              		.type	s_x509_sign, %object
 3550              		.size	s_x509_sign, 516
ARM GAS  C:\Users\AHMED~1.ELE\AppData\Local\Temp\ccaBET3e.s 			page 108


 3551              	s_x509_sign:
 3552 0000 00000000 		.space	516
 3552      00000000 
 3552      00000000 
 3552      00000000 
 3552      00000000 
 3553              		.text
 3554              	.Letext0:
 3555              		.file 2 "c:\\devtools\\gcc_v49_2014q4\\lib\\gcc\\arm-none-eabi\\4.9.3\\include\\stddef.h"
 3556              		.file 3 "../LibA5T1000/common.h"
 3557              		.file 4 "../LibA5T1000/system.h"
 3558              		.file 5 "src/x509.h"
 3559              		.file 6 "src/hashops.h"
 3560              		.file 7 "c:\\devtools\\gcc_v49_2014q4\\arm-none-eabi\\include\\string.h"
 3561              		.section	.debug_info,"",%progbits
 3562              	.Ldebug_info0:
 3563 0000 4B320000 		.4byte	0x324b
 3564 0004 0400     		.2byte	0x4
 3565 0006 00000000 		.4byte	.Ldebug_abbrev0
 3566 000a 04       		.byte	0x4
 3567 000b 01       		.uleb128 0x1
 3568 000c 24140000 		.4byte	.LASF698
 3569 0010 01       		.byte	0x1
 3570 0011 A11E0000 		.4byte	.LASF699
 3571 0015 FE0B0000 		.4byte	.LASF700
 3572 0019 80010000 		.4byte	.Ldebug_ranges0+0x180
 3573 001d 00000000 		.4byte	0
 3574 0021 00000000 		.4byte	.Ldebug_line0
 3575 0025 02       		.uleb128 0x2
 3576 0026 04       		.byte	0x4
 3577 0027 05       		.byte	0x5
 3578 0028 696E7400 		.ascii	"int\000"
 3579 002c 03       		.uleb128 0x3
 3580 002d 7A000000 		.4byte	.LASF11
 3581 0031 02       		.byte	0x2
 3582 0032 D4       		.byte	0xd4
 3583 0033 37000000 		.4byte	0x37
 3584 0037 04       		.uleb128 0x4
 3585 0038 04       		.byte	0x4
 3586 0039 07       		.byte	0x7
 3587 003a FF190000 		.4byte	.LASF0
 3588 003e 04       		.uleb128 0x4
 3589 003f 01       		.byte	0x1
 3590 0040 06       		.byte	0x6
 3591 0041 94280000 		.4byte	.LASF1
 3592 0045 04       		.uleb128 0x4
 3593 0046 01       		.byte	0x1
 3594 0047 08       		.byte	0x8
 3595 0048 C70A0000 		.4byte	.LASF2
 3596 004c 04       		.uleb128 0x4
 3597 004d 02       		.byte	0x2
 3598 004e 05       		.byte	0x5
 3599 004f F51A0000 		.4byte	.LASF3
 3600 0053 04       		.uleb128 0x4
 3601 0054 02       		.byte	0x2
 3602 0055 07       		.byte	0x7
 3603 0056 382B0000 		.4byte	.LASF4
ARM GAS  C:\Users\AHMED~1.ELE\AppData\Local\Temp\ccaBET3e.s 			page 109


 3604 005a 04       		.uleb128 0x4
 3605 005b 04       		.byte	0x4
 3606 005c 05       		.byte	0x5
 3607 005d 15070000 		.4byte	.LASF5
 3608 0061 04       		.uleb128 0x4
 3609 0062 04       		.byte	0x4
 3610 0063 07       		.byte	0x7
 3611 0064 63130000 		.4byte	.LASF6
 3612 0068 04       		.uleb128 0x4
 3613 0069 08       		.byte	0x8
 3614 006a 05       		.byte	0x5
 3615 006b 56170000 		.4byte	.LASF7
 3616 006f 04       		.uleb128 0x4
 3617 0070 08       		.byte	0x8
 3618 0071 07       		.byte	0x7
 3619 0072 D4200000 		.4byte	.LASF8
 3620 0076 04       		.uleb128 0x4
 3621 0077 04       		.byte	0x4
 3622 0078 07       		.byte	0x7
 3623 0079 97000000 		.4byte	.LASF9
 3624 007d 05       		.uleb128 0x5
 3625 007e 04       		.byte	0x4
 3626 007f 04       		.uleb128 0x4
 3627 0080 01       		.byte	0x1
 3628 0081 06       		.byte	0x6
 3629 0082 2B000000 		.4byte	.LASF10
 3630 0086 03       		.uleb128 0x3
 3631 0087 060E0000 		.4byte	.LASF12
 3632 008b 03       		.byte	0x3
 3633 008c 0D       		.byte	0xd
 3634 008d 45000000 		.4byte	0x45
 3635 0091 03       		.uleb128 0x3
 3636 0092 99050000 		.4byte	.LASF13
 3637 0096 03       		.byte	0x3
 3638 0097 0E       		.byte	0xe
 3639 0098 45000000 		.4byte	0x45
 3640 009c 03       		.uleb128 0x3
 3641 009d FF1C0000 		.4byte	.LASF14
 3642 00a1 03       		.byte	0x3
 3643 00a2 0F       		.byte	0xf
 3644 00a3 53000000 		.4byte	0x53
 3645 00a7 03       		.uleb128 0x3
 3646 00a8 942A0000 		.4byte	.LASF15
 3647 00ac 03       		.byte	0x3
 3648 00ad 10       		.byte	0x10
 3649 00ae 37000000 		.4byte	0x37
 3650 00b2 06       		.uleb128 0x6
 3651 00b3 91000000 		.4byte	0x91
 3652 00b7 07       		.uleb128 0x7
 3653 00b8 04       		.byte	0x4
 3654 00b9 91000000 		.4byte	0x91
 3655 00bd 08       		.uleb128 0x8
 3656 00be 91000000 		.4byte	0x91
 3657 00c2 CD000000 		.4byte	0xcd
 3658 00c6 09       		.uleb128 0x9
 3659 00c7 76000000 		.4byte	0x76
 3660 00cb 03       		.byte	0x3
ARM GAS  C:\Users\AHMED~1.ELE\AppData\Local\Temp\ccaBET3e.s 			page 110


 3661 00cc 00       		.byte	0
 3662 00cd 0A       		.uleb128 0xa
 3663 00ce 58       		.byte	0x58
 3664 00cf 04       		.byte	0x4
 3665 00d0 0F01     		.2byte	0x10f
 3666 00d2 FE000000 		.4byte	0xfe
 3667 00d6 0B       		.uleb128 0xb
 3668 00d7 DB070000 		.4byte	.LASF16
 3669 00db 04       		.byte	0x4
 3670 00dc 1001     		.2byte	0x110
 3671 00de FE000000 		.4byte	0xfe
 3672 00e2 00       		.byte	0
 3673 00e3 0B       		.uleb128 0xb
 3674 00e4 30070000 		.4byte	.LASF17
 3675 00e8 04       		.byte	0x4
 3676 00e9 1101     		.2byte	0x111
 3677 00eb 0E010000 		.4byte	0x10e
 3678 00ef 08       		.byte	0x8
 3679 00f0 0B       		.uleb128 0xb
 3680 00f1 B2010000 		.4byte	.LASF18
 3681 00f5 04       		.byte	0x4
 3682 00f6 1201     		.2byte	0x112
 3683 00f8 1E010000 		.4byte	0x11e
 3684 00fc 18       		.byte	0x18
 3685 00fd 00       		.byte	0
 3686 00fe 08       		.uleb128 0x8
 3687 00ff A7000000 		.4byte	0xa7
 3688 0103 0E010000 		.4byte	0x10e
 3689 0107 09       		.uleb128 0x9
 3690 0108 76000000 		.4byte	0x76
 3691 010c 01       		.byte	0x1
 3692 010d 00       		.byte	0
 3693 010e 08       		.uleb128 0x8
 3694 010f A7000000 		.4byte	0xa7
 3695 0113 1E010000 		.4byte	0x11e
 3696 0117 09       		.uleb128 0x9
 3697 0118 76000000 		.4byte	0x76
 3698 011c 03       		.byte	0x3
 3699 011d 00       		.byte	0
 3700 011e 08       		.uleb128 0x8
 3701 011f 91000000 		.4byte	0x91
 3702 0123 2E010000 		.4byte	0x12e
 3703 0127 09       		.uleb128 0x9
 3704 0128 76000000 		.4byte	0x76
 3705 012c 3F       		.byte	0x3f
 3706 012d 00       		.byte	0
 3707 012e 0C       		.uleb128 0xc
 3708 012f 33040000 		.4byte	.LASF19
 3709 0133 04       		.byte	0x4
 3710 0134 1301     		.2byte	0x113
 3711 0136 CD000000 		.4byte	0xcd
 3712 013a 0A       		.uleb128 0xa
 3713 013b C0       		.byte	0xc0
 3714 013c 04       		.byte	0x4
 3715 013d 3201     		.2byte	0x132
 3716 013f 5E010000 		.4byte	0x15e
 3717 0143 0B       		.uleb128 0xb
ARM GAS  C:\Users\AHMED~1.ELE\AppData\Local\Temp\ccaBET3e.s 			page 111


 3718 0144 460D0000 		.4byte	.LASF20
 3719 0148 04       		.byte	0x4
 3720 0149 3301     		.2byte	0x133
 3721 014b 5E010000 		.4byte	0x15e
 3722 014f 00       		.byte	0
 3723 0150 0B       		.uleb128 0xb
 3724 0151 5C130000 		.4byte	.LASF21
 3725 0155 04       		.byte	0x4
 3726 0156 3501     		.2byte	0x135
 3727 0158 6E010000 		.4byte	0x16e
 3728 015c 80       		.byte	0x80
 3729 015d 00       		.byte	0
 3730 015e 08       		.uleb128 0x8
 3731 015f A7000000 		.4byte	0xa7
 3732 0163 6E010000 		.4byte	0x16e
 3733 0167 09       		.uleb128 0x9
 3734 0168 76000000 		.4byte	0x76
 3735 016c 1F       		.byte	0x1f
 3736 016d 00       		.byte	0
 3737 016e 08       		.uleb128 0x8
 3738 016f A7000000 		.4byte	0xa7
 3739 0173 7E010000 		.4byte	0x17e
 3740 0177 09       		.uleb128 0x9
 3741 0178 76000000 		.4byte	0x76
 3742 017c 0F       		.byte	0xf
 3743 017d 00       		.byte	0
 3744 017e 0C       		.uleb128 0xc
 3745 017f 1A090000 		.4byte	.LASF22
 3746 0183 04       		.byte	0x4
 3747 0184 3601     		.2byte	0x136
 3748 0186 3A010000 		.4byte	0x13a
 3749 018a 0D       		.uleb128 0xd
 3750 018b C0       		.byte	0xc0
 3751 018c 04       		.byte	0x4
 3752 018d 3E01     		.2byte	0x13e
 3753 018f AC010000 		.4byte	0x1ac
 3754 0193 0E       		.uleb128 0xe
 3755 0194 735F6800 		.ascii	"s_h\000"
 3756 0198 04       		.byte	0x4
 3757 0199 3F01     		.2byte	0x13f
 3758 019b 6E010000 		.4byte	0x16e
 3759 019f 0F       		.uleb128 0xf
 3760 01a0 F7260000 		.4byte	.LASF23
 3761 01a4 04       		.byte	0x4
 3762 01a5 4001     		.2byte	0x140
 3763 01a7 7E010000 		.4byte	0x17e
 3764 01ab 00       		.byte	0
 3765 01ac 10       		.uleb128 0x10
 3766 01ad 5001     		.2byte	0x150
 3767 01af 04       		.byte	0x4
 3768 01b0 3801     		.2byte	0x138
 3769 01b2 FE010000 		.4byte	0x1fe
 3770 01b6 0B       		.uleb128 0xb
 3771 01b7 59290000 		.4byte	.LASF24
 3772 01bb 04       		.byte	0x4
 3773 01bc 3901     		.2byte	0x139
 3774 01be A7000000 		.4byte	0xa7
ARM GAS  C:\Users\AHMED~1.ELE\AppData\Local\Temp\ccaBET3e.s 			page 112


 3775 01c2 00       		.byte	0
 3776 01c3 0B       		.uleb128 0xb
 3777 01c4 7A1F0000 		.4byte	.LASF25
 3778 01c8 04       		.byte	0x4
 3779 01c9 3A01     		.2byte	0x13a
 3780 01cb A7000000 		.4byte	0xa7
 3781 01cf 04       		.byte	0x4
 3782 01d0 0B       		.uleb128 0xb
 3783 01d1 060A0000 		.4byte	.LASF26
 3784 01d5 04       		.byte	0x4
 3785 01d6 3B01     		.2byte	0x13b
 3786 01d8 A7000000 		.4byte	0xa7
 3787 01dc 08       		.byte	0x8
 3788 01dd 0B       		.uleb128 0xb
 3789 01de A12B0000 		.4byte	.LASF27
 3790 01e2 04       		.byte	0x4
 3791 01e3 3C01     		.2byte	0x13c
 3792 01e5 A7000000 		.4byte	0xa7
 3793 01e9 0C       		.byte	0xc
 3794 01ea 0B       		.uleb128 0xb
 3795 01eb 72000000 		.4byte	.LASF28
 3796 01ef 04       		.byte	0x4
 3797 01f0 3D01     		.2byte	0x13d
 3798 01f2 FE010000 		.4byte	0x1fe
 3799 01f6 10       		.byte	0x10
 3800 01f7 11       		.uleb128 0x11
 3801 01f8 8A010000 		.4byte	0x18a
 3802 01fc 90       		.byte	0x90
 3803 01fd 00       		.byte	0
 3804 01fe 08       		.uleb128 0x8
 3805 01ff 91000000 		.4byte	0x91
 3806 0203 0E020000 		.4byte	0x20e
 3807 0207 09       		.uleb128 0x9
 3808 0208 76000000 		.4byte	0x76
 3809 020c 7F       		.byte	0x7f
 3810 020d 00       		.byte	0
 3811 020e 0C       		.uleb128 0xc
 3812 020f 2B170000 		.4byte	.LASF29
 3813 0213 04       		.byte	0x4
 3814 0214 4201     		.2byte	0x142
 3815 0216 AC010000 		.4byte	0x1ac
 3816 021a 0C       		.uleb128 0xc
 3817 021b AB200000 		.4byte	.LASF30
 3818 021f 04       		.byte	0x4
 3819 0220 4401     		.2byte	0x144
 3820 0222 0E020000 		.4byte	0x20e
 3821 0226 0C       		.uleb128 0xc
 3822 0227 531B0000 		.4byte	.LASF31
 3823 022b 04       		.byte	0x4
 3824 022c 4501     		.2byte	0x145
 3825 022e 0E020000 		.4byte	0x20e
 3826 0232 0C       		.uleb128 0xc
 3827 0233 9B1B0000 		.4byte	.LASF32
 3828 0237 04       		.byte	0x4
 3829 0238 4601     		.2byte	0x146
 3830 023a 0E020000 		.4byte	0x20e
 3831 023e 0C       		.uleb128 0xc
ARM GAS  C:\Users\AHMED~1.ELE\AppData\Local\Temp\ccaBET3e.s 			page 113


 3832 023f 04110000 		.4byte	.LASF33
 3833 0243 04       		.byte	0x4
 3834 0244 4701     		.2byte	0x147
 3835 0246 0E020000 		.4byte	0x20e
 3836 024a 0C       		.uleb128 0xc
 3837 024b 43210000 		.4byte	.LASF34
 3838 024f 04       		.byte	0x4
 3839 0250 4801     		.2byte	0x148
 3840 0252 0E020000 		.4byte	0x20e
 3841 0256 10       		.uleb128 0x10
 3842 0257 0C02     		.2byte	0x20c
 3843 0259 04       		.byte	0x4
 3844 025a 7A01     		.2byte	0x17a
 3845 025c 96020000 		.4byte	0x296
 3846 0260 0B       		.uleb128 0xb
 3847 0261 86130000 		.4byte	.LASF35
 3848 0265 04       		.byte	0x4
 3849 0266 7B01     		.2byte	0x17b
 3850 0268 A7000000 		.4byte	0xa7
 3851 026c 00       		.byte	0
 3852 026d 0B       		.uleb128 0xb
 3853 026e 11080000 		.4byte	.LASF36
 3854 0272 04       		.byte	0x4
 3855 0273 7C01     		.2byte	0x17c
 3856 0275 A7000000 		.4byte	0xa7
 3857 0279 04       		.byte	0x4
 3858 027a 0B       		.uleb128 0xb
 3859 027b 312E0000 		.4byte	.LASF37
 3860 027f 04       		.byte	0x4
 3861 0280 7D01     		.2byte	0x17d
 3862 0282 96020000 		.4byte	0x296
 3863 0286 08       		.byte	0x8
 3864 0287 12       		.uleb128 0x12
 3865 0288 0D100000 		.4byte	.LASF38
 3866 028c 04       		.byte	0x4
 3867 028d 7E01     		.2byte	0x17e
 3868 028f A7000000 		.4byte	0xa7
 3869 0293 0802     		.2byte	0x208
 3870 0295 00       		.byte	0
 3871 0296 08       		.uleb128 0x8
 3872 0297 A7000000 		.4byte	0xa7
 3873 029b A6020000 		.4byte	0x2a6
 3874 029f 09       		.uleb128 0x9
 3875 02a0 76000000 		.4byte	0x76
 3876 02a4 7F       		.byte	0x7f
 3877 02a5 00       		.byte	0
 3878 02a6 0C       		.uleb128 0xc
 3879 02a7 91000000 		.4byte	.LASF39
 3880 02ab 04       		.byte	0x4
 3881 02ac 7F01     		.2byte	0x17f
 3882 02ae 56020000 		.4byte	0x256
 3883 02b2 08       		.uleb128 0x8
 3884 02b3 91000000 		.4byte	0x91
 3885 02b7 C2020000 		.4byte	0x2c2
 3886 02bb 09       		.uleb128 0x9
 3887 02bc 76000000 		.4byte	0x76
 3888 02c0 13       		.byte	0x13
ARM GAS  C:\Users\AHMED~1.ELE\AppData\Local\Temp\ccaBET3e.s 			page 114


 3889 02c1 00       		.byte	0
 3890 02c2 13       		.uleb128 0x13
 3891 02c3 E3110000 		.4byte	.LASF701
 3892 02c7 02       		.byte	0x2
 3893 02c8 04       		.byte	0x4
 3894 02c9 9A04     		.2byte	0x49a
 3895 02cb 7F0F0000 		.4byte	0xf7f
 3896 02cf 14       		.uleb128 0x14
 3897 02d0 1C2D0000 		.4byte	.LASF40
 3898 02d4 00       		.sleb128 0
 3899 02d5 14       		.uleb128 0x14
 3900 02d6 C4130000 		.4byte	.LASF41
 3901 02da 01       		.sleb128 1
 3902 02db 14       		.uleb128 0x14
 3903 02dc E4160000 		.4byte	.LASF42
 3904 02e0 02       		.sleb128 2
 3905 02e1 14       		.uleb128 0x14
 3906 02e2 EE0A0000 		.4byte	.LASF43
 3907 02e6 03       		.sleb128 3
 3908 02e7 14       		.uleb128 0x14
 3909 02e8 39170000 		.4byte	.LASF44
 3910 02ec 04       		.sleb128 4
 3911 02ed 14       		.uleb128 0x14
 3912 02ee 3B1E0000 		.4byte	.LASF45
 3913 02f2 05       		.sleb128 5
 3914 02f3 14       		.uleb128 0x14
 3915 02f4 900D0000 		.4byte	.LASF46
 3916 02f8 06       		.sleb128 6
 3917 02f9 14       		.uleb128 0x14
 3918 02fa 4A200000 		.4byte	.LASF47
 3919 02fe 07       		.sleb128 7
 3920 02ff 14       		.uleb128 0x14
 3921 0300 46150000 		.4byte	.LASF48
 3922 0304 08       		.sleb128 8
 3923 0305 14       		.uleb128 0x14
 3924 0306 B7290000 		.4byte	.LASF49
 3925 030a 09       		.sleb128 9
 3926 030b 14       		.uleb128 0x14
 3927 030c 3F2A0000 		.4byte	.LASF50
 3928 0310 0A       		.sleb128 10
 3929 0311 14       		.uleb128 0x14
 3930 0312 45230000 		.4byte	.LASF51
 3931 0316 0B       		.sleb128 11
 3932 0317 14       		.uleb128 0x14
 3933 0318 76020000 		.4byte	.LASF52
 3934 031c 0C       		.sleb128 12
 3935 031d 14       		.uleb128 0x14
 3936 031e 641E0000 		.4byte	.LASF53
 3937 0322 0D       		.sleb128 13
 3938 0323 14       		.uleb128 0x14
 3939 0324 580C0000 		.4byte	.LASF54
 3940 0328 0E       		.sleb128 14
 3941 0329 14       		.uleb128 0x14
 3942 032a A32D0000 		.4byte	.LASF55
 3943 032e 0F       		.sleb128 15
 3944 032f 14       		.uleb128 0x14
 3945 0330 AD160000 		.4byte	.LASF56
ARM GAS  C:\Users\AHMED~1.ELE\AppData\Local\Temp\ccaBET3e.s 			page 115


 3946 0334 10       		.sleb128 16
 3947 0335 14       		.uleb128 0x14
 3948 0336 D1230000 		.4byte	.LASF57
 3949 033a 11       		.sleb128 17
 3950 033b 14       		.uleb128 0x14
 3951 033c 650F0000 		.4byte	.LASF58
 3952 0340 12       		.sleb128 18
 3953 0341 14       		.uleb128 0x14
 3954 0342 08240000 		.4byte	.LASF59
 3955 0346 13       		.sleb128 19
 3956 0347 14       		.uleb128 0x14
 3957 0348 E6080000 		.4byte	.LASF60
 3958 034c 14       		.sleb128 20
 3959 034d 14       		.uleb128 0x14
 3960 034e 64170000 		.4byte	.LASF61
 3961 0352 15       		.sleb128 21
 3962 0353 14       		.uleb128 0x14
 3963 0354 F6080000 		.4byte	.LASF62
 3964 0358 16       		.sleb128 22
 3965 0359 14       		.uleb128 0x14
 3966 035a CA090000 		.4byte	.LASF63
 3967 035e 17       		.sleb128 23
 3968 035f 14       		.uleb128 0x14
 3969 0360 71090000 		.4byte	.LASF64
 3970 0364 18       		.sleb128 24
 3971 0365 14       		.uleb128 0x14
 3972 0366 851D0000 		.4byte	.LASF65
 3973 036a 19       		.sleb128 25
 3974 036b 14       		.uleb128 0x14
 3975 036c 2A090000 		.4byte	.LASF66
 3976 0370 1A       		.sleb128 26
 3977 0371 14       		.uleb128 0x14
 3978 0372 9D090000 		.4byte	.LASF67
 3979 0376 1B       		.sleb128 27
 3980 0377 14       		.uleb128 0x14
 3981 0378 91130000 		.4byte	.LASF68
 3982 037c 1C       		.sleb128 28
 3983 037d 14       		.uleb128 0x14
 3984 037e D9190000 		.4byte	.LASF69
 3985 0382 1D       		.sleb128 29
 3986 0383 14       		.uleb128 0x14
 3987 0384 C62D0000 		.4byte	.LASF70
 3988 0388 1E       		.sleb128 30
 3989 0389 14       		.uleb128 0x14
 3990 038a 57080000 		.4byte	.LASF71
 3991 038e 1F       		.sleb128 31
 3992 038f 14       		.uleb128 0x14
 3993 0390 75130000 		.4byte	.LASF72
 3994 0394 20       		.sleb128 32
 3995 0395 14       		.uleb128 0x14
 3996 0396 1E030000 		.4byte	.LASF73
 3997 039a 21       		.sleb128 33
 3998 039b 14       		.uleb128 0x14
 3999 039c E91C0000 		.4byte	.LASF74
 4000 03a0 22       		.sleb128 34
 4001 03a1 14       		.uleb128 0x14
 4002 03a2 65180000 		.4byte	.LASF75
ARM GAS  C:\Users\AHMED~1.ELE\AppData\Local\Temp\ccaBET3e.s 			page 116


 4003 03a6 23       		.sleb128 35
 4004 03a7 14       		.uleb128 0x14
 4005 03a8 200B0000 		.4byte	.LASF76
 4006 03ac 24       		.sleb128 36
 4007 03ad 14       		.uleb128 0x14
 4008 03ae 53100000 		.4byte	.LASF77
 4009 03b2 25       		.sleb128 37
 4010 03b3 14       		.uleb128 0x14
 4011 03b4 64280000 		.4byte	.LASF78
 4012 03b8 26       		.sleb128 38
 4013 03b9 14       		.uleb128 0x14
 4014 03ba B1180000 		.4byte	.LASF79
 4015 03be 27       		.sleb128 39
 4016 03bf 14       		.uleb128 0x14
 4017 03c0 77070000 		.4byte	.LASF80
 4018 03c4 28       		.sleb128 40
 4019 03c5 14       		.uleb128 0x14
 4020 03c6 39200000 		.4byte	.LASF81
 4021 03ca 29       		.sleb128 41
 4022 03cb 14       		.uleb128 0x14
 4023 03cc 09190000 		.4byte	.LASF82
 4024 03d0 2A       		.sleb128 42
 4025 03d1 14       		.uleb128 0x14
 4026 03d2 5C190000 		.4byte	.LASF83
 4027 03d6 2B       		.sleb128 43
 4028 03d7 14       		.uleb128 0x14
 4029 03d8 680E0000 		.4byte	.LASF84
 4030 03dc 2C       		.sleb128 44
 4031 03dd 14       		.uleb128 0x14
 4032 03de E00B0000 		.4byte	.LASF85
 4033 03e2 2D       		.sleb128 45
 4034 03e3 14       		.uleb128 0x14
 4035 03e4 B8280000 		.4byte	.LASF86
 4036 03e8 2E       		.sleb128 46
 4037 03e9 14       		.uleb128 0x14
 4038 03ea BF2B0000 		.4byte	.LASF87
 4039 03ee 2F       		.sleb128 47
 4040 03ef 14       		.uleb128 0x14
 4041 03f0 39260000 		.4byte	.LASF88
 4042 03f4 30       		.sleb128 48
 4043 03f5 14       		.uleb128 0x14
 4044 03f6 FD030000 		.4byte	.LASF89
 4045 03fa 31       		.sleb128 49
 4046 03fb 14       		.uleb128 0x14
 4047 03fc 9C220000 		.4byte	.LASF90
 4048 0400 32       		.sleb128 50
 4049 0401 14       		.uleb128 0x14
 4050 0402 632A0000 		.4byte	.LASF91
 4051 0406 33       		.sleb128 51
 4052 0407 14       		.uleb128 0x14
 4053 0408 CC150000 		.4byte	.LASF92
 4054 040c 34       		.sleb128 52
 4055 040d 14       		.uleb128 0x14
 4056 040e 4B1E0000 		.4byte	.LASF93
 4057 0412 35       		.sleb128 53
 4058 0413 14       		.uleb128 0x14
 4059 0414 D21E0000 		.4byte	.LASF94
ARM GAS  C:\Users\AHMED~1.ELE\AppData\Local\Temp\ccaBET3e.s 			page 117


 4060 0418 36       		.sleb128 54
 4061 0419 14       		.uleb128 0x14
 4062 041a 99170000 		.4byte	.LASF95
 4063 041e 37       		.sleb128 55
 4064 041f 14       		.uleb128 0x14
 4065 0420 F12D0000 		.4byte	.LASF96
 4066 0424 38       		.sleb128 56
 4067 0425 14       		.uleb128 0x14
 4068 0426 DC2A0000 		.4byte	.LASF97
 4069 042a 39       		.sleb128 57
 4070 042b 14       		.uleb128 0x14
 4071 042c 27220000 		.4byte	.LASF98
 4072 0430 3A       		.sleb128 58
 4073 0431 14       		.uleb128 0x14
 4074 0432 EC030000 		.4byte	.LASF99
 4075 0436 3B       		.sleb128 59
 4076 0437 14       		.uleb128 0x14
 4077 0438 482C0000 		.4byte	.LASF100
 4078 043c 3C       		.sleb128 60
 4079 043d 14       		.uleb128 0x14
 4080 043e 1D050000 		.4byte	.LASF101
 4081 0442 3D       		.sleb128 61
 4082 0443 14       		.uleb128 0x14
 4083 0444 FF280000 		.4byte	.LASF102
 4084 0448 3E       		.sleb128 62
 4085 0449 14       		.uleb128 0x14
 4086 044a 8D250000 		.4byte	.LASF103
 4087 044e 3F       		.sleb128 63
 4088 044f 14       		.uleb128 0x14
 4089 0450 C2060000 		.4byte	.LASF104
 4090 0454 C000     		.sleb128 64
 4091 0456 14       		.uleb128 0x14
 4092 0457 64010000 		.4byte	.LASF105
 4093 045b C100     		.sleb128 65
 4094 045d 14       		.uleb128 0x14
 4095 045e D92C0000 		.4byte	.LASF106
 4096 0462 C200     		.sleb128 66
 4097 0464 14       		.uleb128 0x14
 4098 0465 FC180000 		.4byte	.LASF107
 4099 0469 C300     		.sleb128 67
 4100 046b 14       		.uleb128 0x14
 4101 046c 18200000 		.4byte	.LASF108
 4102 0470 C400     		.sleb128 68
 4103 0472 14       		.uleb128 0x14
 4104 0473 0E0E0000 		.4byte	.LASF109
 4105 0477 C500     		.sleb128 69
 4106 0479 14       		.uleb128 0x14
 4107 047a 77120000 		.4byte	.LASF110
 4108 047e C600     		.sleb128 70
 4109 0480 14       		.uleb128 0x14
 4110 0481 08220000 		.4byte	.LASF111
 4111 0485 C700     		.sleb128 71
 4112 0487 14       		.uleb128 0x14
 4113 0488 BC170000 		.4byte	.LASF112
 4114 048c C800     		.sleb128 72
 4115 048e 14       		.uleb128 0x14
 4116 048f 451B0000 		.4byte	.LASF113
ARM GAS  C:\Users\AHMED~1.ELE\AppData\Local\Temp\ccaBET3e.s 			page 118


 4117 0493 C900     		.sleb128 73
 4118 0495 14       		.uleb128 0x14
 4119 0496 202B0000 		.4byte	.LASF114
 4120 049a CA00     		.sleb128 74
 4121 049c 14       		.uleb128 0x14
 4122 049d E02B0000 		.4byte	.LASF115
 4123 04a1 CB00     		.sleb128 75
 4124 04a3 14       		.uleb128 0x14
 4125 04a4 D2050000 		.4byte	.LASF116
 4126 04a8 CC00     		.sleb128 76
 4127 04aa 14       		.uleb128 0x14
 4128 04ab 1E1B0000 		.4byte	.LASF117
 4129 04af CD00     		.sleb128 77
 4130 04b1 14       		.uleb128 0x14
 4131 04b2 41040000 		.4byte	.LASF118
 4132 04b6 CE00     		.sleb128 78
 4133 04b8 14       		.uleb128 0x14
 4134 04b9 5F050000 		.4byte	.LASF119
 4135 04bd CF00     		.sleb128 79
 4136 04bf 14       		.uleb128 0x14
 4137 04c0 342A0000 		.4byte	.LASF120
 4138 04c4 D000     		.sleb128 80
 4139 04c6 14       		.uleb128 0x14
 4140 04c7 6B240000 		.4byte	.LASF121
 4141 04cb D100     		.sleb128 81
 4142 04cd 14       		.uleb128 0x14
 4143 04ce 2C190000 		.4byte	.LASF122
 4144 04d2 D200     		.sleb128 82
 4145 04d4 14       		.uleb128 0x14
 4146 04d5 DB0F0000 		.4byte	.LASF123
 4147 04d9 D300     		.sleb128 83
 4148 04db 14       		.uleb128 0x14
 4149 04dc 06250000 		.4byte	.LASF124
 4150 04e0 D400     		.sleb128 84
 4151 04e2 14       		.uleb128 0x14
 4152 04e3 DB1F0000 		.4byte	.LASF125
 4153 04e7 D500     		.sleb128 85
 4154 04e9 14       		.uleb128 0x14
 4155 04ea BD040000 		.4byte	.LASF126
 4156 04ee D600     		.sleb128 86
 4157 04f0 14       		.uleb128 0x14
 4158 04f1 D02B0000 		.4byte	.LASF127
 4159 04f5 D700     		.sleb128 87
 4160 04f7 14       		.uleb128 0x14
 4161 04f8 7C230000 		.4byte	.LASF128
 4162 04fc D800     		.sleb128 88
 4163 04fe 14       		.uleb128 0x14
 4164 04ff 190E0000 		.4byte	.LASF129
 4165 0503 D900     		.sleb128 89
 4166 0505 14       		.uleb128 0x14
 4167 0506 16220000 		.4byte	.LASF130
 4168 050a DA00     		.sleb128 90
 4169 050c 14       		.uleb128 0x14
 4170 050d 8B1F0000 		.4byte	.LASF131
 4171 0511 DB00     		.sleb128 91
 4172 0513 14       		.uleb128 0x14
 4173 0514 1B080000 		.4byte	.LASF132
ARM GAS  C:\Users\AHMED~1.ELE\AppData\Local\Temp\ccaBET3e.s 			page 119


 4174 0518 DC00     		.sleb128 92
 4175 051a 14       		.uleb128 0x14
 4176 051b D4030000 		.4byte	.LASF133
 4177 051f DD00     		.sleb128 93
 4178 0521 14       		.uleb128 0x14
 4179 0522 3B050000 		.4byte	.LASF134
 4180 0526 DE00     		.sleb128 94
 4181 0528 14       		.uleb128 0x14
 4182 0529 9C070000 		.4byte	.LASF135
 4183 052d DF00     		.sleb128 95
 4184 052f 14       		.uleb128 0x14
 4185 0530 561C0000 		.4byte	.LASF136
 4186 0534 E000     		.sleb128 96
 4187 0536 14       		.uleb128 0x14
 4188 0537 21270000 		.4byte	.LASF137
 4189 053b E100     		.sleb128 97
 4190 053d 14       		.uleb128 0x14
 4191 053e E7260000 		.4byte	.LASF138
 4192 0542 E200     		.sleb128 98
 4193 0544 14       		.uleb128 0x14
 4194 0545 BA1D0000 		.4byte	.LASF139
 4195 0549 E300     		.sleb128 99
 4196 054b 14       		.uleb128 0x14
 4197 054c 52280000 		.4byte	.LASF140
 4198 0550 E400     		.sleb128 100
 4199 0552 14       		.uleb128 0x14
 4200 0553 A01C0000 		.4byte	.LASF141
 4201 0557 E500     		.sleb128 101
 4202 0559 14       		.uleb128 0x14
 4203 055a A0010000 		.4byte	.LASF142
 4204 055e E600     		.sleb128 102
 4205 0560 14       		.uleb128 0x14
 4206 0561 C3050000 		.4byte	.LASF143
 4207 0565 E700     		.sleb128 103
 4208 0567 14       		.uleb128 0x14
 4209 0568 D1160000 		.4byte	.LASF144
 4210 056c E800     		.sleb128 104
 4211 056e 14       		.uleb128 0x14
 4212 056f 77050000 		.4byte	.LASF145
 4213 0573 E900     		.sleb128 105
 4214 0575 14       		.uleb128 0x14
 4215 0576 59120000 		.4byte	.LASF146
 4216 057a EA00     		.sleb128 106
 4217 057c 14       		.uleb128 0x14
 4218 057d 11270000 		.4byte	.LASF147
 4219 0581 EB00     		.sleb128 107
 4220 0583 14       		.uleb128 0x14
 4221 0584 A7250000 		.4byte	.LASF148
 4222 0588 EC00     		.sleb128 108
 4223 058a 14       		.uleb128 0x14
 4224 058b 7F190000 		.4byte	.LASF149
 4225 058f ED00     		.sleb128 109
 4226 0591 14       		.uleb128 0x14
 4227 0592 FD0A0000 		.4byte	.LASF150
 4228 0596 EE00     		.sleb128 110
 4229 0598 14       		.uleb128 0x14
 4230 0599 0C1B0000 		.4byte	.LASF151
ARM GAS  C:\Users\AHMED~1.ELE\AppData\Local\Temp\ccaBET3e.s 			page 120


 4231 059d EF00     		.sleb128 111
 4232 059f 14       		.uleb128 0x14
 4233 05a0 3E160000 		.4byte	.LASF152
 4234 05a4 F000     		.sleb128 112
 4235 05a6 14       		.uleb128 0x14
 4236 05a7 95030000 		.4byte	.LASF153
 4237 05ab F100     		.sleb128 113
 4238 05ad 14       		.uleb128 0x14
 4239 05ae FC1B0000 		.4byte	.LASF154
 4240 05b2 F200     		.sleb128 114
 4241 05b4 14       		.uleb128 0x14
 4242 05b5 F1210000 		.4byte	.LASF155
 4243 05b9 F300     		.sleb128 115
 4244 05bb 14       		.uleb128 0x14
 4245 05bc 3A090000 		.4byte	.LASF156
 4246 05c0 F400     		.sleb128 116
 4247 05c2 14       		.uleb128 0x14
 4248 05c3 1F280000 		.4byte	.LASF157
 4249 05c7 F500     		.sleb128 117
 4250 05c9 14       		.uleb128 0x14
 4251 05ca E0280000 		.4byte	.LASF158
 4252 05ce F600     		.sleb128 118
 4253 05d0 14       		.uleb128 0x14
 4254 05d1 F00B0000 		.4byte	.LASF159
 4255 05d5 F700     		.sleb128 119
 4256 05d7 14       		.uleb128 0x14
 4257 05d8 7C0B0000 		.4byte	.LASF160
 4258 05dc F800     		.sleb128 120
 4259 05de 14       		.uleb128 0x14
 4260 05df FC0C0000 		.4byte	.LASF161
 4261 05e3 F900     		.sleb128 121
 4262 05e5 14       		.uleb128 0x14
 4263 05e6 512B0000 		.4byte	.LASF162
 4264 05ea FA00     		.sleb128 122
 4265 05ec 14       		.uleb128 0x14
 4266 05ed 420F0000 		.4byte	.LASF163
 4267 05f1 FB00     		.sleb128 123
 4268 05f3 14       		.uleb128 0x14
 4269 05f4 DD150000 		.4byte	.LASF164
 4270 05f8 FC00     		.sleb128 124
 4271 05fa 14       		.uleb128 0x14
 4272 05fb BF250000 		.4byte	.LASF165
 4273 05ff FD00     		.sleb128 125
 4274 0601 14       		.uleb128 0x14
 4275 0602 8B0A0000 		.4byte	.LASF166
 4276 0606 FE00     		.sleb128 126
 4277 0608 14       		.uleb128 0x14
 4278 0609 70080000 		.4byte	.LASF167
 4279 060d FF00     		.sleb128 127
 4280 060f 14       		.uleb128 0x14
 4281 0610 8E240000 		.4byte	.LASF168
 4282 0614 8001     		.sleb128 128
 4283 0616 14       		.uleb128 0x14
 4284 0617 64070000 		.4byte	.LASF169
 4285 061b 8101     		.sleb128 129
 4286 061d 14       		.uleb128 0x14
 4287 061e AE020000 		.4byte	.LASF170
ARM GAS  C:\Users\AHMED~1.ELE\AppData\Local\Temp\ccaBET3e.s 			page 121


 4288 0622 8201     		.sleb128 130
 4289 0624 14       		.uleb128 0x14
 4290 0625 331F0000 		.4byte	.LASF171
 4291 0629 8301     		.sleb128 131
 4292 062b 14       		.uleb128 0x14
 4293 062c 57230000 		.4byte	.LASF172
 4294 0630 8401     		.sleb128 132
 4295 0632 14       		.uleb128 0x14
 4296 0633 560F0000 		.4byte	.LASF173
 4297 0637 8501     		.sleb128 133
 4298 0639 14       		.uleb128 0x14
 4299 063a 4E0A0000 		.4byte	.LASF174
 4300 063e 8601     		.sleb128 134
 4301 0640 14       		.uleb128 0x14
 4302 0641 2E0C0000 		.4byte	.LASF175
 4303 0645 8701     		.sleb128 135
 4304 0647 14       		.uleb128 0x14
 4305 0648 0E060000 		.4byte	.LASF176
 4306 064c 8801     		.sleb128 136
 4307 064e 14       		.uleb128 0x14
 4308 064f 990F0000 		.4byte	.LASF177
 4309 0653 8901     		.sleb128 137
 4310 0655 14       		.uleb128 0x14
 4311 0656 3A0A0000 		.4byte	.LASF178
 4312 065a 8A01     		.sleb128 138
 4313 065c 14       		.uleb128 0x14
 4314 065d 3F240000 		.4byte	.LASF179
 4315 0661 8B01     		.sleb128 139
 4316 0663 14       		.uleb128 0x14
 4317 0664 0B2A0000 		.4byte	.LASF180
 4318 0668 8C01     		.sleb128 140
 4319 066a 14       		.uleb128 0x14
 4320 066b 8B180000 		.4byte	.LASF181
 4321 066f 8D01     		.sleb128 141
 4322 0671 14       		.uleb128 0x14
 4323 0672 C51F0000 		.4byte	.LASF182
 4324 0676 8E01     		.sleb128 142
 4325 0678 14       		.uleb128 0x14
 4326 0679 C60E0000 		.4byte	.LASF183
 4327 067d 8F01     		.sleb128 143
 4328 067f 14       		.uleb128 0x14
 4329 0680 990E0000 		.4byte	.LASF184
 4330 0684 9001     		.sleb128 144
 4331 0686 14       		.uleb128 0x14
 4332 0687 78290000 		.4byte	.LASF185
 4333 068b 9101     		.sleb128 145
 4334 068d 14       		.uleb128 0x14
 4335 068e B11E0000 		.4byte	.LASF186
 4336 0692 9201     		.sleb128 146
 4337 0694 14       		.uleb128 0x14
 4338 0695 57270000 		.4byte	.LASF187
 4339 0699 9301     		.sleb128 147
 4340 069b 14       		.uleb128 0x14
 4341 069c 20170000 		.4byte	.LASF188
 4342 06a0 9401     		.sleb128 148
 4343 06a2 14       		.uleb128 0x14
 4344 06a3 BE000000 		.4byte	.LASF189
ARM GAS  C:\Users\AHMED~1.ELE\AppData\Local\Temp\ccaBET3e.s 			page 122


 4345 06a7 9501     		.sleb128 149
 4346 06a9 14       		.uleb128 0x14
 4347 06aa 5E0A0000 		.4byte	.LASF190
 4348 06ae 9601     		.sleb128 150
 4349 06b0 14       		.uleb128 0x14
 4350 06b1 72100000 		.4byte	.LASF191
 4351 06b5 9701     		.sleb128 151
 4352 06b7 14       		.uleb128 0x14
 4353 06b8 0F170000 		.4byte	.LASF192
 4354 06bc 9801     		.sleb128 152
 4355 06be 14       		.uleb128 0x14
 4356 06bf 75010000 		.4byte	.LASF193
 4357 06c3 9901     		.sleb128 153
 4358 06c5 14       		.uleb128 0x14
 4359 06c6 7B250000 		.4byte	.LASF194
 4360 06ca 9A01     		.sleb128 154
 4361 06cc 14       		.uleb128 0x14
 4362 06cd 211F0000 		.4byte	.LASF195
 4363 06d1 9B01     		.sleb128 155
 4364 06d3 14       		.uleb128 0x14
 4365 06d4 B32D0000 		.4byte	.LASF196
 4366 06d8 9C01     		.sleb128 156
 4367 06da 14       		.uleb128 0x14
 4368 06db 81000000 		.4byte	.LASF197
 4369 06df 9D01     		.sleb128 157
 4370 06e1 14       		.uleb128 0x14
 4371 06e2 4D110000 		.4byte	.LASF198
 4372 06e6 9E01     		.sleb128 158
 4373 06e8 14       		.uleb128 0x14
 4374 06e9 8E0B0000 		.4byte	.LASF199
 4375 06ed 9F01     		.sleb128 159
 4376 06ef 14       		.uleb128 0x14
 4377 06f0 6E0A0000 		.4byte	.LASF200
 4378 06f4 A001     		.sleb128 160
 4379 06f6 14       		.uleb128 0x14
 4380 06f7 681A0000 		.4byte	.LASF201
 4381 06fb A101     		.sleb128 161
 4382 06fd 14       		.uleb128 0x14
 4383 06fe 7D1E0000 		.4byte	.LASF202
 4384 0702 A201     		.sleb128 162
 4385 0704 14       		.uleb128 0x14
 4386 0705 59040000 		.4byte	.LASF203
 4387 0709 A301     		.sleb128 163
 4388 070b 14       		.uleb128 0x14
 4389 070c FC200000 		.4byte	.LASF204
 4390 0710 A401     		.sleb128 164
 4391 0712 14       		.uleb128 0x14
 4392 0713 9D080000 		.4byte	.LASF205
 4393 0717 A501     		.sleb128 165
 4394 0719 14       		.uleb128 0x14
 4395 071a 4C020000 		.4byte	.LASF206
 4396 071e A601     		.sleb128 166
 4397 0720 14       		.uleb128 0x14
 4398 0721 641B0000 		.4byte	.LASF207
 4399 0725 A701     		.sleb128 167
 4400 0727 14       		.uleb128 0x14
 4401 0728 C5190000 		.4byte	.LASF208
ARM GAS  C:\Users\AHMED~1.ELE\AppData\Local\Temp\ccaBET3e.s 			page 123


 4402 072c A801     		.sleb128 168
 4403 072e 14       		.uleb128 0x14
 4404 072f F0040000 		.4byte	.LASF209
 4405 0733 A901     		.sleb128 169
 4406 0735 14       		.uleb128 0x14
 4407 0736 75150000 		.4byte	.LASF210
 4408 073a AA01     		.sleb128 170
 4409 073c 14       		.uleb128 0x14
 4410 073d 081E0000 		.4byte	.LASF211
 4411 0741 AB01     		.sleb128 171
 4412 0743 14       		.uleb128 0x14
 4413 0744 45290000 		.4byte	.LASF212
 4414 0748 AC01     		.sleb128 172
 4415 074a 14       		.uleb128 0x14
 4416 074b 7B030000 		.4byte	.LASF213
 4417 074f AD01     		.sleb128 173
 4418 0751 14       		.uleb128 0x14
 4419 0752 4D160000 		.4byte	.LASF214
 4420 0756 AE01     		.sleb128 174
 4421 0758 14       		.uleb128 0x14
 4422 0759 D9240000 		.4byte	.LASF215
 4423 075d AF01     		.sleb128 175
 4424 075f 14       		.uleb128 0x14
 4425 0760 D20C0000 		.4byte	.LASF216
 4426 0764 B001     		.sleb128 176
 4427 0766 14       		.uleb128 0x14
 4428 0767 5B000000 		.4byte	.LASF217
 4429 076b B101     		.sleb128 177
 4430 076d 14       		.uleb128 0x14
 4431 076e 9A160000 		.4byte	.LASF218
 4432 0772 B201     		.sleb128 178
 4433 0774 14       		.uleb128 0x14
 4434 0775 FA290000 		.4byte	.LASF219
 4435 0779 B301     		.sleb128 179
 4436 077b 14       		.uleb128 0x14
 4437 077c FD050000 		.4byte	.LASF220
 4438 0780 B401     		.sleb128 180
 4439 0782 14       		.uleb128 0x14
 4440 0783 C1120000 		.4byte	.LASF221
 4441 0787 B501     		.sleb128 181
 4442 0789 14       		.uleb128 0x14
 4443 078a 93060000 		.4byte	.LASF222
 4444 078e B601     		.sleb128 182
 4445 0790 14       		.uleb128 0x14
 4446 0791 EB200000 		.4byte	.LASF223
 4447 0795 B701     		.sleb128 183
 4448 0797 14       		.uleb128 0x14
 4449 0798 B00B0000 		.4byte	.LASF224
 4450 079c B801     		.sleb128 184
 4451 079e 14       		.uleb128 0x14
 4452 079f 1E070000 		.4byte	.LASF225
 4453 07a3 B901     		.sleb128 185
 4454 07a5 14       		.uleb128 0x14
 4455 07a6 1E2E0000 		.4byte	.LASF226
 4456 07aa BA01     		.sleb128 186
 4457 07ac 14       		.uleb128 0x14
 4458 07ad A2240000 		.4byte	.LASF227
ARM GAS  C:\Users\AHMED~1.ELE\AppData\Local\Temp\ccaBET3e.s 			page 124


 4459 07b1 BB01     		.sleb128 187
 4460 07b3 14       		.uleb128 0x14
 4461 07b4 A7040000 		.4byte	.LASF228
 4462 07b8 BC01     		.sleb128 188
 4463 07ba 14       		.uleb128 0x14
 4464 07bb 67120000 		.4byte	.LASF229
 4465 07bf BD01     		.sleb128 189
 4466 07c1 14       		.uleb128 0x14
 4467 07c2 68040000 		.4byte	.LASF230
 4468 07c6 BE01     		.sleb128 190
 4469 07c8 14       		.uleb128 0x14
 4470 07c9 FE250000 		.4byte	.LASF231
 4471 07cd BF01     		.sleb128 191
 4472 07cf 14       		.uleb128 0x14
 4473 07d0 F00E0000 		.4byte	.LASF232
 4474 07d4 C001     		.sleb128 192
 4475 07d6 14       		.uleb128 0x14
 4476 07d7 652D0000 		.4byte	.LASF233
 4477 07db C101     		.sleb128 193
 4478 07dd 14       		.uleb128 0x14
 4479 07de 62160000 		.4byte	.LASF234
 4480 07e2 C201     		.sleb128 194
 4481 07e4 14       		.uleb128 0x14
 4482 07e5 FB120000 		.4byte	.LASF235
 4483 07e9 C301     		.sleb128 195
 4484 07eb 14       		.uleb128 0x14
 4485 07ec 16240000 		.4byte	.LASF236
 4486 07f0 C401     		.sleb128 196
 4487 07f2 14       		.uleb128 0x14
 4488 07f3 D7180000 		.4byte	.LASF237
 4489 07f7 C501     		.sleb128 197
 4490 07f9 14       		.uleb128 0x14
 4491 07fa 502A0000 		.4byte	.LASF238
 4492 07fe C601     		.sleb128 198
 4493 0800 14       		.uleb128 0x14
 4494 0801 3D020000 		.4byte	.LASF239
 4495 0805 C701     		.sleb128 199
 4496 0807 14       		.uleb128 0x14
 4497 0808 B21C0000 		.4byte	.LASF240
 4498 080c C801     		.sleb128 200
 4499 080e 14       		.uleb128 0x14
 4500 080f 53240000 		.4byte	.LASF241
 4501 0813 C901     		.sleb128 201
 4502 0815 14       		.uleb128 0x14
 4503 0816 A61D0000 		.4byte	.LASF242
 4504 081a CA01     		.sleb128 202
 4505 081c 14       		.uleb128 0x14
 4506 081d F52A0000 		.4byte	.LASF243
 4507 0821 CB01     		.sleb128 203
 4508 0823 14       		.uleb128 0x14
 4509 0824 360D0000 		.4byte	.LASF244
 4510 0828 CC01     		.sleb128 204
 4511 082a 14       		.uleb128 0x14
 4512 082b AD220000 		.4byte	.LASF245
 4513 082f CD01     		.sleb128 205
 4514 0831 14       		.uleb128 0x14
 4515 0832 0F030000 		.4byte	.LASF246
ARM GAS  C:\Users\AHMED~1.ELE\AppData\Local\Temp\ccaBET3e.s 			page 125


 4516 0836 CE01     		.sleb128 206
 4517 0838 14       		.uleb128 0x14
 4518 0839 780E0000 		.4byte	.LASF247
 4519 083d CF01     		.sleb128 207
 4520 083f 14       		.uleb128 0x14
 4521 0840 681C0000 		.4byte	.LASF248
 4522 0844 D001     		.sleb128 208
 4523 0846 14       		.uleb128 0x14
 4524 0847 F4110000 		.4byte	.LASF249
 4525 084b D101     		.sleb128 209
 4526 084d 14       		.uleb128 0x14
 4527 084e 850C0000 		.4byte	.LASF250
 4528 0852 D201     		.sleb128 210
 4529 0854 14       		.uleb128 0x14
 4530 0855 242A0000 		.4byte	.LASF251
 4531 0859 D301     		.sleb128 211
 4532 085b 14       		.uleb128 0x14
 4533 085c F8230000 		.4byte	.LASF252
 4534 0860 D401     		.sleb128 212
 4535 0862 14       		.uleb128 0x14
 4536 0863 EC0C0000 		.4byte	.LASF253
 4537 0867 D501     		.sleb128 213
 4538 0869 14       		.uleb128 0x14
 4539 086a 04140000 		.4byte	.LASF254
 4540 086e D601     		.sleb128 214
 4541 0870 14       		.uleb128 0x14
 4542 0871 B7100000 		.4byte	.LASF255
 4543 0875 D701     		.sleb128 215
 4544 0877 14       		.uleb128 0x14
 4545 0878 880E0000 		.4byte	.LASF256
 4546 087c D801     		.sleb128 216
 4547 087e 14       		.uleb128 0x14
 4548 087f AB2A0000 		.4byte	.LASF257
 4549 0883 D901     		.sleb128 217
 4550 0885 14       		.uleb128 0x14
 4551 0886 CF130000 		.4byte	.LASF258
 4552 088a DA01     		.sleb128 218
 4553 088c 14       		.uleb128 0x14
 4554 088d 23040000 		.4byte	.LASF259
 4555 0891 DB01     		.sleb128 219
 4556 0893 14       		.uleb128 0x14
 4557 0894 B3060000 		.4byte	.LASF260
 4558 0898 DC01     		.sleb128 220
 4559 089a 14       		.uleb128 0x14
 4560 089b 98290000 		.4byte	.LASF261
 4561 089f DD01     		.sleb128 221
 4562 08a1 14       		.uleb128 0x14
 4563 08a2 430B0000 		.4byte	.LASF262
 4564 08a6 DE01     		.sleb128 222
 4565 08a8 14       		.uleb128 0x14
 4566 08a9 84100000 		.4byte	.LASF263
 4567 08ad DF01     		.sleb128 223
 4568 08af 14       		.uleb128 0x14
 4569 08b0 20120000 		.4byte	.LASF264
 4570 08b4 E001     		.sleb128 224
 4571 08b6 14       		.uleb128 0x14
 4572 08b7 93100000 		.4byte	.LASF265
ARM GAS  C:\Users\AHMED~1.ELE\AppData\Local\Temp\ccaBET3e.s 			page 126


 4573 08bb E101     		.sleb128 225
 4574 08bd 14       		.uleb128 0x14
 4575 08be 36150000 		.4byte	.LASF266
 4576 08c2 E201     		.sleb128 226
 4577 08c4 14       		.uleb128 0x14
 4578 08c5 54180000 		.4byte	.LASF267
 4579 08c9 E301     		.sleb128 227
 4580 08cb 14       		.uleb128 0x14
 4581 08cc 2C110000 		.4byte	.LASF268
 4582 08d0 E401     		.sleb128 228
 4583 08d2 14       		.uleb128 0x14
 4584 08d3 730F0000 		.4byte	.LASF269
 4585 08d7 E501     		.sleb128 229
 4586 08d9 14       		.uleb128 0x14
 4587 08da 1A190000 		.4byte	.LASF270
 4588 08de E601     		.sleb128 230
 4589 08e0 14       		.uleb128 0x14
 4590 08e1 38130000 		.4byte	.LASF271
 4591 08e5 E701     		.sleb128 231
 4592 08e7 14       		.uleb128 0x14
 4593 08e8 6F160000 		.4byte	.LASF272
 4594 08ec E801     		.sleb128 232
 4595 08ee 14       		.uleb128 0x14
 4596 08ef 792C0000 		.4byte	.LASF273
 4597 08f3 E901     		.sleb128 233
 4598 08f5 14       		.uleb128 0x14
 4599 08f6 B7260000 		.4byte	.LASF274
 4600 08fa EA01     		.sleb128 234
 4601 08fc 14       		.uleb128 0x14
 4602 08fd 121C0000 		.4byte	.LASF275
 4603 0901 EB01     		.sleb128 235
 4604 0903 14       		.uleb128 0x14
 4605 0904 44270000 		.4byte	.LASF276
 4606 0908 EC01     		.sleb128 236
 4607 090a 14       		.uleb128 0x14
 4608 090b C41C0000 		.4byte	.LASF277
 4609 090f ED01     		.sleb128 237
 4610 0911 14       		.uleb128 0x14
 4611 0912 F0050000 		.4byte	.LASF278
 4612 0916 EE01     		.sleb128 238
 4613 0918 14       		.uleb128 0x14
 4614 0919 1E180000 		.4byte	.LASF279
 4615 091d EF01     		.sleb128 239
 4616 091f 14       		.uleb128 0x14
 4617 0920 CD2A0000 		.4byte	.LASF280
 4618 0924 F001     		.sleb128 240
 4619 0926 14       		.uleb128 0x14
 4620 0927 8A1B0000 		.4byte	.LASF281
 4621 092b F101     		.sleb128 241
 4622 092d 14       		.uleb128 0x14
 4623 092e 63290000 		.4byte	.LASF282
 4624 0932 F201     		.sleb128 242
 4625 0934 14       		.uleb128 0x14
 4626 0935 31180000 		.4byte	.LASF283
 4627 0939 F301     		.sleb128 243
 4628 093b 14       		.uleb128 0x14
 4629 093c 42080000 		.4byte	.LASF284
ARM GAS  C:\Users\AHMED~1.ELE\AppData\Local\Temp\ccaBET3e.s 			page 127


 4630 0940 F401     		.sleb128 244
 4631 0942 14       		.uleb128 0x14
 4632 0943 50220000 		.4byte	.LASF285
 4633 0947 F501     		.sleb128 245
 4634 0949 14       		.uleb128 0x14
 4635 094a 89220000 		.4byte	.LASF286
 4636 094e F601     		.sleb128 246
 4637 0950 14       		.uleb128 0x14
 4638 0951 540B0000 		.4byte	.LASF287
 4639 0955 F701     		.sleb128 247
 4640 0957 14       		.uleb128 0x14
 4641 0958 AC1B0000 		.4byte	.LASF288
 4642 095c F801     		.sleb128 248
 4643 095e 14       		.uleb128 0x14
 4644 095f E8120000 		.4byte	.LASF289
 4645 0963 F901     		.sleb128 249
 4646 0965 14       		.uleb128 0x14
 4647 0966 181E0000 		.4byte	.LASF290
 4648 096a FA01     		.sleb128 250
 4649 096c 14       		.uleb128 0x14
 4650 096d 02150000 		.4byte	.LASF291
 4651 0971 FB01     		.sleb128 251
 4652 0973 14       		.uleb128 0x14
 4653 0974 552D0000 		.4byte	.LASF292
 4654 0978 FC01     		.sleb128 252
 4655 097a 14       		.uleb128 0x14
 4656 097b 330F0000 		.4byte	.LASF293
 4657 097f FD01     		.sleb128 253
 4658 0981 14       		.uleb128 0x14
 4659 0982 112B0000 		.4byte	.LASF294
 4660 0986 FE01     		.sleb128 254
 4661 0988 14       		.uleb128 0x14
 4662 0989 01120000 		.4byte	.LASF295
 4663 098d FF01     		.sleb128 255
 4664 098f 14       		.uleb128 0x14
 4665 0990 832A0000 		.4byte	.LASF296
 4666 0994 8002     		.sleb128 256
 4667 0996 14       		.uleb128 0x14
 4668 0997 11150000 		.4byte	.LASF297
 4669 099b 8102     		.sleb128 257
 4670 099d 14       		.uleb128 0x14
 4671 099e 9F1F0000 		.4byte	.LASF298
 4672 09a2 8202     		.sleb128 258
 4673 09a4 14       		.uleb128 0x14
 4674 09a5 6B230000 		.4byte	.LASF299
 4675 09a9 8302     		.sleb128 259
 4676 09ab 14       		.uleb128 0x14
 4677 09ac 6C0D0000 		.4byte	.LASF300
 4678 09b0 8402     		.sleb128 260
 4679 09b2 14       		.uleb128 0x14
 4680 09b3 0F120000 		.4byte	.LASF301
 4681 09b7 8502     		.sleb128 261
 4682 09b9 14       		.uleb128 0x14
 4683 09ba FE020000 		.4byte	.LASF302
 4684 09be 8602     		.sleb128 262
 4685 09c0 14       		.uleb128 0x14
 4686 09c1 2D160000 		.4byte	.LASF303
ARM GAS  C:\Users\AHMED~1.ELE\AppData\Local\Temp\ccaBET3e.s 			page 128


 4687 09c5 8702     		.sleb128 263
 4688 09c7 14       		.uleb128 0x14
 4689 09c8 52060000 		.4byte	.LASF304
 4690 09cc 8802     		.sleb128 264
 4691 09ce 14       		.uleb128 0x14
 4692 09cf 41100000 		.4byte	.LASF305
 4693 09d3 8902     		.sleb128 265
 4694 09d5 14       		.uleb128 0x14
 4695 09d6 63260000 		.4byte	.LASF306
 4696 09da 8A02     		.sleb128 266
 4697 09dc 14       		.uleb128 0x14
 4698 09dd FD0E0000 		.4byte	.LASF307
 4699 09e1 8B02     		.sleb128 267
 4700 09e3 14       		.uleb128 0x14
 4701 09e4 A80C0000 		.4byte	.LASF308
 4702 09e8 8C02     		.sleb128 268
 4703 09ea 14       		.uleb128 0x14
 4704 09eb 1B230000 		.4byte	.LASF309
 4705 09ef 8D02     		.sleb128 269
 4706 09f1 14       		.uleb128 0x14
 4707 09f2 0F0D0000 		.4byte	.LASF310
 4708 09f6 8E02     		.sleb128 270
 4709 09f8 14       		.uleb128 0x14
 4710 09f9 D4060000 		.4byte	.LASF311
 4711 09fd 8F02     		.sleb128 271
 4712 09ff 14       		.uleb128 0x14
 4713 0a00 5D090000 		.4byte	.LASF312
 4714 0a04 9002     		.sleb128 272
 4715 0a06 14       		.uleb128 0x14
 4716 0a07 28020000 		.4byte	.LASF313
 4717 0a0b 9102     		.sleb128 273
 4718 0a0d 14       		.uleb128 0x14
 4719 0a0e 432D0000 		.4byte	.LASF314
 4720 0a12 9202     		.sleb128 274
 4721 0a14 14       		.uleb128 0x14
 4722 0a15 A5260000 		.4byte	.LASF315
 4723 0a19 9302     		.sleb128 275
 4724 0a1b 14       		.uleb128 0x14
 4725 0a1c C22C0000 		.4byte	.LASF316
 4726 0a20 9402     		.sleb128 276
 4727 0a22 14       		.uleb128 0x14
 4728 0a23 99120000 		.4byte	.LASF317
 4729 0a27 9502     		.sleb128 277
 4730 0a29 14       		.uleb128 0x14
 4731 0a2a C0020000 		.4byte	.LASF318
 4732 0a2e 9602     		.sleb128 278
 4733 0a30 14       		.uleb128 0x14
 4734 0a31 44180000 		.4byte	.LASF319
 4735 0a35 9702     		.sleb128 279
 4736 0a37 14       		.uleb128 0x14
 4737 0a38 48030000 		.4byte	.LASF320
 4738 0a3c 9802     		.sleb128 280
 4739 0a3e 14       		.uleb128 0x14
 4740 0a3f 94260000 		.4byte	.LASF321
 4741 0a43 9902     		.sleb128 281
 4742 0a45 14       		.uleb128 0x14
 4743 0a46 CA1A0000 		.4byte	.LASF322
ARM GAS  C:\Users\AHMED~1.ELE\AppData\Local\Temp\ccaBET3e.s 			page 129


 4744 0a4a 9A02     		.sleb128 282
 4745 0a4c 14       		.uleb128 0x14
 4746 0a4d D5010000 		.4byte	.LASF323
 4747 0a51 9B02     		.sleb128 283
 4748 0a53 14       		.uleb128 0x14
 4749 0a54 87070000 		.4byte	.LASF324
 4750 0a58 9C02     		.sleb128 284
 4751 0a5a 14       		.uleb128 0x14
 4752 0a5b 0F160000 		.4byte	.LASF325
 4753 0a5f 9D02     		.sleb128 285
 4754 0a61 14       		.uleb128 0x14
 4755 0a62 B1130000 		.4byte	.LASF326
 4756 0a66 9E02     		.sleb128 286
 4757 0a68 14       		.uleb128 0x14
 4758 0a69 E2000000 		.4byte	.LASF327
 4759 0a6d 9F02     		.sleb128 287
 4760 0a6f 14       		.uleb128 0x14
 4761 0a70 E1230000 		.4byte	.LASF328
 4762 0a74 A002     		.sleb128 288
 4763 0a76 14       		.uleb128 0x14
 4764 0a77 34030000 		.4byte	.LASF329
 4765 0a7b A102     		.sleb128 289
 4766 0a7d 14       		.uleb128 0x14
 4767 0a7e 34270000 		.4byte	.LASF330
 4768 0a82 A202     		.sleb128 290
 4769 0a84 14       		.uleb128 0x14
 4770 0a85 E3250000 		.4byte	.LASF331
 4771 0a89 A302     		.sleb128 291
 4772 0a8b 14       		.uleb128 0x14
 4773 0a8c 98200000 		.4byte	.LASF332
 4774 0a90 A402     		.sleb128 292
 4775 0a92 14       		.uleb128 0x14
 4776 0a93 F1100000 		.4byte	.LASF333
 4777 0a97 A502     		.sleb128 293
 4778 0a99 14       		.uleb128 0x14
 4779 0a9a 84280000 		.4byte	.LASF334
 4780 0a9e A602     		.sleb128 294
 4781 0aa0 14       		.uleb128 0x14
 4782 0aa1 D9210000 		.4byte	.LASF335
 4783 0aa5 A702     		.sleb128 295
 4784 0aa7 14       		.uleb128 0x14
 4785 0aa8 481F0000 		.4byte	.LASF336
 4786 0aac A802     		.sleb128 296
 4787 0aae 14       		.uleb128 0x14
 4788 0aaf C4180000 		.4byte	.LASF337
 4789 0ab3 A902     		.sleb128 297
 4790 0ab5 14       		.uleb128 0x14
 4791 0ab6 9A2A0000 		.4byte	.LASF338
 4792 0aba AA02     		.sleb128 298
 4793 0abc 14       		.uleb128 0x14
 4794 0abd 30000000 		.4byte	.LASF339
 4795 0ac1 AB02     		.sleb128 299
 4796 0ac3 14       		.uleb128 0x14
 4797 0ac4 D81C0000 		.4byte	.LASF340
 4798 0ac8 AC02     		.sleb128 300
 4799 0aca 14       		.uleb128 0x14
 4800 0acb 2C100000 		.4byte	.LASF341
ARM GAS  C:\Users\AHMED~1.ELE\AppData\Local\Temp\ccaBET3e.s 			page 130


 4801 0acf AD02     		.sleb128 301
 4802 0ad1 14       		.uleb128 0x14
 4803 0ad2 B9090000 		.4byte	.LASF342
 4804 0ad6 AE02     		.sleb128 302
 4805 0ad8 14       		.uleb128 0x14
 4806 0ad9 2B1D0000 		.4byte	.LASF343
 4807 0add AF02     		.sleb128 303
 4808 0adf 14       		.uleb128 0x14
 4809 0ae0 28260000 		.4byte	.LASF344
 4810 0ae4 B002     		.sleb128 304
 4811 0ae6 14       		.uleb128 0x14
 4812 0ae7 E02D0000 		.4byte	.LASF345
 4813 0aeb B102     		.sleb128 305
 4814 0aed 14       		.uleb128 0x14
 4815 0aee BA2A0000 		.4byte	.LASF346
 4816 0af2 B202     		.sleb128 306
 4817 0af4 14       		.uleb128 0x14
 4818 0af5 91110000 		.4byte	.LASF347
 4819 0af9 B302     		.sleb128 307
 4820 0afb 14       		.uleb128 0x14
 4821 0afc 421A0000 		.4byte	.LASF348
 4822 0b00 B402     		.sleb128 308
 4823 0b02 14       		.uleb128 0x14
 4824 0b03 951D0000 		.4byte	.LASF349
 4825 0b07 B502     		.sleb128 309
 4826 0b09 14       		.uleb128 0x14
 4827 0b0a 06090000 		.4byte	.LASF350
 4828 0b0e B602     		.sleb128 310
 4829 0b10 14       		.uleb128 0x14
 4830 0b11 00000000 		.4byte	.LASF351
 4831 0b15 B702     		.sleb128 311
 4832 0b17 14       		.uleb128 0x14
 4833 0b18 EA2C0000 		.4byte	.LASF352
 4834 0b1c B802     		.sleb128 312
 4835 0b1e 14       		.uleb128 0x14
 4836 0b1f 11260000 		.4byte	.LASF353
 4837 0b23 B902     		.sleb128 313
 4838 0b25 14       		.uleb128 0x14
 4839 0b26 3E1D0000 		.4byte	.LASF354
 4840 0b2a BA02     		.sleb128 314
 4841 0b2c 14       		.uleb128 0x14
 4842 0b2d AF1F0000 		.4byte	.LASF355
 4843 0b31 BB02     		.sleb128 315
 4844 0b33 14       		.uleb128 0x14
 4845 0b34 0D010000 		.4byte	.LASF356
 4846 0b38 BC02     		.sleb128 316
 4847 0b3a 14       		.uleb128 0x14
 4848 0b3b 022E0000 		.4byte	.LASF357
 4849 0b3f BD02     		.sleb128 317
 4850 0b41 14       		.uleb128 0x14
 4851 0b42 81080000 		.4byte	.LASF358
 4852 0b46 BE02     		.sleb128 318
 4853 0b48 14       		.uleb128 0x14
 4854 0b49 67200000 		.4byte	.LASF359
 4855 0b4d BF02     		.sleb128 319
 4856 0b4f 14       		.uleb128 0x14
 4857 0b50 A3110000 		.4byte	.LASF360
ARM GAS  C:\Users\AHMED~1.ELE\AppData\Local\Temp\ccaBET3e.s 			page 131


 4858 0b54 C002     		.sleb128 320
 4859 0b56 14       		.uleb128 0x14
 4860 0b57 EA2B0000 		.4byte	.LASF361
 4861 0b5b C102     		.sleb128 321
 4862 0b5d 14       		.uleb128 0x14
 4863 0b5e 0D040000 		.4byte	.LASF362
 4864 0b62 C202     		.sleb128 322
 4865 0b64 14       		.uleb128 0x14
 4866 0b65 20010000 		.4byte	.LASF363
 4867 0b69 C302     		.sleb128 323
 4868 0b6b 14       		.uleb128 0x14
 4869 0b6c 15000000 		.4byte	.LASF364
 4870 0b70 C402     		.sleb128 324
 4871 0b72 14       		.uleb128 0x14
 4872 0b73 8B210000 		.4byte	.LASF365
 4873 0b77 C502     		.sleb128 325
 4874 0b79 14       		.uleb128 0x14
 4875 0b7a 63060000 		.4byte	.LASF366
 4876 0b7e C602     		.sleb128 326
 4877 0b80 14       		.uleb128 0x14
 4878 0b81 480E0000 		.4byte	.LASF367
 4879 0b85 C702     		.sleb128 327
 4880 0b87 14       		.uleb128 0x14
 4881 0b88 F9070000 		.4byte	.LASF368
 4882 0b8c C802     		.sleb128 328
 4883 0b8e 14       		.uleb128 0x14
 4884 0b8f 30250000 		.4byte	.LASF369
 4885 0b93 C902     		.sleb128 329
 4886 0b95 14       		.uleb128 0x14
 4887 0b96 2C240000 		.4byte	.LASF370
 4888 0b9a CA02     		.sleb128 330
 4889 0b9c 14       		.uleb128 0x14
 4890 0b9d 4A260000 		.4byte	.LASF371
 4891 0ba1 CB02     		.sleb128 331
 4892 0ba3 14       		.uleb128 0x14
 4893 0ba4 38010000 		.4byte	.LASF372
 4894 0ba8 CC02     		.sleb128 332
 4895 0baa 14       		.uleb128 0x14
 4896 0bab 9F180000 		.4byte	.LASF373
 4897 0baf CD02     		.sleb128 333
 4898 0bb1 14       		.uleb128 0x14
 4899 0bb2 321B0000 		.4byte	.LASF374
 4900 0bb6 CE02     		.sleb128 334
 4901 0bb8 14       		.uleb128 0x14
 4902 0bb9 1B2C0000 		.4byte	.LASF375
 4903 0bbd CF02     		.sleb128 335
 4904 0bbf 14       		.uleb128 0x14
 4905 0bc0 9D190000 		.4byte	.LASF376
 4906 0bc4 D002     		.sleb128 336
 4907 0bc6 14       		.uleb128 0x14
 4908 0bc7 8B1A0000 		.4byte	.LASF377
 4909 0bcb D102     		.sleb128 337
 4910 0bcd 14       		.uleb128 0x14
 4911 0bce C10F0000 		.4byte	.LASF378
 4912 0bd2 D202     		.sleb128 338
 4913 0bd4 14       		.uleb128 0x14
 4914 0bd5 EF150000 		.4byte	.LASF379
ARM GAS  C:\Users\AHMED~1.ELE\AppData\Local\Temp\ccaBET3e.s 			page 132


 4915 0bd9 D302     		.sleb128 339
 4916 0bdb 14       		.uleb128 0x14
 4917 0bdc FE060000 		.4byte	.LASF380
 4918 0be0 D402     		.sleb128 340
 4919 0be2 14       		.uleb128 0x14
 4920 0be3 041D0000 		.4byte	.LASF381
 4921 0be7 D502     		.sleb128 341
 4922 0be9 14       		.uleb128 0x14
 4923 0bea F51D0000 		.4byte	.LASF382
 4924 0bee D602     		.sleb128 342
 4925 0bf0 14       		.uleb128 0x14
 4926 0bf1 E7180000 		.4byte	.LASF383
 4927 0bf5 D702     		.sleb128 343
 4928 0bf7 14       		.uleb128 0x14
 4929 0bf8 86170000 		.4byte	.LASF384
 4930 0bfc D802     		.sleb128 344
 4931 0bfe 14       		.uleb128 0x14
 4932 0bff 05200000 		.4byte	.LASF385
 4933 0c03 D902     		.sleb128 345
 4934 0c05 14       		.uleb128 0x14
 4935 0c06 D40D0000 		.4byte	.LASF386
 4936 0c0a DA02     		.sleb128 346
 4937 0c0c 14       		.uleb128 0x14
 4938 0c0d E21D0000 		.4byte	.LASF387
 4939 0c11 DB02     		.sleb128 347
 4940 0c13 14       		.uleb128 0x14
 4941 0c14 B9150000 		.4byte	.LASF388
 4942 0c18 DC02     		.sleb128 348
 4943 0c1a 14       		.uleb128 0x14
 4944 0c1b BE1E0000 		.4byte	.LASF389
 4945 0c1f DD02     		.sleb128 349
 4946 0c21 14       		.uleb128 0x14
 4947 0c22 7A1B0000 		.4byte	.LASF390
 4948 0c26 DE02     		.sleb128 350
 4949 0c28 14       		.uleb128 0x14
 4950 0c29 63250000 		.4byte	.LASF391
 4951 0c2d DF02     		.sleb128 351
 4952 0c2f 14       		.uleb128 0x14
 4953 0c30 E8010000 		.4byte	.LASF392
 4954 0c34 E002     		.sleb128 352
 4955 0c36 14       		.uleb128 0x14
 4956 0c37 D8220000 		.4byte	.LASF393
 4957 0c3b E102     		.sleb128 353
 4958 0c3d 14       		.uleb128 0x14
 4959 0c3e D3250000 		.4byte	.LASF394
 4960 0c42 E202     		.sleb128 354
 4961 0c44 14       		.uleb128 0x14
 4962 0c45 4B130000 		.4byte	.LASF395
 4963 0c49 E302     		.sleb128 355
 4964 0c4b 14       		.uleb128 0x14
 4965 0c4c D9120000 		.4byte	.LASF396
 4966 0c50 E402     		.sleb128 356
 4967 0c52 14       		.uleb128 0x14
 4968 0c53 220D0000 		.4byte	.LASF397
 4969 0c57 E502     		.sleb128 357
 4970 0c59 14       		.uleb128 0x14
 4971 0c5a C6100000 		.4byte	.LASF398
ARM GAS  C:\Users\AHMED~1.ELE\AppData\Local\Temp\ccaBET3e.s 			page 133


 4972 0c5e E602     		.sleb128 358
 4973 0c60 14       		.uleb128 0x14
 4974 0c61 0F0B0000 		.4byte	.LASF399
 4975 0c65 E702     		.sleb128 359
 4976 0c67 14       		.uleb128 0x14
 4977 0c68 90270000 		.4byte	.LASF400
 4978 0c6c E802     		.sleb128 360
 4979 0c6e 14       		.uleb128 0x14
 4980 0c6f 75170000 		.4byte	.LASF401
 4981 0c73 E902     		.sleb128 361
 4982 0c75 14       		.uleb128 0x14
 4983 0c76 F3240000 		.4byte	.LASF402
 4984 0c7a EA02     		.sleb128 362
 4985 0c7c 14       		.uleb128 0x14
 4986 0c7d E60D0000 		.4byte	.LASF403
 4987 0c81 EB02     		.sleb128 363
 4988 0c83 14       		.uleb128 0x14
 4989 0c84 F60D0000 		.4byte	.LASF404
 4990 0c88 EC02     		.sleb128 364
 4991 0c8a 14       		.uleb128 0x14
 4992 0c8b C8290000 		.4byte	.LASF405
 4993 0c8f ED02     		.sleb128 365
 4994 0c91 14       		.uleb128 0x14
 4995 0c92 A7290000 		.4byte	.LASF406
 4996 0c96 EE02     		.sleb128 366
 4997 0c98 14       		.uleb128 0x14
 4998 0c99 CE040000 		.4byte	.LASF407
 4999 0c9d EF02     		.sleb128 367
 5000 0c9f 14       		.uleb128 0x14
 5001 0ca0 770C0000 		.4byte	.LASF408
 5002 0ca4 F002     		.sleb128 368
 5003 0ca6 14       		.uleb128 0x14
 5004 0ca7 3B060000 		.4byte	.LASF409
 5005 0cab F102     		.sleb128 369
 5006 0cad 14       		.uleb128 0x14
 5007 0cae 2B230000 		.4byte	.LASF410
 5008 0cb2 F202     		.sleb128 370
 5009 0cb4 14       		.uleb128 0x14
 5010 0cb5 2B0E0000 		.4byte	.LASF411
 5011 0cb9 F302     		.sleb128 371
 5012 0cbb 14       		.uleb128 0x14
 5013 0cbc EE1B0000 		.4byte	.LASF412
 5014 0cc0 F402     		.sleb128 372
 5015 0cc2 14       		.uleb128 0x14
 5016 0cc3 7E0D0000 		.4byte	.LASF413
 5017 0cc7 F502     		.sleb128 373
 5018 0cc9 14       		.uleb128 0x14
 5019 0cca 37290000 		.4byte	.LASF414
 5020 0cce F602     		.sleb128 374
 5021 0cd0 14       		.uleb128 0x14
 5022 0cd1 EB060000 		.4byte	.LASF415
 5023 0cd5 F702     		.sleb128 375
 5024 0cd7 14       		.uleb128 0x14
 5025 0cd8 592C0000 		.4byte	.LASF416
 5026 0cdc F802     		.sleb128 376
 5027 0cde 14       		.uleb128 0x14
 5028 0cdf 0C130000 		.4byte	.LASF417
ARM GAS  C:\Users\AHMED~1.ELE\AppData\Local\Temp\ccaBET3e.s 			page 134


 5029 0ce3 F902     		.sleb128 377
 5030 0ce5 14       		.uleb128 0x14
 5031 0ce6 0A180000 		.4byte	.LASF418
 5032 0cea FA02     		.sleb128 378
 5033 0cec 14       		.uleb128 0x14
 5034 0ced A7230000 		.4byte	.LASF419
 5035 0cf1 FB02     		.sleb128 379
 5036 0cf3 14       		.uleb128 0x14
 5037 0cf4 15020000 		.4byte	.LASF420
 5038 0cf8 FC02     		.sleb128 380
 5039 0cfa 14       		.uleb128 0x14
 5040 0cfb 781A0000 		.4byte	.LASF421
 5041 0cff FD02     		.sleb128 381
 5042 0d01 14       		.uleb128 0x14
 5043 0d02 8E230000 		.4byte	.LASF422
 5044 0d06 FE02     		.sleb128 382
 5045 0d08 14       		.uleb128 0x14
 5046 0d09 C6070000 		.4byte	.LASF423
 5047 0d0d FF02     		.sleb128 383
 5048 0d0f 14       		.uleb128 0x14
 5049 0d10 0B1F0000 		.4byte	.LASF424
 5050 0d14 8003     		.sleb128 384
 5051 0d16 14       		.uleb128 0x14
 5052 0d17 860F0000 		.4byte	.LASF425
 5053 0d1b 8103     		.sleb128 385
 5054 0d1d 14       		.uleb128 0x14
 5055 0d1e A0280000 		.4byte	.LASF426
 5056 0d22 8203     		.sleb128 386
 5057 0d24 14       		.uleb128 0x14
 5058 0d25 EB130000 		.4byte	.LASF427
 5059 0d29 8303     		.sleb128 387
 5060 0d2b 14       		.uleb128 0x14
 5061 0d2c CA080000 		.4byte	.LASF428
 5062 0d30 8403     		.sleb128 388
 5063 0d32 14       		.uleb128 0x14
 5064 0d33 F6160000 		.4byte	.LASF429
 5065 0d37 8503     		.sleb128 389
 5066 0d39 14       		.uleb128 0x14
 5067 0d3a 9E050000 		.4byte	.LASF430
 5068 0d3e 8603     		.sleb128 390
 5069 0d40 14       		.uleb128 0x14
 5070 0d41 240A0000 		.4byte	.LASF431
 5071 0d45 8703     		.sleb128 391
 5072 0d47 14       		.uleb128 0x14
 5073 0d48 671D0000 		.4byte	.LASF432
 5074 0d4c 8803     		.sleb128 392
 5075 0d4e 14       		.uleb128 0x14
 5076 0d4f 9F0B0000 		.4byte	.LASF433
 5077 0d53 8903     		.sleb128 393
 5078 0d55 14       		.uleb128 0x14
 5079 0d56 0C2D0000 		.4byte	.LASF434
 5080 0d5a 8A03     		.sleb128 394
 5081 0d5c 14       		.uleb128 0x14
 5082 0d5d 0E210000 		.4byte	.LASF435
 5083 0d61 8B03     		.sleb128 395
 5084 0d63 14       		.uleb128 0x14
 5085 0d64 B6240000 		.4byte	.LASF436
ARM GAS  C:\Users\AHMED~1.ELE\AppData\Local\Temp\ccaBET3e.s 			page 135


 5086 0d68 8C03     		.sleb128 396
 5087 0d6a 14       		.uleb128 0x14
 5088 0d6b DB270000 		.4byte	.LASF437
 5089 0d6f 8D03     		.sleb128 397
 5090 0d71 14       		.uleb128 0x14
 5091 0d72 A0000000 		.4byte	.LASF438
 5092 0d76 8E03     		.sleb128 398
 5093 0d78 14       		.uleb128 0x14
 5094 0d79 BB1B0000 		.4byte	.LASF439
 5095 0d7d 8F03     		.sleb128 399
 5096 0d7f 14       		.uleb128 0x14
 5097 0d80 17100000 		.4byte	.LASF440
 5098 0d84 9003     		.sleb128 400
 5099 0d86 14       		.uleb128 0x14
 5100 0d87 03270000 		.4byte	.LASF441
 5101 0d8b 9103     		.sleb128 401
 5102 0d8d 14       		.uleb128 0x14
 5103 0d8e 130F0000 		.4byte	.LASF442
 5104 0d92 9203     		.sleb128 402
 5105 0d94 14       		.uleb128 0x14
 5106 0d95 DD1A0000 		.4byte	.LASF443
 5107 0d99 9303     		.sleb128 403
 5108 0d9b 14       		.uleb128 0x14
 5109 0d9c FD1E0000 		.4byte	.LASF444
 5110 0da0 9403     		.sleb128 404
 5111 0da2 14       		.uleb128 0x14
 5112 0da3 89200000 		.4byte	.LASF445
 5113 0da7 9503     		.sleb128 405
 5114 0da9 14       		.uleb128 0x14
 5115 0daa C0220000 		.4byte	.LASF446
 5116 0dae 9603     		.sleb128 406
 5117 0db0 14       		.uleb128 0x14
 5118 0db1 79040000 		.4byte	.LASF447
 5119 0db5 9703     		.sleb128 407
 5120 0db7 14       		.uleb128 0x14
 5121 0db8 A1130000 		.4byte	.LASF448
 5122 0dbc 9803     		.sleb128 408
 5123 0dbe 14       		.uleb128 0x14
 5124 0dbf 7D1C0000 		.4byte	.LASF449
 5125 0dc3 9903     		.sleb128 409
 5126 0dc5 14       		.uleb128 0x14
 5127 0dc6 E4290000 		.4byte	.LASF450
 5128 0dca 9A03     		.sleb128 410
 5129 0dcc 14       		.uleb128 0x14
 5130 0dcd 42000000 		.4byte	.LASF451
 5131 0dd1 9B03     		.sleb128 411
 5132 0dd3 14       		.uleb128 0x14
 5133 0dd4 2A150000 		.4byte	.LASF452
 5134 0dd8 9C03     		.sleb128 412
 5135 0dda 14       		.uleb128 0x14
 5136 0ddb 8E1C0000 		.4byte	.LASF453
 5137 0ddf 9D03     		.sleb128 413
 5138 0de1 14       		.uleb128 0x14
 5139 0de2 B62C0000 		.4byte	.LASF454
 5140 0de6 9E03     		.sleb128 414
 5141 0de8 14       		.uleb128 0x14
 5142 0de9 85260000 		.4byte	.LASF455
ARM GAS  C:\Users\AHMED~1.ELE\AppData\Local\Temp\ccaBET3e.s 			page 136


 5143 0ded 9F03     		.sleb128 415
 5144 0def 14       		.uleb128 0x14
 5145 0df0 B90C0000 		.4byte	.LASF456
 5146 0df4 A003     		.sleb128 416
 5147 0df6 14       		.uleb128 0x14
 5148 0df7 3E110000 		.4byte	.LASF457
 5149 0dfb A103     		.sleb128 417
 5150 0dfd 14       		.uleb128 0x14
 5151 0dfe AD090000 		.4byte	.LASF458
 5152 0e02 A203     		.sleb128 418
 5153 0e04 14       		.uleb128 0x14
 5154 0e05 B60A0000 		.4byte	.LASF459
 5155 0e09 A303     		.sleb128 419
 5156 0e0b 14       		.uleb128 0x14
 5157 0e0c 63020000 		.4byte	.LASF460
 5158 0e10 A403     		.sleb128 420
 5159 0e12 14       		.uleb128 0x14
 5160 0e13 5A1A0000 		.4byte	.LASF461
 5161 0e17 A503     		.sleb128 421
 5162 0e19 14       		.uleb128 0x14
 5163 0e1a 742A0000 		.4byte	.LASF462
 5164 0e1e A603     		.sleb128 422
 5165 0e20 14       		.uleb128 0x14
 5166 0e21 C2030000 		.4byte	.LASF463
 5167 0e25 A703     		.sleb128 423
 5168 0e27 14       		.uleb128 0x14
 5169 0e28 BC160000 		.4byte	.LASF464
 5170 0e2c A803     		.sleb128 424
 5171 0e2e 14       		.uleb128 0x14
 5172 0e2f 09020000 		.4byte	.LASF465
 5173 0e33 A903     		.sleb128 425
 5174 0e35 14       		.uleb128 0x14
 5175 0e36 1C060000 		.4byte	.LASF466
 5176 0e3a AA03     		.sleb128 426
 5177 0e3c 14       		.uleb128 0x14
 5178 0e3d 732D0000 		.4byte	.LASF467
 5179 0e41 AB03     		.sleb128 427
 5180 0e43 14       		.uleb128 0x14
 5181 0e44 37220000 		.4byte	.LASF468
 5182 0e48 AC03     		.sleb128 428
 5183 0e4a 14       		.uleb128 0x14
 5184 0e4b A90F0000 		.4byte	.LASF469
 5185 0e4f AD03     		.sleb128 429
 5186 0e51 14       		.uleb128 0x14
 5187 0e52 2A1A0000 		.4byte	.LASF470
 5188 0e56 AE03     		.sleb128 430
 5189 0e58 14       		.uleb128 0x14
 5190 0e59 9A2C0000 		.4byte	.LASF471
 5191 0e5d AF03     		.sleb128 431
 5192 0e5f 14       		.uleb128 0x14
 5193 0e60 940C0000 		.4byte	.LASF472
 5194 0e64 B003     		.sleb128 432
 5195 0e66 14       		.uleb128 0x14
 5196 0e67 A3060000 		.4byte	.LASF473
 5197 0e6b B103     		.sleb128 433
 5198 0e6d 14       		.uleb128 0x14
 5199 0e6e 13140000 		.4byte	.LASF474
ARM GAS  C:\Users\AHMED~1.ELE\AppData\Local\Temp\ccaBET3e.s 			page 137


 5200 0e72 B203     		.sleb128 434
 5201 0e74 14       		.uleb128 0x14
 5202 0e75 DD100000 		.4byte	.LASF475
 5203 0e79 B303     		.sleb128 435
 5204 0e7b 14       		.uleb128 0x14
 5205 0e7c EB190000 		.4byte	.LASF476
 5206 0e80 B403     		.sleb128 436
 5207 0e82 14       		.uleb128 0x14
 5208 0e83 7F060000 		.4byte	.LASF477
 5209 0e87 B503     		.sleb128 437
 5210 0e89 14       		.uleb128 0x14
 5211 0e8a 510D0000 		.4byte	.LASF478
 5212 0e8e B603     		.sleb128 438
 5213 0e90 14       		.uleb128 0x14
 5214 0e91 92150000 		.4byte	.LASF479
 5215 0e95 B703     		.sleb128 439
 5216 0e97 14       		.uleb128 0x14
 5217 0e98 BA0D0000 		.4byte	.LASF480
 5218 0e9c B803     		.sleb128 440
 5219 0e9e 14       		.uleb128 0x14
 5220 0e9f 51010000 		.4byte	.LASF481
 5221 0ea3 B903     		.sleb128 441
 5222 0ea5 14       		.uleb128 0x14
 5223 0ea6 E7220000 		.4byte	.LASF482
 5224 0eaa BA03     		.sleb128 442
 5225 0eac 14       		.uleb128 0x14
 5226 0ead 49250000 		.4byte	.LASF483
 5227 0eb1 BB03     		.sleb128 443
 5228 0eb3 14       		.uleb128 0x14
 5229 0eb4 E3070000 		.4byte	.LASF484
 5230 0eb8 BC03     		.sleb128 444
 5231 0eba 14       		.uleb128 0x14
 5232 0ebb 161D0000 		.4byte	.LASF485
 5233 0ebf BD03     		.sleb128 445
 5234 0ec1 14       		.uleb128 0x14
 5235 0ec2 E3170000 		.4byte	.LASF486
 5236 0ec6 BE03     		.sleb128 446
 5237 0ec8 14       		.uleb128 0x14
 5238 0ec9 96020000 		.4byte	.LASF487
 5239 0ecd BF03     		.sleb128 447
 5240 0ecf 14       		.uleb128 0x14
 5241 0ed0 A00D0000 		.4byte	.LASF488
 5242 0ed4 C003     		.sleb128 448
 5243 0ed6 14       		.uleb128 0x14
 5244 0ed7 A3210000 		.4byte	.LASF489
 5245 0edb C103     		.sleb128 449
 5246 0edd 14       		.uleb128 0x14
 5247 0ede 74270000 		.4byte	.LASF490
 5248 0ee2 C203     		.sleb128 450
 5249 0ee4 14       		.uleb128 0x14
 5250 0ee5 04280000 		.4byte	.LASF491
 5251 0ee9 C303     		.sleb128 451
 5252 0eeb 14       		.uleb128 0x14
 5253 0eec A7030000 		.4byte	.LASF492
 5254 0ef0 C403     		.sleb128 452
 5255 0ef2 14       		.uleb128 0x14
 5256 0ef3 C40B0000 		.4byte	.LASF493
ARM GAS  C:\Users\AHMED~1.ELE\AppData\Local\Temp\ccaBET3e.s 			page 138


 5257 0ef7 C503     		.sleb128 453
 5258 0ef9 14       		.uleb128 0x14
 5259 0efa 35280000 		.4byte	.LASF494
 5260 0efe C603     		.sleb128 454
 5261 0f00 14       		.uleb128 0x14
 5262 0f01 1F130000 		.4byte	.LASF495
 5263 0f05 C703     		.sleb128 455
 5264 0f07 14       		.uleb128 0x14
 5265 0f08 A92B0000 		.4byte	.LASF496
 5266 0f0c C803     		.sleb128 456
 5267 0f0e 14       		.uleb128 0x14
 5268 0f0f E21E0000 		.4byte	.LASF497
 5269 0f13 C903     		.sleb128 457
 5270 0f15 14       		.uleb128 0x14
 5271 0f16 A61A0000 		.4byte	.LASF498
 5272 0f1a CA03     		.sleb128 458
 5273 0f1c 14       		.uleb128 0x14
 5274 0f1d 22200000 		.4byte	.LASF499
 5275 0f21 CB03     		.sleb128 459
 5276 0f23 14       		.uleb128 0x14
 5277 0f24 61150000 		.4byte	.LASF500
 5278 0f28 CC03     		.sleb128 460
 5279 0f2a 14       		.uleb128 0x14
 5280 0f2b E2020000 		.4byte	.LASF501
 5281 0f2f CD03     		.sleb128 461
 5282 0f31 14       		.uleb128 0x14
 5283 0f32 CD260000 		.4byte	.LASF502
 5284 0f36 CE03     		.sleb128 462
 5285 0f38 14       		.uleb128 0x14
 5286 0f39 86010000 		.4byte	.LASF503
 5287 0f3d CF03     		.sleb128 463
 5288 0f3f 14       		.uleb128 0x14
 5289 0f40 B8110000 		.4byte	.LASF504
 5290 0f44 D003     		.sleb128 464
 5291 0f46 14       		.uleb128 0x14
 5292 0f47 AB120000 		.4byte	.LASF505
 5293 0f4b D103     		.sleb128 465
 5294 0f4d 14       		.uleb128 0x14
 5295 0f4e 0F290000 		.4byte	.LASF506
 5296 0f52 D203     		.sleb128 466
 5297 0f54 14       		.uleb128 0x14
 5298 0f55 FA220000 		.4byte	.LASF507
 5299 0f59 D303     		.sleb128 467
 5300 0f5b 14       		.uleb128 0x14
 5301 0f5c 5D210000 		.4byte	.LASF508
 5302 0f60 D403     		.sleb128 468
 5303 0f62 14       		.uleb128 0x14
 5304 0f63 30080000 		.4byte	.LASF509
 5305 0f67 D503     		.sleb128 469
 5306 0f69 14       		.uleb128 0x14
 5307 0f6a 63220000 		.4byte	.LASF510
 5308 0f6e D603     		.sleb128 470
 5309 0f70 14       		.uleb128 0x14
 5310 0f71 BB010000 		.4byte	.LASF511
 5311 0f75 D703     		.sleb128 471
 5312 0f77 14       		.uleb128 0x14
 5313 0f78 8F1E0000 		.4byte	.LASF512
ARM GAS  C:\Users\AHMED~1.ELE\AppData\Local\Temp\ccaBET3e.s 			page 139


 5314 0f7c D803     		.sleb128 472
 5315 0f7e 00       		.byte	0
 5316 0f7f 07       		.uleb128 0x7
 5317 0f80 04       		.byte	0x4
 5318 0f81 850F0000 		.4byte	0xf85
 5319 0f85 15       		.uleb128 0x15
 5320 0f86 16       		.uleb128 0x16
 5321 0f87 02       		.byte	0x2
 5322 0f88 04       		.byte	0x4
 5323 0f89 DD18     		.2byte	0x18dd
 5324 0f8b AF0F0000 		.4byte	0xfaf
 5325 0f8f 14       		.uleb128 0x14
 5326 0f90 EC0F0000 		.4byte	.LASF513
 5327 0f94 00       		.sleb128 0
 5328 0f95 14       		.uleb128 0x14
 5329 0f96 842D0000 		.4byte	.LASF514
 5330 0f9a 01       		.sleb128 1
 5331 0f9b 14       		.uleb128 0x14
 5332 0f9c 812B0000 		.4byte	.LASF515
 5333 0fa0 02       		.sleb128 2
 5334 0fa1 14       		.uleb128 0x14
 5335 0fa2 58030000 		.4byte	.LASF516
 5336 0fa6 03       		.sleb128 3
 5337 0fa7 14       		.uleb128 0x14
 5338 0fa8 D50A0000 		.4byte	.LASF517
 5339 0fac 8002     		.sleb128 256
 5340 0fae 00       		.byte	0
 5341 0faf 17       		.uleb128 0x17
 5342 0fb0 14       		.byte	0x14
 5343 0fb1 05       		.byte	0x5
 5344 0fb2 34       		.byte	0x34
 5345 0fb3 F40F0000 		.4byte	0xff4
 5346 0fb7 18       		.uleb128 0x18
 5347 0fb8 5B200000 		.4byte	.LASF518
 5348 0fbc 05       		.byte	0x5
 5349 0fbd 35       		.byte	0x35
 5350 0fbe A7000000 		.4byte	0xa7
 5351 0fc2 00       		.byte	0
 5352 0fc3 18       		.uleb128 0x18
 5353 0fc4 461C0000 		.4byte	.LASF519
 5354 0fc8 05       		.byte	0x5
 5355 0fc9 36       		.byte	0x36
 5356 0fca A7000000 		.4byte	0xa7
 5357 0fce 04       		.byte	0x4
 5358 0fcf 18       		.uleb128 0x18
 5359 0fd0 8D2C0000 		.4byte	.LASF520
 5360 0fd4 05       		.byte	0x5
 5361 0fd5 37       		.byte	0x37
 5362 0fd6 A7000000 		.4byte	0xa7
 5363 0fda 08       		.byte	0x8
 5364 0fdb 18       		.uleb128 0x18
 5365 0fdc 350B0000 		.4byte	.LASF521
 5366 0fe0 05       		.byte	0x5
 5367 0fe1 38       		.byte	0x38
 5368 0fe2 A7000000 		.4byte	0xa7
 5369 0fe6 0C       		.byte	0xc
 5370 0fe7 18       		.uleb128 0x18
ARM GAS  C:\Users\AHMED~1.ELE\AppData\Local\Temp\ccaBET3e.s 			page 140


 5371 0fe8 DA090000 		.4byte	.LASF522
 5372 0fec 05       		.byte	0x5
 5373 0fed 39       		.byte	0x39
 5374 0fee A7000000 		.4byte	0xa7
 5375 0ff2 10       		.byte	0x10
 5376 0ff3 00       		.byte	0
 5377 0ff4 03       		.uleb128 0x3
 5378 0ff5 AA150000 		.4byte	.LASF523
 5379 0ff9 05       		.byte	0x5
 5380 0ffa 3A       		.byte	0x3a
 5381 0ffb AF0F0000 		.4byte	0xfaf
 5382 0fff 19       		.uleb128 0x19
 5383 1000 9404     		.2byte	0x494
 5384 1002 05       		.byte	0x5
 5385 1003 3F       		.byte	0x3f
 5386 1004 86100000 		.4byte	0x1086
 5387 1008 18       		.uleb128 0x18
 5388 1009 D6000000 		.4byte	.LASF524
 5389 100d 05       		.byte	0x5
 5390 100e 41       		.byte	0x41
 5391 100f 9C000000 		.4byte	0x9c
 5392 1013 00       		.byte	0
 5393 1014 18       		.uleb128 0x18
 5394 1015 6C0C0000 		.4byte	.LASF525
 5395 1019 05       		.byte	0x5
 5396 101a 42       		.byte	0x42
 5397 101b 9C000000 		.4byte	0x9c
 5398 101f 02       		.byte	0x2
 5399 1020 18       		.uleb128 0x18
 5400 1021 88120000 		.4byte	.LASF526
 5401 1025 05       		.byte	0x5
 5402 1026 43       		.byte	0x43
 5403 1027 9C000000 		.4byte	0x9c
 5404 102b 04       		.byte	0x4
 5405 102c 18       		.uleb128 0x18
 5406 102d FF1A0000 		.4byte	.LASF527
 5407 1031 05       		.byte	0x5
 5408 1032 44       		.byte	0x44
 5409 1033 9C000000 		.4byte	0x9c
 5410 1037 06       		.byte	0x6
 5411 1038 18       		.uleb128 0x18
 5412 1039 7D220000 		.4byte	.LASF528
 5413 103d 05       		.byte	0x5
 5414 103e 47       		.byte	0x47
 5415 103f 86100000 		.4byte	0x1086
 5416 1043 08       		.byte	0x8
 5417 1044 1A       		.uleb128 0x1a
 5418 1045 86020000 		.4byte	.LASF529
 5419 1049 05       		.byte	0x5
 5420 104a 4A       		.byte	0x4a
 5421 104b B2020000 		.4byte	0x2b2
 5422 104f 0C02     		.2byte	0x20c
 5423 1051 1A       		.uleb128 0x1a
 5424 1052 AB170000 		.4byte	.LASF530
 5425 1056 05       		.byte	0x5
 5426 1057 4B       		.byte	0x4b
 5427 1058 B2020000 		.4byte	0x2b2
ARM GAS  C:\Users\AHMED~1.ELE\AppData\Local\Temp\ccaBET3e.s 			page 141


 5428 105c 2002     		.2byte	0x220
 5429 105e 1A       		.uleb128 0x1a
 5430 105f D81B0000 		.4byte	.LASF531
 5431 1063 05       		.byte	0x5
 5432 1064 4F       		.byte	0x4f
 5433 1065 1E010000 		.4byte	0x11e
 5434 1069 3402     		.2byte	0x234
 5435 106b 1A       		.uleb128 0x1a
 5436 106c B6190000 		.4byte	.LASF532
 5437 1070 05       		.byte	0x5
 5438 1071 54       		.byte	0x54
 5439 1072 F40F0000 		.4byte	0xff4
 5440 1076 7402     		.2byte	0x274
 5441 1078 1A       		.uleb128 0x1a
 5442 1079 49170000 		.4byte	.LASF533
 5443 107d 05       		.byte	0x5
 5444 107e 57       		.byte	0x57
 5445 107f A6020000 		.4byte	0x2a6
 5446 1083 8802     		.2byte	0x288
 5447 1085 00       		.byte	0
 5448 1086 08       		.uleb128 0x8
 5449 1087 91000000 		.4byte	0x91
 5450 108b 97100000 		.4byte	0x1097
 5451 108f 1B       		.uleb128 0x1b
 5452 1090 76000000 		.4byte	0x76
 5453 1094 0302     		.2byte	0x203
 5454 1096 00       		.byte	0
 5455 1097 03       		.uleb128 0x3
 5456 1098 C3200000 		.4byte	.LASF534
 5457 109c 05       		.byte	0x5
 5458 109d 59       		.byte	0x59
 5459 109e FF0F0000 		.4byte	0xfff
 5460 10a2 1C       		.uleb128 0x1c
 5461 10a3 01       		.byte	0x1
 5462 10a4 06       		.byte	0x6
 5463 10a5 07       		.byte	0x7
 5464 10a6 DB100000 		.4byte	0x10db
 5465 10aa 14       		.uleb128 0x14
 5466 10ab 521D0000 		.4byte	.LASF535
 5467 10af 00       		.sleb128 0
 5468 10b0 14       		.uleb128 0x14
 5469 10b1 062C0000 		.4byte	.LASF536
 5470 10b5 01       		.sleb128 1
 5471 10b6 14       		.uleb128 0x14
 5472 10b7 EE270000 		.4byte	.LASF537
 5473 10bb 02       		.sleb128 2
 5474 10bc 14       		.uleb128 0x14
 5475 10bd B9230000 		.4byte	.LASF538
 5476 10c1 03       		.sleb128 3
 5477 10c2 14       		.uleb128 0x14
 5478 10c3 CB170000 		.4byte	.LASF539
 5479 10c7 04       		.sleb128 4
 5480 10c8 14       		.uleb128 0x14
 5481 10c9 38070000 		.4byte	.LASF540
 5482 10cd 05       		.sleb128 5
 5483 10ce 14       		.uleb128 0x14
 5484 10cf AE0E0000 		.4byte	.LASF541
ARM GAS  C:\Users\AHMED~1.ELE\AppData\Local\Temp\ccaBET3e.s 			page 142


 5485 10d3 06       		.sleb128 6
 5486 10d4 14       		.uleb128 0x14
 5487 10d5 A2100000 		.4byte	.LASF542
 5488 10d9 07       		.sleb128 7
 5489 10da 00       		.byte	0
 5490 10db 03       		.uleb128 0x3
 5491 10dc 87290000 		.4byte	.LASF543
 5492 10e0 06       		.byte	0x6
 5493 10e1 10       		.byte	0x10
 5494 10e2 A2100000 		.4byte	0x10a2
 5495 10e6 1D       		.uleb128 0x1d
 5496 10e7 5001     		.2byte	0x150
 5497 10e9 06       		.byte	0x6
 5498 10ea 12       		.byte	0x12
 5499 10eb 32110000 		.4byte	0x1132
 5500 10ef 1E       		.uleb128 0x1e
 5501 10f0 0D0F0000 		.4byte	.LASF544
 5502 10f4 06       		.byte	0x6
 5503 10f5 13       		.byte	0x13
 5504 10f6 2E010000 		.4byte	0x12e
 5505 10fa 1E       		.uleb128 0x1e
 5506 10fb 841F0000 		.4byte	.LASF545
 5507 10ff 06       		.byte	0x6
 5508 1100 14       		.byte	0x14
 5509 1101 4A020000 		.4byte	0x24a
 5510 1105 1E       		.uleb128 0x1e
 5511 1106 15250000 		.4byte	.LASF546
 5512 110a 06       		.byte	0x6
 5513 110b 15       		.byte	0x15
 5514 110c 3E020000 		.4byte	0x23e
 5515 1110 1E       		.uleb128 0x1e
 5516 1111 162A0000 		.4byte	.LASF547
 5517 1115 06       		.byte	0x6
 5518 1116 16       		.byte	0x16
 5519 1117 32020000 		.4byte	0x232
 5520 111b 1E       		.uleb128 0x1e
 5521 111c FD090000 		.4byte	.LASF548
 5522 1120 06       		.byte	0x6
 5523 1121 17       		.byte	0x17
 5524 1122 26020000 		.4byte	0x226
 5525 1126 1E       		.uleb128 0x1e
 5526 1127 23110000 		.4byte	.LASF549
 5527 112b 06       		.byte	0x6
 5528 112c 18       		.byte	0x18
 5529 112d 1A020000 		.4byte	0x21a
 5530 1131 00       		.byte	0
 5531 1132 03       		.uleb128 0x3
 5532 1133 D3020000 		.4byte	.LASF550
 5533 1137 06       		.byte	0x6
 5534 1138 19       		.byte	0x19
 5535 1139 E6100000 		.4byte	0x10e6
 5536 113d 17       		.uleb128 0x17
 5537 113e 18       		.byte	0x18
 5538 113f 06       		.byte	0x6
 5539 1140 1B       		.byte	0x1b
 5540 1141 9A110000 		.4byte	0x119a
 5541 1145 18       		.uleb128 0x18
ARM GAS  C:\Users\AHMED~1.ELE\AppData\Local\Temp\ccaBET3e.s 			page 143


 5542 1146 A3270000 		.4byte	.LASF551
 5543 114a 06       		.byte	0x6
 5544 114b 1C       		.byte	0x1c
 5545 114c 9C000000 		.4byte	0x9c
 5546 1150 00       		.byte	0
 5547 1151 18       		.uleb128 0x18
 5548 1152 260F0000 		.4byte	.LASF552
 5549 1156 06       		.byte	0x6
 5550 1157 1D       		.byte	0x1d
 5551 1158 9C000000 		.4byte	0x9c
 5552 115c 02       		.byte	0x2
 5553 115d 18       		.uleb128 0x18
 5554 115e 69100000 		.4byte	.LASF553
 5555 1162 06       		.byte	0x6
 5556 1163 1E       		.byte	0x1e
 5557 1164 B7000000 		.4byte	0xb7
 5558 1168 04       		.byte	0x4
 5559 1169 18       		.uleb128 0x18
 5560 116a 00010000 		.4byte	.LASF554
 5561 116e 06       		.byte	0x6
 5562 116f 1F       		.byte	0x1f
 5563 1170 9A110000 		.4byte	0x119a
 5564 1174 08       		.byte	0x8
 5565 1175 18       		.uleb128 0x18
 5566 1176 66240000 		.4byte	.LASF555
 5567 117a 06       		.byte	0x6
 5568 117b 20       		.byte	0x20
 5569 117c AB110000 		.4byte	0x11ab
 5570 1180 0C       		.byte	0xc
 5571 1181 18       		.uleb128 0x18
 5572 1182 750B0000 		.4byte	.LASF556
 5573 1186 06       		.byte	0x6
 5574 1187 21       		.byte	0x21
 5575 1188 C6110000 		.4byte	0x11c6
 5576 118c 10       		.byte	0x10
 5577 118d 18       		.uleb128 0x18
 5578 118e 94040000 		.4byte	.LASF557
 5579 1192 06       		.byte	0x6
 5580 1193 22       		.byte	0x22
 5581 1194 DC110000 		.4byte	0x11dc
 5582 1198 14       		.byte	0x14
 5583 1199 00       		.byte	0
 5584 119a 07       		.uleb128 0x7
 5585 119b 04       		.byte	0x4
 5586 119c 32110000 		.4byte	0x1132
 5587 11a0 1F       		.uleb128 0x1f
 5588 11a1 AB110000 		.4byte	0x11ab
 5589 11a5 20       		.uleb128 0x20
 5590 11a6 9A110000 		.4byte	0x119a
 5591 11aa 00       		.byte	0
 5592 11ab 07       		.uleb128 0x7
 5593 11ac 04       		.byte	0x4
 5594 11ad A0110000 		.4byte	0x11a0
 5595 11b1 1F       		.uleb128 0x1f
 5596 11b2 C6110000 		.4byte	0x11c6
 5597 11b6 20       		.uleb128 0x20
 5598 11b7 9A110000 		.4byte	0x119a
ARM GAS  C:\Users\AHMED~1.ELE\AppData\Local\Temp\ccaBET3e.s 			page 144


 5599 11bb 20       		.uleb128 0x20
 5600 11bc B7000000 		.4byte	0xb7
 5601 11c0 20       		.uleb128 0x20
 5602 11c1 A7000000 		.4byte	0xa7
 5603 11c5 00       		.byte	0
 5604 11c6 07       		.uleb128 0x7
 5605 11c7 04       		.byte	0x4
 5606 11c8 B1110000 		.4byte	0x11b1
 5607 11cc 1F       		.uleb128 0x1f
 5608 11cd DC110000 		.4byte	0x11dc
 5609 11d1 20       		.uleb128 0x20
 5610 11d2 9A110000 		.4byte	0x119a
 5611 11d6 20       		.uleb128 0x20
 5612 11d7 B7000000 		.4byte	0xb7
 5613 11db 00       		.byte	0
 5614 11dc 07       		.uleb128 0x7
 5615 11dd 04       		.byte	0x4
 5616 11de CC110000 		.4byte	0x11cc
 5617 11e2 03       		.uleb128 0x3
 5618 11e3 230C0000 		.4byte	.LASF558
 5619 11e7 06       		.byte	0x6
 5620 11e8 23       		.byte	0x23
 5621 11e9 3D110000 		.4byte	0x113d
 5622 11ed 21       		.uleb128 0x21
 5623 11ee 5D1F0000 		.4byte	.LASF574
 5624 11f2 01       		.byte	0x1
 5625 11f3 7302     		.2byte	0x273
 5626 11f5 25000000 		.4byte	0x25
 5627 11f9 01       		.byte	0x1
 5628 11fa 9B120000 		.4byte	0x129b
 5629 11fe 22       		.uleb128 0x22
 5630 11ff 7C2B0000 		.4byte	.LASF559
 5631 1203 01       		.byte	0x1
 5632 1204 7302     		.2byte	0x273
 5633 1206 9B120000 		.4byte	0x129b
 5634 120a 22       		.uleb128 0x22
 5635 120b 68080000 		.4byte	.LASF560
 5636 120f 01       		.byte	0x1
 5637 1210 7302     		.2byte	0x273
 5638 1212 25000000 		.4byte	0x25
 5639 1216 22       		.uleb128 0x22
 5640 1217 C7210000 		.4byte	.LASF561
 5641 121b 01       		.byte	0x1
 5642 121c 7302     		.2byte	0x273
 5643 121e 25000000 		.4byte	0x25
 5644 1222 22       		.uleb128 0x22
 5645 1223 AA0A0000 		.4byte	.LASF562
 5646 1227 01       		.byte	0x1
 5647 1228 7302     		.2byte	0x273
 5648 122a A1120000 		.4byte	0x12a1
 5649 122e 23       		.uleb128 0x23
 5650 122f 7000     		.ascii	"p\000"
 5651 1231 01       		.byte	0x1
 5652 1232 7502     		.2byte	0x275
 5653 1234 B7000000 		.4byte	0xb7
 5654 1238 23       		.uleb128 0x23
 5655 1239 656E6400 		.ascii	"end\000"
ARM GAS  C:\Users\AHMED~1.ELE\AppData\Local\Temp\ccaBET3e.s 			page 145


 5656 123d 01       		.byte	0x1
 5657 123e 7602     		.2byte	0x276
 5658 1240 B7000000 		.4byte	0xb7
 5659 1244 24       		.uleb128 0x24
 5660 1245 7A240000 		.4byte	.LASF563
 5661 1249 01       		.byte	0x1
 5662 124a 7702     		.2byte	0x277
 5663 124c B7000000 		.4byte	0xb7
 5664 1250 23       		.uleb128 0x23
 5665 1251 6C656E00 		.ascii	"len\000"
 5666 1255 01       		.byte	0x1
 5667 1256 7802     		.2byte	0x278
 5668 1258 25000000 		.4byte	0x25
 5669 125c 23       		.uleb128 0x23
 5670 125d 6F696400 		.ascii	"oid\000"
 5671 1261 01       		.byte	0x1
 5672 1262 7802     		.2byte	0x278
 5673 1264 25000000 		.4byte	0x25
 5674 1268 24       		.uleb128 0x24
 5675 1269 B6040000 		.4byte	.LASF564
 5676 126d 01       		.byte	0x1
 5677 126e 7802     		.2byte	0x278
 5678 1270 25000000 		.4byte	0x25
 5679 1274 24       		.uleb128 0x24
 5680 1275 D1110000 		.4byte	.LASF565
 5681 1279 01       		.byte	0x1
 5682 127a 7B02     		.2byte	0x27b
 5683 127c 25000000 		.4byte	0x25
 5684 1280 24       		.uleb128 0x24
 5685 1281 3F0E0000 		.4byte	.LASF566
 5686 1285 01       		.byte	0x1
 5687 1286 7C02     		.2byte	0x27c
 5688 1288 25000000 		.4byte	0x25
 5689 128c 25       		.uleb128 0x25
 5690 128d 24       		.uleb128 0x24
 5691 128e C5260000 		.4byte	.LASF567
 5692 1292 01       		.byte	0x1
 5693 1293 A703     		.2byte	0x3a7
 5694 1295 A7000000 		.4byte	0xa7
 5695 1299 00       		.byte	0
 5696 129a 00       		.byte	0
 5697 129b 07       		.uleb128 0x7
 5698 129c 04       		.byte	0x4
 5699 129d B7000000 		.4byte	0xb7
 5700 12a1 07       		.uleb128 0x7
 5701 12a2 04       		.byte	0x4
 5702 12a3 97100000 		.4byte	0x1097
 5703 12a7 26       		.uleb128 0x26
 5704 12a8 DB0E0000 		.4byte	.LASF589
 5705 12ac 01       		.byte	0x1
 5706 12ad F104     		.2byte	0x4f1
 5707 12af 01       		.byte	0x1
 5708 12b0 E5120000 		.4byte	0x12e5
 5709 12b4 22       		.uleb128 0x22
 5710 12b5 2E060000 		.4byte	.LASF568
 5711 12b9 01       		.byte	0x1
 5712 12ba F104     		.2byte	0x4f1
ARM GAS  C:\Users\AHMED~1.ELE\AppData\Local\Temp\ccaBET3e.s 			page 146


 5713 12bc 91000000 		.4byte	0x91
 5714 12c0 22       		.uleb128 0x22
 5715 12c1 5E0E0000 		.4byte	.LASF569
 5716 12c5 01       		.byte	0x1
 5717 12c6 F104     		.2byte	0x4f1
 5718 12c8 25000000 		.4byte	0x25
 5719 12cc 22       		.uleb128 0x22
 5720 12cd 56050000 		.4byte	.LASF570
 5721 12d1 01       		.byte	0x1
 5722 12d2 F104     		.2byte	0x4f1
 5723 12d4 B7000000 		.4byte	0xb7
 5724 12d8 22       		.uleb128 0x22
 5725 12d9 DC080000 		.4byte	.LASF571
 5726 12dd 01       		.byte	0x1
 5727 12de F104     		.2byte	0x4f1
 5728 12e0 B7000000 		.4byte	0xb7
 5729 12e4 00       		.byte	0
 5730 12e5 27       		.uleb128 0x27
 5731 12e6 AE070000 		.4byte	.LASF690
 5732 12ea 01       		.byte	0x1
 5733 12eb C907     		.2byte	0x7c9
 5734 12ed 86000000 		.4byte	0x86
 5735 12f1 01       		.byte	0x1
 5736 12f2 0F130000 		.4byte	0x130f
 5737 12f6 22       		.uleb128 0x22
 5738 12f7 55190000 		.4byte	.LASF572
 5739 12fb 01       		.byte	0x1
 5740 12fc C907     		.2byte	0x7c9
 5741 12fe A1120000 		.4byte	0x12a1
 5742 1302 22       		.uleb128 0x22
 5743 1303 FE150000 		.4byte	.LASF573
 5744 1307 01       		.byte	0x1
 5745 1308 C907     		.2byte	0x7c9
 5746 130a 0F130000 		.4byte	0x130f
 5747 130e 00       		.byte	0
 5748 130f 07       		.uleb128 0x7
 5749 1310 04       		.byte	0x4
 5750 1311 A6020000 		.4byte	0x2a6
 5751 1315 21       		.uleb128 0x21
 5752 1316 71210000 		.4byte	.LASF575
 5753 131a 01       		.byte	0x1
 5754 131b 3802     		.2byte	0x238
 5755 131d 25000000 		.4byte	0x25
 5756 1321 01       		.byte	0x1
 5757 1322 6D130000 		.4byte	0x136d
 5758 1326 22       		.uleb128 0x22
 5759 1327 7C2B0000 		.4byte	.LASF559
 5760 132b 01       		.byte	0x1
 5761 132c 3802     		.2byte	0x238
 5762 132e 9B120000 		.4byte	0x129b
 5763 1332 22       		.uleb128 0x22
 5764 1333 771C0000 		.4byte	.LASF576
 5765 1337 01       		.byte	0x1
 5766 1338 3802     		.2byte	0x238
 5767 133a 25000000 		.4byte	0x25
 5768 133e 22       		.uleb128 0x22
 5769 133f C7210000 		.4byte	.LASF561
ARM GAS  C:\Users\AHMED~1.ELE\AppData\Local\Temp\ccaBET3e.s 			page 147


 5770 1343 01       		.byte	0x1
 5771 1344 3802     		.2byte	0x238
 5772 1346 25000000 		.4byte	0x25
 5773 134a 22       		.uleb128 0x22
 5774 134b 79190000 		.4byte	.LASF577
 5775 134f 01       		.byte	0x1
 5776 1350 3802     		.2byte	0x238
 5777 1352 6D130000 		.4byte	0x136d
 5778 1356 23       		.uleb128 0x23
 5779 1357 7000     		.ascii	"p\000"
 5780 1359 01       		.byte	0x1
 5781 135a 3A02     		.2byte	0x23a
 5782 135c B7000000 		.4byte	0xb7
 5783 1360 24       		.uleb128 0x24
 5784 1361 A40A0000 		.4byte	.LASF578
 5785 1365 01       		.byte	0x1
 5786 1366 3B02     		.2byte	0x23b
 5787 1368 25000000 		.4byte	0x25
 5788 136c 00       		.byte	0
 5789 136d 07       		.uleb128 0x7
 5790 136e 04       		.byte	0x4
 5791 136f 25000000 		.4byte	0x25
 5792 1373 21       		.uleb128 0x21
 5793 1374 EA090000 		.4byte	.LASF579
 5794 1378 01       		.byte	0x1
 5795 1379 6605     		.2byte	0x566
 5796 137b 25000000 		.4byte	0x25
 5797 137f 01       		.byte	0x1
 5798 1380 E3130000 		.4byte	0x13e3
 5799 1384 22       		.uleb128 0x22
 5800 1385 7C2B0000 		.4byte	.LASF559
 5801 1389 01       		.byte	0x1
 5802 138a 6605     		.2byte	0x566
 5803 138c 9B120000 		.4byte	0x129b
 5804 1390 22       		.uleb128 0x22
 5805 1391 771C0000 		.4byte	.LASF576
 5806 1395 01       		.byte	0x1
 5807 1396 6605     		.2byte	0x566
 5808 1398 25000000 		.4byte	0x25
 5809 139c 22       		.uleb128 0x22
 5810 139d 150A0000 		.4byte	.LASF580
 5811 13a1 01       		.byte	0x1
 5812 13a2 6605     		.2byte	0x566
 5813 13a4 B7000000 		.4byte	0xb7
 5814 13a8 23       		.uleb128 0x23
 5815 13a9 7000     		.ascii	"p\000"
 5816 13ab 01       		.byte	0x1
 5817 13ac 6805     		.2byte	0x568
 5818 13ae B7000000 		.4byte	0xb7
 5819 13b2 23       		.uleb128 0x23
 5820 13b3 656E6400 		.ascii	"end\000"
 5821 13b7 01       		.byte	0x1
 5822 13b8 6905     		.2byte	0x569
 5823 13ba B7000000 		.4byte	0xb7
 5824 13be 24       		.uleb128 0x24
 5825 13bf 55150000 		.4byte	.LASF581
 5826 13c3 01       		.byte	0x1
ARM GAS  C:\Users\AHMED~1.ELE\AppData\Local\Temp\ccaBET3e.s 			page 148


 5827 13c4 6A05     		.2byte	0x56a
 5828 13c6 25000000 		.4byte	0x25
 5829 13ca 24       		.uleb128 0x24
 5830 13cb A2230000 		.4byte	.LASF582
 5831 13cf 01       		.byte	0x1
 5832 13d0 6A05     		.2byte	0x56a
 5833 13d2 25000000 		.4byte	0x25
 5834 13d6 24       		.uleb128 0x24
 5835 13d7 C00A0000 		.4byte	.LASF583
 5836 13db 01       		.byte	0x1
 5837 13dc 6A05     		.2byte	0x56a
 5838 13de 25000000 		.4byte	0x25
 5839 13e2 00       		.byte	0
 5840 13e3 21       		.uleb128 0x21
 5841 13e4 65270000 		.4byte	.LASF584
 5842 13e8 01       		.byte	0x1
 5843 13e9 B205     		.2byte	0x5b2
 5844 13eb 25000000 		.4byte	0x25
 5845 13ef 01       		.byte	0x1
 5846 13f0 23140000 		.4byte	0x1423
 5847 13f4 22       		.uleb128 0x22
 5848 13f5 B02C0000 		.4byte	.LASF585
 5849 13f9 01       		.byte	0x1
 5850 13fa B205     		.2byte	0x5b2
 5851 13fc B7000000 		.4byte	0xb7
 5852 1400 22       		.uleb128 0x22
 5853 1401 771C0000 		.4byte	.LASF576
 5854 1405 01       		.byte	0x1
 5855 1406 B205     		.2byte	0x5b2
 5856 1408 A7000000 		.4byte	0xa7
 5857 140c 23       		.uleb128 0x23
 5858 140d 6300     		.ascii	"c\000"
 5859 140f 01       		.byte	0x1
 5860 1410 B405     		.2byte	0x5b4
 5861 1412 B7000000 		.4byte	0xb7
 5862 1416 23       		.uleb128 0x23
 5863 1417 656E6400 		.ascii	"end\000"
 5864 141b 01       		.byte	0x1
 5865 141c B405     		.2byte	0x5b4
 5866 141e B7000000 		.4byte	0xb7
 5867 1422 00       		.byte	0
 5868 1423 21       		.uleb128 0x21
 5869 1424 04050000 		.4byte	.LASF586
 5870 1428 01       		.byte	0x1
 5871 1429 CE06     		.2byte	0x6ce
 5872 142b 86000000 		.4byte	0x86
 5873 142f 01       		.byte	0x1
 5874 1430 59140000 		.4byte	0x1459
 5875 1434 28       		.uleb128 0x28
 5876 1435 7000     		.ascii	"p\000"
 5877 1437 01       		.byte	0x1
 5878 1438 CE06     		.2byte	0x6ce
 5879 143a B7000000 		.4byte	0xb7
 5880 143e 22       		.uleb128 0x22
 5881 143f 4D060000 		.4byte	.LASF587
 5882 1443 01       		.byte	0x1
 5883 1444 CE06     		.2byte	0x6ce
ARM GAS  C:\Users\AHMED~1.ELE\AppData\Local\Temp\ccaBET3e.s 			page 149


 5884 1446 25000000 		.4byte	0x25
 5885 144a 25       		.uleb128 0x25
 5886 144b 24       		.uleb128 0x24
 5887 144c 86180000 		.4byte	.LASF588
 5888 1450 01       		.byte	0x1
 5889 1451 DC06     		.2byte	0x6dc
 5890 1453 91000000 		.4byte	0x91
 5891 1457 00       		.byte	0
 5892 1458 00       		.byte	0
 5893 1459 26       		.uleb128 0x26
 5894 145a 83160000 		.4byte	.LASF590
 5895 145e 01       		.byte	0x1
 5896 145f E606     		.2byte	0x6e6
 5897 1461 01       		.byte	0x1
 5898 1462 8B140000 		.4byte	0x148b
 5899 1466 28       		.uleb128 0x28
 5900 1467 7000     		.ascii	"p\000"
 5901 1469 01       		.byte	0x1
 5902 146a E606     		.2byte	0x6e6
 5903 146c B7000000 		.4byte	0xb7
 5904 1470 22       		.uleb128 0x22
 5905 1471 4D060000 		.4byte	.LASF587
 5906 1475 01       		.byte	0x1
 5907 1476 E606     		.2byte	0x6e6
 5908 1478 25000000 		.4byte	0x25
 5909 147c 25       		.uleb128 0x25
 5910 147d 24       		.uleb128 0x24
 5911 147e 86180000 		.4byte	.LASF588
 5912 1482 01       		.byte	0x1
 5913 1483 F306     		.2byte	0x6f3
 5914 1485 91000000 		.4byte	0x91
 5915 1489 00       		.byte	0
 5916 148a 00       		.byte	0
 5917 148b 26       		.uleb128 0x26
 5918 148c AC270000 		.4byte	.LASF591
 5919 1490 01       		.byte	0x1
 5920 1491 0107     		.2byte	0x701
 5921 1493 01       		.byte	0x1
 5922 1494 19150000 		.4byte	0x1519
 5923 1498 22       		.uleb128 0x22
 5924 1499 AC1E0000 		.4byte	.LASF592
 5925 149d 01       		.byte	0x1
 5926 149e 0107     		.2byte	0x701
 5927 14a0 B7000000 		.4byte	0xb7
 5928 14a4 22       		.uleb128 0x22
 5929 14a5 54090000 		.4byte	.LASF593
 5930 14a9 01       		.byte	0x1
 5931 14aa 0207     		.2byte	0x702
 5932 14ac 25000000 		.4byte	0x25
 5933 14b0 22       		.uleb128 0x22
 5934 14b1 372E0000 		.4byte	.LASF594
 5935 14b5 01       		.byte	0x1
 5936 14b6 0307     		.2byte	0x703
 5937 14b8 25000000 		.4byte	0x25
 5938 14bc 22       		.uleb128 0x22
 5939 14bd 1B0A0000 		.4byte	.LASF595
 5940 14c1 01       		.byte	0x1
ARM GAS  C:\Users\AHMED~1.ELE\AppData\Local\Temp\ccaBET3e.s 			page 150


 5941 14c2 0407     		.2byte	0x704
 5942 14c4 B7000000 		.4byte	0xb7
 5943 14c8 22       		.uleb128 0x22
 5944 14c9 B8050000 		.4byte	.LASF596
 5945 14cd 01       		.byte	0x1
 5946 14ce 0507     		.2byte	0x705
 5947 14d0 19150000 		.4byte	0x1519
 5948 14d4 24       		.uleb128 0x24
 5949 14d5 24100000 		.4byte	.LASF597
 5950 14d9 01       		.byte	0x1
 5951 14da 0707     		.2byte	0x707
 5952 14dc BD000000 		.4byte	0xbd
 5953 14e0 24       		.uleb128 0x24
 5954 14e1 ED2A0000 		.4byte	.LASF598
 5955 14e5 01       		.byte	0x1
 5956 14e6 0807     		.2byte	0x708
 5957 14e8 A7000000 		.4byte	0xa7
 5958 14ec 23       		.uleb128 0x23
 5959 14ed 636E7400 		.ascii	"cnt\000"
 5960 14f1 01       		.byte	0x1
 5961 14f2 0807     		.2byte	0x708
 5962 14f4 A7000000 		.4byte	0xa7
 5963 14f8 23       		.uleb128 0x23
 5964 14f9 6400     		.ascii	"d\000"
 5965 14fb 01       		.byte	0x1
 5966 14fc 0907     		.2byte	0x709
 5967 14fe B7000000 		.4byte	0xb7
 5968 1502 24       		.uleb128 0x24
 5969 1503 9D250000 		.4byte	.LASF599
 5970 1507 01       		.byte	0x1
 5971 1508 0A07     		.2byte	0x70a
 5972 150a 25000000 		.4byte	0x25
 5973 150e 23       		.uleb128 0x23
 5974 150f 6900     		.ascii	"i\000"
 5975 1511 01       		.byte	0x1
 5976 1512 0A07     		.2byte	0x70a
 5977 1514 25000000 		.4byte	0x25
 5978 1518 00       		.byte	0
 5979 1519 07       		.uleb128 0x7
 5980 151a 04       		.byte	0x4
 5981 151b E2110000 		.4byte	0x11e2
 5982 151f 29       		.uleb128 0x29
 5983 1520 73260000 		.4byte	.LASF601
 5984 1524 01       		.byte	0x1
 5985 1525 CC       		.byte	0xcc
 5986 1526 A7000000 		.4byte	0xa7
 5987 152a 00000000 		.4byte	.LFB0
 5988 152e 1E000000 		.4byte	.LFE0-.LFB0
 5989 1532 01       		.uleb128 0x1
 5990 1533 9C       		.byte	0x9c
 5991 1534 6F150000 		.4byte	0x156f
 5992 1538 2A       		.uleb128 0x2a
 5993 1539 7000     		.ascii	"p\000"
 5994 153b 01       		.byte	0x1
 5995 153c CC       		.byte	0xcc
 5996 153d B7000000 		.4byte	0xb7
 5997 1541 00000000 		.4byte	.LLST0
ARM GAS  C:\Users\AHMED~1.ELE\AppData\Local\Temp\ccaBET3e.s 			page 151


 5998 1545 2B       		.uleb128 0x2b
 5999 1546 6C656E00 		.ascii	"len\000"
 6000 154a 01       		.byte	0x1
 6001 154b CC       		.byte	0xcc
 6002 154c 25000000 		.4byte	0x25
 6003 1550 01       		.uleb128 0x1
 6004 1551 51       		.byte	0x51
 6005 1552 2C       		.uleb128 0x2c
 6006 1553 D42C0000 		.4byte	.LASF600
 6007 1557 01       		.byte	0x1
 6008 1558 CE       		.byte	0xce
 6009 1559 A7000000 		.4byte	0xa7
 6010 155d 36000000 		.4byte	.LLST1
 6011 1561 2D       		.uleb128 0x2d
 6012 1562 6900     		.ascii	"i\000"
 6013 1564 01       		.byte	0x1
 6014 1565 CF       		.byte	0xcf
 6015 1566 25000000 		.4byte	0x25
 6016 156a 62000000 		.4byte	.LLST2
 6017 156e 00       		.byte	0
 6018 156f 29       		.uleb128 0x29
 6019 1570 85050000 		.4byte	.LASF602
 6020 1574 01       		.byte	0x1
 6021 1575 ED       		.byte	0xed
 6022 1576 25000000 		.4byte	0x25
 6023 157a 00000000 		.4byte	.LFB2
 6024 157e 5A000000 		.4byte	.LFE2-.LFB2
 6025 1582 01       		.uleb128 0x1
 6026 1583 9C       		.byte	0x9c
 6027 1584 EA150000 		.4byte	0x15ea
 6028 1588 2A       		.uleb128 0x2a
 6029 1589 615F7000 		.ascii	"a_p\000"
 6030 158d 01       		.byte	0x1
 6031 158e ED       		.byte	0xed
 6032 158f 9B120000 		.4byte	0x129b
 6033 1593 BD000000 		.4byte	.LLST3
 6034 1597 2E       		.uleb128 0x2e
 6035 1598 BC200000 		.4byte	.LASF603
 6036 159c 01       		.byte	0x1
 6037 159d ED       		.byte	0xed
 6038 159e A7000000 		.4byte	0xa7
 6039 15a2 F7000000 		.4byte	.LLST4
 6040 15a6 2F       		.uleb128 0x2f
 6041 15a7 89150000 		.4byte	.LASF604
 6042 15ab 01       		.byte	0x1
 6043 15ac ED       		.byte	0xed
 6044 15ad 6D130000 		.4byte	0x136d
 6045 15b1 01       		.uleb128 0x1
 6046 15b2 52       		.byte	0x52
 6047 15b3 2D       		.uleb128 0x2d
 6048 15b4 6300     		.ascii	"c\000"
 6049 15b6 01       		.byte	0x1
 6050 15b7 EF       		.byte	0xef
 6051 15b8 B7000000 		.4byte	0xb7
 6052 15bc 18010000 		.4byte	.LLST5
 6053 15c0 30       		.uleb128 0x30
 6054 15c1 656E6400 		.ascii	"end\000"
ARM GAS  C:\Users\AHMED~1.ELE\AppData\Local\Temp\ccaBET3e.s 			page 152


 6055 15c5 01       		.byte	0x1
 6056 15c6 EF       		.byte	0xef
 6057 15c7 B7000000 		.4byte	0xb7
 6058 15cb 2D       		.uleb128 0x2d
 6059 15cc 6C656E00 		.ascii	"len\000"
 6060 15d0 01       		.byte	0x1
 6061 15d1 F0       		.byte	0xf0
 6062 15d2 25000000 		.4byte	0x25
 6063 15d6 64010000 		.4byte	.LLST6
 6064 15da 2C       		.uleb128 0x2c
 6065 15db 670C0000 		.4byte	.LASF605
 6066 15df 01       		.byte	0x1
 6067 15e0 F0       		.byte	0xf0
 6068 15e1 25000000 		.4byte	0x25
 6069 15e5 9A010000 		.4byte	.LLST7
 6070 15e9 00       		.byte	0
 6071 15ea 31       		.uleb128 0x31
 6072 15eb 351C0000 		.4byte	.LASF606
 6073 15ef 01       		.byte	0x1
 6074 15f0 3501     		.2byte	0x135
 6075 15f2 25000000 		.4byte	0x25
 6076 15f6 00000000 		.4byte	.LFB4
 6077 15fa 8A000000 		.4byte	.LFE4-.LFB4
 6078 15fe 01       		.uleb128 0x1
 6079 15ff 9C       		.byte	0x9c
 6080 1600 8C160000 		.4byte	0x168c
 6081 1604 32       		.uleb128 0x32
 6082 1605 7C2B0000 		.4byte	.LASF559
 6083 1609 01       		.byte	0x1
 6084 160a 3501     		.2byte	0x135
 6085 160c 9B120000 		.4byte	0x129b
 6086 1610 AD010000 		.4byte	.LLST8
 6087 1614 32       		.uleb128 0x32
 6088 1615 771C0000 		.4byte	.LASF576
 6089 1619 01       		.byte	0x1
 6090 161a 3501     		.2byte	0x135
 6091 161c 25000000 		.4byte	0x25
 6092 1620 E1010000 		.4byte	.LLST9
 6093 1624 32       		.uleb128 0x32
 6094 1625 79190000 		.4byte	.LASF577
 6095 1629 01       		.byte	0x1
 6096 162a 3501     		.2byte	0x135
 6097 162c 6D130000 		.4byte	0x136d
 6098 1630 26020000 		.4byte	.LLST10
 6099 1634 33       		.uleb128 0x33
 6100 1635 7000     		.ascii	"p\000"
 6101 1637 01       		.byte	0x1
 6102 1638 3701     		.2byte	0x137
 6103 163a B7000000 		.4byte	0xb7
 6104 163e 02       		.uleb128 0x2
 6105 163f 91       		.byte	0x91
 6106 1640 60       		.sleb128 -32
 6107 1641 34       		.uleb128 0x34
 6108 1642 656E6400 		.ascii	"end\000"
 6109 1646 01       		.byte	0x1
 6110 1647 3701     		.2byte	0x137
 6111 1649 B7000000 		.4byte	0xb7
ARM GAS  C:\Users\AHMED~1.ELE\AppData\Local\Temp\ccaBET3e.s 			page 153


 6112 164d 5A020000 		.4byte	.LLST11
 6113 1651 34       		.uleb128 0x34
 6114 1652 756900   		.ascii	"ui\000"
 6115 1655 01       		.byte	0x1
 6116 1656 3801     		.2byte	0x138
 6117 1658 A7000000 		.4byte	0xa7
 6118 165c B4020000 		.4byte	.LLST12
 6119 1660 35       		.uleb128 0x35
 6120 1661 6C2C0000 		.4byte	.LASF607
 6121 1665 01       		.byte	0x1
 6122 1666 3901     		.2byte	0x139
 6123 1668 25000000 		.4byte	0x25
 6124 166c 02       		.uleb128 0x2
 6125 166d 91       		.byte	0x91
 6126 166e 64       		.sleb128 -28
 6127 166f 36       		.uleb128 0x36
 6128 1670 24000000 		.4byte	.LVL29
 6129 1674 6F150000 		.4byte	0x156f
 6130 1678 37       		.uleb128 0x37
 6131 1679 01       		.uleb128 0x1
 6132 167a 52       		.byte	0x52
 6133 167b 02       		.uleb128 0x2
 6134 167c 91       		.byte	0x91
 6135 167d 64       		.sleb128 -28
 6136 167e 37       		.uleb128 0x37
 6137 167f 01       		.uleb128 0x1
 6138 1680 51       		.byte	0x51
 6139 1681 02       		.uleb128 0x2
 6140 1682 74       		.byte	0x74
 6141 1683 7F       		.sleb128 -1
 6142 1684 37       		.uleb128 0x37
 6143 1685 01       		.uleb128 0x1
 6144 1686 50       		.byte	0x50
 6145 1687 02       		.uleb128 0x2
 6146 1688 7D       		.byte	0x7d
 6147 1689 00       		.sleb128 0
 6148 168a 00       		.byte	0
 6149 168b 00       		.byte	0
 6150 168c 31       		.uleb128 0x31
 6151 168d 1E250000 		.4byte	.LASF608
 6152 1691 01       		.byte	0x1
 6153 1692 7B01     		.2byte	0x17b
 6154 1694 25000000 		.4byte	0x25
 6155 1698 00000000 		.4byte	.LFB6
 6156 169c 38000000 		.4byte	.LFE6-.LFB6
 6157 16a0 01       		.uleb128 0x1
 6158 16a1 9C       		.byte	0x9c
 6159 16a2 FA160000 		.4byte	0x16fa
 6160 16a6 32       		.uleb128 0x32
 6161 16a7 7C2B0000 		.4byte	.LASF559
 6162 16ab 01       		.byte	0x1
 6163 16ac 7B01     		.2byte	0x17b
 6164 16ae 9B120000 		.4byte	0x129b
 6165 16b2 EC020000 		.4byte	.LLST13
 6166 16b6 32       		.uleb128 0x32
 6167 16b7 771C0000 		.4byte	.LASF576
 6168 16bb 01       		.byte	0x1
ARM GAS  C:\Users\AHMED~1.ELE\AppData\Local\Temp\ccaBET3e.s 			page 154


 6169 16bc 7B01     		.2byte	0x17b
 6170 16be A7000000 		.4byte	0xa7
 6171 16c2 20030000 		.4byte	.LLST14
 6172 16c6 32       		.uleb128 0x32
 6173 16c7 5B1E0000 		.4byte	.LASF609
 6174 16cb 01       		.byte	0x1
 6175 16cc 7B01     		.2byte	0x17b
 6176 16ce 6D130000 		.4byte	0x136d
 6177 16d2 54030000 		.4byte	.LLST15
 6178 16d6 33       		.uleb128 0x33
 6179 16d7 7000     		.ascii	"p\000"
 6180 16d9 01       		.byte	0x1
 6181 16da 7D01     		.2byte	0x17d
 6182 16dc B7000000 		.4byte	0xb7
 6183 16e0 02       		.uleb128 0x2
 6184 16e1 91       		.byte	0x91
 6185 16e2 6C       		.sleb128 -20
 6186 16e3 36       		.uleb128 0x36
 6187 16e4 22000000 		.4byte	.LVL43
 6188 16e8 6F150000 		.4byte	0x156f
 6189 16ec 37       		.uleb128 0x37
 6190 16ed 01       		.uleb128 0x1
 6191 16ee 51       		.byte	0x51
 6192 16ef 02       		.uleb128 0x2
 6193 16f0 74       		.byte	0x74
 6194 16f1 7F       		.sleb128 -1
 6195 16f2 37       		.uleb128 0x37
 6196 16f3 01       		.uleb128 0x1
 6197 16f4 50       		.byte	0x50
 6198 16f5 02       		.uleb128 0x2
 6199 16f6 91       		.byte	0x91
 6200 16f7 6C       		.sleb128 -20
 6201 16f8 00       		.byte	0
 6202 16f9 00       		.byte	0
 6203 16fa 31       		.uleb128 0x31
 6204 16fb 7E0A0000 		.4byte	.LASF610
 6205 16ff 01       		.byte	0x1
 6206 1700 8E01     		.2byte	0x18e
 6207 1702 25000000 		.4byte	0x25
 6208 1706 00000000 		.4byte	.LFB7
 6209 170a 38000000 		.4byte	.LFE7-.LFB7
 6210 170e 01       		.uleb128 0x1
 6211 170f 9C       		.byte	0x9c
 6212 1710 68170000 		.4byte	0x1768
 6213 1714 32       		.uleb128 0x32
 6214 1715 7C2B0000 		.4byte	.LASF559
 6215 1719 01       		.byte	0x1
 6216 171a 8E01     		.2byte	0x18e
 6217 171c 9B120000 		.4byte	0x129b
 6218 1720 88030000 		.4byte	.LLST16
 6219 1724 32       		.uleb128 0x32
 6220 1725 771C0000 		.4byte	.LASF576
 6221 1729 01       		.byte	0x1
 6222 172a 8E01     		.2byte	0x18e
 6223 172c A7000000 		.4byte	0xa7
 6224 1730 BC030000 		.4byte	.LLST17
 6225 1734 32       		.uleb128 0x32
ARM GAS  C:\Users\AHMED~1.ELE\AppData\Local\Temp\ccaBET3e.s 			page 155


 6226 1735 5B1E0000 		.4byte	.LASF609
 6227 1739 01       		.byte	0x1
 6228 173a 8E01     		.2byte	0x18e
 6229 173c 6D130000 		.4byte	0x136d
 6230 1740 F0030000 		.4byte	.LLST18
 6231 1744 33       		.uleb128 0x33
 6232 1745 7000     		.ascii	"p\000"
 6233 1747 01       		.byte	0x1
 6234 1748 9001     		.2byte	0x190
 6235 174a B7000000 		.4byte	0xb7
 6236 174e 02       		.uleb128 0x2
 6237 174f 91       		.byte	0x91
 6238 1750 6C       		.sleb128 -20
 6239 1751 36       		.uleb128 0x36
 6240 1752 22000000 		.4byte	.LVL49
 6241 1756 6F150000 		.4byte	0x156f
 6242 175a 37       		.uleb128 0x37
 6243 175b 01       		.uleb128 0x1
 6244 175c 51       		.byte	0x51
 6245 175d 02       		.uleb128 0x2
 6246 175e 74       		.byte	0x74
 6247 175f 7F       		.sleb128 -1
 6248 1760 37       		.uleb128 0x37
 6249 1761 01       		.uleb128 0x1
 6250 1762 50       		.byte	0x50
 6251 1763 02       		.uleb128 0x2
 6252 1764 91       		.byte	0x91
 6253 1765 6C       		.sleb128 -20
 6254 1766 00       		.byte	0
 6255 1767 00       		.byte	0
 6256 1768 31       		.uleb128 0x31
 6257 1769 5D110000 		.4byte	.LASF611
 6258 176d 01       		.byte	0x1
 6259 176e 5802     		.2byte	0x258
 6260 1770 25000000 		.4byte	0x25
 6261 1774 00000000 		.4byte	.LFB10
 6262 1778 46000000 		.4byte	.LFE10-.LFB10
 6263 177c 01       		.uleb128 0x1
 6264 177d 9C       		.byte	0x9c
 6265 177e F5170000 		.4byte	0x17f5
 6266 1782 32       		.uleb128 0x32
 6267 1783 7C2B0000 		.4byte	.LASF559
 6268 1787 01       		.byte	0x1
 6269 1788 5802     		.2byte	0x258
 6270 178a 9B120000 		.4byte	0x129b
 6271 178e 24040000 		.4byte	.LLST19
 6272 1792 32       		.uleb128 0x32
 6273 1793 771C0000 		.4byte	.LASF576
 6274 1797 01       		.byte	0x1
 6275 1798 5802     		.2byte	0x258
 6276 179a 25000000 		.4byte	0x25
 6277 179e 58040000 		.4byte	.LLST20
 6278 17a2 32       		.uleb128 0x32
 6279 17a3 0C0A0000 		.4byte	.LASF612
 6280 17a7 01       		.byte	0x1
 6281 17a8 5802     		.2byte	0x258
 6282 17aa 25000000 		.4byte	0x25
ARM GAS  C:\Users\AHMED~1.ELE\AppData\Local\Temp\ccaBET3e.s 			page 156


 6283 17ae 92040000 		.4byte	.LLST21
 6284 17b2 33       		.uleb128 0x33
 6285 17b3 7000     		.ascii	"p\000"
 6286 17b5 01       		.byte	0x1
 6287 17b6 5A02     		.2byte	0x25a
 6288 17b8 B7000000 		.4byte	0xb7
 6289 17bc 02       		.uleb128 0x2
 6290 17bd 91       		.byte	0x91
 6291 17be 70       		.sleb128 -16
 6292 17bf 38       		.uleb128 0x38
 6293 17c0 55150000 		.4byte	.LASF581
 6294 17c4 01       		.byte	0x1
 6295 17c5 5B02     		.2byte	0x25b
 6296 17c7 25000000 		.4byte	0x25
 6297 17cb CC040000 		.4byte	.LLST22
 6298 17cf 35       		.uleb128 0x35
 6299 17d0 02020000 		.4byte	.LASF613
 6300 17d4 01       		.byte	0x1
 6301 17d5 5C02     		.2byte	0x25c
 6302 17d7 25000000 		.4byte	0x25
 6303 17db 02       		.uleb128 0x2
 6304 17dc 91       		.byte	0x91
 6305 17dd 74       		.sleb128 -12
 6306 17de 36       		.uleb128 0x36
 6307 17df 28000000 		.4byte	.LVL55
 6308 17e3 6F150000 		.4byte	0x156f
 6309 17e7 37       		.uleb128 0x37
 6310 17e8 01       		.uleb128 0x1
 6311 17e9 52       		.byte	0x52
 6312 17ea 02       		.uleb128 0x2
 6313 17eb 91       		.byte	0x91
 6314 17ec 74       		.sleb128 -12
 6315 17ed 37       		.uleb128 0x37
 6316 17ee 01       		.uleb128 0x1
 6317 17ef 50       		.byte	0x50
 6318 17f0 02       		.uleb128 0x2
 6319 17f1 91       		.byte	0x91
 6320 17f2 70       		.sleb128 -16
 6321 17f3 00       		.byte	0
 6322 17f4 00       		.byte	0
 6323 17f5 21       		.uleb128 0x21
 6324 17f6 CA280000 		.4byte	.LASF614
 6325 17fa 01       		.byte	0x1
 6326 17fb 0B04     		.2byte	0x40b
 6327 17fd 25000000 		.4byte	0x25
 6328 1801 01       		.byte	0x1
 6329 1802 89180000 		.4byte	0x1889
 6330 1806 22       		.uleb128 0x22
 6331 1807 7C2B0000 		.4byte	.LASF559
 6332 180b 01       		.byte	0x1
 6333 180c 0B04     		.2byte	0x40b
 6334 180e 9B120000 		.4byte	0x129b
 6335 1812 22       		.uleb128 0x22
 6336 1813 771C0000 		.4byte	.LASF576
 6337 1817 01       		.byte	0x1
 6338 1818 0B04     		.2byte	0x40b
 6339 181a 25000000 		.4byte	0x25
ARM GAS  C:\Users\AHMED~1.ELE\AppData\Local\Temp\ccaBET3e.s 			page 157


 6340 181e 22       		.uleb128 0x22
 6341 181f E5130000 		.4byte	.LASF615
 6342 1823 01       		.byte	0x1
 6343 1824 0B04     		.2byte	0x40b
 6344 1826 89180000 		.4byte	0x1889
 6345 182a 23       		.uleb128 0x23
 6346 182b 7000     		.ascii	"p\000"
 6347 182d 01       		.byte	0x1
 6348 182e 1704     		.2byte	0x417
 6349 1830 B7000000 		.4byte	0xb7
 6350 1834 23       		.uleb128 0x23
 6351 1835 705F6500 		.ascii	"p_e\000"
 6352 1839 01       		.byte	0x1
 6353 183a 1704     		.2byte	0x417
 6354 183c B7000000 		.4byte	0xb7
 6355 1840 24       		.uleb128 0x24
 6356 1841 3E2D0000 		.4byte	.LASF616
 6357 1845 01       		.byte	0x1
 6358 1846 1704     		.2byte	0x417
 6359 1848 B7000000 		.4byte	0xb7
 6360 184c 23       		.uleb128 0x23
 6361 184d 656E6400 		.ascii	"end\000"
 6362 1851 01       		.byte	0x1
 6363 1852 1804     		.2byte	0x418
 6364 1854 B7000000 		.4byte	0xb7
 6365 1858 24       		.uleb128 0x24
 6366 1859 25240000 		.4byte	.LASF617
 6367 185d 01       		.byte	0x1
 6368 185e 1904     		.2byte	0x419
 6369 1860 25000000 		.4byte	0x25
 6370 1864 24       		.uleb128 0x24
 6371 1865 A2230000 		.4byte	.LASF582
 6372 1869 01       		.byte	0x1
 6373 186a 1904     		.2byte	0x419
 6374 186c 25000000 		.4byte	0x25
 6375 1870 23       		.uleb128 0x23
 6376 1871 74616700 		.ascii	"tag\000"
 6377 1875 01       		.byte	0x1
 6378 1876 1A04     		.2byte	0x41a
 6379 1878 91000000 		.4byte	0x91
 6380 187c 24       		.uleb128 0x24
 6381 187d 042B0000 		.4byte	.LASF618
 6382 1881 01       		.byte	0x1
 6383 1882 1B04     		.2byte	0x41b
 6384 1884 B2000000 		.4byte	0xb2
 6385 1888 00       		.byte	0
 6386 1889 07       		.uleb128 0x7
 6387 188a 04       		.byte	0x4
 6388 188b F40F0000 		.4byte	0xff4
 6389 188f 31       		.uleb128 0x31
 6390 1890 C41D0000 		.4byte	.LASF619
 6391 1894 01       		.byte	0x1
 6392 1895 9304     		.2byte	0x493
 6393 1897 25000000 		.4byte	0x25
 6394 189b 00000000 		.4byte	.LFB15
 6395 189f 34020000 		.4byte	.LFE15-.LFB15
 6396 18a3 01       		.uleb128 0x1
ARM GAS  C:\Users\AHMED~1.ELE\AppData\Local\Temp\ccaBET3e.s 			page 158


 6397 18a4 9C       		.byte	0x9c
 6398 18a5 3E1B0000 		.4byte	0x1b3e
 6399 18a9 32       		.uleb128 0x32
 6400 18aa 7C2B0000 		.4byte	.LASF559
 6401 18ae 01       		.byte	0x1
 6402 18af 9304     		.2byte	0x493
 6403 18b1 9B120000 		.4byte	0x129b
 6404 18b5 03050000 		.4byte	.LLST23
 6405 18b9 32       		.uleb128 0x32
 6406 18ba 771C0000 		.4byte	.LASF576
 6407 18be 01       		.byte	0x1
 6408 18bf 9304     		.2byte	0x493
 6409 18c1 25000000 		.4byte	0x25
 6410 18c5 45050000 		.4byte	.LLST24
 6411 18c9 32       		.uleb128 0x32
 6412 18ca 1F2A0000 		.4byte	.LASF620
 6413 18ce 01       		.byte	0x1
 6414 18cf 9304     		.2byte	0x493
 6415 18d1 6D130000 		.4byte	0x136d
 6416 18d5 8A050000 		.4byte	.LLST25
 6417 18d9 32       		.uleb128 0x32
 6418 18da 4B2B0000 		.4byte	.LASF621
 6419 18de 01       		.byte	0x1
 6420 18df 9304     		.2byte	0x493
 6421 18e1 89180000 		.4byte	0x1889
 6422 18e5 CF050000 		.4byte	.LLST26
 6423 18e9 32       		.uleb128 0x32
 6424 18ea 04160000 		.4byte	.LASF622
 6425 18ee 01       		.byte	0x1
 6426 18ef 9304     		.2byte	0x493
 6427 18f1 25000000 		.4byte	0x25
 6428 18f5 11060000 		.4byte	.LLST27
 6429 18f9 33       		.uleb128 0x33
 6430 18fa 7000     		.ascii	"p\000"
 6431 18fc 01       		.byte	0x1
 6432 18fd 9504     		.2byte	0x495
 6433 18ff B7000000 		.4byte	0xb7
 6434 1903 02       		.uleb128 0x2
 6435 1904 91       		.byte	0x91
 6436 1905 48       		.sleb128 -56
 6437 1906 34       		.uleb128 0x34
 6438 1907 656E6400 		.ascii	"end\000"
 6439 190b 01       		.byte	0x1
 6440 190c 9604     		.2byte	0x496
 6441 190e B7000000 		.4byte	0xb7
 6442 1912 31060000 		.4byte	.LLST28
 6443 1916 35       		.uleb128 0x35
 6444 1917 25240000 		.4byte	.LASF617
 6445 191b 01       		.byte	0x1
 6446 191c 9704     		.2byte	0x497
 6447 191e 25000000 		.4byte	0x25
 6448 1922 02       		.uleb128 0x2
 6449 1923 91       		.byte	0x91
 6450 1924 4C       		.sleb128 -52
 6451 1925 35       		.uleb128 0x35
 6452 1926 A2230000 		.4byte	.LASF582
 6453 192a 01       		.byte	0x1
ARM GAS  C:\Users\AHMED~1.ELE\AppData\Local\Temp\ccaBET3e.s 			page 159


 6454 192b 9704     		.2byte	0x497
 6455 192d 25000000 		.4byte	0x25
 6456 1931 02       		.uleb128 0x2
 6457 1932 91       		.byte	0x91
 6458 1933 50       		.sleb128 -48
 6459 1934 39       		.uleb128 0x39
 6460 1935 F5170000 		.4byte	0x17f5
 6461 1939 92000000 		.4byte	.LBB8
 6462 193d 80010000 		.4byte	.LBE8-.LBB8
 6463 1941 01       		.byte	0x1
 6464 1942 E604     		.2byte	0x4e6
 6465 1944 F31A0000 		.4byte	0x1af3
 6466 1948 3A       		.uleb128 0x3a
 6467 1949 1E180000 		.4byte	0x181e
 6468 194d 69060000 		.4byte	.LLST29
 6469 1951 3A       		.uleb128 0x3a
 6470 1952 12180000 		.4byte	0x1812
 6471 1956 7C060000 		.4byte	.LLST30
 6472 195a 3A       		.uleb128 0x3a
 6473 195b 06180000 		.4byte	0x1806
 6474 195f A2060000 		.4byte	.LLST31
 6475 1963 3B       		.uleb128 0x3b
 6476 1964 92000000 		.4byte	.LBB9
 6477 1968 80010000 		.4byte	.LBE9-.LBB9
 6478 196c 3C       		.uleb128 0x3c
 6479 196d 2A180000 		.4byte	0x182a
 6480 1971 02       		.uleb128 0x2
 6481 1972 91       		.byte	0x91
 6482 1973 54       		.sleb128 -44
 6483 1974 3D       		.uleb128 0x3d
 6484 1975 34180000 		.4byte	0x1834
 6485 1979 B5060000 		.4byte	.LLST32
 6486 197d 3D       		.uleb128 0x3d
 6487 197e 40180000 		.4byte	0x1840
 6488 1982 C8060000 		.4byte	.LLST33
 6489 1986 3E       		.uleb128 0x3e
 6490 1987 4C180000 		.4byte	0x184c
 6491 198b 3C       		.uleb128 0x3c
 6492 198c 58180000 		.4byte	0x1858
 6493 1990 02       		.uleb128 0x2
 6494 1991 91       		.byte	0x91
 6495 1992 58       		.sleb128 -40
 6496 1993 3C       		.uleb128 0x3c
 6497 1994 64180000 		.4byte	0x1864
 6498 1998 02       		.uleb128 0x2
 6499 1999 91       		.byte	0x91
 6500 199a 5C       		.sleb128 -36
 6501 199b 3D       		.uleb128 0x3d
 6502 199c 70180000 		.4byte	0x1870
 6503 19a0 DB060000 		.4byte	.LLST34
 6504 19a4 3D       		.uleb128 0x3d
 6505 19a5 7C180000 		.4byte	0x187c
 6506 19a9 F9060000 		.4byte	.LLST35
 6507 19ad 3F       		.uleb128 0x3f
 6508 19ae A0000000 		.4byte	.LVL73
 6509 19b2 8C160000 		.4byte	0x168c
 6510 19b6 D3190000 		.4byte	0x19d3
ARM GAS  C:\Users\AHMED~1.ELE\AppData\Local\Temp\ccaBET3e.s 			page 160


 6511 19ba 37       		.uleb128 0x37
 6512 19bb 01       		.uleb128 0x1
 6513 19bc 52       		.byte	0x52
 6514 19bd 02       		.uleb128 0x2
 6515 19be 91       		.byte	0x91
 6516 19bf 5C       		.sleb128 -36
 6517 19c0 37       		.uleb128 0x37
 6518 19c1 01       		.uleb128 0x1
 6519 19c2 51       		.byte	0x51
 6520 19c3 08       		.uleb128 0x8
 6521 19c4 75       		.byte	0x75
 6522 19c5 00       		.sleb128 0
 6523 19c6 76       		.byte	0x76
 6524 19c7 00       		.sleb128 0
 6525 19c8 1C       		.byte	0x1c
 6526 19c9 78       		.byte	0x78
 6527 19ca 00       		.sleb128 0
 6528 19cb 1C       		.byte	0x1c
 6529 19cc 37       		.uleb128 0x37
 6530 19cd 01       		.uleb128 0x1
 6531 19ce 50       		.byte	0x50
 6532 19cf 02       		.uleb128 0x2
 6533 19d0 91       		.byte	0x91
 6534 19d1 54       		.sleb128 -44
 6535 19d2 00       		.byte	0
 6536 19d3 3F       		.uleb128 0x3f
 6537 19d4 F2000000 		.4byte	.LVL78
 6538 19d8 6F150000 		.4byte	0x156f
 6539 19dc ED190000 		.4byte	0x19ed
 6540 19e0 37       		.uleb128 0x37
 6541 19e1 01       		.uleb128 0x1
 6542 19e2 52       		.byte	0x52
 6543 19e3 02       		.uleb128 0x2
 6544 19e4 91       		.byte	0x91
 6545 19e5 58       		.sleb128 -40
 6546 19e6 37       		.uleb128 0x37
 6547 19e7 01       		.uleb128 0x1
 6548 19e8 50       		.byte	0x50
 6549 19e9 02       		.uleb128 0x2
 6550 19ea 91       		.byte	0x91
 6551 19eb 54       		.sleb128 -44
 6552 19ec 00       		.byte	0
 6553 19ed 3F       		.uleb128 0x3f
 6554 19ee 16010000 		.4byte	.LVL80
 6555 19f2 8C160000 		.4byte	0x168c
 6556 19f6 071A0000 		.4byte	0x1a07
 6557 19fa 37       		.uleb128 0x37
 6558 19fb 01       		.uleb128 0x1
 6559 19fc 52       		.byte	0x52
 6560 19fd 02       		.uleb128 0x2
 6561 19fe 91       		.byte	0x91
 6562 19ff 58       		.sleb128 -40
 6563 1a00 37       		.uleb128 0x37
 6564 1a01 01       		.uleb128 0x1
 6565 1a02 50       		.byte	0x50
 6566 1a03 02       		.uleb128 0x2
 6567 1a04 91       		.byte	0x91
ARM GAS  C:\Users\AHMED~1.ELE\AppData\Local\Temp\ccaBET3e.s 			page 161


 6568 1a05 54       		.sleb128 -44
 6569 1a06 00       		.byte	0
 6570 1a07 3F       		.uleb128 0x3f
 6571 1a08 30010000 		.4byte	.LVL81
 6572 1a0c FA160000 		.4byte	0x16fa
 6573 1a10 211A0000 		.4byte	0x1a21
 6574 1a14 37       		.uleb128 0x37
 6575 1a15 01       		.uleb128 0x1
 6576 1a16 52       		.byte	0x52
 6577 1a17 02       		.uleb128 0x2
 6578 1a18 91       		.byte	0x91
 6579 1a19 58       		.sleb128 -40
 6580 1a1a 37       		.uleb128 0x37
 6581 1a1b 01       		.uleb128 0x1
 6582 1a1c 50       		.byte	0x50
 6583 1a1d 02       		.uleb128 0x2
 6584 1a1e 91       		.byte	0x91
 6585 1a1f 54       		.sleb128 -44
 6586 1a20 00       		.byte	0
 6587 1a21 40       		.uleb128 0x40
 6588 1a22 3E010000 		.4byte	.LVL82
 6589 1a26 1F150000 		.4byte	0x151f
 6590 1a2a 3F       		.uleb128 0x3f
 6591 1a2b 50010000 		.4byte	.LVL83
 6592 1a2f 8C160000 		.4byte	0x168c
 6593 1a33 441A0000 		.4byte	0x1a44
 6594 1a37 37       		.uleb128 0x37
 6595 1a38 01       		.uleb128 0x1
 6596 1a39 52       		.byte	0x52
 6597 1a3a 02       		.uleb128 0x2
 6598 1a3b 91       		.byte	0x91
 6599 1a3c 58       		.sleb128 -40
 6600 1a3d 37       		.uleb128 0x37
 6601 1a3e 01       		.uleb128 0x1
 6602 1a3f 50       		.byte	0x50
 6603 1a40 02       		.uleb128 0x2
 6604 1a41 91       		.byte	0x91
 6605 1a42 54       		.sleb128 -44
 6606 1a43 00       		.byte	0
 6607 1a44 3F       		.uleb128 0x3f
 6608 1a45 6A010000 		.4byte	.LVL84
 6609 1a49 FA160000 		.4byte	0x16fa
 6610 1a4d 5E1A0000 		.4byte	0x1a5e
 6611 1a51 37       		.uleb128 0x37
 6612 1a52 01       		.uleb128 0x1
 6613 1a53 52       		.byte	0x52
 6614 1a54 02       		.uleb128 0x2
 6615 1a55 91       		.byte	0x91
 6616 1a56 58       		.sleb128 -40
 6617 1a57 37       		.uleb128 0x37
 6618 1a58 01       		.uleb128 0x1
 6619 1a59 50       		.byte	0x50
 6620 1a5a 02       		.uleb128 0x2
 6621 1a5b 91       		.byte	0x91
 6622 1a5c 54       		.sleb128 -44
 6623 1a5d 00       		.byte	0
 6624 1a5e 3F       		.uleb128 0x3f
ARM GAS  C:\Users\AHMED~1.ELE\AppData\Local\Temp\ccaBET3e.s 			page 162


 6625 1a5f 7E010000 		.4byte	.LVL86
 6626 1a63 1F150000 		.4byte	0x151f
 6627 1a67 781A0000 		.4byte	0x1a78
 6628 1a6b 37       		.uleb128 0x37
 6629 1a6c 01       		.uleb128 0x1
 6630 1a6d 51       		.byte	0x51
 6631 1a6e 02       		.uleb128 0x2
 6632 1a6f 75       		.byte	0x75
 6633 1a70 00       		.sleb128 0
 6634 1a71 37       		.uleb128 0x37
 6635 1a72 01       		.uleb128 0x1
 6636 1a73 50       		.byte	0x50
 6637 1a74 02       		.uleb128 0x2
 6638 1a75 79       		.byte	0x79
 6639 1a76 00       		.sleb128 0
 6640 1a77 00       		.byte	0
 6641 1a78 3F       		.uleb128 0x3f
 6642 1a79 98010000 		.4byte	.LVL87
 6643 1a7d 8C160000 		.4byte	0x168c
 6644 1a81 9E1A0000 		.4byte	0x1a9e
 6645 1a85 37       		.uleb128 0x37
 6646 1a86 01       		.uleb128 0x1
 6647 1a87 52       		.byte	0x52
 6648 1a88 02       		.uleb128 0x2
 6649 1a89 91       		.byte	0x91
 6650 1a8a 58       		.sleb128 -40
 6651 1a8b 37       		.uleb128 0x37
 6652 1a8c 01       		.uleb128 0x1
 6653 1a8d 51       		.byte	0x51
 6654 1a8e 08       		.uleb128 0x8
 6655 1a8f 78       		.byte	0x78
 6656 1a90 00       		.sleb128 0
 6657 1a91 79       		.byte	0x79
 6658 1a92 00       		.sleb128 0
 6659 1a93 1C       		.byte	0x1c
 6660 1a94 75       		.byte	0x75
 6661 1a95 00       		.sleb128 0
 6662 1a96 1C       		.byte	0x1c
 6663 1a97 37       		.uleb128 0x37
 6664 1a98 01       		.uleb128 0x1
 6665 1a99 50       		.byte	0x50
 6666 1a9a 02       		.uleb128 0x2
 6667 1a9b 91       		.byte	0x91
 6668 1a9c 54       		.sleb128 -44
 6669 1a9d 00       		.byte	0
 6670 1a9e 3F       		.uleb128 0x3f
 6671 1a9f B2010000 		.4byte	.LVL88
 6672 1aa3 FA160000 		.4byte	0x16fa
 6673 1aa7 B81A0000 		.4byte	0x1ab8
 6674 1aab 37       		.uleb128 0x37
 6675 1aac 01       		.uleb128 0x1
 6676 1aad 52       		.byte	0x52
 6677 1aae 02       		.uleb128 0x2
 6678 1aaf 91       		.byte	0x91
 6679 1ab0 58       		.sleb128 -40
 6680 1ab1 37       		.uleb128 0x37
 6681 1ab2 01       		.uleb128 0x1
ARM GAS  C:\Users\AHMED~1.ELE\AppData\Local\Temp\ccaBET3e.s 			page 163


 6682 1ab3 50       		.byte	0x50
 6683 1ab4 02       		.uleb128 0x2
 6684 1ab5 91       		.byte	0x91
 6685 1ab6 54       		.sleb128 -44
 6686 1ab7 00       		.byte	0
 6687 1ab8 40       		.uleb128 0x40
 6688 1ab9 C0010000 		.4byte	.LVL89
 6689 1abd 1F150000 		.4byte	0x151f
 6690 1ac1 3F       		.uleb128 0x3f
 6691 1ac2 D2010000 		.4byte	.LVL91
 6692 1ac6 EA150000 		.4byte	0x15ea
 6693 1aca DB1A0000 		.4byte	0x1adb
 6694 1ace 37       		.uleb128 0x37
 6695 1acf 01       		.uleb128 0x1
 6696 1ad0 52       		.byte	0x52
 6697 1ad1 02       		.uleb128 0x2
 6698 1ad2 91       		.byte	0x91
 6699 1ad3 58       		.sleb128 -40
 6700 1ad4 37       		.uleb128 0x37
 6701 1ad5 01       		.uleb128 0x1
 6702 1ad6 50       		.byte	0x50
 6703 1ad7 02       		.uleb128 0x2
 6704 1ad8 91       		.byte	0x91
 6705 1ad9 54       		.sleb128 -44
 6706 1ada 00       		.byte	0
 6707 1adb 36       		.uleb128 0x36
 6708 1adc EC010000 		.4byte	.LVL92
 6709 1ae0 EA150000 		.4byte	0x15ea
 6710 1ae4 37       		.uleb128 0x37
 6711 1ae5 01       		.uleb128 0x1
 6712 1ae6 52       		.byte	0x52
 6713 1ae7 02       		.uleb128 0x2
 6714 1ae8 91       		.byte	0x91
 6715 1ae9 58       		.sleb128 -40
 6716 1aea 37       		.uleb128 0x37
 6717 1aeb 01       		.uleb128 0x1
 6718 1aec 50       		.byte	0x50
 6719 1aed 02       		.uleb128 0x2
 6720 1aee 91       		.byte	0x91
 6721 1aef 54       		.sleb128 -44
 6722 1af0 00       		.byte	0
 6723 1af1 00       		.byte	0
 6724 1af2 00       		.byte	0
 6725 1af3 3F       		.uleb128 0x3f
 6726 1af4 20000000 		.4byte	.LVL66
 6727 1af8 8C160000 		.4byte	0x168c
 6728 1afc 0D1B0000 		.4byte	0x1b0d
 6729 1b00 37       		.uleb128 0x37
 6730 1b01 01       		.uleb128 0x1
 6731 1b02 52       		.byte	0x52
 6732 1b03 02       		.uleb128 0x2
 6733 1b04 91       		.byte	0x91
 6734 1b05 50       		.sleb128 -48
 6735 1b06 37       		.uleb128 0x37
 6736 1b07 01       		.uleb128 0x1
 6737 1b08 50       		.byte	0x50
 6738 1b09 02       		.uleb128 0x2
ARM GAS  C:\Users\AHMED~1.ELE\AppData\Local\Temp\ccaBET3e.s 			page 164


 6739 1b0a 7D       		.byte	0x7d
 6740 1b0b 00       		.sleb128 0
 6741 1b0c 00       		.byte	0
 6742 1b0d 3F       		.uleb128 0x3f
 6743 1b0e 42000000 		.4byte	.LVL68
 6744 1b12 6F150000 		.4byte	0x156f
 6745 1b16 271B0000 		.4byte	0x1b27
 6746 1b1a 37       		.uleb128 0x37
 6747 1b1b 01       		.uleb128 0x1
 6748 1b1c 52       		.byte	0x52
 6749 1b1d 02       		.uleb128 0x2
 6750 1b1e 91       		.byte	0x91
 6751 1b1f 4C       		.sleb128 -52
 6752 1b20 37       		.uleb128 0x37
 6753 1b21 01       		.uleb128 0x1
 6754 1b22 50       		.byte	0x50
 6755 1b23 02       		.uleb128 0x2
 6756 1b24 7D       		.byte	0x7d
 6757 1b25 00       		.sleb128 0
 6758 1b26 00       		.byte	0
 6759 1b27 36       		.uleb128 0x36
 6760 1b28 70000000 		.4byte	.LVL70
 6761 1b2c 1F150000 		.4byte	0x151f
 6762 1b30 37       		.uleb128 0x37
 6763 1b31 01       		.uleb128 0x1
 6764 1b32 51       		.byte	0x51
 6765 1b33 02       		.uleb128 0x2
 6766 1b34 78       		.byte	0x78
 6767 1b35 00       		.sleb128 0
 6768 1b36 37       		.uleb128 0x37
 6769 1b37 01       		.uleb128 0x1
 6770 1b38 50       		.byte	0x50
 6771 1b39 02       		.uleb128 0x2
 6772 1b3a 76       		.byte	0x76
 6773 1b3b 00       		.sleb128 0
 6774 1b3c 00       		.byte	0
 6775 1b3d 00       		.byte	0
 6776 1b3e 31       		.uleb128 0x31
 6777 1b3f E11B0000 		.4byte	.LASF623
 6778 1b43 01       		.byte	0x1
 6779 1b44 4305     		.2byte	0x543
 6780 1b46 25000000 		.4byte	0x25
 6781 1b4a 00000000 		.4byte	.LFB18
 6782 1b4e 5C000000 		.4byte	.LFE18-.LFB18
 6783 1b52 01       		.uleb128 0x1
 6784 1b53 9C       		.byte	0x9c
 6785 1b54 F51B0000 		.4byte	0x1bf5
 6786 1b58 32       		.uleb128 0x32
 6787 1b59 7C2B0000 		.4byte	.LASF559
 6788 1b5d 01       		.byte	0x1
 6789 1b5e 4305     		.2byte	0x543
 6790 1b60 9B120000 		.4byte	0x129b
 6791 1b64 0E070000 		.4byte	.LLST36
 6792 1b68 32       		.uleb128 0x32
 6793 1b69 771C0000 		.4byte	.LASF576
 6794 1b6d 01       		.byte	0x1
 6795 1b6e 4305     		.2byte	0x543
ARM GAS  C:\Users\AHMED~1.ELE\AppData\Local\Temp\ccaBET3e.s 			page 165


 6796 1b70 25000000 		.4byte	0x25
 6797 1b74 42070000 		.4byte	.LLST37
 6798 1b78 32       		.uleb128 0x32
 6799 1b79 81240000 		.4byte	.LASF624
 6800 1b7d 01       		.byte	0x1
 6801 1b7e 4305     		.2byte	0x543
 6802 1b80 B7000000 		.4byte	0xb7
 6803 1b84 89070000 		.4byte	.LLST38
 6804 1b88 32       		.uleb128 0x32
 6805 1b89 8B040000 		.4byte	.LASF625
 6806 1b8d 01       		.byte	0x1
 6807 1b8e 4305     		.2byte	0x543
 6808 1b90 F51B0000 		.4byte	0x1bf5
 6809 1b94 BD070000 		.4byte	.LLST39
 6810 1b98 34       		.uleb128 0x34
 6811 1b99 7000     		.ascii	"p\000"
 6812 1b9b 01       		.byte	0x1
 6813 1b9c 4505     		.2byte	0x545
 6814 1b9e B7000000 		.4byte	0xb7
 6815 1ba2 E9070000 		.4byte	.LLST40
 6816 1ba6 35       		.uleb128 0x35
 6817 1ba7 6C2C0000 		.4byte	.LASF607
 6818 1bab 01       		.byte	0x1
 6819 1bac 4605     		.2byte	0x546
 6820 1bae 25000000 		.4byte	0x25
 6821 1bb2 02       		.uleb128 0x2
 6822 1bb3 91       		.byte	0x91
 6823 1bb4 64       		.sleb128 -28
 6824 1bb5 3F       		.uleb128 0x3f
 6825 1bb6 26000000 		.4byte	.LVL105
 6826 1bba 6F150000 		.4byte	0x156f
 6827 1bbe D81B0000 		.4byte	0x1bd8
 6828 1bc2 37       		.uleb128 0x37
 6829 1bc3 01       		.uleb128 0x1
 6830 1bc4 52       		.byte	0x52
 6831 1bc5 02       		.uleb128 0x2
 6832 1bc6 91       		.byte	0x91
 6833 1bc7 64       		.sleb128 -28
 6834 1bc8 37       		.uleb128 0x37
 6835 1bc9 01       		.uleb128 0x1
 6836 1bca 51       		.byte	0x51
 6837 1bcb 05       		.uleb128 0x5
 6838 1bcc F3       		.byte	0xf3
 6839 1bcd 01       		.uleb128 0x1
 6840 1bce 51       		.byte	0x51
 6841 1bcf 31       		.byte	0x31
 6842 1bd0 1C       		.byte	0x1c
 6843 1bd1 37       		.uleb128 0x37
 6844 1bd2 01       		.uleb128 0x1
 6845 1bd3 50       		.byte	0x50
 6846 1bd4 02       		.uleb128 0x2
 6847 1bd5 7D       		.byte	0x7d
 6848 1bd6 00       		.sleb128 0
 6849 1bd7 00       		.byte	0
 6850 1bd8 36       		.uleb128 0x36
 6851 1bd9 50000000 		.4byte	.LVL107
 6852 1bdd 63310000 		.4byte	0x3163
ARM GAS  C:\Users\AHMED~1.ELE\AppData\Local\Temp\ccaBET3e.s 			page 166


 6853 1be1 37       		.uleb128 0x37
 6854 1be2 01       		.uleb128 0x1
 6855 1be3 52       		.byte	0x52
 6856 1be4 02       		.uleb128 0x2
 6857 1be5 74       		.byte	0x74
 6858 1be6 00       		.sleb128 0
 6859 1be7 37       		.uleb128 0x37
 6860 1be8 01       		.uleb128 0x1
 6861 1be9 51       		.byte	0x51
 6862 1bea 02       		.uleb128 0x2
 6863 1beb 76       		.byte	0x76
 6864 1bec 00       		.sleb128 0
 6865 1bed 37       		.uleb128 0x37
 6866 1bee 01       		.uleb128 0x1
 6867 1bef 50       		.byte	0x50
 6868 1bf0 02       		.uleb128 0x2
 6869 1bf1 77       		.byte	0x77
 6870 1bf2 00       		.sleb128 0
 6871 1bf3 00       		.byte	0
 6872 1bf4 00       		.byte	0
 6873 1bf5 07       		.uleb128 0x7
 6874 1bf6 04       		.byte	0x4
 6875 1bf7 A7000000 		.4byte	0xa7
 6876 1bfb 21       		.uleb128 0x21
 6877 1bfc D7290000 		.4byte	.LASF626
 6878 1c00 01       		.byte	0x1
 6879 1c01 6801     		.2byte	0x168
 6880 1c03 25000000 		.4byte	0x25
 6881 1c07 01       		.byte	0x1
 6882 1c08 3B1C0000 		.4byte	0x1c3b
 6883 1c0c 22       		.uleb128 0x22
 6884 1c0d 7C2B0000 		.4byte	.LASF559
 6885 1c11 01       		.byte	0x1
 6886 1c12 6801     		.2byte	0x168
 6887 1c14 9B120000 		.4byte	0x129b
 6888 1c18 22       		.uleb128 0x22
 6889 1c19 771C0000 		.4byte	.LASF576
 6890 1c1d 01       		.byte	0x1
 6891 1c1e 6801     		.2byte	0x168
 6892 1c20 25000000 		.4byte	0x25
 6893 1c24 22       		.uleb128 0x22
 6894 1c25 50070000 		.4byte	.LASF627
 6895 1c29 01       		.byte	0x1
 6896 1c2a 6801     		.2byte	0x168
 6897 1c2c 6D130000 		.4byte	0x136d
 6898 1c30 23       		.uleb128 0x23
 6899 1c31 7000     		.ascii	"p\000"
 6900 1c33 01       		.byte	0x1
 6901 1c34 6A01     		.2byte	0x16a
 6902 1c36 B7000000 		.4byte	0xb7
 6903 1c3a 00       		.byte	0
 6904 1c3b 31       		.uleb128 0x31
 6905 1c3c F7170000 		.4byte	.LASF628
 6906 1c40 01       		.byte	0x1
 6907 1c41 9C01     		.2byte	0x19c
 6908 1c43 25000000 		.4byte	0x25
 6909 1c47 00000000 		.4byte	.LFB8
ARM GAS  C:\Users\AHMED~1.ELE\AppData\Local\Temp\ccaBET3e.s 			page 167


 6910 1c4b 4A010000 		.4byte	.LFE8-.LFB8
 6911 1c4f 01       		.uleb128 0x1
 6912 1c50 9C       		.byte	0x9c
 6913 1c51 501E0000 		.4byte	0x1e50
 6914 1c55 32       		.uleb128 0x32
 6915 1c56 7C2B0000 		.4byte	.LASF559
 6916 1c5a 01       		.byte	0x1
 6917 1c5b 9C01     		.2byte	0x19c
 6918 1c5d 9B120000 		.4byte	0x129b
 6919 1c61 0C080000 		.4byte	.LLST41
 6920 1c65 32       		.uleb128 0x32
 6921 1c66 771C0000 		.4byte	.LASF576
 6922 1c6a 01       		.byte	0x1
 6923 1c6b 9C01     		.2byte	0x19c
 6924 1c6d 25000000 		.4byte	0x25
 6925 1c71 2A080000 		.4byte	.LLST42
 6926 1c75 32       		.uleb128 0x32
 6927 1c76 D4100000 		.4byte	.LASF629
 6928 1c7a 01       		.byte	0x1
 6929 1c7b 9C01     		.2byte	0x19c
 6930 1c7d B7000000 		.4byte	0xb7
 6931 1c81 4B080000 		.4byte	.LLST43
 6932 1c85 33       		.uleb128 0x33
 6933 1c86 7000     		.ascii	"p\000"
 6934 1c88 01       		.byte	0x1
 6935 1c89 9F01     		.2byte	0x19f
 6936 1c8b B7000000 		.4byte	0xb7
 6937 1c8f 03       		.uleb128 0x3
 6938 1c90 91       		.byte	0x91
 6939 1c91 847D     		.sleb128 -380
 6940 1c93 38       		.uleb128 0x38
 6941 1c94 6F0B0000 		.4byte	.LASF630
 6942 1c98 01       		.byte	0x1
 6943 1c99 A001     		.2byte	0x1a0
 6944 1c9b B7000000 		.4byte	0xb7
 6945 1c9f 90080000 		.4byte	.LLST44
 6946 1ca3 35       		.uleb128 0x35
 6947 1ca4 A2230000 		.4byte	.LASF582
 6948 1ca8 01       		.byte	0x1
 6949 1ca9 A101     		.2byte	0x1a1
 6950 1cab 25000000 		.4byte	0x25
 6951 1caf 03       		.uleb128 0x3
 6952 1cb0 91       		.byte	0x91
 6953 1cb1 887D     		.sleb128 -376
 6954 1cb3 35       		.uleb128 0x35
 6955 1cb4 470A0000 		.4byte	.LASF631
 6956 1cb8 01       		.byte	0x1
 6957 1cb9 A101     		.2byte	0x1a1
 6958 1cbb 25000000 		.4byte	0x25
 6959 1cbf 03       		.uleb128 0x3
 6960 1cc0 91       		.byte	0x91
 6961 1cc1 8C7D     		.sleb128 -372
 6962 1cc3 35       		.uleb128 0x35
 6963 1cc4 25240000 		.4byte	.LASF617
 6964 1cc8 01       		.byte	0x1
 6965 1cc9 A101     		.2byte	0x1a1
 6966 1ccb 25000000 		.4byte	0x25
ARM GAS  C:\Users\AHMED~1.ELE\AppData\Local\Temp\ccaBET3e.s 			page 168


 6967 1ccf 03       		.uleb128 0x3
 6968 1cd0 91       		.byte	0x91
 6969 1cd1 907D     		.sleb128 -368
 6970 1cd3 34       		.uleb128 0x34
 6971 1cd4 696400   		.ascii	"id\000"
 6972 1cd7 01       		.byte	0x1
 6973 1cd8 A101     		.2byte	0x1a1
 6974 1cda 25000000 		.4byte	0x25
 6975 1cde A3080000 		.4byte	.LLST45
 6976 1ce2 38       		.uleb128 0x38
 6977 1ce3 7B180000 		.4byte	.LASF632
 6978 1ce7 01       		.byte	0x1
 6979 1ce8 A101     		.2byte	0x1a1
 6980 1cea 25000000 		.4byte	0x25
 6981 1cee B6080000 		.4byte	.LLST46
 6982 1cf2 35       		.uleb128 0x35
 6983 1cf3 76060000 		.4byte	.LASF633
 6984 1cf7 01       		.byte	0x1
 6985 1cf8 A201     		.2byte	0x1a2
 6986 1cfa 4A020000 		.4byte	0x24a
 6987 1cfe 03       		.uleb128 0x3
 6988 1cff 91       		.byte	0x91
 6989 1d00 987D     		.sleb128 -360
 6990 1d02 41       		.uleb128 0x41
 6991 1d03 FB1B0000 		.4byte	0x1bfb
 6992 1d07 4A000000 		.4byte	.LBB12
 6993 1d0b 00000000 		.4byte	.Ldebug_ranges0+0
 6994 1d0f 01       		.byte	0x1
 6995 1d10 B401     		.2byte	0x1b4
 6996 1d12 5F1D0000 		.4byte	0x1d5f
 6997 1d16 3A       		.uleb128 0x3a
 6998 1d17 241C0000 		.4byte	0x1c24
 6999 1d1b CE080000 		.4byte	.LLST47
 7000 1d1f 3A       		.uleb128 0x3a
 7001 1d20 181C0000 		.4byte	0x1c18
 7002 1d24 0B090000 		.4byte	.LLST48
 7003 1d28 3A       		.uleb128 0x3a
 7004 1d29 0C1C0000 		.4byte	0x1c0c
 7005 1d2d 29090000 		.4byte	.LLST49
 7006 1d31 42       		.uleb128 0x42
 7007 1d32 00000000 		.4byte	.Ldebug_ranges0+0
 7008 1d36 3C       		.uleb128 0x3c
 7009 1d37 301C0000 		.4byte	0x1c30
 7010 1d3b 03       		.uleb128 0x3
 7011 1d3c 91       		.byte	0x91
 7012 1d3d 947D     		.sleb128 -364
 7013 1d3f 36       		.uleb128 0x36
 7014 1d40 62000000 		.4byte	.LVL123
 7015 1d44 6F150000 		.4byte	0x156f
 7016 1d48 37       		.uleb128 0x37
 7017 1d49 01       		.uleb128 0x1
 7018 1d4a 52       		.byte	0x52
 7019 1d4b 03       		.uleb128 0x3
 7020 1d4c 91       		.byte	0x91
 7021 1d4d 8C7D     		.sleb128 -372
 7022 1d4f 37       		.uleb128 0x37
 7023 1d50 01       		.uleb128 0x1
ARM GAS  C:\Users\AHMED~1.ELE\AppData\Local\Temp\ccaBET3e.s 			page 169


 7024 1d51 51       		.byte	0x51
 7025 1d52 02       		.uleb128 0x2
 7026 1d53 75       		.byte	0x75
 7027 1d54 7F       		.sleb128 -1
 7028 1d55 37       		.uleb128 0x37
 7029 1d56 01       		.uleb128 0x1
 7030 1d57 50       		.byte	0x50
 7031 1d58 03       		.uleb128 0x3
 7032 1d59 91       		.byte	0x91
 7033 1d5a 947D     		.sleb128 -364
 7034 1d5c 00       		.byte	0
 7035 1d5d 00       		.byte	0
 7036 1d5e 00       		.byte	0
 7037 1d5f 3F       		.uleb128 0x3f
 7038 1d60 14000000 		.4byte	.LVL113
 7039 1d64 8C160000 		.4byte	0x168c
 7040 1d68 821D0000 		.4byte	0x1d82
 7041 1d6c 37       		.uleb128 0x37
 7042 1d6d 01       		.uleb128 0x1
 7043 1d6e 52       		.byte	0x52
 7044 1d6f 03       		.uleb128 0x3
 7045 1d70 91       		.byte	0x91
 7046 1d71 887D     		.sleb128 -376
 7047 1d73 37       		.uleb128 0x37
 7048 1d74 01       		.uleb128 0x1
 7049 1d75 51       		.byte	0x51
 7050 1d76 03       		.uleb128 0x3
 7051 1d77 F3       		.byte	0xf3
 7052 1d78 01       		.uleb128 0x1
 7053 1d79 51       		.byte	0x51
 7054 1d7a 37       		.uleb128 0x37
 7055 1d7b 01       		.uleb128 0x1
 7056 1d7c 50       		.byte	0x50
 7057 1d7d 03       		.uleb128 0x3
 7058 1d7e 91       		.byte	0x91
 7059 1d7f 847D     		.sleb128 -380
 7060 1d81 00       		.byte	0
 7061 1d82 3F       		.uleb128 0x3f
 7062 1d83 30000000 		.4byte	.LVL117
 7063 1d87 80310000 		.4byte	0x3180
 7064 1d8b A71D0000 		.4byte	0x1da7
 7065 1d8f 37       		.uleb128 0x37
 7066 1d90 01       		.uleb128 0x1
 7067 1d91 53       		.byte	0x53
 7068 1d92 01       		.uleb128 0x1
 7069 1d93 30       		.byte	0x30
 7070 1d94 37       		.uleb128 0x37
 7071 1d95 01       		.uleb128 0x1
 7072 1d96 52       		.byte	0x52
 7073 1d97 01       		.uleb128 0x1
 7074 1d98 30       		.byte	0x30
 7075 1d99 37       		.uleb128 0x37
 7076 1d9a 01       		.uleb128 0x1
 7077 1d9b 51       		.byte	0x51
 7078 1d9c 03       		.uleb128 0x3
 7079 1d9d 91       		.byte	0x91
 7080 1d9e 987D     		.sleb128 -360
ARM GAS  C:\Users\AHMED~1.ELE\AppData\Local\Temp\ccaBET3e.s 			page 170


 7081 1da0 37       		.uleb128 0x37
 7082 1da1 01       		.uleb128 0x1
 7083 1da2 50       		.byte	0x50
 7084 1da3 02       		.uleb128 0x2
 7085 1da4 08       		.byte	0x8
 7086 1da5 54       		.byte	0x54
 7087 1da6 00       		.byte	0
 7088 1da7 3F       		.uleb128 0x3f
 7089 1da8 3C000000 		.4byte	.LVL118
 7090 1dac 80310000 		.4byte	0x3180
 7091 1db0 C21D0000 		.4byte	0x1dc2
 7092 1db4 37       		.uleb128 0x37
 7093 1db5 01       		.uleb128 0x1
 7094 1db6 51       		.byte	0x51
 7095 1db7 03       		.uleb128 0x3
 7096 1db8 91       		.byte	0x91
 7097 1db9 987D     		.sleb128 -360
 7098 1dbb 37       		.uleb128 0x37
 7099 1dbc 01       		.uleb128 0x1
 7100 1dbd 50       		.byte	0x50
 7101 1dbe 02       		.uleb128 0x2
 7102 1dbf 08       		.byte	0x8
 7103 1dc0 55       		.byte	0x55
 7104 1dc1 00       		.byte	0
 7105 1dc2 3F       		.uleb128 0x3f
 7106 1dc3 46000000 		.4byte	.LVL119
 7107 1dc7 A4310000 		.4byte	0x31a4
 7108 1dcb E31D0000 		.4byte	0x1de3
 7109 1dcf 37       		.uleb128 0x37
 7110 1dd0 01       		.uleb128 0x1
 7111 1dd1 52       		.byte	0x52
 7112 1dd2 02       		.uleb128 0x2
 7113 1dd3 75       		.byte	0x75
 7114 1dd4 00       		.sleb128 0
 7115 1dd5 37       		.uleb128 0x37
 7116 1dd6 01       		.uleb128 0x1
 7117 1dd7 51       		.byte	0x51
 7118 1dd8 03       		.uleb128 0x3
 7119 1dd9 91       		.byte	0x91
 7120 1dda 987D     		.sleb128 -360
 7121 1ddc 37       		.uleb128 0x37
 7122 1ddd 01       		.uleb128 0x1
 7123 1dde 50       		.byte	0x50
 7124 1ddf 02       		.uleb128 0x2
 7125 1de0 08       		.byte	0x8
 7126 1de1 56       		.byte	0x56
 7127 1de2 00       		.byte	0
 7128 1de3 3F       		.uleb128 0x3f
 7129 1de4 7A000000 		.4byte	.LVL125
 7130 1de8 8C160000 		.4byte	0x168c
 7131 1dec FF1D0000 		.4byte	0x1dff
 7132 1df0 37       		.uleb128 0x37
 7133 1df1 01       		.uleb128 0x1
 7134 1df2 52       		.byte	0x52
 7135 1df3 03       		.uleb128 0x3
 7136 1df4 91       		.byte	0x91
 7137 1df5 887D     		.sleb128 -376
ARM GAS  C:\Users\AHMED~1.ELE\AppData\Local\Temp\ccaBET3e.s 			page 171


 7138 1df7 37       		.uleb128 0x37
 7139 1df8 01       		.uleb128 0x1
 7140 1df9 50       		.byte	0x50
 7141 1dfa 03       		.uleb128 0x3
 7142 1dfb 91       		.byte	0x91
 7143 1dfc 847D     		.sleb128 -380
 7144 1dfe 00       		.byte	0
 7145 1dff 3F       		.uleb128 0x3f
 7146 1e00 98000000 		.4byte	.LVL127
 7147 1e04 6F150000 		.4byte	0x156f
 7148 1e08 1B1E0000 		.4byte	0x1e1b
 7149 1e0c 37       		.uleb128 0x37
 7150 1e0d 01       		.uleb128 0x1
 7151 1e0e 52       		.byte	0x52
 7152 1e0f 03       		.uleb128 0x3
 7153 1e10 91       		.byte	0x91
 7154 1e11 907D     		.sleb128 -368
 7155 1e13 37       		.uleb128 0x37
 7156 1e14 01       		.uleb128 0x1
 7157 1e15 50       		.byte	0x50
 7158 1e16 03       		.uleb128 0x3
 7159 1e17 91       		.byte	0x91
 7160 1e18 847D     		.sleb128 -380
 7161 1e1a 00       		.byte	0
 7162 1e1b 3F       		.uleb128 0x3f
 7163 1e1c CA000000 		.4byte	.LVL130
 7164 1e20 6F150000 		.4byte	0x156f
 7165 1e24 371E0000 		.4byte	0x1e37
 7166 1e28 37       		.uleb128 0x37
 7167 1e29 01       		.uleb128 0x1
 7168 1e2a 52       		.byte	0x52
 7169 1e2b 03       		.uleb128 0x3
 7170 1e2c 91       		.byte	0x91
 7171 1e2d 887D     		.sleb128 -376
 7172 1e2f 37       		.uleb128 0x37
 7173 1e30 01       		.uleb128 0x1
 7174 1e31 50       		.byte	0x50
 7175 1e32 03       		.uleb128 0x3
 7176 1e33 91       		.byte	0x91
 7177 1e34 847D     		.sleb128 -380
 7178 1e36 00       		.byte	0
 7179 1e37 36       		.uleb128 0x36
 7180 1e38 0E010000 		.4byte	.LVL137
 7181 1e3c 6F150000 		.4byte	0x156f
 7182 1e40 37       		.uleb128 0x37
 7183 1e41 01       		.uleb128 0x1
 7184 1e42 52       		.byte	0x52
 7185 1e43 03       		.uleb128 0x3
 7186 1e44 91       		.byte	0x91
 7187 1e45 887D     		.sleb128 -376
 7188 1e47 37       		.uleb128 0x37
 7189 1e48 01       		.uleb128 0x1
 7190 1e49 50       		.byte	0x50
 7191 1e4a 03       		.uleb128 0x3
 7192 1e4b 91       		.byte	0x91
 7193 1e4c 847D     		.sleb128 -380
 7194 1e4e 00       		.byte	0
ARM GAS  C:\Users\AHMED~1.ELE\AppData\Local\Temp\ccaBET3e.s 			page 172


 7195 1e4f 00       		.byte	0
 7196 1e50 31       		.uleb128 0x31
 7197 1e51 DC040000 		.4byte	.LASF634
 7198 1e55 01       		.byte	0x1
 7199 1e56 C705     		.2byte	0x5c7
 7200 1e58 86000000 		.4byte	0x86
 7201 1e5c 00000000 		.4byte	.LFB22
 7202 1e60 8C000000 		.4byte	.LFE22-.LFB22
 7203 1e64 01       		.uleb128 0x1
 7204 1e65 9C       		.byte	0x9c
 7205 1e66 941E0000 		.4byte	0x1e94
 7206 1e6a 32       		.uleb128 0x32
 7207 1e6b 59070000 		.4byte	.LASF635
 7208 1e6f 01       		.byte	0x1
 7209 1e70 C705     		.2byte	0x5c7
 7210 1e72 19150000 		.4byte	0x1519
 7211 1e76 B1090000 		.4byte	.LLST50
 7212 1e7a 32       		.uleb128 0x32
 7213 1e7b 652B0000 		.4byte	.LASF636
 7214 1e7f 01       		.byte	0x1
 7215 1e80 C705     		.2byte	0x5c7
 7216 1e82 A7000000 		.4byte	0xa7
 7217 1e86 EB090000 		.4byte	.LLST51
 7218 1e8a 43       		.uleb128 0x43
 7219 1e8b 6A000000 		.4byte	.LVL152
 7220 1e8f C3310000 		.4byte	0x31c3
 7221 1e93 00       		.byte	0
 7222 1e94 44       		.uleb128 0x44
 7223 1e95 A7120000 		.4byte	0x12a7
 7224 1e99 00000000 		.4byte	.LFB16
 7225 1e9d 42000000 		.4byte	.LFE16-.LFB16
 7226 1ea1 01       		.uleb128 0x1
 7227 1ea2 9C       		.byte	0x9c
 7228 1ea3 351F0000 		.4byte	0x1f35
 7229 1ea7 3A       		.uleb128 0x3a
 7230 1ea8 B4120000 		.4byte	0x12b4
 7231 1eac 940A0000 		.4byte	.LLST52
 7232 1eb0 3A       		.uleb128 0x3a
 7233 1eb1 C0120000 		.4byte	0x12c0
 7234 1eb5 CE0A0000 		.4byte	.LLST53
 7235 1eb9 3A       		.uleb128 0x3a
 7236 1eba CC120000 		.4byte	0x12cc
 7237 1ebe EC0A0000 		.4byte	.LLST54
 7238 1ec2 3A       		.uleb128 0x3a
 7239 1ec3 D8120000 		.4byte	0x12d8
 7240 1ec7 310B0000 		.4byte	.LLST55
 7241 1ecb 45       		.uleb128 0x45
 7242 1ecc 0E000000 		.4byte	.LBB18
 7243 1ed0 24000000 		.4byte	.LBE18-.LBB18
 7244 1ed4 1D1F0000 		.4byte	0x1f1d
 7245 1ed8 3A       		.uleb128 0x3a
 7246 1ed9 B4120000 		.4byte	0x12b4
 7247 1edd 6B0B0000 		.4byte	.LLST56
 7248 1ee1 3A       		.uleb128 0x3a
 7249 1ee2 D8120000 		.4byte	0x12d8
 7250 1ee6 7F0B0000 		.4byte	.LLST57
 7251 1eea 3A       		.uleb128 0x3a
ARM GAS  C:\Users\AHMED~1.ELE\AppData\Local\Temp\ccaBET3e.s 			page 173


 7252 1eeb CC120000 		.4byte	0x12cc
 7253 1eef A00B0000 		.4byte	.LLST58
 7254 1ef3 3A       		.uleb128 0x3a
 7255 1ef4 C0120000 		.4byte	0x12c0
 7256 1ef8 CC0B0000 		.4byte	.LLST59
 7257 1efc 36       		.uleb128 0x36
 7258 1efd 2C000000 		.4byte	.LVL159
 7259 1f01 63310000 		.4byte	0x3163
 7260 1f05 37       		.uleb128 0x37
 7261 1f06 01       		.uleb128 0x1
 7262 1f07 52       		.byte	0x52
 7263 1f08 02       		.uleb128 0x2
 7264 1f09 74       		.byte	0x74
 7265 1f0a 00       		.sleb128 0
 7266 1f0b 37       		.uleb128 0x37
 7267 1f0c 01       		.uleb128 0x1
 7268 1f0d 51       		.byte	0x51
 7269 1f0e 03       		.uleb128 0x3
 7270 1f0f F3       		.byte	0xf3
 7271 1f10 01       		.uleb128 0x1
 7272 1f11 52       		.byte	0x52
 7273 1f12 37       		.uleb128 0x37
 7274 1f13 01       		.uleb128 0x1
 7275 1f14 50       		.byte	0x50
 7276 1f15 05       		.uleb128 0x5
 7277 1f16 F3       		.byte	0xf3
 7278 1f17 01       		.uleb128 0x1
 7279 1f18 53       		.byte	0x53
 7280 1f19 23       		.byte	0x23
 7281 1f1a 02       		.uleb128 0x2
 7282 1f1b 00       		.byte	0
 7283 1f1c 00       		.byte	0
 7284 1f1d 36       		.uleb128 0x36
 7285 1f1e 3A000000 		.4byte	.LVL162
 7286 1f22 63310000 		.4byte	0x3163
 7287 1f26 37       		.uleb128 0x37
 7288 1f27 01       		.uleb128 0x1
 7289 1f28 52       		.byte	0x52
 7290 1f29 02       		.uleb128 0x2
 7291 1f2a 74       		.byte	0x74
 7292 1f2b 00       		.sleb128 0
 7293 1f2c 37       		.uleb128 0x37
 7294 1f2d 01       		.uleb128 0x1
 7295 1f2e 50       		.byte	0x50
 7296 1f2f 03       		.uleb128 0x3
 7297 1f30 F3       		.byte	0xf3
 7298 1f31 01       		.uleb128 0x1
 7299 1f32 53       		.byte	0x53
 7300 1f33 00       		.byte	0
 7301 1f34 00       		.byte	0
 7302 1f35 44       		.uleb128 0x44
 7303 1f36 23140000 		.4byte	0x1423
 7304 1f3a 00000000 		.4byte	.LFB37
 7305 1f3e 38000000 		.4byte	.LFE37-.LFB37
 7306 1f42 01       		.uleb128 0x1
 7307 1f43 9C       		.byte	0x9c
 7308 1f44 6A1F0000 		.4byte	0x1f6a
ARM GAS  C:\Users\AHMED~1.ELE\AppData\Local\Temp\ccaBET3e.s 			page 174


 7309 1f48 3A       		.uleb128 0x3a
 7310 1f49 3E140000 		.4byte	0x143e
 7311 1f4d DF0B0000 		.4byte	.LLST60
 7312 1f51 3A       		.uleb128 0x3a
 7313 1f52 34140000 		.4byte	0x1434
 7314 1f56 130C0000 		.4byte	.LLST61
 7315 1f5a 3B       		.uleb128 0x3b
 7316 1f5b 16000000 		.4byte	.LBB20
 7317 1f5f 0C000000 		.4byte	.LBE20-.LBB20
 7318 1f63 3E       		.uleb128 0x3e
 7319 1f64 4B140000 		.4byte	0x144b
 7320 1f68 00       		.byte	0
 7321 1f69 00       		.byte	0
 7322 1f6a 46       		.uleb128 0x46
 7323 1f6b B0080000 		.4byte	.LASF637
 7324 1f6f 01       		.byte	0x1
 7325 1f70 3207     		.2byte	0x732
 7326 1f72 86000000 		.4byte	0x86
 7327 1f76 00000000 		.4byte	.LFB27
 7328 1f7a B8010000 		.4byte	.LFE27-.LFB27
 7329 1f7e 01       		.uleb128 0x1
 7330 1f7f 9C       		.byte	0x9c
 7331 1f80 80220000 		.4byte	0x2280
 7332 1f84 32       		.uleb128 0x32
 7333 1f85 55190000 		.4byte	.LASF572
 7334 1f89 01       		.byte	0x1
 7335 1f8a 3207     		.2byte	0x732
 7336 1f8c A1120000 		.4byte	0x12a1
 7337 1f90 5B0C0000 		.4byte	.LLST62
 7338 1f94 32       		.uleb128 0x32
 7339 1f95 FE150000 		.4byte	.LASF573
 7340 1f99 01       		.byte	0x1
 7341 1f9a 3207     		.2byte	0x732
 7342 1f9c 0F130000 		.4byte	0x130f
 7343 1fa0 870C0000 		.4byte	.LLST63
 7344 1fa4 33       		.uleb128 0x33
 7345 1fa5 454D00   		.ascii	"EM\000"
 7346 1fa8 01       		.byte	0x1
 7347 1fa9 3507     		.2byte	0x735
 7348 1fab B7000000 		.4byte	0xb7
 7349 1faf 06       		.uleb128 0x6
 7350 1fb0 03       		.byte	0x3
 7351 1fb1 00000000 		.4byte	s_x509_sign
 7352 1fb5 9F       		.byte	0x9f
 7353 1fb6 38       		.uleb128 0x38
 7354 1fb7 75030000 		.4byte	.LASF638
 7355 1fbb 01       		.byte	0x1
 7356 1fbc 3607     		.2byte	0x736
 7357 1fbe 25000000 		.4byte	0x25
 7358 1fc2 CC0C0000 		.4byte	.LLST64
 7359 1fc6 38       		.uleb128 0x38
 7360 1fc7 DF130000 		.4byte	.LASF639
 7361 1fcb 01       		.byte	0x1
 7362 1fcc 3707     		.2byte	0x737
 7363 1fce B7000000 		.4byte	0xb7
 7364 1fd2 F60C0000 		.4byte	.LLST65
 7365 1fd6 38       		.uleb128 0x38
ARM GAS  C:\Users\AHMED~1.ELE\AppData\Local\Temp\ccaBET3e.s 			page 175


 7366 1fd7 E70C0000 		.4byte	.LASF640
 7367 1fdb 01       		.byte	0x1
 7368 1fdc 3807     		.2byte	0x738
 7369 1fde 25000000 		.4byte	0x25
 7370 1fe2 2B0D0000 		.4byte	.LLST66
 7371 1fe6 38       		.uleb128 0x38
 7372 1fe7 53000000 		.4byte	.LASF641
 7373 1feb 01       		.byte	0x1
 7374 1fec 3907     		.2byte	0x739
 7375 1fee 25000000 		.4byte	0x25
 7376 1ff2 440D0000 		.4byte	.LLST67
 7377 1ff6 38       		.uleb128 0x38
 7378 1ff7 82200000 		.4byte	.LASF642
 7379 1ffb 01       		.byte	0x1
 7380 1ffc 3A07     		.2byte	0x73a
 7381 1ffe 25000000 		.4byte	0x25
 7382 2002 720D0000 		.4byte	.LLST68
 7383 2006 38       		.uleb128 0x38
 7384 2007 07100000 		.4byte	.LASF643
 7385 200b 01       		.byte	0x1
 7386 200c 3B07     		.2byte	0x73b
 7387 200e 25000000 		.4byte	0x25
 7388 2012 A40D0000 		.4byte	.LLST69
 7389 2016 38       		.uleb128 0x38
 7390 2017 520C0000 		.4byte	.LASF644
 7391 201b 01       		.byte	0x1
 7392 201c 3B07     		.2byte	0x73b
 7393 201e 25000000 		.4byte	0x25
 7394 2022 B80D0000 		.4byte	.LLST70
 7395 2026 38       		.uleb128 0x38
 7396 2027 06010000 		.4byte	.LASF645
 7397 202b 01       		.byte	0x1
 7398 202c 3B07     		.2byte	0x73b
 7399 202e 25000000 		.4byte	0x25
 7400 2032 D90D0000 		.4byte	.LLST71
 7401 2036 38       		.uleb128 0x38
 7402 2037 D21C0000 		.4byte	.LASF646
 7403 203b 01       		.byte	0x1
 7404 203c 3C07     		.2byte	0x73c
 7405 203e 89180000 		.4byte	0x1889
 7406 2042 EC0D0000 		.4byte	.LLST72
 7407 2046 34       		.uleb128 0x34
 7408 2047 4800     		.ascii	"H\000"
 7409 2049 01       		.byte	0x1
 7410 204a 3D07     		.2byte	0x73d
 7411 204c B7000000 		.4byte	0xb7
 7412 2050 210E0000 		.4byte	.LLST73
 7413 2054 34       		.uleb128 0x34
 7414 2055 444200   		.ascii	"DB\000"
 7415 2058 01       		.byte	0x1
 7416 2059 3D07     		.2byte	0x73d
 7417 205b B7000000 		.4byte	0xb7
 7418 205f 480E0000 		.4byte	.LLST74
 7419 2063 38       		.uleb128 0x38
 7420 2064 7A110000 		.4byte	.LASF647
 7421 2068 01       		.byte	0x1
 7422 2069 3E07     		.2byte	0x73e
ARM GAS  C:\Users\AHMED~1.ELE\AppData\Local\Temp\ccaBET3e.s 			page 176


 7423 206b B7000000 		.4byte	0xb7
 7424 206f 600E0000 		.4byte	.LLST75
 7425 2073 35       		.uleb128 0x35
 7426 2074 2F2B0000 		.4byte	.LASF648
 7427 2078 01       		.byte	0x1
 7428 2079 3F07     		.2byte	0x73f
 7429 207b E2110000 		.4byte	0x11e2
 7430 207f 03       		.uleb128 0x3
 7431 2080 91       		.byte	0x91
 7432 2081 B07C     		.sleb128 -464
 7433 2083 35       		.uleb128 0x35
 7434 2084 741E0000 		.4byte	.LASF649
 7435 2088 01       		.byte	0x1
 7436 2089 4007     		.2byte	0x740
 7437 208b 32110000 		.4byte	0x1132
 7438 208f 03       		.uleb128 0x3
 7439 2090 91       		.byte	0x91
 7440 2091 887D     		.sleb128 -376
 7441 2093 35       		.uleb128 0x35
 7442 2094 9D0A0000 		.4byte	.LASF650
 7443 2098 01       		.byte	0x1
 7444 2099 4107     		.2byte	0x741
 7445 209b 1E010000 		.4byte	0x11e
 7446 209f 03       		.uleb128 0x3
 7447 20a0 91       		.byte	0x91
 7448 20a1 C87C     		.sleb128 -440
 7449 20a3 41       		.uleb128 0x41
 7450 20a4 8B140000 		.4byte	0x148b
 7451 20a8 72000000 		.4byte	.LBB26
 7452 20ac 18000000 		.4byte	.Ldebug_ranges0+0x18
 7453 20b0 01       		.byte	0x1
 7454 20b1 6B07     		.2byte	0x76b
 7455 20b3 46210000 		.4byte	0x2146
 7456 20b7 3A       		.uleb128 0x3a
 7457 20b8 BC140000 		.4byte	0x14bc
 7458 20bc 7F0E0000 		.4byte	.LLST76
 7459 20c0 3A       		.uleb128 0x3a
 7460 20c1 C8140000 		.4byte	0x14c8
 7461 20c5 970E0000 		.4byte	.LLST77
 7462 20c9 3A       		.uleb128 0x3a
 7463 20ca B0140000 		.4byte	0x14b0
 7464 20ce AD0E0000 		.4byte	.LLST78
 7465 20d2 3A       		.uleb128 0x3a
 7466 20d3 A4140000 		.4byte	0x14a4
 7467 20d7 C00E0000 		.4byte	.LLST79
 7468 20db 47       		.uleb128 0x47
 7469 20dc 98140000 		.4byte	0x1498
 7470 20e0 42       		.uleb128 0x42
 7471 20e1 18000000 		.4byte	.Ldebug_ranges0+0x18
 7472 20e5 3C       		.uleb128 0x3c
 7473 20e6 D4140000 		.4byte	0x14d4
 7474 20ea 03       		.uleb128 0x3
 7475 20eb 91       		.byte	0x91
 7476 20ec AC7C     		.sleb128 -468
 7477 20ee 3D       		.uleb128 0x3d
 7478 20ef E0140000 		.4byte	0x14e0
 7479 20f3 D90E0000 		.4byte	.LLST80
ARM GAS  C:\Users\AHMED~1.ELE\AppData\Local\Temp\ccaBET3e.s 			page 177


 7480 20f7 3D       		.uleb128 0x3d
 7481 20f8 EC140000 		.4byte	0x14ec
 7482 20fc F70E0000 		.4byte	.LLST81
 7483 2100 3D       		.uleb128 0x3d
 7484 2101 F8140000 		.4byte	0x14f8
 7485 2105 0A0F0000 		.4byte	.LLST82
 7486 2109 3D       		.uleb128 0x3d
 7487 210a 02150000 		.4byte	0x1502
 7488 210e 500F0000 		.4byte	.LLST83
 7489 2112 3D       		.uleb128 0x3d
 7490 2113 0E150000 		.4byte	0x150e
 7491 2117 630F0000 		.4byte	.LLST84
 7492 211b 48       		.uleb128 0x48
 7493 211c C2000000 		.4byte	.LVL198
 7494 2120 31210000 		.4byte	0x2131
 7495 2124 37       		.uleb128 0x37
 7496 2125 01       		.uleb128 0x1
 7497 2126 52       		.byte	0x52
 7498 2127 02       		.uleb128 0x2
 7499 2128 79       		.byte	0x79
 7500 2129 00       		.sleb128 0
 7501 212a 37       		.uleb128 0x37
 7502 212b 01       		.uleb128 0x1
 7503 212c 51       		.byte	0x51
 7504 212d 02       		.uleb128 0x2
 7505 212e 76       		.byte	0x76
 7506 212f 00       		.sleb128 0
 7507 2130 00       		.byte	0
 7508 2131 49       		.uleb128 0x49
 7509 2132 D4000000 		.4byte	.LVL199
 7510 2136 37       		.uleb128 0x37
 7511 2137 01       		.uleb128 0x1
 7512 2138 52       		.byte	0x52
 7513 2139 01       		.uleb128 0x1
 7514 213a 34       		.byte	0x34
 7515 213b 37       		.uleb128 0x37
 7516 213c 01       		.uleb128 0x1
 7517 213d 51       		.byte	0x51
 7518 213e 04       		.uleb128 0x4
 7519 213f 91       		.byte	0x91
 7520 2140 A47C     		.sleb128 -476
 7521 2142 06       		.byte	0x6
 7522 2143 00       		.byte	0
 7523 2144 00       		.byte	0
 7524 2145 00       		.byte	0
 7525 2146 41       		.uleb128 0x41
 7526 2147 59140000 		.4byte	0x1459
 7527 214b 2E010000 		.4byte	.LBB30
 7528 214f 30000000 		.4byte	.Ldebug_ranges0+0x30
 7529 2153 01       		.byte	0x1
 7530 2154 6C07     		.2byte	0x76c
 7531 2156 7C210000 		.4byte	0x217c
 7532 215a 3A       		.uleb128 0x3a
 7533 215b 66140000 		.4byte	0x1466
 7534 215f C60F0000 		.4byte	.LLST85
 7535 2163 3A       		.uleb128 0x3a
 7536 2164 70140000 		.4byte	0x1470
ARM GAS  C:\Users\AHMED~1.ELE\AppData\Local\Temp\ccaBET3e.s 			page 178


 7537 2168 DE0F0000 		.4byte	.LLST86
 7538 216c 42       		.uleb128 0x42
 7539 216d 30000000 		.4byte	.Ldebug_ranges0+0x30
 7540 2171 3D       		.uleb128 0x3d
 7541 2172 7D140000 		.4byte	0x147d
 7542 2176 F20F0000 		.4byte	.LLST87
 7543 217a 00       		.byte	0
 7544 217b 00       		.byte	0
 7545 217c 3F       		.uleb128 0x3f
 7546 217d 1A000000 		.4byte	.LVL180
 7547 2181 501E0000 		.4byte	0x1e50
 7548 2185 91210000 		.4byte	0x2191
 7549 2189 37       		.uleb128 0x37
 7550 218a 01       		.uleb128 0x1
 7551 218b 50       		.byte	0x50
 7552 218c 03       		.uleb128 0x3
 7553 218d 91       		.byte	0x91
 7554 218e B07C     		.sleb128 -464
 7555 2190 00       		.byte	0
 7556 2191 3F       		.uleb128 0x3f
 7557 2192 36000000 		.4byte	.LVL183
 7558 2196 DD310000 		.4byte	0x31dd
 7559 219a B1210000 		.4byte	0x21b1
 7560 219e 37       		.uleb128 0x37
 7561 219f 01       		.uleb128 0x1
 7562 21a0 52       		.byte	0x52
 7563 21a1 03       		.uleb128 0x3
 7564 21a2 0A       		.byte	0xa
 7565 21a3 0402     		.2byte	0x204
 7566 21a5 37       		.uleb128 0x37
 7567 21a6 01       		.uleb128 0x1
 7568 21a7 51       		.byte	0x51
 7569 21a8 01       		.uleb128 0x1
 7570 21a9 30       		.byte	0x30
 7571 21aa 37       		.uleb128 0x37
 7572 21ab 01       		.uleb128 0x1
 7573 21ac 50       		.byte	0x50
 7574 21ad 02       		.uleb128 0x2
 7575 21ae 76       		.byte	0x76
 7576 21af 00       		.sleb128 0
 7577 21b0 00       		.byte	0
 7578 21b1 3F       		.uleb128 0x3f
 7579 21b2 42000000 		.4byte	.LVL184
 7580 21b6 63310000 		.4byte	0x3163
 7581 21ba CB210000 		.4byte	0x21cb
 7582 21be 37       		.uleb128 0x37
 7583 21bf 01       		.uleb128 0x1
 7584 21c0 51       		.byte	0x51
 7585 21c1 02       		.uleb128 0x2
 7586 21c2 74       		.byte	0x74
 7587 21c3 08       		.sleb128 8
 7588 21c4 37       		.uleb128 0x37
 7589 21c5 01       		.uleb128 0x1
 7590 21c6 50       		.byte	0x50
 7591 21c7 02       		.uleb128 0x2
 7592 21c8 76       		.byte	0x76
 7593 21c9 00       		.sleb128 0
ARM GAS  C:\Users\AHMED~1.ELE\AppData\Local\Temp\ccaBET3e.s 			page 179


 7594 21ca 00       		.byte	0
 7595 21cb 3F       		.uleb128 0x3f
 7596 21cc 4C000000 		.4byte	.LVL185
 7597 21d0 A4310000 		.4byte	0x31a4
 7598 21d4 EB210000 		.4byte	0x21eb
 7599 21d8 37       		.uleb128 0x37
 7600 21d9 01       		.uleb128 0x1
 7601 21da 52       		.byte	0x52
 7602 21db 02       		.uleb128 0x2
 7603 21dc 77       		.byte	0x77
 7604 21dd 00       		.sleb128 0
 7605 21de 37       		.uleb128 0x37
 7606 21df 01       		.uleb128 0x1
 7607 21e0 51       		.byte	0x51
 7608 21e1 02       		.uleb128 0x2
 7609 21e2 76       		.byte	0x76
 7610 21e3 00       		.sleb128 0
 7611 21e4 37       		.uleb128 0x37
 7612 21e5 01       		.uleb128 0x1
 7613 21e6 50       		.byte	0x50
 7614 21e7 02       		.uleb128 0x2
 7615 21e8 08       		.byte	0x8
 7616 21e9 4B       		.byte	0x4b
 7617 21ea 00       		.byte	0
 7618 21eb 3F       		.uleb128 0x3f
 7619 21ec 68000000 		.4byte	.LVL187
 7620 21f0 351F0000 		.4byte	0x1f35
 7621 21f4 FE210000 		.4byte	0x21fe
 7622 21f8 37       		.uleb128 0x37
 7623 21f9 01       		.uleb128 0x1
 7624 21fa 50       		.byte	0x50
 7625 21fb 01       		.uleb128 0x1
 7626 21fc 31       		.byte	0x31
 7627 21fd 00       		.byte	0
 7628 21fe 3F       		.uleb128 0x3f
 7629 21ff 50010000 		.4byte	.LVL215
 7630 2203 351F0000 		.4byte	0x1f35
 7631 2207 14220000 		.4byte	0x2214
 7632 220b 37       		.uleb128 0x37
 7633 220c 01       		.uleb128 0x1
 7634 220d 50       		.byte	0x50
 7635 220e 04       		.uleb128 0x4
 7636 220f 75       		.byte	0x75
 7637 2210 00       		.sleb128 0
 7638 2211 33       		.byte	0x33
 7639 2212 24       		.byte	0x24
 7640 2213 00       		.byte	0
 7641 2214 3F       		.uleb128 0x3f
 7642 2215 6A010000 		.4byte	.LVL217
 7643 2219 DD310000 		.4byte	0x31dd
 7644 221d 2C220000 		.4byte	0x222c
 7645 2221 37       		.uleb128 0x37
 7646 2222 01       		.uleb128 0x1
 7647 2223 52       		.byte	0x52
 7648 2224 01       		.uleb128 0x1
 7649 2225 38       		.byte	0x38
 7650 2226 37       		.uleb128 0x37
ARM GAS  C:\Users\AHMED~1.ELE\AppData\Local\Temp\ccaBET3e.s 			page 180


 7651 2227 01       		.uleb128 0x1
 7652 2228 51       		.byte	0x51
 7653 2229 01       		.uleb128 0x1
 7654 222a 30       		.byte	0x30
 7655 222b 00       		.byte	0
 7656 222c 48       		.uleb128 0x48
 7657 222d 7A010000 		.4byte	.LVL219
 7658 2231 3B220000 		.4byte	0x223b
 7659 2235 37       		.uleb128 0x37
 7660 2236 01       		.uleb128 0x1
 7661 2237 52       		.byte	0x52
 7662 2238 01       		.uleb128 0x1
 7663 2239 38       		.byte	0x38
 7664 223a 00       		.byte	0
 7665 223b 48       		.uleb128 0x48
 7666 223c 86010000 		.4byte	.LVL220
 7667 2240 52220000 		.4byte	0x2252
 7668 2244 37       		.uleb128 0x37
 7669 2245 01       		.uleb128 0x1
 7670 2246 52       		.byte	0x52
 7671 2247 02       		.uleb128 0x2
 7672 2248 79       		.byte	0x79
 7673 2249 00       		.sleb128 0
 7674 224a 37       		.uleb128 0x37
 7675 224b 01       		.uleb128 0x1
 7676 224c 51       		.byte	0x51
 7677 224d 03       		.uleb128 0x3
 7678 224e 74       		.byte	0x74
 7679 224f B404     		.sleb128 564
 7680 2251 00       		.byte	0
 7681 2252 48       		.uleb128 0x48
 7682 2253 96010000 		.4byte	.LVL221
 7683 2257 69220000 		.4byte	0x2269
 7684 225b 37       		.uleb128 0x37
 7685 225c 01       		.uleb128 0x1
 7686 225d 51       		.byte	0x51
 7687 225e 09       		.uleb128 0x9
 7688 225f 78       		.byte	0x78
 7689 2260 00       		.sleb128 0
 7690 2261 7D       		.byte	0x7d
 7691 2262 00       		.sleb128 0
 7692 2263 06       		.byte	0x6
 7693 2264 22       		.byte	0x22
 7694 2265 77       		.byte	0x77
 7695 2266 00       		.sleb128 0
 7696 2267 1C       		.byte	0x1c
 7697 2268 00       		.byte	0
 7698 2269 36       		.uleb128 0x36
 7699 226a A8010000 		.4byte	.LVL223
 7700 226e FA310000 		.4byte	0x31fa
 7701 2272 37       		.uleb128 0x37
 7702 2273 01       		.uleb128 0x1
 7703 2274 52       		.byte	0x52
 7704 2275 02       		.uleb128 0x2
 7705 2276 79       		.byte	0x79
 7706 2277 00       		.sleb128 0
 7707 2278 37       		.uleb128 0x37
ARM GAS  C:\Users\AHMED~1.ELE\AppData\Local\Temp\ccaBET3e.s 			page 181


 7708 2279 01       		.uleb128 0x1
 7709 227a 51       		.byte	0x51
 7710 227b 02       		.uleb128 0x2
 7711 227c 76       		.byte	0x76
 7712 227d 00       		.sleb128 0
 7713 227e 00       		.byte	0
 7714 227f 00       		.byte	0
 7715 2280 21       		.uleb128 0x21
 7716 2281 BA270000 		.4byte	.LASF651
 7717 2285 01       		.byte	0x1
 7718 2286 9207     		.2byte	0x792
 7719 2288 86000000 		.4byte	0x86
 7720 228c 01       		.byte	0x1
 7721 228d EE220000 		.4byte	0x22ee
 7722 2291 22       		.uleb128 0x22
 7723 2292 55190000 		.4byte	.LASF572
 7724 2296 01       		.byte	0x1
 7725 2297 9207     		.2byte	0x792
 7726 2299 A1120000 		.4byte	0x12a1
 7727 229d 22       		.uleb128 0x22
 7728 229e FE150000 		.4byte	.LASF573
 7729 22a2 01       		.byte	0x1
 7730 22a3 9307     		.2byte	0x793
 7731 22a5 0F130000 		.4byte	0x130f
 7732 22a9 24       		.uleb128 0x24
 7733 22aa 3A210000 		.4byte	.LASF652
 7734 22ae 01       		.byte	0x1
 7735 22af 9507     		.2byte	0x795
 7736 22b1 25000000 		.4byte	0x25
 7737 22b5 23       		.uleb128 0x23
 7738 22b6 6C00     		.ascii	"l\000"
 7739 22b8 01       		.byte	0x1
 7740 22b9 9507     		.2byte	0x795
 7741 22bb 25000000 		.4byte	0x25
 7742 22bf 24       		.uleb128 0x24
 7743 22c0 470C0000 		.4byte	.LASF653
 7744 22c4 01       		.byte	0x1
 7745 22c5 9507     		.2byte	0x795
 7746 22c7 25000000 		.4byte	0x25
 7747 22cb 23       		.uleb128 0x23
 7748 22cc 7000     		.ascii	"p\000"
 7749 22ce 01       		.byte	0x1
 7750 22cf 9607     		.2byte	0x796
 7751 22d1 B7000000 		.4byte	0xb7
 7752 22d5 23       		.uleb128 0x23
 7753 22d6 705F6500 		.ascii	"p_e\000"
 7754 22da 01       		.byte	0x1
 7755 22db 9607     		.2byte	0x796
 7756 22dd B7000000 		.4byte	0xb7
 7757 22e1 23       		.uleb128 0x23
 7758 22e2 70737300 		.ascii	"pss\000"
 7759 22e6 01       		.byte	0x1
 7760 22e7 9707     		.2byte	0x797
 7761 22e9 F40F0000 		.4byte	0xff4
 7762 22ed 00       		.byte	0
 7763 22ee 44       		.uleb128 0x44
 7764 22ef E5120000 		.4byte	0x12e5
ARM GAS  C:\Users\AHMED~1.ELE\AppData\Local\Temp\ccaBET3e.s 			page 182


 7765 22f3 00000000 		.4byte	.LFB29
 7766 22f7 DC000000 		.4byte	.LFE29-.LFB29
 7767 22fb 01       		.uleb128 0x1
 7768 22fc 9C       		.byte	0x9c
 7769 22fd A4240000 		.4byte	0x24a4
 7770 2301 3A       		.uleb128 0x3a
 7771 2302 F6120000 		.4byte	0x12f6
 7772 2306 07100000 		.4byte	.LLST88
 7773 230a 3A       		.uleb128 0x3a
 7774 230b 02130000 		.4byte	0x1302
 7775 230f 49100000 		.4byte	.LLST89
 7776 2313 3B       		.uleb128 0x3b
 7777 2314 10000000 		.4byte	.LBB40
 7778 2318 C2000000 		.4byte	.LBE40-.LBB40
 7779 231c 3A       		.uleb128 0x3a
 7780 231d 02130000 		.4byte	0x1302
 7781 2321 8B100000 		.4byte	.LLST90
 7782 2325 3A       		.uleb128 0x3a
 7783 2326 F6120000 		.4byte	0x12f6
 7784 232a CD100000 		.4byte	.LLST91
 7785 232e 39       		.uleb128 0x39
 7786 232f 80220000 		.4byte	0x2280
 7787 2333 20000000 		.4byte	.LBB42
 7788 2337 B2000000 		.4byte	.LBE42-.LBB42
 7789 233b 01       		.byte	0x1
 7790 233c D307     		.2byte	0x7d3
 7791 233e 8C240000 		.4byte	0x248c
 7792 2342 3A       		.uleb128 0x3a
 7793 2343 9D220000 		.4byte	0x229d
 7794 2347 01110000 		.4byte	.LLST92
 7795 234b 3A       		.uleb128 0x3a
 7796 234c 91220000 		.4byte	0x2291
 7797 2350 2D110000 		.4byte	.LLST93
 7798 2354 3B       		.uleb128 0x3b
 7799 2355 20000000 		.4byte	.LBB43
 7800 2359 B2000000 		.4byte	.LBE43-.LBB43
 7801 235d 3E       		.uleb128 0x3e
 7802 235e A9220000 		.4byte	0x22a9
 7803 2362 3C       		.uleb128 0x3c
 7804 2363 B5220000 		.4byte	0x22b5
 7805 2367 02       		.uleb128 0x2
 7806 2368 91       		.byte	0x91
 7807 2369 50       		.sleb128 -48
 7808 236a 3C       		.uleb128 0x3c
 7809 236b BF220000 		.4byte	0x22bf
 7810 236f 02       		.uleb128 0x2
 7811 2370 91       		.byte	0x91
 7812 2371 54       		.sleb128 -44
 7813 2372 3C       		.uleb128 0x3c
 7814 2373 CB220000 		.4byte	0x22cb
 7815 2377 02       		.uleb128 0x2
 7816 2378 91       		.byte	0x91
 7817 2379 58       		.sleb128 -40
 7818 237a 3D       		.uleb128 0x3d
 7819 237b D5220000 		.4byte	0x22d5
 7820 237f 4B110000 		.4byte	.LLST94
 7821 2383 3C       		.uleb128 0x3c
ARM GAS  C:\Users\AHMED~1.ELE\AppData\Local\Temp\ccaBET3e.s 			page 183


 7822 2384 E1220000 		.4byte	0x22e1
 7823 2388 02       		.uleb128 0x2
 7824 2389 91       		.byte	0x91
 7825 238a 5C       		.sleb128 -36
 7826 238b 41       		.uleb128 0x41
 7827 238c E3130000 		.4byte	0x13e3
 7828 2390 46000000 		.4byte	.LBB44
 7829 2394 48000000 		.4byte	.Ldebug_ranges0+0x48
 7830 2398 01       		.byte	0x1
 7831 2399 A007     		.2byte	0x7a0
 7832 239b CA230000 		.4byte	0x23ca
 7833 239f 3A       		.uleb128 0x3a
 7834 23a0 F4130000 		.4byte	0x13f4
 7835 23a4 5E110000 		.4byte	.LLST95
 7836 23a8 3A       		.uleb128 0x3a
 7837 23a9 00140000 		.4byte	0x1400
 7838 23ad 76110000 		.4byte	.LLST96
 7839 23b1 42       		.uleb128 0x42
 7840 23b2 48000000 		.4byte	.Ldebug_ranges0+0x48
 7841 23b6 3D       		.uleb128 0x3d
 7842 23b7 0C140000 		.4byte	0x140c
 7843 23bb AF110000 		.4byte	.LLST97
 7844 23bf 3D       		.uleb128 0x3d
 7845 23c0 16140000 		.4byte	0x1416
 7846 23c4 05120000 		.4byte	.LLST98
 7847 23c8 00       		.byte	0
 7848 23c9 00       		.byte	0
 7849 23ca 3F       		.uleb128 0x3f
 7850 23cb 2E000000 		.4byte	.LVL232
 7851 23cf DD310000 		.4byte	0x31dd
 7852 23d3 E5230000 		.4byte	0x23e5
 7853 23d7 37       		.uleb128 0x37
 7854 23d8 01       		.uleb128 0x1
 7855 23d9 52       		.byte	0x52
 7856 23da 03       		.uleb128 0x3
 7857 23db 0A       		.byte	0xa
 7858 23dc 0402     		.2byte	0x204
 7859 23de 37       		.uleb128 0x37
 7860 23df 01       		.uleb128 0x1
 7861 23e0 50       		.byte	0x50
 7862 23e1 02       		.uleb128 0x2
 7863 23e2 74       		.byte	0x74
 7864 23e3 00       		.sleb128 0
 7865 23e4 00       		.byte	0
 7866 23e5 3F       		.uleb128 0x3f
 7867 23e6 3A000000 		.4byte	.LVL233
 7868 23ea 63310000 		.4byte	0x3163
 7869 23ee FF230000 		.4byte	0x23ff
 7870 23f2 37       		.uleb128 0x37
 7871 23f3 01       		.uleb128 0x1
 7872 23f4 51       		.byte	0x51
 7873 23f5 02       		.uleb128 0x2
 7874 23f6 76       		.byte	0x76
 7875 23f7 08       		.sleb128 8
 7876 23f8 37       		.uleb128 0x37
 7877 23f9 01       		.uleb128 0x1
 7878 23fa 50       		.byte	0x50
ARM GAS  C:\Users\AHMED~1.ELE\AppData\Local\Temp\ccaBET3e.s 			page 184


 7879 23fb 02       		.uleb128 0x2
 7880 23fc 74       		.byte	0x74
 7881 23fd 00       		.sleb128 0
 7882 23fe 00       		.byte	0
 7883 23ff 3F       		.uleb128 0x3f
 7884 2400 44000000 		.4byte	.LVL234
 7885 2404 A4310000 		.4byte	0x31a4
 7886 2408 1F240000 		.4byte	0x241f
 7887 240c 37       		.uleb128 0x37
 7888 240d 01       		.uleb128 0x1
 7889 240e 52       		.byte	0x52
 7890 240f 02       		.uleb128 0x2
 7891 2410 75       		.byte	0x75
 7892 2411 00       		.sleb128 0
 7893 2412 37       		.uleb128 0x37
 7894 2413 01       		.uleb128 0x1
 7895 2414 51       		.byte	0x51
 7896 2415 02       		.uleb128 0x2
 7897 2416 74       		.byte	0x74
 7898 2417 00       		.sleb128 0
 7899 2418 37       		.uleb128 0x37
 7900 2419 01       		.uleb128 0x1
 7901 241a 50       		.byte	0x50
 7902 241b 02       		.uleb128 0x2
 7903 241c 08       		.byte	0x8
 7904 241d 4B       		.byte	0x4b
 7905 241e 00       		.byte	0
 7906 241f 3F       		.uleb128 0x3f
 7907 2420 84000000 		.4byte	.LVL244
 7908 2424 8C160000 		.4byte	0x168c
 7909 2428 39240000 		.4byte	0x2439
 7910 242c 37       		.uleb128 0x37
 7911 242d 01       		.uleb128 0x1
 7912 242e 52       		.byte	0x52
 7913 242f 02       		.uleb128 0x2
 7914 2430 91       		.byte	0x91
 7915 2431 50       		.sleb128 -48
 7916 2432 37       		.uleb128 0x37
 7917 2433 01       		.uleb128 0x1
 7918 2434 50       		.byte	0x50
 7919 2435 02       		.uleb128 0x2
 7920 2436 74       		.byte	0x74
 7921 2437 00       		.sleb128 0
 7922 2438 00       		.byte	0
 7923 2439 3F       		.uleb128 0x3f
 7924 243a 98000000 		.4byte	.LVL245
 7925 243e 8F180000 		.4byte	0x188f
 7926 2442 5F240000 		.4byte	0x245f
 7927 2446 37       		.uleb128 0x37
 7928 2447 01       		.uleb128 0x1
 7929 2448 53       		.byte	0x53
 7930 2449 02       		.uleb128 0x2
 7931 244a 91       		.byte	0x91
 7932 244b 5C       		.sleb128 -36
 7933 244c 37       		.uleb128 0x37
 7934 244d 01       		.uleb128 0x1
 7935 244e 52       		.byte	0x52
ARM GAS  C:\Users\AHMED~1.ELE\AppData\Local\Temp\ccaBET3e.s 			page 185


 7936 244f 02       		.uleb128 0x2
 7937 2450 91       		.byte	0x91
 7938 2451 54       		.sleb128 -44
 7939 2452 37       		.uleb128 0x37
 7940 2453 01       		.uleb128 0x1
 7941 2454 50       		.byte	0x50
 7942 2455 02       		.uleb128 0x2
 7943 2456 74       		.byte	0x74
 7944 2457 00       		.sleb128 0
 7945 2458 37       		.uleb128 0x37
 7946 2459 02       		.uleb128 0x2
 7947 245a 7D       		.byte	0x7d
 7948 245b 00       		.sleb128 0
 7949 245c 01       		.uleb128 0x1
 7950 245d 30       		.byte	0x30
 7951 245e 00       		.byte	0
 7952 245f 3F       		.uleb128 0x3f
 7953 2460 B0000000 		.4byte	.LVL246
 7954 2464 6F150000 		.4byte	0x156f
 7955 2468 79240000 		.4byte	0x2479
 7956 246c 37       		.uleb128 0x37
 7957 246d 01       		.uleb128 0x1
 7958 246e 52       		.byte	0x52
 7959 246f 02       		.uleb128 0x2
 7960 2470 91       		.byte	0x91
 7961 2471 50       		.sleb128 -48
 7962 2472 37       		.uleb128 0x37
 7963 2473 01       		.uleb128 0x1
 7964 2474 50       		.byte	0x50
 7965 2475 02       		.uleb128 0x2
 7966 2476 74       		.byte	0x74
 7967 2477 00       		.sleb128 0
 7968 2478 00       		.byte	0
 7969 2479 36       		.uleb128 0x36
 7970 247a CA000000 		.4byte	.LVL248
 7971 247e FA310000 		.4byte	0x31fa
 7972 2482 37       		.uleb128 0x37
 7973 2483 01       		.uleb128 0x1
 7974 2484 51       		.byte	0x51
 7975 2485 03       		.uleb128 0x3
 7976 2486 76       		.byte	0x76
 7977 2487 B404     		.sleb128 564
 7978 2489 00       		.byte	0
 7979 248a 00       		.byte	0
 7980 248b 00       		.byte	0
 7981 248c 36       		.uleb128 0x36
 7982 248d 1E000000 		.4byte	.LVL228
 7983 2491 6A1F0000 		.4byte	0x1f6a
 7984 2495 37       		.uleb128 0x37
 7985 2496 01       		.uleb128 0x1
 7986 2497 51       		.byte	0x51
 7987 2498 02       		.uleb128 0x2
 7988 2499 75       		.byte	0x75
 7989 249a 00       		.sleb128 0
 7990 249b 37       		.uleb128 0x37
 7991 249c 01       		.uleb128 0x1
 7992 249d 50       		.byte	0x50
ARM GAS  C:\Users\AHMED~1.ELE\AppData\Local\Temp\ccaBET3e.s 			page 186


 7993 249e 02       		.uleb128 0x2
 7994 249f 76       		.byte	0x76
 7995 24a0 00       		.sleb128 0
 7996 24a1 00       		.byte	0
 7997 24a2 00       		.byte	0
 7998 24a3 00       		.byte	0
 7999 24a4 21       		.uleb128 0x21
 8000 24a5 221C0000 		.4byte	.LASF654
 8001 24a9 01       		.byte	0x1
 8002 24aa F303     		.2byte	0x3f3
 8003 24ac 25000000 		.4byte	0x25
 8004 24b0 01       		.byte	0x1
 8005 24b1 E4240000 		.4byte	0x24e4
 8006 24b5 22       		.uleb128 0x22
 8007 24b6 7C2B0000 		.4byte	.LASF559
 8008 24ba 01       		.byte	0x1
 8009 24bb F303     		.2byte	0x3f3
 8010 24bd 9B120000 		.4byte	0x129b
 8011 24c1 22       		.uleb128 0x22
 8012 24c2 771C0000 		.4byte	.LASF576
 8013 24c6 01       		.byte	0x1
 8014 24c7 F303     		.2byte	0x3f3
 8015 24c9 25000000 		.4byte	0x25
 8016 24cd 23       		.uleb128 0x23
 8017 24ce 7000     		.ascii	"p\000"
 8018 24d0 01       		.byte	0x1
 8019 24d1 F503     		.2byte	0x3f5
 8020 24d3 B7000000 		.4byte	0xb7
 8021 24d7 24       		.uleb128 0x24
 8022 24d8 6C2C0000 		.4byte	.LASF607
 8023 24dc 01       		.byte	0x1
 8024 24dd F603     		.2byte	0x3f6
 8025 24df 25000000 		.4byte	0x25
 8026 24e3 00       		.byte	0
 8027 24e4 21       		.uleb128 0x21
 8028 24e5 7F110000 		.4byte	.LASF655
 8029 24e9 01       		.byte	0x1
 8030 24ea 0A05     		.2byte	0x50a
 8031 24ec 25000000 		.4byte	0x25
 8032 24f0 01       		.byte	0x1
 8033 24f1 6C250000 		.4byte	0x256c
 8034 24f5 22       		.uleb128 0x22
 8035 24f6 7C2B0000 		.4byte	.LASF559
 8036 24fa 01       		.byte	0x1
 8037 24fb 0A05     		.2byte	0x50a
 8038 24fd 9B120000 		.4byte	0x129b
 8039 2501 22       		.uleb128 0x22
 8040 2502 771C0000 		.4byte	.LASF576
 8041 2506 01       		.byte	0x1
 8042 2507 0A05     		.2byte	0x50a
 8043 2509 25000000 		.4byte	0x25
 8044 250d 23       		.uleb128 0x23
 8045 250e 7000     		.ascii	"p\000"
 8046 2510 01       		.byte	0x1
 8047 2511 0C05     		.2byte	0x50c
 8048 2513 B7000000 		.4byte	0xb7
 8049 2517 23       		.uleb128 0x23
ARM GAS  C:\Users\AHMED~1.ELE\AppData\Local\Temp\ccaBET3e.s 			page 187


 8050 2518 656E6400 		.ascii	"end\000"
 8051 251c 01       		.byte	0x1
 8052 251d 0D05     		.2byte	0x50d
 8053 251f B7000000 		.4byte	0xb7
 8054 2523 24       		.uleb128 0x24
 8055 2524 680B0000 		.4byte	.LASF656
 8056 2528 01       		.byte	0x1
 8057 2529 0E05     		.2byte	0x50e
 8058 252b 25000000 		.4byte	0x25
 8059 252f 24       		.uleb128 0x24
 8060 2530 712C0000 		.4byte	.LASF657
 8061 2534 01       		.byte	0x1
 8062 2535 0E05     		.2byte	0x50e
 8063 2537 25000000 		.4byte	0x25
 8064 253b 24       		.uleb128 0x24
 8065 253c 52210000 		.4byte	.LASF658
 8066 2540 01       		.byte	0x1
 8067 2541 0F05     		.2byte	0x50f
 8068 2543 91000000 		.4byte	0x91
 8069 2547 24       		.uleb128 0x24
 8070 2548 D0210000 		.4byte	.LASF659
 8071 254c 01       		.byte	0x1
 8072 254d 1005     		.2byte	0x510
 8073 254f 6C250000 		.4byte	0x256c
 8074 2553 24       		.uleb128 0x24
 8075 2554 D10F0000 		.4byte	.LASF660
 8076 2558 01       		.byte	0x1
 8077 2559 1105     		.2byte	0x511
 8078 255b 6C250000 		.4byte	0x256c
 8079 255f 24       		.uleb128 0x24
 8080 2560 732B0000 		.4byte	.LASF661
 8081 2564 01       		.byte	0x1
 8082 2565 1205     		.2byte	0x512
 8083 2567 6C250000 		.4byte	0x256c
 8084 256b 00       		.byte	0
 8085 256c 08       		.uleb128 0x8
 8086 256d 91000000 		.4byte	0x91
 8087 2571 7C250000 		.4byte	0x257c
 8088 2575 09       		.uleb128 0x9
 8089 2576 76000000 		.4byte	0x76
 8090 257a 0E       		.byte	0xe
 8091 257b 00       		.byte	0
 8092 257c 21       		.uleb128 0x21
 8093 257d C9240000 		.4byte	.LASF662
 8094 2581 01       		.byte	0x1
 8095 2582 8505     		.2byte	0x585
 8096 2584 25000000 		.4byte	0x25
 8097 2588 01       		.byte	0x1
 8098 2589 10260000 		.4byte	0x2610
 8099 258d 22       		.uleb128 0x22
 8100 258e 7C2B0000 		.4byte	.LASF559
 8101 2592 01       		.byte	0x1
 8102 2593 8505     		.2byte	0x585
 8103 2595 9B120000 		.4byte	0x129b
 8104 2599 22       		.uleb128 0x22
 8105 259a 771C0000 		.4byte	.LASF576
 8106 259e 01       		.byte	0x1
ARM GAS  C:\Users\AHMED~1.ELE\AppData\Local\Temp\ccaBET3e.s 			page 188


 8107 259f 8505     		.2byte	0x585
 8108 25a1 25000000 		.4byte	0x25
 8109 25a5 22       		.uleb128 0x22
 8110 25a6 C90C0000 		.4byte	.LASF663
 8111 25aa 01       		.byte	0x1
 8112 25ab 8505     		.2byte	0x585
 8113 25ad 0F130000 		.4byte	0x130f
 8114 25b1 23       		.uleb128 0x23
 8115 25b2 7000     		.ascii	"p\000"
 8116 25b4 01       		.byte	0x1
 8117 25b5 8705     		.2byte	0x587
 8118 25b7 B7000000 		.4byte	0xb7
 8119 25bb 24       		.uleb128 0x24
 8120 25bc 4C0C0000 		.4byte	.LASF664
 8121 25c0 01       		.byte	0x1
 8122 25c1 8805     		.2byte	0x588
 8123 25c3 BD000000 		.4byte	0xbd
 8124 25c7 24       		.uleb128 0x24
 8125 25c8 F6000000 		.4byte	.LASF665
 8126 25cc 01       		.byte	0x1
 8127 25cd 8905     		.2byte	0x589
 8128 25cf 25000000 		.4byte	0x25
 8129 25d3 24       		.uleb128 0x24
 8130 25d4 55150000 		.4byte	.LASF581
 8131 25d8 01       		.byte	0x1
 8132 25d9 8905     		.2byte	0x589
 8133 25db 25000000 		.4byte	0x25
 8134 25df 24       		.uleb128 0x24
 8135 25e0 680B0000 		.4byte	.LASF656
 8136 25e4 01       		.byte	0x1
 8137 25e5 8905     		.2byte	0x589
 8138 25e7 25000000 		.4byte	0x25
 8139 25eb 24       		.uleb128 0x24
 8140 25ec C0210000 		.4byte	.LASF666
 8141 25f0 01       		.byte	0x1
 8142 25f1 8A05     		.2byte	0x58a
 8143 25f3 A7000000 		.4byte	0xa7
 8144 25f7 24       		.uleb128 0x24
 8145 25f8 F8280000 		.4byte	.LASF667
 8146 25fc 01       		.byte	0x1
 8147 25fd 8A05     		.2byte	0x58a
 8148 25ff A7000000 		.4byte	0xa7
 8149 2603 24       		.uleb128 0x24
 8150 2604 97190000 		.4byte	.LASF668
 8151 2608 01       		.byte	0x1
 8152 2609 8A05     		.2byte	0x58a
 8153 260b A7000000 		.4byte	0xa7
 8154 260f 00       		.byte	0
 8155 2610 21       		.uleb128 0x21
 8156 2611 2A1E0000 		.4byte	.LASF669
 8157 2615 01       		.byte	0x1
 8158 2616 2201     		.2byte	0x122
 8159 2618 25000000 		.4byte	0x25
 8160 261c 01       		.byte	0x1
 8161 261d 5C260000 		.4byte	0x265c
 8162 2621 22       		.uleb128 0x22
 8163 2622 7C2B0000 		.4byte	.LASF559
ARM GAS  C:\Users\AHMED~1.ELE\AppData\Local\Temp\ccaBET3e.s 			page 189


 8164 2626 01       		.byte	0x1
 8165 2627 2201     		.2byte	0x122
 8166 2629 9B120000 		.4byte	0x129b
 8167 262d 22       		.uleb128 0x22
 8168 262e 771C0000 		.4byte	.LASF576
 8169 2632 01       		.byte	0x1
 8170 2633 2201     		.2byte	0x122
 8171 2635 25000000 		.4byte	0x25
 8172 2639 22       		.uleb128 0x22
 8173 263a 302C0000 		.4byte	.LASF670
 8174 263e 01       		.byte	0x1
 8175 263f 2201     		.2byte	0x122
 8176 2641 6D130000 		.4byte	0x136d
 8177 2645 23       		.uleb128 0x23
 8178 2646 7000     		.ascii	"p\000"
 8179 2648 01       		.byte	0x1
 8180 2649 2401     		.2byte	0x124
 8181 264b B7000000 		.4byte	0xb7
 8182 264f 24       		.uleb128 0x24
 8183 2650 35210000 		.4byte	.LASF671
 8184 2654 01       		.byte	0x1
 8185 2655 2501     		.2byte	0x125
 8186 2657 25000000 		.4byte	0x25
 8187 265b 00       		.byte	0
 8188 265c 4A       		.uleb128 0x4a
 8189 265d 372C0000 		.4byte	.LASF672
 8190 2661 01       		.byte	0x1
 8191 2662 E3       		.byte	0xe3
 8192 2663 A7000000 		.4byte	0xa7
 8193 2667 01       		.byte	0x1
 8194 2668 76260000 		.4byte	0x2676
 8195 266c 4B       		.uleb128 0x4b
 8196 266d 7800     		.ascii	"x\000"
 8197 266f 01       		.byte	0x1
 8198 2670 E3       		.byte	0xe3
 8199 2671 A7000000 		.4byte	0xa7
 8200 2675 00       		.byte	0
 8201 2676 21       		.uleb128 0x21
 8202 2677 81090000 		.4byte	.LASF673
 8203 267b 01       		.byte	0x1
 8204 267c 0204     		.2byte	0x402
 8205 267e 86000000 		.4byte	0x86
 8206 2682 01       		.byte	0x1
 8207 2683 9E260000 		.4byte	0x269e
 8208 2687 28       		.uleb128 0x28
 8209 2688 733100   		.ascii	"s1\000"
 8210 268b 01       		.byte	0x1
 8211 268c 0204     		.2byte	0x402
 8212 268e 89180000 		.4byte	0x1889
 8213 2692 28       		.uleb128 0x28
 8214 2693 733200   		.ascii	"s2\000"
 8215 2696 01       		.byte	0x1
 8216 2697 0204     		.2byte	0x402
 8217 2699 89180000 		.4byte	0x1889
 8218 269d 00       		.byte	0
 8219 269e 4C       		.uleb128 0x4c
 8220 269f 30120000 		.4byte	.LASF686
ARM GAS  C:\Users\AHMED~1.ELE\AppData\Local\Temp\ccaBET3e.s 			page 190


 8221 26a3 01       		.byte	0x1
 8222 26a4 EA05     		.2byte	0x5ea
 8223 26a6 A7000000 		.4byte	0xa7
 8224 26aa 00000000 		.4byte	.LFB23
 8225 26ae 1C070000 		.4byte	.LFE23-.LFB23
 8226 26b2 01       		.uleb128 0x1
 8227 26b3 9C       		.byte	0x9c
 8228 26b4 DB300000 		.4byte	0x30db
 8229 26b8 32       		.uleb128 0x32
 8230 26b9 B02C0000 		.4byte	.LASF585
 8231 26bd 01       		.byte	0x1
 8232 26be EA05     		.2byte	0x5ea
 8233 26c0 B7000000 		.4byte	0xb7
 8234 26c4 18120000 		.4byte	.LLST99
 8235 26c8 32       		.uleb128 0x32
 8236 26c9 BC200000 		.4byte	.LASF603
 8237 26cd 01       		.byte	0x1
 8238 26ce EA05     		.2byte	0x5ea
 8239 26d0 A7000000 		.4byte	0xa7
 8240 26d4 68120000 		.4byte	.LLST100
 8241 26d8 32       		.uleb128 0x32
 8242 26d9 AA0A0000 		.4byte	.LASF562
 8243 26dd 01       		.byte	0x1
 8244 26de EA05     		.2byte	0x5ea
 8245 26e0 A1120000 		.4byte	0x12a1
 8246 26e4 B8120000 		.4byte	.LLST101
 8247 26e8 33       		.uleb128 0x33
 8248 26e9 7000     		.ascii	"p\000"
 8249 26eb 01       		.byte	0x1
 8250 26ec EC05     		.2byte	0x5ec
 8251 26ee B7000000 		.4byte	0xb7
 8252 26f2 03       		.uleb128 0x3
 8253 26f3 91       		.byte	0x91
 8254 26f4 E47B     		.sleb128 -540
 8255 26f6 38       		.uleb128 0x38
 8256 26f7 F4250000 		.4byte	.LASF674
 8257 26fb 01       		.byte	0x1
 8258 26fc ED05     		.2byte	0x5ed
 8259 26fe B7000000 		.4byte	0xb7
 8260 2702 05130000 		.4byte	.LLST102
 8261 2706 38       		.uleb128 0x38
 8262 2707 25160000 		.4byte	.LASF675
 8263 270b 01       		.byte	0x1
 8264 270c EE05     		.2byte	0x5ee
 8265 270e B7000000 		.4byte	0xb7
 8266 2712 23130000 		.4byte	.LLST103
 8267 2716 34       		.uleb128 0x34
 8268 2717 656E6400 		.ascii	"end\000"
 8269 271b 01       		.byte	0x1
 8270 271c EF05     		.2byte	0x5ef
 8271 271e B7000000 		.4byte	0xb7
 8272 2722 B7130000 		.4byte	.LLST104
 8273 2726 33       		.uleb128 0x33
 8274 2727 6C656E00 		.ascii	"len\000"
 8275 272b 01       		.byte	0x1
 8276 272c F205     		.2byte	0x5f2
 8277 272e 25000000 		.4byte	0x25
ARM GAS  C:\Users\AHMED~1.ELE\AppData\Local\Temp\ccaBET3e.s 			page 191


 8278 2732 03       		.uleb128 0x3
 8279 2733 91       		.byte	0x91
 8280 2734 E87B     		.sleb128 -536
 8281 2736 38       		.uleb128 0x38
 8282 2737 D0220000 		.4byte	.LASF676
 8283 273b 01       		.byte	0x1
 8284 273c F205     		.2byte	0x5f2
 8285 273e 25000000 		.4byte	0x25
 8286 2742 76140000 		.4byte	.LLST105
 8287 2746 35       		.uleb128 0x35
 8288 2747 9B040000 		.4byte	.LASF677
 8289 274b 01       		.byte	0x1
 8290 274c F305     		.2byte	0x5f3
 8291 274e 25000000 		.4byte	0x25
 8292 2752 03       		.uleb128 0x3
 8293 2753 91       		.byte	0x91
 8294 2754 EC7B     		.sleb128 -532
 8295 2756 35       		.uleb128 0x35
 8296 2757 15110000 		.4byte	.LASF678
 8297 275b 01       		.byte	0x1
 8298 275c F305     		.2byte	0x5f3
 8299 275e 25000000 		.4byte	0x25
 8300 2762 03       		.uleb128 0x3
 8301 2763 91       		.byte	0x91
 8302 2764 F07B     		.sleb128 -528
 8303 2766 35       		.uleb128 0x35
 8304 2767 2E2D0000 		.4byte	.LASF679
 8305 276b 01       		.byte	0x1
 8306 276c F305     		.2byte	0x5f3
 8307 276e 25000000 		.4byte	0x25
 8308 2772 03       		.uleb128 0x3
 8309 2773 91       		.byte	0x91
 8310 2774 F47B     		.sleb128 -524
 8311 2776 35       		.uleb128 0x35
 8312 2777 2E050000 		.4byte	.LASF680
 8313 277b 01       		.byte	0x1
 8314 277c F305     		.2byte	0x5f3
 8315 277e 25000000 		.4byte	0x25
 8316 2782 03       		.uleb128 0x3
 8317 2783 91       		.byte	0x91
 8318 2784 F87B     		.sleb128 -520
 8319 2786 35       		.uleb128 0x35
 8320 2787 ED1F0000 		.4byte	.LASF681
 8321 278b 01       		.byte	0x1
 8322 278c F505     		.2byte	0x5f5
 8323 278e F40F0000 		.4byte	0xff4
 8324 2792 03       		.uleb128 0x3
 8325 2793 91       		.byte	0x91
 8326 2794 887C     		.sleb128 -504
 8327 2796 35       		.uleb128 0x35
 8328 2797 3E190000 		.4byte	.LASF682
 8329 279b 01       		.byte	0x1
 8330 279c F605     		.2byte	0x5f6
 8331 279e F40F0000 		.4byte	0xff4
 8332 27a2 03       		.uleb128 0x3
 8333 27a3 91       		.byte	0x91
 8334 27a4 9C7C     		.sleb128 -484
ARM GAS  C:\Users\AHMED~1.ELE\AppData\Local\Temp\ccaBET3e.s 			page 192


 8335 27a6 38       		.uleb128 0x38
 8336 27a7 F3140000 		.4byte	.LASF683
 8337 27ab 01       		.byte	0x1
 8338 27ac F705     		.2byte	0x5f7
 8339 27ae A7000000 		.4byte	0xa7
 8340 27b2 22150000 		.4byte	.LLST106
 8341 27b6 35       		.uleb128 0x35
 8342 27b7 2F2B0000 		.4byte	.LASF648
 8343 27bb 01       		.byte	0x1
 8344 27bc F905     		.2byte	0x5f9
 8345 27be E2110000 		.4byte	0x11e2
 8346 27c2 03       		.uleb128 0x3
 8347 27c3 91       		.byte	0x91
 8348 27c4 B07C     		.sleb128 -464
 8349 27c6 35       		.uleb128 0x35
 8350 27c7 741E0000 		.4byte	.LASF649
 8351 27cb 01       		.byte	0x1
 8352 27cc FA05     		.2byte	0x5fa
 8353 27ce 32110000 		.4byte	0x1132
 8354 27d2 03       		.uleb128 0x3
 8355 27d3 91       		.byte	0x91
 8356 27d4 887D     		.sleb128 -376
 8357 27d6 35       		.uleb128 0x35
 8358 27d7 E4050000 		.4byte	.LASF684
 8359 27db 01       		.byte	0x1
 8360 27dc FB05     		.2byte	0x5fb
 8361 27de 1E010000 		.4byte	0x11e
 8362 27e2 03       		.uleb128 0x3
 8363 27e3 91       		.byte	0x91
 8364 27e4 C87C     		.sleb128 -440
 8365 27e6 41       		.uleb128 0x41
 8366 27e7 15130000 		.4byte	0x1315
 8367 27eb 72000000 		.4byte	.LBB68
 8368 27ef 60000000 		.4byte	.Ldebug_ranges0+0x60
 8369 27f3 01       		.byte	0x1
 8370 27f4 2B06     		.2byte	0x62b
 8371 27f6 71280000 		.4byte	0x2871
 8372 27fa 3A       		.uleb128 0x3a
 8373 27fb 3E130000 		.4byte	0x133e
 8374 27ff 50150000 		.4byte	.LLST107
 8375 2803 3A       		.uleb128 0x3a
 8376 2804 4A130000 		.4byte	0x134a
 8377 2808 70150000 		.4byte	.LLST108
 8378 280c 3A       		.uleb128 0x3a
 8379 280d 32130000 		.4byte	0x1332
 8380 2811 AD150000 		.4byte	.LLST109
 8381 2815 3A       		.uleb128 0x3a
 8382 2816 26130000 		.4byte	0x1326
 8383 281a 26160000 		.4byte	.LLST110
 8384 281e 42       		.uleb128 0x42
 8385 281f 60000000 		.4byte	.Ldebug_ranges0+0x60
 8386 2823 3C       		.uleb128 0x3c
 8387 2824 56130000 		.4byte	0x1356
 8388 2828 03       		.uleb128 0x3
 8389 2829 91       		.byte	0x91
 8390 282a C87C     		.sleb128 -440
 8391 282c 3C       		.uleb128 0x3c
ARM GAS  C:\Users\AHMED~1.ELE\AppData\Local\Temp\ccaBET3e.s 			page 193


 8392 282d 60130000 		.4byte	0x1360
 8393 2831 03       		.uleb128 0x3
 8394 2832 91       		.byte	0x91
 8395 2833 887D     		.sleb128 -376
 8396 2835 3F       		.uleb128 0x3f
 8397 2836 98000000 		.4byte	.LVL267
 8398 283a 6F150000 		.4byte	0x156f
 8399 283e 57280000 		.4byte	0x2857
 8400 2842 37       		.uleb128 0x37
 8401 2843 01       		.uleb128 0x1
 8402 2844 52       		.byte	0x52
 8403 2845 03       		.uleb128 0x3
 8404 2846 91       		.byte	0x91
 8405 2847 887D     		.sleb128 -376
 8406 2849 37       		.uleb128 0x37
 8407 284a 01       		.uleb128 0x1
 8408 284b 51       		.byte	0x51
 8409 284c 02       		.uleb128 0x2
 8410 284d 76       		.byte	0x76
 8411 284e 7F       		.sleb128 -1
 8412 284f 37       		.uleb128 0x37
 8413 2850 01       		.uleb128 0x1
 8414 2851 50       		.byte	0x50
 8415 2852 03       		.uleb128 0x3
 8416 2853 91       		.byte	0x91
 8417 2854 C87C     		.sleb128 -440
 8418 2856 00       		.byte	0
 8419 2857 36       		.uleb128 0x36
 8420 2858 AA000000 		.4byte	.LVL269
 8421 285c EA150000 		.4byte	0x15ea
 8422 2860 37       		.uleb128 0x37
 8423 2861 01       		.uleb128 0x1
 8424 2862 52       		.byte	0x52
 8425 2863 03       		.uleb128 0x3
 8426 2864 91       		.byte	0x91
 8427 2865 EC7B     		.sleb128 -532
 8428 2867 37       		.uleb128 0x37
 8429 2868 01       		.uleb128 0x1
 8430 2869 50       		.byte	0x50
 8431 286a 03       		.uleb128 0x3
 8432 286b 91       		.byte	0x91
 8433 286c C87C     		.sleb128 -440
 8434 286e 00       		.byte	0
 8435 286f 00       		.byte	0
 8436 2870 00       		.byte	0
 8437 2871 41       		.uleb128 0x41
 8438 2872 A4240000 		.4byte	0x24a4
 8439 2876 B6000000 		.4byte	.LBB74
 8440 287a 80000000 		.4byte	.Ldebug_ranges0+0x80
 8441 287e 01       		.byte	0x1
 8442 287f 3106     		.2byte	0x631
 8443 2881 C8280000 		.4byte	0x28c8
 8444 2885 3A       		.uleb128 0x3a
 8445 2886 C1240000 		.4byte	0x24c1
 8446 288a 12170000 		.4byte	.LLST111
 8447 288e 3A       		.uleb128 0x3a
 8448 288f B5240000 		.4byte	0x24b5
ARM GAS  C:\Users\AHMED~1.ELE\AppData\Local\Temp\ccaBET3e.s 			page 194


 8449 2893 3D170000 		.4byte	.LLST112
 8450 2897 42       		.uleb128 0x42
 8451 2898 80000000 		.4byte	.Ldebug_ranges0+0x80
 8452 289c 3D       		.uleb128 0x3d
 8453 289d CD240000 		.4byte	0x24cd
 8454 28a1 29180000 		.4byte	.LLST113
 8455 28a5 3C       		.uleb128 0x3c
 8456 28a6 D7240000 		.4byte	0x24d7
 8457 28aa 03       		.uleb128 0x3
 8458 28ab 91       		.byte	0x91
 8459 28ac 887D     		.sleb128 -376
 8460 28ae 36       		.uleb128 0x36
 8461 28af D2000000 		.4byte	.LVL274
 8462 28b3 6F150000 		.4byte	0x156f
 8463 28b7 37       		.uleb128 0x37
 8464 28b8 01       		.uleb128 0x1
 8465 28b9 52       		.byte	0x52
 8466 28ba 03       		.uleb128 0x3
 8467 28bb 91       		.byte	0x91
 8468 28bc 887D     		.sleb128 -376
 8469 28be 37       		.uleb128 0x37
 8470 28bf 01       		.uleb128 0x1
 8471 28c0 50       		.byte	0x50
 8472 28c1 03       		.uleb128 0x3
 8473 28c2 91       		.byte	0x91
 8474 28c3 C87C     		.sleb128 -440
 8475 28c5 00       		.byte	0
 8476 28c6 00       		.byte	0
 8477 28c7 00       		.byte	0
 8478 28c8 41       		.uleb128 0x41
 8479 28c9 E4240000 		.4byte	0x24e4
 8480 28cd 0A010000 		.4byte	.LBB82
 8481 28d1 A8000000 		.4byte	.Ldebug_ranges0+0xa8
 8482 28d5 01       		.byte	0x1
 8483 28d6 5406     		.2byte	0x654
 8484 28d8 1F2A0000 		.4byte	0x2a1f
 8485 28dc 3A       		.uleb128 0x3a
 8486 28dd 01250000 		.4byte	0x2501
 8487 28e1 5C180000 		.4byte	.LLST114
 8488 28e5 3A       		.uleb128 0x3a
 8489 28e6 F5240000 		.4byte	0x24f5
 8490 28ea 87180000 		.4byte	.LLST115
 8491 28ee 42       		.uleb128 0x42
 8492 28ef A8000000 		.4byte	.Ldebug_ranges0+0xa8
 8493 28f3 3D       		.uleb128 0x3d
 8494 28f4 0D250000 		.4byte	0x250d
 8495 28f8 41190000 		.4byte	.LLST116
 8496 28fc 3D       		.uleb128 0x3d
 8497 28fd 17250000 		.4byte	0x2517
 8498 2901 74190000 		.4byte	.LLST117
 8499 2905 3C       		.uleb128 0x3c
 8500 2906 23250000 		.4byte	0x2523
 8501 290a 03       		.uleb128 0x3
 8502 290b 91       		.byte	0x91
 8503 290c 847C     		.sleb128 -508
 8504 290e 3C       		.uleb128 0x3c
 8505 290f 2F250000 		.4byte	0x252f
ARM GAS  C:\Users\AHMED~1.ELE\AppData\Local\Temp\ccaBET3e.s 			page 195


 8506 2913 03       		.uleb128 0x3
 8507 2914 91       		.byte	0x91
 8508 2915 9C7C     		.sleb128 -484
 8509 2917 3D       		.uleb128 0x3d
 8510 2918 3B250000 		.4byte	0x253b
 8511 291c C1190000 		.4byte	.LLST118
 8512 2920 3C       		.uleb128 0x3c
 8513 2921 47250000 		.4byte	0x2547
 8514 2925 03       		.uleb128 0x3
 8515 2926 91       		.byte	0x91
 8516 2927 B07C     		.sleb128 -464
 8517 2929 3C       		.uleb128 0x3c
 8518 292a 53250000 		.4byte	0x2553
 8519 292e 03       		.uleb128 0x3
 8520 292f 91       		.byte	0x91
 8521 2930 C87C     		.sleb128 -440
 8522 2932 3C       		.uleb128 0x3c
 8523 2933 5F250000 		.4byte	0x255f
 8524 2937 03       		.uleb128 0x3
 8525 2938 91       		.byte	0x91
 8526 2939 887D     		.sleb128 -376
 8527 293b 3F       		.uleb128 0x3f
 8528 293c 26010000 		.4byte	.LVL286
 8529 2940 6F150000 		.4byte	0x156f
 8530 2944 57290000 		.4byte	0x2957
 8531 2948 37       		.uleb128 0x37
 8532 2949 01       		.uleb128 0x1
 8533 294a 52       		.byte	0x52
 8534 294b 03       		.uleb128 0x3
 8535 294c 91       		.byte	0x91
 8536 294d 847C     		.sleb128 -508
 8537 294f 37       		.uleb128 0x37
 8538 2950 01       		.uleb128 0x1
 8539 2951 50       		.byte	0x50
 8540 2952 03       		.uleb128 0x3
 8541 2953 91       		.byte	0x91
 8542 2954 807C     		.sleb128 -512
 8543 2956 00       		.byte	0
 8544 2957 3F       		.uleb128 0x3f
 8545 2958 4E010000 		.4byte	.LVL289
 8546 295c 6F150000 		.4byte	0x156f
 8547 2960 73290000 		.4byte	0x2973
 8548 2964 37       		.uleb128 0x37
 8549 2965 01       		.uleb128 0x1
 8550 2966 52       		.byte	0x52
 8551 2967 03       		.uleb128 0x3
 8552 2968 91       		.byte	0x91
 8553 2969 9C7C     		.sleb128 -484
 8554 296b 37       		.uleb128 0x37
 8555 296c 01       		.uleb128 0x1
 8556 296d 50       		.byte	0x50
 8557 296e 03       		.uleb128 0x3
 8558 296f 91       		.byte	0x91
 8559 2970 807C     		.sleb128 -512
 8560 2972 00       		.byte	0
 8561 2973 3F       		.uleb128 0x3f
 8562 2974 64010000 		.4byte	.LVL290
ARM GAS  C:\Users\AHMED~1.ELE\AppData\Local\Temp\ccaBET3e.s 			page 196


 8563 2978 19320000 		.4byte	0x3219
 8564 297c 8D290000 		.4byte	0x298d
 8565 2980 37       		.uleb128 0x37
 8566 2981 01       		.uleb128 0x1
 8567 2982 51       		.byte	0x51
 8568 2983 03       		.uleb128 0x3
 8569 2984 91       		.byte	0x91
 8570 2985 B07C     		.sleb128 -464
 8571 2987 37       		.uleb128 0x37
 8572 2988 01       		.uleb128 0x1
 8573 2989 50       		.byte	0x50
 8574 298a 01       		.uleb128 0x1
 8575 298b 42       		.byte	0x42
 8576 298c 00       		.byte	0
 8577 298d 3F       		.uleb128 0x3f
 8578 298e 76010000 		.4byte	.LVL291
 8579 2992 A7120000 		.4byte	0x12a7
 8580 2996 A8290000 		.4byte	0x29a8
 8581 299a 37       		.uleb128 0x37
 8582 299b 01       		.uleb128 0x1
 8583 299c 53       		.byte	0x53
 8584 299d 03       		.uleb128 0x3
 8585 299e 91       		.byte	0x91
 8586 299f C87C     		.sleb128 -440
 8587 29a1 37       		.uleb128 0x37
 8588 29a2 01       		.uleb128 0x1
 8589 29a3 50       		.byte	0x50
 8590 29a4 02       		.uleb128 0x2
 8591 29a5 76       		.byte	0x76
 8592 29a6 00       		.sleb128 0
 8593 29a7 00       		.byte	0
 8594 29a8 3F       		.uleb128 0x3f
 8595 29a9 80010000 		.4byte	.LVL292
 8596 29ad FA310000 		.4byte	0x31fa
 8597 29b1 C9290000 		.4byte	0x29c9
 8598 29b5 37       		.uleb128 0x37
 8599 29b6 01       		.uleb128 0x1
 8600 29b7 52       		.byte	0x52
 8601 29b8 01       		.uleb128 0x1
 8602 29b9 3E       		.byte	0x3e
 8603 29ba 37       		.uleb128 0x37
 8604 29bb 01       		.uleb128 0x1
 8605 29bc 51       		.byte	0x51
 8606 29bd 03       		.uleb128 0x3
 8607 29be 91       		.byte	0x91
 8608 29bf C87C     		.sleb128 -440
 8609 29c1 37       		.uleb128 0x37
 8610 29c2 01       		.uleb128 0x1
 8611 29c3 50       		.byte	0x50
 8612 29c4 03       		.uleb128 0x3
 8613 29c5 91       		.byte	0x91
 8614 29c6 B07C     		.sleb128 -464
 8615 29c8 00       		.byte	0
 8616 29c9 3F       		.uleb128 0x3f
 8617 29ca AC010000 		.4byte	.LVL295
 8618 29ce 6F150000 		.4byte	0x156f
 8619 29d2 E5290000 		.4byte	0x29e5
ARM GAS  C:\Users\AHMED~1.ELE\AppData\Local\Temp\ccaBET3e.s 			page 197


 8620 29d6 37       		.uleb128 0x37
 8621 29d7 01       		.uleb128 0x1
 8622 29d8 52       		.byte	0x52
 8623 29d9 03       		.uleb128 0x3
 8624 29da 91       		.byte	0x91
 8625 29db 9C7C     		.sleb128 -484
 8626 29dd 37       		.uleb128 0x37
 8627 29de 01       		.uleb128 0x1
 8628 29df 50       		.byte	0x50
 8629 29e0 03       		.uleb128 0x3
 8630 29e1 91       		.byte	0x91
 8631 29e2 807C     		.sleb128 -512
 8632 29e4 00       		.byte	0
 8633 29e5 3F       		.uleb128 0x3f
 8634 29e6 C2010000 		.4byte	.LVL296
 8635 29ea A7120000 		.4byte	0x12a7
 8636 29ee 002A0000 		.4byte	0x2a00
 8637 29f2 37       		.uleb128 0x37
 8638 29f3 01       		.uleb128 0x1
 8639 29f4 53       		.byte	0x53
 8640 29f5 03       		.uleb128 0x3
 8641 29f6 91       		.byte	0x91
 8642 29f7 887D     		.sleb128 -376
 8643 29f9 37       		.uleb128 0x37
 8644 29fa 01       		.uleb128 0x1
 8645 29fb 50       		.byte	0x50
 8646 29fc 02       		.uleb128 0x2
 8647 29fd 76       		.byte	0x76
 8648 29fe 00       		.sleb128 0
 8649 29ff 00       		.byte	0
 8650 2a00 36       		.uleb128 0x36
 8651 2a01 CC010000 		.4byte	.LVL297
 8652 2a05 FA310000 		.4byte	0x31fa
 8653 2a09 37       		.uleb128 0x37
 8654 2a0a 01       		.uleb128 0x1
 8655 2a0b 52       		.byte	0x52
 8656 2a0c 01       		.uleb128 0x1
 8657 2a0d 3E       		.byte	0x3e
 8658 2a0e 37       		.uleb128 0x37
 8659 2a0f 01       		.uleb128 0x1
 8660 2a10 51       		.byte	0x51
 8661 2a11 03       		.uleb128 0x3
 8662 2a12 91       		.byte	0x91
 8663 2a13 887D     		.sleb128 -376
 8664 2a15 37       		.uleb128 0x37
 8665 2a16 01       		.uleb128 0x1
 8666 2a17 50       		.byte	0x50
 8667 2a18 03       		.uleb128 0x3
 8668 2a19 91       		.byte	0x91
 8669 2a1a B07C     		.sleb128 -464
 8670 2a1c 00       		.byte	0
 8671 2a1d 00       		.byte	0
 8672 2a1e 00       		.byte	0
 8673 2a1f 41       		.uleb128 0x41
 8674 2a20 7C250000 		.4byte	0x257c
 8675 2a24 28020000 		.4byte	.LBB90
 8676 2a28 D0000000 		.4byte	.Ldebug_ranges0+0xd0
ARM GAS  C:\Users\AHMED~1.ELE\AppData\Local\Temp\ccaBET3e.s 			page 198


 8677 2a2c 01       		.byte	0x1
 8678 2a2d 6A06     		.2byte	0x66a
 8679 2a2f 182B0000 		.4byte	0x2b18
 8680 2a33 3A       		.uleb128 0x3a
 8681 2a34 A5250000 		.4byte	0x25a5
 8682 2a38 F5190000 		.4byte	.LLST119
 8683 2a3c 3A       		.uleb128 0x3a
 8684 2a3d 99250000 		.4byte	0x2599
 8685 2a41 3A1A0000 		.4byte	.LLST120
 8686 2a45 3A       		.uleb128 0x3a
 8687 2a46 8D250000 		.4byte	0x258d
 8688 2a4a 581A0000 		.4byte	.LLST121
 8689 2a4e 42       		.uleb128 0x42
 8690 2a4f D0000000 		.4byte	.Ldebug_ranges0+0xd0
 8691 2a53 3C       		.uleb128 0x3c
 8692 2a54 B1250000 		.4byte	0x25b1
 8693 2a58 03       		.uleb128 0x3
 8694 2a59 91       		.byte	0x91
 8695 2a5a FC7B     		.sleb128 -516
 8696 2a5c 3C       		.uleb128 0x3c
 8697 2a5d BB250000 		.4byte	0x25bb
 8698 2a61 03       		.uleb128 0x3
 8699 2a62 91       		.byte	0x91
 8700 2a63 807C     		.sleb128 -512
 8701 2a65 3C       		.uleb128 0x3c
 8702 2a66 C7250000 		.4byte	0x25c7
 8703 2a6a 03       		.uleb128 0x3
 8704 2a6b 91       		.byte	0x91
 8705 2a6c 847C     		.sleb128 -508
 8706 2a6e 3D       		.uleb128 0x3d
 8707 2a6f D3250000 		.4byte	0x25d3
 8708 2a73 C71A0000 		.4byte	.LLST122
 8709 2a77 3C       		.uleb128 0x3c
 8710 2a78 DF250000 		.4byte	0x25df
 8711 2a7c 03       		.uleb128 0x3
 8712 2a7d 91       		.byte	0x91
 8713 2a7e B07C     		.sleb128 -464
 8714 2a80 3C       		.uleb128 0x3c
 8715 2a81 EB250000 		.4byte	0x25eb
 8716 2a85 03       		.uleb128 0x3
 8717 2a86 91       		.byte	0x91
 8718 2a87 C87C     		.sleb128 -440
 8719 2a89 3C       		.uleb128 0x3c
 8720 2a8a F7250000 		.4byte	0x25f7
 8721 2a8e 03       		.uleb128 0x3
 8722 2a8f 91       		.byte	0x91
 8723 2a90 887D     		.sleb128 -376
 8724 2a92 3D       		.uleb128 0x3d
 8725 2a93 03260000 		.4byte	0x2603
 8726 2a97 FE1A0000 		.4byte	.LLST123
 8727 2a9b 3F       		.uleb128 0x3f
 8728 2a9c 4C020000 		.4byte	.LVL313
 8729 2aa0 6F150000 		.4byte	0x156f
 8730 2aa4 BC2A0000 		.4byte	0x2abc
 8731 2aa8 37       		.uleb128 0x37
 8732 2aa9 01       		.uleb128 0x1
 8733 2aaa 52       		.byte	0x52
ARM GAS  C:\Users\AHMED~1.ELE\AppData\Local\Temp\ccaBET3e.s 			page 199


 8734 2aab 03       		.uleb128 0x3
 8735 2aac 91       		.byte	0x91
 8736 2aad 847C     		.sleb128 -508
 8737 2aaf 37       		.uleb128 0x37
 8738 2ab0 01       		.uleb128 0x1
 8739 2ab1 51       		.byte	0x51
 8740 2ab2 02       		.uleb128 0x2
 8741 2ab3 7B       		.byte	0x7b
 8742 2ab4 7F       		.sleb128 -1
 8743 2ab5 37       		.uleb128 0x37
 8744 2ab6 01       		.uleb128 0x1
 8745 2ab7 50       		.byte	0x50
 8746 2ab8 02       		.uleb128 0x2
 8747 2ab9 76       		.byte	0x76
 8748 2aba 00       		.sleb128 0
 8749 2abb 00       		.byte	0
 8750 2abc 3F       		.uleb128 0x3f
 8751 2abd 74020000 		.4byte	.LVL318
 8752 2ac1 8C160000 		.4byte	0x168c
 8753 2ac5 D72A0000 		.4byte	0x2ad7
 8754 2ac9 37       		.uleb128 0x37
 8755 2aca 01       		.uleb128 0x1
 8756 2acb 52       		.byte	0x52
 8757 2acc 03       		.uleb128 0x3
 8758 2acd 91       		.byte	0x91
 8759 2ace B07C     		.sleb128 -464
 8760 2ad0 37       		.uleb128 0x37
 8761 2ad1 01       		.uleb128 0x1
 8762 2ad2 50       		.byte	0x50
 8763 2ad3 02       		.uleb128 0x2
 8764 2ad4 76       		.byte	0x76
 8765 2ad5 00       		.sleb128 0
 8766 2ad6 00       		.byte	0
 8767 2ad7 3F       		.uleb128 0x3f
 8768 2ad8 86020000 		.4byte	.LVL319
 8769 2adc 3E1B0000 		.4byte	0x1b3e
 8770 2ae0 F92A0000 		.4byte	0x2af9
 8771 2ae4 37       		.uleb128 0x37
 8772 2ae5 01       		.uleb128 0x1
 8773 2ae6 53       		.byte	0x53
 8774 2ae7 03       		.uleb128 0x3
 8775 2ae8 91       		.byte	0x91
 8776 2ae9 C87C     		.sleb128 -440
 8777 2aeb 37       		.uleb128 0x37
 8778 2aec 01       		.uleb128 0x1
 8779 2aed 52       		.byte	0x52
 8780 2aee 03       		.uleb128 0x3
 8781 2aef 74       		.byte	0x74
 8782 2af0 9005     		.sleb128 656
 8783 2af2 37       		.uleb128 0x37
 8784 2af3 01       		.uleb128 0x1
 8785 2af4 50       		.byte	0x50
 8786 2af5 02       		.uleb128 0x2
 8787 2af6 76       		.byte	0x76
 8788 2af7 00       		.sleb128 0
 8789 2af8 00       		.byte	0
 8790 2af9 36       		.uleb128 0x36
ARM GAS  C:\Users\AHMED~1.ELE\AppData\Local\Temp\ccaBET3e.s 			page 200


 8791 2afa 9A020000 		.4byte	.LVL321
 8792 2afe 3E1B0000 		.4byte	0x1b3e
 8793 2b02 37       		.uleb128 0x37
 8794 2b03 01       		.uleb128 0x1
 8795 2b04 53       		.byte	0x53
 8796 2b05 03       		.uleb128 0x3
 8797 2b06 91       		.byte	0x91
 8798 2b07 887D     		.sleb128 -376
 8799 2b09 37       		.uleb128 0x37
 8800 2b0a 01       		.uleb128 0x1
 8801 2b0b 52       		.byte	0x52
 8802 2b0c 02       		.uleb128 0x2
 8803 2b0d 7B       		.byte	0x7b
 8804 2b0e 00       		.sleb128 0
 8805 2b0f 37       		.uleb128 0x37
 8806 2b10 01       		.uleb128 0x1
 8807 2b11 50       		.byte	0x50
 8808 2b12 02       		.uleb128 0x2
 8809 2b13 76       		.byte	0x76
 8810 2b14 00       		.sleb128 0
 8811 2b15 00       		.byte	0
 8812 2b16 00       		.byte	0
 8813 2b17 00       		.byte	0
 8814 2b18 39       		.uleb128 0x39
 8815 2b19 ED110000 		.4byte	0x11ed
 8816 2b1d 00030000 		.4byte	.LBB96
 8817 2b21 92020000 		.4byte	.LBE96-.LBB96
 8818 2b25 01       		.byte	0x1
 8819 2b26 7206     		.2byte	0x672
 8820 2b28 5C2D0000 		.4byte	0x2d5c
 8821 2b2c 3A       		.uleb128 0x3a
 8822 2b2d 16120000 		.4byte	0x1216
 8823 2b31 111B0000 		.4byte	.LLST124
 8824 2b35 3A       		.uleb128 0x3a
 8825 2b36 22120000 		.4byte	0x1222
 8826 2b3a 251B0000 		.4byte	.LLST125
 8827 2b3e 3A       		.uleb128 0x3a
 8828 2b3f 0A120000 		.4byte	0x120a
 8829 2b43 381B0000 		.4byte	.LLST126
 8830 2b47 3A       		.uleb128 0x3a
 8831 2b48 FE110000 		.4byte	0x11fe
 8832 2b4c 7D1B0000 		.4byte	.LLST127
 8833 2b50 3B       		.uleb128 0x3b
 8834 2b51 00030000 		.4byte	.LBB97
 8835 2b55 92020000 		.4byte	.LBE97-.LBB97
 8836 2b59 3C       		.uleb128 0x3c
 8837 2b5a 2E120000 		.4byte	0x122e
 8838 2b5e 03       		.uleb128 0x3
 8839 2b5f 91       		.byte	0x91
 8840 2b60 807C     		.sleb128 -512
 8841 2b62 3D       		.uleb128 0x3d
 8842 2b63 38120000 		.4byte	0x1238
 8843 2b67 931B0000 		.4byte	.LLST128
 8844 2b6b 3D       		.uleb128 0x3d
 8845 2b6c 44120000 		.4byte	0x1244
 8846 2b70 A61B0000 		.4byte	.LLST129
 8847 2b74 3C       		.uleb128 0x3c
ARM GAS  C:\Users\AHMED~1.ELE\AppData\Local\Temp\ccaBET3e.s 			page 201


 8848 2b75 50120000 		.4byte	0x1250
 8849 2b79 03       		.uleb128 0x3
 8850 2b7a 91       		.byte	0x91
 8851 2b7b 847C     		.sleb128 -508
 8852 2b7d 3D       		.uleb128 0x3d
 8853 2b7e 5C120000 		.4byte	0x125c
 8854 2b82 B91B0000 		.4byte	.LLST130
 8855 2b86 3D       		.uleb128 0x3d
 8856 2b87 68120000 		.4byte	0x1268
 8857 2b8b F01B0000 		.4byte	.LLST131
 8858 2b8f 3C       		.uleb128 0x3c
 8859 2b90 74120000 		.4byte	0x1274
 8860 2b94 03       		.uleb128 0x3
 8861 2b95 91       		.byte	0x91
 8862 2b96 B07C     		.sleb128 -464
 8863 2b98 3D       		.uleb128 0x3d
 8864 2b99 80120000 		.4byte	0x1280
 8865 2b9d 031C0000 		.4byte	.LLST132
 8866 2ba1 39       		.uleb128 0x39
 8867 2ba2 10260000 		.4byte	0x2610
 8868 2ba6 14040000 		.4byte	.LBB98
 8869 2baa 38000000 		.4byte	.LBE98-.LBB98
 8870 2bae 01       		.byte	0x1
 8871 2baf DD02     		.2byte	0x2dd
 8872 2bb1 052C0000 		.4byte	0x2c05
 8873 2bb5 3A       		.uleb128 0x3a
 8874 2bb6 39260000 		.4byte	0x2639
 8875 2bba 331C0000 		.4byte	.LLST133
 8876 2bbe 3A       		.uleb128 0x3a
 8877 2bbf 2D260000 		.4byte	0x262d
 8878 2bc3 4B1C0000 		.4byte	.LLST134
 8879 2bc7 3A       		.uleb128 0x3a
 8880 2bc8 21260000 		.4byte	0x2621
 8881 2bcc 6B1C0000 		.4byte	.LLST135
 8882 2bd0 3B       		.uleb128 0x3b
 8883 2bd1 14040000 		.4byte	.LBB99
 8884 2bd5 38000000 		.4byte	.LBE99-.LBB99
 8885 2bd9 3C       		.uleb128 0x3c
 8886 2bda 45260000 		.4byte	0x2645
 8887 2bde 03       		.uleb128 0x3
 8888 2bdf 91       		.byte	0x91
 8889 2be0 C87C     		.sleb128 -440
 8890 2be2 3C       		.uleb128 0x3c
 8891 2be3 4F260000 		.4byte	0x264f
 8892 2be7 03       		.uleb128 0x3
 8893 2be8 91       		.byte	0x91
 8894 2be9 887D     		.sleb128 -376
 8895 2beb 36       		.uleb128 0x36
 8896 2bec 32040000 		.4byte	.LVL349
 8897 2bf0 6F150000 		.4byte	0x156f
 8898 2bf4 37       		.uleb128 0x37
 8899 2bf5 01       		.uleb128 0x1
 8900 2bf6 52       		.byte	0x52
 8901 2bf7 03       		.uleb128 0x3
 8902 2bf8 91       		.byte	0x91
 8903 2bf9 887D     		.sleb128 -376
 8904 2bfb 37       		.uleb128 0x37
ARM GAS  C:\Users\AHMED~1.ELE\AppData\Local\Temp\ccaBET3e.s 			page 202


 8905 2bfc 01       		.uleb128 0x1
 8906 2bfd 50       		.byte	0x50
 8907 2bfe 03       		.uleb128 0x3
 8908 2bff 91       		.byte	0x91
 8909 2c00 C87C     		.sleb128 -440
 8910 2c02 00       		.byte	0
 8911 2c03 00       		.byte	0
 8912 2c04 00       		.byte	0
 8913 2c05 4D       		.uleb128 0x4d
 8914 2c06 F0000000 		.4byte	.Ldebug_ranges0+0xf0
 8915 2c0a 322C0000 		.4byte	0x2c32
 8916 2c0e 3D       		.uleb128 0x3d
 8917 2c0f 8D120000 		.4byte	0x128d
 8918 2c13 7E1C0000 		.4byte	.LLST136
 8919 2c17 4E       		.uleb128 0x4e
 8920 2c18 5C260000 		.4byte	0x265c
 8921 2c1c 1A050000 		.4byte	.LBB101
 8922 2c20 10010000 		.4byte	.Ldebug_ranges0+0x110
 8923 2c24 01       		.byte	0x1
 8924 2c25 C003     		.2byte	0x3c0
 8925 2c27 3A       		.uleb128 0x3a
 8926 2c28 6C260000 		.4byte	0x266c
 8927 2c2c B41C0000 		.4byte	.LLST137
 8928 2c30 00       		.byte	0
 8929 2c31 00       		.byte	0
 8930 2c32 3F       		.uleb128 0x3f
 8931 2c33 1E030000 		.4byte	.LVL336
 8932 2c37 6F150000 		.4byte	0x156f
 8933 2c3b 4D2C0000 		.4byte	0x2c4d
 8934 2c3f 37       		.uleb128 0x37
 8935 2c40 01       		.uleb128 0x1
 8936 2c41 52       		.byte	0x52
 8937 2c42 03       		.uleb128 0x3
 8938 2c43 91       		.byte	0x91
 8939 2c44 847C     		.sleb128 -508
 8940 2c46 37       		.uleb128 0x37
 8941 2c47 01       		.uleb128 0x1
 8942 2c48 50       		.byte	0x50
 8943 2c49 02       		.uleb128 0x2
 8944 2c4a 7B       		.byte	0x7b
 8945 2c4b 00       		.sleb128 0
 8946 2c4c 00       		.byte	0
 8947 2c4d 3F       		.uleb128 0x3f
 8948 2c4e 36030000 		.4byte	.LVL337
 8949 2c52 8C160000 		.4byte	0x168c
 8950 2c56 682C0000 		.4byte	0x2c68
 8951 2c5a 37       		.uleb128 0x37
 8952 2c5b 01       		.uleb128 0x1
 8953 2c5c 52       		.byte	0x52
 8954 2c5d 03       		.uleb128 0x3
 8955 2c5e 91       		.byte	0x91
 8956 2c5f 847C     		.sleb128 -508
 8957 2c61 37       		.uleb128 0x37
 8958 2c62 01       		.uleb128 0x1
 8959 2c63 50       		.byte	0x50
 8960 2c64 02       		.uleb128 0x2
 8961 2c65 7B       		.byte	0x7b
ARM GAS  C:\Users\AHMED~1.ELE\AppData\Local\Temp\ccaBET3e.s 			page 203


 8962 2c66 00       		.sleb128 0
 8963 2c67 00       		.byte	0
 8964 2c68 3F       		.uleb128 0x3f
 8965 2c69 5C030000 		.4byte	.LVL339
 8966 2c6d 8C160000 		.4byte	0x168c
 8967 2c71 832C0000 		.4byte	0x2c83
 8968 2c75 37       		.uleb128 0x37
 8969 2c76 01       		.uleb128 0x1
 8970 2c77 52       		.byte	0x52
 8971 2c78 03       		.uleb128 0x3
 8972 2c79 91       		.byte	0x91
 8973 2c7a 847C     		.sleb128 -508
 8974 2c7c 37       		.uleb128 0x37
 8975 2c7d 01       		.uleb128 0x1
 8976 2c7e 50       		.byte	0x50
 8977 2c7f 02       		.uleb128 0x2
 8978 2c80 7B       		.byte	0x7b
 8979 2c81 00       		.sleb128 0
 8980 2c82 00       		.byte	0
 8981 2c83 3F       		.uleb128 0x3f
 8982 2c84 7C030000 		.4byte	.LVL341
 8983 2c88 6F150000 		.4byte	0x156f
 8984 2c8c 9E2C0000 		.4byte	0x2c9e
 8985 2c90 37       		.uleb128 0x37
 8986 2c91 01       		.uleb128 0x1
 8987 2c92 52       		.byte	0x52
 8988 2c93 03       		.uleb128 0x3
 8989 2c94 91       		.byte	0x91
 8990 2c95 847C     		.sleb128 -508
 8991 2c97 37       		.uleb128 0x37
 8992 2c98 01       		.uleb128 0x1
 8993 2c99 50       		.byte	0x50
 8994 2c9a 02       		.uleb128 0x2
 8995 2c9b 7B       		.byte	0x7b
 8996 2c9c 00       		.sleb128 0
 8997 2c9d 00       		.byte	0
 8998 2c9e 3F       		.uleb128 0x3f
 8999 2c9f 96030000 		.4byte	.LVL342
 9000 2ca3 1F150000 		.4byte	0x151f
 9001 2ca7 BC2C0000 		.4byte	0x2cbc
 9002 2cab 37       		.uleb128 0x37
 9003 2cac 01       		.uleb128 0x1
 9004 2cad 51       		.byte	0x51
 9005 2cae 04       		.uleb128 0x4
 9006 2caf 91       		.byte	0x91
 9007 2cb0 D87B     		.sleb128 -552
 9008 2cb2 06       		.byte	0x6
 9009 2cb3 37       		.uleb128 0x37
 9010 2cb4 01       		.uleb128 0x1
 9011 2cb5 50       		.byte	0x50
 9012 2cb6 04       		.uleb128 0x4
 9013 2cb7 91       		.byte	0x91
 9014 2cb8 DC7B     		.sleb128 -548
 9015 2cba 06       		.byte	0x6
 9016 2cbb 00       		.byte	0
 9017 2cbc 3F       		.uleb128 0x3f
 9018 2cbd D4030000 		.4byte	.LVL345
ARM GAS  C:\Users\AHMED~1.ELE\AppData\Local\Temp\ccaBET3e.s 			page 204


 9019 2cc1 6F150000 		.4byte	0x156f
 9020 2cc5 D72C0000 		.4byte	0x2cd7
 9021 2cc9 37       		.uleb128 0x37
 9022 2cca 01       		.uleb128 0x1
 9023 2ccb 52       		.byte	0x52
 9024 2ccc 03       		.uleb128 0x3
 9025 2ccd 91       		.byte	0x91
 9026 2cce 847C     		.sleb128 -508
 9027 2cd0 37       		.uleb128 0x37
 9028 2cd1 01       		.uleb128 0x1
 9029 2cd2 50       		.byte	0x50
 9030 2cd3 02       		.uleb128 0x2
 9031 2cd4 7B       		.byte	0x7b
 9032 2cd5 00       		.sleb128 0
 9033 2cd6 00       		.byte	0
 9034 2cd7 3F       		.uleb128 0x3f
 9035 2cd8 08040000 		.4byte	.LVL346
 9036 2cdc 8C160000 		.4byte	0x168c
 9037 2ce0 F22C0000 		.4byte	0x2cf2
 9038 2ce4 37       		.uleb128 0x37
 9039 2ce5 01       		.uleb128 0x1
 9040 2ce6 52       		.byte	0x52
 9041 2ce7 03       		.uleb128 0x3
 9042 2ce8 91       		.byte	0x91
 9043 2ce9 847C     		.sleb128 -508
 9044 2ceb 37       		.uleb128 0x37
 9045 2cec 01       		.uleb128 0x1
 9046 2ced 50       		.byte	0x50
 9047 2cee 02       		.uleb128 0x2
 9048 2cef 7B       		.byte	0x7b
 9049 2cf0 00       		.sleb128 0
 9050 2cf1 00       		.byte	0
 9051 2cf2 3F       		.uleb128 0x3f
 9052 2cf3 70040000 		.4byte	.LVL353
 9053 2cf7 EA150000 		.4byte	0x15ea
 9054 2cfb 0D2D0000 		.4byte	0x2d0d
 9055 2cff 37       		.uleb128 0x37
 9056 2d00 01       		.uleb128 0x1
 9057 2d01 52       		.byte	0x52
 9058 2d02 03       		.uleb128 0x3
 9059 2d03 91       		.byte	0x91
 9060 2d04 B07C     		.sleb128 -464
 9061 2d06 37       		.uleb128 0x37
 9062 2d07 01       		.uleb128 0x1
 9063 2d08 50       		.byte	0x50
 9064 2d09 02       		.uleb128 0x2
 9065 2d0a 7B       		.byte	0x7b
 9066 2d0b 00       		.sleb128 0
 9067 2d0c 00       		.byte	0
 9068 2d0d 3F       		.uleb128 0x3f
 9069 2d0e 88040000 		.4byte	.LVL356
 9070 2d12 8C160000 		.4byte	0x168c
 9071 2d16 282D0000 		.4byte	0x2d28
 9072 2d1a 37       		.uleb128 0x37
 9073 2d1b 01       		.uleb128 0x1
 9074 2d1c 52       		.byte	0x52
 9075 2d1d 03       		.uleb128 0x3
ARM GAS  C:\Users\AHMED~1.ELE\AppData\Local\Temp\ccaBET3e.s 			page 205


 9076 2d1e 91       		.byte	0x91
 9077 2d1f 847C     		.sleb128 -508
 9078 2d21 37       		.uleb128 0x37
 9079 2d22 01       		.uleb128 0x1
 9080 2d23 50       		.byte	0x50
 9081 2d24 02       		.uleb128 0x2
 9082 2d25 7B       		.byte	0x7b
 9083 2d26 00       		.sleb128 0
 9084 2d27 00       		.byte	0
 9085 2d28 3F       		.uleb128 0x3f
 9086 2d29 D8040000 		.4byte	.LVL359
 9087 2d2d 6F150000 		.4byte	0x156f
 9088 2d31 432D0000 		.4byte	0x2d43
 9089 2d35 37       		.uleb128 0x37
 9090 2d36 01       		.uleb128 0x1
 9091 2d37 52       		.byte	0x52
 9092 2d38 03       		.uleb128 0x3
 9093 2d39 91       		.byte	0x91
 9094 2d3a 847C     		.sleb128 -508
 9095 2d3c 37       		.uleb128 0x37
 9096 2d3d 01       		.uleb128 0x1
 9097 2d3e 50       		.byte	0x50
 9098 2d3f 02       		.uleb128 0x2
 9099 2d40 7B       		.byte	0x7b
 9100 2d41 00       		.sleb128 0
 9101 2d42 00       		.byte	0
 9102 2d43 36       		.uleb128 0x36
 9103 2d44 76050000 		.4byte	.LVL375
 9104 2d48 6F150000 		.4byte	0x156f
 9105 2d4c 37       		.uleb128 0x37
 9106 2d4d 01       		.uleb128 0x1
 9107 2d4e 52       		.byte	0x52
 9108 2d4f 03       		.uleb128 0x3
 9109 2d50 91       		.byte	0x91
 9110 2d51 847C     		.sleb128 -508
 9111 2d53 37       		.uleb128 0x37
 9112 2d54 01       		.uleb128 0x1
 9113 2d55 50       		.byte	0x50
 9114 2d56 02       		.uleb128 0x2
 9115 2d57 7B       		.byte	0x7b
 9116 2d58 00       		.sleb128 0
 9117 2d59 00       		.byte	0
 9118 2d5a 00       		.byte	0
 9119 2d5b 00       		.byte	0
 9120 2d5c 39       		.uleb128 0x39
 9121 2d5d 76260000 		.4byte	0x2676
 9122 2d61 B8050000 		.4byte	.LBB111
 9123 2d65 0A000000 		.4byte	.LBE111-.LBB111
 9124 2d69 01       		.byte	0x1
 9125 2d6a 7F06     		.2byte	0x67f
 9126 2d6c A02D0000 		.4byte	0x2da0
 9127 2d70 3A       		.uleb128 0x3a
 9128 2d71 92260000 		.4byte	0x2692
 9129 2d75 171D0000 		.4byte	.LLST138
 9130 2d79 3A       		.uleb128 0x3a
 9131 2d7a 87260000 		.4byte	0x2687
 9132 2d7e 461D0000 		.4byte	.LLST139
ARM GAS  C:\Users\AHMED~1.ELE\AppData\Local\Temp\ccaBET3e.s 			page 206


 9133 2d82 36       		.uleb128 0x36
 9134 2d83 C2050000 		.4byte	.LVL383
 9135 2d87 FA310000 		.4byte	0x31fa
 9136 2d8b 37       		.uleb128 0x37
 9137 2d8c 01       		.uleb128 0x1
 9138 2d8d 52       		.byte	0x52
 9139 2d8e 01       		.uleb128 0x1
 9140 2d8f 44       		.byte	0x44
 9141 2d90 37       		.uleb128 0x37
 9142 2d91 01       		.uleb128 0x1
 9143 2d92 51       		.byte	0x51
 9144 2d93 03       		.uleb128 0x3
 9145 2d94 91       		.byte	0x91
 9146 2d95 9C7C     		.sleb128 -484
 9147 2d97 37       		.uleb128 0x37
 9148 2d98 01       		.uleb128 0x1
 9149 2d99 50       		.byte	0x50
 9150 2d9a 03       		.uleb128 0x3
 9151 2d9b 91       		.byte	0x91
 9152 2d9c 887C     		.sleb128 -504
 9153 2d9e 00       		.byte	0
 9154 2d9f 00       		.byte	0
 9155 2da0 41       		.uleb128 0x41
 9156 2da1 73130000 		.4byte	0x1373
 9157 2da5 12060000 		.4byte	.LBB113
 9158 2da9 38010000 		.4byte	.Ldebug_ranges0+0x138
 9159 2dad 01       		.byte	0x1
 9160 2dae 9006     		.2byte	0x690
 9161 2db0 602E0000 		.4byte	0x2e60
 9162 2db4 3A       		.uleb128 0x3a
 9163 2db5 9C130000 		.4byte	0x139c
 9164 2db9 751D0000 		.4byte	.LLST140
 9165 2dbd 3A       		.uleb128 0x3a
 9166 2dbe 90130000 		.4byte	0x1390
 9167 2dc2 8D1D0000 		.4byte	.LLST141
 9168 2dc6 3A       		.uleb128 0x3a
 9169 2dc7 84130000 		.4byte	0x1384
 9170 2dcb B81D0000 		.4byte	.LLST142
 9171 2dcf 42       		.uleb128 0x42
 9172 2dd0 38010000 		.4byte	.Ldebug_ranges0+0x138
 9173 2dd4 3C       		.uleb128 0x3c
 9174 2dd5 A8130000 		.4byte	0x13a8
 9175 2dd9 03       		.uleb128 0x3
 9176 2dda 91       		.byte	0x91
 9177 2ddb FC7B     		.sleb128 -516
 9178 2ddd 3D       		.uleb128 0x3d
 9179 2dde B2130000 		.4byte	0x13b2
 9180 2de2 CE1D0000 		.4byte	.LLST143
 9181 2de6 3D       		.uleb128 0x3d
 9182 2de7 BE130000 		.4byte	0x13be
 9183 2deb 101E0000 		.4byte	.LLST144
 9184 2def 3C       		.uleb128 0x3c
 9185 2df0 CA130000 		.4byte	0x13ca
 9186 2df4 03       		.uleb128 0x3
 9187 2df5 91       		.byte	0x91
 9188 2df6 807C     		.sleb128 -512
 9189 2df8 3C       		.uleb128 0x3c
ARM GAS  C:\Users\AHMED~1.ELE\AppData\Local\Temp\ccaBET3e.s 			page 207


 9190 2df9 D6130000 		.4byte	0x13d6
 9191 2dfd 03       		.uleb128 0x3
 9192 2dfe 91       		.byte	0x91
 9193 2dff 847C     		.sleb128 -508
 9194 2e01 3F       		.uleb128 0x3f
 9195 2e02 2E060000 		.4byte	.LVL397
 9196 2e06 6F150000 		.4byte	0x156f
 9197 2e0a 1C2E0000 		.4byte	0x2e1c
 9198 2e0e 37       		.uleb128 0x37
 9199 2e0f 01       		.uleb128 0x1
 9200 2e10 52       		.byte	0x52
 9201 2e11 02       		.uleb128 0x2
 9202 2e12 7B       		.byte	0x7b
 9203 2e13 00       		.sleb128 0
 9204 2e14 37       		.uleb128 0x37
 9205 2e15 01       		.uleb128 0x1
 9206 2e16 50       		.byte	0x50
 9207 2e17 03       		.uleb128 0x3
 9208 2e18 91       		.byte	0x91
 9209 2e19 FC7B     		.sleb128 -516
 9210 2e1b 00       		.byte	0
 9211 2e1c 3F       		.uleb128 0x3f
 9212 2e1d 54060000 		.4byte	.LVL403
 9213 2e21 63310000 		.4byte	0x3163
 9214 2e25 3F2E0000 		.4byte	0x2e3f
 9215 2e29 37       		.uleb128 0x37
 9216 2e2a 01       		.uleb128 0x1
 9217 2e2b 52       		.byte	0x52
 9218 2e2c 01       		.uleb128 0x1
 9219 2e2d 34       		.byte	0x34
 9220 2e2e 37       		.uleb128 0x37
 9221 2e2f 01       		.uleb128 0x1
 9222 2e30 51       		.byte	0x51
 9223 2e31 03       		.uleb128 0x3
 9224 2e32 91       		.byte	0x91
 9225 2e33 847C     		.sleb128 -508
 9226 2e35 37       		.uleb128 0x37
 9227 2e36 01       		.uleb128 0x1
 9228 2e37 50       		.byte	0x50
 9229 2e38 05       		.uleb128 0x5
 9230 2e39 03       		.byte	0x3
 9231 2e3a 00000000 		.4byte	.LANCHOR0
 9232 2e3e 00       		.byte	0
 9233 2e3f 36       		.uleb128 0x36
 9234 2e40 5E060000 		.4byte	.LVL404
 9235 2e44 63310000 		.4byte	0x3163
 9236 2e48 37       		.uleb128 0x37
 9237 2e49 01       		.uleb128 0x1
 9238 2e4a 52       		.byte	0x52
 9239 2e4b 02       		.uleb128 0x2
 9240 2e4c 75       		.byte	0x75
 9241 2e4d 00       		.sleb128 0
 9242 2e4e 37       		.uleb128 0x37
 9243 2e4f 01       		.uleb128 0x1
 9244 2e50 51       		.byte	0x51
 9245 2e51 02       		.uleb128 0x2
 9246 2e52 76       		.byte	0x76
ARM GAS  C:\Users\AHMED~1.ELE\AppData\Local\Temp\ccaBET3e.s 			page 208


 9247 2e53 00       		.sleb128 0
 9248 2e54 37       		.uleb128 0x37
 9249 2e55 01       		.uleb128 0x1
 9250 2e56 50       		.byte	0x50
 9251 2e57 05       		.uleb128 0x5
 9252 2e58 03       		.byte	0x3
 9253 2e59 04000000 		.4byte	.LANCHOR0+4
 9254 2e5d 00       		.byte	0
 9255 2e5e 00       		.byte	0
 9256 2e5f 00       		.byte	0
 9257 2e60 4D       		.uleb128 0x4d
 9258 2e61 60010000 		.4byte	.Ldebug_ranges0+0x160
 9259 2e65 932E0000 		.4byte	0x2e93
 9260 2e69 38       		.uleb128 0x38
 9261 2e6a 3F0C0000 		.4byte	.LASF685
 9262 2e6e 01       		.byte	0x1
 9263 2e6f 9406     		.2byte	0x694
 9264 2e71 A7000000 		.4byte	0xa7
 9265 2e75 471E0000 		.4byte	.LLST145
 9266 2e79 36       		.uleb128 0x36
 9267 2e7a 86060000 		.4byte	.LVL406
 9268 2e7e 63310000 		.4byte	0x3163
 9269 2e82 37       		.uleb128 0x37
 9270 2e83 01       		.uleb128 0x1
 9271 2e84 51       		.byte	0x51
 9272 2e85 05       		.uleb128 0x5
 9273 2e86 03       		.byte	0x3
 9274 2e87 04000000 		.4byte	.LANCHOR0+4
 9275 2e8b 37       		.uleb128 0x37
 9276 2e8c 01       		.uleb128 0x1
 9277 2e8d 50       		.byte	0x50
 9278 2e8e 02       		.uleb128 0x2
 9279 2e8f 74       		.byte	0x74
 9280 2e90 08       		.sleb128 8
 9281 2e91 00       		.byte	0
 9282 2e92 00       		.byte	0
 9283 2e93 3F       		.uleb128 0x3f
 9284 2e94 3A000000 		.4byte	.LVL256
 9285 2e98 DD310000 		.4byte	0x31dd
 9286 2e9c B42E0000 		.4byte	0x2eb4
 9287 2ea0 37       		.uleb128 0x37
 9288 2ea1 01       		.uleb128 0x1
 9289 2ea2 52       		.byte	0x52
 9290 2ea3 03       		.uleb128 0x3
 9291 2ea4 0A       		.byte	0xa
 9292 2ea5 9404     		.2byte	0x494
 9293 2ea7 37       		.uleb128 0x37
 9294 2ea8 01       		.uleb128 0x1
 9295 2ea9 51       		.byte	0x51
 9296 2eaa 02       		.uleb128 0x2
 9297 2eab 79       		.byte	0x79
 9298 2eac 00       		.sleb128 0
 9299 2ead 37       		.uleb128 0x37
 9300 2eae 01       		.uleb128 0x1
 9301 2eaf 50       		.byte	0x50
 9302 2eb0 02       		.uleb128 0x2
 9303 2eb1 74       		.byte	0x74
ARM GAS  C:\Users\AHMED~1.ELE\AppData\Local\Temp\ccaBET3e.s 			page 209


 9304 2eb2 00       		.sleb128 0
 9305 2eb3 00       		.byte	0
 9306 2eb4 3F       		.uleb128 0x3f
 9307 2eb5 44000000 		.4byte	.LVL257
 9308 2eb9 33320000 		.4byte	0x3233
 9309 2ebd D32E0000 		.4byte	0x2ed3
 9310 2ec1 37       		.uleb128 0x37
 9311 2ec2 01       		.uleb128 0x1
 9312 2ec3 52       		.byte	0x52
 9313 2ec4 01       		.uleb128 0x1
 9314 2ec5 44       		.byte	0x44
 9315 2ec6 37       		.uleb128 0x37
 9316 2ec7 01       		.uleb128 0x1
 9317 2ec8 51       		.byte	0x51
 9318 2ec9 02       		.uleb128 0x2
 9319 2eca 08       		.byte	0x8
 9320 2ecb FF       		.byte	0xff
 9321 2ecc 37       		.uleb128 0x37
 9322 2ecd 01       		.uleb128 0x1
 9323 2ece 50       		.byte	0x50
 9324 2ecf 02       		.uleb128 0x2
 9325 2ed0 78       		.byte	0x78
 9326 2ed1 00       		.sleb128 0
 9327 2ed2 00       		.byte	0
 9328 2ed3 3F       		.uleb128 0x3f
 9329 2ed4 4E000000 		.4byte	.LVL258
 9330 2ed8 8C160000 		.4byte	0x168c
 9331 2edc F52E0000 		.4byte	0x2ef5
 9332 2ee0 37       		.uleb128 0x37
 9333 2ee1 01       		.uleb128 0x1
 9334 2ee2 52       		.byte	0x52
 9335 2ee3 03       		.uleb128 0x3
 9336 2ee4 91       		.byte	0x91
 9337 2ee5 E87B     		.sleb128 -536
 9338 2ee7 37       		.uleb128 0x37
 9339 2ee8 01       		.uleb128 0x1
 9340 2ee9 51       		.byte	0x51
 9341 2eea 02       		.uleb128 0x2
 9342 2eeb 75       		.byte	0x75
 9343 2eec 00       		.sleb128 0
 9344 2eed 37       		.uleb128 0x37
 9345 2eee 01       		.uleb128 0x1
 9346 2eef 50       		.byte	0x50
 9347 2ef0 03       		.uleb128 0x3
 9348 2ef1 91       		.byte	0x91
 9349 2ef2 E47B     		.sleb128 -540
 9350 2ef4 00       		.byte	0
 9351 2ef5 3F       		.uleb128 0x3f
 9352 2ef6 66000000 		.4byte	.LVL261
 9353 2efa 8C160000 		.4byte	0x168c
 9354 2efe 1A2F0000 		.4byte	0x2f1a
 9355 2f02 37       		.uleb128 0x37
 9356 2f03 01       		.uleb128 0x1
 9357 2f04 52       		.byte	0x52
 9358 2f05 03       		.uleb128 0x3
 9359 2f06 91       		.byte	0x91
 9360 2f07 E87B     		.sleb128 -536
ARM GAS  C:\Users\AHMED~1.ELE\AppData\Local\Temp\ccaBET3e.s 			page 210


 9361 2f09 37       		.uleb128 0x37
 9362 2f0a 01       		.uleb128 0x1
 9363 2f0b 51       		.byte	0x51
 9364 2f0c 05       		.uleb128 0x5
 9365 2f0d 75       		.byte	0x75
 9366 2f0e 00       		.sleb128 0
 9367 2f0f 7A       		.byte	0x7a
 9368 2f10 00       		.sleb128 0
 9369 2f11 1C       		.byte	0x1c
 9370 2f12 37       		.uleb128 0x37
 9371 2f13 01       		.uleb128 0x1
 9372 2f14 50       		.byte	0x50
 9373 2f15 03       		.uleb128 0x3
 9374 2f16 91       		.byte	0x91
 9375 2f17 E47B     		.sleb128 -540
 9376 2f19 00       		.byte	0
 9377 2f1a 3F       		.uleb128 0x3f
 9378 2f1b EE000000 		.4byte	.LVL279
 9379 2f1f 8F180000 		.4byte	0x188f
 9380 2f23 442F0000 		.4byte	0x2f44
 9381 2f27 37       		.uleb128 0x37
 9382 2f28 01       		.uleb128 0x1
 9383 2f29 53       		.byte	0x53
 9384 2f2a 03       		.uleb128 0x3
 9385 2f2b 91       		.byte	0x91
 9386 2f2c 887C     		.sleb128 -504
 9387 2f2e 37       		.uleb128 0x37
 9388 2f2f 01       		.uleb128 0x1
 9389 2f30 52       		.byte	0x52
 9390 2f31 03       		.uleb128 0x3
 9391 2f32 91       		.byte	0x91
 9392 2f33 F07B     		.sleb128 -528
 9393 2f35 37       		.uleb128 0x37
 9394 2f36 01       		.uleb128 0x1
 9395 2f37 50       		.byte	0x50
 9396 2f38 03       		.uleb128 0x3
 9397 2f39 91       		.byte	0x91
 9398 2f3a E47B     		.sleb128 -540
 9399 2f3c 37       		.uleb128 0x37
 9400 2f3d 02       		.uleb128 0x2
 9401 2f3e 7D       		.byte	0x7d
 9402 2f3f 00       		.sleb128 0
 9403 2f40 02       		.uleb128 0x2
 9404 2f41 79       		.byte	0x79
 9405 2f42 00       		.sleb128 0
 9406 2f43 00       		.byte	0
 9407 2f44 3F       		.uleb128 0x3f
 9408 2f45 00010000 		.4byte	.LVL281
 9409 2f49 3B1C0000 		.4byte	0x1c3b
 9410 2f4d 5F2F0000 		.4byte	0x2f5f
 9411 2f51 37       		.uleb128 0x37
 9412 2f52 01       		.uleb128 0x1
 9413 2f53 52       		.byte	0x52
 9414 2f54 02       		.uleb128 0x2
 9415 2f55 78       		.byte	0x78
 9416 2f56 00       		.sleb128 0
 9417 2f57 37       		.uleb128 0x37
ARM GAS  C:\Users\AHMED~1.ELE\AppData\Local\Temp\ccaBET3e.s 			page 211


 9418 2f58 01       		.uleb128 0x1
 9419 2f59 50       		.byte	0x50
 9420 2f5a 03       		.uleb128 0x3
 9421 2f5b 91       		.byte	0x91
 9422 2f5c E47B     		.sleb128 -540
 9423 2f5e 00       		.byte	0
 9424 2f5f 3F       		.uleb128 0x3f
 9425 2f60 E6010000 		.4byte	.LVL302
 9426 2f64 3B1C0000 		.4byte	0x1c3b
 9427 2f68 7A2F0000 		.4byte	0x2f7a
 9428 2f6c 37       		.uleb128 0x37
 9429 2f6d 01       		.uleb128 0x1
 9430 2f6e 52       		.byte	0x52
 9431 2f6f 02       		.uleb128 0x2
 9432 2f70 79       		.byte	0x79
 9433 2f71 00       		.sleb128 0
 9434 2f72 37       		.uleb128 0x37
 9435 2f73 01       		.uleb128 0x1
 9436 2f74 50       		.byte	0x50
 9437 2f75 03       		.uleb128 0x3
 9438 2f76 91       		.byte	0x91
 9439 2f77 E47B     		.sleb128 -540
 9440 2f79 00       		.byte	0
 9441 2f7a 3F       		.uleb128 0x3f
 9442 2f7b F8010000 		.4byte	.LVL304
 9443 2f7f 8C160000 		.4byte	0x168c
 9444 2f83 962F0000 		.4byte	0x2f96
 9445 2f87 37       		.uleb128 0x37
 9446 2f88 01       		.uleb128 0x1
 9447 2f89 52       		.byte	0x52
 9448 2f8a 03       		.uleb128 0x3
 9449 2f8b 91       		.byte	0x91
 9450 2f8c E87B     		.sleb128 -536
 9451 2f8e 37       		.uleb128 0x37
 9452 2f8f 01       		.uleb128 0x1
 9453 2f90 50       		.byte	0x50
 9454 2f91 03       		.uleb128 0x3
 9455 2f92 91       		.byte	0x91
 9456 2f93 E47B     		.sleb128 -540
 9457 2f95 00       		.byte	0
 9458 2f96 3F       		.uleb128 0x3f
 9459 2f97 10020000 		.4byte	.LVL306
 9460 2f9b 8F180000 		.4byte	0x188f
 9461 2f9f BF2F0000 		.4byte	0x2fbf
 9462 2fa3 37       		.uleb128 0x37
 9463 2fa4 01       		.uleb128 0x1
 9464 2fa5 53       		.byte	0x53
 9465 2fa6 03       		.uleb128 0x3
 9466 2fa7 91       		.byte	0x91
 9467 2fa8 9C7C     		.sleb128 -484
 9468 2faa 37       		.uleb128 0x37
 9469 2fab 01       		.uleb128 0x1
 9470 2fac 52       		.byte	0x52
 9471 2fad 03       		.uleb128 0x3
 9472 2fae 91       		.byte	0x91
 9473 2faf F47B     		.sleb128 -524
 9474 2fb1 37       		.uleb128 0x37
ARM GAS  C:\Users\AHMED~1.ELE\AppData\Local\Temp\ccaBET3e.s 			page 212


 9475 2fb2 01       		.uleb128 0x1
 9476 2fb3 50       		.byte	0x50
 9477 2fb4 03       		.uleb128 0x3
 9478 2fb5 91       		.byte	0x91
 9479 2fb6 E47B     		.sleb128 -540
 9480 2fb8 37       		.uleb128 0x37
 9481 2fb9 02       		.uleb128 0x2
 9482 2fba 7D       		.byte	0x7d
 9483 2fbb 00       		.sleb128 0
 9484 2fbc 01       		.uleb128 0x1
 9485 2fbd 31       		.byte	0x31
 9486 2fbe 00       		.byte	0
 9487 2fbf 3F       		.uleb128 0x3f
 9488 2fc0 E6020000 		.4byte	.LVL328
 9489 2fc4 68170000 		.4byte	0x1768
 9490 2fc8 D92F0000 		.4byte	0x2fd9
 9491 2fcc 37       		.uleb128 0x37
 9492 2fcd 01       		.uleb128 0x1
 9493 2fce 52       		.byte	0x52
 9494 2fcf 01       		.uleb128 0x1
 9495 2fd0 31       		.byte	0x31
 9496 2fd1 37       		.uleb128 0x37
 9497 2fd2 01       		.uleb128 0x1
 9498 2fd3 50       		.byte	0x50
 9499 2fd4 03       		.uleb128 0x3
 9500 2fd5 91       		.byte	0x91
 9501 2fd6 E47B     		.sleb128 -540
 9502 2fd8 00       		.byte	0
 9503 2fd9 3F       		.uleb128 0x3f
 9504 2fda F8020000 		.4byte	.LVL330
 9505 2fde 68170000 		.4byte	0x1768
 9506 2fe2 F32F0000 		.4byte	0x2ff3
 9507 2fe6 37       		.uleb128 0x37
 9508 2fe7 01       		.uleb128 0x1
 9509 2fe8 52       		.byte	0x52
 9510 2fe9 01       		.uleb128 0x1
 9511 2fea 32       		.byte	0x32
 9512 2feb 37       		.uleb128 0x37
 9513 2fec 01       		.uleb128 0x1
 9514 2fed 50       		.byte	0x50
 9515 2fee 03       		.uleb128 0x3
 9516 2fef 91       		.byte	0x91
 9517 2ff0 E47B     		.sleb128 -540
 9518 2ff2 00       		.byte	0
 9519 2ff3 3F       		.uleb128 0x3f
 9520 2ff4 A2050000 		.4byte	.LVL379
 9521 2ff8 8F180000 		.4byte	0x188f
 9522 2ffc 25300000 		.4byte	0x3025
 9523 3000 37       		.uleb128 0x37
 9524 3001 01       		.uleb128 0x1
 9525 3002 53       		.byte	0x53
 9526 3003 03       		.uleb128 0x3
 9527 3004 91       		.byte	0x91
 9528 3005 9C7C     		.sleb128 -484
 9529 3007 37       		.uleb128 0x37
 9530 3008 01       		.uleb128 0x1
 9531 3009 52       		.byte	0x52
ARM GAS  C:\Users\AHMED~1.ELE\AppData\Local\Temp\ccaBET3e.s 			page 213


 9532 300a 03       		.uleb128 0x3
 9533 300b 91       		.byte	0x91
 9534 300c F87B     		.sleb128 -520
 9535 300e 37       		.uleb128 0x37
 9536 300f 01       		.uleb128 0x1
 9537 3010 51       		.byte	0x51
 9538 3011 05       		.uleb128 0x5
 9539 3012 75       		.byte	0x75
 9540 3013 00       		.sleb128 0
 9541 3014 77       		.byte	0x77
 9542 3015 00       		.sleb128 0
 9543 3016 1C       		.byte	0x1c
 9544 3017 37       		.uleb128 0x37
 9545 3018 01       		.uleb128 0x1
 9546 3019 50       		.byte	0x50
 9547 301a 03       		.uleb128 0x3
 9548 301b 91       		.byte	0x91
 9549 301c E47B     		.sleb128 -540
 9550 301e 37       		.uleb128 0x37
 9551 301f 02       		.uleb128 0x2
 9552 3020 7D       		.byte	0x7d
 9553 3021 00       		.sleb128 0
 9554 3022 01       		.uleb128 0x1
 9555 3023 30       		.byte	0x30
 9556 3024 00       		.byte	0
 9557 3025 3F       		.uleb128 0x3f
 9558 3026 D2050000 		.4byte	.LVL385
 9559 302a DD310000 		.4byte	0x31dd
 9560 302e 45300000 		.4byte	0x3045
 9561 3032 37       		.uleb128 0x37
 9562 3033 01       		.uleb128 0x1
 9563 3034 52       		.byte	0x52
 9564 3035 02       		.uleb128 0x2
 9565 3036 08       		.byte	0x8
 9566 3037 40       		.byte	0x40
 9567 3038 37       		.uleb128 0x37
 9568 3039 01       		.uleb128 0x1
 9569 303a 51       		.byte	0x51
 9570 303b 01       		.uleb128 0x1
 9571 303c 30       		.byte	0x30
 9572 303d 37       		.uleb128 0x37
 9573 303e 01       		.uleb128 0x1
 9574 303f 50       		.byte	0x50
 9575 3040 03       		.uleb128 0x3
 9576 3041 91       		.byte	0x91
 9577 3042 C87C     		.sleb128 -440
 9578 3044 00       		.byte	0
 9579 3045 3F       		.uleb128 0x3f
 9580 3046 E2050000 		.4byte	.LVL389
 9581 304a 501E0000 		.4byte	0x1e50
 9582 304e 5A300000 		.4byte	0x305a
 9583 3052 37       		.uleb128 0x37
 9584 3053 01       		.uleb128 0x1
 9585 3054 50       		.byte	0x50
 9586 3055 03       		.uleb128 0x3
 9587 3056 91       		.byte	0x91
 9588 3057 B07C     		.sleb128 -464
ARM GAS  C:\Users\AHMED~1.ELE\AppData\Local\Temp\ccaBET3e.s 			page 214


 9589 3059 00       		.byte	0
 9590 305a 48       		.uleb128 0x48
 9591 305b EE050000 		.4byte	.LVL390
 9592 305f 6B300000 		.4byte	0x306b
 9593 3063 37       		.uleb128 0x37
 9594 3064 01       		.uleb128 0x1
 9595 3065 50       		.byte	0x50
 9596 3066 03       		.uleb128 0x3
 9597 3067 91       		.byte	0x91
 9598 3068 887D     		.sleb128 -376
 9599 306a 00       		.byte	0
 9600 306b 48       		.uleb128 0x48
 9601 306c F8050000 		.4byte	.LVL391
 9602 3070 8B300000 		.4byte	0x308b
 9603 3074 37       		.uleb128 0x37
 9604 3075 01       		.uleb128 0x1
 9605 3076 52       		.byte	0x52
 9606 3077 05       		.uleb128 0x5
 9607 3078 77       		.byte	0x77
 9608 3079 00       		.sleb128 0
 9609 307a 7A       		.byte	0x7a
 9610 307b 00       		.sleb128 0
 9611 307c 1C       		.byte	0x1c
 9612 307d 37       		.uleb128 0x37
 9613 307e 01       		.uleb128 0x1
 9614 307f 51       		.byte	0x51
 9615 3080 02       		.uleb128 0x2
 9616 3081 7A       		.byte	0x7a
 9617 3082 00       		.sleb128 0
 9618 3083 37       		.uleb128 0x37
 9619 3084 01       		.uleb128 0x1
 9620 3085 50       		.byte	0x50
 9621 3086 03       		.uleb128 0x3
 9622 3087 91       		.byte	0x91
 9623 3088 887D     		.sleb128 -376
 9624 308a 00       		.byte	0
 9625 308b 48       		.uleb128 0x48
 9626 308c 02060000 		.4byte	.LVL392
 9627 3090 A3300000 		.4byte	0x30a3
 9628 3094 37       		.uleb128 0x37
 9629 3095 01       		.uleb128 0x1
 9630 3096 51       		.byte	0x51
 9631 3097 03       		.uleb128 0x3
 9632 3098 74       		.byte	0x74
 9633 3099 B404     		.sleb128 564
 9634 309b 37       		.uleb128 0x37
 9635 309c 01       		.uleb128 0x1
 9636 309d 50       		.byte	0x50
 9637 309e 03       		.uleb128 0x3
 9638 309f 91       		.byte	0x91
 9639 30a0 887D     		.sleb128 -376
 9640 30a2 00       		.byte	0
 9641 30a3 3F       		.uleb128 0x3f
 9642 30a4 AE060000 		.4byte	.LVL407
 9643 30a8 FA310000 		.4byte	0x31fa
 9644 30ac C2300000 		.4byte	0x30c2
 9645 30b0 37       		.uleb128 0x37
ARM GAS  C:\Users\AHMED~1.ELE\AppData\Local\Temp\ccaBET3e.s 			page 215


 9646 30b1 01       		.uleb128 0x1
 9647 30b2 52       		.byte	0x52
 9648 30b3 01       		.uleb128 0x1
 9649 30b4 44       		.byte	0x44
 9650 30b5 37       		.uleb128 0x37
 9651 30b6 01       		.uleb128 0x1
 9652 30b7 51       		.byte	0x51
 9653 30b8 02       		.uleb128 0x2
 9654 30b9 79       		.byte	0x79
 9655 30ba 00       		.sleb128 0
 9656 30bb 37       		.uleb128 0x37
 9657 30bc 01       		.uleb128 0x1
 9658 30bd 50       		.byte	0x50
 9659 30be 02       		.uleb128 0x2
 9660 30bf 78       		.byte	0x78
 9661 30c0 00       		.sleb128 0
 9662 30c1 00       		.byte	0
 9663 30c2 36       		.uleb128 0x36
 9664 30c3 B8060000 		.4byte	.LVL408
 9665 30c7 E5120000 		.4byte	0x12e5
 9666 30cb 37       		.uleb128 0x37
 9667 30cc 01       		.uleb128 0x1
 9668 30cd 51       		.byte	0x51
 9669 30ce 04       		.uleb128 0x4
 9670 30cf 91       		.byte	0x91
 9671 30d0 D47B     		.sleb128 -556
 9672 30d2 06       		.byte	0x6
 9673 30d3 37       		.uleb128 0x37
 9674 30d4 01       		.uleb128 0x1
 9675 30d5 50       		.byte	0x50
 9676 30d6 02       		.uleb128 0x2
 9677 30d7 74       		.byte	0x74
 9678 30d8 00       		.sleb128 0
 9679 30d9 00       		.byte	0
 9680 30da 00       		.byte	0
 9681 30db 4C       		.uleb128 0x4c
 9682 30dc 40120000 		.4byte	.LASF687
 9683 30e0 01       		.byte	0x1
 9684 30e1 D607     		.2byte	0x7d6
 9685 30e3 86000000 		.4byte	0x86
 9686 30e7 00000000 		.4byte	.LFB30
 9687 30eb 36000000 		.4byte	.LFE30-.LFB30
 9688 30ef 01       		.uleb128 0x1
 9689 30f0 9C       		.byte	0x9c
 9690 30f1 52310000 		.4byte	0x3152
 9691 30f5 32       		.uleb128 0x32
 9692 30f6 55190000 		.4byte	.LASF572
 9693 30fa 01       		.byte	0x1
 9694 30fb D607     		.2byte	0x7d6
 9695 30fd A1120000 		.4byte	0x12a1
 9696 3101 5A1E0000 		.4byte	.LLST146
 9697 3105 32       		.uleb128 0x32
 9698 3106 27210000 		.4byte	.LASF688
 9699 310a 01       		.byte	0x1
 9700 310b D707     		.2byte	0x7d7
 9701 310d A1120000 		.4byte	0x12a1
 9702 3111 9C1E0000 		.4byte	.LLST147
ARM GAS  C:\Users\AHMED~1.ELE\AppData\Local\Temp\ccaBET3e.s 			page 216


 9703 3115 3F       		.uleb128 0x3f
 9704 3116 22000000 		.4byte	.LVL421
 9705 311a FA310000 		.4byte	0x31fa
 9706 311e 36310000 		.4byte	0x3136
 9707 3122 37       		.uleb128 0x37
 9708 3123 01       		.uleb128 0x1
 9709 3124 52       		.byte	0x52
 9710 3125 01       		.uleb128 0x1
 9711 3126 44       		.byte	0x44
 9712 3127 37       		.uleb128 0x37
 9713 3128 01       		.uleb128 0x1
 9714 3129 51       		.byte	0x51
 9715 312a 03       		.uleb128 0x3
 9716 312b 74       		.byte	0x74
 9717 312c A004     		.sleb128 544
 9718 312e 37       		.uleb128 0x37
 9719 312f 01       		.uleb128 0x1
 9720 3130 50       		.byte	0x50
 9721 3131 03       		.uleb128 0x3
 9722 3132 75       		.byte	0x75
 9723 3133 8C04     		.sleb128 524
 9724 3135 00       		.byte	0
 9725 3136 4F       		.uleb128 0x4f
 9726 3137 32000000 		.4byte	.LVL423
 9727 313b E5120000 		.4byte	0x12e5
 9728 313f 37       		.uleb128 0x37
 9729 3140 01       		.uleb128 0x1
 9730 3141 51       		.byte	0x51
 9731 3142 06       		.uleb128 0x6
 9732 3143 F3       		.byte	0xf3
 9733 3144 01       		.uleb128 0x1
 9734 3145 51       		.byte	0x51
 9735 3146 23       		.byte	0x23
 9736 3147 8805     		.uleb128 0x288
 9737 3149 37       		.uleb128 0x37
 9738 314a 01       		.uleb128 0x1
 9739 314b 50       		.byte	0x50
 9740 314c 03       		.uleb128 0x3
 9741 314d F3       		.byte	0xf3
 9742 314e 01       		.uleb128 0x1
 9743 314f 50       		.byte	0x50
 9744 3150 00       		.byte	0
 9745 3151 00       		.byte	0
 9746 3152 50       		.uleb128 0x50
 9747 3153 002D0000 		.4byte	.LASF689
 9748 3157 01       		.byte	0x1
 9749 3158 C9       		.byte	0xc9
 9750 3159 86100000 		.4byte	0x1086
 9751 315d 05       		.uleb128 0x5
 9752 315e 03       		.byte	0x3
 9753 315f 00000000 		.4byte	s_x509_sign
 9754 3163 51       		.uleb128 0x51
 9755 3164 30290000 		.4byte	.LASF694
 9756 3168 7D000000 		.4byte	0x7d
 9757 316c 80310000 		.4byte	0x3180
 9758 3170 20       		.uleb128 0x20
 9759 3171 7D000000 		.4byte	0x7d
ARM GAS  C:\Users\AHMED~1.ELE\AppData\Local\Temp\ccaBET3e.s 			page 217


 9760 3175 20       		.uleb128 0x20
 9761 3176 7F0F0000 		.4byte	0xf7f
 9762 317a 20       		.uleb128 0x20
 9763 317b 76000000 		.4byte	0x76
 9764 317f 00       		.byte	0
 9765 3180 52       		.uleb128 0x52
 9766 3181 201A0000 		.4byte	.LASF691
 9767 3185 04       		.byte	0x4
 9768 3186 A4       		.byte	0xa4
 9769 3187 A7000000 		.4byte	0xa7
 9770 318b A4310000 		.4byte	0x31a4
 9771 318f 20       		.uleb128 0x20
 9772 3190 A7000000 		.4byte	0xa7
 9773 3194 20       		.uleb128 0x20
 9774 3195 A7000000 		.4byte	0xa7
 9775 3199 20       		.uleb128 0x20
 9776 319a A7000000 		.4byte	0xa7
 9777 319e 20       		.uleb128 0x20
 9778 319f A7000000 		.4byte	0xa7
 9779 31a3 00       		.byte	0
 9780 31a4 52       		.uleb128 0x52
 9781 31a5 161A0000 		.4byte	.LASF692
 9782 31a9 04       		.byte	0x4
 9783 31aa A3       		.byte	0xa3
 9784 31ab A7000000 		.4byte	0xa7
 9785 31af C3310000 		.4byte	0x31c3
 9786 31b3 20       		.uleb128 0x20
 9787 31b4 A7000000 		.4byte	0xa7
 9788 31b8 20       		.uleb128 0x20
 9789 31b9 A7000000 		.4byte	0xa7
 9790 31bd 20       		.uleb128 0x20
 9791 31be A7000000 		.4byte	0xa7
 9792 31c2 00       		.byte	0
 9793 31c3 52       		.uleb128 0x52
 9794 31c4 6D190000 		.4byte	.LASF693
 9795 31c8 06       		.byte	0x6
 9796 31c9 29       		.byte	0x29
 9797 31ca 86000000 		.4byte	0x86
 9798 31ce DD310000 		.4byte	0x31dd
 9799 31d2 20       		.uleb128 0x20
 9800 31d3 19150000 		.4byte	0x1519
 9801 31d7 20       		.uleb128 0x20
 9802 31d8 DB100000 		.4byte	0x10db
 9803 31dc 00       		.byte	0
 9804 31dd 51       		.uleb128 0x51
 9805 31de 3E230000 		.4byte	.LASF695
 9806 31e2 7D000000 		.4byte	0x7d
 9807 31e6 FA310000 		.4byte	0x31fa
 9808 31ea 20       		.uleb128 0x20
 9809 31eb 7D000000 		.4byte	0x7d
 9810 31ef 20       		.uleb128 0x20
 9811 31f0 25000000 		.4byte	0x25
 9812 31f4 20       		.uleb128 0x20
 9813 31f5 76000000 		.4byte	0x76
 9814 31f9 00       		.byte	0
 9815 31fa 52       		.uleb128 0x52
 9816 31fb 87240000 		.4byte	.LASF696
ARM GAS  C:\Users\AHMED~1.ELE\AppData\Local\Temp\ccaBET3e.s 			page 218


 9817 31ff 07       		.byte	0x7
 9818 3200 16       		.byte	0x16
 9819 3201 25000000 		.4byte	0x25
 9820 3205 19320000 		.4byte	0x3219
 9821 3209 20       		.uleb128 0x20
 9822 320a 7F0F0000 		.4byte	0xf7f
 9823 320e 20       		.uleb128 0x20
 9824 320f 7F0F0000 		.4byte	0xf7f
 9825 3213 20       		.uleb128 0x20
 9826 3214 2C000000 		.4byte	0x2c
 9827 3218 00       		.byte	0
 9828 3219 52       		.uleb128 0x52
 9829 321a 0C1A0000 		.4byte	.LASF697
 9830 321e 04       		.byte	0x4
 9831 321f A2       		.byte	0xa2
 9832 3220 A7000000 		.4byte	0xa7
 9833 3224 33320000 		.4byte	0x3233
 9834 3228 20       		.uleb128 0x20
 9835 3229 A7000000 		.4byte	0xa7
 9836 322d 20       		.uleb128 0x20
 9837 322e A7000000 		.4byte	0xa7
 9838 3232 00       		.byte	0
 9839 3233 53       		.uleb128 0x53
 9840 3234 3E230000 		.4byte	.LASF695
 9841 3238 07       		.byte	0x7
 9842 3239 19       		.byte	0x19
 9843 323a 7D000000 		.4byte	0x7d
 9844 323e 20       		.uleb128 0x20
 9845 323f 7D000000 		.4byte	0x7d
 9846 3243 20       		.uleb128 0x20
 9847 3244 25000000 		.4byte	0x25
 9848 3248 20       		.uleb128 0x20
 9849 3249 2C000000 		.4byte	0x2c
 9850 324d 00       		.byte	0
 9851 324e 00       		.byte	0
 9852              		.section	.debug_abbrev,"",%progbits
 9853              	.Ldebug_abbrev0:
 9854 0000 01       		.uleb128 0x1
 9855 0001 11       		.uleb128 0x11
 9856 0002 01       		.byte	0x1
 9857 0003 25       		.uleb128 0x25
 9858 0004 0E       		.uleb128 0xe
 9859 0005 13       		.uleb128 0x13
 9860 0006 0B       		.uleb128 0xb
 9861 0007 03       		.uleb128 0x3
 9862 0008 0E       		.uleb128 0xe
 9863 0009 1B       		.uleb128 0x1b
 9864 000a 0E       		.uleb128 0xe
 9865 000b 55       		.uleb128 0x55
 9866 000c 17       		.uleb128 0x17
 9867 000d 11       		.uleb128 0x11
 9868 000e 01       		.uleb128 0x1
 9869 000f 10       		.uleb128 0x10
 9870 0010 17       		.uleb128 0x17
 9871 0011 00       		.byte	0
 9872 0012 00       		.byte	0
 9873 0013 02       		.uleb128 0x2
ARM GAS  C:\Users\AHMED~1.ELE\AppData\Local\Temp\ccaBET3e.s 			page 219


 9874 0014 24       		.uleb128 0x24
 9875 0015 00       		.byte	0
 9876 0016 0B       		.uleb128 0xb
 9877 0017 0B       		.uleb128 0xb
 9878 0018 3E       		.uleb128 0x3e
 9879 0019 0B       		.uleb128 0xb
 9880 001a 03       		.uleb128 0x3
 9881 001b 08       		.uleb128 0x8
 9882 001c 00       		.byte	0
 9883 001d 00       		.byte	0
 9884 001e 03       		.uleb128 0x3
 9885 001f 16       		.uleb128 0x16
 9886 0020 00       		.byte	0
 9887 0021 03       		.uleb128 0x3
 9888 0022 0E       		.uleb128 0xe
 9889 0023 3A       		.uleb128 0x3a
 9890 0024 0B       		.uleb128 0xb
 9891 0025 3B       		.uleb128 0x3b
 9892 0026 0B       		.uleb128 0xb
 9893 0027 49       		.uleb128 0x49
 9894 0028 13       		.uleb128 0x13
 9895 0029 00       		.byte	0
 9896 002a 00       		.byte	0
 9897 002b 04       		.uleb128 0x4
 9898 002c 24       		.uleb128 0x24
 9899 002d 00       		.byte	0
 9900 002e 0B       		.uleb128 0xb
 9901 002f 0B       		.uleb128 0xb
 9902 0030 3E       		.uleb128 0x3e
 9903 0031 0B       		.uleb128 0xb
 9904 0032 03       		.uleb128 0x3
 9905 0033 0E       		.uleb128 0xe
 9906 0034 00       		.byte	0
 9907 0035 00       		.byte	0
 9908 0036 05       		.uleb128 0x5
 9909 0037 0F       		.uleb128 0xf
 9910 0038 00       		.byte	0
 9911 0039 0B       		.uleb128 0xb
 9912 003a 0B       		.uleb128 0xb
 9913 003b 00       		.byte	0
 9914 003c 00       		.byte	0
 9915 003d 06       		.uleb128 0x6
 9916 003e 26       		.uleb128 0x26
 9917 003f 00       		.byte	0
 9918 0040 49       		.uleb128 0x49
 9919 0041 13       		.uleb128 0x13
 9920 0042 00       		.byte	0
 9921 0043 00       		.byte	0
 9922 0044 07       		.uleb128 0x7
 9923 0045 0F       		.uleb128 0xf
 9924 0046 00       		.byte	0
 9925 0047 0B       		.uleb128 0xb
 9926 0048 0B       		.uleb128 0xb
 9927 0049 49       		.uleb128 0x49
 9928 004a 13       		.uleb128 0x13
 9929 004b 00       		.byte	0
 9930 004c 00       		.byte	0
ARM GAS  C:\Users\AHMED~1.ELE\AppData\Local\Temp\ccaBET3e.s 			page 220


 9931 004d 08       		.uleb128 0x8
 9932 004e 01       		.uleb128 0x1
 9933 004f 01       		.byte	0x1
 9934 0050 49       		.uleb128 0x49
 9935 0051 13       		.uleb128 0x13
 9936 0052 01       		.uleb128 0x1
 9937 0053 13       		.uleb128 0x13
 9938 0054 00       		.byte	0
 9939 0055 00       		.byte	0
 9940 0056 09       		.uleb128 0x9
 9941 0057 21       		.uleb128 0x21
 9942 0058 00       		.byte	0
 9943 0059 49       		.uleb128 0x49
 9944 005a 13       		.uleb128 0x13
 9945 005b 2F       		.uleb128 0x2f
 9946 005c 0B       		.uleb128 0xb
 9947 005d 00       		.byte	0
 9948 005e 00       		.byte	0
 9949 005f 0A       		.uleb128 0xa
 9950 0060 13       		.uleb128 0x13
 9951 0061 01       		.byte	0x1
 9952 0062 0B       		.uleb128 0xb
 9953 0063 0B       		.uleb128 0xb
 9954 0064 3A       		.uleb128 0x3a
 9955 0065 0B       		.uleb128 0xb
 9956 0066 3B       		.uleb128 0x3b
 9957 0067 05       		.uleb128 0x5
 9958 0068 01       		.uleb128 0x1
 9959 0069 13       		.uleb128 0x13
 9960 006a 00       		.byte	0
 9961 006b 00       		.byte	0
 9962 006c 0B       		.uleb128 0xb
 9963 006d 0D       		.uleb128 0xd
 9964 006e 00       		.byte	0
 9965 006f 03       		.uleb128 0x3
 9966 0070 0E       		.uleb128 0xe
 9967 0071 3A       		.uleb128 0x3a
 9968 0072 0B       		.uleb128 0xb
 9969 0073 3B       		.uleb128 0x3b
 9970 0074 05       		.uleb128 0x5
 9971 0075 49       		.uleb128 0x49
 9972 0076 13       		.uleb128 0x13
 9973 0077 38       		.uleb128 0x38
 9974 0078 0B       		.uleb128 0xb
 9975 0079 00       		.byte	0
 9976 007a 00       		.byte	0
 9977 007b 0C       		.uleb128 0xc
 9978 007c 16       		.uleb128 0x16
 9979 007d 00       		.byte	0
 9980 007e 03       		.uleb128 0x3
 9981 007f 0E       		.uleb128 0xe
 9982 0080 3A       		.uleb128 0x3a
 9983 0081 0B       		.uleb128 0xb
 9984 0082 3B       		.uleb128 0x3b
 9985 0083 05       		.uleb128 0x5
 9986 0084 49       		.uleb128 0x49
 9987 0085 13       		.uleb128 0x13
ARM GAS  C:\Users\AHMED~1.ELE\AppData\Local\Temp\ccaBET3e.s 			page 221


 9988 0086 00       		.byte	0
 9989 0087 00       		.byte	0
 9990 0088 0D       		.uleb128 0xd
 9991 0089 17       		.uleb128 0x17
 9992 008a 01       		.byte	0x1
 9993 008b 0B       		.uleb128 0xb
 9994 008c 0B       		.uleb128 0xb
 9995 008d 3A       		.uleb128 0x3a
 9996 008e 0B       		.uleb128 0xb
 9997 008f 3B       		.uleb128 0x3b
 9998 0090 05       		.uleb128 0x5
 9999 0091 01       		.uleb128 0x1
 10000 0092 13       		.uleb128 0x13
 10001 0093 00       		.byte	0
 10002 0094 00       		.byte	0
 10003 0095 0E       		.uleb128 0xe
 10004 0096 0D       		.uleb128 0xd
 10005 0097 00       		.byte	0
 10006 0098 03       		.uleb128 0x3
 10007 0099 08       		.uleb128 0x8
 10008 009a 3A       		.uleb128 0x3a
 10009 009b 0B       		.uleb128 0xb
 10010 009c 3B       		.uleb128 0x3b
 10011 009d 05       		.uleb128 0x5
 10012 009e 49       		.uleb128 0x49
 10013 009f 13       		.uleb128 0x13
 10014 00a0 00       		.byte	0
 10015 00a1 00       		.byte	0
 10016 00a2 0F       		.uleb128 0xf
 10017 00a3 0D       		.uleb128 0xd
 10018 00a4 00       		.byte	0
 10019 00a5 03       		.uleb128 0x3
 10020 00a6 0E       		.uleb128 0xe
 10021 00a7 3A       		.uleb128 0x3a
 10022 00a8 0B       		.uleb128 0xb
 10023 00a9 3B       		.uleb128 0x3b
 10024 00aa 05       		.uleb128 0x5
 10025 00ab 49       		.uleb128 0x49
 10026 00ac 13       		.uleb128 0x13
 10027 00ad 00       		.byte	0
 10028 00ae 00       		.byte	0
 10029 00af 10       		.uleb128 0x10
 10030 00b0 13       		.uleb128 0x13
 10031 00b1 01       		.byte	0x1
 10032 00b2 0B       		.uleb128 0xb
 10033 00b3 05       		.uleb128 0x5
 10034 00b4 3A       		.uleb128 0x3a
 10035 00b5 0B       		.uleb128 0xb
 10036 00b6 3B       		.uleb128 0x3b
 10037 00b7 05       		.uleb128 0x5
 10038 00b8 01       		.uleb128 0x1
 10039 00b9 13       		.uleb128 0x13
 10040 00ba 00       		.byte	0
 10041 00bb 00       		.byte	0
 10042 00bc 11       		.uleb128 0x11
 10043 00bd 0D       		.uleb128 0xd
 10044 00be 00       		.byte	0
ARM GAS  C:\Users\AHMED~1.ELE\AppData\Local\Temp\ccaBET3e.s 			page 222


 10045 00bf 49       		.uleb128 0x49
 10046 00c0 13       		.uleb128 0x13
 10047 00c1 38       		.uleb128 0x38
 10048 00c2 0B       		.uleb128 0xb
 10049 00c3 00       		.byte	0
 10050 00c4 00       		.byte	0
 10051 00c5 12       		.uleb128 0x12
 10052 00c6 0D       		.uleb128 0xd
 10053 00c7 00       		.byte	0
 10054 00c8 03       		.uleb128 0x3
 10055 00c9 0E       		.uleb128 0xe
 10056 00ca 3A       		.uleb128 0x3a
 10057 00cb 0B       		.uleb128 0xb
 10058 00cc 3B       		.uleb128 0x3b
 10059 00cd 05       		.uleb128 0x5
 10060 00ce 49       		.uleb128 0x49
 10061 00cf 13       		.uleb128 0x13
 10062 00d0 38       		.uleb128 0x38
 10063 00d1 05       		.uleb128 0x5
 10064 00d2 00       		.byte	0
 10065 00d3 00       		.byte	0
 10066 00d4 13       		.uleb128 0x13
 10067 00d5 04       		.uleb128 0x4
 10068 00d6 01       		.byte	0x1
 10069 00d7 03       		.uleb128 0x3
 10070 00d8 0E       		.uleb128 0xe
 10071 00d9 0B       		.uleb128 0xb
 10072 00da 0B       		.uleb128 0xb
 10073 00db 3A       		.uleb128 0x3a
 10074 00dc 0B       		.uleb128 0xb
 10075 00dd 3B       		.uleb128 0x3b
 10076 00de 05       		.uleb128 0x5
 10077 00df 01       		.uleb128 0x1
 10078 00e0 13       		.uleb128 0x13
 10079 00e1 00       		.byte	0
 10080 00e2 00       		.byte	0
 10081 00e3 14       		.uleb128 0x14
 10082 00e4 28       		.uleb128 0x28
 10083 00e5 00       		.byte	0
 10084 00e6 03       		.uleb128 0x3
 10085 00e7 0E       		.uleb128 0xe
 10086 00e8 1C       		.uleb128 0x1c
 10087 00e9 0D       		.uleb128 0xd
 10088 00ea 00       		.byte	0
 10089 00eb 00       		.byte	0
 10090 00ec 15       		.uleb128 0x15
 10091 00ed 26       		.uleb128 0x26
 10092 00ee 00       		.byte	0
 10093 00ef 00       		.byte	0
 10094 00f0 00       		.byte	0
 10095 00f1 16       		.uleb128 0x16
 10096 00f2 04       		.uleb128 0x4
 10097 00f3 01       		.byte	0x1
 10098 00f4 0B       		.uleb128 0xb
 10099 00f5 0B       		.uleb128 0xb
 10100 00f6 3A       		.uleb128 0x3a
 10101 00f7 0B       		.uleb128 0xb
ARM GAS  C:\Users\AHMED~1.ELE\AppData\Local\Temp\ccaBET3e.s 			page 223


 10102 00f8 3B       		.uleb128 0x3b
 10103 00f9 05       		.uleb128 0x5
 10104 00fa 01       		.uleb128 0x1
 10105 00fb 13       		.uleb128 0x13
 10106 00fc 00       		.byte	0
 10107 00fd 00       		.byte	0
 10108 00fe 17       		.uleb128 0x17
 10109 00ff 13       		.uleb128 0x13
 10110 0100 01       		.byte	0x1
 10111 0101 0B       		.uleb128 0xb
 10112 0102 0B       		.uleb128 0xb
 10113 0103 3A       		.uleb128 0x3a
 10114 0104 0B       		.uleb128 0xb
 10115 0105 3B       		.uleb128 0x3b
 10116 0106 0B       		.uleb128 0xb
 10117 0107 01       		.uleb128 0x1
 10118 0108 13       		.uleb128 0x13
 10119 0109 00       		.byte	0
 10120 010a 00       		.byte	0
 10121 010b 18       		.uleb128 0x18
 10122 010c 0D       		.uleb128 0xd
 10123 010d 00       		.byte	0
 10124 010e 03       		.uleb128 0x3
 10125 010f 0E       		.uleb128 0xe
 10126 0110 3A       		.uleb128 0x3a
 10127 0111 0B       		.uleb128 0xb
 10128 0112 3B       		.uleb128 0x3b
 10129 0113 0B       		.uleb128 0xb
 10130 0114 49       		.uleb128 0x49
 10131 0115 13       		.uleb128 0x13
 10132 0116 38       		.uleb128 0x38
 10133 0117 0B       		.uleb128 0xb
 10134 0118 00       		.byte	0
 10135 0119 00       		.byte	0
 10136 011a 19       		.uleb128 0x19
 10137 011b 13       		.uleb128 0x13
 10138 011c 01       		.byte	0x1
 10139 011d 0B       		.uleb128 0xb
 10140 011e 05       		.uleb128 0x5
 10141 011f 3A       		.uleb128 0x3a
 10142 0120 0B       		.uleb128 0xb
 10143 0121 3B       		.uleb128 0x3b
 10144 0122 0B       		.uleb128 0xb
 10145 0123 01       		.uleb128 0x1
 10146 0124 13       		.uleb128 0x13
 10147 0125 00       		.byte	0
 10148 0126 00       		.byte	0
 10149 0127 1A       		.uleb128 0x1a
 10150 0128 0D       		.uleb128 0xd
 10151 0129 00       		.byte	0
 10152 012a 03       		.uleb128 0x3
 10153 012b 0E       		.uleb128 0xe
 10154 012c 3A       		.uleb128 0x3a
 10155 012d 0B       		.uleb128 0xb
 10156 012e 3B       		.uleb128 0x3b
 10157 012f 0B       		.uleb128 0xb
 10158 0130 49       		.uleb128 0x49
ARM GAS  C:\Users\AHMED~1.ELE\AppData\Local\Temp\ccaBET3e.s 			page 224


 10159 0131 13       		.uleb128 0x13
 10160 0132 38       		.uleb128 0x38
 10161 0133 05       		.uleb128 0x5
 10162 0134 00       		.byte	0
 10163 0135 00       		.byte	0
 10164 0136 1B       		.uleb128 0x1b
 10165 0137 21       		.uleb128 0x21
 10166 0138 00       		.byte	0
 10167 0139 49       		.uleb128 0x49
 10168 013a 13       		.uleb128 0x13
 10169 013b 2F       		.uleb128 0x2f
 10170 013c 05       		.uleb128 0x5
 10171 013d 00       		.byte	0
 10172 013e 00       		.byte	0
 10173 013f 1C       		.uleb128 0x1c
 10174 0140 04       		.uleb128 0x4
 10175 0141 01       		.byte	0x1
 10176 0142 0B       		.uleb128 0xb
 10177 0143 0B       		.uleb128 0xb
 10178 0144 3A       		.uleb128 0x3a
 10179 0145 0B       		.uleb128 0xb
 10180 0146 3B       		.uleb128 0x3b
 10181 0147 0B       		.uleb128 0xb
 10182 0148 01       		.uleb128 0x1
 10183 0149 13       		.uleb128 0x13
 10184 014a 00       		.byte	0
 10185 014b 00       		.byte	0
 10186 014c 1D       		.uleb128 0x1d
 10187 014d 17       		.uleb128 0x17
 10188 014e 01       		.byte	0x1
 10189 014f 0B       		.uleb128 0xb
 10190 0150 05       		.uleb128 0x5
 10191 0151 3A       		.uleb128 0x3a
 10192 0152 0B       		.uleb128 0xb
 10193 0153 3B       		.uleb128 0x3b
 10194 0154 0B       		.uleb128 0xb
 10195 0155 01       		.uleb128 0x1
 10196 0156 13       		.uleb128 0x13
 10197 0157 00       		.byte	0
 10198 0158 00       		.byte	0
 10199 0159 1E       		.uleb128 0x1e
 10200 015a 0D       		.uleb128 0xd
 10201 015b 00       		.byte	0
 10202 015c 03       		.uleb128 0x3
 10203 015d 0E       		.uleb128 0xe
 10204 015e 3A       		.uleb128 0x3a
 10205 015f 0B       		.uleb128 0xb
 10206 0160 3B       		.uleb128 0x3b
 10207 0161 0B       		.uleb128 0xb
 10208 0162 49       		.uleb128 0x49
 10209 0163 13       		.uleb128 0x13
 10210 0164 00       		.byte	0
 10211 0165 00       		.byte	0
 10212 0166 1F       		.uleb128 0x1f
 10213 0167 15       		.uleb128 0x15
 10214 0168 01       		.byte	0x1
 10215 0169 27       		.uleb128 0x27
ARM GAS  C:\Users\AHMED~1.ELE\AppData\Local\Temp\ccaBET3e.s 			page 225


 10216 016a 19       		.uleb128 0x19
 10217 016b 01       		.uleb128 0x1
 10218 016c 13       		.uleb128 0x13
 10219 016d 00       		.byte	0
 10220 016e 00       		.byte	0
 10221 016f 20       		.uleb128 0x20
 10222 0170 05       		.uleb128 0x5
 10223 0171 00       		.byte	0
 10224 0172 49       		.uleb128 0x49
 10225 0173 13       		.uleb128 0x13
 10226 0174 00       		.byte	0
 10227 0175 00       		.byte	0
 10228 0176 21       		.uleb128 0x21
 10229 0177 2E       		.uleb128 0x2e
 10230 0178 01       		.byte	0x1
 10231 0179 03       		.uleb128 0x3
 10232 017a 0E       		.uleb128 0xe
 10233 017b 3A       		.uleb128 0x3a
 10234 017c 0B       		.uleb128 0xb
 10235 017d 3B       		.uleb128 0x3b
 10236 017e 05       		.uleb128 0x5
 10237 017f 27       		.uleb128 0x27
 10238 0180 19       		.uleb128 0x19
 10239 0181 49       		.uleb128 0x49
 10240 0182 13       		.uleb128 0x13
 10241 0183 20       		.uleb128 0x20
 10242 0184 0B       		.uleb128 0xb
 10243 0185 01       		.uleb128 0x1
 10244 0186 13       		.uleb128 0x13
 10245 0187 00       		.byte	0
 10246 0188 00       		.byte	0
 10247 0189 22       		.uleb128 0x22
 10248 018a 05       		.uleb128 0x5
 10249 018b 00       		.byte	0
 10250 018c 03       		.uleb128 0x3
 10251 018d 0E       		.uleb128 0xe
 10252 018e 3A       		.uleb128 0x3a
 10253 018f 0B       		.uleb128 0xb
 10254 0190 3B       		.uleb128 0x3b
 10255 0191 05       		.uleb128 0x5
 10256 0192 49       		.uleb128 0x49
 10257 0193 13       		.uleb128 0x13
 10258 0194 00       		.byte	0
 10259 0195 00       		.byte	0
 10260 0196 23       		.uleb128 0x23
 10261 0197 34       		.uleb128 0x34
 10262 0198 00       		.byte	0
 10263 0199 03       		.uleb128 0x3
 10264 019a 08       		.uleb128 0x8
 10265 019b 3A       		.uleb128 0x3a
 10266 019c 0B       		.uleb128 0xb
 10267 019d 3B       		.uleb128 0x3b
 10268 019e 05       		.uleb128 0x5
 10269 019f 49       		.uleb128 0x49
 10270 01a0 13       		.uleb128 0x13
 10271 01a1 00       		.byte	0
 10272 01a2 00       		.byte	0
ARM GAS  C:\Users\AHMED~1.ELE\AppData\Local\Temp\ccaBET3e.s 			page 226


 10273 01a3 24       		.uleb128 0x24
 10274 01a4 34       		.uleb128 0x34
 10275 01a5 00       		.byte	0
 10276 01a6 03       		.uleb128 0x3
 10277 01a7 0E       		.uleb128 0xe
 10278 01a8 3A       		.uleb128 0x3a
 10279 01a9 0B       		.uleb128 0xb
 10280 01aa 3B       		.uleb128 0x3b
 10281 01ab 05       		.uleb128 0x5
 10282 01ac 49       		.uleb128 0x49
 10283 01ad 13       		.uleb128 0x13
 10284 01ae 00       		.byte	0
 10285 01af 00       		.byte	0
 10286 01b0 25       		.uleb128 0x25
 10287 01b1 0B       		.uleb128 0xb
 10288 01b2 01       		.byte	0x1
 10289 01b3 00       		.byte	0
 10290 01b4 00       		.byte	0
 10291 01b5 26       		.uleb128 0x26
 10292 01b6 2E       		.uleb128 0x2e
 10293 01b7 01       		.byte	0x1
 10294 01b8 03       		.uleb128 0x3
 10295 01b9 0E       		.uleb128 0xe
 10296 01ba 3A       		.uleb128 0x3a
 10297 01bb 0B       		.uleb128 0xb
 10298 01bc 3B       		.uleb128 0x3b
 10299 01bd 05       		.uleb128 0x5
 10300 01be 27       		.uleb128 0x27
 10301 01bf 19       		.uleb128 0x19
 10302 01c0 20       		.uleb128 0x20
 10303 01c1 0B       		.uleb128 0xb
 10304 01c2 01       		.uleb128 0x1
 10305 01c3 13       		.uleb128 0x13
 10306 01c4 00       		.byte	0
 10307 01c5 00       		.byte	0
 10308 01c6 27       		.uleb128 0x27
 10309 01c7 2E       		.uleb128 0x2e
 10310 01c8 01       		.byte	0x1
 10311 01c9 3F       		.uleb128 0x3f
 10312 01ca 19       		.uleb128 0x19
 10313 01cb 03       		.uleb128 0x3
 10314 01cc 0E       		.uleb128 0xe
 10315 01cd 3A       		.uleb128 0x3a
 10316 01ce 0B       		.uleb128 0xb
 10317 01cf 3B       		.uleb128 0x3b
 10318 01d0 05       		.uleb128 0x5
 10319 01d1 27       		.uleb128 0x27
 10320 01d2 19       		.uleb128 0x19
 10321 01d3 49       		.uleb128 0x49
 10322 01d4 13       		.uleb128 0x13
 10323 01d5 20       		.uleb128 0x20
 10324 01d6 0B       		.uleb128 0xb
 10325 01d7 01       		.uleb128 0x1
 10326 01d8 13       		.uleb128 0x13
 10327 01d9 00       		.byte	0
 10328 01da 00       		.byte	0
 10329 01db 28       		.uleb128 0x28
ARM GAS  C:\Users\AHMED~1.ELE\AppData\Local\Temp\ccaBET3e.s 			page 227


 10330 01dc 05       		.uleb128 0x5
 10331 01dd 00       		.byte	0
 10332 01de 03       		.uleb128 0x3
 10333 01df 08       		.uleb128 0x8
 10334 01e0 3A       		.uleb128 0x3a
 10335 01e1 0B       		.uleb128 0xb
 10336 01e2 3B       		.uleb128 0x3b
 10337 01e3 05       		.uleb128 0x5
 10338 01e4 49       		.uleb128 0x49
 10339 01e5 13       		.uleb128 0x13
 10340 01e6 00       		.byte	0
 10341 01e7 00       		.byte	0
 10342 01e8 29       		.uleb128 0x29
 10343 01e9 2E       		.uleb128 0x2e
 10344 01ea 01       		.byte	0x1
 10345 01eb 03       		.uleb128 0x3
 10346 01ec 0E       		.uleb128 0xe
 10347 01ed 3A       		.uleb128 0x3a
 10348 01ee 0B       		.uleb128 0xb
 10349 01ef 3B       		.uleb128 0x3b
 10350 01f0 0B       		.uleb128 0xb
 10351 01f1 27       		.uleb128 0x27
 10352 01f2 19       		.uleb128 0x19
 10353 01f3 49       		.uleb128 0x49
 10354 01f4 13       		.uleb128 0x13
 10355 01f5 11       		.uleb128 0x11
 10356 01f6 01       		.uleb128 0x1
 10357 01f7 12       		.uleb128 0x12
 10358 01f8 06       		.uleb128 0x6
 10359 01f9 40       		.uleb128 0x40
 10360 01fa 18       		.uleb128 0x18
 10361 01fb 9742     		.uleb128 0x2117
 10362 01fd 19       		.uleb128 0x19
 10363 01fe 01       		.uleb128 0x1
 10364 01ff 13       		.uleb128 0x13
 10365 0200 00       		.byte	0
 10366 0201 00       		.byte	0
 10367 0202 2A       		.uleb128 0x2a
 10368 0203 05       		.uleb128 0x5
 10369 0204 00       		.byte	0
 10370 0205 03       		.uleb128 0x3
 10371 0206 08       		.uleb128 0x8
 10372 0207 3A       		.uleb128 0x3a
 10373 0208 0B       		.uleb128 0xb
 10374 0209 3B       		.uleb128 0x3b
 10375 020a 0B       		.uleb128 0xb
 10376 020b 49       		.uleb128 0x49
 10377 020c 13       		.uleb128 0x13
 10378 020d 02       		.uleb128 0x2
 10379 020e 17       		.uleb128 0x17
 10380 020f 00       		.byte	0
 10381 0210 00       		.byte	0
 10382 0211 2B       		.uleb128 0x2b
 10383 0212 05       		.uleb128 0x5
 10384 0213 00       		.byte	0
 10385 0214 03       		.uleb128 0x3
 10386 0215 08       		.uleb128 0x8
ARM GAS  C:\Users\AHMED~1.ELE\AppData\Local\Temp\ccaBET3e.s 			page 228


 10387 0216 3A       		.uleb128 0x3a
 10388 0217 0B       		.uleb128 0xb
 10389 0218 3B       		.uleb128 0x3b
 10390 0219 0B       		.uleb128 0xb
 10391 021a 49       		.uleb128 0x49
 10392 021b 13       		.uleb128 0x13
 10393 021c 02       		.uleb128 0x2
 10394 021d 18       		.uleb128 0x18
 10395 021e 00       		.byte	0
 10396 021f 00       		.byte	0
 10397 0220 2C       		.uleb128 0x2c
 10398 0221 34       		.uleb128 0x34
 10399 0222 00       		.byte	0
 10400 0223 03       		.uleb128 0x3
 10401 0224 0E       		.uleb128 0xe
 10402 0225 3A       		.uleb128 0x3a
 10403 0226 0B       		.uleb128 0xb
 10404 0227 3B       		.uleb128 0x3b
 10405 0228 0B       		.uleb128 0xb
 10406 0229 49       		.uleb128 0x49
 10407 022a 13       		.uleb128 0x13
 10408 022b 02       		.uleb128 0x2
 10409 022c 17       		.uleb128 0x17
 10410 022d 00       		.byte	0
 10411 022e 00       		.byte	0
 10412 022f 2D       		.uleb128 0x2d
 10413 0230 34       		.uleb128 0x34
 10414 0231 00       		.byte	0
 10415 0232 03       		.uleb128 0x3
 10416 0233 08       		.uleb128 0x8
 10417 0234 3A       		.uleb128 0x3a
 10418 0235 0B       		.uleb128 0xb
 10419 0236 3B       		.uleb128 0x3b
 10420 0237 0B       		.uleb128 0xb
 10421 0238 49       		.uleb128 0x49
 10422 0239 13       		.uleb128 0x13
 10423 023a 02       		.uleb128 0x2
 10424 023b 17       		.uleb128 0x17
 10425 023c 00       		.byte	0
 10426 023d 00       		.byte	0
 10427 023e 2E       		.uleb128 0x2e
 10428 023f 05       		.uleb128 0x5
 10429 0240 00       		.byte	0
 10430 0241 03       		.uleb128 0x3
 10431 0242 0E       		.uleb128 0xe
 10432 0243 3A       		.uleb128 0x3a
 10433 0244 0B       		.uleb128 0xb
 10434 0245 3B       		.uleb128 0x3b
 10435 0246 0B       		.uleb128 0xb
 10436 0247 49       		.uleb128 0x49
 10437 0248 13       		.uleb128 0x13
 10438 0249 02       		.uleb128 0x2
 10439 024a 17       		.uleb128 0x17
 10440 024b 00       		.byte	0
 10441 024c 00       		.byte	0
 10442 024d 2F       		.uleb128 0x2f
 10443 024e 05       		.uleb128 0x5
ARM GAS  C:\Users\AHMED~1.ELE\AppData\Local\Temp\ccaBET3e.s 			page 229


 10444 024f 00       		.byte	0
 10445 0250 03       		.uleb128 0x3
 10446 0251 0E       		.uleb128 0xe
 10447 0252 3A       		.uleb128 0x3a
 10448 0253 0B       		.uleb128 0xb
 10449 0254 3B       		.uleb128 0x3b
 10450 0255 0B       		.uleb128 0xb
 10451 0256 49       		.uleb128 0x49
 10452 0257 13       		.uleb128 0x13
 10453 0258 02       		.uleb128 0x2
 10454 0259 18       		.uleb128 0x18
 10455 025a 00       		.byte	0
 10456 025b 00       		.byte	0
 10457 025c 30       		.uleb128 0x30
 10458 025d 34       		.uleb128 0x34
 10459 025e 00       		.byte	0
 10460 025f 03       		.uleb128 0x3
 10461 0260 08       		.uleb128 0x8
 10462 0261 3A       		.uleb128 0x3a
 10463 0262 0B       		.uleb128 0xb
 10464 0263 3B       		.uleb128 0x3b
 10465 0264 0B       		.uleb128 0xb
 10466 0265 49       		.uleb128 0x49
 10467 0266 13       		.uleb128 0x13
 10468 0267 00       		.byte	0
 10469 0268 00       		.byte	0
 10470 0269 31       		.uleb128 0x31
 10471 026a 2E       		.uleb128 0x2e
 10472 026b 01       		.byte	0x1
 10473 026c 03       		.uleb128 0x3
 10474 026d 0E       		.uleb128 0xe
 10475 026e 3A       		.uleb128 0x3a
 10476 026f 0B       		.uleb128 0xb
 10477 0270 3B       		.uleb128 0x3b
 10478 0271 05       		.uleb128 0x5
 10479 0272 27       		.uleb128 0x27
 10480 0273 19       		.uleb128 0x19
 10481 0274 49       		.uleb128 0x49
 10482 0275 13       		.uleb128 0x13
 10483 0276 11       		.uleb128 0x11
 10484 0277 01       		.uleb128 0x1
 10485 0278 12       		.uleb128 0x12
 10486 0279 06       		.uleb128 0x6
 10487 027a 40       		.uleb128 0x40
 10488 027b 18       		.uleb128 0x18
 10489 027c 9742     		.uleb128 0x2117
 10490 027e 19       		.uleb128 0x19
 10491 027f 01       		.uleb128 0x1
 10492 0280 13       		.uleb128 0x13
 10493 0281 00       		.byte	0
 10494 0282 00       		.byte	0
 10495 0283 32       		.uleb128 0x32
 10496 0284 05       		.uleb128 0x5
 10497 0285 00       		.byte	0
 10498 0286 03       		.uleb128 0x3
 10499 0287 0E       		.uleb128 0xe
 10500 0288 3A       		.uleb128 0x3a
ARM GAS  C:\Users\AHMED~1.ELE\AppData\Local\Temp\ccaBET3e.s 			page 230


 10501 0289 0B       		.uleb128 0xb
 10502 028a 3B       		.uleb128 0x3b
 10503 028b 05       		.uleb128 0x5
 10504 028c 49       		.uleb128 0x49
 10505 028d 13       		.uleb128 0x13
 10506 028e 02       		.uleb128 0x2
 10507 028f 17       		.uleb128 0x17
 10508 0290 00       		.byte	0
 10509 0291 00       		.byte	0
 10510 0292 33       		.uleb128 0x33
 10511 0293 34       		.uleb128 0x34
 10512 0294 00       		.byte	0
 10513 0295 03       		.uleb128 0x3
 10514 0296 08       		.uleb128 0x8
 10515 0297 3A       		.uleb128 0x3a
 10516 0298 0B       		.uleb128 0xb
 10517 0299 3B       		.uleb128 0x3b
 10518 029a 05       		.uleb128 0x5
 10519 029b 49       		.uleb128 0x49
 10520 029c 13       		.uleb128 0x13
 10521 029d 02       		.uleb128 0x2
 10522 029e 18       		.uleb128 0x18
 10523 029f 00       		.byte	0
 10524 02a0 00       		.byte	0
 10525 02a1 34       		.uleb128 0x34
 10526 02a2 34       		.uleb128 0x34
 10527 02a3 00       		.byte	0
 10528 02a4 03       		.uleb128 0x3
 10529 02a5 08       		.uleb128 0x8
 10530 02a6 3A       		.uleb128 0x3a
 10531 02a7 0B       		.uleb128 0xb
 10532 02a8 3B       		.uleb128 0x3b
 10533 02a9 05       		.uleb128 0x5
 10534 02aa 49       		.uleb128 0x49
 10535 02ab 13       		.uleb128 0x13
 10536 02ac 02       		.uleb128 0x2
 10537 02ad 17       		.uleb128 0x17
 10538 02ae 00       		.byte	0
 10539 02af 00       		.byte	0
 10540 02b0 35       		.uleb128 0x35
 10541 02b1 34       		.uleb128 0x34
 10542 02b2 00       		.byte	0
 10543 02b3 03       		.uleb128 0x3
 10544 02b4 0E       		.uleb128 0xe
 10545 02b5 3A       		.uleb128 0x3a
 10546 02b6 0B       		.uleb128 0xb
 10547 02b7 3B       		.uleb128 0x3b
 10548 02b8 05       		.uleb128 0x5
 10549 02b9 49       		.uleb128 0x49
 10550 02ba 13       		.uleb128 0x13
 10551 02bb 02       		.uleb128 0x2
 10552 02bc 18       		.uleb128 0x18
 10553 02bd 00       		.byte	0
 10554 02be 00       		.byte	0
 10555 02bf 36       		.uleb128 0x36
 10556 02c0 898201   		.uleb128 0x4109
 10557 02c3 01       		.byte	0x1
ARM GAS  C:\Users\AHMED~1.ELE\AppData\Local\Temp\ccaBET3e.s 			page 231


 10558 02c4 11       		.uleb128 0x11
 10559 02c5 01       		.uleb128 0x1
 10560 02c6 31       		.uleb128 0x31
 10561 02c7 13       		.uleb128 0x13
 10562 02c8 00       		.byte	0
 10563 02c9 00       		.byte	0
 10564 02ca 37       		.uleb128 0x37
 10565 02cb 8A8201   		.uleb128 0x410a
 10566 02ce 00       		.byte	0
 10567 02cf 02       		.uleb128 0x2
 10568 02d0 18       		.uleb128 0x18
 10569 02d1 9142     		.uleb128 0x2111
 10570 02d3 18       		.uleb128 0x18
 10571 02d4 00       		.byte	0
 10572 02d5 00       		.byte	0
 10573 02d6 38       		.uleb128 0x38
 10574 02d7 34       		.uleb128 0x34
 10575 02d8 00       		.byte	0
 10576 02d9 03       		.uleb128 0x3
 10577 02da 0E       		.uleb128 0xe
 10578 02db 3A       		.uleb128 0x3a
 10579 02dc 0B       		.uleb128 0xb
 10580 02dd 3B       		.uleb128 0x3b
 10581 02de 05       		.uleb128 0x5
 10582 02df 49       		.uleb128 0x49
 10583 02e0 13       		.uleb128 0x13
 10584 02e1 02       		.uleb128 0x2
 10585 02e2 17       		.uleb128 0x17
 10586 02e3 00       		.byte	0
 10587 02e4 00       		.byte	0
 10588 02e5 39       		.uleb128 0x39
 10589 02e6 1D       		.uleb128 0x1d
 10590 02e7 01       		.byte	0x1
 10591 02e8 31       		.uleb128 0x31
 10592 02e9 13       		.uleb128 0x13
 10593 02ea 11       		.uleb128 0x11
 10594 02eb 01       		.uleb128 0x1
 10595 02ec 12       		.uleb128 0x12
 10596 02ed 06       		.uleb128 0x6
 10597 02ee 58       		.uleb128 0x58
 10598 02ef 0B       		.uleb128 0xb
 10599 02f0 59       		.uleb128 0x59
 10600 02f1 05       		.uleb128 0x5
 10601 02f2 01       		.uleb128 0x1
 10602 02f3 13       		.uleb128 0x13
 10603 02f4 00       		.byte	0
 10604 02f5 00       		.byte	0
 10605 02f6 3A       		.uleb128 0x3a
 10606 02f7 05       		.uleb128 0x5
 10607 02f8 00       		.byte	0
 10608 02f9 31       		.uleb128 0x31
 10609 02fa 13       		.uleb128 0x13
 10610 02fb 02       		.uleb128 0x2
 10611 02fc 17       		.uleb128 0x17
 10612 02fd 00       		.byte	0
 10613 02fe 00       		.byte	0
 10614 02ff 3B       		.uleb128 0x3b
ARM GAS  C:\Users\AHMED~1.ELE\AppData\Local\Temp\ccaBET3e.s 			page 232


 10615 0300 0B       		.uleb128 0xb
 10616 0301 01       		.byte	0x1
 10617 0302 11       		.uleb128 0x11
 10618 0303 01       		.uleb128 0x1
 10619 0304 12       		.uleb128 0x12
 10620 0305 06       		.uleb128 0x6
 10621 0306 00       		.byte	0
 10622 0307 00       		.byte	0
 10623 0308 3C       		.uleb128 0x3c
 10624 0309 34       		.uleb128 0x34
 10625 030a 00       		.byte	0
 10626 030b 31       		.uleb128 0x31
 10627 030c 13       		.uleb128 0x13
 10628 030d 02       		.uleb128 0x2
 10629 030e 18       		.uleb128 0x18
 10630 030f 00       		.byte	0
 10631 0310 00       		.byte	0
 10632 0311 3D       		.uleb128 0x3d
 10633 0312 34       		.uleb128 0x34
 10634 0313 00       		.byte	0
 10635 0314 31       		.uleb128 0x31
 10636 0315 13       		.uleb128 0x13
 10637 0316 02       		.uleb128 0x2
 10638 0317 17       		.uleb128 0x17
 10639 0318 00       		.byte	0
 10640 0319 00       		.byte	0
 10641 031a 3E       		.uleb128 0x3e
 10642 031b 34       		.uleb128 0x34
 10643 031c 00       		.byte	0
 10644 031d 31       		.uleb128 0x31
 10645 031e 13       		.uleb128 0x13
 10646 031f 00       		.byte	0
 10647 0320 00       		.byte	0
 10648 0321 3F       		.uleb128 0x3f
 10649 0322 898201   		.uleb128 0x4109
 10650 0325 01       		.byte	0x1
 10651 0326 11       		.uleb128 0x11
 10652 0327 01       		.uleb128 0x1
 10653 0328 31       		.uleb128 0x31
 10654 0329 13       		.uleb128 0x13
 10655 032a 01       		.uleb128 0x1
 10656 032b 13       		.uleb128 0x13
 10657 032c 00       		.byte	0
 10658 032d 00       		.byte	0
 10659 032e 40       		.uleb128 0x40
 10660 032f 898201   		.uleb128 0x4109
 10661 0332 00       		.byte	0
 10662 0333 11       		.uleb128 0x11
 10663 0334 01       		.uleb128 0x1
 10664 0335 31       		.uleb128 0x31
 10665 0336 13       		.uleb128 0x13
 10666 0337 00       		.byte	0
 10667 0338 00       		.byte	0
 10668 0339 41       		.uleb128 0x41
 10669 033a 1D       		.uleb128 0x1d
 10670 033b 01       		.byte	0x1
 10671 033c 31       		.uleb128 0x31
ARM GAS  C:\Users\AHMED~1.ELE\AppData\Local\Temp\ccaBET3e.s 			page 233


 10672 033d 13       		.uleb128 0x13
 10673 033e 52       		.uleb128 0x52
 10674 033f 01       		.uleb128 0x1
 10675 0340 55       		.uleb128 0x55
 10676 0341 17       		.uleb128 0x17
 10677 0342 58       		.uleb128 0x58
 10678 0343 0B       		.uleb128 0xb
 10679 0344 59       		.uleb128 0x59
 10680 0345 05       		.uleb128 0x5
 10681 0346 01       		.uleb128 0x1
 10682 0347 13       		.uleb128 0x13
 10683 0348 00       		.byte	0
 10684 0349 00       		.byte	0
 10685 034a 42       		.uleb128 0x42
 10686 034b 0B       		.uleb128 0xb
 10687 034c 01       		.byte	0x1
 10688 034d 55       		.uleb128 0x55
 10689 034e 17       		.uleb128 0x17
 10690 034f 00       		.byte	0
 10691 0350 00       		.byte	0
 10692 0351 43       		.uleb128 0x43
 10693 0352 898201   		.uleb128 0x4109
 10694 0355 00       		.byte	0
 10695 0356 11       		.uleb128 0x11
 10696 0357 01       		.uleb128 0x1
 10697 0358 9542     		.uleb128 0x2115
 10698 035a 19       		.uleb128 0x19
 10699 035b 31       		.uleb128 0x31
 10700 035c 13       		.uleb128 0x13
 10701 035d 00       		.byte	0
 10702 035e 00       		.byte	0
 10703 035f 44       		.uleb128 0x44
 10704 0360 2E       		.uleb128 0x2e
 10705 0361 01       		.byte	0x1
 10706 0362 31       		.uleb128 0x31
 10707 0363 13       		.uleb128 0x13
 10708 0364 11       		.uleb128 0x11
 10709 0365 01       		.uleb128 0x1
 10710 0366 12       		.uleb128 0x12
 10711 0367 06       		.uleb128 0x6
 10712 0368 40       		.uleb128 0x40
 10713 0369 18       		.uleb128 0x18
 10714 036a 9742     		.uleb128 0x2117
 10715 036c 19       		.uleb128 0x19
 10716 036d 01       		.uleb128 0x1
 10717 036e 13       		.uleb128 0x13
 10718 036f 00       		.byte	0
 10719 0370 00       		.byte	0
 10720 0371 45       		.uleb128 0x45
 10721 0372 0B       		.uleb128 0xb
 10722 0373 01       		.byte	0x1
 10723 0374 11       		.uleb128 0x11
 10724 0375 01       		.uleb128 0x1
 10725 0376 12       		.uleb128 0x12
 10726 0377 06       		.uleb128 0x6
 10727 0378 01       		.uleb128 0x1
 10728 0379 13       		.uleb128 0x13
ARM GAS  C:\Users\AHMED~1.ELE\AppData\Local\Temp\ccaBET3e.s 			page 234


 10729 037a 00       		.byte	0
 10730 037b 00       		.byte	0
 10731 037c 46       		.uleb128 0x46
 10732 037d 2E       		.uleb128 0x2e
 10733 037e 01       		.byte	0x1
 10734 037f 03       		.uleb128 0x3
 10735 0380 0E       		.uleb128 0xe
 10736 0381 3A       		.uleb128 0x3a
 10737 0382 0B       		.uleb128 0xb
 10738 0383 3B       		.uleb128 0x3b
 10739 0384 05       		.uleb128 0x5
 10740 0385 27       		.uleb128 0x27
 10741 0386 19       		.uleb128 0x19
 10742 0387 49       		.uleb128 0x49
 10743 0388 13       		.uleb128 0x13
 10744 0389 11       		.uleb128 0x11
 10745 038a 01       		.uleb128 0x1
 10746 038b 12       		.uleb128 0x12
 10747 038c 06       		.uleb128 0x6
 10748 038d 40       		.uleb128 0x40
 10749 038e 18       		.uleb128 0x18
 10750 038f 9642     		.uleb128 0x2116
 10751 0391 19       		.uleb128 0x19
 10752 0392 01       		.uleb128 0x1
 10753 0393 13       		.uleb128 0x13
 10754 0394 00       		.byte	0
 10755 0395 00       		.byte	0
 10756 0396 47       		.uleb128 0x47
 10757 0397 05       		.uleb128 0x5
 10758 0398 00       		.byte	0
 10759 0399 31       		.uleb128 0x31
 10760 039a 13       		.uleb128 0x13
 10761 039b 00       		.byte	0
 10762 039c 00       		.byte	0
 10763 039d 48       		.uleb128 0x48
 10764 039e 898201   		.uleb128 0x4109
 10765 03a1 01       		.byte	0x1
 10766 03a2 11       		.uleb128 0x11
 10767 03a3 01       		.uleb128 0x1
 10768 03a4 01       		.uleb128 0x1
 10769 03a5 13       		.uleb128 0x13
 10770 03a6 00       		.byte	0
 10771 03a7 00       		.byte	0
 10772 03a8 49       		.uleb128 0x49
 10773 03a9 898201   		.uleb128 0x4109
 10774 03ac 01       		.byte	0x1
 10775 03ad 11       		.uleb128 0x11
 10776 03ae 01       		.uleb128 0x1
 10777 03af 00       		.byte	0
 10778 03b0 00       		.byte	0
 10779 03b1 4A       		.uleb128 0x4a
 10780 03b2 2E       		.uleb128 0x2e
 10781 03b3 01       		.byte	0x1
 10782 03b4 03       		.uleb128 0x3
 10783 03b5 0E       		.uleb128 0xe
 10784 03b6 3A       		.uleb128 0x3a
 10785 03b7 0B       		.uleb128 0xb
ARM GAS  C:\Users\AHMED~1.ELE\AppData\Local\Temp\ccaBET3e.s 			page 235


 10786 03b8 3B       		.uleb128 0x3b
 10787 03b9 0B       		.uleb128 0xb
 10788 03ba 27       		.uleb128 0x27
 10789 03bb 19       		.uleb128 0x19
 10790 03bc 49       		.uleb128 0x49
 10791 03bd 13       		.uleb128 0x13
 10792 03be 20       		.uleb128 0x20
 10793 03bf 0B       		.uleb128 0xb
 10794 03c0 01       		.uleb128 0x1
 10795 03c1 13       		.uleb128 0x13
 10796 03c2 00       		.byte	0
 10797 03c3 00       		.byte	0
 10798 03c4 4B       		.uleb128 0x4b
 10799 03c5 05       		.uleb128 0x5
 10800 03c6 00       		.byte	0
 10801 03c7 03       		.uleb128 0x3
 10802 03c8 08       		.uleb128 0x8
 10803 03c9 3A       		.uleb128 0x3a
 10804 03ca 0B       		.uleb128 0xb
 10805 03cb 3B       		.uleb128 0x3b
 10806 03cc 0B       		.uleb128 0xb
 10807 03cd 49       		.uleb128 0x49
 10808 03ce 13       		.uleb128 0x13
 10809 03cf 00       		.byte	0
 10810 03d0 00       		.byte	0
 10811 03d1 4C       		.uleb128 0x4c
 10812 03d2 2E       		.uleb128 0x2e
 10813 03d3 01       		.byte	0x1
 10814 03d4 3F       		.uleb128 0x3f
 10815 03d5 19       		.uleb128 0x19
 10816 03d6 03       		.uleb128 0x3
 10817 03d7 0E       		.uleb128 0xe
 10818 03d8 3A       		.uleb128 0x3a
 10819 03d9 0B       		.uleb128 0xb
 10820 03da 3B       		.uleb128 0x3b
 10821 03db 05       		.uleb128 0x5
 10822 03dc 27       		.uleb128 0x27
 10823 03dd 19       		.uleb128 0x19
 10824 03de 49       		.uleb128 0x49
 10825 03df 13       		.uleb128 0x13
 10826 03e0 11       		.uleb128 0x11
 10827 03e1 01       		.uleb128 0x1
 10828 03e2 12       		.uleb128 0x12
 10829 03e3 06       		.uleb128 0x6
 10830 03e4 40       		.uleb128 0x40
 10831 03e5 18       		.uleb128 0x18
 10832 03e6 9742     		.uleb128 0x2117
 10833 03e8 19       		.uleb128 0x19
 10834 03e9 01       		.uleb128 0x1
 10835 03ea 13       		.uleb128 0x13
 10836 03eb 00       		.byte	0
 10837 03ec 00       		.byte	0
 10838 03ed 4D       		.uleb128 0x4d
 10839 03ee 0B       		.uleb128 0xb
 10840 03ef 01       		.byte	0x1
 10841 03f0 55       		.uleb128 0x55
 10842 03f1 17       		.uleb128 0x17
ARM GAS  C:\Users\AHMED~1.ELE\AppData\Local\Temp\ccaBET3e.s 			page 236


 10843 03f2 01       		.uleb128 0x1
 10844 03f3 13       		.uleb128 0x13
 10845 03f4 00       		.byte	0
 10846 03f5 00       		.byte	0
 10847 03f6 4E       		.uleb128 0x4e
 10848 03f7 1D       		.uleb128 0x1d
 10849 03f8 01       		.byte	0x1
 10850 03f9 31       		.uleb128 0x31
 10851 03fa 13       		.uleb128 0x13
 10852 03fb 52       		.uleb128 0x52
 10853 03fc 01       		.uleb128 0x1
 10854 03fd 55       		.uleb128 0x55
 10855 03fe 17       		.uleb128 0x17
 10856 03ff 58       		.uleb128 0x58
 10857 0400 0B       		.uleb128 0xb
 10858 0401 59       		.uleb128 0x59
 10859 0402 05       		.uleb128 0x5
 10860 0403 00       		.byte	0
 10861 0404 00       		.byte	0
 10862 0405 4F       		.uleb128 0x4f
 10863 0406 898201   		.uleb128 0x4109
 10864 0409 01       		.byte	0x1
 10865 040a 11       		.uleb128 0x11
 10866 040b 01       		.uleb128 0x1
 10867 040c 9542     		.uleb128 0x2115
 10868 040e 19       		.uleb128 0x19
 10869 040f 31       		.uleb128 0x31
 10870 0410 13       		.uleb128 0x13
 10871 0411 00       		.byte	0
 10872 0412 00       		.byte	0
 10873 0413 50       		.uleb128 0x50
 10874 0414 34       		.uleb128 0x34
 10875 0415 00       		.byte	0
 10876 0416 03       		.uleb128 0x3
 10877 0417 0E       		.uleb128 0xe
 10878 0418 3A       		.uleb128 0x3a
 10879 0419 0B       		.uleb128 0xb
 10880 041a 3B       		.uleb128 0x3b
 10881 041b 0B       		.uleb128 0xb
 10882 041c 49       		.uleb128 0x49
 10883 041d 13       		.uleb128 0x13
 10884 041e 02       		.uleb128 0x2
 10885 041f 18       		.uleb128 0x18
 10886 0420 00       		.byte	0
 10887 0421 00       		.byte	0
 10888 0422 51       		.uleb128 0x51
 10889 0423 2E       		.uleb128 0x2e
 10890 0424 01       		.byte	0x1
 10891 0425 3F       		.uleb128 0x3f
 10892 0426 19       		.uleb128 0x19
 10893 0427 03       		.uleb128 0x3
 10894 0428 0E       		.uleb128 0xe
 10895 0429 27       		.uleb128 0x27
 10896 042a 19       		.uleb128 0x19
 10897 042b 49       		.uleb128 0x49
 10898 042c 13       		.uleb128 0x13
 10899 042d 34       		.uleb128 0x34
ARM GAS  C:\Users\AHMED~1.ELE\AppData\Local\Temp\ccaBET3e.s 			page 237


 10900 042e 19       		.uleb128 0x19
 10901 042f 3C       		.uleb128 0x3c
 10902 0430 19       		.uleb128 0x19
 10903 0431 01       		.uleb128 0x1
 10904 0432 13       		.uleb128 0x13
 10905 0433 00       		.byte	0
 10906 0434 00       		.byte	0
 10907 0435 52       		.uleb128 0x52
 10908 0436 2E       		.uleb128 0x2e
 10909 0437 01       		.byte	0x1
 10910 0438 3F       		.uleb128 0x3f
 10911 0439 19       		.uleb128 0x19
 10912 043a 03       		.uleb128 0x3
 10913 043b 0E       		.uleb128 0xe
 10914 043c 3A       		.uleb128 0x3a
 10915 043d 0B       		.uleb128 0xb
 10916 043e 3B       		.uleb128 0x3b
 10917 043f 0B       		.uleb128 0xb
 10918 0440 27       		.uleb128 0x27
 10919 0441 19       		.uleb128 0x19
 10920 0442 49       		.uleb128 0x49
 10921 0443 13       		.uleb128 0x13
 10922 0444 3C       		.uleb128 0x3c
 10923 0445 19       		.uleb128 0x19
 10924 0446 01       		.uleb128 0x1
 10925 0447 13       		.uleb128 0x13
 10926 0448 00       		.byte	0
 10927 0449 00       		.byte	0
 10928 044a 53       		.uleb128 0x53
 10929 044b 2E       		.uleb128 0x2e
 10930 044c 01       		.byte	0x1
 10931 044d 3F       		.uleb128 0x3f
 10932 044e 19       		.uleb128 0x19
 10933 044f 03       		.uleb128 0x3
 10934 0450 0E       		.uleb128 0xe
 10935 0451 3A       		.uleb128 0x3a
 10936 0452 0B       		.uleb128 0xb
 10937 0453 3B       		.uleb128 0x3b
 10938 0454 0B       		.uleb128 0xb
 10939 0455 27       		.uleb128 0x27
 10940 0456 19       		.uleb128 0x19
 10941 0457 49       		.uleb128 0x49
 10942 0458 13       		.uleb128 0x13
 10943 0459 3C       		.uleb128 0x3c
 10944 045a 19       		.uleb128 0x19
 10945 045b 00       		.byte	0
 10946 045c 00       		.byte	0
 10947 045d 00       		.byte	0
 10948              		.section	.debug_loc,"",%progbits
 10949              	.Ldebug_loc0:
 10950              	.LLST0:
 10951 0000 00000000 		.4byte	.LVL0
 10952 0004 08000000 		.4byte	.LVL1
 10953 0008 0100     		.2byte	0x1
 10954 000a 50       		.byte	0x50
 10955 000b 08000000 		.4byte	.LVL1
 10956 000f 16000000 		.4byte	.LVL5
ARM GAS  C:\Users\AHMED~1.ELE\AppData\Local\Temp\ccaBET3e.s 			page 238


 10957 0013 0100     		.2byte	0x1
 10958 0015 52       		.byte	0x52
 10959 0016 16000000 		.4byte	.LVL5
 10960 001a 18000000 		.4byte	.LVL6
 10961 001e 0300     		.2byte	0x3
 10962 0020 72       		.byte	0x72
 10963 0021 7F       		.sleb128 -1
 10964 0022 9F       		.byte	0x9f
 10965 0023 18000000 		.4byte	.LVL6
 10966 0027 1E000000 		.4byte	.LFE0
 10967 002b 0100     		.2byte	0x1
 10968 002d 52       		.byte	0x52
 10969 002e 00000000 		.4byte	0
 10970 0032 00000000 		.4byte	0
 10971              	.LLST1:
 10972 0036 00000000 		.4byte	.LVL0
 10973 003a 08000000 		.4byte	.LVL1
 10974 003e 0400     		.2byte	0x4
 10975 0040 0A       		.byte	0xa
 10976 0041 0515     		.2byte	0x1505
 10977 0043 9F       		.byte	0x9f
 10978 0044 08000000 		.4byte	.LVL1
 10979 0048 12000000 		.4byte	.LVL4
 10980 004c 0100     		.2byte	0x1
 10981 004e 53       		.byte	0x53
 10982 004f 18000000 		.4byte	.LVL6
 10983 0053 1E000000 		.4byte	.LFE0
 10984 0057 0100     		.2byte	0x1
 10985 0059 53       		.byte	0x53
 10986 005a 00000000 		.4byte	0
 10987 005e 00000000 		.4byte	0
 10988              	.LLST2:
 10989 0062 00000000 		.4byte	.LVL0
 10990 0066 08000000 		.4byte	.LVL1
 10991 006a 0200     		.2byte	0x2
 10992 006c 30       		.byte	0x30
 10993 006d 9F       		.byte	0x9f
 10994 006e 08000000 		.4byte	.LVL1
 10995 0072 0A000000 		.4byte	.LVL2
 10996 0076 0600     		.2byte	0x6
 10997 0078 72       		.byte	0x72
 10998 0079 00       		.sleb128 0
 10999 007a 70       		.byte	0x70
 11000 007b 00       		.sleb128 0
 11001 007c 1C       		.byte	0x1c
 11002 007d 9F       		.byte	0x9f
 11003 007e 0A000000 		.4byte	.LVL2
 11004 0082 10000000 		.4byte	.LVL3
 11005 0086 0100     		.2byte	0x1
 11006 0088 54       		.byte	0x54
 11007 0089 10000000 		.4byte	.LVL3
 11008 008d 16000000 		.4byte	.LVL5
 11009 0091 0600     		.2byte	0x6
 11010 0093 72       		.byte	0x72
 11011 0094 00       		.sleb128 0
 11012 0095 70       		.byte	0x70
 11013 0096 00       		.sleb128 0
ARM GAS  C:\Users\AHMED~1.ELE\AppData\Local\Temp\ccaBET3e.s 			page 239


 11014 0097 1C       		.byte	0x1c
 11015 0098 9F       		.byte	0x9f
 11016 0099 16000000 		.4byte	.LVL5
 11017 009d 18000000 		.4byte	.LVL6
 11018 00a1 0700     		.2byte	0x7
 11019 00a3 70       		.byte	0x70
 11020 00a4 00       		.sleb128 0
 11021 00a5 20       		.byte	0x20
 11022 00a6 72       		.byte	0x72
 11023 00a7 00       		.sleb128 0
 11024 00a8 22       		.byte	0x22
 11025 00a9 9F       		.byte	0x9f
 11026 00aa 1A000000 		.4byte	.LVL7
 11027 00ae 1E000000 		.4byte	.LFE0
 11028 00b2 0100     		.2byte	0x1
 11029 00b4 54       		.byte	0x54
 11030 00b5 00000000 		.4byte	0
 11031 00b9 00000000 		.4byte	0
 11032              	.LLST3:
 11033 00bd 00000000 		.4byte	.LVL8
 11034 00c1 54000000 		.4byte	.LVL19
 11035 00c5 0100     		.2byte	0x1
 11036 00c7 50       		.byte	0x50
 11037 00c8 54000000 		.4byte	.LVL19
 11038 00cc 56000000 		.4byte	.LVL20
 11039 00d0 0400     		.2byte	0x4
 11040 00d2 F3       		.byte	0xf3
 11041 00d3 01       		.uleb128 0x1
 11042 00d4 50       		.byte	0x50
 11043 00d5 9F       		.byte	0x9f
 11044 00d6 56000000 		.4byte	.LVL20
 11045 00da 58000000 		.4byte	.LVL21
 11046 00de 0100     		.2byte	0x1
 11047 00e0 50       		.byte	0x50
 11048 00e1 58000000 		.4byte	.LVL21
 11049 00e5 5A000000 		.4byte	.LFE2
 11050 00e9 0400     		.2byte	0x4
 11051 00eb F3       		.byte	0xf3
 11052 00ec 01       		.uleb128 0x1
 11053 00ed 50       		.byte	0x50
 11054 00ee 9F       		.byte	0x9f
 11055 00ef 00000000 		.4byte	0
 11056 00f3 00000000 		.4byte	0
 11057              	.LLST4:
 11058 00f7 00000000 		.4byte	.LVL8
 11059 00fb 2A000000 		.4byte	.LVL12
 11060 00ff 0100     		.2byte	0x1
 11061 0101 51       		.byte	0x51
 11062 0102 2A000000 		.4byte	.LVL12
 11063 0106 5A000000 		.4byte	.LFE2
 11064 010a 0400     		.2byte	0x4
 11065 010c F3       		.byte	0xf3
 11066 010d 01       		.uleb128 0x1
 11067 010e 51       		.byte	0x51
 11068 010f 9F       		.byte	0x9f
 11069 0110 00000000 		.4byte	0
 11070 0114 00000000 		.4byte	0
ARM GAS  C:\Users\AHMED~1.ELE\AppData\Local\Temp\ccaBET3e.s 			page 240


 11071              	.LLST5:
 11072 0118 06000000 		.4byte	.LVL9
 11073 011c 22000000 		.4byte	.LVL11
 11074 0120 0100     		.2byte	0x1
 11075 0122 56       		.byte	0x56
 11076 0123 22000000 		.4byte	.LVL11
 11077 0127 34000000 		.4byte	.LVL13
 11078 012b 0100     		.2byte	0x1
 11079 012d 54       		.byte	0x54
 11080 012e 34000000 		.4byte	.LVL13
 11081 0132 3A000000 		.4byte	.LVL14
 11082 0136 0100     		.2byte	0x1
 11083 0138 56       		.byte	0x56
 11084 0139 3A000000 		.4byte	.LVL14
 11085 013d 40000000 		.4byte	.LVL16
 11086 0141 0300     		.2byte	0x3
 11087 0143 76       		.byte	0x76
 11088 0144 7F       		.sleb128 -1
 11089 0145 9F       		.byte	0x9f
 11090 0146 40000000 		.4byte	.LVL16
 11091 014a 4C000000 		.4byte	.LVL18
 11092 014e 0100     		.2byte	0x1
 11093 0150 56       		.byte	0x56
 11094 0151 4C000000 		.4byte	.LVL18
 11095 0155 56000000 		.4byte	.LVL20
 11096 0159 0100     		.2byte	0x1
 11097 015b 54       		.byte	0x54
 11098 015c 00000000 		.4byte	0
 11099 0160 00000000 		.4byte	0
 11100              	.LLST6:
 11101 0164 1E000000 		.4byte	.LVL10
 11102 0168 3C000000 		.4byte	.LVL15
 11103 016c 0100     		.2byte	0x1
 11104 016e 53       		.byte	0x53
 11105 016f 3C000000 		.4byte	.LVL15
 11106 0173 40000000 		.4byte	.LVL16
 11107 0177 0300     		.2byte	0x3
 11108 0179 73       		.byte	0x73
 11109 017a 01       		.sleb128 1
 11110 017b 9F       		.byte	0x9f
 11111 017c 40000000 		.4byte	.LVL16
 11112 0180 48000000 		.4byte	.LVL17
 11113 0184 0100     		.2byte	0x1
 11114 0186 53       		.byte	0x53
 11115 0187 4C000000 		.4byte	.LVL18
 11116 018b 56000000 		.4byte	.LVL20
 11117 018f 0100     		.2byte	0x1
 11118 0191 53       		.byte	0x53
 11119 0192 00000000 		.4byte	0
 11120 0196 00000000 		.4byte	0
 11121              	.LLST7:
 11122 019a 34000000 		.4byte	.LVL13
 11123 019e 4C000000 		.4byte	.LVL18
 11124 01a2 0100     		.2byte	0x1
 11125 01a4 51       		.byte	0x51
 11126 01a5 00000000 		.4byte	0
 11127 01a9 00000000 		.4byte	0
ARM GAS  C:\Users\AHMED~1.ELE\AppData\Local\Temp\ccaBET3e.s 			page 241


 11128              	.LLST8:
 11129 01ad 00000000 		.4byte	.LVL22
 11130 01b1 0C000000 		.4byte	.LVL24
 11131 01b5 0100     		.2byte	0x1
 11132 01b7 50       		.byte	0x50
 11133 01b8 0C000000 		.4byte	.LVL24
 11134 01bc 10000000 		.4byte	.LVL25
 11135 01c0 0100     		.2byte	0x1
 11136 01c2 55       		.byte	0x55
 11137 01c3 10000000 		.4byte	.LVL25
 11138 01c7 1C000000 		.4byte	.LVL26
 11139 01cb 0100     		.2byte	0x1
 11140 01cd 50       		.byte	0x50
 11141 01ce 1C000000 		.4byte	.LVL26
 11142 01d2 8A000000 		.4byte	.LFE4
 11143 01d6 0100     		.2byte	0x1
 11144 01d8 55       		.byte	0x55
 11145 01d9 00000000 		.4byte	0
 11146 01dd 00000000 		.4byte	0
 11147              	.LLST9:
 11148 01e1 00000000 		.4byte	.LVL22
 11149 01e5 0C000000 		.4byte	.LVL24
 11150 01e9 0100     		.2byte	0x1
 11151 01eb 51       		.byte	0x51
 11152 01ec 0C000000 		.4byte	.LVL24
 11153 01f0 10000000 		.4byte	.LVL25
 11154 01f4 0400     		.2byte	0x4
 11155 01f6 F3       		.byte	0xf3
 11156 01f7 01       		.uleb128 0x1
 11157 01f8 51       		.byte	0x51
 11158 01f9 9F       		.byte	0x9f
 11159 01fa 10000000 		.4byte	.LVL25
 11160 01fe 1E000000 		.4byte	.LVL27
 11161 0202 0100     		.2byte	0x1
 11162 0204 51       		.byte	0x51
 11163 0205 1E000000 		.4byte	.LVL27
 11164 0209 32000000 		.4byte	.LVL30
 11165 020d 0100     		.2byte	0x1
 11166 020f 54       		.byte	0x54
 11167 0210 32000000 		.4byte	.LVL30
 11168 0214 8A000000 		.4byte	.LFE4
 11169 0218 0400     		.2byte	0x4
 11170 021a F3       		.byte	0xf3
 11171 021b 01       		.uleb128 0x1
 11172 021c 51       		.byte	0x51
 11173 021d 9F       		.byte	0x9f
 11174 021e 00000000 		.4byte	0
 11175 0222 00000000 		.4byte	0
 11176              	.LLST10:
 11177 0226 00000000 		.4byte	.LVL22
 11178 022a 0C000000 		.4byte	.LVL24
 11179 022e 0100     		.2byte	0x1
 11180 0230 52       		.byte	0x52
 11181 0231 0C000000 		.4byte	.LVL24
 11182 0235 10000000 		.4byte	.LVL25
 11183 0239 0100     		.2byte	0x1
 11184 023b 56       		.byte	0x56
ARM GAS  C:\Users\AHMED~1.ELE\AppData\Local\Temp\ccaBET3e.s 			page 242


 11185 023c 10000000 		.4byte	.LVL25
 11186 0240 20000000 		.4byte	.LVL28
 11187 0244 0100     		.2byte	0x1
 11188 0246 52       		.byte	0x52
 11189 0247 20000000 		.4byte	.LVL28
 11190 024b 8A000000 		.4byte	.LFE4
 11191 024f 0100     		.2byte	0x1
 11192 0251 56       		.byte	0x56
 11193 0252 00000000 		.4byte	0
 11194 0256 00000000 		.4byte	0
 11195              	.LLST11:
 11196 025a 0A000000 		.4byte	.LVL23
 11197 025e 0C000000 		.4byte	.LVL24
 11198 0262 0600     		.2byte	0x6
 11199 0264 77       		.byte	0x77
 11200 0265 00       		.sleb128 0
 11201 0266 71       		.byte	0x71
 11202 0267 00       		.sleb128 0
 11203 0268 22       		.byte	0x22
 11204 0269 9F       		.byte	0x9f
 11205 026a 0C000000 		.4byte	.LVL24
 11206 026e 10000000 		.4byte	.LVL25
 11207 0272 0700     		.2byte	0x7
 11208 0274 77       		.byte	0x77
 11209 0275 00       		.sleb128 0
 11210 0276 F3       		.byte	0xf3
 11211 0277 01       		.uleb128 0x1
 11212 0278 51       		.byte	0x51
 11213 0279 22       		.byte	0x22
 11214 027a 9F       		.byte	0x9f
 11215 027b 10000000 		.4byte	.LVL25
 11216 027f 1E000000 		.4byte	.LVL27
 11217 0283 0600     		.2byte	0x6
 11218 0285 77       		.byte	0x77
 11219 0286 00       		.sleb128 0
 11220 0287 71       		.byte	0x71
 11221 0288 00       		.sleb128 0
 11222 0289 22       		.byte	0x22
 11223 028a 9F       		.byte	0x9f
 11224 028b 1E000000 		.4byte	.LVL27
 11225 028f 32000000 		.4byte	.LVL30
 11226 0293 0600     		.2byte	0x6
 11227 0295 77       		.byte	0x77
 11228 0296 00       		.sleb128 0
 11229 0297 74       		.byte	0x74
 11230 0298 00       		.sleb128 0
 11231 0299 22       		.byte	0x22
 11232 029a 9F       		.byte	0x9f
 11233 029b 32000000 		.4byte	.LVL30
 11234 029f 8A000000 		.4byte	.LFE4
 11235 02a3 0700     		.2byte	0x7
 11236 02a5 77       		.byte	0x77
 11237 02a6 00       		.sleb128 0
 11238 02a7 F3       		.byte	0xf3
 11239 02a8 01       		.uleb128 0x1
 11240 02a9 51       		.byte	0x51
 11241 02aa 22       		.byte	0x22
ARM GAS  C:\Users\AHMED~1.ELE\AppData\Local\Temp\ccaBET3e.s 			page 243


 11242 02ab 9F       		.byte	0x9f
 11243 02ac 00000000 		.4byte	0
 11244 02b0 00000000 		.4byte	0
 11245              	.LLST12:
 11246 02b4 38000000 		.4byte	.LVL31
 11247 02b8 44000000 		.4byte	.LVL32
 11248 02bc 0200     		.2byte	0x2
 11249 02be 30       		.byte	0x30
 11250 02bf 9F       		.byte	0x9f
 11251 02c0 44000000 		.4byte	.LVL32
 11252 02c4 62000000 		.4byte	.LVL34
 11253 02c8 0100     		.2byte	0x1
 11254 02ca 53       		.byte	0x53
 11255 02cb 62000000 		.4byte	.LVL34
 11256 02cf 64000000 		.4byte	.LVL35
 11257 02d3 0400     		.2byte	0x4
 11258 02d5 73       		.byte	0x73
 11259 02d6 00       		.sleb128 0
 11260 02d7 20       		.byte	0x20
 11261 02d8 9F       		.byte	0x9f
 11262 02d9 64000000 		.4byte	.LVL35
 11263 02dd 7C000000 		.4byte	.LVL37
 11264 02e1 0100     		.2byte	0x1
 11265 02e3 53       		.byte	0x53
 11266 02e4 00000000 		.4byte	0
 11267 02e8 00000000 		.4byte	0
 11268              	.LLST13:
 11269 02ec 00000000 		.4byte	.LVL38
 11270 02f0 0C000000 		.4byte	.LVL39
 11271 02f4 0100     		.2byte	0x1
 11272 02f6 50       		.byte	0x50
 11273 02f7 0C000000 		.4byte	.LVL39
 11274 02fb 10000000 		.4byte	.LVL40
 11275 02ff 0100     		.2byte	0x1
 11276 0301 55       		.byte	0x55
 11277 0302 10000000 		.4byte	.LVL40
 11278 0306 1C000000 		.4byte	.LVL42
 11279 030a 0100     		.2byte	0x1
 11280 030c 50       		.byte	0x50
 11281 030d 1C000000 		.4byte	.LVL42
 11282 0311 38000000 		.4byte	.LFE6
 11283 0315 0100     		.2byte	0x1
 11284 0317 55       		.byte	0x55
 11285 0318 00000000 		.4byte	0
 11286 031c 00000000 		.4byte	0
 11287              	.LLST14:
 11288 0320 00000000 		.4byte	.LVL38
 11289 0324 0C000000 		.4byte	.LVL39
 11290 0328 0100     		.2byte	0x1
 11291 032a 51       		.byte	0x51
 11292 032b 0C000000 		.4byte	.LVL39
 11293 032f 10000000 		.4byte	.LVL40
 11294 0333 0100     		.2byte	0x1
 11295 0335 54       		.byte	0x54
 11296 0336 10000000 		.4byte	.LVL40
 11297 033a 12000000 		.4byte	.LVL41
 11298 033e 0100     		.2byte	0x1
ARM GAS  C:\Users\AHMED~1.ELE\AppData\Local\Temp\ccaBET3e.s 			page 244


 11299 0340 51       		.byte	0x51
 11300 0341 12000000 		.4byte	.LVL41
 11301 0345 38000000 		.4byte	.LFE6
 11302 0349 0100     		.2byte	0x1
 11303 034b 54       		.byte	0x54
 11304 034c 00000000 		.4byte	0
 11305 0350 00000000 		.4byte	0
 11306              	.LLST15:
 11307 0354 00000000 		.4byte	.LVL38
 11308 0358 0C000000 		.4byte	.LVL39
 11309 035c 0100     		.2byte	0x1
 11310 035e 52       		.byte	0x52
 11311 035f 0C000000 		.4byte	.LVL39
 11312 0363 10000000 		.4byte	.LVL40
 11313 0367 0100     		.2byte	0x1
 11314 0369 56       		.byte	0x56
 11315 036a 10000000 		.4byte	.LVL40
 11316 036e 21000000 		.4byte	.LVL43-1
 11317 0372 0100     		.2byte	0x1
 11318 0374 52       		.byte	0x52
 11319 0375 21000000 		.4byte	.LVL43-1
 11320 0379 38000000 		.4byte	.LFE6
 11321 037d 0100     		.2byte	0x1
 11322 037f 56       		.byte	0x56
 11323 0380 00000000 		.4byte	0
 11324 0384 00000000 		.4byte	0
 11325              	.LLST16:
 11326 0388 00000000 		.4byte	.LVL44
 11327 038c 0C000000 		.4byte	.LVL45
 11328 0390 0100     		.2byte	0x1
 11329 0392 50       		.byte	0x50
 11330 0393 0C000000 		.4byte	.LVL45
 11331 0397 10000000 		.4byte	.LVL46
 11332 039b 0100     		.2byte	0x1
 11333 039d 55       		.byte	0x55
 11334 039e 10000000 		.4byte	.LVL46
 11335 03a2 1C000000 		.4byte	.LVL48
 11336 03a6 0100     		.2byte	0x1
 11337 03a8 50       		.byte	0x50
 11338 03a9 1C000000 		.4byte	.LVL48
 11339 03ad 38000000 		.4byte	.LFE7
 11340 03b1 0100     		.2byte	0x1
 11341 03b3 55       		.byte	0x55
 11342 03b4 00000000 		.4byte	0
 11343 03b8 00000000 		.4byte	0
 11344              	.LLST17:
 11345 03bc 00000000 		.4byte	.LVL44
 11346 03c0 0C000000 		.4byte	.LVL45
 11347 03c4 0100     		.2byte	0x1
 11348 03c6 51       		.byte	0x51
 11349 03c7 0C000000 		.4byte	.LVL45
 11350 03cb 10000000 		.4byte	.LVL46
 11351 03cf 0100     		.2byte	0x1
 11352 03d1 54       		.byte	0x54
 11353 03d2 10000000 		.4byte	.LVL46
 11354 03d6 12000000 		.4byte	.LVL47
 11355 03da 0100     		.2byte	0x1
ARM GAS  C:\Users\AHMED~1.ELE\AppData\Local\Temp\ccaBET3e.s 			page 245


 11356 03dc 51       		.byte	0x51
 11357 03dd 12000000 		.4byte	.LVL47
 11358 03e1 38000000 		.4byte	.LFE7
 11359 03e5 0100     		.2byte	0x1
 11360 03e7 54       		.byte	0x54
 11361 03e8 00000000 		.4byte	0
 11362 03ec 00000000 		.4byte	0
 11363              	.LLST18:
 11364 03f0 00000000 		.4byte	.LVL44
 11365 03f4 0C000000 		.4byte	.LVL45
 11366 03f8 0100     		.2byte	0x1
 11367 03fa 52       		.byte	0x52
 11368 03fb 0C000000 		.4byte	.LVL45
 11369 03ff 10000000 		.4byte	.LVL46
 11370 0403 0100     		.2byte	0x1
 11371 0405 56       		.byte	0x56
 11372 0406 10000000 		.4byte	.LVL46
 11373 040a 21000000 		.4byte	.LVL49-1
 11374 040e 0100     		.2byte	0x1
 11375 0410 52       		.byte	0x52
 11376 0411 21000000 		.4byte	.LVL49-1
 11377 0415 38000000 		.4byte	.LFE7
 11378 0419 0100     		.2byte	0x1
 11379 041b 56       		.byte	0x56
 11380 041c 00000000 		.4byte	0
 11381 0420 00000000 		.4byte	0
 11382              	.LLST19:
 11383 0424 00000000 		.4byte	.LVL50
 11384 0428 08000000 		.4byte	.LVL51
 11385 042c 0100     		.2byte	0x1
 11386 042e 50       		.byte	0x50
 11387 042f 08000000 		.4byte	.LVL51
 11388 0433 0C000000 		.4byte	.LVL52
 11389 0437 0100     		.2byte	0x1
 11390 0439 54       		.byte	0x54
 11391 043a 0C000000 		.4byte	.LVL52
 11392 043e 16000000 		.4byte	.LVL54
 11393 0442 0100     		.2byte	0x1
 11394 0444 50       		.byte	0x50
 11395 0445 16000000 		.4byte	.LVL54
 11396 0449 46000000 		.4byte	.LFE10
 11397 044d 0100     		.2byte	0x1
 11398 044f 54       		.byte	0x54
 11399 0450 00000000 		.4byte	0
 11400 0454 00000000 		.4byte	0
 11401              	.LLST20:
 11402 0458 00000000 		.4byte	.LVL50
 11403 045c 08000000 		.4byte	.LVL51
 11404 0460 0100     		.2byte	0x1
 11405 0462 51       		.byte	0x51
 11406 0463 08000000 		.4byte	.LVL51
 11407 0467 0C000000 		.4byte	.LVL52
 11408 046b 0400     		.2byte	0x4
 11409 046d F3       		.byte	0xf3
 11410 046e 01       		.uleb128 0x1
 11411 046f 51       		.byte	0x51
 11412 0470 9F       		.byte	0x9f
ARM GAS  C:\Users\AHMED~1.ELE\AppData\Local\Temp\ccaBET3e.s 			page 246


 11413 0471 0C000000 		.4byte	.LVL52
 11414 0475 27000000 		.4byte	.LVL55-1
 11415 0479 0100     		.2byte	0x1
 11416 047b 51       		.byte	0x51
 11417 047c 27000000 		.4byte	.LVL55-1
 11418 0480 46000000 		.4byte	.LFE10
 11419 0484 0400     		.2byte	0x4
 11420 0486 F3       		.byte	0xf3
 11421 0487 01       		.uleb128 0x1
 11422 0488 51       		.byte	0x51
 11423 0489 9F       		.byte	0x9f
 11424 048a 00000000 		.4byte	0
 11425 048e 00000000 		.4byte	0
 11426              	.LLST21:
 11427 0492 00000000 		.4byte	.LVL50
 11428 0496 08000000 		.4byte	.LVL51
 11429 049a 0100     		.2byte	0x1
 11430 049c 52       		.byte	0x52
 11431 049d 08000000 		.4byte	.LVL51
 11432 04a1 0C000000 		.4byte	.LVL52
 11433 04a5 0400     		.2byte	0x4
 11434 04a7 F3       		.byte	0xf3
 11435 04a8 01       		.uleb128 0x1
 11436 04a9 52       		.byte	0x52
 11437 04aa 9F       		.byte	0x9f
 11438 04ab 0C000000 		.4byte	.LVL52
 11439 04af 12000000 		.4byte	.LVL53
 11440 04b3 0100     		.2byte	0x1
 11441 04b5 52       		.byte	0x52
 11442 04b6 12000000 		.4byte	.LVL53
 11443 04ba 46000000 		.4byte	.LFE10
 11444 04be 0400     		.2byte	0x4
 11445 04c0 F3       		.byte	0xf3
 11446 04c1 01       		.uleb128 0x1
 11447 04c2 52       		.byte	0x52
 11448 04c3 9F       		.byte	0x9f
 11449 04c4 00000000 		.4byte	0
 11450 04c8 00000000 		.4byte	0
 11451              	.LLST22:
 11452 04cc 32000000 		.4byte	.LVL56
 11453 04d0 34000000 		.4byte	.LVL57
 11454 04d4 0800     		.2byte	0x8
 11455 04d6 73       		.byte	0x73
 11456 04d7 00       		.sleb128 0
 11457 04d8 94       		.byte	0x94
 11458 04d9 01       		.byte	0x1
 11459 04da 08       		.byte	0x8
 11460 04db FF       		.byte	0xff
 11461 04dc 1A       		.byte	0x1a
 11462 04dd 9F       		.byte	0x9f
 11463 04de 34000000 		.4byte	.LVL57
 11464 04e2 3A000000 		.4byte	.LVL58
 11465 04e6 0100     		.2byte	0x1
 11466 04e8 53       		.byte	0x53
 11467 04e9 3A000000 		.4byte	.LVL58
 11468 04ed 3E000000 		.4byte	.LVL59
 11469 04f1 0800     		.2byte	0x8
ARM GAS  C:\Users\AHMED~1.ELE\AppData\Local\Temp\ccaBET3e.s 			page 247


 11470 04f3 72       		.byte	0x72
 11471 04f4 7F       		.sleb128 -1
 11472 04f5 94       		.byte	0x94
 11473 04f6 01       		.byte	0x1
 11474 04f7 08       		.byte	0x8
 11475 04f8 FF       		.byte	0xff
 11476 04f9 1A       		.byte	0x1a
 11477 04fa 9F       		.byte	0x9f
 11478 04fb 00000000 		.4byte	0
 11479 04ff 00000000 		.4byte	0
 11480              	.LLST23:
 11481 0503 00000000 		.4byte	.LVL60
 11482 0507 14000000 		.4byte	.LVL62
 11483 050b 0100     		.2byte	0x1
 11484 050d 50       		.byte	0x50
 11485 050e 14000000 		.4byte	.LVL62
 11486 0512 18000000 		.4byte	.LVL63
 11487 0516 0100     		.2byte	0x1
 11488 0518 57       		.byte	0x57
 11489 0519 18000000 		.4byte	.LVL63
 11490 051d 1A000000 		.4byte	.LVL64
 11491 0521 0100     		.2byte	0x1
 11492 0523 50       		.byte	0x50
 11493 0524 1A000000 		.4byte	.LVL64
 11494 0528 28020000 		.4byte	.LVL97
 11495 052c 0100     		.2byte	0x1
 11496 052e 57       		.byte	0x57
 11497 052f 28020000 		.4byte	.LVL97
 11498 0533 34020000 		.4byte	.LFE15
 11499 0537 0400     		.2byte	0x4
 11500 0539 F3       		.byte	0xf3
 11501 053a 01       		.uleb128 0x1
 11502 053b 50       		.byte	0x50
 11503 053c 9F       		.byte	0x9f
 11504 053d 00000000 		.4byte	0
 11505 0541 00000000 		.4byte	0
 11506              	.LLST24:
 11507 0545 00000000 		.4byte	.LVL60
 11508 0549 14000000 		.4byte	.LVL62
 11509 054d 0100     		.2byte	0x1
 11510 054f 51       		.byte	0x51
 11511 0550 14000000 		.4byte	.LVL62
 11512 0554 18000000 		.4byte	.LVL63
 11513 0558 0400     		.2byte	0x4
 11514 055a F3       		.byte	0xf3
 11515 055b 01       		.uleb128 0x1
 11516 055c 51       		.byte	0x51
 11517 055d 9F       		.byte	0x9f
 11518 055e 18000000 		.4byte	.LVL63
 11519 0562 1F000000 		.4byte	.LVL66-1
 11520 0566 0100     		.2byte	0x1
 11521 0568 51       		.byte	0x51
 11522 0569 1F000000 		.4byte	.LVL66-1
 11523 056d 52000000 		.4byte	.LVL69
 11524 0571 0100     		.2byte	0x1
 11525 0573 56       		.byte	0x56
 11526 0574 52000000 		.4byte	.LVL69
ARM GAS  C:\Users\AHMED~1.ELE\AppData\Local\Temp\ccaBET3e.s 			page 248


 11527 0578 34020000 		.4byte	.LFE15
 11528 057c 0400     		.2byte	0x4
 11529 057e F3       		.byte	0xf3
 11530 057f 01       		.uleb128 0x1
 11531 0580 51       		.byte	0x51
 11532 0581 9F       		.byte	0x9f
 11533 0582 00000000 		.4byte	0
 11534 0586 00000000 		.4byte	0
 11535              	.LLST25:
 11536 058a 00000000 		.4byte	.LVL60
 11537 058e 14000000 		.4byte	.LVL62
 11538 0592 0100     		.2byte	0x1
 11539 0594 52       		.byte	0x52
 11540 0595 14000000 		.4byte	.LVL62
 11541 0599 18000000 		.4byte	.LVL63
 11542 059d 0400     		.2byte	0x4
 11543 059f F3       		.byte	0xf3
 11544 05a0 01       		.uleb128 0x1
 11545 05a1 52       		.byte	0x52
 11546 05a2 9F       		.byte	0x9f
 11547 05a3 18000000 		.4byte	.LVL63
 11548 05a7 1C000000 		.4byte	.LVL65
 11549 05ab 0100     		.2byte	0x1
 11550 05ad 52       		.byte	0x52
 11551 05ae 1C000000 		.4byte	.LVL65
 11552 05b2 C8000000 		.4byte	.LVL75
 11553 05b6 0100     		.2byte	0x1
 11554 05b8 59       		.byte	0x59
 11555 05b9 C8000000 		.4byte	.LVL75
 11556 05bd 34020000 		.4byte	.LFE15
 11557 05c1 0400     		.2byte	0x4
 11558 05c3 F3       		.byte	0xf3
 11559 05c4 01       		.uleb128 0x1
 11560 05c5 52       		.byte	0x52
 11561 05c6 9F       		.byte	0x9f
 11562 05c7 00000000 		.4byte	0
 11563 05cb 00000000 		.4byte	0
 11564              	.LLST26:
 11565 05cf 00000000 		.4byte	.LVL60
 11566 05d3 14000000 		.4byte	.LVL62
 11567 05d7 0100     		.2byte	0x1
 11568 05d9 53       		.byte	0x53
 11569 05da 14000000 		.4byte	.LVL62
 11570 05de 18000000 		.4byte	.LVL63
 11571 05e2 0100     		.2byte	0x1
 11572 05e4 54       		.byte	0x54
 11573 05e5 18000000 		.4byte	.LVL63
 11574 05e9 1F000000 		.4byte	.LVL66-1
 11575 05ed 0100     		.2byte	0x1
 11576 05ef 53       		.byte	0x53
 11577 05f0 1F000000 		.4byte	.LVL66-1
 11578 05f4 28020000 		.4byte	.LVL97
 11579 05f8 0100     		.2byte	0x1
 11580 05fa 54       		.byte	0x54
 11581 05fb 28020000 		.4byte	.LVL97
 11582 05ff 34020000 		.4byte	.LFE15
 11583 0603 0400     		.2byte	0x4
ARM GAS  C:\Users\AHMED~1.ELE\AppData\Local\Temp\ccaBET3e.s 			page 249


 11584 0605 F3       		.byte	0xf3
 11585 0606 01       		.uleb128 0x1
 11586 0607 53       		.byte	0x53
 11587 0608 9F       		.byte	0x9f
 11588 0609 00000000 		.4byte	0
 11589 060d 00000000 		.4byte	0
 11590              	.LLST27:
 11591 0611 00000000 		.4byte	.LVL60
 11592 0615 28020000 		.4byte	.LVL97
 11593 0619 0200     		.2byte	0x2
 11594 061b 91       		.byte	0x91
 11595 061c 00       		.sleb128 0
 11596 061d 28020000 		.4byte	.LVL97
 11597 0621 34020000 		.4byte	.LFE15
 11598 0625 0200     		.2byte	0x2
 11599 0627 7D       		.byte	0x7d
 11600 0628 00       		.sleb128 0
 11601 0629 00000000 		.4byte	0
 11602 062d 00000000 		.4byte	0
 11603              	.LLST28:
 11604 0631 12000000 		.4byte	.LVL61
 11605 0635 14000000 		.4byte	.LVL62
 11606 0639 0600     		.2byte	0x6
 11607 063b 75       		.byte	0x75
 11608 063c 00       		.sleb128 0
 11609 063d 71       		.byte	0x71
 11610 063e 00       		.sleb128 0
 11611 063f 22       		.byte	0x22
 11612 0640 9F       		.byte	0x9f
 11613 0641 18000000 		.4byte	.LVL63
 11614 0645 1F000000 		.4byte	.LVL66-1
 11615 0649 0600     		.2byte	0x6
 11616 064b 75       		.byte	0x75
 11617 064c 00       		.sleb128 0
 11618 064d 71       		.byte	0x71
 11619 064e 00       		.sleb128 0
 11620 064f 22       		.byte	0x22
 11621 0650 9F       		.byte	0x9f
 11622 0651 1F000000 		.4byte	.LVL66-1
 11623 0655 28000000 		.4byte	.LVL67
 11624 0659 0600     		.2byte	0x6
 11625 065b 75       		.byte	0x75
 11626 065c 00       		.sleb128 0
 11627 065d 76       		.byte	0x76
 11628 065e 00       		.sleb128 0
 11629 065f 22       		.byte	0x22
 11630 0660 9F       		.byte	0x9f
 11631 0661 00000000 		.4byte	0
 11632 0665 00000000 		.4byte	0
 11633              	.LLST29:
 11634 0669 92000000 		.4byte	.LVL71
 11635 066d 1C020000 		.4byte	.LVL96
 11636 0671 0100     		.2byte	0x1
 11637 0673 54       		.byte	0x54
 11638 0674 00000000 		.4byte	0
 11639 0678 00000000 		.4byte	0
 11640              	.LLST30:
ARM GAS  C:\Users\AHMED~1.ELE\AppData\Local\Temp\ccaBET3e.s 			page 250


 11641 067c 92000000 		.4byte	.LVL71
 11642 0680 9F000000 		.4byte	.LVL73-1
 11643 0684 0100     		.2byte	0x1
 11644 0686 51       		.byte	0x51
 11645 0687 9F000000 		.4byte	.LVL73-1
 11646 068b B6000000 		.4byte	.LVL74
 11647 068f 0900     		.2byte	0x9
 11648 0691 75       		.byte	0x75
 11649 0692 00       		.sleb128 0
 11650 0693 76       		.byte	0x76
 11651 0694 00       		.sleb128 0
 11652 0695 1C       		.byte	0x1c
 11653 0696 78       		.byte	0x78
 11654 0697 00       		.sleb128 0
 11655 0698 1C       		.byte	0x1c
 11656 0699 9F       		.byte	0x9f
 11657 069a 00000000 		.4byte	0
 11658 069e 00000000 		.4byte	0
 11659              	.LLST31:
 11660 06a2 92000000 		.4byte	.LVL71
 11661 06a6 1C020000 		.4byte	.LVL96
 11662 06aa 0100     		.2byte	0x1
 11663 06ac 5D       		.byte	0x5d
 11664 06ad 00000000 		.4byte	0
 11665 06b1 00000000 		.4byte	0
 11666              	.LLST32:
 11667 06b5 C8000000 		.4byte	.LVL75
 11668 06b9 1A020000 		.4byte	.LVL95
 11669 06bd 0100     		.2byte	0x1
 11670 06bf 56       		.byte	0x56
 11671 06c0 00000000 		.4byte	0
 11672 06c4 00000000 		.4byte	0
 11673              	.LLST33:
 11674 06c8 00010000 		.4byte	.LVL79
 11675 06cc FC010000 		.4byte	.LVL94
 11676 06d0 0100     		.2byte	0x1
 11677 06d2 58       		.byte	0x58
 11678 06d3 00000000 		.4byte	0
 11679 06d7 00000000 		.4byte	0
 11680              	.LLST34:
 11681 06db D8000000 		.4byte	.LVL76
 11682 06df 76010000 		.4byte	.LVL85
 11683 06e3 0100     		.2byte	0x1
 11684 06e5 55       		.byte	0x55
 11685 06e6 C4010000 		.4byte	.LVL90
 11686 06ea F6010000 		.4byte	.LVL93
 11687 06ee 0100     		.2byte	0x1
 11688 06f0 55       		.byte	0x55
 11689 06f1 00000000 		.4byte	0
 11690 06f5 00000000 		.4byte	0
 11691              	.LLST35:
 11692 06f9 92000000 		.4byte	.LVL71
 11693 06fd 1C020000 		.4byte	.LVL96
 11694 0701 0300     		.2byte	0x3
 11695 0703 09       		.byte	0x9
 11696 0704 A0       		.byte	0xa0
 11697 0705 9F       		.byte	0x9f
ARM GAS  C:\Users\AHMED~1.ELE\AppData\Local\Temp\ccaBET3e.s 			page 251


 11698 0706 00000000 		.4byte	0
 11699 070a 00000000 		.4byte	0
 11700              	.LLST36:
 11701 070e 00000000 		.4byte	.LVL98
 11702 0712 0E000000 		.4byte	.LVL100
 11703 0716 0100     		.2byte	0x1
 11704 0718 50       		.byte	0x50
 11705 0719 0E000000 		.4byte	.LVL100
 11706 071d 12000000 		.4byte	.LVL101
 11707 0721 0100     		.2byte	0x1
 11708 0723 55       		.byte	0x55
 11709 0724 12000000 		.4byte	.LVL101
 11710 0728 1E000000 		.4byte	.LVL103
 11711 072c 0100     		.2byte	0x1
 11712 072e 50       		.byte	0x50
 11713 072f 1E000000 		.4byte	.LVL103
 11714 0733 5C000000 		.4byte	.LFE18
 11715 0737 0100     		.2byte	0x1
 11716 0739 55       		.byte	0x55
 11717 073a 00000000 		.4byte	0
 11718 073e 00000000 		.4byte	0
 11719              	.LLST37:
 11720 0742 00000000 		.4byte	.LVL98
 11721 0746 0E000000 		.4byte	.LVL100
 11722 074a 0100     		.2byte	0x1
 11723 074c 51       		.byte	0x51
 11724 074d 0E000000 		.4byte	.LVL100
 11725 0751 12000000 		.4byte	.LVL101
 11726 0755 0400     		.2byte	0x4
 11727 0757 F3       		.byte	0xf3
 11728 0758 01       		.uleb128 0x1
 11729 0759 51       		.byte	0x51
 11730 075a 9F       		.byte	0x9f
 11731 075b 12000000 		.4byte	.LVL101
 11732 075f 20000000 		.4byte	.LVL104
 11733 0763 0100     		.2byte	0x1
 11734 0765 51       		.byte	0x51
 11735 0766 20000000 		.4byte	.LVL104
 11736 076a 25000000 		.4byte	.LVL105-1
 11737 076e 0300     		.2byte	0x3
 11738 0770 71       		.byte	0x71
 11739 0771 01       		.sleb128 1
 11740 0772 9F       		.byte	0x9f
 11741 0773 25000000 		.4byte	.LVL105-1
 11742 0777 5C000000 		.4byte	.LFE18
 11743 077b 0400     		.2byte	0x4
 11744 077d F3       		.byte	0xf3
 11745 077e 01       		.uleb128 0x1
 11746 077f 51       		.byte	0x51
 11747 0780 9F       		.byte	0x9f
 11748 0781 00000000 		.4byte	0
 11749 0785 00000000 		.4byte	0
 11750              	.LLST38:
 11751 0789 00000000 		.4byte	.LVL98
 11752 078d 0E000000 		.4byte	.LVL100
 11753 0791 0100     		.2byte	0x1
 11754 0793 52       		.byte	0x52
ARM GAS  C:\Users\AHMED~1.ELE\AppData\Local\Temp\ccaBET3e.s 			page 252


 11755 0794 0E000000 		.4byte	.LVL100
 11756 0798 12000000 		.4byte	.LVL101
 11757 079c 0100     		.2byte	0x1
 11758 079e 57       		.byte	0x57
 11759 079f 12000000 		.4byte	.LVL101
 11760 07a3 14000000 		.4byte	.LVL102
 11761 07a7 0100     		.2byte	0x1
 11762 07a9 52       		.byte	0x52
 11763 07aa 14000000 		.4byte	.LVL102
 11764 07ae 5C000000 		.4byte	.LFE18
 11765 07b2 0100     		.2byte	0x1
 11766 07b4 57       		.byte	0x57
 11767 07b5 00000000 		.4byte	0
 11768 07b9 00000000 		.4byte	0
 11769              	.LLST39:
 11770 07bd 00000000 		.4byte	.LVL98
 11771 07c1 0C000000 		.4byte	.LVL99
 11772 07c5 0100     		.2byte	0x1
 11773 07c7 53       		.byte	0x53
 11774 07c8 0C000000 		.4byte	.LVL99
 11775 07cc 46000000 		.4byte	.LVL106
 11776 07d0 0100     		.2byte	0x1
 11777 07d2 56       		.byte	0x56
 11778 07d3 46000000 		.4byte	.LVL106
 11779 07d7 5C000000 		.4byte	.LFE18
 11780 07db 0400     		.2byte	0x4
 11781 07dd F3       		.byte	0xf3
 11782 07de 01       		.uleb128 0x1
 11783 07df 53       		.byte	0x53
 11784 07e0 9F       		.byte	0x9f
 11785 07e1 00000000 		.4byte	0
 11786 07e5 00000000 		.4byte	0
 11787              	.LLST40:
 11788 07e9 50000000 		.4byte	.LVL107
 11789 07ed 52000000 		.4byte	.LVL108
 11790 07f1 0600     		.2byte	0x6
 11791 07f3 76       		.byte	0x76
 11792 07f4 00       		.sleb128 0
 11793 07f5 74       		.byte	0x74
 11794 07f6 00       		.sleb128 0
 11795 07f7 22       		.byte	0x22
 11796 07f8 9F       		.byte	0x9f
 11797 07f9 52000000 		.4byte	.LVL108
 11798 07fd 58000000 		.4byte	.LVL109
 11799 0801 0100     		.2byte	0x1
 11800 0803 54       		.byte	0x54
 11801 0804 00000000 		.4byte	0
 11802 0808 00000000 		.4byte	0
 11803              	.LLST41:
 11804 080c 00000000 		.4byte	.LVL110
 11805 0810 0C000000 		.4byte	.LVL111
 11806 0814 0100     		.2byte	0x1
 11807 0816 50       		.byte	0x50
 11808 0817 0C000000 		.4byte	.LVL111
 11809 081b 4A010000 		.4byte	.LFE8
 11810 081f 0100     		.2byte	0x1
 11811 0821 56       		.byte	0x56
ARM GAS  C:\Users\AHMED~1.ELE\AppData\Local\Temp\ccaBET3e.s 			page 253


 11812 0822 00000000 		.4byte	0
 11813 0826 00000000 		.4byte	0
 11814              	.LLST42:
 11815 082a 00000000 		.4byte	.LVL110
 11816 082e 13000000 		.4byte	.LVL113-1
 11817 0832 0100     		.2byte	0x1
 11818 0834 51       		.byte	0x51
 11819 0835 13000000 		.4byte	.LVL113-1
 11820 0839 4A010000 		.4byte	.LFE8
 11821 083d 0400     		.2byte	0x4
 11822 083f F3       		.byte	0xf3
 11823 0840 01       		.uleb128 0x1
 11824 0841 51       		.byte	0x51
 11825 0842 9F       		.byte	0x9f
 11826 0843 00000000 		.4byte	0
 11827 0847 00000000 		.4byte	0
 11828              	.LLST43:
 11829 084b 00000000 		.4byte	.LVL110
 11830 084f 0E000000 		.4byte	.LVL112
 11831 0853 0100     		.2byte	0x1
 11832 0855 52       		.byte	0x52
 11833 0856 0E000000 		.4byte	.LVL112
 11834 085a 16000000 		.4byte	.LVL114
 11835 085e 0100     		.2byte	0x1
 11836 0860 55       		.byte	0x55
 11837 0861 16000000 		.4byte	.LVL114
 11838 0865 1A000000 		.4byte	.LVL115
 11839 0869 0400     		.2byte	0x4
 11840 086b F3       		.byte	0xf3
 11841 086c 01       		.uleb128 0x1
 11842 086d 52       		.byte	0x52
 11843 086e 9F       		.byte	0x9f
 11844 086f 1A000000 		.4byte	.LVL115
 11845 0873 48000000 		.4byte	.LVL120
 11846 0877 0100     		.2byte	0x1
 11847 0879 55       		.byte	0x55
 11848 087a 48000000 		.4byte	.LVL120
 11849 087e 4A010000 		.4byte	.LFE8
 11850 0882 0400     		.2byte	0x4
 11851 0884 F3       		.byte	0xf3
 11852 0885 01       		.uleb128 0x1
 11853 0886 52       		.byte	0x52
 11854 0887 9F       		.byte	0x9f
 11855 0888 00000000 		.4byte	0
 11856 088c 00000000 		.4byte	0
 11857              	.LLST44:
 11858 0890 20000000 		.4byte	.LVL116
 11859 0894 46010000 		.4byte	.LVL139
 11860 0898 0100     		.2byte	0x1
 11861 089a 54       		.byte	0x54
 11862 089b 00000000 		.4byte	0
 11863 089f 00000000 		.4byte	0
 11864              	.LLST45:
 11865 08a3 02010000 		.4byte	.LVL135
 11866 08a7 40010000 		.4byte	.LVL138
 11867 08ab 0100     		.2byte	0x1
 11868 08ad 57       		.byte	0x57
ARM GAS  C:\Users\AHMED~1.ELE\AppData\Local\Temp\ccaBET3e.s 			page 254


 11869 08ae 00000000 		.4byte	0
 11870 08b2 00000000 		.4byte	0
 11871              	.LLST46:
 11872 08b6 0A010000 		.4byte	.LVL136
 11873 08ba 40010000 		.4byte	.LVL138
 11874 08be 0600     		.2byte	0x6
 11875 08c0 75       		.byte	0x75
 11876 08c1 00       		.sleb128 0
 11877 08c2 08       		.byte	0x8
 11878 08c3 FF       		.byte	0xff
 11879 08c4 1A       		.byte	0x1a
 11880 08c5 9F       		.byte	0x9f
 11881 08c6 00000000 		.4byte	0
 11882 08ca 00000000 		.4byte	0
 11883              	.LLST47:
 11884 08ce 4A000000 		.4byte	.LVL121
 11885 08d2 5E000000 		.4byte	.LVL122
 11886 08d6 0400     		.2byte	0x4
 11887 08d8 91       		.byte	0x91
 11888 08d9 8C7D     		.sleb128 -372
 11889 08db 9F       		.byte	0x9f
 11890 08dc 5E000000 		.4byte	.LVL122
 11891 08e0 61000000 		.4byte	.LVL123-1
 11892 08e4 0100     		.2byte	0x1
 11893 08e6 52       		.byte	0x52
 11894 08e7 61000000 		.4byte	.LVL123-1
 11895 08eb DC000000 		.4byte	.LVL131
 11896 08ef 0400     		.2byte	0x4
 11897 08f1 91       		.byte	0x91
 11898 08f2 8C7D     		.sleb128 -372
 11899 08f4 9F       		.byte	0x9f
 11900 08f5 E4000000 		.4byte	.LVL132
 11901 08f9 40010000 		.4byte	.LVL138
 11902 08fd 0400     		.2byte	0x4
 11903 08ff 91       		.byte	0x91
 11904 0900 8C7D     		.sleb128 -372
 11905 0902 9F       		.byte	0x9f
 11906 0903 00000000 		.4byte	0
 11907 0907 00000000 		.4byte	0
 11908              	.LLST48:
 11909 090b 4A000000 		.4byte	.LVL121
 11910 090f B6000000 		.4byte	.LVL128
 11911 0913 0100     		.2byte	0x1
 11912 0915 55       		.byte	0x55
 11913 0916 E4000000 		.4byte	.LVL132
 11914 091a EA000000 		.4byte	.LVL133
 11915 091e 0100     		.2byte	0x1
 11916 0920 55       		.byte	0x55
 11917 0921 00000000 		.4byte	0
 11918 0925 00000000 		.4byte	0
 11919              	.LLST49:
 11920 0929 4A000000 		.4byte	.LVL121
 11921 092d 70000000 		.4byte	.LVL124
 11922 0931 0400     		.2byte	0x4
 11923 0933 91       		.byte	0x91
 11924 0934 847D     		.sleb128 -380
 11925 0936 9F       		.byte	0x9f
ARM GAS  C:\Users\AHMED~1.ELE\AppData\Local\Temp\ccaBET3e.s 			page 255


 11926 0937 70000000 		.4byte	.LVL124
 11927 093b 79000000 		.4byte	.LVL125-1
 11928 093f 0100     		.2byte	0x1
 11929 0941 50       		.byte	0x50
 11930 0942 79000000 		.4byte	.LVL125-1
 11931 0946 90000000 		.4byte	.LVL126
 11932 094a 0400     		.2byte	0x4
 11933 094c 91       		.byte	0x91
 11934 094d 847D     		.sleb128 -380
 11935 094f 9F       		.byte	0x9f
 11936 0950 90000000 		.4byte	.LVL126
 11937 0954 97000000 		.4byte	.LVL127-1
 11938 0958 0100     		.2byte	0x1
 11939 095a 50       		.byte	0x50
 11940 095b 97000000 		.4byte	.LVL127-1
 11941 095f C0000000 		.4byte	.LVL129
 11942 0963 0400     		.2byte	0x4
 11943 0965 91       		.byte	0x91
 11944 0966 847D     		.sleb128 -380
 11945 0968 9F       		.byte	0x9f
 11946 0969 C0000000 		.4byte	.LVL129
 11947 096d C9000000 		.4byte	.LVL130-1
 11948 0971 0100     		.2byte	0x1
 11949 0973 50       		.byte	0x50
 11950 0974 C9000000 		.4byte	.LVL130-1
 11951 0978 DC000000 		.4byte	.LVL131
 11952 097c 0400     		.2byte	0x4
 11953 097e 91       		.byte	0x91
 11954 097f 847D     		.sleb128 -380
 11955 0981 9F       		.byte	0x9f
 11956 0982 E4000000 		.4byte	.LVL132
 11957 0986 00010000 		.4byte	.LVL134
 11958 098a 0400     		.2byte	0x4
 11959 098c 91       		.byte	0x91
 11960 098d 847D     		.sleb128 -380
 11961 098f 9F       		.byte	0x9f
 11962 0990 00010000 		.4byte	.LVL134
 11963 0994 0D010000 		.4byte	.LVL137-1
 11964 0998 0100     		.2byte	0x1
 11965 099a 50       		.byte	0x50
 11966 099b 0D010000 		.4byte	.LVL137-1
 11967 099f 40010000 		.4byte	.LVL138
 11968 09a3 0400     		.2byte	0x4
 11969 09a5 91       		.byte	0x91
 11970 09a6 847D     		.sleb128 -380
 11971 09a8 9F       		.byte	0x9f
 11972 09a9 00000000 		.4byte	0
 11973 09ad 00000000 		.4byte	0
 11974              	.LLST50:
 11975 09b1 00000000 		.4byte	.LVL140
 11976 09b5 69000000 		.4byte	.LVL152-1
 11977 09b9 0100     		.2byte	0x1
 11978 09bb 50       		.byte	0x50
 11979 09bc 69000000 		.4byte	.LVL152-1
 11980 09c0 6A000000 		.4byte	.LVL152
 11981 09c4 0400     		.2byte	0x4
 11982 09c6 F3       		.byte	0xf3
ARM GAS  C:\Users\AHMED~1.ELE\AppData\Local\Temp\ccaBET3e.s 			page 256


 11983 09c7 01       		.uleb128 0x1
 11984 09c8 50       		.byte	0x50
 11985 09c9 9F       		.byte	0x9f
 11986 09ca 6A000000 		.4byte	.LVL152
 11987 09ce 6C000000 		.4byte	.LVL153
 11988 09d2 0100     		.2byte	0x1
 11989 09d4 50       		.byte	0x50
 11990 09d5 6C000000 		.4byte	.LVL153
 11991 09d9 8C000000 		.4byte	.LFE22
 11992 09dd 0400     		.2byte	0x4
 11993 09df F3       		.byte	0xf3
 11994 09e0 01       		.uleb128 0x1
 11995 09e1 50       		.byte	0x50
 11996 09e2 9F       		.byte	0x9f
 11997 09e3 00000000 		.4byte	0
 11998 09e7 00000000 		.4byte	0
 11999              	.LLST51:
 12000 09eb 00000000 		.4byte	.LVL140
 12001 09ef 3E000000 		.4byte	.LVL141
 12002 09f3 0100     		.2byte	0x1
 12003 09f5 51       		.byte	0x51
 12004 09f6 3E000000 		.4byte	.LVL141
 12005 09fa 40000000 		.4byte	.LVL142
 12006 09fe 0400     		.2byte	0x4
 12007 0a00 F3       		.byte	0xf3
 12008 0a01 01       		.uleb128 0x1
 12009 0a02 51       		.byte	0x51
 12010 0a03 9F       		.byte	0x9f
 12011 0a04 40000000 		.4byte	.LVL142
 12012 0a08 56000000 		.4byte	.LVL143
 12013 0a0c 0100     		.2byte	0x1
 12014 0a0e 51       		.byte	0x51
 12015 0a0f 56000000 		.4byte	.LVL143
 12016 0a13 58000000 		.4byte	.LVL144
 12017 0a17 0400     		.2byte	0x4
 12018 0a19 F3       		.byte	0xf3
 12019 0a1a 01       		.uleb128 0x1
 12020 0a1b 51       		.byte	0x51
 12021 0a1c 9F       		.byte	0x9f
 12022 0a1d 58000000 		.4byte	.LVL144
 12023 0a21 5A000000 		.4byte	.LVL145
 12024 0a25 0100     		.2byte	0x1
 12025 0a27 51       		.byte	0x51
 12026 0a28 5A000000 		.4byte	.LVL145
 12027 0a2c 5C000000 		.4byte	.LVL146
 12028 0a30 0400     		.2byte	0x4
 12029 0a32 F3       		.byte	0xf3
 12030 0a33 01       		.uleb128 0x1
 12031 0a34 51       		.byte	0x51
 12032 0a35 9F       		.byte	0x9f
 12033 0a36 5C000000 		.4byte	.LVL146
 12034 0a3a 5E000000 		.4byte	.LVL147
 12035 0a3e 0100     		.2byte	0x1
 12036 0a40 51       		.byte	0x51
 12037 0a41 5E000000 		.4byte	.LVL147
 12038 0a45 60000000 		.4byte	.LVL148
 12039 0a49 0400     		.2byte	0x4
ARM GAS  C:\Users\AHMED~1.ELE\AppData\Local\Temp\ccaBET3e.s 			page 257


 12040 0a4b F3       		.byte	0xf3
 12041 0a4c 01       		.uleb128 0x1
 12042 0a4d 51       		.byte	0x51
 12043 0a4e 9F       		.byte	0x9f
 12044 0a4f 60000000 		.4byte	.LVL148
 12045 0a53 62000000 		.4byte	.LVL149
 12046 0a57 0100     		.2byte	0x1
 12047 0a59 51       		.byte	0x51
 12048 0a5a 62000000 		.4byte	.LVL149
 12049 0a5e 64000000 		.4byte	.LVL150
 12050 0a62 0400     		.2byte	0x4
 12051 0a64 F3       		.byte	0xf3
 12052 0a65 01       		.uleb128 0x1
 12053 0a66 51       		.byte	0x51
 12054 0a67 9F       		.byte	0x9f
 12055 0a68 64000000 		.4byte	.LVL150
 12056 0a6c 66000000 		.4byte	.LVL151
 12057 0a70 0100     		.2byte	0x1
 12058 0a72 51       		.byte	0x51
 12059 0a73 66000000 		.4byte	.LVL151
 12060 0a77 6A000000 		.4byte	.LVL152
 12061 0a7b 0400     		.2byte	0x4
 12062 0a7d F3       		.byte	0xf3
 12063 0a7e 01       		.uleb128 0x1
 12064 0a7f 51       		.byte	0x51
 12065 0a80 9F       		.byte	0x9f
 12066 0a81 6A000000 		.4byte	.LVL152
 12067 0a85 8C000000 		.4byte	.LFE22
 12068 0a89 0100     		.2byte	0x1
 12069 0a8b 51       		.byte	0x51
 12070 0a8c 00000000 		.4byte	0
 12071 0a90 00000000 		.4byte	0
 12072              	.LLST52:
 12073 0a94 00000000 		.4byte	.LVL154
 12074 0a98 12000000 		.4byte	.LVL158
 12075 0a9c 0100     		.2byte	0x1
 12076 0a9e 50       		.byte	0x50
 12077 0a9f 12000000 		.4byte	.LVL158
 12078 0aa3 32000000 		.4byte	.LVL160
 12079 0aa7 0400     		.2byte	0x4
 12080 0aa9 F3       		.byte	0xf3
 12081 0aaa 01       		.uleb128 0x1
 12082 0aab 50       		.byte	0x50
 12083 0aac 9F       		.byte	0x9f
 12084 0aad 32000000 		.4byte	.LVL160
 12085 0ab1 34000000 		.4byte	.LVL161
 12086 0ab5 0100     		.2byte	0x1
 12087 0ab7 50       		.byte	0x50
 12088 0ab8 34000000 		.4byte	.LVL161
 12089 0abc 42000000 		.4byte	.LFE16
 12090 0ac0 0400     		.2byte	0x4
 12091 0ac2 F3       		.byte	0xf3
 12092 0ac3 01       		.uleb128 0x1
 12093 0ac4 50       		.byte	0x50
 12094 0ac5 9F       		.byte	0x9f
 12095 0ac6 00000000 		.4byte	0
 12096 0aca 00000000 		.4byte	0
ARM GAS  C:\Users\AHMED~1.ELE\AppData\Local\Temp\ccaBET3e.s 			page 258


 12097              	.LLST53:
 12098 0ace 00000000 		.4byte	.LVL154
 12099 0ad2 0C000000 		.4byte	.LVL155
 12100 0ad6 0100     		.2byte	0x1
 12101 0ad8 51       		.byte	0x51
 12102 0ad9 0C000000 		.4byte	.LVL155
 12103 0add 42000000 		.4byte	.LFE16
 12104 0ae1 0100     		.2byte	0x1
 12105 0ae3 54       		.byte	0x54
 12106 0ae4 00000000 		.4byte	0
 12107 0ae8 00000000 		.4byte	0
 12108              	.LLST54:
 12109 0aec 00000000 		.4byte	.LVL154
 12110 0af0 10000000 		.4byte	.LVL157
 12111 0af4 0100     		.2byte	0x1
 12112 0af6 52       		.byte	0x52
 12113 0af7 10000000 		.4byte	.LVL157
 12114 0afb 2B000000 		.4byte	.LVL159-1
 12115 0aff 0100     		.2byte	0x1
 12116 0b01 51       		.byte	0x51
 12117 0b02 2B000000 		.4byte	.LVL159-1
 12118 0b06 32000000 		.4byte	.LVL160
 12119 0b0a 0400     		.2byte	0x4
 12120 0b0c F3       		.byte	0xf3
 12121 0b0d 01       		.uleb128 0x1
 12122 0b0e 52       		.byte	0x52
 12123 0b0f 9F       		.byte	0x9f
 12124 0b10 32000000 		.4byte	.LVL160
 12125 0b14 39000000 		.4byte	.LVL162-1
 12126 0b18 0100     		.2byte	0x1
 12127 0b1a 51       		.byte	0x51
 12128 0b1b 39000000 		.4byte	.LVL162-1
 12129 0b1f 42000000 		.4byte	.LFE16
 12130 0b23 0400     		.2byte	0x4
 12131 0b25 F3       		.byte	0xf3
 12132 0b26 01       		.uleb128 0x1
 12133 0b27 52       		.byte	0x52
 12134 0b28 9F       		.byte	0x9f
 12135 0b29 00000000 		.4byte	0
 12136 0b2d 00000000 		.4byte	0
 12137              	.LLST55:
 12138 0b31 00000000 		.4byte	.LVL154
 12139 0b35 2B000000 		.4byte	.LVL159-1
 12140 0b39 0100     		.2byte	0x1
 12141 0b3b 53       		.byte	0x53
 12142 0b3c 2B000000 		.4byte	.LVL159-1
 12143 0b40 32000000 		.4byte	.LVL160
 12144 0b44 0400     		.2byte	0x4
 12145 0b46 F3       		.byte	0xf3
 12146 0b47 01       		.uleb128 0x1
 12147 0b48 53       		.byte	0x53
 12148 0b49 9F       		.byte	0x9f
 12149 0b4a 32000000 		.4byte	.LVL160
 12150 0b4e 39000000 		.4byte	.LVL162-1
 12151 0b52 0100     		.2byte	0x1
 12152 0b54 53       		.byte	0x53
 12153 0b55 39000000 		.4byte	.LVL162-1
ARM GAS  C:\Users\AHMED~1.ELE\AppData\Local\Temp\ccaBET3e.s 			page 259


 12154 0b59 42000000 		.4byte	.LFE16
 12155 0b5d 0400     		.2byte	0x4
 12156 0b5f F3       		.byte	0xf3
 12157 0b60 01       		.uleb128 0x1
 12158 0b61 53       		.byte	0x53
 12159 0b62 9F       		.byte	0x9f
 12160 0b63 00000000 		.4byte	0
 12161 0b67 00000000 		.4byte	0
 12162              	.LLST56:
 12163 0b6b 0E000000 		.4byte	.LVL156
 12164 0b6f 32000000 		.4byte	.LVL160
 12165 0b73 0200     		.2byte	0x2
 12166 0b75 47       		.byte	0x47
 12167 0b76 9F       		.byte	0x9f
 12168 0b77 00000000 		.4byte	0
 12169 0b7b 00000000 		.4byte	0
 12170              	.LLST57:
 12171 0b7f 0E000000 		.4byte	.LVL156
 12172 0b83 2B000000 		.4byte	.LVL159-1
 12173 0b87 0100     		.2byte	0x1
 12174 0b89 53       		.byte	0x53
 12175 0b8a 2B000000 		.4byte	.LVL159-1
 12176 0b8e 32000000 		.4byte	.LVL160
 12177 0b92 0400     		.2byte	0x4
 12178 0b94 F3       		.byte	0xf3
 12179 0b95 01       		.uleb128 0x1
 12180 0b96 53       		.byte	0x53
 12181 0b97 9F       		.byte	0x9f
 12182 0b98 00000000 		.4byte	0
 12183 0b9c 00000000 		.4byte	0
 12184              	.LLST58:
 12185 0ba0 0E000000 		.4byte	.LVL156
 12186 0ba4 10000000 		.4byte	.LVL157
 12187 0ba8 0100     		.2byte	0x1
 12188 0baa 52       		.byte	0x52
 12189 0bab 10000000 		.4byte	.LVL157
 12190 0baf 2B000000 		.4byte	.LVL159-1
 12191 0bb3 0100     		.2byte	0x1
 12192 0bb5 51       		.byte	0x51
 12193 0bb6 2B000000 		.4byte	.LVL159-1
 12194 0bba 32000000 		.4byte	.LVL160
 12195 0bbe 0400     		.2byte	0x4
 12196 0bc0 F3       		.byte	0xf3
 12197 0bc1 01       		.uleb128 0x1
 12198 0bc2 52       		.byte	0x52
 12199 0bc3 9F       		.byte	0x9f
 12200 0bc4 00000000 		.4byte	0
 12201 0bc8 00000000 		.4byte	0
 12202              	.LLST59:
 12203 0bcc 0E000000 		.4byte	.LVL156
 12204 0bd0 32000000 		.4byte	.LVL160
 12205 0bd4 0100     		.2byte	0x1
 12206 0bd6 54       		.byte	0x54
 12207 0bd7 00000000 		.4byte	0
 12208 0bdb 00000000 		.4byte	0
 12209              	.LLST60:
 12210 0bdf 00000000 		.4byte	.LVL163
ARM GAS  C:\Users\AHMED~1.ELE\AppData\Local\Temp\ccaBET3e.s 			page 260


 12211 0be3 12000000 		.4byte	.LVL166
 12212 0be7 0100     		.2byte	0x1
 12213 0be9 50       		.byte	0x50
 12214 0bea 12000000 		.4byte	.LVL166
 12215 0bee 1A000000 		.4byte	.LVL169
 12216 0bf2 0100     		.2byte	0x1
 12217 0bf4 50       		.byte	0x50
 12218 0bf5 2A000000 		.4byte	.LVL171
 12219 0bf9 2C000000 		.4byte	.LVL172
 12220 0bfd 0100     		.2byte	0x1
 12221 0bff 50       		.byte	0x50
 12222 0c00 2E000000 		.4byte	.LVL173
 12223 0c04 30000000 		.4byte	.LVL174
 12224 0c08 0100     		.2byte	0x1
 12225 0c0a 50       		.byte	0x50
 12226 0c0b 00000000 		.4byte	0
 12227 0c0f 00000000 		.4byte	0
 12228              	.LLST61:
 12229 0c13 00000000 		.4byte	.LVL163
 12230 0c17 06000000 		.4byte	.LVL164
 12231 0c1b 0600     		.2byte	0x6
 12232 0c1d 03       		.byte	0x3
 12233 0c1e 00000000 		.4byte	s_x509_sign
 12234 0c22 9F       		.byte	0x9f
 12235 0c23 06000000 		.4byte	.LVL164
 12236 0c27 0E000000 		.4byte	.LVL165
 12237 0c2b 0100     		.2byte	0x1
 12238 0c2d 52       		.byte	0x52
 12239 0c2e 0E000000 		.4byte	.LVL165
 12240 0c32 14000000 		.4byte	.LVL167
 12241 0c36 0300     		.2byte	0x3
 12242 0c38 72       		.byte	0x72
 12243 0c39 7F       		.sleb128 -1
 12244 0c3a 9F       		.byte	0x9f
 12245 0c3b 14000000 		.4byte	.LVL167
 12246 0c3f 1E000000 		.4byte	.LVL170
 12247 0c43 0100     		.2byte	0x1
 12248 0c45 52       		.byte	0x52
 12249 0c46 2A000000 		.4byte	.LVL171
 12250 0c4a 2E000000 		.4byte	.LVL173
 12251 0c4e 0300     		.2byte	0x3
 12252 0c50 72       		.byte	0x72
 12253 0c51 7F       		.sleb128 -1
 12254 0c52 9F       		.byte	0x9f
 12255 0c53 00000000 		.4byte	0
 12256 0c57 00000000 		.4byte	0
 12257              	.LLST62:
 12258 0c5b 00000000 		.4byte	.LVL175
 12259 0c5f 16000000 		.4byte	.LVL179
 12260 0c63 0100     		.2byte	0x1
 12261 0c65 50       		.byte	0x50
 12262 0c66 16000000 		.4byte	.LVL179
 12263 0c6a B4010000 		.4byte	.LVL225
 12264 0c6e 0100     		.2byte	0x1
 12265 0c70 54       		.byte	0x54
 12266 0c71 B4010000 		.4byte	.LVL225
 12267 0c75 B8010000 		.4byte	.LFE27
ARM GAS  C:\Users\AHMED~1.ELE\AppData\Local\Temp\ccaBET3e.s 			page 261


 12268 0c79 0400     		.2byte	0x4
 12269 0c7b F3       		.byte	0xf3
 12270 0c7c 01       		.uleb128 0x1
 12271 0c7d 50       		.byte	0x50
 12272 0c7e 9F       		.byte	0x9f
 12273 0c7f 00000000 		.4byte	0
 12274 0c83 00000000 		.4byte	0
 12275              	.LLST63:
 12276 0c87 00000000 		.4byte	.LVL175
 12277 0c8b 14000000 		.4byte	.LVL178
 12278 0c8f 0100     		.2byte	0x1
 12279 0c91 51       		.byte	0x51
 12280 0c92 14000000 		.4byte	.LVL178
 12281 0c96 1C000000 		.4byte	.LVL181
 12282 0c9a 0100     		.2byte	0x1
 12283 0c9c 57       		.byte	0x57
 12284 0c9d 1C000000 		.4byte	.LVL181
 12285 0ca1 20000000 		.4byte	.LVL182
 12286 0ca5 0400     		.2byte	0x4
 12287 0ca7 F3       		.byte	0xf3
 12288 0ca8 01       		.uleb128 0x1
 12289 0ca9 51       		.byte	0x51
 12290 0caa 9F       		.byte	0x9f
 12291 0cab 20000000 		.4byte	.LVL182
 12292 0caf 72000000 		.4byte	.LVL189
 12293 0cb3 0100     		.2byte	0x1
 12294 0cb5 57       		.byte	0x57
 12295 0cb6 72000000 		.4byte	.LVL189
 12296 0cba B8010000 		.4byte	.LFE27
 12297 0cbe 0400     		.2byte	0x4
 12298 0cc0 F3       		.byte	0xf3
 12299 0cc1 01       		.uleb128 0x1
 12300 0cc2 51       		.byte	0x51
 12301 0cc3 9F       		.byte	0x9f
 12302 0cc4 00000000 		.4byte	0
 12303 0cc8 00000000 		.4byte	0
 12304              	.LLST64:
 12305 0ccc 0C000000 		.4byte	.LVL176
 12306 0cd0 1C000000 		.4byte	.LVL181
 12307 0cd4 0700     		.2byte	0x7
 12308 0cd6 75       		.byte	0x75
 12309 0cd7 00       		.sleb128 0
 12310 0cd8 0A       		.byte	0xa
 12311 0cd9 FFFF     		.2byte	0xffff
 12312 0cdb 1A       		.byte	0x1a
 12313 0cdc 9F       		.byte	0x9f
 12314 0cdd 20000000 		.4byte	.LVL182
 12315 0ce1 70000000 		.4byte	.LVL188
 12316 0ce5 0700     		.2byte	0x7
 12317 0ce7 75       		.byte	0x75
 12318 0ce8 00       		.sleb128 0
 12319 0ce9 0A       		.byte	0xa
 12320 0cea FFFF     		.2byte	0xffff
 12321 0cec 1A       		.byte	0x1a
 12322 0ced 9F       		.byte	0x9f
 12323 0cee 00000000 		.4byte	0
 12324 0cf2 00000000 		.4byte	0
ARM GAS  C:\Users\AHMED~1.ELE\AppData\Local\Temp\ccaBET3e.s 			page 262


 12325              	.LLST65:
 12326 0cf6 0C000000 		.4byte	.LVL176
 12327 0cfa 16000000 		.4byte	.LVL179
 12328 0cfe 0400     		.2byte	0x4
 12329 0d00 70       		.byte	0x70
 12330 0d01 B404     		.sleb128 564
 12331 0d03 9F       		.byte	0x9f
 12332 0d04 16000000 		.4byte	.LVL179
 12333 0d08 B4010000 		.4byte	.LVL225
 12334 0d0c 0400     		.2byte	0x4
 12335 0d0e 74       		.byte	0x74
 12336 0d0f B404     		.sleb128 564
 12337 0d11 9F       		.byte	0x9f
 12338 0d12 B4010000 		.4byte	.LVL225
 12339 0d16 B8010000 		.4byte	.LFE27
 12340 0d1a 0700     		.2byte	0x7
 12341 0d1c F3       		.byte	0xf3
 12342 0d1d 01       		.uleb128 0x1
 12343 0d1e 50       		.byte	0x50
 12344 0d1f 23       		.byte	0x23
 12345 0d20 B404     		.uleb128 0x234
 12346 0d22 9F       		.byte	0x9f
 12347 0d23 00000000 		.4byte	0
 12348 0d27 00000000 		.4byte	0
 12349              	.LLST66:
 12350 0d2b 10000000 		.4byte	.LVL177
 12351 0d2f B4010000 		.4byte	.LVL225
 12352 0d33 0700     		.2byte	0x7
 12353 0d35 79       		.byte	0x79
 12354 0d36 00       		.sleb128 0
 12355 0d37 0A       		.byte	0xa
 12356 0d38 FFFF     		.2byte	0xffff
 12357 0d3a 1A       		.byte	0x1a
 12358 0d3b 9F       		.byte	0x9f
 12359 0d3c 00000000 		.4byte	0
 12360 0d40 00000000 		.4byte	0
 12361              	.LLST67:
 12362 0d44 10000000 		.4byte	.LVL177
 12363 0d48 1C000000 		.4byte	.LVL181
 12364 0d4c 0900     		.2byte	0x9
 12365 0d4e 75       		.byte	0x75
 12366 0d4f 00       		.sleb128 0
 12367 0d50 0A       		.byte	0xa
 12368 0d51 FFFF     		.2byte	0xffff
 12369 0d53 1A       		.byte	0x1a
 12370 0d54 33       		.byte	0x33
 12371 0d55 24       		.byte	0x24
 12372 0d56 9F       		.byte	0x9f
 12373 0d57 20000000 		.4byte	.LVL182
 12374 0d5b 70000000 		.4byte	.LVL188
 12375 0d5f 0900     		.2byte	0x9
 12376 0d61 75       		.byte	0x75
 12377 0d62 00       		.sleb128 0
 12378 0d63 0A       		.byte	0xa
 12379 0d64 FFFF     		.2byte	0xffff
 12380 0d66 1A       		.byte	0x1a
 12381 0d67 33       		.byte	0x33
ARM GAS  C:\Users\AHMED~1.ELE\AppData\Local\Temp\ccaBET3e.s 			page 263


 12382 0d68 24       		.byte	0x24
 12383 0d69 9F       		.byte	0x9f
 12384 0d6a 00000000 		.4byte	0
 12385 0d6e 00000000 		.4byte	0
 12386              	.LLST68:
 12387 0d72 10000000 		.4byte	.LVL177
 12388 0d76 1C000000 		.4byte	.LVL181
 12389 0d7a 0B00     		.2byte	0xb
 12390 0d7c 75       		.byte	0x75
 12391 0d7d 00       		.sleb128 0
 12392 0d7e 0A       		.byte	0xa
 12393 0d7f FFFF     		.2byte	0xffff
 12394 0d81 1A       		.byte	0x1a
 12395 0d82 33       		.byte	0x33
 12396 0d83 24       		.byte	0x24
 12397 0d84 31       		.byte	0x31
 12398 0d85 1C       		.byte	0x1c
 12399 0d86 9F       		.byte	0x9f
 12400 0d87 20000000 		.4byte	.LVL182
 12401 0d8b 70000000 		.4byte	.LVL188
 12402 0d8f 0B00     		.2byte	0xb
 12403 0d91 75       		.byte	0x75
 12404 0d92 00       		.sleb128 0
 12405 0d93 0A       		.byte	0xa
 12406 0d94 FFFF     		.2byte	0xffff
 12407 0d96 1A       		.byte	0x1a
 12408 0d97 33       		.byte	0x33
 12409 0d98 24       		.byte	0x24
 12410 0d99 31       		.byte	0x31
 12411 0d9a 1C       		.byte	0x1c
 12412 0d9b 9F       		.byte	0x9f
 12413 0d9c 00000000 		.4byte	0
 12414 0da0 00000000 		.4byte	0
 12415              	.LLST69:
 12416 0da4 62000000 		.4byte	.LVL186
 12417 0da8 AE010000 		.4byte	.LVL224
 12418 0dac 0200     		.2byte	0x2
 12419 0dae 31       		.byte	0x31
 12420 0daf 9F       		.byte	0x9f
 12421 0db0 00000000 		.4byte	0
 12422 0db4 00000000 		.4byte	0
 12423              	.LLST70:
 12424 0db8 62000000 		.4byte	.LVL186
 12425 0dbc 70000000 		.4byte	.LVL188
 12426 0dc0 0F00     		.2byte	0xf
 12427 0dc2 79       		.byte	0x79
 12428 0dc3 00       		.sleb128 0
 12429 0dc4 0A       		.byte	0xa
 12430 0dc5 FFFF     		.2byte	0xffff
 12431 0dc7 1A       		.byte	0x1a
 12432 0dc8 20       		.byte	0x20
 12433 0dc9 75       		.byte	0x75
 12434 0dca 00       		.sleb128 0
 12435 0dcb 0A       		.byte	0xa
 12436 0dcc FFFF     		.2byte	0xffff
 12437 0dce 1A       		.byte	0x1a
 12438 0dcf 22       		.byte	0x22
ARM GAS  C:\Users\AHMED~1.ELE\AppData\Local\Temp\ccaBET3e.s 			page 264


 12439 0dd0 9F       		.byte	0x9f
 12440 0dd1 00000000 		.4byte	0
 12441 0dd5 00000000 		.4byte	0
 12442              	.LLST71:
 12443 0dd9 4A010000 		.4byte	.LVL214
 12444 0ddd AE010000 		.4byte	.LVL224
 12445 0de1 0100     		.2byte	0x1
 12446 0de3 55       		.byte	0x55
 12447 0de4 00000000 		.4byte	0
 12448 0de8 00000000 		.4byte	0
 12449              	.LLST72:
 12450 0dec 10000000 		.4byte	.LVL177
 12451 0df0 16000000 		.4byte	.LVL179
 12452 0df4 0400     		.2byte	0x4
 12453 0df6 70       		.byte	0x70
 12454 0df7 F404     		.sleb128 628
 12455 0df9 9F       		.byte	0x9f
 12456 0dfa 16000000 		.4byte	.LVL179
 12457 0dfe B4010000 		.4byte	.LVL225
 12458 0e02 0400     		.2byte	0x4
 12459 0e04 74       		.byte	0x74
 12460 0e05 F404     		.sleb128 628
 12461 0e07 9F       		.byte	0x9f
 12462 0e08 B4010000 		.4byte	.LVL225
 12463 0e0c B8010000 		.4byte	.LFE27
 12464 0e10 0700     		.2byte	0x7
 12465 0e12 F3       		.byte	0xf3
 12466 0e13 01       		.uleb128 0x1
 12467 0e14 50       		.byte	0x50
 12468 0e15 23       		.byte	0x23
 12469 0e16 F404     		.uleb128 0x274
 12470 0e18 9F       		.byte	0x9f
 12471 0e19 00000000 		.4byte	0
 12472 0e1d 00000000 		.4byte	0
 12473              	.LLST73:
 12474 0e21 62000000 		.4byte	.LVL186
 12475 0e25 70000000 		.4byte	.LVL188
 12476 0e29 1500     		.2byte	0x15
 12477 0e2b 79       		.byte	0x79
 12478 0e2c 00       		.sleb128 0
 12479 0e2d 0A       		.byte	0xa
 12480 0e2e FFFF     		.2byte	0xffff
 12481 0e30 1A       		.byte	0x1a
 12482 0e31 20       		.byte	0x20
 12483 0e32 75       		.byte	0x75
 12484 0e33 00       		.sleb128 0
 12485 0e34 0A       		.byte	0xa
 12486 0e35 FFFF     		.2byte	0xffff
 12487 0e37 1A       		.byte	0x1a
 12488 0e38 22       		.byte	0x22
 12489 0e39 03       		.byte	0x3
 12490 0e3a 00000000 		.4byte	s_x509_sign
 12491 0e3e 22       		.byte	0x22
 12492 0e3f 9F       		.byte	0x9f
 12493 0e40 00000000 		.4byte	0
 12494 0e44 00000000 		.4byte	0
 12495              	.LLST74:
ARM GAS  C:\Users\AHMED~1.ELE\AppData\Local\Temp\ccaBET3e.s 			page 265


 12496 0e48 62000000 		.4byte	.LVL186
 12497 0e4c AE010000 		.4byte	.LVL224
 12498 0e50 0600     		.2byte	0x6
 12499 0e52 03       		.byte	0x3
 12500 0e53 00000000 		.4byte	s_x509_sign
 12501 0e57 9F       		.byte	0x9f
 12502 0e58 00000000 		.4byte	0
 12503 0e5c 00000000 		.4byte	0
 12504              	.LLST75:
 12505 0e60 60010000 		.4byte	.LVL216
 12506 0e64 AE010000 		.4byte	.LVL224
 12507 0e68 0D00     		.2byte	0xd
 12508 0e6a 7D       		.byte	0x7d
 12509 0e6b 00       		.sleb128 0
 12510 0e6c 06       		.byte	0x6
 12511 0e6d 77       		.byte	0x77
 12512 0e6e 00       		.sleb128 0
 12513 0e6f 1C       		.byte	0x1c
 12514 0e70 03       		.byte	0x3
 12515 0e71 00000000 		.4byte	s_x509_sign
 12516 0e75 22       		.byte	0x22
 12517 0e76 9F       		.byte	0x9f
 12518 0e77 00000000 		.4byte	0
 12519 0e7b 00000000 		.4byte	0
 12520              	.LLST76:
 12521 0e7f 7A000000 		.4byte	.LVL190
 12522 0e83 AE010000 		.4byte	.LVL224
 12523 0e87 0600     		.2byte	0x6
 12524 0e89 03       		.byte	0x3
 12525 0e8a 00000000 		.4byte	s_x509_sign
 12526 0e8e 9F       		.byte	0x9f
 12527 0e8f 00000000 		.4byte	0
 12528 0e93 00000000 		.4byte	0
 12529              	.LLST77:
 12530 0e97 7A000000 		.4byte	.LVL190
 12531 0e9b AE010000 		.4byte	.LVL224
 12532 0e9f 0400     		.2byte	0x4
 12533 0ea1 91       		.byte	0x91
 12534 0ea2 B07C     		.sleb128 -464
 12535 0ea4 9F       		.byte	0x9f
 12536 0ea5 00000000 		.4byte	0
 12537 0ea9 00000000 		.4byte	0
 12538              	.LLST78:
 12539 0ead AE000000 		.4byte	.LVL196
 12540 0eb1 2E010000 		.4byte	.LVL213
 12541 0eb5 0100     		.2byte	0x1
 12542 0eb7 57       		.byte	0x57
 12543 0eb8 00000000 		.4byte	0
 12544 0ebc 00000000 		.4byte	0
 12545              	.LLST79:
 12546 0ec0 7A000000 		.4byte	.LVL190
 12547 0ec4 AE010000 		.4byte	.LVL224
 12548 0ec8 0700     		.2byte	0x7
 12549 0eca 79       		.byte	0x79
 12550 0ecb 00       		.sleb128 0
 12551 0ecc 0A       		.byte	0xa
 12552 0ecd FFFF     		.2byte	0xffff
ARM GAS  C:\Users\AHMED~1.ELE\AppData\Local\Temp\ccaBET3e.s 			page 266


 12553 0ecf 1A       		.byte	0x1a
 12554 0ed0 9F       		.byte	0x9f
 12555 0ed1 00000000 		.4byte	0
 12556 0ed5 00000000 		.4byte	0
 12557              	.LLST80:
 12558 0ed9 98000000 		.4byte	.LVL192
 12559 0edd 9A000000 		.4byte	.LVL193
 12560 0ee1 0100     		.2byte	0x1
 12561 0ee3 50       		.byte	0x50
 12562 0ee4 9A000000 		.4byte	.LVL193
 12563 0ee8 2E010000 		.4byte	.LVL213
 12564 0eec 0100     		.2byte	0x1
 12565 0eee 5B       		.byte	0x5b
 12566 0eef 00000000 		.4byte	0
 12567 0ef3 00000000 		.4byte	0
 12568              	.LLST81:
 12569 0ef7 AE000000 		.4byte	.LVL196
 12570 0efb 2E010000 		.4byte	.LVL213
 12571 0eff 0100     		.2byte	0x1
 12572 0f01 58       		.byte	0x58
 12573 0f02 00000000 		.4byte	0
 12574 0f06 00000000 		.4byte	0
 12575              	.LLST82:
 12576 0f0a A4000000 		.4byte	.LVL195
 12577 0f0e AE000000 		.4byte	.LVL196
 12578 0f12 0600     		.2byte	0x6
 12579 0f14 03       		.byte	0x3
 12580 0f15 00000000 		.4byte	s_x509_sign
 12581 0f19 9F       		.byte	0x9f
 12582 0f1a AE000000 		.4byte	.LVL196
 12583 0f1e F2000000 		.4byte	.LVL203
 12584 0f22 0100     		.2byte	0x1
 12585 0f24 5A       		.byte	0x5a
 12586 0f25 F2000000 		.4byte	.LVL203
 12587 0f29 FE000000 		.4byte	.LVL205
 12588 0f2d 0100     		.2byte	0x1
 12589 0f2f 52       		.byte	0x52
 12590 0f30 FE000000 		.4byte	.LVL205
 12591 0f34 0C010000 		.4byte	.LVL208
 12592 0f38 0300     		.2byte	0x3
 12593 0f3a 72       		.byte	0x72
 12594 0f3b 7F       		.sleb128 -1
 12595 0f3c 9F       		.byte	0x9f
 12596 0f3d 0C010000 		.4byte	.LVL208
 12597 0f41 14010000 		.4byte	.LVL209
 12598 0f45 0100     		.2byte	0x1
 12599 0f47 52       		.byte	0x52
 12600 0f48 00000000 		.4byte	0
 12601 0f4c 00000000 		.4byte	0
 12602              	.LLST83:
 12603 0f50 E8000000 		.4byte	.LVL201
 12604 0f54 14010000 		.4byte	.LVL209
 12605 0f58 0100     		.2byte	0x1
 12606 0f5a 53       		.byte	0x53
 12607 0f5b 00000000 		.4byte	0
 12608 0f5f 00000000 		.4byte	0
 12609              	.LLST84:
ARM GAS  C:\Users\AHMED~1.ELE\AppData\Local\Temp\ccaBET3e.s 			page 267


 12610 0f63 EA000000 		.4byte	.LVL202
 12611 0f67 F2000000 		.4byte	.LVL203
 12612 0f6b 0200     		.2byte	0x2
 12613 0f6d 30       		.byte	0x30
 12614 0f6e 9F       		.byte	0x9f
 12615 0f6f F2000000 		.4byte	.LVL203
 12616 0f73 F6000000 		.4byte	.LVL204
 12617 0f77 0600     		.2byte	0x6
 12618 0f79 72       		.byte	0x72
 12619 0f7a 00       		.sleb128 0
 12620 0f7b 7A       		.byte	0x7a
 12621 0f7c 00       		.sleb128 0
 12622 0f7d 1C       		.byte	0x1c
 12623 0f7e 9F       		.byte	0x9f
 12624 0f7f F6000000 		.4byte	.LVL204
 12625 0f83 02010000 		.4byte	.LVL206
 12626 0f87 0100     		.2byte	0x1
 12627 0f89 50       		.byte	0x50
 12628 0f8a 02010000 		.4byte	.LVL206
 12629 0f8e 0A010000 		.4byte	.LVL207
 12630 0f92 0700     		.2byte	0x7
 12631 0f94 7A       		.byte	0x7a
 12632 0f95 00       		.sleb128 0
 12633 0f96 20       		.byte	0x20
 12634 0f97 72       		.byte	0x72
 12635 0f98 00       		.sleb128 0
 12636 0f99 22       		.byte	0x22
 12637 0f9a 9F       		.byte	0x9f
 12638 0f9b 0C010000 		.4byte	.LVL208
 12639 0f9f 14010000 		.4byte	.LVL209
 12640 0fa3 0100     		.2byte	0x1
 12641 0fa5 50       		.byte	0x50
 12642 0fa6 14010000 		.4byte	.LVL209
 12643 0faa 26010000 		.4byte	.LVL210
 12644 0fae 0100     		.2byte	0x1
 12645 0fb0 52       		.byte	0x52
 12646 0fb1 26010000 		.4byte	.LVL210
 12647 0fb5 28010000 		.4byte	.LVL211
 12648 0fb9 0300     		.2byte	0x3
 12649 0fbb 72       		.byte	0x72
 12650 0fbc 01       		.sleb128 1
 12651 0fbd 9F       		.byte	0x9f
 12652 0fbe 00000000 		.4byte	0
 12653 0fc2 00000000 		.4byte	0
 12654              	.LLST85:
 12655 0fc6 2E010000 		.4byte	.LVL213
 12656 0fca AE010000 		.4byte	.LVL224
 12657 0fce 0600     		.2byte	0x6
 12658 0fd0 03       		.byte	0x3
 12659 0fd1 00000000 		.4byte	s_x509_sign
 12660 0fd5 9F       		.byte	0x9f
 12661 0fd6 00000000 		.4byte	0
 12662 0fda 00000000 		.4byte	0
 12663              	.LLST86:
 12664 0fde 2E010000 		.4byte	.LVL213
 12665 0fe2 AE010000 		.4byte	.LVL224
 12666 0fe6 0200     		.2byte	0x2
ARM GAS  C:\Users\AHMED~1.ELE\AppData\Local\Temp\ccaBET3e.s 			page 268


 12667 0fe8 31       		.byte	0x31
 12668 0fe9 9F       		.byte	0x9f
 12669 0fea 00000000 		.4byte	0
 12670 0fee 00000000 		.4byte	0
 12671              	.LLST87:
 12672 0ff2 2E010000 		.4byte	.LVL213
 12673 0ff6 AE010000 		.4byte	.LVL224
 12674 0ffa 0300     		.2byte	0x3
 12675 0ffc 08       		.byte	0x8
 12676 0ffd 7F       		.byte	0x7f
 12677 0ffe 9F       		.byte	0x9f
 12678 0fff 00000000 		.4byte	0
 12679 1003 00000000 		.4byte	0
 12680              	.LLST88:
 12681 1007 00000000 		.4byte	.LVL226
 12682 100b 1D000000 		.4byte	.LVL228-1
 12683 100f 0100     		.2byte	0x1
 12684 1011 50       		.byte	0x50
 12685 1012 1D000000 		.4byte	.LVL228-1
 12686 1016 20000000 		.4byte	.LVL229
 12687 101a 0100     		.2byte	0x1
 12688 101c 56       		.byte	0x56
 12689 101d 20000000 		.4byte	.LVL229
 12690 1021 2A000000 		.4byte	.LVL231
 12691 1025 0100     		.2byte	0x1
 12692 1027 50       		.byte	0x50
 12693 1028 2A000000 		.4byte	.LVL231
 12694 102c D8000000 		.4byte	.LVL250
 12695 1030 0100     		.2byte	0x1
 12696 1032 56       		.byte	0x56
 12697 1033 D8000000 		.4byte	.LVL250
 12698 1037 DC000000 		.4byte	.LFE29
 12699 103b 0400     		.2byte	0x4
 12700 103d F3       		.byte	0xf3
 12701 103e 01       		.uleb128 0x1
 12702 103f 50       		.byte	0x50
 12703 1040 9F       		.byte	0x9f
 12704 1041 00000000 		.4byte	0
 12705 1045 00000000 		.4byte	0
 12706              	.LLST89:
 12707 1049 00000000 		.4byte	.LVL226
 12708 104d 1D000000 		.4byte	.LVL228-1
 12709 1051 0100     		.2byte	0x1
 12710 1053 51       		.byte	0x51
 12711 1054 1D000000 		.4byte	.LVL228-1
 12712 1058 20000000 		.4byte	.LVL229
 12713 105c 0100     		.2byte	0x1
 12714 105e 55       		.byte	0x55
 12715 105f 20000000 		.4byte	.LVL229
 12716 1063 24000000 		.4byte	.LVL230
 12717 1067 0100     		.2byte	0x1
 12718 1069 51       		.byte	0x51
 12719 106a 24000000 		.4byte	.LVL230
 12720 106e 46000000 		.4byte	.LVL235
 12721 1072 0100     		.2byte	0x1
 12722 1074 55       		.byte	0x55
 12723 1075 46000000 		.4byte	.LVL235
ARM GAS  C:\Users\AHMED~1.ELE\AppData\Local\Temp\ccaBET3e.s 			page 269


 12724 1079 DC000000 		.4byte	.LFE29
 12725 107d 0400     		.2byte	0x4
 12726 107f F3       		.byte	0xf3
 12727 1080 01       		.uleb128 0x1
 12728 1081 51       		.byte	0x51
 12729 1082 9F       		.byte	0x9f
 12730 1083 00000000 		.4byte	0
 12731 1087 00000000 		.4byte	0
 12732              	.LLST90:
 12733 108b 10000000 		.4byte	.LVL227
 12734 108f 1D000000 		.4byte	.LVL228-1
 12735 1093 0100     		.2byte	0x1
 12736 1095 51       		.byte	0x51
 12737 1096 1D000000 		.4byte	.LVL228-1
 12738 109a 20000000 		.4byte	.LVL229
 12739 109e 0100     		.2byte	0x1
 12740 10a0 55       		.byte	0x55
 12741 10a1 20000000 		.4byte	.LVL229
 12742 10a5 24000000 		.4byte	.LVL230
 12743 10a9 0100     		.2byte	0x1
 12744 10ab 51       		.byte	0x51
 12745 10ac 24000000 		.4byte	.LVL230
 12746 10b0 46000000 		.4byte	.LVL235
 12747 10b4 0100     		.2byte	0x1
 12748 10b6 55       		.byte	0x55
 12749 10b7 46000000 		.4byte	.LVL235
 12750 10bb D2000000 		.4byte	.LVL249
 12751 10bf 0400     		.2byte	0x4
 12752 10c1 F3       		.byte	0xf3
 12753 10c2 01       		.uleb128 0x1
 12754 10c3 51       		.byte	0x51
 12755 10c4 9F       		.byte	0x9f
 12756 10c5 00000000 		.4byte	0
 12757 10c9 00000000 		.4byte	0
 12758              	.LLST91:
 12759 10cd 10000000 		.4byte	.LVL227
 12760 10d1 1D000000 		.4byte	.LVL228-1
 12761 10d5 0100     		.2byte	0x1
 12762 10d7 50       		.byte	0x50
 12763 10d8 1D000000 		.4byte	.LVL228-1
 12764 10dc 20000000 		.4byte	.LVL229
 12765 10e0 0100     		.2byte	0x1
 12766 10e2 56       		.byte	0x56
 12767 10e3 20000000 		.4byte	.LVL229
 12768 10e7 2A000000 		.4byte	.LVL231
 12769 10eb 0100     		.2byte	0x1
 12770 10ed 50       		.byte	0x50
 12771 10ee 2A000000 		.4byte	.LVL231
 12772 10f2 D2000000 		.4byte	.LVL249
 12773 10f6 0100     		.2byte	0x1
 12774 10f8 56       		.byte	0x56
 12775 10f9 00000000 		.4byte	0
 12776 10fd 00000000 		.4byte	0
 12777              	.LLST92:
 12778 1101 20000000 		.4byte	.LVL229
 12779 1105 24000000 		.4byte	.LVL230
 12780 1109 0100     		.2byte	0x1
ARM GAS  C:\Users\AHMED~1.ELE\AppData\Local\Temp\ccaBET3e.s 			page 270


 12781 110b 51       		.byte	0x51
 12782 110c 24000000 		.4byte	.LVL230
 12783 1110 46000000 		.4byte	.LVL235
 12784 1114 0100     		.2byte	0x1
 12785 1116 55       		.byte	0x55
 12786 1117 46000000 		.4byte	.LVL235
 12787 111b D2000000 		.4byte	.LVL249
 12788 111f 0400     		.2byte	0x4
 12789 1121 F3       		.byte	0xf3
 12790 1122 01       		.uleb128 0x1
 12791 1123 51       		.byte	0x51
 12792 1124 9F       		.byte	0x9f
 12793 1125 00000000 		.4byte	0
 12794 1129 00000000 		.4byte	0
 12795              	.LLST93:
 12796 112d 20000000 		.4byte	.LVL229
 12797 1131 2A000000 		.4byte	.LVL231
 12798 1135 0100     		.2byte	0x1
 12799 1137 50       		.byte	0x50
 12800 1138 2A000000 		.4byte	.LVL231
 12801 113c D2000000 		.4byte	.LVL249
 12802 1140 0100     		.2byte	0x1
 12803 1142 56       		.byte	0x56
 12804 1143 00000000 		.4byte	0
 12805 1147 00000000 		.4byte	0
 12806              	.LLST94:
 12807 114b 74000000 		.4byte	.LVL243
 12808 114f B8000000 		.4byte	.LVL247
 12809 1153 0100     		.2byte	0x1
 12810 1155 55       		.byte	0x55
 12811 1156 00000000 		.4byte	0
 12812 115a 00000000 		.4byte	0
 12813              	.LLST95:
 12814 115e 44000000 		.4byte	.LVL234
 12815 1162 D2000000 		.4byte	.LVL249
 12816 1166 0600     		.2byte	0x6
 12817 1168 03       		.byte	0x3
 12818 1169 00000000 		.4byte	s_x509_sign
 12819 116d 9F       		.byte	0x9f
 12820 116e 00000000 		.4byte	0
 12821 1172 00000000 		.4byte	0
 12822              	.LLST96:
 12823 1176 44000000 		.4byte	.LVL234
 12824 117a 46000000 		.4byte	.LVL235
 12825 117e 0900     		.2byte	0x9
 12826 1180 76       		.byte	0x76
 12827 1181 02       		.sleb128 2
 12828 1182 94       		.byte	0x94
 12829 1183 02       		.byte	0x2
 12830 1184 0A       		.byte	0xa
 12831 1185 FFFF     		.2byte	0xffff
 12832 1187 1A       		.byte	0x1a
 12833 1188 9F       		.byte	0x9f
 12834 1189 46000000 		.4byte	.LVL235
 12835 118d 4A000000 		.4byte	.LVL236
 12836 1191 0100     		.2byte	0x1
 12837 1193 55       		.byte	0x55
ARM GAS  C:\Users\AHMED~1.ELE\AppData\Local\Temp\ccaBET3e.s 			page 271


 12838 1194 4A000000 		.4byte	.LVL236
 12839 1198 B8000000 		.4byte	.LVL247
 12840 119c 0900     		.2byte	0x9
 12841 119e 75       		.byte	0x75
 12842 119f 00       		.sleb128 0
 12843 11a0 03       		.byte	0x3
 12844 11a1 00000000 		.4byte	.LANCHOR0
 12845 11a5 1C       		.byte	0x1c
 12846 11a6 9F       		.byte	0x9f
 12847 11a7 00000000 		.4byte	0
 12848 11ab 00000000 		.4byte	0
 12849              	.LLST97:
 12850 11af 44000000 		.4byte	.LVL234
 12851 11b3 4A000000 		.4byte	.LVL236
 12852 11b7 0600     		.2byte	0x6
 12853 11b9 03       		.byte	0x3
 12854 11ba 00000000 		.4byte	s_x509_sign
 12855 11be 9F       		.byte	0x9f
 12856 11bf 4A000000 		.4byte	.LVL236
 12857 11c3 56000000 		.4byte	.LVL237
 12858 11c7 0600     		.2byte	0x6
 12859 11c9 03       		.byte	0x3
 12860 11ca 01000000 		.4byte	s_x509_sign+1
 12861 11ce 9F       		.byte	0x9f
 12862 11cf 5A000000 		.4byte	.LVL238
 12863 11d3 5C000000 		.4byte	.LVL239
 12864 11d7 0100     		.2byte	0x1
 12865 11d9 51       		.byte	0x51
 12866 11da 5C000000 		.4byte	.LVL239
 12867 11de 5E000000 		.4byte	.LVL240
 12868 11e2 0300     		.2byte	0x3
 12869 11e4 71       		.byte	0x71
 12870 11e5 01       		.sleb128 1
 12871 11e6 9F       		.byte	0x9f
 12872 11e7 5E000000 		.4byte	.LVL240
 12873 11eb 60000000 		.4byte	.LVL241
 12874 11ef 0100     		.2byte	0x1
 12875 11f1 51       		.byte	0x51
 12876 11f2 66000000 		.4byte	.LVL242
 12877 11f6 74000000 		.4byte	.LVL243
 12878 11fa 0100     		.2byte	0x1
 12879 11fc 51       		.byte	0x51
 12880 11fd 00000000 		.4byte	0
 12881 1201 00000000 		.4byte	0
 12882              	.LLST98:
 12883 1205 4A000000 		.4byte	.LVL236
 12884 1209 B8000000 		.4byte	.LVL247
 12885 120d 0100     		.2byte	0x1
 12886 120f 55       		.byte	0x55
 12887 1210 00000000 		.4byte	0
 12888 1214 00000000 		.4byte	0
 12889              	.LLST99:
 12890 1218 00000000 		.4byte	.LVL251
 12891 121c 2C000000 		.4byte	.LVL253
 12892 1220 0100     		.2byte	0x1
 12893 1222 50       		.byte	0x50
 12894 1223 2C000000 		.4byte	.LVL253
ARM GAS  C:\Users\AHMED~1.ELE\AppData\Local\Temp\ccaBET3e.s 			page 272


 12895 1227 72000000 		.4byte	.LVL262
 12896 122b 0100     		.2byte	0x1
 12897 122d 56       		.byte	0x56
 12898 122e 72000000 		.4byte	.LVL262
 12899 1232 E2060000 		.4byte	.LVL409
 12900 1236 0400     		.2byte	0x4
 12901 1238 F3       		.byte	0xf3
 12902 1239 01       		.uleb128 0x1
 12903 123a 50       		.byte	0x50
 12904 123b 9F       		.byte	0x9f
 12905 123c E2060000 		.4byte	.LVL409
 12906 1240 E4060000 		.4byte	.LVL410
 12907 1244 0100     		.2byte	0x1
 12908 1246 50       		.byte	0x50
 12909 1247 E4060000 		.4byte	.LVL410
 12910 124b EE060000 		.4byte	.LVL413
 12911 124f 0100     		.2byte	0x1
 12912 1251 56       		.byte	0x56
 12913 1252 EE060000 		.4byte	.LVL413
 12914 1256 1C070000 		.4byte	.LFE23
 12915 125a 0400     		.2byte	0x4
 12916 125c F3       		.byte	0xf3
 12917 125d 01       		.uleb128 0x1
 12918 125e 50       		.byte	0x50
 12919 125f 9F       		.byte	0x9f
 12920 1260 00000000 		.4byte	0
 12921 1264 00000000 		.4byte	0
 12922              	.LLST100:
 12923 1268 00000000 		.4byte	.LVL251
 12924 126c 2E000000 		.4byte	.LVL254
 12925 1270 0100     		.2byte	0x1
 12926 1272 51       		.byte	0x51
 12927 1273 2E000000 		.4byte	.LVL254
 12928 1277 5A000000 		.4byte	.LVL260
 12929 127b 0100     		.2byte	0x1
 12930 127d 55       		.byte	0x55
 12931 127e 5A000000 		.4byte	.LVL260
 12932 1282 E2060000 		.4byte	.LVL409
 12933 1286 0400     		.2byte	0x4
 12934 1288 F3       		.byte	0xf3
 12935 1289 01       		.uleb128 0x1
 12936 128a 51       		.byte	0x51
 12937 128b 9F       		.byte	0x9f
 12938 128c E2060000 		.4byte	.LVL409
 12939 1290 E6060000 		.4byte	.LVL411
 12940 1294 0100     		.2byte	0x1
 12941 1296 51       		.byte	0x51
 12942 1297 E6060000 		.4byte	.LVL411
 12943 129b EA060000 		.4byte	.LVL412
 12944 129f 0100     		.2byte	0x1
 12945 12a1 55       		.byte	0x55
 12946 12a2 EA060000 		.4byte	.LVL412
 12947 12a6 1C070000 		.4byte	.LFE23
 12948 12aa 0400     		.2byte	0x4
 12949 12ac F3       		.byte	0xf3
 12950 12ad 01       		.uleb128 0x1
 12951 12ae 51       		.byte	0x51
ARM GAS  C:\Users\AHMED~1.ELE\AppData\Local\Temp\ccaBET3e.s 			page 273


 12952 12af 9F       		.byte	0x9f
 12953 12b0 00000000 		.4byte	0
 12954 12b4 00000000 		.4byte	0
 12955              	.LLST101:
 12956 12b8 00000000 		.4byte	.LVL251
 12957 12bc 32000000 		.4byte	.LVL255
 12958 12c0 0100     		.2byte	0x1
 12959 12c2 52       		.byte	0x52
 12960 12c3 32000000 		.4byte	.LVL255
 12961 12c7 39000000 		.4byte	.LVL256-1
 12962 12cb 0100     		.2byte	0x1
 12963 12cd 50       		.byte	0x50
 12964 12ce 39000000 		.4byte	.LVL256-1
 12965 12d2 E2060000 		.4byte	.LVL409
 12966 12d6 0100     		.2byte	0x1
 12967 12d8 54       		.byte	0x54
 12968 12d9 E2060000 		.4byte	.LVL409
 12969 12dd E6060000 		.4byte	.LVL411
 12970 12e1 0100     		.2byte	0x1
 12971 12e3 52       		.byte	0x52
 12972 12e4 E6060000 		.4byte	.LVL411
 12973 12e8 10070000 		.4byte	.LVL417
 12974 12ec 0100     		.2byte	0x1
 12975 12ee 54       		.byte	0x54
 12976 12ef 10070000 		.4byte	.LVL417
 12977 12f3 1C070000 		.4byte	.LFE23
 12978 12f7 0400     		.2byte	0x4
 12979 12f9 F3       		.byte	0xf3
 12980 12fa 01       		.uleb128 0x1
 12981 12fb 52       		.byte	0x52
 12982 12fc 9F       		.byte	0x9f
 12983 12fd 00000000 		.4byte	0
 12984 1301 00000000 		.4byte	0
 12985              	.LLST102:
 12986 1305 58000000 		.4byte	.LVL259
 12987 1309 E2060000 		.4byte	.LVL409
 12988 130d 0100     		.2byte	0x1
 12989 130f 5A       		.byte	0x5a
 12990 1310 EA060000 		.4byte	.LVL412
 12991 1314 08070000 		.4byte	.LVL416
 12992 1318 0100     		.2byte	0x1
 12993 131a 5A       		.byte	0x5a
 12994 131b 00000000 		.4byte	0
 12995 131f 00000000 		.4byte	0
 12996              	.LLST103:
 12997 1323 76000000 		.4byte	.LVL263
 12998 1327 78000000 		.4byte	.LVL264
 12999 132b 0600     		.2byte	0x6
 13000 132d 77       		.byte	0x77
 13001 132e 00       		.sleb128 0
 13002 132f 73       		.byte	0x73
 13003 1330 00       		.sleb128 0
 13004 1331 22       		.byte	0x22
 13005 1332 9F       		.byte	0x9f
 13006 1333 78000000 		.4byte	.LVL264
 13007 1337 7C000000 		.4byte	.LVL265
 13008 133b 0800     		.2byte	0x8
ARM GAS  C:\Users\AHMED~1.ELE\AppData\Local\Temp\ccaBET3e.s 			page 274


 13009 133d 77       		.byte	0x77
 13010 133e 00       		.sleb128 0
 13011 133f 91       		.byte	0x91
 13012 1340 D07B     		.sleb128 -560
 13013 1342 06       		.byte	0x6
 13014 1343 22       		.byte	0x22
 13015 1344 9F       		.byte	0x9f
 13016 1345 7C000000 		.4byte	.LVL265
 13017 1349 80000000 		.4byte	.LVL266
 13018 134d 0600     		.2byte	0x6
 13019 134f 77       		.byte	0x77
 13020 1350 00       		.sleb128 0
 13021 1351 73       		.byte	0x73
 13022 1352 00       		.sleb128 0
 13023 1353 22       		.byte	0x22
 13024 1354 9F       		.byte	0x9f
 13025 1355 80000000 		.4byte	.LVL266
 13026 1359 97000000 		.4byte	.LVL267-1
 13027 135d 0800     		.2byte	0x8
 13028 135f 77       		.byte	0x77
 13029 1360 00       		.sleb128 0
 13030 1361 91       		.byte	0x91
 13031 1362 E87B     		.sleb128 -536
 13032 1364 06       		.byte	0x6
 13033 1365 22       		.byte	0x22
 13034 1366 9F       		.byte	0x9f
 13035 1367 97000000 		.4byte	.LVL267-1
 13036 136b 12020000 		.4byte	.LVL307
 13037 136f 0800     		.2byte	0x8
 13038 1371 77       		.byte	0x77
 13039 1372 00       		.sleb128 0
 13040 1373 91       		.byte	0x91
 13041 1374 D07B     		.sleb128 -560
 13042 1376 06       		.byte	0x6
 13043 1377 22       		.byte	0x22
 13044 1378 9F       		.byte	0x9f
 13045 1379 16020000 		.4byte	.LVL308
 13046 137d D2020000 		.4byte	.LVL325
 13047 1381 0800     		.2byte	0x8
 13048 1383 77       		.byte	0x77
 13049 1384 00       		.sleb128 0
 13050 1385 91       		.byte	0x91
 13051 1386 D07B     		.sleb128 -560
 13052 1388 06       		.byte	0x6
 13053 1389 22       		.byte	0x22
 13054 138a 9F       		.byte	0x9f
 13055 138b DC020000 		.4byte	.LVL326
 13056 138f 92050000 		.4byte	.LVL377
 13057 1393 0800     		.2byte	0x8
 13058 1395 77       		.byte	0x77
 13059 1396 00       		.sleb128 0
 13060 1397 91       		.byte	0x91
 13061 1398 D07B     		.sleb128 -560
 13062 139a 06       		.byte	0x6
 13063 139b 22       		.byte	0x22
 13064 139c 9F       		.byte	0x9f
 13065 139d EE060000 		.4byte	.LVL413
ARM GAS  C:\Users\AHMED~1.ELE\AppData\Local\Temp\ccaBET3e.s 			page 275


 13066 13a1 FE060000 		.4byte	.LVL415
 13067 13a5 0800     		.2byte	0x8
 13068 13a7 77       		.byte	0x77
 13069 13a8 00       		.sleb128 0
 13070 13a9 91       		.byte	0x91
 13071 13aa D07B     		.sleb128 -560
 13072 13ac 06       		.byte	0x6
 13073 13ad 22       		.byte	0x22
 13074 13ae 9F       		.byte	0x9f
 13075 13af 00000000 		.4byte	0
 13076 13b3 00000000 		.4byte	0
 13077              	.LLST104:
 13078 13b7 18000000 		.4byte	.LVL252
 13079 13bb 2C000000 		.4byte	.LVL253
 13080 13bf 0600     		.2byte	0x6
 13081 13c1 70       		.byte	0x70
 13082 13c2 00       		.sleb128 0
 13083 13c3 71       		.byte	0x71
 13084 13c4 00       		.sleb128 0
 13085 13c5 22       		.byte	0x22
 13086 13c6 9F       		.byte	0x9f
 13087 13c7 2C000000 		.4byte	.LVL253
 13088 13cb 2E000000 		.4byte	.LVL254
 13089 13cf 0600     		.2byte	0x6
 13090 13d1 76       		.byte	0x76
 13091 13d2 00       		.sleb128 0
 13092 13d3 71       		.byte	0x71
 13093 13d4 00       		.sleb128 0
 13094 13d5 22       		.byte	0x22
 13095 13d6 9F       		.byte	0x9f
 13096 13d7 2E000000 		.4byte	.LVL254
 13097 13db 5A000000 		.4byte	.LVL260
 13098 13df 0600     		.2byte	0x6
 13099 13e1 76       		.byte	0x76
 13100 13e2 00       		.sleb128 0
 13101 13e3 75       		.byte	0x75
 13102 13e4 00       		.sleb128 0
 13103 13e5 22       		.byte	0x22
 13104 13e6 9F       		.byte	0x9f
 13105 13e7 5A000000 		.4byte	.LVL260
 13106 13eb 16060000 		.4byte	.LVL394
 13107 13ef 0100     		.2byte	0x1
 13108 13f1 55       		.byte	0x55
 13109 13f2 16060000 		.4byte	.LVL394
 13110 13f6 1A060000 		.4byte	.LVL395
 13111 13fa 0800     		.2byte	0x8
 13112 13fc F3       		.byte	0xf3
 13113 13fd 01       		.uleb128 0x1
 13114 13fe 50       		.byte	0x50
 13115 13ff F3       		.byte	0xf3
 13116 1400 01       		.uleb128 0x1
 13117 1401 51       		.byte	0x51
 13118 1402 22       		.byte	0x22
 13119 1403 9F       		.byte	0x9f
 13120 1404 1A060000 		.4byte	.LVL395
 13121 1408 38060000 		.4byte	.LVL398
 13122 140c 0100     		.2byte	0x1
ARM GAS  C:\Users\AHMED~1.ELE\AppData\Local\Temp\ccaBET3e.s 			page 276


 13123 140e 55       		.byte	0x55
 13124 140f 38060000 		.4byte	.LVL398
 13125 1413 E2060000 		.4byte	.LVL409
 13126 1417 0800     		.2byte	0x8
 13127 1419 F3       		.byte	0xf3
 13128 141a 01       		.uleb128 0x1
 13129 141b 50       		.byte	0x50
 13130 141c F3       		.byte	0xf3
 13131 141d 01       		.uleb128 0x1
 13132 141e 51       		.byte	0x51
 13133 141f 22       		.byte	0x22
 13134 1420 9F       		.byte	0x9f
 13135 1421 E2060000 		.4byte	.LVL409
 13136 1425 E4060000 		.4byte	.LVL410
 13137 1429 0600     		.2byte	0x6
 13138 142b 70       		.byte	0x70
 13139 142c 00       		.sleb128 0
 13140 142d 71       		.byte	0x71
 13141 142e 00       		.sleb128 0
 13142 142f 22       		.byte	0x22
 13143 1430 9F       		.byte	0x9f
 13144 1431 E4060000 		.4byte	.LVL410
 13145 1435 E6060000 		.4byte	.LVL411
 13146 1439 0600     		.2byte	0x6
 13147 143b 76       		.byte	0x76
 13148 143c 00       		.sleb128 0
 13149 143d 71       		.byte	0x71
 13150 143e 00       		.sleb128 0
 13151 143f 22       		.byte	0x22
 13152 1440 9F       		.byte	0x9f
 13153 1441 E6060000 		.4byte	.LVL411
 13154 1445 EA060000 		.4byte	.LVL412
 13155 1449 0600     		.2byte	0x6
 13156 144b 76       		.byte	0x76
 13157 144c 00       		.sleb128 0
 13158 144d 75       		.byte	0x75
 13159 144e 00       		.sleb128 0
 13160 144f 22       		.byte	0x22
 13161 1450 9F       		.byte	0x9f
 13162 1451 EA060000 		.4byte	.LVL412
 13163 1455 08070000 		.4byte	.LVL416
 13164 1459 0100     		.2byte	0x1
 13165 145b 55       		.byte	0x55
 13166 145c 08070000 		.4byte	.LVL416
 13167 1460 1C070000 		.4byte	.LFE23
 13168 1464 0800     		.2byte	0x8
 13169 1466 F3       		.byte	0xf3
 13170 1467 01       		.uleb128 0x1
 13171 1468 50       		.byte	0x50
 13172 1469 F3       		.byte	0xf3
 13173 146a 01       		.uleb128 0x1
 13174 146b 51       		.byte	0x51
 13175 146c 22       		.byte	0x22
 13176 146d 9F       		.byte	0x9f
 13177 146e 00000000 		.4byte	0
 13178 1472 00000000 		.4byte	0
 13179              	.LLST105:
ARM GAS  C:\Users\AHMED~1.ELE\AppData\Local\Temp\ccaBET3e.s 			page 277


 13180 1476 76000000 		.4byte	.LVL263
 13181 147a 78000000 		.4byte	.LVL264
 13182 147e 0900     		.2byte	0x9
 13183 1480 77       		.byte	0x77
 13184 1481 00       		.sleb128 0
 13185 1482 73       		.byte	0x73
 13186 1483 00       		.sleb128 0
 13187 1484 22       		.byte	0x22
 13188 1485 7A       		.byte	0x7a
 13189 1486 00       		.sleb128 0
 13190 1487 1C       		.byte	0x1c
 13191 1488 9F       		.byte	0x9f
 13192 1489 78000000 		.4byte	.LVL264
 13193 148d 7C000000 		.4byte	.LVL265
 13194 1491 0B00     		.2byte	0xb
 13195 1493 77       		.byte	0x77
 13196 1494 00       		.sleb128 0
 13197 1495 91       		.byte	0x91
 13198 1496 D07B     		.sleb128 -560
 13199 1498 06       		.byte	0x6
 13200 1499 22       		.byte	0x22
 13201 149a 7A       		.byte	0x7a
 13202 149b 00       		.sleb128 0
 13203 149c 1C       		.byte	0x1c
 13204 149d 9F       		.byte	0x9f
 13205 149e 7C000000 		.4byte	.LVL265
 13206 14a2 80000000 		.4byte	.LVL266
 13207 14a6 0900     		.2byte	0x9
 13208 14a8 77       		.byte	0x77
 13209 14a9 00       		.sleb128 0
 13210 14aa 73       		.byte	0x73
 13211 14ab 00       		.sleb128 0
 13212 14ac 22       		.byte	0x22
 13213 14ad 7A       		.byte	0x7a
 13214 14ae 00       		.sleb128 0
 13215 14af 1C       		.byte	0x1c
 13216 14b0 9F       		.byte	0x9f
 13217 14b1 80000000 		.4byte	.LVL266
 13218 14b5 97000000 		.4byte	.LVL267-1
 13219 14b9 0B00     		.2byte	0xb
 13220 14bb 77       		.byte	0x77
 13221 14bc 00       		.sleb128 0
 13222 14bd 91       		.byte	0x91
 13223 14be E87B     		.sleb128 -536
 13224 14c0 06       		.byte	0x6
 13225 14c1 22       		.byte	0x22
 13226 14c2 7A       		.byte	0x7a
 13227 14c3 00       		.sleb128 0
 13228 14c4 1C       		.byte	0x1c
 13229 14c5 9F       		.byte	0x9f
 13230 14c6 97000000 		.4byte	.LVL267-1
 13231 14ca 12020000 		.4byte	.LVL307
 13232 14ce 0B00     		.2byte	0xb
 13233 14d0 77       		.byte	0x77
 13234 14d1 00       		.sleb128 0
 13235 14d2 91       		.byte	0x91
 13236 14d3 D07B     		.sleb128 -560
ARM GAS  C:\Users\AHMED~1.ELE\AppData\Local\Temp\ccaBET3e.s 			page 278


 13237 14d5 06       		.byte	0x6
 13238 14d6 22       		.byte	0x22
 13239 14d7 7A       		.byte	0x7a
 13240 14d8 00       		.sleb128 0
 13241 14d9 1C       		.byte	0x1c
 13242 14da 9F       		.byte	0x9f
 13243 14db 16020000 		.4byte	.LVL308
 13244 14df D2020000 		.4byte	.LVL325
 13245 14e3 0B00     		.2byte	0xb
 13246 14e5 77       		.byte	0x77
 13247 14e6 00       		.sleb128 0
 13248 14e7 91       		.byte	0x91
 13249 14e8 D07B     		.sleb128 -560
 13250 14ea 06       		.byte	0x6
 13251 14eb 22       		.byte	0x22
 13252 14ec 7A       		.byte	0x7a
 13253 14ed 00       		.sleb128 0
 13254 14ee 1C       		.byte	0x1c
 13255 14ef 9F       		.byte	0x9f
 13256 14f0 DC020000 		.4byte	.LVL326
 13257 14f4 92050000 		.4byte	.LVL377
 13258 14f8 0B00     		.2byte	0xb
 13259 14fa 77       		.byte	0x77
 13260 14fb 00       		.sleb128 0
 13261 14fc 91       		.byte	0x91
 13262 14fd D07B     		.sleb128 -560
 13263 14ff 06       		.byte	0x6
 13264 1500 22       		.byte	0x22
 13265 1501 7A       		.byte	0x7a
 13266 1502 00       		.sleb128 0
 13267 1503 1C       		.byte	0x1c
 13268 1504 9F       		.byte	0x9f
 13269 1505 EE060000 		.4byte	.LVL413
 13270 1509 FE060000 		.4byte	.LVL415
 13271 150d 0B00     		.2byte	0xb
 13272 150f 77       		.byte	0x77
 13273 1510 00       		.sleb128 0
 13274 1511 91       		.byte	0x91
 13275 1512 D07B     		.sleb128 -560
 13276 1514 06       		.byte	0x6
 13277 1515 22       		.byte	0x22
 13278 1516 7A       		.byte	0x7a
 13279 1517 00       		.sleb128 0
 13280 1518 1C       		.byte	0x1c
 13281 1519 9F       		.byte	0x9f
 13282 151a 00000000 		.4byte	0
 13283 151e 00000000 		.4byte	0
 13284              	.LLST106:
 13285 1522 D6050000 		.4byte	.LVL386
 13286 1526 D8050000 		.4byte	.LVL387
 13287 152a 0100     		.2byte	0x1
 13288 152c 51       		.byte	0x51
 13289 152d D8050000 		.4byte	.LVL387
 13290 1531 DE050000 		.4byte	.LVL388
 13291 1535 0600     		.2byte	0x6
 13292 1537 9E       		.byte	0x9e
 13293 1538 04       		.uleb128 0x4
ARM GAS  C:\Users\AHMED~1.ELE\AppData\Local\Temp\ccaBET3e.s 			page 279


 13294 1539 F77E758B 		.4byte	0x8b757ef7
 13295 153d DE050000 		.4byte	.LVL388
 13296 1541 E1050000 		.4byte	.LVL389-1
 13297 1545 0100     		.2byte	0x1
 13298 1547 51       		.byte	0x51
 13299 1548 00000000 		.4byte	0
 13300 154c 00000000 		.4byte	0
 13301              	.LLST107:
 13302 1550 76000000 		.4byte	.LVL263
 13303 1554 E2060000 		.4byte	.LVL409
 13304 1558 0200     		.2byte	0x2
 13305 155a 30       		.byte	0x30
 13306 155b 9F       		.byte	0x9f
 13307 155c EE060000 		.4byte	.LVL413
 13308 1560 08070000 		.4byte	.LVL416
 13309 1564 0200     		.2byte	0x2
 13310 1566 30       		.byte	0x30
 13311 1567 9F       		.byte	0x9f
 13312 1568 00000000 		.4byte	0
 13313 156c 00000000 		.4byte	0
 13314              	.LLST108:
 13315 1570 76000000 		.4byte	.LVL263
 13316 1574 A6000000 		.4byte	.LVL268
 13317 1578 0400     		.2byte	0x4
 13318 157a 91       		.byte	0x91
 13319 157b EC7B     		.sleb128 -532
 13320 157d 9F       		.byte	0x9f
 13321 157e A6000000 		.4byte	.LVL268
 13322 1582 A9000000 		.4byte	.LVL269-1
 13323 1586 0100     		.2byte	0x1
 13324 1588 52       		.byte	0x52
 13325 1589 A9000000 		.4byte	.LVL269-1
 13326 158d E2060000 		.4byte	.LVL409
 13327 1591 0400     		.2byte	0x4
 13328 1593 91       		.byte	0x91
 13329 1594 EC7B     		.sleb128 -532
 13330 1596 9F       		.byte	0x9f
 13331 1597 EE060000 		.4byte	.LVL413
 13332 159b 08070000 		.4byte	.LVL416
 13333 159f 0400     		.2byte	0x4
 13334 15a1 91       		.byte	0x91
 13335 15a2 EC7B     		.sleb128 -532
 13336 15a4 9F       		.byte	0x9f
 13337 15a5 00000000 		.4byte	0
 13338 15a9 00000000 		.4byte	0
 13339              	.LLST109:
 13340 15ad 76000000 		.4byte	.LVL263
 13341 15b1 0E010000 		.4byte	.LVL283
 13342 15b5 0100     		.2byte	0x1
 13343 15b7 56       		.byte	0x56
 13344 15b8 0E010000 		.4byte	.LVL283
 13345 15bc 12010000 		.4byte	.LVL284
 13346 15c0 0600     		.2byte	0x6
 13347 15c2 75       		.byte	0x75
 13348 15c3 00       		.sleb128 0
 13349 15c4 77       		.byte	0x77
 13350 15c5 00       		.sleb128 0
ARM GAS  C:\Users\AHMED~1.ELE\AppData\Local\Temp\ccaBET3e.s 			page 280


 13351 15c6 1C       		.byte	0x1c
 13352 15c7 9F       		.byte	0x9f
 13353 15c8 12010000 		.4byte	.LVL284
 13354 15cc 3A010000 		.4byte	.LVL287
 13355 15d0 0100     		.2byte	0x1
 13356 15d2 56       		.byte	0x56
 13357 15d3 3A010000 		.4byte	.LVL287
 13358 15d7 12020000 		.4byte	.LVL307
 13359 15db 0600     		.2byte	0x6
 13360 15dd 75       		.byte	0x75
 13361 15de 00       		.sleb128 0
 13362 15df 77       		.byte	0x77
 13363 15e0 00       		.sleb128 0
 13364 15e1 1C       		.byte	0x1c
 13365 15e2 9F       		.byte	0x9f
 13366 15e3 16020000 		.4byte	.LVL308
 13367 15e7 D2020000 		.4byte	.LVL325
 13368 15eb 0600     		.2byte	0x6
 13369 15ed 75       		.byte	0x75
 13370 15ee 00       		.sleb128 0
 13371 15ef 77       		.byte	0x77
 13372 15f0 00       		.sleb128 0
 13373 15f1 1C       		.byte	0x1c
 13374 15f2 9F       		.byte	0x9f
 13375 15f3 DC020000 		.4byte	.LVL326
 13376 15f7 92050000 		.4byte	.LVL377
 13377 15fb 0600     		.2byte	0x6
 13378 15fd 75       		.byte	0x75
 13379 15fe 00       		.sleb128 0
 13380 15ff 77       		.byte	0x77
 13381 1600 00       		.sleb128 0
 13382 1601 1C       		.byte	0x1c
 13383 1602 9F       		.byte	0x9f
 13384 1603 EE060000 		.4byte	.LVL413
 13385 1607 F6060000 		.4byte	.LVL414
 13386 160b 0100     		.2byte	0x1
 13387 160d 56       		.byte	0x56
 13388 160e F6060000 		.4byte	.LVL414
 13389 1612 FE060000 		.4byte	.LVL415
 13390 1616 0600     		.2byte	0x6
 13391 1618 75       		.byte	0x75
 13392 1619 00       		.sleb128 0
 13393 161a 77       		.byte	0x77
 13394 161b 00       		.sleb128 0
 13395 161c 1C       		.byte	0x1c
 13396 161d 9F       		.byte	0x9f
 13397 161e 00000000 		.4byte	0
 13398 1622 00000000 		.4byte	0
 13399              	.LLST110:
 13400 1626 76000000 		.4byte	.LVL263
 13401 162a DC000000 		.4byte	.LVL276
 13402 162e 0400     		.2byte	0x4
 13403 1630 91       		.byte	0x91
 13404 1631 E47B     		.sleb128 -540
 13405 1633 9F       		.byte	0x9f
 13406 1634 DC000000 		.4byte	.LVL276
 13407 1638 ED000000 		.4byte	.LVL279-1
ARM GAS  C:\Users\AHMED~1.ELE\AppData\Local\Temp\ccaBET3e.s 			page 281


 13408 163c 0100     		.2byte	0x1
 13409 163e 50       		.byte	0x50
 13410 163f ED000000 		.4byte	.LVL279-1
 13411 1643 F8000000 		.4byte	.LVL280
 13412 1647 0400     		.2byte	0x4
 13413 1649 91       		.byte	0x91
 13414 164a E47B     		.sleb128 -540
 13415 164c 9F       		.byte	0x9f
 13416 164d F8000000 		.4byte	.LVL280
 13417 1651 FF000000 		.4byte	.LVL281-1
 13418 1655 0100     		.2byte	0x1
 13419 1657 50       		.byte	0x50
 13420 1658 FF000000 		.4byte	.LVL281-1
 13421 165c DC010000 		.4byte	.LVL300
 13422 1660 0400     		.2byte	0x4
 13423 1662 91       		.byte	0x91
 13424 1663 E47B     		.sleb128 -540
 13425 1665 9F       		.byte	0x9f
 13426 1666 DC010000 		.4byte	.LVL300
 13427 166a E5010000 		.4byte	.LVL302-1
 13428 166e 0100     		.2byte	0x1
 13429 1670 50       		.byte	0x50
 13430 1671 E5010000 		.4byte	.LVL302-1
 13431 1675 F0010000 		.4byte	.LVL303
 13432 1679 0400     		.2byte	0x4
 13433 167b 91       		.byte	0x91
 13434 167c E47B     		.sleb128 -540
 13435 167e 9F       		.byte	0x9f
 13436 167f F0010000 		.4byte	.LVL303
 13437 1683 F7010000 		.4byte	.LVL304-1
 13438 1687 0100     		.2byte	0x1
 13439 1689 50       		.byte	0x50
 13440 168a F7010000 		.4byte	.LVL304-1
 13441 168e 06020000 		.4byte	.LVL305
 13442 1692 0400     		.2byte	0x4
 13443 1694 91       		.byte	0x91
 13444 1695 E47B     		.sleb128 -540
 13445 1697 9F       		.byte	0x9f
 13446 1698 06020000 		.4byte	.LVL305
 13447 169c 0F020000 		.4byte	.LVL306-1
 13448 16a0 0100     		.2byte	0x1
 13449 16a2 50       		.byte	0x50
 13450 16a3 0F020000 		.4byte	.LVL306-1
 13451 16a7 DE020000 		.4byte	.LVL327
 13452 16ab 0400     		.2byte	0x4
 13453 16ad 91       		.byte	0x91
 13454 16ae E47B     		.sleb128 -540
 13455 16b0 9F       		.byte	0x9f
 13456 16b1 DE020000 		.4byte	.LVL327
 13457 16b5 E5020000 		.4byte	.LVL328-1
 13458 16b9 0100     		.2byte	0x1
 13459 16bb 50       		.byte	0x50
 13460 16bc E5020000 		.4byte	.LVL328-1
 13461 16c0 F0020000 		.4byte	.LVL329
 13462 16c4 0400     		.2byte	0x4
 13463 16c6 91       		.byte	0x91
 13464 16c7 E47B     		.sleb128 -540
ARM GAS  C:\Users\AHMED~1.ELE\AppData\Local\Temp\ccaBET3e.s 			page 282


 13465 16c9 9F       		.byte	0x9f
 13466 16ca F0020000 		.4byte	.LVL329
 13467 16ce F7020000 		.4byte	.LVL330-1
 13468 16d2 0100     		.2byte	0x1
 13469 16d4 50       		.byte	0x50
 13470 16d5 F7020000 		.4byte	.LVL330-1
 13471 16d9 96050000 		.4byte	.LVL378
 13472 16dd 0400     		.2byte	0x4
 13473 16df 91       		.byte	0x91
 13474 16e0 E47B     		.sleb128 -540
 13475 16e2 9F       		.byte	0x9f
 13476 16e3 96050000 		.4byte	.LVL378
 13477 16e7 A1050000 		.4byte	.LVL379-1
 13478 16eb 0100     		.2byte	0x1
 13479 16ed 50       		.byte	0x50
 13480 16ee A1050000 		.4byte	.LVL379-1
 13481 16f2 E2060000 		.4byte	.LVL409
 13482 16f6 0400     		.2byte	0x4
 13483 16f8 91       		.byte	0x91
 13484 16f9 E47B     		.sleb128 -540
 13485 16fb 9F       		.byte	0x9f
 13486 16fc EE060000 		.4byte	.LVL413
 13487 1700 08070000 		.4byte	.LVL416
 13488 1704 0400     		.2byte	0x4
 13489 1706 91       		.byte	0x91
 13490 1707 E47B     		.sleb128 -540
 13491 1709 9F       		.byte	0x9f
 13492 170a 00000000 		.4byte	0
 13493 170e 00000000 		.4byte	0
 13494              	.LLST111:
 13495 1712 B6000000 		.4byte	.LVL270
 13496 1716 BA000000 		.4byte	.LVL271
 13497 171a 0100     		.2byte	0x1
 13498 171c 51       		.byte	0x51
 13499 171d BE000000 		.4byte	.LVL272
 13500 1721 CC000000 		.4byte	.LVL273
 13501 1725 0100     		.2byte	0x1
 13502 1727 51       		.byte	0x51
 13503 1728 CC000000 		.4byte	.LVL273
 13504 172c D1000000 		.4byte	.LVL274-1
 13505 1730 0300     		.2byte	0x3
 13506 1732 71       		.byte	0x71
 13507 1733 01       		.sleb128 1
 13508 1734 9F       		.byte	0x9f
 13509 1735 00000000 		.4byte	0
 13510 1739 00000000 		.4byte	0
 13511              	.LLST112:
 13512 173d B6000000 		.4byte	.LVL270
 13513 1741 DC000000 		.4byte	.LVL276
 13514 1745 0400     		.2byte	0x4
 13515 1747 91       		.byte	0x91
 13516 1748 E47B     		.sleb128 -540
 13517 174a 9F       		.byte	0x9f
 13518 174b DC000000 		.4byte	.LVL276
 13519 174f ED000000 		.4byte	.LVL279-1
 13520 1753 0100     		.2byte	0x1
 13521 1755 50       		.byte	0x50
ARM GAS  C:\Users\AHMED~1.ELE\AppData\Local\Temp\ccaBET3e.s 			page 283


 13522 1756 ED000000 		.4byte	.LVL279-1
 13523 175a F8000000 		.4byte	.LVL280
 13524 175e 0400     		.2byte	0x4
 13525 1760 91       		.byte	0x91
 13526 1761 E47B     		.sleb128 -540
 13527 1763 9F       		.byte	0x9f
 13528 1764 F8000000 		.4byte	.LVL280
 13529 1768 FF000000 		.4byte	.LVL281-1
 13530 176c 0100     		.2byte	0x1
 13531 176e 50       		.byte	0x50
 13532 176f FF000000 		.4byte	.LVL281-1
 13533 1773 DC010000 		.4byte	.LVL300
 13534 1777 0400     		.2byte	0x4
 13535 1779 91       		.byte	0x91
 13536 177a E47B     		.sleb128 -540
 13537 177c 9F       		.byte	0x9f
 13538 177d DC010000 		.4byte	.LVL300
 13539 1781 E5010000 		.4byte	.LVL302-1
 13540 1785 0100     		.2byte	0x1
 13541 1787 50       		.byte	0x50
 13542 1788 E5010000 		.4byte	.LVL302-1
 13543 178c F0010000 		.4byte	.LVL303
 13544 1790 0400     		.2byte	0x4
 13545 1792 91       		.byte	0x91
 13546 1793 E47B     		.sleb128 -540
 13547 1795 9F       		.byte	0x9f
 13548 1796 F0010000 		.4byte	.LVL303
 13549 179a F7010000 		.4byte	.LVL304-1
 13550 179e 0100     		.2byte	0x1
 13551 17a0 50       		.byte	0x50
 13552 17a1 F7010000 		.4byte	.LVL304-1
 13553 17a5 06020000 		.4byte	.LVL305
 13554 17a9 0400     		.2byte	0x4
 13555 17ab 91       		.byte	0x91
 13556 17ac E47B     		.sleb128 -540
 13557 17ae 9F       		.byte	0x9f
 13558 17af 06020000 		.4byte	.LVL305
 13559 17b3 0F020000 		.4byte	.LVL306-1
 13560 17b7 0100     		.2byte	0x1
 13561 17b9 50       		.byte	0x50
 13562 17ba 0F020000 		.4byte	.LVL306-1
 13563 17be DE020000 		.4byte	.LVL327
 13564 17c2 0400     		.2byte	0x4
 13565 17c4 91       		.byte	0x91
 13566 17c5 E47B     		.sleb128 -540
 13567 17c7 9F       		.byte	0x9f
 13568 17c8 DE020000 		.4byte	.LVL327
 13569 17cc E5020000 		.4byte	.LVL328-1
 13570 17d0 0100     		.2byte	0x1
 13571 17d2 50       		.byte	0x50
 13572 17d3 E5020000 		.4byte	.LVL328-1
 13573 17d7 F0020000 		.4byte	.LVL329
 13574 17db 0400     		.2byte	0x4
 13575 17dd 91       		.byte	0x91
 13576 17de E47B     		.sleb128 -540
 13577 17e0 9F       		.byte	0x9f
 13578 17e1 F0020000 		.4byte	.LVL329
ARM GAS  C:\Users\AHMED~1.ELE\AppData\Local\Temp\ccaBET3e.s 			page 284


 13579 17e5 F7020000 		.4byte	.LVL330-1
 13580 17e9 0100     		.2byte	0x1
 13581 17eb 50       		.byte	0x50
 13582 17ec F7020000 		.4byte	.LVL330-1
 13583 17f0 96050000 		.4byte	.LVL378
 13584 17f4 0400     		.2byte	0x4
 13585 17f6 91       		.byte	0x91
 13586 17f7 E47B     		.sleb128 -540
 13587 17f9 9F       		.byte	0x9f
 13588 17fa 96050000 		.4byte	.LVL378
 13589 17fe A1050000 		.4byte	.LVL379-1
 13590 1802 0100     		.2byte	0x1
 13591 1804 50       		.byte	0x50
 13592 1805 A1050000 		.4byte	.LVL379-1
 13593 1809 E2060000 		.4byte	.LVL409
 13594 180d 0400     		.2byte	0x4
 13595 180f 91       		.byte	0x91
 13596 1810 E47B     		.sleb128 -540
 13597 1812 9F       		.byte	0x9f
 13598 1813 EE060000 		.4byte	.LVL413
 13599 1817 08070000 		.4byte	.LVL416
 13600 181b 0400     		.2byte	0x4
 13601 181d 91       		.byte	0x91
 13602 181e E47B     		.sleb128 -540
 13603 1820 9F       		.byte	0x9f
 13604 1821 00000000 		.4byte	0
 13605 1825 00000000 		.4byte	0
 13606              	.LLST113:
 13607 1829 D6000000 		.4byte	.LVL275
 13608 182d DE000000 		.4byte	.LVL277
 13609 1831 0A00     		.2byte	0xa
 13610 1833 91       		.byte	0x91
 13611 1834 C87C     		.sleb128 -440
 13612 1836 06       		.byte	0x6
 13613 1837 91       		.byte	0x91
 13614 1838 887D     		.sleb128 -376
 13615 183a 06       		.byte	0x6
 13616 183b 22       		.byte	0x22
 13617 183c 9F       		.byte	0x9f
 13618 183d DE000000 		.4byte	.LVL277
 13619 1841 E6000000 		.4byte	.LVL278
 13620 1845 0100     		.2byte	0x1
 13621 1847 51       		.byte	0x51
 13622 1848 E6000000 		.4byte	.LVL278
 13623 184c ED000000 		.4byte	.LVL279-1
 13624 1850 0200     		.2byte	0x2
 13625 1852 70       		.byte	0x70
 13626 1853 00       		.sleb128 0
 13627 1854 00000000 		.4byte	0
 13628 1858 00000000 		.4byte	0
 13629              	.LLST114:
 13630 185c 0A010000 		.4byte	.LVL282
 13631 1860 0E010000 		.4byte	.LVL283
 13632 1864 0100     		.2byte	0x1
 13633 1866 51       		.byte	0x51
 13634 1867 12010000 		.4byte	.LVL284
 13635 186b 20010000 		.4byte	.LVL285
ARM GAS  C:\Users\AHMED~1.ELE\AppData\Local\Temp\ccaBET3e.s 			page 285


 13636 186f 0100     		.2byte	0x1
 13637 1871 51       		.byte	0x51
 13638 1872 20010000 		.4byte	.LVL285
 13639 1876 25010000 		.4byte	.LVL286-1
 13640 187a 0300     		.2byte	0x3
 13641 187c 71       		.byte	0x71
 13642 187d 01       		.sleb128 1
 13643 187e 9F       		.byte	0x9f
 13644 187f 00000000 		.4byte	0
 13645 1883 00000000 		.4byte	0
 13646              	.LLST115:
 13647 1887 0A010000 		.4byte	.LVL282
 13648 188b DC010000 		.4byte	.LVL300
 13649 188f 0400     		.2byte	0x4
 13650 1891 91       		.byte	0x91
 13651 1892 E47B     		.sleb128 -540
 13652 1894 9F       		.byte	0x9f
 13653 1895 DC010000 		.4byte	.LVL300
 13654 1899 E5010000 		.4byte	.LVL302-1
 13655 189d 0100     		.2byte	0x1
 13656 189f 50       		.byte	0x50
 13657 18a0 E5010000 		.4byte	.LVL302-1
 13658 18a4 F0010000 		.4byte	.LVL303
 13659 18a8 0400     		.2byte	0x4
 13660 18aa 91       		.byte	0x91
 13661 18ab E47B     		.sleb128 -540
 13662 18ad 9F       		.byte	0x9f
 13663 18ae F0010000 		.4byte	.LVL303
 13664 18b2 F7010000 		.4byte	.LVL304-1
 13665 18b6 0100     		.2byte	0x1
 13666 18b8 50       		.byte	0x50
 13667 18b9 F7010000 		.4byte	.LVL304-1
 13668 18bd 06020000 		.4byte	.LVL305
 13669 18c1 0400     		.2byte	0x4
 13670 18c3 91       		.byte	0x91
 13671 18c4 E47B     		.sleb128 -540
 13672 18c6 9F       		.byte	0x9f
 13673 18c7 06020000 		.4byte	.LVL305
 13674 18cb 0F020000 		.4byte	.LVL306-1
 13675 18cf 0100     		.2byte	0x1
 13676 18d1 50       		.byte	0x50
 13677 18d2 0F020000 		.4byte	.LVL306-1
 13678 18d6 DE020000 		.4byte	.LVL327
 13679 18da 0400     		.2byte	0x4
 13680 18dc 91       		.byte	0x91
 13681 18dd E47B     		.sleb128 -540
 13682 18df 9F       		.byte	0x9f
 13683 18e0 DE020000 		.4byte	.LVL327
 13684 18e4 E5020000 		.4byte	.LVL328-1
 13685 18e8 0100     		.2byte	0x1
 13686 18ea 50       		.byte	0x50
 13687 18eb E5020000 		.4byte	.LVL328-1
 13688 18ef F0020000 		.4byte	.LVL329
 13689 18f3 0400     		.2byte	0x4
 13690 18f5 91       		.byte	0x91
 13691 18f6 E47B     		.sleb128 -540
 13692 18f8 9F       		.byte	0x9f
ARM GAS  C:\Users\AHMED~1.ELE\AppData\Local\Temp\ccaBET3e.s 			page 286


 13693 18f9 F0020000 		.4byte	.LVL329
 13694 18fd F7020000 		.4byte	.LVL330-1
 13695 1901 0100     		.2byte	0x1
 13696 1903 50       		.byte	0x50
 13697 1904 F7020000 		.4byte	.LVL330-1
 13698 1908 96050000 		.4byte	.LVL378
 13699 190c 0400     		.2byte	0x4
 13700 190e 91       		.byte	0x91
 13701 190f E47B     		.sleb128 -540
 13702 1911 9F       		.byte	0x9f
 13703 1912 96050000 		.4byte	.LVL378
 13704 1916 A1050000 		.4byte	.LVL379-1
 13705 191a 0100     		.2byte	0x1
 13706 191c 50       		.byte	0x50
 13707 191d A1050000 		.4byte	.LVL379-1
 13708 1921 E2060000 		.4byte	.LVL409
 13709 1925 0400     		.2byte	0x4
 13710 1927 91       		.byte	0x91
 13711 1928 E47B     		.sleb128 -540
 13712 192a 9F       		.byte	0x9f
 13713 192b F6060000 		.4byte	.LVL414
 13714 192f 08070000 		.4byte	.LVL416
 13715 1933 0400     		.2byte	0x4
 13716 1935 91       		.byte	0x91
 13717 1936 E47B     		.sleb128 -540
 13718 1938 9F       		.byte	0x9f
 13719 1939 00000000 		.4byte	0
 13720 193d 00000000 		.4byte	0
 13721              	.LLST116:
 13722 1941 D0010000 		.4byte	.LVL298
 13723 1945 DA010000 		.4byte	.LVL299
 13724 1949 0A00     		.2byte	0xa
 13725 194b 91       		.byte	0x91
 13726 194c 807C     		.sleb128 -512
 13727 194e 06       		.byte	0x6
 13728 194f 91       		.byte	0x91
 13729 1950 9C7C     		.sleb128 -484
 13730 1952 06       		.byte	0x6
 13731 1953 22       		.byte	0x22
 13732 1954 9F       		.byte	0x9f
 13733 1955 DA010000 		.4byte	.LVL299
 13734 1959 E2010000 		.4byte	.LVL301
 13735 195d 0100     		.2byte	0x1
 13736 195f 51       		.byte	0x51
 13737 1960 E2010000 		.4byte	.LVL301
 13738 1964 E5010000 		.4byte	.LVL302-1
 13739 1968 0200     		.2byte	0x2
 13740 196a 70       		.byte	0x70
 13741 196b 00       		.sleb128 0
 13742 196c 00000000 		.4byte	0
 13743 1970 00000000 		.4byte	0
 13744              	.LLST117:
 13745 1974 0A010000 		.4byte	.LVL282
 13746 1978 16060000 		.4byte	.LVL394
 13747 197c 0100     		.2byte	0x1
 13748 197e 55       		.byte	0x55
 13749 197f 16060000 		.4byte	.LVL394
ARM GAS  C:\Users\AHMED~1.ELE\AppData\Local\Temp\ccaBET3e.s 			page 287


 13750 1983 1A060000 		.4byte	.LVL395
 13751 1987 0800     		.2byte	0x8
 13752 1989 F3       		.byte	0xf3
 13753 198a 01       		.uleb128 0x1
 13754 198b 50       		.byte	0x50
 13755 198c F3       		.byte	0xf3
 13756 198d 01       		.uleb128 0x1
 13757 198e 51       		.byte	0x51
 13758 198f 22       		.byte	0x22
 13759 1990 9F       		.byte	0x9f
 13760 1991 1A060000 		.4byte	.LVL395
 13761 1995 38060000 		.4byte	.LVL398
 13762 1999 0100     		.2byte	0x1
 13763 199b 55       		.byte	0x55
 13764 199c 38060000 		.4byte	.LVL398
 13765 19a0 E2060000 		.4byte	.LVL409
 13766 19a4 0800     		.2byte	0x8
 13767 19a6 F3       		.byte	0xf3
 13768 19a7 01       		.uleb128 0x1
 13769 19a8 50       		.byte	0x50
 13770 19a9 F3       		.byte	0xf3
 13771 19aa 01       		.uleb128 0x1
 13772 19ab 51       		.byte	0x51
 13773 19ac 22       		.byte	0x22
 13774 19ad 9F       		.byte	0x9f
 13775 19ae F6060000 		.4byte	.LVL414
 13776 19b2 08070000 		.4byte	.LVL416
 13777 19b6 0100     		.2byte	0x1
 13778 19b8 55       		.byte	0x55
 13779 19b9 00000000 		.4byte	0
 13780 19bd 00000000 		.4byte	0
 13781              	.LLST118:
 13782 19c1 42010000 		.4byte	.LVL288
 13783 19c5 94010000 		.4byte	.LVL293
 13784 19c9 0100     		.2byte	0x1
 13785 19cb 56       		.byte	0x56
 13786 19cc 9C010000 		.4byte	.LVL294
 13787 19d0 12020000 		.4byte	.LVL307
 13788 19d4 0100     		.2byte	0x1
 13789 19d6 56       		.byte	0x56
 13790 19d7 16020000 		.4byte	.LVL308
 13791 19db 30020000 		.4byte	.LVL310
 13792 19df 0100     		.2byte	0x1
 13793 19e1 56       		.byte	0x56
 13794 19e2 F6060000 		.4byte	.LVL414
 13795 19e6 FE060000 		.4byte	.LVL415
 13796 19ea 0100     		.2byte	0x1
 13797 19ec 56       		.byte	0x56
 13798 19ed 00000000 		.4byte	0
 13799 19f1 00000000 		.4byte	0
 13800              	.LLST119:
 13801 19f5 2E020000 		.4byte	.LVL309
 13802 19f9 32020000 		.4byte	.LVL311
 13803 19fd 0100     		.2byte	0x1
 13804 19ff 53       		.byte	0x53
 13805 1a00 32020000 		.4byte	.LVL311
 13806 1a04 36020000 		.4byte	.LVL312
ARM GAS  C:\Users\AHMED~1.ELE\AppData\Local\Temp\ccaBET3e.s 			page 288


 13807 1a08 0300     		.2byte	0x3
 13808 1a0a 91       		.byte	0x91
 13809 1a0b D47B     		.sleb128 -556
 13810 1a0d 36020000 		.4byte	.LVL312
 13811 1a11 4B020000 		.4byte	.LVL313-1
 13812 1a15 0100     		.2byte	0x1
 13813 1a17 53       		.byte	0x53
 13814 1a18 4B020000 		.4byte	.LVL313-1
 13815 1a1c E2060000 		.4byte	.LVL409
 13816 1a20 0300     		.2byte	0x3
 13817 1a22 91       		.byte	0x91
 13818 1a23 D47B     		.sleb128 -556
 13819 1a25 FE060000 		.4byte	.LVL415
 13820 1a29 08070000 		.4byte	.LVL416
 13821 1a2d 0300     		.2byte	0x3
 13822 1a2f 91       		.byte	0x91
 13823 1a30 D47B     		.sleb128 -556
 13824 1a32 00000000 		.4byte	0
 13825 1a36 00000000 		.4byte	0
 13826              	.LLST120:
 13827 1a3a 2E020000 		.4byte	.LVL309
 13828 1a3e 32020000 		.4byte	.LVL311
 13829 1a42 0100     		.2byte	0x1
 13830 1a44 5B       		.byte	0x5b
 13831 1a45 36020000 		.4byte	.LVL312
 13832 1a49 8E020000 		.4byte	.LVL320
 13833 1a4d 0100     		.2byte	0x1
 13834 1a4f 5B       		.byte	0x5b
 13835 1a50 00000000 		.4byte	0
 13836 1a54 00000000 		.4byte	0
 13837              	.LLST121:
 13838 1a58 2E020000 		.4byte	.LVL309
 13839 1a5c DE020000 		.4byte	.LVL327
 13840 1a60 0400     		.2byte	0x4
 13841 1a62 91       		.byte	0x91
 13842 1a63 E47B     		.sleb128 -540
 13843 1a65 9F       		.byte	0x9f
 13844 1a66 DE020000 		.4byte	.LVL327
 13845 1a6a E5020000 		.4byte	.LVL328-1
 13846 1a6e 0100     		.2byte	0x1
 13847 1a70 50       		.byte	0x50
 13848 1a71 E5020000 		.4byte	.LVL328-1
 13849 1a75 F0020000 		.4byte	.LVL329
 13850 1a79 0400     		.2byte	0x4
 13851 1a7b 91       		.byte	0x91
 13852 1a7c E47B     		.sleb128 -540
 13853 1a7e 9F       		.byte	0x9f
 13854 1a7f F0020000 		.4byte	.LVL329
 13855 1a83 F7020000 		.4byte	.LVL330-1
 13856 1a87 0100     		.2byte	0x1
 13857 1a89 50       		.byte	0x50
 13858 1a8a F7020000 		.4byte	.LVL330-1
 13859 1a8e 96050000 		.4byte	.LVL378
 13860 1a92 0400     		.2byte	0x4
 13861 1a94 91       		.byte	0x91
 13862 1a95 E47B     		.sleb128 -540
 13863 1a97 9F       		.byte	0x9f
ARM GAS  C:\Users\AHMED~1.ELE\AppData\Local\Temp\ccaBET3e.s 			page 289


 13864 1a98 96050000 		.4byte	.LVL378
 13865 1a9c A1050000 		.4byte	.LVL379-1
 13866 1aa0 0100     		.2byte	0x1
 13867 1aa2 50       		.byte	0x50
 13868 1aa3 A1050000 		.4byte	.LVL379-1
 13869 1aa7 E2060000 		.4byte	.LVL409
 13870 1aab 0400     		.2byte	0x4
 13871 1aad 91       		.byte	0x91
 13872 1aae E47B     		.sleb128 -540
 13873 1ab0 9F       		.byte	0x9f
 13874 1ab1 FE060000 		.4byte	.LVL415
 13875 1ab5 08070000 		.4byte	.LVL416
 13876 1ab9 0400     		.2byte	0x4
 13877 1abb 91       		.byte	0x91
 13878 1abc E47B     		.sleb128 -540
 13879 1abe 9F       		.byte	0x9f
 13880 1abf 00000000 		.4byte	0
 13881 1ac3 00000000 		.4byte	0
 13882              	.LLST122:
 13883 1ac7 5C020000 		.4byte	.LVL314
 13884 1acb 5E020000 		.4byte	.LVL315
 13885 1acf 0800     		.2byte	0x8
 13886 1ad1 73       		.byte	0x73
 13887 1ad2 00       		.sleb128 0
 13888 1ad3 94       		.byte	0x94
 13889 1ad4 01       		.byte	0x1
 13890 1ad5 08       		.byte	0x8
 13891 1ad6 FF       		.byte	0xff
 13892 1ad7 1A       		.byte	0x1a
 13893 1ad8 9F       		.byte	0x9f
 13894 1ad9 5E020000 		.4byte	.LVL315
 13895 1add 64020000 		.4byte	.LVL316
 13896 1ae1 0100     		.2byte	0x1
 13897 1ae3 53       		.byte	0x53
 13898 1ae4 64020000 		.4byte	.LVL316
 13899 1ae8 68020000 		.4byte	.LVL317
 13900 1aec 0800     		.2byte	0x8
 13901 1aee 72       		.byte	0x72
 13902 1aef 7F       		.sleb128 -1
 13903 1af0 94       		.byte	0x94
 13904 1af1 01       		.byte	0x1
 13905 1af2 08       		.byte	0x8
 13906 1af3 FF       		.byte	0xff
 13907 1af4 1A       		.byte	0x1a
 13908 1af5 9F       		.byte	0x9f
 13909 1af6 00000000 		.4byte	0
 13910 1afa 00000000 		.4byte	0
 13911              	.LLST123:
 13912 1afe AC020000 		.4byte	.LVL322
 13913 1b02 CA020000 		.4byte	.LVL324
 13914 1b06 0100     		.2byte	0x1
 13915 1b08 53       		.byte	0x53
 13916 1b09 00000000 		.4byte	0
 13917 1b0d 00000000 		.4byte	0
 13918              	.LLST124:
 13919 1b11 FE020000 		.4byte	.LVL331
 13920 1b15 92050000 		.4byte	.LVL377
ARM GAS  C:\Users\AHMED~1.ELE\AppData\Local\Temp\ccaBET3e.s 			page 290


 13921 1b19 0200     		.2byte	0x2
 13922 1b1b 33       		.byte	0x33
 13923 1b1c 9F       		.byte	0x9f
 13924 1b1d 00000000 		.4byte	0
 13925 1b21 00000000 		.4byte	0
 13926              	.LLST125:
 13927 1b25 FE020000 		.4byte	.LVL331
 13928 1b29 92050000 		.4byte	.LVL377
 13929 1b2d 0100     		.2byte	0x1
 13930 1b2f 54       		.byte	0x54
 13931 1b30 00000000 		.4byte	0
 13932 1b34 00000000 		.4byte	0
 13933              	.LLST126:
 13934 1b38 FE020000 		.4byte	.LVL331
 13935 1b3c 00030000 		.4byte	.LVL332
 13936 1b40 0600     		.2byte	0x6
 13937 1b42 75       		.byte	0x75
 13938 1b43 00       		.sleb128 0
 13939 1b44 71       		.byte	0x71
 13940 1b45 00       		.sleb128 0
 13941 1b46 1C       		.byte	0x1c
 13942 1b47 9F       		.byte	0x9f
 13943 1b48 00030000 		.4byte	.LVL332
 13944 1b4c 0A030000 		.4byte	.LVL334
 13945 1b50 0100     		.2byte	0x1
 13946 1b52 53       		.byte	0x53
 13947 1b53 0A030000 		.4byte	.LVL334
 13948 1b57 10030000 		.4byte	.LVL335
 13949 1b5b 0600     		.2byte	0x6
 13950 1b5d 75       		.byte	0x75
 13951 1b5e 00       		.sleb128 0
 13952 1b5f 71       		.byte	0x71
 13953 1b60 00       		.sleb128 0
 13954 1b61 1C       		.byte	0x1c
 13955 1b62 9F       		.byte	0x9f
 13956 1b63 10030000 		.4byte	.LVL335
 13957 1b67 1D030000 		.4byte	.LVL336-1
 13958 1b6b 0800     		.2byte	0x8
 13959 1b6d 75       		.byte	0x75
 13960 1b6e 00       		.sleb128 0
 13961 1b6f 91       		.byte	0x91
 13962 1b70 E47B     		.sleb128 -540
 13963 1b72 06       		.byte	0x6
 13964 1b73 1C       		.byte	0x1c
 13965 1b74 9F       		.byte	0x9f
 13966 1b75 00000000 		.4byte	0
 13967 1b79 00000000 		.4byte	0
 13968              	.LLST127:
 13969 1b7d FE020000 		.4byte	.LVL331
 13970 1b81 92050000 		.4byte	.LVL377
 13971 1b85 0400     		.2byte	0x4
 13972 1b87 91       		.byte	0x91
 13973 1b88 E47B     		.sleb128 -540
 13974 1b8a 9F       		.byte	0x9f
 13975 1b8b 00000000 		.4byte	0
 13976 1b8f 00000000 		.4byte	0
 13977              	.LLST128:
ARM GAS  C:\Users\AHMED~1.ELE\AppData\Local\Temp\ccaBET3e.s 			page 291


 13978 1b93 08030000 		.4byte	.LVL333
 13979 1b97 92050000 		.4byte	.LVL377
 13980 1b9b 0100     		.2byte	0x1
 13981 1b9d 55       		.byte	0x55
 13982 1b9e 00000000 		.4byte	0
 13983 1ba2 00000000 		.4byte	0
 13984              	.LLST129:
 13985 1ba6 42030000 		.4byte	.LVL338
 13986 1baa 92050000 		.4byte	.LVL377
 13987 1bae 0100     		.2byte	0x1
 13988 1bb0 56       		.byte	0x56
 13989 1bb1 00000000 		.4byte	0
 13990 1bb5 00000000 		.4byte	0
 13991              	.LLST130:
 13992 1bb9 72030000 		.4byte	.LVL340
 13993 1bbd 9C030000 		.4byte	.LVL343
 13994 1bc1 0200     		.2byte	0x2
 13995 1bc3 30       		.byte	0x30
 13996 1bc4 9F       		.byte	0x9f
 13997 1bc5 9C030000 		.4byte	.LVL343
 13998 1bc9 CC030000 		.4byte	.LVL344
 13999 1bcd 0100     		.2byte	0x1
 14000 1bcf 50       		.byte	0x50
 14001 1bd0 CC030000 		.4byte	.LVL344
 14002 1bd4 D3030000 		.4byte	.LVL345-1
 14003 1bd8 0100     		.2byte	0x1
 14004 1bda 5C       		.byte	0x5c
 14005 1bdb D3030000 		.4byte	.LVL345-1
 14006 1bdf 8E050000 		.4byte	.LVL376
 14007 1be3 0300     		.2byte	0x3
 14008 1be5 91       		.byte	0x91
 14009 1be6 D87B     		.sleb128 -552
 14010 1be8 00000000 		.4byte	0
 14011 1bec 00000000 		.4byte	0
 14012              	.LLST131:
 14013 1bf0 A2040000 		.4byte	.LVL357
 14014 1bf4 C4040000 		.4byte	.LVL358
 14015 1bf8 0100     		.2byte	0x1
 14016 1bfa 52       		.byte	0x52
 14017 1bfb 00000000 		.4byte	0
 14018 1bff 00000000 		.4byte	0
 14019              	.LLST132:
 14020 1c03 46040000 		.4byte	.LVL350
 14021 1c07 48040000 		.4byte	.LVL351
 14022 1c0b 0800     		.2byte	0x8
 14023 1c0d 72       		.byte	0x72
 14024 1c0e 00       		.sleb128 0
 14025 1c0f 94       		.byte	0x94
 14026 1c10 01       		.byte	0x1
 14027 1c11 08       		.byte	0x8
 14028 1c12 FF       		.byte	0xff
 14029 1c13 1A       		.byte	0x1a
 14030 1c14 9F       		.byte	0x9f
 14031 1c15 48040000 		.4byte	.LVL351
 14032 1c19 6C040000 		.4byte	.LVL352
 14033 1c1d 0100     		.2byte	0x1
 14034 1c1f 52       		.byte	0x52
ARM GAS  C:\Users\AHMED~1.ELE\AppData\Local\Temp\ccaBET3e.s 			page 292


 14035 1c20 78040000 		.4byte	.LVL354
 14036 1c24 80040000 		.4byte	.LVL355
 14037 1c28 0100     		.2byte	0x1
 14038 1c2a 52       		.byte	0x52
 14039 1c2b 00000000 		.4byte	0
 14040 1c2f 00000000 		.4byte	0
 14041              	.LLST133:
 14042 1c33 14040000 		.4byte	.LVL347
 14043 1c37 80040000 		.4byte	.LVL355
 14044 1c3b 0600     		.2byte	0x6
 14045 1c3d F2       		.byte	0xf2
 14046 1c3e 982B0000 		.4byte	.Ldebug_info0+11160
 14047 1c42 00       		.sleb128 0
 14048 1c43 00000000 		.4byte	0
 14049 1c47 00000000 		.4byte	0
 14050              	.LLST134:
 14051 1c4b 14040000 		.4byte	.LVL347
 14052 1c4f 2C040000 		.4byte	.LVL348
 14053 1c53 0100     		.2byte	0x1
 14054 1c55 51       		.byte	0x51
 14055 1c56 2C040000 		.4byte	.LVL348
 14056 1c5a 31040000 		.4byte	.LVL349-1
 14057 1c5e 0300     		.2byte	0x3
 14058 1c60 91       		.byte	0x91
 14059 1c61 847C     		.sleb128 -508
 14060 1c63 00000000 		.4byte	0
 14061 1c67 00000000 		.4byte	0
 14062              	.LLST135:
 14063 1c6b 14040000 		.4byte	.LVL347
 14064 1c6f 80040000 		.4byte	.LVL355
 14065 1c73 0100     		.2byte	0x1
 14066 1c75 5B       		.byte	0x5b
 14067 1c76 00000000 		.4byte	0
 14068 1c7a 00000000 		.4byte	0
 14069              	.LLST136:
 14070 1c7e F4040000 		.4byte	.LVL360
 14071 1c82 0C050000 		.4byte	.LVL361
 14072 1c86 0200     		.2byte	0x2
 14073 1c88 30       		.byte	0x30
 14074 1c89 9F       		.byte	0x9f
 14075 1c8a 0C050000 		.4byte	.LVL361
 14076 1c8e 18050000 		.4byte	.LVL363
 14077 1c92 0100     		.2byte	0x1
 14078 1c94 53       		.byte	0x53
 14079 1c95 18050000 		.4byte	.LVL363
 14080 1c99 1A050000 		.4byte	.LVL364
 14081 1c9d 0200     		.2byte	0x2
 14082 1c9f 30       		.byte	0x30
 14083 1ca0 9F       		.byte	0x9f
 14084 1ca1 1A050000 		.4byte	.LVL364
 14085 1ca5 22050000 		.4byte	.LVL365
 14086 1ca9 0100     		.2byte	0x1
 14087 1cab 53       		.byte	0x53
 14088 1cac 00000000 		.4byte	0
 14089 1cb0 00000000 		.4byte	0
 14090              	.LLST137:
 14091 1cb4 1A050000 		.4byte	.LVL364
ARM GAS  C:\Users\AHMED~1.ELE\AppData\Local\Temp\ccaBET3e.s 			page 293


 14092 1cb8 22050000 		.4byte	.LVL365
 14093 1cbc 0100     		.2byte	0x1
 14094 1cbe 53       		.byte	0x53
 14095 1cbf 2A050000 		.4byte	.LVL366
 14096 1cc3 32050000 		.4byte	.LVL367
 14097 1cc7 0100     		.2byte	0x1
 14098 1cc9 51       		.byte	0x51
 14099 1cca 3A050000 		.4byte	.LVL368
 14100 1cce 42050000 		.4byte	.LVL369
 14101 1cd2 0100     		.2byte	0x1
 14102 1cd4 52       		.byte	0x52
 14103 1cd5 48050000 		.4byte	.LVL370
 14104 1cd9 4E050000 		.4byte	.LVL371
 14105 1cdd 0100     		.2byte	0x1
 14106 1cdf 53       		.byte	0x53
 14107 1ce0 4E050000 		.4byte	.LVL371
 14108 1ce4 60050000 		.4byte	.LVL372
 14109 1ce8 0800     		.2byte	0x8
 14110 1cea 7C       		.byte	0x7c
 14111 1ceb 00       		.sleb128 0
 14112 1cec 38       		.byte	0x38
 14113 1ced 25       		.byte	0x25
 14114 1cee 72       		.byte	0x72
 14115 1cef 00       		.sleb128 0
 14116 1cf0 21       		.byte	0x21
 14117 1cf1 9F       		.byte	0x9f
 14118 1cf2 60050000 		.4byte	.LVL372
 14119 1cf6 64050000 		.4byte	.LVL373
 14120 1cfa 0100     		.2byte	0x1
 14121 1cfc 53       		.byte	0x53
 14122 1cfd 64050000 		.4byte	.LVL373
 14123 1d01 6A050000 		.4byte	.LVL374
 14124 1d05 0800     		.2byte	0x8
 14125 1d07 7C       		.byte	0x7c
 14126 1d08 00       		.sleb128 0
 14127 1d09 38       		.byte	0x38
 14128 1d0a 25       		.byte	0x25
 14129 1d0b 72       		.byte	0x72
 14130 1d0c 00       		.sleb128 0
 14131 1d0d 21       		.byte	0x21
 14132 1d0e 9F       		.byte	0x9f
 14133 1d0f 00000000 		.4byte	0
 14134 1d13 00000000 		.4byte	0
 14135              	.LLST138:
 14136 1d17 B8050000 		.4byte	.LVL380
 14137 1d1b BC050000 		.4byte	.LVL382
 14138 1d1f 0400     		.2byte	0x4
 14139 1d21 91       		.byte	0x91
 14140 1d22 9C7C     		.sleb128 -484
 14141 1d24 9F       		.byte	0x9f
 14142 1d25 BC050000 		.4byte	.LVL382
 14143 1d29 C1050000 		.4byte	.LVL383-1
 14144 1d2d 0100     		.2byte	0x1
 14145 1d2f 51       		.byte	0x51
 14146 1d30 C1050000 		.4byte	.LVL383-1
 14147 1d34 C8050000 		.4byte	.LVL384
 14148 1d38 0400     		.2byte	0x4
ARM GAS  C:\Users\AHMED~1.ELE\AppData\Local\Temp\ccaBET3e.s 			page 294


 14149 1d3a 91       		.byte	0x91
 14150 1d3b 9C7C     		.sleb128 -484
 14151 1d3d 9F       		.byte	0x9f
 14152 1d3e 00000000 		.4byte	0
 14153 1d42 00000000 		.4byte	0
 14154              	.LLST139:
 14155 1d46 B8050000 		.4byte	.LVL380
 14156 1d4a BA050000 		.4byte	.LVL381
 14157 1d4e 0400     		.2byte	0x4
 14158 1d50 91       		.byte	0x91
 14159 1d51 887C     		.sleb128 -504
 14160 1d53 9F       		.byte	0x9f
 14161 1d54 BA050000 		.4byte	.LVL381
 14162 1d58 C1050000 		.4byte	.LVL383-1
 14163 1d5c 0100     		.2byte	0x1
 14164 1d5e 50       		.byte	0x50
 14165 1d5f C1050000 		.4byte	.LVL383-1
 14166 1d63 C8050000 		.4byte	.LVL384
 14167 1d67 0400     		.2byte	0x4
 14168 1d69 91       		.byte	0x91
 14169 1d6a 887C     		.sleb128 -504
 14170 1d6c 9F       		.byte	0x9f
 14171 1d6d 00000000 		.4byte	0
 14172 1d71 00000000 		.4byte	0
 14173              	.LLST140:
 14174 1d75 12060000 		.4byte	.LVL393
 14175 1d79 E2060000 		.4byte	.LVL409
 14176 1d7d 0600     		.2byte	0x6
 14177 1d7f 03       		.byte	0x3
 14178 1d80 00000000 		.4byte	s_x509_sign
 14179 1d84 9F       		.byte	0x9f
 14180 1d85 00000000 		.4byte	0
 14181 1d89 00000000 		.4byte	0
 14182              	.LLST141:
 14183 1d8d 12060000 		.4byte	.LVL393
 14184 1d91 16060000 		.4byte	.LVL394
 14185 1d95 0100     		.2byte	0x1
 14186 1d97 51       		.byte	0x51
 14187 1d98 1A060000 		.4byte	.LVL395
 14188 1d9c 28060000 		.4byte	.LVL396
 14189 1da0 0100     		.2byte	0x1
 14190 1da2 51       		.byte	0x51
 14191 1da3 28060000 		.4byte	.LVL396
 14192 1da7 2D060000 		.4byte	.LVL397-1
 14193 1dab 0300     		.2byte	0x3
 14194 1dad 71       		.byte	0x71
 14195 1dae 01       		.sleb128 1
 14196 1daf 9F       		.byte	0x9f
 14197 1db0 00000000 		.4byte	0
 14198 1db4 00000000 		.4byte	0
 14199              	.LLST142:
 14200 1db8 12060000 		.4byte	.LVL393
 14201 1dbc E2060000 		.4byte	.LVL409
 14202 1dc0 0400     		.2byte	0x4
 14203 1dc2 91       		.byte	0x91
 14204 1dc3 E47B     		.sleb128 -540
 14205 1dc5 9F       		.byte	0x9f
ARM GAS  C:\Users\AHMED~1.ELE\AppData\Local\Temp\ccaBET3e.s 			page 295


 14206 1dc6 00000000 		.4byte	0
 14207 1dca 00000000 		.4byte	0
 14208              	.LLST143:
 14209 1dce 12060000 		.4byte	.LVL393
 14210 1dd2 16060000 		.4byte	.LVL394
 14211 1dd6 0100     		.2byte	0x1
 14212 1dd8 55       		.byte	0x55
 14213 1dd9 16060000 		.4byte	.LVL394
 14214 1ddd 1A060000 		.4byte	.LVL395
 14215 1de1 0800     		.2byte	0x8
 14216 1de3 F3       		.byte	0xf3
 14217 1de4 01       		.uleb128 0x1
 14218 1de5 50       		.byte	0x50
 14219 1de6 F3       		.byte	0xf3
 14220 1de7 01       		.uleb128 0x1
 14221 1de8 51       		.byte	0x51
 14222 1de9 22       		.byte	0x22
 14223 1dea 9F       		.byte	0x9f
 14224 1deb 1A060000 		.4byte	.LVL395
 14225 1def 38060000 		.4byte	.LVL398
 14226 1df3 0100     		.2byte	0x1
 14227 1df5 55       		.byte	0x55
 14228 1df6 38060000 		.4byte	.LVL398
 14229 1dfa E2060000 		.4byte	.LVL409
 14230 1dfe 0800     		.2byte	0x8
 14231 1e00 F3       		.byte	0xf3
 14232 1e01 01       		.uleb128 0x1
 14233 1e02 50       		.byte	0x50
 14234 1e03 F3       		.byte	0xf3
 14235 1e04 01       		.uleb128 0x1
 14236 1e05 51       		.byte	0x51
 14237 1e06 22       		.byte	0x22
 14238 1e07 9F       		.byte	0x9f
 14239 1e08 00000000 		.4byte	0
 14240 1e0c 00000000 		.4byte	0
 14241              	.LLST144:
 14242 1e10 40060000 		.4byte	.LVL399
 14243 1e14 42060000 		.4byte	.LVL400
 14244 1e18 0800     		.2byte	0x8
 14245 1e1a 72       		.byte	0x72
 14246 1e1b 00       		.sleb128 0
 14247 1e1c 94       		.byte	0x94
 14248 1e1d 01       		.byte	0x1
 14249 1e1e 08       		.byte	0x8
 14250 1e1f FF       		.byte	0xff
 14251 1e20 1A       		.byte	0x1a
 14252 1e21 9F       		.byte	0x9f
 14253 1e22 42060000 		.4byte	.LVL400
 14254 1e26 4C060000 		.4byte	.LVL401
 14255 1e2a 0100     		.2byte	0x1
 14256 1e2c 52       		.byte	0x52
 14257 1e2d 4C060000 		.4byte	.LVL401
 14258 1e31 50060000 		.4byte	.LVL402
 14259 1e35 0800     		.2byte	0x8
 14260 1e37 76       		.byte	0x76
 14261 1e38 7F       		.sleb128 -1
 14262 1e39 94       		.byte	0x94
ARM GAS  C:\Users\AHMED~1.ELE\AppData\Local\Temp\ccaBET3e.s 			page 296


 14263 1e3a 01       		.byte	0x1
 14264 1e3b 08       		.byte	0x8
 14265 1e3c FF       		.byte	0xff
 14266 1e3d 1A       		.byte	0x1a
 14267 1e3e 9F       		.byte	0x9f
 14268 1e3f 00000000 		.4byte	0
 14269 1e43 00000000 		.4byte	0
 14270              	.LLST145:
 14271 1e47 80060000 		.4byte	.LVL405
 14272 1e4b 85060000 		.4byte	.LVL406-1
 14273 1e4f 0100     		.2byte	0x1
 14274 1e51 52       		.byte	0x52
 14275 1e52 00000000 		.4byte	0
 14276 1e56 00000000 		.4byte	0
 14277              	.LLST146:
 14278 1e5a 00000000 		.4byte	.LVL418
 14279 1e5e 18000000 		.4byte	.LVL419
 14280 1e62 0100     		.2byte	0x1
 14281 1e64 50       		.byte	0x50
 14282 1e65 18000000 		.4byte	.LVL419
 14283 1e69 2E000000 		.4byte	.LVL422
 14284 1e6d 0100     		.2byte	0x1
 14285 1e6f 55       		.byte	0x55
 14286 1e70 2E000000 		.4byte	.LVL422
 14287 1e74 31000000 		.4byte	.LVL423-1
 14288 1e78 0100     		.2byte	0x1
 14289 1e7a 50       		.byte	0x50
 14290 1e7b 31000000 		.4byte	.LVL423-1
 14291 1e7f 32000000 		.4byte	.LVL423
 14292 1e83 0400     		.2byte	0x4
 14293 1e85 F3       		.byte	0xf3
 14294 1e86 01       		.uleb128 0x1
 14295 1e87 50       		.byte	0x50
 14296 1e88 9F       		.byte	0x9f
 14297 1e89 32000000 		.4byte	.LVL423
 14298 1e8d 36000000 		.4byte	.LFE30
 14299 1e91 0100     		.2byte	0x1
 14300 1e93 55       		.byte	0x55
 14301 1e94 00000000 		.4byte	0
 14302 1e98 00000000 		.4byte	0
 14303              	.LLST147:
 14304 1e9c 00000000 		.4byte	.LVL418
 14305 1ea0 1C000000 		.4byte	.LVL420
 14306 1ea4 0100     		.2byte	0x1
 14307 1ea6 51       		.byte	0x51
 14308 1ea7 1C000000 		.4byte	.LVL420
 14309 1eab 2E000000 		.4byte	.LVL422
 14310 1eaf 0100     		.2byte	0x1
 14311 1eb1 54       		.byte	0x54
 14312 1eb2 2E000000 		.4byte	.LVL422
 14313 1eb6 31000000 		.4byte	.LVL423-1
 14314 1eba 0400     		.2byte	0x4
 14315 1ebc 71       		.byte	0x71
 14316 1ebd F87A     		.sleb128 -648
 14317 1ebf 9F       		.byte	0x9f
 14318 1ec0 31000000 		.4byte	.LVL423-1
 14319 1ec4 32000000 		.4byte	.LVL423
ARM GAS  C:\Users\AHMED~1.ELE\AppData\Local\Temp\ccaBET3e.s 			page 297


 14320 1ec8 0400     		.2byte	0x4
 14321 1eca F3       		.byte	0xf3
 14322 1ecb 01       		.uleb128 0x1
 14323 1ecc 51       		.byte	0x51
 14324 1ecd 9F       		.byte	0x9f
 14325 1ece 32000000 		.4byte	.LVL423
 14326 1ed2 36000000 		.4byte	.LFE30
 14327 1ed6 0100     		.2byte	0x1
 14328 1ed8 54       		.byte	0x54
 14329 1ed9 00000000 		.4byte	0
 14330 1edd 00000000 		.4byte	0
 14331              		.section	.debug_aranges,"",%progbits
 14332 0000 94000000 		.4byte	0x94
 14333 0004 0200     		.2byte	0x2
 14334 0006 00000000 		.4byte	.Ldebug_info0
 14335 000a 04       		.byte	0x4
 14336 000b 00       		.byte	0
 14337 000c 0000     		.2byte	0
 14338 000e 0000     		.2byte	0
 14339 0010 00000000 		.4byte	.LFB0
 14340 0014 1E000000 		.4byte	.LFE0-.LFB0
 14341 0018 00000000 		.4byte	.LFB2
 14342 001c 5A000000 		.4byte	.LFE2-.LFB2
 14343 0020 00000000 		.4byte	.LFB4
 14344 0024 8A000000 		.4byte	.LFE4-.LFB4
 14345 0028 00000000 		.4byte	.LFB6
 14346 002c 38000000 		.4byte	.LFE6-.LFB6
 14347 0030 00000000 		.4byte	.LFB7
 14348 0034 38000000 		.4byte	.LFE7-.LFB7
 14349 0038 00000000 		.4byte	.LFB10
 14350 003c 46000000 		.4byte	.LFE10-.LFB10
 14351 0040 00000000 		.4byte	.LFB15
 14352 0044 34020000 		.4byte	.LFE15-.LFB15
 14353 0048 00000000 		.4byte	.LFB18
 14354 004c 5C000000 		.4byte	.LFE18-.LFB18
 14355 0050 00000000 		.4byte	.LFB8
 14356 0054 4A010000 		.4byte	.LFE8-.LFB8
 14357 0058 00000000 		.4byte	.LFB22
 14358 005c 8C000000 		.4byte	.LFE22-.LFB22
 14359 0060 00000000 		.4byte	.LFB16
 14360 0064 42000000 		.4byte	.LFE16-.LFB16
 14361 0068 00000000 		.4byte	.LFB37
 14362 006c 38000000 		.4byte	.LFE37-.LFB37
 14363 0070 00000000 		.4byte	.LFB27
 14364 0074 B8010000 		.4byte	.LFE27-.LFB27
 14365 0078 00000000 		.4byte	.LFB29
 14366 007c DC000000 		.4byte	.LFE29-.LFB29
 14367 0080 00000000 		.4byte	.LFB23
 14368 0084 1C070000 		.4byte	.LFE23-.LFB23
 14369 0088 00000000 		.4byte	.LFB30
 14370 008c 36000000 		.4byte	.LFE30-.LFB30
 14371 0090 00000000 		.4byte	0
 14372 0094 00000000 		.4byte	0
 14373              		.section	.debug_ranges,"",%progbits
 14374              	.Ldebug_ranges0:
 14375 0000 4A000000 		.4byte	.LBB12
 14376 0004 6E000000 		.4byte	.LBE12
ARM GAS  C:\Users\AHMED~1.ELE\AppData\Local\Temp\ccaBET3e.s 			page 298


 14377 0008 70000000 		.4byte	.LBB15
 14378 000c 72000000 		.4byte	.LBE15
 14379 0010 00000000 		.4byte	0
 14380 0014 00000000 		.4byte	0
 14381 0018 72000000 		.4byte	.LBB26
 14382 001c 76000000 		.4byte	.LBE26
 14383 0020 7A000000 		.4byte	.LBB29
 14384 0024 2E010000 		.4byte	.LBE29
 14385 0028 00000000 		.4byte	0
 14386 002c 00000000 		.4byte	0
 14387 0030 2E010000 		.4byte	.LBB30
 14388 0034 32010000 		.4byte	.LBE30
 14389 0038 36010000 		.4byte	.LBB33
 14390 003c 48010000 		.4byte	.LBE33
 14391 0040 00000000 		.4byte	0
 14392 0044 00000000 		.4byte	0
 14393 0048 46000000 		.4byte	.LBB44
 14394 004c 60000000 		.4byte	.LBE44
 14395 0050 66000000 		.4byte	.LBB47
 14396 0054 74000000 		.4byte	.LBE47
 14397 0058 00000000 		.4byte	0
 14398 005c 00000000 		.4byte	0
 14399 0060 72000000 		.4byte	.LBB68
 14400 0064 74000000 		.4byte	.LBE68
 14401 0068 76000000 		.4byte	.LBB72
 14402 006c 78000000 		.4byte	.LBE72
 14403 0070 7C000000 		.4byte	.LBB73
 14404 0074 B2000000 		.4byte	.LBE73
 14405 0078 00000000 		.4byte	0
 14406 007c 00000000 		.4byte	0
 14407 0080 B6000000 		.4byte	.LBB74
 14408 0084 BA000000 		.4byte	.LBE74
 14409 0088 BE000000 		.4byte	.LBB79
 14410 008c DA000000 		.4byte	.LBE79
 14411 0090 DC000000 		.4byte	.LBB80
 14412 0094 DE000000 		.4byte	.LBE80
 14413 0098 E0000000 		.4byte	.LBB81
 14414 009c E2000000 		.4byte	.LBE81
 14415 00a0 00000000 		.4byte	0
 14416 00a4 00000000 		.4byte	0
 14417 00a8 0A010000 		.4byte	.LBB82
 14418 00ac 0E010000 		.4byte	.LBE82
 14419 00b0 12010000 		.4byte	.LBB87
 14420 00b4 D4010000 		.4byte	.LBE87
 14421 00b8 D8010000 		.4byte	.LBB88
 14422 00bc DA010000 		.4byte	.LBE88
 14423 00c0 DC010000 		.4byte	.LBB89
 14424 00c4 DE010000 		.4byte	.LBE89
 14425 00c8 00000000 		.4byte	0
 14426 00cc 00000000 		.4byte	0
 14427 00d0 28020000 		.4byte	.LBB90
 14428 00d4 2C020000 		.4byte	.LBE90
 14429 00d8 2E020000 		.4byte	.LBB94
 14430 00dc 32020000 		.4byte	.LBE94
 14431 00e0 36020000 		.4byte	.LBB95
 14432 00e4 C8020000 		.4byte	.LBE95
 14433 00e8 00000000 		.4byte	0
ARM GAS  C:\Users\AHMED~1.ELE\AppData\Local\Temp\ccaBET3e.s 			page 299


 14434 00ec 00000000 		.4byte	0
 14435 00f0 F4040000 		.4byte	.LBB100
 14436 00f4 22050000 		.4byte	.LBE100
 14437 00f8 24050000 		.4byte	.LBB109
 14438 00fc 32050000 		.4byte	.LBE109
 14439 0100 34050000 		.4byte	.LBB110
 14440 0104 6A050000 		.4byte	.LBE110
 14441 0108 00000000 		.4byte	0
 14442 010c 00000000 		.4byte	0
 14443 0110 1A050000 		.4byte	.LBB101
 14444 0114 22050000 		.4byte	.LBE101
 14445 0118 24050000 		.4byte	.LBB106
 14446 011c 32050000 		.4byte	.LBE106
 14447 0120 34050000 		.4byte	.LBB107
 14448 0124 4E050000 		.4byte	.LBE107
 14449 0128 5C050000 		.4byte	.LBB108
 14450 012c 60050000 		.4byte	.LBE108
 14451 0130 00000000 		.4byte	0
 14452 0134 00000000 		.4byte	0
 14453 0138 12060000 		.4byte	.LBB113
 14454 013c 16060000 		.4byte	.LBE113
 14455 0140 1A060000 		.4byte	.LBB118
 14456 0144 5E060000 		.4byte	.LBE118
 14457 0148 60060000 		.4byte	.LBB120
 14458 014c 62060000 		.4byte	.LBE120
 14459 0150 7A060000 		.4byte	.LBB122
 14460 0154 7C060000 		.4byte	.LBE122
 14461 0158 00000000 		.4byte	0
 14462 015c 00000000 		.4byte	0
 14463 0160 5E060000 		.4byte	.LBB119
 14464 0164 60060000 		.4byte	.LBE119
 14465 0168 62060000 		.4byte	.LBB121
 14466 016c 7A060000 		.4byte	.LBE121
 14467 0170 7C060000 		.4byte	.LBB123
 14468 0174 86060000 		.4byte	.LBE123
 14469 0178 00000000 		.4byte	0
 14470 017c 00000000 		.4byte	0
 14471 0180 00000000 		.4byte	.LFB0
 14472 0184 1E000000 		.4byte	.LFE0
 14473 0188 00000000 		.4byte	.LFB2
 14474 018c 5A000000 		.4byte	.LFE2
 14475 0190 00000000 		.4byte	.LFB4
 14476 0194 8A000000 		.4byte	.LFE4
 14477 0198 00000000 		.4byte	.LFB6
 14478 019c 38000000 		.4byte	.LFE6
 14479 01a0 00000000 		.4byte	.LFB7
 14480 01a4 38000000 		.4byte	.LFE7
 14481 01a8 00000000 		.4byte	.LFB10
 14482 01ac 46000000 		.4byte	.LFE10
 14483 01b0 00000000 		.4byte	.LFB15
 14484 01b4 34020000 		.4byte	.LFE15
 14485 01b8 00000000 		.4byte	.LFB18
 14486 01bc 5C000000 		.4byte	.LFE18
 14487 01c0 00000000 		.4byte	.LFB8
 14488 01c4 4A010000 		.4byte	.LFE8
 14489 01c8 00000000 		.4byte	.LFB22
 14490 01cc 8C000000 		.4byte	.LFE22
ARM GAS  C:\Users\AHMED~1.ELE\AppData\Local\Temp\ccaBET3e.s 			page 300


 14491 01d0 00000000 		.4byte	.LFB16
 14492 01d4 42000000 		.4byte	.LFE16
 14493 01d8 00000000 		.4byte	.LFB37
 14494 01dc 38000000 		.4byte	.LFE37
 14495 01e0 00000000 		.4byte	.LFB27
 14496 01e4 B8010000 		.4byte	.LFE27
 14497 01e8 00000000 		.4byte	.LFB29
 14498 01ec DC000000 		.4byte	.LFE29
 14499 01f0 00000000 		.4byte	.LFB23
 14500 01f4 1C070000 		.4byte	.LFE23
 14501 01f8 00000000 		.4byte	.LFB30
 14502 01fc 36000000 		.4byte	.LFE30
 14503 0200 00000000 		.4byte	0
 14504 0204 00000000 		.4byte	0
 14505              		.section	.debug_line,"",%progbits
 14506              	.Ldebug_line0:
 14507 0000 A9060000 		.section	.debug_str,"MS",%progbits,1
 14507      0200E600 
 14507      00000201 
 14507      FB0E0D00 
 14507      01010101 
 14508              	.LASF351:
 14509 0000 4F535F46 		.ascii	"OS_FN_CLICC_LED_OPEN\000"
 14509      4E5F434C 
 14509      4943435F 
 14509      4C45445F 
 14509      4F50454E 
 14510              	.LASF364:
 14511 0015 4F535F46 		.ascii	"OS_FN_DRIVER_REGISTER\000"
 14511      4E5F4452 
 14511      49564552 
 14511      5F524547 
 14511      49535445 
 14512              	.LASF10:
 14513 002b 63686172 		.ascii	"char\000"
 14513      00
 14514              	.LASF339:
 14515 0030 4F535F46 		.ascii	"OS_FN_CODEC_CLOSE\000"
 14515      4E5F434F 
 14515      4445435F 
 14515      434C4F53 
 14515      4500
 14516              	.LASF451:
 14517 0042 4F535F46 		.ascii	"OS_FN_GET_CALLID\000"
 14517      4E5F4745 
 14517      545F4341 
 14517      4C4C4944 
 14517      00
 14518              	.LASF641:
 14519 0053 6D6F6442 		.ascii	"modBits\000"
 14519      69747300 
 14520              	.LASF217:
 14521 005b 4F535F46 		.ascii	"OS_FN_FILE_INIT_SEARCH\000"
 14521      4E5F4649 
 14521      4C455F49 
 14521      4E49545F 
 14521      53454152 
ARM GAS  C:\Users\AHMED~1.ELE\AppData\Local\Temp\ccaBET3e.s 			page 301


 14522              	.LASF28:
 14523 0072 735F626C 		.ascii	"s_block\000"
 14523      6F636B00 
 14524              	.LASF11:
 14525 007a 73697A65 		.ascii	"size_t\000"
 14525      5F7400
 14526              	.LASF197:
 14527 0081 4F535F46 		.ascii	"OS_FN_FILE_SEEK\000"
 14527      4E5F4649 
 14527      4C455F53 
 14527      45454B00 
 14528              	.LASF39:
 14529 0091 545F4B45 		.ascii	"T_KEY\000"
 14529      5900
 14530              	.LASF9:
 14531 0097 73697A65 		.ascii	"sizetype\000"
 14531      74797065 
 14531      00
 14532              	.LASF438:
 14533 00a0 4F535F46 		.ascii	"OS_FN_NFC_IC_REG_DIRECT_WRITE\000"
 14533      4E5F4E46 
 14533      435F4943 
 14533      5F524547 
 14533      5F444952 
 14534              	.LASF189:
 14535 00be 4F535F46 		.ascii	"OS_FN_FILE_CREATE_OWNER\000"
 14535      4E5F4649 
 14535      4C455F43 
 14535      52454154 
 14535      455F4F57 
 14536              	.LASF524:
 14537 00d6 775F6B65 		.ascii	"w_key_usage\000"
 14537      795F7573 
 14537      61676500 
 14538              	.LASF327:
 14539 00e2 4F535F46 		.ascii	"OS_FN_GPRS_SMS_SEND\000"
 14539      4E5F4750 
 14539      52535F53 
 14539      4D535F53 
 14539      454E4400 
 14540              	.LASF665:
 14541 00f6 7075624B 		.ascii	"pubKeyLen\000"
 14541      65794C65 
 14541      6E00
 14542              	.LASF554:
 14543 0100 705F6374 		.ascii	"p_ctx\000"
 14543      7800
 14544              	.LASF645:
 14545 0106 7A427974 		.ascii	"zBytes\000"
 14545      657300
 14546              	.LASF356:
 14547 010d 4F535F46 		.ascii	"OS_FN_CLICC_LED_ON\000"
 14547      4E5F434C 
 14547      4943435F 
 14547      4C45445F 
 14547      4F4E00
 14548              	.LASF363:
ARM GAS  C:\Users\AHMED~1.ELE\AppData\Local\Temp\ccaBET3e.s 			page 302


 14549 0120 4F535F46 		.ascii	"OS_FN_USBHOST_DEVICEMAP\000"
 14549      4E5F5553 
 14549      42484F53 
 14549      545F4445 
 14549      56494345 
 14550              	.LASF372:
 14551 0138 4F535F46 		.ascii	"OS_FN_DEVICE_SEARCH_NEXT\000"
 14551      4E5F4445 
 14551      56494345 
 14551      5F534541 
 14551      5243485F 
 14552              	.LASF481:
 14553 0151 4F535F46 		.ascii	"OS_FN_GCM_AES_OPEN\000"
 14553      4E5F4743 
 14553      4D5F4145 
 14553      535F4F50 
 14553      454E00
 14554              	.LASF105:
 14555 0164 4F535F46 		.ascii	"OS_FN_COM3_SREAD\000"
 14555      4E5F434F 
 14555      4D335F53 
 14555      52454144 
 14555      00
 14556              	.LASF193:
 14557 0175 4F535F46 		.ascii	"OS_FN_FILE_EXIST\000"
 14557      4E5F4649 
 14557      4C455F45 
 14557      58495354 
 14557      00
 14558              	.LASF503:
 14559 0186 4F535F46 		.ascii	"OS_FN_IMG_SENSOR_LED_OPEN\000"
 14559      4E5F494D 
 14559      475F5345 
 14559      4E534F52 
 14559      5F4C4544 
 14560              	.LASF142:
 14561 01a0 4F535F46 		.ascii	"OS_FN_SM4_DECRYPT\000"
 14561      4E5F534D 
 14561      345F4445 
 14561      43525950 
 14561      5400
 14562              	.LASF18:
 14563 01b2 735F6275 		.ascii	"s_buffer\000"
 14563      66666572 
 14563      00
 14564              	.LASF511:
 14565 01bb 4F535F46 		.ascii	"OS_FN_GPS_GET_DETAIL_INFO\000"
 14565      4E5F4750 
 14565      535F4745 
 14565      545F4445 
 14565      5441494C 
 14566              	.LASF323:
 14567 01d5 4F535F46 		.ascii	"OS_FN_GPRS_GET_CID\000"
 14567      4E5F4750 
 14567      52535F47 
 14567      45545F43 
 14567      494400
ARM GAS  C:\Users\AHMED~1.ELE\AppData\Local\Temp\ccaBET3e.s 			page 303


 14568              	.LASF392:
 14569 01e8 4F535F46 		.ascii	"OS_FN_TAMPER_RESET_STATUS\000"
 14569      4E5F5441 
 14569      4D504552 
 14569      5F524553 
 14569      45545F53 
 14570              	.LASF613:
 14571 0202 6269744C 		.ascii	"bitLen\000"
 14571      656E00
 14572              	.LASF465:
 14573 0209 4F535F46 		.ascii	"OS_FN_POWER\000"
 14573      4E5F504F 
 14573      57455200 
 14574              	.LASF420:
 14575 0215 4F535F46 		.ascii	"OS_FN_BARCODE_SCAN\000"
 14575      4E5F4241 
 14575      52434F44 
 14575      455F5343 
 14575      414E00
 14576              	.LASF313:
 14577 0228 4F535F46 		.ascii	"OS_FN_ADC_CH_DISABLE\000"
 14577      4E5F4144 
 14577      435F4348 
 14577      5F444953 
 14577      41424C45 
 14578              	.LASF239:
 14579 023d 4F535F46 		.ascii	"OS_FN_MMC_SIZE\000"
 14579      4E5F4D4D 
 14579      435F5349 
 14579      5A4500
 14580              	.LASF206:
 14581 024c 4F535F46 		.ascii	"OS_FN_FILE_DSEARCH_ALL\000"
 14581      4E5F4649 
 14581      4C455F44 
 14581      53454152 
 14581      43485F41 
 14582              	.LASF460:
 14583 0263 4F535F46 		.ascii	"OS_FN_DMK_KVC_READ\000"
 14583      4E5F444D 
 14583      4B5F4B56 
 14583      435F5245 
 14583      414400
 14584              	.LASF52:
 14585 0276 4F535F46 		.ascii	"OS_FN_TIMER_SET\000"
 14585      4E5F5449 
 14585      4D45525F 
 14585      53455400 
 14586              	.LASF529:
 14587 0286 735F6973 		.ascii	"s_issuer_dn_mac\000"
 14587      73756572 
 14587      5F646E5F 
 14587      6D616300 
 14588              	.LASF487:
 14589 0296 4F535F46 		.ascii	"OS_FN_SYS_THREAD_CREATE\000"
 14589      4E5F5359 
 14589      535F5448 
 14589      52454144 
ARM GAS  C:\Users\AHMED~1.ELE\AppData\Local\Temp\ccaBET3e.s 			page 304


 14589      5F435245 
 14590              	.LASF170:
 14591 02ae 4F535F46 		.ascii	"OS_FN_BUFMAN_FREE\000"
 14591      4E5F4255 
 14591      464D414E 
 14591      5F465245 
 14591      4500
 14592              	.LASF318:
 14593 02c0 4F535F46 		.ascii	"OS_FN_GPRS_AT_RESP\000"
 14593      4E5F4750 
 14593      52535F41 
 14593      545F5245 
 14593      535000
 14594              	.LASF550:
 14595 02d3 545F4841 		.ascii	"T_HASH_OPS_CTX\000"
 14595      53485F4F 
 14595      50535F43 
 14595      545800
 14596              	.LASF501:
 14597 02e2 4F535F46 		.ascii	"OS_FN_GPRS_IS_HL6RD_OLD_FRM\000"
 14597      4E5F4750 
 14597      52535F49 
 14597      535F484C 
 14597      3652445F 
 14598              	.LASF302:
 14599 02fe 4F535F46 		.ascii	"OS_FN_MCOM_TXRDY\000"
 14599      4E5F4D43 
 14599      4F4D5F54 
 14599      58524459 
 14599      00
 14600              	.LASF246:
 14601 030f 4F535F46 		.ascii	"OS_FN_SLE_OPEN\000"
 14601      4E5F534C 
 14601      455F4F50 
 14601      454E00
 14602              	.LASF73:
 14603 031e 4F535F46 		.ascii	"OS_FN_DISP_BRIGHTNESS\000"
 14603      4E5F4449 
 14603      53505F42 
 14603      52494748 
 14603      544E4553 
 14604              	.LASF329:
 14605 0334 4F535F46 		.ascii	"OS_FN_GPRS_SMS_READ\000"
 14605      4E5F4750 
 14605      52535F53 
 14605      4D535F52 
 14605      45414400 
 14606              	.LASF320:
 14607 0348 4F535F46 		.ascii	"OS_FN_GPRS_READ\000"
 14607      4E5F4750 
 14607      52535F52 
 14607      45414400 
 14608              	.LASF516:
 14609 0358 55534246 		.ascii	"USBFPRT_GENERAL_INFO_IMG_BPP\000"
 14609      5052545F 
 14609      47454E45 
 14609      52414C5F 
ARM GAS  C:\Users\AHMED~1.ELE\AppData\Local\Temp\ccaBET3e.s 			page 305


 14609      494E464F 
 14610              	.LASF638:
 14611 0375 656D4C65 		.ascii	"emLen\000"
 14611      6E00
 14612              	.LASF213:
 14613 037b 4F535F46 		.ascii	"OS_FN_FILE_GET_FREE_SPACE\000"
 14613      4E5F4649 
 14613      4C455F47 
 14613      45545F46 
 14613      5245455F 
 14614              	.LASF153:
 14615 0395 4F535F46 		.ascii	"OS_FN_KEY_SAVE_NC\000"
 14615      4E5F4B45 
 14615      595F5341 
 14615      56455F4E 
 14615      4300
 14616              	.LASF492:
 14617 03a7 4F535F46 		.ascii	"OS_FN_WIFI_SOCKET_SEND_UDP\000"
 14617      4E5F5749 
 14617      46495F53 
 14617      4F434B45 
 14617      545F5345 
 14618              	.LASF463:
 14619 03c2 4F535F46 		.ascii	"OS_FN_RMB_CONTROL\000"
 14619      4E5F524D 
 14619      425F434F 
 14619      4E54524F 
 14619      4C00
 14620              	.LASF133:
 14621 03d4 4F535F46 		.ascii	"OS_FN_SM2_GET_SIGNATURE\000"
 14621      4E5F534D 
 14621      325F4745 
 14621      545F5349 
 14621      474E4154 
 14622              	.LASF99:
 14623 03ec 4F535F46 		.ascii	"OS_FN_COM3_CLOSE\000"
 14623      4E5F434F 
 14623      4D335F43 
 14623      4C4F5345 
 14623      00
 14624              	.LASF89:
 14625 03fd 4F535F46 		.ascii	"OS_FN_COM2_OPEN\000"
 14625      4E5F434F 
 14625      4D325F4F 
 14625      50454E00 
 14626              	.LASF362:
 14627 040d 4F535F46 		.ascii	"OS_FN_USBHOST_DEVINFO\000"
 14627      4E5F5553 
 14627      42484F53 
 14627      545F4445 
 14627      56494E46 
 14628              	.LASF259:
 14629 0423 4F535F46 		.ascii	"OS_FN_MSR_RXLEN\000"
 14629      4E5F4D53 
 14629      525F5258 
 14629      4C454E00 
 14630              	.LASF19:
ARM GAS  C:\Users\AHMED~1.ELE\AppData\Local\Temp\ccaBET3e.s 			page 306


 14631 0433 545F4D44 		.ascii	"T_MD5_CONTEXT\000"
 14631      355F434F 
 14631      4E544558 
 14631      5400
 14632              	.LASF118:
 14633 0441 4F535F46 		.ascii	"OS_FN_AES_ENCRYPT_BLOCK\000"
 14633      4E5F4145 
 14633      535F454E 
 14633      43525950 
 14633      545F424C 
 14634              	.LASF203:
 14635 0459 4F535F46 		.ascii	"OS_FN_FILE_END\000"
 14635      4E5F4649 
 14635      4C455F45 
 14635      4E4400
 14636              	.LASF230:
 14637 0468 4F535F46 		.ascii	"OS_FN_SAM_SELECT\000"
 14637      4E5F5341 
 14637      4D5F5345 
 14637      4C454354 
 14637      00
 14638              	.LASF447:
 14639 0479 4F535F46 		.ascii	"OS_FN_GPS_ENABLED\000"
 14639      4E5F4750 
 14639      535F454E 
 14639      41424C45 
 14639      4400
 14640              	.LASF625:
 14641 048b 615F6B65 		.ascii	"a_keylen\000"
 14641      796C656E 
 14641      00
 14642              	.LASF557:
 14643 0494 66696E69 		.ascii	"finish\000"
 14643      736800
 14644              	.LASF677:
 14645 049b 63657274 		.ascii	"certVersion\000"
 14645      56657273 
 14645      696F6E00 
 14646              	.LASF228:
 14647 04a7 4F535F46 		.ascii	"OS_FN_SAM_OPEN\000"
 14647      4E5F5341 
 14647      4D5F4F50 
 14647      454E00
 14648              	.LASF564:
 14649 04b6 746D704C 		.ascii	"tmpLen\000"
 14649      656E00
 14650              	.LASF126:
 14651 04bd 4F535F46 		.ascii	"OS_FN_SHA_FINISH\000"
 14651      4E5F5348 
 14651      415F4649 
 14651      4E495348 
 14651      00
 14652              	.LASF407:
 14653 04ce 4F535F46 		.ascii	"OS_FN_MIF_INC\000"
 14653      4E5F4D49 
 14653      465F494E 
 14653      4300
ARM GAS  C:\Users\AHMED~1.ELE\AppData\Local\Temp\ccaBET3e.s 			page 307


 14654              	.LASF634:
 14655 04dc 78353039 		.ascii	"x509_select_hashops\000"
 14655      5F73656C 
 14655      6563745F 
 14655      68617368 
 14655      6F707300 
 14656              	.LASF209:
 14657 04f0 4F535F46 		.ascii	"OS_FN_FILE_GET_NAME\000"
 14657      4E5F4649 
 14657      4C455F47 
 14657      45545F4E 
 14657      414D4500 
 14658              	.LASF586:
 14659 0504 78353039 		.ascii	"x509_check_leading_zeros\000"
 14659      5F636865 
 14659      636B5F6C 
 14659      65616469 
 14659      6E675F7A 
 14660              	.LASF101:
 14661 051d 4F535F46 		.ascii	"OS_FN_COM3_TXRDY\000"
 14661      4E5F434F 
 14661      4D335F54 
 14661      58524459 
 14661      00
 14662              	.LASF680:
 14663 052e 73696741 		.ascii	"sigAlgorithm\000"
 14663      6C676F72 
 14663      6974686D 
 14663      00
 14664              	.LASF134:
 14665 053b 4F535F46 		.ascii	"OS_FN_SM2_VERIFY_SIGNATURE\000"
 14665      4E5F534D 
 14665      325F5645 
 14665      52494659 
 14665      5F534947 
 14666              	.LASF570:
 14667 0556 615F696E 		.ascii	"a_inTime\000"
 14667      54696D65 
 14667      00
 14668              	.LASF119:
 14669 055f 4F535F46 		.ascii	"OS_FN_AES_DECRYPT_BLOCK\000"
 14669      4E5F4145 
 14669      535F4445 
 14669      43525950 
 14669      545F424C 
 14670              	.LASF145:
 14671 0577 4F535F46 		.ascii	"OS_FN_KEY_DES\000"
 14671      4E5F4B45 
 14671      595F4445 
 14671      5300
 14672              	.LASF602:
 14673 0585 78353039 		.ascii	"x509_get_asn_length\000"
 14673      5F676574 
 14673      5F61736E 
 14673      5F6C656E 
 14673      67746800 
 14674              	.LASF13:
ARM GAS  C:\Users\AHMED~1.ELE\AppData\Local\Temp\ccaBET3e.s 			page 308


 14675 0599 42595445 		.ascii	"BYTE\000"
 14675      00
 14676              	.LASF430:
 14677 059e 4F535F46 		.ascii	"OS_FN_WIFI_PROFILES_WRITE\000"
 14677      4E5F5749 
 14677      46495F50 
 14677      524F4649 
 14677      4C45535F 
 14678              	.LASF596:
 14679 05b8 705F6861 		.ascii	"p_hash_ops\000"
 14679      73685F6F 
 14679      707300
 14680              	.LASF143:
 14681 05c3 4F535F46 		.ascii	"OS_FN_KEY_SAVE\000"
 14681      4E5F4B45 
 14681      595F5341 
 14681      564500
 14682              	.LASF116:
 14683 05d2 4F535F46 		.ascii	"OS_FN_RSA_PRIVATE\000"
 14683      4E5F5253 
 14683      415F5052 
 14683      49564154 
 14683      4500
 14684              	.LASF684:
 14685 05e4 68617368 		.ascii	"hash_digest\000"
 14685      5F646967 
 14685      65737400 
 14686              	.LASF278:
 14687 05f0 4F535F46 		.ascii	"OS_FN_FL_PGM\000"
 14687      4E5F464C 
 14687      5F50474D 
 14687      00
 14688              	.LASF220:
 14689 05fd 4F535F46 		.ascii	"OS_FN_FILE_RMDIR\000"
 14689      4E5F4649 
 14689      4C455F52 
 14689      4D444952 
 14689      00
 14690              	.LASF176:
 14691 060e 4F535F46 		.ascii	"OS_FN_LED_SET\000"
 14691      4E5F4C45 
 14691      445F5345 
 14691      5400
 14692              	.LASF466:
 14693 061c 4F535F46 		.ascii	"OS_FN_CLICC_DEBUG\000"
 14693      4E5F434C 
 14693      4943435F 
 14693      44454255 
 14693      4700
 14694              	.LASF568:
 14695 062e 615F7469 		.ascii	"a_timeFormat\000"
 14695      6D65466F 
 14695      726D6174 
 14695      00
 14696              	.LASF409:
 14697 063b 4F535F46 		.ascii	"OS_FN_MIF_RESTORE\000"
 14697      4E5F4D49 
ARM GAS  C:\Users\AHMED~1.ELE\AppData\Local\Temp\ccaBET3e.s 			page 309


 14697      465F5245 
 14697      53544F52 
 14697      4500
 14698              	.LASF587:
 14699 064d 62697473 		.ascii	"bits\000"
 14699      00
 14700              	.LASF304:
 14701 0652 4F535F46 		.ascii	"OS_FN_MCOM_SSEND\000"
 14701      4E5F4D43 
 14701      4F4D5F53 
 14701      53454E44 
 14701      00
 14702              	.LASF366:
 14703 0663 4F535F46 		.ascii	"OS_FN_DEVICE_ALLOC\000"
 14703      4E5F4445 
 14703      56494345 
 14703      5F414C4C 
 14703      4F4300
 14704              	.LASF633:
 14705 0676 73686131 		.ascii	"sha1_ctx\000"
 14705      5F637478 
 14705      00
 14706              	.LASF477:
 14707 067f 4F535F46 		.ascii	"OS_FN_FPRT_INFO_GET\000"
 14707      4E5F4650 
 14707      52545F49 
 14707      4E464F5F 
 14707      47455400 
 14708              	.LASF222:
 14709 0693 4F535F46 		.ascii	"OS_FN_FILE_SYNC\000"
 14709      4E5F4649 
 14709      4C455F53 
 14709      594E4300 
 14710              	.LASF473:
 14711 06a3 4F535F46 		.ascii	"OS_FN_FPRT_OPEN\000"
 14711      4E5F4650 
 14711      52545F4F 
 14711      50454E00 
 14712              	.LASF260:
 14713 06b3 4F535F46 		.ascii	"OS_FN_MSR_GETC\000"
 14713      4E5F4D53 
 14713      525F4745 
 14713      544300
 14714              	.LASF104:
 14715 06c2 4F535F46 		.ascii	"OS_FN_COM3_STATUS\000"
 14715      4E5F434F 
 14715      4D335F53 
 14715      54415455 
 14715      5300
 14716              	.LASF311:
 14717 06d4 4F535F46 		.ascii	"OS_FN_BATT_CHARGE_MODE\000"
 14717      4E5F4241 
 14717      54545F43 
 14717      48415247 
 14717      455F4D4F 
 14718              	.LASF415:
 14719 06eb 4F535F46 		.ascii	"OS_FN_MIF_INFO_SET\000"
ARM GAS  C:\Users\AHMED~1.ELE\AppData\Local\Temp\ccaBET3e.s 			page 310


 14719      4E5F4D49 
 14719      465F494E 
 14719      464F5F53 
 14719      455400
 14720              	.LASF380:
 14721 06fe 4F535F46 		.ascii	"OS_FN_USBOTG_GET_STATE\000"
 14721      4E5F5553 
 14721      424F5447 
 14721      5F474554 
 14721      5F535441 
 14722              	.LASF5:
 14723 0715 6C6F6E67 		.ascii	"long int\000"
 14723      20696E74 
 14723      00
 14724              	.LASF225:
 14725 071e 4F535F46 		.ascii	"OS_FN_CONFIG_READ\000"
 14725      4E5F434F 
 14725      4E464947 
 14725      5F524541 
 14725      4400
 14726              	.LASF17:
 14727 0730 735F7374 		.ascii	"s_state\000"
 14727      61746500 
 14728              	.LASF540:
 14729 0738 455F4861 		.ascii	"E_HashOps_AlgoId_sha384\000"
 14729      73684F70 
 14729      735F416C 
 14729      676F4964 
 14729      5F736861 
 14730              	.LASF627:
 14731 0750 615F7365 		.ascii	"a_setlen\000"
 14731      746C656E 
 14731      00
 14732              	.LASF635:
 14733 0759 615F6861 		.ascii	"a_hash_ops\000"
 14733      73685F6F 
 14733      707300
 14734              	.LASF169:
 14735 0764 4F535F46 		.ascii	"OS_FN_BUFMAN_ALLOC\000"
 14735      4E5F4255 
 14735      464D414E 
 14735      5F414C4C 
 14735      4F4300
 14736              	.LASF80:
 14737 0777 4F535F46 		.ascii	"OS_FN_COM1_OPEN\000"
 14737      4E5F434F 
 14737      4D315F4F 
 14737      50454E00 
 14738              	.LASF324:
 14739 0787 4F535F46 		.ascii	"OS_FN_GPRS_READ_USSD\000"
 14739      4E5F4750 
 14739      52535F52 
 14739      4541445F 
 14739      55535344 
 14740              	.LASF135:
 14741 079c 4F535F46 		.ascii	"OS_FN_SM2_ENCRYPT\000"
 14741      4E5F534D 
ARM GAS  C:\Users\AHMED~1.ELE\AppData\Local\Temp\ccaBET3e.s 			page 311


 14741      325F454E 
 14741      43525950 
 14741      5400
 14742              	.LASF690:
 14743 07ae 78353039 		.ascii	"x509_verify_cert_by_key\000"
 14743      5F766572 
 14743      6966795F 
 14743      63657274 
 14743      5F62795F 
 14744              	.LASF423:
 14745 07c6 4F535F46 		.ascii	"OS_FN_BARCODE_STATUS\000"
 14745      4E5F4241 
 14745      52434F44 
 14745      455F5354 
 14745      41545553 
 14746              	.LASF16:
 14747 07db 735F746F 		.ascii	"s_total\000"
 14747      74616C00 
 14748              	.LASF484:
 14749 07e3 4F535F46 		.ascii	"OS_FN_GCM_AES_PROCESS\000"
 14749      4E5F4743 
 14749      4D5F4145 
 14749      535F5052 
 14749      4F434553 
 14750              	.LASF368:
 14751 07f9 4F535F46 		.ascii	"OS_FN_DEVICE_UNREGISTER\000"
 14751      4E5F4445 
 14751      56494345 
 14751      5F554E52 
 14751      45474953 
 14752              	.LASF36:
 14753 0811 645F6B65 		.ascii	"d_keysize\000"
 14753      7973697A 
 14753      6500
 14754              	.LASF132:
 14755 081b 4F535F46 		.ascii	"OS_FN_SM2_FREE_CURVE\000"
 14755      4E5F534D 
 14755      325F4652 
 14755      45455F43 
 14755      55525645 
 14756              	.LASF509:
 14757 0830 4F535F46 		.ascii	"OS_FN_BATT_LEVEL2\000"
 14757      4E5F4241 
 14757      54545F4C 
 14757      4556454C 
 14757      3200
 14758              	.LASF284:
 14759 0842 4F535F46 		.ascii	"OS_FN_FL_COPYB_START\000"
 14759      4E5F464C 
 14759      5F434F50 
 14759      59425F53 
 14759      54415254 
 14760              	.LASF71:
 14761 0857 4F535F46 		.ascii	"OS_FN_DISP_TEXTC\000"
 14761      4E5F4449 
 14761      53505F54 
 14761      45585443 
ARM GAS  C:\Users\AHMED~1.ELE\AppData\Local\Temp\ccaBET3e.s 			page 312


 14761      00
 14762              	.LASF560:
 14763 0868 615F696E 		.ascii	"a_inlen\000"
 14763      6C656E00 
 14764              	.LASF167:
 14765 0870 4F535F46 		.ascii	"OS_FN_THREAD_POP\000"
 14765      4E5F5448 
 14765      52454144 
 14765      5F504F50 
 14765      00
 14766              	.LASF358:
 14767 0881 4F535F46 		.ascii	"OS_FN_USBHOST_UNLINK_BUFFER\000"
 14767      4E5F5553 
 14767      42484F53 
 14767      545F554E 
 14767      4C494E4B 
 14768              	.LASF205:
 14769 089d 4F535F46 		.ascii	"OS_FN_FILE_DSEARCH\000"
 14769      4E5F4649 
 14769      4C455F44 
 14769      53454152 
 14769      434800
 14770              	.LASF637:
 14771 08b0 78353039 		.ascii	"x509_verify_cert_with_PSS\000"
 14771      5F766572 
 14771      6966795F 
 14771      63657274 
 14771      5F776974 
 14772              	.LASF428:
 14773 08ca 4F535F46 		.ascii	"OS_FN_WIFI_STATUS\000"
 14773      4E5F5749 
 14773      46495F53 
 14773      54415455 
 14773      5300
 14774              	.LASF571:
 14775 08dc 615F6F75 		.ascii	"a_outTime\000"
 14775      7454696D 
 14775      6500
 14776              	.LASF60:
 14777 08e6 4F535F46 		.ascii	"OS_FN_DISP_OPEN\000"
 14777      4E5F4449 
 14777      53505F4F 
 14777      50454E00 
 14778              	.LASF62:
 14779 08f6 4F535F46 		.ascii	"OS_FN_DISP_PUTC\000"
 14779      4E5F4449 
 14779      53505F50 
 14779      55544300 
 14780              	.LASF350:
 14781 0906 4F535F46 		.ascii	"OS_FN_CLICC_EMV_LV1\000"
 14781      4E5F434C 
 14781      4943435F 
 14781      454D565F 
 14781      4C563100 
 14782              	.LASF22:
 14783 091a 545F484D 		.ascii	"T_HMAC_SHA_INIT\000"
 14783      41435F53 
ARM GAS  C:\Users\AHMED~1.ELE\AppData\Local\Temp\ccaBET3e.s 			page 313


 14783      48415F49 
 14783      4E495400 
 14784              	.LASF66:
 14785 092a 4F535F46 		.ascii	"OS_FN_DISP_PUTG\000"
 14785      4E5F4449 
 14785      53505F50 
 14785      55544700 
 14786              	.LASF156:
 14787 093a 4F535F46 		.ascii	"OS_FN_KEY_SAVE_TMK_CBC_NC\000"
 14787      4E5F4B45 
 14787      595F5341 
 14787      56455F54 
 14787      4D4B5F43 
 14788              	.LASF593:
 14789 0954 73656564 		.ascii	"seed_len\000"
 14789      5F6C656E 
 14789      00
 14790              	.LASF312:
 14791 095d 4F535F46 		.ascii	"OS_FN_ADC_CH_ENABLE\000"
 14791      4E5F4144 
 14791      435F4348 
 14791      5F454E41 
 14791      424C4500 
 14792              	.LASF64:
 14793 0971 4F535F46 		.ascii	"OS_FN_DISP_PUTN\000"
 14793      4E5F4449 
 14793      53505F50 
 14793      55544E00 
 14794              	.LASF673:
 14795 0981 78353039 		.ascii	"x509_rsapss_param_identical\000"
 14795      5F727361 
 14795      7073735F 
 14795      70617261 
 14795      6D5F6964 
 14796              	.LASF67:
 14797 099d 4F535F46 		.ascii	"OS_FN_DISP_PUTP\000"
 14797      4E5F4449 
 14797      53505F50 
 14797      55545000 
 14798              	.LASF458:
 14799 09ad 4F535F46 		.ascii	"OS_FN_DUMMY\000"
 14799      4E5F4455 
 14799      4D4D5900 
 14800              	.LASF342:
 14801 09b9 4F535F46 		.ascii	"OS_FN_CODEC_STOP\000"
 14801      4E5F434F 
 14801      4445435F 
 14801      53544F50 
 14801      00
 14802              	.LASF63:
 14803 09ca 4F535F46 		.ascii	"OS_FN_DISP_PUTS\000"
 14803      4E5F4449 
 14803      53505F50 
 14803      55545300 
 14804              	.LASF522:
 14805 09da 645F7472 		.ascii	"d_trailer_field\000"
 14805      61696C65 
ARM GAS  C:\Users\AHMED~1.ELE\AppData\Local\Temp\ccaBET3e.s 			page 314


 14805      725F6669 
 14805      656C6400 
 14806              	.LASF579:
 14807 09ea 78353039 		.ascii	"x509_get_signature\000"
 14807      5F676574 
 14807      5F736967 
 14807      6E617475 
 14807      726500
 14808              	.LASF548:
 14809 09fd 735F7368 		.ascii	"s_sha384\000"
 14809      61333834 
 14809      00
 14810              	.LASF26:
 14811 0a06 645F6C65 		.ascii	"d_len\000"
 14811      6E00
 14812              	.LASF612:
 14813 0a0c 615F696D 		.ascii	"a_impVal\000"
 14813      7056616C 
 14813      00
 14814              	.LASF580:
 14815 0a15 615F7369 		.ascii	"a_sig\000"
 14815      6700
 14816              	.LASF595:
 14817 0a1b 786F725F 		.ascii	"xor_this\000"
 14817      74686973 
 14817      00
 14818              	.LASF431:
 14819 0a24 4F535F46 		.ascii	"OS_FN_NFC_OPEN_FELICA\000"
 14819      4E5F4E46 
 14819      435F4F50 
 14819      454E5F46 
 14819      454C4943 
 14820              	.LASF178:
 14821 0a3a 4F535F46 		.ascii	"OS_FN_LED_ON\000"
 14821      4E5F4C45 
 14821      445F4F4E 
 14821      00
 14822              	.LASF631:
 14823 0a47 7365746C 		.ascii	"setlen\000"
 14823      656E00
 14824              	.LASF174:
 14825 0a4e 4F535F46 		.ascii	"OS_FN_LED_CLOSE\000"
 14825      4E5F4C45 
 14825      445F434C 
 14825      4F534500 
 14826              	.LASF190:
 14827 0a5e 4F535F46 		.ascii	"OS_FN_FILE_OPEN\000"
 14827      4E5F4649 
 14827      4C455F4F 
 14827      50454E00 
 14828              	.LASF200:
 14829 0a6e 4F535F46 		.ascii	"OS_FN_FILE_PUTC\000"
 14829      4E5F4649 
 14829      4C455F50 
 14829      55544300 
 14830              	.LASF610:
 14831 0a7e 78353039 		.ascii	"x509_get_oid\000"
ARM GAS  C:\Users\AHMED~1.ELE\AppData\Local\Temp\ccaBET3e.s 			page 315


 14831      5F676574 
 14831      5F6F6964 
 14831      00
 14832              	.LASF166:
 14833 0a8b 4F535F46 		.ascii	"OS_FN_THREAD_PUSH\000"
 14833      4E5F5448 
 14833      52454144 
 14833      5F505553 
 14833      4800
 14834              	.LASF650:
 14835 0a9d 64696765 		.ascii	"digest\000"
 14835      737400
 14836              	.LASF578:
 14837 0aa4 65784C65 		.ascii	"exLen\000"
 14837      6E00
 14838              	.LASF562:
 14839 0aaa 615F6365 		.ascii	"a_cert_info\000"
 14839      72745F69 
 14839      6E666F00 
 14840              	.LASF459:
 14841 0ab6 4F535F46 		.ascii	"OS_FN_OFF\000"
 14841      4E5F4F46 
 14841      4600
 14842              	.LASF583:
 14843 0ac0 7369674C 		.ascii	"sigLen\000"
 14843      656E00
 14844              	.LASF2:
 14845 0ac7 756E7369 		.ascii	"unsigned char\000"
 14845      676E6564 
 14845      20636861 
 14845      7200
 14846              	.LASF517:
 14847 0ad5 55534246 		.ascii	"USBFPRT_GENERAL_INFO_END\000"
 14847      5052545F 
 14847      47454E45 
 14847      52414C5F 
 14847      494E464F 
 14848              	.LASF43:
 14849 0aee 4F535F46 		.ascii	"OS_FN_KBD_OPEN\000"
 14849      4E5F4B42 
 14849      445F4F50 
 14849      454E00
 14850              	.LASF150:
 14851 0afd 4F535F46 		.ascii	"OS_FN_KEY_CUP_MAC\000"
 14851      4E5F4B45 
 14851      595F4355 
 14851      505F4D41 
 14851      4300
 14852              	.LASF399:
 14853 0b0f 4F535F46 		.ascii	"OS_FN_MIF_STATUS\000"
 14853      4E5F4D49 
 14853      465F5354 
 14853      41545553 
 14853      00
 14854              	.LASF76:
 14855 0b20 4F535F46 		.ascii	"OS_FN_DISP_ICON_PUTC\000"
 14855      4E5F4449 
ARM GAS  C:\Users\AHMED~1.ELE\AppData\Local\Temp\ccaBET3e.s 			page 316


 14855      53505F49 
 14855      434F4E5F 
 14855      50555443 
 14856              	.LASF521:
 14857 0b35 645F7361 		.ascii	"d_salt_length\000"
 14857      6C745F6C 
 14857      656E6774 
 14857      6800
 14858              	.LASF262:
 14859 0b43 4F535F46 		.ascii	"OS_FN_MSR_STATUS\000"
 14859      4E5F4D53 
 14859      525F5354 
 14859      41545553 
 14859      00
 14860              	.LASF287:
 14861 0b54 4F535F46 		.ascii	"OS_FN_FL_CREAD_RAND\000"
 14861      4E5F464C 
 14861      5F435245 
 14861      41445F52 
 14861      414E4400 
 14862              	.LASF656:
 14863 0b68 7365714C 		.ascii	"seqLen\000"
 14863      656E00
 14864              	.LASF630:
 14865 0b6f 646E456E 		.ascii	"dnEnd\000"
 14865      6400
 14866              	.LASF556:
 14867 0b75 75706461 		.ascii	"update\000"
 14867      746500
 14868              	.LASF160:
 14869 0b7c 4F535F46 		.ascii	"OS_FN_THREAD_OPEN\000"
 14869      4E5F5448 
 14869      52454144 
 14869      5F4F5045 
 14869      4E00
 14870              	.LASF199:
 14871 0b8e 4F535F46 		.ascii	"OS_FN_FILE_WRITE\000"
 14871      4E5F4649 
 14871      4C455F57 
 14871      52495445 
 14871      00
 14872              	.LASF433:
 14873 0b9f 4F535F46 		.ascii	"OS_FN_NFC_CANCEL\000"
 14873      4E5F4E46 
 14873      435F4341 
 14873      4E43454C 
 14873      00
 14874              	.LASF224:
 14875 0bb0 4F535F46 		.ascii	"OS_FN_CONFIG_LENGTH\000"
 14875      4E5F434F 
 14875      4E464947 
 14875      5F4C454E 
 14875      47544800 
 14876              	.LASF493:
 14877 0bc4 4F535F46 		.ascii	"OS_FN_WIFI_GET_DEVICE_STATE\000"
 14877      4E5F5749 
 14877      46495F47 
ARM GAS  C:\Users\AHMED~1.ELE\AppData\Local\Temp\ccaBET3e.s 			page 317


 14877      45545F44 
 14877      45564943 
 14878              	.LASF85:
 14879 0be0 4F535F46 		.ascii	"OS_FN_COM1_SEND\000"
 14879      4E5F434F 
 14879      4D315F53 
 14879      454E4400 
 14880              	.LASF159:
 14881 0bf0 4F535F46 		.ascii	"OS_FN_PCI_DSS\000"
 14881      4E5F5043 
 14881      495F4453 
 14881      5300
 14882              	.LASF700:
 14883 0bfe 433A5C54 		.ascii	"C:\\T1000-A5\\Projects\\APM\\apm_v3.0s03\000"
 14883      31303030 
 14883      2D41355C 
 14883      50726F6A 
 14883      65637473 
 14884              	.LASF558:
 14885 0c23 545F4841 		.ascii	"T_HASH_OPS\000"
 14885      53485F4F 
 14885      505300
 14886              	.LASF175:
 14887 0c2e 4F535F46 		.ascii	"OS_FN_LED_STATUS\000"
 14887      4E5F4C45 
 14887      445F5354 
 14887      41545553 
 14887      00
 14888              	.LASF685:
 14889 0c3f 7369675F 		.ascii	"sig_len\000"
 14889      6C656E00 
 14890              	.LASF653:
 14891 0c47 616C676F 		.ascii	"algo\000"
 14891      00
 14892              	.LASF664:
 14893 0c4c 76616C75 		.ascii	"value\000"
 14893      6500
 14894              	.LASF644:
 14895 0c52 64624C65 		.ascii	"dbLen\000"
 14895      6E00
 14896              	.LASF54:
 14897 0c58 4F535F46 		.ascii	"OS_FN_BUZ_OPEN\000"
 14897      4E5F4255 
 14897      5A5F4F50 
 14897      454E00
 14898              	.LASF605:
 14899 0c67 6F6C656E 		.ascii	"olen\000"
 14899      00
 14900              	.LASF525:
 14901 0c6c 775F7369 		.ascii	"w_sign_len\000"
 14901      676E5F6C 
 14901      656E00
 14902              	.LASF408:
 14903 0c77 4F535F46 		.ascii	"OS_FN_MIF_DEC\000"
 14903      4E5F4D49 
 14903      465F4445 
 14903      4300
ARM GAS  C:\Users\AHMED~1.ELE\AppData\Local\Temp\ccaBET3e.s 			page 318


 14904              	.LASF250:
 14905 0c85 4F535F46 		.ascii	"OS_FN_LAN_OPEN\000"
 14905      4E5F4C41 
 14905      4E5F4F50 
 14905      454E00
 14906              	.LASF472:
 14907 0c94 4F535F46 		.ascii	"OS_FN_LPT_GET_COUNT\000"
 14907      4E5F4C50 
 14907      545F4745 
 14907      545F434F 
 14907      554E5400 
 14908              	.LASF308:
 14909 0ca8 4F535F46 		.ascii	"OS_FN_BATT_LEVEL\000"
 14909      4E5F4241 
 14909      54545F4C 
 14909      4556454C 
 14909      00
 14910              	.LASF456:
 14911 0cb9 4F535F46 		.ascii	"OS_FN_HD_CONFIG\000"
 14911      4E5F4844 
 14911      5F434F4E 
 14911      46494700 
 14912              	.LASF663:
 14913 0cc9 615F7075 		.ascii	"a_pubKey\000"
 14913      624B6579 
 14913      00
 14914              	.LASF216:
 14915 0cd2 4F535F46 		.ascii	"OS_FN_FILE_FTRUNCATE\000"
 14915      4E5F4649 
 14915      4C455F46 
 14915      5452554E 
 14915      43415445 
 14916              	.LASF640:
 14917 0ce7 684C656E 		.ascii	"hLen\000"
 14917      00
 14918              	.LASF253:
 14919 0cec 4F535F46 		.ascii	"OS_FN_LAN_TXRDY\000"
 14919      4E5F4C41 
 14919      4E5F5458 
 14919      52445900 
 14920              	.LASF161:
 14921 0cfc 4F535F46 		.ascii	"OS_FN_THREAD_CLOSE\000"
 14921      4E5F5448 
 14921      52454144 
 14921      5F434C4F 
 14921      534500
 14922              	.LASF310:
 14923 0d0f 4F535F46 		.ascii	"OS_FN_BATT_CONTROL\000"
 14923      4E5F4241 
 14923      54545F43 
 14923      4F4E5452 
 14923      4F4C00
 14924              	.LASF397:
 14925 0d22 4F535F46 		.ascii	"OS_FN_MIF_CARD_TYPE\000"
 14925      4E5F4D49 
 14925      465F4341 
 14925      52445F54 
ARM GAS  C:\Users\AHMED~1.ELE\AppData\Local\Temp\ccaBET3e.s 			page 319


 14925      59504500 
 14926              	.LASF244:
 14927 0d36 4F535F46 		.ascii	"OS_FN_MMC_WRITE\000"
 14927      4E5F4D4D 
 14927      435F5752 
 14927      49544500 
 14928              	.LASF20:
 14929 0d46 735F696B 		.ascii	"s_ikey_raw\000"
 14929      65795F72 
 14929      617700
 14930              	.LASF478:
 14931 0d51 4F535F46 		.ascii	"OS_FN_ECC_KEYPAIR_GENERATE\000"
 14931      4E5F4543 
 14931      435F4B45 
 14931      59504149 
 14931      525F4745 
 14932              	.LASF300:
 14933 0d6c 4F535F46 		.ascii	"OS_FN_MCOM_PERMIT\000"
 14933      4E5F4D43 
 14933      4F4D5F50 
 14933      45524D49 
 14933      5400
 14934              	.LASF413:
 14935 0d7e 4F535F46 		.ascii	"OS_FN_MIF_SENDCMD\000"
 14935      4E5F4D49 
 14935      465F5345 
 14935      4E44434D 
 14935      4400
 14936              	.LASF46:
 14937 0d90 4F535F46 		.ascii	"OS_FN_KBD_SCODE\000"
 14937      4E5F4B42 
 14937      445F5343 
 14937      4F444500 
 14938              	.LASF488:
 14939 0da0 4F535F46 		.ascii	"OS_FN_WIFI_SOCKET_CONNECT\000"
 14939      4E5F5749 
 14939      46495F53 
 14939      4F434B45 
 14939      545F434F 
 14940              	.LASF480:
 14941 0dba 4F535F46 		.ascii	"OS_FN_ECC_SCALAR_MULTIPLY\000"
 14941      4E5F4543 
 14941      435F5343 
 14941      414C4152 
 14941      5F4D554C 
 14942              	.LASF386:
 14943 0dd4 4F535F46 		.ascii	"OS_FN_USBKBD_OPEN\000"
 14943      4E5F5553 
 14943      424B4244 
 14943      5F4F5045 
 14943      4E00
 14944              	.LASF403:
 14945 0de6 4F535F46 		.ascii	"OS_FN_MIF_AUTH1\000"
 14945      4E5F4D49 
 14945      465F4155 
 14945      54483100 
 14946              	.LASF404:
ARM GAS  C:\Users\AHMED~1.ELE\AppData\Local\Temp\ccaBET3e.s 			page 320


 14947 0df6 4F535F46 		.ascii	"OS_FN_MIF_AUTH2\000"
 14947      4E5F4D49 
 14947      465F4155 
 14947      54483200 
 14948              	.LASF12:
 14949 0e06 424F4F4C 		.ascii	"BOOLEAN\000"
 14949      45414E00 
 14950              	.LASF109:
 14951 0e0e 4F535F46 		.ascii	"OS_FN_DES2\000"
 14951      4E5F4445 
 14951      533200
 14952              	.LASF129:
 14953 0e19 4F535F46 		.ascii	"OS_FN_MD4_PROCESS\000"
 14953      4E5F4D44 
 14953      345F5052 
 14953      4F434553 
 14953      5300
 14954              	.LASF411:
 14955 0e2b 4F535F46 		.ascii	"OS_FN_MIF_DEC_TRANS\000"
 14955      4E5F4D49 
 14955      465F4445 
 14955      435F5452 
 14955      414E5300 
 14956              	.LASF566:
 14957 0e3f 626F6F6C 		.ascii	"bool_val\000"
 14957      5F76616C 
 14957      00
 14958              	.LASF367:
 14959 0e48 4F535F46 		.ascii	"OS_FN_DEVICE_REGISTER\000"
 14959      4E5F4445 
 14959      56494345 
 14959      5F524547 
 14959      49535445 
 14960              	.LASF569:
 14961 0e5e 615F7469 		.ascii	"a_timeLen\000"
 14961      6D654C65 
 14961      6E00
 14962              	.LASF84:
 14963 0e68 4F535F46 		.ascii	"OS_FN_COM1_READ\000"
 14963      4E5F434F 
 14963      4D315F52 
 14963      45414400 
 14964              	.LASF247:
 14965 0e78 4F535F46 		.ascii	"OS_FN_SLE_CLOSE\000"
 14965      4E5F534C 
 14965      455F434C 
 14965      4F534500 
 14966              	.LASF256:
 14967 0e88 4F535F46 		.ascii	"OS_FN_LAN_STATUS\000"
 14967      4E5F4C41 
 14967      4E5F5354 
 14967      41545553 
 14967      00
 14968              	.LASF184:
 14969 0e99 4F535F46 		.ascii	"OS_FN_APP_CLR_VIRGIN\000"
 14969      4E5F4150 
 14969      505F434C 
ARM GAS  C:\Users\AHMED~1.ELE\AppData\Local\Temp\ccaBET3e.s 			page 321


 14969      525F5649 
 14969      5247494E 
 14970              	.LASF541:
 14971 0eae 455F4861 		.ascii	"E_HashOps_AlgoId_sha512\000"
 14971      73684F70 
 14971      735F416C 
 14971      676F4964 
 14971      5F736861 
 14972              	.LASF183:
 14973 0ec6 4F535F46 		.ascii	"OS_FN_APP_GET_VIRGIN\000"
 14973      4E5F4150 
 14973      505F4745 
 14973      545F5649 
 14973      5247494E 
 14974              	.LASF589:
 14975 0edb 78353039 		.ascii	"x509_generalize_time\000"
 14975      5F67656E 
 14975      6572616C 
 14975      697A655F 
 14975      74696D65 
 14976              	.LASF232:
 14977 0ef0 4F535F46 		.ascii	"OS_FN_SAM_ON\000"
 14977      4E5F5341 
 14977      4D5F4F4E 
 14977      00
 14978              	.LASF307:
 14979 0efd 4F535F46 		.ascii	"OS_FN_MCOM_SEND\000"
 14979      4E5F4D43 
 14979      4F4D5F53 
 14979      454E4400 
 14980              	.LASF544:
 14981 0f0d 735F6D64 		.ascii	"s_md5\000"
 14981      3500
 14982              	.LASF442:
 14983 0f13 4F535F46 		.ascii	"OS_FN_GPS_GET_INFO\000"
 14983      4E5F4750 
 14983      535F4745 
 14983      545F494E 
 14983      464F00
 14984              	.LASF552:
 14985 0f26 616C676F 		.ascii	"algo_type_id\000"
 14985      5F747970 
 14985      655F6964 
 14985      00
 14986              	.LASF293:
 14987 0f33 4F535F46 		.ascii	"OS_FN_MDM_DIAL\000"
 14987      4E5F4D44 
 14987      4D5F4449 
 14987      414C00
 14988              	.LASF163:
 14989 0f42 4F535F46 		.ascii	"OS_FN_THREAD_DELETE\000"
 14989      4E5F5448 
 14989      52454144 
 14989      5F44454C 
 14989      45544500 
 14990              	.LASF173:
 14991 0f56 4F535F46 		.ascii	"OS_FN_LED_OPEN\000"
ARM GAS  C:\Users\AHMED~1.ELE\AppData\Local\Temp\ccaBET3e.s 			page 322


 14991      4E5F4C45 
 14991      445F4F50 
 14991      454E00
 14992              	.LASF58:
 14993 0f65 4F535F46 		.ascii	"OS_FN_RTC_GET\000"
 14993      4E5F5254 
 14993      435F4745 
 14993      5400
 14994              	.LASF269:
 14995 0f73 4F535F46 		.ascii	"OS_FN_USBSER_CLOSE\000"
 14995      4E5F5553 
 14995      42534552 
 14995      5F434C4F 
 14995      534500
 14996              	.LASF425:
 14997 0f86 4F535F46 		.ascii	"OS_FN_WIFI_CONTROL\000"
 14997      4E5F5749 
 14997      46495F43 
 14997      4F4E5452 
 14997      4F4C00
 14998              	.LASF177:
 14999 0f99 4F535F46 		.ascii	"OS_FN_LED_CLEAR\000"
 14999      4E5F4C45 
 14999      445F434C 
 14999      45415200 
 15000              	.LASF469:
 15001 0fa9 4F535F46 		.ascii	"OS_FN_DTIMER_LATCH_STOP\000"
 15001      4E5F4454 
 15001      494D4552 
 15001      5F4C4154 
 15001      43485F53 
 15002              	.LASF378:
 15003 0fc1 4F535F46 		.ascii	"OS_FN_BUS_START\000"
 15003      4E5F4255 
 15003      535F5354 
 15003      41525400 
 15004              	.LASF660:
 15005 0fd1 6E6F7442 		.ascii	"notBefore\000"
 15005      65666F72 
 15005      6500
 15006              	.LASF123:
 15007 0fdb 4F535F46 		.ascii	"OS_FN_MD5_FINISH\000"
 15007      4E5F4D44 
 15007      355F4649 
 15007      4E495348 
 15007      00
 15008              	.LASF513:
 15009 0fec 55534246 		.ascii	"USBFPRT_GENERAL_INFO_MODEL\000"
 15009      5052545F 
 15009      47454E45 
 15009      52414C5F 
 15009      494E464F 
 15010              	.LASF643:
 15011 1007 7A426974 		.ascii	"zBits\000"
 15011      7300
 15012              	.LASF38:
 15013 100d 645F6B65 		.ascii	"d_key_idx\000"
ARM GAS  C:\Users\AHMED~1.ELE\AppData\Local\Temp\ccaBET3e.s 			page 323


 15013      795F6964 
 15013      7800
 15014              	.LASF440:
 15015 1017 4F535F46 		.ascii	"OS_FN_GPS_ON\000"
 15015      4E5F4750 
 15015      535F4F4E 
 15015      00
 15016              	.LASF597:
 15017 1024 636E745F 		.ascii	"cnt_buf\000"
 15017      62756600 
 15018              	.LASF341:
 15019 102c 4F535F46 		.ascii	"OS_FN_CODEC_PLAY_RAM\000"
 15019      4E5F434F 
 15019      4445435F 
 15019      504C4159 
 15019      5F52414D 
 15020              	.LASF305:
 15021 1041 4F535F46 		.ascii	"OS_FN_MCOM_STATUS\000"
 15021      4E5F4D43 
 15021      4F4D5F53 
 15021      54415455 
 15021      5300
 15022              	.LASF77:
 15023 1053 4F535F46 		.ascii	"OS_FN_DISP_ICON_TEXTC\000"
 15023      4E5F4449 
 15023      53505F49 
 15023      434F4E5F 
 15023      54455854 
 15024              	.LASF553:
 15025 1069 705F6469 		.ascii	"p_digest\000"
 15025      67657374 
 15025      00
 15026              	.LASF191:
 15027 1072 4F535F46 		.ascii	"OS_FN_FILE_CREATE\000"
 15027      4E5F4649 
 15027      4C455F43 
 15027      52454154 
 15027      4500
 15028              	.LASF263:
 15029 1084 4F535F46 		.ascii	"OS_FN_LPT_OPEN\000"
 15029      4E5F4C50 
 15029      545F4F50 
 15029      454E00
 15030              	.LASF265:
 15031 1093 4F535F46 		.ascii	"OS_FN_LPT_PUTC\000"
 15031      4E5F4C50 
 15031      545F5055 
 15031      544300
 15032              	.LASF542:
 15033 10a2 455F4861 		.ascii	"E_HashOps_AlgoId_MAX\000"
 15033      73684F70 
 15033      735F416C 
 15033      676F4964 
 15033      5F4D4158 
 15034              	.LASF255:
 15035 10b7 4F535F46 		.ascii	"OS_FN_LAN_SEND\000"
 15035      4E5F4C41 
ARM GAS  C:\Users\AHMED~1.ELE\AppData\Local\Temp\ccaBET3e.s 			page 324


 15035      4E5F5345 
 15035      4E4400
 15036              	.LASF398:
 15037 10c6 4F535F46 		.ascii	"OS_FN_MIF_TAG\000"
 15037      4E5F4D49 
 15037      465F5441 
 15037      4700
 15038              	.LASF629:
 15039 10d4 615F646E 		.ascii	"a_dn_mac\000"
 15039      5F6D6163 
 15039      00
 15040              	.LASF475:
 15041 10dd 4F535F46 		.ascii	"OS_FN_FPRT_SCAN_IMG\000"
 15041      4E5F4650 
 15041      52545F53 
 15041      43414E5F 
 15041      494D4700 
 15042              	.LASF333:
 15043 10f1 4F535F46 		.ascii	"OS_FN_TPAD_DEL_OBJ\000"
 15043      4E5F5450 
 15043      41445F44 
 15043      454C5F4F 
 15043      424A00
 15044              	.LASF33:
 15045 1104 545F5348 		.ascii	"T_SHA224_CONTEXT\000"
 15045      41323234 
 15045      5F434F4E 
 15045      54455854 
 15045      00
 15046              	.LASF678:
 15047 1115 63657274 		.ascii	"certAlgorithm\000"
 15047      416C676F 
 15047      72697468 
 15047      6D00
 15048              	.LASF549:
 15049 1123 735F7368 		.ascii	"s_sha512\000"
 15049      61353132 
 15049      00
 15050              	.LASF268:
 15051 112c 4F535F46 		.ascii	"OS_FN_USBSER_OPEN\000"
 15051      4E5F5553 
 15051      42534552 
 15051      5F4F5045 
 15051      4E00
 15052              	.LASF457:
 15053 113e 4F535F46 		.ascii	"OS_FN_RDLL_APP\000"
 15053      4E5F5244 
 15053      4C4C5F41 
 15053      505000
 15054              	.LASF198:
 15055 114d 4F535F46 		.ascii	"OS_FN_FILE_READ\000"
 15055      4E5F4649 
 15055      4C455F52 
 15055      45414400 
 15056              	.LASF611:
 15057 115d 78353039 		.ascii	"x509_get_implicit_bit_string\000"
 15057      5F676574 
ARM GAS  C:\Users\AHMED~1.ELE\AppData\Local\Temp\ccaBET3e.s 			page 325


 15057      5F696D70 
 15057      6C696369 
 15057      745F6269 
 15058              	.LASF647:
 15059 117a 73616C74 		.ascii	"salt\000"
 15059      00
 15060              	.LASF655:
 15061 117f 78353039 		.ascii	"x509_get_validity\000"
 15061      5F676574 
 15061      5F76616C 
 15061      69646974 
 15061      7900
 15062              	.LASF347:
 15063 1191 4F535F46 		.ascii	"OS_FN_CLICC_CLOSE\000"
 15063      4E5F434C 
 15063      4943435F 
 15063      434C4F53 
 15063      4500
 15064              	.LASF360:
 15065 11a3 4F535F46 		.ascii	"OS_FN_USBHOST_STATUS\000"
 15065      4E5F5553 
 15065      42484F53 
 15065      545F5354 
 15065      41545553 
 15066              	.LASF504:
 15067 11b8 4F535F46 		.ascii	"OS_FN_DISP_PUTS_ANYWHERE\000"
 15067      4E5F4449 
 15067      53505F50 
 15067      5554535F 
 15067      414E5957 
 15068              	.LASF565:
 15069 11d1 70617468 		.ascii	"pathLenConstraint\000"
 15069      4C656E43 
 15069      6F6E7374 
 15069      7261696E 
 15069      7400
 15070              	.LASF701:
 15071 11e3 73797374 		.ascii	"system_call_list\000"
 15071      656D5F63 
 15071      616C6C5F 
 15071      6C697374 
 15071      00
 15072              	.LASF249:
 15073 11f4 4F535F46 		.ascii	"OS_FN_SLE_IO\000"
 15073      4E5F534C 
 15073      455F494F 
 15073      00
 15074              	.LASF295:
 15075 1201 4F535F46 		.ascii	"OS_FN_MDM_CID\000"
 15075      4E5F4D44 
 15075      4D5F4349 
 15075      4400
 15076              	.LASF301:
 15077 120f 4F535F46 		.ascii	"OS_FN_MCOM_RXRDY\000"
 15077      4E5F4D43 
 15077      4F4D5F52 
 15077      58524459 
ARM GAS  C:\Users\AHMED~1.ELE\AppData\Local\Temp\ccaBET3e.s 			page 326


 15077      00
 15078              	.LASF264:
 15079 1220 4F535F46 		.ascii	"OS_FN_LPT_CLOSE\000"
 15079      4E5F4C50 
 15079      545F434C 
 15079      4F534500 
 15080              	.LASF686:
 15081 1230 78353039 		.ascii	"x509_parse_cert\000"
 15081      5F706172 
 15081      73655F63 
 15081      65727400 
 15082              	.LASF687:
 15083 1240 78353039 		.ascii	"x509_verify_cert_by_cert\000"
 15083      5F766572 
 15083      6966795F 
 15083      63657274 
 15083      5F62795F 
 15084              	.LASF146:
 15085 1259 4F535F46 		.ascii	"OS_FN_KEY_RSA\000"
 15085      4E5F4B45 
 15085      595F5253 
 15085      4100
 15086              	.LASF229:
 15087 1267 4F535F46 		.ascii	"OS_FN_SAM_CLOSE\000"
 15087      4E5F5341 
 15087      4D5F434C 
 15087      4F534500 
 15088              	.LASF110:
 15089 1277 4F535F46 		.ascii	"OS_FN_COM_DESKEY\000"
 15089      4E5F434F 
 15089      4D5F4445 
 15089      534B4559 
 15089      00
 15090              	.LASF526:
 15091 1288 775F6469 		.ascii	"w_digest_algo_id\000"
 15091      67657374 
 15091      5F616C67 
 15091      6F5F6964 
 15091      00
 15092              	.LASF317:
 15093 1299 4F535F46 		.ascii	"OS_FN_GPRS_AT_CMD\000"
 15093      4E5F4750 
 15093      52535F41 
 15093      545F434D 
 15093      4400
 15094              	.LASF505:
 15095 12ab 4F535F46 		.ascii	"OS_FN_BATT_CHARGE_NOW\000"
 15095      4E5F4241 
 15095      54545F43 
 15095      48415247 
 15095      455F4E4F 
 15096              	.LASF221:
 15097 12c1 4F535F46 		.ascii	"OS_FN_FILE_GET_LONGNAME\000"
 15097      4E5F4649 
 15097      4C455F47 
 15097      45545F4C 
 15097      4F4E474E 
ARM GAS  C:\Users\AHMED~1.ELE\AppData\Local\Temp\ccaBET3e.s 			page 327


 15098              	.LASF396:
 15099 12d9 4F535F46 		.ascii	"OS_FN_MIF_HALT\000"
 15099      4E5F4D49 
 15099      465F4841 
 15099      4C5400
 15100              	.LASF289:
 15101 12e8 4F535F46 		.ascii	"OS_FN_FL_CREAD_END\000"
 15101      4E5F464C 
 15101      5F435245 
 15101      41445F45 
 15101      4E4400
 15102              	.LASF235:
 15103 12fb 4F535F46 		.ascii	"OS_FN_SAM_CHANGE\000"
 15103      4E5F5341 
 15103      4D5F4348 
 15103      414E4745 
 15103      00
 15104              	.LASF417:
 15105 130c 4F535F46 		.ascii	"OS_FN_BARCODE_OPEN\000"
 15105      4E5F4241 
 15105      52434F44 
 15105      455F4F50 
 15105      454E00
 15106              	.LASF495:
 15107 131f 4F535F46 		.ascii	"OS_FN_WIFI_SOCKET_LISTEN\000"
 15107      4E5F5749 
 15107      46495F53 
 15107      4F434B45 
 15107      545F4C49 
 15108              	.LASF271:
 15109 1338 4F535F46 		.ascii	"OS_FN_USBSER_WRITE\000"
 15109      4E5F5553 
 15109      42534552 
 15109      5F575249 
 15109      544500
 15110              	.LASF395:
 15111 134b 4F535F46 		.ascii	"OS_FN_MIF_CANCEL\000"
 15111      4E5F4D49 
 15111      465F4341 
 15111      4E43454C 
 15111      00
 15112              	.LASF21:
 15113 135c 735F6F6B 		.ascii	"s_okey\000"
 15113      657900
 15114              	.LASF6:
 15115 1363 6C6F6E67 		.ascii	"long unsigned int\000"
 15115      20756E73 
 15115      69676E65 
 15115      6420696E 
 15115      7400
 15116              	.LASF72:
 15117 1375 4F535F46 		.ascii	"OS_FN_DISP_BACKC\000"
 15117      4E5F4449 
 15117      53505F42 
 15117      41434B43 
 15117      00
 15118              	.LASF35:
ARM GAS  C:\Users\AHMED~1.ELE\AppData\Local\Temp\ccaBET3e.s 			page 328


 15119 1386 645F6578 		.ascii	"d_exponent\000"
 15119      706F6E65 
 15119      6E7400
 15120              	.LASF68:
 15121 1391 4F535F46 		.ascii	"OS_FN_DISP_GETP\000"
 15121      4E5F4449 
 15121      53505F47 
 15121      45545000 
 15122              	.LASF448:
 15123 13a1 4F535F46 		.ascii	"OS_FN_BREG_READ\000"
 15123      4E5F4252 
 15123      45475F52 
 15123      45414400 
 15124              	.LASF326:
 15125 13b1 4F535F46 		.ascii	"OS_FN_GPRS_SMS_ACK\000"
 15125      4E5F4750 
 15125      52535F53 
 15125      4D535F41 
 15125      434B00
 15126              	.LASF41:
 15127 13c4 4F535F46 		.ascii	"OS_FN_RAND\000"
 15127      4E5F5241 
 15127      4E4400
 15128              	.LASF258:
 15129 13cf 4F535F46 		.ascii	"OS_FN_MSR_CLOSE\000"
 15129      4E5F4D53 
 15129      525F434C 
 15129      4F534500 
 15130              	.LASF639:
 15131 13df 6D486173 		.ascii	"mHash\000"
 15131      6800
 15132              	.LASF615:
 15133 13e5 70617261 		.ascii	"param\000"
 15133      6D00
 15134              	.LASF427:
 15135 13eb 4F535F46 		.ascii	"OS_FN_WIFI_RECV_RESPONSE\000"
 15135      4E5F5749 
 15135      46495F52 
 15135      4543565F 
 15135      52455350 
 15136              	.LASF254:
 15137 1404 4F535F46 		.ascii	"OS_FN_LAN_READ\000"
 15137      4E5F4C41 
 15137      4E5F5245 
 15137      414400
 15138              	.LASF474:
 15139 1413 4F535F46 		.ascii	"OS_FN_FPRT_CLOSE\000"
 15139      4E5F4650 
 15139      52545F43 
 15139      4C4F5345 
 15139      00
 15140              	.LASF698:
 15141 1424 474E5520 		.ascii	"GNU C 4.9.3 20141119 (release) [ARM/embedded-4_9-br"
 15141      4320342E 
 15141      392E3320 
 15141      32303134 
 15141      31313139 
ARM GAS  C:\Users\AHMED~1.ELE\AppData\Local\Temp\ccaBET3e.s 			page 329


 15142 1457 616E6368 		.ascii	"anch revision 218278] -mthumb -mcpu=cortex-a5 -mthu"
 15142      20726576 
 15142      6973696F 
 15142      6E203231 
 15142      38323738 
 15143 148a 6D622D69 		.ascii	"mb-interwork -mstructure-size-boundary=32 -mno-unal"
 15143      6E746572 
 15143      776F726B 
 15143      202D6D73 
 15143      74727563 
 15144 14bd 69676E65 		.ascii	"igned-access -g -Os -ffunction-sections -fsigned-ch"
 15144      642D6163 
 15144      63657373 
 15144      202D6720 
 15144      2D4F7320 
 15145 14f0 617200   		.ascii	"ar\000"
 15146              	.LASF683:
 15147 14f3 63657274 		.ascii	"certDigestAlgo\000"
 15147      44696765 
 15147      7374416C 
 15147      676F00
 15148              	.LASF291:
 15149 1502 4F535F46 		.ascii	"OS_FN_MDM_OPEN\000"
 15149      4E5F4D44 
 15149      4D5F4F50 
 15149      454E00
 15150              	.LASF297:
 15151 1511 4F535F46 		.ascii	"OS_FN_MDM_LAST_CONN_STAT\000"
 15151      4E5F4D44 
 15151      4D5F4C41 
 15151      53545F43 
 15151      4F4E4E5F 
 15152              	.LASF452:
 15153 152a 4F535F46 		.ascii	"OS_FN_SLEEP\000"
 15153      4E5F534C 
 15153      45455000 
 15154              	.LASF266:
 15155 1536 4F535F46 		.ascii	"OS_FN_LPT_PUTDW\000"
 15155      4E5F4C50 
 15155      545F5055 
 15155      54445700 
 15156              	.LASF48:
 15157 1546 4F535F46 		.ascii	"OS_FN_KBD_LOCK\000"
 15157      4E5F4B42 
 15157      445F4C4F 
 15157      434B00
 15158              	.LASF581:
 15159 1555 69676E6F 		.ascii	"ignore_bits\000"
 15159      72655F62 
 15159      69747300 
 15160              	.LASF500:
 15161 1561 4F535F46 		.ascii	"OS_FN_GPRS_IS_HL6RD\000"
 15161      4E5F4750 
 15161      52535F49 
 15161      535F484C 
 15161      36524400 
 15162              	.LASF210:
ARM GAS  C:\Users\AHMED~1.ELE\AppData\Local\Temp\ccaBET3e.s 			page 330


 15163 1575 4F535F46 		.ascii	"OS_FN_FILE_TRUNCATE\000"
 15163      4E5F4649 
 15163      4C455F54 
 15163      52554E43 
 15163      41544500 
 15164              	.LASF604:
 15165 1589 615F7661 		.ascii	"a_valLen\000"
 15165      6C4C656E 
 15165      00
 15166              	.LASF479:
 15167 1592 4F535F46 		.ascii	"OS_FN_ECC_PUBKEY_VERIFY\000"
 15167      4E5F4543 
 15167      435F5055 
 15167      424B4559 
 15167      5F564552 
 15168              	.LASF523:
 15169 15aa 545F5253 		.ascii	"T_RSAPSS_PARAM\000"
 15169      41505353 
 15169      5F504152 
 15169      414D00
 15170              	.LASF388:
 15171 15b9 4F535F46 		.ascii	"OS_FN_USBKBD_INKEY\000"
 15171      4E5F5553 
 15171      424B4244 
 15171      5F494E4B 
 15171      455900
 15172              	.LASF92:
 15173 15cc 4F535F46 		.ascii	"OS_FN_COM2_TXRDY\000"
 15173      4E5F434F 
 15173      4D325F54 
 15173      58524459 
 15173      00
 15174              	.LASF164:
 15175 15dd 4F535F46 		.ascii	"OS_FN_THREAD_LOCK\000"
 15175      4E5F5448 
 15175      52454144 
 15175      5F4C4F43 
 15175      4B00
 15176              	.LASF379:
 15177 15ef 4F535F46 		.ascii	"OS_FN_BUS_STOP\000"
 15177      4E5F4255 
 15177      535F5354 
 15177      4F5000
 15178              	.LASF573:
 15179 15fe 615F6B65 		.ascii	"a_key\000"
 15179      7900
 15180              	.LASF622:
 15181 1604 615F6973 		.ascii	"a_isPubKey\000"
 15181      5075624B 
 15181      657900
 15182              	.LASF325:
 15183 160f 4F535F46 		.ascii	"OS_FN_GPRS_SMS_DECODE\000"
 15183      4E5F4750 
 15183      52535F53 
 15183      4D535F44 
 15183      45434F44 
 15184              	.LASF675:
ARM GAS  C:\Users\AHMED~1.ELE\AppData\Local\Temp\ccaBET3e.s 			page 331


 15185 1625 63657274 		.ascii	"certEnd\000"
 15185      456E6400 
 15186              	.LASF303:
 15187 162d 4F535F46 		.ascii	"OS_FN_MCOM_SREAD\000"
 15187      4E5F4D43 
 15187      4F4D5F53 
 15187      52454144 
 15187      00
 15188              	.LASF152:
 15189 163e 4F535F46 		.ascii	"OS_FN_KEY_HASH\000"
 15189      4E5F4B45 
 15189      595F4841 
 15189      534800
 15190              	.LASF214:
 15191 164d 4F535F46 		.ascii	"OS_FN_FILE_FREESPACE\000"
 15191      4E5F4649 
 15191      4C455F46 
 15191      52454553 
 15191      50414345 
 15192              	.LASF234:
 15193 1662 4F535F46 		.ascii	"OS_FN_SAM_T1\000"
 15193      4E5F5341 
 15193      4D5F5431 
 15193      00
 15194              	.LASF272:
 15195 166f 4F535F46 		.ascii	"OS_FN_USBSER_STATUS\000"
 15195      4E5F5553 
 15195      42534552 
 15195      5F535441 
 15195      54555300 
 15196              	.LASF590:
 15197 1683 78353039 		.ascii	"x509_set_leading_zeros\000"
 15197      5F736574 
 15197      5F6C6561 
 15197      64696E67 
 15197      5F7A6572 
 15198              	.LASF218:
 15199 169a 4F535F46 		.ascii	"OS_FN_FILE_READDIR\000"
 15199      4E5F4649 
 15199      4C455F52 
 15199      45414444 
 15199      495200
 15200              	.LASF56:
 15201 16ad 4F535F46 		.ascii	"OS_FN_BUZ_BEEP\000"
 15201      4E5F4255 
 15201      5A5F4245 
 15201      455000
 15202              	.LASF464:
 15203 16bc 4F535F46 		.ascii	"OS_FN_APPCALL_RETURN\000"
 15203      4E5F4150 
 15203      5043414C 
 15203      4C5F5245 
 15203      5455524E 
 15204              	.LASF144:
 15205 16d1 4F535F46 		.ascii	"OS_FN_KEY_SAVE_TMK\000"
 15205      4E5F4B45 
 15205      595F5341 
ARM GAS  C:\Users\AHMED~1.ELE\AppData\Local\Temp\ccaBET3e.s 			page 332


 15205      56455F54 
 15205      4D4B00
 15206              	.LASF42:
 15207 16e4 4F535F46 		.ascii	"OS_FN_RAND_UPDATE\000"
 15207      4E5F5241 
 15207      4E445F55 
 15207      50444154 
 15207      4500
 15208              	.LASF429:
 15209 16f6 4F535F46 		.ascii	"OS_FN_WIFI_PROFILES_READ\000"
 15209      4E5F5749 
 15209      46495F50 
 15209      524F4649 
 15209      4C45535F 
 15210              	.LASF192:
 15211 170f 4F535F46 		.ascii	"OS_FN_FILE_CLOSE\000"
 15211      4E5F4649 
 15211      4C455F43 
 15211      4C4F5345 
 15211      00
 15212              	.LASF188:
 15213 1720 4F535F46 		.ascii	"OS_FN_FREE\000"
 15213      4E5F4652 
 15213      454500
 15214              	.LASF29:
 15215 172b 545F5348 		.ascii	"T_SHA_CONTEXT\000"
 15215      415F434F 
 15215      4E544558 
 15215      5400
 15216              	.LASF44:
 15217 1739 4F535F46 		.ascii	"OS_FN_KBD_CLOSE\000"
 15217      4E5F4B42 
 15217      445F434C 
 15217      4F534500 
 15218              	.LASF533:
 15219 1749 735F7075 		.ascii	"s_public_key\000"
 15219      626C6963 
 15219      5F6B6579 
 15219      00
 15220              	.LASF7:
 15221 1756 6C6F6E67 		.ascii	"long long int\000"
 15221      206C6F6E 
 15221      6720696E 
 15221      7400
 15222              	.LASF61:
 15223 1764 4F535F46 		.ascii	"OS_FN_DISP_CLOSE\000"
 15223      4E5F4449 
 15223      53505F43 
 15223      4C4F5345 
 15223      00
 15224              	.LASF401:
 15225 1775 4F535F46 		.ascii	"OS_FN_MIF_SELECT\000"
 15225      4E5F4D49 
 15225      465F5345 
 15225      4C454354 
 15225      00
 15226              	.LASF384:
ARM GAS  C:\Users\AHMED~1.ELE\AppData\Local\Temp\ccaBET3e.s 			page 333


 15227 1786 4F535F46 		.ascii	"OS_FN_NETDEV_EVENT\000"
 15227      4E5F4E45 
 15227      54444556 
 15227      5F455645 
 15227      4E5400
 15228              	.LASF95:
 15229 1799 4F535F46 		.ascii	"OS_FN_COM2_STATUS\000"
 15229      4E5F434F 
 15229      4D325F53 
 15229      54415455 
 15229      5300
 15230              	.LASF530:
 15231 17ab 735F7375 		.ascii	"s_subject_dn_mac\000"
 15231      626A6563 
 15231      745F646E 
 15231      5F6D6163 
 15231      00
 15232              	.LASF112:
 15233 17bc 4F535F46 		.ascii	"OS_FN_COM_DES2\000"
 15233      4E5F434F 
 15233      4D5F4445 
 15233      533200
 15234              	.LASF539:
 15235 17cb 455F4861 		.ascii	"E_HashOps_AlgoId_sha256\000"
 15235      73684F70 
 15235      735F416C 
 15235      676F4964 
 15235      5F736861 
 15236              	.LASF486:
 15237 17e3 4F535F46 		.ascii	"OS_FN_GCM_AES_CLOSE\000"
 15237      4E5F4743 
 15237      4D5F4145 
 15237      535F434C 
 15237      4F534500 
 15238              	.LASF628:
 15239 17f7 78353039 		.ascii	"x509_get_dn_attrib\000"
 15239      5F676574 
 15239      5F646E5F 
 15239      61747472 
 15239      696200
 15240              	.LASF418:
 15241 180a 4F535F46 		.ascii	"OS_FN_BARCODE_CLOSE\000"
 15241      4E5F4241 
 15241      52434F44 
 15241      455F434C 
 15241      4F534500 
 15242              	.LASF279:
 15243 181e 4F535F46 		.ascii	"OS_FN_FL_PGM_START\000"
 15243      4E5F464C 
 15243      5F50474D 
 15243      5F535441 
 15243      525400
 15244              	.LASF283:
 15245 1831 4F535F46 		.ascii	"OS_FN_FL_ERASE_END\000"
 15245      4E5F464C 
 15245      5F455241 
 15245      53455F45 
ARM GAS  C:\Users\AHMED~1.ELE\AppData\Local\Temp\ccaBET3e.s 			page 334


 15245      4E4400
 15246              	.LASF319:
 15247 1844 4F535F46 		.ascii	"OS_FN_GPRS_SEND\000"
 15247      4E5F4750 
 15247      52535F53 
 15247      454E4400 
 15248              	.LASF267:
 15249 1854 4F535F46 		.ascii	"OS_FN_LPT_STATUS\000"
 15249      4E5F4C50 
 15249      545F5354 
 15249      41545553 
 15249      00
 15250              	.LASF75:
 15251 1865 4F535F46 		.ascii	"OS_FN_DISP_ICON_COLOR\000"
 15251      4E5F4449 
 15251      53505F49 
 15251      434F4E5F 
 15251      434F4C4F 
 15252              	.LASF632:
 15253 187b 73747269 		.ascii	"stringType\000"
 15253      6E675479 
 15253      706500
 15254              	.LASF588:
 15255 1886 6D61736B 		.ascii	"mask\000"
 15255      00
 15256              	.LASF181:
 15257 188b 4F535F46 		.ascii	"OS_FN_APP_SEARCH_ID\000"
 15257      4E5F4150 
 15257      505F5345 
 15257      41524348 
 15257      5F494400 
 15258              	.LASF373:
 15259 189f 4F535F46 		.ascii	"OS_FN_DEVICE_OPEN\000"
 15259      4E5F4445 
 15259      56494345 
 15259      5F4F5045 
 15259      4E00
 15260              	.LASF79:
 15261 18b1 4F535F46 		.ascii	"OS_FN_DISP_OVERLAY\000"
 15261      4E5F4449 
 15261      53505F4F 
 15261      5645524C 
 15261      415900
 15262              	.LASF337:
 15263 18c4 4F535F46 		.ascii	"OS_FN_TPAD_RAW_POS\000"
 15263      4E5F5450 
 15263      41445F52 
 15263      41575F50 
 15263      4F5300
 15264              	.LASF237:
 15265 18d7 4F535F46 		.ascii	"OS_FN_MMC_CLOSE\000"
 15265      4E5F4D4D 
 15265      435F434C 
 15265      4F534500 
 15266              	.LASF383:
 15267 18e7 4F535F46 		.ascii	"OS_FN_NETDEV_GETLINK\000"
 15267      4E5F4E45 
ARM GAS  C:\Users\AHMED~1.ELE\AppData\Local\Temp\ccaBET3e.s 			page 335


 15267      54444556 
 15267      5F474554 
 15267      4C494E4B 
 15268              	.LASF107:
 15269 18fc 4F535F46 		.ascii	"OS_FN_DESKEY\000"
 15269      4E5F4445 
 15269      534B4559 
 15269      00
 15270              	.LASF82:
 15271 1909 4F535F46 		.ascii	"OS_FN_COM1_RXRDY\000"
 15271      4E5F434F 
 15271      4D315F52 
 15271      58524459 
 15271      00
 15272              	.LASF270:
 15273 191a 4F535F46 		.ascii	"OS_FN_USBSER_READ\000"
 15273      4E5F5553 
 15273      42534552 
 15273      5F524541 
 15273      4400
 15274              	.LASF122:
 15275 192c 4F535F46 		.ascii	"OS_FN_MD5_PROCESS\000"
 15275      4E5F4D44 
 15275      355F5052 
 15275      4F434553 
 15275      5300
 15276              	.LASF682:
 15277 193e 616E7941 		.ascii	"anyAlgorithm_pss_param\000"
 15277      6C676F72 
 15277      6974686D 
 15277      5F707373 
 15277      5F706172 
 15278              	.LASF572:
 15279 1955 615F6365 		.ascii	"a_cert\000"
 15279      727400
 15280              	.LASF83:
 15281 195c 4F535F46 		.ascii	"OS_FN_COM1_TXRDY\000"
 15281      4E5F434F 
 15281      4D315F54 
 15281      58524459 
 15281      00
 15282              	.LASF693:
 15283 196d 68617368 		.ascii	"hashops_get\000"
 15283      6F70735F 
 15283      67657400 
 15284              	.LASF577:
 15285 1979 615F7661 		.ascii	"a_val\000"
 15285      6C00
 15286              	.LASF149:
 15287 197f 4F535F46 		.ascii	"OS_FN_KEY_DUKPT_MAC_CAL\000"
 15287      4E5F4B45 
 15287      595F4455 
 15287      4B50545F 
 15287      4D41435F 
 15288              	.LASF668:
 15289 1997 636F756E 		.ascii	"count\000"
 15289      7400
ARM GAS  C:\Users\AHMED~1.ELE\AppData\Local\Temp\ccaBET3e.s 			page 336


 15290              	.LASF376:
 15291 199d 4F535F46 		.ascii	"OS_FN_INTERRUPT_REGISTER\000"
 15291      4E5F494E 
 15291      54455252 
 15291      5550545F 
 15291      52454749 
 15292              	.LASF532:
 15293 19b6 735F7273 		.ascii	"s_rsapss_param\000"
 15293      61707373 
 15293      5F706172 
 15293      616D00
 15294              	.LASF208:
 15295 19c5 4F535F46 		.ascii	"OS_FN_FILE_ACTIVATE\000"
 15295      4E5F4649 
 15295      4C455F41 
 15295      43544956 
 15295      41544500 
 15296              	.LASF69:
 15297 19d9 4F535F46 		.ascii	"OS_FN_DISP_LENGTH\000"
 15297      4E5F4449 
 15297      53505F4C 
 15297      454E4754 
 15297      4800
 15298              	.LASF476:
 15299 19eb 4F535F46 		.ascii	"OS_FN_FPRT_INFO_SET\000"
 15299      4E5F4650 
 15299      52545F49 
 15299      4E464F5F 
 15299      53455400 
 15300              	.LASF0:
 15301 19ff 756E7369 		.ascii	"unsigned int\000"
 15301      676E6564 
 15301      20696E74 
 15301      00
 15302              	.LASF697:
 15303 1a0c 7379735F 		.ascii	"sys_func1\000"
 15303      66756E63 
 15303      3100
 15304              	.LASF692:
 15305 1a16 7379735F 		.ascii	"sys_func2\000"
 15305      66756E63 
 15305      3200
 15306              	.LASF691:
 15307 1a20 7379735F 		.ascii	"sys_func3\000"
 15307      66756E63 
 15307      3300
 15308              	.LASF470:
 15309 1a2a 4F535F46 		.ascii	"OS_FN_DTIMER_LATCH_TIME\000"
 15309      4E5F4454 
 15309      494D4552 
 15309      5F4C4154 
 15309      43485F54 
 15310              	.LASF348:
 15311 1a42 4F535F46 		.ascii	"OS_FN_CLICC_SENDCOMMAND\000"
 15311      4E5F434C 
 15311      4943435F 
 15311      53454E44 
ARM GAS  C:\Users\AHMED~1.ELE\AppData\Local\Temp\ccaBET3e.s 			page 337


 15311      434F4D4D 
 15312              	.LASF461:
 15313 1a5a 4F535F46 		.ascii	"OS_FN_DLL_REQ\000"
 15313      4E5F444C 
 15313      4C5F5245 
 15313      5100
 15314              	.LASF201:
 15315 1a68 4F535F46 		.ascii	"OS_FN_FILE_GETC\000"
 15315      4E5F4649 
 15315      4C455F47 
 15315      45544300 
 15316              	.LASF421:
 15317 1a78 4F535F46 		.ascii	"OS_FN_BARCODE_READ\000"
 15317      4E5F4241 
 15317      52434F44 
 15317      455F5245 
 15317      414400
 15318              	.LASF377:
 15319 1a8b 4F535F46 		.ascii	"OS_FN_INTERRUPT_UNREGISTER\000"
 15319      4E5F494E 
 15319      54455252 
 15319      5550545F 
 15319      554E5245 
 15320              	.LASF498:
 15321 1aa6 4F535F46 		.ascii	"OS_FN_IMG_SENSOR_GET_FRAME_COMPLETE\000"
 15321      4E5F494D 
 15321      475F5345 
 15321      4E534F52 
 15321      5F474554 
 15322              	.LASF322:
 15323 1aca 4F535F46 		.ascii	"OS_FN_GPRS_CONTROL\000"
 15323      4E5F4750 
 15323      52535F43 
 15323      4F4E5452 
 15323      4F4C00
 15324              	.LASF443:
 15325 1add 4F535F46 		.ascii	"OS_FN_GPRS_GET_GPS_INFO\000"
 15325      4E5F4750 
 15325      52535F47 
 15325      45545F47 
 15325      50535F49 
 15326              	.LASF3:
 15327 1af5 73686F72 		.ascii	"short int\000"
 15327      7420696E 
 15327      7400
 15328              	.LASF527:
 15329 1aff 775F6469 		.ascii	"w_digest_len\000"
 15329      67657374 
 15329      5F6C656E 
 15329      00
 15330              	.LASF151:
 15331 1b0c 4F535F46 		.ascii	"OS_FN_KEY_CBC_MAC\000"
 15331      4E5F4B45 
 15331      595F4342 
 15331      435F4D41 
 15331      4300
 15332              	.LASF117:
ARM GAS  C:\Users\AHMED~1.ELE\AppData\Local\Temp\ccaBET3e.s 			page 338


 15333 1b1e 4F535F46 		.ascii	"OS_FN_AES_SETUP_KEY\000"
 15333      4E5F4145 
 15333      535F5345 
 15333      5455505F 
 15333      4B455900 
 15334              	.LASF374:
 15335 1b32 4F535F46 		.ascii	"OS_FN_DEVICE_MOUNT\000"
 15335      4E5F4445 
 15335      56494345 
 15335      5F4D4F55 
 15335      4E5400
 15336              	.LASF113:
 15337 1b45 4F535F46 		.ascii	"OS_FN_NEW_DES\000"
 15337      4E5F4E45 
 15337      575F4445 
 15337      5300
 15338              	.LASF31:
 15339 1b53 545F5348 		.ascii	"T_SHA384_CONTEXT\000"
 15339      41333834 
 15339      5F434F4E 
 15339      54455854 
 15339      00
 15340              	.LASF207:
 15341 1b64 4F535F46 		.ascii	"OS_FN_FILE_DEACTIVATE\000"
 15341      4E5F4649 
 15341      4C455F44 
 15341      45414354 
 15341      49564154 
 15342              	.LASF390:
 15343 1b7a 4F535F46 		.ascii	"OS_FN_TAMPER_ON\000"
 15343      4E5F5441 
 15343      4D504552 
 15343      5F4F4E00 
 15344              	.LASF281:
 15345 1b8a 4F535F46 		.ascii	"OS_FN_FL_PGM_END\000"
 15345      4E5F464C 
 15345      5F50474D 
 15345      5F454E44 
 15345      00
 15346              	.LASF32:
 15347 1b9b 545F5348 		.ascii	"T_SHA256_CONTEXT\000"
 15347      41323536 
 15347      5F434F4E 
 15347      54455854 
 15347      00
 15348              	.LASF288:
 15349 1bac 4F535F46 		.ascii	"OS_FN_FL_CREAD\000"
 15349      4E5F464C 
 15349      5F435245 
 15349      414400
 15350              	.LASF439:
 15351 1bbb 4F535F46 		.ascii	"OS_FN_NFC_IC_REG_DIRECT_READ\000"
 15351      4E5F4E46 
 15351      435F4943 
 15351      5F524547 
 15351      5F444952 
 15352              	.LASF531:
ARM GAS  C:\Users\AHMED~1.ELE\AppData\Local\Temp\ccaBET3e.s 			page 339


 15353 1bd8 735F6469 		.ascii	"s_digest\000"
 15353      67657374 
 15353      00
 15354              	.LASF623:
 15355 1be1 78353039 		.ascii	"x509_get_big\000"
 15355      5F676574 
 15355      5F626967 
 15355      00
 15356              	.LASF412:
 15357 1bee 4F535F46 		.ascii	"OS_FN_MIF_SNO\000"
 15357      4E5F4D49 
 15357      465F534E 
 15357      4F00
 15358              	.LASF154:
 15359 1bfc 4F535F46 		.ascii	"OS_FN_KEY_SAVE_TMK_NC\000"
 15359      4E5F4B45 
 15359      595F5341 
 15359      56455F54 
 15359      4D4B5F4E 
 15360              	.LASF275:
 15361 1c12 4F535F46 		.ascii	"OS_FN_FL_STATUS\000"
 15361      4E5F464C 
 15361      5F535441 
 15361      54555300 
 15362              	.LASF654:
 15363 1c22 78353039 		.ascii	"x509_get_SerialNum\000"
 15363      5F676574 
 15363      5F536572 
 15363      69616C4E 
 15363      756D00
 15364              	.LASF606:
 15365 1c35 78353039 		.ascii	"x509_get_integer\000"
 15365      5F676574 
 15365      5F696E74 
 15365      65676572 
 15365      00
 15366              	.LASF519:
 15367 1c46 645F6D61 		.ascii	"d_mask_gen_func\000"
 15367      736B5F67 
 15367      656E5F66 
 15367      756E6300 
 15368              	.LASF136:
 15369 1c56 4F535F46 		.ascii	"OS_FN_SM2_DECRYPT\000"
 15369      4E5F534D 
 15369      325F4445 
 15369      43525950 
 15369      5400
 15370              	.LASF248:
 15371 1c68 4F535F46 		.ascii	"OS_FN_SLE_HIST\000"
 15371      4E5F534C 
 15371      455F4849 
 15371      535400
 15372              	.LASF576:
 15373 1c77 615F6C65 		.ascii	"a_len\000"
 15373      6E00
 15374              	.LASF449:
 15375 1c7d 4F535F46 		.ascii	"OS_FN_BREG_WRITE\000"
ARM GAS  C:\Users\AHMED~1.ELE\AppData\Local\Temp\ccaBET3e.s 			page 340


 15375      4E5F4252 
 15375      45475F57 
 15375      52495445 
 15375      00
 15376              	.LASF453:
 15377 1c8e 4F535F46 		.ascii	"OS_FN_POWER_SLEEP\000"
 15377      4E5F504F 
 15377      5745525F 
 15377      534C4545 
 15377      5000
 15378              	.LASF141:
 15379 1ca0 4F535F46 		.ascii	"OS_FN_SM4_ENCRYPT\000"
 15379      4E5F534D 
 15379      345F454E 
 15379      43525950 
 15379      5400
 15380              	.LASF240:
 15381 1cb2 4F535F46 		.ascii	"OS_FN_MMC_PSTATUS\000"
 15381      4E5F4D4D 
 15381      435F5053 
 15381      54415455 
 15381      5300
 15382              	.LASF277:
 15383 1cc4 4F535F46 		.ascii	"OS_FN_FL_PAGE\000"
 15383      4E5F464C 
 15383      5F504147 
 15383      4500
 15384              	.LASF646:
 15385 1cd2 705F7073 		.ascii	"p_pss\000"
 15385      7300
 15386              	.LASF340:
 15387 1cd8 4F535F46 		.ascii	"OS_FN_CODEC_PLAY\000"
 15387      4E5F434F 
 15387      4445435F 
 15387      504C4159 
 15387      00
 15388              	.LASF74:
 15389 1ce9 4F535F46 		.ascii	"OS_FN_DISP_BL_CONTROL\000"
 15389      4E5F4449 
 15389      53505F42 
 15389      4C5F434F 
 15389      4E54524F 
 15390              	.LASF14:
 15391 1cff 574F5244 		.ascii	"WORD\000"
 15391      00
 15392              	.LASF381:
 15393 1d04 4F535F46 		.ascii	"OS_FN_NETDEV_OPEN\000"
 15393      4E5F4E45 
 15393      54444556 
 15393      5F4F5045 
 15393      4E00
 15394              	.LASF485:
 15395 1d16 4F535F46 		.ascii	"OS_FN_GCM_AES_FINISH\000"
 15395      4E5F4743 
 15395      4D5F4145 
 15395      535F4649 
 15395      4E495348 
ARM GAS  C:\Users\AHMED~1.ELE\AppData\Local\Temp\ccaBET3e.s 			page 341


 15396              	.LASF343:
 15397 1d2b 4F535F46 		.ascii	"OS_FN_CODEC_STATUS\000"
 15397      4E5F434F 
 15397      4445435F 
 15397      53544154 
 15397      555300
 15398              	.LASF354:
 15399 1d3e 4F535F46 		.ascii	"OS_FN_CLICC_LED_SET\000"
 15399      4E5F434C 
 15399      4943435F 
 15399      4C45445F 
 15399      53455400 
 15400              	.LASF535:
 15401 1d52 455F4861 		.ascii	"E_HashOps_AlgoId_MIN\000"
 15401      73684F70 
 15401      735F416C 
 15401      676F4964 
 15401      5F4D494E 
 15402              	.LASF432:
 15403 1d67 4F535F46 		.ascii	"OS_FN_NFC_SEND_FELICA_COMMAND\000"
 15403      4E5F4E46 
 15403      435F5345 
 15403      4E445F46 
 15403      454C4943 
 15404              	.LASF65:
 15405 1d85 4F535F46 		.ascii	"OS_FN_DISP_GETG\000"
 15405      4E5F4449 
 15405      53505F47 
 15405      45544700 
 15406              	.LASF349:
 15407 1d95 4F535F46 		.ascii	"OS_FN_CLICC_CTRL\000"
 15407      4E5F434C 
 15407      4943435F 
 15407      4354524C 
 15407      00
 15408              	.LASF242:
 15409 1da6 4F535F46 		.ascii	"OS_FN_MMC_BLK_WRITE\000"
 15409      4E5F4D4D 
 15409      435F424C 
 15409      4B5F5752 
 15409      49544500 
 15410              	.LASF139:
 15411 1dba 4F535F46 		.ascii	"OS_FN_SM3\000"
 15411      4E5F534D 
 15411      3300
 15412              	.LASF619:
 15413 1dc4 78353039 		.ascii	"x509_get_algorithm_identifier\000"
 15413      5F676574 
 15413      5F616C67 
 15413      6F726974 
 15413      686D5F69 
 15414              	.LASF387:
 15415 1de2 4F535F46 		.ascii	"OS_FN_USBKBD_CLOSE\000"
 15415      4E5F5553 
 15415      424B4244 
 15415      5F434C4F 
 15415      534500
ARM GAS  C:\Users\AHMED~1.ELE\AppData\Local\Temp\ccaBET3e.s 			page 342


 15416              	.LASF382:
 15417 1df5 4F535F46 		.ascii	"OS_FN_NETDEV_CLOSE\000"
 15417      4E5F4E45 
 15417      54444556 
 15417      5F434C4F 
 15417      534500
 15418              	.LASF211:
 15419 1e08 4F535F46 		.ascii	"OS_FN_FILE_AUTH\000"
 15419      4E5F4649 
 15419      4C455F41 
 15419      55544800 
 15420              	.LASF290:
 15421 1e18 4F535F46 		.ascii	"OS_FN_FL_COPYBACK\000"
 15421      4E5F464C 
 15421      5F434F50 
 15421      59424143 
 15421      4B00
 15422              	.LASF669:
 15423 1e2a 78353039 		.ascii	"x509_get_boolean\000"
 15423      5F676574 
 15423      5F626F6F 
 15423      6C65616E 
 15423      00
 15424              	.LASF45:
 15425 1e3b 4F535F46 		.ascii	"OS_FN_KBD_INKEY\000"
 15425      4E5F4B42 
 15425      445F494E 
 15425      4B455900 
 15426              	.LASF93:
 15427 1e4b 4F535F46 		.ascii	"OS_FN_COM2_READ\000"
 15427      4E5F434F 
 15427      4D325F52 
 15427      45414400 
 15428              	.LASF609:
 15429 1e5b 615F7365 		.ascii	"a_seqlen\000"
 15429      716C656E 
 15429      00
 15430              	.LASF53:
 15431 1e64 4F535F46 		.ascii	"OS_FN_TIMER_GET\000"
 15431      4E5F5449 
 15431      4D45525F 
 15431      47455400 
 15432              	.LASF649:
 15433 1e74 68617368 		.ascii	"hash_ctx\000"
 15433      5F637478 
 15433      00
 15434              	.LASF202:
 15435 1e7d 4F535F46 		.ascii	"OS_FN_FILE_LENGTH\000"
 15435      4E5F4649 
 15435      4C455F4C 
 15435      454E4754 
 15435      4800
 15436              	.LASF512:
 15437 1e8f 454E445F 		.ascii	"END_OF_OS_FN_LIST\000"
 15437      4F465F4F 
 15437      535F464E 
 15437      5F4C4953 
ARM GAS  C:\Users\AHMED~1.ELE\AppData\Local\Temp\ccaBET3e.s 			page 343


 15437      5400
 15438              	.LASF699:
 15439 1ea1 7372632F 		.ascii	"src/x509.c\000"
 15439      78353039 
 15439      2E6300
 15440              	.LASF592:
 15441 1eac 73656564 		.ascii	"seed\000"
 15441      00
 15442              	.LASF186:
 15443 1eb1 4F535F46 		.ascii	"OS_FN_MALLOC\000"
 15443      4E5F4D41 
 15443      4C4C4F43 
 15443      00
 15444              	.LASF389:
 15445 1ebe 4F535F46 		.ascii	"OS_FN_USBKBD_GETKEY\000"
 15445      4E5F5553 
 15445      424B4244 
 15445      5F474554 
 15445      4B455900 
 15446              	.LASF94:
 15447 1ed2 4F535F46 		.ascii	"OS_FN_COM2_SEND\000"
 15447      4E5F434F 
 15447      4D325F53 
 15447      454E4400 
 15448              	.LASF497:
 15449 1ee2 4F535F46 		.ascii	"OS_FN_IMG_SENSOR_GET_FRAME\000"
 15449      4E5F494D 
 15449      475F5345 
 15449      4E534F52 
 15449      5F474554 
 15450              	.LASF444:
 15451 1efd 4F535F46 		.ascii	"OS_FN_GPS_CMD\000"
 15451      4E5F4750 
 15451      535F434D 
 15451      4400
 15452              	.LASF424:
 15453 1f0b 4F535F46 		.ascii	"OS_FN_BARCODE_ENABLED\000"
 15453      4E5F4241 
 15453      52434F44 
 15453      455F454E 
 15453      41424C45 
 15454              	.LASF195:
 15455 1f21 4F535F46 		.ascii	"OS_FN_FILE_DELETE\000"
 15455      4E5F4649 
 15455      4C455F44 
 15455      454C4554 
 15455      4500
 15456              	.LASF171:
 15457 1f33 4F535F46 		.ascii	"OS_FN_BUFMAN_REALLOC\000"
 15457      4E5F4255 
 15457      464D414E 
 15457      5F524541 
 15457      4C4C4F43 
 15458              	.LASF336:
 15459 1f48 4F535F46 		.ascii	"OS_FN_TPAD_CALIBRATE\000"
 15459      4E5F5450 
 15459      41445F43 
ARM GAS  C:\Users\AHMED~1.ELE\AppData\Local\Temp\ccaBET3e.s 			page 344


 15459      414C4942 
 15459      52415445 
 15460              	.LASF574:
 15461 1f5d 78353039 		.ascii	"x509_get_explicit_extensions\000"
 15461      5F676574 
 15461      5F657870 
 15461      6C696369 
 15461      745F6578 
 15462              	.LASF25:
 15463 1f7a 645F746F 		.ascii	"d_tot_len\000"
 15463      745F6C65 
 15463      6E00
 15464              	.LASF545:
 15465 1f84 735F7368 		.ascii	"s_sha1\000"
 15465      613100
 15466              	.LASF131:
 15467 1f8b 4F535F46 		.ascii	"OS_FN_SM2_SET_CURVE\000"
 15467      4E5F534D 
 15467      325F5345 
 15467      545F4355 
 15467      52564500 
 15468              	.LASF298:
 15469 1f9f 4F535F46 		.ascii	"OS_FN_MCOM_OPEN\000"
 15469      4E5F4D43 
 15469      4F4D5F4F 
 15469      50454E00 
 15470              	.LASF355:
 15471 1faf 4F535F46 		.ascii	"OS_FN_CLICC_LED_CLEAR\000"
 15471      4E5F434C 
 15471      4943435F 
 15471      4C45445F 
 15471      434C4541 
 15472              	.LASF182:
 15473 1fc5 4F535F46 		.ascii	"OS_FN_APP_SEARCH_NAME\000"
 15473      4E5F4150 
 15473      505F5345 
 15473      41524348 
 15473      5F4E414D 
 15474              	.LASF125:
 15475 1fdb 4F535F46 		.ascii	"OS_FN_SHA_PROCESS\000"
 15475      4E5F5348 
 15475      415F5052 
 15475      4F434553 
 15475      5300
 15476              	.LASF681:
 15477 1fed 63657274 		.ascii	"certAlgorithm_pss_param\000"
 15477      416C676F 
 15477      72697468 
 15477      6D5F7073 
 15477      735F7061 
 15478              	.LASF385:
 15479 2005 4F535F46 		.ascii	"OS_FN_NETDEV_IOCTL\000"
 15479      4E5F4E45 
 15479      54444556 
 15479      5F494F43 
 15479      544C00
 15480              	.LASF108:
ARM GAS  C:\Users\AHMED~1.ELE\AppData\Local\Temp\ccaBET3e.s 			page 345


 15481 2018 4F535F46 		.ascii	"OS_FN_DES\000"
 15481      4E5F4445 
 15481      5300
 15482              	.LASF499:
 15483 2022 4F535F46 		.ascii	"OS_FN_IMG_SENSOR_CLOSE\000"
 15483      4E5F494D 
 15483      475F5345 
 15483      4E534F52 
 15483      5F434C4F 
 15484              	.LASF81:
 15485 2039 4F535F46 		.ascii	"OS_FN_COM1_CLOSE\000"
 15485      4E5F434F 
 15485      4D315F43 
 15485      4C4F5345 
 15485      00
 15486              	.LASF47:
 15487 204a 4F535F46 		.ascii	"OS_FN_KBD_GETKEY\000"
 15487      4E5F4B42 
 15487      445F4745 
 15487      544B4559 
 15487      00
 15488              	.LASF518:
 15489 205b 645F6861 		.ascii	"d_hash_algo\000"
 15489      73685F61 
 15489      6C676F00 
 15490              	.LASF359:
 15491 2067 4F535F46 		.ascii	"OS_FN_USBHOST_RESET_DEVICE\000"
 15491      4E5F5553 
 15491      42484F53 
 15491      545F5245 
 15491      5345545F 
 15492              	.LASF642:
 15493 2082 656D4269 		.ascii	"emBits\000"
 15493      747300
 15494              	.LASF445:
 15495 2089 4F535F46 		.ascii	"OS_FN_GPS_RESP\000"
 15495      4E5F4750 
 15495      535F5245 
 15495      535000
 15496              	.LASF332:
 15497 2098 4F535F46 		.ascii	"OS_FN_TPAD_ADD_OBJ\000"
 15497      4E5F5450 
 15497      41445F41 
 15497      44445F4F 
 15497      424A00
 15498              	.LASF30:
 15499 20ab 545F5348 		.ascii	"T_SHA512_CONTEXT\000"
 15499      41353132 
 15499      5F434F4E 
 15499      54455854 
 15499      00
 15500              	.LASF603:
 15501 20bc 615F7369 		.ascii	"a_size\000"
 15501      7A6500
 15502              	.LASF534:
 15503 20c3 545F5835 		.ascii	"T_X509_CERT_INFO\000"
 15503      30395F43 
ARM GAS  C:\Users\AHMED~1.ELE\AppData\Local\Temp\ccaBET3e.s 			page 346


 15503      4552545F 
 15503      494E464F 
 15503      00
 15504              	.LASF8:
 15505 20d4 6C6F6E67 		.ascii	"long long unsigned int\000"
 15505      206C6F6E 
 15505      6720756E 
 15505      7369676E 
 15505      65642069 
 15506              	.LASF223:
 15507 20eb 4F535F46 		.ascii	"OS_FN_FILE_IOCTL\000"
 15507      4E5F4649 
 15507      4C455F49 
 15507      4F43544C 
 15507      00
 15508              	.LASF204:
 15509 20fc 4F535F46 		.ascii	"OS_FN_FILE_SEARCH\000"
 15509      4E5F4649 
 15509      4C455F53 
 15509      45415243 
 15509      4800
 15510              	.LASF435:
 15511 210e 4F535F46 		.ascii	"OS_FN_NFC_GET_VALID_RESP\000"
 15511      4E5F4E46 
 15511      435F4745 
 15511      545F5641 
 15511      4C49445F 
 15512              	.LASF688:
 15513 2127 615F6365 		.ascii	"a_cert_signer\000"
 15513      72745F73 
 15513      69676E65 
 15513      7200
 15514              	.LASF671:
 15515 2135 626C656E 		.ascii	"blen\000"
 15515      00
 15516              	.LASF652:
 15517 213a 7369676E 		.ascii	"sign_len\000"
 15517      5F6C656E 
 15517      00
 15518              	.LASF34:
 15519 2143 545F5348 		.ascii	"T_SHA1_CONTEXT\000"
 15519      41315F43 
 15519      4F4E5445 
 15519      585400
 15520              	.LASF658:
 15521 2152 74696D65 		.ascii	"timeFormat\000"
 15521      466F726D 
 15521      617400
 15522              	.LASF508:
 15523 215d 4F535F46 		.ascii	"OS_FN_TAMPER_UNLOCK\000"
 15523      4E5F5441 
 15523      4D504552 
 15523      5F554E4C 
 15523      4F434B00 
 15524              	.LASF575:
 15525 2171 78353039 		.ascii	"x509_get_explicit_version\000"
 15525      5F676574 
ARM GAS  C:\Users\AHMED~1.ELE\AppData\Local\Temp\ccaBET3e.s 			page 347


 15525      5F657870 
 15525      6C696369 
 15525      745F7665 
 15526              	.LASF365:
 15527 218b 4F535F46 		.ascii	"OS_FN_DRIVER_UNREGISTER\000"
 15527      4E5F4452 
 15527      49564552 
 15527      5F554E52 
 15527      45474953 
 15528              	.LASF489:
 15529 21a3 4F535F46 		.ascii	"OS_FN_WIFI_SOCKET_DISCONNECT\000"
 15529      4E5F5749 
 15529      46495F53 
 15529      4F434B45 
 15529      545F4449 
 15530              	.LASF666:
 15531 21c0 6B65794C 		.ascii	"keyLen\000"
 15531      656E00
 15532              	.LASF561:
 15533 21c7 615F6578 		.ascii	"a_expVal\000"
 15533      7056616C 
 15533      00
 15534              	.LASF659:
 15535 21d0 63757272 		.ascii	"currTime\000"
 15535      54696D65 
 15535      00
 15536              	.LASF335:
 15537 21d9 4F535F46 		.ascii	"OS_FN_TPAD_ALERT_RETURN\000"
 15537      4E5F5450 
 15537      41445F41 
 15537      4C455254 
 15537      5F524554 
 15538              	.LASF155:
 15539 21f1 4F535F46 		.ascii	"OS_FN_KEY_SAVE_TMK_CBC\000"
 15539      4E5F4B45 
 15539      595F5341 
 15539      56455F54 
 15539      4D4B5F43 
 15540              	.LASF111:
 15541 2208 4F535F46 		.ascii	"OS_FN_COM_DES\000"
 15541      4E5F434F 
 15541      4D5F4445 
 15541      5300
 15542              	.LASF130:
 15543 2216 4F535F46 		.ascii	"OS_FN_MD4_FINISH\000"
 15543      4E5F4D44 
 15543      345F4649 
 15543      4E495348 
 15543      00
 15544              	.LASF98:
 15545 2227 4F535F46 		.ascii	"OS_FN_COM3_OPEN\000"
 15545      4E5F434F 
 15545      4D335F4F 
 15545      50454E00 
 15546              	.LASF468:
 15547 2237 4F535F46 		.ascii	"OS_FN_DTIMER_LATCH_START\000"
 15547      4E5F4454 
ARM GAS  C:\Users\AHMED~1.ELE\AppData\Local\Temp\ccaBET3e.s 			page 348


 15547      494D4552 
 15547      5F4C4154 
 15547      43485F53 
 15548              	.LASF285:
 15549 2250 4F535F46 		.ascii	"OS_FN_FL_COPYB_PGM\000"
 15549      4E5F464C 
 15549      5F434F50 
 15549      59425F50 
 15549      474D00
 15550              	.LASF510:
 15551 2263 4F535F46 		.ascii	"OS_FN_IMG_SENSOR_SET_MODE\000"
 15551      4E5F494D 
 15551      475F5345 
 15551      4E534F52 
 15551      5F534554 
 15552              	.LASF528:
 15553 227d 735F7369 		.ascii	"s_signature\000"
 15553      676E6174 
 15553      75726500 
 15554              	.LASF286:
 15555 2289 4F535F46 		.ascii	"OS_FN_FL_COPYB_END\000"
 15555      4E5F464C 
 15555      5F434F50 
 15555      59425F45 
 15555      4E4400
 15556              	.LASF90:
 15557 229c 4F535F46 		.ascii	"OS_FN_COM2_CLOSE\000"
 15557      4E5F434F 
 15557      4D325F43 
 15557      4C4F5345 
 15557      00
 15558              	.LASF245:
 15559 22ad 4F535F46 		.ascii	"OS_FN_MMC_INSERTED\000"
 15559      4E5F4D4D 
 15559      435F494E 
 15559      53455254 
 15559      454400
 15560              	.LASF446:
 15561 22c0 4F535F46 		.ascii	"OS_FN_GPS_RESET\000"
 15561      4E5F4750 
 15561      535F5245 
 15561      53455400 
 15562              	.LASF676:
 15563 22d0 63657274 		.ascii	"certLen\000"
 15563      4C656E00 
 15564              	.LASF393:
 15565 22d8 4F535F46 		.ascii	"OS_FN_MIF_OPEN\000"
 15565      4E5F4D49 
 15565      465F4F50 
 15565      454E00
 15566              	.LASF482:
 15567 22e7 4F535F46 		.ascii	"OS_FN_GCM_AES_INIT\000"
 15567      4E5F4743 
 15567      4D5F4145 
 15567      535F494E 
 15567      495400
 15568              	.LASF507:
ARM GAS  C:\Users\AHMED~1.ELE\AppData\Local\Temp\ccaBET3e.s 			page 349


 15569 22fa 4F535F46 		.ascii	"OS_FN_WIFI_SET_REGULATORY_DOMAIN\000"
 15569      4E5F5749 
 15569      46495F53 
 15569      45545F52 
 15569      4547554C 
 15570              	.LASF309:
 15571 231b 4F535F46 		.ascii	"OS_FN_BATT_TEMP\000"
 15571      4E5F4241 
 15571      54545F54 
 15571      454D5000 
 15572              	.LASF410:
 15573 232b 4F535F46 		.ascii	"OS_FN_MIF_TRANSFER\000"
 15573      4E5F4D49 
 15573      465F5452 
 15573      414E5346 
 15573      455200
 15574              	.LASF695:
 15575 233e 6D656D73 		.ascii	"memset\000"
 15575      657400
 15576              	.LASF51:
 15577 2345 4F535F46 		.ascii	"OS_FN_TIMER_CLOSE\000"
 15577      4E5F5449 
 15577      4D45525F 
 15577      434C4F53 
 15577      4500
 15578              	.LASF172:
 15579 2357 4F535F46 		.ascii	"OS_FN_BUFMAN_SHRINK\000"
 15579      4E5F4255 
 15579      464D414E 
 15579      5F534852 
 15579      494E4B00 
 15580              	.LASF299:
 15581 236b 4F535F46 		.ascii	"OS_FN_MCOM_CLOSE\000"
 15581      4E5F4D43 
 15581      4F4D5F43 
 15581      4C4F5345 
 15581      00
 15582              	.LASF128:
 15583 237c 4F535F46 		.ascii	"OS_FN_RC4_ENCRYPT\000"
 15583      4E5F5243 
 15583      345F454E 
 15583      43525950 
 15583      5400
 15584              	.LASF422:
 15585 238e 4F535F46 		.ascii	"OS_FN_BARCODE_ABORT\000"
 15585      4E5F4241 
 15585      52434F44 
 15585      455F4142 
 15585      4F525400 
 15586              	.LASF582:
 15587 23a2 6C6C656E 		.ascii	"llen\000"
 15587      00
 15588              	.LASF419:
 15589 23a7 4F535F46 		.ascii	"OS_FN_BARCODE_CMD\000"
 15589      4E5F4241 
 15589      52434F44 
 15589      455F434D 
ARM GAS  C:\Users\AHMED~1.ELE\AppData\Local\Temp\ccaBET3e.s 			page 350


 15589      4400
 15590              	.LASF538:
 15591 23b9 455F4861 		.ascii	"E_HashOps_AlgoId_sha224\000"
 15591      73684F70 
 15591      735F416C 
 15591      676F4964 
 15591      5F736861 
 15592              	.LASF57:
 15593 23d1 4F535F46 		.ascii	"OS_FN_BUZ_STATE\000"
 15593      4E5F4255 
 15593      5A5F5354 
 15593      41544500 
 15594              	.LASF328:
 15595 23e1 4F535F46 		.ascii	"OS_FN_GPRS_SMS_CONTROL\000"
 15595      4E5F4750 
 15595      52535F53 
 15595      4D535F43 
 15595      4F4E5452 
 15596              	.LASF252:
 15597 23f8 4F535F46 		.ascii	"OS_FN_LAN_RXRDY\000"
 15597      4E5F4C41 
 15597      4E5F5258 
 15597      52445900 
 15598              	.LASF59:
 15599 2408 4F535F46 		.ascii	"OS_FN_RTC_SET\000"
 15599      4E5F5254 
 15599      435F5345 
 15599      5400
 15600              	.LASF236:
 15601 2416 4F535F46 		.ascii	"OS_FN_MMC_OPEN\000"
 15601      4E5F4D4D 
 15601      435F4F50 
 15601      454E00
 15602              	.LASF617:
 15603 2425 6172634C 		.ascii	"arcLen\000"
 15603      656E00
 15604              	.LASF370:
 15605 242c 4F535F46 		.ascii	"OS_FN_DEVICE_IOCTL\000"
 15605      4E5F4445 
 15605      56494345 
 15605      5F494F43 
 15605      544C00
 15606              	.LASF179:
 15607 243f 4F535F46 		.ascii	"OS_FN_GET_CHALLENGE\000"
 15607      4E5F4745 
 15607      545F4348 
 15607      414C4C45 
 15607      4E474500 
 15608              	.LASF241:
 15609 2453 4F535F46 		.ascii	"OS_FN_MMC_BLK_READ\000"
 15609      4E5F4D4D 
 15609      435F424C 
 15609      4B5F5245 
 15609      414400
 15610              	.LASF555:
 15611 2466 696E6974 		.ascii	"init\000"
 15611      00
ARM GAS  C:\Users\AHMED~1.ELE\AppData\Local\Temp\ccaBET3e.s 			page 351


 15612              	.LASF121:
 15613 246b 4F535F46 		.ascii	"OS_FN_MD5_INIT\000"
 15613      4E5F4D44 
 15613      355F494E 
 15613      495400
 15614              	.LASF563:
 15615 247a 65787445 		.ascii	"extEnd\000"
 15615      6E6400
 15616              	.LASF624:
 15617 2481 615F6269 		.ascii	"a_big\000"
 15617      6700
 15618              	.LASF696:
 15619 2487 6D656D63 		.ascii	"memcmp\000"
 15619      6D7000
 15620              	.LASF168:
 15621 248e 4F535F46 		.ascii	"OS_FN_THREAD_RETURN\000"
 15621      4E5F5448 
 15621      52454144 
 15621      5F524554 
 15621      55524E00 
 15622              	.LASF227:
 15623 24a2 4F535F46 		.ascii	"OS_FN_CONFIG_UPDATE\000"
 15623      4E5F434F 
 15623      4E464947 
 15623      5F555044 
 15623      41544500 
 15624              	.LASF436:
 15625 24b6 4F535F46 		.ascii	"OS_FN_NFC_INFO_GET\000"
 15625      4E5F4E46 
 15625      435F494E 
 15625      464F5F47 
 15625      455400
 15626              	.LASF662:
 15627 24c9 78353039 		.ascii	"x509_get_pubkey\000"
 15627      5F676574 
 15627      5F707562 
 15627      6B657900 
 15628              	.LASF215:
 15629 24d9 4F535F46 		.ascii	"OS_FN_FILE_GET_SYSTEMINFO\000"
 15629      4E5F4649 
 15629      4C455F47 
 15629      45545F53 
 15629      59535445 
 15630              	.LASF402:
 15631 24f3 4F535F46 		.ascii	"OS_FN_MIF_LOAD_KEY\000"
 15631      4E5F4D49 
 15631      465F4C4F 
 15631      41445F4B 
 15631      455900
 15632              	.LASF124:
 15633 2506 4F535F46 		.ascii	"OS_FN_SHA_INIT\000"
 15633      4E5F5348 
 15633      415F494E 
 15633      495400
 15634              	.LASF546:
 15635 2515 735F7368 		.ascii	"s_sha224\000"
 15635      61323234 
ARM GAS  C:\Users\AHMED~1.ELE\AppData\Local\Temp\ccaBET3e.s 			page 352


 15635      00
 15636              	.LASF608:
 15637 251e 78353039 		.ascii	"x509_get_sequence\000"
 15637      5F676574 
 15637      5F736571 
 15637      75656E63 
 15637      6500
 15638              	.LASF369:
 15639 2530 4F535F46 		.ascii	"OS_FN_DEVICE_ALLOC_MEDIA\000"
 15639      4E5F4445 
 15639      56494345 
 15639      5F414C4C 
 15639      4F435F4D 
 15640              	.LASF483:
 15641 2549 4F535F46 		.ascii	"OS_FN_GCM_AES_PROCESS_AAD\000"
 15641      4E5F4743 
 15641      4D5F4145 
 15641      535F5052 
 15641      4F434553 
 15642              	.LASF391:
 15643 2563 4F535F46 		.ascii	"OS_FN_TAMPER_GET_STATUS\000"
 15643      4E5F5441 
 15643      4D504552 
 15643      5F474554 
 15643      5F535441 
 15644              	.LASF194:
 15645 257b 4F535F46 		.ascii	"OS_FN_FILE_RENAME\000"
 15645      4E5F4649 
 15645      4C455F52 
 15645      454E414D 
 15645      4500
 15646              	.LASF103:
 15647 258d 4F535F46 		.ascii	"OS_FN_COM3_SEND\000"
 15647      4E5F434F 
 15647      4D335F53 
 15647      454E4400 
 15648              	.LASF599:
 15649 259d 6F75745F 		.ascii	"out_bytes\000"
 15649      62797465 
 15649      7300
 15650              	.LASF148:
 15651 25a7 4F535F46 		.ascii	"OS_FN_KEY_DUKPT_ENCRYPT\000"
 15651      4E5F4B45 
 15651      595F4455 
 15651      4B50545F 
 15651      454E4352 
 15652              	.LASF165:
 15653 25bf 4F535F46 		.ascii	"OS_FN_THREAD_UNLOCK\000"
 15653      4E5F5448 
 15653      52454144 
 15653      5F554E4C 
 15653      4F434B00 
 15654              	.LASF394:
 15655 25d3 4F535F46 		.ascii	"OS_FN_MIF_CLOSE\000"
 15655      4E5F4D49 
 15655      465F434C 
 15655      4F534500 
ARM GAS  C:\Users\AHMED~1.ELE\AppData\Local\Temp\ccaBET3e.s 			page 353


 15656              	.LASF331:
 15657 25e3 4F535F46 		.ascii	"OS_FN_TPAD_CLOSE\000"
 15657      4E5F5450 
 15657      41445F43 
 15657      4C4F5345 
 15657      00
 15658              	.LASF674:
 15659 25f4 63657274 		.ascii	"certStart\000"
 15659      53746172 
 15659      7400
 15660              	.LASF231:
 15661 25fe 4F535F46 		.ascii	"OS_FN_SAM_INSERTED\000"
 15661      4E5F5341 
 15661      4D5F494E 
 15661      53455254 
 15661      454400
 15662              	.LASF353:
 15663 2611 4F535F46 		.ascii	"OS_FN_CLICC_LED_STATUS\000"
 15663      4E5F434C 
 15663      4943435F 
 15663      4C45445F 
 15663      53544154 
 15664              	.LASF344:
 15665 2628 4F535F46 		.ascii	"OS_FN_CLICC_OPEN\000"
 15665      4E5F434C 
 15665      4943435F 
 15665      4F50454E 
 15665      00
 15666              	.LASF88:
 15667 2639 4F535F46 		.ascii	"OS_FN_COM1_SSEND\000"
 15667      4E5F434F 
 15667      4D315F53 
 15667      53454E44 
 15667      00
 15668              	.LASF371:
 15669 264a 4F535F46 		.ascii	"OS_FN_DEVICE_SEARCH_INIT\000"
 15669      4E5F4445 
 15669      56494345 
 15669      5F534541 
 15669      5243485F 
 15670              	.LASF306:
 15671 2663 4F535F46 		.ascii	"OS_FN_MCOM_READ\000"
 15671      4E5F4D43 
 15671      4F4D5F52 
 15671      45414400 
 15672              	.LASF601:
 15673 2673 6F69645F 		.ascii	"oid_to_hash_value\000"
 15673      746F5F68 
 15673      6173685F 
 15673      76616C75 
 15673      6500
 15674              	.LASF455:
 15675 2685 4F535F46 		.ascii	"OS_FN_FREE_RUN\000"
 15675      4E5F4652 
 15675      45455F52 
 15675      554E00
 15676              	.LASF321:
ARM GAS  C:\Users\AHMED~1.ELE\AppData\Local\Temp\ccaBET3e.s 			page 354


 15677 2694 4F535F46 		.ascii	"OS_FN_GPRS_RESET\000"
 15677      4E5F4750 
 15677      52535F52 
 15677      45534554 
 15677      00
 15678              	.LASF315:
 15679 26a5 4F535F46 		.ascii	"OS_FN_GPRS_SIGNAL\000"
 15679      4E5F4750 
 15679      52535F53 
 15679      49474E41 
 15679      4C00
 15680              	.LASF274:
 15681 26b7 4F535F46 		.ascii	"OS_FN_FL_INFO\000"
 15681      4E5F464C 
 15681      5F494E46 
 15681      4F00
 15682              	.LASF567:
 15683 26c5 645F7573 		.ascii	"d_usage\000"
 15683      61676500 
 15684              	.LASF502:
 15685 26cd 4F535F46 		.ascii	"OS_FN_GPRS_SET_PIN_STATUS\000"
 15685      4E5F4750 
 15685      52535F53 
 15685      45545F50 
 15685      494E5F53 
 15686              	.LASF138:
 15687 26e7 4F535F46 		.ascii	"OS_FN_SM3_ASCII\000"
 15687      4E5F534D 
 15687      335F4153 
 15687      43494900 
 15688              	.LASF23:
 15689 26f7 735F686D 		.ascii	"s_hmac_init\000"
 15689      61635F69 
 15689      6E697400 
 15690              	.LASF441:
 15691 2703 4F535F46 		.ascii	"OS_FN_GPS_OFF\000"
 15691      4E5F4750 
 15691      535F4F46 
 15691      4600
 15692              	.LASF147:
 15693 2711 4F535F46 		.ascii	"OS_FN_KEY_FLUSH\000"
 15693      4E5F4B45 
 15693      595F464C 
 15693      55534800 
 15694              	.LASF137:
 15695 2721 4F535F46 		.ascii	"OS_FN_SM2_GET_MESS\000"
 15695      4E5F534D 
 15695      325F4745 
 15695      545F4D45 
 15695      535300
 15696              	.LASF330:
 15697 2734 4F535F46 		.ascii	"OS_FN_TPAD_OPEN\000"
 15697      4E5F5450 
 15697      41445F4F 
 15697      50454E00 
 15698              	.LASF276:
 15699 2744 4F535F46 		.ascii	"OS_FN_FL_PAGE_READ\000"
ARM GAS  C:\Users\AHMED~1.ELE\AppData\Local\Temp\ccaBET3e.s 			page 355


 15699      4E5F464C 
 15699      5F504147 
 15699      455F5245 
 15699      414400
 15700              	.LASF187:
 15701 2757 4F535F46 		.ascii	"OS_FN_REALLOC\000"
 15701      4E5F5245 
 15701      414C4C4F 
 15701      4300
 15702              	.LASF584:
 15703 2765 78353039 		.ascii	"x509_unpad_rsa\000"
 15703      5F756E70 
 15703      61645F72 
 15703      736100
 15704              	.LASF490:
 15705 2774 4F535F46 		.ascii	"OS_FN_WIFI_SOCKET_GET_STATE\000"
 15705      4E5F5749 
 15705      46495F53 
 15705      4F434B45 
 15705      545F4745 
 15706              	.LASF400:
 15707 2790 4F535F46 		.ascii	"OS_FN_MIF_ANTICOLL\000"
 15707      4E5F4D49 
 15707      465F414E 
 15707      5449434F 
 15707      4C4C00
 15708              	.LASF551:
 15709 27a3 64677374 		.ascii	"dgst_len\000"
 15709      5F6C656E 
 15709      00
 15710              	.LASF591:
 15711 27ac 78353039 		.ascii	"x509_mgf1_xor\000"
 15711      5F6D6766 
 15711      315F786F 
 15711      7200
 15712              	.LASF651:
 15713 27ba 78353039 		.ascii	"x509_verify_cert_with_PKCS1_v1_5\000"
 15713      5F766572 
 15713      6966795F 
 15713      63657274 
 15713      5F776974 
 15714              	.LASF437:
 15715 27db 4F535F46 		.ascii	"OS_FN_NFC_INFO_SET\000"
 15715      4E5F4E46 
 15715      435F494E 
 15715      464F5F53 
 15715      455400
 15716              	.LASF537:
 15717 27ee 455F4861 		.ascii	"E_HashOps_AlgoId_sha1\000"
 15717      73684F70 
 15717      735F416C 
 15717      676F4964 
 15717      5F736861 
 15718              	.LASF491:
 15719 2804 4F535F46 		.ascii	"OS_FN_WIFI_SOCKET_SEND_TCP\000"
 15719      4E5F5749 
 15719      46495F53 
ARM GAS  C:\Users\AHMED~1.ELE\AppData\Local\Temp\ccaBET3e.s 			page 356


 15719      4F434B45 
 15719      545F5345 
 15720              	.LASF157:
 15721 281f 4F535F46 		.ascii	"OS_FN_PCI_DSS_GET_KVC\000"
 15721      4E5F5043 
 15721      495F4453 
 15721      535F4745 
 15721      545F4B56 
 15722              	.LASF494:
 15723 2835 4F535F46 		.ascii	"OS_FN_WIFI_SOCKET_GET_STATUS\000"
 15723      4E5F5749 
 15723      46495F53 
 15723      4F434B45 
 15723      545F4745 
 15724              	.LASF140:
 15725 2852 4F535F46 		.ascii	"OS_FN_SM4_SET_KEY\000"
 15725      4E5F534D 
 15725      345F5345 
 15725      545F4B45 
 15725      5900
 15726              	.LASF78:
 15727 2864 4F535F46 		.ascii	"OS_FN_DISP_ICON_SET_SIGNAL_TYPE\000"
 15727      4E5F4449 
 15727      53505F49 
 15727      434F4E5F 
 15727      5345545F 
 15728              	.LASF334:
 15729 2884 4F535F46 		.ascii	"OS_FN_TPAD_CPOS\000"
 15729      4E5F5450 
 15729      41445F43 
 15729      504F5300 
 15730              	.LASF1:
 15731 2894 7369676E 		.ascii	"signed char\000"
 15731      65642063 
 15731      68617200 
 15732              	.LASF426:
 15733 28a0 4F535F46 		.ascii	"OS_FN_WIFI_SEND_COMMAND\000"
 15733      4E5F5749 
 15733      46495F53 
 15733      454E445F 
 15733      434F4D4D 
 15734              	.LASF86:
 15735 28b8 4F535F46 		.ascii	"OS_FN_COM1_STATUS\000"
 15735      4E5F434F 
 15735      4D315F53 
 15735      54415455 
 15735      5300
 15736              	.LASF614:
 15737 28ca 78353039 		.ascii	"x509_get_rsapss_param\000"
 15737      5F676574 
 15737      5F727361 
 15737      7073735F 
 15737      70617261 
 15738              	.LASF158:
 15739 28e0 4F535F46 		.ascii	"OS_FN_PCI_DSS_REGEN_KEY\000"
 15739      4E5F5043 
 15739      495F4453 
ARM GAS  C:\Users\AHMED~1.ELE\AppData\Local\Temp\ccaBET3e.s 			page 357


 15739      535F5245 
 15739      47454E5F 
 15740              	.LASF667:
 15741 28f8 6578704C 		.ascii	"expLen\000"
 15741      656E00
 15742              	.LASF102:
 15743 28ff 4F535F46 		.ascii	"OS_FN_COM3_READ\000"
 15743      4E5F434F 
 15743      4D335F52 
 15743      45414400 
 15744              	.LASF506:
 15745 290f 4F535F46 		.ascii	"OS_FN_WIFI_GET_REGULATORY_DOMAIN\000"
 15745      4E5F5749 
 15745      46495F47 
 15745      45545F52 
 15745      4547554C 
 15746              	.LASF694:
 15747 2930 6D656D63 		.ascii	"memcpy\000"
 15747      707900
 15748              	.LASF414:
 15749 2937 4F535F46 		.ascii	"OS_FN_MIF_GET\000"
 15749      4E5F4D49 
 15749      465F4745 
 15749      5400
 15750              	.LASF212:
 15751 2945 4F535F46 		.ascii	"OS_FN_FILE_SET_LOCK\000"
 15751      4E5F4649 
 15751      4C455F53 
 15751      45545F4C 
 15751      4F434B00 
 15752              	.LASF24:
 15753 2959 645F6964 		.ascii	"d_id_type\000"
 15753      5F747970 
 15753      6500
 15754              	.LASF282:
 15755 2963 4F535F46 		.ascii	"OS_FN_FL_ERASE_START\000"
 15755      4E5F464C 
 15755      5F455241 
 15755      53455F53 
 15755      54415254 
 15756              	.LASF185:
 15757 2978 4F535F46 		.ascii	"OS_FN_APP_INFO\000"
 15757      4E5F4150 
 15757      505F494E 
 15757      464F00
 15758              	.LASF543:
 15759 2987 455F4861 		.ascii	"E_HashOps_AlgoId\000"
 15759      73684F70 
 15759      735F416C 
 15759      676F4964 
 15759      00
 15760              	.LASF261:
 15761 2998 4F535F46 		.ascii	"OS_FN_MSR_READ\000"
 15761      4E5F4D53 
 15761      525F5245 
 15761      414400
 15762              	.LASF406:
ARM GAS  C:\Users\AHMED~1.ELE\AppData\Local\Temp\ccaBET3e.s 			page 358


 15763 29a7 4F535F46 		.ascii	"OS_FN_MIF_WRITE\000"
 15763      4E5F4D49 
 15763      465F5752 
 15763      49544500 
 15764              	.LASF49:
 15765 29b7 4F535F46 		.ascii	"OS_FN_KBD_UNLOCK\000"
 15765      4E5F4B42 
 15765      445F554E 
 15765      4C4F434B 
 15765      00
 15766              	.LASF405:
 15767 29c8 4F535F46 		.ascii	"OS_FN_MIF_READ\000"
 15767      4E5F4D49 
 15767      465F5245 
 15767      414400
 15768              	.LASF626:
 15769 29d7 78353039 		.ascii	"x509_get_set\000"
 15769      5F676574 
 15769      5F736574 
 15769      00
 15770              	.LASF450:
 15771 29e4 4F535F46 		.ascii	"OS_FN_APPDL_WRITE_APP\000"
 15771      4E5F4150 
 15771      50444C5F 
 15771      57524954 
 15771      455F4150 
 15772              	.LASF219:
 15773 29fa 4F535F46 		.ascii	"OS_FN_FILE_MKDIR\000"
 15773      4E5F4649 
 15773      4C455F4D 
 15773      4B444952 
 15773      00
 15774              	.LASF180:
 15775 2a0b 4F535F46 		.ascii	"OS_FN_AUTH\000"
 15775      4E5F4155 
 15775      544800
 15776              	.LASF547:
 15777 2a16 735F7368 		.ascii	"s_sha256\000"
 15777      61323536 
 15777      00
 15778              	.LASF620:
 15779 2a1f 615F6F69 		.ascii	"a_oi\000"
 15779      00
 15780              	.LASF251:
 15781 2a24 4F535F46 		.ascii	"OS_FN_LAN_CLOSE\000"
 15781      4E5F4C41 
 15781      4E5F434C 
 15781      4F534500 
 15782              	.LASF120:
 15783 2a34 4F535F46 		.ascii	"OS_FN_SHA1\000"
 15783      4E5F5348 
 15783      413100
 15784              	.LASF50:
 15785 2a3f 4F535F46 		.ascii	"OS_FN_TIMER_OPEN\000"
 15785      4E5F5449 
 15785      4D45525F 
 15785      4F50454E 
ARM GAS  C:\Users\AHMED~1.ELE\AppData\Local\Temp\ccaBET3e.s 			page 359


 15785      00
 15786              	.LASF238:
 15787 2a50 4F535F46 		.ascii	"OS_FN_MMC_BLK_SIZE\000"
 15787      4E5F4D4D 
 15787      435F424C 
 15787      4B5F5349 
 15787      5A4500
 15788              	.LASF91:
 15789 2a63 4F535F46 		.ascii	"OS_FN_COM2_RXRDY\000"
 15789      4E5F434F 
 15789      4D325F52 
 15789      58524459 
 15789      00
 15790              	.LASF462:
 15791 2a74 4F535F46 		.ascii	"OS_FN_GET_MCLK\000"
 15791      4E5F4745 
 15791      545F4D43 
 15791      4C4B00
 15792              	.LASF296:
 15793 2a83 4F535F46 		.ascii	"OS_FN_MDM_STATUS\000"
 15793      4E5F4D44 
 15793      4D5F5354 
 15793      41545553 
 15793      00
 15794              	.LASF15:
 15795 2a94 44574F52 		.ascii	"DWORD\000"
 15795      4400
 15796              	.LASF338:
 15797 2a9a 4F535F46 		.ascii	"OS_FN_CODEC_OPEN\000"
 15797      4E5F434F 
 15797      4445435F 
 15797      4F50454E 
 15797      00
 15798              	.LASF257:
 15799 2aab 4F535F46 		.ascii	"OS_FN_MSR_OPEN\000"
 15799      4E5F4D53 
 15799      525F4F50 
 15799      454E00
 15800              	.LASF346:
 15801 2aba 4F535F46 		.ascii	"OS_FN_CLICC_REMOVE\000"
 15801      4E5F434C 
 15801      4943435F 
 15801      52454D4F 
 15801      564500
 15802              	.LASF280:
 15803 2acd 4F535F46 		.ascii	"OS_FN_FL_WRITE\000"
 15803      4E5F464C 
 15803      5F575249 
 15803      544500
 15804              	.LASF97:
 15805 2adc 4F535F46 		.ascii	"OS_FN_COM2_SSEND\000"
 15805      4E5F434F 
 15805      4D325F53 
 15805      53454E44 
 15805      00
 15806              	.LASF598:
 15807 2aed 636E745F 		.ascii	"cnt_max\000"
ARM GAS  C:\Users\AHMED~1.ELE\AppData\Local\Temp\ccaBET3e.s 			page 360


 15807      6D617800 
 15808              	.LASF243:
 15809 2af5 4F535F46 		.ascii	"OS_FN_MMC_READ\000"
 15809      4E5F4D4D 
 15809      435F5245 
 15809      414400
 15810              	.LASF618:
 15811 2b04 625F6374 		.ascii	"b_ctx_struct\000"
 15811      785F7374 
 15811      72756374 
 15811      00
 15812              	.LASF294:
 15813 2b11 4F535F46 		.ascii	"OS_FN_MDM_DISC\000"
 15813      4E5F4D44 
 15813      4D5F4449 
 15813      534300
 15814              	.LASF114:
 15815 2b20 4F535F46 		.ascii	"OS_FN_NEW_DES2\000"
 15815      4E5F4E45 
 15815      575F4445 
 15815      533200
 15816              	.LASF648:
 15817 2b2f 68617368 		.ascii	"hash_ops\000"
 15817      5F6F7073 
 15817      00
 15818              	.LASF4:
 15819 2b38 73686F72 		.ascii	"short unsigned int\000"
 15819      7420756E 
 15819      7369676E 
 15819      65642069 
 15819      6E7400
 15820              	.LASF621:
 15821 2b4b 615F7073 		.ascii	"a_pss\000"
 15821      7300
 15822              	.LASF162:
 15823 2b51 4F535F46 		.ascii	"OS_FN_THREAD_CREATE\000"
 15823      4E5F5448 
 15823      52454144 
 15823      5F435245 
 15823      41544500 
 15824              	.LASF636:
 15825 2b65 616C676F 		.ascii	"algo_oid_hash\000"
 15825      5F6F6964 
 15825      5F686173 
 15825      6800
 15826              	.LASF661:
 15827 2b73 6E6F7441 		.ascii	"notAfter\000"
 15827      66746572 
 15827      00
 15828              	.LASF559:
 15829 2b7c 615F7070 		.ascii	"a_pp\000"
 15829      00
 15830              	.LASF515:
 15831 2b81 55534246 		.ascii	"USBFPRT_GENERAL_INFO_IMG_HEIGHT\000"
 15831      5052545F 
 15831      47454E45 
 15831      52414C5F 
ARM GAS  C:\Users\AHMED~1.ELE\AppData\Local\Temp\ccaBET3e.s 			page 361


 15831      494E464F 
 15832              	.LASF27:
 15833 2ba1 645F6669 		.ascii	"d_first\000"
 15833      72737400 
 15834              	.LASF496:
 15835 2ba9 4F535F46 		.ascii	"OS_FN_IMG_SENSOR_OPEN\000"
 15835      4E5F494D 
 15835      475F5345 
 15835      4E534F52 
 15835      5F4F5045 
 15836              	.LASF87:
 15837 2bbf 4F535F46 		.ascii	"OS_FN_COM1_SREAD\000"
 15837      4E5F434F 
 15837      4D315F53 
 15837      52454144 
 15837      00
 15838              	.LASF127:
 15839 2bd0 4F535F46 		.ascii	"OS_FN_RC4_SETUP\000"
 15839      4E5F5243 
 15839      345F5345 
 15839      54555000 
 15840              	.LASF115:
 15841 2be0 4F535F46 		.ascii	"OS_FN_RSA\000"
 15841      4E5F5253 
 15841      4100
 15842              	.LASF361:
 15843 2bea 4F535F46 		.ascii	"OS_FN_USBHOST_RHPORT_STATUS\000"
 15843      4E5F5553 
 15843      42484F53 
 15843      545F5248 
 15843      504F5254 
 15844              	.LASF536:
 15845 2c06 455F4861 		.ascii	"E_HashOps_AlgoId_md5\000"
 15845      73684F70 
 15845      735F416C 
 15845      676F4964 
 15845      5F6D6435 
 15846              	.LASF375:
 15847 2c1b 4F535F46 		.ascii	"OS_FN_DEVICE_UNMOUNT\000"
 15847      4E5F4445 
 15847      56494345 
 15847      5F554E4D 
 15847      4F554E54 
 15848              	.LASF670:
 15849 2c30 615F626F 		.ascii	"a_bool\000"
 15849      6F6C00
 15850              	.LASF672:
 15851 2c37 78353039 		.ascii	"x509_bit_reverse\000"
 15851      5F626974 
 15851      5F726576 
 15851      65727365 
 15851      00
 15852              	.LASF100:
 15853 2c48 4F535F46 		.ascii	"OS_FN_COM3_RXRDY\000"
 15853      4E5F434F 
 15853      4D335F52 
 15853      58524459 
ARM GAS  C:\Users\AHMED~1.ELE\AppData\Local\Temp\ccaBET3e.s 			page 362


 15853      00
 15854              	.LASF416:
 15855 2c59 4F535F46 		.ascii	"OS_FN_MIF_INFO_GET\000"
 15855      4E5F4D49 
 15855      465F494E 
 15855      464F5F47 
 15855      455400
 15856              	.LASF607:
 15857 2c6c 766C656E 		.ascii	"vlen\000"
 15857      00
 15858              	.LASF657:
 15859 2c71 74696D65 		.ascii	"timeLen\000"
 15859      4C656E00 
 15860              	.LASF273:
 15861 2c79 4F535F46 		.ascii	"OS_FN_USBSER_ENABLE\000"
 15861      4E5F5553 
 15861      42534552 
 15861      5F454E41 
 15861      424C4500 
 15862              	.LASF520:
 15863 2c8d 645F6D67 		.ascii	"d_mgf_digest\000"
 15863      665F6469 
 15863      67657374 
 15863      00
 15864              	.LASF471:
 15865 2c9a 4F535F46 		.ascii	"OS_FN_LPT_RESET_COUNT\000"
 15865      4E5F4C50 
 15865      545F5245 
 15865      5345545F 
 15865      434F554E 
 15866              	.LASF585:
 15867 2cb0 615F7074 		.ascii	"a_ptr\000"
 15867      7200
 15868              	.LASF454:
 15869 2cb6 4F535F46 		.ascii	"OS_FN_RESET\000"
 15869      4E5F5245 
 15869      53455400 
 15870              	.LASF316:
 15871 2cc2 4F535F46 		.ascii	"OS_FN_GPRS_STATUS\000"
 15871      4E5F4750 
 15871      52535F53 
 15871      54415455 
 15871      5300
 15872              	.LASF600:
 15873 2cd4 68617368 		.ascii	"hash\000"
 15873      00
 15874              	.LASF106:
 15875 2cd9 4F535F46 		.ascii	"OS_FN_COM3_SSEND\000"
 15875      4E5F434F 
 15875      4D335F53 
 15875      53454E44 
 15875      00
 15876              	.LASF352:
 15877 2cea 4F535F46 		.ascii	"OS_FN_CLICC_LED_CLOSE\000"
 15877      4E5F434C 
 15877      4943435F 
 15877      4C45445F 
ARM GAS  C:\Users\AHMED~1.ELE\AppData\Local\Temp\ccaBET3e.s 			page 363


 15877      434C4F53 
 15878              	.LASF689:
 15879 2d00 735F7835 		.ascii	"s_x509_sign\000"
 15879      30395F73 
 15879      69676E00 
 15880              	.LASF434:
 15881 2d0c 4F535F46 		.ascii	"OS_FN_NFC_CLOSE\000"
 15881      4E5F4E46 
 15881      435F434C 
 15881      4F534500 
 15882              	.LASF40:
 15883 2d1c 4F535F46 		.ascii	"OS_FN_GET_VERSION\000"
 15883      4E5F4745 
 15883      545F5645 
 15883      5253494F 
 15883      4E00
 15884              	.LASF679:
 15885 2d2e 7075624B 		.ascii	"pubKeyAlgorithm\000"
 15885      6579416C 
 15885      676F7269 
 15885      74686D00 
 15886              	.LASF616:
 15887 2d3e 705F7065 		.ascii	"p_pe\000"
 15887      00
 15888              	.LASF314:
 15889 2d43 4F535F46 		.ascii	"OS_FN_ADC_CH_READ\000"
 15889      4E5F4144 
 15889      435F4348 
 15889      5F524541 
 15889      4400
 15890              	.LASF292:
 15891 2d55 4F535F46 		.ascii	"OS_FN_MDM_CLOSE\000"
 15891      4E5F4D44 
 15891      4D5F434C 
 15891      4F534500 
 15892              	.LASF233:
 15893 2d65 4F535F46 		.ascii	"OS_FN_SAM_OFF\000"
 15893      4E5F5341 
 15893      4D5F4F46 
 15893      4600
 15894              	.LASF467:
 15895 2d73 4F535F46 		.ascii	"OS_FN_DMK_INJECT\000"
 15895      4E5F444D 
 15895      4B5F494E 
 15895      4A454354 
 15895      00
 15896              	.LASF514:
 15897 2d84 55534246 		.ascii	"USBFPRT_GENERAL_INFO_IMG_WIDTH\000"
 15897      5052545F 
 15897      47454E45 
 15897      52414C5F 
 15897      494E464F 
 15898              	.LASF55:
 15899 2da3 4F535F46 		.ascii	"OS_FN_BUZ_CLOSE\000"
 15899      4E5F4255 
 15899      5A5F434C 
 15899      4F534500 
ARM GAS  C:\Users\AHMED~1.ELE\AppData\Local\Temp\ccaBET3e.s 			page 364


 15900              	.LASF196:
 15901 2db3 4F535F46 		.ascii	"OS_FN_FILE_FLUSHED\000"
 15901      4E5F4649 
 15901      4C455F46 
 15901      4C555348 
 15901      454400
 15902              	.LASF70:
 15903 2dc6 4F535F46 		.ascii	"OS_FN_DISP_GET_LCD_BUFFER\000"
 15903      4E5F4449 
 15903      53505F47 
 15903      45545F4C 
 15903      43445F42 
 15904              	.LASF345:
 15905 2de0 4F535F46 		.ascii	"OS_FN_CLICC_POLL\000"
 15905      4E5F434C 
 15905      4943435F 
 15905      504F4C4C 
 15905      00
 15906              	.LASF96:
 15907 2df1 4F535F46 		.ascii	"OS_FN_COM2_SREAD\000"
 15907      4E5F434F 
 15907      4D325F53 
 15907      52454144 
 15907      00
 15908              	.LASF357:
 15909 2e02 4F535F46 		.ascii	"OS_FN_USBHOST_SUBMIT_BUFFER\000"
 15909      4E5F5553 
 15909      42484F53 
 15909      545F5355 
 15909      424D4954 
 15910              	.LASF226:
 15911 2e1e 4F535F46 		.ascii	"OS_FN_CONFIG_WRITE\000"
 15911      4E5F434F 
 15911      4E464947 
 15911      5F575249 
 15911      544500
 15912              	.LASF37:
 15913 2e31 735F6B65 		.ascii	"s_key\000"
 15913      7900
 15914              	.LASF594:
 15915 2e37 6D61736B 		.ascii	"mask_len\000"
 15915      5F6C656E 
 15915      00
 15916              		.ident	"GCC: (GNU Tools for ARM Embedded Processors) 4.9.3 20141119 (release) [ARM/embedded-4_9-br
ARM GAS  C:\Users\AHMED~1.ELE\AppData\Local\Temp\ccaBET3e.s 			page 365


DEFINED SYMBOLS
                            *ABS*:00000000 x509.c
C:\Users\AHMED~1.ELE\AppData\Local\Temp\ccaBET3e.s:19     .text.oid_to_hash_value:00000000 $t
C:\Users\AHMED~1.ELE\AppData\Local\Temp\ccaBET3e.s:23     .text.oid_to_hash_value:00000000 oid_to_hash_value
C:\Users\AHMED~1.ELE\AppData\Local\Temp\ccaBET3e.s:66     .text.x509_get_asn_length:00000000 $t
C:\Users\AHMED~1.ELE\AppData\Local\Temp\ccaBET3e.s:70     .text.x509_get_asn_length:00000000 x509_get_asn_length
C:\Users\AHMED~1.ELE\AppData\Local\Temp\ccaBET3e.s:167    .text.x509_get_integer:00000000 $t
C:\Users\AHMED~1.ELE\AppData\Local\Temp\ccaBET3e.s:171    .text.x509_get_integer:00000000 x509_get_integer
C:\Users\AHMED~1.ELE\AppData\Local\Temp\ccaBET3e.s:298    .text.x509_get_sequence:00000000 $t
C:\Users\AHMED~1.ELE\AppData\Local\Temp\ccaBET3e.s:302    .text.x509_get_sequence:00000000 x509_get_sequence
C:\Users\AHMED~1.ELE\AppData\Local\Temp\ccaBET3e.s:366    .text.x509_get_oid:00000000 $t
C:\Users\AHMED~1.ELE\AppData\Local\Temp\ccaBET3e.s:370    .text.x509_get_oid:00000000 x509_get_oid
C:\Users\AHMED~1.ELE\AppData\Local\Temp\ccaBET3e.s:434    .text.unlikely.x509_get_implicit_bit_string:00000000 $t
C:\Users\AHMED~1.ELE\AppData\Local\Temp\ccaBET3e.s:438    .text.unlikely.x509_get_implicit_bit_string:00000000 x509_get_implicit_bit_string
C:\Users\AHMED~1.ELE\AppData\Local\Temp\ccaBET3e.s:515    .text.x509_get_algorithm_identifier:00000000 $t
C:\Users\AHMED~1.ELE\AppData\Local\Temp\ccaBET3e.s:519    .text.x509_get_algorithm_identifier:00000000 x509_get_algorithm_identifier
C:\Users\AHMED~1.ELE\AppData\Local\Temp\ccaBET3e.s:900    .text.x509_get_algorithm_identifier:00000228 $d
C:\Users\AHMED~1.ELE\AppData\Local\Temp\ccaBET3e.s:907    .text.unlikely.x509_get_big:00000000 $t
C:\Users\AHMED~1.ELE\AppData\Local\Temp\ccaBET3e.s:911    .text.unlikely.x509_get_big:00000000 x509_get_big
C:\Users\AHMED~1.ELE\AppData\Local\Temp\ccaBET3e.s:1006   .text.unlikely.x509_get_dn_attrib:00000000 $t
C:\Users\AHMED~1.ELE\AppData\Local\Temp\ccaBET3e.s:1010   .text.unlikely.x509_get_dn_attrib:00000000 x509_get_dn_attrib
C:\Users\AHMED~1.ELE\AppData\Local\Temp\ccaBET3e.s:1286   .text.x509_select_hashops:00000000 $t
C:\Users\AHMED~1.ELE\AppData\Local\Temp\ccaBET3e.s:1290   .text.x509_select_hashops:00000000 x509_select_hashops
C:\Users\AHMED~1.ELE\AppData\Local\Temp\ccaBET3e.s:1388   .text.x509_select_hashops:00000070 $d
C:\Users\AHMED~1.ELE\AppData\Local\Temp\ccaBET3e.s:1399   .text.unlikely.x509_generalize_time:00000000 $t
C:\Users\AHMED~1.ELE\AppData\Local\Temp\ccaBET3e.s:1403   .text.unlikely.x509_generalize_time:00000000 x509_generalize_time
C:\Users\AHMED~1.ELE\AppData\Local\Temp\ccaBET3e.s:1478   .text.x509_check_leading_zeros.constprop.6:00000000 $t
C:\Users\AHMED~1.ELE\AppData\Local\Temp\ccaBET3e.s:1482   .text.x509_check_leading_zeros.constprop.6:00000000 x509_check_leading_zeros.constprop.6
C:\Users\AHMED~1.ELE\AppData\Local\Temp\ccaBET3e.s:1546   .text.x509_check_leading_zeros.constprop.6:00000034 $d
C:\Users\AHMED~1.ELE\AppData\Local\Temp\ccaBET3e.s:1553   .text.x509_verify_cert_with_PSS:00000000 $t
C:\Users\AHMED~1.ELE\AppData\Local\Temp\ccaBET3e.s:1557   .text.x509_verify_cert_with_PSS:00000000 x509_verify_cert_with_PSS
C:\Users\AHMED~1.ELE\AppData\Local\Temp\ccaBET3e.s:1891   .text.x509_verify_cert_with_PSS:000001b4 $d
C:\Users\AHMED~1.ELE\AppData\Local\Temp\ccaBET3e.s:1896   .text.x509_verify_cert_by_key:00000000 $t
C:\Users\AHMED~1.ELE\AppData\Local\Temp\ccaBET3e.s:1901   .text.x509_verify_cert_by_key:00000000 x509_verify_cert_by_key
C:\Users\AHMED~1.ELE\AppData\Local\Temp\ccaBET3e.s:2096   .text.x509_verify_cert_by_key:000000d8 $d
C:\Users\AHMED~1.ELE\AppData\Local\Temp\ccaBET3e.s:2101   .text.x509_parse_cert:00000000 $t
C:\Users\AHMED~1.ELE\AppData\Local\Temp\ccaBET3e.s:2106   .text.x509_parse_cert:00000000 x509_parse_cert
C:\Users\AHMED~1.ELE\AppData\Local\Temp\ccaBET3e.s:3008   .text.x509_parse_cert:000004bc $d
C:\Users\AHMED~1.ELE\AppData\Local\Temp\ccaBET3e.s:3013   .text.x509_parse_cert:000004c4 $t
C:\Users\AHMED~1.ELE\AppData\Local\Temp\ccaBET3e.s:3476   .text.x509_parse_cert:00000710 $d
C:\Users\AHMED~1.ELE\AppData\Local\Temp\ccaBET3e.s:3483   .text.x509_verify_cert_by_cert:00000000 $t
C:\Users\AHMED~1.ELE\AppData\Local\Temp\ccaBET3e.s:3488   .text.x509_verify_cert_by_cert:00000000 x509_verify_cert_by_cert
C:\Users\AHMED~1.ELE\AppData\Local\Temp\ccaBET3e.s:3551   .bss:00000000 s_x509_sign
C:\Users\AHMED~1.ELE\AppData\Local\Temp\ccaBET3e.s:3552   .bss:00000000 $d
                     .debug_frame:00000010 $d

UNDEFINED SYMBOLS
memcpy
sys_func3
sys_func2
hashops_get
__aeabi_idiv
__aeabi_idivmod
memset
memcmp
sys_func1
