ARM GAS  C:\Users\AHMEDH~1\AppData\Local\Temp\cc0sucSM.s 			page 1


   1              		.syntax unified
   2              		.cpu cortex-a5
   3              		.fpu softvfp
   4              		.eabi_attribute 20, 1
   5              		.eabi_attribute 21, 1
   6              		.eabi_attribute 23, 3
   7              		.eabi_attribute 24, 1
   8              		.eabi_attribute 25, 1
   9              		.eabi_attribute 26, 1
  10              		.eabi_attribute 30, 4
  11              		.eabi_attribute 34, 0
  12              		.eabi_attribute 18, 4
  13              		.thumb
  14              		.file	"Adjust.c"
  15              		.text
  16              	.Ltext0:
  17              		.cfi_sections	.debug_frame
  18              		.section	.text.DispCurrTotal,"ax",%progbits
  19              		.align	1
  20              		.thumb
  21              		.thumb_func
  22              		.type	DispCurrTotal, %function
  23              	DispCurrTotal:
  24              	.LFB0:
  25              		.file 1 "src/Adjust.c"
   1:src/Adjust.c  **** //-----------------------------------------------------------------------------
   2:src/Adjust.c  **** //  File          : Adjust.c
   3:src/Adjust.c  **** //  Module        :
   4:src/Adjust.c  **** //  Description   : Include routines for Adjust transaction.
   5:src/Adjust.c  **** //  Author        : Lewis
   6:src/Adjust.c  **** //  Notes         :
   7:src/Adjust.c  **** //
   8:src/Adjust.c  **** // ============================================================================
   9:src/Adjust.c  **** // | Naming conventions                                                       |
  10:src/Adjust.c  **** // | ~~~~~~~~~~~~~~~~~~                                                       |
  11:src/Adjust.c  **** // |        Struct define : Leading T                                         |
  12:src/Adjust.c  **** // |         Struct/Array : Leading s                                         |
  13:src/Adjust.c  **** // |             Constant : Leading K                                         |
  14:src/Adjust.c  **** // |      Global Variable : Leading g  (variable use outside one C file)      |
  15:src/Adjust.c  **** // |                                                                          |
  16:src/Adjust.c  **** // |   BYTE( 8 Bits) size : Leading b                                         |
  17:src/Adjust.c  **** // |   CHAR( 8 Bits) size : Leading c                                         |
  18:src/Adjust.c  **** // |   WORD(16 Bits) size : Leading w                                         |
  19:src/Adjust.c  **** // |  DWORD(32 Bits) size : Leading d                                         |
  20:src/Adjust.c  **** // |    int(32 Bits) size : Leading i                                         |
  21:src/Adjust.c  **** // | DDWORD(64 Bits) size : Leading dd                                        |
  22:src/Adjust.c  **** // |              Pointer : Leading p                                         |
  23:src/Adjust.c  **** // |                                                                          |
  24:src/Adjust.c  **** // |    Function argument : Leading a                                         |
  25:src/Adjust.c  **** // |       Local Variable : All lower case                                    |
  26:src/Adjust.c  **** // |                                                                          |
  27:src/Adjust.c  **** // | Examples:                                                                |
  28:src/Adjust.c  **** // |                Array : Leading s, (sb = arrary of byte, etc)             |
  29:src/Adjust.c  **** // |              Pointer : Leading p, (pb = pointer of byte, etc)            |
  30:src/Adjust.c  **** // ============================================================================
  31:src/Adjust.c  **** //
  32:src/Adjust.c  **** //  Date          Who         Action
ARM GAS  C:\Users\AHMEDH~1\AppData\Local\Temp\cc0sucSM.s 			page 2


  33:src/Adjust.c  **** //  ------------  ----------- -------------------------------------------------
  34:src/Adjust.c  **** //  29 Sept 2008  Lewis       Initial Version.
  35:src/Adjust.c  **** //-----------------------------------------------------------------------------
  36:src/Adjust.c  **** #include <string.h>
  37:src/Adjust.c  **** #include "util.h"
  38:src/Adjust.c  **** #include "sysutil.h"
  39:src/Adjust.c  **** #include "constant.h"
  40:src/Adjust.c  **** #include "corevar.h"
  41:src/Adjust.c  **** #include "message.h"
  42:src/Adjust.c  **** #include "chkoptn.h"
  43:src/Adjust.c  **** #include "input.h"
  44:src/Adjust.c  **** #include "tranutil.h"
  45:src/Adjust.c  **** #include "record.h"
  46:src/Adjust.c  **** #include "adjust.h"
  47:src/Adjust.c  **** 
  48:src/Adjust.c  **** //*****************************************************************************
  49:src/Adjust.c  **** //  Function        : DipsCurrTotal
  50:src/Adjust.c  **** //  Description     : Display current transaction totals.
  51:src/Adjust.c  **** //  Input           : aOrgTrans;      // trasaction id;
  52:src/Adjust.c  **** //  Return          : N/A
  53:src/Adjust.c  **** //  Note            : N/A
  54:src/Adjust.c  **** //  Globals Changed : N/A
  55:src/Adjust.c  **** //*****************************************************************************
  56:src/Adjust.c  **** static void DispCurrTotal(BYTE aOrgTrans)
  57:src/Adjust.c  **** {
  26              		.loc 1 57 0
  27              		.cfi_startproc
  28              		@ args = 0, pretend = 0, frame = 0
  29              		@ frame_needed = 0, uses_anonymous_args = 0
  30              	.LVL0:
  31 0000 F7B5     		push	{r0, r1, r2, r4, r5, r6, r7, lr}
  32              		.cfi_def_cfa_offset 32
  33              		.cfi_offset 4, -20
  34              		.cfi_offset 5, -16
  35              		.cfi_offset 6, -12
  36              		.cfi_offset 7, -8
  37              		.cfi_offset 14, -4
  38              		.loc 1 57 0
  39 0002 0746     		mov	r7, r0
  40              	.LBB2:
  58:src/Adjust.c  ****   DDWORD amount;
  59:src/Adjust.c  **** 
  60:src/Adjust.c  ****   DispLineMW(GetConstMsg(EDC_AJ_TOTAL_PROMPT), MW_LINE1, MW_CLRDISP|MW_CENTER|MW_BIGFONT);
  41              		.loc 1 60 0
  42 0004 2520     		movs	r0, #37
  43              	.LVL1:
  44 0006 FFF7FEFF 		bl	GetConstMsg
  45              	.LVL2:
  46 000a FFF7FEFF 		bl	strlen
  47              	.LVL3:
  48 000e 0546     		mov	r5, r0
  49              	.LVL4:
  50 0010 691C     		adds	r1, r5, #1
  51 0012 9220     		movs	r0, #146
  52              	.LVL5:
  53 0014 FFF7FEFF 		bl	sys_func1
  54              	.LVL6:
ARM GAS  C:\Users\AHMEDH~1\AppData\Local\Temp\cc0sucSM.s 			page 3


  55 0018 0446     		mov	r4, r0
  56 001a B8B1     		cbz	r0, .L2
  57              		.loc 1 60 0 is_stmt 0 discriminator 1
  58 001c 2520     		movs	r0, #37
  59              	.LVL7:
  60 001e FFF7FEFF 		bl	GetConstMsg
  61              	.LVL8:
  62 0022 2A46     		mov	r2, r5
  63 0024 0146     		mov	r1, r0
  64 0026 2046     		mov	r0, r4
  65 0028 FFF7FEFF 		bl	memcpy
  66              	.LVL9:
  67 002c 0023     		movs	r3, #0
  68 002e 2521     		movs	r1, #37
  69 0030 6355     		strb	r3, [r4, r5]
  70 0032 41F28203 		movw	r3, #4226
  71 0036 0F20     		movs	r0, #15
  72 0038 0093     		str	r3, [sp]
  73 003a 2246     		mov	r2, r4
  74 003c 4FF48073 		mov	r3, #256
  75 0040 FFF7FEFF 		bl	lib_app_call
  76              	.LVL10:
  77 0044 9420     		movs	r0, #148
  78 0046 2146     		mov	r1, r4
  79 0048 FFF7FEFF 		bl	sys_func1
  80              	.LVL11:
  81              	.L2:
  82              	.LBE2:
  61:src/Adjust.c  ****   amount = INPUT.dd_amount;
  83              		.loc 1 61 0 is_stmt 1
  84 004c 0C4E     		ldr	r6, .L9
  62:src/Adjust.c  ****   if (SaleType(aOrgTrans)) {
  85              		.loc 1 62 0
  86 004e 3846     		mov	r0, r7
  61:src/Adjust.c  ****   amount = INPUT.dd_amount;
  87              		.loc 1 61 0
  88 0050 D6E90645 		ldrd	r4, [r6, #24]
  89              	.LVL12:
  90              		.loc 1 62 0
  91 0054 FFF7FEFF 		bl	SaleType
  92              	.LVL13:
  93 0058 30B1     		cbz	r0, .L3
  94              	.LVL14:
  63:src/Adjust.c  ****     amount += INPUT.dd_tip;
  95              		.loc 1 63 0
  96 005a D6E90801 		ldrd	r0, [r6, #32]
  64:src/Adjust.c  ****     DispAmount(amount, MW_LINE3, MW_BIGFONT);
  97              		.loc 1 64 0
  98 005e 4FF44072 		mov	r2, #768
  99 0062 0019     		adds	r0, r0, r4
 100 0064 6941     		adcs	r1, r1, r5
 101 0066 03E0     		b	.L7
 102              	.LVL15:
 103              	.L3:
  65:src/Adjust.c  ****   }
  66:src/Adjust.c  ****   else
  67:src/Adjust.c  ****     DispAmount(amount, MW_LINE3+0x01, MW_BIGFONT); /* MW_LLINE1+1 = -ve */
ARM GAS  C:\Users\AHMEDH~1\AppData\Local\Temp\cc0sucSM.s 			page 4


 104              		.loc 1 67 0
 105 0068 2046     		mov	r0, r4
 106 006a 2946     		mov	r1, r5
 107 006c 40F20132 		movw	r2, #769
 108              	.LVL16:
 109              	.L7:
 110 0070 4FF48053 		mov	r3, #4096
  68:src/Adjust.c  **** }
 111              		.loc 1 68 0
 112 0074 03B0     		add	sp, sp, #12
 113              		.cfi_def_cfa_offset 20
 114              		@ sp needed
 115 0076 BDE8F040 		pop	{r4, r5, r6, r7, lr}
 116              		.cfi_restore 14
 117              		.cfi_restore 7
 118              		.cfi_restore 6
 119              		.cfi_restore 5
 120              		.cfi_restore 4
 121              		.cfi_def_cfa_offset 0
 122              	.LVL17:
  67:src/Adjust.c  **** }
 123              		.loc 1 67 0
 124 007a FFF7FEBF 		b	DispAmount
 125              	.LVL18:
 126              	.L10:
 127 007e 00BF     		.align	2
 128              	.L9:
 129 0080 00000000 		.word	gGTS
 130              		.cfi_endproc
 131              	.LFE0:
 132              		.size	DispCurrTotal, .-DispCurrTotal
 133              		.section	.text.AdjustTrans,"ax",%progbits
 134              		.align	1
 135              		.global	AdjustTrans
 136              		.thumb
 137              		.thumb_func
 138              		.type	AdjustTrans, %function
 139              	AdjustTrans:
 140              	.LFB2:
  69:src/Adjust.c  **** //*****************************************************************************
  70:src/Adjust.c  **** //  Function        : AdjustRecord
  71:src/Adjust.c  **** //  Description     : Adjust the transaction record.
  72:src/Adjust.c  **** //  Input           : aIdx;       // record index
  73:src/Adjust.c  **** //  Return          : N/A
  74:src/Adjust.c  **** //  Note            : N/A
  75:src/Adjust.c  **** //  Globals Changed : N/A
  76:src/Adjust.c  **** //*****************************************************************************
  77:src/Adjust.c  **** static void AdjustRecord(DWORD aIdx)
  78:src/Adjust.c  **** {
  79:src/Adjust.c  ****   static const DWORD KDecimalPos[4] = { DECIMAL_NONE, DECIMAL_POS1, DECIMAL_POS2, DECIMAL_POS3};
  80:src/Adjust.c  ****   BOOLEAN input_ok;
  81:src/Adjust.c  ****   BYTE adjust_type, org_trans;
  82:src/Adjust.c  ****   DDWORD amount;
  83:src/Adjust.c  ****   BYTE   kbdbuf[32];
  84:src/Adjust.c  **** 
  85:src/Adjust.c  ****   org_trans = RECORD_BUF.b_trans;
  86:src/Adjust.c  **** 
ARM GAS  C:\Users\AHMEDH~1\AppData\Local\Temp\cc0sucSM.s 			page 5


  87:src/Adjust.c  ****   // Check multi-adjustment allow
  88:src/Adjust.c  ****   if ( ((RECORD_BUF.b_trans_status & ADJUSTED) && !MultiAdjustAllowed()) ||
  89:src/Adjust.c  ****        ((org_trans <= REFUND) && (org_trans >=ONL_REFUND_SW)) ) {
  90:src/Adjust.c  ****     DispErrorMsg(GetConstMsg(EDC_AJ_NOT_ALLOW));
  91:src/Adjust.c  ****     return;
  92:src/Adjust.c  ****   }
  93:src/Adjust.c  ****   INPUT.dd_amount = RECORD_BUF.dd_amount;
  94:src/Adjust.c  ****   INPUT.dd_tip    = RECORD_BUF.dd_tip;
  95:src/Adjust.c  ****   INPUT.dd_amount -= INPUT.dd_tip;
  96:src/Adjust.c  **** 
  97:src/Adjust.c  ****   adjust_type = 0;
  98:src/Adjust.c  ****   if (TIPsReqd() && SaleType(org_trans))
  99:src/Adjust.c  ****     adjust_type = 2; /* adjust total */
 100:src/Adjust.c  ****   else
 101:src/Adjust.c  ****     adjust_type = 1; /* adjust tip */
 102:src/Adjust.c  **** 
 103:src/Adjust.c  ****   while (TRUE) {
 104:src/Adjust.c  ****     input_ok = FALSE;
 105:src/Adjust.c  ****     switch (adjust_type) {
 106:src/Adjust.c  ****       case 0: /* 0 adjust amount */
 107:src/Adjust.c  ****         DispCurrTotal(org_trans);
 108:src/Adjust.c  ****         DispLineMW(GetConstMsg(EDC_AJ_ENTER_NAMT), MW_LINE5, MW_BIGFONT);
 109:src/Adjust.c  ****         if (!APM_GetKbd(AMOUNT_INPUT+MW_LINE7+KDecimalPos[STIS_TERM_CFG.b_decimal_pos], IMIN(1)+IMA
 110:src/Adjust.c  ****           return;
 111:src/Adjust.c  ****         if (STIS_TERM_CFG.b_decimal_pos < 2) {  // 8583 expect 2 decimal pos.
 112:src/Adjust.c  ****           memset(&kbdbuf[kbdbuf[0]+1], '0', 2);
 113:src/Adjust.c  ****           kbdbuf[0] += (2-STIS_TERM_CFG.b_decimal_pos);
 114:src/Adjust.c  ****         }
 115:src/Adjust.c  ****         INPUT.dd_amount = decbin8b(&kbdbuf[1], kbdbuf[0]);
 116:src/Adjust.c  ****         input_ok = TRUE;
 117:src/Adjust.c  ****         break;
 118:src/Adjust.c  **** 
 119:src/Adjust.c  ****       case 1: /* 1 adjust tip */
 120:src/Adjust.c  ****         if (INPUT.dd_tip == 0) {
 121:src/Adjust.c  ****           DispLineMW(GetConstMsg(EDC_AJ_BASE_AMT), MW_LINE1, MW_CENTER|MW_BIGFONT);
 122:src/Adjust.c  ****           DispAmount(INPUT.dd_amount, MW_LINE3, MW_BIGFONT);
 123:src/Adjust.c  ****           DispLineMW(GetConstMsg(EDC_AJ_TIPS_AMT), MW_LINE5, MW_BIGFONT);
 124:src/Adjust.c  ****         }
 125:src/Adjust.c  ****         else {
 126:src/Adjust.c  ****           DispLineMW(GetConstMsg(EDC_AJ_TIPS_AMT), MW_LINE1, MW_BIGFONT);
 127:src/Adjust.c  ****           DispAmount(INPUT.dd_tip, MW_LINE3, MW_BIGFONT);
 128:src/Adjust.c  ****           DispLineMW(GetConstMsg(EDC_AJ_ENTER_NTIP), MW_LINE5, MW_BIGFONT);
 129:src/Adjust.c  ****         }
 130:src/Adjust.c  ****         if (!APM_GetKbd(AMOUNT_INPUT+MW_LINE7+KDecimalPos[STIS_TERM_CFG.b_decimal_pos], IMIN(1)+IMA
 131:src/Adjust.c  ****           return;
 132:src/Adjust.c  ****         if (STIS_TERM_CFG.b_decimal_pos < 2) {  // 8583 expect 2 decimal pos.
 133:src/Adjust.c  ****           memset(&kbdbuf[kbdbuf[0]+1], '0', 2);
 134:src/Adjust.c  ****           kbdbuf[0] += (2-STIS_TERM_CFG.b_decimal_pos);
 135:src/Adjust.c  ****         }
 136:src/Adjust.c  ****         INPUT.dd_tip = decbin8b(&kbdbuf[1], kbdbuf[0]);
 137:src/Adjust.c  ****         input_ok = TRUE;
 138:src/Adjust.c  ****         break;
 139:src/Adjust.c  **** 
 140:src/Adjust.c  ****       case 2: /* 2 - adjust total */
 141:src/Adjust.c  ****         DispLineMW(GetConstMsg(EDC_AJ_BASE_AMT), MW_LINE1, MW_CENTER|MW_BIGFONT);
 142:src/Adjust.c  ****         DispAmount(INPUT.dd_amount, MW_LINE3, MW_BIGFONT);
 143:src/Adjust.c  ****         DispLineMW(GetConstMsg(EDC_AJ_TOTAL_PROMPT), MW_LINE5, MW_CENTER|MW_BIGFONT);
ARM GAS  C:\Users\AHMEDH~1\AppData\Local\Temp\cc0sucSM.s 			page 6


 144:src/Adjust.c  ****         if (!APM_GetKbd(AMOUNT_INPUT+MW_LINE7+KDecimalPos[STIS_TERM_CFG.b_decimal_pos], IMIN(1)+IMA
 145:src/Adjust.c  ****           return;
 146:src/Adjust.c  ****         if (STIS_TERM_CFG.b_decimal_pos < 2) {  // 8583 expect 2 decimal pos.
 147:src/Adjust.c  ****           memset(&kbdbuf[kbdbuf[0]+1], '0', 2);
 148:src/Adjust.c  ****           kbdbuf[0] += (2-STIS_TERM_CFG.b_decimal_pos);
 149:src/Adjust.c  ****         }
 150:src/Adjust.c  ****         amount = decbin8b(&kbdbuf[1], kbdbuf[0]);
 151:src/Adjust.c  ****         if (amount == 0)
 152:src/Adjust.c  ****           adjust_type = 1; /* adjust TIP */
 153:src/Adjust.c  ****         else
 154:src/Adjust.c  ****           if (amount < INPUT.dd_amount)
 155:src/Adjust.c  ****             LongBeep();
 156:src/Adjust.c  ****           else {
 157:src/Adjust.c  ****             INPUT.dd_tip = amount - INPUT.dd_amount;
 158:src/Adjust.c  ****             input_ok = TRUE;
 159:src/Adjust.c  ****           }
 160:src/Adjust.c  ****         break;
 161:src/Adjust.c  **** 
 162:src/Adjust.c  ****       case 3:  /* adjust base */
 163:src/Adjust.c  ****         DispLineMW(GetConstMsg(EDC_AJ_BASE_AMT), MW_LINE1, MW_CENTER|MW_BIGFONT);
 164:src/Adjust.c  ****         DispAmount(INPUT.dd_amount, MW_LINE3, MW_BIGFONT);
 165:src/Adjust.c  ****         DispLineMW(GetConstMsg(EDC_AJ_ENTER_NAMT), MW_LINE5, MW_BIGFONT);
 166:src/Adjust.c  ****         if (!APM_GetKbd(AMOUNT_INPUT+MW_LINE7+KDecimalPos[STIS_TERM_CFG.b_decimal_pos], IMIN(1)+IMA
 167:src/Adjust.c  ****           return;
 168:src/Adjust.c  ****         if (STIS_TERM_CFG.b_decimal_pos < 2) {  // 8583 expect 2 decimal pos.
 169:src/Adjust.c  ****           memset(&kbdbuf[kbdbuf[0]+1], '0', 2);
 170:src/Adjust.c  ****           kbdbuf[0] += (2-STIS_TERM_CFG.b_decimal_pos);
 171:src/Adjust.c  ****         }
 172:src/Adjust.c  ****         INPUT.dd_amount = decbin8b(&kbdbuf[1], kbdbuf[0]);
 173:src/Adjust.c  ****         input_ok = TRUE;
 174:src/Adjust.c  ****         break;
 175:src/Adjust.c  ****     }
 176:src/Adjust.c  ****     if (input_ok) {
 177:src/Adjust.c  ****       if (OverMargin()) {
 178:src/Adjust.c  ****         DispErrorMsg(GetConstMsg(EDC_AJ_OVERLIMIT));
 179:src/Adjust.c  ****         continue;
 180:src/Adjust.c  ****       }
 181:src/Adjust.c  **** 
 182:src/Adjust.c  ****       DispCurrTotal(org_trans);
 183:src/Adjust.c  **** 
 184:src/Adjust.c  ****       switch (PromptYesNo()) {
 185:src/Adjust.c  ****         case 0: /* cancel key */
 186:src/Adjust.c  ****           return;
 187:src/Adjust.c  ****         case 1: /* no */
 188:src/Adjust.c  ****           continue;
 189:src/Adjust.c  ****       }
 190:src/Adjust.c  ****       INPUT.dd_amount += INPUT.dd_tip;
 191:src/Adjust.c  ****       RECORD_BUF.dd_tip    = INPUT.dd_tip;
 192:src/Adjust.c  ****       RECORD_BUF.dd_amount = INPUT.dd_amount;
 193:src/Adjust.c  ****       if ((RECORD_BUF.b_trans_status & OFFLINE) == 0)
 194:src/Adjust.c  ****         RECORD_BUF.b_trans_status = ADJUSTED_OFF|ADJUSTED;
 195:src/Adjust.c  ****       else
 196:src/Adjust.c  ****         RECORD_BUF.b_trans_status |= ADJUSTED;
 197:src/Adjust.c  ****       //IncTraceNo();
 198:src/Adjust.c  ****       //memcpy(RECORD_BUF.sb_trace_no, INPUT.sb_trace_no, sizeof(RECORD_BUF.sb_trace_no));
 199:src/Adjust.c  ****       UpdateRecord(aIdx);
 200:src/Adjust.c  ****       DispHeader(NULL);
ARM GAS  C:\Users\AHMEDH~1\AppData\Local\Temp\cc0sucSM.s 			page 7


 201:src/Adjust.c  ****       DispClrBelowMW(MW_LINE3);
 202:src/Adjust.c  ****       Disp2x16Msg(GetConstMsg(EDC_AJ_COMPLETED), MW_LINE5, MW_BIGFONT);
 203:src/Adjust.c  ****       AcceptBeep();
 204:src/Adjust.c  ****       Delay1Sec(3,0);
 205:src/Adjust.c  ****       return;
 206:src/Adjust.c  ****     }
 207:src/Adjust.c  ****   }
 208:src/Adjust.c  **** }
 209:src/Adjust.c  **** //*****************************************************************************
 210:src/Adjust.c  **** //  Function        : AdjustTrans
 211:src/Adjust.c  **** //  Description     : Do a adjustment transaction.
 212:src/Adjust.c  **** //  Input           : aRecIdx;      // record index
 213:src/Adjust.c  **** //  Return          : N/A
 214:src/Adjust.c  **** //  Note            : N/A
 215:src/Adjust.c  **** //  Globals Changed : N/A
 216:src/Adjust.c  **** //*****************************************************************************
 217:src/Adjust.c  **** void AdjustTrans(DWORD aRecIdx)
 218:src/Adjust.c  **** {
 141              		.loc 1 218 0
 142              		.cfi_startproc
 143              		@ args = 0, pretend = 0, frame = 32
 144              		@ frame_needed = 0, uses_anonymous_args = 0
 145              	.LVL19:
 146 0000 2DE9F04F 		push	{r4, r5, r6, r7, r8, r9, r10, fp, lr}
 147              		.cfi_def_cfa_offset 36
 148              		.cfi_offset 4, -36
 149              		.cfi_offset 5, -32
 150              		.cfi_offset 6, -28
 151              		.cfi_offset 7, -24
 152              		.cfi_offset 8, -20
 153              		.cfi_offset 9, -16
 154              		.cfi_offset 10, -12
 155              		.cfi_offset 11, -8
 156              		.cfi_offset 14, -4
 219:src/Adjust.c  ****   INPUT.b_trans = ADJUST;
 157              		.loc 1 219 0
 158 0004 0B23     		movs	r3, #11
 159 0006 BA4C     		ldr	r4, .L88
 220:src/Adjust.c  **** 
 221:src/Adjust.c  ****   if (STIS_TERM_DATA.b_stis_mode < TRANS_MODE) {
 160              		.loc 1 221 0
 161 0008 BA4D     		ldr	r5, .L88+4
 219:src/Adjust.c  ****   INPUT.b_trans = ADJUST;
 162              		.loc 1 219 0
 163 000a 2370     		strb	r3, [r4]
 164              		.loc 1 221 0
 165 000c 2B68     		ldr	r3, [r5]
 218:src/Adjust.c  ****   INPUT.b_trans = ADJUST;
 166              		.loc 1 218 0
 167 000e 8BB0     		sub	sp, sp, #44
 168              		.cfi_def_cfa_offset 80
 169              		.loc 1 221 0
 170 0010 93F85835 		ldrb	r3, [r3, #1368]	@ zero_extendqisi2
 218:src/Adjust.c  ****   INPUT.b_trans = ADJUST;
 171              		.loc 1 218 0
 172 0014 0746     		mov	r7, r0
 173              		.loc 1 221 0
ARM GAS  C:\Users\AHMEDH~1\AppData\Local\Temp\cc0sucSM.s 			page 8


 174 0016 012B     		cmp	r3, #1
 175 0018 66D9     		bls	.L20
 222:src/Adjust.c  ****     DispErrorMsg(GetConstMsg(EDC_AJ_NOT_ALLOW));
 223:src/Adjust.c  ****     return;
 224:src/Adjust.c  ****   }
 225:src/Adjust.c  ****   if (aRecIdx == -1) {
 176              		.loc 1 225 0
 177 001a 431C     		adds	r3, r0, #1
 178 001c 09D1     		bne	.L14
 226:src/Adjust.c  ****     DispHeader(NULL);
 179              		.loc 1 226 0
 180 001e 0020     		movs	r0, #0
 181              	.LVL20:
 182 0020 FFF7FEFF 		bl	DispHeader
 183              	.LVL21:
 227:src/Adjust.c  ****     aRecIdx = SearchRecord(FALSE);
 184              		.loc 1 227 0
 185 0024 0020     		movs	r0, #0
 186 0026 FFF7FEFF 		bl	SearchRecord
 187              	.LVL22:
 228:src/Adjust.c  ****     if (aRecIdx == -1)
 188              		.loc 1 228 0
 189 002a 461C     		adds	r6, r0, #1
 227:src/Adjust.c  ****     aRecIdx = SearchRecord(FALSE);
 190              		.loc 1 227 0
 191 002c 0746     		mov	r7, r0
 192              	.LVL23:
 193              		.loc 1 228 0
 194 002e 00F04382 		beq	.L11
 195              	.L14:
 229:src/Adjust.c  ****       return;
 230:src/Adjust.c  ****   }
 231:src/Adjust.c  **** 
 232:src/Adjust.c  ****   DispHeader(NULL);
 196              		.loc 1 232 0
 197 0032 0020     		movs	r0, #0
 198              	.LVL24:
 199 0034 FFF7FEFF 		bl	DispHeader
 200              	.LVL25:
 233:src/Adjust.c  ****   APM_GetBatchRec(aRecIdx, (BYTE *)&RECORD_BUF, sizeof(RECORD_BUF));
 201              		.loc 1 233 0
 202 0038 2B68     		ldr	r3, [r5]
 203 003a 4FF40072 		mov	r2, #512
 204 003e 03F5D963 		add	r3, r3, #1736
 205 0042 0092     		str	r2, [sp]
 206 0044 1020     		movs	r0, #16
 207 0046 3A46     		mov	r2, r7
 208 0048 2A21     		movs	r1, #42
 209 004a FFF7FEFF 		bl	lib_app_call
 210              	.LVL26:
 234:src/Adjust.c  ****   if (RECORD_BUF.b_trans_status & VOIDED) {
 211              		.loc 1 234 0
 212 004e 2A68     		ldr	r2, [r5]
 233:src/Adjust.c  ****   APM_GetBatchRec(aRecIdx, (BYTE *)&RECORD_BUF, sizeof(RECORD_BUF));
 213              		.loc 1 233 0
 214 0050 DFF8A082 		ldr	r8, .L88+4
 215              		.loc 1 234 0
ARM GAS  C:\Users\AHMEDH~1\AppData\Local\Temp\cc0sucSM.s 			page 9


 216 0054 92F8C936 		ldrb	r3, [r2, #1737]	@ zero_extendqisi2
 217 0058 03F01003 		and	r3, r3, #16
 218 005c 03F0FF06 		and	r6, r3, #255
 219 0060 0BB1     		cbz	r3, .L15
 235:src/Adjust.c  ****     DispErrorMsg(GetConstMsg(EDC_AJ_TXN_VOIDED));
 220              		.loc 1 235 0
 221 0062 2C20     		movs	r0, #44
 222 0064 41E0     		b	.L83
 223              	.L15:
 236:src/Adjust.c  ****     return;
 237:src/Adjust.c  ****   }
 238:src/Adjust.c  **** 
 239:src/Adjust.c  ****   APM_GetTermData(&STIS_TERM_DATA);
 224              		.loc 1 239 0
 225 0066 0E21     		movs	r1, #14
 226 0068 02F5AB62 		add	r2, r2, #1368
 227 006c 3346     		mov	r3, r6
 228 006e 0096     		str	r6, [sp]
 229 0070 1020     		movs	r0, #16
 230 0072 FFF7FEFF 		bl	lib_app_call
 231              	.LVL27:
 240:src/Adjust.c  ****   APM_GetAcqTbl(RECORD_BUF.w_host_idx, &STIS_ACQ_TBL(0));
 232              		.loc 1 240 0
 233 0076 D8F80030 		ldr	r3, [r8]
 234 007a 1521     		movs	r1, #21
 235 007c B3F83E27 		ldrh	r2, [r3, #1854]
 236 0080 1020     		movs	r0, #16
 237 0082 03F55273 		add	r3, r3, #840
 238 0086 0096     		str	r6, [sp]
 239 0088 FFF7FEFF 		bl	lib_app_call
 240              	.LVL28:
 241:src/Adjust.c  ****   APM_GetIssuer(RECORD_BUF.w_issuer_idx, &STIS_ISS_TBL(0));
 241              		.loc 1 241 0
 242 008c D8F80030 		ldr	r3, [r8]
 243 0090 1321     		movs	r1, #19
 244 0092 B3F84027 		ldrh	r2, [r3, #1856]
 245 0096 1020     		movs	r0, #16
 246 0098 03F59463 		add	r3, r3, #1184
 247 009c 0096     		str	r6, [sp]
 248 009e FFF7FEFF 		bl	lib_app_call
 249              	.LVL29:
 242:src/Adjust.c  **** 
 243:src/Adjust.c  ****   if (!AdjustAllowed()) {
 250              		.loc 1 243 0
 251 00a2 FFF7FEFF 		bl	AdjustAllowed
 252              	.LVL30:
 253 00a6 F8B1     		cbz	r0, .L20
 244:src/Adjust.c  ****     DispErrorMsg(GetConstMsg(EDC_AJ_NOT_ALLOW));
 245:src/Adjust.c  ****     return;
 246:src/Adjust.c  ****   }
 247:src/Adjust.c  **** 
 248:src/Adjust.c  ****   if (HostSettlePending() || APM_BatchFull(INPUT.w_host_idx)) {
 254              		.loc 1 248 0
 255 00a8 FFF7FEFF 		bl	HostSettlePending
 256              	.LVL31:
 257 00ac 0346     		mov	r3, r0
 258 00ae 08B1     		cbz	r0, .L17
ARM GAS  C:\Users\AHMEDH~1\AppData\Local\Temp\cc0sucSM.s 			page 10


 259              	.L18:
 249:src/Adjust.c  ****     DispErrorMsg(GetConstMsg(EDC_AJ_CLOSE_BATCH));
 260              		.loc 1 249 0
 261 00b0 2D20     		movs	r0, #45
 262 00b2 1AE0     		b	.L83
 263              	.L17:
 248:src/Adjust.c  ****     DispErrorMsg(GetConstMsg(EDC_AJ_CLOSE_BATCH));
 264              		.loc 1 248 0 discriminator 1
 265 00b4 B4F87620 		ldrh	r2, [r4, #118]
 266 00b8 2821     		movs	r1, #40
 267 00ba 0090     		str	r0, [sp]
 268 00bc 1020     		movs	r0, #16
 269 00be FFF7FEFF 		bl	lib_app_call
 270              	.LVL32:
 271 00c2 0028     		cmp	r0, #0
 272 00c4 F4D1     		bne	.L18
 273              	.LVL33:
 274              	.LBB14:
 275              	.LBB15:
  85:src/Adjust.c  **** 
 276              		.loc 1 85 0
 277 00c6 D8F80030 		ldr	r3, [r8]
 278 00ca 93F8C8A6 		ldrb	r10, [r3, #1736]	@ zero_extendqisi2
 279              	.LVL34:
  88:src/Adjust.c  ****        ((org_trans <= REFUND) && (org_trans >=ONL_REFUND_SW)) ) {
 280              		.loc 1 88 0
 281 00ce 93F8C936 		ldrb	r3, [r3, #1737]	@ zero_extendqisi2
 282 00d2 9806     		lsls	r0, r3, #26
 283 00d4 04D4     		bmi	.L19
 284              	.L22:
 285 00d6 AAF10403 		sub	r3, r10, #4
 286 00da 022B     		cmp	r3, #2
 287 00dc 04D9     		bls	.L20
 288 00de 09E0     		b	.L84
 289              	.L19:
 290 00e0 FFF7FEFF 		bl	MultiAdjustAllowed
 291              	.LVL35:
 292 00e4 0028     		cmp	r0, #0
 293 00e6 F6D1     		bne	.L22
 294              	.LVL36:
 295              	.L20:
  90:src/Adjust.c  ****     return;
 296              		.loc 1 90 0
 297 00e8 2620     		movs	r0, #38
 298              	.L83:
 299 00ea FFF7FEFF 		bl	GetConstMsg
 300              	.LVL37:
 301 00ee FFF7FEFF 		bl	DispErrorMsg
 302              	.LVL38:
 303 00f2 E1E1     		b	.L11
 304              	.LVL39:
 305              	.L84:
  93:src/Adjust.c  ****   INPUT.dd_tip    = RECORD_BUF.dd_tip;
 306              		.loc 1 93 0
 307 00f4 2B68     		ldr	r3, [r5]
 308 00f6 03F5DC62 		add	r2, r3, #1760
  94:src/Adjust.c  ****   INPUT.dd_amount -= INPUT.dd_tip;
ARM GAS  C:\Users\AHMEDH~1\AppData\Local\Temp\cc0sucSM.s 			page 11


 309              		.loc 1 94 0
 310 00fa 03F5DD63 		add	r3, r3, #1768
  93:src/Adjust.c  ****   INPUT.dd_tip    = RECORD_BUF.dd_tip;
 311              		.loc 1 93 0
 312 00fe D2E90001 		ldrd	r0, [r2]
  94:src/Adjust.c  ****   INPUT.dd_amount -= INPUT.dd_tip;
 313              		.loc 1 94 0
 314 0102 D3E90023 		ldrd	r2, [r3]
 315 0106 C4E90823 		strd	r2, [r4, #32]
  95:src/Adjust.c  **** 
 316              		.loc 1 95 0
 317 010a 821A     		subs	r2, r0, r2
 318 010c 61EB0303 		sbc	r3, r1, r3
 319 0110 C4E90623 		strd	r2, [r4, #24]
 320              	.LVL40:
  98:src/Adjust.c  ****     adjust_type = 2; /* adjust total */
 321              		.loc 1 98 0
 322 0114 FFF7FEFF 		bl	TIPsReqd
 323              	.LVL41:
 324 0118 0028     		cmp	r0, #0
 325 011a 00F0A380 		beq	.L49
 326 011e 5046     		mov	r0, r10
 327 0120 FFF7FEFF 		bl	SaleType
 328              	.LVL42:
 101:src/Adjust.c  **** 
 329              		.loc 1 101 0
 330 0124 0028     		cmp	r0, #0
 331 0126 14BF     		ite	ne
 332 0128 4FF00209 		movne	r9, #2
 333 012c 4FF00109 		moveq	r9, #1
 334 0130 08E0     		b	.L25
 335              	.LVL43:
 336              	.L86:
 154:src/Adjust.c  ****             LongBeep();
 337              		.loc 1 154 0
 338 0132 D4E90623 		ldrd	r2, [r4, #24]
 339 0136 9942     		cmp	r1, r3
 340 0138 08BF     		it	eq
 341 013a 9042     		cmpeq	r0, r2
 342 013c 80F06981 		bcs	.L43
 155:src/Adjust.c  ****           else {
 343              		.loc 1 155 0
 344 0140 FFF7FEFF 		bl	LongBeep
 345              	.LVL44:
 346              	.L25:
 105:src/Adjust.c  ****       case 0: /* 0 adjust amount */
 347              		.loc 1 105 0
 348 0144 B9F1020F 		cmp	r9, #2
 349 0148 02AE     		add	r6, sp, #8
 350 014a 40F08E80 		bne	.L85
 351              	.LBB16:
 141:src/Adjust.c  ****         DispAmount(INPUT.dd_amount, MW_LINE3, MW_BIGFONT);
 352              		.loc 1 141 0
 353 014e 2920     		movs	r0, #41
 354 0150 FFF7FEFF 		bl	GetConstMsg
 355              	.LVL45:
 356 0154 FFF7FEFF 		bl	strlen
ARM GAS  C:\Users\AHMEDH~1\AppData\Local\Temp\cc0sucSM.s 			page 12


 357              	.LVL46:
 358 0158 8346     		mov	fp, r0
 359              	.LVL47:
 360 015a 0BF10101 		add	r1, fp, #1
 361 015e 9220     		movs	r0, #146
 362              	.LVL48:
 363 0160 FFF7FEFF 		bl	sys_func1
 364              	.LVL49:
 365 0164 8046     		mov	r8, r0
 366 0166 C0B1     		cbz	r0, .L38
 367 0168 2920     		movs	r0, #41
 368              	.LVL50:
 369 016a FFF7FEFF 		bl	GetConstMsg
 370              	.LVL51:
 371 016e 5A46     		mov	r2, fp
 372 0170 0146     		mov	r1, r0
 373 0172 4046     		mov	r0, r8
 374 0174 FFF7FEFF 		bl	memcpy
 375              	.LVL52:
 376 0178 0023     		movs	r3, #0
 377 017a 2521     		movs	r1, #37
 378 017c 08F80B30 		strb	r3, [r8, fp]
 379 0180 41F20203 		movw	r3, #4098
 380 0184 0F20     		movs	r0, #15
 381 0186 0093     		str	r3, [sp]
 382 0188 4246     		mov	r2, r8
 383 018a 4FF48073 		mov	r3, #256
 384 018e FFF7FEFF 		bl	lib_app_call
 385              	.LVL53:
 386 0192 9420     		movs	r0, #148
 387 0194 4146     		mov	r1, r8
 388 0196 FFF7FEFF 		bl	sys_func1
 389              	.LVL54:
 390              	.L38:
 391              	.LBE16:
 142:src/Adjust.c  ****         DispLineMW(GetConstMsg(EDC_AJ_TOTAL_PROMPT), MW_LINE5, MW_CENTER|MW_BIGFONT);
 392              		.loc 1 142 0
 393 019a D4E90601 		ldrd	r0, [r4, #24]
 394 019e 4FF44072 		mov	r2, #768
 395 01a2 4FF48053 		mov	r3, #4096
 396 01a6 FFF7FEFF 		bl	DispAmount
 397              	.LVL55:
 398              	.LBB17:
 143:src/Adjust.c  ****         if (!APM_GetKbd(AMOUNT_INPUT+MW_LINE7+KDecimalPos[STIS_TERM_CFG.b_decimal_pos], IMIN(1)+IMA
 399              		.loc 1 143 0
 400 01aa 2520     		movs	r0, #37
 401 01ac FFF7FEFF 		bl	GetConstMsg
 402              	.LVL56:
 403 01b0 FFF7FEFF 		bl	strlen
 404              	.LVL57:
 405 01b4 8346     		mov	fp, r0
 406              	.LVL58:
 407 01b6 0BF10101 		add	r1, fp, #1
 408 01ba 9220     		movs	r0, #146
 409              	.LVL59:
 410 01bc FFF7FEFF 		bl	sys_func1
 411              	.LVL60:
ARM GAS  C:\Users\AHMEDH~1\AppData\Local\Temp\cc0sucSM.s 			page 13


 412 01c0 8046     		mov	r8, r0
 413              	.LVL61:
 414 01c2 C0B1     		cbz	r0, .L39
 415 01c4 2520     		movs	r0, #37
 416              	.LVL62:
 417 01c6 FFF7FEFF 		bl	GetConstMsg
 418              	.LVL63:
 419 01ca 5A46     		mov	r2, fp
 420 01cc 0146     		mov	r1, r0
 421 01ce 4046     		mov	r0, r8
 422 01d0 FFF7FEFF 		bl	memcpy
 423              	.LVL64:
 424 01d4 0023     		movs	r3, #0
 425 01d6 2521     		movs	r1, #37
 426 01d8 08F80B30 		strb	r3, [r8, fp]
 427 01dc 41F20203 		movw	r3, #4098
 428 01e0 0F20     		movs	r0, #15
 429 01e2 0093     		str	r3, [sp]
 430 01e4 4246     		mov	r2, r8
 431 01e6 4FF4A063 		mov	r3, #1280
 432 01ea FFF7FEFF 		bl	lib_app_call
 433              	.LVL65:
 434 01ee 9420     		movs	r0, #148
 435 01f0 4146     		mov	r1, r8
 436 01f2 FFF7FEFF 		bl	sys_func1
 437              	.LVL66:
 438              	.L39:
 439              	.LBE17:
 144:src/Adjust.c  ****           return;
 440              		.loc 1 144 0
 441 01f6 2B68     		ldr	r3, [r5]
 442 01f8 3F49     		ldr	r1, .L88+8
 443 01fa 93F86420 		ldrb	r2, [r3, #100]	@ zero_extendqisi2
 444 01fe 93F86330 		ldrb	r3, [r3, #99]	@ zero_extendqisi2
 445 0202 51F82220 		ldr	r2, [r1, r2, lsl #2]
 446 0206 0096     		str	r6, [sp]
 447 0208 02F58332 		add	r2, r2, #67072
 448 020c 1020     		movs	r0, #16
 449 020e 0521     		movs	r1, #5
 450 0210 02F58072 		add	r2, r2, #256
 451 0214 03F58073 		add	r3, r3, #256
 452 0218 FFF7FEFF 		bl	lib_app_call
 453              	.LVL67:
 454 021c 10F0FF0F 		tst	r0, #255
 455 0220 00F04A81 		beq	.L11
 146:src/Adjust.c  ****           memset(&kbdbuf[kbdbuf[0]+1], '0', 2);
 456              		.loc 1 146 0
 457 0224 334B     		ldr	r3, .L88+4
 458 0226 D3F80080 		ldr	r8, [r3]
 459              	.LVL68:
 460 022a 98F86430 		ldrb	r3, [r8, #100]	@ zero_extendqisi2
 461 022e 012B     		cmp	r3, #1
 462 0230 0FD8     		bhi	.L41
 147:src/Adjust.c  ****           kbdbuf[0] += (2-STIS_TERM_CFG.b_decimal_pos);
 463              		.loc 1 147 0
 464 0232 9DF80800 		ldrb	r0, [sp, #8]	@ zero_extendqisi2
 465 0236 0222     		movs	r2, #2
ARM GAS  C:\Users\AHMEDH~1\AppData\Local\Temp\cc0sucSM.s 			page 14


 466 0238 0130     		adds	r0, r0, #1
 467 023a 3044     		add	r0, r0, r6
 468 023c 3021     		movs	r1, #48
 469 023e FFF7FEFF 		bl	memset
 470              	.LVL69:
 471 0242 9DF80830 		ldrb	r3, [sp, #8]	@ zero_extendqisi2
 148:src/Adjust.c  ****         }
 472              		.loc 1 148 0
 473 0246 98F86420 		ldrb	r2, [r8, #100]	@ zero_extendqisi2
 474 024a 0233     		adds	r3, r3, #2
 475 024c 9B1A     		subs	r3, r3, r2
 476 024e 8DF80830 		strb	r3, [sp, #8]
 477              	.L41:
 150:src/Adjust.c  ****         if (amount == 0)
 478              		.loc 1 150 0
 479 0252 701C     		adds	r0, r6, #1
 480 0254 9DF80810 		ldrb	r1, [sp, #8]	@ zero_extendqisi2
 481 0258 FFF7FEFF 		bl	decbin8b
 482              	.LVL70:
 151:src/Adjust.c  ****           adjust_type = 1; /* adjust TIP */
 483              		.loc 1 151 0
 484 025c 50EA0103 		orrs	r3, r0, r1
 485 0260 7FF467AF 		bne	.L86
 486              	.LVL71:
 487              	.L49:
 101:src/Adjust.c  **** 
 488              		.loc 1 101 0
 489 0264 4FF00109 		mov	r9, #1
 490 0268 6CE7     		b	.L25
 491              	.LVL72:
 492              	.L85:
 120:src/Adjust.c  ****           DispLineMW(GetConstMsg(EDC_AJ_BASE_AMT), MW_LINE1, MW_CENTER|MW_BIGFONT);
 493              		.loc 1 120 0
 494 026a D4E90823 		ldrd	r2, [r4, #32]
 495 026e 1343     		orrs	r3, r2, r3
 496 0270 44D1     		bne	.L29
 497              	.LBB18:
 121:src/Adjust.c  ****           DispAmount(INPUT.dd_amount, MW_LINE3, MW_BIGFONT);
 498              		.loc 1 121 0
 499 0272 2920     		movs	r0, #41
 500 0274 FFF7FEFF 		bl	GetConstMsg
 501              	.LVL73:
 502 0278 FFF7FEFF 		bl	strlen
 503              	.LVL74:
 504 027c 8146     		mov	r9, r0
 505              	.LVL75:
 506 027e 09F10101 		add	r1, r9, #1
 507 0282 9220     		movs	r0, #146
 508              	.LVL76:
 509 0284 FFF7FEFF 		bl	sys_func1
 510              	.LVL77:
 511 0288 8046     		mov	r8, r0
 512 028a C0B1     		cbz	r0, .L30
 513 028c 2920     		movs	r0, #41
 514              	.LVL78:
 515 028e FFF7FEFF 		bl	GetConstMsg
 516              	.LVL79:
ARM GAS  C:\Users\AHMEDH~1\AppData\Local\Temp\cc0sucSM.s 			page 15


 517 0292 4A46     		mov	r2, r9
 518 0294 0146     		mov	r1, r0
 519 0296 4046     		mov	r0, r8
 520 0298 FFF7FEFF 		bl	memcpy
 521              	.LVL80:
 522 029c 0023     		movs	r3, #0
 523 029e 2521     		movs	r1, #37
 524 02a0 08F80930 		strb	r3, [r8, r9]
 525 02a4 41F20203 		movw	r3, #4098
 526 02a8 0F20     		movs	r0, #15
 527 02aa 0093     		str	r3, [sp]
 528 02ac 4246     		mov	r2, r8
 529 02ae 4FF48073 		mov	r3, #256
 530 02b2 FFF7FEFF 		bl	lib_app_call
 531              	.LVL81:
 532 02b6 9420     		movs	r0, #148
 533 02b8 4146     		mov	r1, r8
 534 02ba FFF7FEFF 		bl	sys_func1
 535              	.LVL82:
 536              	.L30:
 537              	.LBE18:
 122:src/Adjust.c  ****           DispLineMW(GetConstMsg(EDC_AJ_TIPS_AMT), MW_LINE5, MW_BIGFONT);
 538              		.loc 1 122 0
 539 02be D4E90601 		ldrd	r0, [r4, #24]
 540 02c2 4FF44072 		mov	r2, #768
 541 02c6 4FF48053 		mov	r3, #4096
 542 02ca FFF7FEFF 		bl	DispAmount
 543              	.LVL83:
 544              	.LBB19:
 123:src/Adjust.c  ****         }
 545              		.loc 1 123 0
 546 02ce 2A20     		movs	r0, #42
 547 02d0 FFF7FEFF 		bl	GetConstMsg
 548              	.LVL84:
 549 02d4 FFF7FEFF 		bl	strlen
 550              	.LVL85:
 551 02d8 8146     		mov	r9, r0
 552              	.LVL86:
 553 02da 09F10101 		add	r1, r9, #1
 554 02de 9220     		movs	r0, #146
 555              	.LVL87:
 556 02e0 FFF7FEFF 		bl	sys_func1
 557              	.LVL88:
 558 02e4 8046     		mov	r8, r0
 559              	.LVL89:
 560 02e6 0028     		cmp	r0, #0
 561 02e8 5CD0     		beq	.L32
 562 02ea 2A20     		movs	r0, #42
 563              	.LVL90:
 564 02ec 42E0     		b	.L81
 565              	.L89:
 566 02ee 00BF     		.align	2
 567              	.L88:
 568 02f0 00000000 		.word	gGTS
 569 02f4 00000000 		.word	gGDS
 570 02f8 00000000 		.word	.LANCHOR0
 571              	.LVL91:
ARM GAS  C:\Users\AHMEDH~1\AppData\Local\Temp\cc0sucSM.s 			page 16


 572              	.L29:
 573              	.LBE19:
 574              	.LBB20:
 126:src/Adjust.c  ****           DispAmount(INPUT.dd_tip, MW_LINE3, MW_BIGFONT);
 575              		.loc 1 126 0
 576 02fc 2A20     		movs	r0, #42
 577 02fe FFF7FEFF 		bl	GetConstMsg
 578              	.LVL92:
 579 0302 FFF7FEFF 		bl	strlen
 580              	.LVL93:
 581 0306 8146     		mov	r9, r0
 582              	.LVL94:
 583 0308 09F10101 		add	r1, r9, #1
 584 030c 9220     		movs	r0, #146
 585              	.LVL95:
 586 030e FFF7FEFF 		bl	sys_func1
 587              	.LVL96:
 588 0312 8046     		mov	r8, r0
 589 0314 C0B1     		cbz	r0, .L33
 590 0316 2A20     		movs	r0, #42
 591              	.LVL97:
 592 0318 FFF7FEFF 		bl	GetConstMsg
 593              	.LVL98:
 594 031c 4A46     		mov	r2, r9
 595 031e 0146     		mov	r1, r0
 596 0320 4046     		mov	r0, r8
 597 0322 FFF7FEFF 		bl	memcpy
 598              	.LVL99:
 599 0326 0023     		movs	r3, #0
 600 0328 2521     		movs	r1, #37
 601 032a 08F80930 		strb	r3, [r8, r9]
 602 032e 4FF48053 		mov	r3, #4096
 603 0332 0F20     		movs	r0, #15
 604 0334 0093     		str	r3, [sp]
 605 0336 4246     		mov	r2, r8
 606 0338 4FF48073 		mov	r3, #256
 607 033c FFF7FEFF 		bl	lib_app_call
 608              	.LVL100:
 609 0340 9420     		movs	r0, #148
 610 0342 4146     		mov	r1, r8
 611 0344 FFF7FEFF 		bl	sys_func1
 612              	.LVL101:
 613              	.L33:
 614              	.LBE20:
 127:src/Adjust.c  ****           DispLineMW(GetConstMsg(EDC_AJ_ENTER_NTIP), MW_LINE5, MW_BIGFONT);
 615              		.loc 1 127 0
 616 0348 D4E90801 		ldrd	r0, [r4, #32]
 617 034c 4FF44072 		mov	r2, #768
 618 0350 4FF48053 		mov	r3, #4096
 619 0354 FFF7FEFF 		bl	DispAmount
 620              	.LVL102:
 621              	.LBB21:
 128:src/Adjust.c  ****         }
 622              		.loc 1 128 0
 623 0358 2820     		movs	r0, #40
 624 035a FFF7FEFF 		bl	GetConstMsg
 625              	.LVL103:
ARM GAS  C:\Users\AHMEDH~1\AppData\Local\Temp\cc0sucSM.s 			page 17


 626 035e FFF7FEFF 		bl	strlen
 627              	.LVL104:
 628 0362 8146     		mov	r9, r0
 629              	.LVL105:
 630 0364 09F10101 		add	r1, r9, #1
 631 0368 9220     		movs	r0, #146
 632              	.LVL106:
 633 036a FFF7FEFF 		bl	sys_func1
 634              	.LVL107:
 635 036e 8046     		mov	r8, r0
 636              	.LVL108:
 637 0370 C0B1     		cbz	r0, .L32
 638 0372 2820     		movs	r0, #40
 639              	.LVL109:
 640              	.L81:
 641 0374 FFF7FEFF 		bl	GetConstMsg
 642              	.LVL110:
 643 0378 4A46     		mov	r2, r9
 644 037a 0146     		mov	r1, r0
 645 037c 4046     		mov	r0, r8
 646 037e FFF7FEFF 		bl	memcpy
 647              	.LVL111:
 648 0382 0023     		movs	r3, #0
 649 0384 2521     		movs	r1, #37
 650 0386 08F80930 		strb	r3, [r8, r9]
 651 038a 4FF48053 		mov	r3, #4096
 652 038e 0F20     		movs	r0, #15
 653 0390 0093     		str	r3, [sp]
 654 0392 4246     		mov	r2, r8
 655 0394 4FF4A063 		mov	r3, #1280
 656 0398 FFF7FEFF 		bl	lib_app_call
 657              	.LVL112:
 658 039c 9420     		movs	r0, #148
 659 039e 4146     		mov	r1, r8
 660 03a0 FFF7FEFF 		bl	sys_func1
 661              	.LVL113:
 662              	.L32:
 663              	.LBE21:
 130:src/Adjust.c  ****           return;
 664              		.loc 1 130 0
 665 03a4 2B68     		ldr	r3, [r5]
 666 03a6 4649     		ldr	r1, .L90
 667 03a8 93F86420 		ldrb	r2, [r3, #100]	@ zero_extendqisi2
 668 03ac 93F86330 		ldrb	r3, [r3, #99]	@ zero_extendqisi2
 669 03b0 51F82220 		ldr	r2, [r1, r2, lsl #2]
 670 03b4 0096     		str	r6, [sp]
 671 03b6 02F58332 		add	r2, r2, #67072
 672 03ba 1020     		movs	r0, #16
 673 03bc 0521     		movs	r1, #5
 674 03be 02F58072 		add	r2, r2, #256
 675 03c2 03F58073 		add	r3, r3, #256
 676 03c6 FFF7FEFF 		bl	lib_app_call
 677              	.LVL114:
 678 03ca 10F0FF0F 		tst	r0, #255
 679 03ce 73D0     		beq	.L11
 132:src/Adjust.c  ****           memset(&kbdbuf[kbdbuf[0]+1], '0', 2);
 680              		.loc 1 132 0
ARM GAS  C:\Users\AHMEDH~1\AppData\Local\Temp\cc0sucSM.s 			page 18


 681 03d0 3C4B     		ldr	r3, .L90+4
 682 03d2 D3F80080 		ldr	r8, [r3]
 683 03d6 98F86430 		ldrb	r3, [r8, #100]	@ zero_extendqisi2
 684 03da 012B     		cmp	r3, #1
 685 03dc 0FD8     		bhi	.L36
 133:src/Adjust.c  ****           kbdbuf[0] += (2-STIS_TERM_CFG.b_decimal_pos);
 686              		.loc 1 133 0
 687 03de 9DF80800 		ldrb	r0, [sp, #8]	@ zero_extendqisi2
 688 03e2 0222     		movs	r2, #2
 689 03e4 0130     		adds	r0, r0, #1
 690 03e6 3044     		add	r0, r0, r6
 691 03e8 3021     		movs	r1, #48
 692 03ea FFF7FEFF 		bl	memset
 693              	.LVL115:
 694 03ee 9DF80830 		ldrb	r3, [sp, #8]	@ zero_extendqisi2
 134:src/Adjust.c  ****         }
 695              		.loc 1 134 0
 696 03f2 98F86420 		ldrb	r2, [r8, #100]	@ zero_extendqisi2
 697 03f6 0233     		adds	r3, r3, #2
 698 03f8 9B1A     		subs	r3, r3, r2
 699 03fa 8DF80830 		strb	r3, [sp, #8]
 700              	.L36:
 136:src/Adjust.c  ****         input_ok = TRUE;
 701              		.loc 1 136 0
 702 03fe 701C     		adds	r0, r6, #1
 703 0400 9DF80810 		ldrb	r1, [sp, #8]	@ zero_extendqisi2
 704 0404 FFF7FEFF 		bl	decbin8b
 705              	.LVL116:
 706 0408 4FF00109 		mov	r9, #1
 707 040c C4E90801 		strd	r0, [r4, #32]
 708              	.LVL117:
 709 0410 05E0     		b	.L37
 710              	.LVL118:
 711              	.L43:
 157:src/Adjust.c  ****             input_ok = TRUE;
 712              		.loc 1 157 0
 713 0412 801A     		subs	r0, r0, r2
 714              	.LVL119:
 715 0414 61EB0301 		sbc	r1, r1, r3
 716 0418 2B4B     		ldr	r3, .L90+8
 717 041a C3E90801 		strd	r0, [r3, #32]
 718              	.LVL120:
 719              	.L37:
 177:src/Adjust.c  ****         DispErrorMsg(GetConstMsg(EDC_AJ_OVERLIMIT));
 720              		.loc 1 177 0
 721 041e FFF7FEFF 		bl	OverMargin
 722              	.LVL121:
 723 0422 28B1     		cbz	r0, .L87
 178:src/Adjust.c  ****         continue;
 724              		.loc 1 178 0
 725 0424 2B20     		movs	r0, #43
 726 0426 FFF7FEFF 		bl	GetConstMsg
 727              	.LVL122:
 728 042a FFF7FEFF 		bl	DispErrorMsg
 729              	.LVL123:
 730 042e 89E6     		b	.L25
 731              	.L87:
ARM GAS  C:\Users\AHMEDH~1\AppData\Local\Temp\cc0sucSM.s 			page 19


 182:src/Adjust.c  **** 
 732              		.loc 1 182 0
 733 0430 5046     		mov	r0, r10
 734 0432 FFF7FEFF 		bl	DispCurrTotal
 735              	.LVL124:
 184:src/Adjust.c  ****         case 0: /* cancel key */
 736              		.loc 1 184 0
 737 0436 FFF7FEFF 		bl	PromptYesNo
 738              	.LVL125:
 739 043a 0028     		cmp	r0, #0
 740 043c 3CD0     		beq	.L11
 741 043e 0128     		cmp	r0, #1
 742 0440 3FF480AE 		beq	.L25
 190:src/Adjust.c  ****       RECORD_BUF.dd_tip    = INPUT.dd_tip;
 743              		.loc 1 190 0
 744 0444 D4E90801 		ldrd	r0, [r4, #32]
 745 0448 D4E90623 		ldrd	r2, [r4, #24]
 746 044c 10EB0208 		adds	r8, r0, r2
 747 0450 41EB0309 		adc	r9, r1, r3
 748              	.LVL126:
 191:src/Adjust.c  ****       RECORD_BUF.dd_amount = INPUT.dd_amount;
 749              		.loc 1 191 0
 750 0454 2B68     		ldr	r3, [r5]
 190:src/Adjust.c  ****       RECORD_BUF.dd_tip    = INPUT.dd_tip;
 751              		.loc 1 190 0
 752 0456 C4E90689 		strd	r8, [r4, #24]
 191:src/Adjust.c  ****       RECORD_BUF.dd_amount = INPUT.dd_amount;
 753              		.loc 1 191 0
 754 045a 03F5DD62 		add	r2, r3, #1768
 201:src/Adjust.c  ****       Disp2x16Msg(GetConstMsg(EDC_AJ_COMPLETED), MW_LINE5, MW_BIGFONT);
 755              		.loc 1 201 0
 756 045e 0024     		movs	r4, #0
 191:src/Adjust.c  ****       RECORD_BUF.dd_amount = INPUT.dd_amount;
 757              		.loc 1 191 0
 758 0460 C2E90001 		strd	r0, [r2]
 192:src/Adjust.c  ****       if ((RECORD_BUF.b_trans_status & OFFLINE) == 0)
 759              		.loc 1 192 0
 760 0464 03F5DC62 		add	r2, r3, #1760
 199:src/Adjust.c  ****       DispHeader(NULL);
 761              		.loc 1 199 0
 762 0468 3846     		mov	r0, r7
 192:src/Adjust.c  ****       if ((RECORD_BUF.b_trans_status & OFFLINE) == 0)
 763              		.loc 1 192 0
 764 046a C2E90089 		strd	r8, [r2]
 193:src/Adjust.c  ****         RECORD_BUF.b_trans_status = ADJUSTED_OFF|ADJUSTED;
 765              		.loc 1 193 0
 766 046e 93F8C926 		ldrb	r2, [r3, #1737]	@ zero_extendqisi2
 767 0472 1106     		lsls	r1, r2, #24
 194:src/Adjust.c  ****       else
 768              		.loc 1 194 0
 769 0474 54BF     		ite	pl
 770 0476 6022     		movpl	r2, #96
 196:src/Adjust.c  ****       //IncTraceNo();
 771              		.loc 1 196 0
 772 0478 42F02002 		orrmi	r2, r2, #32
 773 047c 83F8C926 		strb	r2, [r3, #1737]
 199:src/Adjust.c  ****       DispHeader(NULL);
ARM GAS  C:\Users\AHMEDH~1\AppData\Local\Temp\cc0sucSM.s 			page 20


 774              		.loc 1 199 0
 775 0480 FFF7FEFF 		bl	UpdateRecord
 776              	.LVL127:
 200:src/Adjust.c  ****       DispClrBelowMW(MW_LINE3);
 777              		.loc 1 200 0
 778 0484 0020     		movs	r0, #0
 779 0486 FFF7FEFF 		bl	DispHeader
 780              	.LVL128:
 201:src/Adjust.c  ****       Disp2x16Msg(GetConstMsg(EDC_AJ_COMPLETED), MW_LINE5, MW_BIGFONT);
 781              		.loc 1 201 0
 782 048a 2346     		mov	r3, r4
 783 048c 2321     		movs	r1, #35
 784 048e 4FF44072 		mov	r2, #768
 785 0492 0094     		str	r4, [sp]
 786 0494 0F20     		movs	r0, #15
 787 0496 FFF7FEFF 		bl	lib_app_call
 788              	.LVL129:
 202:src/Adjust.c  ****       AcceptBeep();
 789              		.loc 1 202 0
 790 049a 2E20     		movs	r0, #46
 791 049c FFF7FEFF 		bl	GetConstMsg
 792              	.LVL130:
 793 04a0 4FF4A061 		mov	r1, #1280
 794 04a4 4FF48052 		mov	r2, #4096
 795 04a8 FFF7FEFF 		bl	Disp2x16Msg
 796              	.LVL131:
 203:src/Adjust.c  ****       Delay1Sec(3,0);
 797              		.loc 1 203 0
 798 04ac FFF7FEFF 		bl	AcceptBeep
 799              	.LVL132:
 204:src/Adjust.c  ****       return;
 800              		.loc 1 204 0
 801 04b0 0320     		movs	r0, #3
 802 04b2 2146     		mov	r1, r4
 803 04b4 FFF7FEFF 		bl	Delay1Sec
 804              	.LVL133:
 805              	.L11:
 806              	.LBE15:
 807              	.LBE14:
 250:src/Adjust.c  ****     return;
 251:src/Adjust.c  ****   }
 252:src/Adjust.c  ****   AdjustRecord(aRecIdx);
 253:src/Adjust.c  **** }
 808              		.loc 1 253 0
 809 04b8 0BB0     		add	sp, sp, #44
 810              		.cfi_def_cfa_offset 36
 811              		@ sp needed
 812 04ba BDE8F08F 		pop	{r4, r5, r6, r7, r8, r9, r10, fp, pc}
 813              	.LVL134:
 814              	.L91:
 815 04be 00BF     		.align	2
 816              	.L90:
 817 04c0 00000000 		.word	.LANCHOR0
 818 04c4 00000000 		.word	gGDS
 819 04c8 00000000 		.word	gGTS
 820              		.cfi_endproc
 821              	.LFE2:
ARM GAS  C:\Users\AHMEDH~1\AppData\Local\Temp\cc0sucSM.s 			page 21


 822              		.size	AdjustTrans, .-AdjustTrans
 823              		.section	.rodata
 824              		.align	2
 825              		.set	.LANCHOR0,. + 0
 826              		.type	KDecimalPos.12533, %object
 827              		.size	KDecimalPos.12533, 16
 828              	KDecimalPos.12533:
 829 0000 00000000 		.word	0
 830 0004 00000001 		.word	16777216
 831 0008 00000002 		.word	33554432
 832 000c 00000003 		.word	50331648
 833              		.text
 834              	.Letext0:
 835              		.file 2 "c:\\devtools\\gcc_v49_2014q4\\lib\\gcc\\arm-none-eabi\\4.9.3\\include\\stddef.h"
 836              		.file 3 "../LibA5T1000/common.h"
 837              		.file 4 "src/sysutil.h"
 838              		.file 5 "../LibA5T1000/emv2dll.h"
 839              		.file 6 "../LibA5T1000/emvcl2dll.h"
 840              		.file 7 "../LibA5T1000/ecrdll.h"
 841              		.file 8 "../LibA5T1000/midware.h"
 842              		.file 9 "src/constant.h"
 843              		.file 10 "../LibA5T1000/apm.h"
 844              		.file 11 "src/corevar.h"
 845              		.file 12 "src/message.h"
 846              		.file 13 "src/tranutil.h"
 847              		.file 14 "c:\\devtools\\gcc_v49_2014q4\\arm-none-eabi\\include\\string.h"
 848              		.file 15 "../LibA5T1000/system.h"
 849              		.file 16 "src/chkoptn.h"
 850              		.file 17 "../LibA5T1000/util.h"
 851              		.file 18 "src/input.h"
 852              		.file 19 "src/record.h"