ARM GAS  C:\Users\AHMED~1.ELE\AppData\Local\Temp\ccTGjd4s.s 			page 1


   1              		.syntax unified
   2              		.cpu cortex-a5
   3              		.fpu softvfp
   4              		.eabi_attribute 20, 1
   5              		.eabi_attribute 21, 1
   6              		.eabi_attribute 23, 3
   7              		.eabi_attribute 24, 1
   8              		.eabi_attribute 25, 1
   9              		.eabi_attribute 26, 1
  10              		.eabi_attribute 30, 4
  11              		.eabi_attribute 34, 0
  12              		.eabi_attribute 18, 4
  13              		.thumb
  14              		.file	"Auth.c"
  15              		.text
  16              	.Ltext0:
  17              		.cfi_sections	.debug_frame
  18              		.section	.text.AuthTrans,"ax",%progbits
  19              		.align	1
  20              		.global	AuthTrans
  21              		.thumb
  22              		.thumb_func
  23              		.type	AuthTrans, %function
  24              	AuthTrans:
  25              	.LFB0:
  26              		.file 1 "src/Auth.c"
   1:src/Auth.c    **** //-----------------------------------------------------------------------------
   2:src/Auth.c    **** //  File          : Auth.c
   3:src/Auth.c    **** //  Module        :
   4:src/Auth.c    **** //  Description   : Include Auth transaction.
   5:src/Auth.c    **** //  Author        : Lewis
   6:src/Auth.c    **** //  Notes         : N/A
   7:src/Auth.c    **** //
   8:src/Auth.c    **** // ============================================================================
   9:src/Auth.c    **** // | Naming conventions                                                       |
  10:src/Auth.c    **** // | ~~~~~~~~~~~~~~~~~~                                                       |
  11:src/Auth.c    **** // |        Struct define : Leading T                                         |
  12:src/Auth.c    **** // |         Struct/Array : Leading s                                         |
  13:src/Auth.c    **** // |             Constant : Leading K                                         |
  14:src/Auth.c    **** // |      Global Variable : Leading g  (variable use outside one C file)      |
  15:src/Auth.c    **** // |                                                                          |
  16:src/Auth.c    **** // |   BYTE( 8 Bits) size : Leading b                                         |
  17:src/Auth.c    **** // |   CHAR( 8 Bits) size : Leading c                                         |
  18:src/Auth.c    **** // |   WORD(16 Bits) size : Leading w                                         |
  19:src/Auth.c    **** // |  DWORD(32 Bits) size : Leading d                                         |
  20:src/Auth.c    **** // |    int(32 Bits) size : Leading i                                         |
  21:src/Auth.c    **** // | DDWORD(64 Bits) size : Leading dd                                        |
  22:src/Auth.c    **** // |              Pointer : Leading p                                         |
  23:src/Auth.c    **** // |                                                                          |
  24:src/Auth.c    **** // |    Function argument : Leading a                                         |
  25:src/Auth.c    **** // |       Local Variable : All lower case                                    |
  26:src/Auth.c    **** // |                                                                          |
  27:src/Auth.c    **** // | Examples:                                                                |
  28:src/Auth.c    **** // |                Array : Leading s, (sb = arrary of byte, etc)             |
  29:src/Auth.c    **** // |              Pointer : Leading p, (pb = pointer of byte, etc)            |
  30:src/Auth.c    **** // ============================================================================
  31:src/Auth.c    **** //
ARM GAS  C:\Users\AHMED~1.ELE\AppData\Local\Temp\ccTGjd4s.s 			page 2


  32:src/Auth.c    **** //  Date          Who         Action
  33:src/Auth.c    **** //  ------------  ----------- -------------------------------------------------
  34:src/Auth.c    **** //  29 Sept 2008  Lewis       Initial Version.
  35:src/Auth.c    **** //-----------------------------------------------------------------------------
  36:src/Auth.c    **** #include <string.h>
  37:src/Auth.c    **** #include "util.h"
  38:src/Auth.c    **** #include "sysutil.h"
  39:src/Auth.c    **** #include "apm.h"
  40:src/Auth.c    **** #include "message.h"
  41:src/Auth.c    **** #include "constant.h"
  42:src/Auth.c    **** #include "corevar.h"
  43:src/Auth.c    **** #include "chkoptn.h"
  44:src/Auth.c    **** #include "print.h"
  45:src/Auth.c    **** #include "tranutil.h"
  46:src/Auth.c    **** #include "hostmsg.h"
  47:src/Auth.c    **** #include "record.h"
  48:src/Auth.c    **** #include "reversal.h"
  49:src/Auth.c    **** #include "offline.h"
  50:src/Auth.c    **** #include "sale.h"
  51:src/Auth.c    **** #include "emvtrans.h"
  52:src/Auth.c    **** #include "auth.h"
  53:src/Auth.c    **** 
  54:src/Auth.c    **** //*****************************************************************************
  55:src/Auth.c    **** //  Function        : AuthTrans
  56:src/Auth.c    **** //  Description     : Do authorization transaction.
  57:src/Auth.c    **** //  Input           : aInputMode;       // Transaction start mode
  58:src/Auth.c    **** //  Return          : N/A
  59:src/Auth.c    **** //  Note            : N/A
  60:src/Auth.c    **** //  Globals Changed : N/A
  61:src/Auth.c    **** //*****************************************************************************
  62:src/Auth.c    **** DWORD AuthTrans(DWORD aInputMode)
  63:src/Auth.c    **** {
  27              		.loc 1 63 0
  28              		.cfi_startproc
  29              		@ args = 0, pretend = 0, frame = 0
  30              		@ frame_needed = 0, uses_anonymous_args = 0
  31              	.LVL0:
  32 0000 F7B5     		push	{r0, r1, r2, r4, r5, r6, r7, lr}
  33              		.cfi_def_cfa_offset 32
  34              		.cfi_offset 4, -20
  35              		.cfi_offset 5, -16
  36              		.cfi_offset 6, -12
  37              		.cfi_offset 7, -8
  38              		.cfi_offset 14, -4
  64:src/Auth.c    ****   INPUT.b_trans = AUTH_SWIPE;
  39              		.loc 1 64 0
  40 0002 0026     		movs	r6, #0
  41 0004 424D     		ldr	r5, .L19
  63:src/Auth.c    ****   INPUT.b_trans = AUTH_SWIPE;
  42              		.loc 1 63 0
  43 0006 0746     		mov	r7, r0
  65:src/Auth.c    **** 
  66:src/Auth.c    ****   DispHeader(NULL);
  44              		.loc 1 66 0
  45 0008 3046     		mov	r0, r6
  46              	.LVL1:
  64:src/Auth.c    **** 
ARM GAS  C:\Users\AHMED~1.ELE\AppData\Local\Temp\ccTGjd4s.s 			page 3


  47              		.loc 1 64 0
  48 000a 2E70     		strb	r6, [r5]
  49              		.loc 1 66 0
  50 000c FFF7FEFF 		bl	DispHeader
  51              	.LVL2:
  67:src/Auth.c    **** //  PowerFailure();
  68:src/Auth.c    **** 
  69:src/Auth.c    ****   if (!TransAllowed(aInputMode)) {
  52              		.loc 1 69 0
  53 0010 3846     		mov	r0, r7
  54 0012 FFF7FEFF 		bl	TransAllowed
  55              	.LVL3:
  56 0016 0446     		mov	r4, r0
  57 0018 10B9     		cbnz	r0, .L2
  70:src/Auth.c    ****     RefreshDispAfter(0);
  58              		.loc 1 70 0
  59 001a FFF7FEFF 		bl	RefreshDispAfter
  60              	.LVL4:
  61 001e 6AE0     		b	.L17
  62              	.L2:
  71:src/Auth.c    ****     return FALSE;
  72:src/Auth.c    ****   }
  73:src/Auth.c    **** 
  74:src/Auth.c    ****   if (aInputMode == MANUAL)
  63              		.loc 1 74 0
  64 0020 4D2F     		cmp	r7, #77
  75:src/Auth.c    ****     INPUT.b_trans = AUTH_MANUAL;
  65              		.loc 1 75 0
  66 0022 08BF     		it	eq
  67 0024 0123     		moveq	r3, #1
  76:src/Auth.c    **** 
  77:src/Auth.c    ****   ClearResponse();
  78:src/Auth.c    ****   //PackComm(INPUT.w_host_idx, FALSE);
  79:src/Auth.c    ****   if ((RSP_DATA.w_rspcode = APM_ConnectOK(FALSE)) == COMM_OK) {
  68              		.loc 1 79 0
  69 0026 4FF00004 		mov	r4, #0
  75:src/Auth.c    ****     INPUT.b_trans = AUTH_MANUAL;
  70              		.loc 1 75 0
  71 002a 08BF     		it	eq
  72 002c 2B70     		strbeq	r3, [r5]
  77:src/Auth.c    ****   //PackComm(INPUT.w_host_idx, FALSE);
  73              		.loc 1 77 0
  74 002e FFF7FEFF 		bl	ClearResponse
  75              	.LVL5:
  76              		.loc 1 79 0
  77 0032 0096     		str	r6, [sp]
  78 0034 2346     		mov	r3, r4
  79 0036 1020     		movs	r0, #16
  80 0038 0A21     		movs	r1, #10
  81 003a 2246     		mov	r2, r4
  82 003c FFF7FEFF 		bl	lib_app_call
  83              	.LVL6:
  84 0040 43F23003 		movw	r3, #12336
  85 0044 324E     		ldr	r6, .L19
  86 0046 87B2     		uxth	r7, r0
  87              	.LVL7:
  88 0048 9F42     		cmp	r7, r3
ARM GAS  C:\Users\AHMED~1.ELE\AppData\Local\Temp\ccTGjd4s.s 			page 4


  89 004a A5F81677 		strh	r7, [r5, #1814]	@ movhi
  90 004e 54D1     		bne	.L10
  80:src/Auth.c    ****     if (ReversalOK()) {
  91              		.loc 1 80 0
  92 0050 FFF7FEFF 		bl	ReversalOK
  93              	.LVL8:
  94 0054 0028     		cmp	r0, #0
  95 0056 50D0     		beq	.L10
  81:src/Auth.c    ****       OfflineSent(0);
  96              		.loc 1 81 0
  97 0058 2046     		mov	r0, r4
  98 005a FFF7FEFF 		bl	OfflineSent
  99              	.LVL9:
  82:src/Auth.c    ****       IncTraceNo();
 100              		.loc 1 82 0
 101 005e FFF7FEFF 		bl	IncTraceNo
 102              	.LVL10:
  83:src/Auth.c    ****       MoveInput2Tx();
 103              		.loc 1 83 0
 104 0062 FFF7FEFF 		bl	MoveInput2Tx
 105              	.LVL11:
  84:src/Auth.c    ****       PackProcCode(TX_DATA.b_trans, 0xFF);
 106              		.loc 1 84 0
 107 0066 FF21     		movs	r1, #255
 108 0068 96F8A804 		ldrb	r0, [r6, #1192]	@ zero_extendqisi2
 109 006c FFF7FEFF 		bl	PackProcCode
 110              	.LVL12:
  85:src/Auth.c    ****       PackHostMsg();
 111              		.loc 1 85 0
 112 0070 FFF7FEFF 		bl	PackHostMsg
 113              	.LVL13:
  86:src/Auth.c    ****       UpdateHostStatus(REV_PENDING);
 114              		.loc 1 86 0
 115 0074 0120     		movs	r0, #1
 116 0076 FFF7FEFF 		bl	UpdateHostStatus
 117              	.LVL14:
  87:src/Auth.c    ****       fCommitAllMW();
 118              		.loc 1 87 0
 119 007a 1321     		movs	r1, #19
 120 007c 2246     		mov	r2, r4
 121 007e 2346     		mov	r3, r4
 122 0080 0094     		str	r4, [sp]
 123 0082 0F20     		movs	r0, #15
 124 0084 FFF7FEFF 		bl	lib_app_call
 125              	.LVL15:
  88:src/Auth.c    **** 
  89:src/Auth.c    ****       ClearResponse();
 126              		.loc 1 89 0
 127 0088 FFF7FEFF 		bl	ClearResponse
 128              	.LVL16:
  90:src/Auth.c    ****       if ((RSP_DATA.w_rspcode=APM_SendRcvd(&TX_BUF, &RX_BUF))==COMM_OK) {
 129              		.loc 1 90 0
 130 008c 214B     		ldr	r3, .L19+4
 131 008e 1020     		movs	r0, #16
 132 0090 1B68     		ldr	r3, [r3]
 133 0092 0B21     		movs	r1, #11
 134 0094 03F5CC52 		add	r2, r3, #6528
ARM GAS  C:\Users\AHMED~1.ELE\AppData\Local\Temp\ccTGjd4s.s 			page 5


 135 0098 03F51653 		add	r3, r3, #9600
 136 009c 0094     		str	r4, [sp]
 137 009e 1C32     		adds	r2, r2, #28
 138 00a0 2033     		adds	r3, r3, #32
 139 00a2 FFF7FEFF 		bl	lib_app_call
 140              	.LVL17:
 141 00a6 80B2     		uxth	r0, r0
 142 00a8 B842     		cmp	r0, r7
 143 00aa A6F81607 		strh	r0, [r6, #1814]	@ movhi
 144 00ae 08D1     		bne	.L7
  91:src/Auth.c    ****         RSP_DATA.b_response = CheckHostRsp();
 145              		.loc 1 91 0
 146 00b0 FFF7FEFF 		bl	CheckHostRsp
 147              	.LVL18:
  92:src/Auth.c    ****         if (RSP_DATA.b_response <= TRANS_REJ)
 148              		.loc 1 92 0
 149 00b4 0128     		cmp	r0, #1
  91:src/Auth.c    ****         RSP_DATA.b_response = CheckHostRsp();
 150              		.loc 1 91 0
 151 00b6 86F8A808 		strb	r0, [r6, #2216]
 152              		.loc 1 92 0
 153 00ba 02D8     		bhi	.L7
  93:src/Auth.c    ****           UpdateHostStatus(NO_PENDING);
 154              		.loc 1 93 0
 155 00bc 2046     		mov	r0, r4
 156 00be FFF7FEFF 		bl	UpdateHostStatus
 157              	.LVL19:
 158              	.L7:
  94:src/Auth.c    ****       }
  95:src/Auth.c    ****       //SaveTraceNo();
  96:src/Auth.c    ****       if (RSP_DATA.b_response == TRANS_ACP) {
 159              		.loc 1 96 0
 160 00c2 95F8A848 		ldrb	r4, [r5, #2216]	@ zero_extendqisi2
 161 00c6 124E     		ldr	r6, .L19
 162 00c8 4CB9     		cbnz	r4, .L9
  97:src/Auth.c    ****         RSP_DATA.w_rspcode = 'A'*256+'P';
 163              		.loc 1 97 0
 164 00ca 44F25013 		movw	r3, #16720
 165 00ce A6F81637 		strh	r3, [r6, #1814]	@ movhi
  98:src/Auth.c    ****         PackInputP();
 166              		.loc 1 98 0
 167 00d2 FFF7FEFF 		bl	PackInputP
 168              	.LVL20:
  99:src/Auth.c    ****         UpdateHostStatus(NO_PENDING);
 169              		.loc 1 99 0
 170 00d6 2046     		mov	r0, r4
 171 00d8 FFF7FEFF 		bl	UpdateHostStatus
 172              	.LVL21:
 173 00dc 0DE0     		b	.L10
 174              	.L9:
 100:src/Auth.c    ****       }
 101:src/Auth.c    ****       else
 102:src/Auth.c    ****         if (RSP_DATA.b_response == TRANS_REJ) {
 175              		.loc 1 102 0
 176 00de 012C     		cmp	r4, #1
 177 00e0 0BD1     		bne	.L10
 103:src/Auth.c    ****           UpdateHostStatus(NO_PENDING);
ARM GAS  C:\Users\AHMED~1.ELE\AppData\Local\Temp\ccTGjd4s.s 			page 6


 178              		.loc 1 103 0
 179 00e2 0020     		movs	r0, #0
 180 00e4 FFF7FEFF 		bl	UpdateHostStatus
 181              	.LVL22:
 104:src/Auth.c    ****           if (VoiceReferral(RSP_DATA.w_rspcode)) {
 182              		.loc 1 104 0
 183 00e8 B6F81607 		ldrh	r0, [r6, #1814]
 184 00ec FFF7FEFF 		bl	VoiceReferral
 185              	.LVL23:
 186 00f0 18B1     		cbz	r0, .L10
 105:src/Auth.c    ****             ReferralProcess();
 187              		.loc 1 105 0
 188 00f2 FFF7FEFF 		bl	ReferralProcess
 189              	.LVL24:
 190              	.L17:
 106:src/Auth.c    ****             return TRUE;
 191              		.loc 1 106 0
 192 00f6 2046     		mov	r0, r4
 193 00f8 07E0     		b	.L3
 194              	.L10:
 107:src/Auth.c    ****           }
 108:src/Auth.c    ****         }
 109:src/Auth.c    ****     }
 110:src/Auth.c    ****   }
 111:src/Auth.c    ****   TransEnd((BOOLEAN)(RSP_DATA.b_response == TRANS_ACP));
 195              		.loc 1 111 0
 196 00fa 95F8A808 		ldrb	r0, [r5, #2216]	@ zero_extendqisi2
 197 00fe B0FA80F0 		clz	r0, r0
 198 0102 4009     		lsrs	r0, r0, #5
 199 0104 FFF7FEFF 		bl	TransEnd
 200              	.LVL25:
 112:src/Auth.c    ****   return TRUE;
 201              		.loc 1 112 0
 202 0108 0120     		movs	r0, #1
 203              	.L3:
 113:src/Auth.c    **** }
 204              		.loc 1 113 0
 205 010a 03B0     		add	sp, sp, #12
 206              		.cfi_def_cfa_offset 20
 207              		@ sp needed
 208 010c F0BD     		pop	{r4, r5, r6, r7, pc}
 209              	.L20:
 210 010e 00BF     		.align	2
 211              	.L19:
 212 0110 00000000 		.word	gGTS
 213 0114 00000000 		.word	gGDS
 214              		.cfi_endproc
 215              	.LFE0:
 216              		.size	AuthTrans, .-AuthTrans
 217              		.text
 218              	.Letext0:
 219              		.file 2 "../LibA5T1000/common.h"
 220              		.file 3 "src/sysutil.h"
 221              		.file 4 "../LibA5T1000/midware.h"
 222              		.file 5 "../LibA5T1000/apm.h"
 223              		.file 6 "src/constant.h"
 224              		.file 7 "../LibA5T1000/emv2dll.h"
ARM GAS  C:\Users\AHMED~1.ELE\AppData\Local\Temp\ccTGjd4s.s 			page 7


 225              		.file 8 "../LibA5T1000/emvcl2dll.h"
 226              		.file 9 "../LibA5T1000/ecrdll.h"
 227              		.file 10 "src/corevar.h"
 228              		.file 11 "src/tranutil.h"
 229              		.file 12 "../LibA5T1000/system.h"
 230              		.file 13 "src/offline.h"
 231              		.file 14 "src/record.h"
 232              		.file 15 "src/hostmsg.h"
 233              		.file 16 "src/reversal.h"
 234              		.file 17 "src/chkoptn.h"
 235              		.file 18 "src/sale.h"