ARM GAS  C:\Users\AHMED~1.ELE\AppData\Local\Temp\ccKE7lQP.s 			page 1


   1              		.syntax unified
   2              		.cpu cortex-a5
   3              		.fpu softvfp
   4              		.eabi_attribute 20, 1
   5              		.eabi_attribute 21, 1
   6              		.eabi_attribute 23, 3
   7              		.eabi_attribute 24, 1
   8              		.eabi_attribute 25, 1
   9              		.eabi_attribute 26, 1
  10              		.eabi_attribute 30, 4
  11              		.eabi_attribute 34, 0
  12              		.eabi_attribute 18, 4
  13              		.thumb
  14              		.file	"auxcom.c"
  15              		.text
  16              	.Ltext0:
  17              		.cfi_sections	.debug_frame
  18              		.section	.text.AuxOpen,"ax",%progbits
  19              		.align	1
  20              		.global	AuxOpen
  21              		.thumb
  22              		.thumb_func
  23              		.type	AuxOpen, %function
  24              	AuxOpen:
  25              	.LFB0:
  26              		.file 1 "src/auxcom.c"
   1:src/auxcom.c  **** //-----------------------------------------------------------------------------
   2:src/auxcom.c  **** //  File          : auxcom.c
   3:src/auxcom.c  **** //  Module        :
   4:src/auxcom.c  **** //  Description   : Aux Port driver routines.
   5:src/auxcom.c  **** //  Author        : John
   6:src/auxcom.c  **** //  Notes         : N/A
   7:src/auxcom.c  **** //
   8:src/auxcom.c  **** //  Naming conventions
   9:src/auxcom.c  **** //  ~~~~~~~~~~~~~~~~~~
  10:src/auxcom.c  **** //             Constant : Leading K
  11:src/auxcom.c  **** //      Global Variable : Leading g
  12:src/auxcom.c  **** //    Function argument : Leading a
  13:src/auxcom.c  **** //       Local Variable : All lower case
  14:src/auxcom.c  **** //
  15:src/auxcom.c  **** //  Date          Who         Action
  16:src/auxcom.c  **** //  ------------  ----------- -------------------------------------------------
  17:src/auxcom.c  **** //  21 Feb  2011  John        Initial Version.
  18:src/auxcom.c  **** //-----------------------------------------------------------------------------
  19:src/auxcom.c  **** #include <string.h>
  20:src/auxcom.c  **** #include "midware.h"
  21:src/auxcom.c  **** #include "sysutil.h"
  22:src/auxcom.c  **** #include "auxcom.h"
  23:src/auxcom.c  **** 
  24:src/auxcom.c  **** //-----------------------------------------------------------------------------
  25:src/auxcom.c  **** //    Defines
  26:src/auxcom.c  **** //-----------------------------------------------------------------------------
  27:src/auxcom.c  **** #define USB_DBG     1
  28:src/auxcom.c  **** 
  29:src/auxcom.c  **** //-----------------------------------------------------------------------------
  30:src/auxcom.c  **** // Globals
  31:src/auxcom.c  **** //-----------------------------------------------------------------------------
ARM GAS  C:\Users\AHMED~1.ELE\AppData\Local\Temp\ccKE7lQP.s 			page 2


  32:src/auxcom.c  **** static int gAuxId=-1;         //-1: USB not enabled; 0: USB enabled; 1: USB port opened
  33:src/auxcom.c  **** 
  34:src/auxcom.c  **** //-----------------------------------------------------------------------------
  35:src/auxcom.c  **** // Constants
  36:src/auxcom.c  **** //-----------------------------------------------------------------------------
  37:src/auxcom.c  **** 
  38:src/auxcom.c  **** 
  39:src/auxcom.c  **** //*****************************************************************************
  40:src/auxcom.c  **** //  Function        : AuxOpen
  41:src/auxcom.c  **** //  Description     : Open the Aux Port.
  42:src/auxcom.c  **** //  Input           : N/A
  43:src/auxcom.c  **** //  Return          : TRUE/FALSE;
  44:src/auxcom.c  **** //  Note            : N/A
  45:src/auxcom.c  **** //  Globals Changed : N/A
  46:src/auxcom.c  **** //*****************************************************************************
  47:src/auxcom.c  **** BOOLEAN AuxOpen(void)
  48:src/auxcom.c  **** {
  27              		.loc 1 48 0
  28              		.cfi_startproc
  29              		@ args = 0, pretend = 0, frame = 0
  30              		@ frame_needed = 0, uses_anonymous_args = 0
  31 0000 10B5     		push	{r4, lr}
  32              		.cfi_def_cfa_offset 8
  33              		.cfi_offset 4, -8
  34              		.cfi_offset 14, -4
  49:src/auxcom.c  **** #if (!USB_DBG)
  50:src/auxcom.c  ****   BOOLEAN ret_val = TRUE;
  51:src/auxcom.c  ****   struct MW_AUX_CFG aux_cfg;
  52:src/auxcom.c  ****   char dev_name[24];
  53:src/auxcom.c  **** 
  54:src/auxcom.c  ****   aux_cfg.b_len     = 0x06;
  55:src/auxcom.c  ****   aux_cfg.b_mode    = 5;            // no parity
  56:src/auxcom.c  ****   aux_cfg.b_speed   = 7;            // 115200bps
  57:src/auxcom.c  ****   aux_cfg.b_rx_gap  = 0x32;
  58:src/auxcom.c  ****   aux_cfg.b_rsp_gap = 0x32;
  59:src/auxcom.c  ****   aux_cfg.b_tx_gap  = 0x32;
  60:src/auxcom.c  ****   aux_cfg.b_retry   = 0x03;
  61:src/auxcom.c  **** 
  62:src/auxcom.c  ****   strcpy(dev_name, DEV_AUX1);
  63:src/auxcom.c  ****   if (((gAuxId = OpenMW(dev_name, MW_RDWR)) < 0)
  64:src/auxcom.c  ****       || (IOCtlMW(gAuxId, IO_AUX_CFG, &aux_cfg) < 0)) {
  65:src/auxcom.c  ****     ret_val = FALSE;
  66:src/auxcom.c  ****   }
  67:src/auxcom.c  ****   return ret_val;
  68:src/auxcom.c  **** #else
  69:src/auxcom.c  **** 
  70:src/auxcom.c  ****   if ((gAuxId==0) && os_usbser_open())
  35              		.loc 1 70 0
  36 0002 074C     		ldr	r4, .L9
  37 0004 2368     		ldr	r3, [r4]
  38 0006 2BB9     		cbnz	r3, .L3
  39              		.loc 1 70 0 is_stmt 0 discriminator 1
  40 0008 E420     		movs	r0, #228
  41 000a FFF7FEFF 		bl	sys_func0
  42              	.LVL0:
  43 000e 08B1     		cbz	r0, .L3
  71:src/auxcom.c  ****     gAuxId = 1;
ARM GAS  C:\Users\AHMED~1.ELE\AppData\Local\Temp\ccKE7lQP.s 			page 3


  44              		.loc 1 71 0 is_stmt 1
  45 0010 0123     		movs	r3, #1
  46 0012 2360     		str	r3, [r4]
  47              	.L3:
  72:src/auxcom.c  ****   
  73:src/auxcom.c  ****   if (gAuxId == 1)
  48              		.loc 1 73 0
  49 0014 2068     		ldr	r0, [r4]
  74:src/auxcom.c  ****     return TRUE;
  75:src/auxcom.c  ****   
  76:src/auxcom.c  ****   return FALSE;
  77:src/auxcom.c  **** #endif
  78:src/auxcom.c  **** }
  50              		.loc 1 78 0
  51 0016 431E     		subs	r3, r0, #1
  52 0018 5842     		rsbs	r0, r3, #0
  53 001a 5841     		adcs	r0, r0, r3
  54 001c 10BD     		pop	{r4, pc}
  55              	.L10:
  56 001e 00BF     		.align	2
  57              	.L9:
  58 0020 00000000 		.word	.LANCHOR0
  59              		.cfi_endproc
  60              	.LFE0:
  61              		.size	AuxOpen, .-AuxOpen
  62              		.section	.text.AuxClose,"ax",%progbits
  63              		.align	1
  64              		.global	AuxClose
  65              		.thumb
  66              		.thumb_func
  67              		.type	AuxClose, %function
  68              	AuxClose:
  69              	.LFB1:
  79:src/auxcom.c  **** //*****************************************************************************
  80:src/auxcom.c  **** //  Function        : AuxClose
  81:src/auxcom.c  **** //  Description     : Close the opened Aux Port.
  82:src/auxcom.c  **** //  Input           : N/A
  83:src/auxcom.c  **** //  Return          : TRUE/FALSE;
  84:src/auxcom.c  **** //  Note            : N/A
  85:src/auxcom.c  **** //  Globals Changed : N/A
  86:src/auxcom.c  **** //*****************************************************************************
  87:src/auxcom.c  **** BOOLEAN AuxClose(void)
  88:src/auxcom.c  **** {
  70              		.loc 1 88 0
  71              		.cfi_startproc
  72              		@ args = 0, pretend = 0, frame = 0
  73              		@ frame_needed = 0, uses_anonymous_args = 0
  89:src/auxcom.c  **** #if (!USB_DBG)
  90:src/auxcom.c  ****   BOOLEAN ret_val = TRUE;
  91:src/auxcom.c  ****   if (CloseMW(gAuxId) < 0)
  92:src/auxcom.c  ****     ret_val = FALSE;
  93:src/auxcom.c  ****   return ret_val;
  94:src/auxcom.c  **** #else
  95:src/auxcom.c  **** 
  96:src/auxcom.c  ****   if (gAuxId > 0)
  74              		.loc 1 96 0
  75 0000 064B     		ldr	r3, .L13
ARM GAS  C:\Users\AHMED~1.ELE\AppData\Local\Temp\ccKE7lQP.s 			page 4


  88:src/auxcom.c  **** #if (!USB_DBG)
  76              		.loc 1 88 0
  77 0002 10B5     		push	{r4, lr}
  78              		.cfi_def_cfa_offset 8
  79              		.cfi_offset 4, -8
  80              		.cfi_offset 14, -4
  81              		.loc 1 96 0
  82 0004 1A68     		ldr	r2, [r3]
  83 0006 1C46     		mov	r4, r3
  84 0008 002A     		cmp	r2, #0
  85 000a 02DD     		ble	.L12
  97:src/auxcom.c  ****     os_usbser_close();
  86              		.loc 1 97 0
  87 000c E520     		movs	r0, #229
  88 000e FFF7FEFF 		bl	sys_func0
  89              	.LVL1:
  90              	.L12:
  98:src/auxcom.c  ****   gAuxId = 0;
  91              		.loc 1 98 0
  92 0012 0023     		movs	r3, #0
  99:src/auxcom.c  ****   return TRUE;
 100:src/auxcom.c  **** #endif
 101:src/auxcom.c  **** }
  93              		.loc 1 101 0
  94 0014 0120     		movs	r0, #1
  98:src/auxcom.c  ****   gAuxId = 0;
  95              		.loc 1 98 0
  96 0016 2360     		str	r3, [r4]
  97              		.loc 1 101 0
  98 0018 10BD     		pop	{r4, pc}
  99              	.L14:
 100 001a 00BF     		.align	2
 101              	.L13:
 102 001c 00000000 		.word	.LANCHOR0
 103              		.cfi_endproc
 104              	.LFE1:
 105              		.size	AuxClose, .-AuxClose
 106              		.section	.text.AuxRead,"ax",%progbits
 107              		.align	1
 108              		.global	AuxRead
 109              		.thumb
 110              		.thumb_func
 111              		.type	AuxRead, %function
 112              	AuxRead:
 113              	.LFB2:
 102:src/auxcom.c  **** //*****************************************************************************
 103:src/auxcom.c  **** //  Function        : AuxRead
 104:src/auxcom.c  **** //  Description     : Read data from the opened Aux Port.
 105:src/auxcom.c  **** //  Input           : aBuf;             // pointer to read buffer
 106:src/auxcom.c  **** //                    aLen;             // len of read buffer
 107:src/auxcom.c  **** //  Return          : len of data read.
 108:src/auxcom.c  **** //  Note            : N/A
 109:src/auxcom.c  **** //  Globals Changed : N/A
 110:src/auxcom.c  **** //*****************************************************************************
 111:src/auxcom.c  **** DWORD AuxRead(BYTE *aBuf, DWORD aLen)
 112:src/auxcom.c  **** {
 114              		.loc 1 112 0
ARM GAS  C:\Users\AHMED~1.ELE\AppData\Local\Temp\ccKE7lQP.s 			page 5


 115              		.cfi_startproc
 116              		@ args = 0, pretend = 0, frame = 0
 117              		@ frame_needed = 0, uses_anonymous_args = 0
 118              	.LVL2:
 119 0000 08B5     		push	{r3, lr}
 120              		.cfi_def_cfa_offset 8
 121              		.cfi_offset 3, -8
 122              		.cfi_offset 14, -4
 123              		.loc 1 112 0
 124 0002 0346     		mov	r3, r0
 125 0004 0A46     		mov	r2, r1
 113:src/auxcom.c  **** #if (!USB_DBG)
 114:src/auxcom.c  ****   int len;
 115:src/auxcom.c  **** 
 116:src/auxcom.c  ****   len = ReadMW(gAuxId, aBuf, aLen);
 117:src/auxcom.c  ****   if (len < 0)
 118:src/auxcom.c  ****     len = 0;
 119:src/auxcom.c  **** 
 120:src/auxcom.c  ****   return len;
 121:src/auxcom.c  **** #else
 122:src/auxcom.c  **** 
 123:src/auxcom.c  ****   int len;
 124:src/auxcom.c  **** 
 125:src/auxcom.c  ****   len = os_usbser_read(aBuf, aLen);
 126              		.loc 1 125 0
 127 0006 E620     		movs	r0, #230
 128              	.LVL3:
 129 0008 1946     		mov	r1, r3
 130              	.LVL4:
 131 000a FFF7FEFF 		bl	sys_func2
 132              	.LVL5:
 126:src/auxcom.c  ****   if (len < 0)
 127:src/auxcom.c  ****     len = 0;
 128:src/auxcom.c  **** 
 129:src/auxcom.c  ****   return len;
 130:src/auxcom.c  **** #endif
 131:src/auxcom.c  **** }
 133              		.loc 1 131 0
 134 000e 20EAE070 		bic	r0, r0, r0, asr #31
 135              	.LVL6:
 136 0012 08BD     		pop	{r3, pc}
 137              		.cfi_endproc
 138              	.LFE2:
 139              		.size	AuxRead, .-AuxRead
 140              		.section	.text.AuxRxRdy,"ax",%progbits
 141              		.align	1
 142              		.global	AuxRxRdy
 143              		.thumb
 144              		.thumb_func
 145              		.type	AuxRxRdy, %function
 146              	AuxRxRdy:
 147              	.LFB4:
 132:src/auxcom.c  **** //*****************************************************************************
 133:src/auxcom.c  **** //  Function        : AuxWrite
 134:src/auxcom.c  **** //  Description     : Write data from the opened Aux Port.
 135:src/auxcom.c  **** //  Input           : aBuf;             // pointer to read buffer
 136:src/auxcom.c  **** //                    aLen;             // len of read buffer
ARM GAS  C:\Users\AHMED~1.ELE\AppData\Local\Temp\ccKE7lQP.s 			page 6


 137:src/auxcom.c  **** //  Return          : TRUE/FALSE;
 138:src/auxcom.c  **** //  Note            : N/A
 139:src/auxcom.c  **** //  Globals Changed : N/A
 140:src/auxcom.c  **** //*****************************************************************************
 141:src/auxcom.c  **** BOOLEAN AuxWrite(BYTE *aBuf, DWORD aLen)
 142:src/auxcom.c  **** {
 143:src/auxcom.c  **** #if (!USB_DBG)
 144:src/auxcom.c  ****   BOOLEAN ret_val = TRUE;
 145:src/auxcom.c  **** 
 146:src/auxcom.c  ****   if (WriteMW(gAuxId, aBuf, aLen) != aLen)
 147:src/auxcom.c  ****     ret_val = FALSE;
 148:src/auxcom.c  ****   return ret_val;
 149:src/auxcom.c  **** #else
 150:src/auxcom.c  ****   DWORD i=500;
 151:src/auxcom.c  ****   BYTE buf[16];
 152:src/auxcom.c  ****   while (AuxTxRdy() == FALSE) {
 153:src/auxcom.c  ****     //sprintf(buf, "USB-Sts=%04X\n", os_usbser_status());
 154:src/auxcom.c  ****     //DispLineMW(buf, MW_LINE5, MW_SPFONT|MW_CENTER);
 155:src/auxcom.c  ****     if (--i == 0)
 156:src/auxcom.c  ****       return FALSE;
 157:src/auxcom.c  ****   }
 158:src/auxcom.c  ****   return (BOOLEAN)os_usbser_write(aBuf, aLen);
 159:src/auxcom.c  **** #endif
 160:src/auxcom.c  **** }
 161:src/auxcom.c  **** //*****************************************************************************
 162:src/auxcom.c  **** //  Function        : AuxRxRdy
 163:src/auxcom.c  **** //  Description     : Check for Aux port receive ready.
 164:src/auxcom.c  **** //  Input           : N/A
 165:src/auxcom.c  **** //  Return          : TRUE/FALSE;
 166:src/auxcom.c  **** //  Note            : N/A
 167:src/auxcom.c  **** //  Globals Changed : N/A
 168:src/auxcom.c  **** //*****************************************************************************
 169:src/auxcom.c  **** BOOLEAN AuxRxRdy(void)
 170:src/auxcom.c  **** {
 148              		.loc 1 170 0
 149              		.cfi_startproc
 150              		@ args = 0, pretend = 0, frame = 0
 151              		@ frame_needed = 0, uses_anonymous_args = 0
 152 0000 08B5     		push	{r3, lr}
 153              		.cfi_def_cfa_offset 8
 154              		.cfi_offset 3, -8
 155              		.cfi_offset 14, -4
 171:src/auxcom.c  **** #if (!USB_DBG)
 172:src/auxcom.c  ****   if (IOCtlMW(gAuxId, IO_AUX_RX_RDY, NULL) <= 0)
 173:src/auxcom.c  ****     return FALSE;
 174:src/auxcom.c  ****   else
 175:src/auxcom.c  ****     return TRUE;
 176:src/auxcom.c  **** #else
 177:src/auxcom.c  **** 
 178:src/auxcom.c  ****   return (BOOLEAN)(os_usbser_status() & K_USB_RXRDY);
 156              		.loc 1 178 0
 157 0002 E820     		movs	r0, #232
 158 0004 FFF7FEFF 		bl	sys_func0
 159              	.LVL7:
 179:src/auxcom.c  **** #endif
 180:src/auxcom.c  **** }
 160              		.loc 1 180 0
ARM GAS  C:\Users\AHMED~1.ELE\AppData\Local\Temp\ccKE7lQP.s 			page 7


 161 0008 00F00100 		and	r0, r0, #1
 162 000c 08BD     		pop	{r3, pc}
 163              		.cfi_endproc
 164              	.LFE4:
 165              		.size	AuxRxRdy, .-AuxRxRdy
 166              		.section	.text.AuxTxRdy,"ax",%progbits
 167              		.align	1
 168              		.global	AuxTxRdy
 169              		.thumb
 170              		.thumb_func
 171              		.type	AuxTxRdy, %function
 172              	AuxTxRdy:
 173              	.LFB5:
 181:src/auxcom.c  **** //*****************************************************************************
 182:src/auxcom.c  **** //  Function        : AuxTxRdy
 183:src/auxcom.c  **** //  Description     : Check for Aux port transmit ready.
 184:src/auxcom.c  **** //  Input           : N/A
 185:src/auxcom.c  **** //  Return          : TRUE/FALSE;
 186:src/auxcom.c  **** //  Note            : N/A
 187:src/auxcom.c  **** //  Globals Changed : N/A
 188:src/auxcom.c  **** //*****************************************************************************
 189:src/auxcom.c  **** BOOLEAN AuxTxRdy(void)
 190:src/auxcom.c  **** {
 174              		.loc 1 190 0
 175              		.cfi_startproc
 176              		@ args = 0, pretend = 0, frame = 0
 177              		@ frame_needed = 0, uses_anonymous_args = 0
 178 0000 08B5     		push	{r3, lr}
 179              		.cfi_def_cfa_offset 8
 180              		.cfi_offset 3, -8
 181              		.cfi_offset 14, -4
 191:src/auxcom.c  **** #if (!USB_DBG)
 192:src/auxcom.c  ****   if (IOCtlMW(gAuxId, IO_AUX_TX_RDY, NULL) <= 0)
 193:src/auxcom.c  ****     return FALSE;
 194:src/auxcom.c  ****   else
 195:src/auxcom.c  ****     return TRUE;
 196:src/auxcom.c  **** #else
 197:src/auxcom.c  **** 
 198:src/auxcom.c  ****   return (BOOLEAN)(os_usbser_status() & K_USB_TXRDY);
 182              		.loc 1 198 0
 183 0002 E820     		movs	r0, #232
 184 0004 FFF7FEFF 		bl	sys_func0
 185              	.LVL8:
 199:src/auxcom.c  **** #endif
 200:src/auxcom.c  **** }
 186              		.loc 1 200 0
 187 0008 00F00200 		and	r0, r0, #2
 188 000c 08BD     		pop	{r3, pc}
 189              		.cfi_endproc
 190              	.LFE5:
 191              		.size	AuxTxRdy, .-AuxTxRdy
 192              		.section	.text.AuxWrite,"ax",%progbits
 193              		.align	1
 194              		.global	AuxWrite
 195              		.thumb
 196              		.thumb_func
 197              		.type	AuxWrite, %function
ARM GAS  C:\Users\AHMED~1.ELE\AppData\Local\Temp\ccKE7lQP.s 			page 8


 198              	AuxWrite:
 199              	.LFB3:
 142:src/auxcom.c  **** #if (!USB_DBG)
 200              		.loc 1 142 0
 201              		.cfi_startproc
 202              		@ args = 0, pretend = 0, frame = 0
 203              		@ frame_needed = 0, uses_anonymous_args = 0
 204              	.LVL9:
 205 0000 70B5     		push	{r4, r5, r6, lr}
 206              		.cfi_def_cfa_offset 16
 207              		.cfi_offset 4, -16
 208              		.cfi_offset 5, -12
 209              		.cfi_offset 6, -8
 210              		.cfi_offset 14, -4
 142:src/auxcom.c  **** #if (!USB_DBG)
 211              		.loc 1 142 0
 212 0002 0646     		mov	r6, r0
 213 0004 0D46     		mov	r5, r1
 152:src/auxcom.c  ****     //sprintf(buf, "USB-Sts=%04X\n", os_usbser_status());
 214              		.loc 1 152 0
 215 0006 4FF4FA74 		mov	r4, #500
 216              	.LVL10:
 217              	.L19:
 218 000a FFF7FEFF 		bl	AuxTxRdy
 219              	.LVL11:
 220 000e 10B9     		cbnz	r0, .L25
 221              	.LVL12:
 155:src/auxcom.c  ****       return FALSE;
 222              		.loc 1 155 0
 223 0010 013C     		subs	r4, r4, #1
 224              	.LVL13:
 225 0012 FAD1     		bne	.L19
 226 0014 05E0     		b	.L20
 227              	.L25:
 158:src/auxcom.c  **** #endif
 228              		.loc 1 158 0
 229 0016 E720     		movs	r0, #231
 230 0018 3146     		mov	r1, r6
 231 001a 2A46     		mov	r2, r5
 232 001c FFF7FEFF 		bl	sys_func2
 233              	.LVL14:
 234 0020 C0B2     		uxtb	r0, r0
 235              	.L20:
 160:src/auxcom.c  **** //*****************************************************************************
 236              		.loc 1 160 0
 237 0022 70BD     		pop	{r4, r5, r6, pc}
 238              		.cfi_endproc
 239              	.LFE3:
 240              		.size	AuxWrite, .-AuxWrite
 241              		.section	.text.AuxEnable,"ax",%progbits
 242              		.align	1
 243              		.global	AuxEnable
 244              		.thumb
 245              		.thumb_func
 246              		.type	AuxEnable, %function
 247              	AuxEnable:
 248              	.LFB6:
ARM GAS  C:\Users\AHMED~1.ELE\AppData\Local\Temp\ccKE7lQP.s 			page 9


 201:src/auxcom.c  **** //*****************************************************************************
 202:src/auxcom.c  **** //  Function        : AuxEnable
 203:src/auxcom.c  **** //  Description     : Enable debug on Aux port.
 204:src/auxcom.c  **** //  Input           : N/A
 205:src/auxcom.c  **** //  Return          : TRUE/FALSE;
 206:src/auxcom.c  **** //  Note            : N/A
 207:src/auxcom.c  **** //  Globals Changed : N/A
 208:src/auxcom.c  **** //*****************************************************************************
 209:src/auxcom.c  **** void AuxEnable(void)
 210:src/auxcom.c  **** {
 249              		.loc 1 210 0
 250              		.cfi_startproc
 251              		@ args = 0, pretend = 0, frame = 0
 252              		@ frame_needed = 0, uses_anonymous_args = 0
 253 0000 08B5     		push	{r3, lr}
 254              		.cfi_def_cfa_offset 8
 255              		.cfi_offset 3, -8
 256              		.cfi_offset 14, -4
 211:src/auxcom.c  ****   os_usbser_enable(TRUE);
 257              		.loc 1 211 0
 258 0002 E920     		movs	r0, #233
 259 0004 0121     		movs	r1, #1
 260 0006 FFF7FEFF 		bl	sys_func1
 261              	.LVL15:
 212:src/auxcom.c  ****   gAuxId = 0;
 262              		.loc 1 212 0
 263 000a 0022     		movs	r2, #0
 264 000c 014B     		ldr	r3, .L27
 265 000e 1A60     		str	r2, [r3]
 266 0010 08BD     		pop	{r3, pc}
 267              	.L28:
 268 0012 00BF     		.align	2
 269              	.L27:
 270 0014 00000000 		.word	.LANCHOR0
 271              		.cfi_endproc
 272              	.LFE6:
 273              		.size	AuxEnable, .-AuxEnable
 274              		.section	.text.AuxDisable,"ax",%progbits
 275              		.align	1
 276              		.global	AuxDisable
 277              		.thumb
 278              		.thumb_func
 279              		.type	AuxDisable, %function
 280              	AuxDisable:
 281              	.LFB7:
 213:src/auxcom.c  **** }
 214:src/auxcom.c  **** //*****************************************************************************
 215:src/auxcom.c  **** //  Function        : AuxDisable
 216:src/auxcom.c  **** //  Description     : Disable debug on Aux port.
 217:src/auxcom.c  **** //  Input           : N/A
 218:src/auxcom.c  **** //  Return          : TRUE/FALSE;
 219:src/auxcom.c  **** //  Note            : N/A
 220:src/auxcom.c  **** //  Globals Changed : N/A
 221:src/auxcom.c  **** //*****************************************************************************
 222:src/auxcom.c  **** void AuxDisable(void)
 223:src/auxcom.c  **** {
 282              		.loc 1 223 0
ARM GAS  C:\Users\AHMED~1.ELE\AppData\Local\Temp\ccKE7lQP.s 			page 10


 283              		.cfi_startproc
 284              		@ args = 0, pretend = 0, frame = 0
 285              		@ frame_needed = 0, uses_anonymous_args = 0
 286 0000 08B5     		push	{r3, lr}
 287              		.cfi_def_cfa_offset 8
 288              		.cfi_offset 3, -8
 289              		.cfi_offset 14, -4
 224:src/auxcom.c  ****   AuxClose();
 290              		.loc 1 224 0
 291 0002 FFF7FEFF 		bl	AuxClose
 292              	.LVL16:
 225:src/auxcom.c  ****   os_usbser_enable(FALSE);
 293              		.loc 1 225 0
 294 0006 E920     		movs	r0, #233
 295 0008 0021     		movs	r1, #0
 296 000a FFF7FEFF 		bl	sys_func1
 297              	.LVL17:
 226:src/auxcom.c  ****   gAuxId = -1;
 298              		.loc 1 226 0
 299 000e 4FF0FF32 		mov	r2, #-1
 300 0012 014B     		ldr	r3, .L30
 301 0014 1A60     		str	r2, [r3]
 302 0016 08BD     		pop	{r3, pc}
 303              	.L31:
 304              		.align	2
 305              	.L30:
 306 0018 00000000 		.word	.LANCHOR0
 307              		.cfi_endproc
 308              	.LFE7:
 309              		.size	AuxDisable, .-AuxDisable
 310              		.section	.text.dbgHex,"ax",%progbits
 311              		.align	1
 312              		.global	dbgHex
 313              		.thumb
 314              		.thumb_func
 315              		.type	dbgHex, %function
 316              	dbgHex:
 317              	.LFB8:
 227:src/auxcom.c  **** }
 228:src/auxcom.c  **** /******************************************************************************
 229:src/auxcom.c  ****  *  Function        : dbgHex
 230:src/auxcom.c  ****  *  Description     : Debug HEX data.
 231:src/auxcom.c  ****  *  Input           : N/A
 232:src/auxcom.c  ****  *  Return          : N/A
 233:src/auxcom.c  ****  *  Note            : N/A
 234:src/auxcom.c  ****  *  Globals Changed : N/A
 235:src/auxcom.c  ****  ******************************************************************************
 236:src/auxcom.c  ****  */
 237:src/auxcom.c  **** void dbgHex(BYTE *aTitle, BYTE *aData, DWORD aLen)
 238:src/auxcom.c  **** {
 318              		.loc 1 238 0
 319              		.cfi_startproc
 320              		@ args = 0, pretend = 0, frame = 32
 321              		@ frame_needed = 0, uses_anonymous_args = 0
 322              	.LVL18:
 239:src/auxcom.c  ****   BYTE buf[30];
 240:src/auxcom.c  ****   WORD i;
ARM GAS  C:\Users\AHMED~1.ELE\AppData\Local\Temp\ccKE7lQP.s 			page 11


 241:src/auxcom.c  ****   
 242:src/auxcom.c  ****   if ((gAuxId == -1) || (aLen == 0))
 323              		.loc 1 242 0
 324 0000 194B     		ldr	r3, .L47
 238:src/auxcom.c  ****   BYTE buf[30];
 325              		.loc 1 238 0
 326 0002 70B5     		push	{r4, r5, r6, lr}
 327              		.cfi_def_cfa_offset 16
 328              		.cfi_offset 4, -16
 329              		.cfi_offset 5, -12
 330              		.cfi_offset 6, -8
 331              		.cfi_offset 14, -4
 332 0004 0446     		mov	r4, r0
 333              		.loc 1 242 0
 334 0006 1B68     		ldr	r3, [r3]
 238:src/auxcom.c  ****   BYTE buf[30];
 335              		.loc 1 238 0
 336 0008 88B0     		sub	sp, sp, #32
 337              		.cfi_def_cfa_offset 48
 338              		.loc 1 242 0
 339 000a 0133     		adds	r3, r3, #1
 238:src/auxcom.c  ****   BYTE buf[30];
 340              		.loc 1 238 0
 341 000c 0E46     		mov	r6, r1
 342 000e 1546     		mov	r5, r2
 343              		.loc 1 242 0
 344 0010 27D0     		beq	.L32
 345              		.loc 1 242 0 is_stmt 0 discriminator 1
 346 0012 32B3     		cbz	r2, .L32
 243:src/auxcom.c  ****     return;
 244:src/auxcom.c  ****   
 245:src/auxcom.c  ****   if (AuxOpen() == FALSE)
 347              		.loc 1 245 0 is_stmt 1
 348 0014 FFF7FEFF 		bl	AuxOpen
 349              	.LVL19:
 350 0018 18B3     		cbz	r0, .L32
 246:src/auxcom.c  ****     return;
 247:src/auxcom.c  ****   
 248:src/auxcom.c  ****   // Print out TLV
 249:src/auxcom.c  ****   SprintfMW(buf, "%s(%d):\r\n", aTitle, aLen);
 351              		.loc 1 249 0
 352 001a 2246     		mov	r2, r4
 353 001c 1349     		ldr	r1, .L47+4
 354 001e 2B46     		mov	r3, r5
 355 0020 6846     		mov	r0, sp
 356 0022 FFF7FEFF 		bl	sprintf
 357              	.LVL20:
 250:src/auxcom.c  ****   AuxWrite(buf, strlen(buf));
 358              		.loc 1 250 0
 359 0026 6846     		mov	r0, sp
 360 0028 FFF7FEFF 		bl	strlen
 361              	.LVL21:
 251:src/auxcom.c  ****   for (i=0; i<aLen; i++) {
 362              		.loc 1 251 0
 363 002c 0024     		movs	r4, #0
 364              	.LVL22:
 250:src/auxcom.c  ****   AuxWrite(buf, strlen(buf));
ARM GAS  C:\Users\AHMED~1.ELE\AppData\Local\Temp\ccKE7lQP.s 			page 12


 365              		.loc 1 250 0
 366 002e 0146     		mov	r1, r0
 367 0030 6846     		mov	r0, sp
 368 0032 FFF7FEFF 		bl	AuxWrite
 369              	.LVL23:
 370              	.L34:
 371              		.loc 1 251 0 discriminator 1
 372 0036 AC42     		cmp	r4, r5
 373 0038 0BD2     		bcs	.L46
 252:src/auxcom.c  ****     SprintfMW(buf, "%02X ", aData[i]);
 374              		.loc 1 252 0 discriminator 3
 375 003a 325D     		ldrb	r2, [r6, r4]	@ zero_extendqisi2
 376 003c 0C49     		ldr	r1, .L47+8
 377 003e 6846     		mov	r0, sp
 251:src/auxcom.c  ****   for (i=0; i<aLen; i++) {
 378              		.loc 1 251 0 discriminator 3
 379 0040 0134     		adds	r4, r4, #1
 380              	.LVL24:
 381              		.loc 1 252 0 discriminator 3
 382 0042 FFF7FEFF 		bl	sprintf
 383              	.LVL25:
 253:src/auxcom.c  ****     AuxWrite(buf, 3);
 384              		.loc 1 253 0 discriminator 3
 385 0046 6846     		mov	r0, sp
 386 0048 0321     		movs	r1, #3
 387 004a FFF7FEFF 		bl	AuxWrite
 388              	.LVL26:
 251:src/auxcom.c  ****   for (i=0; i<aLen; i++) {
 389              		.loc 1 251 0 discriminator 3
 390 004e A4B2     		uxth	r4, r4
 391              	.LVL27:
 392 0050 F1E7     		b	.L34
 393              	.L46:
 254:src/auxcom.c  ****   }
 255:src/auxcom.c  ****   AuxWrite("\r\n", 2);
 394              		.loc 1 255 0
 395 0052 0221     		movs	r1, #2
 396 0054 0748     		ldr	r0, .L47+12
 397 0056 FFF7FEFF 		bl	AuxWrite
 398              	.LVL28:
 256:src/auxcom.c  ****   AuxWrite("-- -- -- --\r\n", 13);
 399              		.loc 1 256 0
 400 005a 0748     		ldr	r0, .L47+16
 401 005c 0D21     		movs	r1, #13
 402 005e FFF7FEFF 		bl	AuxWrite
 403              	.LVL29:
 404              	.L32:
 257:src/auxcom.c  **** }
 405              		.loc 1 257 0
 406 0062 08B0     		add	sp, sp, #32
 407              		.cfi_def_cfa_offset 16
 408              		@ sp needed
 409 0064 70BD     		pop	{r4, r5, r6, pc}
 410              	.LVL30:
 411              	.L48:
 412 0066 00BF     		.align	2
 413              	.L47:
ARM GAS  C:\Users\AHMED~1.ELE\AppData\Local\Temp\ccKE7lQP.s 			page 13


 414 0068 00000000 		.word	.LANCHOR0
 415 006c 00000000 		.word	.LC0
 416 0070 0A000000 		.word	.LC1
 417 0074 10000000 		.word	.LC2
 418 0078 13000000 		.word	.LC3
 419              		.cfi_endproc
 420              	.LFE8:
 421              		.size	dbgHex, .-dbgHex
 422              		.section	.rodata.str1.1,"aMS",%progbits,1
 423              	.LC0:
 424 0000 25732825 		.ascii	"%s(%d):\015\012\000"
 424      64293A0D 
 424      0A00
 425              	.LC1:
 426 000a 25303258 		.ascii	"%02X \000"
 426      2000
 427              	.LC2:
 428 0010 0D0A00   		.ascii	"\015\012\000"
 429              	.LC3:
 430 0013 2D2D202D 		.ascii	"-- -- -- --\015\012\000"
 430      2D202D2D 
 430      202D2D0D 
 430      0A00
 431              		.data
 432              		.align	2
 433              		.set	.LANCHOR0,. + 0
 434              		.type	gAuxId, %object
 435              		.size	gAuxId, 4
 436              	gAuxId:
 437 0000 FFFFFFFF 		.word	-1
 438              		.text
 439              	.Letext0:
 440              		.file 2 "c:\\devtools\\gcc_v49_2014q4\\lib\\gcc\\arm-none-eabi\\4.9.3\\include\\stddef.h"
 441              		.file 3 "../LibA5T1000/common.h"
 442              		.file 4 "../LibA5T1000/system.h"
 443              		.file 5 "c:\\devtools\\gcc_v49_2014q4\\arm-none-eabi\\include\\stdio.h"
 444              		.file 6 "c:\\devtools\\gcc_v49_2014q4\\arm-none-eabi\\include\\string.h"