ARM GAS  C:\Users\AHMED~1.ELE\AppData\Local\Temp\cc2MCW3j.s 			page 1


   1              		.syntax unified
   2              		.cpu cortex-a5
   3              		.fpu softvfp
   4              		.eabi_attribute 20, 1
   5              		.eabi_attribute 21, 1
   6              		.eabi_attribute 23, 3
   7              		.eabi_attribute 24, 1
   8              		.eabi_attribute 25, 1
   9              		.eabi_attribute 26, 1
  10              		.eabi_attribute 30, 4
  11              		.eabi_attribute 34, 0
  12              		.eabi_attribute 18, 4
  13              		.thumb
  14              		.file	"brdrtest.c"
  15              		.text
  16              	.Ltext0:
  17              		.cfi_sections	.debug_frame
  18              		.section	.text.BRdrTest,"ax",%progbits
  19              		.align	1
  20              		.global	BRdrTest
  21              		.thumb
  22              		.thumb_func
  23              		.type	BRdrTest, %function
  24              	BRdrTest:
  25              	.LFB0:
  26              		.file 1 "src/brdrtest.c"
   1:src/brdrtest.c **** //-----------------------------------------------------------------------------
   2:src/brdrtest.c **** //  File          : brdrtest.c
   3:src/brdrtest.c **** //  Module        :
   4:src/brdrtest.c **** //  Description   : Include Barcode reader test.
   5:src/brdrtest.c **** //  Author        : Lewis
   6:src/brdrtest.c **** //  Notes         :
   7:src/brdrtest.c **** //
   8:src/brdrtest.c **** // ============================================================================
   9:src/brdrtest.c **** // | Naming conventions                                                       |
  10:src/brdrtest.c **** // | ~~~~~~~~~~~~~~~~~~                                                       |
  11:src/brdrtest.c **** // |         Struct/Array : Leading s                                         |
  12:src/brdrtest.c **** // |             Constant : Leading K                                         |
  13:src/brdrtest.c **** // |      Global Variable : Leading g  (variable use outside one C file)      |
  14:src/brdrtest.c **** // |                                                                          |
  15:src/brdrtest.c **** // |   BYTE( 8 Bits) size : Leading b                                         |
  16:src/brdrtest.c **** // |   CHAR( 8 Bits) size : Leading c                                         |
  17:src/brdrtest.c **** // |   WORD(16 Bits) size : Leading w                                         |
  18:src/brdrtest.c **** // |  DWORD(32 Bits) size : Leading d                                         |
  19:src/brdrtest.c **** // |    int(32 Bits) size : Leading i                                         |
  20:src/brdrtest.c **** // | DDWORD(64 Bits) size : Leading dd                                        |
  21:src/brdrtest.c **** // |              Pointer : Leading p                                         |
  22:src/brdrtest.c **** // |                                                                          |
  23:src/brdrtest.c **** // |    Function argument : Leading a                                         |
  24:src/brdrtest.c **** // |       Local Variable : All lower case                                    |
  25:src/brdrtest.c **** // |                                                                          |
  26:src/brdrtest.c **** // | Examples:                                                                |
  27:src/brdrtest.c **** // |                Array : Leading s, (sb = arrary of byte, etc)             |
  28:src/brdrtest.c **** // |              Pointer : Leading p, (pb = pointer of byte, etc)            |
  29:src/brdrtest.c **** // ============================================================================
  30:src/brdrtest.c **** //
  31:src/brdrtest.c **** //  Date          Who         Action
ARM GAS  C:\Users\AHMED~1.ELE\AppData\Local\Temp\cc2MCW3j.s 			page 2


  32:src/brdrtest.c **** //  ------------  ----------- -------------------------------------------------
  33:src/brdrtest.c **** //  05 Mar  2013  Lewis       Initial Version.
  34:src/brdrtest.c **** //-----------------------------------------------------------------------------
  35:src/brdrtest.c **** #include "midware.h"
  36:src/brdrtest.c **** #include "apm.h"
  37:src/brdrtest.c **** #include "sysutil.h"
  38:src/brdrtest.c **** 
  39:src/brdrtest.c **** //-----------------------------------------------------------------------------
  40:src/brdrtest.c **** //      Prototypes
  41:src/brdrtest.c **** //-----------------------------------------------------------------------------
  42:src/brdrtest.c **** 
  43:src/brdrtest.c **** //-----------------------------------------------------------------------------
  44:src/brdrtest.c **** //      Defines
  45:src/brdrtest.c **** //-----------------------------------------------------------------------------
  46:src/brdrtest.c **** 
  47:src/brdrtest.c **** //-----------------------------------------------------------------------------
  48:src/brdrtest.c **** //      Constant
  49:src/brdrtest.c **** //-----------------------------------------------------------------------------
  50:src/brdrtest.c **** 
  51:src/brdrtest.c **** //-----------------------------------------------------------------------------
  52:src/brdrtest.c **** //      Globals
  53:src/brdrtest.c **** //-----------------------------------------------------------------------------
  54:src/brdrtest.c **** 
  55:src/brdrtest.c **** 
  56:src/brdrtest.c **** 
  57:src/brdrtest.c **** //*****************************************************************************
  58:src/brdrtest.c **** //  Function        : BRdrTest
  59:src/brdrtest.c **** //  Description     : Test barcode reader.
  60:src/brdrtest.c **** //  Input           : N/A
  61:src/brdrtest.c **** //  Return          : N/A
  62:src/brdrtest.c **** //  Note            : N/A
  63:src/brdrtest.c **** //  Globals Changed : N/A
  64:src/brdrtest.c **** //*****************************************************************************
  65:src/brdrtest.c **** void BRdrTest(void)
  66:src/brdrtest.c **** {
  27              		.loc 1 66 0
  28              		.cfi_startproc
  29              		@ args = 0, pretend = 0, frame = 2080
  30              		@ frame_needed = 0, uses_anonymous_args = 0
  31              	.LVL0:
  32 0000 2DE9F041 		push	{r4, r5, r6, r7, r8, lr}
  33              		.cfi_def_cfa_offset 24
  34              		.cfi_offset 4, -24
  35              		.cfi_offset 5, -20
  36              		.cfi_offset 6, -16
  37              		.cfi_offset 7, -12
  38              		.cfi_offset 8, -8
  39              		.cfi_offset 14, -4
  67:src/brdrtest.c **** #if (A5T1000|T1000)
  68:src/brdrtest.c ****   int fd;
  69:src/brdrtest.c ****   char dev_name[24];
  70:src/brdrtest.c ****   DWORD keyin, old_status, status, timeout, len;
  71:src/brdrtest.c ****   BYTE tmp[2048];
  72:src/brdrtest.c ****   BYTE endl=0;
  73:src/brdrtest.c **** 
  74:src/brdrtest.c **** #ifdef K_HdBarcode
  75:src/brdrtest.c ****   if ((os_hd_config() & K_HdBarcode) == K_HdNoBarcode)
ARM GAS  C:\Users\AHMED~1.ELE\AppData\Local\Temp\cc2MCW3j.s 			page 3


  40              		.loc 1 75 0
  41 0004 4FF4D070 		mov	r0, #416
  66:src/brdrtest.c **** #if (A5T1000|T1000)
  42              		.loc 1 66 0
  43 0008 ADF6280D 		subw	sp, sp, #2088
  44              		.cfi_def_cfa_offset 2112
  45              		.loc 1 75 0
  46 000c FFF7FEFF 		bl	sys_func0
  47              	.LVL1:
  48 0010 10F4400F 		tst	r0, #12582912
  49 0014 00F0E281 		beq	.L1
  50              	.LVL2:
  51              	.L3:
  76:src/brdrtest.c ****     return;
  77:src/brdrtest.c **** #endif
  78:src/brdrtest.c **** #ifdef K_XHdBarcode
  79:src/brdrtest.c ****   if ((os_hd_config_extend() & K_XHdBarcode) == K_XHdNoBarcode)
  80:src/brdrtest.c ****     return;
  81:src/brdrtest.c **** #endif
  82:src/brdrtest.c ****   
  83:src/brdrtest.c ****   while (!endl) {
  84:src/brdrtest.c ****     keyin = 0;
  85:src/brdrtest.c ****     strcpy(dev_name, DEV_BRDR);
  52              		.loc 1 85 0
  53 0018 8449     		ldr	r1, .L80
  54 001a 04A8     		add	r0, sp, #16
  86:src/brdrtest.c ****     fd = OpenMW(dev_name, MW_RDONLY);
  55              		.loc 1 86 0
  56 001c 0026     		movs	r6, #0
  85:src/brdrtest.c ****     fd = OpenMW(dev_name, MW_RDONLY);
  57              		.loc 1 85 0
  58 001e FFF7FEFF 		bl	strcpy
  59              	.LVL3:
  60              		.loc 1 86 0
  61 0022 0221     		movs	r1, #2
  62 0024 0096     		str	r6, [sp]
  63 0026 0F20     		movs	r0, #15
  64 0028 04AA     		add	r2, sp, #16
  65 002a 0B46     		mov	r3, r1
  66 002c FFF7FEFF 		bl	lib_app_call
  67              	.LVL4:
  87:src/brdrtest.c ****     if (fd >= 0) {
  68              		.loc 1 87 0
  69 0030 041E     		subs	r4, r0, #0
  70 0032 F1DB     		blt	.L3
  71              	.LVL5:
  72              	.LBB2:
  88:src/brdrtest.c ****       DispLineMW("Barcode Scanning", MW_LINE1, MW_CLRDISP|MW_CENTER|MW_REVERSE|MW_BIGFONT);
  73              		.loc 1 88 0
  74 0034 9220     		movs	r0, #146
  75              	.LVL6:
  76 0036 1121     		movs	r1, #17
  77 0038 FFF7FEFF 		bl	sys_func1
  78              	.LVL7:
  79 003c 0546     		mov	r5, r0
  80 003e 90B1     		cbz	r0, .L4
  81              		.loc 1 88 0 is_stmt 0 discriminator 1
ARM GAS  C:\Users\AHMED~1.ELE\AppData\Local\Temp\cc2MCW3j.s 			page 4


  82 0040 7B49     		ldr	r1, .L80+4
  83 0042 1022     		movs	r2, #16
  84 0044 FFF7FEFF 		bl	memcpy
  85              	.LVL8:
  86 0048 41F29203 		movw	r3, #4242
  87 004c 2E74     		strb	r6, [r5, #16]
  88 004e 2521     		movs	r1, #37
  89 0050 0093     		str	r3, [sp]
  90 0052 0F20     		movs	r0, #15
  91 0054 2A46     		mov	r2, r5
  92 0056 4FF48073 		mov	r3, #256
  93 005a FFF7FEFF 		bl	lib_app_call
  94              	.LVL9:
  95 005e 9420     		movs	r0, #148
  96 0060 2946     		mov	r1, r5
  97 0062 FFF7FEFF 		bl	sys_func1
  98              	.LVL10:
  99              	.L4:
 100              	.LBE2:
  89:src/brdrtest.c ****       status = StatMW(fd,0,NULL);
 101              		.loc 1 89 0 is_stmt 1
 102 0066 0026     		movs	r6, #0
 103 0068 0F20     		movs	r0, #15
 104 006a 0096     		str	r6, [sp]
 105 006c 0821     		movs	r1, #8
 106 006e 2246     		mov	r2, r4
 107 0070 3346     		mov	r3, r6
 108 0072 FFF7FEFF 		bl	lib_app_call
 109              	.LVL11:
  90:src/brdrtest.c ****       if (status != MW_BRDR_STAT_SCANNING) {
 110              		.loc 1 90 0
 111 0076 0228     		cmp	r0, #2
 112 0078 42D0     		beq	.L6
 113              	.LVL12:
 114              	.LBB3:
  91:src/brdrtest.c ****         DispLineMW("Cancel To Stop", MW_LINE1, MW_CENTER|MW_REVERSE|MW_BIGFONT);
 115              		.loc 1 91 0
 116 007a 9220     		movs	r0, #146
 117              	.LVL13:
 118 007c 0F21     		movs	r1, #15
 119 007e FFF7FEFF 		bl	sys_func1
 120              	.LVL14:
 121 0082 0546     		mov	r5, r0
 122              	.LVL15:
 123 0084 90B1     		cbz	r0, .L7
 124              		.loc 1 91 0 is_stmt 0 discriminator 1
 125 0086 6B49     		ldr	r1, .L80+8
 126 0088 0E22     		movs	r2, #14
 127 008a FFF7FEFF 		bl	memcpy
 128              	.LVL16:
 129 008e 41F21203 		movw	r3, #4114
 130 0092 AE73     		strb	r6, [r5, #14]
 131 0094 2521     		movs	r1, #37
 132 0096 0093     		str	r3, [sp]
 133 0098 0F20     		movs	r0, #15
 134 009a 2A46     		mov	r2, r5
 135 009c 4FF48073 		mov	r3, #256
ARM GAS  C:\Users\AHMED~1.ELE\AppData\Local\Temp\cc2MCW3j.s 			page 5


 136 00a0 FFF7FEFF 		bl	lib_app_call
 137              	.LVL17:
 138 00a4 9420     		movs	r0, #148
 139 00a6 2946     		mov	r1, r5
 140 00a8 FFF7FEFF 		bl	sys_func1
 141              	.LVL18:
 142              	.L7:
 143              	.LBE3:
  92:src/brdrtest.c ****         timeout = -1;
 144              		.loc 1 92 0 is_stmt 1
 145 00ac 03AB     		add	r3, sp, #12
 146 00ae 4FF0FF32 		mov	r2, #-1
  93:src/brdrtest.c ****         if (!IOCtlMW(fd, IO_BRDR_SCAN, &timeout)) {
 147              		.loc 1 93 0
 148 00b2 0093     		str	r3, [sp]
  92:src/brdrtest.c ****         timeout = -1;
 149              		.loc 1 92 0
 150 00b4 0392     		str	r2, [sp, #12]
 151              		.loc 1 93 0
 152 00b6 0F20     		movs	r0, #15
 153 00b8 0721     		movs	r1, #7
 154 00ba 2246     		mov	r2, r4
 155 00bc 0223     		movs	r3, #2
 156 00be FFF7FEFF 		bl	lib_app_call
 157              	.LVL19:
 158 00c2 0646     		mov	r6, r0
 159 00c4 E0B9     		cbnz	r0, .L6
 160              	.LVL20:
 161              	.LBB4:
  94:src/brdrtest.c ****           DispLineMW("Scan Fail!", MW_LINE1, MW_CENTER|MW_REVERSE|MW_BIGFONT);
 162              		.loc 1 94 0
 163 00c6 9220     		movs	r0, #146
 164 00c8 0B21     		movs	r1, #11
 165 00ca FFF7FEFF 		bl	sys_func1
 166              	.LVL21:
 167 00ce 0546     		mov	r5, r0
 168              	.LVL22:
 169 00d0 90B1     		cbz	r0, .L9
 170              		.loc 1 94 0 is_stmt 0 discriminator 1
 171 00d2 5949     		ldr	r1, .L80+12
 172 00d4 0A22     		movs	r2, #10
 173 00d6 FFF7FEFF 		bl	memcpy
 174              	.LVL23:
 175 00da 41F21203 		movw	r3, #4114
 176 00de AE72     		strb	r6, [r5, #10]
 177 00e0 2521     		movs	r1, #37
 178 00e2 0093     		str	r3, [sp]
 179 00e4 0F20     		movs	r0, #15
 180 00e6 2A46     		mov	r2, r5
 181 00e8 4FF48073 		mov	r3, #256
 182 00ec FFF7FEFF 		bl	lib_app_call
 183              	.LVL24:
 184 00f0 9420     		movs	r0, #148
 185 00f2 2946     		mov	r1, r5
 186 00f4 FFF7FEFF 		bl	sys_func1
 187              	.LVL25:
 188              	.L9:
ARM GAS  C:\Users\AHMED~1.ELE\AppData\Local\Temp\cc2MCW3j.s 			page 6


 189              	.LBE4:
  95:src/brdrtest.c ****           Delay10ms(300);
 190              		.loc 1 95 0 is_stmt 1
 191 00f8 4FF49670 		mov	r0, #300
 192 00fc FFF7FEFF 		bl	Delay10ms
 193              	.LVL26:
 194              	.L6:
  96:src/brdrtest.c ****         }
  97:src/brdrtest.c ****       }
  98:src/brdrtest.c ****       //DispLineMW("Enter To Scan", MW_LINE1, MW_CLRDISP|MW_CENTER|MW_REVERSE|MW_BIGFONT);
  99:src/brdrtest.c ****       if (IOCtlMW(fd, IO_BRDR_ENABLE, NULL)) {
 195              		.loc 1 99 0
 196 0100 0023     		movs	r3, #0
 197 0102 0F20     		movs	r0, #15
 198 0104 0093     		str	r3, [sp]
 199 0106 0721     		movs	r1, #7
 200 0108 2246     		mov	r2, r4
 201 010a 0423     		movs	r3, #4
 202 010c FFF7FEFF 		bl	lib_app_call
 203              	.LVL27:
 204 0110 0646     		mov	r6, r0
 205 0112 0028     		cmp	r0, #0
 206 0114 00F03681 		beq	.L78
 207 0118 4FF0FF35 		mov	r5, #-1
 208              	.LVL28:
 209              	.L10:
 100:src/brdrtest.c ****         old_status = -1;
 101:src/brdrtest.c ****         while (1) {
 102:src/brdrtest.c ****           SleepMW();
 103:src/brdrtest.c ****           status = StatMW(fd,0,NULL);
 210              		.loc 1 103 0
 211 011c 4FF00008 		mov	r8, #0
 102:src/brdrtest.c ****           status = StatMW(fd,0,NULL);
 212              		.loc 1 102 0
 213 0120 4FF4CE70 		mov	r0, #412
 214 0124 FFF7FEFF 		bl	sys_func0
 215              	.LVL29:
 216              		.loc 1 103 0
 217 0128 CDF80080 		str	r8, [sp]
 218 012c 0F20     		movs	r0, #15
 219 012e 0821     		movs	r1, #8
 220 0130 2246     		mov	r2, r4
 221 0132 4346     		mov	r3, r8
 222 0134 FFF7FEFF 		bl	lib_app_call
 223              	.LVL30:
 104:src/brdrtest.c ****           if (old_status != status) {
 224              		.loc 1 104 0
 225 0138 8542     		cmp	r5, r0
 103:src/brdrtest.c ****           if (old_status != status) {
 226              		.loc 1 103 0
 227 013a 0646     		mov	r6, r0
 228              	.LVL31:
 229              		.loc 1 104 0
 230 013c 22D0     		beq	.L13
 105:src/brdrtest.c ****             sprintf(tmp, "Status:%08X", status);
 231              		.loc 1 105 0
 232 013e 3F49     		ldr	r1, .L80+16
ARM GAS  C:\Users\AHMED~1.ELE\AppData\Local\Temp\cc2MCW3j.s 			page 7


 233 0140 3246     		mov	r2, r6
 234 0142 0AA8     		add	r0, sp, #40
 235              	.LVL32:
 236 0144 FFF7FEFF 		bl	sprintf
 237              	.LVL33:
 238              	.LBB5:
 106:src/brdrtest.c ****             old_status = status;
 107:src/brdrtest.c ****             DispLineMW(tmp, MW_MAX_LINE, MW_CENTER|MW_REVERSE|MW_SPFONT);
 239              		.loc 1 107 0
 240 0148 0AA8     		add	r0, sp, #40
 241 014a FFF7FEFF 		bl	strlen
 242              	.LVL34:
 243 014e 0746     		mov	r7, r0
 244              	.LVL35:
 245 0150 791C     		adds	r1, r7, #1
 246 0152 9220     		movs	r0, #146
 247              	.LVL36:
 248 0154 FFF7FEFF 		bl	sys_func1
 249              	.LVL37:
 250 0158 0546     		mov	r5, r0
 251 015a 98B1     		cbz	r0, .L13
 252              		.loc 1 107 0 is_stmt 0 discriminator 1
 253 015c 0AA9     		add	r1, sp, #40
 254 015e 3A46     		mov	r2, r7
 255 0160 FFF7FEFF 		bl	memcpy
 256              	.LVL38:
 257 0164 42F21203 		movw	r3, #8210
 258 0168 05F80780 		strb	r8, [r5, r7]
 259 016c 2521     		movs	r1, #37
 260 016e 0093     		str	r3, [sp]
 261 0170 0F20     		movs	r0, #15
 262 0172 2A46     		mov	r2, r5
 263 0174 4FF41063 		mov	r3, #2304
 264 0178 FFF7FEFF 		bl	lib_app_call
 265              	.LVL39:
 266 017c 9420     		movs	r0, #148
 267 017e 2946     		mov	r1, r5
 268 0180 FFF7FEFF 		bl	sys_func1
 269              	.LVL40:
 270              	.L13:
 271              	.LBE5:
 108:src/brdrtest.c ****           }
 109:src/brdrtest.c ****   
 110:src/brdrtest.c ****           keyin = GetCharMW();
 272              		.loc 1 110 0 is_stmt 1
 273 0184 0025     		movs	r5, #0
 274 0186 0F20     		movs	r0, #15
 275 0188 0095     		str	r5, [sp]
 276 018a 1621     		movs	r1, #22
 277 018c 2A46     		mov	r2, r5
 278 018e 2B46     		mov	r3, r5
 279 0190 FFF7FEFF 		bl	lib_app_call
 280              	.LVL41:
 111:src/brdrtest.c ****           if (keyin==MWKEY_CANCL) {
 281              		.loc 1 111 0
 282 0194 1128     		cmp	r0, #17
 283 0196 42D1     		bne	.L15
ARM GAS  C:\Users\AHMED~1.ELE\AppData\Local\Temp\cc2MCW3j.s 			page 8


 112:src/brdrtest.c ****             if (status==MW_BRDR_STAT_SCANNING) {
 284              		.loc 1 112 0
 285 0198 022E     		cmp	r6, #2
 286 019a 40F01481 		bne	.L76
 287 019e 0125     		movs	r5, #1
 288              	.LVL42:
 289              	.L16:
 113:src/brdrtest.c ****               keyin = 1;
 114:src/brdrtest.c ****               while (!IOCtlMW(fd, IO_BRDR_ABORT, NULL)) {
 290              		.loc 1 114 0
 291 01a0 0023     		movs	r3, #0
 292 01a2 0F20     		movs	r0, #15
 293 01a4 0093     		str	r3, [sp]
 294 01a6 0721     		movs	r1, #7
 295 01a8 2246     		mov	r2, r4
 296 01aa 0323     		movs	r3, #3
 297 01ac FFF7FEFF 		bl	lib_app_call
 298              	.LVL43:
 299 01b0 0746     		mov	r7, r0
 300 01b2 0028     		cmp	r0, #0
 301 01b4 40F00781 		bne	.L76
 115:src/brdrtest.c ****                 sprintf(tmp, "Abort Err : %02d", keyin++);
 302              		.loc 1 115 0
 303 01b8 2A46     		mov	r2, r5
 304 01ba 2149     		ldr	r1, .L80+20
 305 01bc 0AA8     		add	r0, sp, #40
 306 01be FFF7FEFF 		bl	sprintf
 307              	.LVL44:
 308              	.LBB6:
 116:src/brdrtest.c ****                 DispLineMW(tmp, MW_LINE1, MW_CENTER|MW_REVERSE|MW_BIGFONT);
 309              		.loc 1 116 0
 310 01c2 0AA8     		add	r0, sp, #40
 311 01c4 FFF7FEFF 		bl	strlen
 312              	.LVL45:
 313              	.LBE6:
 115:src/brdrtest.c ****                 sprintf(tmp, "Abort Err : %02d", keyin++);
 314              		.loc 1 115 0
 315 01c8 05F10108 		add	r8, r5, #1
 316              	.LVL46:
 317              	.LBB7:
 318              		.loc 1 116 0
 319 01cc 0646     		mov	r6, r0
 320              	.LVL47:
 321 01ce 711C     		adds	r1, r6, #1
 322 01d0 9220     		movs	r0, #146
 323              	.LVL48:
 324 01d2 FFF7FEFF 		bl	sys_func1
 325              	.LVL49:
 326 01d6 0546     		mov	r5, r0
 327 01d8 90B1     		cbz	r0, .L18
 328              		.loc 1 116 0 is_stmt 0 discriminator 1
 329 01da 0AA9     		add	r1, sp, #40
 330 01dc 3246     		mov	r2, r6
 331 01de FFF7FEFF 		bl	memcpy
 332              	.LVL50:
 333 01e2 41F21203 		movw	r3, #4114
 334 01e6 AF55     		strb	r7, [r5, r6]
ARM GAS  C:\Users\AHMED~1.ELE\AppData\Local\Temp\cc2MCW3j.s 			page 9


 335 01e8 2521     		movs	r1, #37
 336 01ea 0093     		str	r3, [sp]
 337 01ec 0F20     		movs	r0, #15
 338 01ee 2A46     		mov	r2, r5
 339 01f0 4FF48073 		mov	r3, #256
 340 01f4 FFF7FEFF 		bl	lib_app_call
 341              	.LVL51:
 342 01f8 9420     		movs	r0, #148
 343 01fa 2946     		mov	r1, r5
 344 01fc FFF7FEFF 		bl	sys_func1
 345              	.LVL52:
 346              	.L18:
 347              	.LBE7:
 117:src/brdrtest.c ****                 if (GetCharMW()==MWKEY_CANCL)
 348              		.loc 1 117 0 is_stmt 1
 349 0200 0022     		movs	r2, #0
 350 0202 0F20     		movs	r0, #15
 351 0204 0092     		str	r2, [sp]
 352 0206 1621     		movs	r1, #22
 353 0208 1346     		mov	r3, r2
 354 020a FFF7FEFF 		bl	lib_app_call
 355              	.LVL53:
 356 020e 1128     		cmp	r0, #17
 357 0210 00F0D980 		beq	.L76
 118:src/brdrtest.c ****                   break;
 119:src/brdrtest.c ****                 Delay10ms(100);
 358              		.loc 1 119 0
 359 0214 6420     		movs	r0, #100
 360 0216 FFF7FEFF 		bl	Delay10ms
 361              	.LVL54:
 115:src/brdrtest.c ****                 DispLineMW(tmp, MW_LINE1, MW_CENTER|MW_REVERSE|MW_BIGFONT);
 362              		.loc 1 115 0
 363 021a 4546     		mov	r5, r8
 364              	.LVL55:
 365 021c C0E7     		b	.L16
 366              	.LVL56:
 367              	.L15:
 120:src/brdrtest.c ****               }
 121:src/brdrtest.c ****             }
 122:src/brdrtest.c ****             endl = 1;
 123:src/brdrtest.c ****             break;
 124:src/brdrtest.c ****           }
 125:src/brdrtest.c ****           if (keyin==MWKEY_ENTER) {
 368              		.loc 1 125 0
 369 021e 1028     		cmp	r0, #16
 370 0220 53D1     		bne	.L22
 126:src/brdrtest.c ****             if (status != MW_BRDR_STAT_SCANNING) {
 371              		.loc 1 126 0
 372 0222 022E     		cmp	r6, #2
 373 0224 0ED1     		bne	.L79
 374              	.LVL57:
 375              	.L23:
 103:src/brdrtest.c ****           if (old_status != status) {
 376              		.loc 1 103 0
 377 0226 3546     		mov	r5, r6
 378 0228 78E7     		b	.L10
 379              	.L81:
ARM GAS  C:\Users\AHMED~1.ELE\AppData\Local\Temp\cc2MCW3j.s 			page 10


 380 022a 00BF     		.align	2
 381              	.L80:
 382 022c 00000000 		.word	.LC0
 383 0230 0A000000 		.word	.LC1
 384 0234 1B000000 		.word	.LC2
 385 0238 2A000000 		.word	.LC3
 386 023c 35000000 		.word	.LC4
 387 0240 41000000 		.word	.LC5
 388              	.LVL58:
 389              	.L79:
 390              	.LBB8:
 127:src/brdrtest.c ****               DispLineMW("Cancel To Stop", MW_LINE1, MW_CENTER|MW_REVERSE|MW_BIGFONT);
 391              		.loc 1 127 0
 392 0244 9220     		movs	r0, #146
 393              	.LVL59:
 394 0246 0F21     		movs	r1, #15
 395 0248 FFF7FEFF 		bl	sys_func1
 396              	.LVL60:
 397 024c 0746     		mov	r7, r0
 398 024e 90B1     		cbz	r0, .L24
 399              		.loc 1 127 0 is_stmt 0 discriminator 1
 400 0250 6449     		ldr	r1, .L82
 401 0252 0E22     		movs	r2, #14
 402 0254 FFF7FEFF 		bl	memcpy
 403              	.LVL61:
 404 0258 41F21203 		movw	r3, #4114
 405 025c BD73     		strb	r5, [r7, #14]
 406 025e 2521     		movs	r1, #37
 407 0260 0093     		str	r3, [sp]
 408 0262 0F20     		movs	r0, #15
 409 0264 3A46     		mov	r2, r7
 410 0266 4FF48073 		mov	r3, #256
 411 026a FFF7FEFF 		bl	lib_app_call
 412              	.LVL62:
 413 026e 9420     		movs	r0, #148
 414 0270 3946     		mov	r1, r7
 415 0272 FFF7FEFF 		bl	sys_func1
 416              	.LVL63:
 417              	.L24:
 418              	.LBE8:
 128:src/brdrtest.c ****               timeout = -1;
 419              		.loc 1 128 0 is_stmt 1
 420 0276 03AB     		add	r3, sp, #12
 421 0278 4FF0FF32 		mov	r2, #-1
 129:src/brdrtest.c ****               if (!IOCtlMW(fd, IO_BRDR_SCAN, &timeout)) {
 422              		.loc 1 129 0
 423 027c 0093     		str	r3, [sp]
 128:src/brdrtest.c ****               timeout = -1;
 424              		.loc 1 128 0
 425 027e 0392     		str	r2, [sp, #12]
 426              		.loc 1 129 0
 427 0280 0F20     		movs	r0, #15
 428 0282 0721     		movs	r1, #7
 429 0284 2246     		mov	r2, r4
 430 0286 0223     		movs	r3, #2
 431 0288 FFF7FEFF 		bl	lib_app_call
 432              	.LVL64:
ARM GAS  C:\Users\AHMED~1.ELE\AppData\Local\Temp\cc2MCW3j.s 			page 11


 433 028c 0746     		mov	r7, r0
 434              	.LVL65:
 435 028e E0B9     		cbnz	r0, .L22
 436              	.LVL66:
 437              	.LBB9:
 130:src/brdrtest.c ****                 DispLineMW("Scan Fail!", MW_LINE1, MW_CENTER|MW_REVERSE|MW_BIGFONT);
 438              		.loc 1 130 0
 439 0290 9220     		movs	r0, #146
 440 0292 0B21     		movs	r1, #11
 441 0294 FFF7FEFF 		bl	sys_func1
 442              	.LVL67:
 443 0298 0546     		mov	r5, r0
 444 029a 90B1     		cbz	r0, .L26
 445              		.loc 1 130 0 is_stmt 0 discriminator 1
 446 029c 5249     		ldr	r1, .L82+4
 447 029e 0A22     		movs	r2, #10
 448 02a0 FFF7FEFF 		bl	memcpy
 449              	.LVL68:
 450 02a4 41F21203 		movw	r3, #4114
 451 02a8 AF72     		strb	r7, [r5, #10]
 452 02aa 2521     		movs	r1, #37
 453 02ac 0093     		str	r3, [sp]
 454 02ae 0F20     		movs	r0, #15
 455 02b0 2A46     		mov	r2, r5
 456 02b2 4FF48073 		mov	r3, #256
 457 02b6 FFF7FEFF 		bl	lib_app_call
 458              	.LVL69:
 459 02ba 9420     		movs	r0, #148
 460 02bc 2946     		mov	r1, r5
 461 02be FFF7FEFF 		bl	sys_func1
 462              	.LVL70:
 463              	.L26:
 464              	.LBE9:
 131:src/brdrtest.c ****                 Delay10ms(300);
 465              		.loc 1 131 0 is_stmt 1
 466 02c2 4FF49670 		mov	r0, #300
 467 02c6 FFF7FEFF 		bl	Delay10ms
 468              	.LVL71:
 469              	.L22:
 132:src/brdrtest.c ****               }
 133:src/brdrtest.c ****             }
 134:src/brdrtest.c ****           }
 135:src/brdrtest.c ****           if (status == MW_BRDR_STAT_DATARDY) {
 470              		.loc 1 135 0
 471 02ca 032E     		cmp	r6, #3
 472 02cc ABD1     		bne	.L23
 136:src/brdrtest.c ****             if (len = ReadMW(fd, tmp, sizeof(tmp))) {
 473              		.loc 1 136 0
 474 02ce 4FF40063 		mov	r3, #2048
 475 02d2 0AAD     		add	r5, sp, #40
 476 02d4 0093     		str	r3, [sp]
 477 02d6 0F20     		movs	r0, #15
 478 02d8 0421     		movs	r1, #4
 479 02da 2246     		mov	r2, r4
 480 02dc 2B46     		mov	r3, r5
 481 02de FFF7FEFF 		bl	lib_app_call
 482              	.LVL72:
ARM GAS  C:\Users\AHMED~1.ELE\AppData\Local\Temp\cc2MCW3j.s 			page 12


 483 02e2 0746     		mov	r7, r0
 484 02e4 0028     		cmp	r0, #0
 485 02e6 9ED0     		beq	.L23
 137:src/brdrtest.c ****               tmp[len > 180 ? 180 : len] = 0;
 486              		.loc 1 137 0
 487 02e8 B428     		cmp	r0, #180
 488 02ea 0346     		mov	r3, r0
 489 02ec 4FF00006 		mov	r6, #0
 490              	.LVL73:
 491 02f0 28BF     		it	cs
 492 02f2 B423     		movcs	r3, #180
 138:src/brdrtest.c ****               DispClrBelowMW(MW_LINE1);
 493              		.loc 1 138 0
 494 02f4 2321     		movs	r1, #35
 137:src/brdrtest.c ****               tmp[len > 180 ? 180 : len] = 0;
 495              		.loc 1 137 0
 496 02f6 EE54     		strb	r6, [r5, r3]
 497              		.loc 1 138 0
 498 02f8 4FF48072 		mov	r2, #256
 499 02fc 3346     		mov	r3, r6
 500 02fe 0096     		str	r6, [sp]
 501 0300 0F20     		movs	r0, #15
 502              	.LVL74:
 503 0302 FFF7FEFF 		bl	lib_app_call
 504              	.LVL75:
 139:src/brdrtest.c ****               DispPutNCMW(tmp, strlen(tmp));
 505              		.loc 1 139 0
 506 0306 2846     		mov	r0, r5
 507 0308 FFF7FEFF 		bl	strlen
 508              	.LVL76:
 509 030c 2946     		mov	r1, r5
 510 030e 0246     		mov	r2, r0
 511 0310 1820     		movs	r0, #24
 512 0312 FFF7FEFF 		bl	sys_func2
 513              	.LVL77:
 140:src/brdrtest.c ****               sprintf(tmp, "Len: %04d bytes", len);
 514              		.loc 1 140 0
 515 0316 3A46     		mov	r2, r7
 516 0318 3449     		ldr	r1, .L82+8
 517 031a 2846     		mov	r0, r5
 518 031c FFF7FEFF 		bl	sprintf
 519              	.LVL78:
 520              	.LBB10:
 141:src/brdrtest.c ****               DispLineMW(tmp, MW_MAX_LINE, MW_REVERSE|MW_CLREOL|MW_SPFONT);
 521              		.loc 1 141 0
 522 0320 2846     		mov	r0, r5
 523 0322 FFF7FEFF 		bl	strlen
 524              	.LVL79:
 525 0326 8046     		mov	r8, r0
 526              	.LVL80:
 527 0328 08F10101 		add	r1, r8, #1
 528 032c 9220     		movs	r0, #146
 529              	.LVL81:
 530 032e FFF7FEFF 		bl	sys_func1
 531              	.LVL82:
 532 0332 0746     		mov	r7, r0
 533              	.LVL83:
ARM GAS  C:\Users\AHMED~1.ELE\AppData\Local\Temp\cc2MCW3j.s 			page 13


 534 0334 98B1     		cbz	r0, .L27
 535              		.loc 1 141 0 is_stmt 0 discriminator 1
 536 0336 2946     		mov	r1, r5
 537 0338 4246     		mov	r2, r8
 538 033a FFF7FEFF 		bl	memcpy
 539              	.LVL84:
 540 033e 42F23003 		movw	r3, #8240
 541 0342 07F80860 		strb	r6, [r7, r8]
 542 0346 2521     		movs	r1, #37
 543 0348 0093     		str	r3, [sp]
 544 034a 0F20     		movs	r0, #15
 545 034c 3A46     		mov	r2, r7
 546 034e 4FF41063 		mov	r3, #2304
 547 0352 FFF7FEFF 		bl	lib_app_call
 548              	.LVL85:
 549 0356 9420     		movs	r0, #148
 550 0358 3946     		mov	r1, r7
 551 035a FFF7FEFF 		bl	sys_func1
 552              	.LVL86:
 553              	.L27:
 554              	.LBE10:
 142:src/brdrtest.c ****               Short2Beep();
 143:src/brdrtest.c ****               IOCtlMW(fd, IO_BRDR_ABORT, NULL);
 555              		.loc 1 143 0 is_stmt 1
 556 035e 0025     		movs	r5, #0
 142:src/brdrtest.c ****               Short2Beep();
 557              		.loc 1 142 0
 558 0360 FFF7FEFF 		bl	Short2Beep
 559              	.LVL87:
 560              		.loc 1 143 0
 561 0364 2246     		mov	r2, r4
 562 0366 0095     		str	r5, [sp]
 563 0368 0721     		movs	r1, #7
 564 036a 0323     		movs	r3, #3
 565 036c 0F20     		movs	r0, #15
 566 036e FFF7FEFF 		bl	lib_app_call
 567              	.LVL88:
 144:src/brdrtest.c ****               //DispLineMW("Enter To Scan", MW_LINE1, MW_CENTER|MW_REVERSE|MW_BIGFONT);
 145:src/brdrtest.c ****               APM_WaitKey(9000, 0);
 568              		.loc 1 145 0
 569 0372 0095     		str	r5, [sp]
 570 0374 0321     		movs	r1, #3
 571 0376 42F22832 		movw	r2, #9000
 572 037a 2B46     		mov	r3, r5
 573 037c 1020     		movs	r0, #16
 574 037e FFF7FEFF 		bl	lib_app_call
 575              	.LVL89:
 146:src/brdrtest.c ****               old_status = -1;
 147:src/brdrtest.c ****               break;
 576              		.loc 1 147 0
 577 0382 21E0     		b	.L17
 578              	.LVL90:
 579              	.L78:
 580              	.LBB11:
 148:src/brdrtest.c ****             }
 149:src/brdrtest.c ****           }
 150:src/brdrtest.c ****         }
ARM GAS  C:\Users\AHMED~1.ELE\AppData\Local\Temp\cc2MCW3j.s 			page 14


 151:src/brdrtest.c ****       }
 152:src/brdrtest.c ****       else {
 153:src/brdrtest.c ****         DispLineMW("BRdr Open Fail!", MW_MAX_LINE, MW_CENTER|MW_REVERSE|MW_SPFONT);
 581              		.loc 1 153 0
 582 0384 9220     		movs	r0, #146
 583 0386 1021     		movs	r1, #16
 584 0388 FFF7FEFF 		bl	sys_func1
 585              	.LVL91:
 586 038c 0546     		mov	r5, r0
 587 038e 90B1     		cbz	r0, .L28
 588              		.loc 1 153 0 is_stmt 0 discriminator 1
 589 0390 1749     		ldr	r1, .L82+12
 590 0392 0F22     		movs	r2, #15
 591 0394 FFF7FEFF 		bl	memcpy
 592              	.LVL92:
 593 0398 42F21203 		movw	r3, #8210
 594 039c EE73     		strb	r6, [r5, #15]
 595 039e 2521     		movs	r1, #37
 596 03a0 0093     		str	r3, [sp]
 597 03a2 0F20     		movs	r0, #15
 598 03a4 2A46     		mov	r2, r5
 599 03a6 4FF41063 		mov	r3, #2304
 600 03aa FFF7FEFF 		bl	lib_app_call
 601              	.LVL93:
 602 03ae 9420     		movs	r0, #148
 603 03b0 2946     		mov	r1, r5
 604 03b2 FFF7FEFF 		bl	sys_func1
 605              	.LVL94:
 606              	.L28:
 607              	.LBE11:
 154:src/brdrtest.c ****         APM_WaitKey(9000, 0);
 608              		.loc 1 154 0 is_stmt 1
 609 03b6 0023     		movs	r3, #0
 610 03b8 1020     		movs	r0, #16
 611 03ba 0093     		str	r3, [sp]
 612 03bc 0321     		movs	r1, #3
 613 03be 42F22832 		movw	r2, #9000
 614 03c2 FFF7FEFF 		bl	lib_app_call
 615              	.LVL95:
 616              	.L76:
 155:src/brdrtest.c ****         endl = 1;
 617              		.loc 1 155 0
 618 03c6 0125     		movs	r5, #1
 619              	.LVL96:
 620              	.L17:
 156:src/brdrtest.c ****       }
 157:src/brdrtest.c ****       CloseMW(fd);
 621              		.loc 1 157 0
 622 03c8 0023     		movs	r3, #0
 623 03ca 0F20     		movs	r0, #15
 624 03cc 0093     		str	r3, [sp]
 625 03ce 0321     		movs	r1, #3
 626 03d0 2246     		mov	r2, r4
 627 03d2 FFF7FEFF 		bl	lib_app_call
 628              	.LVL97:
  83:src/brdrtest.c ****     keyin = 0;
 629              		.loc 1 83 0
ARM GAS  C:\Users\AHMED~1.ELE\AppData\Local\Temp\cc2MCW3j.s 			page 15


 630 03d6 002D     		cmp	r5, #0
 631 03d8 3FF41EAE 		beq	.L3
 632              	.LVL98:
 633              	.L1:
 158:src/brdrtest.c ****     }
 159:src/brdrtest.c ****   }
 160:src/brdrtest.c **** #endif
 161:src/brdrtest.c **** }
 634              		.loc 1 161 0
 635 03dc 0DF6280D 		addw	sp, sp, #2088
 636              		.cfi_def_cfa_offset 24
 637              		@ sp needed
 638 03e0 BDE8F081 		pop	{r4, r5, r6, r7, r8, pc}
 639              	.L83:
 640              		.align	2
 641              	.L82:
 642 03e4 1B000000 		.word	.LC2
 643 03e8 2A000000 		.word	.LC3
 644 03ec 52000000 		.word	.LC6
 645 03f0 62000000 		.word	.LC7
 646              		.cfi_endproc
 647              	.LFE0:
 648              		.size	BRdrTest, .-BRdrTest
 649              		.section	.rodata.str1.1,"aMS",%progbits,1
 650              	.LC0:
 651 0000 2F646576 		.ascii	"/dev/brdr\000"
 651      2F627264 
 651      7200
 652              	.LC1:
 653 000a 42617263 		.ascii	"Barcode Scanning\000"
 653      6F646520 
 653      5363616E 
 653      6E696E67 
 653      00
 654              	.LC2:
 655 001b 43616E63 		.ascii	"Cancel To Stop\000"
 655      656C2054 
 655      6F205374 
 655      6F7000
 656              	.LC3:
 657 002a 5363616E 		.ascii	"Scan Fail!\000"
 657      20466169 
 657      6C2100
 658              	.LC4:
 659 0035 53746174 		.ascii	"Status:%08X\000"
 659      75733A25 
 659      30385800 
 660              	.LC5:
 661 0041 41626F72 		.ascii	"Abort Err : %02d\000"
 661      74204572 
 661      72203A20 
 661      25303264 
 661      00
 662              	.LC6:
 663 0052 4C656E3A 		.ascii	"Len: %04d bytes\000"
 663      20253034 
 663      64206279 
ARM GAS  C:\Users\AHMED~1.ELE\AppData\Local\Temp\cc2MCW3j.s 			page 16


 663      74657300 
 664              	.LC7:
 665 0062 42526472 		.ascii	"BRdr Open Fail!\000"
 665      204F7065 
 665      6E204661 
 665      696C2100 
 666              		.text
 667              	.Letext0:
 668              		.file 2 "c:\\devtools\\gcc_v49_2014q4\\lib\\gcc\\arm-none-eabi\\4.9.3\\include\\stddef.h"
 669              		.file 3 "../LibA5T1000/common.h"
 670              		.file 4 "../LibA5T1000/midware.h"
 671              		.file 5 "../LibA5T1000/apm.h"
 672              		.file 6 "../LibA5T1000/system.h"
 673              		.file 7 "c:\\devtools\\gcc_v49_2014q4\\arm-none-eabi\\include\\string.h"
 674              		.file 8 "c:\\devtools\\gcc_v49_2014q4\\arm-none-eabi\\include\\stdio.h"
 675              		.file 9 "src/sysutil.h"