ARM GAS  C:\Users\AHMED~1.ELE\AppData\Local\Temp\cc594ylT.s 			page 1


   1              		.syntax unified
   2              		.cpu cortex-a5
   3              		.fpu softvfp
   4              		.eabi_attribute 20, 1
   5              		.eabi_attribute 21, 1
   6              		.eabi_attribute 23, 3
   7              		.eabi_attribute 24, 1
   8              		.eabi_attribute 25, 1
   9              		.eabi_attribute 26, 1
  10              		.eabi_attribute 30, 4
  11              		.eabi_attribute 34, 0
  12              		.eabi_attribute 18, 4
  13              		.thumb
  14              		.file	"camtest.c"
  15              		.text
  16              	.Ltext0:
  17              		.cfi_sections	.debug_frame
  18              		.section	.text.ShowLayer,"ax",%progbits
  19              		.align	1
  20              		.thumb
  21              		.thumb_func
  22              		.type	ShowLayer, %function
  23              	ShowLayer:
  24              	.LFB0:
  25              		.file 1 "src/camtest.c"
   1:src/camtest.c **** //-----------------------------------------------------------------------------
   2:src/camtest.c **** //  File          : camtest.c
   3:src/camtest.c **** //  Module        :
   4:src/camtest.c **** //  Description   : Include Camera test.
   5:src/camtest.c **** //  Author        : Lewis
   6:src/camtest.c **** //  Notes         :
   7:src/camtest.c **** //
   8:src/camtest.c **** // ============================================================================
   9:src/camtest.c **** // | Naming conventions                                                       |
  10:src/camtest.c **** // | ~~~~~~~~~~~~~~~~~~                                                       |
  11:src/camtest.c **** // |         Struct/Array : Leading s                                         |
  12:src/camtest.c **** // |             Constant : Leading K                                         |
  13:src/camtest.c **** // |      Global Variable : Leading g  (variable use outside one C file)      |
  14:src/camtest.c **** // |                                                                          |
  15:src/camtest.c **** // |   BYTE( 8 Bits) size : Leading b                                         |
  16:src/camtest.c **** // |   CHAR( 8 Bits) size : Leading c                                         |
  17:src/camtest.c **** // |   WORD(16 Bits) size : Leading w                                         |
  18:src/camtest.c **** // |  DWORD(32 Bits) size : Leading d                                         |
  19:src/camtest.c **** // |    int(32 Bits) size : Leading i                                         |
  20:src/camtest.c **** // | DDWORD(64 Bits) size : Leading dd                                        |
  21:src/camtest.c **** // |              Pointer : Leading p                                         |
  22:src/camtest.c **** // |                                                                          |
  23:src/camtest.c **** // |    Function argument : Leading a                                         |
  24:src/camtest.c **** // |       Local Variable : All lower case                                    |
  25:src/camtest.c **** // |                                                                          |
  26:src/camtest.c **** // | Examples:                                                                |
  27:src/camtest.c **** // |                Array : Leading s, (sb = arrary of byte, etc)             |
  28:src/camtest.c **** // |              Pointer : Leading p, (pb = pointer of byte, etc)            |
  29:src/camtest.c **** // ============================================================================
  30:src/camtest.c **** //
  31:src/camtest.c **** //  Date          Who         Action
  32:src/camtest.c **** //  ------------  ----------- -------------------------------------------------
ARM GAS  C:\Users\AHMED~1.ELE\AppData\Local\Temp\cc594ylT.s 			page 2


  33:src/camtest.c **** //  19 Sept 2016  Lewis       Initial Version.
  34:src/camtest.c **** //-----------------------------------------------------------------------------
  35:src/camtest.c **** #if (T300|A5T1000)
  36:src/camtest.c **** #include <stdio.h>
  37:src/camtest.c **** #include <string.h>
  38:src/camtest.c **** #include "util.h"
  39:src/camtest.c **** #include "apm.h"
  40:src/camtest.c **** #include "hwdef.h"
  41:src/camtest.c **** #include "sysutil.h"
  42:src/camtest.c **** #include "SPGLib.h"
  43:src/camtest.c **** #include "bar2dll.h"
  44:src/camtest.c **** #include "camtest.h"
  45:src/camtest.c **** #include "hardware.h"
  46:src/camtest.c **** 
  47:src/camtest.c **** 
  48:src/camtest.c **** //-----------------------------------------------------------------------------
  49:src/camtest.c **** //      Prototypes
  50:src/camtest.c **** //-----------------------------------------------------------------------------
  51:src/camtest.c **** 
  52:src/camtest.c **** //-----------------------------------------------------------------------------
  53:src/camtest.c **** //      Defines
  54:src/camtest.c **** //-----------------------------------------------------------------------------
  55:src/camtest.c **** //#define DM_TIMEOUT          2               // Try 2 sec to decode Data Matrix
  56:src/camtest.c **** #define DM_TIMEOUT          0               // Skip decode Data Matrix
  57:src/camtest.c **** 
  58:src/camtest.c **** typedef struct {
  59:src/camtest.c ****   WORD w_hstart;            // horizontal start position
  60:src/camtest.c ****   WORD w_vstart;            // vertical start position  
  61:src/camtest.c ****   WORD w_hwidth;            // horizontal data width    
  62:src/camtest.c ****   WORD w_vwidth;            // vertical data width      
  63:src/camtest.c ****   WORD data[K_DispMemorySize];    // graphic data array       
  64:src/camtest.c **** } T_LCDBUF;
  65:src/camtest.c **** 
  66:src/camtest.c **** //-----------------------------------------------------------------------------
  67:src/camtest.c **** //      Constant
  68:src/camtest.c **** //-----------------------------------------------------------------------------
  69:src/camtest.c **** 
  70:src/camtest.c **** //-----------------------------------------------------------------------------
  71:src/camtest.c **** //      Globals
  72:src/camtest.c **** //-----------------------------------------------------------------------------
  73:src/camtest.c **** static BOOLEAN gSensorOpened=FALSE;
  74:src/camtest.c **** 
  75:src/camtest.c **** 
  76:src/camtest.c **** //*****************************************************************************
  77:src/camtest.c **** //  Function        : ShowLayer
  78:src/camtest.c **** //  Description     : Display input buffer on Overlay.
  79:src/camtest.c **** //  Input           : aView;        // lcd buffer
  80:src/camtest.c **** //                    aLayId;       // Overlay ID.
  81:src/camtest.c **** //                    aExtra;       // pointer to extra parameters.
  82:src/camtest.c **** //  Return          : TRUE/FALSE;
  83:src/camtest.c **** //  Note            : N/A
  84:src/camtest.c **** //  Globals Changed : N/A
  85:src/camtest.c **** //*****************************************************************************
  86:src/camtest.c **** static BOOLEAN ShowLayer(T_LCDBUF *aView, DWORD aLayId, BYTE *aExtra)
  87:src/camtest.c **** {
  26              		.loc 1 87 0
  27              		.cfi_startproc
ARM GAS  C:\Users\AHMED~1.ELE\AppData\Local\Temp\cc594ylT.s 			page 3


  28              		@ args = 0, pretend = 0, frame = 0
  29              		@ frame_needed = 0, uses_anonymous_args = 0
  30              	.LVL0:
  31 0000 10B5     		push	{r4, lr}
  32              		.cfi_def_cfa_offset 8
  33              		.cfi_offset 4, -8
  34              		.cfi_offset 14, -4
  88:src/camtest.c ****   DWORD control;
  89:src/camtest.c **** 
  90:src/camtest.c ****   control = aLayId | ((aView!=NULL)?K_DispOverlayEn:0);
  35              		.loc 1 90 0
  36 0002 041E     		subs	r4, r0, #0
  87:src/camtest.c ****   DWORD control;
  37              		.loc 1 87 0
  38 0004 1346     		mov	r3, r2
  39              		.loc 1 90 0
  40 0006 14BF     		ite	ne
  41 0008 8022     		movne	r2, #128
  42              	.LVL1:
  43 000a 0022     		moveq	r2, #0
  44 000c 42EA0102 		orr	r2, r2, r1
  45              	.LVL2:
  91:src/camtest.c ****   if (aView && aView->w_vwidth==K_DispHeightInPixel) {
  46              		.loc 1 91 0
  47 0010 04D0     		beq	.L3
  48              		.loc 1 91 0 is_stmt 0 discriminator 1
  49 0012 E188     		ldrh	r1, [r4, #6]
  50              	.LVL3:
  51 0014 F029     		cmp	r1, #240
  92:src/camtest.c ****     control |= K_DispOverlayFullScr;
  52              		.loc 1 92 0 is_stmt 1 discriminator 1
  53 0016 08BF     		it	eq
  54 0018 42F40052 		orreq	r2, r2, #8192
  55              	.LVL4:
  56              	.L3:
  93:src/camtest.c ****   }
  94:src/camtest.c ****   os_disp_overlay(aView, control, aExtra);
  57              		.loc 1 94 0
  58 001c 2146     		mov	r1, r4
  59 001e 2720     		movs	r0, #39
  60              	.LVL5:
  61 0020 FFF7FEFF 		bl	sys_func3
  62              	.LVL6:
  95:src/camtest.c ****   return TRUE;
  96:src/camtest.c **** }
  63              		.loc 1 96 0
  64 0024 0120     		movs	r0, #1
  65 0026 10BD     		pop	{r4, pc}
  66              		.cfi_endproc
  67              	.LFE0:
  68              		.size	ShowLayer, .-ShowLayer
  69              		.section	.text.SensorClose,"ax",%progbits
  70              		.align	1
  71              		.thumb
  72              		.thumb_func
  73              		.type	SensorClose, %function
  74              	SensorClose:
ARM GAS  C:\Users\AHMED~1.ELE\AppData\Local\Temp\cc594ylT.s 			page 4


  75              	.LFB2:
  97:src/camtest.c **** 
  98:src/camtest.c **** //*****************************************************************************
  99:src/camtest.c **** //  Function        : SensorOpen
 100:src/camtest.c **** //  Description     : Open image sensor for barcode and print overlay1 area.
 101:src/camtest.c **** //  Input           : aMode;        // 
 102:src/camtest.c **** //                    aPreview;     // preview area.
 103:src/camtest.c **** //                    aFrameCfg;    // Frame config from system.
 104:src/camtest.c **** //                    aOneDHeight;  // Height of 1D barcode area indicator.
 105:src/camtest.c **** //  Return          : TRUE/FALSE;
 106:src/camtest.c **** //  Note            : N/A
 107:src/camtest.c **** //  Globals Changed : N/A
 108:src/camtest.c **** //*****************************************************************************
 109:src/camtest.c **** static BOOLEAN SensorOpen(DWORD aMode, T_LCDG *aPreview, T_IMAGE_FRAME *aFrameCfg, DWORD aOneDHeigh
 110:src/camtest.c **** {
 111:src/camtest.c **** #define COLOR_565(RED, GREEN, BLUE)           (((((RED) >> 3) & 0x1f)<<11) | ((((GREEN) >> 2) & 0x3
 112:src/camtest.c **** #define COLOR_4444(ALPHA, RED, GREEN, BLUE)   (((((ALPHA)>> 4) & 0xf)<<12) | ((((RED) >> 4) & 0xf)<
 113:src/camtest.c ****   int ret;
 114:src/camtest.c ****   BYTE  dispbuf[128];
 115:src/camtest.c ****   BYTE  *pOverLay;
 116:src/camtest.c ****   WORD  trans_grey  = COLOR_4444(80, 255, 0, 0);
 117:src/camtest.c ****   WORD  transparent = COLOR_4444(0, 0, 0, 0);
 118:src/camtest.c ****   DWORD control = 0;
 119:src/camtest.c ****   DWORD retry=3;
 120:src/camtest.c **** 
 121:src/camtest.c ****   while (retry--) {
 122:src/camtest.c ****     if ((ret = os_image_sensor_open(aMode, aPreview, aFrameCfg)) < 0) {
 123:src/camtest.c ****       if (retry > 0) {
 124:src/camtest.c ****         Delay10ms(10);
 125:src/camtest.c ****         continue;
 126:src/camtest.c ****       }
 127:src/camtest.c ****       sprintf(dispbuf, "sensor_open:[%d]", ret);
 128:src/camtest.c ****       DispLineMW(dispbuf, MW_LINE9, MW_CENTER|MW_REVERSE|MW_SPFONT);
 129:src/camtest.c ****       APM_WaitKey(KBD_TIMEOUT, 0);
 130:src/camtest.c ****       return FALSE;
 131:src/camtest.c ****     }
 132:src/camtest.c ****   }
 133:src/camtest.c ****   
 134:src/camtest.c ****   if (aPreview == NULL) {
 135:src/camtest.c ****     os_disp_overlay(NULL, K_DispOverlay1, NULL); // off
 136:src/camtest.c ****   }
 137:src/camtest.c ****   else {
 138:src/camtest.c ****     // draw overlay pattern
 139:src/camtest.c ****     // Add Indication overlay here
 140:src/camtest.c ****     pOverLay = MallocMW(sizeof(T_LCDG) + K_DispMemorySize);
 141:src/camtest.c ****     if (pOverLay != NULL) {
 142:src/camtest.c ****       memcpy(pOverLay, aPreview, sizeof(T_LCDG));
 143:src/camtest.c ****       if (aMode & SENSOR_MODE_FULL_SCREEN) {
 144:src/camtest.c ****         ((T_LCDG *)pOverLay)->w_hstart = 0;
 145:src/camtest.c ****         ((T_LCDG *)pOverLay)->w_vstart = 0;
 146:src/camtest.c ****         ((T_LCDG *)pOverLay)->w_hwidth = K_DispWidthInPixel;
 147:src/camtest.c ****         ((T_LCDG *)pOverLay)->w_vwidth = K_DispHeightInPixel;
 148:src/camtest.c ****         control = K_DispOverlayFullScr;
 149:src/camtest.c ****       }
 150:src/camtest.c ****       WORD *ptr = ((T_LCDG *)pOverLay)->p_data;
 151:src/camtest.c ****       DWORD diff     = ((T_LCDG *)pOverLay)->w_vwidth*aOneDHeight/aFrameCfg->height;
 152:src/camtest.c ****       DWORD upper    = ((T_LCDG *)pOverLay)->w_vwidth/2 - diff;
ARM GAS  C:\Users\AHMED~1.ELE\AppData\Local\Temp\cc594ylT.s 			page 5


 153:src/camtest.c ****       DWORD lower    = upper + 2 * diff;
 154:src/camtest.c ****       int i, j;
 155:src/camtest.c ****       aOneDHeight/=2;
 156:src/camtest.c ****       for (i = 0; i < ((T_LCDG *)pOverLay)->w_hwidth; i++) {
 157:src/camtest.c ****         for (j = 0; j < ((T_LCDG *)pOverLay)->w_vwidth; j++) {
 158:src/camtest.c ****           if (((j>upper)&&(j<lower)))
 159:src/camtest.c ****             *ptr = trans_grey;
 160:src/camtest.c ****           else
 161:src/camtest.c ****             *ptr = transparent;
 162:src/camtest.c ****           ptr++;
 163:src/camtest.c ****         }
 164:src/camtest.c ****       }
 165:src/camtest.c ****       control |= K_DispOverlay1|K_DispOverlayARGB4444;
 166:src/camtest.c ****       ShowLayer((T_LCDBUF *)pOverLay, control, NULL);
 167:src/camtest.c ****     }
 168:src/camtest.c ****     FreeMW(pOverLay);
 169:src/camtest.c ****   }
 170:src/camtest.c ****   gSensorOpened = TRUE;
 171:src/camtest.c ****   return TRUE;
 172:src/camtest.c **** }
 173:src/camtest.c **** 
 174:src/camtest.c **** //*****************************************************************************
 175:src/camtest.c **** //  Function        : SensorClose
 176:src/camtest.c **** //  Description     : Close image sensor and off overlay1.
 177:src/camtest.c **** //  Input           : N/A
 178:src/camtest.c **** //  Return          : TRUE/FALSE;
 179:src/camtest.c **** //  Note            : N/A
 180:src/camtest.c **** //  Globals Changed : N/A
 181:src/camtest.c **** //*****************************************************************************
 182:src/camtest.c **** static BOOLEAN SensorClose(void)
 183:src/camtest.c **** {
  76              		.loc 1 183 0
  77              		.cfi_startproc
  78              		@ args = 0, pretend = 0, frame = 0
  79              		@ frame_needed = 0, uses_anonymous_args = 0
 184:src/camtest.c ****   ShowLayer(NULL, K_DispOverlay1, NULL);  // off
  80              		.loc 1 184 0
  81 0000 0020     		movs	r0, #0
 183:src/camtest.c ****   ShowLayer(NULL, K_DispOverlay1, NULL);  // off
  82              		.loc 1 183 0
  83 0002 08B5     		push	{r3, lr}
  84              		.cfi_def_cfa_offset 8
  85              		.cfi_offset 3, -8
  86              		.cfi_offset 14, -4
  87              		.loc 1 184 0
  88 0004 0146     		mov	r1, r0
  89 0006 0246     		mov	r2, r0
  90 0008 FFF7FEFF 		bl	ShowLayer
  91              	.LVL7:
 185:src/camtest.c ****   os_image_sensor_close();
  92              		.loc 1 185 0
  93 000c 40F2CB10 		movw	r0, #459
  94 0010 FFF7FEFF 		bl	sys_func0
  95              	.LVL8:
 186:src/camtest.c ****   gSensorOpened = FALSE;
  96              		.loc 1 186 0
  97 0014 0022     		movs	r2, #0
ARM GAS  C:\Users\AHMED~1.ELE\AppData\Local\Temp\cc594ylT.s 			page 6


  98 0016 024B     		ldr	r3, .L10
 187:src/camtest.c ****   return TRUE;
 188:src/camtest.c **** }
  99              		.loc 1 188 0
 100 0018 0120     		movs	r0, #1
 186:src/camtest.c ****   gSensorOpened = FALSE;
 101              		.loc 1 186 0
 102 001a 1A70     		strb	r2, [r3]
 103              		.loc 1 188 0
 104 001c 08BD     		pop	{r3, pc}
 105              	.L11:
 106 001e 00BF     		.align	2
 107              	.L10:
 108 0020 00000000 		.word	.LANCHOR0
 109              		.cfi_endproc
 110              	.LFE2:
 111              		.size	SensorClose, .-SensorClose
 112              		.global	__aeabi_uidiv
 113              		.section	.text.SensorSwMode,"ax",%progbits
 114              		.align	1
 115              		.thumb
 116              		.thumb_func
 117              		.type	SensorSwMode, %function
 118              	SensorSwMode:
 119              	.LFB3:
 189:src/camtest.c **** 
 190:src/camtest.c **** #ifdef os_image_sensor_set_mode
 191:src/camtest.c **** //*****************************************************************************
 192:src/camtest.c **** //  Function        : SensorSwMode
 193:src/camtest.c **** //  Description     : Switch mode of image sensor
 194:src/camtest.c **** //  Input           : aMode;        // 
 195:src/camtest.c **** //                    aPreview;     // preview area.
 196:src/camtest.c **** //                    aFrameCfg;    // Frame config from system.
 197:src/camtest.c **** //                    aOneDHeight;  // Height of 1D barcode area indicator.
 198:src/camtest.c **** //  Return          : TRUE/FALSE;
 199:src/camtest.c **** //  Note            : N/A
 200:src/camtest.c **** //  Globals Changed : N/A
 201:src/camtest.c **** //*****************************************************************************
 202:src/camtest.c **** static BOOLEAN SensorSwMode(DWORD aMode, T_LCDG *aPreview, T_IMAGE_FRAME *aFrameCfg, DWORD aOneDHei
 203:src/camtest.c **** {
 120              		.loc 1 203 0
 121              		.cfi_startproc
 122              		@ args = 0, pretend = 0, frame = 128
 123              		@ frame_needed = 0, uses_anonymous_args = 0
 124              	.LVL9:
 125 0000 2DE9F043 		push	{r4, r5, r6, r7, r8, r9, lr}
 126              		.cfi_def_cfa_offset 28
 127              		.cfi_offset 4, -28
 128              		.cfi_offset 5, -24
 129              		.cfi_offset 6, -20
 130              		.cfi_offset 7, -16
 131              		.cfi_offset 8, -12
 132              		.cfi_offset 9, -8
 133              		.cfi_offset 14, -4
 134 0004 0546     		mov	r5, r0
 135 0006 0E46     		mov	r6, r1
 136 0008 9046     		mov	r8, r2
ARM GAS  C:\Users\AHMED~1.ELE\AppData\Local\Temp\cc594ylT.s 			page 7


 137              	.LVL10:
 138 000a A3B0     		sub	sp, sp, #140
 139              		.cfi_def_cfa_offset 168
 204:src/camtest.c **** #define COLOR_565(RED, GREEN, BLUE)           (((((RED) >> 3) & 0x1f)<<11) | ((((GREEN) >> 2) & 0x3
 205:src/camtest.c **** #define COLOR_4444(ALPHA, RED, GREEN, BLUE)   (((((ALPHA)>> 4) & 0xf)<<12) | ((((RED) >> 4) & 0xf)<
 206:src/camtest.c ****   int ret;
 207:src/camtest.c ****   BYTE  dispbuf[128];
 208:src/camtest.c ****   BYTE  *pOverLay;
 209:src/camtest.c ****   WORD  trans_grey  = COLOR_4444(80, 255, 0, 0);
 210:src/camtest.c ****   WORD  transparent = COLOR_4444(0, 0, 0, 0);
 211:src/camtest.c ****   DWORD control = 0;
 212:src/camtest.c **** 
 213:src/camtest.c ****   if ((ret = os_image_sensor_set_mode(aMode, aPreview, aFrameCfg)) < 0) {
 140              		.loc 1 213 0
 141 000c 3246     		mov	r2, r6
 142              	.LVL11:
 203:src/camtest.c **** #define COLOR_565(RED, GREEN, BLUE)           (((((RED) >> 3) & 0x1f)<<11) | ((((GREEN) >> 2) & 0x3
 143              		.loc 1 203 0
 144 000e 9946     		mov	r9, r3
 145              		.loc 1 213 0
 146 0010 4FF4EB70 		mov	r0, #470
 147              	.LVL12:
 148 0014 2946     		mov	r1, r5
 149              	.LVL13:
 150 0016 4346     		mov	r3, r8
 151              	.LVL14:
 152 0018 FFF7FEFF 		bl	sys_func3
 153              	.LVL15:
 154 001c 021E     		subs	r2, r0, #0
 155 001e 2CDA     		bge	.L13
 214:src/camtest.c ****     sprintf(dispbuf, "sensor_setmode:[%d]", ret);
 156              		.loc 1 214 0
 157 0020 3E49     		ldr	r1, .L35
 158 0022 02A8     		add	r0, sp, #8
 159              	.LVL16:
 160 0024 FFF7FEFF 		bl	sprintf
 161              	.LVL17:
 162              	.LBB2:
 215:src/camtest.c ****     DispLineMW(dispbuf, MW_LINE9, MW_CENTER|MW_REVERSE|MW_SPFONT);
 163              		.loc 1 215 0
 164 0028 02A8     		add	r0, sp, #8
 165 002a FFF7FEFF 		bl	strlen
 166              	.LVL18:
 167 002e 0546     		mov	r5, r0
 168              	.LVL19:
 169 0030 691C     		adds	r1, r5, #1
 170 0032 9220     		movs	r0, #146
 171              	.LVL20:
 172 0034 FFF7FEFF 		bl	sys_func1
 173              	.LVL21:
 174 0038 0446     		mov	r4, r0
 175 003a 98B1     		cbz	r0, .L14
 176              		.loc 1 215 0 is_stmt 0 discriminator 1
 177 003c 02A9     		add	r1, sp, #8
 178 003e 2A46     		mov	r2, r5
 179 0040 FFF7FEFF 		bl	memcpy
 180              	.LVL22:
ARM GAS  C:\Users\AHMED~1.ELE\AppData\Local\Temp\cc594ylT.s 			page 8


 181 0044 0023     		movs	r3, #0
 182 0046 2521     		movs	r1, #37
 183 0048 6355     		strb	r3, [r4, r5]
 184 004a 42F21203 		movw	r3, #8210
 185 004e 0F20     		movs	r0, #15
 186 0050 0093     		str	r3, [sp]
 187 0052 2246     		mov	r2, r4
 188 0054 4FF41063 		mov	r3, #2304
 189 0058 FFF7FEFF 		bl	lib_app_call
 190              	.LVL23:
 191 005c 9420     		movs	r0, #148
 192 005e 2146     		mov	r1, r4
 193 0060 FFF7FEFF 		bl	sys_func1
 194              	.LVL24:
 195              	.L14:
 196              	.LBE2:
 216:src/camtest.c ****     APM_WaitKey(KBD_TIMEOUT, 0);
 197              		.loc 1 216 0 is_stmt 1
 198 0064 0024     		movs	r4, #0
 199              	.LVL25:
 200 0066 1020     		movs	r0, #16
 201 0068 0094     		str	r4, [sp]
 202 006a 0321     		movs	r1, #3
 203 006c 42F22832 		movw	r2, #9000
 204 0070 2346     		mov	r3, r4
 205 0072 FFF7FEFF 		bl	lib_app_call
 206              	.LVL26:
 217:src/camtest.c ****     return FALSE;
 207              		.loc 1 217 0
 208 0076 2046     		mov	r0, r4
 209 0078 4DE0     		b	.L15
 210              	.LVL27:
 211              	.L13:
 218:src/camtest.c ****   }
 219:src/camtest.c ****   
 220:src/camtest.c ****   if (aPreview == NULL) {
 212              		.loc 1 220 0
 213 007a 36B9     		cbnz	r6, .L16
 221:src/camtest.c ****     os_disp_overlay(NULL, K_DispOverlay1, NULL); // off
 214              		.loc 1 221 0
 215 007c 3146     		mov	r1, r6
 216 007e 3246     		mov	r2, r6
 217 0080 3346     		mov	r3, r6
 218 0082 2720     		movs	r0, #39
 219              	.LVL28:
 220 0084 FFF7FEFF 		bl	sys_func3
 221              	.LVL29:
 222 0088 44E0     		b	.L33
 223              	.LVL30:
 224              	.L16:
 222:src/camtest.c ****   }
 223:src/camtest.c ****   else {
 224:src/camtest.c ****     // draw overlay pattern
 225:src/camtest.c ****     // Add Indication overlay here
 226:src/camtest.c ****     pOverLay = MallocMW(sizeof(T_LCDG) + K_DispMemorySize);
 225              		.loc 1 226 0
 226 008a 9220     		movs	r0, #146
ARM GAS  C:\Users\AHMED~1.ELE\AppData\Local\Temp\cc594ylT.s 			page 9


 227              	.LVL31:
 228 008c 2449     		ldr	r1, .L35+4
 229 008e FFF7FEFF 		bl	sys_func1
 230              	.LVL32:
 227:src/camtest.c ****     if (pOverLay != NULL) {
 231              		.loc 1 227 0
 232 0092 0446     		mov	r4, r0
 233 0094 0028     		cmp	r0, #0
 234 0096 39D0     		beq	.L17
 235              	.LBB3:
 228:src/camtest.c ****       memcpy(pOverLay, aPreview, sizeof(T_LCDG));
 236              		.loc 1 228 0
 237 0098 3146     		mov	r1, r6
 238 009a 0C22     		movs	r2, #12
 239 009c FFF7FEFF 		bl	memcpy
 240              	.LVL33:
 229:src/camtest.c ****       if (aMode & SENSOR_MODE_FULL_SCREEN) {
 241              		.loc 1 229 0
 242 00a0 15F40046 		ands	r6, r5, #32768
 243              	.LVL34:
 244 00a4 4FF00003 		mov	r3, #0
 245 00a8 08D0     		beq	.L18
 230:src/camtest.c ****         ((T_LCDG *)pOverLay)->w_hstart = 0;
 246              		.loc 1 230 0
 247 00aa 2380     		strh	r3, [r4]	@ movhi
 231:src/camtest.c ****         ((T_LCDG *)pOverLay)->w_vstart = 0;
 248              		.loc 1 231 0
 249 00ac 6380     		strh	r3, [r4, #2]	@ movhi
 232:src/camtest.c ****         ((T_LCDG *)pOverLay)->w_hwidth = K_DispWidthInPixel;
 250              		.loc 1 232 0
 251 00ae 4FF4A073 		mov	r3, #320
 233:src/camtest.c ****         ((T_LCDG *)pOverLay)->w_vwidth = K_DispHeightInPixel;
 234:src/camtest.c ****         control = K_DispOverlayFullScr;
 252              		.loc 1 234 0
 253 00b2 4FF40056 		mov	r6, #8192
 232:src/camtest.c ****         ((T_LCDG *)pOverLay)->w_hwidth = K_DispWidthInPixel;
 254              		.loc 1 232 0
 255 00b6 A380     		strh	r3, [r4, #4]	@ movhi
 233:src/camtest.c ****         ((T_LCDG *)pOverLay)->w_vwidth = K_DispHeightInPixel;
 256              		.loc 1 233 0
 257 00b8 F023     		movs	r3, #240
 258 00ba E380     		strh	r3, [r4, #6]	@ movhi
 259              	.LVL35:
 260              	.L18:
 235:src/camtest.c ****       }
 236:src/camtest.c ****       WORD *ptr = ((T_LCDG *)pOverLay)->p_data;
 237:src/camtest.c ****       DWORD diff     = ((T_LCDG *)pOverLay)->w_vwidth*aOneDHeight/aFrameCfg->height;
 261              		.loc 1 237 0
 262 00bc E588     		ldrh	r5, [r4, #6]
 263              	.LVL36:
 264 00be D8F80810 		ldr	r1, [r8, #8]
 265 00c2 05FB09F0 		mul	r0, r5, r9
 266 00c6 FFF7FEFF 		bl	__aeabi_uidiv
 267              	.LVL37:
 236:src/camtest.c ****       DWORD diff     = ((T_LCDG *)pOverLay)->w_vwidth*aOneDHeight/aFrameCfg->height;
 268              		.loc 1 236 0
 269 00ca 04F10807 		add	r7, r4, #8
ARM GAS  C:\Users\AHMED~1.ELE\AppData\Local\Temp\cc594ylT.s 			page 10


 270              	.LVL38:
 238:src/camtest.c ****       DWORD upper    = ((T_LCDG *)pOverLay)->w_vwidth/2 - diff;
 239:src/camtest.c ****       DWORD lower    = upper + 2 * diff;
 240:src/camtest.c ****       int i, j;
 241:src/camtest.c ****       aOneDHeight/=2;
 242:src/camtest.c ****       for (i = 0; i < ((T_LCDG *)pOverLay)->w_hwidth; i++) {
 271              		.loc 1 242 0
 272 00ce 0022     		movs	r2, #0
 238:src/camtest.c ****       DWORD upper    = ((T_LCDG *)pOverLay)->w_vwidth/2 - diff;
 273              		.loc 1 238 0
 274 00d0 C0EB5501 		rsb	r1, r0, r5, lsr #1
 275              	.LVL39:
 239:src/camtest.c ****       int i, j;
 276              		.loc 1 239 0
 277 00d4 00EB5500 		add	r0, r0, r5, lsr #1
 278              	.LVL40:
 279              	.L19:
 280              		.loc 1 242 0 discriminator 1
 281 00d8 A388     		ldrh	r3, [r4, #4]
 282 00da 9A42     		cmp	r2, r3
 283 00dc 11DA     		bge	.L23
 284 00de 0023     		movs	r3, #0
 285              	.L24:
 286              	.LVL41:
 243:src/camtest.c ****         for (j = 0; j < ((T_LCDG *)pOverLay)->w_vwidth; j++) {
 287              		.loc 1 243 0 discriminator 1
 288 00e0 E588     		ldrh	r5, [r4, #6]
 289 00e2 AB42     		cmp	r3, r5
 290 00e4 0BDA     		bge	.L34
 244:src/camtest.c ****           if (((j>upper)&&(j<lower)))
 291              		.loc 1 244 0
 292 00e6 8B42     		cmp	r3, r1
 293 00e8 04D9     		bls	.L20
 294              		.loc 1 244 0 is_stmt 0 discriminator 1
 295 00ea 8342     		cmp	r3, r0
 296 00ec 02D2     		bcs	.L20
 245:src/camtest.c ****             *ptr = trans_grey;
 297              		.loc 1 245 0 is_stmt 1
 298 00ee 4FF4BE45 		mov	r5, #24320
 299 00f2 00E0     		b	.L32
 300              	.L20:
 246:src/camtest.c ****           else
 247:src/camtest.c ****             *ptr = transparent;
 301              		.loc 1 247 0
 302 00f4 0025     		movs	r5, #0
 303              	.L32:
 304 00f6 3D80     		strh	r5, [r7]	@ movhi
 243:src/camtest.c ****           if (((j>upper)&&(j<lower)))
 305              		.loc 1 243 0
 306 00f8 0133     		adds	r3, r3, #1
 307              	.LVL42:
 248:src/camtest.c ****           ptr++;
 308              		.loc 1 248 0
 309 00fa 0237     		adds	r7, r7, #2
 310              	.LVL43:
 311 00fc F0E7     		b	.L24
 312              	.L34:
ARM GAS  C:\Users\AHMED~1.ELE\AppData\Local\Temp\cc594ylT.s 			page 11


 242:src/camtest.c ****         for (j = 0; j < ((T_LCDG *)pOverLay)->w_vwidth; j++) {
 313              		.loc 1 242 0 discriminator 2
 314 00fe 0132     		adds	r2, r2, #1
 315              	.LVL44:
 316 0100 EAE7     		b	.L19
 317              	.LVL45:
 318              	.L23:
 249:src/camtest.c ****         }
 250:src/camtest.c ****       }
 251:src/camtest.c ****       control |= K_DispOverlay1|K_DispOverlayARGB4444;
 252:src/camtest.c ****       ShowLayer((T_LCDBUF *)pOverLay, control, NULL);
 319              		.loc 1 252 0
 320 0102 2046     		mov	r0, r4
 321              	.LVL46:
 322 0104 3146     		mov	r1, r6
 323              	.LVL47:
 324 0106 0022     		movs	r2, #0
 325              	.LVL48:
 326 0108 FFF7FEFF 		bl	ShowLayer
 327              	.LVL49:
 328              	.L17:
 329              	.LBE3:
 253:src/camtest.c ****     }
 254:src/camtest.c ****     FreeMW(pOverLay);
 330              		.loc 1 254 0
 331 010c 9420     		movs	r0, #148
 332 010e 2146     		mov	r1, r4
 333 0110 FFF7FEFF 		bl	sys_func1
 334              	.LVL50:
 335              	.L33:
 255:src/camtest.c ****   }
 256:src/camtest.c ****   return TRUE;
 336              		.loc 1 256 0
 337 0114 0120     		movs	r0, #1
 338              	.L15:
 257:src/camtest.c **** }
 339              		.loc 1 257 0
 340 0116 23B0     		add	sp, sp, #140
 341              		.cfi_def_cfa_offset 28
 342              		@ sp needed
 343 0118 BDE8F083 		pop	{r4, r5, r6, r7, r8, r9, pc}
 344              	.LVL51:
 345              	.L36:
 346              		.align	2
 347              	.L35:
 348 011c 00000000 		.word	.LC0
 349 0120 0C580200 		.word	153612
 350              		.cfi_endproc
 351              	.LFE3:
 352              		.size	SensorSwMode, .-SensorSwMode
 353              		.section	.text.SensorOpen,"ax",%progbits
 354              		.align	1
 355              		.thumb
 356              		.thumb_func
 357              		.type	SensorOpen, %function
 358              	SensorOpen:
 359              	.LFB1:
ARM GAS  C:\Users\AHMED~1.ELE\AppData\Local\Temp\cc594ylT.s 			page 12


 110:src/camtest.c **** #define COLOR_565(RED, GREEN, BLUE)           (((((RED) >> 3) & 0x1f)<<11) | ((((GREEN) >> 2) & 0x3
 360              		.loc 1 110 0
 361              		.cfi_startproc
 362              		@ args = 0, pretend = 0, frame = 128
 363              		@ frame_needed = 0, uses_anonymous_args = 0
 364              	.LVL52:
 365 0000 2DE9F043 		push	{r4, r5, r6, r7, r8, r9, lr}
 366              		.cfi_def_cfa_offset 28
 367              		.cfi_offset 4, -28
 368              		.cfi_offset 5, -24
 369              		.cfi_offset 6, -20
 370              		.cfi_offset 7, -16
 371              		.cfi_offset 8, -12
 372              		.cfi_offset 9, -8
 373              		.cfi_offset 14, -4
 374 0004 0546     		mov	r5, r0
 375 0006 A3B0     		sub	sp, sp, #140
 376              		.cfi_def_cfa_offset 168
 110:src/camtest.c **** #define COLOR_565(RED, GREEN, BLUE)           (((((RED) >> 3) & 0x1f)<<11) | ((((GREEN) >> 2) & 0x3
 377              		.loc 1 110 0
 378 0008 0E46     		mov	r6, r1
 379 000a 1746     		mov	r7, r2
 380              	.LVL53:
 381 000c 9846     		mov	r8, r3
 119:src/camtest.c **** 
 382              		.loc 1 119 0
 383 000e 0324     		movs	r4, #3
 384              	.LVL54:
 385              	.L38:
 121:src/camtest.c ****     if ((ret = os_image_sensor_open(aMode, aPreview, aFrameCfg)) < 0) {
 386              		.loc 1 121 0
 387 0010 14F1FF34 		adds	r4, r4, #-1
 388              	.LVL55:
 389 0014 39D3     		bcc	.L62
 390              	.LVL56:
 122:src/camtest.c ****       if (retry > 0) {
 391              		.loc 1 122 0
 392 0016 3246     		mov	r2, r6
 393 0018 4FF4E470 		mov	r0, #456
 394 001c 2946     		mov	r1, r5
 395 001e 3B46     		mov	r3, r7
 396 0020 FFF7FEFF 		bl	sys_func3
 397              	.LVL57:
 398 0024 021E     		subs	r2, r0, #0
 399 0026 F3DA     		bge	.L38
 123:src/camtest.c ****         Delay10ms(10);
 400              		.loc 1 123 0
 401 0028 1CB1     		cbz	r4, .L40
 124:src/camtest.c ****         continue;
 402              		.loc 1 124 0
 403 002a 0A20     		movs	r0, #10
 404              	.LVL58:
 405 002c FFF7FEFF 		bl	Delay10ms
 406              	.LVL59:
 125:src/camtest.c ****       }
 407              		.loc 1 125 0
 408 0030 EEE7     		b	.L38
ARM GAS  C:\Users\AHMED~1.ELE\AppData\Local\Temp\cc594ylT.s 			page 13


 409              	.LVL60:
 410              	.L40:
 127:src/camtest.c ****       DispLineMW(dispbuf, MW_LINE9, MW_CENTER|MW_REVERSE|MW_SPFONT);
 411              		.loc 1 127 0
 412 0032 4049     		ldr	r1, .L64
 413 0034 02A8     		add	r0, sp, #8
 414              	.LVL61:
 415 0036 FFF7FEFF 		bl	sprintf
 416              	.LVL62:
 417              	.LBB4:
 128:src/camtest.c ****       APM_WaitKey(KBD_TIMEOUT, 0);
 418              		.loc 1 128 0
 419 003a 02A8     		add	r0, sp, #8
 420 003c FFF7FEFF 		bl	strlen
 421              	.LVL63:
 422 0040 0646     		mov	r6, r0
 423              	.LVL64:
 424 0042 711C     		adds	r1, r6, #1
 425 0044 9220     		movs	r0, #146
 426              	.LVL65:
 427 0046 FFF7FEFF 		bl	sys_func1
 428              	.LVL66:
 429 004a 0546     		mov	r5, r0
 430              	.LVL67:
 431 004c 90B1     		cbz	r0, .L41
 128:src/camtest.c ****       APM_WaitKey(KBD_TIMEOUT, 0);
 432              		.loc 1 128 0 is_stmt 0 discriminator 1
 433 004e 02A9     		add	r1, sp, #8
 434 0050 3246     		mov	r2, r6
 435 0052 FFF7FEFF 		bl	memcpy
 436              	.LVL68:
 437 0056 42F21203 		movw	r3, #8210
 438 005a AC55     		strb	r4, [r5, r6]
 439 005c 2521     		movs	r1, #37
 440 005e 0093     		str	r3, [sp]
 441 0060 0F20     		movs	r0, #15
 442 0062 2A46     		mov	r2, r5
 443 0064 4FF41063 		mov	r3, #2304
 444 0068 FFF7FEFF 		bl	lib_app_call
 445              	.LVL69:
 446 006c 9420     		movs	r0, #148
 447 006e 2946     		mov	r1, r5
 448 0070 FFF7FEFF 		bl	sys_func1
 449              	.LVL70:
 450              	.L41:
 451              	.LBE4:
 129:src/camtest.c ****       return FALSE;
 452              		.loc 1 129 0 is_stmt 1
 453 0074 0024     		movs	r4, #0
 454              	.LVL71:
 455 0076 1020     		movs	r0, #16
 456 0078 0094     		str	r4, [sp]
 457 007a 0321     		movs	r1, #3
 458 007c 42F22832 		movw	r2, #9000
 459 0080 2346     		mov	r3, r4
 460 0082 FFF7FEFF 		bl	lib_app_call
 461              	.LVL72:
ARM GAS  C:\Users\AHMED~1.ELE\AppData\Local\Temp\cc594ylT.s 			page 14


 130:src/camtest.c ****     }
 462              		.loc 1 130 0
 463 0086 2046     		mov	r0, r4
 464 0088 50E0     		b	.L42
 465              	.LVL73:
 466              	.L62:
 134:src/camtest.c ****     os_disp_overlay(NULL, K_DispOverlay1, NULL); // off
 467              		.loc 1 134 0
 468 008a 36B9     		cbnz	r6, .L44
 135:src/camtest.c ****   }
 469              		.loc 1 135 0
 470 008c 3146     		mov	r1, r6
 471 008e 3246     		mov	r2, r6
 472 0090 3346     		mov	r3, r6
 473 0092 2720     		movs	r0, #39
 474 0094 FFF7FEFF 		bl	sys_func3
 475              	.LVL74:
 476 0098 45E0     		b	.L45
 477              	.L44:
 140:src/camtest.c ****     if (pOverLay != NULL) {
 478              		.loc 1 140 0
 479 009a 9220     		movs	r0, #146
 480 009c 2649     		ldr	r1, .L64+4
 481 009e FFF7FEFF 		bl	sys_func1
 482              	.LVL75:
 141:src/camtest.c ****       memcpy(pOverLay, aPreview, sizeof(T_LCDG));
 483              		.loc 1 141 0
 484 00a2 0446     		mov	r4, r0
 485              	.LVL76:
 486 00a4 0028     		cmp	r0, #0
 487 00a6 3AD0     		beq	.L46
 488              	.LBB5:
 142:src/camtest.c ****       if (aMode & SENSOR_MODE_FULL_SCREEN) {
 489              		.loc 1 142 0
 490 00a8 3146     		mov	r1, r6
 491 00aa 0C22     		movs	r2, #12
 492 00ac FFF7FEFF 		bl	memcpy
 493              	.LVL77:
 143:src/camtest.c ****         ((T_LCDG *)pOverLay)->w_hstart = 0;
 494              		.loc 1 143 0
 495 00b0 15F40046 		ands	r6, r5, #32768
 496              	.LVL78:
 497 00b4 4FF00003 		mov	r3, #0
 498 00b8 08D0     		beq	.L47
 144:src/camtest.c ****         ((T_LCDG *)pOverLay)->w_vstart = 0;
 499              		.loc 1 144 0
 500 00ba 2380     		strh	r3, [r4]	@ movhi
 145:src/camtest.c ****         ((T_LCDG *)pOverLay)->w_hwidth = K_DispWidthInPixel;
 501              		.loc 1 145 0
 502 00bc 6380     		strh	r3, [r4, #2]	@ movhi
 146:src/camtest.c ****         ((T_LCDG *)pOverLay)->w_vwidth = K_DispHeightInPixel;
 503              		.loc 1 146 0
 504 00be 4FF4A073 		mov	r3, #320
 148:src/camtest.c ****       }
 505              		.loc 1 148 0
 506 00c2 4FF40056 		mov	r6, #8192
 146:src/camtest.c ****         ((T_LCDG *)pOverLay)->w_vwidth = K_DispHeightInPixel;
ARM GAS  C:\Users\AHMED~1.ELE\AppData\Local\Temp\cc594ylT.s 			page 15


 507              		.loc 1 146 0
 508 00c6 A380     		strh	r3, [r4, #4]	@ movhi
 147:src/camtest.c ****         control = K_DispOverlayFullScr;
 509              		.loc 1 147 0
 510 00c8 F023     		movs	r3, #240
 511 00ca E380     		strh	r3, [r4, #6]	@ movhi
 512              	.LVL79:
 513              	.L47:
 151:src/camtest.c ****       DWORD upper    = ((T_LCDG *)pOverLay)->w_vwidth/2 - diff;
 514              		.loc 1 151 0
 515 00cc E588     		ldrh	r5, [r4, #6]
 516              	.LVL80:
 517 00ce B968     		ldr	r1, [r7, #8]
 518 00d0 05FB08F0 		mul	r0, r5, r8
 519 00d4 FFF7FEFF 		bl	__aeabi_uidiv
 520              	.LVL81:
 150:src/camtest.c ****       DWORD diff     = ((T_LCDG *)pOverLay)->w_vwidth*aOneDHeight/aFrameCfg->height;
 521              		.loc 1 150 0
 522 00d8 04F10809 		add	r9, r4, #8
 523              	.LVL82:
 156:src/camtest.c ****         for (j = 0; j < ((T_LCDG *)pOverLay)->w_vwidth; j++) {
 524              		.loc 1 156 0
 525 00dc 0022     		movs	r2, #0
 152:src/camtest.c ****       DWORD lower    = upper + 2 * diff;
 526              		.loc 1 152 0
 527 00de C0EB5501 		rsb	r1, r0, r5, lsr #1
 528              	.LVL83:
 153:src/camtest.c ****       int i, j;
 529              		.loc 1 153 0
 530 00e2 00EB5500 		add	r0, r0, r5, lsr #1
 531              	.LVL84:
 532              	.L48:
 156:src/camtest.c ****         for (j = 0; j < ((T_LCDG *)pOverLay)->w_vwidth; j++) {
 533              		.loc 1 156 0 discriminator 1
 534 00e6 A388     		ldrh	r3, [r4, #4]
 535 00e8 9A42     		cmp	r2, r3
 536 00ea 13DA     		bge	.L52
 537 00ec 0023     		movs	r3, #0
 538              	.L53:
 539              	.LVL85:
 157:src/camtest.c ****           if (((j>upper)&&(j<lower)))
 540              		.loc 1 157 0 discriminator 1
 541 00ee E588     		ldrh	r5, [r4, #6]
 542 00f0 AB42     		cmp	r3, r5
 543 00f2 0DDA     		bge	.L63
 158:src/camtest.c ****             *ptr = trans_grey;
 544              		.loc 1 158 0
 545 00f4 8B42     		cmp	r3, r1
 546 00f6 04D9     		bls	.L49
 158:src/camtest.c ****             *ptr = trans_grey;
 547              		.loc 1 158 0 is_stmt 0 discriminator 1
 548 00f8 8342     		cmp	r3, r0
 549 00fa 02D2     		bcs	.L49
 159:src/camtest.c ****           else
 550              		.loc 1 159 0 is_stmt 1
 551 00fc 4FF4BE45 		mov	r5, #24320
 552 0100 00E0     		b	.L61
ARM GAS  C:\Users\AHMED~1.ELE\AppData\Local\Temp\cc594ylT.s 			page 16


 553              	.L49:
 161:src/camtest.c ****           ptr++;
 554              		.loc 1 161 0
 555 0102 0025     		movs	r5, #0
 556              	.L61:
 557 0104 A9F80050 		strh	r5, [r9]	@ movhi
 157:src/camtest.c ****           if (((j>upper)&&(j<lower)))
 558              		.loc 1 157 0
 559 0108 0133     		adds	r3, r3, #1
 560              	.LVL86:
 162:src/camtest.c ****         }
 561              		.loc 1 162 0
 562 010a 09F10209 		add	r9, r9, #2
 563              	.LVL87:
 564 010e EEE7     		b	.L53
 565              	.L63:
 156:src/camtest.c ****         for (j = 0; j < ((T_LCDG *)pOverLay)->w_vwidth; j++) {
 566              		.loc 1 156 0 discriminator 2
 567 0110 0132     		adds	r2, r2, #1
 568              	.LVL88:
 569 0112 E8E7     		b	.L48
 570              	.LVL89:
 571              	.L52:
 166:src/camtest.c ****     }
 572              		.loc 1 166 0
 573 0114 2046     		mov	r0, r4
 574              	.LVL90:
 575 0116 3146     		mov	r1, r6
 576              	.LVL91:
 577 0118 0022     		movs	r2, #0
 578              	.LVL92:
 579 011a FFF7FEFF 		bl	ShowLayer
 580              	.LVL93:
 581              	.L46:
 582              	.LBE5:
 168:src/camtest.c ****   }
 583              		.loc 1 168 0
 584 011e 9420     		movs	r0, #148
 585 0120 2146     		mov	r1, r4
 586 0122 FFF7FEFF 		bl	sys_func1
 587              	.LVL94:
 588              	.L45:
 170:src/camtest.c ****   return TRUE;
 589              		.loc 1 170 0
 590 0126 0120     		movs	r0, #1
 591 0128 044B     		ldr	r3, .L64+8
 592 012a 1870     		strb	r0, [r3]
 593              	.L42:
 172:src/camtest.c **** 
 594              		.loc 1 172 0
 595 012c 23B0     		add	sp, sp, #140
 596              		.cfi_def_cfa_offset 28
 597              		@ sp needed
 598 012e BDE8F083 		pop	{r4, r5, r6, r7, r8, r9, pc}
 599              	.LVL95:
 600              	.L65:
 601 0132 00BF     		.align	2
ARM GAS  C:\Users\AHMED~1.ELE\AppData\Local\Temp\cc594ylT.s 			page 17


 602              	.L64:
 603 0134 14000000 		.word	.LC1
 604 0138 0C580200 		.word	153612
 605 013c 00000000 		.word	.LANCHOR0
 606              		.cfi_endproc
 607              	.LFE1:
 608              		.size	SensorOpen, .-SensorOpen
 609              		.section	.text.LcdOnLayerEnable.part.0,"ax",%progbits
 610              		.align	1
 611              		.thumb
 612              		.thumb_func
 613              		.type	LcdOnLayerEnable.part.0, %function
 614              	LcdOnLayerEnable.part.0:
 615              	.LFB10:
 258:src/camtest.c **** #endif
 259:src/camtest.c **** //*****************************************************************************
 260:src/camtest.c **** //  Function        : LcdOnLayerEnable
 261:src/camtest.c **** //  Description     : Enable or disable LcdOnLayer function.
 262:src/camtest.c **** //  Input           : aEnable;  // TRUE/FALSE;
 263:src/camtest.c **** //  Return          : N/A
 264:src/camtest.c **** //  Note            : N/A
 265:src/camtest.c **** //  Globals Changed : N/A
 266:src/camtest.c **** //*****************************************************************************
 267:src/camtest.c **** #define K_TRANS_COLOR   0xFFFF
 268:src/camtest.c **** #define K_TEXT_COLOR    0x07E0
 269:src/camtest.c **** static void LcdOnLayerEnable(BOOLEAN aEnable)
 616              		.loc 1 269 0
 617              		.cfi_startproc
 618              		@ args = 0, pretend = 0, frame = 0
 619              		@ frame_needed = 0, uses_anonymous_args = 0
 620              	.LVL96:
 621 0000 08B5     		push	{r3, lr}
 622              		.cfi_def_cfa_offset 8
 623              		.cfi_offset 3, -8
 624              		.cfi_offset 14, -4
 270:src/camtest.c **** {
 271:src/camtest.c ****   if (aEnable) {
 272:src/camtest.c ****     os_disp_putc(K_PushCursor);
 625              		.loc 1 272 0
 626 0002 0E21     		movs	r1, #14
 627 0004 1620     		movs	r0, #22
 628 0006 FFF7FEFF 		bl	sys_func1
 629              	.LVL97:
 273:src/camtest.c ****     os_disp_backc(K_TRANS_COLOR);
 630              		.loc 1 273 0
 631 000a 4FF6FF71 		movw	r1, #65535
 632 000e 2020     		movs	r0, #32
 633 0010 FFF7FEFF 		bl	sys_func1
 634              	.LVL98:
 274:src/camtest.c ****     //os_disp_textc(K_TEXT_COLOR);
 275:src/camtest.c ****     os_disp_textc(RGB(0x00,0x00,0xFF));
 635              		.loc 1 275 0
 636 0014 1F20     		movs	r0, #31
 637 0016 0146     		mov	r1, r0
 276:src/camtest.c ****   }
 277:src/camtest.c ****   else {
 278:src/camtest.c ****     os_disp_putc(K_PopCursor);
ARM GAS  C:\Users\AHMED~1.ELE\AppData\Local\Temp\cc594ylT.s 			page 18


 279:src/camtest.c ****   }
 280:src/camtest.c **** }
 638              		.loc 1 280 0
 639 0018 BDE80840 		pop	{r3, lr}
 640              		.cfi_restore 14
 641              		.cfi_restore 3
 642              		.cfi_def_cfa_offset 0
 275:src/camtest.c ****   }
 643              		.loc 1 275 0
 644 001c FFF7FEBF 		b	sys_func1
 645              	.LVL99:
 646              		.cfi_endproc
 647              	.LFE10:
 648              		.size	LcdOnLayerEnable.part.0, .-LcdOnLayerEnable.part.0
 649              		.section	.text.LcdOnLayerShow.constprop.1,"ax",%progbits
 650              		.align	1
 651              		.thumb
 652              		.thumb_func
 653              		.type	LcdOnLayerShow.constprop.1, %function
 654              	LcdOnLayerShow.constprop.1:
 655              	.LFB11:
 281:src/camtest.c **** 
 282:src/camtest.c **** //*****************************************************************************
 283:src/camtest.c **** //  Function        : LcdOnLayerShow
 284:src/camtest.c **** //  Description     : Pop Lcd buffer to Overlay
 285:src/camtest.c **** //  Input           : aId;      // overlay id
 286:src/camtest.c **** //                    aShow;    // TRUE/FALSE => show / no show
 287:src/camtest.c **** //  Return          : N/A
 288:src/camtest.c **** //  Note            : N/A
 289:src/camtest.c **** //  Globals Changed : N/A
 290:src/camtest.c **** //*****************************************************************************
 291:src/camtest.c **** static void LcdOnLayerShow(DWORD aId, BOOLEAN aShow)
 656              		.loc 1 291 0
 657              		.cfi_startproc
 658              		@ args = 0, pretend = 0, frame = 307216
 659              		@ frame_needed = 0, uses_anonymous_args = 0
 660              	.LVL100:
 661 0000 00B5     		push	{lr}
 662              		.cfi_def_cfa_offset 4
 663              		.cfi_offset 14, -4
 664 0002 ADF5962D 		sub	sp, sp, #307200
 665              		.cfi_def_cfa_offset 307204
 666 0006 85B0     		sub	sp, sp, #20
 667              		.cfi_def_cfa_offset 307224
 292:src/camtest.c **** {
 293:src/camtest.c ****   BYTE extra[OVERLAY_EXTRA_RGB_CR_KEY_HB+1];
 294:src/camtest.c ****   T_LCDBUF lcd, *pLcdBuf = NULL;
 295:src/camtest.c **** 
 296:src/camtest.c ****   if (aShow) {
 668              		.loc 1 296 0
 669 0008 C0B1     		cbz	r0, .L68
 297:src/camtest.c ****     memset(&lcd, 0, sizeof(lcd));
 670              		.loc 1 297 0
 671 000a 0021     		movs	r1, #0
 672 000c 104A     		ldr	r2, .L70
 673 000e 02A8     		add	r0, sp, #8
 674              	.LVL101:
ARM GAS  C:\Users\AHMED~1.ELE\AppData\Local\Temp\cc594ylT.s 			page 19


 675 0010 FFF7FEFF 		bl	memset
 676              	.LVL102:
 298:src/camtest.c ****     lcd.w_hwidth = 320;
 677              		.loc 1 298 0
 678 0014 4FF4A073 		mov	r3, #320
 299:src/camtest.c ****     lcd.w_vwidth = 216;
 300:src/camtest.c ****     os_disp_getg(&lcd);
 679              		.loc 1 300 0
 680 0018 1920     		movs	r0, #25
 298:src/camtest.c ****     lcd.w_hwidth = 320;
 681              		.loc 1 298 0
 682 001a ADF80C30 		strh	r3, [sp, #12]	@ movhi
 299:src/camtest.c ****     lcd.w_vwidth = 216;
 683              		.loc 1 299 0
 684 001e D823     		movs	r3, #216
 685              		.loc 1 300 0
 686 0020 02A9     		add	r1, sp, #8
 299:src/camtest.c ****     lcd.w_vwidth = 216;
 687              		.loc 1 299 0
 688 0022 ADF80E30 		strh	r3, [sp, #14]	@ movhi
 689              		.loc 1 300 0
 690 0026 FFF7FEFF 		bl	sys_func1
 691              	.LVL103:
 301:src/camtest.c **** 
 302:src/camtest.c ****     extra[OVERLAY_EXTRA_PARAM_LEN]     = OVERLAY_EXTRA_RGB_CR_KEY_HB;
 692              		.loc 1 302 0
 693 002a 0223     		movs	r3, #2
 303:src/camtest.c ****     extra[OVERLAY_EXTRA_RGB_CR_KEY_LB] = K_TRANS_COLOR & 0xff;   // Set Transparent color
 304:src/camtest.c ****     extra[OVERLAY_EXTRA_RGB_CR_KEY_HB] = (K_TRANS_COLOR >> 8) & 0xff;
 305:src/camtest.c ****     pLcdBuf = &lcd;
 694              		.loc 1 305 0
 695 002c 02A8     		add	r0, sp, #8
 302:src/camtest.c ****     extra[OVERLAY_EXTRA_RGB_CR_KEY_LB] = K_TRANS_COLOR & 0xff;   // Set Transparent color
 696              		.loc 1 302 0
 697 002e 8DF80430 		strb	r3, [sp, #4]
 303:src/camtest.c ****     extra[OVERLAY_EXTRA_RGB_CR_KEY_LB] = K_TRANS_COLOR & 0xff;   // Set Transparent color
 698              		.loc 1 303 0
 699 0032 FF23     		movs	r3, #255
 700 0034 8DF80530 		strb	r3, [sp, #5]
 304:src/camtest.c ****     pLcdBuf = &lcd;
 701              		.loc 1 304 0
 702 0038 8DF80630 		strb	r3, [sp, #6]
 703              	.LVL104:
 704              	.L68:
 306:src/camtest.c ****   }
 307:src/camtest.c **** 
 308:src/camtest.c ****   ShowLayer(pLcdBuf, aId|K_DispOverlayRGB565|K_DispOverlayCRKeyExist, extra);
 705              		.loc 1 308 0
 706 003c 41F20111 		movw	r1, #4353
 707 0040 01AA     		add	r2, sp, #4
 708 0042 FFF7FEFF 		bl	ShowLayer
 709              	.LVL105:
 309:src/camtest.c **** }
 710              		.loc 1 309 0
 711 0046 0DF5962D 		add	sp, sp, #307200
 712 004a 05B0     		add	sp, sp, #20
 713              		.cfi_def_cfa_offset 4
ARM GAS  C:\Users\AHMED~1.ELE\AppData\Local\Temp\cc594ylT.s 			page 20


 714              		@ sp needed
 715 004c 5DF804FB 		ldr	pc, [sp], #4
 716              	.L71:
 717              		.align	2
 718              	.L70:
 719 0050 08B00400 		.word	307208
 720              		.cfi_endproc
 721              	.LFE11:
 722              		.size	LcdOnLayerShow.constprop.1, .-LcdOnLayerShow.constprop.1
 723              		.section	.text.Y800toLcdLeft,"ax",%progbits
 724              		.align	1
 725              		.global	Y800toLcdLeft
 726              		.thumb
 727              		.thumb_func
 728              		.type	Y800toLcdLeft, %function
 729              	Y800toLcdLeft:
 730              	.LFB6:
 310:src/camtest.c **** 
 311:src/camtest.c **** BOOLEAN Y800toLcdLeft(T_LCDBUF *aLcd, T_IMAGE_FRAME *aCfg, BYTE *aY800, DWORD aOffset) 
 312:src/camtest.c **** {
 731              		.loc 1 312 0
 732              		.cfi_startproc
 733              		@ args = 0, pretend = 0, frame = 0
 734              		@ frame_needed = 0, uses_anonymous_args = 0
 735              	.LVL106:
 736 0000 F0B5     		push	{r4, r5, r6, r7, lr}
 737              		.cfi_def_cfa_offset 20
 738              		.cfi_offset 4, -20
 739              		.cfi_offset 5, -16
 740              		.cfi_offset 6, -12
 741              		.cfi_offset 7, -8
 742              		.cfi_offset 14, -4
 313:src/camtest.c ****   int  x, y, xoff, yoff;
 314:src/camtest.c ****   WORD *ptr = aLcd->data;
 315:src/camtest.c **** 
 316:src/camtest.c ****   aLcd->w_hwidth = aLcd->w_hwidth > aCfg->width ? aCfg->width : aLcd->w_hwidth;
 743              		.loc 1 316 0
 744 0002 D1F804E0 		ldr	lr, [r1, #4]
 745 0006 8488     		ldrh	r4, [r0, #4]
 317:src/camtest.c ****   aLcd->w_vwidth = aLcd->w_vwidth > aCfg->height ? aCfg->height : aLcd->w_vwidth;
 746              		.loc 1 317 0
 747 0008 8968     		ldr	r1, [r1, #8]
 748              	.LVL107:
 749 000a C588     		ldrh	r5, [r0, #6]
 316:src/camtest.c ****   aLcd->w_vwidth = aLcd->w_vwidth > aCfg->height ? aCfg->height : aLcd->w_vwidth;
 750              		.loc 1 316 0
 751 000c 7445     		cmp	r4, lr
 752 000e 28BF     		it	cs
 753 0010 7446     		movcs	r4, lr
 754              		.loc 1 317 0
 755 0012 A942     		cmp	r1, r5
 756 0014 28BF     		it	cs
 757 0016 2946     		movcs	r1, r5
 314:src/camtest.c **** 
 758              		.loc 1 314 0
 759 0018 00F1080C 		add	ip, r0, #8
 760              	.LVL108:
ARM GAS  C:\Users\AHMED~1.ELE\AppData\Local\Temp\cc594ylT.s 			page 21


 761              		.loc 1 317 0
 762 001c C180     		strh	r1, [r0, #6]	@ movhi
 763              	.LVL109:
 318:src/camtest.c ****   xoff = yoff = 0;
 319:src/camtest.c ****   xoff = aOffset;
 320:src/camtest.c ****   for (x = aLcd->w_hwidth - 1; x >= 0; x--) {
 764              		.loc 1 320 0
 765 001e 611E     		subs	r1, r4, #1
 766              	.LVL110:
 316:src/camtest.c ****   aLcd->w_vwidth = aLcd->w_vwidth > aCfg->height ? aCfg->height : aLcd->w_vwidth;
 767              		.loc 1 316 0
 768 0020 8480     		strh	r4, [r0, #4]	@ movhi
 769              	.L73:
 770              		.loc 1 320 0 discriminator 1
 771 0022 4C1C     		adds	r4, r1, #1
 772 0024 17D0     		beq	.L75
 773 0026 0026     		movs	r6, #0
 774 0028 3746     		mov	r7, r6
 775              	.LVL111:
 776              	.L76:
 321:src/camtest.c ****     for (y = 0; y < aLcd->w_vwidth; y++) {
 777              		.loc 1 321 0 discriminator 1
 778 002a C488     		ldrh	r4, [r0, #6]
 779 002c 7644     		add	r6, r6, lr
 780 002e A742     		cmp	r7, r4
 781 0030 0FDA     		bge	.L77
 782 0032 CEEB0304 		rsb	r4, lr, r3
 783 0036 0C44     		add	r4, r4, r1
 784 0038 1444     		add	r4, r4, r2
 785              		.loc 1 321 0 is_stmt 0 discriminator 3
 786 003a 0137     		adds	r7, r7, #1
 787              	.LVL112:
 788              	.LBB6:
 322:src/camtest.c ****       WORD grey = (aY800[(y+yoff)*aCfg->width+x+xoff]/8)&0x1F;
 789              		.loc 1 322 0 is_stmt 1 discriminator 3
 790 003c A45D     		ldrb	r4, [r4, r6]	@ zero_extendqisi2
 791 003e E408     		lsrs	r4, r4, #3
 792              	.LVL113:
 323:src/camtest.c ****       *ptr++ = grey << 11 | grey << 6 | grey | 0x20;
 793              		.loc 1 323 0 discriminator 3
 794 0040 A501     		lsls	r5, r4, #6
 795 0042 45EAC425 		orr	r5, r5, r4, lsl #11
 796 0046 44F02004 		orr	r4, r4, #32
 797              	.LVL114:
 798 004a 2C43     		orrs	r4, r4, r5
 799 004c 2CF8024B 		strh	r4, [ip], #2	@ movhi
 800              	.LVL115:
 801 0050 EBE7     		b	.L76
 802              	.LVL116:
 803              	.L77:
 804              	.LBE6:
 320:src/camtest.c ****     for (y = 0; y < aLcd->w_vwidth; y++) {
 805              		.loc 1 320 0 discriminator 2
 806 0052 0139     		subs	r1, r1, #1
 807              	.LVL117:
 808 0054 E5E7     		b	.L73
 809              	.LVL118:
ARM GAS  C:\Users\AHMED~1.ELE\AppData\Local\Temp\cc594ylT.s 			page 22


 810              	.L75:
 324:src/camtest.c ****     }
 325:src/camtest.c ****   }
 326:src/camtest.c ****   
 327:src/camtest.c ****   return TRUE;
 328:src/camtest.c **** }
 811              		.loc 1 328 0
 812 0056 0120     		movs	r0, #1
 813              	.LVL119:
 814 0058 F0BD     		pop	{r4, r5, r6, r7, pc}
 815              		.cfi_endproc
 816              	.LFE6:
 817              		.size	Y800toLcdLeft, .-Y800toLcdLeft
 818              		.section	.text.ShowBarcode,"ax",%progbits
 819              		.align	1
 820              		.global	ShowBarcode
 821              		.thumb
 822              		.thumb_func
 823              		.type	ShowBarcode, %function
 824              	ShowBarcode:
 825              	.LFB7:
 329:src/camtest.c **** 
 330:src/camtest.c **** void ShowBarcode(BYTE *aDat, T_IMAGE_FRAME *aFrameCfg)
 331:src/camtest.c **** {
 826              		.loc 1 331 0
 827              		.cfi_startproc
 828              		@ args = 0, pretend = 0, frame = 0
 829              		@ frame_needed = 0, uses_anonymous_args = 0
 830              	.LVL120:
 831 0000 2DE9F843 		push	{r3, r4, r5, r6, r7, r8, r9, lr}
 832              		.cfi_def_cfa_offset 32
 833              		.cfi_offset 3, -32
 834              		.cfi_offset 4, -28
 835              		.cfi_offset 5, -24
 836              		.cfi_offset 6, -20
 837              		.cfi_offset 7, -16
 838              		.cfi_offset 8, -12
 839              		.cfi_offset 9, -8
 840              		.cfi_offset 14, -4
 332:src/camtest.c ****   T_LCDBUF *plcd = (T_LCDBUF *) MallocMW(sizeof(T_LCDBUF));
 841              		.loc 1 332 0
 842 0004 234D     		ldr	r5, .L79
 331:src/camtest.c ****   T_LCDBUF *plcd = (T_LCDBUF *) MallocMW(sizeof(T_LCDBUF));
 843              		.loc 1 331 0
 844 0006 0746     		mov	r7, r0
 845 0008 8846     		mov	r8, r1
 846              		.loc 1 332 0
 847 000a 9220     		movs	r0, #146
 848              	.LVL121:
 849 000c 2946     		mov	r1, r5
 850              	.LVL122:
 851 000e FFF7FEFF 		bl	sys_func1
 852              	.LVL123:
 333:src/camtest.c ****   memset(plcd, 0, sizeof(T_LCDBUF));
 853              		.loc 1 333 0
 854 0012 2A46     		mov	r2, r5
 855 0014 0021     		movs	r1, #0
ARM GAS  C:\Users\AHMED~1.ELE\AppData\Local\Temp\cc594ylT.s 			page 23


 334:src/camtest.c ****   plcd->w_hwidth = 320;
 856              		.loc 1 334 0
 857 0016 4FF4A076 		mov	r6, #320
 332:src/camtest.c ****   memset(plcd, 0, sizeof(T_LCDBUF));
 858              		.loc 1 332 0
 859 001a 0446     		mov	r4, r0
 860              	.LVL124:
 333:src/camtest.c ****   memset(plcd, 0, sizeof(T_LCDBUF));
 861              		.loc 1 333 0
 862 001c FFF7FEFF 		bl	memset
 863              	.LVL125:
 335:src/camtest.c ****   plcd->w_vwidth = 12;
 336:src/camtest.c ****   plcd->w_hstart = 0;
 864              		.loc 1 336 0
 865 0020 0025     		movs	r5, #0
 335:src/camtest.c ****   plcd->w_vwidth = 12;
 866              		.loc 1 335 0
 867 0022 4FF00C09 		mov	r9, #12
 337:src/camtest.c ****   plcd->w_vstart = 160;
 868              		.loc 1 337 0
 869 0026 A023     		movs	r3, #160
 338:src/camtest.c ****   Y800toLcdLeft(plcd, aFrameCfg, aDat, 0);
 870              		.loc 1 338 0
 871 0028 3A46     		mov	r2, r7
 337:src/camtest.c ****   plcd->w_vstart = 160;
 872              		.loc 1 337 0
 873 002a 6380     		strh	r3, [r4, #2]	@ movhi
 874              		.loc 1 338 0
 875 002c 4146     		mov	r1, r8
 876 002e 2B46     		mov	r3, r5
 334:src/camtest.c ****   plcd->w_vwidth = 12;
 877              		.loc 1 334 0
 878 0030 A680     		strh	r6, [r4, #4]	@ movhi
 335:src/camtest.c ****   plcd->w_hstart = 0;
 879              		.loc 1 335 0
 880 0032 A4F80690 		strh	r9, [r4, #6]	@ movhi
 336:src/camtest.c ****   plcd->w_vstart = 160;
 881              		.loc 1 336 0
 882 0036 2580     		strh	r5, [r4]	@ movhi
 883              		.loc 1 338 0
 884 0038 2046     		mov	r0, r4
 885 003a FFF7FEFF 		bl	Y800toLcdLeft
 886              	.LVL126:
 339:src/camtest.c ****   os_disp_putg(plcd);
 887              		.loc 1 339 0
 888 003e 2146     		mov	r1, r4
 889 0040 1A20     		movs	r0, #26
 890 0042 FFF7FEFF 		bl	sys_func1
 891              	.LVL127:
 340:src/camtest.c **** 
 341:src/camtest.c ****   plcd->w_hwidth = 320;
 342:src/camtest.c ****   plcd->w_vwidth = 12;
 343:src/camtest.c ****   plcd->w_hstart = 0;
 344:src/camtest.c ****   plcd->w_vstart = 180;
 892              		.loc 1 344 0
 893 0046 B423     		movs	r3, #180
 345:src/camtest.c ****   Y800toLcdLeft(plcd, aFrameCfg, aDat, 320);
ARM GAS  C:\Users\AHMED~1.ELE\AppData\Local\Temp\cc594ylT.s 			page 24


 894              		.loc 1 345 0
 895 0048 3A46     		mov	r2, r7
 344:src/camtest.c ****   Y800toLcdLeft(plcd, aFrameCfg, aDat, 320);
 896              		.loc 1 344 0
 897 004a 6380     		strh	r3, [r4, #2]	@ movhi
 898              		.loc 1 345 0
 899 004c 4146     		mov	r1, r8
 900 004e 3346     		mov	r3, r6
 341:src/camtest.c ****   plcd->w_vwidth = 12;
 901              		.loc 1 341 0
 902 0050 A680     		strh	r6, [r4, #4]	@ movhi
 342:src/camtest.c ****   plcd->w_hstart = 0;
 903              		.loc 1 342 0
 904 0052 A4F80690 		strh	r9, [r4, #6]	@ movhi
 343:src/camtest.c ****   plcd->w_vstart = 180;
 905              		.loc 1 343 0
 906 0056 2580     		strh	r5, [r4]	@ movhi
 907              		.loc 1 345 0
 908 0058 2046     		mov	r0, r4
 909 005a FFF7FEFF 		bl	Y800toLcdLeft
 910              	.LVL128:
 346:src/camtest.c ****   os_disp_putg(plcd);
 911              		.loc 1 346 0
 912 005e 2146     		mov	r1, r4
 913 0060 1A20     		movs	r0, #26
 914 0062 FFF7FEFF 		bl	sys_func1
 915              	.LVL129:
 347:src/camtest.c **** 
 348:src/camtest.c ****   plcd->w_hwidth = 320;
 349:src/camtest.c ****   plcd->w_vwidth = 12;
 350:src/camtest.c ****   plcd->w_hstart = 0;
 351:src/camtest.c ****   plcd->w_vstart = 200;
 916              		.loc 1 351 0
 917 0066 C823     		movs	r3, #200
 352:src/camtest.c ****   Y800toLcdLeft(plcd, aFrameCfg, aDat, 640);
 918              		.loc 1 352 0
 919 0068 4146     		mov	r1, r8
 351:src/camtest.c ****   Y800toLcdLeft(plcd, aFrameCfg, aDat, 640);
 920              		.loc 1 351 0
 921 006a 6380     		strh	r3, [r4, #2]	@ movhi
 922              		.loc 1 352 0
 923 006c 3A46     		mov	r2, r7
 924 006e 4FF42073 		mov	r3, #640
 348:src/camtest.c ****   plcd->w_vwidth = 12;
 925              		.loc 1 348 0
 926 0072 A680     		strh	r6, [r4, #4]	@ movhi
 349:src/camtest.c ****   plcd->w_hstart = 0;
 927              		.loc 1 349 0
 928 0074 A4F80690 		strh	r9, [r4, #6]	@ movhi
 350:src/camtest.c ****   plcd->w_vstart = 200;
 929              		.loc 1 350 0
 930 0078 2580     		strh	r5, [r4]	@ movhi
 931              		.loc 1 352 0
 932 007a 2046     		mov	r0, r4
 933 007c FFF7FEFF 		bl	Y800toLcdLeft
 934              	.LVL130:
 353:src/camtest.c ****   os_disp_putg(plcd);
ARM GAS  C:\Users\AHMED~1.ELE\AppData\Local\Temp\cc594ylT.s 			page 25


 935              		.loc 1 353 0
 936 0080 2146     		mov	r1, r4
 937 0082 1A20     		movs	r0, #26
 938 0084 FFF7FEFF 		bl	sys_func1
 939              	.LVL131:
 354:src/camtest.c **** 
 355:src/camtest.c ****   FreeMW(plcd);
 940              		.loc 1 355 0
 941 0088 2146     		mov	r1, r4
 942 008a 9420     		movs	r0, #148
 356:src/camtest.c **** }
 943              		.loc 1 356 0
 944 008c BDE8F843 		pop	{r3, r4, r5, r6, r7, r8, r9, lr}
 945              		.cfi_restore 14
 946              		.cfi_restore 9
 947              		.cfi_restore 8
 948              		.cfi_restore 7
 949              		.cfi_restore 6
 950              		.cfi_restore 5
 951              		.cfi_restore 4
 952              		.cfi_restore 3
 953              		.cfi_def_cfa_offset 0
 954              	.LVL132:
 355:src/camtest.c **** }
 955              		.loc 1 355 0
 956 0090 FFF7FEBF 		b	sys_func1
 957              	.LVL133:
 958              	.L80:
 959              		.align	2
 960              	.L79:
 961 0094 08B00400 		.word	307208
 962              		.cfi_endproc
 963              	.LFE7:
 964              		.size	ShowBarcode, .-ShowBarcode
 965              		.section	.text.CamTest2D,"ax",%progbits
 966              		.align	1
 967              		.global	CamTest2D
 968              		.thumb
 969              		.thumb_func
 970              		.type	CamTest2D, %function
 971              	CamTest2D:
 972              	.LFB8:
 357:src/camtest.c **** //*****************************************************************************
 358:src/camtest.c **** //  Function        : CamTest
 359:src/camtest.c **** //  Description     : Test Camera.
 360:src/camtest.c **** //  Input           : N/A
 361:src/camtest.c **** //  Return          : N/A
 362:src/camtest.c **** //  Note            : N/A
 363:src/camtest.c **** //  Globals Changed : N/A
 364:src/camtest.c **** //*****************************************************************************
 365:src/camtest.c **** enum {
 366:src/camtest.c ****   MODE_W960_D			 ,             // 960x720 with preview & decode
 367:src/camtest.c ****   MODE_W640_D			 ,             // 640x480 with preview & decode
 368:src/camtest.c ****   MODE_W320_D			 ,             // 320x240 with preview & decode
 369:src/camtest.c ****   MODE_W320_SD			 ,             // 320x240 with preview & decode small
 370:src/camtest.c ****   MODE_F960_D			 ,             // 960x720 with FullScreen & decode
 371:src/camtest.c ****   MODE_F640_D			 ,             // 640x480 with FullScreen & decode
ARM GAS  C:\Users\AHMED~1.ELE\AppData\Local\Temp\cc594ylT.s 			page 26


 372:src/camtest.c ****   MODE_F320_D			 ,             // 320x240 with FullScreen & decode
 373:src/camtest.c ****   MODE_MAX               ,
 374:src/camtest.c **** };
 375:src/camtest.c **** void CamTest2D(void)
 376:src/camtest.c **** {
 973              		.loc 1 376 0
 974              		.cfi_startproc
 975              		@ args = 0, pretend = 0, frame = 560
 976              		@ frame_needed = 0, uses_anonymous_args = 0
 977              	.LVL134:
 978 0000 2DE9F04F 		push	{r4, r5, r6, r7, r8, r9, r10, fp, lr}
 979              		.cfi_def_cfa_offset 36
 980              		.cfi_offset 4, -36
 981              		.cfi_offset 5, -32
 982              		.cfi_offset 6, -28
 983              		.cfi_offset 7, -24
 984              		.cfi_offset 8, -20
 985              		.cfi_offset 9, -16
 986              		.cfi_offset 10, -12
 987              		.cfi_offset 11, -8
 988              		.cfi_offset 14, -4
 377:src/camtest.c ****   T_IMAGE_FRAME framecfg; // output structure for driver to return image frame properties
 378:src/camtest.c ****   T_LCDG previewlcd;
 379:src/camtest.c **** 
 380:src/camtest.c ****   T_LCDG *preview=NULL;
 381:src/camtest.c ****   BYTE *pY800Dat = NULL;
 382:src/camtest.c ****   T_BAR_DAT  *pbar_dat  = NULL;
 383:src/camtest.c ****   T_BAROUT_DAT *pbar_out = NULL;
 384:src/camtest.c ****   #define DECODEDSTR_SIZE 256
 385:src/camtest.c ****   #define SYMTYPE_SIZE    128
 386:src/camtest.c ****   char *pdecoded_str = NULL;
 387:src/camtest.c ****   char *psym_type    = NULL;
 388:src/camtest.c **** 
 389:src/camtest.c ****   DWORD keyin, mode, curr_mode, last_mode, i;
 390:src/camtest.c ****   BYTE  dispbuf[512];
 391:src/camtest.c ****   BOOLEAN img_led = 0;
 392:src/camtest.c ****   DWORD oned_height = 0;
 393:src/camtest.c ****   //DWORD cap_start, cap_tick, dec_start, dec_tick;
 394:src/camtest.c ****   int zb, zx, twod, ret;
 395:src/camtest.c **** 
 396:src/camtest.c ****   if (!IsAppIdExistMW(BARDLL_ID)) {
 989              		.loc 1 396 0
 990 0004 8D20     		movs	r0, #141
 376:src/camtest.c ****   T_IMAGE_FRAME framecfg; // output structure for driver to return image frame properties
 991              		.loc 1 376 0
 992 0006 ADF50F7D 		sub	sp, sp, #572
 993              		.cfi_def_cfa_offset 608
 994              		.loc 1 396 0
 995 000a 0D21     		movs	r1, #13
 996 000c FFF7FEFF 		bl	sys_func1
 997              	.LVL135:
 998 0010 0546     		mov	r5, r0
 999 0012 18BB     		cbnz	r0, .L82
 1000              	.LVL136:
 1001              	.LBB25:
 397:src/camtest.c ****     DispLineMW("BARDLL NOT LOADED!", MW_LINE5, MW_CLRDISP|MW_CENTER|MW_BIGFONT);
 1002              		.loc 1 397 0
ARM GAS  C:\Users\AHMED~1.ELE\AppData\Local\Temp\cc594ylT.s 			page 27


 1003 0014 9220     		movs	r0, #146
 1004 0016 1321     		movs	r1, #19
 1005 0018 FFF7FEFF 		bl	sys_func1
 1006              	.LVL137:
 1007 001c 0446     		mov	r4, r0
 1008 001e 90B1     		cbz	r0, .L83
 1009              		.loc 1 397 0 is_stmt 0 discriminator 1
 1010 0020 C649     		ldr	r1, .L205
 1011 0022 1222     		movs	r2, #18
 1012 0024 FFF7FEFF 		bl	memcpy
 1013              	.LVL138:
 1014 0028 41F28203 		movw	r3, #4226
 1015 002c A574     		strb	r5, [r4, #18]
 1016 002e 2521     		movs	r1, #37
 1017 0030 0093     		str	r3, [sp]
 1018 0032 0F20     		movs	r0, #15
 1019 0034 2246     		mov	r2, r4
 1020 0036 4FF4A063 		mov	r3, #1280
 1021 003a FFF7FEFF 		bl	lib_app_call
 1022              	.LVL139:
 1023 003e 9420     		movs	r0, #148
 1024 0040 2146     		mov	r1, r4
 1025 0042 FFF7FEFF 		bl	sys_func1
 1026              	.LVL140:
 1027              	.L83:
 1028              	.LBE25:
 398:src/camtest.c ****     LongBeep();
 1029              		.loc 1 398 0 is_stmt 1
 1030 0046 FFF7FEFF 		bl	LongBeep
 1031              	.LVL141:
 399:src/camtest.c ****     APM_WaitKey(KBD_TIMEOUT, 0);
 1032              		.loc 1 399 0
 1033 004a 0023     		movs	r3, #0
 1034 004c 0321     		movs	r1, #3
 1035 004e 0093     		str	r3, [sp]
 1036 0050 42F22832 		movw	r2, #9000
 1037 0054 1020     		movs	r0, #16
 1038 0056 FFF7FEFF 		bl	lib_app_call
 1039              	.LVL142:
 1040 005a DFE2     		b	.L81
 1041              	.LVL143:
 1042              	.L82:
 400:src/camtest.c ****     return;
 401:src/camtest.c ****   }
 402:src/camtest.c **** 
 403:src/camtest.c ****   // Ready Default Preview config
 404:src/camtest.c ****   memset(&previewlcd, 0, sizeof(previewlcd));
 1043              		.loc 1 404 0
 1044 005c 0021     		movs	r1, #0
 1045 005e 0C22     		movs	r2, #12
 1046 0060 07A8     		add	r0, sp, #28
 1047 0062 FFF7FEFF 		bl	memset
 1048              	.LVL144:
 405:src/camtest.c ****   previewlcd.w_hwidth = 160; //144;  // must key the ratio
 1049              		.loc 1 405 0
 1050 0066 A023     		movs	r3, #160
 1051              	.LBB26:
ARM GAS  C:\Users\AHMED~1.ELE\AppData\Local\Temp\cc594ylT.s 			page 28


 406:src/camtest.c ****   previewlcd.w_vwidth = 120; //108;
 407:src/camtest.c ****   previewlcd.w_hstart = 0;
 408:src/camtest.c ****   previewlcd.w_vstart = 0;
 409:src/camtest.c ****   preview = &previewlcd;
 410:src/camtest.c **** 
 411:src/camtest.c ****   // Setup Current disp mode
 412:src/camtest.c ****   curr_mode = MODE_F320_D; 
 413:src/camtest.c ****   last_mode = MODE_MAX;
 414:src/camtest.c ****   mode      = SENSOR_MODE_320;
 415:src/camtest.c **** 
 416:src/camtest.c ****   DispLineMW("CamTest", MW_LINE1, MW_CLRDISP|MW_CENTER|MW_REVERSE|MW_SPFONT);
 1052              		.loc 1 416 0
 1053 0068 9220     		movs	r0, #146
 1054              	.LBE26:
 405:src/camtest.c ****   previewlcd.w_hwidth = 160; //144;  // must key the ratio
 1055              		.loc 1 405 0
 1056 006a ADF82030 		strh	r3, [sp, #32]	@ movhi
 406:src/camtest.c ****   previewlcd.w_vwidth = 120; //108;
 1057              		.loc 1 406 0
 1058 006e 7823     		movs	r3, #120
 1059              	.LBB27:
 1060              		.loc 1 416 0
 1061 0070 0821     		movs	r1, #8
 1062              	.LBE27:
 406:src/camtest.c ****   previewlcd.w_vwidth = 120; //108;
 1063              		.loc 1 406 0
 1064 0072 ADF82230 		strh	r3, [sp, #34]	@ movhi
 1065              	.LVL145:
 1066              	.LBB28:
 1067              		.loc 1 416 0
 1068 0076 FFF7FEFF 		bl	sys_func1
 1069              	.LVL146:
 1070 007a 0446     		mov	r4, r0
 1071 007c 98B1     		cbz	r0, .L85
 1072              		.loc 1 416 0 is_stmt 0 discriminator 1
 1073 007e B049     		ldr	r1, .L205+4
 1074 0080 0722     		movs	r2, #7
 1075 0082 FFF7FEFF 		bl	memcpy
 1076              	.LVL147:
 1077 0086 0023     		movs	r3, #0
 1078 0088 2521     		movs	r1, #37
 1079 008a E371     		strb	r3, [r4, #7]
 1080 008c 42F29203 		movw	r3, #8338
 1081 0090 0F20     		movs	r0, #15
 1082 0092 0093     		str	r3, [sp]
 1083 0094 2246     		mov	r2, r4
 1084 0096 4FF48073 		mov	r3, #256
 1085 009a FFF7FEFF 		bl	lib_app_call
 1086              	.LVL148:
 1087 009e 9420     		movs	r0, #148
 1088 00a0 2146     		mov	r1, r4
 1089 00a2 FFF7FEFF 		bl	sys_func1
 1090              	.LVL149:
 1091              	.L85:
 1092              	.LBE28:
 1093              	.LBB29:
 417:src/camtest.c ****   DispLineMW("Wait For CAM Ready", MW_LINE5, MW_CENTER|MW_SPFONT);
ARM GAS  C:\Users\AHMED~1.ELE\AppData\Local\Temp\cc594ylT.s 			page 29


 1094              		.loc 1 417 0 is_stmt 1
 1095 00a6 9220     		movs	r0, #146
 1096 00a8 1321     		movs	r1, #19
 1097 00aa FFF7FEFF 		bl	sys_func1
 1098              	.LVL150:
 1099 00ae 0446     		mov	r4, r0
 1100              	.LVL151:
 1101 00b0 98B1     		cbz	r0, .L86
 1102              		.loc 1 417 0 is_stmt 0 discriminator 1
 1103 00b2 A449     		ldr	r1, .L205+8
 1104 00b4 1222     		movs	r2, #18
 1105 00b6 FFF7FEFF 		bl	memcpy
 1106              	.LVL152:
 1107 00ba 0023     		movs	r3, #0
 1108 00bc 2521     		movs	r1, #37
 1109 00be A374     		strb	r3, [r4, #18]
 1110 00c0 42F20203 		movw	r3, #8194
 1111 00c4 0F20     		movs	r0, #15
 1112 00c6 0093     		str	r3, [sp]
 1113 00c8 2246     		mov	r2, r4
 1114 00ca 4FF4A063 		mov	r3, #1280
 1115 00ce FFF7FEFF 		bl	lib_app_call
 1116              	.LVL153:
 1117 00d2 9420     		movs	r0, #148
 1118 00d4 2146     		mov	r1, r4
 1119 00d6 FFF7FEFF 		bl	sys_func1
 1120              	.LVL154:
 1121              	.L86:
 1122              	.LBE29:
 1123              	.LBB30:
 1124              	.LBB31:
 1125 00da FFF7FEFF 		bl	LcdOnLayerEnable.part.0
 1126              	.LVL155:
 1127              	.LBE31:
 1128              	.LBE30:
 418:src/camtest.c **** 
 419:src/camtest.c ****   LcdOnLayerEnable(TRUE);
 420:src/camtest.c **** 
 421:src/camtest.c ****   pY800Dat = MallocMW(960*720);   // allocate max frame size; 960*720
 1129              		.loc 1 421 0 is_stmt 1
 1130 00de 9A49     		ldr	r1, .L205+12
 1131 00e0 9220     		movs	r0, #146
 1132 00e2 FFF7FEFF 		bl	sys_func1
 1133              	.LVL156:
 422:src/camtest.c ****   pbar_dat = (T_BAR_DAT  *)MallocMW(sizeof(T_BAR_DAT));
 1134              		.loc 1 422 0
 1135 00e6 0C21     		movs	r1, #12
 423:src/camtest.c ****   pbar_out = (T_BAROUT_DAT *)MallocMW(sizeof(T_BAROUT_DAT));
 424:src/camtest.c ****   pdecoded_str = (char *)MallocMW(DECODEDSTR_SIZE);
 425:src/camtest.c ****   psym_type    = (char *)MallocMW(SYMTYPE_SIZE);
 426:src/camtest.c **** 
 427:src/camtest.c ****   zb = zx = twod = keyin = 0;
 1136              		.loc 1 427 0
 1137 00e8 4FF0000A 		mov	r10, #0
 413:src/camtest.c ****   mode      = SENSOR_MODE_320;
 1138              		.loc 1 413 0
 1139 00ec 4FF00709 		mov	r9, #7
ARM GAS  C:\Users\AHMED~1.ELE\AppData\Local\Temp\cc594ylT.s 			page 30


 421:src/camtest.c ****   pbar_dat = (T_BAR_DAT  *)MallocMW(sizeof(T_BAR_DAT));
 1140              		.loc 1 421 0
 1141 00f0 8346     		mov	fp, r0
 1142              	.LVL157:
 422:src/camtest.c ****   pbar_out = (T_BAROUT_DAT *)MallocMW(sizeof(T_BAROUT_DAT));
 1143              		.loc 1 422 0
 1144 00f2 9220     		movs	r0, #146
 1145              	.LVL158:
 1146 00f4 FFF7FEFF 		bl	sys_func1
 1147              	.LVL159:
 423:src/camtest.c ****   pdecoded_str = (char *)MallocMW(DECODEDSTR_SIZE);
 1148              		.loc 1 423 0
 1149 00f8 1021     		movs	r1, #16
 412:src/camtest.c ****   last_mode = MODE_MAX;
 1150              		.loc 1 412 0
 1151 00fa 0624     		movs	r4, #6
 1152              	.LVL160:
 414:src/camtest.c **** 
 1153              		.loc 1 414 0
 1154 00fc 5746     		mov	r7, r10
 422:src/camtest.c ****   pbar_out = (T_BAROUT_DAT *)MallocMW(sizeof(T_BAROUT_DAT));
 1155              		.loc 1 422 0
 1156 00fe 0546     		mov	r5, r0
 1157              	.LVL161:
 423:src/camtest.c ****   pdecoded_str = (char *)MallocMW(DECODEDSTR_SIZE);
 1158              		.loc 1 423 0
 1159 0100 9220     		movs	r0, #146
 1160              	.LVL162:
 1161 0102 FFF7FEFF 		bl	sys_func1
 1162              	.LVL163:
 424:src/camtest.c ****   psym_type    = (char *)MallocMW(SYMTYPE_SIZE);
 1163              		.loc 1 424 0
 1164 0106 4FF48071 		mov	r1, #256
 423:src/camtest.c ****   pdecoded_str = (char *)MallocMW(DECODEDSTR_SIZE);
 1165              		.loc 1 423 0
 1166 010a 0646     		mov	r6, r0
 1167              	.LVL164:
 424:src/camtest.c ****   psym_type    = (char *)MallocMW(SYMTYPE_SIZE);
 1168              		.loc 1 424 0
 1169 010c 9220     		movs	r0, #146
 1170              	.LVL165:
 1171 010e FFF7FEFF 		bl	sys_func1
 1172              	.LVL166:
 425:src/camtest.c **** 
 1173              		.loc 1 425 0
 1174 0112 8021     		movs	r1, #128
 424:src/camtest.c ****   psym_type    = (char *)MallocMW(SYMTYPE_SIZE);
 1175              		.loc 1 424 0
 1176 0114 8046     		mov	r8, r0
 1177              	.LVL167:
 425:src/camtest.c **** 
 1178              		.loc 1 425 0
 1179 0116 9220     		movs	r0, #146
 1180              	.LVL168:
 1181 0118 FFF7FEFF 		bl	sys_func1
 1182              	.LVL169:
 1183              		.loc 1 427 0
ARM GAS  C:\Users\AHMED~1.ELE\AppData\Local\Temp\cc594ylT.s 			page 31


 1184 011c D446     		mov	ip, r10
 391:src/camtest.c ****   DWORD oned_height = 0;
 1185              		.loc 1 391 0
 1186 011e CDF810A0 		str	r10, [sp, #16]
 425:src/camtest.c **** 
 1187              		.loc 1 425 0
 1188 0122 0390     		str	r0, [sp, #12]
 1189              	.LVL170:
 1190              	.L122:
 428:src/camtest.c ****   while (keyin != MWKEY_CANCL) {
 429:src/camtest.c ****     #ifdef os_disp_bl_control
 430:src/camtest.c ****     os_disp_bl_control(256); // on now
 1191              		.loc 1 430 0
 1192 0124 2220     		movs	r0, #34
 1193 0126 4FF48071 		mov	r1, #256
 1194 012a CDF814C0 		str	ip, [sp, #20]
 1195              	.LVL171:
 1196 012e FFF7FEFF 		bl	sys_func1
 1197              	.LVL172:
 431:src/camtest.c ****     #endif
 432:src/camtest.c ****     switch (keyin) {
 1198              		.loc 1 432 0
 1199 0132 DDF814C0 		ldr	ip, [sp, #20]
 1200 0136 BCF1120F 		cmp	ip, #18
 1201 013a 03D0     		beq	.L88
 1202 013c BCF1590F 		cmp	ip, #89
 1203 0140 0AD0     		beq	.L89
 1204 0142 0DE0     		b	.L87
 1205              	.L88:
 433:src/camtest.c ****       case MWKEY_CLR:
 434:src/camtest.c ****         // toggle led on/off
 435:src/camtest.c ****         img_led = img_led == 0 ? 1 : 0;
 1206              		.loc 1 435 0
 1207 0144 049B     		ldr	r3, [sp, #16]
 436:src/camtest.c ****         os_image_sensor_led_open(img_led);
 1208              		.loc 1 436 0
 1209 0146 40F2CF10 		movw	r0, #463
 435:src/camtest.c ****         os_image_sensor_led_open(img_led);
 1210              		.loc 1 435 0
 1211 014a 83F00103 		eor	r3, r3, #1
 1212              		.loc 1 436 0
 1213 014e 1946     		mov	r1, r3
 435:src/camtest.c ****         os_image_sensor_led_open(img_led);
 1214              		.loc 1 435 0
 1215 0150 0493     		str	r3, [sp, #16]
 1216              	.LVL173:
 1217              		.loc 1 436 0
 1218 0152 FFF7FEFF 		bl	sys_func1
 1219              	.LVL174:
 437:src/camtest.c ****         break;
 1220              		.loc 1 437 0
 1221 0156 03E0     		b	.L87
 1222              	.L89:
 438:src/camtest.c ****       case MWKEY_ASTERISK:
 439:src/camtest.c ****         if (curr_mode == MODE_F320_D)
 1223              		.loc 1 439 0
 1224 0158 062C     		cmp	r4, #6
ARM GAS  C:\Users\AHMED~1.ELE\AppData\Local\Temp\cc594ylT.s 			page 32


 1225 015a 40F0AF80 		bne	.L202
 1226 015e 88E0     		b	.L204
 1227              	.L87:
 440:src/camtest.c ****           curr_mode = MODE_F640_D;
 441:src/camtest.c ****         else
 442:src/camtest.c ****           curr_mode = MODE_F320_D;
 443:src/camtest.c ****         break;
 444:src/camtest.c ****       default:
 445:src/camtest.c ****         break;
 446:src/camtest.c ****     }
 447:src/camtest.c ****     if (last_mode != curr_mode) {
 1228              		.loc 1 447 0
 1229 0160 A145     		cmp	r9, r4
 1230 0162 00F02E81 		beq	.L92
 448:src/camtest.c ****       switch (curr_mode) {
 1231              		.loc 1 448 0
 1232 0166 062C     		cmp	r4, #6
 1233 0168 00F2CB80 		bhi	.L93
 1234 016c DFE804F0 		tbb	[pc, r4]
 1235              	.L95:
 1236 0170 04       		.byte	(.L94-.L95)/2
 1237 0171 23       		.byte	(.L96-.L95)/2
 1238 0172 42       		.byte	(.L97-.L95)/2
 1239 0173 C9       		.byte	(.L93-.L95)/2
 1240 0174 61       		.byte	(.L98-.L95)/2
 1241 0175 85       		.byte	(.L99-.L95)/2
 1242 0176 A9       		.byte	(.L100-.L95)/2
 1243 0177 00       		.p2align 1
 1244              	.L94:
 1245              	.LVL175:
 1246              	.LBB32:
 449:src/camtest.c ****         case MODE_W960_D:
 450:src/camtest.c ****           mode    = SENSOR_MODE_960;
 451:src/camtest.c ****           preview = &previewlcd;
 452:src/camtest.c ****           DispLineMW("960 Decode", MW_LINE9, MW_CLRDISP|MW_CENTER|MW_SPFONT);
 1247              		.loc 1 452 0
 1248 0178 9220     		movs	r0, #146
 1249 017a 0B21     		movs	r1, #11
 1250 017c FFF7FEFF 		bl	sys_func1
 1251              	.LVL176:
 1252 0180 0746     		mov	r7, r0
 1253 0182 98B1     		cbz	r0, .L101
 1254              		.loc 1 452 0 is_stmt 0 discriminator 1
 1255 0184 7149     		ldr	r1, .L205+16
 1256 0186 0A22     		movs	r2, #10
 1257 0188 FFF7FEFF 		bl	memcpy
 1258              	.LVL177:
 1259 018c 0023     		movs	r3, #0
 1260 018e 2521     		movs	r1, #37
 1261 0190 BB72     		strb	r3, [r7, #10]
 1262 0192 42F28203 		movw	r3, #8322
 1263 0196 0F20     		movs	r0, #15
 1264 0198 0093     		str	r3, [sp]
 1265 019a 3A46     		mov	r2, r7
 1266 019c 4FF41063 		mov	r3, #2304
 1267 01a0 FFF7FEFF 		bl	lib_app_call
 1268              	.LVL178:
ARM GAS  C:\Users\AHMED~1.ELE\AppData\Local\Temp\cc594ylT.s 			page 33


 1269 01a4 9420     		movs	r0, #148
 1270 01a6 3946     		mov	r1, r7
 1271 01a8 FFF7FEFF 		bl	sys_func1
 1272              	.LVL179:
 1273              	.L101:
 1274              	.LBE32:
 453:src/camtest.c ****           LcdOnLayerShow(K_DispOverlay2, FALSE);   // disable layer 2
 1275              		.loc 1 453 0 is_stmt 1
 1276 01ac 0020     		movs	r0, #0
 1277 01ae FFF7FEFF 		bl	LcdOnLayerShow.constprop.1
 1278              	.LVL180:
 450:src/camtest.c ****           preview = &previewlcd;
 1279              		.loc 1 450 0
 1280 01b2 0227     		movs	r7, #2
 1281              	.LVL181:
 454:src/camtest.c ****           break;
 1282              		.loc 1 454 0
 1283 01b4 A5E0     		b	.L93
 1284              	.LVL182:
 1285              	.L96:
 1286              	.LBB33:
 455:src/camtest.c ****         case MODE_W640_D:
 456:src/camtest.c ****           mode    = SENSOR_MODE_640;
 457:src/camtest.c ****           preview = &previewlcd;
 458:src/camtest.c ****           DispLineMW("640 Decode", MW_LINE9, MW_CLRDISP|MW_CENTER|MW_SPFONT);
 1287              		.loc 1 458 0
 1288 01b6 9220     		movs	r0, #146
 1289 01b8 0B21     		movs	r1, #11
 1290 01ba FFF7FEFF 		bl	sys_func1
 1291              	.LVL183:
 1292 01be 0746     		mov	r7, r0
 1293 01c0 98B1     		cbz	r0, .L102
 1294              		.loc 1 458 0 is_stmt 0 discriminator 1
 1295 01c2 6349     		ldr	r1, .L205+20
 1296 01c4 0A22     		movs	r2, #10
 1297 01c6 FFF7FEFF 		bl	memcpy
 1298              	.LVL184:
 1299 01ca 0023     		movs	r3, #0
 1300 01cc 2521     		movs	r1, #37
 1301 01ce BB72     		strb	r3, [r7, #10]
 1302 01d0 42F28203 		movw	r3, #8322
 1303 01d4 0F20     		movs	r0, #15
 1304 01d6 0093     		str	r3, [sp]
 1305 01d8 3A46     		mov	r2, r7
 1306 01da 4FF41063 		mov	r3, #2304
 1307 01de FFF7FEFF 		bl	lib_app_call
 1308              	.LVL185:
 1309 01e2 9420     		movs	r0, #148
 1310 01e4 3946     		mov	r1, r7
 1311 01e6 FFF7FEFF 		bl	sys_func1
 1312              	.LVL186:
 1313              	.L102:
 1314              	.LBE33:
 459:src/camtest.c ****           LcdOnLayerShow(K_DispOverlay2, FALSE);   // disable layer 2
 1315              		.loc 1 459 0 is_stmt 1
 1316 01ea 0020     		movs	r0, #0
 1317 01ec FFF7FEFF 		bl	LcdOnLayerShow.constprop.1
ARM GAS  C:\Users\AHMED~1.ELE\AppData\Local\Temp\cc594ylT.s 			page 34


 1318              	.LVL187:
 456:src/camtest.c ****           preview = &previewlcd;
 1319              		.loc 1 456 0
 1320 01f0 0127     		movs	r7, #1
 1321              	.LVL188:
 460:src/camtest.c ****           break;
 1322              		.loc 1 460 0
 1323 01f2 86E0     		b	.L93
 1324              	.LVL189:
 1325              	.L97:
 1326              	.LBB34:
 461:src/camtest.c ****         case MODE_W320_D:
 462:src/camtest.c ****           mode    = SENSOR_MODE_320;
 463:src/camtest.c ****           preview = &previewlcd;
 464:src/camtest.c ****           DispLineMW("320 Decode", MW_LINE9, MW_CLRDISP|MW_CENTER|MW_SPFONT);
 1327              		.loc 1 464 0
 1328 01f4 9220     		movs	r0, #146
 1329 01f6 0B21     		movs	r1, #11
 1330 01f8 FFF7FEFF 		bl	sys_func1
 1331              	.LVL190:
 1332 01fc 0746     		mov	r7, r0
 1333 01fe 98B1     		cbz	r0, .L103
 1334              		.loc 1 464 0 is_stmt 0 discriminator 1
 1335 0200 5449     		ldr	r1, .L205+24
 1336 0202 0A22     		movs	r2, #10
 1337 0204 FFF7FEFF 		bl	memcpy
 1338              	.LVL191:
 1339 0208 0023     		movs	r3, #0
 1340 020a 2521     		movs	r1, #37
 1341 020c BB72     		strb	r3, [r7, #10]
 1342 020e 42F28203 		movw	r3, #8322
 1343 0212 0F20     		movs	r0, #15
 1344 0214 0093     		str	r3, [sp]
 1345 0216 3A46     		mov	r2, r7
 1346 0218 4FF41063 		mov	r3, #2304
 1347 021c FFF7FEFF 		bl	lib_app_call
 1348              	.LVL192:
 1349 0220 9420     		movs	r0, #148
 1350 0222 3946     		mov	r1, r7
 1351 0224 FFF7FEFF 		bl	sys_func1
 1352              	.LVL193:
 1353              	.L103:
 1354              	.LBE34:
 465:src/camtest.c ****           LcdOnLayerShow(K_DispOverlay2, FALSE);   // disable layer 2
 1355              		.loc 1 465 0 is_stmt 1
 1356 0228 0020     		movs	r0, #0
 1357 022a FFF7FEFF 		bl	LcdOnLayerShow.constprop.1
 1358              	.LVL194:
 462:src/camtest.c ****           preview = &previewlcd;
 1359              		.loc 1 462 0
 1360 022e 0027     		movs	r7, #0
 1361              	.LVL195:
 466:src/camtest.c ****           break;
 1362              		.loc 1 466 0
 1363 0230 67E0     		b	.L93
 1364              	.LVL196:
 1365              	.L98:
ARM GAS  C:\Users\AHMED~1.ELE\AppData\Local\Temp\cc594ylT.s 			page 35


 1366              	.LBB35:
 467:src/camtest.c ****         case MODE_F960_D:
 468:src/camtest.c ****           mode    = SENSOR_MODE_FULL_SCREEN|SENSOR_MODE_960;
 469:src/camtest.c ****           preview = &previewlcd;
 470:src/camtest.c ****           DispLineMW("960 Decode", MW_LINE9, MW_CLRDISP|MW_CENTER|MW_SPFONT);
 1367              		.loc 1 470 0
 1368 0232 9220     		movs	r0, #146
 1369 0234 0B21     		movs	r1, #11
 1370 0236 FFF7FEFF 		bl	sys_func1
 1371              	.LVL197:
 1372 023a 0746     		mov	r7, r0
 1373 023c 98B1     		cbz	r0, .L104
 1374              		.loc 1 470 0 is_stmt 0 discriminator 1
 1375 023e 4349     		ldr	r1, .L205+16
 1376 0240 0A22     		movs	r2, #10
 1377 0242 FFF7FEFF 		bl	memcpy
 1378              	.LVL198:
 1379 0246 0023     		movs	r3, #0
 1380 0248 2521     		movs	r1, #37
 1381 024a BB72     		strb	r3, [r7, #10]
 1382 024c 42F28203 		movw	r3, #8322
 1383 0250 0F20     		movs	r0, #15
 1384 0252 0093     		str	r3, [sp]
 1385 0254 3A46     		mov	r2, r7
 1386 0256 4FF41063 		mov	r3, #2304
 1387 025a FFF7FEFF 		bl	lib_app_call
 1388              	.LVL199:
 1389 025e 9420     		movs	r0, #148
 1390 0260 3946     		mov	r1, r7
 1391 0262 FFF7FEFF 		bl	sys_func1
 1392              	.LVL200:
 1393              	.L104:
 1394              	.LBE35:
 471:src/camtest.c ****           LcdOnLayerShow(K_DispOverlay2, TRUE);
 1395              		.loc 1 471 0 is_stmt 1
 1396 0266 0120     		movs	r0, #1
 1397 0268 FFF7FEFF 		bl	LcdOnLayerShow.constprop.1
 1398              	.LVL201:
 468:src/camtest.c ****           preview = &previewlcd;
 1399              		.loc 1 468 0
 1400 026c 48F20207 		movw	r7, #32770
 1401              	.LVL202:
 472:src/camtest.c ****           break;
 1402              		.loc 1 472 0
 1403 0270 47E0     		b	.L93
 1404              	.LVL203:
 1405              	.L204:
 447:src/camtest.c ****       switch (curr_mode) {
 1406              		.loc 1 447 0
 1407 0272 B9F1050F 		cmp	r9, #5
 1408 0276 00F0A480 		beq	.L92
 1409              	.LVL204:
 1410              	.L99:
 1411              	.LBB36:
 473:src/camtest.c ****         case MODE_F640_D:
 474:src/camtest.c ****           mode    = SENSOR_MODE_FULL_SCREEN|SENSOR_MODE_640;
 475:src/camtest.c ****           preview = &previewlcd;
ARM GAS  C:\Users\AHMED~1.ELE\AppData\Local\Temp\cc594ylT.s 			page 36


 476:src/camtest.c ****           DispLineMW("640 Decode", MW_LINE9, MW_CLRDISP|MW_CENTER|MW_SPFONT);
 1412              		.loc 1 476 0
 1413 027a 9220     		movs	r0, #146
 1414 027c 0B21     		movs	r1, #11
 1415 027e FFF7FEFF 		bl	sys_func1
 1416              	.LVL205:
 1417 0282 0446     		mov	r4, r0
 1418 0284 98B1     		cbz	r0, .L105
 1419              		.loc 1 476 0 is_stmt 0 discriminator 1
 1420 0286 3249     		ldr	r1, .L205+20
 1421 0288 0A22     		movs	r2, #10
 1422 028a FFF7FEFF 		bl	memcpy
 1423              	.LVL206:
 1424 028e 0023     		movs	r3, #0
 1425 0290 2521     		movs	r1, #37
 1426 0292 A372     		strb	r3, [r4, #10]
 1427 0294 42F28203 		movw	r3, #8322
 1428 0298 0F20     		movs	r0, #15
 1429 029a 0093     		str	r3, [sp]
 1430 029c 2246     		mov	r2, r4
 1431 029e 4FF41063 		mov	r3, #2304
 1432 02a2 FFF7FEFF 		bl	lib_app_call
 1433              	.LVL207:
 1434 02a6 9420     		movs	r0, #148
 1435 02a8 2146     		mov	r1, r4
 1436 02aa FFF7FEFF 		bl	sys_func1
 1437              	.LVL208:
 1438              	.L105:
 1439              	.LBE36:
 477:src/camtest.c ****           LcdOnLayerShow(K_DispOverlay2, TRUE);
 1440              		.loc 1 477 0 is_stmt 1
 1441 02ae 0120     		movs	r0, #1
 1442 02b0 FFF7FEFF 		bl	LcdOnLayerShow.constprop.1
 1443              	.LVL209:
 478:src/camtest.c ****           break;
 1444              		.loc 1 478 0
 1445 02b4 0524     		movs	r4, #5
 1446              	.LVL210:
 474:src/camtest.c ****           preview = &previewlcd;
 1447              		.loc 1 474 0
 1448 02b6 48F20107 		movw	r7, #32769
 1449              		.loc 1 478 0
 1450 02ba 22E0     		b	.L93
 1451              	.LVL211:
 1452              	.L202:
 447:src/camtest.c ****       switch (curr_mode) {
 1453              		.loc 1 447 0
 1454 02bc B9F1060F 		cmp	r9, #6
 1455 02c0 7FD0     		beq	.L92
 1456              	.LVL212:
 1457              	.L100:
 1458              	.LBB37:
 479:src/camtest.c ****         case MODE_F320_D:
 480:src/camtest.c ****           mode    = SENSOR_MODE_FULL_SCREEN|SENSOR_MODE_320;
 481:src/camtest.c ****           preview = &previewlcd;
 482:src/camtest.c ****           DispLineMW("320 Decode", MW_LINE9, MW_CLRDISP|MW_CENTER|MW_SPFONT);
 1459              		.loc 1 482 0
ARM GAS  C:\Users\AHMED~1.ELE\AppData\Local\Temp\cc594ylT.s 			page 37


 1460 02c2 9220     		movs	r0, #146
 1461 02c4 0B21     		movs	r1, #11
 1462 02c6 FFF7FEFF 		bl	sys_func1
 1463              	.LVL213:
 1464 02ca 0446     		mov	r4, r0
 1465 02cc 98B1     		cbz	r0, .L106
 1466              		.loc 1 482 0 is_stmt 0 discriminator 1
 1467 02ce 2149     		ldr	r1, .L205+24
 1468 02d0 0A22     		movs	r2, #10
 1469 02d2 FFF7FEFF 		bl	memcpy
 1470              	.LVL214:
 1471 02d6 0023     		movs	r3, #0
 1472 02d8 2521     		movs	r1, #37
 1473 02da A372     		strb	r3, [r4, #10]
 1474 02dc 42F28203 		movw	r3, #8322
 1475 02e0 0F20     		movs	r0, #15
 1476 02e2 0093     		str	r3, [sp]
 1477 02e4 2246     		mov	r2, r4
 1478 02e6 4FF41063 		mov	r3, #2304
 1479 02ea FFF7FEFF 		bl	lib_app_call
 1480              	.LVL215:
 1481 02ee 9420     		movs	r0, #148
 1482 02f0 2146     		mov	r1, r4
 1483 02f2 FFF7FEFF 		bl	sys_func1
 1484              	.LVL216:
 1485              	.L106:
 1486              	.LBE37:
 483:src/camtest.c ****           LcdOnLayerShow(K_DispOverlay2, TRUE);
 1487              		.loc 1 483 0 is_stmt 1
 1488 02f6 0120     		movs	r0, #1
 1489 02f8 FFF7FEFF 		bl	LcdOnLayerShow.constprop.1
 1490              	.LVL217:
 484:src/camtest.c ****           break;
 1491              		.loc 1 484 0
 1492 02fc 0624     		movs	r4, #6
 1493              	.LVL218:
 480:src/camtest.c ****           preview = &previewlcd;
 1494              		.loc 1 480 0
 1495 02fe 4FF40047 		mov	r7, #32768
 1496              	.LVL219:
 1497              	.L93:
 485:src/camtest.c ****       }
 486:src/camtest.c **** #ifdef os_image_sensor_set_mode
 487:src/camtest.c ****       if (gSensorOpened) {
 1498              		.loc 1 487 0
 1499 0302 154B     		ldr	r3, .L205+28
 1500 0304 93F80090 		ldrb	r9, [r3]	@ zero_extendqisi2
 1501              	.LVL220:
 1502 0308 B9F1000F 		cmp	r9, #0
 1503 030c 28D0     		beq	.L107
 488:src/camtest.c ****         if (!SensorSwMode(mode, preview, &framecfg, oned_height)) {
 1504              		.loc 1 488 0
 1505 030e 3846     		mov	r0, r7
 1506 0310 07A9     		add	r1, sp, #28
 1507              	.LVL221:
 1508 0312 0AAA     		add	r2, sp, #40
 1509 0314 0023     		movs	r3, #0
ARM GAS  C:\Users\AHMED~1.ELE\AppData\Local\Temp\cc594ylT.s 			page 38


 1510 0316 FFF7FEFF 		bl	SensorSwMode
 1511              	.LVL222:
 1512 031a 8146     		mov	r9, r0
 1513 031c 0028     		cmp	r0, #0
 1514 031e 4FD1     		bne	.L133
 1515              	.LVL223:
 1516              	.LBB38:
 489:src/camtest.c ****           DispLineMW("SenSw failed!", MW_LINE9, MW_CLREOL|MW_SPFONT);
 1517              		.loc 1 489 0
 1518 0320 9220     		movs	r0, #146
 1519 0322 0E21     		movs	r1, #14
 1520 0324 FFF7FEFF 		bl	sys_func1
 1521              	.LVL224:
 1522 0328 0446     		mov	r4, r0
 1523 032a 0028     		cmp	r0, #0
 1524 032c 3CD0     		beq	.L110
 1525              		.loc 1 489 0 is_stmt 0 discriminator 1
 1526 032e 0B49     		ldr	r1, .L205+32
 1527 0330 0D22     		movs	r2, #13
 1528 0332 FFF7FEFF 		bl	memcpy
 1529              	.LVL225:
 1530 0336 84F80D90 		strb	r9, [r4, #13]
 1531 033a 27E0     		b	.L203
 1532              	.L206:
 1533              		.align	2
 1534              	.L205:
 1535 033c 25000000 		.word	.LC2
 1536 0340 38000000 		.word	.LC3
 1537 0344 40000000 		.word	.LC4
 1538 0348 008C0A00 		.word	691200
 1539 034c 53000000 		.word	.LC5
 1540 0350 5E000000 		.word	.LC6
 1541 0354 69000000 		.word	.LC7
 1542 0358 00000000 		.word	.LANCHOR0
 1543 035c 74000000 		.word	.LC8
 1544              	.LVL226:
 1545              	.L107:
 1546              	.LBE38:
 490:src/camtest.c ****           LcdOnLayerShow(K_DispOverlay2, TRUE);
 491:src/camtest.c ****           APM_WaitKey(KBD_TIMEOUT, 0);
 492:src/camtest.c ****           break;
 493:src/camtest.c ****         }
 494:src/camtest.c ****       }
 495:src/camtest.c ****       else {
 496:src/camtest.c ****         SensorClose();
 1547              		.loc 1 496 0 is_stmt 1
 1548 0360 FFF7FEFF 		bl	SensorClose
 1549              	.LVL227:
 497:src/camtest.c ****         if (!SensorOpen(mode, preview, &framecfg, oned_height)) {
 1550              		.loc 1 497 0
 1551 0364 4B46     		mov	r3, r9
 1552 0366 3846     		mov	r0, r7
 1553 0368 07A9     		add	r1, sp, #28
 1554              	.LVL228:
 1555 036a 0AAA     		add	r2, sp, #40
 1556 036c FFF7FEFF 		bl	SensorOpen
 1557              	.LVL229:
ARM GAS  C:\Users\AHMED~1.ELE\AppData\Local\Temp\cc594ylT.s 			page 39


 1558 0370 8146     		mov	r9, r0
 1559 0372 28BB     		cbnz	r0, .L133
 1560              	.LVL230:
 1561              	.LBB39:
 498:src/camtest.c ****           DispLineMW("SenOpen failed!", MW_LINE9, MW_CLREOL|MW_SPFONT);
 1562              		.loc 1 498 0
 1563 0374 9220     		movs	r0, #146
 1564 0376 1021     		movs	r1, #16
 1565 0378 FFF7FEFF 		bl	sys_func1
 1566              	.LVL231:
 1567 037c 0446     		mov	r4, r0
 1568 037e 98B1     		cbz	r0, .L110
 1569              		.loc 1 498 0 is_stmt 0 discriminator 1
 1570 0380 A849     		ldr	r1, .L207
 1571 0382 0F22     		movs	r2, #15
 1572 0384 FFF7FEFF 		bl	memcpy
 1573              	.LVL232:
 1574 0388 84F80F90 		strb	r9, [r4, #15]
 1575              	.LVL233:
 1576              	.L203:
 1577 038c 42F22003 		movw	r3, #8224
 1578 0390 2521     		movs	r1, #37
 1579 0392 0093     		str	r3, [sp]
 1580 0394 0F20     		movs	r0, #15
 1581 0396 2246     		mov	r2, r4
 1582 0398 4FF41063 		mov	r3, #2304
 1583 039c FFF7FEFF 		bl	lib_app_call
 1584              	.LVL234:
 1585 03a0 9420     		movs	r0, #148
 1586 03a2 2146     		mov	r1, r4
 1587 03a4 FFF7FEFF 		bl	sys_func1
 1588              	.LVL235:
 1589              	.L110:
 1590              	.LBE39:
 499:src/camtest.c ****           LcdOnLayerShow(K_DispOverlay2, TRUE);
 1591              		.loc 1 499 0 is_stmt 1
 1592 03a8 0120     		movs	r0, #1
 1593 03aa FFF7FEFF 		bl	LcdOnLayerShow.constprop.1
 1594              	.LVL236:
 500:src/camtest.c ****           APM_WaitKey(KBD_TIMEOUT, 0);
 1595              		.loc 1 500 0
 1596 03ae 0023     		movs	r3, #0
 1597 03b0 0321     		movs	r1, #3
 1598 03b2 0093     		str	r3, [sp]
 1599 03b4 42F22832 		movw	r2, #9000
 1600 03b8 1020     		movs	r0, #16
 1601 03ba FFF7FEFF 		bl	lib_app_call
 1602              	.LVL237:
 501:src/camtest.c ****           break;
 1603              		.loc 1 501 0
 1604 03be DDE0     		b	.L109
 1605              	.L133:
 1606 03c0 A146     		mov	r9, r4
 1607              	.L92:
 1608              	.LVL238:
 502:src/camtest.c ****         }
 503:src/camtest.c ****       }
ARM GAS  C:\Users\AHMED~1.ELE\AppData\Local\Temp\cc594ylT.s 			page 40


 504:src/camtest.c **** #else
 505:src/camtest.c ****       SensorClose();
 506:src/camtest.c ****       if (!SensorOpen(mode, preview, &framecfg, oned_height)) {
 507:src/camtest.c ****         return;
 508:src/camtest.c ****       }
 509:src/camtest.c **** #endif
 510:src/camtest.c ****       last_mode = curr_mode;
 511:src/camtest.c ****     }
 512:src/camtest.c **** 
 513:src/camtest.c ****     // Get Frame if not preview only
 514:src/camtest.c ****     //cap_start = TickGet();
 515:src/camtest.c ****     for (i = 0; i < 2; i++) {  // retry max twice
 516:src/camtest.c ****       ret = os_image_sensor_get_frame(pY800Dat);
 1609              		.loc 1 516 0
 1610 03c2 40F2C910 		movw	r0, #457
 1611 03c6 5946     		mov	r1, fp
 1612 03c8 FFF7FEFF 		bl	sys_func1
 1613              	.LVL239:
 517:src/camtest.c ****       if (ret == -58) {  // according to KK -58 => thread not ready => delay & retry once.
 1614              		.loc 1 517 0
 1615 03cc 10F13A0F 		cmn	r0, #58
 516:src/camtest.c ****       if (ret == -58) {  // according to KK -58 => thread not ready => delay & retry once.
 1616              		.loc 1 516 0
 1617 03d0 0446     		mov	r4, r0
 1618              	.LVL240:
 1619              		.loc 1 517 0
 1620 03d2 0FD1     		bne	.L111
 518:src/camtest.c ****         Delay10ms(1);
 1621              		.loc 1 518 0
 1622 03d4 0120     		movs	r0, #1
 1623              	.LVL241:
 1624 03d6 FFF7FEFF 		bl	Delay10ms
 1625              	.LVL242:
 516:src/camtest.c ****       if (ret == -58) {  // according to KK -58 => thread not ready => delay & retry once.
 1626              		.loc 1 516 0
 1627 03da 40F2C910 		movw	r0, #457
 1628 03de 5946     		mov	r1, fp
 1629 03e0 FFF7FEFF 		bl	sys_func1
 1630              	.LVL243:
 517:src/camtest.c ****       if (ret == -58) {  // according to KK -58 => thread not ready => delay & retry once.
 1631              		.loc 1 517 0
 1632 03e4 10F13A0F 		cmn	r0, #58
 516:src/camtest.c ****       if (ret == -58) {  // according to KK -58 => thread not ready => delay & retry once.
 1633              		.loc 1 516 0
 1634 03e8 0446     		mov	r4, r0
 1635              	.LVL244:
 517:src/camtest.c ****       if (ret == -58) {  // according to KK -58 => thread not ready => delay & retry once.
 1636              		.loc 1 517 0
 1637 03ea 03D1     		bne	.L111
 1638              		.loc 1 518 0
 1639 03ec 0120     		movs	r0, #1
 1640              	.LVL245:
 1641 03ee FFF7FEFF 		bl	Delay10ms
 1642              	.LVL246:
 1643 03f2 01E0     		b	.L112
 1644              	.LVL247:
 1645              	.L111:
ARM GAS  C:\Users\AHMED~1.ELE\AppData\Local\Temp\cc594ylT.s 			page 41


 519:src/camtest.c ****         continue;
 520:src/camtest.c ****       }
 521:src/camtest.c ****       else 
 522:src/camtest.c ****         break;
 523:src/camtest.c ****     }
 524:src/camtest.c ****     if (ret < 0) {
 1646              		.loc 1 524 0
 1647 03f4 002C     		cmp	r4, #0
 1648 03f6 48DA     		bge	.L179
 1649              	.LVL248:
 1650              	.L112:
 525:src/camtest.c ****       sprintf(dispbuf, "get_frame:%d", ret);
 1651              		.loc 1 525 0
 1652 03f8 2246     		mov	r2, r4
 1653 03fa 8B49     		ldr	r1, .L207+4
 1654 03fc 0EA8     		add	r0, sp, #56
 1655 03fe FFF7FEFF 		bl	sprintf
 1656              	.LVL249:
 1657              	.LBB40:
 526:src/camtest.c ****       DispLineMW(dispbuf, MW_LINE9, MW_CLREOL|MW_SPFONT);
 1658              		.loc 1 526 0
 1659 0402 0EA8     		add	r0, sp, #56
 1660 0404 FFF7FEFF 		bl	strlen
 1661              	.LVL250:
 1662 0408 0346     		mov	r3, r0
 1663              	.LVL251:
 1664 040a 591C     		adds	r1, r3, #1
 1665 040c 9220     		movs	r0, #146
 1666              	.LVL252:
 1667 040e 0593     		str	r3, [sp, #20]
 1668              	.LVL253:
 1669 0410 FFF7FEFF 		bl	sys_func1
 1670              	.LVL254:
 1671 0414 0446     		mov	r4, r0
 1672              	.LVL255:
 1673 0416 A8B1     		cbz	r0, .L114
 1674              		.loc 1 526 0 is_stmt 0 discriminator 1
 1675 0418 059B     		ldr	r3, [sp, #20]
 1676 041a 0EA9     		add	r1, sp, #56
 1677 041c 1A46     		mov	r2, r3
 1678 041e FFF7FEFF 		bl	memcpy
 1679              	.LVL256:
 1680 0422 059B     		ldr	r3, [sp, #20]
 1681 0424 0022     		movs	r2, #0
 1682 0426 2521     		movs	r1, #37
 1683 0428 E254     		strb	r2, [r4, r3]
 1684 042a 42F22003 		movw	r3, #8224
 1685 042e 0F20     		movs	r0, #15
 1686 0430 0093     		str	r3, [sp]
 1687 0432 2246     		mov	r2, r4
 1688 0434 4FF41063 		mov	r3, #2304
 1689 0438 FFF7FEFF 		bl	lib_app_call
 1690              	.LVL257:
 1691 043c 9420     		movs	r0, #148
 1692 043e 2146     		mov	r1, r4
 1693 0440 FFF7FEFF 		bl	sys_func1
 1694              	.LVL258:
ARM GAS  C:\Users\AHMED~1.ELE\AppData\Local\Temp\cc594ylT.s 			page 42


 1695              	.L114:
 1696              	.LBE40:
 527:src/camtest.c ****       if (curr_mode > MODE_W320_SD) {
 528:src/camtest.c ****         LcdOnLayerShow(K_DispOverlay2, TRUE);
 529:src/camtest.c ****       }
 530:src/camtest.c ****       keyin=APM_WaitKey(KBD_TIMEOUT, 0);
 1697              		.loc 1 530 0 is_stmt 1
 1698 0444 0024     		movs	r4, #0
 1699              	.LVL259:
 528:src/camtest.c ****       }
 1700              		.loc 1 528 0
 1701 0446 0120     		movs	r0, #1
 1702 0448 FFF7FEFF 		bl	LcdOnLayerShow.constprop.1
 1703              	.LVL260:
 1704              		.loc 1 530 0
 1705 044c 0321     		movs	r1, #3
 1706 044e 42F22832 		movw	r2, #9000
 1707 0452 2346     		mov	r3, r4
 1708 0454 0094     		str	r4, [sp]
 1709 0456 1020     		movs	r0, #16
 1710 0458 FFF7FEFF 		bl	lib_app_call
 1711              	.LVL261:
 531:src/camtest.c ****       DispClrBelowMW(MW_LINE7);
 1712              		.loc 1 531 0
 1713 045c 0094     		str	r4, [sp]
 1714 045e 2321     		movs	r1, #35
 1715 0460 4FF4E062 		mov	r2, #1792
 530:src/camtest.c ****       DispClrBelowMW(MW_LINE7);
 1716              		.loc 1 530 0
 1717 0464 0590     		str	r0, [sp, #20]
 1718              	.LVL262:
 1719              		.loc 1 531 0
 1720 0466 2346     		mov	r3, r4
 1721 0468 0F20     		movs	r0, #15
 1722              	.LVL263:
 1723 046a FFF7FEFF 		bl	lib_app_call
 1724              	.LVL264:
 532:src/camtest.c ****       continue;
 1725              		.loc 1 532 0
 1726 046e DDF814C0 		ldr	ip, [sp, #20]
 1727 0472 7EE0     		b	.L115
 1728              	.LVL265:
 1729              	.L119:
 533:src/camtest.c ****     }
 534:src/camtest.c ****     while ((ret=os_image_sensor_get_frame_complete())==0) {
 535:src/camtest.c ****       if ((keyin=GetCharMW())!=0) break;
 1730              		.loc 1 535 0
 1731 0474 0092     		str	r2, [sp]
 1732 0476 0F20     		movs	r0, #15
 1733              	.LVL266:
 1734 0478 1621     		movs	r1, #22
 1735 047a 1346     		mov	r3, r2
 1736 047c FFF7FEFF 		bl	lib_app_call
 1737              	.LVL267:
 1738 0480 50B9     		cbnz	r0, .L120
 536:src/camtest.c ****       os_sleep();
 1739              		.loc 1 536 0
ARM GAS  C:\Users\AHMED~1.ELE\AppData\Local\Temp\cc594ylT.s 			page 43


 1740 0482 4FF4CE70 		mov	r0, #412
 1741              	.LVL268:
 1742 0486 FFF7FEFF 		bl	sys_func0
 1743              	.LVL269:
 1744              	.L179:
 534:src/camtest.c ****       if ((keyin=GetCharMW())!=0) break;
 1745              		.loc 1 534 0
 1746 048a 4FF4E570 		mov	r0, #458
 1747 048e FFF7FEFF 		bl	sys_func0
 1748              	.LVL270:
 1749 0492 0246     		mov	r2, r0
 1750 0494 0028     		cmp	r0, #0
 1751 0496 EDD0     		beq	.L119
 1752              	.LVL271:
 1753              	.L120:
 537:src/camtest.c ****     }
 538:src/camtest.c ****     //cap_tick = TickRun10ms(cap_start);
 539:src/camtest.c **** 
 540:src/camtest.c ****     // Decode
 541:src/camtest.c ****     DispClrBelowMW(MW_LINE8);
 1754              		.loc 1 541 0
 1755 0498 0024     		movs	r4, #0
 1756 049a 0F20     		movs	r0, #15
 1757 049c 0094     		str	r4, [sp]
 1758 049e 2321     		movs	r1, #35
 1759 04a0 4FF40062 		mov	r2, #2048
 1760 04a4 2346     		mov	r3, r4
 1761 04a6 FFF7FEFF 		bl	lib_app_call
 1762              	.LVL272:
 542:src/camtest.c ****     if ((pbar_dat != NULL) && (pbar_out != NULL) && (pdecoded_str != NULL) && (psym_type != NULL) )
 1763              		.loc 1 542 0
 1764 04aa 002D     		cmp	r5, #0
 1765 04ac 56D0     		beq	.L118
 1766              		.loc 1 542 0 is_stmt 0 discriminator 1
 1767 04ae 002E     		cmp	r6, #0
 1768 04b0 54D0     		beq	.L118
 1769              		.loc 1 542 0 discriminator 2
 1770 04b2 B8F1000F 		cmp	r8, #0
 1771 04b6 51D0     		beq	.L118
 1772              		.loc 1 542 0 discriminator 3
 1773 04b8 039B     		ldr	r3, [sp, #12]
 1774 04ba 002B     		cmp	r3, #0
 1775 04bc 4ED0     		beq	.L118
 543:src/camtest.c ****     {
 544:src/camtest.c ****       memset(pdecoded_str, 0, DECODEDSTR_SIZE);
 1776              		.loc 1 544 0 is_stmt 1
 1777 04be 4FF48073 		mov	r3, #256
 1778 04c2 1A46     		mov	r2, r3
 545:src/camtest.c ****       memset(psym_type,    0, SYMTYPE_SIZE);
 1779              		.loc 1 545 0
 1780 04c4 4FF0800A 		mov	r10, #128
 544:src/camtest.c ****       memset(psym_type,    0, SYMTYPE_SIZE);
 1781              		.loc 1 544 0
 1782 04c8 2146     		mov	r1, r4
 1783 04ca 4046     		mov	r0, r8
 1784 04cc 0593     		str	r3, [sp, #20]
 1785 04ce FFF7FEFF 		bl	memset
ARM GAS  C:\Users\AHMED~1.ELE\AppData\Local\Temp\cc594ylT.s 			page 44


 1786              	.LVL273:
 1787              		.loc 1 545 0
 1788 04d2 5246     		mov	r2, r10
 1789 04d4 2146     		mov	r1, r4
 1790 04d6 0398     		ldr	r0, [sp, #12]
 1791 04d8 FFF7FEFF 		bl	memset
 1792              	.LVL274:
 546:src/camtest.c **** 
 547:src/camtest.c ****       // Try decode 1D barcode 1st
 548:src/camtest.c ****       pbar_dat->type   = framecfg.type;
 1793              		.loc 1 548 0
 1794 04dc 0A9A     		ldr	r2, [sp, #40]
 549:src/camtest.c ****       pbar_dat->width  = framecfg.width;
 550:src/camtest.c ****       pbar_dat->height = framecfg.height;
 551:src/camtest.c ****       pbar_dat->dat    = pY800Dat;
 552:src/camtest.c **** 
 553:src/camtest.c ****       // Enable follow line to try full image on 1D barcode. otherwise only mid 40 lines
 554:src/camtest.c ****       //BAR_1DTryHard(TRUE);  // Try full image
 555:src/camtest.c **** 
 556:src/camtest.c ****       // output parameters
 557:src/camtest.c ****       pbar_out->dat          = pdecoded_str;
 558:src/camtest.c ****       pbar_out->max_dat_len  = DECODEDSTR_SIZE;
 1795              		.loc 1 558 0
 1796 04de 059B     		ldr	r3, [sp, #20]
 548:src/camtest.c ****       pbar_dat->width  = framecfg.width;
 1797              		.loc 1 548 0
 1798 04e0 2A60     		str	r2, [r5]
 549:src/camtest.c ****       pbar_dat->width  = framecfg.width;
 1799              		.loc 1 549 0
 1800 04e2 0B9A     		ldr	r2, [sp, #44]
 559:src/camtest.c ****       pbar_out->type_str     = psym_type;
 560:src/camtest.c ****       pbar_out->max_type_len = SYMTYPE_SIZE;
 561:src/camtest.c **** 
 562:src/camtest.c **** #if 0
 563:src/camtest.c ****       //dec_start = TickGet();
 564:src/camtest.c ****       zb = BAR_Decode1D(pbar_out, pbar_dat);
 565:src/camtest.c ****       //dec_tick  = TickRun10ms(dec_start);
 566:src/camtest.c ****       //if (zb <= 0) {
 567:src/camtest.c ****       //  enh_mode = TRUE;
 568:src/camtest.c ****       //  dec_start = TickGet();
 569:src/camtest.c ****       //  zb = BAR_Decode1DEnh(pbar_out, pbar_dat);
 570:src/camtest.c ****       //  //zb = BAR_Decode1D(pbar_out, pbar_dat);
 571:src/camtest.c ****       //  dec_tick  = TickRun10ms(dec_start);
 572:src/camtest.c ****       //}
 573:src/camtest.c **** 
 574:src/camtest.c ****       //sprintf(dispbuf, "ZB%d[%d][%d-%d]", framecfg.width, zb, cap_tick, dec_tick);
 575:src/camtest.c ****       //DispLine(dispbuf, SU_LINE6, SU_CLREOL|SU_SPFONT);
 576:src/camtest.c ****       if (zb > 0) {
 577:src/camtest.c ****         //sprintf(dispbuf, "%s", enh_mode?"Enhanced":"Normal");
 578:src/camtest.c ****         //DispLine(dispbuf, SU_LINE6, SU_RIGHT|SU_SPFONT);
 579:src/camtest.c ****         //sprintf(dispbuf, "[%s:%s]", psym_type, pdecoded_str);
 580:src/camtest.c ****         sprintf(dispbuf, "[%s]", pdecoded_str);
 581:src/camtest.c ****         DispLineMW(dispbuf, MW_LINE9, MW_CLREOL|MW_SPFONT);
 582:src/camtest.c ****       }
 583:src/camtest.c **** 
 584:src/camtest.c ****       //dec_start = TickGet();
 585:src/camtest.c ****       //zx = onedreader_decode(pbar_out->dat, pbar_dat->dat, pbar_dat->width, pbar_dat->height, pba
ARM GAS  C:\Users\AHMED~1.ELE\AppData\Local\Temp\cc594ylT.s 			page 45


 586:src/camtest.c ****       zx = BAR_ZXDecode1D(pbar_out, pbar_dat);
 587:src/camtest.c ****       //dec_tick  = TickRun10ms(dec_start);
 588:src/camtest.c ****       //if (zx <= 0) {
 589:src/camtest.c ****       //  enh_mode = TRUE;
 590:src/camtest.c ****       //  dec_start = TickGet();
 591:src/camtest.c ****       //  zb = BAR_ZXDecode1DEnh(pbar_out, pbar_dat);
 592:src/camtest.c ****       //  //zb = BAR_ZXDecode1D(pbar_out, pbar_dat);
 593:src/camtest.c ****       //  dec_tick  = TickRun10ms(dec_start);
 594:src/camtest.c ****       //}
 595:src/camtest.c ****       //sprintf(dispbuf, "ZX%d[%d]", framecfg.width, zx);
 596:src/camtest.c ****       //DispLineMW(dispbuf, MW_LINE8, MW_CLREOL|MW_SPFONT);
 597:src/camtest.c ****       if (zx > 0) {
 598:src/camtest.c ****         //sprintf(dispbuf, "%s", enh_mode?"Enhanced":"Normal");
 599:src/camtest.c ****         //DispLineMW(dispbuf, MW_LINE8, MW_RIGHT|MW_SPFONT);
 600:src/camtest.c ****         //sprintf(dispbuf, "[%s:%s]", psym_type, pdecoded_str);
 601:src/camtest.c ****         sprintf(dispbuf, "[%s]", pdecoded_str);
 602:src/camtest.c ****         DispLineMW(dispbuf, MW_LINE9, MW_CLREOL|MW_SPFONT);
 603:src/camtest.c ****       }
 604:src/camtest.c **** #endif
 605:src/camtest.c ****        // Temperary Disable 2D
 606:src/camtest.c ****        if ((zb<=0)&&(zx<=0)) {
 607:src/camtest.c ****          pbar_dat->height = framecfg.height;
 608:src/camtest.c ****          pbar_dat->dat    = pY800Dat;
 609:src/camtest.c ****          //dec_start = TickGet();
 610:src/camtest.c ****          twod = BAR_Decode2D(pbar_out, pbar_dat, DM_TIMEOUT);
 1801              		.loc 1 610 0
 1802 04e4 0D20     		movs	r0, #13
 549:src/camtest.c ****       pbar_dat->height = framecfg.height;
 1803              		.loc 1 549 0
 1804 04e6 AA80     		strh	r2, [r5, #4]	@ movhi
 550:src/camtest.c ****       pbar_dat->dat    = pY800Dat;
 1805              		.loc 1 550 0
 1806 04e8 0C9A     		ldr	r2, [sp, #48]
 551:src/camtest.c **** 
 1807              		.loc 1 551 0
 1808 04ea C5F808B0 		str	fp, [r5, #8]
 550:src/camtest.c ****       pbar_dat->dat    = pY800Dat;
 1809              		.loc 1 550 0
 1810 04ee EA80     		strh	r2, [r5, #6]	@ movhi
 558:src/camtest.c ****       pbar_out->type_str     = psym_type;
 1811              		.loc 1 558 0
 1812 04f0 7360     		str	r3, [r6, #4]
 559:src/camtest.c ****       pbar_out->max_type_len = SYMTYPE_SIZE;
 1813              		.loc 1 559 0
 1814 04f2 039B     		ldr	r3, [sp, #12]
 560:src/camtest.c **** 
 1815              		.loc 1 560 0
 1816 04f4 C6F80CA0 		str	r10, [r6, #12]
 559:src/camtest.c ****       pbar_out->max_type_len = SYMTYPE_SIZE;
 1817              		.loc 1 559 0
 1818 04f8 B360     		str	r3, [r6, #8]
 557:src/camtest.c ****       pbar_out->max_dat_len  = DECODEDSTR_SIZE;
 1819              		.loc 1 557 0
 1820 04fa C6F80080 		str	r8, [r6]
 1821              		.loc 1 610 0
 1822 04fe 0121     		movs	r1, #1
 1823 0500 0094     		str	r4, [sp]
ARM GAS  C:\Users\AHMED~1.ELE\AppData\Local\Temp\cc594ylT.s 			page 46


 1824 0502 3246     		mov	r2, r6
 1825 0504 2B46     		mov	r3, r5
 1826 0506 FFF7FEFF 		bl	lib_app_call
 1827              	.LVL275:
 611:src/camtest.c ****          //ret = BAR_Decode2D(pbar_out, pbar_dat, 0);    // not support data matrix
 612:src/camtest.c ****          //dec_tick  = TickRun10ms(dec_start);
 613:src/camtest.c ****          //sprintf(dispbuf, "2D%d[%d-%d]", framecfg.width, cap_tick, dec_tick);
 614:src/camtest.c ****          //sprintf(dispbuf, "2D%d", framecfg.width);
 615:src/camtest.c ****          //DispLineMW(dispbuf, MW_LINE7, MW_SPFONT);
 616:src/camtest.c ****          if (twod > 0) {
 1828              		.loc 1 616 0
 1829 050a B0F1000A 		subs	r10, r0, #0
 1830 050e 25DD     		ble	.L118
 617:src/camtest.c ****            //sprintf(dispbuf, "[%s:%s]", psym_type, pdecoded_str);
 618:src/camtest.c ****            sprintf(dispbuf, "[%s]", pdecoded_str);
 1831              		.loc 1 618 0
 1832 0510 4649     		ldr	r1, .L207+8
 1833 0512 4246     		mov	r2, r8
 1834 0514 0EA8     		add	r0, sp, #56
 1835              	.LVL276:
 1836 0516 FFF7FEFF 		bl	sprintf
 1837              	.LVL277:
 1838              	.LBB41:
 619:src/camtest.c ****            DispLineMW(dispbuf, MW_LINE9, MW_CLREOL|MW_SPFONT);
 1839              		.loc 1 619 0
 1840 051a 0EA8     		add	r0, sp, #56
 1841 051c FFF7FEFF 		bl	strlen
 1842              	.LVL278:
 1843 0520 8146     		mov	r9, r0
 1844              	.LVL279:
 1845 0522 09F10101 		add	r1, r9, #1
 1846 0526 9220     		movs	r0, #146
 1847              	.LVL280:
 1848 0528 FFF7FEFF 		bl	sys_func1
 1849              	.LVL281:
 1850 052c 0746     		mov	r7, r0
 1851              	.LVL282:
 1852 052e 0028     		cmp	r0, #0
 1853 0530 71D0     		beq	.L121
 1854              		.loc 1 619 0 is_stmt 0 discriminator 1
 1855 0532 0EA9     		add	r1, sp, #56
 1856 0534 4A46     		mov	r2, r9
 1857 0536 FFF7FEFF 		bl	memcpy
 1858              	.LVL283:
 1859 053a 42F22003 		movw	r3, #8224
 1860 053e 07F80940 		strb	r4, [r7, r9]
 1861 0542 2521     		movs	r1, #37
 1862 0544 0093     		str	r3, [sp]
 1863 0546 3A46     		mov	r2, r7
 1864 0548 4FF41063 		mov	r3, #2304
 1865 054c 0F20     		movs	r0, #15
 1866 054e FFF7FEFF 		bl	lib_app_call
 1867              	.LVL284:
 1868 0552 3946     		mov	r1, r7
 1869 0554 9420     		movs	r0, #148
 1870 0556 FFF7FEFF 		bl	sys_func1
 1871              	.LVL285:
ARM GAS  C:\Users\AHMED~1.ELE\AppData\Local\Temp\cc594ylT.s 			page 47


 1872 055a 5CE0     		b	.L121
 1873              	.LVL286:
 1874              	.L118:
 1875              	.LBE41:
 620:src/camtest.c ****          }
 621:src/camtest.c ****        } 
 622:src/camtest.c ****     }
 623:src/camtest.c ****     if ((zb > 0) || (zx > 0) || (twod > 0)) {
 624:src/camtest.c ****       Short2Beep();
 625:src/camtest.c ****       break;
 626:src/camtest.c ****     }
 627:src/camtest.c **** 
 628:src/camtest.c ****     // extract Image and display
 629:src/camtest.c ****     if (curr_mode <= MODE_W320_SD) {
 630:src/camtest.c ****       //T_LCDBUF *plcd = (T_LCDBUF *) MallocMW(sizeof(T_LCDBUF));
 631:src/camtest.c ****       //memset(plcd, 0, sizeof(T_LCDBUF));
 632:src/camtest.c ****       //plcd->w_hwidth = 160;
 633:src/camtest.c ****       //plcd->w_vwidth = 120;
 634:src/camtest.c ****       //plcd->w_hstart = 160;
 635:src/camtest.c ****       //plcd->w_vstart = 0;
 636:src/camtest.c ****       //Y800toLcd(plcd, &framecfg, pY800Dat);
 637:src/camtest.c ****       //os_disp_putg(plcd);
 638:src/camtest.c ****       //FreeMW(plcd);
 639:src/camtest.c ****     }
 640:src/camtest.c ****     else {   // update layer2 for full screen mode only
 641:src/camtest.c ****       LcdOnLayerShow(K_DispOverlay2, TRUE);
 1876              		.loc 1 641 0 is_stmt 1
 1877 055c 0120     		movs	r0, #1
 1878 055e FFF7FEFF 		bl	LcdOnLayerShow.constprop.1
 1879              	.LVL287:
 642:src/camtest.c ****     }
 643:src/camtest.c **** 
 644:src/camtest.c ****     keyin = GetCharMW();
 1880              		.loc 1 644 0
 1881 0562 0022     		movs	r2, #0
 1882 0564 0F20     		movs	r0, #15
 1883 0566 0092     		str	r2, [sp]
 1884 0568 1621     		movs	r1, #22
 1885 056a 1346     		mov	r3, r2
 1886 056c FFF7FEFF 		bl	lib_app_call
 1887              	.LVL288:
 1888 0570 8446     		mov	ip, r0
 1889              	.LVL289:
 1890              	.L115:
 428:src/camtest.c ****     #ifdef os_disp_bl_control
 1891              		.loc 1 428 0
 1892 0572 BCF1110F 		cmp	ip, #17
 1893 0576 01D0     		beq	.L109
 1894 0578 4C46     		mov	r4, r9
 1895 057a D3E5     		b	.L122
 1896              	.LVL290:
 1897              	.L109:
 645:src/camtest.c ****   }  // while
 646:src/camtest.c **** 
 647:src/camtest.c ****   if (pbar_dat  != NULL)    FreeMW(pbar_dat);
 1898              		.loc 1 647 0
 1899 057c 1DB1     		cbz	r5, .L123
ARM GAS  C:\Users\AHMED~1.ELE\AppData\Local\Temp\cc594ylT.s 			page 48


 1900              	.LVL291:
 1901              	.L130:
 1902              		.loc 1 647 0 is_stmt 0 discriminator 1
 1903 057e 9420     		movs	r0, #148
 1904 0580 2946     		mov	r1, r5
 1905 0582 FFF7FEFF 		bl	sys_func1
 1906              	.LVL292:
 1907              	.L123:
 648:src/camtest.c ****   if (pbar_out != NULL)     FreeMW(pbar_out);
 1908              		.loc 1 648 0 is_stmt 1
 1909 0586 1EB1     		cbz	r6, .L124
 1910              		.loc 1 648 0 is_stmt 0 discriminator 1
 1911 0588 9420     		movs	r0, #148
 1912 058a 3146     		mov	r1, r6
 1913 058c FFF7FEFF 		bl	sys_func1
 1914              	.LVL293:
 1915              	.L124:
 649:src/camtest.c ****   if (pdecoded_str != NULL) FreeMW(pdecoded_str);
 1916              		.loc 1 649 0 is_stmt 1
 1917 0590 B8F1000F 		cmp	r8, #0
 1918 0594 03D0     		beq	.L125
 1919              		.loc 1 649 0 is_stmt 0 discriminator 1
 1920 0596 9420     		movs	r0, #148
 1921 0598 4146     		mov	r1, r8
 1922 059a FFF7FEFF 		bl	sys_func1
 1923              	.LVL294:
 1924              	.L125:
 650:src/camtest.c ****   if (psym_type!= NULL)     FreeMW(psym_type);
 1925              		.loc 1 650 0 is_stmt 1
 1926 059e 039B     		ldr	r3, [sp, #12]
 1927 05a0 1BB1     		cbz	r3, .L126
 1928              		.loc 1 650 0 is_stmt 0 discriminator 1
 1929 05a2 9420     		movs	r0, #148
 1930 05a4 1946     		mov	r1, r3
 1931 05a6 FFF7FEFF 		bl	sys_func1
 1932              	.LVL295:
 1933              	.L126:
 651:src/camtest.c ****   if (pY800Dat != NULL)     FreeMW(pY800Dat);
 1934              		.loc 1 651 0 is_stmt 1
 1935 05aa BBF1000F 		cmp	fp, #0
 1936 05ae 03D0     		beq	.L127
 1937              		.loc 1 651 0 is_stmt 0 discriminator 1
 1938 05b0 9420     		movs	r0, #148
 1939 05b2 5946     		mov	r1, fp
 1940 05b4 FFF7FEFF 		bl	sys_func1
 1941              	.LVL296:
 1942              	.L127:
 652:src/camtest.c **** 
 653:src/camtest.c ****   // Close image sensor
 654:src/camtest.c ****   SensorClose();
 1943              		.loc 1 654 0 is_stmt 1
 1944 05b8 FFF7FEFF 		bl	SensorClose
 1945              	.LVL297:
 655:src/camtest.c ****   if ((zb > 0) || (zx > 0) || (twod > 0)) {
 1946              		.loc 1 655 0
 1947 05bc BAF1000F 		cmp	r10, #0
 1948 05c0 21DD     		ble	.L128
ARM GAS  C:\Users\AHMED~1.ELE\AppData\Local\Temp\cc594ylT.s 			page 49


 1949              	.LVL298:
 1950              	.LBB42:
 656:src/camtest.c ****     DispLineMW("Scan Success!", MW_LINE5, MW_CLRDISP|MW_CENTER|MW_BIGFONT);
 1951              		.loc 1 656 0
 1952 05c2 9220     		movs	r0, #146
 1953 05c4 0E21     		movs	r1, #14
 1954 05c6 FFF7FEFF 		bl	sys_func1
 1955              	.LVL299:
 1956 05ca 0446     		mov	r4, r0
 1957 05cc 98B1     		cbz	r0, .L129
 1958              		.loc 1 656 0 is_stmt 0 discriminator 1
 1959 05ce 1849     		ldr	r1, .L207+12
 1960 05d0 0D22     		movs	r2, #13
 1961 05d2 FFF7FEFF 		bl	memcpy
 1962              	.LVL300:
 1963 05d6 0023     		movs	r3, #0
 1964 05d8 2521     		movs	r1, #37
 1965 05da 6373     		strb	r3, [r4, #13]
 1966 05dc 41F28203 		movw	r3, #4226
 1967 05e0 0F20     		movs	r0, #15
 1968 05e2 0093     		str	r3, [sp]
 1969 05e4 2246     		mov	r2, r4
 1970 05e6 4FF4A063 		mov	r3, #1280
 1971 05ea FFF7FEFF 		bl	lib_app_call
 1972              	.LVL301:
 1973 05ee 9420     		movs	r0, #148
 1974 05f0 2146     		mov	r1, r4
 1975 05f2 FFF7FEFF 		bl	sys_func1
 1976              	.LVL302:
 1977              	.L129:
 1978              	.LBE42:
 657:src/camtest.c ****     APM_WaitKey(500, 0);
 1979              		.loc 1 657 0 is_stmt 1
 1980 05f6 0023     		movs	r3, #0
 1981 05f8 1020     		movs	r0, #16
 1982 05fa 0093     		str	r3, [sp]
 1983 05fc 0321     		movs	r1, #3
 1984 05fe 4FF4FA72 		mov	r2, #500
 1985 0602 FFF7FEFF 		bl	lib_app_call
 1986              	.LVL303:
 1987              	.L128:
 658:src/camtest.c ****   }
 659:src/camtest.c ****   LcdOnLayerShow(K_DispOverlay2, FALSE);
 1988              		.loc 1 659 0
 1989 0606 0020     		movs	r0, #0
 1990 0608 FFF7FEFF 		bl	LcdOnLayerShow.constprop.1
 1991              	.LVL304:
 1992              	.LBB43:
 1993              	.LBB44:
 278:src/camtest.c ****   }
 1994              		.loc 1 278 0
 1995 060c 0F21     		movs	r1, #15
 1996 060e 1620     		movs	r0, #22
 1997 0610 FFF7FEFF 		bl	sys_func1
 1998              	.LVL305:
 1999              	.LBE44:
 2000              	.LBE43:
ARM GAS  C:\Users\AHMED~1.ELE\AppData\Local\Temp\cc594ylT.s 			page 50


 2001 0614 02E0     		b	.L81
 2002              	.LVL306:
 2003              	.L121:
 624:src/camtest.c ****       break;
 2004              		.loc 1 624 0
 2005 0616 FFF7FEFF 		bl	Short2Beep
 2006              	.LVL307:
 2007 061a B0E7     		b	.L130
 2008              	.LVL308:
 2009              	.L81:
 660:src/camtest.c ****   LcdOnLayerEnable(FALSE);
 661:src/camtest.c **** }
 2010              		.loc 1 661 0
 2011 061c 0DF50F7D 		add	sp, sp, #572
 2012              		.cfi_def_cfa_offset 36
 2013              		@ sp needed
 2014 0620 BDE8F08F 		pop	{r4, r5, r6, r7, r8, r9, r10, fp, pc}
 2015              	.L208:
 2016              		.align	2
 2017              	.L207:
 2018 0624 82000000 		.word	.LC9
 2019 0628 92000000 		.word	.LC10
 2020 062c 9F000000 		.word	.LC11
 2021 0630 A4000000 		.word	.LC12
 2022              		.cfi_endproc
 2023              	.LFE8:
 2024              		.size	CamTest2D, .-CamTest2D
 2025              		.section	.text.CamTestAll,"ax",%progbits
 2026              		.align	1
 2027              		.global	CamTestAll
 2028              		.thumb
 2029              		.thumb_func
 2030              		.type	CamTestAll, %function
 2031              	CamTestAll:
 2032              	.LFB9:
 662:src/camtest.c **** void CamTestAll(void)
 663:src/camtest.c **** {
 2033              		.loc 1 663 0
 2034              		.cfi_startproc
 2035              		@ args = 0, pretend = 0, frame = 576
 2036              		@ frame_needed = 0, uses_anonymous_args = 0
 2037              	.LVL309:
 2038 0000 2DE9F04F 		push	{r4, r5, r6, r7, r8, r9, r10, fp, lr}
 2039              		.cfi_def_cfa_offset 36
 2040              		.cfi_offset 4, -36
 2041              		.cfi_offset 5, -32
 2042              		.cfi_offset 6, -28
 2043              		.cfi_offset 7, -24
 2044              		.cfi_offset 8, -20
 2045              		.cfi_offset 9, -16
 2046              		.cfi_offset 10, -12
 2047              		.cfi_offset 11, -8
 2048              		.cfi_offset 14, -4
 664:src/camtest.c ****   T_IMAGE_FRAME framecfg; // output structure for driver to return image frame properties
 665:src/camtest.c ****   T_LCDG previewlcd;
 666:src/camtest.c **** 
 667:src/camtest.c ****   T_LCDG *preview=NULL;
ARM GAS  C:\Users\AHMED~1.ELE\AppData\Local\Temp\cc594ylT.s 			page 51


 668:src/camtest.c ****   BYTE *pY800Dat = NULL;
 669:src/camtest.c ****   T_BAR_DAT  *pbar_dat  = NULL;
 670:src/camtest.c ****   T_BAROUT_DAT *pbar_out = NULL;
 671:src/camtest.c ****   #define DECODEDSTR_SIZE 256
 672:src/camtest.c ****   #define SYMTYPE_SIZE    128
 673:src/camtest.c ****   char *pdecoded_str = NULL;
 674:src/camtest.c ****   char *psym_type    = NULL;
 675:src/camtest.c **** 
 676:src/camtest.c ****   DWORD keyin, timeout, mode, curr_mode, last_mode, i;
 677:src/camtest.c ****   BYTE  dispbuf[512];
 678:src/camtest.c ****   BOOLEAN img_led = 0;
 679:src/camtest.c ****   DWORD oned_height = 5;
 680:src/camtest.c ****   //DWORD cap_start, cap_tick, dec_start, dec_tick;
 681:src/camtest.c ****   int zb, zx, twod, ret;
 682:src/camtest.c ****   DWORD free_run;
 683:src/camtest.c **** 
 684:src/camtest.c **** #ifdef K_XHdImageSensor
 685:src/camtest.c ****   if ((os_hd_config_extend() & K_XHdImageSensor) == K_XHdNoImageSensor)
 2049              		.loc 1 685 0
 2050 0004 4FF4D070 		mov	r0, #416
 663:src/camtest.c ****   T_IMAGE_FRAME framecfg; // output structure for driver to return image frame properties
 2051              		.loc 1 663 0
 2052 0008 ADF5137D 		sub	sp, sp, #588
 2053              		.cfi_def_cfa_offset 624
 2054              		.loc 1 685 0
 2055 000c 0121     		movs	r1, #1
 2056 000e FFF7FEFF 		bl	sys_func1
 2057              	.LVL310:
 2058 0012 10F0600F 		tst	r0, #96
 2059 0016 00F08D83 		beq	.L209
 686:src/camtest.c ****     return;
 687:src/camtest.c **** #elif K_HdCamera
 688:src/camtest.c ****   if ((os_hd_config() & K_HdCamera) == K_HdNoCamera)
 689:src/camtest.c ****     return;
 690:src/camtest.c **** #endif
 691:src/camtest.c ****     
 692:src/camtest.c ****   if (!IsAppIdExistMW(BARDLL_ID)) {
 2060              		.loc 1 692 0
 2061 001a 8D20     		movs	r0, #141
 2062 001c 0D21     		movs	r1, #13
 2063 001e FFF7FEFF 		bl	sys_func1
 2064              	.LVL311:
 2065 0022 0546     		mov	r5, r0
 2066 0024 18BB     		cbnz	r0, .L211
 2067              	.LVL312:
 2068              	.LBB64:
 693:src/camtest.c ****     DispLineMW("BARDLL NOT LOADED!", MW_LINE5, MW_CLRDISP|MW_CENTER|MW_BIGFONT);
 2069              		.loc 1 693 0
 2070 0026 9220     		movs	r0, #146
 2071 0028 1321     		movs	r1, #19
 2072 002a FFF7FEFF 		bl	sys_func1
 2073              	.LVL313:
 2074 002e 0446     		mov	r4, r0
 2075 0030 90B1     		cbz	r0, .L212
 2076              		.loc 1 693 0 is_stmt 0 discriminator 1
 2077 0032 A649     		ldr	r1, .L352
 2078 0034 1222     		movs	r2, #18
ARM GAS  C:\Users\AHMED~1.ELE\AppData\Local\Temp\cc594ylT.s 			page 52


 2079 0036 FFF7FEFF 		bl	memcpy
 2080              	.LVL314:
 2081 003a 41F28203 		movw	r3, #4226
 2082 003e A574     		strb	r5, [r4, #18]
 2083 0040 2521     		movs	r1, #37
 2084 0042 0093     		str	r3, [sp]
 2085 0044 0F20     		movs	r0, #15
 2086 0046 2246     		mov	r2, r4
 2087 0048 4FF4A063 		mov	r3, #1280
 2088 004c FFF7FEFF 		bl	lib_app_call
 2089              	.LVL315:
 2090 0050 9420     		movs	r0, #148
 2091 0052 2146     		mov	r1, r4
 2092 0054 FFF7FEFF 		bl	sys_func1
 2093              	.LVL316:
 2094              	.L212:
 2095              	.LBE64:
 694:src/camtest.c ****     LongBeep();
 2096              		.loc 1 694 0 is_stmt 1
 2097 0058 FFF7FEFF 		bl	LongBeep
 2098              	.LVL317:
 695:src/camtest.c ****     APM_WaitKey(KBD_TIMEOUT, 0);
 2099              		.loc 1 695 0
 2100 005c 0023     		movs	r3, #0
 2101 005e 0321     		movs	r1, #3
 2102 0060 0093     		str	r3, [sp]
 2103 0062 42F22832 		movw	r2, #9000
 2104 0066 1020     		movs	r0, #16
 2105 0068 FFF7FEFF 		bl	lib_app_call
 2106              	.LVL318:
 696:src/camtest.c ****     return;
 2107              		.loc 1 696 0
 2108 006c 62E3     		b	.L209
 2109              	.LVL319:
 2110              	.L211:
 697:src/camtest.c ****   }
 698:src/camtest.c **** 
 699:src/camtest.c ****   // Ready Default Preview config
 700:src/camtest.c ****   memset(&previewlcd, 0, sizeof(previewlcd));
 2111              		.loc 1 700 0
 2112 006e 0021     		movs	r1, #0
 2113 0070 0C22     		movs	r2, #12
 2114 0072 0BA8     		add	r0, sp, #44
 2115 0074 FFF7FEFF 		bl	memset
 2116              	.LVL320:
 701:src/camtest.c ****   previewlcd.w_hwidth = 160; //144;  // must key the ratio
 2117              		.loc 1 701 0
 2118 0078 A023     		movs	r3, #160
 2119              	.LBB65:
 702:src/camtest.c ****   previewlcd.w_vwidth = 120; //108;
 703:src/camtest.c ****   previewlcd.w_hstart = 0;
 704:src/camtest.c ****   previewlcd.w_vstart = 0;
 705:src/camtest.c ****   preview = &previewlcd;
 706:src/camtest.c **** 
 707:src/camtest.c ****   // Setup Current disp mode
 708:src/camtest.c ****   //curr_mode = MODE_F640_D; 
 709:src/camtest.c ****   curr_mode = MODE_F320_D; 
ARM GAS  C:\Users\AHMED~1.ELE\AppData\Local\Temp\cc594ylT.s 			page 53


 710:src/camtest.c ****   last_mode = MODE_MAX;
 711:src/camtest.c ****   mode      = SENSOR_MODE_640;
 712:src/camtest.c **** 
 713:src/camtest.c ****   DispLineMW("CamTest", MW_LINE1, MW_CLRDISP|MW_CENTER|MW_REVERSE|MW_SPFONT);
 2120              		.loc 1 713 0
 2121 007a 9220     		movs	r0, #146
 2122              	.LBE65:
 701:src/camtest.c ****   previewlcd.w_hwidth = 160; //144;  // must key the ratio
 2123              		.loc 1 701 0
 2124 007c ADF83030 		strh	r3, [sp, #48]	@ movhi
 702:src/camtest.c ****   previewlcd.w_vwidth = 120; //108;
 2125              		.loc 1 702 0
 2126 0080 7823     		movs	r3, #120
 2127              	.LBB66:
 2128              		.loc 1 713 0
 2129 0082 0821     		movs	r1, #8
 2130              	.LBE66:
 702:src/camtest.c ****   previewlcd.w_vwidth = 120; //108;
 2131              		.loc 1 702 0
 2132 0084 ADF83230 		strh	r3, [sp, #50]	@ movhi
 2133              	.LVL321:
 2134              	.LBB67:
 2135              		.loc 1 713 0
 2136 0088 FFF7FEFF 		bl	sys_func1
 2137              	.LVL322:
 2138 008c 0446     		mov	r4, r0
 2139 008e 98B1     		cbz	r0, .L213
 2140              		.loc 1 713 0 is_stmt 0 discriminator 1
 2141 0090 8F49     		ldr	r1, .L352+4
 2142 0092 0722     		movs	r2, #7
 2143 0094 FFF7FEFF 		bl	memcpy
 2144              	.LVL323:
 2145 0098 0023     		movs	r3, #0
 2146 009a 2521     		movs	r1, #37
 2147 009c E371     		strb	r3, [r4, #7]
 2148 009e 42F29203 		movw	r3, #8338
 2149 00a2 0F20     		movs	r0, #15
 2150 00a4 0093     		str	r3, [sp]
 2151 00a6 2246     		mov	r2, r4
 2152 00a8 4FF48073 		mov	r3, #256
 2153 00ac FFF7FEFF 		bl	lib_app_call
 2154              	.LVL324:
 2155 00b0 9420     		movs	r0, #148
 2156 00b2 2146     		mov	r1, r4
 2157 00b4 FFF7FEFF 		bl	sys_func1
 2158              	.LVL325:
 2159              	.L213:
 2160              	.LBE67:
 2161              	.LBB68:
 714:src/camtest.c ****   DispLineMW("Wait For CAM Ready", MW_LINE5, MW_CENTER|MW_SPFONT);
 2162              		.loc 1 714 0 is_stmt 1
 2163 00b8 9220     		movs	r0, #146
 2164 00ba 1321     		movs	r1, #19
 2165 00bc FFF7FEFF 		bl	sys_func1
 2166              	.LVL326:
 2167 00c0 0446     		mov	r4, r0
 2168              	.LVL327:
ARM GAS  C:\Users\AHMED~1.ELE\AppData\Local\Temp\cc594ylT.s 			page 54


 2169 00c2 98B1     		cbz	r0, .L214
 2170              		.loc 1 714 0 is_stmt 0 discriminator 1
 2171 00c4 8349     		ldr	r1, .L352+8
 2172 00c6 1222     		movs	r2, #18
 2173 00c8 FFF7FEFF 		bl	memcpy
 2174              	.LVL328:
 2175 00cc 0023     		movs	r3, #0
 2176 00ce 2521     		movs	r1, #37
 2177 00d0 A374     		strb	r3, [r4, #18]
 2178 00d2 42F20203 		movw	r3, #8194
 2179 00d6 0F20     		movs	r0, #15
 2180 00d8 0093     		str	r3, [sp]
 2181 00da 2246     		mov	r2, r4
 2182 00dc 4FF4A063 		mov	r3, #1280
 2183 00e0 FFF7FEFF 		bl	lib_app_call
 2184              	.LVL329:
 2185 00e4 9420     		movs	r0, #148
 2186 00e6 2146     		mov	r1, r4
 2187 00e8 FFF7FEFF 		bl	sys_func1
 2188              	.LVL330:
 2189              	.L214:
 2190              	.LBE68:
 2191              	.LBB69:
 2192              	.LBB70:
 2193 00ec FFF7FEFF 		bl	LcdOnLayerEnable.part.0
 2194              	.LVL331:
 2195              	.LBE70:
 2196              	.LBE69:
 715:src/camtest.c **** 
 716:src/camtest.c ****   LcdOnLayerEnable(TRUE);
 717:src/camtest.c **** 
 718:src/camtest.c ****   pY800Dat = MallocMW(960*720);   // allocate max frame size; 960*720
 2197              		.loc 1 718 0 is_stmt 1
 2198 00f0 7949     		ldr	r1, .L352+12
 2199 00f2 9220     		movs	r0, #146
 2200 00f4 FFF7FEFF 		bl	sys_func1
 2201              	.LVL332:
 719:src/camtest.c ****   pbar_dat = (T_BAR_DAT  *)MallocMW(sizeof(T_BAR_DAT));
 2202              		.loc 1 719 0
 2203 00f8 0C21     		movs	r1, #12
 710:src/camtest.c ****   mode      = SENSOR_MODE_640;
 2204              		.loc 1 710 0
 2205 00fa 4FF00709 		mov	r9, #7
 709:src/camtest.c ****   last_mode = MODE_MAX;
 2206              		.loc 1 709 0
 2207 00fe 4FF0060A 		mov	r10, #6
 718:src/camtest.c ****   pbar_dat = (T_BAR_DAT  *)MallocMW(sizeof(T_BAR_DAT));
 2208              		.loc 1 718 0
 2209 0102 0490     		str	r0, [sp, #16]
 2210              	.LVL333:
 2211              		.loc 1 719 0
 2212 0104 9220     		movs	r0, #146
 2213              	.LVL334:
 2214 0106 FFF7FEFF 		bl	sys_func1
 2215              	.LVL335:
 720:src/camtest.c ****   pbar_out = (T_BAROUT_DAT *)MallocMW(sizeof(T_BAROUT_DAT));
 2216              		.loc 1 720 0
ARM GAS  C:\Users\AHMED~1.ELE\AppData\Local\Temp\cc594ylT.s 			page 55


 2217 010a 1021     		movs	r1, #16
 711:src/camtest.c **** 
 2218              		.loc 1 711 0
 2219 010c 0127     		movs	r7, #1
 719:src/camtest.c ****   pbar_out = (T_BAROUT_DAT *)MallocMW(sizeof(T_BAROUT_DAT));
 2220              		.loc 1 719 0
 2221 010e 0446     		mov	r4, r0
 2222              	.LVL336:
 2223              		.loc 1 720 0
 2224 0110 9220     		movs	r0, #146
 2225              	.LVL337:
 2226 0112 FFF7FEFF 		bl	sys_func1
 2227              	.LVL338:
 721:src/camtest.c ****   pdecoded_str = (char *)MallocMW(DECODEDSTR_SIZE);
 2228              		.loc 1 721 0
 2229 0116 4FF48071 		mov	r1, #256
 720:src/camtest.c ****   pdecoded_str = (char *)MallocMW(DECODEDSTR_SIZE);
 2230              		.loc 1 720 0
 2231 011a 0546     		mov	r5, r0
 2232              	.LVL339:
 2233              		.loc 1 721 0
 2234 011c 9220     		movs	r0, #146
 2235              	.LVL340:
 2236 011e FFF7FEFF 		bl	sys_func1
 2237              	.LVL341:
 722:src/camtest.c ****   psym_type    = (char *)MallocMW(SYMTYPE_SIZE);
 2238              		.loc 1 722 0
 2239 0122 8021     		movs	r1, #128
 721:src/camtest.c ****   pdecoded_str = (char *)MallocMW(DECODEDSTR_SIZE);
 2240              		.loc 1 721 0
 2241 0124 8046     		mov	r8, r0
 2242              	.LVL342:
 2243              		.loc 1 722 0
 2244 0126 9220     		movs	r0, #146
 2245              	.LVL343:
 2246 0128 FFF7FEFF 		bl	sys_func1
 2247              	.LVL344:
 723:src/camtest.c **** 
 724:src/camtest.c ****   zb = zx = twod = keyin = 0;
 2248              		.loc 1 724 0
 2249 012c 0023     		movs	r3, #0
 2250 012e 1E46     		mov	r6, r3
 2251 0130 0393     		str	r3, [sp, #12]
 722:src/camtest.c ****   psym_type    = (char *)MallocMW(SYMTYPE_SIZE);
 2252              		.loc 1 722 0
 2253 0132 0590     		str	r0, [sp, #20]
 2254              	.LVL345:
 2255              		.loc 1 724 0
 2256 0134 0893     		str	r3, [sp, #32]
 2257 0136 0693     		str	r3, [sp, #24]
 678:src/camtest.c ****   DWORD oned_height = 5;
 2258              		.loc 1 678 0
 2259 0138 0793     		str	r3, [sp, #28]
 2260              	.LVL346:
 2261              	.L259:
 725:src/camtest.c ****   timeout = 1*TIME_1SEC;
 726:src/camtest.c ****   while (keyin != MWKEY_CANCL) {
ARM GAS  C:\Users\AHMED~1.ELE\AppData\Local\Temp\cc594ylT.s 			page 56


 727:src/camtest.c ****     #ifdef os_disp_bl_control
 728:src/camtest.c ****     os_disp_bl_control(256); // on now
 2262              		.loc 1 728 0
 2263 013a 2220     		movs	r0, #34
 2264 013c 4FF48071 		mov	r1, #256
 2265 0140 FFF7FEFF 		bl	sys_func1
 2266              	.LVL347:
 729:src/camtest.c ****     #endif
 730:src/camtest.c ****     switch (keyin) {
 2267              		.loc 1 730 0
 2268 0144 122E     		cmp	r6, #18
 2269 0146 02D0     		beq	.L216
 2270 0148 592E     		cmp	r6, #89
 2271 014a 0AD0     		beq	.L217
 2272 014c 0EE0     		b	.L215
 2273              	.L216:
 731:src/camtest.c ****       case MWKEY_CLR:
 732:src/camtest.c ****         // toggle led on/off
 733:src/camtest.c ****         img_led = img_led == 0 ? 1 : 0;
 2274              		.loc 1 733 0
 2275 014e 079B     		ldr	r3, [sp, #28]
 734:src/camtest.c ****         os_image_sensor_led_open(img_led);
 2276              		.loc 1 734 0
 2277 0150 40F2CF10 		movw	r0, #463
 733:src/camtest.c ****         os_image_sensor_led_open(img_led);
 2278              		.loc 1 733 0
 2279 0154 83F00103 		eor	r3, r3, #1
 2280              		.loc 1 734 0
 2281 0158 1946     		mov	r1, r3
 733:src/camtest.c ****         os_image_sensor_led_open(img_led);
 2282              		.loc 1 733 0
 2283 015a 0793     		str	r3, [sp, #28]
 2284              	.LVL348:
 2285              		.loc 1 734 0
 2286 015c FFF7FEFF 		bl	sys_func1
 2287              	.LVL349:
 735:src/camtest.c ****         break;
 2288              		.loc 1 735 0
 2289 0160 04E0     		b	.L215
 2290              	.L217:
 736:src/camtest.c ****       case MWKEY_ASTERISK:
 737:src/camtest.c ****         if (curr_mode == MODE_F320_D)
 2291              		.loc 1 737 0
 2292 0162 BAF1060F 		cmp	r10, #6
 2293 0166 40F0BF80 		bne	.L348
 2294 016a 89E0     		b	.L351
 2295              	.L215:
 738:src/camtest.c ****           curr_mode = MODE_F640_D;
 739:src/camtest.c ****         else
 740:src/camtest.c ****           curr_mode = MODE_F320_D;
 741:src/camtest.c ****         break;
 742:src/camtest.c ****       default:
 743:src/camtest.c ****         break;
 744:src/camtest.c ****     }
 745:src/camtest.c ****     if (last_mode != curr_mode) {
 2296              		.loc 1 745 0
 2297 016c D145     		cmp	r9, r10
ARM GAS  C:\Users\AHMED~1.ELE\AppData\Local\Temp\cc594ylT.s 			page 57


 2298 016e 00F02A81 		beq	.L220
 746:src/camtest.c ****       switch (curr_mode) {
 2299              		.loc 1 746 0
 2300 0172 BAF1060F 		cmp	r10, #6
 2301 0176 00F2DB80 		bhi	.L221
 2302 017a DFE80AF0 		tbb	[pc, r10]
 2303              	.L223:
 2304 017e 04       		.byte	(.L222-.L223)/2
 2305 017f 23       		.byte	(.L224-.L223)/2
 2306 0180 42       		.byte	(.L225-.L223)/2
 2307 0181 D9       		.byte	(.L221-.L223)/2
 2308 0182 61       		.byte	(.L226-.L223)/2
 2309 0183 85       		.byte	(.L227-.L223)/2
 2310 0184 B8       		.byte	(.L228-.L223)/2
 2311 0185 00       		.p2align 1
 2312              	.L222:
 2313              	.LVL350:
 2314              	.LBB71:
 747:src/camtest.c ****         case MODE_W960_D:
 748:src/camtest.c ****           mode    = SENSOR_MODE_960;
 749:src/camtest.c ****           preview = &previewlcd;
 750:src/camtest.c ****           DispLineMW("960 Decode", MW_LINE9, MW_CLRDISP|MW_CENTER|MW_SPFONT);
 2315              		.loc 1 750 0
 2316 0186 9220     		movs	r0, #146
 2317 0188 0B21     		movs	r1, #11
 2318 018a FFF7FEFF 		bl	sys_func1
 2319              	.LVL351:
 2320 018e 0746     		mov	r7, r0
 2321 0190 98B1     		cbz	r0, .L229
 2322              		.loc 1 750 0 is_stmt 0 discriminator 1
 2323 0192 5249     		ldr	r1, .L352+16
 2324 0194 0A22     		movs	r2, #10
 2325 0196 FFF7FEFF 		bl	memcpy
 2326              	.LVL352:
 2327 019a 0023     		movs	r3, #0
 2328 019c 2521     		movs	r1, #37
 2329 019e BB72     		strb	r3, [r7, #10]
 2330 01a0 42F28203 		movw	r3, #8322
 2331 01a4 0F20     		movs	r0, #15
 2332 01a6 0093     		str	r3, [sp]
 2333 01a8 3A46     		mov	r2, r7
 2334 01aa 4FF41063 		mov	r3, #2304
 2335 01ae FFF7FEFF 		bl	lib_app_call
 2336              	.LVL353:
 2337 01b2 9420     		movs	r0, #148
 2338 01b4 3946     		mov	r1, r7
 2339 01b6 FFF7FEFF 		bl	sys_func1
 2340              	.LVL354:
 2341              	.L229:
 2342              	.LBE71:
 751:src/camtest.c ****           LcdOnLayerShow(K_DispOverlay2, FALSE);   // disable layer 2
 2343              		.loc 1 751 0 is_stmt 1
 2344 01ba 0020     		movs	r0, #0
 2345 01bc FFF7FEFF 		bl	LcdOnLayerShow.constprop.1
 2346              	.LVL355:
 748:src/camtest.c ****           preview = &previewlcd;
 2347              		.loc 1 748 0
ARM GAS  C:\Users\AHMED~1.ELE\AppData\Local\Temp\cc594ylT.s 			page 58


 2348 01c0 0227     		movs	r7, #2
 2349              	.LVL356:
 752:src/camtest.c ****           break;
 2350              		.loc 1 752 0
 2351 01c2 B5E0     		b	.L221
 2352              	.LVL357:
 2353              	.L224:
 2354              	.LBB72:
 753:src/camtest.c ****         case MODE_W640_D:
 754:src/camtest.c ****           mode    = SENSOR_MODE_640;
 755:src/camtest.c ****           preview = &previewlcd;
 756:src/camtest.c ****           DispLineMW("640 Decode", MW_LINE9, MW_CLRDISP|MW_CENTER|MW_SPFONT);
 2355              		.loc 1 756 0
 2356 01c4 9220     		movs	r0, #146
 2357 01c6 0B21     		movs	r1, #11
 2358 01c8 FFF7FEFF 		bl	sys_func1
 2359              	.LVL358:
 2360 01cc 0746     		mov	r7, r0
 2361 01ce 98B1     		cbz	r0, .L230
 2362              		.loc 1 756 0 is_stmt 0 discriminator 1
 2363 01d0 4349     		ldr	r1, .L352+20
 2364 01d2 0A22     		movs	r2, #10
 2365 01d4 FFF7FEFF 		bl	memcpy
 2366              	.LVL359:
 2367 01d8 0023     		movs	r3, #0
 2368 01da 2521     		movs	r1, #37
 2369 01dc BB72     		strb	r3, [r7, #10]
 2370 01de 42F28203 		movw	r3, #8322
 2371 01e2 0F20     		movs	r0, #15
 2372 01e4 0093     		str	r3, [sp]
 2373 01e6 3A46     		mov	r2, r7
 2374 01e8 4FF41063 		mov	r3, #2304
 2375 01ec FFF7FEFF 		bl	lib_app_call
 2376              	.LVL360:
 2377 01f0 9420     		movs	r0, #148
 2378 01f2 3946     		mov	r1, r7
 2379 01f4 FFF7FEFF 		bl	sys_func1
 2380              	.LVL361:
 2381              	.L230:
 2382              	.LBE72:
 757:src/camtest.c ****           LcdOnLayerShow(K_DispOverlay2, FALSE);   // disable layer 2
 2383              		.loc 1 757 0 is_stmt 1
 2384 01f8 0020     		movs	r0, #0
 2385 01fa FFF7FEFF 		bl	LcdOnLayerShow.constprop.1
 2386              	.LVL362:
 754:src/camtest.c ****           preview = &previewlcd;
 2387              		.loc 1 754 0
 2388 01fe 0127     		movs	r7, #1
 2389              	.LVL363:
 758:src/camtest.c ****           break;
 2390              		.loc 1 758 0
 2391 0200 96E0     		b	.L221
 2392              	.LVL364:
 2393              	.L225:
 2394              	.LBB73:
 759:src/camtest.c ****         case MODE_W320_D:
 760:src/camtest.c ****           mode    = SENSOR_MODE_320;
ARM GAS  C:\Users\AHMED~1.ELE\AppData\Local\Temp\cc594ylT.s 			page 59


 761:src/camtest.c ****           preview = &previewlcd;
 762:src/camtest.c ****           DispLineMW("320 Decode", MW_LINE9, MW_CLRDISP|MW_CENTER|MW_SPFONT);
 2395              		.loc 1 762 0
 2396 0202 9220     		movs	r0, #146
 2397 0204 0B21     		movs	r1, #11
 2398 0206 FFF7FEFF 		bl	sys_func1
 2399              	.LVL365:
 2400 020a 0746     		mov	r7, r0
 2401 020c 98B1     		cbz	r0, .L231
 2402              		.loc 1 762 0 is_stmt 0 discriminator 1
 2403 020e 3549     		ldr	r1, .L352+24
 2404 0210 0A22     		movs	r2, #10
 2405 0212 FFF7FEFF 		bl	memcpy
 2406              	.LVL366:
 2407 0216 0023     		movs	r3, #0
 2408 0218 2521     		movs	r1, #37
 2409 021a BB72     		strb	r3, [r7, #10]
 2410 021c 42F28203 		movw	r3, #8322
 2411 0220 0F20     		movs	r0, #15
 2412 0222 0093     		str	r3, [sp]
 2413 0224 3A46     		mov	r2, r7
 2414 0226 4FF41063 		mov	r3, #2304
 2415 022a FFF7FEFF 		bl	lib_app_call
 2416              	.LVL367:
 2417 022e 9420     		movs	r0, #148
 2418 0230 3946     		mov	r1, r7
 2419 0232 FFF7FEFF 		bl	sys_func1
 2420              	.LVL368:
 2421              	.L231:
 2422              	.LBE73:
 763:src/camtest.c ****           LcdOnLayerShow(K_DispOverlay2, FALSE);   // disable layer 2
 2423              		.loc 1 763 0 is_stmt 1
 2424 0236 0020     		movs	r0, #0
 2425 0238 FFF7FEFF 		bl	LcdOnLayerShow.constprop.1
 2426              	.LVL369:
 760:src/camtest.c ****           preview = &previewlcd;
 2427              		.loc 1 760 0
 2428 023c 0027     		movs	r7, #0
 2429              	.LVL370:
 764:src/camtest.c ****           break;
 2430              		.loc 1 764 0
 2431 023e 77E0     		b	.L221
 2432              	.LVL371:
 2433              	.L226:
 2434              	.LBB74:
 765:src/camtest.c ****         case MODE_F960_D:
 766:src/camtest.c ****           mode    = SENSOR_MODE_FULL_SCREEN|SENSOR_MODE_960;
 767:src/camtest.c ****           preview = &previewlcd;
 768:src/camtest.c ****           DispLineMW("960 Decode", MW_LINE9, MW_CLRDISP|MW_CENTER|MW_SPFONT);
 2435              		.loc 1 768 0
 2436 0240 9220     		movs	r0, #146
 2437 0242 0B21     		movs	r1, #11
 2438 0244 FFF7FEFF 		bl	sys_func1
 2439              	.LVL372:
 2440 0248 0746     		mov	r7, r0
 2441 024a 98B1     		cbz	r0, .L232
 2442              		.loc 1 768 0 is_stmt 0 discriminator 1
ARM GAS  C:\Users\AHMED~1.ELE\AppData\Local\Temp\cc594ylT.s 			page 60


 2443 024c 2349     		ldr	r1, .L352+16
 2444 024e 0A22     		movs	r2, #10
 2445 0250 FFF7FEFF 		bl	memcpy
 2446              	.LVL373:
 2447 0254 0023     		movs	r3, #0
 2448 0256 2521     		movs	r1, #37
 2449 0258 BB72     		strb	r3, [r7, #10]
 2450 025a 42F28203 		movw	r3, #8322
 2451 025e 0F20     		movs	r0, #15
 2452 0260 0093     		str	r3, [sp]
 2453 0262 3A46     		mov	r2, r7
 2454 0264 4FF41063 		mov	r3, #2304
 2455 0268 FFF7FEFF 		bl	lib_app_call
 2456              	.LVL374:
 2457 026c 9420     		movs	r0, #148
 2458 026e 3946     		mov	r1, r7
 2459 0270 FFF7FEFF 		bl	sys_func1
 2460              	.LVL375:
 2461              	.L232:
 2462              	.LBE74:
 769:src/camtest.c ****           LcdOnLayerShow(K_DispOverlay2, TRUE);
 2463              		.loc 1 769 0 is_stmt 1
 2464 0274 0120     		movs	r0, #1
 2465 0276 FFF7FEFF 		bl	LcdOnLayerShow.constprop.1
 2466              	.LVL376:
 766:src/camtest.c ****           preview = &previewlcd;
 2467              		.loc 1 766 0
 2468 027a 48F20207 		movw	r7, #32770
 2469              	.LVL377:
 770:src/camtest.c ****           break;
 2470              		.loc 1 770 0
 2471 027e 57E0     		b	.L221
 2472              	.LVL378:
 2473              	.L351:
 745:src/camtest.c ****       switch (curr_mode) {
 2474              		.loc 1 745 0
 2475 0280 B9F1050F 		cmp	r9, #5
 2476 0284 00F09F80 		beq	.L220
 2477              	.LVL379:
 2478              	.L227:
 2479              	.LBB75:
 771:src/camtest.c ****         case MODE_F640_D:
 772:src/camtest.c ****           mode    = SENSOR_MODE_FULL_SCREEN|SENSOR_MODE_640;
 773:src/camtest.c ****           preview = &previewlcd;
 774:src/camtest.c ****           DispLineMW("640 Decode", MW_LINE9, MW_CLRDISP|MW_CENTER|MW_SPFONT);
 2480              		.loc 1 774 0
 2481 0288 9220     		movs	r0, #146
 2482 028a 0B21     		movs	r1, #11
 2483 028c FFF7FEFF 		bl	sys_func1
 2484              	.LVL380:
 2485 0290 0746     		mov	r7, r0
 2486 0292 98B1     		cbz	r0, .L233
 2487              		.loc 1 774 0 is_stmt 0 discriminator 1
 2488 0294 1249     		ldr	r1, .L352+20
 2489 0296 0A22     		movs	r2, #10
 2490 0298 FFF7FEFF 		bl	memcpy
 2491              	.LVL381:
ARM GAS  C:\Users\AHMED~1.ELE\AppData\Local\Temp\cc594ylT.s 			page 61


 2492 029c 0023     		movs	r3, #0
 2493 029e 2521     		movs	r1, #37
 2494 02a0 BB72     		strb	r3, [r7, #10]
 2495 02a2 42F28203 		movw	r3, #8322
 2496 02a6 0F20     		movs	r0, #15
 2497 02a8 0093     		str	r3, [sp]
 2498 02aa 3A46     		mov	r2, r7
 2499 02ac 4FF41063 		mov	r3, #2304
 2500 02b0 FFF7FEFF 		bl	lib_app_call
 2501              	.LVL382:
 2502 02b4 9420     		movs	r0, #148
 2503 02b6 3946     		mov	r1, r7
 2504 02b8 FFF7FEFF 		bl	sys_func1
 2505              	.LVL383:
 2506              	.L233:
 2507              	.LBE75:
 775:src/camtest.c ****           LcdOnLayerShow(K_DispOverlay2, TRUE);
 2508              		.loc 1 775 0 is_stmt 1
 2509 02bc 0120     		movs	r0, #1
 2510 02be FFF7FEFF 		bl	LcdOnLayerShow.constprop.1
 2511              	.LVL384:
 776:src/camtest.c ****           break;
 2512              		.loc 1 776 0
 2513 02c2 4FF0050A 		mov	r10, #5
 772:src/camtest.c ****           preview = &previewlcd;
 2514              		.loc 1 772 0
 2515 02c6 48F20107 		movw	r7, #32769
 2516              	.LVL385:
 2517              		.loc 1 776 0
 2518 02ca 31E0     		b	.L221
 2519              	.L353:
 2520              		.align	2
 2521              	.L352:
 2522 02cc 25000000 		.word	.LC2
 2523 02d0 38000000 		.word	.LC3
 2524 02d4 40000000 		.word	.LC4
 2525 02d8 008C0A00 		.word	691200
 2526 02dc 53000000 		.word	.LC5
 2527 02e0 5E000000 		.word	.LC6
 2528 02e4 69000000 		.word	.LC7
 2529              	.LVL386:
 2530              	.L348:
 745:src/camtest.c ****       switch (curr_mode) {
 2531              		.loc 1 745 0
 2532 02e8 B9F1060F 		cmp	r9, #6
 2533 02ec 6BD0     		beq	.L220
 2534              	.LVL387:
 2535              	.L228:
 2536              	.LBB76:
 777:src/camtest.c ****         case MODE_F320_D:
 778:src/camtest.c ****           mode    = SENSOR_MODE_FULL_SCREEN|SENSOR_MODE_320;
 779:src/camtest.c ****           preview = &previewlcd;
 780:src/camtest.c ****           DispLineMW("320 Decode", MW_LINE9, MW_CLRDISP|MW_CENTER|MW_SPFONT);
 2537              		.loc 1 780 0
 2538 02ee 9220     		movs	r0, #146
 2539 02f0 0B21     		movs	r1, #11
 2540 02f2 FFF7FEFF 		bl	sys_func1
ARM GAS  C:\Users\AHMED~1.ELE\AppData\Local\Temp\cc594ylT.s 			page 62


 2541              	.LVL388:
 2542 02f6 0746     		mov	r7, r0
 2543 02f8 98B1     		cbz	r0, .L234
 2544              		.loc 1 780 0 is_stmt 0 discriminator 1
 2545 02fa C649     		ldr	r1, .L354
 2546 02fc 0A22     		movs	r2, #10
 2547 02fe FFF7FEFF 		bl	memcpy
 2548              	.LVL389:
 2549 0302 0023     		movs	r3, #0
 2550 0304 2521     		movs	r1, #37
 2551 0306 BB72     		strb	r3, [r7, #10]
 2552 0308 42F28203 		movw	r3, #8322
 2553 030c 0F20     		movs	r0, #15
 2554 030e 0093     		str	r3, [sp]
 2555 0310 3A46     		mov	r2, r7
 2556 0312 4FF41063 		mov	r3, #2304
 2557 0316 FFF7FEFF 		bl	lib_app_call
 2558              	.LVL390:
 2559 031a 9420     		movs	r0, #148
 2560 031c 3946     		mov	r1, r7
 2561 031e FFF7FEFF 		bl	sys_func1
 2562              	.LVL391:
 2563              	.L234:
 2564              	.LBE76:
 781:src/camtest.c ****           LcdOnLayerShow(K_DispOverlay2, TRUE);
 2565              		.loc 1 781 0 is_stmt 1
 2566 0322 0120     		movs	r0, #1
 2567 0324 FFF7FEFF 		bl	LcdOnLayerShow.constprop.1
 2568              	.LVL392:
 782:src/camtest.c ****           break;
 2569              		.loc 1 782 0
 2570 0328 4FF0060A 		mov	r10, #6
 778:src/camtest.c ****           preview = &previewlcd;
 2571              		.loc 1 778 0
 2572 032c 4FF40047 		mov	r7, #32768
 2573              	.LVL393:
 2574              	.L221:
 783:src/camtest.c ****       }
 784:src/camtest.c **** #ifdef os_image_sensor_set_mode
 785:src/camtest.c ****       if (gSensorOpened) {
 2575              		.loc 1 785 0
 2576 0330 B94B     		ldr	r3, .L354+4
 2577 0332 1B78     		ldrb	r3, [r3]	@ zero_extendqisi2
 2578 0334 73B3     		cbz	r3, .L235
 786:src/camtest.c ****         if (!SensorSwMode(mode, preview, &framecfg, oned_height)) {
 2579              		.loc 1 786 0
 2580 0336 3846     		mov	r0, r7
 2581 0338 0BA9     		add	r1, sp, #44
 2582              	.LVL394:
 2583 033a 0EAA     		add	r2, sp, #56
 2584 033c 0523     		movs	r3, #5
 2585 033e FFF7FEFF 		bl	SensorSwMode
 2586              	.LVL395:
 2587 0342 8146     		mov	r9, r0
 2588              	.LVL396:
 2589 0344 0028     		cmp	r0, #0
 2590 0346 3DD1     		bne	.L271
ARM GAS  C:\Users\AHMED~1.ELE\AppData\Local\Temp\cc594ylT.s 			page 63


 2591              	.LVL397:
 2592              	.LBB77:
 787:src/camtest.c ****           DispLineMW("SenSw failed!", MW_LINE9, MW_CLREOL|MW_SPFONT);
 2593              		.loc 1 787 0
 2594 0348 9220     		movs	r0, #146
 2595 034a 0E21     		movs	r1, #14
 2596 034c FFF7FEFF 		bl	sys_func1
 2597              	.LVL398:
 2598 0350 0646     		mov	r6, r0
 2599              	.LVL399:
 2600 0352 98B1     		cbz	r0, .L237
 2601              		.loc 1 787 0 is_stmt 0 discriminator 1
 2602 0354 B149     		ldr	r1, .L354+8
 2603 0356 0D22     		movs	r2, #13
 2604 0358 FFF7FEFF 		bl	memcpy
 2605              	.LVL400:
 2606 035c 86F80D90 		strb	r9, [r6, #13]
 2607              	.LVL401:
 2608              	.L349:
 2609 0360 42F22003 		movw	r3, #8224
 2610 0364 2521     		movs	r1, #37
 2611 0366 0093     		str	r3, [sp]
 2612 0368 0F20     		movs	r0, #15
 2613 036a 3246     		mov	r2, r6
 2614 036c 4FF41063 		mov	r3, #2304
 2615 0370 FFF7FEFF 		bl	lib_app_call
 2616              	.LVL402:
 2617 0374 9420     		movs	r0, #148
 2618 0376 3146     		mov	r1, r6
 2619 0378 FFF7FEFF 		bl	sys_func1
 2620              	.LVL403:
 2621              	.L237:
 2622              	.LBE77:
 788:src/camtest.c ****           LcdOnLayerShow(K_DispOverlay2, TRUE);
 2623              		.loc 1 788 0 is_stmt 1
 2624 037c 0120     		movs	r0, #1
 2625 037e FFF7FEFF 		bl	LcdOnLayerShow.constprop.1
 2626              	.LVL404:
 789:src/camtest.c ****           APM_WaitKey(KBD_TIMEOUT, 0);
 2627              		.loc 1 789 0
 2628 0382 0023     		movs	r3, #0
 2629 0384 0321     		movs	r1, #3
 2630 0386 0093     		str	r3, [sp]
 2631 0388 42F22832 		movw	r2, #9000
 2632 038c 1020     		movs	r0, #16
 2633 038e FFF7FEFF 		bl	lib_app_call
 2634              	.LVL405:
 790:src/camtest.c ****           break;
 2635              		.loc 1 790 0
 2636 0392 6CE1     		b	.L238
 2637              	.LVL406:
 2638              	.L235:
 791:src/camtest.c ****         }
 792:src/camtest.c ****       }
 793:src/camtest.c ****       else {
 794:src/camtest.c ****         SensorClose();
 2639              		.loc 1 794 0
ARM GAS  C:\Users\AHMED~1.ELE\AppData\Local\Temp\cc594ylT.s 			page 64


 2640 0394 FFF7FEFF 		bl	SensorClose
 2641              	.LVL407:
 795:src/camtest.c ****         if (!SensorOpen(mode, preview, &framecfg, oned_height)) {
 2642              		.loc 1 795 0
 2643 0398 3846     		mov	r0, r7
 2644 039a 0BA9     		add	r1, sp, #44
 2645              	.LVL408:
 2646 039c 0EAA     		add	r2, sp, #56
 2647 039e 0523     		movs	r3, #5
 2648 03a0 FFF7FEFF 		bl	SensorOpen
 2649              	.LVL409:
 2650 03a4 8146     		mov	r9, r0
 2651              	.LVL410:
 2652 03a6 68B9     		cbnz	r0, .L271
 2653              	.LVL411:
 2654              	.LBB78:
 796:src/camtest.c ****           DispLineMW("SenOpen failed!", MW_LINE9, MW_CLREOL|MW_SPFONT);
 2655              		.loc 1 796 0
 2656 03a8 9220     		movs	r0, #146
 2657 03aa 1021     		movs	r1, #16
 2658 03ac FFF7FEFF 		bl	sys_func1
 2659              	.LVL412:
 2660 03b0 0646     		mov	r6, r0
 2661              	.LVL413:
 2662 03b2 0028     		cmp	r0, #0
 2663 03b4 E2D0     		beq	.L237
 2664              		.loc 1 796 0 is_stmt 0 discriminator 1
 2665 03b6 9A49     		ldr	r1, .L354+12
 2666 03b8 0F22     		movs	r2, #15
 2667 03ba FFF7FEFF 		bl	memcpy
 2668              	.LVL414:
 2669 03be 86F80F90 		strb	r9, [r6, #15]
 2670 03c2 CDE7     		b	.L349
 2671              	.LVL415:
 2672              	.L271:
 2673              	.LBE78:
 2674 03c4 D146     		mov	r9, r10
 2675              	.L220:
 2676              	.LVL416:
 797:src/camtest.c ****           LcdOnLayerShow(K_DispOverlay2, TRUE);
 798:src/camtest.c ****           APM_WaitKey(KBD_TIMEOUT, 0);
 799:src/camtest.c ****           break;
 800:src/camtest.c ****         }
 801:src/camtest.c ****       }
 802:src/camtest.c **** #else
 803:src/camtest.c ****       SensorClose();
 804:src/camtest.c ****       if (!SensorOpen(mode, preview, &framecfg, oned_height)) {
 805:src/camtest.c ****         return;
 806:src/camtest.c ****       }
 807:src/camtest.c **** #endif
 808:src/camtest.c ****       last_mode = curr_mode;
 809:src/camtest.c ****     }
 810:src/camtest.c **** 
 811:src/camtest.c ****     // Get Frame if not preview only
 812:src/camtest.c ****     //cap_start = TickGet();
 813:src/camtest.c ****     for (i = 0; i < 2; i++) {  // retry max twice
 814:src/camtest.c ****       ret = os_image_sensor_get_frame(pY800Dat);
ARM GAS  C:\Users\AHMED~1.ELE\AppData\Local\Temp\cc594ylT.s 			page 65


 2677              		.loc 1 814 0 is_stmt 1
 2678 03c6 40F2C910 		movw	r0, #457
 2679 03ca 0499     		ldr	r1, [sp, #16]
 2680 03cc FFF7FEFF 		bl	sys_func1
 2681              	.LVL417:
 815:src/camtest.c ****       if (ret == -58) {  // according to KK -58 => thread not ready => delay & retry once.
 2682              		.loc 1 815 0
 2683 03d0 10F13A0F 		cmn	r0, #58
 814:src/camtest.c ****       if (ret == -58) {  // according to KK -58 => thread not ready => delay & retry once.
 2684              		.loc 1 814 0
 2685 03d4 8246     		mov	r10, r0
 2686              	.LVL418:
 2687              		.loc 1 815 0
 2688 03d6 0FD1     		bne	.L240
 816:src/camtest.c ****         Delay10ms(1);
 2689              		.loc 1 816 0
 2690 03d8 0120     		movs	r0, #1
 2691              	.LVL419:
 2692 03da FFF7FEFF 		bl	Delay10ms
 2693              	.LVL420:
 814:src/camtest.c ****       if (ret == -58) {  // according to KK -58 => thread not ready => delay & retry once.
 2694              		.loc 1 814 0
 2695 03de 40F2C910 		movw	r0, #457
 2696 03e2 0499     		ldr	r1, [sp, #16]
 2697 03e4 FFF7FEFF 		bl	sys_func1
 2698              	.LVL421:
 815:src/camtest.c ****       if (ret == -58) {  // according to KK -58 => thread not ready => delay & retry once.
 2699              		.loc 1 815 0
 2700 03e8 10F13A0F 		cmn	r0, #58
 814:src/camtest.c ****       if (ret == -58) {  // according to KK -58 => thread not ready => delay & retry once.
 2701              		.loc 1 814 0
 2702 03ec 8246     		mov	r10, r0
 2703              	.LVL422:
 815:src/camtest.c ****       if (ret == -58) {  // according to KK -58 => thread not ready => delay & retry once.
 2704              		.loc 1 815 0
 2705 03ee 03D1     		bne	.L240
 2706              		.loc 1 816 0
 2707 03f0 0120     		movs	r0, #1
 2708              	.LVL423:
 2709 03f2 FFF7FEFF 		bl	Delay10ms
 2710              	.LVL424:
 2711 03f6 02E0     		b	.L241
 2712              	.LVL425:
 2713              	.L240:
 817:src/camtest.c ****         continue;
 818:src/camtest.c ****       }
 819:src/camtest.c ****       else 
 820:src/camtest.c ****         break;
 821:src/camtest.c ****     }
 822:src/camtest.c ****     if (ret < 0) {
 2714              		.loc 1 822 0
 2715 03f8 BAF1000F 		cmp	r10, #0
 2716 03fc 49DA     		bge	.L242
 2717              	.LVL426:
 2718              	.L241:
 823:src/camtest.c ****       sprintf(dispbuf, "get_frame:%d", ret);
 2719              		.loc 1 823 0
ARM GAS  C:\Users\AHMED~1.ELE\AppData\Local\Temp\cc594ylT.s 			page 66


 2720 03fe 5246     		mov	r2, r10
 2721 0400 8849     		ldr	r1, .L354+16
 2722 0402 12A8     		add	r0, sp, #72
 2723 0404 FFF7FEFF 		bl	sprintf
 2724              	.LVL427:
 2725              	.LBB79:
 824:src/camtest.c ****       DispLineMW(dispbuf, MW_LINE9, MW_CLREOL|MW_SPFONT);
 2726              		.loc 1 824 0
 2727 0408 12A8     		add	r0, sp, #72
 2728 040a FFF7FEFF 		bl	strlen
 2729              	.LVL428:
 2730 040e 8246     		mov	r10, r0
 2731              	.LVL429:
 2732 0410 0AF10101 		add	r1, r10, #1
 2733 0414 9220     		movs	r0, #146
 2734              	.LVL430:
 2735 0416 FFF7FEFF 		bl	sys_func1
 2736              	.LVL431:
 2737 041a 0646     		mov	r6, r0
 2738              	.LVL432:
 2739 041c A0B1     		cbz	r0, .L243
 2740              		.loc 1 824 0 is_stmt 0 discriminator 1
 2741 041e 12A9     		add	r1, sp, #72
 2742 0420 5246     		mov	r2, r10
 2743 0422 FFF7FEFF 		bl	memcpy
 2744              	.LVL433:
 2745 0426 0023     		movs	r3, #0
 2746 0428 2521     		movs	r1, #37
 2747 042a 06F80A30 		strb	r3, [r6, r10]
 2748 042e 42F22003 		movw	r3, #8224
 2749 0432 0F20     		movs	r0, #15
 2750 0434 0093     		str	r3, [sp]
 2751 0436 3246     		mov	r2, r6
 2752 0438 4FF41063 		mov	r3, #2304
 2753 043c FFF7FEFF 		bl	lib_app_call
 2754              	.LVL434:
 2755 0440 9420     		movs	r0, #148
 2756 0442 3146     		mov	r1, r6
 2757 0444 FFF7FEFF 		bl	sys_func1
 2758              	.LVL435:
 2759              	.L243:
 2760              	.LBE79:
 825:src/camtest.c ****       if (curr_mode > MODE_W320_SD) {
 826:src/camtest.c ****         LcdOnLayerShow(K_DispOverlay2, TRUE);
 827:src/camtest.c ****       }
 828:src/camtest.c ****       keyin=APM_WaitKey(KBD_TIMEOUT, 0);
 2761              		.loc 1 828 0 is_stmt 1
 2762 0448 4FF0000A 		mov	r10, #0
 2763              	.LVL436:
 826:src/camtest.c ****       }
 2764              		.loc 1 826 0
 2765 044c 0120     		movs	r0, #1
 2766 044e FFF7FEFF 		bl	LcdOnLayerShow.constprop.1
 2767              	.LVL437:
 2768              		.loc 1 828 0
 2769 0452 5346     		mov	r3, r10
 2770 0454 CDF800A0 		str	r10, [sp]
ARM GAS  C:\Users\AHMED~1.ELE\AppData\Local\Temp\cc594ylT.s 			page 67


 2771 0458 0321     		movs	r1, #3
 2772 045a 42F22832 		movw	r2, #9000
 2773 045e 1020     		movs	r0, #16
 2774 0460 FFF7FEFF 		bl	lib_app_call
 2775              	.LVL438:
 829:src/camtest.c ****       DispClrBelowMW(MW_LINE7);
 2776              		.loc 1 829 0
 2777 0464 CDF800A0 		str	r10, [sp]
 2778 0468 2321     		movs	r1, #35
 2779 046a 4FF4E062 		mov	r2, #1792
 828:src/camtest.c ****       DispClrBelowMW(MW_LINE7);
 2780              		.loc 1 828 0
 2781 046e 0646     		mov	r6, r0
 2782              	.LVL439:
 2783              		.loc 1 829 0
 2784 0470 5346     		mov	r3, r10
 2785 0472 0F20     		movs	r0, #15
 2786              	.LVL440:
 2787 0474 FFF7FEFF 		bl	lib_app_call
 2788              	.LVL441:
 830:src/camtest.c ****       continue;
 2789              		.loc 1 830 0
 2790 0478 F5E0     		b	.L244
 2791              	.LVL442:
 2792              	.L246:
 831:src/camtest.c ****     }
 832:src/camtest.c ****     while ((ret=os_image_sensor_get_frame_complete())==0) {
 833:src/camtest.c ****       if ((keyin=GetCharMW())!=0) break;
 2793              		.loc 1 833 0
 2794 047a 0092     		str	r2, [sp]
 2795 047c 0F20     		movs	r0, #15
 2796              	.LVL443:
 2797 047e 1621     		movs	r1, #22
 2798 0480 1346     		mov	r3, r2
 2799 0482 FFF7FEFF 		bl	lib_app_call
 2800              	.LVL444:
 2801 0486 0646     		mov	r6, r0
 2802 0488 50B9     		cbnz	r0, .L245
 834:src/camtest.c ****       os_sleep();
 2803              		.loc 1 834 0
 2804 048a 4FF4CE70 		mov	r0, #412
 2805              	.LVL445:
 2806 048e FFF7FEFF 		bl	sys_func0
 2807              	.LVL446:
 2808              	.L242:
 832:src/camtest.c ****       if ((keyin=GetCharMW())!=0) break;
 2809              		.loc 1 832 0
 2810 0492 4FF4E570 		mov	r0, #458
 2811 0496 FFF7FEFF 		bl	sys_func0
 2812              	.LVL447:
 2813 049a 0246     		mov	r2, r0
 2814 049c 0028     		cmp	r0, #0
 2815 049e ECD0     		beq	.L246
 2816              	.LVL448:
 2817              	.L245:
 835:src/camtest.c ****     }
 836:src/camtest.c ****     //cap_tick = TickRun10ms(cap_start);
ARM GAS  C:\Users\AHMED~1.ELE\AppData\Local\Temp\cc594ylT.s 			page 68


 837:src/camtest.c **** 
 838:src/camtest.c ****     // Decode
 839:src/camtest.c ****     DispClrBelowMW(MW_LINE8);
 2818              		.loc 1 839 0
 2819 04a0 4FF0000A 		mov	r10, #0
 2820 04a4 0F20     		movs	r0, #15
 2821 04a6 CDF800A0 		str	r10, [sp]
 2822 04aa 2321     		movs	r1, #35
 2823 04ac 4FF40062 		mov	r2, #2048
 2824 04b0 5346     		mov	r3, r10
 2825 04b2 FFF7FEFF 		bl	lib_app_call
 2826              	.LVL449:
 840:src/camtest.c ****     if ((pbar_dat != NULL) && (pbar_out != NULL) && (pdecoded_str != NULL) && (psym_type != NULL) )
 2827              		.loc 1 840 0
 2828 04b6 002C     		cmp	r4, #0
 2829 04b8 00F08F80 		beq	.L247
 2830              		.loc 1 840 0 is_stmt 0 discriminator 1
 2831 04bc 002D     		cmp	r5, #0
 2832 04be 00F08C80 		beq	.L247
 2833              		.loc 1 840 0 discriminator 2
 2834 04c2 B8F1000F 		cmp	r8, #0
 2835 04c6 00F08880 		beq	.L247
 2836              		.loc 1 840 0 discriminator 3
 2837 04ca 059B     		ldr	r3, [sp, #20]
 2838 04cc 002B     		cmp	r3, #0
 2839 04ce 00F08480 		beq	.L247
 841:src/camtest.c ****     {
 842:src/camtest.c ****       memset(pdecoded_str, 0, DECODEDSTR_SIZE);
 2840              		.loc 1 842 0 is_stmt 1
 2841 04d2 4FF48073 		mov	r3, #256
 2842 04d6 1A46     		mov	r2, r3
 2843 04d8 5146     		mov	r1, r10
 843:src/camtest.c ****       memset(psym_type,    0, SYMTYPE_SIZE);
 2844              		.loc 1 843 0
 2845 04da 4FF0800B 		mov	fp, #128
 842:src/camtest.c ****       memset(psym_type,    0, SYMTYPE_SIZE);
 2846              		.loc 1 842 0
 2847 04de 4046     		mov	r0, r8
 2848 04e0 0693     		str	r3, [sp, #24]
 2849              	.LVL450:
 2850 04e2 FFF7FEFF 		bl	memset
 2851              	.LVL451:
 2852              		.loc 1 843 0
 2853 04e6 5146     		mov	r1, r10
 2854 04e8 5A46     		mov	r2, fp
 2855 04ea 0598     		ldr	r0, [sp, #20]
 2856 04ec FFF7FEFF 		bl	memset
 2857              	.LVL452:
 844:src/camtest.c **** 
 845:src/camtest.c ****       // Try decode 1D barcode 1st
 846:src/camtest.c ****       pbar_dat->type   = framecfg.type;
 2858              		.loc 1 846 0
 2859 04f0 0E9A     		ldr	r2, [sp, #56]
 847:src/camtest.c ****       pbar_dat->width  = framecfg.width;
 848:src/camtest.c ****       pbar_dat->height = framecfg.height;
 849:src/camtest.c ****       pbar_dat->dat    = pY800Dat;
 2860              		.loc 1 849 0
ARM GAS  C:\Users\AHMED~1.ELE\AppData\Local\Temp\cc594ylT.s 			page 69


 2861 04f2 049B     		ldr	r3, [sp, #16]
 846:src/camtest.c ****       pbar_dat->width  = framecfg.width;
 2862              		.loc 1 846 0
 2863 04f4 2260     		str	r2, [r4]
 847:src/camtest.c ****       pbar_dat->width  = framecfg.width;
 2864              		.loc 1 847 0
 2865 04f6 0F9A     		ldr	r2, [sp, #60]
 850:src/camtest.c **** 
 851:src/camtest.c ****       // Enable follow line to try full image on 1D barcode. otherwise only mid 40 lines
 852:src/camtest.c ****       //BAR_1DTryHard(TRUE);  // Try full image
 853:src/camtest.c **** 
 854:src/camtest.c ****       // output parameters
 855:src/camtest.c ****       pbar_out->dat          = pdecoded_str;
 856:src/camtest.c ****       pbar_out->max_dat_len  = DECODEDSTR_SIZE;
 857:src/camtest.c ****       pbar_out->type_str     = psym_type;
 858:src/camtest.c ****       pbar_out->max_type_len = SYMTYPE_SIZE;
 859:src/camtest.c **** 
 860:src/camtest.c ****       //dec_start = TickGet();
 861:src/camtest.c ****       zb = BAR_Decode1D(pbar_out, pbar_dat);
 2866              		.loc 1 861 0
 2867 04f8 0D20     		movs	r0, #13
 847:src/camtest.c ****       pbar_dat->height = framecfg.height;
 2868              		.loc 1 847 0
 2869 04fa A280     		strh	r2, [r4, #4]	@ movhi
 848:src/camtest.c ****       pbar_dat->dat    = pY800Dat;
 2870              		.loc 1 848 0
 2871 04fc 109A     		ldr	r2, [sp, #64]
 849:src/camtest.c **** 
 2872              		.loc 1 849 0
 2873 04fe A360     		str	r3, [r4, #8]
 856:src/camtest.c ****       pbar_out->type_str     = psym_type;
 2874              		.loc 1 856 0
 2875 0500 069B     		ldr	r3, [sp, #24]
 848:src/camtest.c ****       pbar_dat->dat    = pY800Dat;
 2876              		.loc 1 848 0
 2877 0502 E280     		strh	r2, [r4, #6]	@ movhi
 856:src/camtest.c ****       pbar_out->type_str     = psym_type;
 2878              		.loc 1 856 0
 2879 0504 6B60     		str	r3, [r5, #4]
 857:src/camtest.c ****       pbar_out->max_type_len = SYMTYPE_SIZE;
 2880              		.loc 1 857 0
 2881 0506 059B     		ldr	r3, [sp, #20]
 855:src/camtest.c ****       pbar_out->max_dat_len  = DECODEDSTR_SIZE;
 2882              		.loc 1 855 0
 2883 0508 C5F80080 		str	r8, [r5]
 857:src/camtest.c ****       pbar_out->max_type_len = SYMTYPE_SIZE;
 2884              		.loc 1 857 0
 2885 050c AB60     		str	r3, [r5, #8]
 858:src/camtest.c **** 
 2886              		.loc 1 858 0
 2887 050e C5F80CB0 		str	fp, [r5, #12]
 2888              		.loc 1 861 0
 2889 0512 2346     		mov	r3, r4
 2890 0514 CDF800A0 		str	r10, [sp]
 2891 0518 5146     		mov	r1, r10
 2892 051a 2A46     		mov	r2, r5
 2893 051c FFF7FEFF 		bl	lib_app_call
ARM GAS  C:\Users\AHMED~1.ELE\AppData\Local\Temp\cc594ylT.s 			page 70


 2894              	.LVL453:
 862:src/camtest.c ****       //dec_tick  = TickRun10ms(dec_start);
 863:src/camtest.c ****       //if (zb <= 0) {
 864:src/camtest.c ****       //  enh_mode = TRUE;
 865:src/camtest.c ****       //  dec_start = TickGet();
 866:src/camtest.c ****       //  zb = BAR_Decode1DEnh(pbar_out, pbar_dat);
 867:src/camtest.c ****       //  //zb = BAR_Decode1D(pbar_out, pbar_dat);
 868:src/camtest.c ****       //  dec_tick  = TickRun10ms(dec_start);
 869:src/camtest.c ****       //}
 870:src/camtest.c **** 
 871:src/camtest.c ****       //sprintf(dispbuf, "ZB%d[%d][%d-%d]", framecfg.width, zb, cap_tick, dec_tick);
 872:src/camtest.c ****       //DispLine(dispbuf, SU_LINE6, SU_CLREOL|SU_SPFONT);
 873:src/camtest.c ****       if (zb > 0) {
 2895              		.loc 1 873 0
 2896 0520 031E     		subs	r3, r0, #0
 2897 0522 0693     		str	r3, [sp, #24]
 2898 0524 25DD     		ble	.L249
 874:src/camtest.c ****         //sprintf(dispbuf, "%s", enh_mode?"Enhanced":"Normal");
 875:src/camtest.c ****         //DispLine(dispbuf, SU_LINE6, SU_RIGHT|SU_SPFONT);
 876:src/camtest.c ****         //sprintf(dispbuf, "[%s:%s]", psym_type, pdecoded_str);
 877:src/camtest.c ****         sprintf(dispbuf, "[%s]", pdecoded_str);
 2899              		.loc 1 877 0
 2900 0526 4049     		ldr	r1, .L354+20
 2901 0528 4246     		mov	r2, r8
 2902 052a 12A8     		add	r0, sp, #72
 2903              	.LVL454:
 2904 052c FFF7FEFF 		bl	sprintf
 2905              	.LVL455:
 2906              	.LBB80:
 878:src/camtest.c ****         DispLineMW(dispbuf, MW_LINE9, MW_CLREOL|MW_SPFONT);
 2907              		.loc 1 878 0
 2908 0530 12A8     		add	r0, sp, #72
 2909 0532 FFF7FEFF 		bl	strlen
 2910              	.LVL456:
 2911 0536 0346     		mov	r3, r0
 2912              	.LVL457:
 2913 0538 591C     		adds	r1, r3, #1
 2914 053a 9220     		movs	r0, #146
 2915              	.LVL458:
 2916 053c 0893     		str	r3, [sp, #32]
 2917              	.LVL459:
 2918 053e FFF7FEFF 		bl	sys_func1
 2919              	.LVL460:
 2920 0542 8346     		mov	fp, r0
 2921 0544 A8B1     		cbz	r0, .L249
 2922              		.loc 1 878 0 is_stmt 0 discriminator 1
 2923 0546 089B     		ldr	r3, [sp, #32]
 2924 0548 12A9     		add	r1, sp, #72
 2925 054a 1A46     		mov	r2, r3
 2926 054c FFF7FEFF 		bl	memcpy
 2927              	.LVL461:
 2928 0550 089B     		ldr	r3, [sp, #32]
 2929 0552 2521     		movs	r1, #37
 2930 0554 0BF803A0 		strb	r10, [fp, r3]
 2931 0558 42F22003 		movw	r3, #8224
 2932 055c 0F20     		movs	r0, #15
 2933 055e 0093     		str	r3, [sp]
ARM GAS  C:\Users\AHMED~1.ELE\AppData\Local\Temp\cc594ylT.s 			page 71


 2934 0560 5A46     		mov	r2, fp
 2935 0562 4FF41063 		mov	r3, #2304
 2936 0566 FFF7FEFF 		bl	lib_app_call
 2937              	.LVL462:
 2938 056a 9420     		movs	r0, #148
 2939 056c 5946     		mov	r1, fp
 2940 056e FFF7FEFF 		bl	sys_func1
 2941              	.LVL463:
 2942              	.L249:
 2943              	.LBE80:
 879:src/camtest.c ****       }
 880:src/camtest.c **** 
 881:src/camtest.c ****       //dec_start = TickGet();
 882:src/camtest.c ****       //zx = onedreader_decode(pbar_out->dat, pbar_dat->dat, pbar_dat->width, pbar_dat->height, pba
 883:src/camtest.c ****       zx = BAR_ZXDecode1D(pbar_out, pbar_dat);
 2944              		.loc 1 883 0 is_stmt 1
 2945 0572 4FF0000A 		mov	r10, #0
 2946 0576 2346     		mov	r3, r4
 2947 0578 CDF800A0 		str	r10, [sp]
 2948 057c 0D20     		movs	r0, #13
 2949 057e 0321     		movs	r1, #3
 2950 0580 2A46     		mov	r2, r5
 2951 0582 FFF7FEFF 		bl	lib_app_call
 2952              	.LVL464:
 884:src/camtest.c ****       //dec_tick  = TickRun10ms(dec_start);
 885:src/camtest.c ****       //if (zx <= 0) {
 886:src/camtest.c ****       //  enh_mode = TRUE;
 887:src/camtest.c ****       //  dec_start = TickGet();
 888:src/camtest.c ****       //  zb = BAR_ZXDecode1DEnh(pbar_out, pbar_dat);
 889:src/camtest.c ****       //  //zb = BAR_ZXDecode1D(pbar_out, pbar_dat);
 890:src/camtest.c ****       //  dec_tick  = TickRun10ms(dec_start);
 891:src/camtest.c ****       //}
 892:src/camtest.c ****       //sprintf(dispbuf, "ZX%d[%d]", framecfg.width, zx);
 893:src/camtest.c ****       //DispLineMW(dispbuf, MW_LINE8, MW_CLREOL|MW_SPFONT);
 894:src/camtest.c ****       if (zx > 0) {
 2953              		.loc 1 894 0
 2954 0586 031E     		subs	r3, r0, #0
 2955 0588 0893     		str	r3, [sp, #32]
 2956 058a 40F39780 		ble	.L251
 895:src/camtest.c ****         //sprintf(dispbuf, "%s", enh_mode?"Enhanced":"Normal");
 896:src/camtest.c ****         //DispLineMW(dispbuf, MW_LINE8, MW_RIGHT|MW_SPFONT);
 897:src/camtest.c ****         //sprintf(dispbuf, "[%s:%s]", psym_type, pdecoded_str);
 898:src/camtest.c ****         sprintf(dispbuf, "[%s]", pdecoded_str);
 2957              		.loc 1 898 0
 2958 058e 2649     		ldr	r1, .L354+20
 2959 0590 4246     		mov	r2, r8
 2960 0592 12A8     		add	r0, sp, #72
 2961              	.LVL465:
 2962 0594 FFF7FEFF 		bl	sprintf
 2963              	.LVL466:
 2964              	.LBB81:
 899:src/camtest.c ****         DispLineMW(dispbuf, MW_LINE9, MW_CLREOL|MW_SPFONT);
 2965              		.loc 1 899 0
 2966 0598 12A8     		add	r0, sp, #72
 2967 059a FFF7FEFF 		bl	strlen
 2968              	.LVL467:
 2969 059e 0346     		mov	r3, r0
ARM GAS  C:\Users\AHMED~1.ELE\AppData\Local\Temp\cc594ylT.s 			page 72


 2970              	.LVL468:
 2971 05a0 591C     		adds	r1, r3, #1
 2972 05a2 9220     		movs	r0, #146
 2973              	.LVL469:
 2974 05a4 0993     		str	r3, [sp, #36]
 2975 05a6 FFF7FEFF 		bl	sys_func1
 2976              	.LVL470:
 2977 05aa 8346     		mov	fp, r0
 2978 05ac A8B1     		cbz	r0, .L247
 2979              		.loc 1 899 0 is_stmt 0 discriminator 1
 2980 05ae 099B     		ldr	r3, [sp, #36]
 2981 05b0 12A9     		add	r1, sp, #72
 2982 05b2 1A46     		mov	r2, r3
 2983 05b4 FFF7FEFF 		bl	memcpy
 2984              	.LVL471:
 2985 05b8 099B     		ldr	r3, [sp, #36]
 2986 05ba 2521     		movs	r1, #37
 2987 05bc 0BF803A0 		strb	r10, [fp, r3]
 2988 05c0 42F22003 		movw	r3, #8224
 2989 05c4 0F20     		movs	r0, #15
 2990 05c6 0093     		str	r3, [sp]
 2991 05c8 5A46     		mov	r2, fp
 2992 05ca 4FF41063 		mov	r3, #2304
 2993 05ce FFF7FEFF 		bl	lib_app_call
 2994              	.LVL472:
 2995 05d2 9420     		movs	r0, #148
 2996 05d4 5946     		mov	r1, fp
 2997 05d6 FFF7FEFF 		bl	sys_func1
 2998              	.LVL473:
 2999              	.L247:
 3000              	.LBE81:
 900:src/camtest.c ****       }
 901:src/camtest.c **** 
 902:src/camtest.c ****        // Temperary Disable 2D
 903:src/camtest.c ****        if ((zb<=0)&&(zx<=0)) {
 904:src/camtest.c ****          pbar_dat->height = framecfg.height;
 905:src/camtest.c ****          pbar_dat->dat    = pY800Dat;
 906:src/camtest.c ****          //dec_start = TickGet();
 907:src/camtest.c ****          twod = BAR_Decode2D(pbar_out, pbar_dat, DM_TIMEOUT);
 908:src/camtest.c ****          //ret = BAR_Decode2D(pbar_out, pbar_dat, 0);    // not support data matrix
 909:src/camtest.c ****          //dec_tick  = TickRun10ms(dec_start);
 910:src/camtest.c ****          //sprintf(dispbuf, "2D%d[%d-%d]", framecfg.width, cap_tick, dec_tick);
 911:src/camtest.c ****          //sprintf(dispbuf, "2D%d", framecfg.width);
 912:src/camtest.c ****          //DispLineMW(dispbuf, MW_LINE7, MW_SPFONT);
 913:src/camtest.c ****          if (twod > 0) {
 914:src/camtest.c ****            //sprintf(dispbuf, "[%s:%s]", psym_type, pdecoded_str);
 915:src/camtest.c ****            sprintf(dispbuf, "[%s]", pdecoded_str);
 916:src/camtest.c ****            DispLineMW(dispbuf, MW_LINE9, MW_CLREOL|MW_SPFONT);
 917:src/camtest.c ****          }
 918:src/camtest.c ****        } 
 919:src/camtest.c ****     }
 920:src/camtest.c ****     if ((zb > 0) || (zx > 0) || (twod > 0)) {
 3001              		.loc 1 920 0 is_stmt 1
 3002 05da 069B     		ldr	r3, [sp, #24]
 3003 05dc 002B     		cmp	r3, #0
 3004 05de 05DC     		bgt	.L254
 3005              	.L266:
ARM GAS  C:\Users\AHMED~1.ELE\AppData\Local\Temp\cc594ylT.s 			page 73


 3006              		.loc 1 920 0 is_stmt 0 discriminator 1
 3007 05e0 089B     		ldr	r3, [sp, #32]
 3008 05e2 002B     		cmp	r3, #0
 3009 05e4 02DC     		bgt	.L254
 3010              		.loc 1 920 0 discriminator 2
 3011 05e6 039B     		ldr	r3, [sp, #12]
 3012 05e8 002B     		cmp	r3, #0
 3013 05ea 01DD     		ble	.L255
 3014              	.L254:
 921:src/camtest.c ****       Short2Beep();
 3015              		.loc 1 921 0 is_stmt 1
 3016 05ec FFF7FEFF 		bl	Short2Beep
 3017              	.LVL474:
 3018              	.L255:
 922:src/camtest.c ****     }
 923:src/camtest.c **** 
 924:src/camtest.c ****     // extract Image and display
 925:src/camtest.c ****     if (curr_mode <= MODE_W320_SD) {
 926:src/camtest.c ****       //T_LCDBUF *plcd = (T_LCDBUF *) MallocMW(sizeof(T_LCDBUF));
 927:src/camtest.c ****       //memset(plcd, 0, sizeof(T_LCDBUF));
 928:src/camtest.c ****       //plcd->w_hwidth = 160;
 929:src/camtest.c ****       //plcd->w_vwidth = 120;
 930:src/camtest.c ****       //plcd->w_hstart = 160;
 931:src/camtest.c ****       //plcd->w_vstart = 0;
 932:src/camtest.c ****       //Y800toLcd(plcd, &framecfg, pY800Dat);
 933:src/camtest.c ****       //os_disp_putg(plcd);
 934:src/camtest.c ****       //FreeMW(plcd);
 935:src/camtest.c ****     }
 936:src/camtest.c ****     else {   // update layer2 for full screen mode only
 937:src/camtest.c ****       LcdOnLayerShow(K_DispOverlay2, TRUE);
 3019              		.loc 1 937 0
 3020 05f0 0120     		movs	r0, #1
 3021 05f2 FFF7FEFF 		bl	LcdOnLayerShow.constprop.1
 3022              	.LVL475:
 938:src/camtest.c ****     }
 939:src/camtest.c **** 
 940:src/camtest.c ****     if ((zb > 0) || (zx > 0) || (twod > 0)) {
 3023              		.loc 1 940 0
 3024 05f6 069B     		ldr	r3, [sp, #24]
 3025 05f8 002B     		cmp	r3, #0
 3026 05fa 17DC     		bgt	.L273
 3027              		.loc 1 940 0 is_stmt 0 discriminator 1
 3028 05fc 089B     		ldr	r3, [sp, #32]
 3029 05fe 002B     		cmp	r3, #0
 3030 0600 14DC     		bgt	.L273
 941:src/camtest.c **** //      LcdOnLayerShow(K_DispOverlay2, FALSE);
 942:src/camtest.c **** //      LcdOnLayerEnable(FALSE);
 943:src/camtest.c **** //      DispLineMW("Scan Success!", MW_LINE5, MW_CLRDISP|MW_CENTER|MW_BIGFONT);
 944:src/camtest.c **** //      APM_WaitKey(500, 0);
 945:src/camtest.c **** //      //DispClrBelowMW(MW_LINE1);
 946:src/camtest.c **** //      LcdOnLayerShow(K_DispOverlay2, TRUE);
 947:src/camtest.c **** //      LcdOnLayerEnable(TRUE);
 948:src/camtest.c ****       timeout = 1*TIME_1SEC;
 949:src/camtest.c ****     }
 950:src/camtest.c ****     else 
 951:src/camtest.c ****       timeout = 0;
 3031              		.loc 1 951 0 is_stmt 1 discriminator 2
ARM GAS  C:\Users\AHMED~1.ELE\AppData\Local\Temp\cc594ylT.s 			page 74


 3032 0602 039B     		ldr	r3, [sp, #12]
 3033 0604 002B     		cmp	r3, #0
 3034 0606 CCBF     		ite	gt
 3035 0608 4FF0640A 		movgt	r10, #100
 3036 060c 4FF0000A 		movle	r10, #0
 3037 0610 0EE0     		b	.L256
 3038              	.L355:
 3039 0612 00BF     		.align	2
 3040              	.L354:
 3041 0614 69000000 		.word	.LC7
 3042 0618 00000000 		.word	.LANCHOR0
 3043 061c 74000000 		.word	.LC8
 3044 0620 82000000 		.word	.LC9
 3045 0624 92000000 		.word	.LC10
 3046 0628 9F000000 		.word	.LC11
 3047              	.L273:
 948:src/camtest.c ****     }
 3048              		.loc 1 948 0
 3049 062c 4FF0640A 		mov	r10, #100
 3050              	.L256:
 3051              	.LVL476:
 952:src/camtest.c **** 
 953:src/camtest.c **** #if 1
 954:src/camtest.c ****     free_run = FreeRunMW();
 3052              		.loc 1 954 0
 3053 0630 40F29F10 		movw	r0, #415
 3054 0634 FFF7FEFF 		bl	sys_func0
 3055              	.LVL477:
 3056 0638 8346     		mov	fp, r0
 3057              	.LVL478:
 3058              	.L257:
 955:src/camtest.c ****     while (FreeRunMW() < free_run + timeout) {
 3059              		.loc 1 955 0
 3060 063a 40F29F10 		movw	r0, #415
 3061 063e FFF7FEFF 		bl	sys_func0
 3062              	.LVL479:
 3063 0642 0BEB0A03 		add	r3, fp, r10
 3064 0646 9842     		cmp	r0, r3
 3065 0648 0DD2     		bcs	.L244
 956:src/camtest.c ****       if ((keyin = GetCharMW()) != 0)
 3066              		.loc 1 956 0
 3067 064a 0022     		movs	r2, #0
 3068 064c 0F20     		movs	r0, #15
 3069 064e 0092     		str	r2, [sp]
 3070 0650 1621     		movs	r1, #22
 3071 0652 1346     		mov	r3, r2
 3072 0654 FFF7FEFF 		bl	lib_app_call
 3073              	.LVL480:
 3074 0658 0646     		mov	r6, r0
 3075 065a 20B9     		cbnz	r0, .L244
 957:src/camtest.c ****         break;
 958:src/camtest.c ****       SleepMW();
 3076              		.loc 1 958 0
 3077 065c 4FF4CE70 		mov	r0, #412
 3078              	.LVL481:
 3079 0660 FFF7FEFF 		bl	sys_func0
 3080              	.LVL482:
ARM GAS  C:\Users\AHMED~1.ELE\AppData\Local\Temp\cc594ylT.s 			page 75


 3081 0664 E9E7     		b	.L257
 3082              	.LVL483:
 3083              	.L244:
 726:src/camtest.c ****     #ifdef os_disp_bl_control
 3084              		.loc 1 726 0
 3085 0666 112E     		cmp	r6, #17
 3086 0668 01D0     		beq	.L238
 3087 066a CA46     		mov	r10, r9
 3088 066c 65E5     		b	.L259
 3089              	.LVL484:
 3090              	.L238:
 959:src/camtest.c ****     }
 960:src/camtest.c **** #else
 961:src/camtest.c ****     keyin = GetCharMW();
 962:src/camtest.c **** #endif
 963:src/camtest.c ****   }  // while
 964:src/camtest.c **** 
 965:src/camtest.c ****   if (pbar_dat  != NULL)    FreeMW(pbar_dat);
 3091              		.loc 1 965 0
 3092 066e 1CB1     		cbz	r4, .L260
 3093              		.loc 1 965 0 is_stmt 0 discriminator 1
 3094 0670 9420     		movs	r0, #148
 3095 0672 2146     		mov	r1, r4
 3096 0674 FFF7FEFF 		bl	sys_func1
 3097              	.LVL485:
 3098              	.L260:
 966:src/camtest.c ****   if (pbar_out != NULL)     FreeMW(pbar_out);
 3099              		.loc 1 966 0 is_stmt 1
 3100 0678 1DB1     		cbz	r5, .L261
 3101              		.loc 1 966 0 is_stmt 0 discriminator 1
 3102 067a 9420     		movs	r0, #148
 3103 067c 2946     		mov	r1, r5
 3104 067e FFF7FEFF 		bl	sys_func1
 3105              	.LVL486:
 3106              	.L261:
 967:src/camtest.c ****   if (pdecoded_str != NULL) FreeMW(pdecoded_str);
 3107              		.loc 1 967 0 is_stmt 1
 3108 0682 B8F1000F 		cmp	r8, #0
 3109 0686 03D0     		beq	.L262
 3110              		.loc 1 967 0 is_stmt 0 discriminator 1
 3111 0688 9420     		movs	r0, #148
 3112 068a 4146     		mov	r1, r8
 3113 068c FFF7FEFF 		bl	sys_func1
 3114              	.LVL487:
 3115              	.L262:
 968:src/camtest.c ****   if (psym_type!= NULL)     FreeMW(psym_type);
 3116              		.loc 1 968 0 is_stmt 1
 3117 0690 059B     		ldr	r3, [sp, #20]
 3118 0692 1BB1     		cbz	r3, .L263
 3119              		.loc 1 968 0 is_stmt 0 discriminator 1
 3120 0694 9420     		movs	r0, #148
 3121 0696 1946     		mov	r1, r3
 3122 0698 FFF7FEFF 		bl	sys_func1
 3123              	.LVL488:
 3124              	.L263:
 969:src/camtest.c ****   if (pY800Dat != NULL)     FreeMW(pY800Dat);
 3125              		.loc 1 969 0 is_stmt 1
ARM GAS  C:\Users\AHMED~1.ELE\AppData\Local\Temp\cc594ylT.s 			page 76


 3126 069c 049B     		ldr	r3, [sp, #16]
 3127 069e 1BB1     		cbz	r3, .L264
 3128              		.loc 1 969 0 is_stmt 0 discriminator 1
 3129 06a0 9420     		movs	r0, #148
 3130 06a2 1946     		mov	r1, r3
 3131 06a4 FFF7FEFF 		bl	sys_func1
 3132              	.LVL489:
 3133              	.L264:
 970:src/camtest.c **** 
 971:src/camtest.c ****   // Close image sensor
 972:src/camtest.c ****   SensorClose();
 3134              		.loc 1 972 0 is_stmt 1
 3135 06a8 FFF7FEFF 		bl	SensorClose
 3136              	.LVL490:
 973:src/camtest.c ****   LcdOnLayerShow(K_DispOverlay2, FALSE);
 3137              		.loc 1 973 0
 3138 06ac 0020     		movs	r0, #0
 3139 06ae FFF7FEFF 		bl	LcdOnLayerShow.constprop.1
 3140              	.LVL491:
 3141              	.LBB82:
 3142              	.LBB83:
 278:src/camtest.c ****   }
 3143              		.loc 1 278 0
 3144 06b2 0F21     		movs	r1, #15
 3145 06b4 1620     		movs	r0, #22
 3146 06b6 FFF7FEFF 		bl	sys_func1
 3147              	.LVL492:
 3148              	.LBE83:
 3149              	.LBE82:
 3150 06ba 3BE0     		b	.L209
 3151              	.LVL493:
 3152              	.L251:
 903:src/camtest.c ****          pbar_dat->height = framecfg.height;
 3153              		.loc 1 903 0
 3154 06bc 069B     		ldr	r3, [sp, #24]
 3155 06be 002B     		cmp	r3, #0
 3156 06c0 94DC     		bgt	.L254
 904:src/camtest.c ****          pbar_dat->dat    = pY800Dat;
 3157              		.loc 1 904 0
 3158 06c2 109B     		ldr	r3, [sp, #64]
 907:src/camtest.c ****          //ret = BAR_Decode2D(pbar_out, pbar_dat, 0);    // not support data matrix
 3159              		.loc 1 907 0
 3160 06c4 0D20     		movs	r0, #13
 3161              	.LVL494:
 904:src/camtest.c ****          pbar_dat->dat    = pY800Dat;
 3162              		.loc 1 904 0
 3163 06c6 E380     		strh	r3, [r4, #6]	@ movhi
 905:src/camtest.c ****          //dec_start = TickGet();
 3164              		.loc 1 905 0
 3165 06c8 049B     		ldr	r3, [sp, #16]
 907:src/camtest.c ****          //ret = BAR_Decode2D(pbar_out, pbar_dat, 0);    // not support data matrix
 3166              		.loc 1 907 0
 3167 06ca 0121     		movs	r1, #1
 905:src/camtest.c ****          //dec_start = TickGet();
 3168              		.loc 1 905 0
 3169 06cc A360     		str	r3, [r4, #8]
 907:src/camtest.c ****          //ret = BAR_Decode2D(pbar_out, pbar_dat, 0);    // not support data matrix
ARM GAS  C:\Users\AHMED~1.ELE\AppData\Local\Temp\cc594ylT.s 			page 77


 3170              		.loc 1 907 0
 3171 06ce 2A46     		mov	r2, r5
 3172 06d0 2346     		mov	r3, r4
 3173 06d2 CDF800A0 		str	r10, [sp]
 3174 06d6 FFF7FEFF 		bl	lib_app_call
 3175              	.LVL495:
 913:src/camtest.c ****            //sprintf(dispbuf, "[%s:%s]", psym_type, pdecoded_str);
 3176              		.loc 1 913 0
 3177 06da 031E     		subs	r3, r0, #0
 3178 06dc 0393     		str	r3, [sp, #12]
 3179 06de 7FF77FAF 		ble	.L266
 915:src/camtest.c ****            DispLineMW(dispbuf, MW_LINE9, MW_CLREOL|MW_SPFONT);
 3180              		.loc 1 915 0
 3181 06e2 1649     		ldr	r1, .L356
 3182 06e4 4246     		mov	r2, r8
 3183 06e6 12A8     		add	r0, sp, #72
 3184              	.LVL496:
 3185 06e8 FFF7FEFF 		bl	sprintf
 3186              	.LVL497:
 3187              	.LBB84:
 916:src/camtest.c ****          }
 3188              		.loc 1 916 0
 3189 06ec 12A8     		add	r0, sp, #72
 3190 06ee FFF7FEFF 		bl	strlen
 3191              	.LVL498:
 3192 06f2 0346     		mov	r3, r0
 3193              	.LVL499:
 3194 06f4 591C     		adds	r1, r3, #1
 3195 06f6 9220     		movs	r0, #146
 3196              	.LVL500:
 3197 06f8 0993     		str	r3, [sp, #36]
 3198 06fa FFF7FEFF 		bl	sys_func1
 3199              	.LVL501:
 3200 06fe 8346     		mov	fp, r0
 3201 0700 0028     		cmp	r0, #0
 3202 0702 3FF46DAF 		beq	.L266
 916:src/camtest.c ****          }
 3203              		.loc 1 916 0 is_stmt 0 discriminator 1
 3204 0706 099B     		ldr	r3, [sp, #36]
 3205 0708 12A9     		add	r1, sp, #72
 3206 070a 1A46     		mov	r2, r3
 3207 070c FFF7FEFF 		bl	memcpy
 3208              	.LVL502:
 3209 0710 099B     		ldr	r3, [sp, #36]
 3210 0712 2521     		movs	r1, #37
 3211 0714 0BF803A0 		strb	r10, [fp, r3]
 3212 0718 42F22003 		movw	r3, #8224
 3213 071c 5A46     		mov	r2, fp
 3214 071e 0093     		str	r3, [sp]
 3215 0720 0F20     		movs	r0, #15
 3216 0722 4FF41063 		mov	r3, #2304
 3217 0726 FFF7FEFF 		bl	lib_app_call
 3218              	.LVL503:
 3219 072a 5946     		mov	r1, fp
 3220 072c 9420     		movs	r0, #148
 3221 072e FFF7FEFF 		bl	sys_func1
 3222              	.LVL504:
ARM GAS  C:\Users\AHMED~1.ELE\AppData\Local\Temp\cc594ylT.s 			page 78


 3223 0732 55E7     		b	.L266
 3224              	.LVL505:
 3225              	.L209:
 3226              	.LBE84:
 974:src/camtest.c ****   LcdOnLayerEnable(FALSE);
 975:src/camtest.c **** }
 3227              		.loc 1 975 0 is_stmt 1
 3228 0734 0DF5137D 		add	sp, sp, #588
 3229              		.cfi_def_cfa_offset 36
 3230              		@ sp needed
 3231 0738 BDE8F08F 		pop	{r4, r5, r6, r7, r8, r9, r10, fp, pc}
 3232              	.L357:
 3233              		.align	2
 3234              	.L356:
 3235 073c 9F000000 		.word	.LC11
 3236              		.cfi_endproc
 3237              	.LFE9:
 3238              		.size	CamTestAll, .-CamTestAll
 3239              		.section	.rodata.str1.1,"aMS",%progbits,1
 3240              	.LC0:
 3241 0000 73656E73 		.ascii	"sensor_setmode:[%d]\000"
 3241      6F725F73 
 3241      65746D6F 
 3241      64653A5B 
 3241      25645D00 
 3242              	.LC1:
 3243 0014 73656E73 		.ascii	"sensor_open:[%d]\000"
 3243      6F725F6F 
 3243      70656E3A 
 3243      5B25645D 
 3243      00
 3244              	.LC2:
 3245 0025 42415244 		.ascii	"BARDLL NOT LOADED!\000"
 3245      4C4C204E 
 3245      4F54204C 
 3245      4F414445 
 3245      442100
 3246              	.LC3:
 3247 0038 43616D54 		.ascii	"CamTest\000"
 3247      65737400 
 3248              	.LC4:
 3249 0040 57616974 		.ascii	"Wait For CAM Ready\000"
 3249      20466F72 
 3249      2043414D 
 3249      20526561 
 3249      647900
 3250              	.LC5:
 3251 0053 39363020 		.ascii	"960 Decode\000"
 3251      4465636F 
 3251      646500
 3252              	.LC6:
 3253 005e 36343020 		.ascii	"640 Decode\000"
 3253      4465636F 
 3253      646500
 3254              	.LC7:
 3255 0069 33323020 		.ascii	"320 Decode\000"
 3255      4465636F 
ARM GAS  C:\Users\AHMED~1.ELE\AppData\Local\Temp\cc594ylT.s 			page 79


 3255      646500
 3256              	.LC8:
 3257 0074 53656E53 		.ascii	"SenSw failed!\000"
 3257      77206661 
 3257      696C6564 
 3257      2100
 3258              	.LC9:
 3259 0082 53656E4F 		.ascii	"SenOpen failed!\000"
 3259      70656E20 
 3259      6661696C 
 3259      65642100 
 3260              	.LC10:
 3261 0092 6765745F 		.ascii	"get_frame:%d\000"
 3261      6672616D 
 3261      653A2564 
 3261      00
 3262              	.LC11:
 3263 009f 5B25735D 		.ascii	"[%s]\000"
 3263      00
 3264              	.LC12:
 3265 00a4 5363616E 		.ascii	"Scan Success!\000"
 3265      20537563 
 3265      63657373 
 3265      2100
 3266              		.bss
 3267              		.set	.LANCHOR0,. + 0
 3268              		.type	gSensorOpened, %object
 3269              		.size	gSensorOpened, 1
 3270              	gSensorOpened:
 3271 0000 00       		.space	1
 3272              		.text
 3273              	.Letext0:
 3274              		.file 2 "c:\\devtools\\gcc_v49_2014q4\\lib\\gcc\\arm-none-eabi\\4.9.3\\include\\stddef.h"
 3275              		.file 3 "../LibA5T1000/common.h"
 3276              		.file 4 "../LibA5T1000/system.h"
 3277              		.file 5 "../LibA5T1000/midware.h"
 3278              		.file 6 "../LibA5T1000/apm.h"
 3279              		.file 7 "../LibA5T1000/bar2dll.h"
 3280              		.file 8 "c:\\devtools\\gcc_v49_2014q4\\arm-none-eabi\\include\\string.h"
 3281              		.file 9 "c:\\devtools\\gcc_v49_2014q4\\arm-none-eabi\\include\\stdio.h"
 3282              		.file 10 "src/sysutil.h"