ARM GAS  C:\Users\AHMED~1.ELE\AppData\Local\Temp\cc594ylT.s 			page 1


   1              		.syntax unified
   2              		.cpu cortex-a5
   3              		.fpu softvfp
   4              		.eabi_attribute 20, 1
   5              		.eabi_attribute 21, 1
   6              		.eabi_attribute 23, 3
   7              		.eabi_attribute 24, 1
   8              		.eabi_attribute 25, 1
   9              		.eabi_attribute 26, 1
  10              		.eabi_attribute 30, 4
  11              		.eabi_attribute 34, 0
  12              		.eabi_attribute 18, 4
  13              		.thumb
  14              		.file	"camtest.c"
  15              		.text
  16              	.Ltext0:
  17              		.cfi_sections	.debug_frame
  18              		.section	.text.ShowLayer,"ax",%progbits
  19              		.align	1
  20              		.thumb
  21              		.thumb_func
  22              		.type	ShowLayer, %function
  23              	ShowLayer:
  24              	.LFB0:
  25              		.file 1 "src/camtest.c"
   1:src/camtest.c **** //-----------------------------------------------------------------------------
   2:src/camtest.c **** //  File          : camtest.c
   3:src/camtest.c **** //  Module        :
   4:src/camtest.c **** //  Description   : Include Camera test.
   5:src/camtest.c **** //  Author        : Lewis
   6:src/camtest.c **** //  Notes         :
   7:src/camtest.c **** //
   8:src/camtest.c **** // ============================================================================
   9:src/camtest.c **** // | Naming conventions                                                       |
  10:src/camtest.c **** // | ~~~~~~~~~~~~~~~~~~                                                       |
  11:src/camtest.c **** // |         Struct/Array : Leading s                                         |
  12:src/camtest.c **** // |             Constant : Leading K                                         |
  13:src/camtest.c **** // |      Global Variable : Leading g  (variable use outside one C file)      |
  14:src/camtest.c **** // |                                                                          |
  15:src/camtest.c **** // |   BYTE( 8 Bits) size : Leading b                                         |
  16:src/camtest.c **** // |   CHAR( 8 Bits) size : Leading c                                         |
  17:src/camtest.c **** // |   WORD(16 Bits) size : Leading w                                         |
  18:src/camtest.c **** // |  DWORD(32 Bits) size : Leading d                                         |
  19:src/camtest.c **** // |    int(32 Bits) size : Leading i                                         |
  20:src/camtest.c **** // | DDWORD(64 Bits) size : Leading dd                                        |
  21:src/camtest.c **** // |              Pointer : Leading p                                         |
  22:src/camtest.c **** // |                                                                          |
  23:src/camtest.c **** // |    Function argument : Leading a                                         |
  24:src/camtest.c **** // |       Local Variable : All lower case                                    |
  25:src/camtest.c **** // |                                                                          |
  26:src/camtest.c **** // | Examples:                                                                |
  27:src/camtest.c **** // |                Array : Leading s, (sb = arrary of byte, etc)             |
  28:src/camtest.c **** // |              Pointer : Leading p, (pb = pointer of byte, etc)            |
  29:src/camtest.c **** // ============================================================================
  30:src/camtest.c **** //
  31:src/camtest.c **** //  Date          Who         Action
  32:src/camtest.c **** //  ------------  ----------- -------------------------------------------------
ARM GAS  C:\Users\AHMED~1.ELE\AppData\Local\Temp\cc594ylT.s 			page 2


  33:src/camtest.c **** //  19 Sept 2016  Lewis       Initial Version.
  34:src/camtest.c **** //-----------------------------------------------------------------------------
  35:src/camtest.c **** #if (T300|A5T1000)
  36:src/camtest.c **** #include <stdio.h>
  37:src/camtest.c **** #include <string.h>
  38:src/camtest.c **** #include "util.h"
  39:src/camtest.c **** #include "apm.h"
  40:src/camtest.c **** #include "hwdef.h"
  41:src/camtest.c **** #include "sysutil.h"
  42:src/camtest.c **** #include "SPGLib.h"
  43:src/camtest.c **** #include "bar2dll.h"
  44:src/camtest.c **** #include "camtest.h"
  45:src/camtest.c **** #include "hardware.h"
  46:src/camtest.c **** 
  47:src/camtest.c **** 
  48:src/camtest.c **** //-----------------------------------------------------------------------------
  49:src/camtest.c **** //      Prototypes
  50:src/camtest.c **** //-----------------------------------------------------------------------------
  51:src/camtest.c **** 
  52:src/camtest.c **** //-----------------------------------------------------------------------------
  53:src/camtest.c **** //      Defines
  54:src/camtest.c **** //-----------------------------------------------------------------------------
  55:src/camtest.c **** //#define DM_TIMEOUT          2               // Try 2 sec to decode Data Matrix
  56:src/camtest.c **** #define DM_TIMEOUT          0               // Skip decode Data Matrix
  57:src/camtest.c **** 
  58:src/camtest.c **** typedef struct {
  59:src/camtest.c ****   WORD w_hstart;            // horizontal start position
  60:src/camtest.c ****   WORD w_vstart;            // vertical start position  
  61:src/camtest.c ****   WORD w_hwidth;            // horizontal data width    
  62:src/camtest.c ****   WORD w_vwidth;            // vertical data width      
  63:src/camtest.c ****   WORD data[K_DispMemorySize];    // graphic data array       
  64:src/camtest.c **** } T_LCDBUF;
  65:src/camtest.c **** 
  66:src/camtest.c **** //-----------------------------------------------------------------------------
  67:src/camtest.c **** //      Constant
  68:src/camtest.c **** //-----------------------------------------------------------------------------
  69:src/camtest.c **** 
  70:src/camtest.c **** //-----------------------------------------------------------------------------
  71:src/camtest.c **** //      Globals
  72:src/camtest.c **** //-----------------------------------------------------------------------------
  73:src/camtest.c **** static BOOLEAN gSensorOpened=FALSE;
  74:src/camtest.c **** 
  75:src/camtest.c **** 
  76:src/camtest.c **** //*****************************************************************************
  77:src/camtest.c **** //  Function        : ShowLayer
  78:src/camtest.c **** //  Description     : Display input buffer on Overlay.
  79:src/camtest.c **** //  Input           : aView;        // lcd buffer
  80:src/camtest.c **** //                    aLayId;       // Overlay ID.
  81:src/camtest.c **** //                    aExtra;       // pointer to extra parameters.
  82:src/camtest.c **** //  Return          : TRUE/FALSE;
  83:src/camtest.c **** //  Note            : N/A
  84:src/camtest.c **** //  Globals Changed : N/A
  85:src/camtest.c **** //*****************************************************************************
  86:src/camtest.c **** static BOOLEAN ShowLayer(T_LCDBUF *aView, DWORD aLayId, BYTE *aExtra)
  87:src/camtest.c **** {
  26              		.loc 1 87 0
  27              		.cfi_startproc
ARM GAS  C:\Users\AHMED~1.ELE\AppData\Local\Temp\cc594ylT.s 			page 3


  28              		@ args = 0, pretend = 0, frame = 0
  29              		@ frame_needed = 0, uses_anonymous_args = 0
  30              	.LVL0:
  31 0000 10B5     		push	{r4, lr}
  32              		.cfi_def_cfa_offset 8
  33              		.cfi_offset 4, -8
  34              		.cfi_offset 14, -4
  88:src/camtest.c ****   DWORD control;
  89:src/camtest.c **** 
  90:src/camtest.c ****   control = aLayId | ((aView!=NULL)?K_DispOverlayEn:0);
  35              		.loc 1 90 0
  36 0002 041E     		subs	r4, r0, #0
  87:src/camtest.c ****   DWORD control;
  37              		.loc 1 87 0
  38 0004 1346     		mov	r3, r2
  39              		.loc 1 90 0
  40 0006 14BF     		ite	ne
  41 0008 8022     		movne	r2, #128
  42              	.LVL1:
  43 000a 0022     		moveq	r2, #0
  44 000c 42EA0102 		orr	r2, r2, r1
  45              	.LVL2:
  91:src/camtest.c ****   if (aView && aView->w_vwidth==K_DispHeightInPixel) {
  46              		.loc 1 91 0
  47 0010 04D0     		beq	.L3
  48              		.loc 1 91 0 is_stmt 0 discriminator 1
  49 0012 E188     		ldrh	r1, [r4, #6]
  50              	.LVL3:
  51 0014 F029     		cmp	r1, #240
  92:src/camtest.c ****     control |= K_DispOverlayFullScr;
  52              		.loc 1 92 0 is_stmt 1 discriminator 1
  53 0016 08BF     		it	eq
  54 0018 42F40052 		orreq	r2, r2, #8192
  55              	.LVL4:
  56              	.L3:
  93:src/camtest.c ****   }
  94:src/camtest.c ****   os_disp_overlay(aView, control, aExtra);
  57              		.loc 1 94 0
  58 001c 2146     		mov	r1, r4
  59 001e 2720     		movs	r0, #39
  60              	.LVL5:
  61 0020 FFF7FEFF 		bl	sys_func3
  62              	.LVL6:
  95:src/camtest.c ****   return TRUE;
  96:src/camtest.c **** }
  63              		.loc 1 96 0
  64 0024 0120     		movs	r0, #1
  65 0026 10BD     		pop	{r4, pc}
  66              		.cfi_endproc
  67              	.LFE0:
  68              		.size	ShowLayer, .-ShowLayer
  69              		.section	.text.SensorClose,"ax",%progbits
  70              		.align	1
  71              		.thumb
  72              		.thumb_func
  73              		.type	SensorClose, %function
  74              	SensorClose:
ARM GAS  C:\Users\AHMED~1.ELE\AppData\Local\Temp\cc594ylT.s 			page 4


  75              	.LFB2:
  97:src/camtest.c **** 
  98:src/camtest.c **** //*****************************************************************************
  99:src/camtest.c **** //  Function        : SensorOpen
 100:src/camtest.c **** //  Description     : Open image sensor for barcode and print overlay1 area.
 101:src/camtest.c **** //  Input           : aMode;        // 
 102:src/camtest.c **** //                    aPreview;     // preview area.
 103:src/camtest.c **** //                    aFrameCfg;    // Frame config from system.
 104:src/camtest.c **** //                    aOneDHeight;  // Height of 1D barcode area indicator.
 105:src/camtest.c **** //  Return          : TRUE/FALSE;
 106:src/camtest.c **** //  Note            : N/A
 107:src/camtest.c **** //  Globals Changed : N/A
 108:src/camtest.c **** //*****************************************************************************
 109:src/camtest.c **** static BOOLEAN SensorOpen(DWORD aMode, T_LCDG *aPreview, T_IMAGE_FRAME *aFrameCfg, DWORD aOneDHeigh
 110:src/camtest.c **** {
 111:src/camtest.c **** #define COLOR_565(RED, GREEN, BLUE)           (((((RED) >> 3) & 0x1f)<<11) | ((((GREEN) >> 2) & 0x3
 112:src/camtest.c **** #define COLOR_4444(ALPHA, RED, GREEN, BLUE)   (((((ALPHA)>> 4) & 0xf)<<12) | ((((RED) >> 4) & 0xf)<
 113:src/camtest.c ****   int ret;
 114:src/camtest.c ****   BYTE  dispbuf[128];
 115:src/camtest.c ****   BYTE  *pOverLay;
 116:src/camtest.c ****   WORD  trans_grey  = COLOR_4444(80, 255, 0, 0);
 117:src/camtest.c ****   WORD  transparent = COLOR_4444(0, 0, 0, 0);
 118:src/camtest.c ****   DWORD control = 0;
 119:src/camtest.c ****   DWORD retry=3;
 120:src/camtest.c **** 
 121:src/camtest.c ****   while (retry--) {
 122:src/camtest.c ****     if ((ret = os_image_sensor_open(aMode, aPreview, aFrameCfg)) < 0) {
 123:src/camtest.c ****       if (retry > 0) {
 124:src/camtest.c ****         Delay10ms(10);
 125:src/camtest.c ****         continue;
 126:src/camtest.c ****       }
 127:src/camtest.c ****       sprintf(dispbuf, "sensor_open:[%d]", ret);
 128:src/camtest.c ****       DispLineMW(dispbuf, MW_LINE9, MW_CENTER|MW_REVERSE|MW_SPFONT);
 129:src/camtest.c ****       APM_WaitKey(KBD_TIMEOUT, 0);
 130:src/camtest.c ****       return FALSE;
 131:src/camtest.c ****     }
 132:src/camtest.c ****   }
 133:src/camtest.c ****   
 134:src/camtest.c ****   if (aPreview == NULL) {
 135:src/camtest.c ****     os_disp_overlay(NULL, K_DispOverlay1, NULL); // off
 136:src/camtest.c ****   }
 137:src/camtest.c ****   else {
 138:src/camtest.c ****     // draw overlay pattern
 139:src/camtest.c ****     // Add Indication overlay here
 140:src/camtest.c ****     pOverLay = MallocMW(sizeof(T_LCDG) + K_DispMemorySize);
 141:src/camtest.c ****     if (pOverLay != NULL) {
 142:src/camtest.c ****       memcpy(pOverLay, aPreview, sizeof(T_LCDG));
 143:src/camtest.c ****       if (aMode & SENSOR_MODE_FULL_SCREEN) {
 144:src/camtest.c ****         ((T_LCDG *)pOverLay)->w_hstart = 0;
 145:src/camtest.c ****         ((T_LCDG *)pOverLay)->w_vstart = 0;
 146:src/camtest.c ****         ((T_LCDG *)pOverLay)->w_hwidth = K_DispWidthInPixel;
 147:src/camtest.c ****         ((T_LCDG *)pOverLay)->w_vwidth = K_DispHeightInPixel;
 148:src/camtest.c ****         control = K_DispOverlayFullScr;
 149:src/camtest.c ****       }
 150:src/camtest.c ****       WORD *ptr = ((T_LCDG *)pOverLay)->p_data;
 151:src/camtest.c ****       DWORD diff     = ((T_LCDG *)pOverLay)->w_vwidth*aOneDHeight/aFrameCfg->height;
 152:src/camtest.c ****       DWORD upper    = ((T_LCDG *)pOverLay)->w_vwidth/2 - diff;
ARM GAS  C:\Users\AHMED~1.ELE\AppData\Local\Temp\cc594ylT.s 			page 5


 153:src/camtest.c ****       DWORD lower    = upper + 2 * diff;
 154:src/camtest.c ****       int i, j;
 155:src/camtest.c ****       aOneDHeight/=2;
 156:src/camtest.c ****       for (i = 0; i < ((T_LCDG *)pOverLay)->w_hwidth; i++) {
 157:src/camtest.c ****         for (j = 0; j < ((T_LCDG *)pOverLay)->w_vwidth; j++) {
 158:src/camtest.c ****           if (((j>upper)&&(j<lower)))
 159:src/camtest.c ****             *ptr = trans_grey;
 160:src/camtest.c ****           else
 161:src/camtest.c ****             *ptr = transparent;
 162:src/camtest.c ****           ptr++;
 163:src/camtest.c ****         }
 164:src/camtest.c ****       }
 165:src/camtest.c ****       control |= K_DispOverlay1|K_DispOverlayARGB4444;
 166:src/camtest.c ****       ShowLayer((T_LCDBUF *)pOverLay, control, NULL);
 167:src/camtest.c ****     }
 168:src/camtest.c ****     FreeMW(pOverLay);
 169:src/camtest.c ****   }
 170:src/camtest.c ****   gSensorOpened = TRUE;
 171:src/camtest.c ****   return TRUE;
 172:src/camtest.c **** }
 173:src/camtest.c **** 
 174:src/camtest.c **** //*****************************************************************************
 175:src/camtest.c **** //  Function        : SensorClose
 176:src/camtest.c **** //  Description     : Close image sensor and off overlay1.
 177:src/camtest.c **** //  Input           : N/A
 178:src/camtest.c **** //  Return          : TRUE/FALSE;
 179:src/camtest.c **** //  Note            : N/A
 180:src/camtest.c **** //  Globals Changed : N/A
 181:src/camtest.c **** //*****************************************************************************
 182:src/camtest.c **** static BOOLEAN SensorClose(void)
 183:src/camtest.c **** {
  76              		.loc 1 183 0
  77              		.cfi_startproc
  78              		@ args = 0, pretend = 0, frame = 0
  79              		@ frame_needed = 0, uses_anonymous_args = 0
 184:src/camtest.c ****   ShowLayer(NULL, K_DispOverlay1, NULL);  // off
  80              		.loc 1 184 0
  81 0000 0020     		movs	r0, #0
 183:src/camtest.c ****   ShowLayer(NULL, K_DispOverlay1, NULL);  // off
  82              		.loc 1 183 0
  83 0002 08B5     		push	{r3, lr}
  84              		.cfi_def_cfa_offset 8
  85              		.cfi_offset 3, -8
  86              		.cfi_offset 14, -4
  87              		.loc 1 184 0
  88 0004 0146     		mov	r1, r0
  89 0006 0246     		mov	r2, r0
  90 0008 FFF7FEFF 		bl	ShowLayer
  91              	.LVL7:
 185:src/camtest.c ****   os_image_sensor_close();
  92              		.loc 1 185 0
  93 000c 40F2CB10 		movw	r0, #459
  94 0010 FFF7FEFF 		bl	sys_func0
  95              	.LVL8:
 186:src/camtest.c ****   gSensorOpened = FALSE;
  96              		.loc 1 186 0
  97 0014 0022     		movs	r2, #0
ARM GAS  C:\Users\AHMED~1.ELE\AppData\Local\Temp\cc594ylT.s 			page 6


  98 0016 024B     		ldr	r3, .L10
 187:src/camtest.c ****   return TRUE;
 188:src/camtest.c **** }
  99              		.loc 1 188 0
 100 0018 0120     		movs	r0, #1
 186:src/camtest.c ****   gSensorOpened = FALSE;
 101              		.loc 1 186 0
 102 001a 1A70     		strb	r2, [r3]
 103              		.loc 1 188 0
 104 001c 08BD     		pop	{r3, pc}
 105              	.L11:
 106 001e 00BF     		.align	2
 107              	.L10:
 108 0020 00000000 		.word	.LANCHOR0
 109              		.cfi_endproc
 110              	.LFE2:
 111              		.size	SensorClose, .-SensorClose
 112              		.global	__aeabi_uidiv
 113              		.section	.text.SensorSwMode,"ax",%progbits
 114              		.align	1
 115              		.thumb
 116              		.thumb_func
 117              		.type	SensorSwMode, %function
 118              	SensorSwMode:
 119              	.LFB3:
 189:src/camtest.c **** 
 190:src/camtest.c **** #ifdef os_image_sensor_set_mode
 191:src/camtest.c **** //*****************************************************************************
 192:src/camtest.c **** //  Function        : SensorSwMode
 193:src/camtest.c **** //  Description     : Switch mode of image sensor
 194:src/camtest.c **** //  Input           : aMode;        // 
 195:src/camtest.c **** //                    aPreview;     // preview area.
 196:src/camtest.c **** //                    aFrameCfg;    // Frame config from system.
 197:src/camtest.c **** //                    aOneDHeight;  // Height of 1D barcode area indicator.
 198:src/camtest.c **** //  Return          : TRUE/FALSE;
 199:src/camtest.c **** //  Note            : N/A
 200:src/camtest.c **** //  Globals Changed : N/A
 201:src/camtest.c **** //*****************************************************************************
 202:src/camtest.c **** static BOOLEAN SensorSwMode(DWORD aMode, T_LCDG *aPreview, T_IMAGE_FRAME *aFrameCfg, DWORD aOneDHei
 203:src/camtest.c **** {
 120              		.loc 1 203 0
 121              		.cfi_startproc
 122              		@ args = 0, pretend = 0, frame = 128
 123              		@ frame_needed = 0, uses_anonymous_args = 0
 124              	.LVL9:
 125 0000 2DE9F043 		push	{r4, r5, r6, r7, r8, r9, lr}
 126              		.cfi_def_cfa_offset 28
 127              		.cfi_offset 4, -28
 128              		.cfi_offset 5, -24
 129              		.cfi_offset 6, -20
 130              		.cfi_offset 7, -16
 131              		.cfi_offset 8, -12
 132              		.cfi_offset 9, -8
 133              		.cfi_offset 14, -4
 134 0004 0546     		mov	r5, r0
 135 0006 0E46     		mov	r6, r1
 136 0008 9046     		mov	r8, r2
ARM GAS  C:\Users\AHMED~1.ELE\AppData\Local\Temp\cc594ylT.s 			page 7


 137              	.LVL10:
 138 000a A3B0     		sub	sp, sp, #140
 139              		.cfi_def_cfa_offset 168
 204:src/camtest.c **** #define COLOR_565(RED, GREEN, BLUE)           (((((RED) >> 3) & 0x1f)<<11) | ((((GREEN) >> 2) & 0x3
 205:src/camtest.c **** #define COLOR_4444(ALPHA, RED, GREEN, BLUE)   (((((ALPHA)>> 4) & 0xf)<<12) | ((((RED) >> 4) & 0xf)<
 206:src/camtest.c ****   int ret;
 207:src/camtest.c ****   BYTE  dispbuf[128];
 208:src/camtest.c ****   BYTE  *pOverLay;
 209:src/camtest.c ****   WORD  trans_grey  = COLOR_4444(80, 255, 0, 0);
 210:src/camtest.c ****   WORD  transparent = COLOR_4444(0, 0, 0, 0);
 211:src/camtest.c ****   DWORD control = 0;
 212:src/camtest.c **** 
 213:src/camtest.c ****   if ((ret = os_image_sensor_set_mode(aMode, aPreview, aFrameCfg)) < 0) {
 140              		.loc 1 213 0
 141 000c 3246     		mov	r2, r6
 142              	.LVL11:
 203:src/camtest.c **** #define COLOR_565(RED, GREEN, BLUE)           (((((RED) >> 3) & 0x1f)<<11) | ((((GREEN) >> 2) & 0x3
 143              		.loc 1 203 0
 144 000e 9946     		mov	r9, r3
 145              		.loc 1 213 0
 146 0010 4FF4EB70 		mov	r0, #470
 147              	.LVL12:
 148 0014 2946     		mov	r1, r5
 149              	.LVL13:
 150 0016 4346     		mov	r3, r8
 151              	.LVL14:
 152 0018 FFF7FEFF 		bl	sys_func3
 153              	.LVL15:
 154 001c 021E     		subs	r2, r0, #0
 155 001e 2CDA     		bge	.L13
 214:src/camtest.c ****     sprintf(dispbuf, "sensor_setmode:[%d]", ret);
 156              		.loc 1 214 0
 157 0020 3E49     		ldr	r1, .L35
 158 0022 02A8     		add	r0, sp, #8
 159              	.LVL16:
 160 0024 FFF7FEFF 		bl	sprintf
 161              	.LVL17:
 162              	.LBB2:
 215:src/camtest.c ****     DispLineMW(dispbuf, MW_LINE9, MW_CENTER|MW_REVERSE|MW_SPFONT);
 163              		.loc 1 215 0
 164 0028 02A8     		add	r0, sp, #8
 165 002a FFF7FEFF 		bl	strlen
 166              	.LVL18:
 167 002e 0546     		mov	r5, r0
 168              	.LVL19:
 169 0030 691C     		adds	r1, r5, #1
 170 0032 9220     		movs	r0, #146
 171              	.LVL20:
 172 0034 FFF7FEFF 		bl	sys_func1
 173              	.LVL21:
 174 0038 0446     		mov	r4, r0
 175 003a 98B1     		cbz	r0, .L14
 176              		.loc 1 215 0 is_stmt 0 discriminator 1
 177 003c 02A9     		add	r1, sp, #8
 178 003e 2A46     		mov	r2, r5
 179 0040 FFF7FEFF 		bl	memcpy
 180              	.LVL22:
ARM GAS  C:\Users\AHMED~1.ELE\AppData\Local\Temp\cc594ylT.s 			page 8


 181 0044 0023     		movs	r3, #0
 182 0046 2521     		movs	r1, #37
 183 0048 6355     		strb	r3, [r4, r5]
 184 004a 42F21203 		movw	r3, #8210
 185 004e 0F20     		movs	r0, #15
 186 0050 0093     		str	r3, [sp]
 187 0052 2246     		mov	r2, r4
 188 0054 4FF41063 		mov	r3, #2304
 189 0058 FFF7FEFF 		bl	lib_app_call
 190              	.LVL23:
 191 005c 9420     		movs	r0, #148
 192 005e 2146     		mov	r1, r4
 193 0060 FFF7FEFF 		bl	sys_func1
 194              	.LVL24:
 195              	.L14:
 196              	.LBE2:
 216:src/camtest.c ****     APM_WaitKey(KBD_TIMEOUT, 0);
 197              		.loc 1 216 0 is_stmt 1
 198 0064 0024     		movs	r4, #0
 199              	.LVL25:
 200 0066 1020     		movs	r0, #16
 201 0068 0094     		str	r4, [sp]
 202 006a 0321     		movs	r1, #3
 203 006c 42F22832 		movw	r2, #9000
 204 0070 2346     		mov	r3, r4
 205 0072 FFF7FEFF 		bl	lib_app_call
 206              	.LVL26:
 217:src/camtest.c ****     return FALSE;
 207              		.loc 1 217 0
 208 0076 2046     		mov	r0, r4
 209 0078 4DE0     		b	.L15
 210              	.LVL27:
 211              	.L13:
 218:src/camtest.c ****   }
 219:src/camtest.c ****   
 220:src/camtest.c ****   if (aPreview == NULL) {
 212              		.loc 1 220 0
 213 007a 36B9     		cbnz	r6, .L16
 221:src/camtest.c ****     os_disp_overlay(NULL, K_DispOverlay1, NULL); // off
 214              		.loc 1 221 0
 215 007c 3146     		mov	r1, r6
 216 007e 3246     		mov	r2, r6
 217 0080 3346     		mov	r3, r6
 218 0082 2720     		movs	r0, #39
 219              	.LVL28:
 220 0084 FFF7FEFF 		bl	sys_func3
 221              	.LVL29:
 222 0088 44E0     		b	.L33
 223              	.LVL30:
 224              	.L16:
 222:src/camtest.c ****   }
 223:src/camtest.c ****   else {
 224:src/camtest.c ****     // draw overlay pattern
 225:src/camtest.c ****     // Add Indication overlay here
 226:src/camtest.c ****     pOverLay = MallocMW(sizeof(T_LCDG) + K_DispMemorySize);
 225              		.loc 1 226 0
 226 008a 9220     		movs	r0, #146
ARM GAS  C:\Users\AHMED~1.ELE\AppData\Local\Temp\cc594ylT.s 			page 9


 227              	.LVL31:
 228 008c 2449     		ldr	r1, .L35+4
 229 008e FFF7FEFF 		bl	sys_func1
 230              	.LVL32:
 227:src/camtest.c ****     if (pOverLay != NULL) {
 231              		.loc 1 227 0
 232 0092 0446     		mov	r4, r0
 233 0094 0028     		cmp	r0, #0
 234 0096 39D0     		beq	.L17
 235              	.LBB3:
 228:src/camtest.c ****       memcpy(pOverLay, aPreview, sizeof(T_LCDG));
 236              		.loc 1 228 0
 237 0098 3146     		mov	r1, r6
 238 009a 0C22     		movs	r2, #12
 239 009c FFF7FEFF 		bl	memcpy
 240              	.LVL33:
 229:src/camtest.c ****       if (aMode & SENSOR_MODE_FULL_SCREEN) {
 241              		.loc 1 229 0
 242 00a0 15F40046 		ands	r6, r5, #32768
 243              	.LVL34:
 244 00a4 4FF00003 		mov	r3, #0
 245 00a8 08D0     		beq	.L18
 230:src/camtest.c ****         ((T_LCDG *)pOverLay)->w_hstart = 0;
 246              		.loc 1 230 0
 247 00aa 2380     		strh	r3, [r4]	@ movhi
 231:src/camtest.c ****         ((T_LCDG *)pOverLay)->w_vstart = 0;
 248              		.loc 1 231 0
 249 00ac 6380     		strh	r3, [r4, #2]	@ movhi
 232:src/camtest.c ****         ((T_LCDG *)pOverLay)->w_hwidth = K_DispWidthInPixel;
 250              		.loc 1 232 0
 251 00ae 4FF4A073 		mov	r3, #320
 233:src/camtest.c ****         ((T_LCDG *)pOverLay)->w_vwidth = K_DispHeightInPixel;
 234:src/camtest.c ****         control = K_DispOverlayFullScr;
 252              		.loc 1 234 0
 253 00b2 4FF40056 		mov	r6, #8192
 232:src/camtest.c ****         ((T_LCDG *)pOverLay)->w_hwidth = K_DispWidthInPixel;
 254              		.loc 1 232 0
 255 00b6 A380     		strh	r3, [r4, #4]	@ movhi
 233:src/camtest.c ****         ((T_LCDG *)pOverLay)->w_vwidth = K_DispHeightInPixel;
 256              		.loc 1 233 0
 257 00b8 F023     		movs	r3, #240
 258 00ba E380     		strh	r3, [r4, #6]	@ movhi
 259              	.LVL35:
 260              	.L18:
 235:src/camtest.c ****       }
 236:src/camtest.c ****       WORD *ptr = ((T_LCDG *)pOverLay)->p_data;
 237:src/camtest.c ****       DWORD diff     = ((T_LCDG *)pOverLay)->w_vwidth*aOneDHeight/aFrameCfg->height;
 261              		.loc 1 237 0
 262 00bc E588     		ldrh	r5, [r4, #6]
 263              	.LVL36:
 264 00be D8F80810 		ldr	r1, [r8, #8]
 265 00c2 05FB09F0 		mul	r0, r5, r9
 266 00c6 FFF7FEFF 		bl	__aeabi_uidiv
 267              	.LVL37:
 236:src/camtest.c ****       DWORD diff     = ((T_LCDG *)pOverLay)->w_vwidth*aOneDHeight/aFrameCfg->height;
 268              		.loc 1 236 0
 269 00ca 04F10807 		add	r7, r4, #8
ARM GAS  C:\Users\AHMED~1.ELE\AppData\Local\Temp\cc594ylT.s 			page 10


 270              	.LVL38:
 238:src/camtest.c ****       DWORD upper    = ((T_LCDG *)pOverLay)->w_vwidth/2 - diff;
 239:src/camtest.c ****       DWORD lower    = upper + 2 * diff;
 240:src/camtest.c ****       int i, j;
 241:src/camtest.c ****       aOneDHeight/=2;
 242:src/camtest.c ****       for (i = 0; i < ((T_LCDG *)pOverLay)->w_hwidth; i++) {
 271              		.loc 1 242 0
 272 00ce 0022     		movs	r2, #0
 238:src/camtest.c ****       DWORD upper    = ((T_LCDG *)pOverLay)->w_vwidth/2 - diff;
 273              		.loc 1 238 0
 274 00d0 C0EB5501 		rsb	r1, r0, r5, lsr #1
 275              	.LVL39:
 239:src/camtest.c ****       int i, j;
 276              		.loc 1 239 0
 277 00d4 00EB5500 		add	r0, r0, r5, lsr #1
 278              	.LVL40:
 279              	.L19:
 280              		.loc 1 242 0 discriminator 1
 281 00d8 A388     		ldrh	r3, [r4, #4]
 282 00da 9A42     		cmp	r2, r3
 283 00dc 11DA     		bge	.L23
 284 00de 0023     		movs	r3, #0
 285              	.L24:
 286              	.LVL41:
 243:src/camtest.c ****         for (j = 0; j < ((T_LCDG *)pOverLay)->w_vwidth; j++) {
 287              		.loc 1 243 0 discriminator 1
 288 00e0 E588     		ldrh	r5, [r4, #6]
 289 00e2 AB42     		cmp	r3, r5
 290 00e4 0BDA     		bge	.L34
 244:src/camtest.c ****           if (((j>upper)&&(j<lower)))
 291              		.loc 1 244 0
 292 00e6 8B42     		cmp	r3, r1
 293 00e8 04D9     		bls	.L20
 294              		.loc 1 244 0 is_stmt 0 discriminator 1
 295 00ea 8342     		cmp	r3, r0
 296 00ec 02D2     		bcs	.L20
 245:src/camtest.c ****             *ptr = trans_grey;
 297              		.loc 1 245 0 is_stmt 1
 298 00ee 4FF4BE45 		mov	r5, #24320
 299 00f2 00E0     		b	.L32
 300              	.L20:
 246:src/camtest.c ****           else
 247:src/camtest.c ****             *ptr = transparent;
 301              		.loc 1 247 0
 302 00f4 0025     		movs	r5, #0
 303              	.L32:
 304 00f6 3D80     		strh	r5, [r7]	@ movhi
 243:src/camtest.c ****           if (((j>upper)&&(j<lower)))
 305              		.loc 1 243 0
 306 00f8 0133     		adds	r3, r3, #1
 307              	.LVL42:
 248:src/camtest.c ****           ptr++;
 308              		.loc 1 248 0
 309 00fa 0237     		adds	r7, r7, #2
 310              	.LVL43:
 311 00fc F0E7     		b	.L24
 312              	.L34:
ARM GAS  C:\Users\AHMED~1.ELE\AppData\Local\Temp\cc594ylT.s 			page 11


 242:src/camtest.c ****         for (j = 0; j < ((T_LCDG *)pOverLay)->w_vwidth; j++) {
 313              		.loc 1 242 0 discriminator 2
 314 00fe 0132     		adds	r2, r2, #1
 315              	.LVL44:
 316 0100 EAE7     		b	.L19
 317              	.LVL45:
 318              	.L23:
 249:src/camtest.c ****         }
 250:src/camtest.c ****       }
 251:src/camtest.c ****       control |= K_DispOverlay1|K_DispOverlayARGB4444;
 252:src/camtest.c ****       ShowLayer((T_LCDBUF *)pOverLay, control, NULL);
 319              		.loc 1 252 0
 320 0102 2046     		mov	r0, r4
 321              	.LVL46:
 322 0104 3146     		mov	r1, r6
 323              	.LVL47:
 324 0106 0022     		movs	r2, #0
 325              	.LVL48:
 326 0108 FFF7FEFF 		bl	ShowLayer
 327              	.LVL49:
 328              	.L17:
 329              	.LBE3:
 253:src/camtest.c ****     }
 254:src/camtest.c ****     FreeMW(pOverLay);
 330              		.loc 1 254 0
 331 010c 9420     		movs	r0, #148
 332 010e 2146     		mov	r1, r4
 333 0110 FFF7FEFF 		bl	sys_func1
 334              	.LVL50:
 335              	.L33:
 255:src/camtest.c ****   }
 256:src/camtest.c ****   return TRUE;
 336              		.loc 1 256 0
 337 0114 0120     		movs	r0, #1
 338              	.L15:
 257:src/camtest.c **** }
 339              		.loc 1 257 0
 340 0116 23B0     		add	sp, sp, #140
 341              		.cfi_def_cfa_offset 28
 342              		@ sp needed
 343 0118 BDE8F083 		pop	{r4, r5, r6, r7, r8, r9, pc}
 344              	.LVL51:
 345              	.L36:
 346              		.align	2
 347              	.L35:
 348 011c 00000000 		.word	.LC0
 349 0120 0C580200 		.word	153612
 350              		.cfi_endproc
 351              	.LFE3:
 352              		.size	SensorSwMode, .-SensorSwMode
 353              		.section	.text.SensorOpen,"ax",%progbits
 354              		.align	1
 355              		.thumb
 356              		.thumb_func
 357              		.type	SensorOpen, %function
 358              	SensorOpen:
 359              	.LFB1:
ARM GAS  C:\Users\AHMED~1.ELE\AppData\Local\Temp\cc594ylT.s 			page 12


 110:src/camtest.c **** #define COLOR_565(RED, GREEN, BLUE)           (((((RED) >> 3) & 0x1f)<<11) | ((((GREEN) >> 2) & 0x3
 360              		.loc 1 110 0
 361              		.cfi_startproc
 362              		@ args = 0, pretend = 0, frame = 128
 363              		@ frame_needed = 0, uses_anonymous_args = 0
 364              	.LVL52:
 365 0000 2DE9F043 		push	{r4, r5, r6, r7, r8, r9, lr}
 366              		.cfi_def_cfa_offset 28
 367              		.cfi_offset 4, -28
 368              		.cfi_offset 5, -24
 369              		.cfi_offset 6, -20
 370              		.cfi_offset 7, -16
 371              		.cfi_offset 8, -12
 372              		.cfi_offset 9, -8
 373              		.cfi_offset 14, -4
 374 0004 0546     		mov	r5, r0
 375 0006 A3B0     		sub	sp, sp, #140
 376              		.cfi_def_cfa_offset 168
 110:src/camtest.c **** #define COLOR_565(RED, GREEN, BLUE)           (((((RED) >> 3) & 0x1f)<<11) | ((((GREEN) >> 2) & 0x3
 377              		.loc 1 110 0
 378 0008 0E46     		mov	r6, r1
 379 000a 1746     		mov	r7, r2
 380              	.LVL53:
 381 000c 9846     		mov	r8, r3
 119:src/camtest.c **** 
 382              		.loc 1 119 0
 383 000e 0324     		movs	r4, #3
 384              	.LVL54:
 385              	.L38:
 121:src/camtest.c ****     if ((ret = os_image_sensor_open(aMode, aPreview, aFrameCfg)) < 0) {
 386              		.loc 1 121 0
 387 0010 14F1FF34 		adds	r4, r4, #-1
 388              	.LVL55:
 389 0014 39D3     		bcc	.L62
 390              	.LVL56:
 122:src/camtest.c ****       if (retry > 0) {
 391              		.loc 1 122 0
 392 0016 3246     		mov	r2, r6
 393 0018 4FF4E470 		mov	r0, #456
 394 001c 2946     		mov	r1, r5
 395 001e 3B46     		mov	r3, r7
 396 0020 FFF7FEFF 		bl	sys_func3
 397              	.LVL57:
 398 0024 021E     		subs	r2, r0, #0
 399 0026 F3DA     		bge	.L38
 123:src/camtest.c ****         Delay10ms(10);
 400              		.loc 1 123 0
 401 0028 1CB1     		cbz	r4, .L40
 124:src/camtest.c ****         continue;
 402              		.loc 1 124 0
 403 002a 0A20     		movs	r0, #10
 404              	.LVL58:
 405 002c FFF7FEFF 		bl	Delay10ms
 406              	.LVL59:
 125:src/camtest.c ****       }
 407              		.loc 1 125 0
 408 0030 EEE7     		b	.L38
ARM GAS  C:\Users\AHMED~1.ELE\AppData\Local\Temp\cc594ylT.s 			page 13


 409              	.LVL60:
 410              	.L40:
 127:src/camtest.c ****       DispLineMW(dispbuf, MW_LINE9, MW_CENTER|MW_REVERSE|MW_SPFONT);
 411              		.loc 1 127 0
 412 0032 4049     		ldr	r1, .L64
 413 0034 02A8     		add	r0, sp, #8
 414              	.LVL61:
 415 0036 FFF7FEFF 		bl	sprintf
 416              	.LVL62:
 417              	.LBB4:
 128:src/camtest.c ****       APM_WaitKey(KBD_TIMEOUT, 0);
 418              		.loc 1 128 0
 419 003a 02A8     		add	r0, sp, #8
 420 003c FFF7FEFF 		bl	strlen
 421              	.LVL63:
 422 0040 0646     		mov	r6, r0
 423              	.LVL64:
 424 0042 711C     		adds	r1, r6, #1
 425 0044 9220     		movs	r0, #146
 426              	.LVL65:
 427 0046 FFF7FEFF 		bl	sys_func1
 428              	.LVL66:
 429 004a 0546     		mov	r5, r0
 430              	.LVL67:
 431 004c 90B1     		cbz	r0, .L41
 128:src/camtest.c ****       APM_WaitKey(KBD_TIMEOUT, 0);
 432              		.loc 1 128 0 is_stmt 0 discriminator 1
 433 004e 02A9     		add	r1, sp, #8
 434 0050 3246     		mov	r2, r6
 435 0052 FFF7FEFF 		bl	memcpy
 436              	.LVL68:
 437 0056 42F21203 		movw	r3, #8210
 438 005a AC55     		strb	r4, [r5, r6]
 439 005c 2521     		movs	r1, #37
 440 005e 0093     		str	r3, [sp]
 441 0060 0F20     		movs	r0, #15
 442 0062 2A46     		mov	r2, r5
 443 0064 4FF41063 		mov	r3, #2304
 444 0068 FFF7FEFF 		bl	lib_app_call
 445              	.LVL69:
 446 006c 9420     		movs	r0, #148
 447 006e 2946     		mov	r1, r5
 448 0070 FFF7FEFF 		bl	sys_func1
 449              	.LVL70:
 450              	.L41:
 451              	.LBE4:
 129:src/camtest.c ****       return FALSE;
 452              		.loc 1 129 0 is_stmt 1
 453 0074 0024     		movs	r4, #0
 454              	.LVL71:
 455 0076 1020     		movs	r0, #16
 456 0078 0094     		str	r4, [sp]
 457 007a 0321     		movs	r1, #3
 458 007c 42F22832 		movw	r2, #9000
 459 0080 2346     		mov	r3, r4
 460 0082 FFF7FEFF 		bl	lib_app_call
 461              	.LVL72:
ARM GAS  C:\Users\AHMED~1.ELE\AppData\Local\Temp\cc594ylT.s 			page 14


 130:src/camtest.c ****     }
 462              		.loc 1 130 0
 463 0086 2046     		mov	r0, r4
 464 0088 50E0     		b	.L42
 465              	.LVL73:
 466              	.L62:
 134:src/camtest.c ****     os_disp_overlay(NULL, K_DispOverlay1, NULL); // off
 467              		.loc 1 134 0
 468 008a 36B9     		cbnz	r6, .L44
 135:src/camtest.c ****   }
 469              		.loc 1 135 0
 470 008c 3146     		mov	r1, r6
 471 008e 3246     		mov	r2, r6
 472 0090 3346     		mov	r3, r6
 473 0092 2720     		movs	r0, #39
 474 0094 FFF7FEFF 		bl	sys_func3
 475              	.LVL74:
 476 0098 45E0     		b	.L45
 477              	.L44:
 140:src/camtest.c ****     if (pOverLay != NULL) {
 478              		.loc 1 140 0
 479 009a 9220     		movs	r0, #146
 480 009c 2649     		ldr	r1, .L64+4
 481 009e FFF7FEFF 		bl	sys_func1
 482              	.LVL75:
 141:src/camtest.c ****       memcpy(pOverLay, aPreview, sizeof(T_LCDG));
 483              		.loc 1 141 0
 484 00a2 0446     		mov	r4, r0
 485              	.LVL76:
 486 00a4 0028     		cmp	r0, #0
 487 00a6 3AD0     		beq	.L46
 488              	.LBB5:
 142:src/camtest.c ****       if (aMode & SENSOR_MODE_FULL_SCREEN) {
 489              		.loc 1 142 0
 490 00a8 3146     		mov	r1, r6
 491 00aa 0C22     		movs	r2, #12
 492 00ac FFF7FEFF 		bl	memcpy
 493              	.LVL77:
 143:src/camtest.c ****         ((T_LCDG *)pOverLay)->w_hstart = 0;
 494              		.loc 1 143 0
 495 00b0 15F40046 		ands	r6, r5, #32768
 496              	.LVL78:
 497 00b4 4FF00003 		mov	r3, #0
 498 00b8 08D0     		beq	.L47
 144:src/camtest.c ****         ((T_LCDG *)pOverLay)->w_vstart = 0;
 499              		.loc 1 144 0
 500 00ba 2380     		strh	r3, [r4]	@ movhi
 145:src/camtest.c ****         ((T_LCDG *)pOverLay)->w_hwidth = K_DispWidthInPixel;
 501              		.loc 1 145 0
 502 00bc 6380     		strh	r3, [r4, #2]	@ movhi
 146:src/camtest.c ****         ((T_LCDG *)pOverLay)->w_vwidth = K_DispHeightInPixel;
 503              		.loc 1 146 0
 504 00be 4FF4A073 		mov	r3, #320
 148:src/camtest.c ****       }
 505              		.loc 1 148 0
 506 00c2 4FF40056 		mov	r6, #8192
 146:src/camtest.c ****         ((T_LCDG *)pOverLay)->w_vwidth = K_DispHeightInPixel;
ARM GAS  C:\Users\AHMED~1.ELE\AppData\Local\Temp\cc594ylT.s 			page 15


 507              		.loc 1 146 0
 508 00c6 A380     		strh	r3, [r4, #4]	@ movhi
 147:src/camtest.c ****         control = K_DispOverlayFullScr;
 509              		.loc 1 147 0
 510 00c8 F023     		movs	r3, #240
 511 00ca E380     		strh	r3, [r4, #6]	@ movhi
 512              	.LVL79:
 513              	.L47:
 151:src/camtest.c ****       DWORD upper    = ((T_LCDG *)pOverLay)->w_vwidth/2 - diff;
 514              		.loc 1 151 0
 515 00cc E588     		ldrh	r5, [r4, #6]
 516              	.LVL80:
 517 00ce B968     		ldr	r1, [r7, #8]
 518 00d0 05FB08F0 		mul	r0, r5, r8
 519 00d4 FFF7FEFF 		bl	__aeabi_uidiv
 520              	.LVL81:
 150:src/camtest.c ****       DWORD diff     = ((T_LCDG *)pOverLay)->w_vwidth*aOneDHeight/aFrameCfg->height;
 521              		.loc 1 150 0
 522 00d8 04F10809 		add	r9, r4, #8
 523              	.LVL82:
 156:src/camtest.c ****         for (j = 0; j < ((T_LCDG *)pOverLay)->w_vwidth; j++) {
 524              		.loc 1 156 0
 525 00dc 0022     		movs	r2, #0
 152:src/camtest.c ****       DWORD lower    = upper + 2 * diff;
 526              		.loc 1 152 0
 527 00de C0EB5501 		rsb	r1, r0, r5, lsr #1
 528              	.LVL83:
 153:src/camtest.c ****       int i, j;
 529              		.loc 1 153 0
 530 00e2 00EB5500 		add	r0, r0, r5, lsr #1
 531              	.LVL84:
 532              	.L48:
 156:src/camtest.c ****         for (j = 0; j < ((T_LCDG *)pOverLay)->w_vwidth; j++) {
 533              		.loc 1 156 0 discriminator 1
 534 00e6 A388     		ldrh	r3, [r4, #4]
 535 00e8 9A42     		cmp	r2, r3
 536 00ea 13DA     		bge	.L52
 537 00ec 0023     		movs	r3, #0
 538              	.L53:
 539              	.LVL85:
 157:src/camtest.c ****           if (((j>upper)&&(j<lower)))
 540              		.loc 1 157 0 discriminator 1
 541 00ee E588     		ldrh	r5, [r4, #6]
 542 00f0 AB42     		cmp	r3, r5
 543 00f2 0DDA     		bge	.L63
 158:src/camtest.c ****             *ptr = trans_grey;
 544              		.loc 1 158 0
 545 00f4 8B42     		cmp	r3, r1
 546 00f6 04D9     		bls	.L49
 158:src/camtest.c ****             *ptr = trans_grey;
 547              		.loc 1 158 0 is_stmt 0 discriminator 1
 548 00f8 8342     		cmp	r3, r0
 549 00fa 02D2     		bcs	.L49
 159:src/camtest.c ****           else
 550              		.loc 1 159 0 is_stmt 1
 551 00fc 4FF4BE45 		mov	r5, #24320
 552 0100 00E0     		b	.L61
ARM GAS  C:\Users\AHMED~1.ELE\AppData\Local\Temp\cc594ylT.s 			page 16


 553              	.L49:
 161:src/camtest.c ****           ptr++;
 554              		.loc 1 161 0
 555 0102 0025     		movs	r5, #0
 556              	.L61:
 557 0104 A9F80050 		strh	r5, [r9]	@ movhi
 157:src/camtest.c ****           if (((j>upper)&&(j<lower)))
 558              		.loc 1 157 0
 559 0108 0133     		adds	r3, r3, #1
 560              	.LVL86:
 162:src/camtest.c ****         }
 561              		.loc 1 162 0
 562 010a 09F10209 		add	r9, r9, #2
 563              	.LVL87:
 564 010e EEE7     		b	.L53
 565              	.L63:
 156:src/camtest.c ****         for (j = 0; j < ((T_LCDG *)pOverLay)->w_vwidth; j++) {
 566              		.loc 1 156 0 discriminator 2
 567 0110 0132     		adds	r2, r2, #1
 568              	.LVL88:
 569 0112 E8E7     		b	.L48
 570              	.LVL89:
 571              	.L52:
 166:src/camtest.c ****     }
 572              		.loc 1 166 0
 573 0114 2046     		mov	r0, r4
 574              	.LVL90:
 575 0116 3146     		mov	r1, r6
 576              	.LVL91:
 577 0118 0022     		movs	r2, #0
 578              	.LVL92:
 579 011a FFF7FEFF 		bl	ShowLayer
 580              	.LVL93:
 581              	.L46:
 582              	.LBE5:
 168:src/camtest.c ****   }
 583              		.loc 1 168 0
 584 011e 9420     		movs	r0, #148
 585 0120 2146     		mov	r1, r4
 586 0122 FFF7FEFF 		bl	sys_func1
 587              	.LVL94:
 588              	.L45:
 170:src/camtest.c ****   return TRUE;
 589              		.loc 1 170 0
 590 0126 0120     		movs	r0, #1
 591 0128 044B     		ldr	r3, .L64+8
 592 012a 1870     		strb	r0, [r3]
 593              	.L42:
 172:src/camtest.c **** 
 594              		.loc 1 172 0
 595 012c 23B0     		add	sp, sp, #140
 596              		.cfi_def_cfa_offset 28
 597              		@ sp needed
 598 012e BDE8F083 		pop	{r4, r5, r6, r7, r8, r9, pc}
 599              	.LVL95:
 600              	.L65:
 601 0132 00BF     		.align	2
ARM GAS  C:\Users\AHMED~1.ELE\AppData\Local\Temp\cc594ylT.s 			page 17


 602              	.L64:
 603 0134 14000000 		.word	.LC1
 604 0138 0C580200 		.word	153612
 605 013c 00000000 		.word	.LANCHOR0
 606              		.cfi_endproc
 607              	.LFE1:
 608              		.size	SensorOpen, .-SensorOpen
 609              		.section	.text.LcdOnLayerEnable.part.0,"ax",%progbits
 610              		.align	1
 611              		.thumb
 612              		.thumb_func
 613              		.type	LcdOnLayerEnable.part.0, %function
 614              	LcdOnLayerEnable.part.0:
 615              	.LFB10:
 258:src/camtest.c **** #endif
 259:src/camtest.c **** //*****************************************************************************
 260:src/camtest.c **** //  Function        : LcdOnLayerEnable
 261:src/camtest.c **** //  Description     : Enable or disable LcdOnLayer function.
 262:src/camtest.c **** //  Input           : aEnable;  // TRUE/FALSE;
 263:src/camtest.c **** //  Return          : N/A
 264:src/camtest.c **** //  Note            : N/A
 265:src/camtest.c **** //  Globals Changed : N/A
 266:src/camtest.c **** //*****************************************************************************
 267:src/camtest.c **** #define K_TRANS_COLOR   0xFFFF
 268:src/camtest.c **** #define K_TEXT_COLOR    0x07E0
 269:src/camtest.c **** static void LcdOnLayerEnable(BOOLEAN aEnable)
 616              		.loc 1 269 0
 617              		.cfi_startproc
 618              		@ args = 0, pretend = 0, frame = 0
 619              		@ frame_needed = 0, uses_anonymous_args = 0
 620              	.LVL96:
 621 0000 08B5     		push	{r3, lr}
 622              		.cfi_def_cfa_offset 8
 623              		.cfi_offset 3, -8
 624              		.cfi_offset 14, -4
 270:src/camtest.c **** {
 271:src/camtest.c ****   if (aEnable) {
 272:src/camtest.c ****     os_disp_putc(K_PushCursor);
 625              		.loc 1 272 0
 626 0002 0E21     		movs	r1, #14
 627 0004 1620     		movs	r0, #22
 628 0006 FFF7FEFF 		bl	sys_func1
 629              	.LVL97:
 273:src/camtest.c ****     os_disp_backc(K_TRANS_COLOR);
 630              		.loc 1 273 0
 631 000a 4FF6FF71 		movw	r1, #65535
 632 000e 2020     		movs	r0, #32
 633 0010 FFF7FEFF 		bl	sys_func1
 634              	.LVL98:
 274:src/camtest.c ****     //os_disp_textc(K_TEXT_COLOR);
 275:src/camtest.c ****     os_disp_textc(RGB(0x00,0x00,0xFF));
 635              		.loc 1 275 0
 636 0014 1F20     		movs	r0, #31
 637 0016 0146     		mov	r1, r0
 276:src/camtest.c ****   }
 277:src/camtest.c ****   else {
 278:src/camtest.c ****     os_disp_putc(K_PopCursor);
ARM GAS  C:\Users\AHMED~1.ELE\AppData\Local\Temp\cc594ylT.s 			page 18


 279:src/camtest.c ****   }
 280:src/camtest.c **** }
 638              		.loc 1 280 0
 639 0018 BDE80840 		pop	{r3, lr}
 640              		.cfi_restore 14
 641              		.cfi_restore 3
 642              		.cfi_def_cfa_offset 0
 275:src/camtest.c ****   }
 643              		.loc 1 275 0
 644 001c FFF7FEBF 		b	sys_func1
 645              	.LVL99:
 646              		.cfi_endproc
 647              	.LFE10:
 648              		.size	LcdOnLayerEnable.part.0, .-LcdOnLayerEnable.part.0
 649              		.section	.text.LcdOnLayerShow.constprop.1,"ax",%progbits
 650              		.align	1
 651              		.thumb
 652              		.thumb_func
 653              		.type	LcdOnLayerShow.constprop.1, %function
 654              	LcdOnLayerShow.constprop.1:
 655              	.LFB11:
 281:src/camtest.c **** 
 282:src/camtest.c **** //*****************************************************************************
 283:src/camtest.c **** //  Function        : LcdOnLayerShow
 284:src/camtest.c **** //  Description     : Pop Lcd buffer to Overlay
 285:src/camtest.c **** //  Input           : aId;      // overlay id
 286:src/camtest.c **** //                    aShow;    // TRUE/FALSE => show / no show
 287:src/camtest.c **** //  Return          : N/A
 288:src/camtest.c **** //  Note            : N/A
 289:src/camtest.c **** //  Globals Changed : N/A
 290:src/camtest.c **** //*****************************************************************************
 291:src/camtest.c **** static void LcdOnLayerShow(DWORD aId, BOOLEAN aShow)
 656              		.loc 1 291 0
 657              		.cfi_startproc
 658              		@ args = 0, pretend = 0, frame = 307216
 659              		@ frame_needed = 0, uses_anonymous_args = 0
 660              	.LVL100:
 661 0000 00B5     		push	{lr}
 662              		.cfi_def_cfa_offset 4
 663              		.cfi_offset 14, -4
 664 0002 ADF5962D 		sub	sp, sp, #307200
 665              		.cfi_def_cfa_offset 307204
 666 0006 85B0     		sub	sp, sp, #20
 667              		.cfi_def_cfa_offset 307224
 292:src/camtest.c **** {
 293:src/camtest.c ****   BYTE extra[OVERLAY_EXTRA_RGB_CR_KEY_HB+1];
 294:src/camtest.c ****   T_LCDBUF lcd, *pLcdBuf = NULL;
 295:src/camtest.c **** 
 296:src/camtest.c ****   if (aShow) {
 668              		.loc 1 296 0
 669 0008 C0B1     		cbz	r0, .L68
 297:src/camtest.c ****     memset(&lcd, 0, sizeof(lcd));
 670              		.loc 1 297 0
 671 000a 0021     		movs	r1, #0
 672 000c 104A     		ldr	r2, .L70
 673 000e 02A8     		add	r0, sp, #8
 674              	.LVL101:
ARM GAS  C:\Users\AHMED~1.ELE\AppData\Local\Temp\cc594ylT.s 			page 19


 675 0010 FFF7FEFF 		bl	memset
 676              	.LVL102:
 298:src/camtest.c ****     lcd.w_hwidth = 320;
 677              		.loc 1 298 0
 678 0014 4FF4A073 		mov	r3, #320
 299:src/camtest.c ****     lcd.w_vwidth = 216;
 300:src/camtest.c ****     os_disp_getg(&lcd);
 679              		.loc 1 300 0
 680 0018 1920     		movs	r0, #25
 298:src/camtest.c ****     lcd.w_hwidth = 320;
 681              		.loc 1 298 0
 682 001a ADF80C30 		strh	r3, [sp, #12]	@ movhi
 299:src/camtest.c ****     lcd.w_vwidth = 216;
 683              		.loc 1 299 0
 684 001e D823     		movs	r3, #216
 685              		.loc 1 300 0
 686 0020 02A9     		add	r1, sp, #8
 299:src/camtest.c ****     lcd.w_vwidth = 216;
 687              		.loc 1 299 0
 688 0022 ADF80E30 		strh	r3, [sp, #14]	@ movhi
 689              		.loc 1 300 0
 690 0026 FFF7FEFF 		bl	sys_func1
 691              	.LVL103:
 301:src/camtest.c **** 
 302:src/camtest.c ****     extra[OVERLAY_EXTRA_PARAM_LEN]     = OVERLAY_EXTRA_RGB_CR_KEY_HB;
 692              		.loc 1 302 0
 693 002a 0223     		movs	r3, #2
 303:src/camtest.c ****     extra[OVERLAY_EXTRA_RGB_CR_KEY_LB] = K_TRANS_COLOR & 0xff;   // Set Transparent color
 304:src/camtest.c ****     extra[OVERLAY_EXTRA_RGB_CR_KEY_HB] = (K_TRANS_COLOR >> 8) & 0xff;
 305:src/camtest.c ****     pLcdBuf = &lcd;
 694              		.loc 1 305 0
 695 002c 02A8     		add	r0, sp, #8
 302:src/camtest.c ****     extra[OVERLAY_EXTRA_RGB_CR_KEY_LB] = K_TRANS_COLOR & 0xff;   // Set Transparent color
 696              		.loc 1 302 0
 697 002e 8DF80430 		strb	r3, [sp, #4]
 303:src/camtest.c ****     extra[OVERLAY_EXTRA_RGB_CR_KEY_LB] = K_TRANS_COLOR & 0xff;   // Set Transparent color
 698              		.loc 1 303 0
 699 0032 FF23     		movs	r3, #255
 700 0034 8DF80530 		strb	r3, [sp, #5]
 304:src/camtest.c ****     pLcdBuf = &lcd;
 701              		.loc 1 304 0
 702 0038 8DF80630 		strb	r3, [sp, #6]
 703              	.LVL104:
 704              	.L68:
 306:src/camtest.c ****   }
 307:src/camtest.c **** 
 308:src/camtest.c ****   ShowLayer(pLcdBuf, aId|K_DispOverlayRGB565|K_DispOverlayCRKeyExist, extra);
 705              		.loc 1 308 0
 706 003c 41F20111 		movw	r1, #4353
 707 0040 01AA     		add	r2, sp, #4
 708 0042 FFF7FEFF 		bl	ShowLayer
 709              	.LVL105:
 309:src/camtest.c **** }
 710              		.loc 1 309 0
 711 0046 0DF5962D 		add	sp, sp, #307200
 712 004a 05B0     		add	sp, sp, #20
 713              		.cfi_def_cfa_offset 4
ARM GAS  C:\Users\AHMED~1.ELE\AppData\Local\Temp\cc594ylT.s 			page 20


 714              		@ sp needed
 715 004c 5DF804FB 		ldr	pc, [sp], #4
 716              	.L71:
 717              		.align	2
 718              	.L70:
 719 0050 08B00400 		.word	307208
 720              		.cfi_endproc
 721              	.LFE11:
 722              		.size	LcdOnLayerShow.constprop.1, .-LcdOnLayerShow.constprop.1
 723              		.section	.text.Y800toLcdLeft,"ax",%progbits
 724              		.align	1
 725              		.global	Y800toLcdLeft
 726              		.thumb
 727              		.thumb_func
 728              		.type	Y800toLcdLeft, %function
 729              	Y800toLcdLeft:
 730              	.LFB6:
 310:src/camtest.c **** 
 311:src/camtest.c **** BOOLEAN Y800toLcdLeft(T_LCDBUF *aLcd, T_IMAGE_FRAME *aCfg, BYTE *aY800, DWORD aOffset) 
 312:src/camtest.c **** {
 731              		.loc 1 312 0
 732              		.cfi_startproc
 733              		@ args = 0, pretend = 0, frame = 0
 734              		@ frame_needed = 0, uses_anonymous_args = 0
 735              	.LVL106:
 736 0000 F0B5     		push	{r4, r5, r6, r7, lr}
 737              		.cfi_def_cfa_offset 20
 738              		.cfi_offset 4, -20
 739              		.cfi_offset 5, -16
 740              		.cfi_offset 6, -12
 741              		.cfi_offset 7, -8
 742              		.cfi_offset 14, -4
 313:src/camtest.c ****   int  x, y, xoff, yoff;
 314:src/camtest.c ****   WORD *ptr = aLcd->data;
 315:src/camtest.c **** 
 316:src/camtest.c ****   aLcd->w_hwidth = aLcd->w_hwidth > aCfg->width ? aCfg->width : aLcd->w_hwidth;
 743              		.loc 1 316 0
 744 0002 D1F804E0 		ldr	lr, [r1, #4]
 745 0006 8488     		ldrh	r4, [r0, #4]
 317:src/camtest.c ****   aLcd->w_vwidth = aLcd->w_vwidth > aCfg->height ? aCfg->height : aLcd->w_vwidth;
 746              		.loc 1 317 0
 747 0008 8968     		ldr	r1, [r1, #8]
 748              	.LVL107:
 749 000a C588     		ldrh	r5, [r0, #6]
 316:src/camtest.c ****   aLcd->w_vwidth = aLcd->w_vwidth > aCfg->height ? aCfg->height : aLcd->w_vwidth;
 750              		.loc 1 316 0
 751 000c 7445     		cmp	r4, lr
 752 000e 28BF     		it	cs
 753 0010 7446     		movcs	r4, lr
 754              		.loc 1 317 0
 755 0012 A942     		cmp	r1, r5
 756 0014 28BF     		it	cs
 757 0016 2946     		movcs	r1, r5
 314:src/camtest.c **** 
 758              		.loc 1 314 0
 759 0018 00F1080C 		add	ip, r0, #8
 760              	.LVL108:
ARM GAS  C:\Users\AHMED~1.ELE\AppData\Local\Temp\cc594ylT.s 			page 21


 761              		.loc 1 317 0
 762 001c C180     		strh	r1, [r0, #6]	@ movhi
 763              	.LVL109:
 318:src/camtest.c ****   xoff = yoff = 0;
 319:src/camtest.c ****   xoff = aOffset;
 320:src/camtest.c ****   for (x = aLcd->w_hwidth - 1; x >= 0; x--) {
 764              		.loc 1 320 0
 765 001e 611E     		subs	r1, r4, #1
 766              	.LVL110:
 316:src/camtest.c ****   aLcd->w_vwidth = aLcd->w_vwidth > aCfg->height ? aCfg->height : aLcd->w_vwidth;
 767              		.loc 1 316 0
 768 0020 8480     		strh	r4, [r0, #4]	@ movhi
 769              	.L73:
 770              		.loc 1 320 0 discriminator 1
 771 0022 4C1C     		adds	r4, r1, #1
 772 0024 17D0     		beq	.L75
 773 0026 0026     		movs	r6, #0
 774 0028 3746     		mov	r7, r6
 775              	.LVL111:
 776              	.L76:
 321:src/camtest.c ****     for (y = 0; y < aLcd->w_vwidth; y++) {
 777              		.loc 1 321 0 discriminator 1
 778 002a C488     		ldrh	r4, [r0, #6]
 779 002c 7644     		add	r6, r6, lr
 780 002e A742     		cmp	r7, r4
 781 0030 0FDA     		bge	.L77
 782 0032 CEEB0304 		rsb	r4, lr, r3
 783 0036 0C44     		add	r4, r4, r1
 784 0038 1444     		add	r4, r4, r2
 785              		.loc 1 321 0 is_stmt 0 discriminator 3
 786 003a 0137     		adds	r7, r7, #1
 787              	.LVL112:
 788              	.LBB6:
 322:src/camtest.c ****       WORD grey = (aY800[(y+yoff)*aCfg->width+x+xoff]/8)&0x1F;
 789              		.loc 1 322 0 is_stmt 1 discriminator 3
 790 003c A45D     		ldrb	r4, [r4, r6]	@ zero_extendqisi2
 791 003e E408     		lsrs	r4, r4, #3
 792              	.LVL113:
 323:src/camtest.c ****       *ptr++ = grey << 11 | grey << 6 | grey | 0x20;
 793              		.loc 1 323 0 discriminator 3
 794 0040 A501     		lsls	r5, r4, #6
 795 0042 45EAC425 		orr	r5, r5, r4, lsl #11
 796 0046 44F02004 		orr	r4, r4, #32
 797              	.LVL114:
 798 004a 2C43     		orrs	r4, r4, r5
 799 004c 2CF8024B 		strh	r4, [ip], #2	@ movhi
 800              	.LVL115:
 801 0050 EBE7     		b	.L76
 802              	.LVL116:
 803              	.L77:
 804              	.LBE6:
 320:src/camtest.c ****     for (y = 0; y < aLcd->w_vwidth; y++) {
 805              		.loc 1 320 0 discriminator 2
 806 0052 0139     		subs	r1, r1, #1
 807              	.LVL117:
 808 0054 E5E7     		b	.L73
 809              	.LVL118:
ARM GAS  C:\Users\AHMED~1.ELE\AppData\Local\Temp\cc594ylT.s 			page 22


 810              	.L75:
 324:src/camtest.c ****     }
 325:src/camtest.c ****   }
 326:src/camtest.c ****   
 327:src/camtest.c ****   return TRUE;
 328:src/camtest.c **** }
 811              		.loc 1 328 0
 812 0056 0120     		movs	r0, #1
 813              	.LVL119:
 814 0058 F0BD     		pop	{r4, r5, r6, r7, pc}
 815              		.cfi_endproc
 816              	.LFE6:
 817              		.size	Y800toLcdLeft, .-Y800toLcdLeft
 818              		.section	.text.ShowBarcode,"ax",%progbits
 819              		.align	1
 820              		.global	ShowBarcode
 821              		.thumb
 822              		.thumb_func
 823              		.type	ShowBarcode, %function
 824              	ShowBarcode:
 825              	.LFB7:
 329:src/camtest.c **** 
 330:src/camtest.c **** void ShowBarcode(BYTE *aDat, T_IMAGE_FRAME *aFrameCfg)
 331:src/camtest.c **** {
 826              		.loc 1 331 0
 827              		.cfi_startproc
 828              		@ args = 0, pretend = 0, frame = 0
 829              		@ frame_needed = 0, uses_anonymous_args = 0
 830              	.LVL120:
 831 0000 2DE9F843 		push	{r3, r4, r5, r6, r7, r8, r9, lr}
 832              		.cfi_def_cfa_offset 32
 833              		.cfi_offset 3, -32
 834              		.cfi_offset 4, -28
 835              		.cfi_offset 5, -24
 836              		.cfi_offset 6, -20
 837              		.cfi_offset 7, -16
 838              		.cfi_offset 8, -12
 839              		.cfi_offset 9, -8
 840              		.cfi_offset 14, -4
 332:src/camtest.c ****   T_LCDBUF *plcd = (T_LCDBUF *) MallocMW(sizeof(T_LCDBUF));
 841              		.loc 1 332 0
 842 0004 234D     		ldr	r5, .L79
 331:src/camtest.c ****   T_LCDBUF *plcd = (T_LCDBUF *) MallocMW(sizeof(T_LCDBUF));
 843              		.loc 1 331 0
 844 0006 0746     		mov	r7, r0
 845 0008 8846     		mov	r8, r1
 846              		.loc 1 332 0
 847 000a 9220     		movs	r0, #146
 848              	.LVL121:
 849 000c 2946     		mov	r1, r5
 850              	.LVL122:
 851 000e FFF7FEFF 		bl	sys_func1
 852              	.LVL123:
 333:src/camtest.c ****   memset(plcd, 0, sizeof(T_LCDBUF));
 853              		.loc 1 333 0
 854 0012 2A46     		mov	r2, r5
 855 0014 0021     		movs	r1, #0
ARM GAS  C:\Users\AHMED~1.ELE\AppData\Local\Temp\cc594ylT.s 			page 23


 334:src/camtest.c ****   plcd->w_hwidth = 320;
 856              		.loc 1 334 0
 857 0016 4FF4A076 		mov	r6, #320
 332:src/camtest.c ****   memset(plcd, 0, sizeof(T_LCDBUF));
 858              		.loc 1 332 0
 859 001a 0446     		mov	r4, r0
 860              	.LVL124:
 333:src/camtest.c ****   memset(plcd, 0, sizeof(T_LCDBUF));
 861              		.loc 1 333 0
 862 001c FFF7FEFF 		bl	memset
 863              	.LVL125:
 335:src/camtest.c ****   plcd->w_vwidth = 12;
 336:src/camtest.c ****   plcd->w_hstart = 0;
 864              		.loc 1 336 0
 865 0020 0025     		movs	r5, #0
 335:src/camtest.c ****   plcd->w_vwidth = 12;
 866              		.loc 1 335 0
 867 0022 4FF00C09 		mov	r9, #12
 337:src/camtest.c ****   plcd->w_vstart = 160;
 868              		.loc 1 337 0
 869 0026 A023     		movs	r3, #160
 338:src/camtest.c ****   Y800toLcdLeft(plcd, aFrameCfg, aDat, 0);
 870              		.loc 1 338 0
 871 0028 3A46     		mov	r2, r7
 337:src/camtest.c ****   plcd->w_vstart = 160;
 872              		.loc 1 337 0
 873 002a 6380     		strh	r3, [r4, #2]	@ movhi
 874              		.loc 1 338 0
 875 002c 4146     		mov	r1, r8
 876 002e 2B46     		mov	r3, r5
 334:src/camtest.c ****   plcd->w_vwidth = 12;
 877              		.loc 1 334 0
 878 0030 A680     		strh	r6, [r4, #4]	@ movhi
 335:src/camtest.c ****   plcd->w_hstart = 0;
 879              		.loc 1 335 0
 880 0032 A4F80690 		strh	r9, [r4, #6]	@ movhi
 336:src/camtest.c ****   plcd->w_vstart = 160;
 881              		.loc 1 336 0
 882 0036 2580     		strh	r5, [r4]	@ movhi
 883              		.loc 1 338 0
 884 0038 2046     		mov	r0, r4
 885 003a FFF7FEFF 		bl	Y800toLcdLeft
 886              	.LVL126:
 339:src/camtest.c ****   os_disp_putg(plcd);
 887              		.loc 1 339 0
 888 003e 2146     		mov	r1, r4
 889 0040 1A20     		movs	r0, #26
 890 0042 FFF7FEFF 		bl	sys_func1
 891              	.LVL127:
 340:src/camtest.c **** 
 341:src/camtest.c ****   plcd->w_hwidth = 320;
 342:src/camtest.c ****   plcd->w_vwidth = 12;
 343:src/camtest.c ****   plcd->w_hstart = 0;
 344:src/camtest.c ****   plcd->w_vstart = 180;
 892              		.loc 1 344 0
 893 0046 B423     		movs	r3, #180
 345:src/camtest.c ****   Y800toLcdLeft(plcd, aFrameCfg, aDat, 320);
ARM GAS  C:\Users\AHMED~1.ELE\AppData\Local\Temp\cc594ylT.s 			page 24


 894              		.loc 1 345 0
 895 0048 3A46     		mov	r2, r7
 344:src/camtest.c ****   Y800toLcdLeft(plcd, aFrameCfg, aDat, 320);
 896              		.loc 1 344 0
 897 004a 6380     		strh	r3, [r4, #2]	@ movhi
 898              		.loc 1 345 0
 899 004c 4146     		mov	r1, r8
 900 004e 3346     		mov	r3, r6
 341:src/camtest.c ****   plcd->w_vwidth = 12;
 901              		.loc 1 341 0
 902 0050 A680     		strh	r6, [r4, #4]	@ movhi
 342:src/camtest.c ****   plcd->w_hstart = 0;
 903              		.loc 1 342 0
 904 0052 A4F80690 		strh	r9, [r4, #6]	@ movhi
 343:src/camtest.c ****   plcd->w_vstart = 180;
 905              		.loc 1 343 0
 906 0056 2580     		strh	r5, [r4]	@ movhi
 907              		.loc 1 345 0
 908 0058 2046     		mov	r0, r4
 909 005a FFF7FEFF 		bl	Y800toLcdLeft
 910              	.LVL128:
 346:src/camtest.c ****   os_disp_putg(plcd);
 911              		.loc 1 346 0
 912 005e 2146     		mov	r1, r4
 913 0060 1A20     		movs	r0, #26
 914 0062 FFF7FEFF 		bl	sys_func1
 915              	.LVL129:
 347:src/camtest.c **** 
 348:src/camtest.c ****   plcd->w_hwidth = 320;
 349:src/camtest.c ****   plcd->w_vwidth = 12;
 350:src/camtest.c ****   plcd->w_hstart = 0;
 351:src/camtest.c ****   plcd->w_vstart = 200;
 916              		.loc 1 351 0
 917 0066 C823     		movs	r3, #200
 352:src/camtest.c ****   Y800toLcdLeft(plcd, aFrameCfg, aDat, 640);
 918              		.loc 1 352 0
 919 0068 4146     		mov	r1, r8
 351:src/camtest.c ****   Y800toLcdLeft(plcd, aFrameCfg, aDat, 640);
 920              		.loc 1 351 0
 921 006a 6380     		strh	r3, [r4, #2]	@ movhi
 922              		.loc 1 352 0
 923 006c 3A46     		mov	r2, r7
 924 006e 4FF42073 		mov	r3, #640
 348:src/camtest.c ****   plcd->w_vwidth = 12;
 925              		.loc 1 348 0
 926 0072 A680     		strh	r6, [r4, #4]	@ movhi
 349:src/camtest.c ****   plcd->w_hstart = 0;
 927              		.loc 1 349 0
 928 0074 A4F80690 		strh	r9, [r4, #6]	@ movhi
 350:src/camtest.c ****   plcd->w_vstart = 200;
 929              		.loc 1 350 0
 930 0078 2580     		strh	r5, [r4]	@ movhi
 931              		.loc 1 352 0
 932 007a 2046     		mov	r0, r4
 933 007c FFF7FEFF 		bl	Y800toLcdLeft
 934              	.LVL130:
 353:src/camtest.c ****   os_disp_putg(plcd);
ARM GAS  C:\Users\AHMED~1.ELE\AppData\Local\Temp\cc594ylT.s 			page 25


 935              		.loc 1 353 0
 936 0080 2146     		mov	r1, r4
 937 0082 1A20     		movs	r0, #26
 938 0084 FFF7FEFF 		bl	sys_func1
 939              	.LVL131:
 354:src/camtest.c **** 
 355:src/camtest.c ****   FreeMW(plcd);
 940              		.loc 1 355 0
 941 0088 2146     		mov	r1, r4
 942 008a 9420     		movs	r0, #148
 356:src/camtest.c **** }
 943              		.loc 1 356 0
 944 008c BDE8F843 		pop	{r3, r4, r5, r6, r7, r8, r9, lr}
 945              		.cfi_restore 14
 946              		.cfi_restore 9
 947              		.cfi_restore 8
 948              		.cfi_restore 7
 949              		.cfi_restore 6
 950              		.cfi_restore 5
 951              		.cfi_restore 4
 952              		.cfi_restore 3
 953              		.cfi_def_cfa_offset 0
 954              	.LVL132:
 355:src/camtest.c **** }
 955              		.loc 1 355 0
 956 0090 FFF7FEBF 		b	sys_func1
 957              	.LVL133:
 958              	.L80:
 959              		.align	2
 960              	.L79:
 961 0094 08B00400 		.word	307208
 962              		.cfi_endproc
 963              	.LFE7:
 964              		.size	ShowBarcode, .-ShowBarcode
 965              		.section	.text.CamTest2D,"ax",%progbits
 966              		.align	1
 967              		.global	CamTest2D
 968              		.thumb
 969              		.thumb_func
 970              		.type	CamTest2D, %function
 971              	CamTest2D:
 972              	.LFB8:
 357:src/camtest.c **** //*****************************************************************************
 358:src/camtest.c **** //  Function        : CamTest
 359:src/camtest.c **** //  Description     : Test Camera.
 360:src/camtest.c **** //  Input           : N/A
 361:src/camtest.c **** //  Return          : N/A
 362:src/camtest.c **** //  Note            : N/A
 363:src/camtest.c **** //  Globals Changed : N/A
 364:src/camtest.c **** //*****************************************************************************
 365:src/camtest.c **** enum {
 366:src/camtest.c ****   MODE_W960_D			 ,             // 960x720 with preview & decode
 367:src/camtest.c ****   MODE_W640_D			 ,             // 640x480 with preview & decode
 368:src/camtest.c ****   MODE_W320_D			 ,             // 320x240 with preview & decode
 369:src/camtest.c ****   MODE_W320_SD			 ,             // 320x240 with preview & decode small
 370:src/camtest.c ****   MODE_F960_D			 ,             // 960x720 with FullScreen & decode
 371:src/camtest.c ****   MODE_F640_D			 ,             // 640x480 with FullScreen & decode
ARM GAS  C:\Users\AHMED~1.ELE\AppData\Local\Temp\cc594ylT.s 			page 26


 372:src/camtest.c ****   MODE_F320_D			 ,             // 320x240 with FullScreen & decode
 373:src/camtest.c ****   MODE_MAX               ,
 374:src/camtest.c **** };
 375:src/camtest.c **** void CamTest2D(void)
 376:src/camtest.c **** {
 973              		.loc 1 376 0
 974              		.cfi_startproc
 975              		@ args = 0, pretend = 0, frame = 560
 976              		@ frame_needed = 0, uses_anonymous_args = 0
 977              	.LVL134:
 978 0000 2DE9F04F 		push	{r4, r5, r6, r7, r8, r9, r10, fp, lr}
 979              		.cfi_def_cfa_offset 36
 980              		.cfi_offset 4, -36
 981              		.cfi_offset 5, -32
 982              		.cfi_offset 6, -28
 983              		.cfi_offset 7, -24
 984              		.cfi_offset 8, -20
 985              		.cfi_offset 9, -16
 986              		.cfi_offset 10, -12
 987              		.cfi_offset 11, -8
 988              		.cfi_offset 14, -4
 377:src/camtest.c ****   T_IMAGE_FRAME framecfg; // output structure for driver to return image frame properties
 378:src/camtest.c ****   T_LCDG previewlcd;
 379:src/camtest.c **** 
 380:src/camtest.c ****   T_LCDG *preview=NULL;
 381:src/camtest.c ****   BYTE *pY800Dat = NULL;
 382:src/camtest.c ****   T_BAR_DAT  *pbar_dat  = NULL;
 383:src/camtest.c ****   T_BAROUT_DAT *pbar_out = NULL;
 384:src/camtest.c ****   #define DECODEDSTR_SIZE 256
 385:src/camtest.c ****   #define SYMTYPE_SIZE    128
 386:src/camtest.c ****   char *pdecoded_str = NULL;
 387:src/camtest.c ****   char *psym_type    = NULL;
 388:src/camtest.c **** 
 389:src/camtest.c ****   DWORD keyin, mode, curr_mode, last_mode, i;
 390:src/camtest.c ****   BYTE  dispbuf[512];
 391:src/camtest.c ****   BOOLEAN img_led = 0;
 392:src/camtest.c ****   DWORD oned_height = 0;
 393:src/camtest.c ****   //DWORD cap_start, cap_tick, dec_start, dec_tick;
 394:src/camtest.c ****   int zb, zx, twod, ret;
 395:src/camtest.c **** 
 396:src/camtest.c ****   if (!IsAppIdExistMW(BARDLL_ID)) {
 989              		.loc 1 396 0
 990 0004 8D20     		movs	r0, #141
 376:src/camtest.c ****   T_IMAGE_FRAME framecfg; // output structure for driver to return image frame properties
 991              		.loc 1 376 0
 992 0006 ADF50F7D 		sub	sp, sp, #572
 993              		.cfi_def_cfa_offset 608
 994              		.loc 1 396 0
 995 000a 0D21     		movs	r1, #13
 996 000c FFF7FEFF 		bl	sys_func1
 997              	.LVL135:
 998 0010 0546     		mov	r5, r0
 999 0012 18BB     		cbnz	r0, .L82
 1000              	.LVL136:
 1001              	.LBB25:
 397:src/camtest.c ****     DispLineMW("BARDLL NOT LOADED!", MW_LINE5, MW_CLRDISP|MW_CENTER|MW_BIGFONT);
 1002              		.loc 1 397 0
ARM GAS  C:\Users\AHMED~1.ELE\AppData\Local\Temp\cc594ylT.s 			page 27


 1003 0014 9220     		movs	r0, #146
 1004 0016 1321     		movs	r1, #19
 1005 0018 FFF7FEFF 		bl	sys_func1
 1006              	.LVL137:
 1007 001c 0446     		mov	r4, r0
 1008 001e 90B1     		cbz	r0, .L83
 1009              		.loc 1 397 0 is_stmt 0 discriminator 1
 1010 0020 C649     		ldr	r1, .L205
 1011 0022 1222     		movs	r2, #18
 1012 0024 FFF7FEFF 		bl	memcpy
 1013              	.LVL138:
 1014 0028 41F28203 		movw	r3, #4226
 1015 002c A574     		strb	r5, [r4, #18]
 1016 002e 2521     		movs	r1, #37
 1017 0030 0093     		str	r3, [sp]
 1018 0032 0F20     		movs	r0, #15
 1019 0034 2246     		mov	r2, r4
 1020 0036 4FF4A063 		mov	r3, #1280
 1021 003a FFF7FEFF 		bl	lib_app_call
 1022              	.LVL139:
 1023 003e 9420     		movs	r0, #148
 1024 0040 2146     		mov	r1, r4
 1025 0042 FFF7FEFF 		bl	sys_func1
 1026              	.LVL140:
 1027              	.L83:
 1028              	.LBE25:
 398:src/camtest.c ****     LongBeep();
 1029              		.loc 1 398 0 is_stmt 1
 1030 0046 FFF7FEFF 		bl	LongBeep
 1031              	.LVL141:
 399:src/camtest.c ****     APM_WaitKey(KBD_TIMEOUT, 0);
 1032              		.loc 1 399 0
 1033 004a 0023     		movs	r3, #0
 1034 004c 0321     		movs	r1, #3
 1035 004e 0093     		str	r3, [sp]
 1036 0050 42F22832 		movw	r2, #9000
 1037 0054 1020     		movs	r0, #16
 1038 0056 FFF7FEFF 		bl	lib_app_call
 1039              	.LVL142:
 1040 005a DFE2     		b	.L81
 1041              	.LVL143:
 1042              	.L82:
 400:src/camtest.c ****     return;
 401:src/camtest.c ****   }
 402:src/camtest.c **** 
 403:src/camtest.c ****   // Ready Default Preview config
 404:src/camtest.c ****   memset(&previewlcd, 0, sizeof(previewlcd));
 1043              		.loc 1 404 0
 1044 005c 0021     		movs	r1, #0
 1045 005e 0C22     		movs	r2, #12
 1046 0060 07A8     		add	r0, sp, #28
 1047 0062 FFF7FEFF 		bl	memset
 1048              	.LVL144:
 405:src/camtest.c ****   previewlcd.w_hwidth = 160; //144;  // must key the ratio
 1049              		.loc 1 405 0
 1050 0066 A023     		movs	r3, #160
 1051              	.LBB26:
ARM GAS  C:\Users\AHMED~1.ELE\AppData\Local\Temp\cc594ylT.s 			page 28


 406:src/camtest.c ****   previewlcd.w_vwidth = 120; //108;
 407:src/camtest.c ****   previewlcd.w_hstart = 0;
 408:src/camtest.c ****   previewlcd.w_vstart = 0;
 409:src/camtest.c ****   preview = &previewlcd;
 410:src/camtest.c **** 
 411:src/camtest.c ****   // Setup Current disp mode
 412:src/camtest.c ****   curr_mode = MODE_F320_D; 
 413:src/camtest.c ****   last_mode = MODE_MAX;
 414:src/camtest.c ****   mode      = SENSOR_MODE_320;
 415:src/camtest.c **** 
 416:src/camtest.c ****   DispLineMW("CamTest", MW_LINE1, MW_CLRDISP|MW_CENTER|MW_REVERSE|MW_SPFONT);
 1052              		.loc 1 416 0
 1053 0068 9220     		movs	r0, #146
 1054              	.LBE26:
 405:src/camtest.c ****   previewlcd.w_hwidth = 160; //144;  // must key the ratio
 1055              		.loc 1 405 0
 1056 006a ADF82030 		strh	r3, [sp, #32]	@ movhi
 406:src/camtest.c ****   previewlcd.w_vwidth = 120; //108;
 1057              		.loc 1 406 0
 1058 006e 7823     		movs	r3, #120
 1059              	.LBB27:
 1060              		.loc 1 416 0
 1061 0070 0821     		movs	r1, #8
 1062              	.LBE27:
 406:src/camtest.c ****   previewlcd.w_vwidth = 120; //108;
 1063              		.loc 1 406 0
 1064 0072 ADF82230 		strh	r3, [sp, #34]	@ movhi
 1065              	.LVL145:
 1066              	.LBB28:
 1067              		.loc 1 416 0
 1068 0076 FFF7FEFF 		bl	sys_func1
 1069              	.LVL146:
 1070 007a 0446     		mov	r4, r0
 1071 007c 98B1     		cbz	r0, .L85
 1072              		.loc 1 416 0 is_stmt 0 discriminator 1
 1073 007e B049     		ldr	r1, .L205+4
 1074 0080 0722     		movs	r2, #7
 1075 0082 FFF7FEFF 		bl	memcpy
 1076              	.LVL147:
 1077 0086 0023     		movs	r3, #0
 1078 0088 2521     		movs	r1, #37
 1079 008a E371     		strb	r3, [r4, #7]
 1080 008c 42F29203 		movw	r3, #8338
 1081 0090 0F20     		movs	r0, #15
 1082 0092 0093     		str	r3, [sp]
 1083 0094 2246     		mov	r2, r4
 1084 0096 4FF48073 		mov	r3, #256
 1085 009a FFF7FEFF 		bl	lib_app_call
 1086              	.LVL148:
 1087 009e 9420     		movs	r0, #148
 1088 00a0 2146     		mov	r1, r4
 1089 00a2 FFF7FEFF 		bl	sys_func1
 1090              	.LVL149:
 1091              	.L85:
 1092              	.LBE28:
 1093              	.LBB29:
 417:src/camtest.c ****   DispLineMW("Wait For CAM Ready", MW_LINE5, MW_CENTER|MW_SPFONT);
ARM GAS  C:\Users\AHMED~1.ELE\AppData\Local\Temp\cc594ylT.s 			page 29


 1094              		.loc 1 417 0 is_stmt 1
 1095 00a6 9220     		movs	r0, #146
 1096 00a8 1321     		movs	r1, #19
 1097 00aa FFF7FEFF 		bl	sys_func1
 1098              	.LVL150:
 1099 00ae 0446     		mov	r4, r0
 1100              	.LVL151:
 1101 00b0 98B1     		cbz	r0, .L86
 1102              		.loc 1 417 0 is_stmt 0 discriminator 1
 1103 00b2 A449     		ldr	r1, .L205+8
 1104 00b4 1222     		movs	r2, #18
 1105 00b6 FFF7FEFF 		bl	memcpy
 1106              	.LVL152:
 1107 00ba 0023     		movs	r3, #0
 1108 00bc 2521     		movs	r1, #37
 1109 00be A374     		strb	r3, [r4, #18]
 1110 00c0 42F20203 		movw	r3, #8194
 1111 00c4 0F20     		movs	r0, #15
 1112 00c6 0093     		str	r3, [sp]
 1113 00c8 2246     		mov	r2, r4
 1114 00ca 4FF4A063 		mov	r3, #1280
 1115 00ce FFF7FEFF 		bl	lib_app_call
 1116              	.LVL153:
 1117 00d2 9420     		movs	r0, #148
 1118 00d4 2146     		mov	r1, r4
 1119 00d6 FFF7FEFF 		bl	sys_func1
 1120              	.LVL154:
 1121              	.L86:
 1122              	.LBE29:
 1123              	.LBB30:
 1124              	.LBB31:
 1125 00da FFF7FEFF 		bl	LcdOnLayerEnable.part.0
 1126              	.LVL155:
 1127              	.LBE31:
 1128              	.LBE30:
 418:src/camtest.c **** 
 419:src/camtest.c ****   LcdOnLayerEnable(TRUE);
 420:src/camtest.c **** 
 421:src/camtest.c ****   pY800Dat = MallocMW(960*720);   // allocate max frame size; 960*720
 1129              		.loc 1 421 0 is_stmt 1
 1130 00de 9A49     		ldr	r1, .L205+12
 1131 00e0 9220     		movs	r0, #146
 1132 00e2 FFF7FEFF 		bl	sys_func1
 1133              	.LVL156:
 422:src/camtest.c ****   pbar_dat = (T_BAR_DAT  *)MallocMW(sizeof(T_BAR_DAT));
 1134              		.loc 1 422 0
 1135 00e6 0C21     		movs	r1, #12
 423:src/camtest.c ****   pbar_out = (T_BAROUT_DAT *)MallocMW(sizeof(T_BAROUT_DAT));
 424:src/camtest.c ****   pdecoded_str = (char *)MallocMW(DECODEDSTR_SIZE);
 425:src/camtest.c ****   psym_type    = (char *)MallocMW(SYMTYPE_SIZE);
 426:src/camtest.c **** 
 427:src/camtest.c ****   zb = zx = twod = keyin = 0;
 1136              		.loc 1 427 0
 1137 00e8 4FF0000A 		mov	r10, #0
 413:src/camtest.c ****   mode      = SENSOR_MODE_320;
 1138              		.loc 1 413 0
 1139 00ec 4FF00709 		mov	r9, #7
ARM GAS  C:\Users\AHMED~1.ELE\AppData\Local\Temp\cc594ylT.s 			page 30


 421:src/camtest.c ****   pbar_dat = (T_BAR_DAT  *)MallocMW(sizeof(T_BAR_DAT));
 1140              		.loc 1 421 0
 1141 00f0 8346     		mov	fp, r0
 1142              	.LVL157:
 422:src/camtest.c ****   pbar_out = (T_BAROUT_DAT *)MallocMW(sizeof(T_BAROUT_DAT));
 1143              		.loc 1 422 0
 1144 00f2 9220     		movs	r0, #146
 1145              	.LVL158:
 1146 00f4 FFF7FEFF 		bl	sys_func1
 1147              	.LVL159:
 423:src/camtest.c ****   pdecoded_str = (char *)MallocMW(DECODEDSTR_SIZE);
 1148              		.loc 1 423 0
 1149 00f8 1021     		movs	r1, #16
 412:src/camtest.c ****   last_mode = MODE_MAX;
 1150              		.loc 1 412 0
 1151 00fa 0624     		movs	r4, #6
 1152              	.LVL160:
 414:src/camtest.c **** 
 1153              		.loc 1 414 0
 1154 00fc 5746     		mov	r7, r10
 422:src/camtest.c ****   pbar_out = (T_BAROUT_DAT *)MallocMW(sizeof(T_BAROUT_DAT));
 1155              		.loc 1 422 0
 1156 00fe 0546     		mov	r5, r0
 1157              	.LVL161:
 423:src/camtest.c ****   pdecoded_str = (char *)MallocMW(DECODEDSTR_SIZE);
 1158              		.loc 1 423 0
 1159 0100 9220     		movs	r0, #146
 1160              	.LVL162:
 1161 0102 FFF7FEFF 		bl	sys_func1
 1162              	.LVL163:
 424:src/camtest.c ****   psym_type    = (char *)MallocMW(SYMTYPE_SIZE);
 1163              		.loc 1 424 0
 1164 0106 4FF48071 		mov	r1, #256
 423:src/camtest.c ****   pdecoded_str = (char *)MallocMW(DECODEDSTR_SIZE);
 1165              		.loc 1 423 0
 1166 010a 0646     		mov	r6, r0
 1167              	.LVL164:
 424:src/camtest.c ****   psym_type    = (char *)MallocMW(SYMTYPE_SIZE);
 1168              		.loc 1 424 0
 1169 010c 9220     		movs	r0, #146
 1170              	.LVL165:
 1171 010e FFF7FEFF 		bl	sys_func1
 1172              	.LVL166:
 425:src/camtest.c **** 
 1173              		.loc 1 425 0
 1174 0112 8021     		movs	r1, #128
 424:src/camtest.c ****   psym_type    = (char *)MallocMW(SYMTYPE_SIZE);
 1175              		.loc 1 424 0
 1176 0114 8046     		mov	r8, r0
 1177              	.LVL167:
 425:src/camtest.c **** 
 1178              		.loc 1 425 0
 1179 0116 9220     		movs	r0, #146
 1180              	.LVL168:
 1181 0118 FFF7FEFF 		bl	sys_func1
 1182              	.LVL169:
 1183              		.loc 1 427 0
ARM GAS  C:\Users\AHMED~1.ELE\AppData\Local\Temp\cc594ylT.s 			page 31


 1184 011c D446     		mov	ip, r10
 391:src/camtest.c ****   DWORD oned_height = 0;
 1185              		.loc 1 391 0
 1186 011e CDF810A0 		str	r10, [sp, #16]
 425:src/camtest.c **** 
 1187              		.loc 1 425 0
 1188 0122 0390     		str	r0, [sp, #12]
 1189              	.LVL170:
 1190              	.L122:
 428:src/camtest.c ****   while (keyin != MWKEY_CANCL) {
 429:src/camtest.c ****     #ifdef os_disp_bl_control
 430:src/camtest.c ****     os_disp_bl_control(256); // on now
 1191              		.loc 1 430 0
 1192 0124 2220     		movs	r0, #34
 1193 0126 4FF48071 		mov	r1, #256
 1194 012a CDF814C0 		str	ip, [sp, #20]
 1195              	.LVL171:
 1196 012e FFF7FEFF 		bl	sys_func1
 1197              	.LVL172:
 431:src/camtest.c ****     #endif
 432:src/camtest.c ****     switch (keyin) {
 1198              		.loc 1 432 0
 1199 0132 DDF814C0 		ldr	ip, [sp, #20]
 1200 0136 BCF1120F 		cmp	ip, #18
 1201 013a 03D0     		beq	.L88
 1202 013c BCF1590F 		cmp	ip, #89
 1203 0140 0AD0     		beq	.L89
 1204 0142 0DE0     		b	.L87
 1205              	.L88:
 433:src/camtest.c ****       case MWKEY_CLR:
 434:src/camtest.c ****         // toggle led on/off
 435:src/camtest.c ****         img_led = img_led == 0 ? 1 : 0;
 1206              		.loc 1 435 0
 1207 0144 049B     		ldr	r3, [sp, #16]
 436:src/camtest.c ****         os_image_sensor_led_open(img_led);
 1208              		.loc 1 436 0
 1209 0146 40F2CF10 		movw	r0, #463
 435:src/camtest.c ****         os_image_sensor_led_open(img_led);
 1210              		.loc 1 435 0
 1211 014a 83F00103 		eor	r3, r3, #1
 1212              		.loc 1 436 0
 1213 014e 1946     		mov	r1, r3
 435:src/camtest.c ****         os_image_sensor_led_open(img_led);
 1214              		.loc 1 435 0
 1215 0150 0493     		str	r3, [sp, #16]
 1216              	.LVL173:
 1217              		.loc 1 436 0
 1218 0152 FFF7FEFF 		bl	sys_func1
 1219              	.LVL174:
 437:src/camtest.c ****         break;
 1220              		.loc 1 437 0
 1221 0156 03E0     		b	.L87
 1222              	.L89:
 438:src/camtest.c ****       case MWKEY_ASTERISK:
 439:src/camtest.c ****         if (curr_mode == MODE_F320_D)
 1223              		.loc 1 439 0
 1224 0158 062C     		cmp	r4, #6
ARM GAS  C:\Users\AHMED~1.ELE\AppData\Local\Temp\cc594ylT.s 			page 32


 1225 015a 40F0AF80 		bne	.L202
 1226 015e 88E0     		b	.L204
 1227              	.L87:
 440:src/camtest.c ****           curr_mode = MODE_F640_D;
 441:src/camtest.c ****         else
 442:src/camtest.c ****           curr_mode = MODE_F320_D;
 443:src/camtest.c ****         break;
 444:src/camtest.c ****       default:
 445:src/camtest.c ****         break;
 446:src/camtest.c ****     }
 447:src/camtest.c ****     if (last_mode != curr_mode) {
 1228              		.loc 1 447 0
 1229 0160 A145     		cmp	r9, r4
 1230 0162 00F02E81 		beq	.L92
 448:src/camtest.c ****       switch (curr_mode) {
 1231              		.loc 1 448 0
 1232 0166 062C     		cmp	r4, #6
 1233 0168 00F2CB80 		bhi	.L93
 1234 016c DFE804F0 		tbb	[pc, r4]
 1235              	.L95:
 1236 0170 04       		.byte	(.L94-.L95)/2
 1237 0171 23       		.byte	(.L96-.L95)/2
 1238 0172 42       		.byte	(.L97-.L95)/2
 1239 0173 C9       		.byte	(.L93-.L95)/2
 1240 0174 61       		.byte	(.L98-.L95)/2
 1241 0175 85       		.byte	(.L99-.L95)/2
 1242 0176 A9       		.byte	(.L100-.L95)/2
 1243 0177 00       		.p2align 1
 1244              	.L94:
 1245              	.LVL175:
 1246              	.LBB32:
 449:src/camtest.c ****         case MODE_W960_D:
 450:src/camtest.c ****           mode    = SENSOR_MODE_960;
 451:src/camtest.c ****           preview = &previewlcd;
 452:src/camtest.c ****           DispLineMW("960 Decode", MW_LINE9, MW_CLRDISP|MW_CENTER|MW_SPFONT);
 1247              		.loc 1 452 0
 1248 0178 9220     		movs	r0, #146
 1249 017a 0B21     		movs	r1, #11
 1250 017c FFF7FEFF 		bl	sys_func1
 1251              	.LVL176:
 1252 0180 0746     		mov	r7, r0
 1253 0182 98B1     		cbz	r0, .L101
 1254              		.loc 1 452 0 is_stmt 0 discriminator 1
 1255 0184 7149     		ldr	r1, .L205+16
 1256 0186 0A22     		movs	r2, #10
 1257 0188 FFF7FEFF 		bl	memcpy
 1258              	.LVL177:
 1259 018c 0023     		movs	r3, #0
 1260 018e 2521     		movs	r1, #37
 1261 0190 BB72     		strb	r3, [r7, #10]
 1262 0192 42F28203 		movw	r3, #8322
 1263 0196 0F20     		movs	r0, #15
 1264 0198 0093     		str	r3, [sp]
 1265 019a 3A46     		mov	r2, r7
 1266 019c 4FF41063 		mov	r3, #2304
 1267 01a0 FFF7FEFF 		bl	lib_app_call
 1268              	.LVL178:
ARM GAS  C:\Users\AHMED~1.ELE\AppData\Local\Temp\cc594ylT.s 			page 33


 1269 01a4 9420     		movs	r0, #148
 1270 01a6 3946     		mov	r1, r7
 1271 01a8 FFF7FEFF 		bl	sys_func1
 1272              	.LVL179:
 1273              	.L101:
 1274              	.LBE32:
 453:src/camtest.c ****           LcdOnLayerShow(K_DispOverlay2, FALSE);   // disable layer 2
 1275              		.loc 1 453 0 is_stmt 1
 1276 01ac 0020     		movs	r0, #0
 1277 01ae FFF7FEFF 		bl	LcdOnLayerShow.constprop.1
 1278              	.LVL180:
 450:src/camtest.c ****           preview = &previewlcd;
 1279              		.loc 1 450 0
 1280 01b2 0227     		movs	r7, #2
 1281              	.LVL181:
 454:src/camtest.c ****           break;
 1282              		.loc 1 454 0
 1283 01b4 A5E0     		b	.L93
 1284              	.LVL182:
 1285              	.L96:
 1286              	.LBB33:
 455:src/camtest.c ****         case MODE_W640_D:
 456:src/camtest.c ****           mode    = SENSOR_MODE_640;
 457:src/camtest.c ****           preview = &previewlcd;
 458:src/camtest.c ****           DispLineMW("640 Decode", MW_LINE9, MW_CLRDISP|MW_CENTER|MW_SPFONT);
 1287              		.loc 1 458 0
 1288 01b6 9220     		movs	r0, #146
 1289 01b8 0B21     		movs	r1, #11
 1290 01ba FFF7FEFF 		bl	sys_func1
 1291              	.LVL183:
 1292 01be 0746     		mov	r7, r0
 1293 01c0 98B1     		cbz	r0, .L102
 1294              		.loc 1 458 0 is_stmt 0 discriminator 1
 1295 01c2 6349     		ldr	r1, .L205+20
 1296 01c4 0A22     		movs	r2, #10
 1297 01c6 FFF7FEFF 		bl	memcpy
 1298              	.LVL184:
 1299 01ca 0023     		movs	r3, #0
 1300 01cc 2521     		movs	r1, #37
 1301 01ce BB72     		strb	r3, [r7, #10]
 1302 01d0 42F28203 		movw	r3, #8322
 1303 01d4 0F20     		movs	r0, #15
 1304 01d6 0093     		str	r3, [sp]
 1305 01d8 3A46     		mov	r2, r7
 1306 01da 4FF41063 		mov	r3, #2304
 1307 01de FFF7FEFF 		bl	lib_app_call
 1308              	.LVL185:
 1309 01e2 9420     		movs	r0, #148
 1310 01e4 3946     		mov	r1, r7
 1311 01e6 FFF7FEFF 		bl	sys_func1
 1312              	.LVL186:
 1313              	.L102:
 1314              	.LBE33:
 459:src/camtest.c ****           LcdOnLayerShow(K_DispOverlay2, FALSE);   // disable layer 2
 1315              		.loc 1 459 0 is_stmt 1
 1316 01ea 0020     		movs	r0, #0
 1317 01ec FFF7FEFF 		bl	LcdOnLayerShow.constprop.1
ARM GAS  C:\Users\AHMED~1.ELE\AppData\Local\Temp\cc594ylT.s 			page 34


 1318              	.LVL187:
 456:src/camtest.c ****           preview = &previewlcd;
 1319              		.loc 1 456 0
 1320 01f0 0127     		movs	r7, #1
 1321              	.LVL188:
 460:src/camtest.c ****           break;
 1322              		.loc 1 460 0
 1323 01f2 86E0     		b	.L93
 1324              	.LVL189:
 1325              	.L97:
 1326              	.LBB34:
 461:src/camtest.c ****         case MODE_W320_D:
 462:src/camtest.c ****           mode    = SENSOR_MODE_320;
 463:src/camtest.c ****           preview = &previewlcd;
 464:src/camtest.c ****           DispLineMW("320 Decode", MW_LINE9, MW_CLRDISP|MW_CENTER|MW_SPFONT);
 1327              		.loc 1 464 0
 1328 01f4 9220     		movs	r0, #146
 1329 01f6 0B21     		movs	r1, #11
 1330 01f8 FFF7FEFF 		bl	sys_func1
 1331              	.LVL190:
 1332 01fc 0746     		mov	r7, r0
 1333 01fe 98B1     		cbz	r0, .L103
 1334              		.loc 1 464 0 is_stmt 0 discriminator 1
 1335 0200 5449     		ldr	r1, .L205+24
 1336 0202 0A22     		movs	r2, #10
 1337 0204 FFF7FEFF 		bl	memcpy
 1338              	.LVL191:
 1339 0208 0023     		movs	r3, #0
 1340 020a 2521     		movs	r1, #37
 1341 020c BB72     		strb	r3, [r7, #10]
 1342 020e 42F28203 		movw	r3, #8322
 1343 0212 0F20     		movs	r0, #15
 1344 0214 0093     		str	r3, [sp]
 1345 0216 3A46     		mov	r2, r7
 1346 0218 4FF41063 		mov	r3, #2304
 1347 021c FFF7FEFF 		bl	lib_app_call
 1348              	.LVL192:
 1349 0220 9420     		movs	r0, #148
 1350 0222 3946     		mov	r1, r7
 1351 0224 FFF7FEFF 		bl	sys_func1
 1352              	.LVL193:
 1353              	.L103:
 1354              	.LBE34:
 465:src/camtest.c ****           LcdOnLayerShow(K_DispOverlay2, FALSE);   // disable layer 2
 1355              		.loc 1 465 0 is_stmt 1
 1356 0228 0020     		movs	r0, #0
 1357 022a FFF7FEFF 		bl	LcdOnLayerShow.constprop.1
 1358              	.LVL194:
 462:src/camtest.c ****           preview = &previewlcd;
 1359              		.loc 1 462 0
 1360 022e 0027     		movs	r7, #0
 1361              	.LVL195:
 466:src/camtest.c ****           break;
 1362              		.loc 1 466 0
 1363 0230 67E0     		b	.L93
 1364              	.LVL196:
 1365              	.L98:
ARM GAS  C:\Users\AHMED~1.ELE\AppData\Local\Temp\cc594ylT.s 			page 35


 1366              	.LBB35:
 467:src/camtest.c ****         case MODE_F960_D:
 468:src/camtest.c ****           mode    = SENSOR_MODE_FULL_SCREEN|SENSOR_MODE_960;
 469:src/camtest.c ****           preview = &previewlcd;
 470:src/camtest.c ****           DispLineMW("960 Decode", MW_LINE9, MW_CLRDISP|MW_CENTER|MW_SPFONT);
 1367              		.loc 1 470 0
 1368 0232 9220     		movs	r0, #146
 1369 0234 0B21     		movs	r1, #11
 1370 0236 FFF7FEFF 		bl	sys_func1
 1371              	.LVL197:
 1372 023a 0746     		mov	r7, r0
 1373 023c 98B1     		cbz	r0, .L104
 1374              		.loc 1 470 0 is_stmt 0 discriminator 1
 1375 023e 4349     		ldr	r1, .L205+16
 1376 0240 0A22     		movs	r2, #10
 1377 0242 FFF7FEFF 		bl	memcpy
 1378              	.LVL198:
 1379 0246 0023     		movs	r3, #0
 1380 0248 2521     		movs	r1, #37
 1381 024a BB72     		strb	r3, [r7, #10]
 1382 024c 42F28203 		movw	r3, #8322
 1383 0250 0F20     		movs	r0, #15
 1384 0252 0093     		str	r3, [sp]
 1385 0254 3A46     		mov	r2, r7
 1386 0256 4FF41063 		mov	r3, #2304
 1387 025a FFF7FEFF 		bl	lib_app_call
 1388              	.LVL199:
 1389 025e 9420     		movs	r0, #148
 1390 0260 3946     		mov	r1, r7
 1391 0262 FFF7FEFF 		bl	sys_func1
 1392              	.LVL200:
 1393              	.L104:
 1394              	.LBE35:
 471:src/camtest.c ****           LcdOnLayerShow(K_DispOverlay2, TRUE);
 1395              		.loc 1 471 0 is_stmt 1
 1396 0266 0120     		movs	r0, #1
 1397 0268 FFF7FEFF 		bl	LcdOnLayerShow.constprop.1
 1398              	.LVL201:
 468:src/camtest.c ****           preview = &previewlcd;
 1399              		.loc 1 468 0
 1400 026c 48F20207 		movw	r7, #32770
 1401              	.LVL202:
 472:src/camtest.c ****           break;
 1402              		.loc 1 472 0
 1403 0270 47E0     		b	.L93
 1404              	.LVL203:
 1405              	.L204:
 447:src/camtest.c ****       switch (curr_mode) {
 1406              		.loc 1 447 0
 1407 0272 B9F1050F 		cmp	r9, #5
 1408 0276 00F0A480 		beq	.L92
 1409              	.LVL204:
 1410              	.L99:
 1411              	.LBB36:
 473:src/camtest.c ****         case MODE_F640_D:
 474:src/camtest.c ****           mode    = SENSOR_MODE_FULL_SCREEN|SENSOR_MODE_640;
 475:src/camtest.c ****           preview = &previewlcd;
ARM GAS  C:\Users\AHMED~1.ELE\AppData\Local\Temp\cc594ylT.s 			page 36


 476:src/camtest.c ****           DispLineMW("640 Decode", MW_LINE9, MW_CLRDISP|MW_CENTER|MW_SPFONT);
 1412              		.loc 1 476 0
 1413 027a 9220     		movs	r0, #146
 1414 027c 0B21     		movs	r1, #11
 1415 027e FFF7FEFF 		bl	sys_func1
 1416              	.LVL205:
 1417 0282 0446     		mov	r4, r0
 1418 0284 98B1     		cbz	r0, .L105
 1419              		.loc 1 476 0 is_stmt 0 discriminator 1
 1420 0286 3249     		ldr	r1, .L205+20
 1421 0288 0A22     		movs	r2, #10
 1422 028a FFF7FEFF 		bl	memcpy
 1423              	.LVL206:
 1424 028e 0023     		movs	r3, #0
 1425 0290 2521     		movs	r1, #37
 1426 0292 A372     		strb	r3, [r4, #10]
 1427 0294 42F28203 		movw	r3, #8322
 1428 0298 0F20     		movs	r0, #15
 1429 029a 0093     		str	r3, [sp]
 1430 029c 2246     		mov	r2, r4
 1431 029e 4FF41063 		mov	r3, #2304
 1432 02a2 FFF7FEFF 		bl	lib_app_call
 1433              	.LVL207:
 1434 02a6 9420     		movs	r0, #148
 1435 02a8 2146     		mov	r1, r4
 1436 02aa FFF7FEFF 		bl	sys_func1
 1437              	.LVL208:
 1438              	.L105:
 1439              	.LBE36:
 477:src/camtest.c ****           LcdOnLayerShow(K_DispOverlay2, TRUE);
 1440              		.loc 1 477 0 is_stmt 1
 1441 02ae 0120     		movs	r0, #1
 1442 02b0 FFF7FEFF 		bl	LcdOnLayerShow.constprop.1
 1443              	.LVL209:
 478:src/camtest.c ****           break;
 1444              		.loc 1 478 0
 1445 02b4 0524     		movs	r4, #5
 1446              	.LVL210:
 474:src/camtest.c ****           preview = &previewlcd;
 1447              		.loc 1 474 0
 1448 02b6 48F20107 		movw	r7, #32769
 1449              		.loc 1 478 0
 1450 02ba 22E0     		b	.L93
 1451              	.LVL211:
 1452              	.L202:
 447:src/camtest.c ****       switch (curr_mode) {
 1453              		.loc 1 447 0
 1454 02bc B9F1060F 		cmp	r9, #6
 1455 02c0 7FD0     		beq	.L92
 1456              	.LVL212:
 1457              	.L100:
 1458              	.LBB37:
 479:src/camtest.c ****         case MODE_F320_D:
 480:src/camtest.c ****           mode    = SENSOR_MODE_FULL_SCREEN|SENSOR_MODE_320;
 481:src/camtest.c ****           preview = &previewlcd;
 482:src/camtest.c ****           DispLineMW("320 Decode", MW_LINE9, MW_CLRDISP|MW_CENTER|MW_SPFONT);
 1459              		.loc 1 482 0
ARM GAS  C:\Users\AHMED~1.ELE\AppData\Local\Temp\cc594ylT.s 			page 37


 1460 02c2 9220     		movs	r0, #146
 1461 02c4 0B21     		movs	r1, #11
 1462 02c6 FFF7FEFF 		bl	sys_func1
 1463              	.LVL213:
 1464 02ca 0446     		mov	r4, r0
 1465 02cc 98B1     		cbz	r0, .L106
 1466              		.loc 1 482 0 is_stmt 0 discriminator 1
 1467 02ce 2149     		ldr	r1, .L205+24
 1468 02d0 0A22     		movs	r2, #10
 1469 02d2 FFF7FEFF 		bl	memcpy
 1470              	.LVL214:
 1471 02d6 0023     		movs	r3, #0
 1472 02d8 2521     		movs	r1, #37
 1473 02da A372     		strb	r3, [r4, #10]
 1474 02dc 42F28203 		movw	r3, #8322
 1475 02e0 0F20     		movs	r0, #15
 1476 02e2 0093     		str	r3, [sp]
 1477 02e4 2246     		mov	r2, r4
 1478 02e6 4FF41063 		mov	r3, #2304
 1479 02ea FFF7FEFF 		bl	lib_app_call
 1480              	.LVL215:
 1481 02ee 9420     		movs	r0, #148
 1482 02f0 2146     		mov	r1, r4
 1483 02f2 FFF7FEFF 		bl	sys_func1
 1484              	.LVL216:
 1485              	.L106:
 1486              	.LBE37:
 483:src/camtest.c ****           LcdOnLayerShow(K_DispOverlay2, TRUE);
 1487              		.loc 1 483 0 is_stmt 1
 1488 02f6 0120     		movs	r0, #1
 1489 02f8 FFF7FEFF 		bl	LcdOnLayerShow.constprop.1
 1490              	.LVL217:
 484:src/camtest.c ****           break;
 1491              		.loc 1 484 0
 1492 02fc 0624     		movs	r4, #6
 1493              	.LVL218:
 480:src/camtest.c ****           preview = &previewlcd;
 1494              		.loc 1 480 0
 1495 02fe 4FF40047 		mov	r7, #32768
 1496              	.LVL219:
 1497              	.L93:
 485:src/camtest.c ****       }
 486:src/camtest.c **** #ifdef os_image_sensor_set_mode
 487:src/camtest.c ****       if (gSensorOpened) {
 1498              		.loc 1 487 0
 1499 0302 154B     		ldr	r3, .L205+28
 1500 0304 93F80090 		ldrb	r9, [r3]	@ zero_extendqisi2
 1501              	.LVL220:
 1502 0308 B9F1000F 		cmp	r9, #0
 1503 030c 28D0     		beq	.L107
 488:src/camtest.c ****         if (!SensorSwMode(mode, preview, &framecfg, oned_height)) {
 1504              		.loc 1 488 0
 1505 030e 3846     		mov	r0, r7
 1506 0310 07A9     		add	r1, sp, #28
 1507              	.LVL221:
 1508 0312 0AAA     		add	r2, sp, #40
 1509 0314 0023     		movs	r3, #0
ARM GAS  C:\Users\AHMED~1.ELE\AppData\Local\Temp\cc594ylT.s 			page 38


 1510 0316 FFF7FEFF 		bl	SensorSwMode
 1511              	.LVL222:
 1512 031a 8146     		mov	r9, r0
 1513 031c 0028     		cmp	r0, #0
 1514 031e 4FD1     		bne	.L133
 1515              	.LVL223:
 1516              	.LBB38:
 489:src/camtest.c ****           DispLineMW("SenSw failed!", MW_LINE9, MW_CLREOL|MW_SPFONT);
 1517              		.loc 1 489 0
 1518 0320 9220     		movs	r0, #146
 1519 0322 0E21     		movs	r1, #14
 1520 0324 FFF7FEFF 		bl	sys_func1
 1521              	.LVL224:
 1522 0328 0446     		mov	r4, r0
 1523 032a 0028     		cmp	r0, #0
 1524 032c 3CD0     		beq	.L110
 1525              		.loc 1 489 0 is_stmt 0 discriminator 1
 1526 032e 0B49     		ldr	r1, .L205+32
 1527 0330 0D22     		movs	r2, #13
 1528 0332 FFF7FEFF 		bl	memcpy
 1529              	.LVL225:
 1530 0336 84F80D90 		strb	r9, [r4, #13]
 1531 033a 27E0     		b	.L203
 1532              	.L206:
 1533              		.align	2
 1534              	.L205:
 1535 033c 25000000 		.word	.LC2
 1536 0340 38000000 		.word	.LC3
 1537 0344 40000000 		.word	.LC4
 1538 0348 008C0A00 		.word	691200
 1539 034c 53000000 		.word	.LC5
 1540 0350 5E000000 		.word	.LC6
 1541 0354 69000000 		.word	.LC7
 1542 0358 00000000 		.word	.LANCHOR0
 1543 035c 74000000 		.word	.LC8
 1544              	.LVL226:
 1545              	.L107:
 1546              	.LBE38:
 490:src/camtest.c ****           LcdOnLayerShow(K_DispOverlay2, TRUE);
 491:src/camtest.c ****           APM_WaitKey(KBD_TIMEOUT, 0);
 492:src/camtest.c ****           break;
 493:src/camtest.c ****         }
 494:src/camtest.c ****       }
 495:src/camtest.c ****       else {
 496:src/camtest.c ****         SensorClose();
 1547              		.loc 1 496 0 is_stmt 1
 1548 0360 FFF7FEFF 		bl	SensorClose
 1549              	.LVL227:
 497:src/camtest.c ****         if (!SensorOpen(mode, preview, &framecfg, oned_height)) {
 1550              		.loc 1 497 0
 1551 0364 4B46     		mov	r3, r9
 1552 0366 3846     		mov	r0, r7
 1553 0368 07A9     		add	r1, sp, #28
 1554              	.LVL228:
 1555 036a 0AAA     		add	r2, sp, #40
 1556 036c FFF7FEFF 		bl	SensorOpen
 1557              	.LVL229:
ARM GAS  C:\Users\AHMED~1.ELE\AppData\Local\Temp\cc594ylT.s 			page 39


 1558 0370 8146     		mov	r9, r0
 1559 0372 28BB     		cbnz	r0, .L133
 1560              	.LVL230:
 1561              	.LBB39:
 498:src/camtest.c ****           DispLineMW("SenOpen failed!", MW_LINE9, MW_CLREOL|MW_SPFONT);
 1562              		.loc 1 498 0
 1563 0374 9220     		movs	r0, #146
 1564 0376 1021     		movs	r1, #16
 1565 0378 FFF7FEFF 		bl	sys_func1
 1566              	.LVL231:
 1567 037c 0446     		mov	r4, r0
 1568 037e 98B1     		cbz	r0, .L110
 1569              		.loc 1 498 0 is_stmt 0 discriminator 1
 1570 0380 A849     		ldr	r1, .L207
 1571 0382 0F22     		movs	r2, #15
 1572 0384 FFF7FEFF 		bl	memcpy
 1573              	.LVL232:
 1574 0388 84F80F90 		strb	r9, [r4, #15]
 1575              	.LVL233:
 1576              	.L203:
 1577 038c 42F22003 		movw	r3, #8224
 1578 0390 2521     		movs	r1, #37
 1579 0392 0093     		str	r3, [sp]
 1580 0394 0F20     		movs	r0, #15
 1581 0396 2246     		mov	r2, r4
 1582 0398 4FF41063 		mov	r3, #2304
 1583 039c FFF7FEFF 		bl	lib_app_call
 1584              	.LVL234:
 1585 03a0 9420     		movs	r0, #148
 1586 03a2 2146     		mov	r1, r4
 1587 03a4 FFF7FEFF 		bl	sys_func1
 1588              	.LVL235:
 1589              	.L110:
 1590              	.LBE39:
 499:src/camtest.c ****           LcdOnLayerShow(K_DispOverlay2, TRUE);
 1591              		.loc 1 499 0 is_stmt 1
 1592 03a8 0120     		movs	r0, #1
 1593 03aa FFF7FEFF 		bl	LcdOnLayerShow.constprop.1
 1594              	.LVL236:
 500:src/camtest.c ****           APM_WaitKey(KBD_TIMEOUT, 0);
 1595              		.loc 1 500 0
 1596 03ae 0023     		movs	r3, #0
 1597 03b0 0321     		movs	r1, #3
 1598 03b2 0093     		str	r3, [sp]
 1599 03b4 42F22832 		movw	r2, #9000
 1600 03b8 1020     		movs	r0, #16
 1601 03ba FFF7FEFF 		bl	lib_app_call
 1602              	.LVL237:
 501:src/camtest.c ****           break;
 1603              		.loc 1 501 0
 1604 03be DDE0     		b	.L109
 1605              	.L133:
 1606 03c0 A146     		mov	r9, r4
 1607              	.L92:
 1608              	.LVL238:
 502:src/camtest.c ****         }
 503:src/camtest.c ****       }
ARM GAS  C:\Users\AHMED~1.ELE\AppData\Local\Temp\cc594ylT.s 			page 40


 504:src/camtest.c **** #else
 505:src/camtest.c ****       SensorClose();
 506:src/camtest.c ****       if (!SensorOpen(mode, preview, &framecfg, oned_height)) {
 507:src/camtest.c ****         return;
 508:src/camtest.c ****       }
 509:src/camtest.c **** #endif
 510:src/camtest.c ****       last_mode = curr_mode;
 511:src/camtest.c ****     }
 512:src/camtest.c **** 
 513:src/camtest.c ****     // Get Frame if not preview only
 514:src/camtest.c ****     //cap_start = TickGet();
 515:src/camtest.c ****     for (i = 0; i < 2; i++) {  // retry max twice
 516:src/camtest.c ****       ret = os_image_sensor_get_frame(pY800Dat);
 1609              		.loc 1 516 0
 1610 03c2 40F2C910 		movw	r0, #457
 1611 03c6 5946     		mov	r1, fp
 1612 03c8 FFF7FEFF 		bl	sys_func1
 1613              	.LVL239:
 517:src/camtest.c ****       if (ret == -58) {  // according to KK -58 => thread not ready => delay & retry once.
 1614              		.loc 1 517 0
 1615 03cc 10F13A0F 		cmn	r0, #58
 516:src/camtest.c ****       if (ret == -58) {  // according to KK -58 => thread not ready => delay & retry once.
 1616              		.loc 1 516 0
 1617 03d0 0446     		mov	r4, r0
 1618              	.LVL240:
 1619              		.loc 1 517 0
 1620 03d2 0FD1     		bne	.L111
 518:src/camtest.c ****         Delay10ms(1);
 1621              		.loc 1 518 0
 1622 03d4 0120     		movs	r0, #1
 1623              	.LVL241:
 1624 03d6 FFF7FEFF 		bl	Delay10ms
 1625              	.LVL242:
 516:src/camtest.c ****       if (ret == -58) {  // according to KK -58 => thread not ready => delay & retry once.
 1626              		.loc 1 516 0
 1627 03da 40F2C910 		movw	r0, #457
 1628 03de 5946     		mov	r1, fp
 1629 03e0 FFF7FEFF 		bl	sys_func1
 1630              	.LVL243:
 517:src/camtest.c ****       if (ret == -58) {  // according to KK -58 => thread not ready => delay & retry once.
 1631              		.loc 1 517 0
 1632 03e4 10F13A0F 		cmn	r0, #58
 516:src/camtest.c ****       if (ret == -58) {  // according to KK -58 => thread not ready => delay & retry once.
 1633              		.loc 1 516 0
 1634 03e8 0446     		mov	r4, r0
 1635              	.LVL244:
 517:src/camtest.c ****       if (ret == -58) {  // according to KK -58 => thread not ready => delay & retry once.
 1636              		.loc 1 517 0
 1637 03ea 03D1     		bne	.L111
 1638              		.loc 1 518 0
 1639 03ec 0120     		movs	r0, #1
 1640              	.LVL245:
 1641 03ee FFF7FEFF 		bl	Delay10ms
 1642              	.LVL246:
 1643 03f2 01E0     		b	.L112
 1644              	.LVL247:
 1645              	.L111:
ARM GAS  C:\Users\AHMED~1.ELE\AppData\Local\Temp\cc594ylT.s 			page 41


 519:src/camtest.c ****         continue;
 520:src/camtest.c ****       }
 521:src/camtest.c ****       else 
 522:src/camtest.c ****         break;
 523:src/camtest.c ****     }
 524:src/camtest.c ****     if (ret < 0) {
 1646              		.loc 1 524 0
 1647 03f4 002C     		cmp	r4, #0
 1648 03f6 48DA     		bge	.L179
 1649              	.LVL248:
 1650              	.L112:
 525:src/camtest.c ****       sprintf(dispbuf, "get_frame:%d", ret);
 1651              		.loc 1 525 0
 1652 03f8 2246     		mov	r2, r4
 1653 03fa 8B49     		ldr	r1, .L207+4
 1654 03fc 0EA8     		add	r0, sp, #56
 1655 03fe FFF7FEFF 		bl	sprintf
 1656              	.LVL249:
 1657              	.LBB40:
 526:src/camtest.c ****       DispLineMW(dispbuf, MW_LINE9, MW_CLREOL|MW_SPFONT);
 1658              		.loc 1 526 0
 1659 0402 0EA8     		add	r0, sp, #56
 1660 0404 FFF7FEFF 		bl	strlen
 1661              	.LVL250:
 1662 0408 0346     		mov	r3, r0
 1663              	.LVL251:
 1664 040a 591C     		adds	r1, r3, #1
 1665 040c 9220     		movs	r0, #146
 1666              	.LVL252:
 1667 040e 0593     		str	r3, [sp, #20]
 1668              	.LVL253:
 1669 0410 FFF7FEFF 		bl	sys_func1
 1670              	.LVL254:
 1671 0414 0446     		mov	r4, r0
 1672              	.LVL255:
 1673 0416 A8B1     		cbz	r0, .L114
 1674              		.loc 1 526 0 is_stmt 0 discriminator 1
 1675 0418 059B     		ldr	r3, [sp, #20]
 1676 041a 0EA9     		add	r1, sp, #56
 1677 041c 1A46     		mov	r2, r3
 1678 041e FFF7FEFF 		bl	memcpy
 1679              	.LVL256:
 1680 0422 059B     		ldr	r3, [sp, #20]
 1681 0424 0022     		movs	r2, #0
 1682 0426 2521     		movs	r1, #37
 1683 0428 E254     		strb	r2, [r4, r3]
 1684 042a 42F22003 		movw	r3, #8224
 1685 042e 0F20     		movs	r0, #15
 1686 0430 0093     		str	r3, [sp]
 1687 0432 2246     		mov	r2, r4
 1688 0434 4FF41063 		mov	r3, #2304
 1689 0438 FFF7FEFF 		bl	lib_app_call
 1690              	.LVL257:
 1691 043c 9420     		movs	r0, #148
 1692 043e 2146     		mov	r1, r4
 1693 0440 FFF7FEFF 		bl	sys_func1
 1694              	.LVL258:
ARM GAS  C:\Users\AHMED~1.ELE\AppData\Local\Temp\cc594ylT.s 			page 42


 1695              	.L114:
 1696              	.LBE40:
 527:src/camtest.c ****       if (curr_mode > MODE_W320_SD) {
 528:src/camtest.c ****         LcdOnLayerShow(K_DispOverlay2, TRUE);
 529:src/camtest.c ****       }
 530:src/camtest.c ****       keyin=APM_WaitKey(KBD_TIMEOUT, 0);
 1697              		.loc 1 530 0 is_stmt 1
 1698 0444 0024     		movs	r4, #0
 1699              	.LVL259:
 528:src/camtest.c ****       }
 1700              		.loc 1 528 0
 1701 0446 0120     		movs	r0, #1
 1702 0448 FFF7FEFF 		bl	LcdOnLayerShow.constprop.1
 1703              	.LVL260:
 1704              		.loc 1 530 0
 1705 044c 0321     		movs	r1, #3
 1706 044e 42F22832 		movw	r2, #9000
 1707 0452 2346     		mov	r3, r4
 1708 0454 0094     		str	r4, [sp]
 1709 0456 1020     		movs	r0, #16
 1710 0458 FFF7FEFF 		bl	lib_app_call
 1711              	.LVL261:
 531:src/camtest.c ****       DispClrBelowMW(MW_LINE7);
 1712              		.loc 1 531 0
 1713 045c 0094     		str	r4, [sp]
 1714 045e 2321     		movs	r1, #35
 1715 0460 4FF4E062 		mov	r2, #1792
 530:src/camtest.c ****       DispClrBelowMW(MW_LINE7);
 1716              		.loc 1 530 0
 1717 0464 0590     		str	r0, [sp, #20]
 1718              	.LVL262:
 1719              		.loc 1 531 0
 1720 0466 2346     		mov	r3, r4
 1721 0468 0F20     		movs	r0, #15
 1722              	.LVL263:
 1723 046a FFF7FEFF 		bl	lib_app_call
 1724              	.LVL264:
 532:src/camtest.c ****       continue;
 1725              		.loc 1 532 0
 1726 046e DDF814C0 		ldr	ip, [sp, #20]
 1727 0472 7EE0     		b	.L115
 1728              	.LVL265:
 1729              	.L119:
 533:src/camtest.c ****     }
 534:src/camtest.c ****     while ((ret=os_image_sensor_get_frame_complete())==0) {
 535:src/camtest.c ****       if ((keyin=GetCharMW())!=0) break;
 1730              		.loc 1 535 0
 1731 0474 0092     		str	r2, [sp]
 1732 0476 0F20     		movs	r0, #15
 1733              	.LVL266:
 1734 0478 1621     		movs	r1, #22
 1735 047a 1346     		mov	r3, r2
 1736 047c FFF7FEFF 		bl	lib_app_call
 1737              	.LVL267:
 1738 0480 50B9     		cbnz	r0, .L120
 536:src/camtest.c ****       os_sleep();
 1739              		.loc 1 536 0
ARM GAS  C:\Users\AHMED~1.ELE\AppData\Local\Temp\cc594ylT.s 			page 43


 1740 0482 4FF4CE70 		mov	r0, #412
 1741              	.LVL268:
 1742 0486 FFF7FEFF 		bl	sys_func0
 1743              	.LVL269:
 1744              	.L179:
 534:src/camtest.c ****       if ((keyin=GetCharMW())!=0) break;
 1745              		.loc 1 534 0
 1746 048a 4FF4E570 		mov	r0, #458
 1747 048e FFF7FEFF 		bl	sys_func0
 1748              	.LVL270:
 1749 0492 0246     		mov	r2, r0
 1750 0494 0028     		cmp	r0, #0
 1751 0496 EDD0     		beq	.L119
 1752              	.LVL271:
 1753              	.L120:
 537:src/camtest.c ****     }
 538:src/camtest.c ****     //cap_tick = TickRun10ms(cap_start);
 539:src/camtest.c **** 
 540:src/camtest.c ****     // Decode
 541:src/camtest.c ****     DispClrBelowMW(MW_LINE8);
 1754              		.loc 1 541 0
 1755 0498 0024     		movs	r4, #0
 1756 049a 0F20     		movs	r0, #15
 1757 049c 0094     		str	r4, [sp]
 1758 049e 2321     		movs	r1, #35
 1759 04a0 4FF40062 		mov	r2, #2048
 1760 04a4 2346     		mov	r3, r4
 1761 04a6 FFF7FEFF 		bl	lib_app_call
 1762              	.LVL272:
 542:src/camtest.c ****     if ((pbar_dat != NULL) && (pbar_out != NULL) && (pdecoded_str != NULL) && (psym_type != NULL) )
 1763              		.loc 1 542 0
 1764 04aa 002D     		cmp	r5, #0
 1765 04ac 56D0     		beq	.L118
 1766              		.loc 1 542 0 is_stmt 0 discriminator 1
 1767 04ae 002E     		cmp	r6, #0
 1768 04b0 54D0     		beq	.L118
 1769              		.loc 1 542 0 discriminator 2
 1770 04b2 B8F1000F 		cmp	r8, #0
 1771 04b6 51D0     		beq	.L118
 1772              		.loc 1 542 0 discriminator 3
 1773 04b8 039B     		ldr	r3, [sp, #12]
 1774 04ba 002B     		cmp	r3, #0
 1775 04bc 4ED0     		beq	.L118
 543:src/camtest.c ****     {
 544:src/camtest.c ****       memset(pdecoded_str, 0, DECODEDSTR_SIZE);
 1776              		.loc 1 544 0 is_stmt 1
 1777 04be 4FF48073 		mov	r3, #256
 1778 04c2 1A46     		mov	r2, r3
 545:src/camtest.c ****       memset(psym_type,    0, SYMTYPE_SIZE);
 1779              		.loc 1 545 0
 1780 04c4 4FF0800A 		mov	r10, #128
 544:src/camtest.c ****       memset(psym_type,    0, SYMTYPE_SIZE);
 1781              		.loc 1 544 0
 1782 04c8 2146     		mov	r1, r4
 1783 04ca 4046     		mov	r0, r8
 1784 04cc 0593     		str	r3, [sp, #20]
 1785 04ce FFF7FEFF 		bl	memset
ARM GAS  C:\Users\AHMED~1.ELE\AppData\Local\Temp\cc594ylT.s 			page 44


 1786              	.LVL273:
 1787              		.loc 1 545 0
 1788 04d2 5246     		mov	r2, r10
 1789 04d4 2146     		mov	r1, r4
 1790 04d6 0398     		ldr	r0, [sp, #12]
 1791 04d8 FFF7FEFF 		bl	memset
 1792              	.LVL274:
 546:src/camtest.c **** 
 547:src/camtest.c ****       // Try decode 1D barcode 1st
 548:src/camtest.c ****       pbar_dat->type   = framecfg.type;
 1793              		.loc 1 548 0
 1794 04dc 0A9A     		ldr	r2, [sp, #40]
 549:src/camtest.c ****       pbar_dat->width  = framecfg.width;
 550:src/camtest.c ****       pbar_dat->height = framecfg.height;
 551:src/camtest.c ****       pbar_dat->dat    = pY800Dat;
 552:src/camtest.c **** 
 553:src/camtest.c ****       // Enable follow line to try full image on 1D barcode. otherwise only mid 40 lines
 554:src/camtest.c ****       //BAR_1DTryHard(TRUE);  // Try full image
 555:src/camtest.c **** 
 556:src/camtest.c ****       // output parameters
 557:src/camtest.c ****       pbar_out->dat          = pdecoded_str;
 558:src/camtest.c ****       pbar_out->max_dat_len  = DECODEDSTR_SIZE;
 1795              		.loc 1 558 0
 1796 04de 059B     		ldr	r3, [sp, #20]
 548:src/camtest.c ****       pbar_dat->width  = framecfg.width;
 1797              		.loc 1 548 0
 1798 04e0 2A60     		str	r2, [r5]
 549:src/camtest.c ****       pbar_dat->width  = framecfg.width;
 1799              		.loc 1 549 0
 1800 04e2 0B9A     		ldr	r2, [sp, #44]
 559:src/camtest.c ****       pbar_out->type_str     = psym_type;
 560:src/camtest.c ****       pbar_out->max_type_len = SYMTYPE_SIZE;
 561:src/camtest.c **** 
 562:src/camtest.c **** #if 0
 563:src/camtest.c ****       //dec_start = TickGet();
 564:src/camtest.c ****       zb = BAR_Decode1D(pbar_out, pbar_dat);
 565:src/camtest.c ****       //dec_tick  = TickRun10ms(dec_start);
 566:src/camtest.c ****       //if (zb <= 0) {
 567:src/camtest.c ****       //  enh_mode = TRUE;
 568:src/camtest.c ****       //  dec_start = TickGet();
 569:src/camtest.c ****       //  zb = BAR_Decode1DEnh(pbar_out, pbar_dat);
 570:src/camtest.c ****       //  //zb = BAR_Decode1D(pbar_out, pbar_dat);
 571:src/camtest.c ****       //  dec_tick  = TickRun10ms(dec_start);
 572:src/camtest.c ****       //}
 573:src/camtest.c **** 
 574:src/camtest.c ****       //sprintf(dispbuf, "ZB%d[%d][%d-%d]", framecfg.width, zb, cap_tick, dec_tick);
 575:src/camtest.c ****       //DispLine(dispbuf, SU_LINE6, SU_CLREOL|SU_SPFONT);
 576:src/camtest.c ****       if (zb > 0) {
 577:src/camtest.c ****         //sprintf(dispbuf, "%s", enh_mode?"Enhanced":"Normal");
 578:src/camtest.c ****         //DispLine(dispbuf, SU_LINE6, SU_RIGHT|SU_SPFONT);
 579:src/camtest.c ****         //sprintf(dispbuf, "[%s:%s]", psym_type, pdecoded_str);
 580:src/camtest.c ****         sprintf(dispbuf, "[%s]", pdecoded_str);
 581:src/camtest.c ****         DispLineMW(dispbuf, MW_LINE9, MW_CLREOL|MW_SPFONT);
 582:src/camtest.c ****       }
 583:src/camtest.c **** 
 584:src/camtest.c ****       //dec_start = TickGet();
 585:src/camtest.c ****       //zx = onedreader_decode(pbar_out->dat, pbar_dat->dat, pbar_dat->width, pbar_dat->height, pba
ARM GAS  C:\Users\AHMED~1.ELE\AppData\Local\Temp\cc594ylT.s 			page 45


 586:src/camtest.c ****       zx = BAR_ZXDecode1D(pbar_out, pbar_dat);
 587:src/camtest.c ****       //dec_tick  = TickRun10ms(dec_start);
 588:src/camtest.c ****       //if (zx <= 0) {
 589:src/camtest.c ****       //  enh_mode = TRUE;
 590:src/camtest.c ****       //  dec_start = TickGet();
 591:src/camtest.c ****       //  zb = BAR_ZXDecode1DEnh(pbar_out, pbar_dat);
 592:src/camtest.c ****       //  //zb = BAR_ZXDecode1D(pbar_out, pbar_dat);
 593:src/camtest.c ****       //  dec_tick  = TickRun10ms(dec_start);
 594:src/camtest.c ****       //}
 595:src/camtest.c ****       //sprintf(dispbuf, "ZX%d[%d]", framecfg.width, zx);
 596:src/camtest.c ****       //DispLineMW(dispbuf, MW_LINE8, MW_CLREOL|MW_SPFONT);
 597:src/camtest.c ****       if (zx > 0) {
 598:src/camtest.c ****         //sprintf(dispbuf, "%s", enh_mode?"Enhanced":"Normal");
 599:src/camtest.c ****         //DispLineMW(dispbuf, MW_LINE8, MW_RIGHT|MW_SPFONT);
 600:src/camtest.c ****         //sprintf(dispbuf, "[%s:%s]", psym_type, pdecoded_str);
 601:src/camtest.c ****         sprintf(dispbuf, "[%s]", pdecoded_str);
 602:src/camtest.c ****         DispLineMW(dispbuf, MW_LINE9, MW_CLREOL|MW_SPFONT);
 603:src/camtest.c ****       }
 604:src/camtest.c **** #endif
 605:src/camtest.c ****        // Temperary Disable 2D
 606:src/camtest.c ****        if ((zb<=0)&&(zx<=0)) {
 607:src/camtest.c ****          pbar_dat->height = framecfg.height;
 608:src/camtest.c ****          pbar_dat->dat    = pY800Dat;
 609:src/camtest.c ****          //dec_start = TickGet();
 610:src/camtest.c ****          twod = BAR_Decode2D(pbar_out, pbar_dat, DM_TIMEOUT);
 1801              		.loc 1 610 0
 1802 04e4 0D20     		movs	r0, #13
 549:src/camtest.c ****       pbar_dat->height = framecfg.height;
 1803              		.loc 1 549 0
 1804 04e6 AA80     		strh	r2, [r5, #4]	@ movhi
 550:src/camtest.c ****       pbar_dat->dat    = pY800Dat;
 1805              		.loc 1 550 0
 1806 04e8 0C9A     		ldr	r2, [sp, #48]
 551:src/camtest.c **** 
 1807              		.loc 1 551 0
 1808 04ea C5F808B0 		str	fp, [r5, #8]
 550:src/camtest.c ****       pbar_dat->dat    = pY800Dat;
 1809              		.loc 1 550 0
 1810 04ee EA80     		strh	r2, [r5, #6]	@ movhi
 558:src/camtest.c ****       pbar_out->type_str     = psym_type;
 1811              		.loc 1 558 0
 1812 04f0 7360     		str	r3, [r6, #4]
 559:src/camtest.c ****       pbar_out->max_type_len = SYMTYPE_SIZE;
 1813              		.loc 1 559 0
 1814 04f2 039B     		ldr	r3, [sp, #12]
 560:src/camtest.c **** 
 1815              		.loc 1 560 0
 1816 04f4 C6F80CA0 		str	r10, [r6, #12]
 559:src/camtest.c ****       pbar_out->max_type_len = SYMTYPE_SIZE;
 1817              		.loc 1 559 0
 1818 04f8 B360     		str	r3, [r6, #8]
 557:src/camtest.c ****       pbar_out->max_dat_len  = DECODEDSTR_SIZE;
 1819              		.loc 1 557 0
 1820 04fa C6F80080 		str	r8, [r6]
 1821              		.loc 1 610 0
 1822 04fe 0121     		movs	r1, #1
 1823 0500 0094     		str	r4, [sp]
ARM GAS  C:\Users\AHMED~1.ELE\AppData\Local\Temp\cc594ylT.s 			page 46


 1824 0502 3246     		mov	r2, r6
 1825 0504 2B46     		mov	r3, r5
 1826 0506 FFF7FEFF 		bl	lib_app_call
 1827              	.LVL275:
 611:src/camtest.c ****          //ret = BAR_Decode2D(pbar_out, pbar_dat, 0);    // not support data matrix
 612:src/camtest.c ****          //dec_tick  = TickRun10ms(dec_start);
 613:src/camtest.c ****          //sprintf(dispbuf, "2D%d[%d-%d]", framecfg.width, cap_tick, dec_tick);
 614:src/camtest.c ****          //sprintf(dispbuf, "2D%d", framecfg.width);
 615:src/camtest.c ****          //DispLineMW(dispbuf, MW_LINE7, MW_SPFONT);
 616:src/camtest.c ****          if (twod > 0) {
 1828              		.loc 1 616 0
 1829 050a B0F1000A 		subs	r10, r0, #0
 1830 050e 25DD     		ble	.L118
 617:src/camtest.c ****            //sprintf(dispbuf, "[%s:%s]", psym_type, pdecoded_str);
 618:src/camtest.c ****            sprintf(dispbuf, "[%s]", pdecoded_str);
 1831              		.loc 1 618 0
 1832 0510 4649     		ldr	r1, .L207+8
 1833 0512 4246     		mov	r2, r8
 1834 0514 0EA8     		add	r0, sp, #56
 1835              	.LVL276:
 1836 0516 FFF7FEFF 		bl	sprintf
 1837              	.LVL277:
 1838              	.LBB41:
 619:src/camtest.c ****            DispLineMW(dispbuf, MW_LINE9, MW_CLREOL|MW_SPFONT);
 1839              		.loc 1 619 0
 1840 051a 0EA8     		add	r0, sp, #56
 1841 051c FFF7FEFF 		bl	strlen
 1842              	.LVL278:
 1843 0520 8146     		mov	r9, r0
 1844              	.LVL279:
 1845 0522 09F10101 		add	r1, r9, #1
 1846 0526 9220     		movs	r0, #146
 1847              	.LVL280:
 1848 0528 FFF7FEFF 		bl	sys_func1
 1849              	.LVL281:
 1850 052c 0746     		mov	r7, r0
 1851              	.LVL282:
 1852 052e 0028     		cmp	r0, #0
 1853 0530 71D0     		beq	.L121
 1854              		.loc 1 619 0 is_stmt 0 discriminator 1
 1855 0532 0EA9     		add	r1, sp, #56
 1856 0534 4A46     		mov	r2, r9
 1857 0536 FFF7FEFF 		bl	memcpy
 1858              	.LVL283:
 1859 053a 42F22003 		movw	r3, #8224
 1860 053e 07F80940 		strb	r4, [r7, r9]
 1861 0542 2521     		movs	r1, #37
 1862 0544 0093     		str	r3, [sp]
 1863 0546 3A46     		mov	r2, r7
 1864 0548 4FF41063 		mov	r3, #2304
 1865 054c 0F20     		movs	r0, #15
 1866 054e FFF7FEFF 		bl	lib_app_call
 1867              	.LVL284:
 1868 0552 3946     		mov	r1, r7
 1869 0554 9420     		movs	r0, #148
 1870 0556 FFF7FEFF 		bl	sys_func1
 1871              	.LVL285:
ARM GAS  C:\Users\AHMED~1.ELE\AppData\Local\Temp\cc594ylT.s 			page 47


 1872 055a 5CE0     		b	.L121
 1873              	.LVL286:
 1874              	.L118:
 1875              	.LBE41:
 620:src/camtest.c ****          }
 621:src/camtest.c ****        } 
 622:src/camtest.c ****     }
 623:src/camtest.c ****     if ((zb > 0) || (zx > 0) || (twod > 0)) {
 624:src/camtest.c ****       Short2Beep();
 625:src/camtest.c ****       break;
 626:src/camtest.c ****     }
 627:src/camtest.c **** 
 628:src/camtest.c ****     // extract Image and display
 629:src/camtest.c ****     if (curr_mode <= MODE_W320_SD) {
 630:src/camtest.c ****       //T_LCDBUF *plcd = (T_LCDBUF *) MallocMW(sizeof(T_LCDBUF));
 631:src/camtest.c ****       //memset(plcd, 0, sizeof(T_LCDBUF));
 632:src/camtest.c ****       //plcd->w_hwidth = 160;
 633:src/camtest.c ****       //plcd->w_vwidth = 120;
 634:src/camtest.c ****       //plcd->w_hstart = 160;
 635:src/camtest.c ****       //plcd->w_vstart = 0;
 636:src/camtest.c ****       //Y800toLcd(plcd, &framecfg, pY800Dat);
 637:src/camtest.c ****       //os_disp_putg(plcd);
 638:src/camtest.c ****       //FreeMW(plcd);
 639:src/camtest.c ****     }
 640:src/camtest.c ****     else {   // update layer2 for full screen mode only
 641:src/camtest.c ****       LcdOnLayerShow(K_DispOverlay2, TRUE);
 1876              		.loc 1 641 0 is_stmt 1
 1877 055c 0120     		movs	r0, #1
 1878 055e FFF7FEFF 		bl	LcdOnLayerShow.constprop.1
 1879              	.LVL287:
 642:src/camtest.c ****     }
 643:src/camtest.c **** 
 644:src/camtest.c ****     keyin = GetCharMW();
 1880              		.loc 1 644 0
 1881 0562 0022     		movs	r2, #0
 1882 0564 0F20     		movs	r0, #15
 1883 0566 0092     		str	r2, [sp]
 1884 0568 1621     		movs	r1, #22
 1885 056a 1346     		mov	r3, r2
 1886 056c FFF7FEFF 		bl	lib_app_call
 1887              	.LVL288:
 1888 0570 8446     		mov	ip, r0
 1889              	.LVL289:
 1890              	.L115:
 428:src/camtest.c ****     #ifdef os_disp_bl_control
 1891              		.loc 1 428 0
 1892 0572 BCF1110F 		cmp	ip, #17
 1893 0576 01D0     		beq	.L109
 1894 0578 4C46     		mov	r4, r9
 1895 057a D3E5     		b	.L122
 1896              	.LVL290:
 1897              	.L109:
 645:src/camtest.c ****   }  // while
 646:src/camtest.c **** 
 647:src/camtest.c ****   if (pbar_dat  != NULL)    FreeMW(pbar_dat);
 1898              		.loc 1 647 0
 1899 057c 1DB1     		cbz	r5, .L123
ARM GAS  C:\Users\AHMED~1.ELE\AppData\Local\Temp\cc594ylT.s 			page 48


 1900              	.LVL291:
 1901              	.L130:
 1902              		.loc 1 647 0 is_stmt 0 discriminator 1
 1903 057e 9420     		movs	r0, #148
 1904 0580 2946     		mov	r1, r5
 1905 0582 FFF7FEFF 		bl	sys_func1
 1906              	.LVL292:
 1907              	.L123:
 648:src/camtest.c ****   if (pbar_out != NULL)     FreeMW(pbar_out);
 1908              		.loc 1 648 0 is_stmt 1
 1909 0586 1EB1     		cbz	r6, .L124
 1910              		.loc 1 648 0 is_stmt 0 discriminator 1
 1911 0588 9420     		movs	r0, #148
 1912 058a 3146     		mov	r1, r6
 1913 058c FFF7FEFF 		bl	sys_func1
 1914              	.LVL293:
 1915              	.L124:
 649:src/camtest.c ****   if (pdecoded_str != NULL) FreeMW(pdecoded_str);
 1916              		.loc 1 649 0 is_stmt 1
 1917 0590 B8F1000F 		cmp	r8, #0
 1918 0594 03D0     		beq	.L125
 1919              		.loc 1 649 0 is_stmt 0 discriminator 1
 1920 0596 9420     		movs	r0, #148
 1921 0598 4146     		mov	r1, r8
 1922 059a FFF7FEFF 		bl	sys_func1
 1923              	.LVL294:
 1924              	.L125:
 650:src/camtest.c ****   if (psym_type!= NULL)     FreeMW(psym_type);
 1925              		.loc 1 650 0 is_stmt 1
 1926 059e 039B     		ldr	r3, [sp, #12]
 1927 05a0 1BB1     		cbz	r3, .L126
 1928              		.loc 1 650 0 is_stmt 0 discriminator 1
 1929 05a2 9420     		movs	r0, #148
 1930 05a4 1946     		mov	r1, r3
 1931 05a6 FFF7FEFF 		bl	sys_func1
 1932              	.LVL295:
 1933              	.L126:
 651:src/camtest.c ****   if (pY800Dat != NULL)     FreeMW(pY800Dat);
 1934              		.loc 1 651 0 is_stmt 1
 1935 05aa BBF1000F 		cmp	fp, #0
 1936 05ae 03D0     		beq	.L127
 1937              		.loc 1 651 0 is_stmt 0 discriminator 1
 1938 05b0 9420     		movs	r0, #148
 1939 05b2 5946     		mov	r1, fp
 1940 05b4 FFF7FEFF 		bl	sys_func1
 1941              	.LVL296:
 1942              	.L127:
 652:src/camtest.c **** 
 653:src/camtest.c ****   // Close image sensor
 654:src/camtest.c ****   SensorClose();
 1943              		.loc 1 654 0 is_stmt 1
 1944 05b8 FFF7FEFF 		bl	SensorClose
 1945              	.LVL297:
 655:src/camtest.c ****   if ((zb > 0) || (zx > 0) || (twod > 0)) {
 1946              		.loc 1 655 0
 1947 05bc BAF1000F 		cmp	r10, #0
 1948 05c0 21DD     		ble	.L128
ARM GAS  C:\Users\AHMED~1.ELE\AppData\Local\Temp\cc594ylT.s 			page 49


 1949              	.LVL298:
 1950              	.LBB42:
 656:src/camtest.c ****     DispLineMW("Scan Success!", MW_LINE5, MW_CLRDISP|MW_CENTER|MW_BIGFONT);
 1951              		.loc 1 656 0
 1952 05c2 9220     		movs	r0, #146
 1953 05c4 0E21     		movs	r1, #14
 1954 05c6 FFF7FEFF 		bl	sys_func1
 1955              	.LVL299:
 1956 05ca 0446     		mov	r4, r0
 1957 05cc 98B1     		cbz	r0, .L129
 1958              		.loc 1 656 0 is_stmt 0 discriminator 1
 1959 05ce 1849     		ldr	r1, .L207+12
 1960 05d0 0D22     		movs	r2, #13
 1961 05d2 FFF7FEFF 		bl	memcpy
 1962              	.LVL300:
 1963 05d6 0023     		movs	r3, #0
 1964 05d8 2521     		movs	r1, #37
 1965 05da 6373     		strb	r3, [r4, #13]
 1966 05dc 41F28203 		movw	r3, #4226
 1967 05e0 0F20     		movs	r0, #15
 1968 05e2 0093     		str	r3, [sp]
 1969 05e4 2246     		mov	r2, r4
 1970 05e6 4FF4A063 		mov	r3, #1280
 1971 05ea FFF7FEFF 		bl	lib_app_call
 1972              	.LVL301:
 1973 05ee 9420     		movs	r0, #148
 1974 05f0 2146     		mov	r1, r4
 1975 05f2 FFF7FEFF 		bl	sys_func1
 1976              	.LVL302:
 1977              	.L129:
 1978              	.LBE42:
 657:src/camtest.c ****     APM_WaitKey(500, 0);
 1979              		.loc 1 657 0 is_stmt 1
 1980 05f6 0023     		movs	r3, #0
 1981 05f8 1020     		movs	r0, #16
 1982 05fa 0093     		str	r3, [sp]
 1983 05fc 0321     		movs	r1, #3
 1984 05fe 4FF4FA72 		mov	r2, #500
 1985 0602 FFF7FEFF 		bl	lib_app_call
 1986              	.LVL303:
 1987              	.L128:
 658:src/camtest.c ****   }
 659:src/camtest.c ****   LcdOnLayerShow(K_DispOverlay2, FALSE);
 1988              		.loc 1 659 0
 1989 0606 0020     		movs	r0, #0
 1990 0608 FFF7FEFF 		bl	LcdOnLayerShow.constprop.1
 1991              	.LVL304:
 1992              	.LBB43:
 1993              	.LBB44:
 278:src/camtest.c ****   }
 1994              		.loc 1 278 0
 1995 060c 0F21     		movs	r1, #15
 1996 060e 1620     		movs	r0, #22
 1997 0610 FFF7FEFF 		bl	sys_func1
 1998              	.LVL305:
 1999              	.LBE44:
 2000              	.LBE43:
ARM GAS  C:\Users\AHMED~1.ELE\AppData\Local\Temp\cc594ylT.s 			page 50


 2001 0614 02E0     		b	.L81
 2002              	.LVL306:
 2003              	.L121:
 624:src/camtest.c ****       break;
 2004              		.loc 1 624 0
 2005 0616 FFF7FEFF 		bl	Short2Beep
 2006              	.LVL307:
 2007 061a B0E7     		b	.L130
 2008              	.LVL308:
 2009              	.L81:
 660:src/camtest.c ****   LcdOnLayerEnable(FALSE);
 661:src/camtest.c **** }
 2010              		.loc 1 661 0
 2011 061c 0DF50F7D 		add	sp, sp, #572
 2012              		.cfi_def_cfa_offset 36
 2013              		@ sp needed
 2014 0620 BDE8F08F 		pop	{r4, r5, r6, r7, r8, r9, r10, fp, pc}
 2015              	.L208:
 2016              		.align	2
 2017              	.L207:
 2018 0624 82000000 		.word	.LC9
 2019 0628 92000000 		.word	.LC10
 2020 062c 9F000000 		.word	.LC11
 2021 0630 A4000000 		.word	.LC12
 2022              		.cfi_endproc
 2023              	.LFE8:
 2024              		.size	CamTest2D, .-CamTest2D
 2025              		.section	.text.CamTestAll,"ax",%progbits
 2026              		.align	1
 2027              		.global	CamTestAll
 2028              		.thumb
 2029              		.thumb_func
 2030              		.type	CamTestAll, %function
 2031              	CamTestAll:
 2032              	.LFB9:
 662:src/camtest.c **** void CamTestAll(void)
 663:src/camtest.c **** {
 2033              		.loc 1 663 0
 2034              		.cfi_startproc
 2035              		@ args = 0, pretend = 0, frame = 576
 2036              		@ frame_needed = 0, uses_anonymous_args = 0
 2037              	.LVL309:
 2038 0000 2DE9F04F 		push	{r4, r5, r6, r7, r8, r9, r10, fp, lr}
 2039              		.cfi_def_cfa_offset 36
 2040              		.cfi_offset 4, -36
 2041              		.cfi_offset 5, -32
 2042              		.cfi_offset 6, -28
 2043              		.cfi_offset 7, -24
 2044              		.cfi_offset 8, -20
 2045              		.cfi_offset 9, -16
 2046              		.cfi_offset 10, -12
 2047              		.cfi_offset 11, -8
 2048              		.cfi_offset 14, -4
 664:src/camtest.c ****   T_IMAGE_FRAME framecfg; // output structure for driver to return image frame properties
 665:src/camtest.c ****   T_LCDG previewlcd;
 666:src/camtest.c **** 
 667:src/camtest.c ****   T_LCDG *preview=NULL;
ARM GAS  C:\Users\AHMED~1.ELE\AppData\Local\Temp\cc594ylT.s 			page 51


 668:src/camtest.c ****   BYTE *pY800Dat = NULL;
 669:src/camtest.c ****   T_BAR_DAT  *pbar_dat  = NULL;
 670:src/camtest.c ****   T_BAROUT_DAT *pbar_out = NULL;
 671:src/camtest.c ****   #define DECODEDSTR_SIZE 256
 672:src/camtest.c ****   #define SYMTYPE_SIZE    128
 673:src/camtest.c ****   char *pdecoded_str = NULL;
 674:src/camtest.c ****   char *psym_type    = NULL;
 675:src/camtest.c **** 
 676:src/camtest.c ****   DWORD keyin, timeout, mode, curr_mode, last_mode, i;
 677:src/camtest.c ****   BYTE  dispbuf[512];
 678:src/camtest.c ****   BOOLEAN img_led = 0;
 679:src/camtest.c ****   DWORD oned_height = 5;
 680:src/camtest.c ****   //DWORD cap_start, cap_tick, dec_start, dec_tick;
 681:src/camtest.c ****   int zb, zx, twod, ret;
 682:src/camtest.c ****   DWORD free_run;
 683:src/camtest.c **** 
 684:src/camtest.c **** #ifdef K_XHdImageSensor
 685:src/camtest.c ****   if ((os_hd_config_extend() & K_XHdImageSensor) == K_XHdNoImageSensor)
 2049              		.loc 1 685 0
 2050 0004 4FF4D070 		mov	r0, #416
 663:src/camtest.c ****   T_IMAGE_FRAME framecfg; // output structure for driver to return image frame properties
 2051              		.loc 1 663 0
 2052 0008 ADF5137D 		sub	sp, sp, #588
 2053              		.cfi_def_cfa_offset 624
 2054              		.loc 1 685 0
 2055 000c 0121     		movs	r1, #1
 2056 000e FFF7FEFF 		bl	sys_func1
 2057              	.LVL310:
 2058 0012 10F0600F 		tst	r0, #96
 2059 0016 00F08D83 		beq	.L209
 686:src/camtest.c ****     return;
 687:src/camtest.c **** #elif K_HdCamera
 688:src/camtest.c ****   if ((os_hd_config() & K_HdCamera) == K_HdNoCamera)
 689:src/camtest.c ****     return;
 690:src/camtest.c **** #endif
 691:src/camtest.c ****     
 692:src/camtest.c ****   if (!IsAppIdExistMW(BARDLL_ID)) {
 2060              		.loc 1 692 0
 2061 001a 8D20     		movs	r0, #141
 2062 001c 0D21     		movs	r1, #13
 2063 001e FFF7FEFF 		bl	sys_func1
 2064              	.LVL311:
 2065 0022 0546     		mov	r5, r0
 2066 0024 18BB     		cbnz	r0, .L211
 2067              	.LVL312:
 2068              	.LBB64:
 693:src/camtest.c ****     DispLineMW("BARDLL NOT LOADED!", MW_LINE5, MW_CLRDISP|MW_CENTER|MW_BIGFONT);
 2069              		.loc 1 693 0
 2070 0026 9220     		movs	r0, #146
 2071 0028 1321     		movs	r1, #19
 2072 002a FFF7FEFF 		bl	sys_func1
 2073              	.LVL313:
 2074 002e 0446     		mov	r4, r0
 2075 0030 90B1     		cbz	r0, .L212
 2076              		.loc 1 693 0 is_stmt 0 discriminator 1
 2077 0032 A649     		ldr	r1, .L352
 2078 0034 1222     		movs	r2, #18
ARM GAS  C:\Users\AHMED~1.ELE\AppData\Local\Temp\cc594ylT.s 			page 52


 2079 0036 FFF7FEFF 		bl	memcpy
 2080              	.LVL314:
 2081 003a 41F28203 		movw	r3, #4226
 2082 003e A574     		strb	r5, [r4, #18]
 2083 0040 2521     		movs	r1, #37
 2084 0042 0093     		str	r3, [sp]
 2085 0044 0F20     		movs	r0, #15
 2086 0046 2246     		mov	r2, r4
 2087 0048 4FF4A063 		mov	r3, #1280
 2088 004c FFF7FEFF 		bl	lib_app_call
 2089              	.LVL315:
 2090 0050 9420     		movs	r0, #148
 2091 0052 2146     		mov	r1, r4
 2092 0054 FFF7FEFF 		bl	sys_func1
 2093              	.LVL316:
 2094              	.L212:
 2095              	.LBE64:
 694:src/camtest.c ****     LongBeep();
 2096              		.loc 1 694 0 is_stmt 1
 2097 0058 FFF7FEFF 		bl	LongBeep
 2098              	.LVL317:
 695:src/camtest.c ****     APM_WaitKey(KBD_TIMEOUT, 0);
 2099              		.loc 1 695 0
 2100 005c 0023     		movs	r3, #0
 2101 005e 0321     		movs	r1, #3
 2102 0060 0093     		str	r3, [sp]
 2103 0062 42F22832 		movw	r2, #9000
 2104 0066 1020     		movs	r0, #16
 2105 0068 FFF7FEFF 		bl	lib_app_call
 2106              	.LVL318:
 696:src/camtest.c ****     return;
 2107              		.loc 1 696 0
 2108 006c 62E3     		b	.L209
 2109              	.LVL319:
 2110              	.L211:
 697:src/camtest.c ****   }
 698:src/camtest.c **** 
 699:src/camtest.c ****   // Ready Default Preview config
 700:src/camtest.c ****   memset(&previewlcd, 0, sizeof(previewlcd));
 2111              		.loc 1 700 0
 2112 006e 0021     		movs	r1, #0
 2113 0070 0C22     		movs	r2, #12
 2114 0072 0BA8     		add	r0, sp, #44
 2115 0074 FFF7FEFF 		bl	memset
 2116              	.LVL320:
 701:src/camtest.c ****   previewlcd.w_hwidth = 160; //144;  // must key the ratio
 2117              		.loc 1 701 0
 2118 0078 A023     		movs	r3, #160
 2119              	.LBB65:
 702:src/camtest.c ****   previewlcd.w_vwidth = 120; //108;
 703:src/camtest.c ****   previewlcd.w_hstart = 0;
 704:src/camtest.c ****   previewlcd.w_vstart = 0;
 705:src/camtest.c ****   preview = &previewlcd;
 706:src/camtest.c **** 
 707:src/camtest.c ****   // Setup Current disp mode
 708:src/camtest.c ****   //curr_mode = MODE_F640_D; 
 709:src/camtest.c ****   curr_mode = MODE_F320_D; 
ARM GAS  C:\Users\AHMED~1.ELE\AppData\Local\Temp\cc594ylT.s 			page 53


 710:src/camtest.c ****   last_mode = MODE_MAX;
 711:src/camtest.c ****   mode      = SENSOR_MODE_640;
 712:src/camtest.c **** 
 713:src/camtest.c ****   DispLineMW("CamTest", MW_LINE1, MW_CLRDISP|MW_CENTER|MW_REVERSE|MW_SPFONT);
 2120              		.loc 1 713 0
 2121 007a 9220     		movs	r0, #146
 2122              	.LBE65:
 701:src/camtest.c ****   previewlcd.w_hwidth = 160; //144;  // must key the ratio
 2123              		.loc 1 701 0
 2124 007c ADF83030 		strh	r3, [sp, #48]	@ movhi
 702:src/camtest.c ****   previewlcd.w_vwidth = 120; //108;
 2125              		.loc 1 702 0
 2126 0080 7823     		movs	r3, #120
 2127              	.LBB66:
 2128              		.loc 1 713 0
 2129 0082 0821     		movs	r1, #8
 2130              	.LBE66:
 702:src/camtest.c ****   previewlcd.w_vwidth = 120; //108;
 2131              		.loc 1 702 0
 2132 0084 ADF83230 		strh	r3, [sp, #50]	@ movhi
 2133              	.LVL321:
 2134              	.LBB67:
 2135              		.loc 1 713 0
 2136 0088 FFF7FEFF 		bl	sys_func1
 2137              	.LVL322:
 2138 008c 0446     		mov	r4, r0
 2139 008e 98B1     		cbz	r0, .L213
 2140              		.loc 1 713 0 is_stmt 0 discriminator 1
 2141 0090 8F49     		ldr	r1, .L352+4
 2142 0092 0722     		movs	r2, #7
 2143 0094 FFF7FEFF 		bl	memcpy
 2144              	.LVL323:
 2145 0098 0023     		movs	r3, #0
 2146 009a 2521     		movs	r1, #37
 2147 009c E371     		strb	r3, [r4, #7]
 2148 009e 42F29203 		movw	r3, #8338
 2149 00a2 0F20     		movs	r0, #15
 2150 00a4 0093     		str	r3, [sp]
 2151 00a6 2246     		mov	r2, r4
 2152 00a8 4FF48073 		mov	r3, #256
 2153 00ac FFF7FEFF 		bl	lib_app_call
 2154              	.LVL324:
 2155 00b0 9420     		movs	r0, #148
 2156 00b2 2146     		mov	r1, r4
 2157 00b4 FFF7FEFF 		bl	sys_func1
 2158              	.LVL325:
 2159              	.L213:
 2160              	.LBE67:
 2161              	.LBB68:
 714:src/camtest.c ****   DispLineMW("Wait For CAM Ready", MW_LINE5, MW_CENTER|MW_SPFONT);
 2162              		.loc 1 714 0 is_stmt 1
 2163 00b8 9220     		movs	r0, #146
 2164 00ba 1321     		movs	r1, #19
 2165 00bc FFF7FEFF 		bl	sys_func1
 2166              	.LVL326:
 2167 00c0 0446     		mov	r4, r0
 2168              	.LVL327:
ARM GAS  C:\Users\AHMED~1.ELE\AppData\Local\Temp\cc594ylT.s 			page 54


 2169 00c2 98B1     		cbz	r0, .L214
 2170              		.loc 1 714 0 is_stmt 0 discriminator 1
 2171 00c4 8349     		ldr	r1, .L352+8
 2172 00c6 1222     		movs	r2, #18
 2173 00c8 FFF7FEFF 		bl	memcpy
 2174              	.LVL328:
 2175 00cc 0023     		movs	r3, #0
 2176 00ce 2521     		movs	r1, #37
 2177 00d0 A374     		strb	r3, [r4, #18]
 2178 00d2 42F20203 		movw	r3, #8194
 2179 00d6 0F20     		movs	r0, #15
 2180 00d8 0093     		str	r3, [sp]
 2181 00da 2246     		mov	r2, r4
 2182 00dc 4FF4A063 		mov	r3, #1280
 2183 00e0 FFF7FEFF 		bl	lib_app_call
 2184              	.LVL329:
 2185 00e4 9420     		movs	r0, #148
 2186 00e6 2146     		mov	r1, r4
 2187 00e8 FFF7FEFF 		bl	sys_func1
 2188              	.LVL330:
 2189              	.L214:
 2190              	.LBE68:
 2191              	.LBB69:
 2192              	.LBB70:
 2193 00ec FFF7FEFF 		bl	LcdOnLayerEnable.part.0
 2194              	.LVL331:
 2195              	.LBE70:
 2196              	.LBE69:
 715:src/camtest.c **** 
 716:src/camtest.c ****   LcdOnLayerEnable(TRUE);
 717:src/camtest.c **** 
 718:src/camtest.c ****   pY800Dat = MallocMW(960*720);   // allocate max frame size; 960*720
 2197              		.loc 1 718 0 is_stmt 1
 2198 00f0 7949     		ldr	r1, .L352+12
 2199 00f2 9220     		movs	r0, #146
 2200 00f4 FFF7FEFF 		bl	sys_func1
 2201              	.LVL332:
 719:src/camtest.c ****   pbar_dat = (T_BAR_DAT  *)MallocMW(sizeof(T_BAR_DAT));
 2202              		.loc 1 719 0
 2203 00f8 0C21     		movs	r1, #12
 710:src/camtest.c ****   mode      = SENSOR_MODE_640;
 2204              		.loc 1 710 0
 2205 00fa 4FF00709 		mov	r9, #7
 709:src/camtest.c ****   last_mode = MODE_MAX;
 2206              		.loc 1 709 0
 2207 00fe 4FF0060A 		mov	r10, #6
 718:src/camtest.c ****   pbar_dat = (T_BAR_DAT  *)MallocMW(sizeof(T_BAR_DAT));
 2208              		.loc 1 718 0
 2209 0102 0490     		str	r0, [sp, #16]
 2210              	.LVL333:
 2211              		.loc 1 719 0
 2212 0104 9220     		movs	r0, #146
 2213              	.LVL334:
 2214 0106 FFF7FEFF 		bl	sys_func1
 2215              	.LVL335:
 720:src/camtest.c ****   pbar_out = (T_BAROUT_DAT *)MallocMW(sizeof(T_BAROUT_DAT));
 2216              		.loc 1 720 0
ARM GAS  C:\Users\AHMED~1.ELE\AppData\Local\Temp\cc594ylT.s 			page 55


 2217 010a 1021     		movs	r1, #16
 711:src/camtest.c **** 
 2218              		.loc 1 711 0
 2219 010c 0127     		movs	r7, #1
 719:src/camtest.c ****   pbar_out = (T_BAROUT_DAT *)MallocMW(sizeof(T_BAROUT_DAT));
 2220              		.loc 1 719 0
 2221 010e 0446     		mov	r4, r0
 2222              	.LVL336:
 2223              		.loc 1 720 0
 2224 0110 9220     		movs	r0, #146
 2225              	.LVL337:
 2226 0112 FFF7FEFF 		bl	sys_func1
 2227              	.LVL338:
 721:src/camtest.c ****   pdecoded_str = (char *)MallocMW(DECODEDSTR_SIZE);
 2228              		.loc 1 721 0
 2229 0116 4FF48071 		mov	r1, #256
 720:src/camtest.c ****   pdecoded_str = (char *)MallocMW(DECODEDSTR_SIZE);
 2230              		.loc 1 720 0
 2231 011a 0546     		mov	r5, r0
 2232              	.LVL339:
 2233              		.loc 1 721 0
 2234 011c 9220     		movs	r0, #146
 2235              	.LVL340:
 2236 011e FFF7FEFF 		bl	sys_func1
 2237              	.LVL341:
 722:src/camtest.c ****   psym_type    = (char *)MallocMW(SYMTYPE_SIZE);
 2238              		.loc 1 722 0
 2239 0122 8021     		movs	r1, #128
 721:src/camtest.c ****   pdecoded_str = (char *)MallocMW(DECODEDSTR_SIZE);
 2240              		.loc 1 721 0
 2241 0124 8046     		mov	r8, r0
 2242              	.LVL342:
 2243              		.loc 1 722 0
 2244 0126 9220     		movs	r0, #146
 2245              	.LVL343:
 2246 0128 FFF7FEFF 		bl	sys_func1
 2247              	.LVL344:
 723:src/camtest.c **** 
 724:src/camtest.c ****   zb = zx = twod = keyin = 0;
 2248              		.loc 1 724 0
 2249 012c 0023     		movs	r3, #0
 2250 012e 1E46     		mov	r6, r3
 2251 0130 0393     		str	r3, [sp, #12]
 722:src/camtest.c ****   psym_type    = (char *)MallocMW(SYMTYPE_SIZE);
 2252              		.loc 1 722 0
 2253 0132 0590     		str	r0, [sp, #20]
 2254              	.LVL345:
 2255              		.loc 1 724 0
 2256 0134 0893     		str	r3, [sp, #32]
 2257 0136 0693     		str	r3, [sp, #24]
 678:src/camtest.c ****   DWORD oned_height = 5;
 2258              		.loc 1 678 0
 2259 0138 0793     		str	r3, [sp, #28]
 2260              	.LVL346:
 2261              	.L259:
 725:src/camtest.c ****   timeout = 1*TIME_1SEC;
 726:src/camtest.c ****   while (keyin != MWKEY_CANCL) {
ARM GAS  C:\Users\AHMED~1.ELE\AppData\Local\Temp\cc594ylT.s 			page 56


 727:src/camtest.c ****     #ifdef os_disp_bl_control
 728:src/camtest.c ****     os_disp_bl_control(256); // on now
 2262              		.loc 1 728 0
 2263 013a 2220     		movs	r0, #34
 2264 013c 4FF48071 		mov	r1, #256
 2265 0140 FFF7FEFF 		bl	sys_func1
 2266              	.LVL347:
 729:src/camtest.c ****     #endif
 730:src/camtest.c ****     switch (keyin) {
 2267              		.loc 1 730 0
 2268 0144 122E     		cmp	r6, #18
 2269 0146 02D0     		beq	.L216
 2270 0148 592E     		cmp	r6, #89
 2271 014a 0AD0     		beq	.L217
 2272 014c 0EE0     		b	.L215
 2273              	.L216:
 731:src/camtest.c ****       case MWKEY_CLR:
 732:src/camtest.c ****         // toggle led on/off
 733:src/camtest.c ****         img_led = img_led == 0 ? 1 : 0;
 2274              		.loc 1 733 0
 2275 014e 079B     		ldr	r3, [sp, #28]
 734:src/camtest.c ****         os_image_sensor_led_open(img_led);
 2276              		.loc 1 734 0
 2277 0150 40F2CF10 		movw	r0, #463
 733:src/camtest.c ****         os_image_sensor_led_open(img_led);
 2278              		.loc 1 733 0
 2279 0154 83F00103 		eor	r3, r3, #1
 2280              		.loc 1 734 0
 2281 0158 1946     		mov	r1, r3
 733:src/camtest.c ****         os_image_sensor_led_open(img_led);
 2282              		.loc 1 733 0
 2283 015a 0793     		str	r3, [sp, #28]
 2284              	.LVL348:
 2285              		.loc 1 734 0
 2286 015c FFF7FEFF 		bl	sys_func1
 2287              	.LVL349:
 735:src/camtest.c ****         break;
 2288              		.loc 1 735 0
 2289 0160 04E0     		b	.L215
 2290              	.L217:
 736:src/camtest.c ****       case MWKEY_ASTERISK:
 737:src/camtest.c ****         if (curr_mode == MODE_F320_D)
 2291              		.loc 1 737 0
 2292 0162 BAF1060F 		cmp	r10, #6
 2293 0166 40F0BF80 		bne	.L348
 2294 016a 89E0     		b	.L351
 2295              	.L215:
 738:src/camtest.c ****           curr_mode = MODE_F640_D;
 739:src/camtest.c ****         else
 740:src/camtest.c ****           curr_mode = MODE_F320_D;
 741:src/camtest.c ****         break;
 742:src/camtest.c ****       default:
 743:src/camtest.c ****         break;
 744:src/camtest.c ****     }
 745:src/camtest.c ****     if (last_mode != curr_mode) {
 2296              		.loc 1 745 0
 2297 016c D145     		cmp	r9, r10
ARM GAS  C:\Users\AHMED~1.ELE\AppData\Local\Temp\cc594ylT.s 			page 57


 2298 016e 00F02A81 		beq	.L220
 746:src/camtest.c ****       switch (curr_mode) {
 2299              		.loc 1 746 0
 2300 0172 BAF1060F 		cmp	r10, #6
 2301 0176 00F2DB80 		bhi	.L221
 2302 017a DFE80AF0 		tbb	[pc, r10]
 2303              	.L223:
 2304 017e 04       		.byte	(.L222-.L223)/2
 2305 017f 23       		.byte	(.L224-.L223)/2
 2306 0180 42       		.byte	(.L225-.L223)/2
 2307 0181 D9       		.byte	(.L221-.L223)/2
 2308 0182 61       		.byte	(.L226-.L223)/2
 2309 0183 85       		.byte	(.L227-.L223)/2
 2310 0184 B8       		.byte	(.L228-.L223)/2
 2311 0185 00       		.p2align 1
 2312              	.L222:
 2313              	.LVL350:
 2314              	.LBB71:
 747:src/camtest.c ****         case MODE_W960_D:
 748:src/camtest.c ****           mode    = SENSOR_MODE_960;
 749:src/camtest.c ****           preview = &previewlcd;
 750:src/camtest.c ****           DispLineMW("960 Decode", MW_LINE9, MW_CLRDISP|MW_CENTER|MW_SPFONT);
 2315              		.loc 1 750 0
 2316 0186 9220     		movs	r0, #146
 2317 0188 0B21     		movs	r1, #11
 2318 018a FFF7FEFF 		bl	sys_func1
 2319              	.LVL351:
 2320 018e 0746     		mov	r7, r0
 2321 0190 98B1     		cbz	r0, .L229
 2322              		.loc 1 750 0 is_stmt 0 discriminator 1
 2323 0192 5249     		ldr	r1, .L352+16
 2324 0194 0A22     		movs	r2, #10
 2325 0196 FFF7FEFF 		bl	memcpy
 2326              	.LVL352:
 2327 019a 0023     		movs	r3, #0
 2328 019c 2521     		movs	r1, #37
 2329 019e BB72     		strb	r3, [r7, #10]
 2330 01a0 42F28203 		movw	r3, #8322
 2331 01a4 0F20     		movs	r0, #15
 2332 01a6 0093     		str	r3, [sp]
 2333 01a8 3A46     		mov	r2, r7
 2334 01aa 4FF41063 		mov	r3, #2304
 2335 01ae FFF7FEFF 		bl	lib_app_call
 2336              	.LVL353:
 2337 01b2 9420     		movs	r0, #148
 2338 01b4 3946     		mov	r1, r7
 2339 01b6 FFF7FEFF 		bl	sys_func1
 2340              	.LVL354:
 2341              	.L229:
 2342              	.LBE71:
 751:src/camtest.c ****           LcdOnLayerShow(K_DispOverlay2, FALSE);   // disable layer 2
 2343              		.loc 1 751 0 is_stmt 1
 2344 01ba 0020     		movs	r0, #0
 2345 01bc FFF7FEFF 		bl	LcdOnLayerShow.constprop.1
 2346              	.LVL355:
 748:src/camtest.c ****           preview = &previewlcd;
 2347              		.loc 1 748 0
ARM GAS  C:\Users\AHMED~1.ELE\AppData\Local\Temp\cc594ylT.s 			page 58


 2348 01c0 0227     		movs	r7, #2
 2349              	.LVL356:
 752:src/camtest.c ****           break;
 2350              		.loc 1 752 0
 2351 01c2 B5E0     		b	.L221
 2352              	.LVL357:
 2353              	.L224:
 2354              	.LBB72:
 753:src/camtest.c ****         case MODE_W640_D:
 754:src/camtest.c ****           mode    = SENSOR_MODE_640;
 755:src/camtest.c ****           preview = &previewlcd;
 756:src/camtest.c ****           DispLineMW("640 Decode", MW_LINE9, MW_CLRDISP|MW_CENTER|MW_SPFONT);
 2355              		.loc 1 756 0
 2356 01c4 9220     		movs	r0, #146
 2357 01c6 0B21     		movs	r1, #11
 2358 01c8 FFF7FEFF 		bl	sys_func1
 2359              	.LVL358:
 2360 01cc 0746     		mov	r7, r0
 2361 01ce 98B1     		cbz	r0, .L230
 2362              		.loc 1 756 0 is_stmt 0 discriminator 1
 2363 01d0 4349     		ldr	r1, .L352+20
 2364 01d2 0A22     		movs	r2, #10
 2365 01d4 FFF7FEFF 		bl	memcpy
 2366              	.LVL359:
 2367 01d8 0023     		movs	r3, #0
 2368 01da 2521     		movs	r1, #37
 2369 01dc BB72     		strb	r3, [r7, #10]
 2370 01de 42F28203 		movw	r3, #8322
 2371 01e2 0F20     		movs	r0, #15
 2372 01e4 0093     		str	r3, [sp]
 2373 01e6 3A46     		mov	r2, r7
 2374 01e8 4FF41063 		mov	r3, #2304
 2375 01ec FFF7FEFF 		bl	lib_app_call
 2376              	.LVL360:
 2377 01f0 9420     		movs	r0, #148
 2378 01f2 3946     		mov	r1, r7
 2379 01f4 FFF7FEFF 		bl	sys_func1
 2380              	.LVL361:
 2381              	.L230:
 2382              	.LBE72:
 757:src/camtest.c ****           LcdOnLayerShow(K_DispOverlay2, FALSE);   // disable layer 2
 2383              		.loc 1 757 0 is_stmt 1
 2384 01f8 0020     		movs	r0, #0
 2385 01fa FFF7FEFF 		bl	LcdOnLayerShow.constprop.1
 2386              	.LVL362:
 754:src/camtest.c ****           preview = &previewlcd;
 2387              		.loc 1 754 0
 2388 01fe 0127     		movs	r7, #1
 2389              	.LVL363:
 758:src/camtest.c ****           break;
 2390              		.loc 1 758 0
 2391 0200 96E0     		b	.L221
 2392              	.LVL364:
 2393              	.L225:
 2394              	.LBB73:
 759:src/camtest.c ****         case MODE_W320_D:
 760:src/camtest.c ****           mode    = SENSOR_MODE_320;
ARM GAS  C:\Users\AHMED~1.ELE\AppData\Local\Temp\cc594ylT.s 			page 59


 761:src/camtest.c ****           preview = &previewlcd;
 762:src/camtest.c ****           DispLineMW("320 Decode", MW_LINE9, MW_CLRDISP|MW_CENTER|MW_SPFONT);
 2395              		.loc 1 762 0
 2396 0202 9220     		movs	r0, #146
 2397 0204 0B21     		movs	r1, #11
 2398 0206 FFF7FEFF 		bl	sys_func1
 2399              	.LVL365:
 2400 020a 0746     		mov	r7, r0
 2401 020c 98B1     		cbz	r0, .L231
 2402              		.loc 1 762 0 is_stmt 0 discriminator 1
 2403 020e 3549     		ldr	r1, .L352+24
 2404 0210 0A22     		movs	r2, #10
 2405 0212 FFF7FEFF 		bl	memcpy
 2406              	.LVL366:
 2407 0216 0023     		movs	r3, #0
 2408 0218 2521     		movs	r1, #37
 2409 021a BB72     		strb	r3, [r7, #10]
 2410 021c 42F28203 		movw	r3, #8322
 2411 0220 0F20     		movs	r0, #15
 2412 0222 0093     		str	r3, [sp]
 2413 0224 3A46     		mov	r2, r7
 2414 0226 4FF41063 		mov	r3, #2304
 2415 022a FFF7FEFF 		bl	lib_app_call
 2416              	.LVL367:
 2417 022e 9420     		movs	r0, #148
 2418 0230 3946     		mov	r1, r7
 2419 0232 FFF7FEFF 		bl	sys_func1
 2420              	.LVL368:
 2421              	.L231:
 2422              	.LBE73:
 763:src/camtest.c ****           LcdOnLayerShow(K_DispOverlay2, FALSE);   // disable layer 2
 2423              		.loc 1 763 0 is_stmt 1
 2424 0236 0020     		movs	r0, #0
 2425 0238 FFF7FEFF 		bl	LcdOnLayerShow.constprop.1
 2426              	.LVL369:
 760:src/camtest.c ****           preview = &previewlcd;
 2427              		.loc 1 760 0
 2428 023c 0027     		movs	r7, #0
 2429              	.LVL370:
 764:src/camtest.c ****           break;
 2430              		.loc 1 764 0
 2431 023e 77E0     		b	.L221
 2432              	.LVL371:
 2433              	.L226:
 2434              	.LBB74:
 765:src/camtest.c ****         case MODE_F960_D:
 766:src/camtest.c ****           mode    = SENSOR_MODE_FULL_SCREEN|SENSOR_MODE_960;
 767:src/camtest.c ****           preview = &previewlcd;
 768:src/camtest.c ****           DispLineMW("960 Decode", MW_LINE9, MW_CLRDISP|MW_CENTER|MW_SPFONT);
 2435              		.loc 1 768 0
 2436 0240 9220     		movs	r0, #146
 2437 0242 0B21     		movs	r1, #11
 2438 0244 FFF7FEFF 		bl	sys_func1
 2439              	.LVL372:
 2440 0248 0746     		mov	r7, r0
 2441 024a 98B1     		cbz	r0, .L232
 2442              		.loc 1 768 0 is_stmt 0 discriminator 1
ARM GAS  C:\Users\AHMED~1.ELE\AppData\Local\Temp\cc594ylT.s 			page 60


 2443 024c 2349     		ldr	r1, .L352+16
 2444 024e 0A22     		movs	r2, #10
 2445 0250 FFF7FEFF 		bl	memcpy
 2446              	.LVL373:
 2447 0254 0023     		movs	r3, #0
 2448 0256 2521     		movs	r1, #37
 2449 0258 BB72     		strb	r3, [r7, #10]
 2450 025a 42F28203 		movw	r3, #8322
 2451 025e 0F20     		movs	r0, #15
 2452 0260 0093     		str	r3, [sp]
 2453 0262 3A46     		mov	r2, r7
 2454 0264 4FF41063 		mov	r3, #2304
 2455 0268 FFF7FEFF 		bl	lib_app_call
 2456              	.LVL374:
 2457 026c 9420     		movs	r0, #148
 2458 026e 3946     		mov	r1, r7
 2459 0270 FFF7FEFF 		bl	sys_func1
 2460              	.LVL375:
 2461              	.L232:
 2462              	.LBE74:
 769:src/camtest.c ****           LcdOnLayerShow(K_DispOverlay2, TRUE);
 2463              		.loc 1 769 0 is_stmt 1
 2464 0274 0120     		movs	r0, #1
 2465 0276 FFF7FEFF 		bl	LcdOnLayerShow.constprop.1
 2466              	.LVL376:
 766:src/camtest.c ****           preview = &previewlcd;
 2467              		.loc 1 766 0
 2468 027a 48F20207 		movw	r7, #32770
 2469              	.LVL377:
 770:src/camtest.c ****           break;
 2470              		.loc 1 770 0
 2471 027e 57E0     		b	.L221
 2472              	.LVL378:
 2473              	.L351:
 745:src/camtest.c ****       switch (curr_mode) {
 2474              		.loc 1 745 0
 2475 0280 B9F1050F 		cmp	r9, #5
 2476 0284 00F09F80 		beq	.L220
 2477              	.LVL379:
 2478              	.L227:
 2479              	.LBB75:
 771:src/camtest.c ****         case MODE_F640_D:
 772:src/camtest.c ****           mode    = SENSOR_MODE_FULL_SCREEN|SENSOR_MODE_640;
 773:src/camtest.c ****           preview = &previewlcd;
 774:src/camtest.c ****           DispLineMW("640 Decode", MW_LINE9, MW_CLRDISP|MW_CENTER|MW_SPFONT);
 2480              		.loc 1 774 0
 2481 0288 9220     		movs	r0, #146
 2482 028a 0B21     		movs	r1, #11
 2483 028c FFF7FEFF 		bl	sys_func1
 2484              	.LVL380:
 2485 0290 0746     		mov	r7, r0
 2486 0292 98B1     		cbz	r0, .L233
 2487              		.loc 1 774 0 is_stmt 0 discriminator 1
 2488 0294 1249     		ldr	r1, .L352+20
 2489 0296 0A22     		movs	r2, #10
 2490 0298 FFF7FEFF 		bl	memcpy
 2491              	.LVL381:
ARM GAS  C:\Users\AHMED~1.ELE\AppData\Local\Temp\cc594ylT.s 			page 61


 2492 029c 0023     		movs	r3, #0
 2493 029e 2521     		movs	r1, #37
 2494 02a0 BB72     		strb	r3, [r7, #10]
 2495 02a2 42F28203 		movw	r3, #8322
 2496 02a6 0F20     		movs	r0, #15
 2497 02a8 0093     		str	r3, [sp]
 2498 02aa 3A46     		mov	r2, r7
 2499 02ac 4FF41063 		mov	r3, #2304
 2500 02b0 FFF7FEFF 		bl	lib_app_call
 2501              	.LVL382:
 2502 02b4 9420     		movs	r0, #148
 2503 02b6 3946     		mov	r1, r7
 2504 02b8 FFF7FEFF 		bl	sys_func1
 2505              	.LVL383:
 2506              	.L233:
 2507              	.LBE75:
 775:src/camtest.c ****           LcdOnLayerShow(K_DispOverlay2, TRUE);
 2508              		.loc 1 775 0 is_stmt 1
 2509 02bc 0120     		movs	r0, #1
 2510 02be FFF7FEFF 		bl	LcdOnLayerShow.constprop.1
 2511              	.LVL384:
 776:src/camtest.c ****           break;
 2512              		.loc 1 776 0
 2513 02c2 4FF0050A 		mov	r10, #5
 772:src/camtest.c ****           preview = &previewlcd;
 2514              		.loc 1 772 0
 2515 02c6 48F20107 		movw	r7, #32769
 2516              	.LVL385:
 2517              		.loc 1 776 0
 2518 02ca 31E0     		b	.L221
 2519              	.L353:
 2520              		.align	2
 2521              	.L352:
 2522 02cc 25000000 		.word	.LC2
 2523 02d0 38000000 		.word	.LC3
 2524 02d4 40000000 		.word	.LC4
 2525 02d8 008C0A00 		.word	691200
 2526 02dc 53000000 		.word	.LC5
 2527 02e0 5E000000 		.word	.LC6
 2528 02e4 69000000 		.word	.LC7
 2529              	.LVL386:
 2530              	.L348:
 745:src/camtest.c ****       switch (curr_mode) {
 2531              		.loc 1 745 0
 2532 02e8 B9F1060F 		cmp	r9, #6
 2533 02ec 6BD0     		beq	.L220
 2534              	.LVL387:
 2535              	.L228:
 2536              	.LBB76:
 777:src/camtest.c ****         case MODE_F320_D:
 778:src/camtest.c ****           mode    = SENSOR_MODE_FULL_SCREEN|SENSOR_MODE_320;
 779:src/camtest.c ****           preview = &previewlcd;
 780:src/camtest.c ****           DispLineMW("320 Decode", MW_LINE9, MW_CLRDISP|MW_CENTER|MW_SPFONT);
 2537              		.loc 1 780 0
 2538 02ee 9220     		movs	r0, #146
 2539 02f0 0B21     		movs	r1, #11
 2540 02f2 FFF7FEFF 		bl	sys_func1
ARM GAS  C:\Users\AHMED~1.ELE\AppData\Local\Temp\cc594ylT.s 			page 62


 2541              	.LVL388:
 2542 02f6 0746     		mov	r7, r0
 2543 02f8 98B1     		cbz	r0, .L234
 2544              		.loc 1 780 0 is_stmt 0 discriminator 1
 2545 02fa C649     		ldr	r1, .L354
 2546 02fc 0A22     		movs	r2, #10
 2547 02fe FFF7FEFF 		bl	memcpy
 2548              	.LVL389:
 2549 0302 0023     		movs	r3, #0
 2550 0304 2521     		movs	r1, #37
 2551 0306 BB72     		strb	r3, [r7, #10]
 2552 0308 42F28203 		movw	r3, #8322
 2553 030c 0F20     		movs	r0, #15
 2554 030e 0093     		str	r3, [sp]
 2555 0310 3A46     		mov	r2, r7
 2556 0312 4FF41063 		mov	r3, #2304
 2557 0316 FFF7FEFF 		bl	lib_app_call
 2558              	.LVL390:
 2559 031a 9420     		movs	r0, #148
 2560 031c 3946     		mov	r1, r7
 2561 031e FFF7FEFF 		bl	sys_func1
 2562              	.LVL391:
 2563              	.L234:
 2564              	.LBE76:
 781:src/camtest.c ****           LcdOnLayerShow(K_DispOverlay2, TRUE);
 2565              		.loc 1 781 0 is_stmt 1
 2566 0322 0120     		movs	r0, #1
 2567 0324 FFF7FEFF 		bl	LcdOnLayerShow.constprop.1
 2568              	.LVL392:
 782:src/camtest.c ****           break;
 2569              		.loc 1 782 0
 2570 0328 4FF0060A 		mov	r10, #6
 778:src/camtest.c ****           preview = &previewlcd;
 2571              		.loc 1 778 0
 2572 032c 4FF40047 		mov	r7, #32768
 2573              	.LVL393:
 2574              	.L221:
 783:src/camtest.c ****       }
 784:src/camtest.c **** #ifdef os_image_sensor_set_mode
 785:src/camtest.c ****       if (gSensorOpened) {
 2575              		.loc 1 785 0
 2576 0330 B94B     		ldr	r3, .L354+4
 2577 0332 1B78     		ldrb	r3, [r3]	@ zero_extendqisi2
 2578 0334 73B3     		cbz	r3, .L235
 786:src/camtest.c ****         if (!SensorSwMode(mode, preview, &framecfg, oned_height)) {
 2579              		.loc 1 786 0
 2580 0336 3846     		mov	r0, r7
 2581 0338 0BA9     		add	r1, sp, #44
 2582              	.LVL394:
 2583 033a 0EAA     		add	r2, sp, #56
 2584 033c 0523     		movs	r3, #5
 2585 033e FFF7FEFF 		bl	SensorSwMode
 2586              	.LVL395:
 2587 0342 8146     		mov	r9, r0
 2588              	.LVL396:
 2589 0344 0028     		cmp	r0, #0
 2590 0346 3DD1     		bne	.L271
ARM GAS  C:\Users\AHMED~1.ELE\AppData\Local\Temp\cc594ylT.s 			page 63


 2591              	.LVL397:
 2592              	.LBB77:
 787:src/camtest.c ****           DispLineMW("SenSw failed!", MW_LINE9, MW_CLREOL|MW_SPFONT);
 2593              		.loc 1 787 0
 2594 0348 9220     		movs	r0, #146
 2595 034a 0E21     		movs	r1, #14
 2596 034c FFF7FEFF 		bl	sys_func1
 2597              	.LVL398:
 2598 0350 0646     		mov	r6, r0
 2599              	.LVL399:
 2600 0352 98B1     		cbz	r0, .L237
 2601              		.loc 1 787 0 is_stmt 0 discriminator 1
 2602 0354 B149     		ldr	r1, .L354+8
 2603 0356 0D22     		movs	r2, #13
 2604 0358 FFF7FEFF 		bl	memcpy
 2605              	.LVL400:
 2606 035c 86F80D90 		strb	r9, [r6, #13]
 2607              	.LVL401:
 2608              	.L349:
 2609 0360 42F22003 		movw	r3, #8224
 2610 0364 2521     		movs	r1, #37
 2611 0366 0093     		str	r3, [sp]
 2612 0368 0F20     		movs	r0, #15
 2613 036a 3246     		mov	r2, r6
 2614 036c 4FF41063 		mov	r3, #2304
 2615 0370 FFF7FEFF 		bl	lib_app_call
 2616              	.LVL402:
 2617 0374 9420     		movs	r0, #148
 2618 0376 3146     		mov	r1, r6
 2619 0378 FFF7FEFF 		bl	sys_func1
 2620              	.LVL403:
 2621              	.L237:
 2622              	.LBE77:
 788:src/camtest.c ****           LcdOnLayerShow(K_DispOverlay2, TRUE);
 2623              		.loc 1 788 0 is_stmt 1
 2624 037c 0120     		movs	r0, #1
 2625 037e FFF7FEFF 		bl	LcdOnLayerShow.constprop.1
 2626              	.LVL404:
 789:src/camtest.c ****           APM_WaitKey(KBD_TIMEOUT, 0);
 2627              		.loc 1 789 0
 2628 0382 0023     		movs	r3, #0
 2629 0384 0321     		movs	r1, #3
 2630 0386 0093     		str	r3, [sp]
 2631 0388 42F22832 		movw	r2, #9000
 2632 038c 1020     		movs	r0, #16
 2633 038e FFF7FEFF 		bl	lib_app_call
 2634              	.LVL405:
 790:src/camtest.c ****           break;
 2635              		.loc 1 790 0
 2636 0392 6CE1     		b	.L238
 2637              	.LVL406:
 2638              	.L235:
 791:src/camtest.c ****         }
 792:src/camtest.c ****       }
 793:src/camtest.c ****       else {
 794:src/camtest.c ****         SensorClose();
 2639              		.loc 1 794 0
ARM GAS  C:\Users\AHMED~1.ELE\AppData\Local\Temp\cc594ylT.s 			page 64


 2640 0394 FFF7FEFF 		bl	SensorClose
 2641              	.LVL407:
 795:src/camtest.c ****         if (!SensorOpen(mode, preview, &framecfg, oned_height)) {
 2642              		.loc 1 795 0
 2643 0398 3846     		mov	r0, r7
 2644 039a 0BA9     		add	r1, sp, #44
 2645              	.LVL408:
 2646 039c 0EAA     		add	r2, sp, #56
 2647 039e 0523     		movs	r3, #5
 2648 03a0 FFF7FEFF 		bl	SensorOpen
 2649              	.LVL409:
 2650 03a4 8146     		mov	r9, r0
 2651              	.LVL410:
 2652 03a6 68B9     		cbnz	r0, .L271
 2653              	.LVL411:
 2654              	.LBB78:
 796:src/camtest.c ****           DispLineMW("SenOpen failed!", MW_LINE9, MW_CLREOL|MW_SPFONT);
 2655              		.loc 1 796 0
 2656 03a8 9220     		movs	r0, #146
 2657 03aa 1021     		movs	r1, #16
 2658 03ac FFF7FEFF 		bl	sys_func1
 2659              	.LVL412:
 2660 03b0 0646     		mov	r6, r0
 2661              	.LVL413:
 2662 03b2 0028     		cmp	r0, #0
 2663 03b4 E2D0     		beq	.L237
 2664              		.loc 1 796 0 is_stmt 0 discriminator 1
 2665 03b6 9A49     		ldr	r1, .L354+12
 2666 03b8 0F22     		movs	r2, #15
 2667 03ba FFF7FEFF 		bl	memcpy
 2668              	.LVL414:
 2669 03be 86F80F90 		strb	r9, [r6, #15]
 2670 03c2 CDE7     		b	.L349
 2671              	.LVL415:
 2672              	.L271:
 2673              	.LBE78:
 2674 03c4 D146     		mov	r9, r10
 2675              	.L220:
 2676              	.LVL416:
 797:src/camtest.c ****           LcdOnLayerShow(K_DispOverlay2, TRUE);
 798:src/camtest.c ****           APM_WaitKey(KBD_TIMEOUT, 0);
 799:src/camtest.c ****           break;
 800:src/camtest.c ****         }
 801:src/camtest.c ****       }
 802:src/camtest.c **** #else
 803:src/camtest.c ****       SensorClose();
 804:src/camtest.c ****       if (!SensorOpen(mode, preview, &framecfg, oned_height)) {
 805:src/camtest.c ****         return;
 806:src/camtest.c ****       }
 807:src/camtest.c **** #endif
 808:src/camtest.c ****       last_mode = curr_mode;
 809:src/camtest.c ****     }
 810:src/camtest.c **** 
 811:src/camtest.c ****     // Get Frame if not preview only
 812:src/camtest.c ****     //cap_start = TickGet();
 813:src/camtest.c ****     for (i = 0; i < 2; i++) {  // retry max twice
 814:src/camtest.c ****       ret = os_image_sensor_get_frame(pY800Dat);
ARM GAS  C:\Users\AHMED~1.ELE\AppData\Local\Temp\cc594ylT.s 			page 65


 2677              		.loc 1 814 0 is_stmt 1
 2678 03c6 40F2C910 		movw	r0, #457
 2679 03ca 0499     		ldr	r1, [sp, #16]
 2680 03cc FFF7FEFF 		bl	sys_func1
 2681              	.LVL417:
 815:src/camtest.c ****       if (ret == -58) {  // according to KK -58 => thread not ready => delay & retry once.
 2682              		.loc 1 815 0
 2683 03d0 10F13A0F 		cmn	r0, #58
 814:src/camtest.c ****       if (ret == -58) {  // according to KK -58 => thread not ready => delay & retry once.
 2684              		.loc 1 814 0
 2685 03d4 8246     		mov	r10, r0
 2686              	.LVL418:
 2687              		.loc 1 815 0
 2688 03d6 0FD1     		bne	.L240
 816:src/camtest.c ****         Delay10ms(1);
 2689              		.loc 1 816 0
 2690 03d8 0120     		movs	r0, #1
 2691              	.LVL419:
 2692 03da FFF7FEFF 		bl	Delay10ms
 2693              	.LVL420:
 814:src/camtest.c ****       if (ret == -58) {  // according to KK -58 => thread not ready => delay & retry once.
 2694              		.loc 1 814 0
 2695 03de 40F2C910 		movw	r0, #457
 2696 03e2 0499     		ldr	r1, [sp, #16]
 2697 03e4 FFF7FEFF 		bl	sys_func1
 2698              	.LVL421:
 815:src/camtest.c ****       if (ret == -58) {  // according to KK -58 => thread not ready => delay & retry once.
 2699              		.loc 1 815 0
 2700 03e8 10F13A0F 		cmn	r0, #58
 814:src/camtest.c ****       if (ret == -58) {  // according to KK -58 => thread not ready => delay & retry once.
 2701              		.loc 1 814 0
 2702 03ec 8246     		mov	r10, r0
 2703              	.LVL422:
 815:src/camtest.c ****       if (ret == -58) {  // according to KK -58 => thread not ready => delay & retry once.
 2704              		.loc 1 815 0
 2705 03ee 03D1     		bne	.L240
 2706              		.loc 1 816 0
 2707 03f0 0120     		movs	r0, #1
 2708              	.LVL423:
 2709 03f2 FFF7FEFF 		bl	Delay10ms
 2710              	.LVL424:
 2711 03f6 02E0     		b	.L241
 2712              	.LVL425:
 2713              	.L240:
 817:src/camtest.c ****         continue;
 818:src/camtest.c ****       }
 819:src/camtest.c ****       else 
 820:src/camtest.c ****         break;
 821:src/camtest.c ****     }
 822:src/camtest.c ****     if (ret < 0) {
 2714              		.loc 1 822 0
 2715 03f8 BAF1000F 		cmp	r10, #0
 2716 03fc 49DA     		bge	.L242
 2717              	.LVL426:
 2718              	.L241:
 823:src/camtest.c ****       sprintf(dispbuf, "get_frame:%d", ret);
 2719              		.loc 1 823 0
ARM GAS  C:\Users\AHMED~1.ELE\AppData\Local\Temp\cc594ylT.s 			page 66


 2720 03fe 5246     		mov	r2, r10
 2721 0400 8849     		ldr	r1, .L354+16
 2722 0402 12A8     		add	r0, sp, #72
 2723 0404 FFF7FEFF 		bl	sprintf
 2724              	.LVL427:
 2725              	.LBB79:
 824:src/camtest.c ****       DispLineMW(dispbuf, MW_LINE9, MW_CLREOL|MW_SPFONT);
 2726              		.loc 1 824 0
 2727 0408 12A8     		add	r0, sp, #72
 2728 040a FFF7FEFF 		bl	strlen
 2729              	.LVL428:
 2730 040e 8246     		mov	r10, r0
 2731              	.LVL429:
 2732 0410 0AF10101 		add	r1, r10, #1
 2733 0414 9220     		movs	r0, #146
 2734              	.LVL430:
 2735 0416 FFF7FEFF 		bl	sys_func1
 2736              	.LVL431:
 2737 041a 0646     		mov	r6, r0
 2738              	.LVL432:
 2739 041c A0B1     		cbz	r0, .L243
 2740              		.loc 1 824 0 is_stmt 0 discriminator 1
 2741 041e 12A9     		add	r1, sp, #72
 2742 0420 5246     		mov	r2, r10
 2743 0422 FFF7FEFF 		bl	memcpy
 2744              	.LVL433:
 2745 0426 0023     		movs	r3, #0
 2746 0428 2521     		movs	r1, #37
 2747 042a 06F80A30 		strb	r3, [r6, r10]
 2748 042e 42F22003 		movw	r3, #8224
 2749 0432 0F20     		movs	r0, #15
 2750 0434 0093     		str	r3, [sp]
 2751 0436 3246     		mov	r2, r6
 2752 0438 4FF41063 		mov	r3, #2304
 2753 043c FFF7FEFF 		bl	lib_app_call
 2754              	.LVL434:
 2755 0440 9420     		movs	r0, #148
 2756 0442 3146     		mov	r1, r6
 2757 0444 FFF7FEFF 		bl	sys_func1
 2758              	.LVL435:
 2759              	.L243:
 2760              	.LBE79:
 825:src/camtest.c ****       if (curr_mode > MODE_W320_SD) {
 826:src/camtest.c ****         LcdOnLayerShow(K_DispOverlay2, TRUE);
 827:src/camtest.c ****       }
 828:src/camtest.c ****       keyin=APM_WaitKey(KBD_TIMEOUT, 0);
 2761              		.loc 1 828 0 is_stmt 1
 2762 0448 4FF0000A 		mov	r10, #0
 2763              	.LVL436:
 826:src/camtest.c ****       }
 2764              		.loc 1 826 0
 2765 044c 0120     		movs	r0, #1
 2766 044e FFF7FEFF 		bl	LcdOnLayerShow.constprop.1
 2767              	.LVL437:
 2768              		.loc 1 828 0
 2769 0452 5346     		mov	r3, r10
 2770 0454 CDF800A0 		str	r10, [sp]
ARM GAS  C:\Users\AHMED~1.ELE\AppData\Local\Temp\cc594ylT.s 			page 67


 2771 0458 0321     		movs	r1, #3
 2772 045a 42F22832 		movw	r2, #9000
 2773 045e 1020     		movs	r0, #16
 2774 0460 FFF7FEFF 		bl	lib_app_call
 2775              	.LVL438:
 829:src/camtest.c ****       DispClrBelowMW(MW_LINE7);
 2776              		.loc 1 829 0
 2777 0464 CDF800A0 		str	r10, [sp]
 2778 0468 2321     		movs	r1, #35
 2779 046a 4FF4E062 		mov	r2, #1792
 828:src/camtest.c ****       DispClrBelowMW(MW_LINE7);
 2780              		.loc 1 828 0
 2781 046e 0646     		mov	r6, r0
 2782              	.LVL439:
 2783              		.loc 1 829 0
 2784 0470 5346     		mov	r3, r10
 2785 0472 0F20     		movs	r0, #15
 2786              	.LVL440:
 2787 0474 FFF7FEFF 		bl	lib_app_call
 2788              	.LVL441:
 830:src/camtest.c ****       continue;
 2789              		.loc 1 830 0
 2790 0478 F5E0     		b	.L244
 2791              	.LVL442:
 2792              	.L246:
 831:src/camtest.c ****     }
 832:src/camtest.c ****     while ((ret=os_image_sensor_get_frame_complete())==0) {
 833:src/camtest.c ****       if ((keyin=GetCharMW())!=0) break;
 2793              		.loc 1 833 0
 2794 047a 0092     		str	r2, [sp]
 2795 047c 0F20     		movs	r0, #15
 2796              	.LVL443:
 2797 047e 1621     		movs	r1, #22
 2798 0480 1346     		mov	r3, r2
 2799 0482 FFF7FEFF 		bl	lib_app_call
 2800              	.LVL444:
 2801 0486 0646     		mov	r6, r0
 2802 0488 50B9     		cbnz	r0, .L245
 834:src/camtest.c ****       os_sleep();
 2803              		.loc 1 834 0
 2804 048a 4FF4CE70 		mov	r0, #412
 2805              	.LVL445:
 2806 048e FFF7FEFF 		bl	sys_func0
 2807              	.LVL446:
 2808              	.L242:
 832:src/camtest.c ****       if ((keyin=GetCharMW())!=0) break;
 2809              		.loc 1 832 0
 2810 0492 4FF4E570 		mov	r0, #458
 2811 0496 FFF7FEFF 		bl	sys_func0
 2812              	.LVL447:
 2813 049a 0246     		mov	r2, r0
 2814 049c 0028     		cmp	r0, #0
 2815 049e ECD0     		beq	.L246
 2816              	.LVL448:
 2817              	.L245:
 835:src/camtest.c ****     }
 836:src/camtest.c ****     //cap_tick = TickRun10ms(cap_start);
ARM GAS  C:\Users\AHMED~1.ELE\AppData\Local\Temp\cc594ylT.s 			page 68


 837:src/camtest.c **** 
 838:src/camtest.c ****     // Decode
 839:src/camtest.c ****     DispClrBelowMW(MW_LINE8);
 2818              		.loc 1 839 0
 2819 04a0 4FF0000A 		mov	r10, #0
 2820 04a4 0F20     		movs	r0, #15
 2821 04a6 CDF800A0 		str	r10, [sp]
 2822 04aa 2321     		movs	r1, #35
 2823 04ac 4FF40062 		mov	r2, #2048
 2824 04b0 5346     		mov	r3, r10
 2825 04b2 FFF7FEFF 		bl	lib_app_call
 2826              	.LVL449:
 840:src/camtest.c ****     if ((pbar_dat != NULL) && (pbar_out != NULL) && (pdecoded_str != NULL) && (psym_type != NULL) )
 2827              		.loc 1 840 0
 2828 04b6 002C     		cmp	r4, #0
 2829 04b8 00F08F80 		beq	.L247
 2830              		.loc 1 840 0 is_stmt 0 discriminator 1
 2831 04bc 002D     		cmp	r5, #0
 2832 04be 00F08C80 		beq	.L247
 2833              		.loc 1 840 0 discriminator 2
 2834 04c2 B8F1000F 		cmp	r8, #0
 2835 04c6 00F08880 		beq	.L247
 2836              		.loc 1 840 0 discriminator 3
 2837 04ca 059B     		ldr	r3, [sp, #20]
 2838 04cc 002B     		cmp	r3, #0
 2839 04ce 00F08480 		beq	.L247
 841:src/camtest.c ****     {
 842:src/camtest.c ****       memset(pdecoded_str, 0, DECODEDSTR_SIZE);
 2840              		.loc 1 842 0 is_stmt 1
 2841 04d2 4FF48073 		mov	r3, #256
 2842 04d6 1A46     		mov	r2, r3
 2843 04d8 5146     		mov	r1, r10
 843:src/camtest.c ****       memset(psym_type,    0, SYMTYPE_SIZE);
 2844              		.loc 1 843 0
 2845 04da 4FF0800B 		mov	fp, #128
 842:src/camtest.c ****       memset(psym_type,    0, SYMTYPE_SIZE);
 2846              		.loc 1 842 0
 2847 04de 4046     		mov	r0, r8
 2848 04e0 0693     		str	r3, [sp, #24]
 2849              	.LVL450:
 2850 04e2 FFF7FEFF 		bl	memset
 2851              	.LVL451:
 2852              		.loc 1 843 0
 2853 04e6 5146     		mov	r1, r10
 2854 04e8 5A46     		mov	r2, fp
 2855 04ea 0598     		ldr	r0, [sp, #20]
 2856 04ec FFF7FEFF 		bl	memset
 2857              	.LVL452:
 844:src/camtest.c **** 
 845:src/camtest.c ****       // Try decode 1D barcode 1st
 846:src/camtest.c ****       pbar_dat->type   = framecfg.type;
 2858              		.loc 1 846 0
 2859 04f0 0E9A     		ldr	r2, [sp, #56]
 847:src/camtest.c ****       pbar_dat->width  = framecfg.width;
 848:src/camtest.c ****       pbar_dat->height = framecfg.height;
 849:src/camtest.c ****       pbar_dat->dat    = pY800Dat;
 2860              		.loc 1 849 0
ARM GAS  C:\Users\AHMED~1.ELE\AppData\Local\Temp\cc594ylT.s 			page 69


 2861 04f2 049B     		ldr	r3, [sp, #16]
 846:src/camtest.c ****       pbar_dat->width  = framecfg.width;
 2862              		.loc 1 846 0
 2863 04f4 2260     		str	r2, [r4]
 847:src/camtest.c ****       pbar_dat->width  = framecfg.width;
 2864              		.loc 1 847 0
 2865 04f6 0F9A     		ldr	r2, [sp, #60]
 850:src/camtest.c **** 
 851:src/camtest.c ****       // Enable follow line to try full image on 1D barcode. otherwise only mid 40 lines
 852:src/camtest.c ****       //BAR_1DTryHard(TRUE);  // Try full image
 853:src/camtest.c **** 
 854:src/camtest.c ****       // output parameters
 855:src/camtest.c ****       pbar_out->dat          = pdecoded_str;
 856:src/camtest.c ****       pbar_out->max_dat_len  = DECODEDSTR_SIZE;
 857:src/camtest.c ****       pbar_out->type_str     = psym_type;
 858:src/camtest.c ****       pbar_out->max_type_len = SYMTYPE_SIZE;
 859:src/camtest.c **** 
 860:src/camtest.c ****       //dec_start = TickGet();
 861:src/camtest.c ****       zb = BAR_Decode1D(pbar_out, pbar_dat);
 2866              		.loc 1 861 0
 2867 04f8 0D20     		movs	r0, #13
 847:src/camtest.c ****       pbar_dat->height = framecfg.height;
 2868              		.loc 1 847 0
 2869 04fa A280     		strh	r2, [r4, #4]	@ movhi
 848:src/camtest.c ****       pbar_dat->dat    = pY800Dat;
 2870              		.loc 1 848 0
 2871 04fc 109A     		ldr	r2, [sp, #64]
 849:src/camtest.c **** 
 2872              		.loc 1 849 0
 2873 04fe A360     		str	r3, [r4, #8]
 856:src/camtest.c ****       pbar_out->type_str     = psym_type;
 2874              		.loc 1 856 0
 2875 0500 069B     		ldr	r3, [sp, #24]
 848:src/camtest.c ****       pbar_dat->dat    = pY800Dat;
 2876              		.loc 1 848 0
 2877 0502 E280     		strh	r2, [r4, #6]	@ movhi
 856:src/camtest.c ****       pbar_out->type_str     = psym_type;
 2878              		.loc 1 856 0
 2879 0504 6B60     		str	r3, [r5, #4]
 857:src/camtest.c ****       pbar_out->max_type_len = SYMTYPE_SIZE;
 2880              		.loc 1 857 0
 2881 0506 059B     		ldr	r3, [sp, #20]
 855:src/camtest.c ****       pbar_out->max_dat_len  = DECODEDSTR_SIZE;
 2882              		.loc 1 855 0
 2883 0508 C5F80080 		str	r8, [r5]
 857:src/camtest.c ****       pbar_out->max_type_len = SYMTYPE_SIZE;
 2884              		.loc 1 857 0
 2885 050c AB60     		str	r3, [r5, #8]
 858:src/camtest.c **** 
 2886              		.loc 1 858 0
 2887 050e C5F80CB0 		str	fp, [r5, #12]
 2888              		.loc 1 861 0
 2889 0512 2346     		mov	r3, r4
 2890 0514 CDF800A0 		str	r10, [sp]
 2891 0518 5146     		mov	r1, r10
 2892 051a 2A46     		mov	r2, r5
 2893 051c FFF7FEFF 		bl	lib_app_call
ARM GAS  C:\Users\AHMED~1.ELE\AppData\Local\Temp\cc594ylT.s 			page 70


 2894              	.LVL453:
 862:src/camtest.c ****       //dec_tick  = TickRun10ms(dec_start);
 863:src/camtest.c ****       //if (zb <= 0) {
 864:src/camtest.c ****       //  enh_mode = TRUE;
 865:src/camtest.c ****       //  dec_start = TickGet();
 866:src/camtest.c ****       //  zb = BAR_Decode1DEnh(pbar_out, pbar_dat);
 867:src/camtest.c ****       //  //zb = BAR_Decode1D(pbar_out, pbar_dat);
 868:src/camtest.c ****       //  dec_tick  = TickRun10ms(dec_start);
 869:src/camtest.c ****       //}
 870:src/camtest.c **** 
 871:src/camtest.c ****       //sprintf(dispbuf, "ZB%d[%d][%d-%d]", framecfg.width, zb, cap_tick, dec_tick);
 872:src/camtest.c ****       //DispLine(dispbuf, SU_LINE6, SU_CLREOL|SU_SPFONT);
 873:src/camtest.c ****       if (zb > 0) {
 2895              		.loc 1 873 0
 2896 0520 031E     		subs	r3, r0, #0
 2897 0522 0693     		str	r3, [sp, #24]
 2898 0524 25DD     		ble	.L249
 874:src/camtest.c ****         //sprintf(dispbuf, "%s", enh_mode?"Enhanced":"Normal");
 875:src/camtest.c ****         //DispLine(dispbuf, SU_LINE6, SU_RIGHT|SU_SPFONT);
 876:src/camtest.c ****         //sprintf(dispbuf, "[%s:%s]", psym_type, pdecoded_str);
 877:src/camtest.c ****         sprintf(dispbuf, "[%s]", pdecoded_str);
 2899              		.loc 1 877 0
 2900 0526 4049     		ldr	r1, .L354+20
 2901 0528 4246     		mov	r2, r8
 2902 052a 12A8     		add	r0, sp, #72
 2903              	.LVL454:
 2904 052c FFF7FEFF 		bl	sprintf
 2905              	.LVL455:
 2906              	.LBB80:
 878:src/camtest.c ****         DispLineMW(dispbuf, MW_LINE9, MW_CLREOL|MW_SPFONT);
 2907              		.loc 1 878 0
 2908 0530 12A8     		add	r0, sp, #72
 2909 0532 FFF7FEFF 		bl	strlen
 2910              	.LVL456:
 2911 0536 0346     		mov	r3, r0
 2912              	.LVL457:
 2913 0538 591C     		adds	r1, r3, #1
 2914 053a 9220     		movs	r0, #146
 2915              	.LVL458:
 2916 053c 0893     		str	r3, [sp, #32]
 2917              	.LVL459:
 2918 053e FFF7FEFF 		bl	sys_func1
 2919              	.LVL460:
 2920 0542 8346     		mov	fp, r0
 2921 0544 A8B1     		cbz	r0, .L249
 2922              		.loc 1 878 0 is_stmt 0 discriminator 1
 2923 0546 089B     		ldr	r3, [sp, #32]
 2924 0548 12A9     		add	r1, sp, #72
 2925 054a 1A46     		mov	r2, r3
 2926 054c FFF7FEFF 		bl	memcpy
 2927              	.LVL461:
 2928 0550 089B     		ldr	r3, [sp, #32]
 2929 0552 2521     		movs	r1, #37
 2930 0554 0BF803A0 		strb	r10, [fp, r3]
 2931 0558 42F22003 		movw	r3, #8224
 2932 055c 0F20     		movs	r0, #15
 2933 055e 0093     		str	r3, [sp]
ARM GAS  C:\Users\AHMED~1.ELE\AppData\Local\Temp\cc594ylT.s 			page 71


 2934 0560 5A46     		mov	r2, fp
 2935 0562 4FF41063 		mov	r3, #2304
 2936 0566 FFF7FEFF 		bl	lib_app_call
 2937              	.LVL462:
 2938 056a 9420     		movs	r0, #148
 2939 056c 5946     		mov	r1, fp
 2940 056e FFF7FEFF 		bl	sys_func1
 2941              	.LVL463:
 2942              	.L249:
 2943              	.LBE80:
 879:src/camtest.c ****       }
 880:src/camtest.c **** 
 881:src/camtest.c ****       //dec_start = TickGet();
 882:src/camtest.c ****       //zx = onedreader_decode(pbar_out->dat, pbar_dat->dat, pbar_dat->width, pbar_dat->height, pba
 883:src/camtest.c ****       zx = BAR_ZXDecode1D(pbar_out, pbar_dat);
 2944              		.loc 1 883 0 is_stmt 1
 2945 0572 4FF0000A 		mov	r10, #0
 2946 0576 2346     		mov	r3, r4
 2947 0578 CDF800A0 		str	r10, [sp]
 2948 057c 0D20     		movs	r0, #13
 2949 057e 0321     		movs	r1, #3
 2950 0580 2A46     		mov	r2, r5
 2951 0582 FFF7FEFF 		bl	lib_app_call
 2952              	.LVL464:
 884:src/camtest.c ****       //dec_tick  = TickRun10ms(dec_start);
 885:src/camtest.c ****       //if (zx <= 0) {
 886:src/camtest.c ****       //  enh_mode = TRUE;
 887:src/camtest.c ****       //  dec_start = TickGet();
 888:src/camtest.c ****       //  zb = BAR_ZXDecode1DEnh(pbar_out, pbar_dat);
 889:src/camtest.c ****       //  //zb = BAR_ZXDecode1D(pbar_out, pbar_dat);
 890:src/camtest.c ****       //  dec_tick  = TickRun10ms(dec_start);
 891:src/camtest.c ****       //}
 892:src/camtest.c ****       //sprintf(dispbuf, "ZX%d[%d]", framecfg.width, zx);
 893:src/camtest.c ****       //DispLineMW(dispbuf, MW_LINE8, MW_CLREOL|MW_SPFONT);
 894:src/camtest.c ****       if (zx > 0) {
 2953              		.loc 1 894 0
 2954 0586 031E     		subs	r3, r0, #0
 2955 0588 0893     		str	r3, [sp, #32]
 2956 058a 40F39780 		ble	.L251
 895:src/camtest.c ****         //sprintf(dispbuf, "%s", enh_mode?"Enhanced":"Normal");
 896:src/camtest.c ****         //DispLineMW(dispbuf, MW_LINE8, MW_RIGHT|MW_SPFONT);
 897:src/camtest.c ****         //sprintf(dispbuf, "[%s:%s]", psym_type, pdecoded_str);
 898:src/camtest.c ****         sprintf(dispbuf, "[%s]", pdecoded_str);
 2957              		.loc 1 898 0
 2958 058e 2649     		ldr	r1, .L354+20
 2959 0590 4246     		mov	r2, r8
 2960 0592 12A8     		add	r0, sp, #72
 2961              	.LVL465:
 2962 0594 FFF7FEFF 		bl	sprintf
 2963              	.LVL466:
 2964              	.LBB81:
 899:src/camtest.c ****         DispLineMW(dispbuf, MW_LINE9, MW_CLREOL|MW_SPFONT);
 2965              		.loc 1 899 0
 2966 0598 12A8     		add	r0, sp, #72
 2967 059a FFF7FEFF 		bl	strlen
 2968              	.LVL467:
 2969 059e 0346     		mov	r3, r0
ARM GAS  C:\Users\AHMED~1.ELE\AppData\Local\Temp\cc594ylT.s 			page 72


 2970              	.LVL468:
 2971 05a0 591C     		adds	r1, r3, #1
 2972 05a2 9220     		movs	r0, #146
 2973              	.LVL469:
 2974 05a4 0993     		str	r3, [sp, #36]
 2975 05a6 FFF7FEFF 		bl	sys_func1
 2976              	.LVL470:
 2977 05aa 8346     		mov	fp, r0
 2978 05ac A8B1     		cbz	r0, .L247
 2979              		.loc 1 899 0 is_stmt 0 discriminator 1
 2980 05ae 099B     		ldr	r3, [sp, #36]
 2981 05b0 12A9     		add	r1, sp, #72
 2982 05b2 1A46     		mov	r2, r3
 2983 05b4 FFF7FEFF 		bl	memcpy
 2984              	.LVL471:
 2985 05b8 099B     		ldr	r3, [sp, #36]
 2986 05ba 2521     		movs	r1, #37
 2987 05bc 0BF803A0 		strb	r10, [fp, r3]
 2988 05c0 42F22003 		movw	r3, #8224
 2989 05c4 0F20     		movs	r0, #15
 2990 05c6 0093     		str	r3, [sp]
 2991 05c8 5A46     		mov	r2, fp
 2992 05ca 4FF41063 		mov	r3, #2304
 2993 05ce FFF7FEFF 		bl	lib_app_call
 2994              	.LVL472:
 2995 05d2 9420     		movs	r0, #148
 2996 05d4 5946     		mov	r1, fp
 2997 05d6 FFF7FEFF 		bl	sys_func1
 2998              	.LVL473:
 2999              	.L247:
 3000              	.LBE81:
 900:src/camtest.c ****       }
 901:src/camtest.c **** 
 902:src/camtest.c ****        // Temperary Disable 2D
 903:src/camtest.c ****        if ((zb<=0)&&(zx<=0)) {
 904:src/camtest.c ****          pbar_dat->height = framecfg.height;
 905:src/camtest.c ****          pbar_dat->dat    = pY800Dat;
 906:src/camtest.c ****          //dec_start = TickGet();
 907:src/camtest.c ****          twod = BAR_Decode2D(pbar_out, pbar_dat, DM_TIMEOUT);
 908:src/camtest.c ****          //ret = BAR_Decode2D(pbar_out, pbar_dat, 0);    // not support data matrix
 909:src/camtest.c ****          //dec_tick  = TickRun10ms(dec_start);
 910:src/camtest.c ****          //sprintf(dispbuf, "2D%d[%d-%d]", framecfg.width, cap_tick, dec_tick);
 911:src/camtest.c ****          //sprintf(dispbuf, "2D%d", framecfg.width);
 912:src/camtest.c ****          //DispLineMW(dispbuf, MW_LINE7, MW_SPFONT);
 913:src/camtest.c ****          if (twod > 0) {
 914:src/camtest.c ****            //sprintf(dispbuf, "[%s:%s]", psym_type, pdecoded_str);
 915:src/camtest.c ****            sprintf(dispbuf, "[%s]", pdecoded_str);
 916:src/camtest.c ****            DispLineMW(dispbuf, MW_LINE9, MW_CLREOL|MW_SPFONT);
 917:src/camtest.c ****          }
 918:src/camtest.c ****        } 
 919:src/camtest.c ****     }
 920:src/camtest.c ****     if ((zb > 0) || (zx > 0) || (twod > 0)) {
 3001              		.loc 1 920 0 is_stmt 1
 3002 05da 069B     		ldr	r3, [sp, #24]
 3003 05dc 002B     		cmp	r3, #0
 3004 05de 05DC     		bgt	.L254
 3005              	.L266:
ARM GAS  C:\Users\AHMED~1.ELE\AppData\Local\Temp\cc594ylT.s 			page 73


 3006              		.loc 1 920 0 is_stmt 0 discriminator 1
 3007 05e0 089B     		ldr	r3, [sp, #32]
 3008 05e2 002B     		cmp	r3, #0
 3009 05e4 02DC     		bgt	.L254
 3010              		.loc 1 920 0 discriminator 2
 3011 05e6 039B     		ldr	r3, [sp, #12]
 3012 05e8 002B     		cmp	r3, #0
 3013 05ea 01DD     		ble	.L255
 3014              	.L254:
 921:src/camtest.c ****       Short2Beep();
 3015              		.loc 1 921 0 is_stmt 1
 3016 05ec FFF7FEFF 		bl	Short2Beep
 3017              	.LVL474:
 3018              	.L255:
 922:src/camtest.c ****     }
 923:src/camtest.c **** 
 924:src/camtest.c ****     // extract Image and display
 925:src/camtest.c ****     if (curr_mode <= MODE_W320_SD) {
 926:src/camtest.c ****       //T_LCDBUF *plcd = (T_LCDBUF *) MallocMW(sizeof(T_LCDBUF));
 927:src/camtest.c ****       //memset(plcd, 0, sizeof(T_LCDBUF));
 928:src/camtest.c ****       //plcd->w_hwidth = 160;
 929:src/camtest.c ****       //plcd->w_vwidth = 120;
 930:src/camtest.c ****       //plcd->w_hstart = 160;
 931:src/camtest.c ****       //plcd->w_vstart = 0;
 932:src/camtest.c ****       //Y800toLcd(plcd, &framecfg, pY800Dat);
 933:src/camtest.c ****       //os_disp_putg(plcd);
 934:src/camtest.c ****       //FreeMW(plcd);
 935:src/camtest.c ****     }
 936:src/camtest.c ****     else {   // update layer2 for full screen mode only
 937:src/camtest.c ****       LcdOnLayerShow(K_DispOverlay2, TRUE);
 3019              		.loc 1 937 0
 3020 05f0 0120     		movs	r0, #1
 3021 05f2 FFF7FEFF 		bl	LcdOnLayerShow.constprop.1
 3022              	.LVL475:
 938:src/camtest.c ****     }
 939:src/camtest.c **** 
 940:src/camtest.c ****     if ((zb > 0) || (zx > 0) || (twod > 0)) {
 3023              		.loc 1 940 0
 3024 05f6 069B     		ldr	r3, [sp, #24]
 3025 05f8 002B     		cmp	r3, #0
 3026 05fa 17DC     		bgt	.L273
 3027              		.loc 1 940 0 is_stmt 0 discriminator 1
 3028 05fc 089B     		ldr	r3, [sp, #32]
 3029 05fe 002B     		cmp	r3, #0
 3030 0600 14DC     		bgt	.L273
 941:src/camtest.c **** //      LcdOnLayerShow(K_DispOverlay2, FALSE);
 942:src/camtest.c **** //      LcdOnLayerEnable(FALSE);
 943:src/camtest.c **** //      DispLineMW("Scan Success!", MW_LINE5, MW_CLRDISP|MW_CENTER|MW_BIGFONT);
 944:src/camtest.c **** //      APM_WaitKey(500, 0);
 945:src/camtest.c **** //      //DispClrBelowMW(MW_LINE1);
 946:src/camtest.c **** //      LcdOnLayerShow(K_DispOverlay2, TRUE);
 947:src/camtest.c **** //      LcdOnLayerEnable(TRUE);
 948:src/camtest.c ****       timeout = 1*TIME_1SEC;
 949:src/camtest.c ****     }
 950:src/camtest.c ****     else 
 951:src/camtest.c ****       timeout = 0;
 3031              		.loc 1 951 0 is_stmt 1 discriminator 2
ARM GAS  C:\Users\AHMED~1.ELE\AppData\Local\Temp\cc594ylT.s 			page 74


 3032 0602 039B     		ldr	r3, [sp, #12]
 3033 0604 002B     		cmp	r3, #0
 3034 0606 CCBF     		ite	gt
 3035 0608 4FF0640A 		movgt	r10, #100
 3036 060c 4FF0000A 		movle	r10, #0
 3037 0610 0EE0     		b	.L256
 3038              	.L355:
 3039 0612 00BF     		.align	2
 3040              	.L354:
 3041 0614 69000000 		.word	.LC7
 3042 0618 00000000 		.word	.LANCHOR0
 3043 061c 74000000 		.word	.LC8
 3044 0620 82000000 		.word	.LC9
 3045 0624 92000000 		.word	.LC10
 3046 0628 9F000000 		.word	.LC11
 3047              	.L273:
 948:src/camtest.c ****     }
 3048              		.loc 1 948 0
 3049 062c 4FF0640A 		mov	r10, #100
 3050              	.L256:
 3051              	.LVL476:
 952:src/camtest.c **** 
 953:src/camtest.c **** #if 1
 954:src/camtest.c ****     free_run = FreeRunMW();
 3052              		.loc 1 954 0
 3053 0630 40F29F10 		movw	r0, #415
 3054 0634 FFF7FEFF 		bl	sys_func0
 3055              	.LVL477:
 3056 0638 8346     		mov	fp, r0
 3057              	.LVL478:
 3058              	.L257:
 955:src/camtest.c ****     while (FreeRunMW() < free_run + timeout) {
 3059              		.loc 1 955 0
 3060 063a 40F29F10 		movw	r0, #415
 3061 063e FFF7FEFF 		bl	sys_func0
 3062              	.LVL479:
 3063 0642 0BEB0A03 		add	r3, fp, r10
 3064 0646 9842     		cmp	r0, r3
 3065 0648 0DD2     		bcs	.L244
 956:src/camtest.c ****       if ((keyin = GetCharMW()) != 0)
 3066              		.loc 1 956 0
 3067 064a 0022     		movs	r2, #0
 3068 064c 0F20     		movs	r0, #15
 3069 064e 0092     		str	r2, [sp]
 3070 0650 1621     		movs	r1, #22
 3071 0652 1346     		mov	r3, r2
 3072 0654 FFF7FEFF 		bl	lib_app_call
 3073              	.LVL480:
 3074 0658 0646     		mov	r6, r0
 3075 065a 20B9     		cbnz	r0, .L244
 957:src/camtest.c ****         break;
 958:src/camtest.c ****       SleepMW();
 3076              		.loc 1 958 0
 3077 065c 4FF4CE70 		mov	r0, #412
 3078              	.LVL481:
 3079 0660 FFF7FEFF 		bl	sys_func0
 3080              	.LVL482:
ARM GAS  C:\Users\AHMED~1.ELE\AppData\Local\Temp\cc594ylT.s 			page 75


 3081 0664 E9E7     		b	.L257
 3082              	.LVL483:
 3083              	.L244:
 726:src/camtest.c ****     #ifdef os_disp_bl_control
 3084              		.loc 1 726 0
 3085 0666 112E     		cmp	r6, #17
 3086 0668 01D0     		beq	.L238
 3087 066a CA46     		mov	r10, r9
 3088 066c 65E5     		b	.L259
 3089              	.LVL484:
 3090              	.L238:
 959:src/camtest.c ****     }
 960:src/camtest.c **** #else
 961:src/camtest.c ****     keyin = GetCharMW();
 962:src/camtest.c **** #endif
 963:src/camtest.c ****   }  // while
 964:src/camtest.c **** 
 965:src/camtest.c ****   if (pbar_dat  != NULL)    FreeMW(pbar_dat);
 3091              		.loc 1 965 0
 3092 066e 1CB1     		cbz	r4, .L260
 3093              		.loc 1 965 0 is_stmt 0 discriminator 1
 3094 0670 9420     		movs	r0, #148
 3095 0672 2146     		mov	r1, r4
 3096 0674 FFF7FEFF 		bl	sys_func1
 3097              	.LVL485:
 3098              	.L260:
 966:src/camtest.c ****   if (pbar_out != NULL)     FreeMW(pbar_out);
 3099              		.loc 1 966 0 is_stmt 1
 3100 0678 1DB1     		cbz	r5, .L261
 3101              		.loc 1 966 0 is_stmt 0 discriminator 1
 3102 067a 9420     		movs	r0, #148
 3103 067c 2946     		mov	r1, r5
 3104 067e FFF7FEFF 		bl	sys_func1
 3105              	.LVL486:
 3106              	.L261:
 967:src/camtest.c ****   if (pdecoded_str != NULL) FreeMW(pdecoded_str);
 3107              		.loc 1 967 0 is_stmt 1
 3108 0682 B8F1000F 		cmp	r8, #0
 3109 0686 03D0     		beq	.L262
 3110              		.loc 1 967 0 is_stmt 0 discriminator 1
 3111 0688 9420     		movs	r0, #148
 3112 068a 4146     		mov	r1, r8
 3113 068c FFF7FEFF 		bl	sys_func1
 3114              	.LVL487:
 3115              	.L262:
 968:src/camtest.c ****   if (psym_type!= NULL)     FreeMW(psym_type);
 3116              		.loc 1 968 0 is_stmt 1
 3117 0690 059B     		ldr	r3, [sp, #20]
 3118 0692 1BB1     		cbz	r3, .L263
 3119              		.loc 1 968 0 is_stmt 0 discriminator 1
 3120 0694 9420     		movs	r0, #148
 3121 0696 1946     		mov	r1, r3
 3122 0698 FFF7FEFF 		bl	sys_func1
 3123              	.LVL488:
 3124              	.L263:
 969:src/camtest.c ****   if (pY800Dat != NULL)     FreeMW(pY800Dat);
 3125              		.loc 1 969 0 is_stmt 1
ARM GAS  C:\Users\AHMED~1.ELE\AppData\Local\Temp\cc594ylT.s 			page 76


 3126 069c 049B     		ldr	r3, [sp, #16]
 3127 069e 1BB1     		cbz	r3, .L264
 3128              		.loc 1 969 0 is_stmt 0 discriminator 1
 3129 06a0 9420     		movs	r0, #148
 3130 06a2 1946     		mov	r1, r3
 3131 06a4 FFF7FEFF 		bl	sys_func1
 3132              	.LVL489:
 3133              	.L264:
 970:src/camtest.c **** 
 971:src/camtest.c ****   // Close image sensor
 972:src/camtest.c ****   SensorClose();
 3134              		.loc 1 972 0 is_stmt 1
 3135 06a8 FFF7FEFF 		bl	SensorClose
 3136              	.LVL490:
 973:src/camtest.c ****   LcdOnLayerShow(K_DispOverlay2, FALSE);
 3137              		.loc 1 973 0
 3138 06ac 0020     		movs	r0, #0
 3139 06ae FFF7FEFF 		bl	LcdOnLayerShow.constprop.1
 3140              	.LVL491:
 3141              	.LBB82:
 3142              	.LBB83:
 278:src/camtest.c ****   }
 3143              		.loc 1 278 0
 3144 06b2 0F21     		movs	r1, #15
 3145 06b4 1620     		movs	r0, #22
 3146 06b6 FFF7FEFF 		bl	sys_func1
 3147              	.LVL492:
 3148              	.LBE83:
 3149              	.LBE82:
 3150 06ba 3BE0     		b	.L209
 3151              	.LVL493:
 3152              	.L251:
 903:src/camtest.c ****          pbar_dat->height = framecfg.height;
 3153              		.loc 1 903 0
 3154 06bc 069B     		ldr	r3, [sp, #24]
 3155 06be 002B     		cmp	r3, #0
 3156 06c0 94DC     		bgt	.L254
 904:src/camtest.c ****          pbar_dat->dat    = pY800Dat;
 3157              		.loc 1 904 0
 3158 06c2 109B     		ldr	r3, [sp, #64]
 907:src/camtest.c ****          //ret = BAR_Decode2D(pbar_out, pbar_dat, 0);    // not support data matrix
 3159              		.loc 1 907 0
 3160 06c4 0D20     		movs	r0, #13
 3161              	.LVL494:
 904:src/camtest.c ****          pbar_dat->dat    = pY800Dat;
 3162              		.loc 1 904 0
 3163 06c6 E380     		strh	r3, [r4, #6]	@ movhi
 905:src/camtest.c ****          //dec_start = TickGet();
 3164              		.loc 1 905 0
 3165 06c8 049B     		ldr	r3, [sp, #16]
 907:src/camtest.c ****          //ret = BAR_Decode2D(pbar_out, pbar_dat, 0);    // not support data matrix
 3166              		.loc 1 907 0
 3167 06ca 0121     		movs	r1, #1
 905:src/camtest.c ****          //dec_start = TickGet();
 3168              		.loc 1 905 0
 3169 06cc A360     		str	r3, [r4, #8]
 907:src/camtest.c ****          //ret = BAR_Decode2D(pbar_out, pbar_dat, 0);    // not support data matrix
ARM GAS  C:\Users\AHMED~1.ELE\AppData\Local\Temp\cc594ylT.s 			page 77


 3170              		.loc 1 907 0
 3171 06ce 2A46     		mov	r2, r5
 3172 06d0 2346     		mov	r3, r4
 3173 06d2 CDF800A0 		str	r10, [sp]
 3174 06d6 FFF7FEFF 		bl	lib_app_call
 3175              	.LVL495:
 913:src/camtest.c ****            //sprintf(dispbuf, "[%s:%s]", psym_type, pdecoded_str);
 3176              		.loc 1 913 0
 3177 06da 031E     		subs	r3, r0, #0
 3178 06dc 0393     		str	r3, [sp, #12]
 3179 06de 7FF77FAF 		ble	.L266
 915:src/camtest.c ****            DispLineMW(dispbuf, MW_LINE9, MW_CLREOL|MW_SPFONT);
 3180              		.loc 1 915 0
 3181 06e2 1649     		ldr	r1, .L356
 3182 06e4 4246     		mov	r2, r8
 3183 06e6 12A8     		add	r0, sp, #72
 3184              	.LVL496:
 3185 06e8 FFF7FEFF 		bl	sprintf
 3186              	.LVL497:
 3187              	.LBB84:
 916:src/camtest.c ****          }
 3188              		.loc 1 916 0
 3189 06ec 12A8     		add	r0, sp, #72
 3190 06ee FFF7FEFF 		bl	strlen
 3191              	.LVL498:
 3192 06f2 0346     		mov	r3, r0
 3193              	.LVL499:
 3194 06f4 591C     		adds	r1, r3, #1
 3195 06f6 9220     		movs	r0, #146
 3196              	.LVL500:
 3197 06f8 0993     		str	r3, [sp, #36]
 3198 06fa FFF7FEFF 		bl	sys_func1
 3199              	.LVL501:
 3200 06fe 8346     		mov	fp, r0
 3201 0700 0028     		cmp	r0, #0
 3202 0702 3FF46DAF 		beq	.L266
 916:src/camtest.c ****          }
 3203              		.loc 1 916 0 is_stmt 0 discriminator 1
 3204 0706 099B     		ldr	r3, [sp, #36]
 3205 0708 12A9     		add	r1, sp, #72
 3206 070a 1A46     		mov	r2, r3
 3207 070c FFF7FEFF 		bl	memcpy
 3208              	.LVL502:
 3209 0710 099B     		ldr	r3, [sp, #36]
 3210 0712 2521     		movs	r1, #37
 3211 0714 0BF803A0 		strb	r10, [fp, r3]
 3212 0718 42F22003 		movw	r3, #8224
 3213 071c 5A46     		mov	r2, fp
 3214 071e 0093     		str	r3, [sp]
 3215 0720 0F20     		movs	r0, #15
 3216 0722 4FF41063 		mov	r3, #2304
 3217 0726 FFF7FEFF 		bl	lib_app_call
 3218              	.LVL503:
 3219 072a 5946     		mov	r1, fp
 3220 072c 9420     		movs	r0, #148
 3221 072e FFF7FEFF 		bl	sys_func1
 3222              	.LVL504:
ARM GAS  C:\Users\AHMED~1.ELE\AppData\Local\Temp\cc594ylT.s 			page 78


 3223 0732 55E7     		b	.L266
 3224              	.LVL505:
 3225              	.L209:
 3226              	.LBE84:
 974:src/camtest.c ****   LcdOnLayerEnable(FALSE);
 975:src/camtest.c **** }
 3227              		.loc 1 975 0 is_stmt 1
 3228 0734 0DF5137D 		add	sp, sp, #588
 3229              		.cfi_def_cfa_offset 36
 3230              		@ sp needed
 3231 0738 BDE8F08F 		pop	{r4, r5, r6, r7, r8, r9, r10, fp, pc}
 3232              	.L357:
 3233              		.align	2
 3234              	.L356:
 3235 073c 9F000000 		.word	.LC11
 3236              		.cfi_endproc
 3237              	.LFE9:
 3238              		.size	CamTestAll, .-CamTestAll
 3239              		.section	.rodata.str1.1,"aMS",%progbits,1
 3240              	.LC0:
 3241 0000 73656E73 		.ascii	"sensor_setmode:[%d]\000"
 3241      6F725F73 
 3241      65746D6F 
 3241      64653A5B 
 3241      25645D00 
 3242              	.LC1:
 3243 0014 73656E73 		.ascii	"sensor_open:[%d]\000"
 3243      6F725F6F 
 3243      70656E3A 
 3243      5B25645D 
 3243      00
 3244              	.LC2:
 3245 0025 42415244 		.ascii	"BARDLL NOT LOADED!\000"
 3245      4C4C204E 
 3245      4F54204C 
 3245      4F414445 
 3245      442100
 3246              	.LC3:
 3247 0038 43616D54 		.ascii	"CamTest\000"
 3247      65737400 
 3248              	.LC4:
 3249 0040 57616974 		.ascii	"Wait For CAM Ready\000"
 3249      20466F72 
 3249      2043414D 
 3249      20526561 
 3249      647900
 3250              	.LC5:
 3251 0053 39363020 		.ascii	"960 Decode\000"
 3251      4465636F 
 3251      646500
 3252              	.LC6:
 3253 005e 36343020 		.ascii	"640 Decode\000"
 3253      4465636F 
 3253      646500
 3254              	.LC7:
 3255 0069 33323020 		.ascii	"320 Decode\000"
 3255      4465636F 
ARM GAS  C:\Users\AHMED~1.ELE\AppData\Local\Temp\cc594ylT.s 			page 79


 3255      646500
 3256              	.LC8:
 3257 0074 53656E53 		.ascii	"SenSw failed!\000"
 3257      77206661 
 3257      696C6564 
 3257      2100
 3258              	.LC9:
 3259 0082 53656E4F 		.ascii	"SenOpen failed!\000"
 3259      70656E20 
 3259      6661696C 
 3259      65642100 
 3260              	.LC10:
 3261 0092 6765745F 		.ascii	"get_frame:%d\000"
 3261      6672616D 
 3261      653A2564 
 3261      00
 3262              	.LC11:
 3263 009f 5B25735D 		.ascii	"[%s]\000"
 3263      00
 3264              	.LC12:
 3265 00a4 5363616E 		.ascii	"Scan Success!\000"
 3265      20537563 
 3265      63657373 
 3265      2100
 3266              		.bss
 3267              		.set	.LANCHOR0,. + 0
 3268              		.type	gSensorOpened, %object
 3269              		.size	gSensorOpened, 1
 3270              	gSensorOpened:
 3271 0000 00       		.space	1
 3272              		.text
 3273              	.Letext0:
 3274              		.file 2 "c:\\devtools\\gcc_v49_2014q4\\lib\\gcc\\arm-none-eabi\\4.9.3\\include\\stddef.h"
 3275              		.file 3 "../LibA5T1000/common.h"
 3276              		.file 4 "../LibA5T1000/system.h"
 3277              		.file 5 "../LibA5T1000/midware.h"
 3278              		.file 6 "../LibA5T1000/apm.h"
 3279              		.file 7 "../LibA5T1000/bar2dll.h"
 3280              		.file 8 "c:\\devtools\\gcc_v49_2014q4\\arm-none-eabi\\include\\string.h"
 3281              		.file 9 "c:\\devtools\\gcc_v49_2014q4\\arm-none-eabi\\include\\stdio.h"
 3282              		.file 10 "src/sysutil.h"
 3283              		.section	.debug_info,"",%progbits
 3284              	.Ldebug_info0:
 3285 0000 3B400000 		.4byte	0x403b
 3286 0004 0400     		.2byte	0x4
 3287 0006 00000000 		.4byte	.Ldebug_abbrev0
 3288 000a 04       		.byte	0x4
 3289 000b 01       		.uleb128 0x1
 3290 000c A0140000 		.4byte	.LASF713
 3291 0010 01       		.byte	0x1
 3292 0011 E3030000 		.4byte	.LASF714
 3293 0015 E1050000 		.4byte	.LASF715
 3294 0019 40000000 		.4byte	.Ldebug_ranges0+0x40
 3295 001d 00000000 		.4byte	0
 3296 0021 00000000 		.4byte	.Ldebug_line0
 3297 0025 02       		.uleb128 0x2
 3298 0026 01       		.byte	0x1
ARM GAS  C:\Users\AHMED~1.ELE\AppData\Local\Temp\cc594ylT.s 			page 80


 3299 0027 06       		.byte	0x6
 3300 0028 2F290000 		.4byte	.LASF0
 3301 002c 02       		.uleb128 0x2
 3302 002d 01       		.byte	0x1
 3303 002e 08       		.byte	0x8
 3304 002f F41D0000 		.4byte	.LASF1
 3305 0033 02       		.uleb128 0x2
 3306 0034 02       		.byte	0x2
 3307 0035 05       		.byte	0x5
 3308 0036 DC260000 		.4byte	.LASF2
 3309 003a 02       		.uleb128 0x2
 3310 003b 02       		.byte	0x2
 3311 003c 07       		.byte	0x7
 3312 003d F82B0000 		.4byte	.LASF3
 3313 0041 02       		.uleb128 0x2
 3314 0042 04       		.byte	0x4
 3315 0043 05       		.byte	0x5
 3316 0044 C0070000 		.4byte	.LASF4
 3317 0048 02       		.uleb128 0x2
 3318 0049 04       		.byte	0x4
 3319 004a 07       		.byte	0x7
 3320 004b EF130000 		.4byte	.LASF5
 3321 004f 02       		.uleb128 0x2
 3322 0050 08       		.byte	0x8
 3323 0051 05       		.byte	0x5
 3324 0052 EA170000 		.4byte	.LASF6
 3325 0056 02       		.uleb128 0x2
 3326 0057 08       		.byte	0x8
 3327 0058 07       		.byte	0x7
 3328 0059 2D210000 		.4byte	.LASF7
 3329 005d 03       		.uleb128 0x3
 3330 005e 04       		.byte	0x4
 3331 005f 05       		.byte	0x5
 3332 0060 696E7400 		.ascii	"int\000"
 3333 0064 02       		.uleb128 0x2
 3334 0065 04       		.byte	0x4
 3335 0066 07       		.byte	0x7
 3336 0067 EE1A0000 		.4byte	.LASF8
 3337 006b 04       		.uleb128 0x4
 3338 006c 7B000000 		.4byte	.LASF11
 3339 0070 02       		.byte	0x2
 3340 0071 D4       		.byte	0xd4
 3341 0072 64000000 		.4byte	0x64
 3342 0076 05       		.uleb128 0x5
 3343 0077 04       		.byte	0x4
 3344 0078 02       		.uleb128 0x2
 3345 0079 04       		.byte	0x4
 3346 007a 07       		.byte	0x7
 3347 007b 9E000000 		.4byte	.LASF9
 3348 007f 06       		.uleb128 0x6
 3349 0080 04       		.byte	0x4
 3350 0081 85000000 		.4byte	0x85
 3351 0085 02       		.uleb128 0x2
 3352 0086 01       		.byte	0x1
 3353 0087 06       		.byte	0x6
 3354 0088 34000000 		.4byte	.LASF10
 3355 008c 06       		.uleb128 0x6
ARM GAS  C:\Users\AHMED~1.ELE\AppData\Local\Temp\cc594ylT.s 			page 81


 3356 008d 04       		.byte	0x4
 3357 008e 92000000 		.4byte	0x92
 3358 0092 07       		.uleb128 0x7
 3359 0093 85000000 		.4byte	0x85
 3360 0097 04       		.uleb128 0x4
 3361 0098 870E0000 		.4byte	.LASF12
 3362 009c 03       		.byte	0x3
 3363 009d 0D       		.byte	0xd
 3364 009e 2C000000 		.4byte	0x2c
 3365 00a2 04       		.uleb128 0x4
 3366 00a3 4D060000 		.4byte	.LASF13
 3367 00a7 03       		.byte	0x3
 3368 00a8 0E       		.byte	0xe
 3369 00a9 2C000000 		.4byte	0x2c
 3370 00ad 04       		.uleb128 0x4
 3371 00ae 8C1D0000 		.4byte	.LASF14
 3372 00b2 03       		.byte	0x3
 3373 00b3 0F       		.byte	0xf
 3374 00b4 3A000000 		.4byte	0x3a
 3375 00b8 04       		.uleb128 0x4
 3376 00b9 4B2B0000 		.4byte	.LASF15
 3377 00bd 03       		.byte	0x3
 3378 00be 10       		.byte	0x10
 3379 00bf 64000000 		.4byte	0x64
 3380 00c3 06       		.uleb128 0x6
 3381 00c4 04       		.byte	0x4
 3382 00c5 A2000000 		.4byte	0xa2
 3383 00c9 08       		.uleb128 0x8
 3384 00ca A2000000 		.4byte	0xa2
 3385 00ce D9000000 		.4byte	0xd9
 3386 00d2 09       		.uleb128 0x9
 3387 00d3 78000000 		.4byte	0x78
 3388 00d7 7F       		.byte	0x7f
 3389 00d8 00       		.byte	0
 3390 00d9 0A       		.uleb128 0xa
 3391 00da 36120000 		.4byte	.LASF716
 3392 00de 02       		.byte	0x2
 3393 00df 04       		.byte	0x4
 3394 00e0 9A04     		.2byte	0x49a
 3395 00e2 960D0000 		.4byte	0xd96
 3396 00e6 0B       		.uleb128 0xb
 3397 00e7 A22D0000 		.4byte	.LASF16
 3398 00eb 00       		.sleb128 0
 3399 00ec 0B       		.uleb128 0xb
 3400 00ed 3A140000 		.4byte	.LASF17
 3401 00f1 01       		.sleb128 1
 3402 00f2 0B       		.uleb128 0xb
 3403 00f3 8A170000 		.4byte	.LASF18
 3404 00f7 02       		.sleb128 2
 3405 00f8 0B       		.uleb128 0xb
 3406 00f9 250B0000 		.4byte	.LASF19
 3407 00fd 03       		.sleb128 3
 3408 00fe 0B       		.uleb128 0xb
 3409 00ff FF0A0000 		.4byte	.LASF20
 3410 0103 04       		.sleb128 4
 3411 0104 0B       		.uleb128 0xb
 3412 0105 D21E0000 		.4byte	.LASF21
ARM GAS  C:\Users\AHMED~1.ELE\AppData\Local\Temp\cc594ylT.s 			page 82


 3413 0109 05       		.sleb128 5
 3414 010a 0B       		.uleb128 0xb
 3415 010b F60D0000 		.4byte	.LASF22
 3416 010f 06       		.sleb128 6
 3417 0110 0B       		.uleb128 0xb
 3418 0111 482D0000 		.4byte	.LASF23
 3419 0115 07       		.sleb128 7
 3420 0116 0B       		.uleb128 0xb
 3421 0117 FB150000 		.4byte	.LASF24
 3422 011b 08       		.sleb128 8
 3423 011c 0B       		.uleb128 0xb
 3424 011d EF210000 		.4byte	.LASF25
 3425 0121 09       		.sleb128 9
 3426 0122 0B       		.uleb128 0xb
 3427 0123 DC2A0000 		.4byte	.LASF26
 3428 0127 0A       		.sleb128 10
 3429 0128 0B       		.uleb128 0xb
 3430 0129 C8230000 		.4byte	.LASF27
 3431 012d 0B       		.sleb128 11
 3432 012e 0B       		.uleb128 0xb
 3433 012f DD020000 		.4byte	.LASF28
 3434 0133 0C       		.sleb128 12
 3435 0134 0B       		.uleb128 0xb
 3436 0135 E21E0000 		.4byte	.LASF29
 3437 0139 0D       		.sleb128 13
 3438 013a 0B       		.uleb128 0xb
 3439 013b B0160000 		.4byte	.LASF30
 3440 013f 0E       		.sleb128 14
 3441 0140 0B       		.uleb128 0xb
 3442 0141 FF2D0000 		.4byte	.LASF31
 3443 0145 0F       		.sleb128 15
 3444 0146 0B       		.uleb128 0xb
 3445 0147 39170000 		.4byte	.LASF32
 3446 014b 10       		.sleb128 16
 3447 014c 0B       		.uleb128 0xb
 3448 014d 87240000 		.4byte	.LASF33
 3449 0151 11       		.sleb128 17
 3450 0152 0B       		.uleb128 0xb
 3451 0153 D20F0000 		.4byte	.LASF34
 3452 0157 12       		.sleb128 18
 3453 0158 0B       		.uleb128 0xb
 3454 0159 BE240000 		.4byte	.LASF35
 3455 015d 13       		.sleb128 19
 3456 015e 0B       		.uleb128 0xb
 3457 015f 41090000 		.4byte	.LASF36
 3458 0163 14       		.sleb128 20
 3459 0164 0B       		.uleb128 0xb
 3460 0165 09180000 		.4byte	.LASF37
 3461 0169 15       		.sleb128 21
 3462 016a 0B       		.uleb128 0xb
 3463 016b 51090000 		.4byte	.LASF38
 3464 016f 16       		.sleb128 22
 3465 0170 0B       		.uleb128 0xb
 3466 0171 010A0000 		.4byte	.LASF39
 3467 0175 17       		.sleb128 23
 3468 0176 0B       		.uleb128 0xb
 3469 0177 A9090000 		.4byte	.LASF40
ARM GAS  C:\Users\AHMED~1.ELE\AppData\Local\Temp\cc594ylT.s 			page 83


 3470 017b 18       		.sleb128 24
 3471 017c 0B       		.uleb128 0xb
 3472 017d 451E0000 		.4byte	.LASF41
 3473 0181 19       		.sleb128 25
 3474 0182 0B       		.uleb128 0xb
 3475 0183 75090000 		.4byte	.LASF42
 3476 0187 1A       		.sleb128 26
 3477 0188 0B       		.uleb128 0xb
 3478 0189 D4090000 		.4byte	.LASF43
 3479 018d 1B       		.sleb128 27
 3480 018e 0B       		.uleb128 0xb
 3481 018f 12140000 		.4byte	.LASF44
 3482 0193 1C       		.sleb128 28
 3483 0194 0B       		.uleb128 0xb
 3484 0195 B71A0000 		.4byte	.LASF45
 3485 0199 1D       		.sleb128 29
 3486 019a 0B       		.uleb128 0xb
 3487 019b 222E0000 		.4byte	.LASF46
 3488 019f 1E       		.sleb128 30
 3489 01a0 0B       		.uleb128 0xb
 3490 01a1 B8080000 		.4byte	.LASF47
 3491 01a5 1F       		.sleb128 31
 3492 01a6 0B       		.uleb128 0xb
 3493 01a7 01140000 		.4byte	.LASF48
 3494 01ab 20       		.sleb128 32
 3495 01ac 0B       		.uleb128 0xb
 3496 01ad 73030000 		.4byte	.LASF49
 3497 01b1 21       		.sleb128 33
 3498 01b2 0B       		.uleb128 0xb
 3499 01b3 761D0000 		.4byte	.LASF50
 3500 01b7 22       		.sleb128 34
 3501 01b8 0B       		.uleb128 0xb
 3502 01b9 0C190000 		.4byte	.LASF51
 3503 01bd 23       		.sleb128 35
 3504 01be 0B       		.uleb128 0xb
 3505 01bf 530B0000 		.4byte	.LASF52
 3506 01c3 24       		.sleb128 36
 3507 01c4 0B       		.uleb128 0xb
 3508 01c5 C7100000 		.4byte	.LASF53
 3509 01c9 25       		.sleb128 37
 3510 01ca 0B       		.uleb128 0xb
 3511 01cb FF280000 		.4byte	.LASF54
 3512 01cf 26       		.sleb128 38
 3513 01d0 0B       		.uleb128 0xb
 3514 01d1 63190000 		.4byte	.LASF55
 3515 01d5 27       		.sleb128 39
 3516 01d6 0B       		.uleb128 0xb
 3517 01d7 F7070000 		.4byte	.LASF56
 3518 01db 28       		.sleb128 40
 3519 01dc 0B       		.uleb128 0xb
 3520 01dd 84200000 		.4byte	.LASF57
 3521 01e1 29       		.sleb128 41
 3522 01e2 0B       		.uleb128 0xb
 3523 01e3 BB190000 		.4byte	.LASF58
 3524 01e7 2A       		.sleb128 42
 3525 01e8 0B       		.uleb128 0xb
 3526 01e9 301A0000 		.4byte	.LASF59
ARM GAS  C:\Users\AHMED~1.ELE\AppData\Local\Temp\cc594ylT.s 			page 84


 3527 01ed 2B       		.sleb128 43
 3528 01ee 0B       		.uleb128 0xb
 3529 01ef EE0E0000 		.4byte	.LASF60
 3530 01f3 2C       		.sleb128 44
 3531 01f4 0B       		.uleb128 0xb
 3532 01f5 000C0000 		.4byte	.LASF61
 3533 01f9 2D       		.sleb128 45
 3534 01fa 0B       		.uleb128 0xb
 3535 01fb 7B290000 		.4byte	.LASF62
 3536 01ff 2E       		.sleb128 46
 3537 0200 0B       		.uleb128 0xb
 3538 0201 782C0000 		.4byte	.LASF63
 3539 0205 2F       		.sleb128 47
 3540 0206 0B       		.uleb128 0xb
 3541 0207 34270000 		.4byte	.LASF64
 3542 020b 30       		.sleb128 48
 3543 020c 0B       		.uleb128 0xb
 3544 020d 81040000 		.4byte	.LASF65
 3545 0211 31       		.sleb128 49
 3546 0212 0B       		.uleb128 0xb
 3547 0213 E4220000 		.4byte	.LASF66
 3548 0217 32       		.sleb128 50
 3549 0218 0B       		.uleb128 0xb
 3550 0219 002B0000 		.4byte	.LASF67
 3551 021d 33       		.sleb128 51
 3552 021e 0B       		.uleb128 0xb
 3553 021f EE230000 		.4byte	.LASF68
 3554 0223 34       		.sleb128 52
 3555 0224 0B       		.uleb128 0xb
 3556 0225 620C0000 		.4byte	.LASF69
 3557 0229 35       		.sleb128 53
 3558 022a 0B       		.uleb128 0xb
 3559 022b 55050000 		.4byte	.LASF70
 3560 022f 36       		.sleb128 54
 3561 0230 0B       		.uleb128 0xb
 3562 0231 4D180000 		.4byte	.LASF71
 3563 0235 37       		.sleb128 55
 3564 0236 0B       		.uleb128 0xb
 3565 0237 572E0000 		.4byte	.LASF72
 3566 023b 38       		.sleb128 56
 3567 023c 0B       		.uleb128 0xb
 3568 023d 9A2B0000 		.4byte	.LASF73
 3569 0241 39       		.sleb128 57
 3570 0242 0B       		.uleb128 0xb
 3571 0243 5A220000 		.4byte	.LASF74
 3572 0247 3A       		.sleb128 58
 3573 0248 0B       		.uleb128 0xb
 3574 0249 70040000 		.4byte	.LASF75
 3575 024d 3B       		.sleb128 59
 3576 024e 0B       		.uleb128 0xb
 3577 024f EC2C0000 		.4byte	.LASF76
 3578 0253 3C       		.sleb128 60
 3579 0254 0B       		.uleb128 0xb
 3580 0255 F21E0000 		.4byte	.LASF77
 3581 0259 3D       		.sleb128 61
 3582 025a 0B       		.uleb128 0xb
 3583 025b B0290000 		.4byte	.LASF78
ARM GAS  C:\Users\AHMED~1.ELE\AppData\Local\Temp\cc594ylT.s 			page 85


 3584 025f 3E       		.sleb128 62
 3585 0260 0B       		.uleb128 0xb
 3586 0261 6D260000 		.4byte	.LASF79
 3587 0265 3F       		.sleb128 63
 3588 0266 0B       		.uleb128 0xb
 3589 0267 B9260000 		.4byte	.LASF80
 3590 026b C000     		.sleb128 64
 3591 026d 0B       		.uleb128 0xb
 3592 026e 96010000 		.4byte	.LASF81
 3593 0272 C100     		.sleb128 65
 3594 0274 0B       		.uleb128 0xb
 3595 0275 812D0000 		.4byte	.LASF82
 3596 0279 C200     		.sleb128 66
 3597 027b 0B       		.uleb128 0xb
 3598 027c AE190000 		.4byte	.LASF83
 3599 0280 C300     		.sleb128 67
 3600 0282 0B       		.uleb128 0xb
 3601 0283 5E200000 		.4byte	.LASF84
 3602 0287 C400     		.sleb128 68
 3603 0289 0B       		.uleb128 0xb
 3604 028a 9B0E0000 		.4byte	.LASF85
 3605 028e C500     		.sleb128 69
 3606 0290 0B       		.uleb128 0xb
 3607 0291 C7120000 		.4byte	.LASF86
 3608 0295 C600     		.sleb128 70
 3609 0297 0B       		.uleb128 0xb
 3610 0298 3B220000 		.4byte	.LASF87
 3611 029c C700     		.sleb128 71
 3612 029e 0B       		.uleb128 0xb
 3613 029f 5F180000 		.4byte	.LASF88
 3614 02a3 C800     		.sleb128 72
 3615 02a5 0B       		.uleb128 0xb
 3616 02a6 1E1C0000 		.4byte	.LASF89
 3617 02aa C900     		.sleb128 73
 3618 02ac 0B       		.uleb128 0xb
 3619 02ad D52B0000 		.4byte	.LASF90
 3620 02b1 CA00     		.sleb128 74
 3621 02b3 0B       		.uleb128 0xb
 3622 02b4 992C0000 		.4byte	.LASF91
 3623 02b8 CB00     		.sleb128 75
 3624 02ba 0B       		.uleb128 0xb
 3625 02bb 81060000 		.4byte	.LASF92
 3626 02bf CC00     		.sleb128 76
 3627 02c1 0B       		.uleb128 0xb
 3628 02c2 F21B0000 		.4byte	.LASF93
 3629 02c6 CD00     		.sleb128 77
 3630 02c8 0B       		.uleb128 0xb
 3631 02c9 D9040000 		.4byte	.LASF94
 3632 02cd CE00     		.sleb128 78
 3633 02cf 0B       		.uleb128 0xb
 3634 02d0 27060000 		.4byte	.LASF95
 3635 02d4 CF00     		.sleb128 79
 3636 02d6 0B       		.uleb128 0xb
 3637 02d7 D12A0000 		.4byte	.LASF96
 3638 02db D000     		.sleb128 80
 3639 02dd 0B       		.uleb128 0xb
 3640 02de 36250000 		.4byte	.LASF97
ARM GAS  C:\Users\AHMED~1.ELE\AppData\Local\Temp\cc594ylT.s 			page 86


 3641 02e2 D100     		.sleb128 81
 3642 02e4 0B       		.uleb128 0xb
 3643 02e5 DE190000 		.4byte	.LASF98
 3644 02e9 D200     		.sleb128 82
 3645 02eb 0B       		.uleb128 0xb
 3646 02ec 51100000 		.4byte	.LASF99
 3647 02f0 D300     		.sleb128 83
 3648 02f2 0B       		.uleb128 0xb
 3649 02f3 13260000 		.4byte	.LASF100
 3650 02f7 D400     		.sleb128 84
 3651 02f9 0B       		.uleb128 0xb
 3652 02fa 39200000 		.4byte	.LASF101
 3653 02fe D500     		.sleb128 85
 3654 0300 0B       		.uleb128 0xb
 3655 0301 84050000 		.4byte	.LASF102
 3656 0305 D600     		.sleb128 86
 3657 0307 0B       		.uleb128 0xb
 3658 0308 892C0000 		.4byte	.LASF103
 3659 030c D700     		.sleb128 87
 3660 030e 0B       		.uleb128 0xb
 3661 030f 8D120000 		.4byte	.LASF104
 3662 0313 D800     		.sleb128 88
 3663 0315 0B       		.uleb128 0xb
 3664 0316 A60E0000 		.4byte	.LASF105
 3665 031a D900     		.sleb128 89
 3666 031c 0B       		.uleb128 0xb
 3667 031d 49220000 		.4byte	.LASF106
 3668 0321 DA00     		.sleb128 90
 3669 0323 0B       		.uleb128 0xb
 3670 0324 E91F0000 		.4byte	.LASF107
 3671 0328 DB00     		.sleb128 91
 3672 032a 0B       		.uleb128 0xb
 3673 032b 5C080000 		.4byte	.LASF108
 3674 032f DC00     		.sleb128 92
 3675 0331 0B       		.uleb128 0xb
 3676 0332 58040000 		.4byte	.LASF109
 3677 0336 DD00     		.sleb128 93
 3678 0338 0B       		.uleb128 0xb
 3679 0339 04060000 		.4byte	.LASF110
 3680 033d DE00     		.sleb128 94
 3681 033f 0B       		.uleb128 0xb
 3682 0340 1C080000 		.4byte	.LASF111
 3683 0344 DF00     		.sleb128 95
 3684 0346 0B       		.uleb128 0xb
 3685 0347 DE1C0000 		.4byte	.LASF112
 3686 034b E000     		.sleb128 96
 3687 034d 0B       		.uleb128 0xb
 3688 034e 03280000 		.4byte	.LASF113
 3689 0352 E100     		.sleb128 97
 3690 0354 0B       		.uleb128 0xb
 3691 0355 AE270000 		.4byte	.LASF114
 3692 0359 E200     		.sleb128 98
 3693 035b 0B       		.uleb128 0xb
 3694 035c 930D0000 		.4byte	.LASF115
 3695 0360 E300     		.sleb128 99
 3696 0362 0B       		.uleb128 0xb
 3697 0363 ED280000 		.4byte	.LASF116
ARM GAS  C:\Users\AHMED~1.ELE\AppData\Local\Temp\cc594ylT.s 			page 87


 3698 0367 E400     		.sleb128 100
 3699 0369 0B       		.uleb128 0xb
 3700 036a 201D0000 		.4byte	.LASF117
 3701 036e E500     		.sleb128 101
 3702 0370 0B       		.uleb128 0xb
 3703 0371 D2010000 		.4byte	.LASF118
 3704 0375 E600     		.sleb128 102
 3705 0377 0B       		.uleb128 0xb
 3706 0378 72060000 		.4byte	.LASF119
 3707 037c E700     		.sleb128 103
 3708 037e 0B       		.uleb128 0xb
 3709 037f 00050000 		.4byte	.LASF120
 3710 0383 E800     		.sleb128 104
 3711 0385 0B       		.uleb128 0xb
 3712 0386 3F060000 		.4byte	.LASF121
 3713 038a E900     		.sleb128 105
 3714 038c 0B       		.uleb128 0xb
 3715 038d A9120000 		.4byte	.LASF122
 3716 0391 EA00     		.sleb128 106
 3717 0393 0B       		.uleb128 0xb
 3718 0394 DA270000 		.4byte	.LASF123
 3719 0398 EB00     		.sleb128 107
 3720 039a 0B       		.uleb128 0xb
 3721 039b 7D260000 		.4byte	.LASF124
 3722 039f EC00     		.sleb128 108
 3723 03a1 0B       		.uleb128 0xb
 3724 03a2 531A0000 		.4byte	.LASF125
 3725 03a6 ED00     		.sleb128 109
 3726 03a8 0B       		.uleb128 0xb
 3727 03a9 340B0000 		.4byte	.LASF126
 3728 03ad EE00     		.sleb128 110
 3729 03af 0B       		.uleb128 0xb
 3730 03b0 E01B0000 		.4byte	.LASF127
 3731 03b4 EF00     		.sleb128 111
 3732 03b6 0B       		.uleb128 0xb
 3733 03b7 F5160000 		.4byte	.LASF128
 3734 03bb F000     		.sleb128 112
 3735 03bd 0B       		.uleb128 0xb
 3736 03be A1230000 		.4byte	.LASF129
 3737 03c2 F100     		.sleb128 113
 3738 03c4 0B       		.uleb128 0xb
 3739 03c5 A81C0000 		.4byte	.LASF130
 3740 03c9 F200     		.sleb128 114
 3741 03cb 0B       		.uleb128 0xb
 3742 03cc 24220000 		.4byte	.LASF131
 3743 03d0 F300     		.sleb128 115
 3744 03d2 0B       		.uleb128 0xb
 3745 03d3 85090000 		.4byte	.LASF132
 3746 03d7 F400     		.sleb128 116
 3747 03d9 0B       		.uleb128 0xb
 3748 03da BA280000 		.4byte	.LASF133
 3749 03de F500     		.sleb128 117
 3750 03e0 0B       		.uleb128 0xb
 3751 03e1 98290000 		.4byte	.LASF134
 3752 03e5 F600     		.sleb128 118
 3753 03e7 0B       		.uleb128 0xb
 3754 03e8 100C0000 		.4byte	.LASF135
ARM GAS  C:\Users\AHMED~1.ELE\AppData\Local\Temp\cc594ylT.s 			page 88


 3755 03ec F700     		.sleb128 119
 3756 03ee 0B       		.uleb128 0xb
 3757 03ef A10B0000 		.4byte	.LASF136
 3758 03f3 F800     		.sleb128 120
 3759 03f5 0B       		.uleb128 0xb
 3760 03f6 490D0000 		.4byte	.LASF137
 3761 03fa F900     		.sleb128 121
 3762 03fc 0B       		.uleb128 0xb
 3763 03fd 1B2C0000 		.4byte	.LASF138
 3764 0401 FA00     		.sleb128 122
 3765 0403 0B       		.uleb128 0xb
 3766 0404 AF0F0000 		.4byte	.LASF139
 3767 0408 FB00     		.sleb128 123
 3768 040a 0B       		.uleb128 0xb
 3769 040b 9E160000 		.4byte	.LASF140
 3770 040f FC00     		.sleb128 124
 3771 0411 0B       		.uleb128 0xb
 3772 0412 95260000 		.4byte	.LASF141
 3773 0416 FD00     		.sleb128 125
 3774 0418 0B       		.uleb128 0xb
 3775 0419 B90A0000 		.4byte	.LASF142
 3776 041d FE00     		.sleb128 126
 3777 041f 0B       		.uleb128 0xb
 3778 0420 DE110000 		.4byte	.LASF143
 3779 0424 FF00     		.sleb128 127
 3780 0426 0B       		.uleb128 0xb
 3781 0427 70250000 		.4byte	.LASF144
 3782 042b 8001     		.sleb128 128
 3783 042d 0B       		.uleb128 0xb
 3784 042e E4070000 		.4byte	.LASF145
 3785 0432 8101     		.sleb128 129
 3786 0434 0B       		.uleb128 0xb
 3787 0435 05030000 		.4byte	.LASF146
 3788 0439 8201     		.sleb128 130
 3789 043b 0B       		.uleb128 0xb
 3790 043c A51F0000 		.4byte	.LASF147
 3791 0440 8301     		.sleb128 131
 3792 0442 0B       		.uleb128 0xb
 3793 0443 DA230000 		.4byte	.LASF148
 3794 0447 8401     		.sleb128 132
 3795 0449 0B       		.uleb128 0xb
 3796 044a C30F0000 		.4byte	.LASF149
 3797 044e 8501     		.sleb128 133
 3798 0450 0B       		.uleb128 0xb
 3799 0451 BF2C0000 		.4byte	.LASF150
 3800 0455 8601     		.sleb128 134
 3801 0457 0B       		.uleb128 0xb
 3802 0458 510C0000 		.4byte	.LASF151
 3803 045c 8701     		.sleb128 135
 3804 045e 0B       		.uleb128 0xb
 3805 045f 31160000 		.4byte	.LASF152
 3806 0463 8801     		.sleb128 136
 3807 0465 0B       		.uleb128 0xb
 3808 0466 0C100000 		.4byte	.LASF153
 3809 046a 8901     		.sleb128 137
 3810 046c 0B       		.uleb128 0xb
 3811 046d 750A0000 		.4byte	.LASF154
ARM GAS  C:\Users\AHMED~1.ELE\AppData\Local\Temp\cc594ylT.s 			page 89


 3812 0471 8A01     		.sleb128 138
 3813 0473 0B       		.uleb128 0xb
 3814 0474 80210000 		.4byte	.LASF155
 3815 0478 8B01     		.sleb128 139
 3816 047a 0B       		.uleb128 0xb
 3817 047b B62A0000 		.4byte	.LASF156
 3818 047f 8C01     		.sleb128 140
 3819 0481 0B       		.uleb128 0xb
 3820 0482 3D190000 		.4byte	.LASF157
 3821 0486 8D01     		.sleb128 141
 3822 0488 0B       		.uleb128 0xb
 3823 0489 23200000 		.4byte	.LASF158
 3824 048d 8E01     		.sleb128 142
 3825 048f 0B       		.uleb128 0xb
 3826 0490 340F0000 		.4byte	.LASF159
 3827 0494 8F01     		.sleb128 143
 3828 0496 0B       		.uleb128 0xb
 3829 0497 1F0F0000 		.4byte	.LASF160
 3830 049b 9001     		.sleb128 144
 3831 049d 0B       		.uleb128 0xb
 3832 049e 0C2A0000 		.4byte	.LASF161
 3833 04a2 9101     		.sleb128 145
 3834 04a4 0B       		.uleb128 0xb
 3835 04a5 361F0000 		.4byte	.LASF162
 3836 04a9 9201     		.sleb128 146
 3837 04ab 0B       		.uleb128 0xb
 3838 04ac 29280000 		.4byte	.LASF163
 3839 04b0 9301     		.sleb128 147
 3840 04b2 0B       		.uleb128 0xb
 3841 04b3 D0170000 		.4byte	.LASF164
 3842 04b7 9401     		.sleb128 148
 3843 04b9 0B       		.uleb128 0xb
 3844 04ba 48170000 		.4byte	.LASF165
 3845 04be 9501     		.sleb128 149
 3846 04c0 0B       		.uleb128 0xb
 3847 04c1 8E0A0000 		.4byte	.LASF166
 3848 04c5 9601     		.sleb128 150
 3849 04c7 0B       		.uleb128 0xb
 3850 04c8 EF100000 		.4byte	.LASF167
 3851 04cc 9701     		.sleb128 151
 3852 04ce 0B       		.uleb128 0xb
 3853 04cf BF170000 		.4byte	.LASF168
 3854 04d3 9801     		.sleb128 152
 3855 04d5 0B       		.uleb128 0xb
 3856 04d6 A7010000 		.4byte	.LASF169
 3857 04da 9901     		.sleb128 153
 3858 04dc 0B       		.uleb128 0xb
 3859 04dd 411A0000 		.4byte	.LASF170
 3860 04e1 9A01     		.sleb128 154
 3861 04e3 0B       		.uleb128 0xb
 3862 04e4 931F0000 		.4byte	.LASF171
 3863 04e8 9B01     		.sleb128 155
 3864 04ea 0B       		.uleb128 0xb
 3865 04eb 0F2E0000 		.4byte	.LASF172
 3866 04ef 9C01     		.sleb128 156
 3867 04f1 0B       		.uleb128 0xb
 3868 04f2 8E000000 		.4byte	.LASF173
ARM GAS  C:\Users\AHMED~1.ELE\AppData\Local\Temp\cc594ylT.s 			page 90


 3869 04f6 9D01     		.sleb128 157
 3870 04f8 0B       		.uleb128 0xb
 3871 04f9 CE110000 		.4byte	.LASF174
 3872 04fd 9E01     		.sleb128 158
 3873 04ff 0B       		.uleb128 0xb
 3874 0500 B30B0000 		.4byte	.LASF175
 3875 0504 9F01     		.sleb128 159
 3876 0506 0B       		.uleb128 0xb
 3877 0507 9E0A0000 		.4byte	.LASF176
 3878 050b A001     		.sleb128 160
 3879 050d 0B       		.uleb128 0xb
 3880 050e 601B0000 		.4byte	.LASF177
 3881 0512 A101     		.sleb128 161
 3882 0514 0B       		.uleb128 0xb
 3883 0515 031F0000 		.4byte	.LASF178
 3884 0519 A201     		.sleb128 162
 3885 051b 0B       		.uleb128 0xb
 3886 051c F1040000 		.4byte	.LASF179
 3887 0520 A301     		.sleb128 163
 3888 0522 0B       		.uleb128 0xb
 3889 0523 55210000 		.4byte	.LASF180
 3890 0527 A401     		.sleb128 164
 3891 0529 0B       		.uleb128 0xb
 3892 052a E9080000 		.4byte	.LASF181
 3893 052e A501     		.sleb128 165
 3894 0530 0B       		.uleb128 0xb
 3895 0531 B3020000 		.4byte	.LASF182
 3896 0535 A601     		.sleb128 166
 3897 0537 0B       		.uleb128 0xb
 3898 0538 2C1C0000 		.4byte	.LASF183
 3899 053c A701     		.sleb128 167
 3900 053e 0B       		.uleb128 0xb
 3901 053f A31A0000 		.4byte	.LASF184
 3902 0543 A801     		.sleb128 168
 3903 0545 0B       		.uleb128 0xb
 3904 0546 CD050000 		.4byte	.LASF185
 3905 054a A901     		.sleb128 169
 3906 054c 0B       		.uleb128 0xb
 3907 054d E42B0000 		.4byte	.LASF186
 3908 0551 AA01     		.sleb128 170
 3909 0553 0B       		.uleb128 0xb
 3910 0554 B01E0000 		.4byte	.LASF187
 3911 0558 AB01     		.sleb128 171
 3912 055a 0B       		.uleb128 0xb
 3913 055b F8290000 		.4byte	.LASF188
 3914 055f AC01     		.sleb128 172
 3915 0561 0B       		.uleb128 0xb
 3916 0562 F1030000 		.4byte	.LASF189
 3917 0566 AD01     		.sleb128 173
 3918 0568 0B       		.uleb128 0xb
 3919 0569 04170000 		.4byte	.LASF190
 3920 056d AE01     		.sleb128 174
 3921 056f 0B       		.uleb128 0xb
 3922 0570 E6250000 		.4byte	.LASF191
 3923 0574 AF01     		.sleb128 175
 3924 0576 0B       		.uleb128 0xb
 3925 0577 1B0D0000 		.4byte	.LASF192
ARM GAS  C:\Users\AHMED~1.ELE\AppData\Local\Temp\cc594ylT.s 			page 91


 3926 057b B001     		.sleb128 176
 3927 057d 0B       		.uleb128 0xb
 3928 057e 64000000 		.4byte	.LASF193
 3929 0582 B101     		.sleb128 177
 3930 0584 0B       		.uleb128 0xb
 3931 0585 26170000 		.4byte	.LASF194
 3932 0589 B201     		.sleb128 178
 3933 058b 0B       		.uleb128 0xb
 3934 058c A52A0000 		.4byte	.LASF195
 3935 0590 B301     		.sleb128 179
 3936 0592 0B       		.uleb128 0xb
 3937 0593 A0060000 		.4byte	.LASF196
 3938 0597 B401     		.sleb128 180
 3939 0599 0B       		.uleb128 0xb
 3940 059a 1E130000 		.4byte	.LASF197
 3941 059e B501     		.sleb128 181
 3942 05a0 0B       		.uleb128 0xb
 3943 05a1 25070000 		.4byte	.LASF198
 3944 05a5 B601     		.sleb128 182
 3945 05a7 0B       		.uleb128 0xb
 3946 05a8 44210000 		.4byte	.LASF199
 3947 05ac B701     		.sleb128 183
 3948 05ae 0B       		.uleb128 0xb
 3949 05af 680B0000 		.4byte	.LASF200
 3950 05b3 B801     		.sleb128 184
 3951 05b5 0B       		.uleb128 0xb
 3952 05b6 110A0000 		.4byte	.LASF201
 3953 05ba B901     		.sleb128 185
 3954 05bc 0B       		.uleb128 0xb
 3955 05bd C5000000 		.4byte	.LASF202
 3956 05c1 BA01     		.sleb128 186
 3957 05c3 0B       		.uleb128 0xb
 3958 05c4 84250000 		.4byte	.LASF203
 3959 05c8 BB01     		.sleb128 187
 3960 05ca 0B       		.uleb128 0xb
 3961 05cb 65050000 		.4byte	.LASF204
 3962 05cf BC01     		.sleb128 188
 3963 05d1 0B       		.uleb128 0xb
 3964 05d2 B7120000 		.4byte	.LASF205
 3965 05d6 BD01     		.sleb128 189
 3966 05d8 0B       		.uleb128 0xb
 3967 05d9 1D050000 		.4byte	.LASF206
 3968 05dd BE01     		.sleb128 190
 3969 05df 0B       		.uleb128 0xb
 3970 05e0 E6260000 		.4byte	.LASF207
 3971 05e4 BF01     		.sleb128 191
 3972 05e6 0B       		.uleb128 0xb
 3973 05e7 540F0000 		.4byte	.LASF208
 3974 05eb C001     		.sleb128 192
 3975 05ed 0B       		.uleb128 0xb
 3976 05ee BE270000 		.4byte	.LASF209
 3977 05f2 C101     		.sleb128 193
 3978 05f4 0B       		.uleb128 0xb
 3979 05f5 19170000 		.4byte	.LASF210
 3980 05f9 C201     		.sleb128 194
 3981 05fb 0B       		.uleb128 0xb
 3982 05fc 921A0000 		.4byte	.LASF211
ARM GAS  C:\Users\AHMED~1.ELE\AppData\Local\Temp\cc594ylT.s 			page 92


 3983 0600 C301     		.sleb128 195
 3984 0602 0B       		.uleb128 0xb
 3985 0603 CC240000 		.4byte	.LASF212
 3986 0607 C401     		.sleb128 196
 3987 0609 0B       		.uleb128 0xb
 3988 060a 89190000 		.4byte	.LASF213
 3989 060e C501     		.sleb128 197
 3990 0610 0B       		.uleb128 0xb
 3991 0611 ED2A0000 		.4byte	.LASF214
 3992 0615 C601     		.sleb128 198
 3993 0617 0B       		.uleb128 0xb
 3994 0618 90020000 		.4byte	.LASF215
 3995 061c C701     		.sleb128 199
 3996 061e 0B       		.uleb128 0xb
 3997 061f 321D0000 		.4byte	.LASF216
 3998 0623 C801     		.sleb128 200
 3999 0625 0B       		.uleb128 0xb
 4000 0626 23250000 		.4byte	.LASF217
 4001 062a C901     		.sleb128 201
 4002 062c 0B       		.uleb128 0xb
 4003 062d 891E0000 		.4byte	.LASF218
 4004 0631 CA01     		.sleb128 202
 4005 0633 0B       		.uleb128 0xb
 4006 0634 B72B0000 		.4byte	.LASF219
 4007 0638 CB01     		.sleb128 203
 4008 063a 0B       		.uleb128 0xb
 4009 063b 830D0000 		.4byte	.LASF220
 4010 063f CC01     		.sleb128 204
 4011 0641 0B       		.uleb128 0xb
 4012 0642 00230000 		.4byte	.LASF221
 4013 0646 CD01     		.sleb128 205
 4014 0648 0B       		.uleb128 0xb
 4015 0649 64030000 		.4byte	.LASF222
 4016 064d CE01     		.sleb128 206
 4017 064f 0B       		.uleb128 0xb
 4018 0650 FE0E0000 		.4byte	.LASF223
 4019 0654 CF01     		.sleb128 207
 4020 0656 0B       		.uleb128 0xb
 4021 0657 F01C0000 		.4byte	.LASF224
 4022 065b D001     		.sleb128 208
 4023 065d 0B       		.uleb128 0xb
 4024 065e 51120000 		.4byte	.LASF225
 4025 0662 D101     		.sleb128 209
 4026 0664 0B       		.uleb128 0xb
 4027 0665 B80C0000 		.4byte	.LASF226
 4028 0669 D201     		.sleb128 210
 4029 066b 0B       		.uleb128 0xb
 4030 066c C12A0000 		.4byte	.LASF227
 4031 0670 D301     		.sleb128 211
 4032 0672 0B       		.uleb128 0xb
 4033 0673 AE240000 		.4byte	.LASF228
 4034 0677 D401     		.sleb128 212
 4035 0679 0B       		.uleb128 0xb
 4036 067a BD050000 		.4byte	.LASF229
 4037 067e D501     		.sleb128 213
 4038 0680 0B       		.uleb128 0xb
 4039 0681 87140000 		.4byte	.LASF230
ARM GAS  C:\Users\AHMED~1.ELE\AppData\Local\Temp\cc594ylT.s 			page 93


 4040 0685 D601     		.sleb128 214
 4041 0687 0B       		.uleb128 0xb
 4042 0688 35110000 		.4byte	.LASF231
 4043 068c D701     		.sleb128 215
 4044 068e 0B       		.uleb128 0xb
 4045 068f 0E0F0000 		.4byte	.LASF232
 4046 0693 D801     		.sleb128 216
 4047 0695 0B       		.uleb128 0xb
 4048 0696 512B0000 		.4byte	.LASF233
 4049 069a D901     		.sleb128 217
 4050 069c 0B       		.uleb128 0xb
 4051 069d 45140000 		.4byte	.LASF234
 4052 06a1 DA01     		.sleb128 218
 4053 06a3 0B       		.uleb128 0xb
 4054 06a4 A7040000 		.4byte	.LASF235
 4055 06a8 DB01     		.sleb128 219
 4056 06aa 0B       		.uleb128 0xb
 4057 06ab 5B070000 		.4byte	.LASF236
 4058 06af DC01     		.sleb128 220
 4059 06b1 0B       		.uleb128 0xb
 4060 06b2 282A0000 		.4byte	.LASF237
 4061 06b6 DD01     		.sleb128 221
 4062 06b8 0B       		.uleb128 0xb
 4063 06b9 69130000 		.4byte	.LASF238
 4064 06bd DE01     		.sleb128 222
 4065 06bf 0B       		.uleb128 0xb
 4066 06c0 01110000 		.4byte	.LASF239
 4067 06c4 DF01     		.sleb128 223
 4068 06c6 0B       		.uleb128 0xb
 4069 06c7 7D120000 		.4byte	.LASF240
 4070 06cb E001     		.sleb128 224
 4071 06cd 0B       		.uleb128 0xb
 4072 06ce 10110000 		.4byte	.LASF241
 4073 06d2 E101     		.sleb128 225
 4074 06d4 0B       		.uleb128 0xb
 4075 06d5 EB150000 		.4byte	.LASF242
 4076 06d9 E201     		.sleb128 226
 4077 06db 0B       		.uleb128 0xb
 4078 06dc EC180000 		.4byte	.LASF243
 4079 06e0 E301     		.sleb128 227
 4080 06e2 0B       		.uleb128 0xb
 4081 06e3 AD110000 		.4byte	.LASF244
 4082 06e7 E401     		.sleb128 228
 4083 06e9 0B       		.uleb128 0xb
 4084 06ea 710F0000 		.4byte	.LASF245
 4085 06ee E501     		.sleb128 229
 4086 06f0 0B       		.uleb128 0xb
 4087 06f1 CC190000 		.4byte	.LASF246
 4088 06f5 E601     		.sleb128 230
 4089 06f7 0B       		.uleb128 0xb
 4090 06f8 BC130000 		.4byte	.LASF247
 4091 06fc E701     		.sleb128 231
 4092 06fe 0B       		.uleb128 0xb
 4093 06ff 2A0A0000 		.4byte	.LASF248
 4094 0703 E801     		.sleb128 232
 4095 0705 0B       		.uleb128 0xb
 4096 0706 152D0000 		.4byte	.LASF249
ARM GAS  C:\Users\AHMED~1.ELE\AppData\Local\Temp\cc594ylT.s 			page 94


 4097 070a E901     		.sleb128 233
 4098 070c 0B       		.uleb128 0xb
 4099 070d 98270000 		.4byte	.LASF250
 4100 0711 EA01     		.sleb128 234
 4101 0713 0B       		.uleb128 0xb
 4102 0714 BE1C0000 		.4byte	.LASF251
 4103 0718 EB01     		.sleb128 235
 4104 071a 0B       		.uleb128 0xb
 4105 071b 16280000 		.4byte	.LASF252
 4106 071f EC01     		.sleb128 236
 4107 0721 0B       		.uleb128 0xb
 4108 0722 57250000 		.4byte	.LASF253
 4109 0726 ED01     		.sleb128 237
 4110 0728 0B       		.uleb128 0xb
 4111 0729 93060000 		.4byte	.LASF254
 4112 072d EE01     		.sleb128 238
 4113 072f 0B       		.uleb128 0xb
 4114 0730 B6180000 		.4byte	.LASF255
 4115 0734 EF01     		.sleb128 239
 4116 0736 0B       		.uleb128 0xb
 4117 0737 8B2B0000 		.4byte	.LASF256
 4118 073b F001     		.sleb128 240
 4119 073d 0B       		.uleb128 0xb
 4120 073e 521C0000 		.4byte	.LASF257
 4121 0742 F101     		.sleb128 241
 4122 0744 0B       		.uleb128 0xb
 4123 0745 501D0000 		.4byte	.LASF258
 4124 0749 F201     		.sleb128 242
 4125 074b 0B       		.uleb128 0xb
 4126 074c C9180000 		.4byte	.LASF259
 4127 0750 F301     		.sleb128 243
 4128 0752 0B       		.uleb128 0xb
 4129 0753 A3080000 		.4byte	.LASF260
 4130 0757 F401     		.sleb128 244
 4131 0759 0B       		.uleb128 0xb
 4132 075a 77220000 		.4byte	.LASF261
 4133 075e F501     		.sleb128 245
 4134 0760 0B       		.uleb128 0xb
 4135 0761 D1220000 		.4byte	.LASF262
 4136 0765 F601     		.sleb128 246
 4137 0767 0B       		.uleb128 0xb
 4138 0768 95200000 		.4byte	.LASF263
 4139 076c F701     		.sleb128 247
 4140 076e 0B       		.uleb128 0xb
 4141 076f 631C0000 		.4byte	.LASF264
 4142 0773 F801     		.sleb128 248
 4143 0775 0B       		.uleb128 0xb
 4144 0776 56130000 		.4byte	.LASF265
 4145 077a F901     		.sleb128 249
 4146 077c 0B       		.uleb128 0xb
 4147 077d C01E0000 		.4byte	.LASF266
 4148 0781 FA01     		.sleb128 250
 4149 0783 0B       		.uleb128 0xb
 4150 0784 83150000 		.4byte	.LASF267
 4151 0788 FB01     		.sleb128 251
 4152 078a 0B       		.uleb128 0xb
 4153 078b CB2D0000 		.4byte	.LASF268
ARM GAS  C:\Users\AHMED~1.ELE\AppData\Local\Temp\cc594ylT.s 			page 95


 4154 078f FC01     		.sleb128 252
 4155 0791 0B       		.uleb128 0xb
 4156 0792 A00F0000 		.4byte	.LASF269
 4157 0796 FD01     		.sleb128 253
 4158 0798 0B       		.uleb128 0xb
 4159 0799 C62B0000 		.4byte	.LASF270
 4160 079d FE01     		.sleb128 254
 4161 079f 0B       		.uleb128 0xb
 4162 07a0 5E120000 		.4byte	.LASF271
 4163 07a4 FF01     		.sleb128 255
 4164 07a6 0B       		.uleb128 0xb
 4165 07a7 3A2B0000 		.4byte	.LASF272
 4166 07ab 8002     		.sleb128 256
 4167 07ad 0B       		.uleb128 0xb
 4168 07ae 92150000 		.4byte	.LASF273
 4169 07b2 8102     		.sleb128 257
 4170 07b4 0B       		.uleb128 0xb
 4171 07b5 FD1F0000 		.4byte	.LASF274
 4172 07b9 8202     		.sleb128 258
 4173 07bb 0B       		.uleb128 0xb
 4174 07bc FF230000 		.4byte	.LASF275
 4175 07c0 8302     		.sleb128 259
 4176 07c2 0B       		.uleb128 0xb
 4177 07c3 C50D0000 		.4byte	.LASF276
 4178 07c7 8402     		.sleb128 260
 4179 07c9 0B       		.uleb128 0xb
 4180 07ca 6C120000 		.4byte	.LASF277
 4181 07ce 8502     		.sleb128 261
 4182 07d0 0B       		.uleb128 0xb
 4183 07d1 53030000 		.4byte	.LASF278
 4184 07d5 8602     		.sleb128 262
 4185 07d7 0B       		.uleb128 0xb
 4186 07d8 E4160000 		.4byte	.LASF279
 4187 07dc 8702     		.sleb128 263
 4188 07de 0B       		.uleb128 0xb
 4189 07df E7060000 		.4byte	.LASF280
 4190 07e3 8802     		.sleb128 264
 4191 07e5 0B       		.uleb128 0xb
 4192 07e6 B5100000 		.4byte	.LASF281
 4193 07ea 8902     		.sleb128 265
 4194 07ec 0B       		.uleb128 0xb
 4195 07ed 5E270000 		.4byte	.LASF282
 4196 07f1 8A02     		.sleb128 266
 4197 07f3 0B       		.uleb128 0xb
 4198 07f4 610F0000 		.4byte	.LASF283
 4199 07f8 8B02     		.sleb128 267
 4200 07fa 0B       		.uleb128 0xb
 4201 07fb FA0C0000 		.4byte	.LASF284
 4202 07ff 8C02     		.sleb128 268
 4203 0801 0B       		.uleb128 0xb
 4204 0802 72230000 		.4byte	.LASF285
 4205 0806 8D02     		.sleb128 269
 4206 0808 0B       		.uleb128 0xb
 4207 0809 5C0D0000 		.4byte	.LASF286
 4208 080d 8E02     		.sleb128 270
 4209 080f 0B       		.uleb128 0xb
 4210 0810 71070000 		.4byte	.LASF287
ARM GAS  C:\Users\AHMED~1.ELE\AppData\Local\Temp\cc594ylT.s 			page 96


 4211 0814 8F02     		.sleb128 271
 4212 0816 0B       		.uleb128 0xb
 4213 0817 83080000 		.4byte	.LASF288
 4214 081b 9002     		.sleb128 272
 4215 081d 0B       		.uleb128 0xb
 4216 081e 7B020000 		.4byte	.LASF289
 4217 0822 9102     		.sleb128 273
 4218 0824 0B       		.uleb128 0xb
 4219 0825 B92D0000 		.4byte	.LASF290
 4220 0829 9202     		.sleb128 274
 4221 082b 0B       		.uleb128 0xb
 4222 082c 86270000 		.4byte	.LASF291
 4223 0830 9302     		.sleb128 275
 4224 0832 0B       		.uleb128 0xb
 4225 0833 622D0000 		.4byte	.LASF292
 4226 0837 9402     		.sleb128 276
 4227 0839 0B       		.uleb128 0xb
 4228 083a F6120000 		.4byte	.LASF293
 4229 083e 9502     		.sleb128 277
 4230 0840 0B       		.uleb128 0xb
 4231 0841 17030000 		.4byte	.LASF294
 4232 0845 9602     		.sleb128 278
 4233 0847 0B       		.uleb128 0xb
 4234 0848 DC180000 		.4byte	.LASF295
 4235 084c 9702     		.sleb128 279
 4236 084e 0B       		.uleb128 0xb
 4237 084f AB030000 		.4byte	.LASF296
 4238 0853 9802     		.sleb128 280
 4239 0855 0B       		.uleb128 0xb
 4240 0856 78180000 		.4byte	.LASF297
 4241 085a 9902     		.sleb128 281
 4242 085c 0B       		.uleb128 0xb
 4243 085d A61B0000 		.4byte	.LASF298
 4244 0861 9A02     		.sleb128 282
 4245 0863 0B       		.uleb128 0xb
 4246 0864 0E020000 		.4byte	.LASF299
 4247 0868 9B02     		.sleb128 283
 4248 086a 0B       		.uleb128 0xb
 4249 086b 07080000 		.4byte	.LASF300
 4250 086f 9C02     		.sleb128 284
 4251 0871 0B       		.uleb128 0xb
 4252 0872 CE160000 		.4byte	.LASF301
 4253 0876 9D02     		.sleb128 285
 4254 0878 0B       		.uleb128 0xb
 4255 0879 89180000 		.4byte	.LASF302
 4256 087d 9E02     		.sleb128 286
 4257 087f 0B       		.uleb128 0xb
 4258 0880 E1000000 		.4byte	.LASF303
 4259 0884 9F02     		.sleb128 287
 4260 0886 0B       		.uleb128 0xb
 4261 0887 97240000 		.4byte	.LASF304
 4262 088b A002     		.sleb128 288
 4263 088d 0B       		.uleb128 0xb
 4264 088e 89030000 		.4byte	.LASF305
 4265 0892 A102     		.sleb128 289
 4266 0894 0B       		.uleb128 0xb
 4267 0895 CE1C0000 		.4byte	.LASF306
ARM GAS  C:\Users\AHMED~1.ELE\AppData\Local\Temp\cc594ylT.s 			page 97


 4268 0899 A202     		.sleb128 290
 4269 089b 0B       		.uleb128 0xb
 4270 089c CB260000 		.4byte	.LASF307
 4271 08a0 A302     		.sleb128 291
 4272 08a2 0B       		.uleb128 0xb
 4273 08a3 15210000 		.4byte	.LASF308
 4274 08a7 A402     		.sleb128 292
 4275 08a9 0B       		.uleb128 0xb
 4276 08aa 87110000 		.4byte	.LASF309
 4277 08ae A502     		.sleb128 293
 4278 08b0 0B       		.uleb128 0xb
 4279 08b1 1F290000 		.4byte	.LASF310
 4280 08b5 A602     		.sleb128 294
 4281 08b7 0B       		.uleb128 0xb
 4282 08b8 0C220000 		.4byte	.LASF311
 4283 08bc A702     		.sleb128 295
 4284 08be 0B       		.uleb128 0xb
 4285 08bf BA1F0000 		.4byte	.LASF312
 4286 08c3 A802     		.sleb128 296
 4287 08c5 0B       		.uleb128 0xb
 4288 08c6 76190000 		.4byte	.LASF313
 4289 08ca A902     		.sleb128 297
 4290 08cc 0B       		.uleb128 0xb
 4291 08cd 7B010000 		.4byte	.LASF314
 4292 08d1 AA02     		.sleb128 298
 4293 08d3 0B       		.uleb128 0xb
 4294 08d4 2B190000 		.4byte	.LASF315
 4295 08d8 AB02     		.sleb128 299
 4296 08da 0B       		.uleb128 0xb
 4297 08db 651D0000 		.4byte	.LASF316
 4298 08df AC02     		.sleb128 300
 4299 08e1 0B       		.uleb128 0xb
 4300 08e2 A0100000 		.4byte	.LASF317
 4301 08e6 AD02     		.sleb128 301
 4302 08e8 0B       		.uleb128 0xb
 4303 08e9 F0090000 		.4byte	.LASF318
 4304 08ed AE02     		.sleb128 302
 4305 08ef 0B       		.uleb128 0xb
 4306 08f0 D6080000 		.4byte	.LASF319
 4307 08f4 AF02     		.sleb128 303
 4308 08f6 0B       		.uleb128 0xb
 4309 08f7 49160000 		.4byte	.LASF320
 4310 08fb B002     		.sleb128 304
 4311 08fd 0B       		.uleb128 0xb
 4312 08fe 462E0000 		.4byte	.LASF321
 4313 0902 B102     		.sleb128 305
 4314 0904 0B       		.uleb128 0xb
 4315 0905 602B0000 		.4byte	.LASF322
 4316 0909 B202     		.sleb128 306
 4317 090b 0B       		.uleb128 0xb
 4318 090c FE110000 		.4byte	.LASF323
 4319 0910 B302     		.sleb128 307
 4320 0912 0B       		.uleb128 0xb
 4321 0913 3A1B0000 		.4byte	.LASF324
 4322 0917 B402     		.sleb128 308
 4323 0919 0B       		.uleb128 0xb
 4324 091a 641E0000 		.4byte	.LASF325
ARM GAS  C:\Users\AHMED~1.ELE\AppData\Local\Temp\cc594ylT.s 			page 98


 4325 091e B502     		.sleb128 309
 4326 0920 0B       		.uleb128 0xb
 4327 0921 61090000 		.4byte	.LASF326
 4328 0925 B602     		.sleb128 310
 4329 0927 0B       		.uleb128 0xb
 4330 0928 00000000 		.4byte	.LASF327
 4331 092c B702     		.sleb128 311
 4332 092e 0B       		.uleb128 0xb
 4333 092f 940C0000 		.4byte	.LASF328
 4334 0933 B802     		.sleb128 312
 4335 0935 0B       		.uleb128 0xb
 4336 0936 18270000 		.4byte	.LASF329
 4337 093a B902     		.sleb128 313
 4338 093c 0B       		.uleb128 0xb
 4339 093d 131E0000 		.4byte	.LASF330
 4340 0941 BA02     		.sleb128 314
 4341 0943 0B       		.uleb128 0xb
 4342 0944 0D200000 		.4byte	.LASF331
 4343 0948 BB02     		.sleb128 315
 4344 094a 0B       		.uleb128 0xb
 4345 094b 13010000 		.4byte	.LASF332
 4346 094f BC02     		.sleb128 316
 4347 0951 0B       		.uleb128 0xb
 4348 0952 792E0000 		.4byte	.LASF333
 4349 0956 BD02     		.sleb128 317
 4350 0958 0B       		.uleb128 0xb
 4351 0959 A22E0000 		.4byte	.LASF334
 4352 095d BE02     		.sleb128 318
 4353 095f 0B       		.uleb128 0xb
 4354 0960 DE200000 		.4byte	.LASF335
 4355 0964 BF02     		.sleb128 319
 4356 0966 0B       		.uleb128 0xb
 4357 0967 10120000 		.4byte	.LASF336
 4358 096b C002     		.sleb128 320
 4359 096d 0B       		.uleb128 0xb
 4360 096e A32C0000 		.4byte	.LASF337
 4361 0972 C102     		.sleb128 321
 4362 0974 0B       		.uleb128 0xb
 4363 0975 91040000 		.4byte	.LASF338
 4364 0979 C202     		.sleb128 322
 4365 097b 0B       		.uleb128 0xb
 4366 097c 2E010000 		.4byte	.LASF339
 4367 0980 C302     		.sleb128 323
 4368 0982 0B       		.uleb128 0xb
 4369 0983 A6130000 		.4byte	.LASF340
 4370 0987 C402     		.sleb128 324
 4371 0989 0B       		.uleb128 0xb
 4372 098a BA210000 		.4byte	.LASF341
 4373 098e C502     		.sleb128 325
 4374 0990 0B       		.uleb128 0xb
 4375 0991 F8060000 		.4byte	.LASF342
 4376 0995 C602     		.sleb128 326
 4377 0997 0B       		.uleb128 0xb
 4378 0998 D80E0000 		.4byte	.LASF343
 4379 099c C702     		.sleb128 327
 4380 099e 0B       		.uleb128 0xb
 4381 099f 44080000 		.4byte	.LASF344
ARM GAS  C:\Users\AHMED~1.ELE\AppData\Local\Temp\cc594ylT.s 			page 99


 4382 09a3 C802     		.sleb128 328
 4383 09a5 0B       		.uleb128 0xb
 4384 09a6 22260000 		.4byte	.LASF345
 4385 09aa C902     		.sleb128 329
 4386 09ac 0B       		.uleb128 0xb
 4387 09ad F9240000 		.4byte	.LASF346
 4388 09b1 CA02     		.sleb128 330
 4389 09b3 0B       		.uleb128 0xb
 4390 09b4 45270000 		.4byte	.LASF347
 4391 09b8 CB02     		.sleb128 331
 4392 09ba 0B       		.uleb128 0xb
 4393 09bb C0040000 		.4byte	.LASF348
 4394 09bf CC02     		.sleb128 332
 4395 09c1 0B       		.uleb128 0xb
 4396 09c2 51190000 		.4byte	.LASF349
 4397 09c6 CD02     		.sleb128 333
 4398 09c8 0B       		.uleb128 0xb
 4399 09c9 0B1C0000 		.4byte	.LASF350
 4400 09cd CE02     		.sleb128 334
 4401 09cf 0B       		.uleb128 0xb
 4402 09d0 CF2C0000 		.4byte	.LASF351
 4403 09d4 CF02     		.sleb128 335
 4404 09d6 0B       		.uleb128 0xb
 4405 09d7 6B1A0000 		.4byte	.LASF352
 4406 09db D002     		.sleb128 336
 4407 09dd 0B       		.uleb128 0xb
 4408 09de 290C0000 		.4byte	.LASF353
 4409 09e2 D102     		.sleb128 337
 4410 09e4 0B       		.uleb128 0xb
 4411 09e5 34100000 		.4byte	.LASF354
 4412 09e9 D202     		.sleb128 338
 4413 09eb 0B       		.uleb128 0xb
 4414 09ec BF160000 		.4byte	.LASF355
 4415 09f0 D302     		.sleb128 339
 4416 09f2 0B       		.uleb128 0xb
 4417 09f3 9B070000 		.4byte	.LASF356
 4418 09f7 D402     		.sleb128 340
 4419 09f9 0B       		.uleb128 0xb
 4420 09fa 911D0000 		.4byte	.LASF357
 4421 09fe D502     		.sleb128 341
 4422 0a00 0B       		.uleb128 0xb
 4423 0a01 4F2C0000 		.4byte	.LASF358
 4424 0a05 D602     		.sleb128 342
 4425 0a07 0B       		.uleb128 0xb
 4426 0a08 99190000 		.4byte	.LASF359
 4427 0a0c D702     		.sleb128 343
 4428 0a0e 0B       		.uleb128 0xb
 4429 0a0f 3A180000 		.4byte	.LASF360
 4430 0a13 D802     		.sleb128 344
 4431 0a15 0B       		.uleb128 0xb
 4432 0a16 4B200000 		.4byte	.LASF361
 4433 0a1a D902     		.sleb128 345
 4434 0a1c 0B       		.uleb128 0xb
 4435 0a1d A4220000 		.4byte	.LASF362
 4436 0a21 DA02     		.sleb128 346
 4437 0a23 0B       		.uleb128 0xb
 4438 0a24 9D1E0000 		.4byte	.LASF363
ARM GAS  C:\Users\AHMED~1.ELE\AppData\Local\Temp\cc594ylT.s 			page 100


 4439 0a28 DB02     		.sleb128 347
 4440 0a2a 0B       		.uleb128 0xb
 4441 0a2b 7A160000 		.4byte	.LASF364
 4442 0a2f DC02     		.sleb128 348
 4443 0a31 0B       		.uleb128 0xb
 4444 0a32 431F0000 		.4byte	.LASF365
 4445 0a36 DD02     		.sleb128 349
 4446 0a38 0B       		.uleb128 0xb
 4447 0a39 421C0000 		.4byte	.LASF366
 4448 0a3d DE02     		.sleb128 350
 4449 0a3f 0B       		.uleb128 0xb
 4450 0a40 55260000 		.4byte	.LASF367
 4451 0a44 DF02     		.sleb128 351
 4452 0a46 0B       		.uleb128 0xb
 4453 0a47 21020000 		.4byte	.LASF368
 4454 0a4b E002     		.sleb128 352
 4455 0a4d 0B       		.uleb128 0xb
 4456 0a4e 23230000 		.4byte	.LASF369
 4457 0a52 E102     		.sleb128 353
 4458 0a54 0B       		.uleb128 0xb
 4459 0a55 A9260000 		.4byte	.LASF370
 4460 0a59 E202     		.sleb128 354
 4461 0a5b 0B       		.uleb128 0xb
 4462 0a5c CF130000 		.4byte	.LASF371
 4463 0a60 E302     		.sleb128 355
 4464 0a62 0B       		.uleb128 0xb
 4465 0a63 36130000 		.4byte	.LASF372
 4466 0a67 E402     		.sleb128 356
 4467 0a69 0B       		.uleb128 0xb
 4468 0a6a 6F0D0000 		.4byte	.LASF373
 4469 0a6e E502     		.sleb128 357
 4470 0a70 0B       		.uleb128 0xb
 4471 0a71 44110000 		.4byte	.LASF374
 4472 0a75 E602     		.sleb128 358
 4473 0a77 0B       		.uleb128 0xb
 4474 0a78 682E0000 		.4byte	.LASF375
 4475 0a7c E702     		.sleb128 359
 4476 0a7e 0B       		.uleb128 0xb
 4477 0a7f 53280000 		.4byte	.LASF376
 4478 0a83 E802     		.sleb128 360
 4479 0a85 0B       		.uleb128 0xb
 4480 0a86 1A180000 		.4byte	.LASF377
 4481 0a8a E902     		.sleb128 361
 4482 0a8c 0B       		.uleb128 0xb
 4483 0a8d 00260000 		.4byte	.LASF378
 4484 0a91 EA02     		.sleb128 362
 4485 0a93 0B       		.uleb128 0xb
 4486 0a94 670E0000 		.4byte	.LASF379
 4487 0a98 EB02     		.sleb128 363
 4488 0a9a 0B       		.uleb128 0xb
 4489 0a9b 770E0000 		.4byte	.LASF380
 4490 0a9f EC02     		.sleb128 364
 4491 0aa1 0B       		.uleb128 0xb
 4492 0aa2 712A0000 		.4byte	.LASF381
 4493 0aa6 ED02     		.sleb128 365
 4494 0aa8 0B       		.uleb128 0xb
 4495 0aa9 422A0000 		.4byte	.LASF382
ARM GAS  C:\Users\AHMED~1.ELE\AppData\Local\Temp\cc594ylT.s 			page 101


 4496 0aad EE02     		.sleb128 366
 4497 0aaf 0B       		.uleb128 0xb
 4498 0ab0 A0050000 		.4byte	.LASF383
 4499 0ab4 EF02     		.sleb128 367
 4500 0ab6 0B       		.uleb128 0xb
 4501 0ab7 AA0C0000 		.4byte	.LASF384
 4502 0abb F002     		.sleb128 368
 4503 0abd 0B       		.uleb128 0xb
 4504 0abe 40240000 		.4byte	.LASF385
 4505 0ac2 F102     		.sleb128 369
 4506 0ac4 0B       		.uleb128 0xb
 4507 0ac5 82230000 		.4byte	.LASF386
 4508 0ac9 F202     		.sleb128 370
 4509 0acb 0B       		.uleb128 0xb
 4510 0acc C40E0000 		.4byte	.LASF387
 4511 0ad0 F302     		.sleb128 371
 4512 0ad2 0B       		.uleb128 0xb
 4513 0ad3 9A1C0000 		.4byte	.LASF388
 4514 0ad7 F402     		.sleb128 372
 4515 0ad9 0B       		.uleb128 0xb
 4516 0ada E40D0000 		.4byte	.LASF389
 4517 0ade F502     		.sleb128 373
 4518 0ae0 0B       		.uleb128 0xb
 4519 0ae1 EA290000 		.4byte	.LASF390
 4520 0ae5 F602     		.sleb128 374
 4521 0ae7 0B       		.uleb128 0xb
 4522 0ae8 88070000 		.4byte	.LASF391
 4523 0aec F702     		.sleb128 375
 4524 0aee 0B       		.uleb128 0xb
 4525 0aef FD2C0000 		.4byte	.LASF392
 4526 0af3 F802     		.sleb128 376
 4527 0af5 0B       		.uleb128 0xb
 4528 0af6 7A130000 		.4byte	.LASF393
 4529 0afa F902     		.sleb128 377
 4530 0afc 0B       		.uleb128 0xb
 4531 0afd A2180000 		.4byte	.LASF394
 4532 0b01 FA02     		.sleb128 378
 4533 0b03 0B       		.uleb128 0xb
 4534 0b04 6A240000 		.4byte	.LASF395
 4535 0b08 FB02     		.sleb128 379
 4536 0b0a 0B       		.uleb128 0xb
 4537 0b0b BA200000 		.4byte	.LASF396
 4538 0b0f FC02     		.sleb128 380
 4539 0b11 0B       		.uleb128 0xb
 4540 0b12 94210000 		.4byte	.LASF397
 4541 0b16 FD02     		.sleb128 381
 4542 0b18 0B       		.uleb128 0xb
 4543 0b19 2C240000 		.4byte	.LASF398
 4544 0b1d FE02     		.sleb128 382
 4545 0b1f 0B       		.uleb128 0xb
 4546 0b20 40050000 		.4byte	.LASF399
 4547 0b24 FF02     		.sleb128 383
 4548 0b26 0B       		.uleb128 0xb
 4549 0b27 1F110000 		.4byte	.LASF400
 4550 0b2b 8003     		.sleb128 384
 4551 0b2d 0B       		.uleb128 0xb
 4552 0b2e F90F0000 		.4byte	.LASF401
ARM GAS  C:\Users\AHMED~1.ELE\AppData\Local\Temp\cc594ylT.s 			page 102


 4553 0b32 8103     		.sleb128 385
 4554 0b34 0B       		.uleb128 0xb
 4555 0b35 44290000 		.4byte	.LASF402
 4556 0b39 8203     		.sleb128 386
 4557 0b3b 0B       		.uleb128 0xb
 4558 0b3c 6E140000 		.4byte	.LASF403
 4559 0b40 8303     		.sleb128 387
 4560 0b42 0B       		.uleb128 0xb
 4561 0b43 0C090000 		.4byte	.LASF404
 4562 0b47 8403     		.sleb128 388
 4563 0b49 0B       		.uleb128 0xb
 4564 0b4a A6170000 		.4byte	.LASF405
 4565 0b4e 8503     		.sleb128 389
 4566 0b50 0B       		.uleb128 0xb
 4567 0b51 52060000 		.4byte	.LASF406
 4568 0b55 8603     		.sleb128 390
 4569 0b57 0B       		.uleb128 0xb
 4570 0b58 4B0A0000 		.4byte	.LASF407
 4571 0b5c 8703     		.sleb128 391
 4572 0b5e 0B       		.uleb128 0xb
 4573 0b5f 271E0000 		.4byte	.LASF408
 4574 0b63 8803     		.sleb128 392
 4575 0b65 0B       		.uleb128 0xb
 4576 0b66 C40B0000 		.4byte	.LASF409
 4577 0b6a 8903     		.sleb128 393
 4578 0b6c 0B       		.uleb128 0xb
 4579 0b6d 922D0000 		.4byte	.LASF410
 4580 0b71 8A03     		.sleb128 394
 4581 0b73 0B       		.uleb128 0xb
 4582 0b74 67210000 		.4byte	.LASF411
 4583 0b78 8B03     		.sleb128 395
 4584 0b7a 0B       		.uleb128 0xb
 4585 0b7b A4250000 		.4byte	.LASF412
 4586 0b7f 8C03     		.sleb128 396
 4587 0b81 0B       		.uleb128 0xb
 4588 0b82 72280000 		.4byte	.LASF413
 4589 0b86 8D03     		.sleb128 397
 4590 0b88 0B       		.uleb128 0xb
 4591 0b89 A7000000 		.4byte	.LASF414
 4592 0b8d 8E03     		.sleb128 398
 4593 0b8f 0B       		.uleb128 0xb
 4594 0b90 7D1C0000 		.4byte	.LASF415
 4595 0b94 8F03     		.sleb128 399
 4596 0b96 0B       		.uleb128 0xb
 4597 0b97 86100000 		.4byte	.LASF416
 4598 0b9b 9003     		.sleb128 400
 4599 0b9d 0B       		.uleb128 0xb
 4600 0b9e CC270000 		.4byte	.LASF417
 4601 0ba2 9103     		.sleb128 401
 4602 0ba4 0B       		.uleb128 0xb
 4603 0ba5 840F0000 		.4byte	.LASF418
 4604 0ba9 9203     		.sleb128 402
 4605 0bab 0B       		.uleb128 0xb
 4606 0bac B91B0000 		.4byte	.LASF419
 4607 0bb0 9303     		.sleb128 403
 4608 0bb2 0B       		.uleb128 0xb
 4609 0bb3 801F0000 		.4byte	.LASF420
ARM GAS  C:\Users\AHMED~1.ELE\AppData\Local\Temp\cc594ylT.s 			page 103


 4610 0bb7 9403     		.sleb128 404
 4611 0bb9 0B       		.uleb128 0xb
 4612 0bba AE050000 		.4byte	.LASF421
 4613 0bbe 9503     		.sleb128 405
 4614 0bc0 0B       		.uleb128 0xb
 4615 0bc1 13230000 		.4byte	.LASF422
 4616 0bc5 9603     		.sleb128 406
 4617 0bc7 0B       		.uleb128 0xb
 4618 0bc8 2E050000 		.4byte	.LASF423
 4619 0bcc 9703     		.sleb128 407
 4620 0bce 0B       		.uleb128 0xb
 4621 0bcf 22140000 		.4byte	.LASF424
 4622 0bd3 9803     		.sleb128 408
 4623 0bd5 0B       		.uleb128 0xb
 4624 0bd6 FF1C0000 		.4byte	.LASF425
 4625 0bda 9903     		.sleb128 409
 4626 0bdc 0B       		.uleb128 0xb
 4627 0bdd 8F2A0000 		.4byte	.LASF426
 4628 0be1 9A03     		.sleb128 410
 4629 0be3 0B       		.uleb128 0xb
 4630 0be4 39000000 		.4byte	.LASF427
 4631 0be8 9B03     		.sleb128 411
 4632 0bea 0B       		.uleb128 0xb
 4633 0beb AB150000 		.4byte	.LASF428
 4634 0bef 9C03     		.sleb128 412
 4635 0bf1 0B       		.uleb128 0xb
 4636 0bf2 DD100000 		.4byte	.LASF429
 4637 0bf6 9D03     		.sleb128 413
 4638 0bf8 0B       		.uleb128 0xb
 4639 0bf9 441D0000 		.4byte	.LASF430
 4640 0bfd 9E03     		.sleb128 414
 4641 0bff 0B       		.uleb128 0xb
 4642 0c00 77270000 		.4byte	.LASF431
 4643 0c04 9F03     		.sleb128 415
 4644 0c06 0B       		.uleb128 0xb
 4645 0c07 0B0D0000 		.4byte	.LASF432
 4646 0c0b A003     		.sleb128 416
 4647 0c0d 0B       		.uleb128 0xb
 4648 0c0e BF110000 		.4byte	.LASF433
 4649 0c12 A103     		.sleb128 417
 4650 0c14 0B       		.uleb128 0xb
 4651 0c15 E4090000 		.4byte	.LASF434
 4652 0c19 A203     		.sleb128 418
 4653 0c1b 0B       		.uleb128 0xb
 4654 0c1c EA270000 		.4byte	.LASF435
 4655 0c20 A303     		.sleb128 419
 4656 0c22 0B       		.uleb128 0xb
 4657 0c23 CA020000 		.4byte	.LASF436
 4658 0c27 A403     		.sleb128 420
 4659 0c29 0B       		.uleb128 0xb
 4660 0c2a 521B0000 		.4byte	.LASF437
 4661 0c2e A503     		.sleb128 421
 4662 0c30 0B       		.uleb128 0xb
 4663 0c31 112B0000 		.4byte	.LASF438
 4664 0c35 A603     		.sleb128 422
 4665 0c37 0B       		.uleb128 0xb
 4666 0c38 46040000 		.4byte	.LASF439
ARM GAS  C:\Users\AHMED~1.ELE\AppData\Local\Temp\cc594ylT.s 			page 104


 4667 0c3c A703     		.sleb128 423
 4668 0c3e 0B       		.uleb128 0xb
 4669 0c3f 60170000 		.4byte	.LASF440
 4670 0c43 A803     		.sleb128 424
 4671 0c45 0B       		.uleb128 0xb
 4672 0c46 45020000 		.4byte	.LASF441
 4673 0c4a A903     		.sleb128 425
 4674 0c4c 0B       		.uleb128 0xb
 4675 0c4d C4060000 		.4byte	.LASF442
 4676 0c51 AA03     		.sleb128 426
 4677 0c53 0B       		.uleb128 0xb
 4678 0c54 E72D0000 		.4byte	.LASF443
 4679 0c58 AB03     		.sleb128 427
 4680 0c5a 0B       		.uleb128 0xb
 4681 0c5b 671F0000 		.4byte	.LASF444
 4682 0c5f AC03     		.sleb128 428
 4683 0c61 0B       		.uleb128 0xb
 4684 0c62 1C100000 		.4byte	.LASF445
 4685 0c66 AD03     		.sleb128 429
 4686 0c68 0B       		.uleb128 0xb
 4687 0c69 191B0000 		.4byte	.LASF446
 4688 0c6d AE03     		.sleb128 430
 4689 0c6f 0B       		.uleb128 0xb
 4690 0c70 292D0000 		.4byte	.LASF447
 4691 0c74 AF03     		.sleb128 431
 4692 0c76 0B       		.uleb128 0xb
 4693 0c77 E10C0000 		.4byte	.LASF448
 4694 0c7b B003     		.sleb128 432
 4695 0c7d 0B       		.uleb128 0xb
 4696 0c7e 35070000 		.4byte	.LASF449
 4697 0c82 B103     		.sleb128 433
 4698 0c84 0B       		.uleb128 0xb
 4699 0c85 EF0B0000 		.4byte	.LASF450
 4700 0c89 B203     		.sleb128 434
 4701 0c8b 0B       		.uleb128 0xb
 4702 0c8c 73110000 		.4byte	.LASF451
 4703 0c90 B303     		.sleb128 435
 4704 0c92 0B       		.uleb128 0xb
 4705 0c93 DA1A0000 		.4byte	.LASF452
 4706 0c97 B403     		.sleb128 436
 4707 0c99 0B       		.uleb128 0xb
 4708 0c9a 11070000 		.4byte	.LASF453
 4709 0c9e B503     		.sleb128 437
 4710 0ca0 0B       		.uleb128 0xb
 4711 0ca1 AA0D0000 		.4byte	.LASF454
 4712 0ca5 B603     		.sleb128 438
 4713 0ca7 0B       		.uleb128 0xb
 4714 0ca8 62160000 		.4byte	.LASF455
 4715 0cac B703     		.sleb128 439
 4716 0cae 0B       		.uleb128 0xb
 4717 0caf 340E0000 		.4byte	.LASF456
 4718 0cb3 B803     		.sleb128 440
 4719 0cb5 0B       		.uleb128 0xb
 4720 0cb6 5C010000 		.4byte	.LASF457
 4721 0cba B903     		.sleb128 441
 4722 0cbc 0B       		.uleb128 0xb
 4723 0cbd 3E230000 		.4byte	.LASF458
ARM GAS  C:\Users\AHMED~1.ELE\AppData\Local\Temp\cc594ylT.s 			page 105


 4724 0cc1 BA03     		.sleb128 442
 4725 0cc3 0B       		.uleb128 0xb
 4726 0cc4 3B260000 		.4byte	.LASF459
 4727 0cc8 BB03     		.sleb128 443
 4728 0cca 0B       		.uleb128 0xb
 4729 0ccb 2E080000 		.4byte	.LASF460
 4730 0ccf BC03     		.sleb128 444
 4731 0cd1 0B       		.uleb128 0xb
 4732 0cd2 B11D0000 		.4byte	.LASF461
 4733 0cd6 BD03     		.sleb128 445
 4734 0cd8 0B       		.uleb128 0xb
 4735 0cd9 6F150000 		.4byte	.LASF462
 4736 0cdd BE03     		.sleb128 446
 4737 0cdf 0B       		.uleb128 0xb
 4738 0ce0 ED020000 		.4byte	.LASF463
 4739 0ce4 BF03     		.sleb128 447
 4740 0ce6 0B       		.uleb128 0xb
 4741 0ce7 1A0E0000 		.4byte	.LASF464
 4742 0ceb C003     		.sleb128 448
 4743 0ced 0B       		.uleb128 0xb
 4744 0cee D2210000 		.4byte	.LASF465
 4745 0cf2 C103     		.sleb128 449
 4746 0cf4 0B       		.uleb128 0xb
 4747 0cf5 37280000 		.4byte	.LASF466
 4748 0cf9 C203     		.sleb128 450
 4749 0cfb 0B       		.uleb128 0xb
 4750 0cfc 93280000 		.4byte	.LASF467
 4751 0d00 C303     		.sleb128 451
 4752 0d02 0B       		.uleb128 0xb
 4753 0d03 2B040000 		.4byte	.LASF468
 4754 0d07 C403     		.sleb128 452
 4755 0d09 0B       		.uleb128 0xb
 4756 0d0a 5F020000 		.4byte	.LASF469
 4757 0d0e C503     		.sleb128 453
 4758 0d10 0B       		.uleb128 0xb
 4759 0d11 D0280000 		.4byte	.LASF470
 4760 0d15 C603     		.sleb128 454
 4761 0d17 0B       		.uleb128 0xb
 4762 0d18 8D130000 		.4byte	.LASF471
 4763 0d1c C703     		.sleb128 455
 4764 0d1e 0B       		.uleb128 0xb
 4765 0d1f 622C0000 		.4byte	.LASF472
 4766 0d23 C803     		.sleb128 456
 4767 0d25 0B       		.uleb128 0xb
 4768 0d26 B9090000 		.4byte	.LASF473
 4769 0d2a C903     		.sleb128 457
 4770 0d2c 0B       		.uleb128 0xb
 4771 0d2d 821B0000 		.4byte	.LASF474
 4772 0d31 CA03     		.sleb128 458
 4773 0d33 0B       		.uleb128 0xb
 4774 0d34 68200000 		.4byte	.LASF475
 4775 0d38 CB03     		.sleb128 459
 4776 0d3a 0B       		.uleb128 0xb
 4777 0d3b 1D160000 		.4byte	.LASF476
 4778 0d3f CC03     		.sleb128 460
 4779 0d41 0B       		.uleb128 0xb
 4780 0d42 37030000 		.4byte	.LASF477
ARM GAS  C:\Users\AHMED~1.ELE\AppData\Local\Temp\cc594ylT.s 			page 106


 4781 0d46 CD03     		.sleb128 461
 4782 0d48 0B       		.uleb128 0xb
 4783 0d49 1A000000 		.4byte	.LASF478
 4784 0d4d CE03     		.sleb128 462
 4785 0d4f 0B       		.uleb128 0xb
 4786 0d50 B8010000 		.4byte	.LASF479
 4787 0d54 CF03     		.sleb128 463
 4788 0d56 0B       		.uleb128 0xb
 4789 0d57 E00F0000 		.4byte	.LASF480
 4790 0d5b D003     		.sleb128 464
 4791 0d5d 0B       		.uleb128 0xb
 4792 0d5e 08130000 		.4byte	.LASF481
 4793 0d62 D103     		.sleb128 465
 4794 0d64 0B       		.uleb128 0xb
 4795 0d65 52110000 		.4byte	.LASF482
 4796 0d69 D203     		.sleb128 466
 4797 0d6b 0B       		.uleb128 0xb
 4798 0d6c 51230000 		.4byte	.LASF483
 4799 0d70 D303     		.sleb128 467
 4800 0d72 0B       		.uleb128 0xb
 4801 0d73 9F020000 		.4byte	.LASF484
 4802 0d77 D403     		.sleb128 468
 4803 0d79 0B       		.uleb128 0xb
 4804 0d7a 71080000 		.4byte	.LASF485
 4805 0d7e D503     		.sleb128 469
 4806 0d80 0B       		.uleb128 0xb
 4807 0d81 8A220000 		.4byte	.LASF486
 4808 0d85 D603     		.sleb128 470
 4809 0d87 0B       		.uleb128 0xb
 4810 0d88 F4010000 		.4byte	.LASF487
 4811 0d8c D703     		.sleb128 471
 4812 0d8e 0B       		.uleb128 0xb
 4813 0d8f 151F0000 		.4byte	.LASF488
 4814 0d93 D803     		.sleb128 472
 4815 0d95 00       		.byte	0
 4816 0d96 0C       		.uleb128 0xc
 4817 0d97 0C       		.byte	0xc
 4818 0d98 04       		.byte	0x4
 4819 0d99 5007     		.2byte	0x750
 4820 0d9b E10D0000 		.4byte	0xde1
 4821 0d9f 0D       		.uleb128 0xd
 4822 0da0 B7040000 		.4byte	.LASF489
 4823 0da4 04       		.byte	0x4
 4824 0da5 5107     		.2byte	0x751
 4825 0da7 AD000000 		.4byte	0xad
 4826 0dab 00       		.byte	0
 4827 0dac 0D       		.uleb128 0xd
 4828 0dad 970F0000 		.4byte	.LASF490
 4829 0db1 04       		.byte	0x4
 4830 0db2 5207     		.2byte	0x752
 4831 0db4 AD000000 		.4byte	0xad
 4832 0db8 02       		.byte	0x2
 4833 0db9 0D       		.uleb128 0xd
 4834 0dba 060E0000 		.4byte	.LASF491
 4835 0dbe 04       		.byte	0x4
 4836 0dbf 5307     		.2byte	0x753
 4837 0dc1 AD000000 		.4byte	0xad
ARM GAS  C:\Users\AHMED~1.ELE\AppData\Local\Temp\cc594ylT.s 			page 107


 4838 0dc5 04       		.byte	0x4
 4839 0dc6 0D       		.uleb128 0xd
 4840 0dc7 6E270000 		.4byte	.LASF492
 4841 0dcb 04       		.byte	0x4
 4842 0dcc 5407     		.2byte	0x754
 4843 0dce AD000000 		.4byte	0xad
 4844 0dd2 06       		.byte	0x6
 4845 0dd3 0D       		.uleb128 0xd
 4846 0dd4 C9070000 		.4byte	.LASF493
 4847 0dd8 04       		.byte	0x4
 4848 0dd9 5507     		.2byte	0x755
 4849 0ddb E10D0000 		.4byte	0xde1
 4850 0ddf 08       		.byte	0x8
 4851 0de0 00       		.byte	0
 4852 0de1 08       		.uleb128 0x8
 4853 0de2 AD000000 		.4byte	0xad
 4854 0de6 F10D0000 		.4byte	0xdf1
 4855 0dea 09       		.uleb128 0x9
 4856 0deb 78000000 		.4byte	0x78
 4857 0def 00       		.byte	0
 4858 0df0 00       		.byte	0
 4859 0df1 0E       		.uleb128 0xe
 4860 0df2 7C0B0000 		.4byte	.LASF494
 4861 0df6 04       		.byte	0x4
 4862 0df7 5607     		.2byte	0x756
 4863 0df9 960D0000 		.4byte	0xd96
 4864 0dfd 0F       		.uleb128 0xf
 4865 0dfe 01       		.byte	0x1
 4866 0dff 04       		.byte	0x4
 4867 0e00 8F07     		.2byte	0x78f
 4868 0e02 190E0000 		.4byte	0xe19
 4869 0e06 0B       		.uleb128 0xb
 4870 0e07 F0190000 		.4byte	.LASF495
 4871 0e0b 00       		.sleb128 0
 4872 0e0c 0B       		.uleb128 0xb
 4873 0e0d 10240000 		.4byte	.LASF496
 4874 0e11 01       		.sleb128 1
 4875 0e12 0B       		.uleb128 0xb
 4876 0e13 D81D0000 		.4byte	.LASF497
 4877 0e17 02       		.sleb128 2
 4878 0e18 00       		.byte	0
 4879 0e19 06       		.uleb128 0x6
 4880 0e1a 04       		.byte	0x4
 4881 0e1b 1F0E0000 		.4byte	0xe1f
 4882 0e1f 10       		.uleb128 0x10
 4883 0e20 0F       		.uleb128 0xf
 4884 0e21 02       		.byte	0x2
 4885 0e22 04       		.byte	0x4
 4886 0e23 DD18     		.2byte	0x18dd
 4887 0e25 490E0000 		.4byte	0xe49
 4888 0e29 0B       		.uleb128 0xb
 4889 0e2a 62100000 		.4byte	.LASF498
 4890 0e2e 00       		.sleb128 0
 4891 0e2f 0B       		.uleb128 0xb
 4892 0e30 F9260000 		.4byte	.LASF499
 4893 0e34 01       		.sleb128 1
 4894 0e35 0B       		.uleb128 0xb
ARM GAS  C:\Users\AHMED~1.ELE\AppData\Local\Temp\cc594ylT.s 			page 108


 4895 0e36 2F2C0000 		.4byte	.LASF500
 4896 0e3a 02       		.sleb128 2
 4897 0e3b 0B       		.uleb128 0xb
 4898 0e3c BB030000 		.4byte	.LASF501
 4899 0e40 03       		.sleb128 3
 4900 0e41 0B       		.uleb128 0xb
 4901 0e42 28090000 		.4byte	.LASF502
 4902 0e46 8002     		.sleb128 256
 4903 0e48 00       		.byte	0
 4904 0e49 0C       		.uleb128 0xc
 4905 0e4a 10       		.byte	0x10
 4906 0e4b 04       		.byte	0x4
 4907 0e4c 7E19     		.2byte	0x197e
 4908 0e4e 870E0000 		.4byte	0xe87
 4909 0e52 0D       		.uleb128 0xd
 4910 0e53 841E0000 		.4byte	.LASF503
 4911 0e57 04       		.byte	0x4
 4912 0e58 7F19     		.2byte	0x197f
 4913 0e5a B8000000 		.4byte	0xb8
 4914 0e5e 00       		.byte	0
 4915 0e5f 0D       		.uleb128 0xd
 4916 0e60 2B180000 		.4byte	.LASF504
 4917 0e64 04       		.byte	0x4
 4918 0e65 8019     		.2byte	0x1980
 4919 0e67 B8000000 		.4byte	0xb8
 4920 0e6b 04       		.byte	0x4
 4921 0e6c 0D       		.uleb128 0xd
 4922 0e6d 952E0000 		.4byte	.LASF505
 4923 0e71 04       		.byte	0x4
 4924 0e72 8119     		.2byte	0x1981
 4925 0e74 B8000000 		.4byte	0xb8
 4926 0e78 08       		.byte	0x8
 4927 0e79 0D       		.uleb128 0xd
 4928 0e7a 28210000 		.4byte	.LASF506
 4929 0e7e 04       		.byte	0x4
 4930 0e7f 8219     		.2byte	0x1982
 4931 0e81 B8000000 		.4byte	0xb8
 4932 0e85 0C       		.byte	0xc
 4933 0e86 00       		.byte	0
 4934 0e87 0E       		.uleb128 0xe
 4935 0e88 4E010000 		.4byte	.LASF507
 4936 0e8c 04       		.byte	0x4
 4937 0e8d 8319     		.2byte	0x1983
 4938 0e8f 490E0000 		.4byte	0xe49
 4939 0e93 0F       		.uleb128 0xf
 4940 0e94 02       		.byte	0x2
 4941 0e95 04       		.byte	0x4
 4942 0e96 8519     		.2byte	0x1985
 4943 0e98 B70E0000 		.4byte	0xeb7
 4944 0e9c 0B       		.uleb128 0xb
 4945 0e9d 780C0000 		.4byte	.LASF508
 4946 0ea1 00       		.sleb128 0
 4947 0ea2 0B       		.uleb128 0xb
 4948 0ea3 0B2C0000 		.4byte	.LASF509
 4949 0ea7 01       		.sleb128 1
 4950 0ea8 0B       		.uleb128 0xb
 4951 0ea9 101D0000 		.4byte	.LASF510
ARM GAS  C:\Users\AHMED~1.ELE\AppData\Local\Temp\cc594ylT.s 			page 109


 4952 0ead 02       		.sleb128 2
 4953 0eae 0B       		.uleb128 0xb
 4954 0eaf 52240000 		.4byte	.LASF511
 4955 0eb3 808002   		.sleb128 32768
 4956 0eb6 00       		.byte	0
 4957 0eb7 0F       		.uleb128 0xf
 4958 0eb8 01       		.byte	0x1
 4959 0eb9 05       		.byte	0x5
 4960 0eba DC07     		.2byte	0x7dc
 4961 0ebc 05100000 		.4byte	0x1005
 4962 0ec0 0B       		.uleb128 0xb
 4963 0ec1 96140000 		.4byte	.LASF512
 4964 0ec5 00       		.sleb128 0
 4965 0ec6 0B       		.uleb128 0xb
 4966 0ec7 7C240000 		.4byte	.LASF513
 4967 0ecb 01       		.sleb128 1
 4968 0ecc 0B       		.uleb128 0xb
 4969 0ecd 6A070000 		.4byte	.LASF514
 4970 0ed1 02       		.sleb128 2
 4971 0ed2 0B       		.uleb128 0xb
 4972 0ed3 1F060000 		.4byte	.LASF515
 4973 0ed7 03       		.sleb128 3
 4974 0ed8 0B       		.uleb128 0xb
 4975 0ed9 F82D0000 		.4byte	.LASF516
 4976 0edd 04       		.sleb128 4
 4977 0ede 0B       		.uleb128 0xb
 4978 0edf D50A0000 		.4byte	.LASF517
 4979 0ee3 05       		.sleb128 5
 4980 0ee4 0B       		.uleb128 0xb
 4981 0ee5 081A0000 		.4byte	.LASF518
 4982 0ee9 06       		.sleb128 6
 4983 0eea 0B       		.uleb128 0xb
 4984 0eeb A5110000 		.4byte	.LASF519
 4985 0eef 07       		.sleb128 7
 4986 0ef0 0B       		.uleb128 0xb
 4987 0ef1 1E0B0000 		.4byte	.LASF520
 4988 0ef5 08       		.sleb128 8
 4989 0ef6 0B       		.uleb128 0xb
 4990 0ef7 4E070000 		.4byte	.LASF521
 4991 0efb 09       		.sleb128 9
 4992 0efc 0B       		.uleb128 0xb
 4993 0efd 9A110000 		.4byte	.LASF522
 4994 0f01 0A       		.sleb128 10
 4995 0f02 0B       		.uleb128 0xb
 4996 0f03 9F090000 		.4byte	.LASF523
 4997 0f07 0B       		.sleb128 11
 4998 0f08 0B       		.uleb128 0xb
 4999 0f09 6E180000 		.4byte	.LASF524
 5000 0f0d 0C       		.sleb128 12
 5001 0f0e 0B       		.uleb128 0xb
 5002 0f0f 46010000 		.4byte	.LASF525
 5003 0f13 0D       		.sleb128 13
 5004 0f14 0B       		.uleb128 0xb
 5005 0f15 45070000 		.4byte	.LASF526
 5006 0f19 0E       		.sleb128 14
 5007 0f1a 0B       		.uleb128 0xb
 5008 0f1b 3F160000 		.4byte	.LASF527
ARM GAS  C:\Users\AHMED~1.ELE\AppData\Local\Temp\cc594ylT.s 			page 110


 5009 0f1f 0F       		.sleb128 15
 5010 0f20 0B       		.uleb128 0xb
 5011 0f21 832B0000 		.4byte	.LASF528
 5012 0f25 10       		.sleb128 16
 5013 0f26 0B       		.uleb128 0xb
 5014 0f27 6C290000 		.4byte	.LASF529
 5015 0f2b 11       		.sleb128 17
 5016 0f2c 0B       		.uleb128 0xb
 5017 0f2d 830B0000 		.4byte	.LASF530
 5018 0f31 12       		.sleb128 18
 5019 0f32 0B       		.uleb128 0xb
 5020 0f33 6A220000 		.4byte	.LASF531
 5021 0f37 13       		.sleb128 19
 5022 0f38 0B       		.uleb128 0xb
 5023 0f39 592D0000 		.4byte	.LASF532
 5024 0f3d 14       		.sleb128 20
 5025 0f3e 0B       		.uleb128 0xb
 5026 0f3f 8C0B0000 		.4byte	.LASF533
 5027 0f43 15       		.sleb128 21
 5028 0f44 0B       		.uleb128 0xb
 5029 0f45 80170000 		.4byte	.LASF534
 5030 0f49 16       		.sleb128 22
 5031 0f4a 0B       		.uleb128 0xb
 5032 0f4b 490F0000 		.4byte	.LASF535
 5033 0f4f 17       		.sleb128 23
 5034 0f50 0B       		.uleb128 0xb
 5035 0f51 31180000 		.4byte	.LASF536
 5036 0f55 18       		.sleb128 24
 5037 0f56 0B       		.uleb128 0xb
 5038 0f57 68140000 		.4byte	.LASF537
 5039 0f5b 19       		.sleb128 25
 5040 0f5c 0B       		.uleb128 0xb
 5041 0f5d 7D050000 		.4byte	.LASF538
 5042 0f61 1A       		.sleb128 26
 5043 0f62 0B       		.uleb128 0xb
 5044 0f63 E80A0000 		.4byte	.LASF539
 5045 0f67 1B       		.sleb128 27
 5046 0f68 0B       		.uleb128 0xb
 5047 0f69 9D030000 		.4byte	.LASF540
 5048 0f6d 1C       		.sleb128 28
 5049 0f6e 0B       		.uleb128 0xb
 5050 0f6f 2D2B0000 		.4byte	.LASF541
 5051 0f73 1D       		.sleb128 29
 5052 0f74 0B       		.uleb128 0xb
 5053 0f75 D50B0000 		.4byte	.LASF542
 5054 0f79 1E       		.sleb128 30
 5055 0f7a 0B       		.uleb128 0xb
 5056 0f7b EF110000 		.4byte	.LASF543
 5057 0f7f 1F       		.sleb128 31
 5058 0f80 0B       		.uleb128 0xb
 5059 0f81 DB240000 		.4byte	.LASF544
 5060 0f85 20       		.sleb128 32
 5061 0f86 0B       		.uleb128 0xb
 5062 0f87 DB2D0000 		.4byte	.LASF545
 5063 0f8b 21       		.sleb128 33
 5064 0f8c 0B       		.uleb128 0xb
 5065 0f8d DB170000 		.4byte	.LASF546
ARM GAS  C:\Users\AHMED~1.ELE\AppData\Local\Temp\cc594ylT.s 			page 111


 5066 0f91 22       		.sleb128 34
 5067 0f92 0B       		.uleb128 0xb
 5068 0f93 C70C0000 		.4byte	.LASF547
 5069 0f97 23       		.sleb128 35
 5070 0f98 0B       		.uleb128 0xb
 5071 0f99 AB2B0000 		.4byte	.LASF548
 5072 0f9d 24       		.sleb128 36
 5073 0f9e 0B       		.uleb128 0xb
 5074 0f9f 820A0000 		.4byte	.LASF549
 5075 0fa3 25       		.sleb128 37
 5076 0fa4 0B       		.uleb128 0xb
 5077 0fa5 6F010000 		.4byte	.LASF550
 5078 0fa9 26       		.sleb128 38
 5079 0faa 0B       		.uleb128 0xb
 5080 0fab AE280000 		.4byte	.LASF551
 5081 0faf 27       		.sleb128 39
 5082 0fb0 0B       		.uleb128 0xb
 5083 0fb1 761B0000 		.4byte	.LASF552
 5084 0fb5 28       		.sleb128 40
 5085 0fb6 0B       		.uleb128 0xb
 5086 0fb7 271F0000 		.4byte	.LASF553
 5087 0fbb 29       		.sleb128 41
 5088 0fbc 0B       		.uleb128 0xb
 5089 0fbd 721C0000 		.4byte	.LASF554
 5090 0fc1 2A       		.sleb128 42
 5091 0fc2 0B       		.uleb128 0xb
 5092 0fc3 1E0C0000 		.4byte	.LASF555
 5093 0fc7 2B       		.sleb128 43
 5094 0fc8 0B       		.uleb128 0xb
 5095 0fc9 F5220000 		.4byte	.LASF556
 5096 0fcd 2C       		.sleb128 44
 5097 0fce 0B       		.uleb128 0xb
 5098 0fcf 1E090000 		.4byte	.LASF557
 5099 0fd3 2D       		.sleb128 45
 5100 0fd4 0B       		.uleb128 0xb
 5101 0fd5 8C010000 		.4byte	.LASF558
 5102 0fd9 2E       		.sleb128 46
 5103 0fda 0B       		.uleb128 0xb
 5104 0fdb C4150000 		.4byte	.LASF559
 5105 0fdf 2F       		.sleb128 47
 5106 0fe0 0B       		.uleb128 0xb
 5107 0fe1 C91A0000 		.4byte	.LASF560
 5108 0fe5 30       		.sleb128 48
 5109 0fe6 0B       		.uleb128 0xb
 5110 0fe7 47120000 		.4byte	.LASF561
 5111 0feb 31       		.sleb128 49
 5112 0fec 0B       		.uleb128 0xb
 5113 0fed 32230000 		.4byte	.LASF562
 5114 0ff1 32       		.sleb128 50
 5115 0ff2 0B       		.uleb128 0xb
 5116 0ff3 2A030000 		.4byte	.LASF563
 5117 0ff7 33       		.sleb128 51
 5118 0ff8 0B       		.uleb128 0xb
 5119 0ff9 632A0000 		.4byte	.LASF564
 5120 0ffd 34       		.sleb128 52
 5121 0ffe 0B       		.uleb128 0xb
 5122 0fff AC210000 		.4byte	.LASF565
ARM GAS  C:\Users\AHMED~1.ELE\AppData\Local\Temp\cc594ylT.s 			page 112


 5123 1003 35       		.sleb128 53
 5124 1004 00       		.byte	0
 5125 1005 11       		.uleb128 0x11
 5126 1006 01       		.byte	0x1
 5127 1007 06       		.byte	0x6
 5128 1008 40       		.byte	0x40
 5129 1009 58110000 		.4byte	0x1158
 5130 100d 0B       		.uleb128 0xb
 5131 100e 4E0E0000 		.4byte	.LASF566
 5132 1012 00       		.sleb128 0
 5133 1013 0B       		.uleb128 0xb
 5134 1014 4A000000 		.4byte	.LASF567
 5135 1018 01       		.sleb128 1
 5136 1019 0B       		.uleb128 0xb
 5137 101a 372A0000 		.4byte	.LASF568
 5138 101e 02       		.sleb128 2
 5139 101f 0B       		.uleb128 0xb
 5140 1020 95230000 		.4byte	.LASF569
 5141 1024 03       		.sleb128 3
 5142 1025 0B       		.uleb128 0xb
 5143 1026 9F120000 		.4byte	.LASF570
 5144 102a 04       		.sleb128 4
 5145 102b 0B       		.uleb128 0xb
 5146 102c 65250000 		.4byte	.LASF571
 5147 1030 05       		.sleb128 5
 5148 1031 0B       		.uleb128 0xb
 5149 1032 3E0A0000 		.4byte	.LASF572
 5150 1036 06       		.sleb128 6
 5151 1037 0B       		.uleb128 0xb
 5152 1038 08210000 		.4byte	.LASF573
 5153 103c 07       		.sleb128 7
 5154 103d 0B       		.uleb128 0xb
 5155 103e C9080000 		.4byte	.LASF574
 5156 1042 08       		.sleb128 8
 5157 1043 0B       		.uleb128 0xb
 5158 1044 F9200000 		.4byte	.LASF575
 5159 1048 09       		.sleb128 9
 5160 1049 0B       		.uleb128 0xb
 5161 104a 85280000 		.4byte	.LASF576
 5162 104e 0A       		.sleb128 10
 5163 104f 0B       		.uleb128 0xb
 5164 1050 1B2A0000 		.4byte	.LASF577
 5165 1054 0B       		.sleb128 11
 5166 1055 0B       		.uleb128 0xb
 5167 1056 B2070000 		.4byte	.LASF578
 5168 105a 0C       		.sleb128 12
 5169 105b 0B       		.uleb128 0xb
 5170 105c B6220000 		.4byte	.LASF579
 5171 1060 0D       		.sleb128 13
 5172 1061 0B       		.uleb128 0xb
 5173 1062 732B0000 		.4byte	.LASF580
 5174 1066 0E       		.sleb128 14
 5175 1067 0B       		.uleb128 0xb
 5176 1068 802A0000 		.4byte	.LASF581
 5177 106c 0F       		.sleb128 15
 5178 106d 0B       		.uleb128 0xb
 5179 106e 522A0000 		.4byte	.LASF582
ARM GAS  C:\Users\AHMED~1.ELE\AppData\Local\Temp\cc594ylT.s 			page 113


 5180 1072 10       		.sleb128 16
 5181 1073 0B       		.uleb128 0xb
 5182 1074 04010000 		.4byte	.LASF583
 5183 1078 11       		.sleb128 17
 5184 1079 0B       		.uleb128 0xb
 5185 107a 0A160000 		.4byte	.LASF584
 5186 107e 12       		.sleb128 18
 5187 107f 0B       		.uleb128 0xb
 5188 1080 B3230000 		.4byte	.LASF585
 5189 1084 13       		.sleb128 19
 5190 1085 0B       		.uleb128 0xb
 5191 1086 0B040000 		.4byte	.LASF586
 5192 108a 14       		.sleb128 20
 5193 108b 0B       		.uleb128 0xb
 5194 108c 841A0000 		.4byte	.LASF587
 5195 1090 15       		.sleb128 21
 5196 1091 0B       		.uleb128 0xb
 5197 1092 8D160000 		.4byte	.LASF588
 5198 1096 16       		.sleb128 22
 5199 1097 0B       		.uleb128 0xb
 5200 1098 FD180000 		.4byte	.LASF589
 5201 109c 17       		.sleb128 23
 5202 109d 0B       		.uleb128 0xb
 5203 109e A9200000 		.4byte	.LASF590
 5204 10a2 18       		.sleb128 24
 5205 10a3 0B       		.uleb128 0xb
 5206 10a4 55000000 		.4byte	.LASF591
 5207 10a8 19       		.sleb128 25
 5208 10a9 0B       		.uleb128 0xb
 5209 10aa 610A0000 		.4byte	.LASF592
 5210 10ae 1A       		.sleb128 26
 5211 10af 0B       		.uleb128 0xb
 5212 10b0 0F0B0000 		.4byte	.LASF593
 5213 10b4 1B       		.sleb128 27
 5214 10b5 0B       		.uleb128 0xb
 5215 10b6 D11B0000 		.4byte	.LASF594
 5216 10ba 1C       		.sleb128 28
 5217 10bb 0B       		.uleb128 0xb
 5218 10bc F5000000 		.4byte	.LASF595
 5219 10c0 1D       		.sleb128 29
 5220 10c1 0B       		.uleb128 0xb
 5221 10c2 44100000 		.4byte	.LASF596
 5222 10c6 1E       		.sleb128 30
 5223 10c7 0B       		.uleb128 0xb
 5224 10c8 742D0000 		.4byte	.LASF597
 5225 10cc 1F       		.sleb128 31
 5226 10cd 0B       		.uleb128 0xb
 5227 10ce 571F0000 		.4byte	.LASF598
 5228 10d2 20       		.sleb128 32
 5229 10d3 0B       		.uleb128 0xb
 5230 10d4 0F0E0000 		.4byte	.LASF599
 5231 10d8 21       		.sleb128 33
 5232 10d9 0B       		.uleb128 0xb
 5233 10da C4220000 		.4byte	.LASF600
 5234 10de 22       		.sleb128 34
 5235 10df 0B       		.uleb128 0xb
 5236 10e0 D7070000 		.4byte	.LASF601
ARM GAS  C:\Users\AHMED~1.ELE\AppData\Local\Temp\cc594ylT.s 			page 114


 5237 10e4 23       		.sleb128 35
 5238 10e5 0B       		.uleb128 0xb
 5239 10e6 E4010000 		.4byte	.LASF602
 5240 10ea 24       		.sleb128 36
 5241 10eb 0B       		.uleb128 0xb
 5242 10ec 25120000 		.4byte	.LASF603
 5243 10f0 25       		.sleb128 37
 5244 10f1 0B       		.uleb128 0xb
 5245 10f2 D6060000 		.4byte	.LASF604
 5246 10f6 26       		.sleb128 38
 5247 10f7 0B       		.uleb128 0xb
 5248 10f8 FC080000 		.4byte	.LASF605
 5249 10fc 27       		.sleb128 39
 5250 10fd 0B       		.uleb128 0xb
 5251 10fe F4270000 		.4byte	.LASF606
 5252 1102 28       		.sleb128 40
 5253 1103 0B       		.uleb128 0xb
 5254 1104 D9150000 		.4byte	.LASF607
 5255 1108 29       		.sleb128 41
 5256 1109 0B       		.uleb128 0xb
 5257 110a C61D0000 		.4byte	.LASF608
 5258 110e 2A       		.sleb128 42
 5259 110f 0B       		.uleb128 0xb
 5260 1110 1B040000 		.4byte	.LASF609
 5261 1114 2B       		.sleb128 43
 5262 1115 0B       		.uleb128 0xb
 5263 1116 5C290000 		.4byte	.LASF610
 5264 111a 2C       		.sleb128 44
 5265 111b 0B       		.uleb128 0xb
 5266 111c 021E0000 		.4byte	.LASF611
 5267 1120 2D       		.sleb128 45
 5268 1121 0B       		.uleb128 0xb
 5269 1122 CF1F0000 		.4byte	.LASF612
 5270 1126 2E       		.sleb128 46
 5271 1127 0B       		.uleb128 0xb
 5272 1128 C6250000 		.4byte	.LASF613
 5273 112c 2F       		.sleb128 47
 5274 112d 0B       		.uleb128 0xb
 5275 112e 45130000 		.4byte	.LASF614
 5276 1132 30       		.sleb128 48
 5277 1133 0B       		.uleb128 0xb
 5278 1134 C9290000 		.4byte	.LASF615
 5279 1138 31       		.sleb128 49
 5280 1139 0B       		.uleb128 0xb
 5281 113a E7240000 		.4byte	.LASF616
 5282 113e 32       		.sleb128 50
 5283 113f 0B       		.uleb128 0xb
 5284 1140 8D290000 		.4byte	.LASF617
 5285 1144 33       		.sleb128 51
 5286 1145 0B       		.uleb128 0xb
 5287 1146 51020000 		.4byte	.LASF618
 5288 114a 34       		.sleb128 52
 5289 114b 0B       		.uleb128 0xb
 5290 114c D70D0000 		.4byte	.LASF619
 5291 1150 35       		.sleb128 53
 5292 1151 0B       		.uleb128 0xb
 5293 1152 B7250000 		.4byte	.LASF620
ARM GAS  C:\Users\AHMED~1.ELE\AppData\Local\Temp\cc594ylT.s 			page 115


 5294 1156 36       		.sleb128 54
 5295 1157 00       		.byte	0
 5296 1158 08       		.uleb128 0x8
 5297 1159 A2000000 		.4byte	0xa2
 5298 115d 68110000 		.4byte	0x1168
 5299 1161 09       		.uleb128 0x9
 5300 1162 78000000 		.4byte	0x78
 5301 1166 02       		.byte	0x2
 5302 1167 00       		.byte	0
 5303 1168 11       		.uleb128 0x11
 5304 1169 01       		.byte	0x1
 5305 116a 07       		.byte	0x7
 5306 116b 31       		.byte	0x31
 5307 116c A1110000 		.4byte	0x11a1
 5308 1170 0B       		.uleb128 0xb
 5309 1171 440C0000 		.4byte	.LASF621
 5310 1175 00       		.sleb128 0
 5311 1176 0B       		.uleb128 0xb
 5312 1177 9D0D0000 		.4byte	.LASF622
 5313 117b 01       		.sleb128 1
 5314 117c 0B       		.uleb128 0xb
 5315 117d D8030000 		.4byte	.LASF623
 5316 1181 02       		.sleb128 2
 5317 1182 0B       		.uleb128 0xb
 5318 1183 751E0000 		.4byte	.LASF624
 5319 1187 03       		.sleb128 3
 5320 1188 0B       		.uleb128 0xb
 5321 1189 F8170000 		.4byte	.LASF625
 5322 118d 04       		.sleb128 4
 5323 118e 0B       		.uleb128 0xb
 5324 118f 360D0000 		.4byte	.LASF626
 5325 1193 05       		.sleb128 5
 5326 1194 0B       		.uleb128 0xb
 5327 1195 551E0000 		.4byte	.LASF627
 5328 1199 06       		.sleb128 6
 5329 119a 0B       		.uleb128 0xb
 5330 119b D8120000 		.4byte	.LASF628
 5331 119f 07       		.sleb128 7
 5332 11a0 00       		.byte	0
 5333 11a1 12       		.uleb128 0x12
 5334 11a2 26010000 		.4byte	.LASF630
 5335 11a6 0C       		.byte	0xc
 5336 11a7 07       		.byte	0x7
 5337 11a8 58       		.byte	0x58
 5338 11a9 DE110000 		.4byte	0x11de
 5339 11ad 13       		.uleb128 0x13
 5340 11ae 841E0000 		.4byte	.LASF503
 5341 11b2 07       		.byte	0x7
 5342 11b3 59       		.byte	0x59
 5343 11b4 B8000000 		.4byte	0xb8
 5344 11b8 00       		.byte	0
 5345 11b9 13       		.uleb128 0x13
 5346 11ba 2B180000 		.4byte	.LASF504
 5347 11be 07       		.byte	0x7
 5348 11bf 5A       		.byte	0x5a
 5349 11c0 AD000000 		.4byte	0xad
 5350 11c4 04       		.byte	0x4
ARM GAS  C:\Users\AHMED~1.ELE\AppData\Local\Temp\cc594ylT.s 			page 116


 5351 11c5 13       		.uleb128 0x13
 5352 11c6 952E0000 		.4byte	.LASF505
 5353 11ca 07       		.byte	0x7
 5354 11cb 5B       		.byte	0x5b
 5355 11cc AD000000 		.4byte	0xad
 5356 11d0 06       		.byte	0x6
 5357 11d1 14       		.uleb128 0x14
 5358 11d2 64617400 		.ascii	"dat\000"
 5359 11d6 07       		.byte	0x7
 5360 11d7 5C       		.byte	0x5c
 5361 11d8 C3000000 		.4byte	0xc3
 5362 11dc 08       		.byte	0x8
 5363 11dd 00       		.byte	0
 5364 11de 04       		.uleb128 0x4
 5365 11df 9C170000 		.4byte	.LASF629
 5366 11e3 07       		.byte	0x7
 5367 11e4 5D       		.byte	0x5d
 5368 11e5 A1110000 		.4byte	0x11a1
 5369 11e9 12       		.uleb128 0x12
 5370 11ea DB290000 		.4byte	.LASF631
 5371 11ee 10       		.byte	0x10
 5372 11ef 07       		.byte	0x7
 5373 11f0 6C       		.byte	0x6c
 5374 11f1 26120000 		.4byte	0x1226
 5375 11f5 14       		.uleb128 0x14
 5376 11f6 64617400 		.ascii	"dat\000"
 5377 11fa 07       		.byte	0x7
 5378 11fb 6D       		.byte	0x6d
 5379 11fc C3000000 		.4byte	0xc3
 5380 1200 00       		.byte	0
 5381 1201 13       		.uleb128 0x13
 5382 1202 82000000 		.4byte	.LASF632
 5383 1206 07       		.byte	0x7
 5384 1207 6E       		.byte	0x6e
 5385 1208 B8000000 		.4byte	0xb8
 5386 120c 04       		.byte	0x4
 5387 120d 13       		.uleb128 0x13
 5388 120e 3F2D0000 		.4byte	.LASF633
 5389 1212 07       		.byte	0x7
 5390 1213 6F       		.byte	0x6f
 5391 1214 C3000000 		.4byte	0xc3
 5392 1218 08       		.byte	0x8
 5393 1219 13       		.uleb128 0x13
 5394 121a D9250000 		.4byte	.LASF634
 5395 121e 07       		.byte	0x7
 5396 121f 70       		.byte	0x70
 5397 1220 B8000000 		.4byte	0xb8
 5398 1224 0C       		.byte	0xc
 5399 1225 00       		.byte	0
 5400 1226 04       		.uleb128 0x4
 5401 1227 202B0000 		.4byte	.LASF635
 5402 122b 07       		.byte	0x7
 5403 122c 71       		.byte	0x71
 5404 122d E9110000 		.4byte	0x11e9
 5405 1231 15       		.uleb128 0x15
 5406 1232 08B00400 		.4byte	0x4b008
 5407 1236 01       		.byte	0x1
ARM GAS  C:\Users\AHMED~1.ELE\AppData\Local\Temp\cc594ylT.s 			page 117


 5408 1237 3A       		.byte	0x3a
 5409 1238 79120000 		.4byte	0x1279
 5410 123c 13       		.uleb128 0x13
 5411 123d B7040000 		.4byte	.LASF489
 5412 1241 01       		.byte	0x1
 5413 1242 3B       		.byte	0x3b
 5414 1243 AD000000 		.4byte	0xad
 5415 1247 00       		.byte	0
 5416 1248 13       		.uleb128 0x13
 5417 1249 970F0000 		.4byte	.LASF490
 5418 124d 01       		.byte	0x1
 5419 124e 3C       		.byte	0x3c
 5420 124f AD000000 		.4byte	0xad
 5421 1253 02       		.byte	0x2
 5422 1254 13       		.uleb128 0x13
 5423 1255 060E0000 		.4byte	.LASF491
 5424 1259 01       		.byte	0x1
 5425 125a 3D       		.byte	0x3d
 5426 125b AD000000 		.4byte	0xad
 5427 125f 04       		.byte	0x4
 5428 1260 13       		.uleb128 0x13
 5429 1261 6E270000 		.4byte	.LASF492
 5430 1265 01       		.byte	0x1
 5431 1266 3E       		.byte	0x3e
 5432 1267 AD000000 		.4byte	0xad
 5433 126b 06       		.byte	0x6
 5434 126c 13       		.uleb128 0x13
 5435 126d B42D0000 		.4byte	.LASF636
 5436 1271 01       		.byte	0x1
 5437 1272 3F       		.byte	0x3f
 5438 1273 79120000 		.4byte	0x1279
 5439 1277 08       		.byte	0x8
 5440 1278 00       		.byte	0
 5441 1279 08       		.uleb128 0x8
 5442 127a AD000000 		.4byte	0xad
 5443 127e 8C120000 		.4byte	0x128c
 5444 1282 16       		.uleb128 0x16
 5445 1283 78000000 		.4byte	0x78
 5446 1287 FF570200 		.4byte	0x257ff
 5447 128b 00       		.byte	0
 5448 128c 04       		.uleb128 0x4
 5449 128d 7D100000 		.4byte	.LASF637
 5450 1291 01       		.byte	0x1
 5451 1292 40       		.byte	0x40
 5452 1293 31120000 		.4byte	0x1231
 5453 1297 0F       		.uleb128 0xf
 5454 1298 01       		.byte	0x1
 5455 1299 01       		.byte	0x1
 5456 129a 6D01     		.2byte	0x16d
 5457 129c D1120000 		.4byte	0x12d1
 5458 12a0 0B       		.uleb128 0xb
 5459 12a1 EA120000 		.4byte	.LASF638
 5460 12a5 00       		.sleb128 0
 5461 12a6 0B       		.uleb128 0xb
 5462 12a7 66280000 		.4byte	.LASF639
 5463 12ab 01       		.sleb128 1
 5464 12ac 0B       		.uleb128 0xb
ARM GAS  C:\Users\AHMED~1.ELE\AppData\Local\Temp\cc594ylT.s 			page 118


 5465 12ad 8F0E0000 		.4byte	.LASF640
 5466 12b1 02       		.sleb128 2
 5467 12b2 0B       		.uleb128 0xb
 5468 12b3 B7150000 		.4byte	.LASF641
 5469 12b7 03       		.sleb128 3
 5470 12b8 0B       		.uleb128 0xb
 5471 12b9 B80E0000 		.4byte	.LASF642
 5472 12bd 04       		.sleb128 4
 5473 12be 0B       		.uleb128 0xb
 5474 12bf 17250000 		.4byte	.LASF643
 5475 12c3 05       		.sleb128 5
 5476 12c4 0B       		.uleb128 0xb
 5477 12c5 F30A0000 		.4byte	.LASF644
 5478 12c9 06       		.sleb128 6
 5479 12ca 0B       		.uleb128 0xb
 5480 12cb 45250000 		.4byte	.LASF645
 5481 12cf 07       		.sleb128 7
 5482 12d0 00       		.byte	0
 5483 12d1 17       		.uleb128 0x17
 5484 12d2 CD200000 		.4byte	.LASF646
 5485 12d6 01       		.byte	0x1
 5486 12d7 0D01     		.2byte	0x10d
 5487 12d9 01       		.byte	0x1
 5488 12da EB120000 		.4byte	0x12eb
 5489 12de 18       		.uleb128 0x18
 5490 12df D1150000 		.4byte	.LASF648
 5491 12e3 01       		.byte	0x1
 5492 12e4 0D01     		.2byte	0x10d
 5493 12e6 97000000 		.4byte	0x97
 5494 12ea 00       		.byte	0
 5495 12eb 17       		.uleb128 0x17
 5496 12ec E0130000 		.4byte	.LASF647
 5497 12f0 01       		.byte	0x1
 5498 12f1 2301     		.2byte	0x123
 5499 12f3 01       		.byte	0x1
 5500 12f4 35130000 		.4byte	0x1335
 5501 12f8 19       		.uleb128 0x19
 5502 12f9 61496400 		.ascii	"aId\000"
 5503 12fd 01       		.byte	0x1
 5504 12fe 2301     		.2byte	0x123
 5505 1300 B8000000 		.4byte	0xb8
 5506 1304 18       		.uleb128 0x18
 5507 1305 6C060000 		.4byte	.LASF649
 5508 1309 01       		.byte	0x1
 5509 130a 2301     		.2byte	0x123
 5510 130c 97000000 		.4byte	0x97
 5511 1310 1A       		.uleb128 0x1a
 5512 1311 701B0000 		.4byte	.LASF650
 5513 1315 01       		.byte	0x1
 5514 1316 2501     		.2byte	0x125
 5515 1318 58110000 		.4byte	0x1158
 5516 131c 1B       		.uleb128 0x1b
 5517 131d 6C636400 		.ascii	"lcd\000"
 5518 1321 01       		.byte	0x1
 5519 1322 2601     		.2byte	0x126
 5520 1324 8C120000 		.4byte	0x128c
 5521 1328 1A       		.uleb128 0x1a
ARM GAS  C:\Users\AHMED~1.ELE\AppData\Local\Temp\cc594ylT.s 			page 119


 5522 1329 201A0000 		.4byte	.LASF651
 5523 132d 01       		.byte	0x1
 5524 132e 2601     		.2byte	0x126
 5525 1330 35130000 		.4byte	0x1335
 5526 1334 00       		.byte	0
 5527 1335 06       		.uleb128 0x6
 5528 1336 04       		.byte	0x4
 5529 1337 8C120000 		.4byte	0x128c
 5530 133b 1C       		.uleb128 0x1c
 5531 133c 13050000 		.4byte	.LASF655
 5532 1340 01       		.byte	0x1
 5533 1341 56       		.byte	0x56
 5534 1342 97000000 		.4byte	0x97
 5535 1346 00000000 		.4byte	.LFB0
 5536 134a 28000000 		.4byte	.LFE0-.LFB0
 5537 134e 01       		.uleb128 0x1
 5538 134f 9C       		.byte	0x9c
 5539 1350 A7130000 		.4byte	0x13a7
 5540 1354 1D       		.uleb128 0x1d
 5541 1355 9C180000 		.4byte	.LASF652
 5542 1359 01       		.byte	0x1
 5543 135a 56       		.byte	0x56
 5544 135b 35130000 		.4byte	0x1335
 5545 135f 00000000 		.4byte	.LLST0
 5546 1363 1D       		.uleb128 0x1d
 5547 1364 D0070000 		.4byte	.LASF653
 5548 1368 01       		.byte	0x1
 5549 1369 56       		.byte	0x56
 5550 136a B8000000 		.4byte	0xb8
 5551 136e 1E000000 		.4byte	.LLST1
 5552 1372 1D       		.uleb128 0x1d
 5553 1373 230A0000 		.4byte	.LASF654
 5554 1377 01       		.byte	0x1
 5555 1378 56       		.byte	0x56
 5556 1379 C3000000 		.4byte	0xc3
 5557 137d 3F000000 		.4byte	.LLST2
 5558 1381 1E       		.uleb128 0x1e
 5559 1382 101A0000 		.4byte	.LASF662
 5560 1386 01       		.byte	0x1
 5561 1387 58       		.byte	0x58
 5562 1388 B8000000 		.4byte	0xb8
 5563 138c 6B000000 		.4byte	.LLST3
 5564 1390 1F       		.uleb128 0x1f
 5565 1391 24000000 		.4byte	.LVL6
 5566 1395 393F0000 		.4byte	0x3f39
 5567 1399 20       		.uleb128 0x20
 5568 139a 01       		.uleb128 0x1
 5569 139b 51       		.byte	0x51
 5570 139c 02       		.uleb128 0x2
 5571 139d 74       		.byte	0x74
 5572 139e 00       		.sleb128 0
 5573 139f 20       		.uleb128 0x20
 5574 13a0 01       		.uleb128 0x1
 5575 13a1 50       		.byte	0x50
 5576 13a2 02       		.uleb128 0x2
 5577 13a3 08       		.byte	0x8
 5578 13a4 27       		.byte	0x27
ARM GAS  C:\Users\AHMED~1.ELE\AppData\Local\Temp\cc594ylT.s 			page 120


 5579 13a5 00       		.byte	0
 5580 13a6 00       		.byte	0
 5581 13a7 1C       		.uleb128 0x1c
 5582 13a8 E30B0000 		.4byte	.LASF656
 5583 13ac 01       		.byte	0x1
 5584 13ad B6       		.byte	0xb6
 5585 13ae 97000000 		.4byte	0x97
 5586 13b2 00000000 		.4byte	.LFB2
 5587 13b6 24000000 		.4byte	.LFE2-.LFB2
 5588 13ba 01       		.uleb128 0x1
 5589 13bb 9C       		.byte	0x9c
 5590 13bc EF130000 		.4byte	0x13ef
 5591 13c0 21       		.uleb128 0x21
 5592 13c1 0C000000 		.4byte	.LVL7
 5593 13c5 3B130000 		.4byte	0x133b
 5594 13c9 DD130000 		.4byte	0x13dd
 5595 13cd 20       		.uleb128 0x20
 5596 13ce 01       		.uleb128 0x1
 5597 13cf 52       		.byte	0x52
 5598 13d0 01       		.uleb128 0x1
 5599 13d1 30       		.byte	0x30
 5600 13d2 20       		.uleb128 0x20
 5601 13d3 01       		.uleb128 0x1
 5602 13d4 51       		.byte	0x51
 5603 13d5 01       		.uleb128 0x1
 5604 13d6 30       		.byte	0x30
 5605 13d7 20       		.uleb128 0x20
 5606 13d8 01       		.uleb128 0x1
 5607 13d9 50       		.byte	0x50
 5608 13da 01       		.uleb128 0x1
 5609 13db 30       		.byte	0x30
 5610 13dc 00       		.byte	0
 5611 13dd 1F       		.uleb128 0x1f
 5612 13de 14000000 		.4byte	.LVL8
 5613 13e2 5D3F0000 		.4byte	0x3f5d
 5614 13e6 20       		.uleb128 0x20
 5615 13e7 01       		.uleb128 0x1
 5616 13e8 50       		.byte	0x50
 5617 13e9 03       		.uleb128 0x3
 5618 13ea 0A       		.byte	0xa
 5619 13eb CB01     		.2byte	0x1cb
 5620 13ed 00       		.byte	0
 5621 13ee 00       		.byte	0
 5622 13ef 22       		.uleb128 0x22
 5623 13f0 93100000 		.4byte	.LASF657
 5624 13f4 01       		.byte	0x1
 5625 13f5 CA       		.byte	0xca
 5626 13f6 97000000 		.4byte	0x97
 5627 13fa 00000000 		.4byte	.LFB3
 5628 13fe 24010000 		.4byte	.LFE3-.LFB3
 5629 1402 01       		.uleb128 0x1
 5630 1403 9C       		.byte	0x9c
 5631 1404 C2160000 		.4byte	0x16c2
 5632 1408 1D       		.uleb128 0x1d
 5633 1409 0B070000 		.4byte	.LASF658
 5634 140d 01       		.byte	0x1
 5635 140e CA       		.byte	0xca
ARM GAS  C:\Users\AHMED~1.ELE\AppData\Local\Temp\cc594ylT.s 			page 121


 5636 140f B8000000 		.4byte	0xb8
 5637 1413 7E000000 		.4byte	.LLST4
 5638 1417 1D       		.uleb128 0x1d
 5639 1418 C0290000 		.4byte	.LASF659
 5640 141c 01       		.byte	0x1
 5641 141d CA       		.byte	0xca
 5642 141e C2160000 		.4byte	0x16c2
 5643 1422 C3000000 		.4byte	.LLST5
 5644 1426 1D       		.uleb128 0x1d
 5645 1427 DF1F0000 		.4byte	.LASF660
 5646 142b 01       		.byte	0x1
 5647 142c CA       		.byte	0xca
 5648 142d C8160000 		.4byte	0x16c8
 5649 1431 FA000000 		.4byte	.LLST6
 5650 1435 1D       		.uleb128 0x1d
 5651 1436 00220000 		.4byte	.LASF661
 5652 143a 01       		.byte	0x1
 5653 143b CA       		.byte	0xca
 5654 143c B8000000 		.4byte	0xb8
 5655 1440 26010000 		.4byte	.LLST7
 5656 1444 23       		.uleb128 0x23
 5657 1445 72657400 		.ascii	"ret\000"
 5658 1449 01       		.byte	0x1
 5659 144a CE       		.byte	0xce
 5660 144b 5D000000 		.4byte	0x5d
 5661 144f 53010000 		.4byte	.LLST8
 5662 1453 24       		.uleb128 0x24
 5663 1454 32140000 		.4byte	.LASF663
 5664 1458 01       		.byte	0x1
 5665 1459 CF       		.byte	0xcf
 5666 145a C9000000 		.4byte	0xc9
 5667 145e 03       		.uleb128 0x3
 5668 145f 91       		.byte	0x91
 5669 1460 E07E     		.sleb128 -160
 5670 1462 1E       		.uleb128 0x1e
 5671 1463 4E250000 		.4byte	.LASF664
 5672 1467 01       		.byte	0x1
 5673 1468 D0       		.byte	0xd0
 5674 1469 C3000000 		.4byte	0xc3
 5675 146d 92010000 		.4byte	.LLST9
 5676 1471 25       		.uleb128 0x25
 5677 1472 75170000 		.4byte	.LASF665
 5678 1476 01       		.byte	0x1
 5679 1477 D1       		.byte	0xd1
 5680 1478 AD000000 		.4byte	0xad
 5681 147c 005F     		.2byte	0x5f00
 5682 147e 26       		.uleb128 0x26
 5683 147f 880C0000 		.4byte	.LASF666
 5684 1483 01       		.byte	0x1
 5685 1484 D2       		.byte	0xd2
 5686 1485 AD000000 		.4byte	0xad
 5687 1489 00       		.byte	0
 5688 148a 1E       		.uleb128 0x1e
 5689 148b 101A0000 		.4byte	.LASF662
 5690 148f 01       		.byte	0x1
 5691 1490 D3       		.byte	0xd3
 5692 1491 B8000000 		.4byte	0xb8
ARM GAS  C:\Users\AHMED~1.ELE\AppData\Local\Temp\cc594ylT.s 			page 122


 5693 1495 B0010000 		.4byte	.LLST10
 5694 1499 27       		.uleb128 0x27
 5695 149a 28000000 		.4byte	.LBB2
 5696 149e 3C000000 		.4byte	.LBE2-.LBB2
 5697 14a2 59150000 		.4byte	0x1559
 5698 14a6 23       		.uleb128 0x23
 5699 14a7 6C656E00 		.ascii	"len\000"
 5700 14ab 01       		.byte	0x1
 5701 14ac D7       		.byte	0xd7
 5702 14ad B8000000 		.4byte	0xb8
 5703 14b1 CF010000 		.4byte	.LLST11
 5704 14b5 23       		.uleb128 0x23
 5705 14b6 70747200 		.ascii	"ptr\000"
 5706 14ba 01       		.byte	0x1
 5707 14bb D7       		.byte	0xd7
 5708 14bc C3000000 		.4byte	0xc3
 5709 14c0 ED010000 		.4byte	.LLST12
 5710 14c4 21       		.uleb128 0x21
 5711 14c5 2E000000 		.4byte	.LVL18
 5712 14c9 723F0000 		.4byte	0x3f72
 5713 14cd D9140000 		.4byte	0x14d9
 5714 14d1 20       		.uleb128 0x20
 5715 14d2 01       		.uleb128 0x1
 5716 14d3 50       		.byte	0x50
 5717 14d4 03       		.uleb128 0x3
 5718 14d5 91       		.byte	0x91
 5719 14d6 E07E     		.sleb128 -160
 5720 14d8 00       		.byte	0
 5721 14d9 21       		.uleb128 0x21
 5722 14da 38000000 		.4byte	.LVL21
 5723 14de 873F0000 		.4byte	0x3f87
 5724 14e2 F3140000 		.4byte	0x14f3
 5725 14e6 20       		.uleb128 0x20
 5726 14e7 01       		.uleb128 0x1
 5727 14e8 51       		.byte	0x51
 5728 14e9 02       		.uleb128 0x2
 5729 14ea 75       		.byte	0x75
 5730 14eb 01       		.sleb128 1
 5731 14ec 20       		.uleb128 0x20
 5732 14ed 01       		.uleb128 0x1
 5733 14ee 50       		.byte	0x50
 5734 14ef 02       		.uleb128 0x2
 5735 14f0 08       		.byte	0x8
 5736 14f1 92       		.byte	0x92
 5737 14f2 00       		.byte	0
 5738 14f3 21       		.uleb128 0x21
 5739 14f4 44000000 		.4byte	.LVL22
 5740 14f8 A13F0000 		.4byte	0x3fa1
 5741 14fc 14150000 		.4byte	0x1514
 5742 1500 20       		.uleb128 0x20
 5743 1501 01       		.uleb128 0x1
 5744 1502 52       		.byte	0x52
 5745 1503 02       		.uleb128 0x2
 5746 1504 75       		.byte	0x75
 5747 1505 00       		.sleb128 0
 5748 1506 20       		.uleb128 0x20
 5749 1507 01       		.uleb128 0x1
ARM GAS  C:\Users\AHMED~1.ELE\AppData\Local\Temp\cc594ylT.s 			page 123


 5750 1508 51       		.byte	0x51
 5751 1509 03       		.uleb128 0x3
 5752 150a 91       		.byte	0x91
 5753 150b E07E     		.sleb128 -160
 5754 150d 20       		.uleb128 0x20
 5755 150e 01       		.uleb128 0x1
 5756 150f 50       		.byte	0x50
 5757 1510 02       		.uleb128 0x2
 5758 1511 74       		.byte	0x74
 5759 1512 00       		.sleb128 0
 5760 1513 00       		.byte	0
 5761 1514 21       		.uleb128 0x21
 5762 1515 5C000000 		.4byte	.LVL23
 5763 1519 BE3F0000 		.4byte	0x3fbe
 5764 151d 42150000 		.4byte	0x1542
 5765 1521 20       		.uleb128 0x20
 5766 1522 01       		.uleb128 0x1
 5767 1523 53       		.byte	0x53
 5768 1524 03       		.uleb128 0x3
 5769 1525 0A       		.byte	0xa
 5770 1526 0009     		.2byte	0x900
 5771 1528 20       		.uleb128 0x20
 5772 1529 01       		.uleb128 0x1
 5773 152a 52       		.byte	0x52
 5774 152b 02       		.uleb128 0x2
 5775 152c 74       		.byte	0x74
 5776 152d 00       		.sleb128 0
 5777 152e 20       		.uleb128 0x20
 5778 152f 01       		.uleb128 0x1
 5779 1530 51       		.byte	0x51
 5780 1531 02       		.uleb128 0x2
 5781 1532 08       		.byte	0x8
 5782 1533 25       		.byte	0x25
 5783 1534 20       		.uleb128 0x20
 5784 1535 01       		.uleb128 0x1
 5785 1536 50       		.byte	0x50
 5786 1537 01       		.uleb128 0x1
 5787 1538 3F       		.byte	0x3f
 5788 1539 20       		.uleb128 0x20
 5789 153a 02       		.uleb128 0x2
 5790 153b 7D       		.byte	0x7d
 5791 153c 00       		.sleb128 0
 5792 153d 03       		.uleb128 0x3
 5793 153e 0A       		.byte	0xa
 5794 153f 1220     		.2byte	0x2012
 5795 1541 00       		.byte	0
 5796 1542 1F       		.uleb128 0x1f
 5797 1543 64000000 		.4byte	.LVL24
 5798 1547 873F0000 		.4byte	0x3f87
 5799 154b 20       		.uleb128 0x20
 5800 154c 01       		.uleb128 0x1
 5801 154d 51       		.byte	0x51
 5802 154e 02       		.uleb128 0x2
 5803 154f 74       		.byte	0x74
 5804 1550 00       		.sleb128 0
 5805 1551 20       		.uleb128 0x20
 5806 1552 01       		.uleb128 0x1
ARM GAS  C:\Users\AHMED~1.ELE\AppData\Local\Temp\cc594ylT.s 			page 124


 5807 1553 50       		.byte	0x50
 5808 1554 02       		.uleb128 0x2
 5809 1555 08       		.byte	0x8
 5810 1556 94       		.byte	0x94
 5811 1557 00       		.byte	0
 5812 1558 00       		.byte	0
 5813 1559 27       		.uleb128 0x27
 5814 155a 98000000 		.4byte	.LBB3
 5815 155e 74000000 		.4byte	.LBE3-.LBB3
 5816 1562 F7150000 		.4byte	0x15f7
 5817 1566 23       		.uleb128 0x23
 5818 1567 70747200 		.ascii	"ptr\000"
 5819 156b 01       		.byte	0x1
 5820 156c EC       		.byte	0xec
 5821 156d CE160000 		.4byte	0x16ce
 5822 1571 0B020000 		.4byte	.LLST13
 5823 1575 1E       		.uleb128 0x1e
 5824 1576 B1060000 		.4byte	.LASF667
 5825 157a 01       		.byte	0x1
 5826 157b ED       		.byte	0xed
 5827 157c B8000000 		.4byte	0xb8
 5828 1580 1E020000 		.4byte	.LLST14
 5829 1584 1E       		.uleb128 0x1e
 5830 1585 300D0000 		.4byte	.LASF668
 5831 1589 01       		.byte	0x1
 5832 158a EE       		.byte	0xee
 5833 158b B8000000 		.4byte	0xb8
 5834 158f 31020000 		.4byte	.LLST15
 5835 1593 1E       		.uleb128 0x1e
 5836 1594 720C0000 		.4byte	.LASF669
 5837 1598 01       		.byte	0x1
 5838 1599 EF       		.byte	0xef
 5839 159a B8000000 		.4byte	0xb8
 5840 159e 44020000 		.4byte	.LLST16
 5841 15a2 23       		.uleb128 0x23
 5842 15a3 6900     		.ascii	"i\000"
 5843 15a5 01       		.byte	0x1
 5844 15a6 F0       		.byte	0xf0
 5845 15a7 5D000000 		.4byte	0x5d
 5846 15ab 57020000 		.4byte	.LLST17
 5847 15af 23       		.uleb128 0x23
 5848 15b0 6A00     		.ascii	"j\000"
 5849 15b2 01       		.byte	0x1
 5850 15b3 F0       		.byte	0xf0
 5851 15b4 5D000000 		.4byte	0x5d
 5852 15b8 6A020000 		.4byte	.LLST18
 5853 15bc 21       		.uleb128 0x21
 5854 15bd A0000000 		.4byte	.LVL33
 5855 15c1 A13F0000 		.4byte	0x3fa1
 5856 15c5 DB150000 		.4byte	0x15db
 5857 15c9 20       		.uleb128 0x20
 5858 15ca 01       		.uleb128 0x1
 5859 15cb 52       		.byte	0x52
 5860 15cc 01       		.uleb128 0x1
 5861 15cd 3C       		.byte	0x3c
 5862 15ce 20       		.uleb128 0x20
 5863 15cf 01       		.uleb128 0x1
ARM GAS  C:\Users\AHMED~1.ELE\AppData\Local\Temp\cc594ylT.s 			page 125


 5864 15d0 51       		.byte	0x51
 5865 15d1 02       		.uleb128 0x2
 5866 15d2 76       		.byte	0x76
 5867 15d3 00       		.sleb128 0
 5868 15d4 20       		.uleb128 0x20
 5869 15d5 01       		.uleb128 0x1
 5870 15d6 50       		.byte	0x50
 5871 15d7 02       		.uleb128 0x2
 5872 15d8 74       		.byte	0x74
 5873 15d9 00       		.sleb128 0
 5874 15da 00       		.byte	0
 5875 15db 1F       		.uleb128 0x1f
 5876 15dc 0C010000 		.4byte	.LVL49
 5877 15e0 3B130000 		.4byte	0x133b
 5878 15e4 20       		.uleb128 0x20
 5879 15e5 01       		.uleb128 0x1
 5880 15e6 52       		.byte	0x52
 5881 15e7 01       		.uleb128 0x1
 5882 15e8 30       		.byte	0x30
 5883 15e9 20       		.uleb128 0x20
 5884 15ea 01       		.uleb128 0x1
 5885 15eb 51       		.byte	0x51
 5886 15ec 02       		.uleb128 0x2
 5887 15ed 76       		.byte	0x76
 5888 15ee 00       		.sleb128 0
 5889 15ef 20       		.uleb128 0x20
 5890 15f0 01       		.uleb128 0x1
 5891 15f1 50       		.byte	0x50
 5892 15f2 02       		.uleb128 0x2
 5893 15f3 74       		.byte	0x74
 5894 15f4 00       		.sleb128 0
 5895 15f5 00       		.byte	0
 5896 15f6 00       		.byte	0
 5897 15f7 21       		.uleb128 0x21
 5898 15f8 1C000000 		.4byte	.LVL15
 5899 15fc 393F0000 		.4byte	0x3f39
 5900 1600 1E160000 		.4byte	0x161e
 5901 1604 20       		.uleb128 0x20
 5902 1605 01       		.uleb128 0x1
 5903 1606 53       		.byte	0x53
 5904 1607 02       		.uleb128 0x2
 5905 1608 78       		.byte	0x78
 5906 1609 00       		.sleb128 0
 5907 160a 20       		.uleb128 0x20
 5908 160b 01       		.uleb128 0x1
 5909 160c 52       		.byte	0x52
 5910 160d 02       		.uleb128 0x2
 5911 160e 76       		.byte	0x76
 5912 160f 00       		.sleb128 0
 5913 1610 20       		.uleb128 0x20
 5914 1611 01       		.uleb128 0x1
 5915 1612 51       		.byte	0x51
 5916 1613 02       		.uleb128 0x2
 5917 1614 75       		.byte	0x75
 5918 1615 00       		.sleb128 0
 5919 1616 20       		.uleb128 0x20
 5920 1617 01       		.uleb128 0x1
ARM GAS  C:\Users\AHMED~1.ELE\AppData\Local\Temp\cc594ylT.s 			page 126


 5921 1618 50       		.byte	0x50
 5922 1619 03       		.uleb128 0x3
 5923 161a 0A       		.byte	0xa
 5924 161b D601     		.2byte	0x1d6
 5925 161d 00       		.byte	0
 5926 161e 21       		.uleb128 0x21
 5927 161f 28000000 		.4byte	.LVL17
 5928 1623 E73F0000 		.4byte	0x3fe7
 5929 1627 3C160000 		.4byte	0x163c
 5930 162b 20       		.uleb128 0x20
 5931 162c 01       		.uleb128 0x1
 5932 162d 51       		.byte	0x51
 5933 162e 05       		.uleb128 0x5
 5934 162f 03       		.byte	0x3
 5935 1630 00000000 		.4byte	.LC0
 5936 1634 20       		.uleb128 0x20
 5937 1635 01       		.uleb128 0x1
 5938 1636 50       		.byte	0x50
 5939 1637 03       		.uleb128 0x3
 5940 1638 91       		.byte	0x91
 5941 1639 E07E     		.sleb128 -160
 5942 163b 00       		.byte	0
 5943 163c 21       		.uleb128 0x21
 5944 163d 76000000 		.4byte	.LVL26
 5945 1641 BE3F0000 		.4byte	0x3fbe
 5946 1645 68160000 		.4byte	0x1668
 5947 1649 20       		.uleb128 0x20
 5948 164a 01       		.uleb128 0x1
 5949 164b 53       		.byte	0x53
 5950 164c 02       		.uleb128 0x2
 5951 164d 74       		.byte	0x74
 5952 164e 00       		.sleb128 0
 5953 164f 20       		.uleb128 0x20
 5954 1650 01       		.uleb128 0x1
 5955 1651 52       		.byte	0x52
 5956 1652 03       		.uleb128 0x3
 5957 1653 0A       		.byte	0xa
 5958 1654 2823     		.2byte	0x2328
 5959 1656 20       		.uleb128 0x20
 5960 1657 01       		.uleb128 0x1
 5961 1658 51       		.byte	0x51
 5962 1659 01       		.uleb128 0x1
 5963 165a 33       		.byte	0x33
 5964 165b 20       		.uleb128 0x20
 5965 165c 01       		.uleb128 0x1
 5966 165d 50       		.byte	0x50
 5967 165e 01       		.uleb128 0x1
 5968 165f 40       		.byte	0x40
 5969 1660 20       		.uleb128 0x20
 5970 1661 02       		.uleb128 0x2
 5971 1662 7D       		.byte	0x7d
 5972 1663 00       		.sleb128 0
 5973 1664 02       		.uleb128 0x2
 5974 1665 74       		.byte	0x74
 5975 1666 00       		.sleb128 0
 5976 1667 00       		.byte	0
 5977 1668 21       		.uleb128 0x21
ARM GAS  C:\Users\AHMED~1.ELE\AppData\Local\Temp\cc594ylT.s 			page 127


 5978 1669 88000000 		.4byte	.LVL29
 5979 166d 393F0000 		.4byte	0x3f39
 5980 1671 8E160000 		.4byte	0x168e
 5981 1675 20       		.uleb128 0x20
 5982 1676 01       		.uleb128 0x1
 5983 1677 53       		.byte	0x53
 5984 1678 02       		.uleb128 0x2
 5985 1679 76       		.byte	0x76
 5986 167a 00       		.sleb128 0
 5987 167b 20       		.uleb128 0x20
 5988 167c 01       		.uleb128 0x1
 5989 167d 52       		.byte	0x52
 5990 167e 02       		.uleb128 0x2
 5991 167f 76       		.byte	0x76
 5992 1680 00       		.sleb128 0
 5993 1681 20       		.uleb128 0x20
 5994 1682 01       		.uleb128 0x1
 5995 1683 51       		.byte	0x51
 5996 1684 02       		.uleb128 0x2
 5997 1685 76       		.byte	0x76
 5998 1686 00       		.sleb128 0
 5999 1687 20       		.uleb128 0x20
 6000 1688 01       		.uleb128 0x1
 6001 1689 50       		.byte	0x50
 6002 168a 02       		.uleb128 0x2
 6003 168b 08       		.byte	0x8
 6004 168c 27       		.byte	0x27
 6005 168d 00       		.byte	0
 6006 168e 21       		.uleb128 0x21
 6007 168f 92000000 		.4byte	.LVL32
 6008 1693 873F0000 		.4byte	0x3f87
 6009 1697 AB160000 		.4byte	0x16ab
 6010 169b 20       		.uleb128 0x20
 6011 169c 01       		.uleb128 0x1
 6012 169d 51       		.byte	0x51
 6013 169e 05       		.uleb128 0x5
 6014 169f 0C       		.byte	0xc
 6015 16a0 0C580200 		.4byte	0x2580c
 6016 16a4 20       		.uleb128 0x20
 6017 16a5 01       		.uleb128 0x1
 6018 16a6 50       		.byte	0x50
 6019 16a7 02       		.uleb128 0x2
 6020 16a8 08       		.byte	0x8
 6021 16a9 92       		.byte	0x92
 6022 16aa 00       		.byte	0
 6023 16ab 1F       		.uleb128 0x1f
 6024 16ac 14010000 		.4byte	.LVL50
 6025 16b0 873F0000 		.4byte	0x3f87
 6026 16b4 20       		.uleb128 0x20
 6027 16b5 01       		.uleb128 0x1
 6028 16b6 51       		.byte	0x51
 6029 16b7 02       		.uleb128 0x2
 6030 16b8 74       		.byte	0x74
 6031 16b9 00       		.sleb128 0
 6032 16ba 20       		.uleb128 0x20
 6033 16bb 01       		.uleb128 0x1
 6034 16bc 50       		.byte	0x50
ARM GAS  C:\Users\AHMED~1.ELE\AppData\Local\Temp\cc594ylT.s 			page 128


 6035 16bd 02       		.uleb128 0x2
 6036 16be 08       		.byte	0x8
 6037 16bf 94       		.byte	0x94
 6038 16c0 00       		.byte	0
 6039 16c1 00       		.byte	0
 6040 16c2 06       		.uleb128 0x6
 6041 16c3 04       		.byte	0x4
 6042 16c4 F10D0000 		.4byte	0xdf1
 6043 16c8 06       		.uleb128 0x6
 6044 16c9 04       		.byte	0x4
 6045 16ca 870E0000 		.4byte	0xe87
 6046 16ce 06       		.uleb128 0x6
 6047 16cf 04       		.byte	0x4
 6048 16d0 AD000000 		.4byte	0xad
 6049 16d4 22       		.uleb128 0x22
 6050 16d5 95050000 		.4byte	.LASF670
 6051 16d9 01       		.byte	0x1
 6052 16da 6D       		.byte	0x6d
 6053 16db 97000000 		.4byte	0x97
 6054 16df 00000000 		.4byte	.LFB1
 6055 16e3 40010000 		.4byte	.LFE1-.LFB1
 6056 16e7 01       		.uleb128 0x1
 6057 16e8 9C       		.byte	0x9c
 6058 16e9 C9190000 		.4byte	0x19c9
 6059 16ed 1D       		.uleb128 0x1d
 6060 16ee 0B070000 		.4byte	.LASF658
 6061 16f2 01       		.byte	0x1
 6062 16f3 6D       		.byte	0x6d
 6063 16f4 B8000000 		.4byte	0xb8
 6064 16f8 95020000 		.4byte	.LLST19
 6065 16fc 1D       		.uleb128 0x1d
 6066 16fd C0290000 		.4byte	.LASF659
 6067 1701 01       		.byte	0x1
 6068 1702 6D       		.byte	0x6d
 6069 1703 C2160000 		.4byte	0x16c2
 6070 1707 DA020000 		.4byte	.LLST20
 6071 170b 1D       		.uleb128 0x1d
 6072 170c DF1F0000 		.4byte	.LASF660
 6073 1710 01       		.byte	0x1
 6074 1711 6D       		.byte	0x6d
 6075 1712 C8160000 		.4byte	0x16c8
 6076 1716 1F030000 		.4byte	.LLST21
 6077 171a 1D       		.uleb128 0x1d
 6078 171b 00220000 		.4byte	.LASF661
 6079 171f 01       		.byte	0x1
 6080 1720 6D       		.byte	0x6d
 6081 1721 B8000000 		.4byte	0xb8
 6082 1725 4B030000 		.4byte	.LLST22
 6083 1729 23       		.uleb128 0x23
 6084 172a 72657400 		.ascii	"ret\000"
 6085 172e 01       		.byte	0x1
 6086 172f 71       		.byte	0x71
 6087 1730 5D000000 		.4byte	0x5d
 6088 1734 78030000 		.4byte	.LLST23
 6089 1738 24       		.uleb128 0x24
 6090 1739 32140000 		.4byte	.LASF663
 6091 173d 01       		.byte	0x1
ARM GAS  C:\Users\AHMED~1.ELE\AppData\Local\Temp\cc594ylT.s 			page 129


 6092 173e 72       		.byte	0x72
 6093 173f C9000000 		.4byte	0xc9
 6094 1743 03       		.uleb128 0x3
 6095 1744 91       		.byte	0x91
 6096 1745 E07E     		.sleb128 -160
 6097 1747 1E       		.uleb128 0x1e
 6098 1748 4E250000 		.4byte	.LASF664
 6099 174c 01       		.byte	0x1
 6100 174d 73       		.byte	0x73
 6101 174e C3000000 		.4byte	0xc3
 6102 1752 AC030000 		.4byte	.LLST24
 6103 1756 25       		.uleb128 0x25
 6104 1757 75170000 		.4byte	.LASF665
 6105 175b 01       		.byte	0x1
 6106 175c 74       		.byte	0x74
 6107 175d AD000000 		.4byte	0xad
 6108 1761 005F     		.2byte	0x5f00
 6109 1763 26       		.uleb128 0x26
 6110 1764 880C0000 		.4byte	.LASF666
 6111 1768 01       		.byte	0x1
 6112 1769 75       		.byte	0x75
 6113 176a AD000000 		.4byte	0xad
 6114 176e 00       		.byte	0
 6115 176f 1E       		.uleb128 0x1e
 6116 1770 101A0000 		.4byte	.LASF662
 6117 1774 01       		.byte	0x1
 6118 1775 76       		.byte	0x76
 6119 1776 B8000000 		.4byte	0xb8
 6120 177a CA030000 		.4byte	.LLST25
 6121 177e 1E       		.uleb128 0x1e
 6122 177f 55140000 		.4byte	.LASF671
 6123 1783 01       		.byte	0x1
 6124 1784 77       		.byte	0x77
 6125 1785 B8000000 		.4byte	0xb8
 6126 1789 E9030000 		.4byte	.LLST26
 6127 178d 27       		.uleb128 0x27
 6128 178e 3A000000 		.4byte	.LBB4
 6129 1792 3A000000 		.4byte	.LBE4-.LBB4
 6130 1796 4D180000 		.4byte	0x184d
 6131 179a 23       		.uleb128 0x23
 6132 179b 6C656E00 		.ascii	"len\000"
 6133 179f 01       		.byte	0x1
 6134 17a0 80       		.byte	0x80
 6135 17a1 B8000000 		.4byte	0xb8
 6136 17a5 2D040000 		.4byte	.LLST27
 6137 17a9 23       		.uleb128 0x23
 6138 17aa 70747200 		.ascii	"ptr\000"
 6139 17ae 01       		.byte	0x1
 6140 17af 80       		.byte	0x80
 6141 17b0 C3000000 		.4byte	0xc3
 6142 17b4 4B040000 		.4byte	.LLST28
 6143 17b8 21       		.uleb128 0x21
 6144 17b9 40000000 		.4byte	.LVL63
 6145 17bd 723F0000 		.4byte	0x3f72
 6146 17c1 CD170000 		.4byte	0x17cd
 6147 17c5 20       		.uleb128 0x20
 6148 17c6 01       		.uleb128 0x1
ARM GAS  C:\Users\AHMED~1.ELE\AppData\Local\Temp\cc594ylT.s 			page 130


 6149 17c7 50       		.byte	0x50
 6150 17c8 03       		.uleb128 0x3
 6151 17c9 91       		.byte	0x91
 6152 17ca E07E     		.sleb128 -160
 6153 17cc 00       		.byte	0
 6154 17cd 21       		.uleb128 0x21
 6155 17ce 4A000000 		.4byte	.LVL66
 6156 17d2 873F0000 		.4byte	0x3f87
 6157 17d6 E7170000 		.4byte	0x17e7
 6158 17da 20       		.uleb128 0x20
 6159 17db 01       		.uleb128 0x1
 6160 17dc 51       		.byte	0x51
 6161 17dd 02       		.uleb128 0x2
 6162 17de 76       		.byte	0x76
 6163 17df 01       		.sleb128 1
 6164 17e0 20       		.uleb128 0x20
 6165 17e1 01       		.uleb128 0x1
 6166 17e2 50       		.byte	0x50
 6167 17e3 02       		.uleb128 0x2
 6168 17e4 08       		.byte	0x8
 6169 17e5 92       		.byte	0x92
 6170 17e6 00       		.byte	0
 6171 17e7 21       		.uleb128 0x21
 6172 17e8 56000000 		.4byte	.LVL68
 6173 17ec A13F0000 		.4byte	0x3fa1
 6174 17f0 08180000 		.4byte	0x1808
 6175 17f4 20       		.uleb128 0x20
 6176 17f5 01       		.uleb128 0x1
 6177 17f6 52       		.byte	0x52
 6178 17f7 02       		.uleb128 0x2
 6179 17f8 76       		.byte	0x76
 6180 17f9 00       		.sleb128 0
 6181 17fa 20       		.uleb128 0x20
 6182 17fb 01       		.uleb128 0x1
 6183 17fc 51       		.byte	0x51
 6184 17fd 03       		.uleb128 0x3
 6185 17fe 91       		.byte	0x91
 6186 17ff E07E     		.sleb128 -160
 6187 1801 20       		.uleb128 0x20
 6188 1802 01       		.uleb128 0x1
 6189 1803 50       		.byte	0x50
 6190 1804 02       		.uleb128 0x2
 6191 1805 75       		.byte	0x75
 6192 1806 00       		.sleb128 0
 6193 1807 00       		.byte	0
 6194 1808 21       		.uleb128 0x21
 6195 1809 6C000000 		.4byte	.LVL69
 6196 180d BE3F0000 		.4byte	0x3fbe
 6197 1811 36180000 		.4byte	0x1836
 6198 1815 20       		.uleb128 0x20
 6199 1816 01       		.uleb128 0x1
 6200 1817 53       		.byte	0x53
 6201 1818 03       		.uleb128 0x3
 6202 1819 0A       		.byte	0xa
 6203 181a 0009     		.2byte	0x900
 6204 181c 20       		.uleb128 0x20
 6205 181d 01       		.uleb128 0x1
ARM GAS  C:\Users\AHMED~1.ELE\AppData\Local\Temp\cc594ylT.s 			page 131


 6206 181e 52       		.byte	0x52
 6207 181f 02       		.uleb128 0x2
 6208 1820 75       		.byte	0x75
 6209 1821 00       		.sleb128 0
 6210 1822 20       		.uleb128 0x20
 6211 1823 01       		.uleb128 0x1
 6212 1824 51       		.byte	0x51
 6213 1825 02       		.uleb128 0x2
 6214 1826 08       		.byte	0x8
 6215 1827 25       		.byte	0x25
 6216 1828 20       		.uleb128 0x20
 6217 1829 01       		.uleb128 0x1
 6218 182a 50       		.byte	0x50
 6219 182b 01       		.uleb128 0x1
 6220 182c 3F       		.byte	0x3f
 6221 182d 20       		.uleb128 0x20
 6222 182e 02       		.uleb128 0x2
 6223 182f 7D       		.byte	0x7d
 6224 1830 00       		.sleb128 0
 6225 1831 03       		.uleb128 0x3
 6226 1832 0A       		.byte	0xa
 6227 1833 1220     		.2byte	0x2012
 6228 1835 00       		.byte	0
 6229 1836 1F       		.uleb128 0x1f
 6230 1837 74000000 		.4byte	.LVL70
 6231 183b 873F0000 		.4byte	0x3f87
 6232 183f 20       		.uleb128 0x20
 6233 1840 01       		.uleb128 0x1
 6234 1841 51       		.byte	0x51
 6235 1842 02       		.uleb128 0x2
 6236 1843 75       		.byte	0x75
 6237 1844 00       		.sleb128 0
 6238 1845 20       		.uleb128 0x20
 6239 1846 01       		.uleb128 0x1
 6240 1847 50       		.byte	0x50
 6241 1848 02       		.uleb128 0x2
 6242 1849 08       		.byte	0x8
 6243 184a 94       		.byte	0x94
 6244 184b 00       		.byte	0
 6245 184c 00       		.byte	0
 6246 184d 27       		.uleb128 0x27
 6247 184e A8000000 		.4byte	.LBB5
 6248 1852 76000000 		.4byte	.LBE5-.LBB5
 6249 1856 EB180000 		.4byte	0x18eb
 6250 185a 23       		.uleb128 0x23
 6251 185b 70747200 		.ascii	"ptr\000"
 6252 185f 01       		.byte	0x1
 6253 1860 96       		.byte	0x96
 6254 1861 CE160000 		.4byte	0x16ce
 6255 1865 69040000 		.4byte	.LLST29
 6256 1869 1E       		.uleb128 0x1e
 6257 186a B1060000 		.4byte	.LASF667
 6258 186e 01       		.byte	0x1
 6259 186f 97       		.byte	0x97
 6260 1870 B8000000 		.4byte	0xb8
 6261 1874 7C040000 		.4byte	.LLST30
 6262 1878 1E       		.uleb128 0x1e
ARM GAS  C:\Users\AHMED~1.ELE\AppData\Local\Temp\cc594ylT.s 			page 132


 6263 1879 300D0000 		.4byte	.LASF668
 6264 187d 01       		.byte	0x1
 6265 187e 98       		.byte	0x98
 6266 187f B8000000 		.4byte	0xb8
 6267 1883 8F040000 		.4byte	.LLST31
 6268 1887 1E       		.uleb128 0x1e
 6269 1888 720C0000 		.4byte	.LASF669
 6270 188c 01       		.byte	0x1
 6271 188d 99       		.byte	0x99
 6272 188e B8000000 		.4byte	0xb8
 6273 1892 A2040000 		.4byte	.LLST32
 6274 1896 23       		.uleb128 0x23
 6275 1897 6900     		.ascii	"i\000"
 6276 1899 01       		.byte	0x1
 6277 189a 9A       		.byte	0x9a
 6278 189b 5D000000 		.4byte	0x5d
 6279 189f B5040000 		.4byte	.LLST33
 6280 18a3 23       		.uleb128 0x23
 6281 18a4 6A00     		.ascii	"j\000"
 6282 18a6 01       		.byte	0x1
 6283 18a7 9A       		.byte	0x9a
 6284 18a8 5D000000 		.4byte	0x5d
 6285 18ac C8040000 		.4byte	.LLST34
 6286 18b0 21       		.uleb128 0x21
 6287 18b1 B0000000 		.4byte	.LVL77
 6288 18b5 A13F0000 		.4byte	0x3fa1
 6289 18b9 CF180000 		.4byte	0x18cf
 6290 18bd 20       		.uleb128 0x20
 6291 18be 01       		.uleb128 0x1
 6292 18bf 52       		.byte	0x52
 6293 18c0 01       		.uleb128 0x1
 6294 18c1 3C       		.byte	0x3c
 6295 18c2 20       		.uleb128 0x20
 6296 18c3 01       		.uleb128 0x1
 6297 18c4 51       		.byte	0x51
 6298 18c5 02       		.uleb128 0x2
 6299 18c6 76       		.byte	0x76
 6300 18c7 00       		.sleb128 0
 6301 18c8 20       		.uleb128 0x20
 6302 18c9 01       		.uleb128 0x1
 6303 18ca 50       		.byte	0x50
 6304 18cb 02       		.uleb128 0x2
 6305 18cc 74       		.byte	0x74
 6306 18cd 00       		.sleb128 0
 6307 18ce 00       		.byte	0
 6308 18cf 1F       		.uleb128 0x1f
 6309 18d0 1E010000 		.4byte	.LVL93
 6310 18d4 3B130000 		.4byte	0x133b
 6311 18d8 20       		.uleb128 0x20
 6312 18d9 01       		.uleb128 0x1
 6313 18da 52       		.byte	0x52
 6314 18db 01       		.uleb128 0x1
 6315 18dc 30       		.byte	0x30
 6316 18dd 20       		.uleb128 0x20
 6317 18de 01       		.uleb128 0x1
 6318 18df 51       		.byte	0x51
 6319 18e0 02       		.uleb128 0x2
ARM GAS  C:\Users\AHMED~1.ELE\AppData\Local\Temp\cc594ylT.s 			page 133


 6320 18e1 76       		.byte	0x76
 6321 18e2 00       		.sleb128 0
 6322 18e3 20       		.uleb128 0x20
 6323 18e4 01       		.uleb128 0x1
 6324 18e5 50       		.byte	0x50
 6325 18e6 02       		.uleb128 0x2
 6326 18e7 74       		.byte	0x74
 6327 18e8 00       		.sleb128 0
 6328 18e9 00       		.byte	0
 6329 18ea 00       		.byte	0
 6330 18eb 21       		.uleb128 0x21
 6331 18ec 24000000 		.4byte	.LVL57
 6332 18f0 393F0000 		.4byte	0x3f39
 6333 18f4 12190000 		.4byte	0x1912
 6334 18f8 20       		.uleb128 0x20
 6335 18f9 01       		.uleb128 0x1
 6336 18fa 53       		.byte	0x53
 6337 18fb 02       		.uleb128 0x2
 6338 18fc 77       		.byte	0x77
 6339 18fd 00       		.sleb128 0
 6340 18fe 20       		.uleb128 0x20
 6341 18ff 01       		.uleb128 0x1
 6342 1900 52       		.byte	0x52
 6343 1901 02       		.uleb128 0x2
 6344 1902 76       		.byte	0x76
 6345 1903 00       		.sleb128 0
 6346 1904 20       		.uleb128 0x20
 6347 1905 01       		.uleb128 0x1
 6348 1906 51       		.byte	0x51
 6349 1907 02       		.uleb128 0x2
 6350 1908 75       		.byte	0x75
 6351 1909 00       		.sleb128 0
 6352 190a 20       		.uleb128 0x20
 6353 190b 01       		.uleb128 0x1
 6354 190c 50       		.byte	0x50
 6355 190d 03       		.uleb128 0x3
 6356 190e 0A       		.byte	0xa
 6357 190f C801     		.2byte	0x1c8
 6358 1911 00       		.byte	0
 6359 1912 21       		.uleb128 0x21
 6360 1913 30000000 		.4byte	.LVL59
 6361 1917 02400000 		.4byte	0x4002
 6362 191b 25190000 		.4byte	0x1925
 6363 191f 20       		.uleb128 0x20
 6364 1920 01       		.uleb128 0x1
 6365 1921 50       		.byte	0x50
 6366 1922 01       		.uleb128 0x1
 6367 1923 3A       		.byte	0x3a
 6368 1924 00       		.byte	0
 6369 1925 21       		.uleb128 0x21
 6370 1926 3A000000 		.4byte	.LVL62
 6371 192a E73F0000 		.4byte	0x3fe7
 6372 192e 43190000 		.4byte	0x1943
 6373 1932 20       		.uleb128 0x20
 6374 1933 01       		.uleb128 0x1
 6375 1934 51       		.byte	0x51
 6376 1935 05       		.uleb128 0x5
ARM GAS  C:\Users\AHMED~1.ELE\AppData\Local\Temp\cc594ylT.s 			page 134


 6377 1936 03       		.byte	0x3
 6378 1937 14000000 		.4byte	.LC1
 6379 193b 20       		.uleb128 0x20
 6380 193c 01       		.uleb128 0x1
 6381 193d 50       		.byte	0x50
 6382 193e 03       		.uleb128 0x3
 6383 193f 91       		.byte	0x91
 6384 1940 E07E     		.sleb128 -160
 6385 1942 00       		.byte	0
 6386 1943 21       		.uleb128 0x21
 6387 1944 86000000 		.4byte	.LVL72
 6388 1948 BE3F0000 		.4byte	0x3fbe
 6389 194c 6F190000 		.4byte	0x196f
 6390 1950 20       		.uleb128 0x20
 6391 1951 01       		.uleb128 0x1
 6392 1952 53       		.byte	0x53
 6393 1953 02       		.uleb128 0x2
 6394 1954 74       		.byte	0x74
 6395 1955 00       		.sleb128 0
 6396 1956 20       		.uleb128 0x20
 6397 1957 01       		.uleb128 0x1
 6398 1958 52       		.byte	0x52
 6399 1959 03       		.uleb128 0x3
 6400 195a 0A       		.byte	0xa
 6401 195b 2823     		.2byte	0x2328
 6402 195d 20       		.uleb128 0x20
 6403 195e 01       		.uleb128 0x1
 6404 195f 51       		.byte	0x51
 6405 1960 01       		.uleb128 0x1
 6406 1961 33       		.byte	0x33
 6407 1962 20       		.uleb128 0x20
 6408 1963 01       		.uleb128 0x1
 6409 1964 50       		.byte	0x50
 6410 1965 01       		.uleb128 0x1
 6411 1966 40       		.byte	0x40
 6412 1967 20       		.uleb128 0x20
 6413 1968 02       		.uleb128 0x2
 6414 1969 7D       		.byte	0x7d
 6415 196a 00       		.sleb128 0
 6416 196b 02       		.uleb128 0x2
 6417 196c 74       		.byte	0x74
 6418 196d 00       		.sleb128 0
 6419 196e 00       		.byte	0
 6420 196f 21       		.uleb128 0x21
 6421 1970 98000000 		.4byte	.LVL74
 6422 1974 393F0000 		.4byte	0x3f39
 6423 1978 95190000 		.4byte	0x1995
 6424 197c 20       		.uleb128 0x20
 6425 197d 01       		.uleb128 0x1
 6426 197e 53       		.byte	0x53
 6427 197f 02       		.uleb128 0x2
 6428 1980 76       		.byte	0x76
 6429 1981 00       		.sleb128 0
 6430 1982 20       		.uleb128 0x20
 6431 1983 01       		.uleb128 0x1
 6432 1984 52       		.byte	0x52
 6433 1985 02       		.uleb128 0x2
ARM GAS  C:\Users\AHMED~1.ELE\AppData\Local\Temp\cc594ylT.s 			page 135


 6434 1986 76       		.byte	0x76
 6435 1987 00       		.sleb128 0
 6436 1988 20       		.uleb128 0x20
 6437 1989 01       		.uleb128 0x1
 6438 198a 51       		.byte	0x51
 6439 198b 02       		.uleb128 0x2
 6440 198c 76       		.byte	0x76
 6441 198d 00       		.sleb128 0
 6442 198e 20       		.uleb128 0x20
 6443 198f 01       		.uleb128 0x1
 6444 1990 50       		.byte	0x50
 6445 1991 02       		.uleb128 0x2
 6446 1992 08       		.byte	0x8
 6447 1993 27       		.byte	0x27
 6448 1994 00       		.byte	0
 6449 1995 21       		.uleb128 0x21
 6450 1996 A2000000 		.4byte	.LVL75
 6451 199a 873F0000 		.4byte	0x3f87
 6452 199e B2190000 		.4byte	0x19b2
 6453 19a2 20       		.uleb128 0x20
 6454 19a3 01       		.uleb128 0x1
 6455 19a4 51       		.byte	0x51
 6456 19a5 05       		.uleb128 0x5
 6457 19a6 0C       		.byte	0xc
 6458 19a7 0C580200 		.4byte	0x2580c
 6459 19ab 20       		.uleb128 0x20
 6460 19ac 01       		.uleb128 0x1
 6461 19ad 50       		.byte	0x50
 6462 19ae 02       		.uleb128 0x2
 6463 19af 08       		.byte	0x8
 6464 19b0 92       		.byte	0x92
 6465 19b1 00       		.byte	0
 6466 19b2 1F       		.uleb128 0x1f
 6467 19b3 26010000 		.4byte	.LVL94
 6468 19b7 873F0000 		.4byte	0x3f87
 6469 19bb 20       		.uleb128 0x20
 6470 19bc 01       		.uleb128 0x1
 6471 19bd 51       		.byte	0x51
 6472 19be 02       		.uleb128 0x2
 6473 19bf 74       		.byte	0x74
 6474 19c0 00       		.sleb128 0
 6475 19c1 20       		.uleb128 0x20
 6476 19c2 01       		.uleb128 0x1
 6477 19c3 50       		.byte	0x50
 6478 19c4 02       		.uleb128 0x2
 6479 19c5 08       		.byte	0x8
 6480 19c6 94       		.byte	0x94
 6481 19c7 00       		.byte	0
 6482 19c8 00       		.byte	0
 6483 19c9 28       		.uleb128 0x28
 6484 19ca D1120000 		.4byte	0x12d1
 6485 19ce 00000000 		.4byte	.LFB10
 6486 19d2 20000000 		.4byte	.LFE10-.LFB10
 6487 19d6 01       		.uleb128 0x1
 6488 19d7 9C       		.byte	0x9c
 6489 19d8 301A0000 		.4byte	0x1a30
 6490 19dc 29       		.uleb128 0x29
ARM GAS  C:\Users\AHMED~1.ELE\AppData\Local\Temp\cc594ylT.s 			page 136


 6491 19dd DE120000 		.4byte	0x12de
 6492 19e1 06       		.uleb128 0x6
 6493 19e2 FA       		.byte	0xfa
 6494 19e3 DE120000 		.4byte	0x12de
 6495 19e7 9F       		.byte	0x9f
 6496 19e8 21       		.uleb128 0x21
 6497 19e9 0A000000 		.4byte	.LVL97
 6498 19ed 873F0000 		.4byte	0x3f87
 6499 19f1 001A0000 		.4byte	0x1a00
 6500 19f5 20       		.uleb128 0x20
 6501 19f6 01       		.uleb128 0x1
 6502 19f7 51       		.byte	0x51
 6503 19f8 01       		.uleb128 0x1
 6504 19f9 3E       		.byte	0x3e
 6505 19fa 20       		.uleb128 0x20
 6506 19fb 01       		.uleb128 0x1
 6507 19fc 50       		.byte	0x50
 6508 19fd 01       		.uleb128 0x1
 6509 19fe 46       		.byte	0x46
 6510 19ff 00       		.byte	0
 6511 1a00 21       		.uleb128 0x21
 6512 1a01 14000000 		.4byte	.LVL98
 6513 1a05 873F0000 		.4byte	0x3f87
 6514 1a09 1B1A0000 		.4byte	0x1a1b
 6515 1a0d 20       		.uleb128 0x20
 6516 1a0e 01       		.uleb128 0x1
 6517 1a0f 51       		.byte	0x51
 6518 1a10 03       		.uleb128 0x3
 6519 1a11 0A       		.byte	0xa
 6520 1a12 FFFF     		.2byte	0xffff
 6521 1a14 20       		.uleb128 0x20
 6522 1a15 01       		.uleb128 0x1
 6523 1a16 50       		.byte	0x50
 6524 1a17 02       		.uleb128 0x2
 6525 1a18 08       		.byte	0x8
 6526 1a19 20       		.byte	0x20
 6527 1a1a 00       		.byte	0
 6528 1a1b 2A       		.uleb128 0x2a
 6529 1a1c 20000000 		.4byte	.LVL99
 6530 1a20 873F0000 		.4byte	0x3f87
 6531 1a24 20       		.uleb128 0x20
 6532 1a25 01       		.uleb128 0x1
 6533 1a26 51       		.byte	0x51
 6534 1a27 01       		.uleb128 0x1
 6535 1a28 4F       		.byte	0x4f
 6536 1a29 20       		.uleb128 0x20
 6537 1a2a 01       		.uleb128 0x1
 6538 1a2b 50       		.byte	0x50
 6539 1a2c 01       		.uleb128 0x1
 6540 1a2d 4F       		.byte	0x4f
 6541 1a2e 00       		.byte	0
 6542 1a2f 00       		.byte	0
 6543 1a30 28       		.uleb128 0x28
 6544 1a31 EB120000 		.4byte	0x12eb
 6545 1a35 00000000 		.4byte	.LFB11
 6546 1a39 54000000 		.4byte	.LFE11-.LFB11
 6547 1a3d 01       		.uleb128 0x1
ARM GAS  C:\Users\AHMED~1.ELE\AppData\Local\Temp\cc594ylT.s 			page 137


 6548 1a3e 9C       		.byte	0x9c
 6549 1a3f C81A0000 		.4byte	0x1ac8
 6550 1a43 2B       		.uleb128 0x2b
 6551 1a44 04130000 		.4byte	0x1304
 6552 1a48 F3040000 		.4byte	.LLST35
 6553 1a4c 2C       		.uleb128 0x2c
 6554 1a4d 10130000 		.4byte	0x1310
 6555 1a51 04       		.uleb128 0x4
 6556 1a52 91       		.byte	0x91
 6557 1a53 EC9F6D   		.sleb128 -307220
 6558 1a56 2C       		.uleb128 0x2c
 6559 1a57 1C130000 		.4byte	0x131c
 6560 1a5b 04       		.uleb128 0x4
 6561 1a5c 91       		.byte	0x91
 6562 1a5d F09F6D   		.sleb128 -307216
 6563 1a60 2D       		.uleb128 0x2d
 6564 1a61 28130000 		.4byte	0x1328
 6565 1a65 14050000 		.4byte	.LLST36
 6566 1a69 2E       		.uleb128 0x2e
 6567 1a6a F8120000 		.4byte	0x12f8
 6568 1a6e 01       		.byte	0x1
 6569 1a6f 21       		.uleb128 0x21
 6570 1a70 14000000 		.4byte	.LVL102
 6571 1a74 13400000 		.4byte	0x4013
 6572 1a78 931A0000 		.4byte	0x1a93
 6573 1a7c 20       		.uleb128 0x20
 6574 1a7d 01       		.uleb128 0x1
 6575 1a7e 52       		.byte	0x52
 6576 1a7f 05       		.uleb128 0x5
 6577 1a80 0C       		.byte	0xc
 6578 1a81 08B00400 		.4byte	0x4b008
 6579 1a85 20       		.uleb128 0x20
 6580 1a86 01       		.uleb128 0x1
 6581 1a87 51       		.byte	0x51
 6582 1a88 01       		.uleb128 0x1
 6583 1a89 30       		.byte	0x30
 6584 1a8a 20       		.uleb128 0x20
 6585 1a8b 01       		.uleb128 0x1
 6586 1a8c 50       		.byte	0x50
 6587 1a8d 04       		.uleb128 0x4
 6588 1a8e 91       		.byte	0x91
 6589 1a8f F09F6D   		.sleb128 -307216
 6590 1a92 00       		.byte	0
 6591 1a93 21       		.uleb128 0x21
 6592 1a94 2A000000 		.4byte	.LVL103
 6593 1a98 873F0000 		.4byte	0x3f87
 6594 1a9c AE1A0000 		.4byte	0x1aae
 6595 1aa0 20       		.uleb128 0x20
 6596 1aa1 01       		.uleb128 0x1
 6597 1aa2 51       		.byte	0x51
 6598 1aa3 04       		.uleb128 0x4
 6599 1aa4 91       		.byte	0x91
 6600 1aa5 F09F6D   		.sleb128 -307216
 6601 1aa8 20       		.uleb128 0x20
 6602 1aa9 01       		.uleb128 0x1
 6603 1aaa 50       		.byte	0x50
 6604 1aab 01       		.uleb128 0x1
ARM GAS  C:\Users\AHMED~1.ELE\AppData\Local\Temp\cc594ylT.s 			page 138


 6605 1aac 49       		.byte	0x49
 6606 1aad 00       		.byte	0
 6607 1aae 1F       		.uleb128 0x1f
 6608 1aaf 46000000 		.4byte	.LVL105
 6609 1ab3 3B130000 		.4byte	0x133b
 6610 1ab7 20       		.uleb128 0x20
 6611 1ab8 01       		.uleb128 0x1
 6612 1ab9 52       		.byte	0x52
 6613 1aba 04       		.uleb128 0x4
 6614 1abb 91       		.byte	0x91
 6615 1abc EC9F6D   		.sleb128 -307220
 6616 1abf 20       		.uleb128 0x20
 6617 1ac0 01       		.uleb128 0x1
 6618 1ac1 51       		.byte	0x51
 6619 1ac2 03       		.uleb128 0x3
 6620 1ac3 0A       		.byte	0xa
 6621 1ac4 0111     		.2byte	0x1101
 6622 1ac6 00       		.byte	0
 6623 1ac7 00       		.byte	0
 6624 1ac8 2F       		.uleb128 0x2f
 6625 1ac9 A31D0000 		.4byte	.LASF717
 6626 1acd 01       		.byte	0x1
 6627 1ace 3701     		.2byte	0x137
 6628 1ad0 97000000 		.4byte	0x97
 6629 1ad4 00000000 		.4byte	.LFB6
 6630 1ad8 5A000000 		.4byte	.LFE6-.LFB6
 6631 1adc 01       		.uleb128 0x1
 6632 1add 9C       		.byte	0x9c
 6633 1ade 7E1B0000 		.4byte	0x1b7e
 6634 1ae2 30       		.uleb128 0x30
 6635 1ae3 7F200000 		.4byte	.LASF672
 6636 1ae7 01       		.byte	0x1
 6637 1ae8 3701     		.2byte	0x137
 6638 1aea 35130000 		.4byte	0x1335
 6639 1aee 33050000 		.4byte	.LLST37
 6640 1af2 30       		.uleb128 0x30
 6641 1af3 102D0000 		.4byte	.LASF673
 6642 1af7 01       		.byte	0x1
 6643 1af8 3701     		.2byte	0x137
 6644 1afa C8160000 		.4byte	0x16c8
 6645 1afe 54050000 		.4byte	.LLST38
 6646 1b02 31       		.uleb128 0x31
 6647 1b03 F8110000 		.4byte	.LASF674
 6648 1b07 01       		.byte	0x1
 6649 1b08 3701     		.2byte	0x137
 6650 1b0a C3000000 		.4byte	0xc3
 6651 1b0e 01       		.uleb128 0x1
 6652 1b0f 52       		.byte	0x52
 6653 1b10 31       		.uleb128 0x31
 6654 1b11 A6270000 		.4byte	.LASF675
 6655 1b15 01       		.byte	0x1
 6656 1b16 3701     		.2byte	0x137
 6657 1b18 B8000000 		.4byte	0xb8
 6658 1b1c 01       		.uleb128 0x1
 6659 1b1d 53       		.byte	0x53
 6660 1b1e 32       		.uleb128 0x32
 6661 1b1f 7800     		.ascii	"x\000"
ARM GAS  C:\Users\AHMED~1.ELE\AppData\Local\Temp\cc594ylT.s 			page 139


 6662 1b21 01       		.byte	0x1
 6663 1b22 3901     		.2byte	0x139
 6664 1b24 5D000000 		.4byte	0x5d
 6665 1b28 01       		.uleb128 0x1
 6666 1b29 51       		.byte	0x51
 6667 1b2a 33       		.uleb128 0x33
 6668 1b2b 7900     		.ascii	"y\000"
 6669 1b2d 01       		.byte	0x1
 6670 1b2e 3901     		.2byte	0x139
 6671 1b30 5D000000 		.4byte	0x5d
 6672 1b34 75050000 		.4byte	.LLST39
 6673 1b38 34       		.uleb128 0x34
 6674 1b39 F4240000 		.4byte	.LASF676
 6675 1b3d 01       		.byte	0x1
 6676 1b3e 3901     		.2byte	0x139
 6677 1b40 5D000000 		.4byte	0x5d
 6678 1b44 01       		.uleb128 0x1
 6679 1b45 53       		.byte	0x53
 6680 1b46 35       		.uleb128 0x35
 6681 1b47 F50C0000 		.4byte	.LASF677
 6682 1b4b 01       		.byte	0x1
 6683 1b4c 3901     		.2byte	0x139
 6684 1b4e 5D000000 		.4byte	0x5d
 6685 1b52 00       		.byte	0
 6686 1b53 33       		.uleb128 0x33
 6687 1b54 70747200 		.ascii	"ptr\000"
 6688 1b58 01       		.byte	0x1
 6689 1b59 3A01     		.2byte	0x13a
 6690 1b5b CE160000 		.4byte	0x16ce
 6691 1b5f A0050000 		.4byte	.LLST40
 6692 1b63 36       		.uleb128 0x36
 6693 1b64 3C000000 		.4byte	.LBB6
 6694 1b68 16000000 		.4byte	.LBE6-.LBB6
 6695 1b6c 37       		.uleb128 0x37
 6696 1b6d 061C0000 		.4byte	.LASF678
 6697 1b71 01       		.byte	0x1
 6698 1b72 4201     		.2byte	0x142
 6699 1b74 AD000000 		.4byte	0xad
 6700 1b78 CB050000 		.4byte	.LLST41
 6701 1b7c 00       		.byte	0
 6702 1b7d 00       		.byte	0
 6703 1b7e 38       		.uleb128 0x38
 6704 1b7f 97080000 		.4byte	.LASF681
 6705 1b83 01       		.byte	0x1
 6706 1b84 4A01     		.2byte	0x14a
 6707 1b86 00000000 		.4byte	.LFB7
 6708 1b8a 98000000 		.4byte	.LFE7-.LFB7
 6709 1b8e 01       		.uleb128 0x1
 6710 1b8f 9C       		.byte	0x9c
 6711 1b90 CC1C0000 		.4byte	0x1ccc
 6712 1b94 30       		.uleb128 0x30
 6713 1b95 15000000 		.4byte	.LASF679
 6714 1b99 01       		.byte	0x1
 6715 1b9a 4A01     		.2byte	0x14a
 6716 1b9c C3000000 		.4byte	0xc3
 6717 1ba0 03060000 		.4byte	.LLST42
 6718 1ba4 30       		.uleb128 0x30
ARM GAS  C:\Users\AHMED~1.ELE\AppData\Local\Temp\cc594ylT.s 			page 140


 6719 1ba5 DF1F0000 		.4byte	.LASF660
 6720 1ba9 01       		.byte	0x1
 6721 1baa 4A01     		.2byte	0x14a
 6722 1bac C8160000 		.4byte	0x16c8
 6723 1bb0 2F060000 		.4byte	.LLST43
 6724 1bb4 37       		.uleb128 0x37
 6725 1bb5 A7210000 		.4byte	.LASF680
 6726 1bb9 01       		.byte	0x1
 6727 1bba 4C01     		.2byte	0x14c
 6728 1bbc 35130000 		.4byte	0x1335
 6729 1bc0 5B060000 		.4byte	.LLST44
 6730 1bc4 21       		.uleb128 0x21
 6731 1bc5 12000000 		.4byte	.LVL123
 6732 1bc9 873F0000 		.4byte	0x3f87
 6733 1bcd DE1B0000 		.4byte	0x1bde
 6734 1bd1 20       		.uleb128 0x20
 6735 1bd2 01       		.uleb128 0x1
 6736 1bd3 51       		.byte	0x51
 6737 1bd4 02       		.uleb128 0x2
 6738 1bd5 75       		.byte	0x75
 6739 1bd6 00       		.sleb128 0
 6740 1bd7 20       		.uleb128 0x20
 6741 1bd8 01       		.uleb128 0x1
 6742 1bd9 50       		.byte	0x50
 6743 1bda 02       		.uleb128 0x2
 6744 1bdb 08       		.byte	0x8
 6745 1bdc 92       		.byte	0x92
 6746 1bdd 00       		.byte	0
 6747 1bde 21       		.uleb128 0x21
 6748 1bdf 20000000 		.4byte	.LVL125
 6749 1be3 13400000 		.4byte	0x4013
 6750 1be7 FD1B0000 		.4byte	0x1bfd
 6751 1beb 20       		.uleb128 0x20
 6752 1bec 01       		.uleb128 0x1
 6753 1bed 52       		.byte	0x52
 6754 1bee 02       		.uleb128 0x2
 6755 1bef 75       		.byte	0x75
 6756 1bf0 00       		.sleb128 0
 6757 1bf1 20       		.uleb128 0x20
 6758 1bf2 01       		.uleb128 0x1
 6759 1bf3 51       		.byte	0x51
 6760 1bf4 01       		.uleb128 0x1
 6761 1bf5 30       		.byte	0x30
 6762 1bf6 20       		.uleb128 0x20
 6763 1bf7 01       		.uleb128 0x1
 6764 1bf8 50       		.byte	0x50
 6765 1bf9 02       		.uleb128 0x2
 6766 1bfa 74       		.byte	0x74
 6767 1bfb 00       		.sleb128 0
 6768 1bfc 00       		.byte	0
 6769 1bfd 21       		.uleb128 0x21
 6770 1bfe 3E000000 		.4byte	.LVL126
 6771 1c02 C81A0000 		.4byte	0x1ac8
 6772 1c06 231C0000 		.4byte	0x1c23
 6773 1c0a 20       		.uleb128 0x20
 6774 1c0b 01       		.uleb128 0x1
 6775 1c0c 53       		.byte	0x53
ARM GAS  C:\Users\AHMED~1.ELE\AppData\Local\Temp\cc594ylT.s 			page 141


 6776 1c0d 02       		.uleb128 0x2
 6777 1c0e 75       		.byte	0x75
 6778 1c0f 00       		.sleb128 0
 6779 1c10 20       		.uleb128 0x20
 6780 1c11 01       		.uleb128 0x1
 6781 1c12 52       		.byte	0x52
 6782 1c13 02       		.uleb128 0x2
 6783 1c14 77       		.byte	0x77
 6784 1c15 00       		.sleb128 0
 6785 1c16 20       		.uleb128 0x20
 6786 1c17 01       		.uleb128 0x1
 6787 1c18 51       		.byte	0x51
 6788 1c19 02       		.uleb128 0x2
 6789 1c1a 78       		.byte	0x78
 6790 1c1b 00       		.sleb128 0
 6791 1c1c 20       		.uleb128 0x20
 6792 1c1d 01       		.uleb128 0x1
 6793 1c1e 50       		.byte	0x50
 6794 1c1f 02       		.uleb128 0x2
 6795 1c20 74       		.byte	0x74
 6796 1c21 00       		.sleb128 0
 6797 1c22 00       		.byte	0
 6798 1c23 21       		.uleb128 0x21
 6799 1c24 46000000 		.4byte	.LVL127
 6800 1c28 873F0000 		.4byte	0x3f87
 6801 1c2c 3C1C0000 		.4byte	0x1c3c
 6802 1c30 20       		.uleb128 0x20
 6803 1c31 01       		.uleb128 0x1
 6804 1c32 51       		.byte	0x51
 6805 1c33 02       		.uleb128 0x2
 6806 1c34 74       		.byte	0x74
 6807 1c35 00       		.sleb128 0
 6808 1c36 20       		.uleb128 0x20
 6809 1c37 01       		.uleb128 0x1
 6810 1c38 50       		.byte	0x50
 6811 1c39 01       		.uleb128 0x1
 6812 1c3a 4A       		.byte	0x4a
 6813 1c3b 00       		.byte	0
 6814 1c3c 21       		.uleb128 0x21
 6815 1c3d 5E000000 		.4byte	.LVL128
 6816 1c41 C81A0000 		.4byte	0x1ac8
 6817 1c45 621C0000 		.4byte	0x1c62
 6818 1c49 20       		.uleb128 0x20
 6819 1c4a 01       		.uleb128 0x1
 6820 1c4b 53       		.byte	0x53
 6821 1c4c 02       		.uleb128 0x2
 6822 1c4d 76       		.byte	0x76
 6823 1c4e 00       		.sleb128 0
 6824 1c4f 20       		.uleb128 0x20
 6825 1c50 01       		.uleb128 0x1
 6826 1c51 52       		.byte	0x52
 6827 1c52 02       		.uleb128 0x2
 6828 1c53 77       		.byte	0x77
 6829 1c54 00       		.sleb128 0
 6830 1c55 20       		.uleb128 0x20
 6831 1c56 01       		.uleb128 0x1
 6832 1c57 51       		.byte	0x51
ARM GAS  C:\Users\AHMED~1.ELE\AppData\Local\Temp\cc594ylT.s 			page 142


 6833 1c58 02       		.uleb128 0x2
 6834 1c59 78       		.byte	0x78
 6835 1c5a 00       		.sleb128 0
 6836 1c5b 20       		.uleb128 0x20
 6837 1c5c 01       		.uleb128 0x1
 6838 1c5d 50       		.byte	0x50
 6839 1c5e 02       		.uleb128 0x2
 6840 1c5f 74       		.byte	0x74
 6841 1c60 00       		.sleb128 0
 6842 1c61 00       		.byte	0
 6843 1c62 21       		.uleb128 0x21
 6844 1c63 66000000 		.4byte	.LVL129
 6845 1c67 873F0000 		.4byte	0x3f87
 6846 1c6b 7B1C0000 		.4byte	0x1c7b
 6847 1c6f 20       		.uleb128 0x20
 6848 1c70 01       		.uleb128 0x1
 6849 1c71 51       		.byte	0x51
 6850 1c72 02       		.uleb128 0x2
 6851 1c73 74       		.byte	0x74
 6852 1c74 00       		.sleb128 0
 6853 1c75 20       		.uleb128 0x20
 6854 1c76 01       		.uleb128 0x1
 6855 1c77 50       		.byte	0x50
 6856 1c78 01       		.uleb128 0x1
 6857 1c79 4A       		.byte	0x4a
 6858 1c7a 00       		.byte	0
 6859 1c7b 21       		.uleb128 0x21
 6860 1c7c 80000000 		.4byte	.LVL130
 6861 1c80 C81A0000 		.4byte	0x1ac8
 6862 1c84 A21C0000 		.4byte	0x1ca2
 6863 1c88 20       		.uleb128 0x20
 6864 1c89 01       		.uleb128 0x1
 6865 1c8a 53       		.byte	0x53
 6866 1c8b 03       		.uleb128 0x3
 6867 1c8c 0A       		.byte	0xa
 6868 1c8d 8002     		.2byte	0x280
 6869 1c8f 20       		.uleb128 0x20
 6870 1c90 01       		.uleb128 0x1
 6871 1c91 52       		.byte	0x52
 6872 1c92 02       		.uleb128 0x2
 6873 1c93 77       		.byte	0x77
 6874 1c94 00       		.sleb128 0
 6875 1c95 20       		.uleb128 0x20
 6876 1c96 01       		.uleb128 0x1
 6877 1c97 51       		.byte	0x51
 6878 1c98 02       		.uleb128 0x2
 6879 1c99 78       		.byte	0x78
 6880 1c9a 00       		.sleb128 0
 6881 1c9b 20       		.uleb128 0x20
 6882 1c9c 01       		.uleb128 0x1
 6883 1c9d 50       		.byte	0x50
 6884 1c9e 02       		.uleb128 0x2
 6885 1c9f 74       		.byte	0x74
 6886 1ca0 00       		.sleb128 0
 6887 1ca1 00       		.byte	0
 6888 1ca2 21       		.uleb128 0x21
 6889 1ca3 88000000 		.4byte	.LVL131
ARM GAS  C:\Users\AHMED~1.ELE\AppData\Local\Temp\cc594ylT.s 			page 143


 6890 1ca7 873F0000 		.4byte	0x3f87
 6891 1cab BB1C0000 		.4byte	0x1cbb
 6892 1caf 20       		.uleb128 0x20
 6893 1cb0 01       		.uleb128 0x1
 6894 1cb1 51       		.byte	0x51
 6895 1cb2 02       		.uleb128 0x2
 6896 1cb3 74       		.byte	0x74
 6897 1cb4 00       		.sleb128 0
 6898 1cb5 20       		.uleb128 0x20
 6899 1cb6 01       		.uleb128 0x1
 6900 1cb7 50       		.byte	0x50
 6901 1cb8 01       		.uleb128 0x1
 6902 1cb9 4A       		.byte	0x4a
 6903 1cba 00       		.byte	0
 6904 1cbb 2A       		.uleb128 0x2a
 6905 1cbc 94000000 		.4byte	.LVL133
 6906 1cc0 873F0000 		.4byte	0x3f87
 6907 1cc4 20       		.uleb128 0x20
 6908 1cc5 01       		.uleb128 0x1
 6909 1cc6 50       		.byte	0x50
 6910 1cc7 02       		.uleb128 0x2
 6911 1cc8 08       		.byte	0x8
 6912 1cc9 94       		.byte	0x94
 6913 1cca 00       		.byte	0
 6914 1ccb 00       		.byte	0
 6915 1ccc 38       		.uleb128 0x38
 6916 1ccd 3C2E0000 		.4byte	.LASF682
 6917 1cd1 01       		.byte	0x1
 6918 1cd2 7701     		.2byte	0x177
 6919 1cd4 00000000 		.4byte	.LFB8
 6920 1cd8 34060000 		.4byte	.LFE8-.LFB8
 6921 1cdc 01       		.uleb128 0x1
 6922 1cdd 9C       		.byte	0x9c
 6923 1cde 042D0000 		.4byte	0x2d04
 6924 1ce2 34       		.uleb128 0x34
 6925 1ce3 5E0E0000 		.4byte	.LASF683
 6926 1ce7 01       		.byte	0x1
 6927 1ce8 7901     		.2byte	0x179
 6928 1cea 870E0000 		.4byte	0xe87
 6929 1cee 03       		.uleb128 0x3
 6930 1cef 91       		.byte	0x91
 6931 1cf0 C87B     		.sleb128 -568
 6932 1cf2 34       		.uleb128 0x34
 6933 1cf3 AE0A0000 		.4byte	.LASF684
 6934 1cf7 01       		.byte	0x1
 6935 1cf8 7A01     		.2byte	0x17a
 6936 1cfa F10D0000 		.4byte	0xdf1
 6937 1cfe 03       		.uleb128 0x3
 6938 1cff 91       		.byte	0x91
 6939 1d00 BC7B     		.sleb128 -580
 6940 1d02 37       		.uleb128 0x37
 6941 1d03 E42C0000 		.4byte	.LASF685
 6942 1d07 01       		.byte	0x1
 6943 1d08 7C01     		.2byte	0x17c
 6944 1d0a C2160000 		.4byte	0x16c2
 6945 1d0e 84060000 		.4byte	.LLST45
 6946 1d12 37       		.uleb128 0x37
ARM GAS  C:\Users\AHMED~1.ELE\AppData\Local\Temp\cc594ylT.s 			page 144


 6947 1d13 22190000 		.4byte	.LASF686
 6948 1d17 01       		.byte	0x1
 6949 1d18 7D01     		.2byte	0x17d
 6950 1d1a C3000000 		.4byte	0xc3
 6951 1d1e D8060000 		.4byte	.LLST46
 6952 1d22 37       		.uleb128 0x37
 6953 1d23 74050000 		.4byte	.LASF687
 6954 1d27 01       		.byte	0x1
 6955 1d28 7E01     		.2byte	0x17e
 6956 1d2a 042D0000 		.4byte	0x2d04
 6957 1d2e 02070000 		.4byte	.LLST47
 6958 1d32 37       		.uleb128 0x37
 6959 1d33 3B290000 		.4byte	.LASF688
 6960 1d37 01       		.byte	0x1
 6961 1d38 7F01     		.2byte	0x17f
 6962 1d3a 0A2D0000 		.4byte	0x2d0a
 6963 1d3e 2C070000 		.4byte	.LLST48
 6964 1d42 37       		.uleb128 0x37
 6965 1d43 5B140000 		.4byte	.LASF689
 6966 1d47 01       		.byte	0x1
 6967 1d48 8201     		.2byte	0x182
 6968 1d4a 7F000000 		.4byte	0x7f
 6969 1d4e 56070000 		.4byte	.LLST49
 6970 1d52 37       		.uleb128 0x37
 6971 1d53 CB0A0000 		.4byte	.LASF690
 6972 1d57 01       		.byte	0x1
 6973 1d58 8301     		.2byte	0x183
 6974 1d5a 7F000000 		.4byte	0x7f
 6975 1d5e 80070000 		.4byte	.LLST50
 6976 1d62 37       		.uleb128 0x37
 6977 1d63 9C2E0000 		.4byte	.LASF691
 6978 1d67 01       		.byte	0x1
 6979 1d68 8501     		.2byte	0x185
 6980 1d6a B8000000 		.4byte	0xb8
 6981 1d6e A1070000 		.4byte	.LLST51
 6982 1d72 37       		.uleb128 0x37
 6983 1d73 2F270000 		.4byte	.LASF692
 6984 1d77 01       		.byte	0x1
 6985 1d78 8501     		.2byte	0x185
 6986 1d7a B8000000 		.4byte	0xb8
 6987 1d7e EF070000 		.4byte	.LLST52
 6988 1d82 37       		.uleb128 0x37
 6989 1d83 3B020000 		.4byte	.LASF693
 6990 1d87 01       		.byte	0x1
 6991 1d88 8501     		.2byte	0x185
 6992 1d8a B8000000 		.4byte	0xb8
 6993 1d8e 88080000 		.4byte	.LLST53
 6994 1d92 37       		.uleb128 0x37
 6995 1d93 D70C0000 		.4byte	.LASF694
 6996 1d97 01       		.byte	0x1
 6997 1d98 8501     		.2byte	0x185
 6998 1d9a B8000000 		.4byte	0xb8
 6999 1d9e CA080000 		.4byte	.LLST54
 7000 1da2 33       		.uleb128 0x33
 7001 1da3 6900     		.ascii	"i\000"
 7002 1da5 01       		.byte	0x1
 7003 1da6 8501     		.2byte	0x185
ARM GAS  C:\Users\AHMED~1.ELE\AppData\Local\Temp\cc594ylT.s 			page 145


 7004 1da8 B8000000 		.4byte	0xb8
 7005 1dac FF080000 		.4byte	.LLST55
 7006 1db0 34       		.uleb128 0x34
 7007 1db1 32140000 		.4byte	.LASF663
 7008 1db5 01       		.byte	0x1
 7009 1db6 8601     		.2byte	0x186
 7010 1db8 102D0000 		.4byte	0x2d10
 7011 1dbc 03       		.uleb128 0x3
 7012 1dbd 91       		.byte	0x91
 7013 1dbe D87B     		.sleb128 -552
 7014 1dc0 37       		.uleb128 0x37
 7015 1dc1 181A0000 		.4byte	.LASF695
 7016 1dc5 01       		.byte	0x1
 7017 1dc6 8701     		.2byte	0x187
 7018 1dc8 97000000 		.4byte	0x97
 7019 1dcc 2B090000 		.4byte	.LLST56
 7020 1dd0 35       		.uleb128 0x35
 7021 1dd1 98250000 		.4byte	.LASF696
 7022 1dd5 01       		.byte	0x1
 7023 1dd6 8801     		.2byte	0x188
 7024 1dd8 B8000000 		.4byte	0xb8
 7025 1ddc 00       		.byte	0
 7026 1ddd 33       		.uleb128 0x33
 7027 1dde 7A6200   		.ascii	"zb\000"
 7028 1de1 01       		.byte	0x1
 7029 1de2 8A01     		.2byte	0x18a
 7030 1de4 5D000000 		.4byte	0x5d
 7031 1de8 4C090000 		.4byte	.LLST57
 7032 1dec 33       		.uleb128 0x33
 7033 1ded 7A7800   		.ascii	"zx\000"
 7034 1df0 01       		.byte	0x1
 7035 1df1 8A01     		.2byte	0x18a
 7036 1df3 5D000000 		.4byte	0x5d
 7037 1df7 4C090000 		.4byte	.LLST57
 7038 1dfb 37       		.uleb128 0x37
 7039 1dfc 8E1F0000 		.4byte	.LASF697
 7040 1e00 01       		.byte	0x1
 7041 1e01 8A01     		.2byte	0x18a
 7042 1e03 5D000000 		.4byte	0x5d
 7043 1e07 60090000 		.4byte	.LLST59
 7044 1e0b 33       		.uleb128 0x33
 7045 1e0c 72657400 		.ascii	"ret\000"
 7046 1e10 01       		.byte	0x1
 7047 1e11 8A01     		.2byte	0x18a
 7048 1e13 5D000000 		.4byte	0x5d
 7049 1e17 89090000 		.4byte	.LLST60
 7050 1e1b 27       		.uleb128 0x27
 7051 1e1c 14000000 		.4byte	.LBB25
 7052 1e20 32000000 		.4byte	.LBE25-.LBB25
 7053 1e24 C81E0000 		.4byte	0x1ec8
 7054 1e28 33       		.uleb128 0x33
 7055 1e29 6C656E00 		.ascii	"len\000"
 7056 1e2d 01       		.byte	0x1
 7057 1e2e 8D01     		.2byte	0x18d
 7058 1e30 B8000000 		.4byte	0xb8
 7059 1e34 010A0000 		.4byte	.LLST61
 7060 1e38 33       		.uleb128 0x33
ARM GAS  C:\Users\AHMED~1.ELE\AppData\Local\Temp\cc594ylT.s 			page 146


 7061 1e39 70747200 		.ascii	"ptr\000"
 7062 1e3d 01       		.byte	0x1
 7063 1e3e 8D01     		.2byte	0x18d
 7064 1e40 C3000000 		.4byte	0xc3
 7065 1e44 150A0000 		.4byte	.LLST62
 7066 1e48 21       		.uleb128 0x21
 7067 1e49 1C000000 		.4byte	.LVL137
 7068 1e4d 873F0000 		.4byte	0x3f87
 7069 1e51 611E0000 		.4byte	0x1e61
 7070 1e55 20       		.uleb128 0x20
 7071 1e56 01       		.uleb128 0x1
 7072 1e57 51       		.byte	0x51
 7073 1e58 01       		.uleb128 0x1
 7074 1e59 43       		.byte	0x43
 7075 1e5a 20       		.uleb128 0x20
 7076 1e5b 01       		.uleb128 0x1
 7077 1e5c 50       		.byte	0x50
 7078 1e5d 02       		.uleb128 0x2
 7079 1e5e 08       		.byte	0x8
 7080 1e5f 92       		.byte	0x92
 7081 1e60 00       		.byte	0
 7082 1e61 21       		.uleb128 0x21
 7083 1e62 28000000 		.4byte	.LVL138
 7084 1e66 A13F0000 		.4byte	0x3fa1
 7085 1e6a 831E0000 		.4byte	0x1e83
 7086 1e6e 20       		.uleb128 0x20
 7087 1e6f 01       		.uleb128 0x1
 7088 1e70 52       		.byte	0x52
 7089 1e71 01       		.uleb128 0x1
 7090 1e72 42       		.byte	0x42
 7091 1e73 20       		.uleb128 0x20
 7092 1e74 01       		.uleb128 0x1
 7093 1e75 51       		.byte	0x51
 7094 1e76 05       		.uleb128 0x5
 7095 1e77 03       		.byte	0x3
 7096 1e78 25000000 		.4byte	.LC2
 7097 1e7c 20       		.uleb128 0x20
 7098 1e7d 01       		.uleb128 0x1
 7099 1e7e 50       		.byte	0x50
 7100 1e7f 02       		.uleb128 0x2
 7101 1e80 74       		.byte	0x74
 7102 1e81 00       		.sleb128 0
 7103 1e82 00       		.byte	0
 7104 1e83 21       		.uleb128 0x21
 7105 1e84 3E000000 		.4byte	.LVL139
 7106 1e88 BE3F0000 		.4byte	0x3fbe
 7107 1e8c B11E0000 		.4byte	0x1eb1
 7108 1e90 20       		.uleb128 0x20
 7109 1e91 01       		.uleb128 0x1
 7110 1e92 53       		.byte	0x53
 7111 1e93 03       		.uleb128 0x3
 7112 1e94 0A       		.byte	0xa
 7113 1e95 0005     		.2byte	0x500
 7114 1e97 20       		.uleb128 0x20
 7115 1e98 01       		.uleb128 0x1
 7116 1e99 52       		.byte	0x52
 7117 1e9a 02       		.uleb128 0x2
ARM GAS  C:\Users\AHMED~1.ELE\AppData\Local\Temp\cc594ylT.s 			page 147


 7118 1e9b 74       		.byte	0x74
 7119 1e9c 00       		.sleb128 0
 7120 1e9d 20       		.uleb128 0x20
 7121 1e9e 01       		.uleb128 0x1
 7122 1e9f 51       		.byte	0x51
 7123 1ea0 02       		.uleb128 0x2
 7124 1ea1 08       		.byte	0x8
 7125 1ea2 25       		.byte	0x25
 7126 1ea3 20       		.uleb128 0x20
 7127 1ea4 01       		.uleb128 0x1
 7128 1ea5 50       		.byte	0x50
 7129 1ea6 01       		.uleb128 0x1
 7130 1ea7 3F       		.byte	0x3f
 7131 1ea8 20       		.uleb128 0x20
 7132 1ea9 02       		.uleb128 0x2
 7133 1eaa 7D       		.byte	0x7d
 7134 1eab 00       		.sleb128 0
 7135 1eac 03       		.uleb128 0x3
 7136 1ead 0A       		.byte	0xa
 7137 1eae 8210     		.2byte	0x1082
 7138 1eb0 00       		.byte	0
 7139 1eb1 1F       		.uleb128 0x1f
 7140 1eb2 46000000 		.4byte	.LVL140
 7141 1eb6 873F0000 		.4byte	0x3f87
 7142 1eba 20       		.uleb128 0x20
 7143 1ebb 01       		.uleb128 0x1
 7144 1ebc 51       		.byte	0x51
 7145 1ebd 02       		.uleb128 0x2
 7146 1ebe 74       		.byte	0x74
 7147 1ebf 00       		.sleb128 0
 7148 1ec0 20       		.uleb128 0x20
 7149 1ec1 01       		.uleb128 0x1
 7150 1ec2 50       		.byte	0x50
 7151 1ec3 02       		.uleb128 0x2
 7152 1ec4 08       		.byte	0x8
 7153 1ec5 94       		.byte	0x94
 7154 1ec6 00       		.byte	0
 7155 1ec7 00       		.byte	0
 7156 1ec8 39       		.uleb128 0x39
 7157 1ec9 00000000 		.4byte	.Ldebug_ranges0+0
 7158 1ecd 711F0000 		.4byte	0x1f71
 7159 1ed1 33       		.uleb128 0x33
 7160 1ed2 6C656E00 		.ascii	"len\000"
 7161 1ed6 01       		.byte	0x1
 7162 1ed7 A001     		.2byte	0x1a0
 7163 1ed9 B8000000 		.4byte	0xb8
 7164 1edd 330A0000 		.4byte	.LLST63
 7165 1ee1 33       		.uleb128 0x33
 7166 1ee2 70747200 		.ascii	"ptr\000"
 7167 1ee6 01       		.byte	0x1
 7168 1ee7 A001     		.2byte	0x1a0
 7169 1ee9 C3000000 		.4byte	0xc3
 7170 1eed 470A0000 		.4byte	.LLST64
 7171 1ef1 21       		.uleb128 0x21
 7172 1ef2 7A000000 		.4byte	.LVL146
 7173 1ef6 873F0000 		.4byte	0x3f87
 7174 1efa 0A1F0000 		.4byte	0x1f0a
ARM GAS  C:\Users\AHMED~1.ELE\AppData\Local\Temp\cc594ylT.s 			page 148


 7175 1efe 20       		.uleb128 0x20
 7176 1eff 01       		.uleb128 0x1
 7177 1f00 51       		.byte	0x51
 7178 1f01 01       		.uleb128 0x1
 7179 1f02 38       		.byte	0x38
 7180 1f03 20       		.uleb128 0x20
 7181 1f04 01       		.uleb128 0x1
 7182 1f05 50       		.byte	0x50
 7183 1f06 02       		.uleb128 0x2
 7184 1f07 08       		.byte	0x8
 7185 1f08 92       		.byte	0x92
 7186 1f09 00       		.byte	0
 7187 1f0a 21       		.uleb128 0x21
 7188 1f0b 86000000 		.4byte	.LVL147
 7189 1f0f A13F0000 		.4byte	0x3fa1
 7190 1f13 2C1F0000 		.4byte	0x1f2c
 7191 1f17 20       		.uleb128 0x20
 7192 1f18 01       		.uleb128 0x1
 7193 1f19 52       		.byte	0x52
 7194 1f1a 01       		.uleb128 0x1
 7195 1f1b 37       		.byte	0x37
 7196 1f1c 20       		.uleb128 0x20
 7197 1f1d 01       		.uleb128 0x1
 7198 1f1e 51       		.byte	0x51
 7199 1f1f 05       		.uleb128 0x5
 7200 1f20 03       		.byte	0x3
 7201 1f21 38000000 		.4byte	.LC3
 7202 1f25 20       		.uleb128 0x20
 7203 1f26 01       		.uleb128 0x1
 7204 1f27 50       		.byte	0x50
 7205 1f28 02       		.uleb128 0x2
 7206 1f29 74       		.byte	0x74
 7207 1f2a 00       		.sleb128 0
 7208 1f2b 00       		.byte	0
 7209 1f2c 21       		.uleb128 0x21
 7210 1f2d 9E000000 		.4byte	.LVL148
 7211 1f31 BE3F0000 		.4byte	0x3fbe
 7212 1f35 5A1F0000 		.4byte	0x1f5a
 7213 1f39 20       		.uleb128 0x20
 7214 1f3a 01       		.uleb128 0x1
 7215 1f3b 53       		.byte	0x53
 7216 1f3c 03       		.uleb128 0x3
 7217 1f3d 0A       		.byte	0xa
 7218 1f3e 0001     		.2byte	0x100
 7219 1f40 20       		.uleb128 0x20
 7220 1f41 01       		.uleb128 0x1
 7221 1f42 52       		.byte	0x52
 7222 1f43 02       		.uleb128 0x2
 7223 1f44 74       		.byte	0x74
 7224 1f45 00       		.sleb128 0
 7225 1f46 20       		.uleb128 0x20
 7226 1f47 01       		.uleb128 0x1
 7227 1f48 51       		.byte	0x51
 7228 1f49 02       		.uleb128 0x2
 7229 1f4a 08       		.byte	0x8
 7230 1f4b 25       		.byte	0x25
 7231 1f4c 20       		.uleb128 0x20
ARM GAS  C:\Users\AHMED~1.ELE\AppData\Local\Temp\cc594ylT.s 			page 149


 7232 1f4d 01       		.uleb128 0x1
 7233 1f4e 50       		.byte	0x50
 7234 1f4f 01       		.uleb128 0x1
 7235 1f50 3F       		.byte	0x3f
 7236 1f51 20       		.uleb128 0x20
 7237 1f52 02       		.uleb128 0x2
 7238 1f53 7D       		.byte	0x7d
 7239 1f54 00       		.sleb128 0
 7240 1f55 03       		.uleb128 0x3
 7241 1f56 0A       		.byte	0xa
 7242 1f57 9220     		.2byte	0x2092
 7243 1f59 00       		.byte	0
 7244 1f5a 1F       		.uleb128 0x1f
 7245 1f5b A6000000 		.4byte	.LVL149
 7246 1f5f 873F0000 		.4byte	0x3f87
 7247 1f63 20       		.uleb128 0x20
 7248 1f64 01       		.uleb128 0x1
 7249 1f65 51       		.byte	0x51
 7250 1f66 02       		.uleb128 0x2
 7251 1f67 74       		.byte	0x74
 7252 1f68 00       		.sleb128 0
 7253 1f69 20       		.uleb128 0x20
 7254 1f6a 01       		.uleb128 0x1
 7255 1f6b 50       		.byte	0x50
 7256 1f6c 02       		.uleb128 0x2
 7257 1f6d 08       		.byte	0x8
 7258 1f6e 94       		.byte	0x94
 7259 1f6f 00       		.byte	0
 7260 1f70 00       		.byte	0
 7261 1f71 27       		.uleb128 0x27
 7262 1f72 A6000000 		.4byte	.LBB29
 7263 1f76 34000000 		.4byte	.LBE29-.LBB29
 7264 1f7a 1E200000 		.4byte	0x201e
 7265 1f7e 33       		.uleb128 0x33
 7266 1f7f 6C656E00 		.ascii	"len\000"
 7267 1f83 01       		.byte	0x1
 7268 1f84 A101     		.2byte	0x1a1
 7269 1f86 B8000000 		.4byte	0xb8
 7270 1f8a 650A0000 		.4byte	.LLST65
 7271 1f8e 33       		.uleb128 0x33
 7272 1f8f 70747200 		.ascii	"ptr\000"
 7273 1f93 01       		.byte	0x1
 7274 1f94 A101     		.2byte	0x1a1
 7275 1f96 C3000000 		.4byte	0xc3
 7276 1f9a 790A0000 		.4byte	.LLST66
 7277 1f9e 21       		.uleb128 0x21
 7278 1f9f AE000000 		.4byte	.LVL150
 7279 1fa3 873F0000 		.4byte	0x3f87
 7280 1fa7 B71F0000 		.4byte	0x1fb7
 7281 1fab 20       		.uleb128 0x20
 7282 1fac 01       		.uleb128 0x1
 7283 1fad 51       		.byte	0x51
 7284 1fae 01       		.uleb128 0x1
 7285 1faf 43       		.byte	0x43
 7286 1fb0 20       		.uleb128 0x20
 7287 1fb1 01       		.uleb128 0x1
 7288 1fb2 50       		.byte	0x50
ARM GAS  C:\Users\AHMED~1.ELE\AppData\Local\Temp\cc594ylT.s 			page 150


 7289 1fb3 02       		.uleb128 0x2
 7290 1fb4 08       		.byte	0x8
 7291 1fb5 92       		.byte	0x92
 7292 1fb6 00       		.byte	0
 7293 1fb7 21       		.uleb128 0x21
 7294 1fb8 BA000000 		.4byte	.LVL152
 7295 1fbc A13F0000 		.4byte	0x3fa1
 7296 1fc0 D91F0000 		.4byte	0x1fd9
 7297 1fc4 20       		.uleb128 0x20
 7298 1fc5 01       		.uleb128 0x1
 7299 1fc6 52       		.byte	0x52
 7300 1fc7 01       		.uleb128 0x1
 7301 1fc8 42       		.byte	0x42
 7302 1fc9 20       		.uleb128 0x20
 7303 1fca 01       		.uleb128 0x1
 7304 1fcb 51       		.byte	0x51
 7305 1fcc 05       		.uleb128 0x5
 7306 1fcd 03       		.byte	0x3
 7307 1fce 40000000 		.4byte	.LC4
 7308 1fd2 20       		.uleb128 0x20
 7309 1fd3 01       		.uleb128 0x1
 7310 1fd4 50       		.byte	0x50
 7311 1fd5 02       		.uleb128 0x2
 7312 1fd6 74       		.byte	0x74
 7313 1fd7 00       		.sleb128 0
 7314 1fd8 00       		.byte	0
 7315 1fd9 21       		.uleb128 0x21
 7316 1fda D2000000 		.4byte	.LVL153
 7317 1fde BE3F0000 		.4byte	0x3fbe
 7318 1fe2 07200000 		.4byte	0x2007
 7319 1fe6 20       		.uleb128 0x20
 7320 1fe7 01       		.uleb128 0x1
 7321 1fe8 53       		.byte	0x53
 7322 1fe9 03       		.uleb128 0x3
 7323 1fea 0A       		.byte	0xa
 7324 1feb 0005     		.2byte	0x500
 7325 1fed 20       		.uleb128 0x20
 7326 1fee 01       		.uleb128 0x1
 7327 1fef 52       		.byte	0x52
 7328 1ff0 02       		.uleb128 0x2
 7329 1ff1 74       		.byte	0x74
 7330 1ff2 00       		.sleb128 0
 7331 1ff3 20       		.uleb128 0x20
 7332 1ff4 01       		.uleb128 0x1
 7333 1ff5 51       		.byte	0x51
 7334 1ff6 02       		.uleb128 0x2
 7335 1ff7 08       		.byte	0x8
 7336 1ff8 25       		.byte	0x25
 7337 1ff9 20       		.uleb128 0x20
 7338 1ffa 01       		.uleb128 0x1
 7339 1ffb 50       		.byte	0x50
 7340 1ffc 01       		.uleb128 0x1
 7341 1ffd 3F       		.byte	0x3f
 7342 1ffe 20       		.uleb128 0x20
 7343 1fff 02       		.uleb128 0x2
 7344 2000 7D       		.byte	0x7d
 7345 2001 00       		.sleb128 0
ARM GAS  C:\Users\AHMED~1.ELE\AppData\Local\Temp\cc594ylT.s 			page 151


 7346 2002 03       		.uleb128 0x3
 7347 2003 0A       		.byte	0xa
 7348 2004 0220     		.2byte	0x2002
 7349 2006 00       		.byte	0
 7350 2007 1F       		.uleb128 0x1f
 7351 2008 DA000000 		.4byte	.LVL154
 7352 200c 873F0000 		.4byte	0x3f87
 7353 2010 20       		.uleb128 0x20
 7354 2011 01       		.uleb128 0x1
 7355 2012 51       		.byte	0x51
 7356 2013 02       		.uleb128 0x2
 7357 2014 74       		.byte	0x74
 7358 2015 00       		.sleb128 0
 7359 2016 20       		.uleb128 0x20
 7360 2017 01       		.uleb128 0x1
 7361 2018 50       		.byte	0x50
 7362 2019 02       		.uleb128 0x2
 7363 201a 08       		.byte	0x8
 7364 201b 94       		.byte	0x94
 7365 201c 00       		.byte	0
 7366 201d 00       		.byte	0
 7367 201e 3A       		.uleb128 0x3a
 7368 201f D1120000 		.4byte	0x12d1
 7369 2023 DA000000 		.4byte	.LBB30
 7370 2027 04000000 		.4byte	.LBE30-.LBB30
 7371 202b 01       		.byte	0x1
 7372 202c A301     		.2byte	0x1a3
 7373 202e 4D200000 		.4byte	0x204d
 7374 2032 2B       		.uleb128 0x2b
 7375 2033 DE120000 		.4byte	0x12de
 7376 2037 970A0000 		.4byte	.LLST67
 7377 203b 1F       		.uleb128 0x1f
 7378 203c DE000000 		.4byte	.LVL155
 7379 2040 C9190000 		.4byte	0x19c9
 7380 2044 3B       		.uleb128 0x3b
 7381 2045 DE120000 		.4byte	0x12de
 7382 2049 01       		.uleb128 0x1
 7383 204a 31       		.byte	0x31
 7384 204b 00       		.byte	0
 7385 204c 00       		.byte	0
 7386 204d 27       		.uleb128 0x27
 7387 204e 78010000 		.4byte	.LBB32
 7388 2052 34000000 		.4byte	.LBE32-.LBB32
 7389 2056 FA200000 		.4byte	0x20fa
 7390 205a 33       		.uleb128 0x33
 7391 205b 6C656E00 		.ascii	"len\000"
 7392 205f 01       		.byte	0x1
 7393 2060 C401     		.2byte	0x1c4
 7394 2062 B8000000 		.4byte	0xb8
 7395 2066 AB0A0000 		.4byte	.LLST68
 7396 206a 33       		.uleb128 0x33
 7397 206b 70747200 		.ascii	"ptr\000"
 7398 206f 01       		.byte	0x1
 7399 2070 C401     		.2byte	0x1c4
 7400 2072 C3000000 		.4byte	0xc3
 7401 2076 BF0A0000 		.4byte	.LLST69
 7402 207a 21       		.uleb128 0x21
ARM GAS  C:\Users\AHMED~1.ELE\AppData\Local\Temp\cc594ylT.s 			page 152


 7403 207b 80010000 		.4byte	.LVL176
 7404 207f 873F0000 		.4byte	0x3f87
 7405 2083 93200000 		.4byte	0x2093
 7406 2087 20       		.uleb128 0x20
 7407 2088 01       		.uleb128 0x1
 7408 2089 51       		.byte	0x51
 7409 208a 01       		.uleb128 0x1
 7410 208b 3B       		.byte	0x3b
 7411 208c 20       		.uleb128 0x20
 7412 208d 01       		.uleb128 0x1
 7413 208e 50       		.byte	0x50
 7414 208f 02       		.uleb128 0x2
 7415 2090 08       		.byte	0x8
 7416 2091 92       		.byte	0x92
 7417 2092 00       		.byte	0
 7418 2093 21       		.uleb128 0x21
 7419 2094 8C010000 		.4byte	.LVL177
 7420 2098 A13F0000 		.4byte	0x3fa1
 7421 209c B5200000 		.4byte	0x20b5
 7422 20a0 20       		.uleb128 0x20
 7423 20a1 01       		.uleb128 0x1
 7424 20a2 52       		.byte	0x52
 7425 20a3 01       		.uleb128 0x1
 7426 20a4 3A       		.byte	0x3a
 7427 20a5 20       		.uleb128 0x20
 7428 20a6 01       		.uleb128 0x1
 7429 20a7 51       		.byte	0x51
 7430 20a8 05       		.uleb128 0x5
 7431 20a9 03       		.byte	0x3
 7432 20aa 53000000 		.4byte	.LC5
 7433 20ae 20       		.uleb128 0x20
 7434 20af 01       		.uleb128 0x1
 7435 20b0 50       		.byte	0x50
 7436 20b1 02       		.uleb128 0x2
 7437 20b2 77       		.byte	0x77
 7438 20b3 00       		.sleb128 0
 7439 20b4 00       		.byte	0
 7440 20b5 21       		.uleb128 0x21
 7441 20b6 A4010000 		.4byte	.LVL178
 7442 20ba BE3F0000 		.4byte	0x3fbe
 7443 20be E3200000 		.4byte	0x20e3
 7444 20c2 20       		.uleb128 0x20
 7445 20c3 01       		.uleb128 0x1
 7446 20c4 53       		.byte	0x53
 7447 20c5 03       		.uleb128 0x3
 7448 20c6 0A       		.byte	0xa
 7449 20c7 0009     		.2byte	0x900
 7450 20c9 20       		.uleb128 0x20
 7451 20ca 01       		.uleb128 0x1
 7452 20cb 52       		.byte	0x52
 7453 20cc 02       		.uleb128 0x2
 7454 20cd 77       		.byte	0x77
 7455 20ce 00       		.sleb128 0
 7456 20cf 20       		.uleb128 0x20
 7457 20d0 01       		.uleb128 0x1
 7458 20d1 51       		.byte	0x51
 7459 20d2 02       		.uleb128 0x2
ARM GAS  C:\Users\AHMED~1.ELE\AppData\Local\Temp\cc594ylT.s 			page 153


 7460 20d3 08       		.byte	0x8
 7461 20d4 25       		.byte	0x25
 7462 20d5 20       		.uleb128 0x20
 7463 20d6 01       		.uleb128 0x1
 7464 20d7 50       		.byte	0x50
 7465 20d8 01       		.uleb128 0x1
 7466 20d9 3F       		.byte	0x3f
 7467 20da 20       		.uleb128 0x20
 7468 20db 02       		.uleb128 0x2
 7469 20dc 7D       		.byte	0x7d
 7470 20dd 00       		.sleb128 0
 7471 20de 03       		.uleb128 0x3
 7472 20df 0A       		.byte	0xa
 7473 20e0 8220     		.2byte	0x2082
 7474 20e2 00       		.byte	0
 7475 20e3 1F       		.uleb128 0x1f
 7476 20e4 AC010000 		.4byte	.LVL179
 7477 20e8 873F0000 		.4byte	0x3f87
 7478 20ec 20       		.uleb128 0x20
 7479 20ed 01       		.uleb128 0x1
 7480 20ee 51       		.byte	0x51
 7481 20ef 02       		.uleb128 0x2
 7482 20f0 77       		.byte	0x77
 7483 20f1 00       		.sleb128 0
 7484 20f2 20       		.uleb128 0x20
 7485 20f3 01       		.uleb128 0x1
 7486 20f4 50       		.byte	0x50
 7487 20f5 02       		.uleb128 0x2
 7488 20f6 08       		.byte	0x8
 7489 20f7 94       		.byte	0x94
 7490 20f8 00       		.byte	0
 7491 20f9 00       		.byte	0
 7492 20fa 27       		.uleb128 0x27
 7493 20fb B6010000 		.4byte	.LBB33
 7494 20ff 34000000 		.4byte	.LBE33-.LBB33
 7495 2103 A7210000 		.4byte	0x21a7
 7496 2107 33       		.uleb128 0x33
 7497 2108 6C656E00 		.ascii	"len\000"
 7498 210c 01       		.byte	0x1
 7499 210d CA01     		.2byte	0x1ca
 7500 210f B8000000 		.4byte	0xb8
 7501 2113 DD0A0000 		.4byte	.LLST70
 7502 2117 33       		.uleb128 0x33
 7503 2118 70747200 		.ascii	"ptr\000"
 7504 211c 01       		.byte	0x1
 7505 211d CA01     		.2byte	0x1ca
 7506 211f C3000000 		.4byte	0xc3
 7507 2123 F10A0000 		.4byte	.LLST71
 7508 2127 21       		.uleb128 0x21
 7509 2128 BE010000 		.4byte	.LVL183
 7510 212c 873F0000 		.4byte	0x3f87
 7511 2130 40210000 		.4byte	0x2140
 7512 2134 20       		.uleb128 0x20
 7513 2135 01       		.uleb128 0x1
 7514 2136 51       		.byte	0x51
 7515 2137 01       		.uleb128 0x1
 7516 2138 3B       		.byte	0x3b
ARM GAS  C:\Users\AHMED~1.ELE\AppData\Local\Temp\cc594ylT.s 			page 154


 7517 2139 20       		.uleb128 0x20
 7518 213a 01       		.uleb128 0x1
 7519 213b 50       		.byte	0x50
 7520 213c 02       		.uleb128 0x2
 7521 213d 08       		.byte	0x8
 7522 213e 92       		.byte	0x92
 7523 213f 00       		.byte	0
 7524 2140 21       		.uleb128 0x21
 7525 2141 CA010000 		.4byte	.LVL184
 7526 2145 A13F0000 		.4byte	0x3fa1
 7527 2149 62210000 		.4byte	0x2162
 7528 214d 20       		.uleb128 0x20
 7529 214e 01       		.uleb128 0x1
 7530 214f 52       		.byte	0x52
 7531 2150 01       		.uleb128 0x1
 7532 2151 3A       		.byte	0x3a
 7533 2152 20       		.uleb128 0x20
 7534 2153 01       		.uleb128 0x1
 7535 2154 51       		.byte	0x51
 7536 2155 05       		.uleb128 0x5
 7537 2156 03       		.byte	0x3
 7538 2157 5E000000 		.4byte	.LC6
 7539 215b 20       		.uleb128 0x20
 7540 215c 01       		.uleb128 0x1
 7541 215d 50       		.byte	0x50
 7542 215e 02       		.uleb128 0x2
 7543 215f 77       		.byte	0x77
 7544 2160 00       		.sleb128 0
 7545 2161 00       		.byte	0
 7546 2162 21       		.uleb128 0x21
 7547 2163 E2010000 		.4byte	.LVL185
 7548 2167 BE3F0000 		.4byte	0x3fbe
 7549 216b 90210000 		.4byte	0x2190
 7550 216f 20       		.uleb128 0x20
 7551 2170 01       		.uleb128 0x1
 7552 2171 53       		.byte	0x53
 7553 2172 03       		.uleb128 0x3
 7554 2173 0A       		.byte	0xa
 7555 2174 0009     		.2byte	0x900
 7556 2176 20       		.uleb128 0x20
 7557 2177 01       		.uleb128 0x1
 7558 2178 52       		.byte	0x52
 7559 2179 02       		.uleb128 0x2
 7560 217a 77       		.byte	0x77
 7561 217b 00       		.sleb128 0
 7562 217c 20       		.uleb128 0x20
 7563 217d 01       		.uleb128 0x1
 7564 217e 51       		.byte	0x51
 7565 217f 02       		.uleb128 0x2
 7566 2180 08       		.byte	0x8
 7567 2181 25       		.byte	0x25
 7568 2182 20       		.uleb128 0x20
 7569 2183 01       		.uleb128 0x1
 7570 2184 50       		.byte	0x50
 7571 2185 01       		.uleb128 0x1
 7572 2186 3F       		.byte	0x3f
 7573 2187 20       		.uleb128 0x20
ARM GAS  C:\Users\AHMED~1.ELE\AppData\Local\Temp\cc594ylT.s 			page 155


 7574 2188 02       		.uleb128 0x2
 7575 2189 7D       		.byte	0x7d
 7576 218a 00       		.sleb128 0
 7577 218b 03       		.uleb128 0x3
 7578 218c 0A       		.byte	0xa
 7579 218d 8220     		.2byte	0x2082
 7580 218f 00       		.byte	0
 7581 2190 1F       		.uleb128 0x1f
 7582 2191 EA010000 		.4byte	.LVL186
 7583 2195 873F0000 		.4byte	0x3f87
 7584 2199 20       		.uleb128 0x20
 7585 219a 01       		.uleb128 0x1
 7586 219b 51       		.byte	0x51
 7587 219c 02       		.uleb128 0x2
 7588 219d 77       		.byte	0x77
 7589 219e 00       		.sleb128 0
 7590 219f 20       		.uleb128 0x20
 7591 21a0 01       		.uleb128 0x1
 7592 21a1 50       		.byte	0x50
 7593 21a2 02       		.uleb128 0x2
 7594 21a3 08       		.byte	0x8
 7595 21a4 94       		.byte	0x94
 7596 21a5 00       		.byte	0
 7597 21a6 00       		.byte	0
 7598 21a7 27       		.uleb128 0x27
 7599 21a8 F4010000 		.4byte	.LBB34
 7600 21ac 34000000 		.4byte	.LBE34-.LBB34
 7601 21b0 54220000 		.4byte	0x2254
 7602 21b4 33       		.uleb128 0x33
 7603 21b5 6C656E00 		.ascii	"len\000"
 7604 21b9 01       		.byte	0x1
 7605 21ba D001     		.2byte	0x1d0
 7606 21bc B8000000 		.4byte	0xb8
 7607 21c0 0F0B0000 		.4byte	.LLST72
 7608 21c4 33       		.uleb128 0x33
 7609 21c5 70747200 		.ascii	"ptr\000"
 7610 21c9 01       		.byte	0x1
 7611 21ca D001     		.2byte	0x1d0
 7612 21cc C3000000 		.4byte	0xc3
 7613 21d0 230B0000 		.4byte	.LLST73
 7614 21d4 21       		.uleb128 0x21
 7615 21d5 FC010000 		.4byte	.LVL190
 7616 21d9 873F0000 		.4byte	0x3f87
 7617 21dd ED210000 		.4byte	0x21ed
 7618 21e1 20       		.uleb128 0x20
 7619 21e2 01       		.uleb128 0x1
 7620 21e3 51       		.byte	0x51
 7621 21e4 01       		.uleb128 0x1
 7622 21e5 3B       		.byte	0x3b
 7623 21e6 20       		.uleb128 0x20
 7624 21e7 01       		.uleb128 0x1
 7625 21e8 50       		.byte	0x50
 7626 21e9 02       		.uleb128 0x2
 7627 21ea 08       		.byte	0x8
 7628 21eb 92       		.byte	0x92
 7629 21ec 00       		.byte	0
 7630 21ed 21       		.uleb128 0x21
ARM GAS  C:\Users\AHMED~1.ELE\AppData\Local\Temp\cc594ylT.s 			page 156


 7631 21ee 08020000 		.4byte	.LVL191
 7632 21f2 A13F0000 		.4byte	0x3fa1
 7633 21f6 0F220000 		.4byte	0x220f
 7634 21fa 20       		.uleb128 0x20
 7635 21fb 01       		.uleb128 0x1
 7636 21fc 52       		.byte	0x52
 7637 21fd 01       		.uleb128 0x1
 7638 21fe 3A       		.byte	0x3a
 7639 21ff 20       		.uleb128 0x20
 7640 2200 01       		.uleb128 0x1
 7641 2201 51       		.byte	0x51
 7642 2202 05       		.uleb128 0x5
 7643 2203 03       		.byte	0x3
 7644 2204 69000000 		.4byte	.LC7
 7645 2208 20       		.uleb128 0x20
 7646 2209 01       		.uleb128 0x1
 7647 220a 50       		.byte	0x50
 7648 220b 02       		.uleb128 0x2
 7649 220c 77       		.byte	0x77
 7650 220d 00       		.sleb128 0
 7651 220e 00       		.byte	0
 7652 220f 21       		.uleb128 0x21
 7653 2210 20020000 		.4byte	.LVL192
 7654 2214 BE3F0000 		.4byte	0x3fbe
 7655 2218 3D220000 		.4byte	0x223d
 7656 221c 20       		.uleb128 0x20
 7657 221d 01       		.uleb128 0x1
 7658 221e 53       		.byte	0x53
 7659 221f 03       		.uleb128 0x3
 7660 2220 0A       		.byte	0xa
 7661 2221 0009     		.2byte	0x900
 7662 2223 20       		.uleb128 0x20
 7663 2224 01       		.uleb128 0x1
 7664 2225 52       		.byte	0x52
 7665 2226 02       		.uleb128 0x2
 7666 2227 77       		.byte	0x77
 7667 2228 00       		.sleb128 0
 7668 2229 20       		.uleb128 0x20
 7669 222a 01       		.uleb128 0x1
 7670 222b 51       		.byte	0x51
 7671 222c 02       		.uleb128 0x2
 7672 222d 08       		.byte	0x8
 7673 222e 25       		.byte	0x25
 7674 222f 20       		.uleb128 0x20
 7675 2230 01       		.uleb128 0x1
 7676 2231 50       		.byte	0x50
 7677 2232 01       		.uleb128 0x1
 7678 2233 3F       		.byte	0x3f
 7679 2234 20       		.uleb128 0x20
 7680 2235 02       		.uleb128 0x2
 7681 2236 7D       		.byte	0x7d
 7682 2237 00       		.sleb128 0
 7683 2238 03       		.uleb128 0x3
 7684 2239 0A       		.byte	0xa
 7685 223a 8220     		.2byte	0x2082
 7686 223c 00       		.byte	0
 7687 223d 1F       		.uleb128 0x1f
ARM GAS  C:\Users\AHMED~1.ELE\AppData\Local\Temp\cc594ylT.s 			page 157


 7688 223e 28020000 		.4byte	.LVL193
 7689 2242 873F0000 		.4byte	0x3f87
 7690 2246 20       		.uleb128 0x20
 7691 2247 01       		.uleb128 0x1
 7692 2248 51       		.byte	0x51
 7693 2249 02       		.uleb128 0x2
 7694 224a 77       		.byte	0x77
 7695 224b 00       		.sleb128 0
 7696 224c 20       		.uleb128 0x20
 7697 224d 01       		.uleb128 0x1
 7698 224e 50       		.byte	0x50
 7699 224f 02       		.uleb128 0x2
 7700 2250 08       		.byte	0x8
 7701 2251 94       		.byte	0x94
 7702 2252 00       		.byte	0
 7703 2253 00       		.byte	0
 7704 2254 27       		.uleb128 0x27
 7705 2255 32020000 		.4byte	.LBB35
 7706 2259 34000000 		.4byte	.LBE35-.LBB35
 7707 225d 01230000 		.4byte	0x2301
 7708 2261 33       		.uleb128 0x33
 7709 2262 6C656E00 		.ascii	"len\000"
 7710 2266 01       		.byte	0x1
 7711 2267 D601     		.2byte	0x1d6
 7712 2269 B8000000 		.4byte	0xb8
 7713 226d 410B0000 		.4byte	.LLST74
 7714 2271 33       		.uleb128 0x33
 7715 2272 70747200 		.ascii	"ptr\000"
 7716 2276 01       		.byte	0x1
 7717 2277 D601     		.2byte	0x1d6
 7718 2279 C3000000 		.4byte	0xc3
 7719 227d 550B0000 		.4byte	.LLST75
 7720 2281 21       		.uleb128 0x21
 7721 2282 3A020000 		.4byte	.LVL197
 7722 2286 873F0000 		.4byte	0x3f87
 7723 228a 9A220000 		.4byte	0x229a
 7724 228e 20       		.uleb128 0x20
 7725 228f 01       		.uleb128 0x1
 7726 2290 51       		.byte	0x51
 7727 2291 01       		.uleb128 0x1
 7728 2292 3B       		.byte	0x3b
 7729 2293 20       		.uleb128 0x20
 7730 2294 01       		.uleb128 0x1
 7731 2295 50       		.byte	0x50
 7732 2296 02       		.uleb128 0x2
 7733 2297 08       		.byte	0x8
 7734 2298 92       		.byte	0x92
 7735 2299 00       		.byte	0
 7736 229a 21       		.uleb128 0x21
 7737 229b 46020000 		.4byte	.LVL198
 7738 229f A13F0000 		.4byte	0x3fa1
 7739 22a3 BC220000 		.4byte	0x22bc
 7740 22a7 20       		.uleb128 0x20
 7741 22a8 01       		.uleb128 0x1
 7742 22a9 52       		.byte	0x52
 7743 22aa 01       		.uleb128 0x1
 7744 22ab 3A       		.byte	0x3a
ARM GAS  C:\Users\AHMED~1.ELE\AppData\Local\Temp\cc594ylT.s 			page 158


 7745 22ac 20       		.uleb128 0x20
 7746 22ad 01       		.uleb128 0x1
 7747 22ae 51       		.byte	0x51
 7748 22af 05       		.uleb128 0x5
 7749 22b0 03       		.byte	0x3
 7750 22b1 53000000 		.4byte	.LC5
 7751 22b5 20       		.uleb128 0x20
 7752 22b6 01       		.uleb128 0x1
 7753 22b7 50       		.byte	0x50
 7754 22b8 02       		.uleb128 0x2
 7755 22b9 77       		.byte	0x77
 7756 22ba 00       		.sleb128 0
 7757 22bb 00       		.byte	0
 7758 22bc 21       		.uleb128 0x21
 7759 22bd 5E020000 		.4byte	.LVL199
 7760 22c1 BE3F0000 		.4byte	0x3fbe
 7761 22c5 EA220000 		.4byte	0x22ea
 7762 22c9 20       		.uleb128 0x20
 7763 22ca 01       		.uleb128 0x1
 7764 22cb 53       		.byte	0x53
 7765 22cc 03       		.uleb128 0x3
 7766 22cd 0A       		.byte	0xa
 7767 22ce 0009     		.2byte	0x900
 7768 22d0 20       		.uleb128 0x20
 7769 22d1 01       		.uleb128 0x1
 7770 22d2 52       		.byte	0x52
 7771 22d3 02       		.uleb128 0x2
 7772 22d4 77       		.byte	0x77
 7773 22d5 00       		.sleb128 0
 7774 22d6 20       		.uleb128 0x20
 7775 22d7 01       		.uleb128 0x1
 7776 22d8 51       		.byte	0x51
 7777 22d9 02       		.uleb128 0x2
 7778 22da 08       		.byte	0x8
 7779 22db 25       		.byte	0x25
 7780 22dc 20       		.uleb128 0x20
 7781 22dd 01       		.uleb128 0x1
 7782 22de 50       		.byte	0x50
 7783 22df 01       		.uleb128 0x1
 7784 22e0 3F       		.byte	0x3f
 7785 22e1 20       		.uleb128 0x20
 7786 22e2 02       		.uleb128 0x2
 7787 22e3 7D       		.byte	0x7d
 7788 22e4 00       		.sleb128 0
 7789 22e5 03       		.uleb128 0x3
 7790 22e6 0A       		.byte	0xa
 7791 22e7 8220     		.2byte	0x2082
 7792 22e9 00       		.byte	0
 7793 22ea 1F       		.uleb128 0x1f
 7794 22eb 66020000 		.4byte	.LVL200
 7795 22ef 873F0000 		.4byte	0x3f87
 7796 22f3 20       		.uleb128 0x20
 7797 22f4 01       		.uleb128 0x1
 7798 22f5 51       		.byte	0x51
 7799 22f6 02       		.uleb128 0x2
 7800 22f7 77       		.byte	0x77
 7801 22f8 00       		.sleb128 0
ARM GAS  C:\Users\AHMED~1.ELE\AppData\Local\Temp\cc594ylT.s 			page 159


 7802 22f9 20       		.uleb128 0x20
 7803 22fa 01       		.uleb128 0x1
 7804 22fb 50       		.byte	0x50
 7805 22fc 02       		.uleb128 0x2
 7806 22fd 08       		.byte	0x8
 7807 22fe 94       		.byte	0x94
 7808 22ff 00       		.byte	0
 7809 2300 00       		.byte	0
 7810 2301 27       		.uleb128 0x27
 7811 2302 7A020000 		.4byte	.LBB36
 7812 2306 34000000 		.4byte	.LBE36-.LBB36
 7813 230a AE230000 		.4byte	0x23ae
 7814 230e 33       		.uleb128 0x33
 7815 230f 6C656E00 		.ascii	"len\000"
 7816 2313 01       		.byte	0x1
 7817 2314 DC01     		.2byte	0x1dc
 7818 2316 B8000000 		.4byte	0xb8
 7819 231a 730B0000 		.4byte	.LLST76
 7820 231e 33       		.uleb128 0x33
 7821 231f 70747200 		.ascii	"ptr\000"
 7822 2323 01       		.byte	0x1
 7823 2324 DC01     		.2byte	0x1dc
 7824 2326 C3000000 		.4byte	0xc3
 7825 232a 870B0000 		.4byte	.LLST77
 7826 232e 21       		.uleb128 0x21
 7827 232f 82020000 		.4byte	.LVL205
 7828 2333 873F0000 		.4byte	0x3f87
 7829 2337 47230000 		.4byte	0x2347
 7830 233b 20       		.uleb128 0x20
 7831 233c 01       		.uleb128 0x1
 7832 233d 51       		.byte	0x51
 7833 233e 01       		.uleb128 0x1
 7834 233f 3B       		.byte	0x3b
 7835 2340 20       		.uleb128 0x20
 7836 2341 01       		.uleb128 0x1
 7837 2342 50       		.byte	0x50
 7838 2343 02       		.uleb128 0x2
 7839 2344 08       		.byte	0x8
 7840 2345 92       		.byte	0x92
 7841 2346 00       		.byte	0
 7842 2347 21       		.uleb128 0x21
 7843 2348 8E020000 		.4byte	.LVL206
 7844 234c A13F0000 		.4byte	0x3fa1
 7845 2350 69230000 		.4byte	0x2369
 7846 2354 20       		.uleb128 0x20
 7847 2355 01       		.uleb128 0x1
 7848 2356 52       		.byte	0x52
 7849 2357 01       		.uleb128 0x1
 7850 2358 3A       		.byte	0x3a
 7851 2359 20       		.uleb128 0x20
 7852 235a 01       		.uleb128 0x1
 7853 235b 51       		.byte	0x51
 7854 235c 05       		.uleb128 0x5
 7855 235d 03       		.byte	0x3
 7856 235e 5E000000 		.4byte	.LC6
 7857 2362 20       		.uleb128 0x20
 7858 2363 01       		.uleb128 0x1
ARM GAS  C:\Users\AHMED~1.ELE\AppData\Local\Temp\cc594ylT.s 			page 160


 7859 2364 50       		.byte	0x50
 7860 2365 02       		.uleb128 0x2
 7861 2366 74       		.byte	0x74
 7862 2367 00       		.sleb128 0
 7863 2368 00       		.byte	0
 7864 2369 21       		.uleb128 0x21
 7865 236a A6020000 		.4byte	.LVL207
 7866 236e BE3F0000 		.4byte	0x3fbe
 7867 2372 97230000 		.4byte	0x2397
 7868 2376 20       		.uleb128 0x20
 7869 2377 01       		.uleb128 0x1
 7870 2378 53       		.byte	0x53
 7871 2379 03       		.uleb128 0x3
 7872 237a 0A       		.byte	0xa
 7873 237b 0009     		.2byte	0x900
 7874 237d 20       		.uleb128 0x20
 7875 237e 01       		.uleb128 0x1
 7876 237f 52       		.byte	0x52
 7877 2380 02       		.uleb128 0x2
 7878 2381 74       		.byte	0x74
 7879 2382 00       		.sleb128 0
 7880 2383 20       		.uleb128 0x20
 7881 2384 01       		.uleb128 0x1
 7882 2385 51       		.byte	0x51
 7883 2386 02       		.uleb128 0x2
 7884 2387 08       		.byte	0x8
 7885 2388 25       		.byte	0x25
 7886 2389 20       		.uleb128 0x20
 7887 238a 01       		.uleb128 0x1
 7888 238b 50       		.byte	0x50
 7889 238c 01       		.uleb128 0x1
 7890 238d 3F       		.byte	0x3f
 7891 238e 20       		.uleb128 0x20
 7892 238f 02       		.uleb128 0x2
 7893 2390 7D       		.byte	0x7d
 7894 2391 00       		.sleb128 0
 7895 2392 03       		.uleb128 0x3
 7896 2393 0A       		.byte	0xa
 7897 2394 8220     		.2byte	0x2082
 7898 2396 00       		.byte	0
 7899 2397 1F       		.uleb128 0x1f
 7900 2398 AE020000 		.4byte	.LVL208
 7901 239c 873F0000 		.4byte	0x3f87
 7902 23a0 20       		.uleb128 0x20
 7903 23a1 01       		.uleb128 0x1
 7904 23a2 51       		.byte	0x51
 7905 23a3 02       		.uleb128 0x2
 7906 23a4 74       		.byte	0x74
 7907 23a5 00       		.sleb128 0
 7908 23a6 20       		.uleb128 0x20
 7909 23a7 01       		.uleb128 0x1
 7910 23a8 50       		.byte	0x50
 7911 23a9 02       		.uleb128 0x2
 7912 23aa 08       		.byte	0x8
 7913 23ab 94       		.byte	0x94
 7914 23ac 00       		.byte	0
 7915 23ad 00       		.byte	0
ARM GAS  C:\Users\AHMED~1.ELE\AppData\Local\Temp\cc594ylT.s 			page 161


 7916 23ae 27       		.uleb128 0x27
 7917 23af C2020000 		.4byte	.LBB37
 7918 23b3 34000000 		.4byte	.LBE37-.LBB37
 7919 23b7 5B240000 		.4byte	0x245b
 7920 23bb 33       		.uleb128 0x33
 7921 23bc 6C656E00 		.ascii	"len\000"
 7922 23c0 01       		.byte	0x1
 7923 23c1 E201     		.2byte	0x1e2
 7924 23c3 B8000000 		.4byte	0xb8
 7925 23c7 A50B0000 		.4byte	.LLST78
 7926 23cb 33       		.uleb128 0x33
 7927 23cc 70747200 		.ascii	"ptr\000"
 7928 23d0 01       		.byte	0x1
 7929 23d1 E201     		.2byte	0x1e2
 7930 23d3 C3000000 		.4byte	0xc3
 7931 23d7 B90B0000 		.4byte	.LLST79
 7932 23db 21       		.uleb128 0x21
 7933 23dc CA020000 		.4byte	.LVL213
 7934 23e0 873F0000 		.4byte	0x3f87
 7935 23e4 F4230000 		.4byte	0x23f4
 7936 23e8 20       		.uleb128 0x20
 7937 23e9 01       		.uleb128 0x1
 7938 23ea 51       		.byte	0x51
 7939 23eb 01       		.uleb128 0x1
 7940 23ec 3B       		.byte	0x3b
 7941 23ed 20       		.uleb128 0x20
 7942 23ee 01       		.uleb128 0x1
 7943 23ef 50       		.byte	0x50
 7944 23f0 02       		.uleb128 0x2
 7945 23f1 08       		.byte	0x8
 7946 23f2 92       		.byte	0x92
 7947 23f3 00       		.byte	0
 7948 23f4 21       		.uleb128 0x21
 7949 23f5 D6020000 		.4byte	.LVL214
 7950 23f9 A13F0000 		.4byte	0x3fa1
 7951 23fd 16240000 		.4byte	0x2416
 7952 2401 20       		.uleb128 0x20
 7953 2402 01       		.uleb128 0x1
 7954 2403 52       		.byte	0x52
 7955 2404 01       		.uleb128 0x1
 7956 2405 3A       		.byte	0x3a
 7957 2406 20       		.uleb128 0x20
 7958 2407 01       		.uleb128 0x1
 7959 2408 51       		.byte	0x51
 7960 2409 05       		.uleb128 0x5
 7961 240a 03       		.byte	0x3
 7962 240b 69000000 		.4byte	.LC7
 7963 240f 20       		.uleb128 0x20
 7964 2410 01       		.uleb128 0x1
 7965 2411 50       		.byte	0x50
 7966 2412 02       		.uleb128 0x2
 7967 2413 74       		.byte	0x74
 7968 2414 00       		.sleb128 0
 7969 2415 00       		.byte	0
 7970 2416 21       		.uleb128 0x21
 7971 2417 EE020000 		.4byte	.LVL215
 7972 241b BE3F0000 		.4byte	0x3fbe
ARM GAS  C:\Users\AHMED~1.ELE\AppData\Local\Temp\cc594ylT.s 			page 162


 7973 241f 44240000 		.4byte	0x2444
 7974 2423 20       		.uleb128 0x20
 7975 2424 01       		.uleb128 0x1
 7976 2425 53       		.byte	0x53
 7977 2426 03       		.uleb128 0x3
 7978 2427 0A       		.byte	0xa
 7979 2428 0009     		.2byte	0x900
 7980 242a 20       		.uleb128 0x20
 7981 242b 01       		.uleb128 0x1
 7982 242c 52       		.byte	0x52
 7983 242d 02       		.uleb128 0x2
 7984 242e 74       		.byte	0x74
 7985 242f 00       		.sleb128 0
 7986 2430 20       		.uleb128 0x20
 7987 2431 01       		.uleb128 0x1
 7988 2432 51       		.byte	0x51
 7989 2433 02       		.uleb128 0x2
 7990 2434 08       		.byte	0x8
 7991 2435 25       		.byte	0x25
 7992 2436 20       		.uleb128 0x20
 7993 2437 01       		.uleb128 0x1
 7994 2438 50       		.byte	0x50
 7995 2439 01       		.uleb128 0x1
 7996 243a 3F       		.byte	0x3f
 7997 243b 20       		.uleb128 0x20
 7998 243c 02       		.uleb128 0x2
 7999 243d 7D       		.byte	0x7d
 8000 243e 00       		.sleb128 0
 8001 243f 03       		.uleb128 0x3
 8002 2440 0A       		.byte	0xa
 8003 2441 8220     		.2byte	0x2082
 8004 2443 00       		.byte	0
 8005 2444 1F       		.uleb128 0x1f
 8006 2445 F6020000 		.4byte	.LVL216
 8007 2449 873F0000 		.4byte	0x3f87
 8008 244d 20       		.uleb128 0x20
 8009 244e 01       		.uleb128 0x1
 8010 244f 51       		.byte	0x51
 8011 2450 02       		.uleb128 0x2
 8012 2451 74       		.byte	0x74
 8013 2452 00       		.sleb128 0
 8014 2453 20       		.uleb128 0x20
 8015 2454 01       		.uleb128 0x1
 8016 2455 50       		.byte	0x50
 8017 2456 02       		.uleb128 0x2
 8018 2457 08       		.byte	0x8
 8019 2458 94       		.byte	0x94
 8020 2459 00       		.byte	0
 8021 245a 00       		.byte	0
 8022 245b 27       		.uleb128 0x27
 8023 245c 20030000 		.4byte	.LBB38
 8024 2460 40000000 		.4byte	.LBE38-.LBB38
 8025 2464 C0240000 		.4byte	0x24c0
 8026 2468 33       		.uleb128 0x33
 8027 2469 6C656E00 		.ascii	"len\000"
 8028 246d 01       		.byte	0x1
 8029 246e E901     		.2byte	0x1e9
ARM GAS  C:\Users\AHMED~1.ELE\AppData\Local\Temp\cc594ylT.s 			page 163


 8030 2470 B8000000 		.4byte	0xb8
 8031 2474 D70B0000 		.4byte	.LLST80
 8032 2478 33       		.uleb128 0x33
 8033 2479 70747200 		.ascii	"ptr\000"
 8034 247d 01       		.byte	0x1
 8035 247e E901     		.2byte	0x1e9
 8036 2480 C3000000 		.4byte	0xc3
 8037 2484 EB0B0000 		.4byte	.LLST81
 8038 2488 21       		.uleb128 0x21
 8039 2489 28030000 		.4byte	.LVL224
 8040 248d 873F0000 		.4byte	0x3f87
 8041 2491 A1240000 		.4byte	0x24a1
 8042 2495 20       		.uleb128 0x20
 8043 2496 01       		.uleb128 0x1
 8044 2497 51       		.byte	0x51
 8045 2498 01       		.uleb128 0x1
 8046 2499 3E       		.byte	0x3e
 8047 249a 20       		.uleb128 0x20
 8048 249b 01       		.uleb128 0x1
 8049 249c 50       		.byte	0x50
 8050 249d 02       		.uleb128 0x2
 8051 249e 08       		.byte	0x8
 8052 249f 92       		.byte	0x92
 8053 24a0 00       		.byte	0
 8054 24a1 1F       		.uleb128 0x1f
 8055 24a2 36030000 		.4byte	.LVL225
 8056 24a6 A13F0000 		.4byte	0x3fa1
 8057 24aa 20       		.uleb128 0x20
 8058 24ab 01       		.uleb128 0x1
 8059 24ac 52       		.byte	0x52
 8060 24ad 01       		.uleb128 0x1
 8061 24ae 3D       		.byte	0x3d
 8062 24af 20       		.uleb128 0x20
 8063 24b0 01       		.uleb128 0x1
 8064 24b1 51       		.byte	0x51
 8065 24b2 05       		.uleb128 0x5
 8066 24b3 03       		.byte	0x3
 8067 24b4 74000000 		.4byte	.LC8
 8068 24b8 20       		.uleb128 0x20
 8069 24b9 01       		.uleb128 0x1
 8070 24ba 50       		.byte	0x50
 8071 24bb 02       		.uleb128 0x2
 8072 24bc 74       		.byte	0x74
 8073 24bd 00       		.sleb128 0
 8074 24be 00       		.byte	0
 8075 24bf 00       		.byte	0
 8076 24c0 27       		.uleb128 0x27
 8077 24c1 74030000 		.4byte	.LBB39
 8078 24c5 34000000 		.4byte	.LBE39-.LBB39
 8079 24c9 6D250000 		.4byte	0x256d
 8080 24cd 33       		.uleb128 0x33
 8081 24ce 6C656E00 		.ascii	"len\000"
 8082 24d2 01       		.byte	0x1
 8083 24d3 F201     		.2byte	0x1f2
 8084 24d5 B8000000 		.4byte	0xb8
 8085 24d9 090C0000 		.4byte	.LLST82
 8086 24dd 33       		.uleb128 0x33
ARM GAS  C:\Users\AHMED~1.ELE\AppData\Local\Temp\cc594ylT.s 			page 164


 8087 24de 70747200 		.ascii	"ptr\000"
 8088 24e2 01       		.byte	0x1
 8089 24e3 F201     		.2byte	0x1f2
 8090 24e5 C3000000 		.4byte	0xc3
 8091 24e9 1D0C0000 		.4byte	.LLST83
 8092 24ed 21       		.uleb128 0x21
 8093 24ee 7C030000 		.4byte	.LVL231
 8094 24f2 873F0000 		.4byte	0x3f87
 8095 24f6 06250000 		.4byte	0x2506
 8096 24fa 20       		.uleb128 0x20
 8097 24fb 01       		.uleb128 0x1
 8098 24fc 51       		.byte	0x51
 8099 24fd 01       		.uleb128 0x1
 8100 24fe 40       		.byte	0x40
 8101 24ff 20       		.uleb128 0x20
 8102 2500 01       		.uleb128 0x1
 8103 2501 50       		.byte	0x50
 8104 2502 02       		.uleb128 0x2
 8105 2503 08       		.byte	0x8
 8106 2504 92       		.byte	0x92
 8107 2505 00       		.byte	0
 8108 2506 21       		.uleb128 0x21
 8109 2507 88030000 		.4byte	.LVL232
 8110 250b A13F0000 		.4byte	0x3fa1
 8111 250f 28250000 		.4byte	0x2528
 8112 2513 20       		.uleb128 0x20
 8113 2514 01       		.uleb128 0x1
 8114 2515 52       		.byte	0x52
 8115 2516 01       		.uleb128 0x1
 8116 2517 3F       		.byte	0x3f
 8117 2518 20       		.uleb128 0x20
 8118 2519 01       		.uleb128 0x1
 8119 251a 51       		.byte	0x51
 8120 251b 05       		.uleb128 0x5
 8121 251c 03       		.byte	0x3
 8122 251d 82000000 		.4byte	.LC9
 8123 2521 20       		.uleb128 0x20
 8124 2522 01       		.uleb128 0x1
 8125 2523 50       		.byte	0x50
 8126 2524 02       		.uleb128 0x2
 8127 2525 74       		.byte	0x74
 8128 2526 00       		.sleb128 0
 8129 2527 00       		.byte	0
 8130 2528 21       		.uleb128 0x21
 8131 2529 A0030000 		.4byte	.LVL234
 8132 252d BE3F0000 		.4byte	0x3fbe
 8133 2531 56250000 		.4byte	0x2556
 8134 2535 20       		.uleb128 0x20
 8135 2536 01       		.uleb128 0x1
 8136 2537 53       		.byte	0x53
 8137 2538 03       		.uleb128 0x3
 8138 2539 0A       		.byte	0xa
 8139 253a 0009     		.2byte	0x900
 8140 253c 20       		.uleb128 0x20
 8141 253d 01       		.uleb128 0x1
 8142 253e 52       		.byte	0x52
 8143 253f 02       		.uleb128 0x2
ARM GAS  C:\Users\AHMED~1.ELE\AppData\Local\Temp\cc594ylT.s 			page 165


 8144 2540 74       		.byte	0x74
 8145 2541 00       		.sleb128 0
 8146 2542 20       		.uleb128 0x20
 8147 2543 01       		.uleb128 0x1
 8148 2544 51       		.byte	0x51
 8149 2545 02       		.uleb128 0x2
 8150 2546 08       		.byte	0x8
 8151 2547 25       		.byte	0x25
 8152 2548 20       		.uleb128 0x20
 8153 2549 01       		.uleb128 0x1
 8154 254a 50       		.byte	0x50
 8155 254b 01       		.uleb128 0x1
 8156 254c 3F       		.byte	0x3f
 8157 254d 20       		.uleb128 0x20
 8158 254e 02       		.uleb128 0x2
 8159 254f 7D       		.byte	0x7d
 8160 2550 00       		.sleb128 0
 8161 2551 03       		.uleb128 0x3
 8162 2552 0A       		.byte	0xa
 8163 2553 2020     		.2byte	0x2020
 8164 2555 00       		.byte	0
 8165 2556 1F       		.uleb128 0x1f
 8166 2557 A8030000 		.4byte	.LVL235
 8167 255b 873F0000 		.4byte	0x3f87
 8168 255f 20       		.uleb128 0x20
 8169 2560 01       		.uleb128 0x1
 8170 2561 51       		.byte	0x51
 8171 2562 02       		.uleb128 0x2
 8172 2563 74       		.byte	0x74
 8173 2564 00       		.sleb128 0
 8174 2565 20       		.uleb128 0x20
 8175 2566 01       		.uleb128 0x1
 8176 2567 50       		.byte	0x50
 8177 2568 02       		.uleb128 0x2
 8178 2569 08       		.byte	0x8
 8179 256a 94       		.byte	0x94
 8180 256b 00       		.byte	0
 8181 256c 00       		.byte	0
 8182 256d 27       		.uleb128 0x27
 8183 256e 02040000 		.4byte	.LBB40
 8184 2572 42000000 		.4byte	.LBE40-.LBB40
 8185 2576 35260000 		.4byte	0x2635
 8186 257a 33       		.uleb128 0x33
 8187 257b 6C656E00 		.ascii	"len\000"
 8188 257f 01       		.byte	0x1
 8189 2580 0E02     		.2byte	0x20e
 8190 2582 B8000000 		.4byte	0xb8
 8191 2586 3B0C0000 		.4byte	.LLST84
 8192 258a 33       		.uleb128 0x33
 8193 258b 70747200 		.ascii	"ptr\000"
 8194 258f 01       		.byte	0x1
 8195 2590 0E02     		.2byte	0x20e
 8196 2592 C3000000 		.4byte	0xc3
 8197 2596 660C0000 		.4byte	.LLST85
 8198 259a 21       		.uleb128 0x21
 8199 259b 08040000 		.4byte	.LVL250
 8200 259f 723F0000 		.4byte	0x3f72
ARM GAS  C:\Users\AHMED~1.ELE\AppData\Local\Temp\cc594ylT.s 			page 166


 8201 25a3 AF250000 		.4byte	0x25af
 8202 25a7 20       		.uleb128 0x20
 8203 25a8 01       		.uleb128 0x1
 8204 25a9 50       		.byte	0x50
 8205 25aa 03       		.uleb128 0x3
 8206 25ab 91       		.byte	0x91
 8207 25ac D87B     		.sleb128 -552
 8208 25ae 00       		.byte	0
 8209 25af 21       		.uleb128 0x21
 8210 25b0 14040000 		.4byte	.LVL254
 8211 25b4 873F0000 		.4byte	0x3f87
 8212 25b8 CD250000 		.4byte	0x25cd
 8213 25bc 20       		.uleb128 0x20
 8214 25bd 01       		.uleb128 0x1
 8215 25be 51       		.byte	0x51
 8216 25bf 06       		.uleb128 0x6
 8217 25c0 91       		.byte	0x91
 8218 25c1 B47B     		.sleb128 -588
 8219 25c3 06       		.byte	0x6
 8220 25c4 23       		.byte	0x23
 8221 25c5 01       		.uleb128 0x1
 8222 25c6 20       		.uleb128 0x20
 8223 25c7 01       		.uleb128 0x1
 8224 25c8 50       		.byte	0x50
 8225 25c9 02       		.uleb128 0x2
 8226 25ca 08       		.byte	0x8
 8227 25cb 92       		.byte	0x92
 8228 25cc 00       		.byte	0
 8229 25cd 21       		.uleb128 0x21
 8230 25ce 22040000 		.4byte	.LVL256
 8231 25d2 A13F0000 		.4byte	0x3fa1
 8232 25d6 F0250000 		.4byte	0x25f0
 8233 25da 20       		.uleb128 0x20
 8234 25db 01       		.uleb128 0x1
 8235 25dc 52       		.byte	0x52
 8236 25dd 04       		.uleb128 0x4
 8237 25de 91       		.byte	0x91
 8238 25df B47B     		.sleb128 -588
 8239 25e1 06       		.byte	0x6
 8240 25e2 20       		.uleb128 0x20
 8241 25e3 01       		.uleb128 0x1
 8242 25e4 51       		.byte	0x51
 8243 25e5 03       		.uleb128 0x3
 8244 25e6 91       		.byte	0x91
 8245 25e7 D87B     		.sleb128 -552
 8246 25e9 20       		.uleb128 0x20
 8247 25ea 01       		.uleb128 0x1
 8248 25eb 50       		.byte	0x50
 8249 25ec 02       		.uleb128 0x2
 8250 25ed 74       		.byte	0x74
 8251 25ee 00       		.sleb128 0
 8252 25ef 00       		.byte	0
 8253 25f0 21       		.uleb128 0x21
 8254 25f1 3C040000 		.4byte	.LVL257
 8255 25f5 BE3F0000 		.4byte	0x3fbe
 8256 25f9 1E260000 		.4byte	0x261e
 8257 25fd 20       		.uleb128 0x20
ARM GAS  C:\Users\AHMED~1.ELE\AppData\Local\Temp\cc594ylT.s 			page 167


 8258 25fe 01       		.uleb128 0x1
 8259 25ff 53       		.byte	0x53
 8260 2600 03       		.uleb128 0x3
 8261 2601 0A       		.byte	0xa
 8262 2602 0009     		.2byte	0x900
 8263 2604 20       		.uleb128 0x20
 8264 2605 01       		.uleb128 0x1
 8265 2606 52       		.byte	0x52
 8266 2607 02       		.uleb128 0x2
 8267 2608 74       		.byte	0x74
 8268 2609 00       		.sleb128 0
 8269 260a 20       		.uleb128 0x20
 8270 260b 01       		.uleb128 0x1
 8271 260c 51       		.byte	0x51
 8272 260d 02       		.uleb128 0x2
 8273 260e 08       		.byte	0x8
 8274 260f 25       		.byte	0x25
 8275 2610 20       		.uleb128 0x20
 8276 2611 01       		.uleb128 0x1
 8277 2612 50       		.byte	0x50
 8278 2613 01       		.uleb128 0x1
 8279 2614 3F       		.byte	0x3f
 8280 2615 20       		.uleb128 0x20
 8281 2616 02       		.uleb128 0x2
 8282 2617 7D       		.byte	0x7d
 8283 2618 00       		.sleb128 0
 8284 2619 03       		.uleb128 0x3
 8285 261a 0A       		.byte	0xa
 8286 261b 2020     		.2byte	0x2020
 8287 261d 00       		.byte	0
 8288 261e 1F       		.uleb128 0x1f
 8289 261f 44040000 		.4byte	.LVL258
 8290 2623 873F0000 		.4byte	0x3f87
 8291 2627 20       		.uleb128 0x20
 8292 2628 01       		.uleb128 0x1
 8293 2629 51       		.byte	0x51
 8294 262a 02       		.uleb128 0x2
 8295 262b 74       		.byte	0x74
 8296 262c 00       		.sleb128 0
 8297 262d 20       		.uleb128 0x20
 8298 262e 01       		.uleb128 0x1
 8299 262f 50       		.byte	0x50
 8300 2630 02       		.uleb128 0x2
 8301 2631 08       		.byte	0x8
 8302 2632 94       		.byte	0x94
 8303 2633 00       		.byte	0
 8304 2634 00       		.byte	0
 8305 2635 27       		.uleb128 0x27
 8306 2636 1A050000 		.4byte	.LBB41
 8307 263a 42000000 		.4byte	.LBE41-.LBB41
 8308 263e F7260000 		.4byte	0x26f7
 8309 2642 33       		.uleb128 0x33
 8310 2643 6C656E00 		.ascii	"len\000"
 8311 2647 01       		.byte	0x1
 8312 2648 6B02     		.2byte	0x26b
 8313 264a B8000000 		.4byte	0xb8
 8314 264e 840C0000 		.4byte	.LLST86
ARM GAS  C:\Users\AHMED~1.ELE\AppData\Local\Temp\cc594ylT.s 			page 168


 8315 2652 33       		.uleb128 0x33
 8316 2653 70747200 		.ascii	"ptr\000"
 8317 2657 01       		.byte	0x1
 8318 2658 6B02     		.2byte	0x26b
 8319 265a C3000000 		.4byte	0xc3
 8320 265e AD0C0000 		.4byte	.LLST87
 8321 2662 21       		.uleb128 0x21
 8322 2663 20050000 		.4byte	.LVL278
 8323 2667 723F0000 		.4byte	0x3f72
 8324 266b 77260000 		.4byte	0x2677
 8325 266f 20       		.uleb128 0x20
 8326 2670 01       		.uleb128 0x1
 8327 2671 50       		.byte	0x50
 8328 2672 03       		.uleb128 0x3
 8329 2673 91       		.byte	0x91
 8330 2674 D87B     		.sleb128 -552
 8331 2676 00       		.byte	0
 8332 2677 21       		.uleb128 0x21
 8333 2678 2C050000 		.4byte	.LVL281
 8334 267c 873F0000 		.4byte	0x3f87
 8335 2680 91260000 		.4byte	0x2691
 8336 2684 20       		.uleb128 0x20
 8337 2685 01       		.uleb128 0x1
 8338 2686 51       		.byte	0x51
 8339 2687 02       		.uleb128 0x2
 8340 2688 79       		.byte	0x79
 8341 2689 01       		.sleb128 1
 8342 268a 20       		.uleb128 0x20
 8343 268b 01       		.uleb128 0x1
 8344 268c 50       		.byte	0x50
 8345 268d 02       		.uleb128 0x2
 8346 268e 08       		.byte	0x8
 8347 268f 92       		.byte	0x92
 8348 2690 00       		.byte	0
 8349 2691 21       		.uleb128 0x21
 8350 2692 3A050000 		.4byte	.LVL283
 8351 2696 A13F0000 		.4byte	0x3fa1
 8352 269a B2260000 		.4byte	0x26b2
 8353 269e 20       		.uleb128 0x20
 8354 269f 01       		.uleb128 0x1
 8355 26a0 52       		.byte	0x52
 8356 26a1 02       		.uleb128 0x2
 8357 26a2 79       		.byte	0x79
 8358 26a3 00       		.sleb128 0
 8359 26a4 20       		.uleb128 0x20
 8360 26a5 01       		.uleb128 0x1
 8361 26a6 51       		.byte	0x51
 8362 26a7 03       		.uleb128 0x3
 8363 26a8 91       		.byte	0x91
 8364 26a9 D87B     		.sleb128 -552
 8365 26ab 20       		.uleb128 0x20
 8366 26ac 01       		.uleb128 0x1
 8367 26ad 50       		.byte	0x50
 8368 26ae 02       		.uleb128 0x2
 8369 26af 77       		.byte	0x77
 8370 26b0 00       		.sleb128 0
 8371 26b1 00       		.byte	0
ARM GAS  C:\Users\AHMED~1.ELE\AppData\Local\Temp\cc594ylT.s 			page 169


 8372 26b2 21       		.uleb128 0x21
 8373 26b3 52050000 		.4byte	.LVL284
 8374 26b7 BE3F0000 		.4byte	0x3fbe
 8375 26bb E0260000 		.4byte	0x26e0
 8376 26bf 20       		.uleb128 0x20
 8377 26c0 01       		.uleb128 0x1
 8378 26c1 53       		.byte	0x53
 8379 26c2 03       		.uleb128 0x3
 8380 26c3 0A       		.byte	0xa
 8381 26c4 0009     		.2byte	0x900
 8382 26c6 20       		.uleb128 0x20
 8383 26c7 01       		.uleb128 0x1
 8384 26c8 52       		.byte	0x52
 8385 26c9 02       		.uleb128 0x2
 8386 26ca 77       		.byte	0x77
 8387 26cb 00       		.sleb128 0
 8388 26cc 20       		.uleb128 0x20
 8389 26cd 01       		.uleb128 0x1
 8390 26ce 51       		.byte	0x51
 8391 26cf 02       		.uleb128 0x2
 8392 26d0 08       		.byte	0x8
 8393 26d1 25       		.byte	0x25
 8394 26d2 20       		.uleb128 0x20
 8395 26d3 01       		.uleb128 0x1
 8396 26d4 50       		.byte	0x50
 8397 26d5 01       		.uleb128 0x1
 8398 26d6 3F       		.byte	0x3f
 8399 26d7 20       		.uleb128 0x20
 8400 26d8 02       		.uleb128 0x2
 8401 26d9 7D       		.byte	0x7d
 8402 26da 00       		.sleb128 0
 8403 26db 03       		.uleb128 0x3
 8404 26dc 0A       		.byte	0xa
 8405 26dd 2020     		.2byte	0x2020
 8406 26df 00       		.byte	0
 8407 26e0 1F       		.uleb128 0x1f
 8408 26e1 5A050000 		.4byte	.LVL285
 8409 26e5 873F0000 		.4byte	0x3f87
 8410 26e9 20       		.uleb128 0x20
 8411 26ea 01       		.uleb128 0x1
 8412 26eb 51       		.byte	0x51
 8413 26ec 02       		.uleb128 0x2
 8414 26ed 77       		.byte	0x77
 8415 26ee 00       		.sleb128 0
 8416 26ef 20       		.uleb128 0x20
 8417 26f0 01       		.uleb128 0x1
 8418 26f1 50       		.byte	0x50
 8419 26f2 02       		.uleb128 0x2
 8420 26f3 08       		.byte	0x8
 8421 26f4 94       		.byte	0x94
 8422 26f5 00       		.byte	0
 8423 26f6 00       		.byte	0
 8424 26f7 27       		.uleb128 0x27
 8425 26f8 C2050000 		.4byte	.LBB42
 8426 26fc 34000000 		.4byte	.LBE42-.LBB42
 8427 2700 A4270000 		.4byte	0x27a4
 8428 2704 33       		.uleb128 0x33
ARM GAS  C:\Users\AHMED~1.ELE\AppData\Local\Temp\cc594ylT.s 			page 170


 8429 2705 6C656E00 		.ascii	"len\000"
 8430 2709 01       		.byte	0x1
 8431 270a 9002     		.2byte	0x290
 8432 270c B8000000 		.4byte	0xb8
 8433 2710 D60C0000 		.4byte	.LLST88
 8434 2714 33       		.uleb128 0x33
 8435 2715 70747200 		.ascii	"ptr\000"
 8436 2719 01       		.byte	0x1
 8437 271a 9002     		.2byte	0x290
 8438 271c C3000000 		.4byte	0xc3
 8439 2720 EA0C0000 		.4byte	.LLST89
 8440 2724 21       		.uleb128 0x21
 8441 2725 CA050000 		.4byte	.LVL299
 8442 2729 873F0000 		.4byte	0x3f87
 8443 272d 3D270000 		.4byte	0x273d
 8444 2731 20       		.uleb128 0x20
 8445 2732 01       		.uleb128 0x1
 8446 2733 51       		.byte	0x51
 8447 2734 01       		.uleb128 0x1
 8448 2735 3E       		.byte	0x3e
 8449 2736 20       		.uleb128 0x20
 8450 2737 01       		.uleb128 0x1
 8451 2738 50       		.byte	0x50
 8452 2739 02       		.uleb128 0x2
 8453 273a 08       		.byte	0x8
 8454 273b 92       		.byte	0x92
 8455 273c 00       		.byte	0
 8456 273d 21       		.uleb128 0x21
 8457 273e D6050000 		.4byte	.LVL300
 8458 2742 A13F0000 		.4byte	0x3fa1
 8459 2746 5F270000 		.4byte	0x275f
 8460 274a 20       		.uleb128 0x20
 8461 274b 01       		.uleb128 0x1
 8462 274c 52       		.byte	0x52
 8463 274d 01       		.uleb128 0x1
 8464 274e 3D       		.byte	0x3d
 8465 274f 20       		.uleb128 0x20
 8466 2750 01       		.uleb128 0x1
 8467 2751 51       		.byte	0x51
 8468 2752 05       		.uleb128 0x5
 8469 2753 03       		.byte	0x3
 8470 2754 A4000000 		.4byte	.LC12
 8471 2758 20       		.uleb128 0x20
 8472 2759 01       		.uleb128 0x1
 8473 275a 50       		.byte	0x50
 8474 275b 02       		.uleb128 0x2
 8475 275c 74       		.byte	0x74
 8476 275d 00       		.sleb128 0
 8477 275e 00       		.byte	0
 8478 275f 21       		.uleb128 0x21
 8479 2760 EE050000 		.4byte	.LVL301
 8480 2764 BE3F0000 		.4byte	0x3fbe
 8481 2768 8D270000 		.4byte	0x278d
 8482 276c 20       		.uleb128 0x20
 8483 276d 01       		.uleb128 0x1
 8484 276e 53       		.byte	0x53
 8485 276f 03       		.uleb128 0x3
ARM GAS  C:\Users\AHMED~1.ELE\AppData\Local\Temp\cc594ylT.s 			page 171


 8486 2770 0A       		.byte	0xa
 8487 2771 0005     		.2byte	0x500
 8488 2773 20       		.uleb128 0x20
 8489 2774 01       		.uleb128 0x1
 8490 2775 52       		.byte	0x52
 8491 2776 02       		.uleb128 0x2
 8492 2777 74       		.byte	0x74
 8493 2778 00       		.sleb128 0
 8494 2779 20       		.uleb128 0x20
 8495 277a 01       		.uleb128 0x1
 8496 277b 51       		.byte	0x51
 8497 277c 02       		.uleb128 0x2
 8498 277d 08       		.byte	0x8
 8499 277e 25       		.byte	0x25
 8500 277f 20       		.uleb128 0x20
 8501 2780 01       		.uleb128 0x1
 8502 2781 50       		.byte	0x50
 8503 2782 01       		.uleb128 0x1
 8504 2783 3F       		.byte	0x3f
 8505 2784 20       		.uleb128 0x20
 8506 2785 02       		.uleb128 0x2
 8507 2786 7D       		.byte	0x7d
 8508 2787 00       		.sleb128 0
 8509 2788 03       		.uleb128 0x3
 8510 2789 0A       		.byte	0xa
 8511 278a 8210     		.2byte	0x1082
 8512 278c 00       		.byte	0
 8513 278d 1F       		.uleb128 0x1f
 8514 278e F6050000 		.4byte	.LVL302
 8515 2792 873F0000 		.4byte	0x3f87
 8516 2796 20       		.uleb128 0x20
 8517 2797 01       		.uleb128 0x1
 8518 2798 51       		.byte	0x51
 8519 2799 02       		.uleb128 0x2
 8520 279a 74       		.byte	0x74
 8521 279b 00       		.sleb128 0
 8522 279c 20       		.uleb128 0x20
 8523 279d 01       		.uleb128 0x1
 8524 279e 50       		.byte	0x50
 8525 279f 02       		.uleb128 0x2
 8526 27a0 08       		.byte	0x8
 8527 27a1 94       		.byte	0x94
 8528 27a2 00       		.byte	0
 8529 27a3 00       		.byte	0
 8530 27a4 3A       		.uleb128 0x3a
 8531 27a5 D1120000 		.4byte	0x12d1
 8532 27a9 0C060000 		.4byte	.LBB43
 8533 27ad 08000000 		.4byte	.LBE43-.LBB43
 8534 27b1 01       		.byte	0x1
 8535 27b2 9402     		.2byte	0x294
 8536 27b4 D6270000 		.4byte	0x27d6
 8537 27b8 2B       		.uleb128 0x2b
 8538 27b9 DE120000 		.4byte	0x12de
 8539 27bd 080D0000 		.4byte	.LLST90
 8540 27c1 1F       		.uleb128 0x1f
 8541 27c2 14060000 		.4byte	.LVL305
 8542 27c6 873F0000 		.4byte	0x3f87
ARM GAS  C:\Users\AHMED~1.ELE\AppData\Local\Temp\cc594ylT.s 			page 172


 8543 27ca 20       		.uleb128 0x20
 8544 27cb 01       		.uleb128 0x1
 8545 27cc 51       		.byte	0x51
 8546 27cd 01       		.uleb128 0x1
 8547 27ce 3F       		.byte	0x3f
 8548 27cf 20       		.uleb128 0x20
 8549 27d0 01       		.uleb128 0x1
 8550 27d1 50       		.byte	0x50
 8551 27d2 01       		.uleb128 0x1
 8552 27d3 46       		.byte	0x46
 8553 27d4 00       		.byte	0
 8554 27d5 00       		.byte	0
 8555 27d6 21       		.uleb128 0x21
 8556 27d7 10000000 		.4byte	.LVL135
 8557 27db 873F0000 		.4byte	0x3f87
 8558 27df EF270000 		.4byte	0x27ef
 8559 27e3 20       		.uleb128 0x20
 8560 27e4 01       		.uleb128 0x1
 8561 27e5 51       		.byte	0x51
 8562 27e6 01       		.uleb128 0x1
 8563 27e7 3D       		.byte	0x3d
 8564 27e8 20       		.uleb128 0x20
 8565 27e9 01       		.uleb128 0x1
 8566 27ea 50       		.byte	0x50
 8567 27eb 02       		.uleb128 0x2
 8568 27ec 08       		.byte	0x8
 8569 27ed 8D       		.byte	0x8d
 8570 27ee 00       		.byte	0
 8571 27ef 3C       		.uleb128 0x3c
 8572 27f0 4A000000 		.4byte	.LVL141
 8573 27f4 30400000 		.4byte	0x4030
 8574 27f8 21       		.uleb128 0x21
 8575 27f9 5A000000 		.4byte	.LVL142
 8576 27fd BE3F0000 		.4byte	0x3fbe
 8577 2801 22280000 		.4byte	0x2822
 8578 2805 20       		.uleb128 0x20
 8579 2806 01       		.uleb128 0x1
 8580 2807 53       		.byte	0x53
 8581 2808 01       		.uleb128 0x1
 8582 2809 30       		.byte	0x30
 8583 280a 20       		.uleb128 0x20
 8584 280b 01       		.uleb128 0x1
 8585 280c 52       		.byte	0x52
 8586 280d 03       		.uleb128 0x3
 8587 280e 0A       		.byte	0xa
 8588 280f 2823     		.2byte	0x2328
 8589 2811 20       		.uleb128 0x20
 8590 2812 01       		.uleb128 0x1
 8591 2813 51       		.byte	0x51
 8592 2814 01       		.uleb128 0x1
 8593 2815 33       		.byte	0x33
 8594 2816 20       		.uleb128 0x20
 8595 2817 01       		.uleb128 0x1
 8596 2818 50       		.byte	0x50
 8597 2819 01       		.uleb128 0x1
 8598 281a 40       		.byte	0x40
 8599 281b 20       		.uleb128 0x20
ARM GAS  C:\Users\AHMED~1.ELE\AppData\Local\Temp\cc594ylT.s 			page 173


 8600 281c 02       		.uleb128 0x2
 8601 281d 7D       		.byte	0x7d
 8602 281e 00       		.sleb128 0
 8603 281f 01       		.uleb128 0x1
 8604 2820 30       		.byte	0x30
 8605 2821 00       		.byte	0
 8606 2822 21       		.uleb128 0x21
 8607 2823 66000000 		.4byte	.LVL144
 8608 2827 13400000 		.4byte	0x4013
 8609 282b 41280000 		.4byte	0x2841
 8610 282f 20       		.uleb128 0x20
 8611 2830 01       		.uleb128 0x1
 8612 2831 52       		.byte	0x52
 8613 2832 01       		.uleb128 0x1
 8614 2833 3C       		.byte	0x3c
 8615 2834 20       		.uleb128 0x20
 8616 2835 01       		.uleb128 0x1
 8617 2836 51       		.byte	0x51
 8618 2837 01       		.uleb128 0x1
 8619 2838 30       		.byte	0x30
 8620 2839 20       		.uleb128 0x20
 8621 283a 01       		.uleb128 0x1
 8622 283b 50       		.byte	0x50
 8623 283c 03       		.uleb128 0x3
 8624 283d 91       		.byte	0x91
 8625 283e BC7B     		.sleb128 -580
 8626 2840 00       		.byte	0
 8627 2841 21       		.uleb128 0x21
 8628 2842 E6000000 		.4byte	.LVL156
 8629 2846 873F0000 		.4byte	0x3f87
 8630 284a 5E280000 		.4byte	0x285e
 8631 284e 20       		.uleb128 0x20
 8632 284f 01       		.uleb128 0x1
 8633 2850 51       		.byte	0x51
 8634 2851 05       		.uleb128 0x5
 8635 2852 0C       		.byte	0xc
 8636 2853 008C0A00 		.4byte	0xa8c00
 8637 2857 20       		.uleb128 0x20
 8638 2858 01       		.uleb128 0x1
 8639 2859 50       		.byte	0x50
 8640 285a 02       		.uleb128 0x2
 8641 285b 08       		.byte	0x8
 8642 285c 92       		.byte	0x92
 8643 285d 00       		.byte	0
 8644 285e 21       		.uleb128 0x21
 8645 285f F8000000 		.4byte	.LVL159
 8646 2863 873F0000 		.4byte	0x3f87
 8647 2867 77280000 		.4byte	0x2877
 8648 286b 20       		.uleb128 0x20
 8649 286c 01       		.uleb128 0x1
 8650 286d 51       		.byte	0x51
 8651 286e 01       		.uleb128 0x1
 8652 286f 3C       		.byte	0x3c
 8653 2870 20       		.uleb128 0x20
 8654 2871 01       		.uleb128 0x1
 8655 2872 50       		.byte	0x50
 8656 2873 02       		.uleb128 0x2
ARM GAS  C:\Users\AHMED~1.ELE\AppData\Local\Temp\cc594ylT.s 			page 174


 8657 2874 08       		.byte	0x8
 8658 2875 92       		.byte	0x92
 8659 2876 00       		.byte	0
 8660 2877 21       		.uleb128 0x21
 8661 2878 06010000 		.4byte	.LVL163
 8662 287c 873F0000 		.4byte	0x3f87
 8663 2880 90280000 		.4byte	0x2890
 8664 2884 20       		.uleb128 0x20
 8665 2885 01       		.uleb128 0x1
 8666 2886 51       		.byte	0x51
 8667 2887 01       		.uleb128 0x1
 8668 2888 40       		.byte	0x40
 8669 2889 20       		.uleb128 0x20
 8670 288a 01       		.uleb128 0x1
 8671 288b 50       		.byte	0x50
 8672 288c 02       		.uleb128 0x2
 8673 288d 08       		.byte	0x8
 8674 288e 92       		.byte	0x92
 8675 288f 00       		.byte	0
 8676 2890 21       		.uleb128 0x21
 8677 2891 12010000 		.4byte	.LVL166
 8678 2895 873F0000 		.4byte	0x3f87
 8679 2899 AB280000 		.4byte	0x28ab
 8680 289d 20       		.uleb128 0x20
 8681 289e 01       		.uleb128 0x1
 8682 289f 51       		.byte	0x51
 8683 28a0 03       		.uleb128 0x3
 8684 28a1 0A       		.byte	0xa
 8685 28a2 0001     		.2byte	0x100
 8686 28a4 20       		.uleb128 0x20
 8687 28a5 01       		.uleb128 0x1
 8688 28a6 50       		.byte	0x50
 8689 28a7 02       		.uleb128 0x2
 8690 28a8 08       		.byte	0x8
 8691 28a9 92       		.byte	0x92
 8692 28aa 00       		.byte	0
 8693 28ab 21       		.uleb128 0x21
 8694 28ac 1C010000 		.4byte	.LVL169
 8695 28b0 873F0000 		.4byte	0x3f87
 8696 28b4 C5280000 		.4byte	0x28c5
 8697 28b8 20       		.uleb128 0x20
 8698 28b9 01       		.uleb128 0x1
 8699 28ba 51       		.byte	0x51
 8700 28bb 02       		.uleb128 0x2
 8701 28bc 08       		.byte	0x8
 8702 28bd 80       		.byte	0x80
 8703 28be 20       		.uleb128 0x20
 8704 28bf 01       		.uleb128 0x1
 8705 28c0 50       		.byte	0x50
 8706 28c1 02       		.uleb128 0x2
 8707 28c2 08       		.byte	0x8
 8708 28c3 92       		.byte	0x92
 8709 28c4 00       		.byte	0
 8710 28c5 21       		.uleb128 0x21
 8711 28c6 32010000 		.4byte	.LVL172
 8712 28ca 873F0000 		.4byte	0x3f87
 8713 28ce E0280000 		.4byte	0x28e0
ARM GAS  C:\Users\AHMED~1.ELE\AppData\Local\Temp\cc594ylT.s 			page 175


 8714 28d2 20       		.uleb128 0x20
 8715 28d3 01       		.uleb128 0x1
 8716 28d4 51       		.byte	0x51
 8717 28d5 03       		.uleb128 0x3
 8718 28d6 0A       		.byte	0xa
 8719 28d7 0001     		.2byte	0x100
 8720 28d9 20       		.uleb128 0x20
 8721 28da 01       		.uleb128 0x1
 8722 28db 50       		.byte	0x50
 8723 28dc 02       		.uleb128 0x2
 8724 28dd 08       		.byte	0x8
 8725 28de 22       		.byte	0x22
 8726 28df 00       		.byte	0
 8727 28e0 21       		.uleb128 0x21
 8728 28e1 56010000 		.4byte	.LVL174
 8729 28e5 873F0000 		.4byte	0x3f87
 8730 28e9 FD280000 		.4byte	0x28fd
 8731 28ed 20       		.uleb128 0x20
 8732 28ee 01       		.uleb128 0x1
 8733 28ef 51       		.byte	0x51
 8734 28f0 04       		.uleb128 0x4
 8735 28f1 91       		.byte	0x91
 8736 28f2 B07B     		.sleb128 -592
 8737 28f4 06       		.byte	0x6
 8738 28f5 20       		.uleb128 0x20
 8739 28f6 01       		.uleb128 0x1
 8740 28f7 50       		.byte	0x50
 8741 28f8 03       		.uleb128 0x3
 8742 28f9 0A       		.byte	0xa
 8743 28fa CF01     		.2byte	0x1cf
 8744 28fc 00       		.byte	0
 8745 28fd 21       		.uleb128 0x21
 8746 28fe B2010000 		.4byte	.LVL180
 8747 2902 301A0000 		.4byte	0x1a30
 8748 2906 10290000 		.4byte	0x2910
 8749 290a 20       		.uleb128 0x20
 8750 290b 01       		.uleb128 0x1
 8751 290c 50       		.byte	0x50
 8752 290d 01       		.uleb128 0x1
 8753 290e 30       		.byte	0x30
 8754 290f 00       		.byte	0
 8755 2910 21       		.uleb128 0x21
 8756 2911 F0010000 		.4byte	.LVL187
 8757 2915 301A0000 		.4byte	0x1a30
 8758 2919 23290000 		.4byte	0x2923
 8759 291d 20       		.uleb128 0x20
 8760 291e 01       		.uleb128 0x1
 8761 291f 50       		.byte	0x50
 8762 2920 01       		.uleb128 0x1
 8763 2921 30       		.byte	0x30
 8764 2922 00       		.byte	0
 8765 2923 21       		.uleb128 0x21
 8766 2924 2E020000 		.4byte	.LVL194
 8767 2928 301A0000 		.4byte	0x1a30
 8768 292c 36290000 		.4byte	0x2936
 8769 2930 20       		.uleb128 0x20
 8770 2931 01       		.uleb128 0x1
ARM GAS  C:\Users\AHMED~1.ELE\AppData\Local\Temp\cc594ylT.s 			page 176


 8771 2932 50       		.byte	0x50
 8772 2933 01       		.uleb128 0x1
 8773 2934 30       		.byte	0x30
 8774 2935 00       		.byte	0
 8775 2936 21       		.uleb128 0x21
 8776 2937 6C020000 		.4byte	.LVL201
 8777 293b 301A0000 		.4byte	0x1a30
 8778 293f 49290000 		.4byte	0x2949
 8779 2943 20       		.uleb128 0x20
 8780 2944 01       		.uleb128 0x1
 8781 2945 50       		.byte	0x50
 8782 2946 01       		.uleb128 0x1
 8783 2947 31       		.byte	0x31
 8784 2948 00       		.byte	0
 8785 2949 21       		.uleb128 0x21
 8786 294a B4020000 		.4byte	.LVL209
 8787 294e 301A0000 		.4byte	0x1a30
 8788 2952 5C290000 		.4byte	0x295c
 8789 2956 20       		.uleb128 0x20
 8790 2957 01       		.uleb128 0x1
 8791 2958 50       		.byte	0x50
 8792 2959 01       		.uleb128 0x1
 8793 295a 31       		.byte	0x31
 8794 295b 00       		.byte	0
 8795 295c 21       		.uleb128 0x21
 8796 295d FC020000 		.4byte	.LVL217
 8797 2961 301A0000 		.4byte	0x1a30
 8798 2965 6F290000 		.4byte	0x296f
 8799 2969 20       		.uleb128 0x20
 8800 296a 01       		.uleb128 0x1
 8801 296b 50       		.byte	0x50
 8802 296c 01       		.uleb128 0x1
 8803 296d 31       		.byte	0x31
 8804 296e 00       		.byte	0
 8805 296f 21       		.uleb128 0x21
 8806 2970 1A030000 		.4byte	.LVL222
 8807 2974 EF130000 		.4byte	0x13ef
 8808 2978 96290000 		.4byte	0x2996
 8809 297c 20       		.uleb128 0x20
 8810 297d 01       		.uleb128 0x1
 8811 297e 53       		.byte	0x53
 8812 297f 01       		.uleb128 0x1
 8813 2980 30       		.byte	0x30
 8814 2981 20       		.uleb128 0x20
 8815 2982 01       		.uleb128 0x1
 8816 2983 52       		.byte	0x52
 8817 2984 03       		.uleb128 0x3
 8818 2985 91       		.byte	0x91
 8819 2986 C87B     		.sleb128 -568
 8820 2988 20       		.uleb128 0x20
 8821 2989 01       		.uleb128 0x1
 8822 298a 51       		.byte	0x51
 8823 298b 03       		.uleb128 0x3
 8824 298c 91       		.byte	0x91
 8825 298d BC7B     		.sleb128 -580
 8826 298f 20       		.uleb128 0x20
 8827 2990 01       		.uleb128 0x1
ARM GAS  C:\Users\AHMED~1.ELE\AppData\Local\Temp\cc594ylT.s 			page 177


 8828 2991 50       		.byte	0x50
 8829 2992 02       		.uleb128 0x2
 8830 2993 77       		.byte	0x77
 8831 2994 00       		.sleb128 0
 8832 2995 00       		.byte	0
 8833 2996 3C       		.uleb128 0x3c
 8834 2997 64030000 		.4byte	.LVL227
 8835 299b A7130000 		.4byte	0x13a7
 8836 299f 21       		.uleb128 0x21
 8837 29a0 70030000 		.4byte	.LVL229
 8838 29a4 D4160000 		.4byte	0x16d4
 8839 29a8 C7290000 		.4byte	0x29c7
 8840 29ac 20       		.uleb128 0x20
 8841 29ad 01       		.uleb128 0x1
 8842 29ae 53       		.byte	0x53
 8843 29af 02       		.uleb128 0x2
 8844 29b0 79       		.byte	0x79
 8845 29b1 00       		.sleb128 0
 8846 29b2 20       		.uleb128 0x20
 8847 29b3 01       		.uleb128 0x1
 8848 29b4 52       		.byte	0x52
 8849 29b5 03       		.uleb128 0x3
 8850 29b6 91       		.byte	0x91
 8851 29b7 C87B     		.sleb128 -568
 8852 29b9 20       		.uleb128 0x20
 8853 29ba 01       		.uleb128 0x1
 8854 29bb 51       		.byte	0x51
 8855 29bc 03       		.uleb128 0x3
 8856 29bd 91       		.byte	0x91
 8857 29be BC7B     		.sleb128 -580
 8858 29c0 20       		.uleb128 0x20
 8859 29c1 01       		.uleb128 0x1
 8860 29c2 50       		.byte	0x50
 8861 29c3 02       		.uleb128 0x2
 8862 29c4 77       		.byte	0x77
 8863 29c5 00       		.sleb128 0
 8864 29c6 00       		.byte	0
 8865 29c7 21       		.uleb128 0x21
 8866 29c8 AE030000 		.4byte	.LVL236
 8867 29cc 301A0000 		.4byte	0x1a30
 8868 29d0 DA290000 		.4byte	0x29da
 8869 29d4 20       		.uleb128 0x20
 8870 29d5 01       		.uleb128 0x1
 8871 29d6 50       		.byte	0x50
 8872 29d7 01       		.uleb128 0x1
 8873 29d8 31       		.byte	0x31
 8874 29d9 00       		.byte	0
 8875 29da 21       		.uleb128 0x21
 8876 29db BE030000 		.4byte	.LVL237
 8877 29df BE3F0000 		.4byte	0x3fbe
 8878 29e3 042A0000 		.4byte	0x2a04
 8879 29e7 20       		.uleb128 0x20
 8880 29e8 01       		.uleb128 0x1
 8881 29e9 53       		.byte	0x53
 8882 29ea 01       		.uleb128 0x1
 8883 29eb 30       		.byte	0x30
 8884 29ec 20       		.uleb128 0x20
ARM GAS  C:\Users\AHMED~1.ELE\AppData\Local\Temp\cc594ylT.s 			page 178


 8885 29ed 01       		.uleb128 0x1
 8886 29ee 52       		.byte	0x52
 8887 29ef 03       		.uleb128 0x3
 8888 29f0 0A       		.byte	0xa
 8889 29f1 2823     		.2byte	0x2328
 8890 29f3 20       		.uleb128 0x20
 8891 29f4 01       		.uleb128 0x1
 8892 29f5 51       		.byte	0x51
 8893 29f6 01       		.uleb128 0x1
 8894 29f7 33       		.byte	0x33
 8895 29f8 20       		.uleb128 0x20
 8896 29f9 01       		.uleb128 0x1
 8897 29fa 50       		.byte	0x50
 8898 29fb 01       		.uleb128 0x1
 8899 29fc 40       		.byte	0x40
 8900 29fd 20       		.uleb128 0x20
 8901 29fe 02       		.uleb128 0x2
 8902 29ff 7D       		.byte	0x7d
 8903 2a00 00       		.sleb128 0
 8904 2a01 01       		.uleb128 0x1
 8905 2a02 30       		.byte	0x30
 8906 2a03 00       		.byte	0
 8907 2a04 21       		.uleb128 0x21
 8908 2a05 CC030000 		.4byte	.LVL239
 8909 2a09 873F0000 		.4byte	0x3f87
 8910 2a0d 1F2A0000 		.4byte	0x2a1f
 8911 2a11 20       		.uleb128 0x20
 8912 2a12 01       		.uleb128 0x1
 8913 2a13 51       		.byte	0x51
 8914 2a14 02       		.uleb128 0x2
 8915 2a15 7B       		.byte	0x7b
 8916 2a16 00       		.sleb128 0
 8917 2a17 20       		.uleb128 0x20
 8918 2a18 01       		.uleb128 0x1
 8919 2a19 50       		.byte	0x50
 8920 2a1a 03       		.uleb128 0x3
 8921 2a1b 0A       		.byte	0xa
 8922 2a1c C901     		.2byte	0x1c9
 8923 2a1e 00       		.byte	0
 8924 2a1f 21       		.uleb128 0x21
 8925 2a20 DA030000 		.4byte	.LVL242
 8926 2a24 02400000 		.4byte	0x4002
 8927 2a28 322A0000 		.4byte	0x2a32
 8928 2a2c 20       		.uleb128 0x20
 8929 2a2d 01       		.uleb128 0x1
 8930 2a2e 50       		.byte	0x50
 8931 2a2f 01       		.uleb128 0x1
 8932 2a30 31       		.byte	0x31
 8933 2a31 00       		.byte	0
 8934 2a32 21       		.uleb128 0x21
 8935 2a33 E4030000 		.4byte	.LVL243
 8936 2a37 873F0000 		.4byte	0x3f87
 8937 2a3b 4D2A0000 		.4byte	0x2a4d
 8938 2a3f 20       		.uleb128 0x20
 8939 2a40 01       		.uleb128 0x1
 8940 2a41 51       		.byte	0x51
 8941 2a42 02       		.uleb128 0x2
ARM GAS  C:\Users\AHMED~1.ELE\AppData\Local\Temp\cc594ylT.s 			page 179


 8942 2a43 7B       		.byte	0x7b
 8943 2a44 00       		.sleb128 0
 8944 2a45 20       		.uleb128 0x20
 8945 2a46 01       		.uleb128 0x1
 8946 2a47 50       		.byte	0x50
 8947 2a48 03       		.uleb128 0x3
 8948 2a49 0A       		.byte	0xa
 8949 2a4a C901     		.2byte	0x1c9
 8950 2a4c 00       		.byte	0
 8951 2a4d 21       		.uleb128 0x21
 8952 2a4e F2030000 		.4byte	.LVL246
 8953 2a52 02400000 		.4byte	0x4002
 8954 2a56 602A0000 		.4byte	0x2a60
 8955 2a5a 20       		.uleb128 0x20
 8956 2a5b 01       		.uleb128 0x1
 8957 2a5c 50       		.byte	0x50
 8958 2a5d 01       		.uleb128 0x1
 8959 2a5e 31       		.byte	0x31
 8960 2a5f 00       		.byte	0
 8961 2a60 21       		.uleb128 0x21
 8962 2a61 02040000 		.4byte	.LVL249
 8963 2a65 E73F0000 		.4byte	0x3fe7
 8964 2a69 842A0000 		.4byte	0x2a84
 8965 2a6d 20       		.uleb128 0x20
 8966 2a6e 01       		.uleb128 0x1
 8967 2a6f 52       		.byte	0x52
 8968 2a70 02       		.uleb128 0x2
 8969 2a71 74       		.byte	0x74
 8970 2a72 00       		.sleb128 0
 8971 2a73 20       		.uleb128 0x20
 8972 2a74 01       		.uleb128 0x1
 8973 2a75 51       		.byte	0x51
 8974 2a76 05       		.uleb128 0x5
 8975 2a77 03       		.byte	0x3
 8976 2a78 92000000 		.4byte	.LC10
 8977 2a7c 20       		.uleb128 0x20
 8978 2a7d 01       		.uleb128 0x1
 8979 2a7e 50       		.byte	0x50
 8980 2a7f 03       		.uleb128 0x3
 8981 2a80 91       		.byte	0x91
 8982 2a81 D87B     		.sleb128 -552
 8983 2a83 00       		.byte	0
 8984 2a84 21       		.uleb128 0x21
 8985 2a85 4C040000 		.4byte	.LVL260
 8986 2a89 301A0000 		.4byte	0x1a30
 8987 2a8d 972A0000 		.4byte	0x2a97
 8988 2a91 20       		.uleb128 0x20
 8989 2a92 01       		.uleb128 0x1
 8990 2a93 50       		.byte	0x50
 8991 2a94 01       		.uleb128 0x1
 8992 2a95 31       		.byte	0x31
 8993 2a96 00       		.byte	0
 8994 2a97 21       		.uleb128 0x21
 8995 2a98 5C040000 		.4byte	.LVL261
 8996 2a9c BE3F0000 		.4byte	0x3fbe
 8997 2aa0 C32A0000 		.4byte	0x2ac3
 8998 2aa4 20       		.uleb128 0x20
ARM GAS  C:\Users\AHMED~1.ELE\AppData\Local\Temp\cc594ylT.s 			page 180


 8999 2aa5 01       		.uleb128 0x1
 9000 2aa6 53       		.byte	0x53
 9001 2aa7 02       		.uleb128 0x2
 9002 2aa8 74       		.byte	0x74
 9003 2aa9 00       		.sleb128 0
 9004 2aaa 20       		.uleb128 0x20
 9005 2aab 01       		.uleb128 0x1
 9006 2aac 52       		.byte	0x52
 9007 2aad 03       		.uleb128 0x3
 9008 2aae 0A       		.byte	0xa
 9009 2aaf 2823     		.2byte	0x2328
 9010 2ab1 20       		.uleb128 0x20
 9011 2ab2 01       		.uleb128 0x1
 9012 2ab3 51       		.byte	0x51
 9013 2ab4 01       		.uleb128 0x1
 9014 2ab5 33       		.byte	0x33
 9015 2ab6 20       		.uleb128 0x20
 9016 2ab7 01       		.uleb128 0x1
 9017 2ab8 50       		.byte	0x50
 9018 2ab9 01       		.uleb128 0x1
 9019 2aba 40       		.byte	0x40
 9020 2abb 20       		.uleb128 0x20
 9021 2abc 02       		.uleb128 0x2
 9022 2abd 7D       		.byte	0x7d
 9023 2abe 00       		.sleb128 0
 9024 2abf 02       		.uleb128 0x2
 9025 2ac0 74       		.byte	0x74
 9026 2ac1 00       		.sleb128 0
 9027 2ac2 00       		.byte	0
 9028 2ac3 21       		.uleb128 0x21
 9029 2ac4 6E040000 		.4byte	.LVL264
 9030 2ac8 BE3F0000 		.4byte	0x3fbe
 9031 2acc F02A0000 		.4byte	0x2af0
 9032 2ad0 20       		.uleb128 0x20
 9033 2ad1 01       		.uleb128 0x1
 9034 2ad2 53       		.byte	0x53
 9035 2ad3 02       		.uleb128 0x2
 9036 2ad4 74       		.byte	0x74
 9037 2ad5 00       		.sleb128 0
 9038 2ad6 20       		.uleb128 0x20
 9039 2ad7 01       		.uleb128 0x1
 9040 2ad8 52       		.byte	0x52
 9041 2ad9 03       		.uleb128 0x3
 9042 2ada 0A       		.byte	0xa
 9043 2adb 0007     		.2byte	0x700
 9044 2add 20       		.uleb128 0x20
 9045 2ade 01       		.uleb128 0x1
 9046 2adf 51       		.byte	0x51
 9047 2ae0 02       		.uleb128 0x2
 9048 2ae1 08       		.byte	0x8
 9049 2ae2 23       		.byte	0x23
 9050 2ae3 20       		.uleb128 0x20
 9051 2ae4 01       		.uleb128 0x1
 9052 2ae5 50       		.byte	0x50
 9053 2ae6 01       		.uleb128 0x1
 9054 2ae7 3F       		.byte	0x3f
 9055 2ae8 20       		.uleb128 0x20
ARM GAS  C:\Users\AHMED~1.ELE\AppData\Local\Temp\cc594ylT.s 			page 181


 9056 2ae9 02       		.uleb128 0x2
 9057 2aea 7D       		.byte	0x7d
 9058 2aeb 00       		.sleb128 0
 9059 2aec 02       		.uleb128 0x2
 9060 2aed 74       		.byte	0x74
 9061 2aee 00       		.sleb128 0
 9062 2aef 00       		.byte	0
 9063 2af0 21       		.uleb128 0x21
 9064 2af1 80040000 		.4byte	.LVL267
 9065 2af5 BE3F0000 		.4byte	0x3fbe
 9066 2af9 082B0000 		.4byte	0x2b08
 9067 2afd 20       		.uleb128 0x20
 9068 2afe 01       		.uleb128 0x1
 9069 2aff 51       		.byte	0x51
 9070 2b00 01       		.uleb128 0x1
 9071 2b01 46       		.byte	0x46
 9072 2b02 20       		.uleb128 0x20
 9073 2b03 01       		.uleb128 0x1
 9074 2b04 50       		.byte	0x50
 9075 2b05 01       		.uleb128 0x1
 9076 2b06 3F       		.byte	0x3f
 9077 2b07 00       		.byte	0
 9078 2b08 21       		.uleb128 0x21
 9079 2b09 8A040000 		.4byte	.LVL269
 9080 2b0d 5D3F0000 		.4byte	0x3f5d
 9081 2b11 1D2B0000 		.4byte	0x2b1d
 9082 2b15 20       		.uleb128 0x20
 9083 2b16 01       		.uleb128 0x1
 9084 2b17 50       		.byte	0x50
 9085 2b18 03       		.uleb128 0x3
 9086 2b19 0A       		.byte	0xa
 9087 2b1a 9C01     		.2byte	0x19c
 9088 2b1c 00       		.byte	0
 9089 2b1d 21       		.uleb128 0x21
 9090 2b1e 92040000 		.4byte	.LVL270
 9091 2b22 5D3F0000 		.4byte	0x3f5d
 9092 2b26 322B0000 		.4byte	0x2b32
 9093 2b2a 20       		.uleb128 0x20
 9094 2b2b 01       		.uleb128 0x1
 9095 2b2c 50       		.byte	0x50
 9096 2b2d 03       		.uleb128 0x3
 9097 2b2e 0A       		.byte	0xa
 9098 2b2f CA01     		.2byte	0x1ca
 9099 2b31 00       		.byte	0
 9100 2b32 21       		.uleb128 0x21
 9101 2b33 AA040000 		.4byte	.LVL272
 9102 2b37 BE3F0000 		.4byte	0x3fbe
 9103 2b3b 5F2B0000 		.4byte	0x2b5f
 9104 2b3f 20       		.uleb128 0x20
 9105 2b40 01       		.uleb128 0x1
 9106 2b41 53       		.byte	0x53
 9107 2b42 02       		.uleb128 0x2
 9108 2b43 74       		.byte	0x74
 9109 2b44 00       		.sleb128 0
 9110 2b45 20       		.uleb128 0x20
 9111 2b46 01       		.uleb128 0x1
 9112 2b47 52       		.byte	0x52
ARM GAS  C:\Users\AHMED~1.ELE\AppData\Local\Temp\cc594ylT.s 			page 182


 9113 2b48 03       		.uleb128 0x3
 9114 2b49 0A       		.byte	0xa
 9115 2b4a 0008     		.2byte	0x800
 9116 2b4c 20       		.uleb128 0x20
 9117 2b4d 01       		.uleb128 0x1
 9118 2b4e 51       		.byte	0x51
 9119 2b4f 02       		.uleb128 0x2
 9120 2b50 08       		.byte	0x8
 9121 2b51 23       		.byte	0x23
 9122 2b52 20       		.uleb128 0x20
 9123 2b53 01       		.uleb128 0x1
 9124 2b54 50       		.byte	0x50
 9125 2b55 01       		.uleb128 0x1
 9126 2b56 3F       		.byte	0x3f
 9127 2b57 20       		.uleb128 0x20
 9128 2b58 02       		.uleb128 0x2
 9129 2b59 7D       		.byte	0x7d
 9130 2b5a 00       		.sleb128 0
 9131 2b5b 02       		.uleb128 0x2
 9132 2b5c 74       		.byte	0x74
 9133 2b5d 00       		.sleb128 0
 9134 2b5e 00       		.byte	0
 9135 2b5f 21       		.uleb128 0x21
 9136 2b60 D2040000 		.4byte	.LVL273
 9137 2b64 13400000 		.4byte	0x4013
 9138 2b68 812B0000 		.4byte	0x2b81
 9139 2b6c 20       		.uleb128 0x20
 9140 2b6d 01       		.uleb128 0x1
 9141 2b6e 52       		.byte	0x52
 9142 2b6f 04       		.uleb128 0x4
 9143 2b70 91       		.byte	0x91
 9144 2b71 B47B     		.sleb128 -588
 9145 2b73 06       		.byte	0x6
 9146 2b74 20       		.uleb128 0x20
 9147 2b75 01       		.uleb128 0x1
 9148 2b76 51       		.byte	0x51
 9149 2b77 02       		.uleb128 0x2
 9150 2b78 74       		.byte	0x74
 9151 2b79 00       		.sleb128 0
 9152 2b7a 20       		.uleb128 0x20
 9153 2b7b 01       		.uleb128 0x1
 9154 2b7c 50       		.byte	0x50
 9155 2b7d 02       		.uleb128 0x2
 9156 2b7e 78       		.byte	0x78
 9157 2b7f 00       		.sleb128 0
 9158 2b80 00       		.byte	0
 9159 2b81 21       		.uleb128 0x21
 9160 2b82 DC040000 		.4byte	.LVL274
 9161 2b86 13400000 		.4byte	0x4013
 9162 2b8a A32B0000 		.4byte	0x2ba3
 9163 2b8e 20       		.uleb128 0x20
 9164 2b8f 01       		.uleb128 0x1
 9165 2b90 52       		.byte	0x52
 9166 2b91 02       		.uleb128 0x2
 9167 2b92 7A       		.byte	0x7a
 9168 2b93 00       		.sleb128 0
 9169 2b94 20       		.uleb128 0x20
ARM GAS  C:\Users\AHMED~1.ELE\AppData\Local\Temp\cc594ylT.s 			page 183


 9170 2b95 01       		.uleb128 0x1
 9171 2b96 51       		.byte	0x51
 9172 2b97 02       		.uleb128 0x2
 9173 2b98 74       		.byte	0x74
 9174 2b99 00       		.sleb128 0
 9175 2b9a 20       		.uleb128 0x20
 9176 2b9b 01       		.uleb128 0x1
 9177 2b9c 50       		.byte	0x50
 9178 2b9d 04       		.uleb128 0x4
 9179 2b9e 91       		.byte	0x91
 9180 2b9f AC7B     		.sleb128 -596
 9181 2ba1 06       		.byte	0x6
 9182 2ba2 00       		.byte	0
 9183 2ba3 21       		.uleb128 0x21
 9184 2ba4 0A050000 		.4byte	.LVL275
 9185 2ba8 BE3F0000 		.4byte	0x3fbe
 9186 2bac CE2B0000 		.4byte	0x2bce
 9187 2bb0 20       		.uleb128 0x20
 9188 2bb1 01       		.uleb128 0x1
 9189 2bb2 53       		.byte	0x53
 9190 2bb3 02       		.uleb128 0x2
 9191 2bb4 75       		.byte	0x75
 9192 2bb5 00       		.sleb128 0
 9193 2bb6 20       		.uleb128 0x20
 9194 2bb7 01       		.uleb128 0x1
 9195 2bb8 52       		.byte	0x52
 9196 2bb9 02       		.uleb128 0x2
 9197 2bba 76       		.byte	0x76
 9198 2bbb 00       		.sleb128 0
 9199 2bbc 20       		.uleb128 0x20
 9200 2bbd 01       		.uleb128 0x1
 9201 2bbe 51       		.byte	0x51
 9202 2bbf 01       		.uleb128 0x1
 9203 2bc0 31       		.byte	0x31
 9204 2bc1 20       		.uleb128 0x20
 9205 2bc2 01       		.uleb128 0x1
 9206 2bc3 50       		.byte	0x50
 9207 2bc4 01       		.uleb128 0x1
 9208 2bc5 3D       		.byte	0x3d
 9209 2bc6 20       		.uleb128 0x20
 9210 2bc7 02       		.uleb128 0x2
 9211 2bc8 7D       		.byte	0x7d
 9212 2bc9 00       		.sleb128 0
 9213 2bca 02       		.uleb128 0x2
 9214 2bcb 74       		.byte	0x74
 9215 2bcc 00       		.sleb128 0
 9216 2bcd 00       		.byte	0
 9217 2bce 21       		.uleb128 0x21
 9218 2bcf 1A050000 		.4byte	.LVL277
 9219 2bd3 E73F0000 		.4byte	0x3fe7
 9220 2bd7 F22B0000 		.4byte	0x2bf2
 9221 2bdb 20       		.uleb128 0x20
 9222 2bdc 01       		.uleb128 0x1
 9223 2bdd 52       		.byte	0x52
 9224 2bde 02       		.uleb128 0x2
 9225 2bdf 78       		.byte	0x78
 9226 2be0 00       		.sleb128 0
ARM GAS  C:\Users\AHMED~1.ELE\AppData\Local\Temp\cc594ylT.s 			page 184


 9227 2be1 20       		.uleb128 0x20
 9228 2be2 01       		.uleb128 0x1
 9229 2be3 51       		.byte	0x51
 9230 2be4 05       		.uleb128 0x5
 9231 2be5 03       		.byte	0x3
 9232 2be6 9F000000 		.4byte	.LC11
 9233 2bea 20       		.uleb128 0x20
 9234 2beb 01       		.uleb128 0x1
 9235 2bec 50       		.byte	0x50
 9236 2bed 03       		.uleb128 0x3
 9237 2bee 91       		.byte	0x91
 9238 2bef D87B     		.sleb128 -552
 9239 2bf1 00       		.byte	0
 9240 2bf2 21       		.uleb128 0x21
 9241 2bf3 62050000 		.4byte	.LVL287
 9242 2bf7 301A0000 		.4byte	0x1a30
 9243 2bfb 052C0000 		.4byte	0x2c05
 9244 2bff 20       		.uleb128 0x20
 9245 2c00 01       		.uleb128 0x1
 9246 2c01 50       		.byte	0x50
 9247 2c02 01       		.uleb128 0x1
 9248 2c03 31       		.byte	0x31
 9249 2c04 00       		.byte	0
 9250 2c05 21       		.uleb128 0x21
 9251 2c06 70050000 		.4byte	.LVL288
 9252 2c0a BE3F0000 		.4byte	0x3fbe
 9253 2c0e 302C0000 		.4byte	0x2c30
 9254 2c12 20       		.uleb128 0x20
 9255 2c13 01       		.uleb128 0x1
 9256 2c14 53       		.byte	0x53
 9257 2c15 02       		.uleb128 0x2
 9258 2c16 74       		.byte	0x74
 9259 2c17 00       		.sleb128 0
 9260 2c18 20       		.uleb128 0x20
 9261 2c19 01       		.uleb128 0x1
 9262 2c1a 52       		.byte	0x52
 9263 2c1b 02       		.uleb128 0x2
 9264 2c1c 74       		.byte	0x74
 9265 2c1d 00       		.sleb128 0
 9266 2c1e 20       		.uleb128 0x20
 9267 2c1f 01       		.uleb128 0x1
 9268 2c20 51       		.byte	0x51
 9269 2c21 01       		.uleb128 0x1
 9270 2c22 46       		.byte	0x46
 9271 2c23 20       		.uleb128 0x20
 9272 2c24 01       		.uleb128 0x1
 9273 2c25 50       		.byte	0x50
 9274 2c26 01       		.uleb128 0x1
 9275 2c27 3F       		.byte	0x3f
 9276 2c28 20       		.uleb128 0x20
 9277 2c29 02       		.uleb128 0x2
 9278 2c2a 7D       		.byte	0x7d
 9279 2c2b 00       		.sleb128 0
 9280 2c2c 02       		.uleb128 0x2
 9281 2c2d 74       		.byte	0x74
 9282 2c2e 00       		.sleb128 0
 9283 2c2f 00       		.byte	0
ARM GAS  C:\Users\AHMED~1.ELE\AppData\Local\Temp\cc594ylT.s 			page 185


 9284 2c30 21       		.uleb128 0x21
 9285 2c31 86050000 		.4byte	.LVL292
 9286 2c35 873F0000 		.4byte	0x3f87
 9287 2c39 4A2C0000 		.4byte	0x2c4a
 9288 2c3d 20       		.uleb128 0x20
 9289 2c3e 01       		.uleb128 0x1
 9290 2c3f 51       		.byte	0x51
 9291 2c40 02       		.uleb128 0x2
 9292 2c41 75       		.byte	0x75
 9293 2c42 00       		.sleb128 0
 9294 2c43 20       		.uleb128 0x20
 9295 2c44 01       		.uleb128 0x1
 9296 2c45 50       		.byte	0x50
 9297 2c46 02       		.uleb128 0x2
 9298 2c47 08       		.byte	0x8
 9299 2c48 94       		.byte	0x94
 9300 2c49 00       		.byte	0
 9301 2c4a 21       		.uleb128 0x21
 9302 2c4b 90050000 		.4byte	.LVL293
 9303 2c4f 873F0000 		.4byte	0x3f87
 9304 2c53 642C0000 		.4byte	0x2c64
 9305 2c57 20       		.uleb128 0x20
 9306 2c58 01       		.uleb128 0x1
 9307 2c59 51       		.byte	0x51
 9308 2c5a 02       		.uleb128 0x2
 9309 2c5b 76       		.byte	0x76
 9310 2c5c 00       		.sleb128 0
 9311 2c5d 20       		.uleb128 0x20
 9312 2c5e 01       		.uleb128 0x1
 9313 2c5f 50       		.byte	0x50
 9314 2c60 02       		.uleb128 0x2
 9315 2c61 08       		.byte	0x8
 9316 2c62 94       		.byte	0x94
 9317 2c63 00       		.byte	0
 9318 2c64 21       		.uleb128 0x21
 9319 2c65 9E050000 		.4byte	.LVL294
 9320 2c69 873F0000 		.4byte	0x3f87
 9321 2c6d 7E2C0000 		.4byte	0x2c7e
 9322 2c71 20       		.uleb128 0x20
 9323 2c72 01       		.uleb128 0x1
 9324 2c73 51       		.byte	0x51
 9325 2c74 02       		.uleb128 0x2
 9326 2c75 78       		.byte	0x78
 9327 2c76 00       		.sleb128 0
 9328 2c77 20       		.uleb128 0x20
 9329 2c78 01       		.uleb128 0x1
 9330 2c79 50       		.byte	0x50
 9331 2c7a 02       		.uleb128 0x2
 9332 2c7b 08       		.byte	0x8
 9333 2c7c 94       		.byte	0x94
 9334 2c7d 00       		.byte	0
 9335 2c7e 21       		.uleb128 0x21
 9336 2c7f AA050000 		.4byte	.LVL295
 9337 2c83 873F0000 		.4byte	0x3f87
 9338 2c87 9A2C0000 		.4byte	0x2c9a
 9339 2c8b 20       		.uleb128 0x20
 9340 2c8c 01       		.uleb128 0x1
ARM GAS  C:\Users\AHMED~1.ELE\AppData\Local\Temp\cc594ylT.s 			page 186


 9341 2c8d 51       		.byte	0x51
 9342 2c8e 04       		.uleb128 0x4
 9343 2c8f 91       		.byte	0x91
 9344 2c90 AC7B     		.sleb128 -596
 9345 2c92 06       		.byte	0x6
 9346 2c93 20       		.uleb128 0x20
 9347 2c94 01       		.uleb128 0x1
 9348 2c95 50       		.byte	0x50
 9349 2c96 02       		.uleb128 0x2
 9350 2c97 08       		.byte	0x8
 9351 2c98 94       		.byte	0x94
 9352 2c99 00       		.byte	0
 9353 2c9a 21       		.uleb128 0x21
 9354 2c9b B8050000 		.4byte	.LVL296
 9355 2c9f 873F0000 		.4byte	0x3f87
 9356 2ca3 B42C0000 		.4byte	0x2cb4
 9357 2ca7 20       		.uleb128 0x20
 9358 2ca8 01       		.uleb128 0x1
 9359 2ca9 51       		.byte	0x51
 9360 2caa 02       		.uleb128 0x2
 9361 2cab 7B       		.byte	0x7b
 9362 2cac 00       		.sleb128 0
 9363 2cad 20       		.uleb128 0x20
 9364 2cae 01       		.uleb128 0x1
 9365 2caf 50       		.byte	0x50
 9366 2cb0 02       		.uleb128 0x2
 9367 2cb1 08       		.byte	0x8
 9368 2cb2 94       		.byte	0x94
 9369 2cb3 00       		.byte	0
 9370 2cb4 3C       		.uleb128 0x3c
 9371 2cb5 BC050000 		.4byte	.LVL297
 9372 2cb9 A7130000 		.4byte	0x13a7
 9373 2cbd 21       		.uleb128 0x21
 9374 2cbe 06060000 		.4byte	.LVL303
 9375 2cc2 BE3F0000 		.4byte	0x3fbe
 9376 2cc6 E72C0000 		.4byte	0x2ce7
 9377 2cca 20       		.uleb128 0x20
 9378 2ccb 01       		.uleb128 0x1
 9379 2ccc 53       		.byte	0x53
 9380 2ccd 01       		.uleb128 0x1
 9381 2cce 30       		.byte	0x30
 9382 2ccf 20       		.uleb128 0x20
 9383 2cd0 01       		.uleb128 0x1
 9384 2cd1 52       		.byte	0x52
 9385 2cd2 03       		.uleb128 0x3
 9386 2cd3 0A       		.byte	0xa
 9387 2cd4 F401     		.2byte	0x1f4
 9388 2cd6 20       		.uleb128 0x20
 9389 2cd7 01       		.uleb128 0x1
 9390 2cd8 51       		.byte	0x51
 9391 2cd9 01       		.uleb128 0x1
 9392 2cda 33       		.byte	0x33
 9393 2cdb 20       		.uleb128 0x20
 9394 2cdc 01       		.uleb128 0x1
 9395 2cdd 50       		.byte	0x50
 9396 2cde 01       		.uleb128 0x1
 9397 2cdf 40       		.byte	0x40
ARM GAS  C:\Users\AHMED~1.ELE\AppData\Local\Temp\cc594ylT.s 			page 187


 9398 2ce0 20       		.uleb128 0x20
 9399 2ce1 02       		.uleb128 0x2
 9400 2ce2 7D       		.byte	0x7d
 9401 2ce3 00       		.sleb128 0
 9402 2ce4 01       		.uleb128 0x1
 9403 2ce5 30       		.byte	0x30
 9404 2ce6 00       		.byte	0
 9405 2ce7 21       		.uleb128 0x21
 9406 2ce8 0C060000 		.4byte	.LVL304
 9407 2cec 301A0000 		.4byte	0x1a30
 9408 2cf0 FA2C0000 		.4byte	0x2cfa
 9409 2cf4 20       		.uleb128 0x20
 9410 2cf5 01       		.uleb128 0x1
 9411 2cf6 50       		.byte	0x50
 9412 2cf7 01       		.uleb128 0x1
 9413 2cf8 30       		.byte	0x30
 9414 2cf9 00       		.byte	0
 9415 2cfa 3C       		.uleb128 0x3c
 9416 2cfb 1A060000 		.4byte	.LVL307
 9417 2cff 37400000 		.4byte	0x4037
 9418 2d03 00       		.byte	0
 9419 2d04 06       		.uleb128 0x6
 9420 2d05 04       		.byte	0x4
 9421 2d06 DE110000 		.4byte	0x11de
 9422 2d0a 06       		.uleb128 0x6
 9423 2d0b 04       		.byte	0x4
 9424 2d0c 26120000 		.4byte	0x1226
 9425 2d10 08       		.uleb128 0x8
 9426 2d11 A2000000 		.4byte	0xa2
 9427 2d15 212D0000 		.4byte	0x2d21
 9428 2d19 3D       		.uleb128 0x3d
 9429 2d1a 78000000 		.4byte	0x78
 9430 2d1e FF01     		.2byte	0x1ff
 9431 2d20 00       		.byte	0
 9432 2d21 38       		.uleb128 0x38
 9433 2d22 0C250000 		.4byte	.LASF698
 9434 2d26 01       		.byte	0x1
 9435 2d27 9602     		.2byte	0x296
 9436 2d29 00000000 		.4byte	.LFB9
 9437 2d2d 40070000 		.4byte	.LFE9-.LFB9
 9438 2d31 01       		.uleb128 0x1
 9439 2d32 9C       		.byte	0x9c
 9440 2d33 283F0000 		.4byte	0x3f28
 9441 2d37 34       		.uleb128 0x34
 9442 2d38 5E0E0000 		.4byte	.LASF683
 9443 2d3c 01       		.byte	0x1
 9444 2d3d 9802     		.2byte	0x298
 9445 2d3f 870E0000 		.4byte	0xe87
 9446 2d43 03       		.uleb128 0x3
 9447 2d44 91       		.byte	0x91
 9448 2d45 C87B     		.sleb128 -568
 9449 2d47 34       		.uleb128 0x34
 9450 2d48 AE0A0000 		.4byte	.LASF684
 9451 2d4c 01       		.byte	0x1
 9452 2d4d 9902     		.2byte	0x299
 9453 2d4f F10D0000 		.4byte	0xdf1
 9454 2d53 03       		.uleb128 0x3
ARM GAS  C:\Users\AHMED~1.ELE\AppData\Local\Temp\cc594ylT.s 			page 188


 9455 2d54 91       		.byte	0x91
 9456 2d55 BC7B     		.sleb128 -580
 9457 2d57 37       		.uleb128 0x37
 9458 2d58 E42C0000 		.4byte	.LASF685
 9459 2d5c 01       		.byte	0x1
 9460 2d5d 9B02     		.2byte	0x29b
 9461 2d5f C2160000 		.4byte	0x16c2
 9462 2d63 1C0D0000 		.4byte	.LLST91
 9463 2d67 37       		.uleb128 0x37
 9464 2d68 22190000 		.4byte	.LASF686
 9465 2d6c 01       		.byte	0x1
 9466 2d6d 9C02     		.2byte	0x29c
 9467 2d6f C3000000 		.4byte	0xc3
 9468 2d73 700D0000 		.4byte	.LLST92
 9469 2d77 37       		.uleb128 0x37
 9470 2d78 74050000 		.4byte	.LASF687
 9471 2d7c 01       		.byte	0x1
 9472 2d7d 9D02     		.2byte	0x29d
 9473 2d7f 042D0000 		.4byte	0x2d04
 9474 2d83 9C0D0000 		.4byte	.LLST93
 9475 2d87 37       		.uleb128 0x37
 9476 2d88 3B290000 		.4byte	.LASF688
 9477 2d8c 01       		.byte	0x1
 9478 2d8d 9E02     		.2byte	0x29e
 9479 2d8f 0A2D0000 		.4byte	0x2d0a
 9480 2d93 C60D0000 		.4byte	.LLST94
 9481 2d97 37       		.uleb128 0x37
 9482 2d98 5B140000 		.4byte	.LASF689
 9483 2d9c 01       		.byte	0x1
 9484 2d9d A102     		.2byte	0x2a1
 9485 2d9f 7F000000 		.4byte	0x7f
 9486 2da3 F00D0000 		.4byte	.LLST95
 9487 2da7 37       		.uleb128 0x37
 9488 2da8 CB0A0000 		.4byte	.LASF690
 9489 2dac 01       		.byte	0x1
 9490 2dad A202     		.2byte	0x2a2
 9491 2daf 7F000000 		.4byte	0x7f
 9492 2db3 1A0E0000 		.4byte	.LLST96
 9493 2db7 37       		.uleb128 0x37
 9494 2db8 9C2E0000 		.4byte	.LASF691
 9495 2dbc 01       		.byte	0x1
 9496 2dbd A402     		.2byte	0x2a4
 9497 2dbf B8000000 		.4byte	0xb8
 9498 2dc3 460E0000 		.4byte	.LLST97
 9499 2dc7 37       		.uleb128 0x37
 9500 2dc8 281A0000 		.4byte	.LASF699
 9501 2dcc 01       		.byte	0x1
 9502 2dcd A402     		.2byte	0x2a4
 9503 2dcf B8000000 		.4byte	0xb8
 9504 2dd3 D30E0000 		.4byte	.LLST98
 9505 2dd7 37       		.uleb128 0x37
 9506 2dd8 2F270000 		.4byte	.LASF692
 9507 2ddc 01       		.byte	0x1
 9508 2ddd A402     		.2byte	0x2a4
 9509 2ddf B8000000 		.4byte	0xb8
 9510 2de3 F30E0000 		.4byte	.LLST99
 9511 2de7 37       		.uleb128 0x37
ARM GAS  C:\Users\AHMED~1.ELE\AppData\Local\Temp\cc594ylT.s 			page 189


 9512 2de8 3B020000 		.4byte	.LASF693
 9513 2dec 01       		.byte	0x1
 9514 2ded A402     		.2byte	0x2a4
 9515 2def B8000000 		.4byte	0xb8
 9516 2df3 810F0000 		.4byte	.LLST100
 9517 2df7 37       		.uleb128 0x37
 9518 2df8 D70C0000 		.4byte	.LASF694
 9519 2dfc 01       		.byte	0x1
 9520 2dfd A402     		.2byte	0x2a4
 9521 2dff B8000000 		.4byte	0xb8
 9522 2e03 C30F0000 		.4byte	.LLST101
 9523 2e07 33       		.uleb128 0x33
 9524 2e08 6900     		.ascii	"i\000"
 9525 2e0a 01       		.byte	0x1
 9526 2e0b A402     		.2byte	0x2a4
 9527 2e0d B8000000 		.4byte	0xb8
 9528 2e11 03100000 		.4byte	.LLST102
 9529 2e15 34       		.uleb128 0x34
 9530 2e16 32140000 		.4byte	.LASF663
 9531 2e1a 01       		.byte	0x1
 9532 2e1b A502     		.2byte	0x2a5
 9533 2e1d 102D0000 		.4byte	0x2d10
 9534 2e21 03       		.uleb128 0x3
 9535 2e22 91       		.byte	0x91
 9536 2e23 D87B     		.sleb128 -552
 9537 2e25 37       		.uleb128 0x37
 9538 2e26 181A0000 		.4byte	.LASF695
 9539 2e2a 01       		.byte	0x1
 9540 2e2b A602     		.2byte	0x2a6
 9541 2e2d 97000000 		.4byte	0x97
 9542 2e31 2F100000 		.4byte	.LLST103
 9543 2e35 35       		.uleb128 0x35
 9544 2e36 98250000 		.4byte	.LASF696
 9545 2e3a 01       		.byte	0x1
 9546 2e3b A702     		.2byte	0x2a7
 9547 2e3d B8000000 		.4byte	0xb8
 9548 2e41 05       		.byte	0x5
 9549 2e42 33       		.uleb128 0x33
 9550 2e43 7A6200   		.ascii	"zb\000"
 9551 2e46 01       		.byte	0x1
 9552 2e47 A902     		.2byte	0x2a9
 9553 2e49 5D000000 		.4byte	0x5d
 9554 2e4d 50100000 		.4byte	.LLST104
 9555 2e51 33       		.uleb128 0x33
 9556 2e52 7A7800   		.ascii	"zx\000"
 9557 2e55 01       		.byte	0x1
 9558 2e56 A902     		.2byte	0x2a9
 9559 2e58 5D000000 		.4byte	0x5d
 9560 2e5c 94100000 		.4byte	.LLST105
 9561 2e60 37       		.uleb128 0x37
 9562 2e61 8E1F0000 		.4byte	.LASF697
 9563 2e65 01       		.byte	0x1
 9564 2e66 A902     		.2byte	0x2a9
 9565 2e68 5D000000 		.4byte	0x5d
 9566 2e6c F0100000 		.4byte	.LLST106
 9567 2e70 33       		.uleb128 0x33
 9568 2e71 72657400 		.ascii	"ret\000"
ARM GAS  C:\Users\AHMED~1.ELE\AppData\Local\Temp\cc594ylT.s 			page 190


 9569 2e75 01       		.byte	0x1
 9570 2e76 A902     		.2byte	0x2a9
 9571 2e78 5D000000 		.4byte	0x5d
 9572 2e7c 34110000 		.4byte	.LLST107
 9573 2e80 37       		.uleb128 0x37
 9574 2e81 D8000000 		.4byte	.LASF700
 9575 2e85 01       		.byte	0x1
 9576 2e86 AA02     		.2byte	0x2aa
 9577 2e88 B8000000 		.4byte	0xb8
 9578 2e8c AC110000 		.4byte	.LLST108
 9579 2e90 27       		.uleb128 0x27
 9580 2e91 26000000 		.4byte	.LBB64
 9581 2e95 32000000 		.4byte	.LBE64-.LBB64
 9582 2e99 3D2F0000 		.4byte	0x2f3d
 9583 2e9d 33       		.uleb128 0x33
 9584 2e9e 6C656E00 		.ascii	"len\000"
 9585 2ea2 01       		.byte	0x1
 9586 2ea3 B502     		.2byte	0x2b5
 9587 2ea5 B8000000 		.4byte	0xb8
 9588 2ea9 BF110000 		.4byte	.LLST109
 9589 2ead 33       		.uleb128 0x33
 9590 2eae 70747200 		.ascii	"ptr\000"
 9591 2eb2 01       		.byte	0x1
 9592 2eb3 B502     		.2byte	0x2b5
 9593 2eb5 C3000000 		.4byte	0xc3
 9594 2eb9 D3110000 		.4byte	.LLST110
 9595 2ebd 21       		.uleb128 0x21
 9596 2ebe 2E000000 		.4byte	.LVL313
 9597 2ec2 873F0000 		.4byte	0x3f87
 9598 2ec6 D62E0000 		.4byte	0x2ed6
 9599 2eca 20       		.uleb128 0x20
 9600 2ecb 01       		.uleb128 0x1
 9601 2ecc 51       		.byte	0x51
 9602 2ecd 01       		.uleb128 0x1
 9603 2ece 43       		.byte	0x43
 9604 2ecf 20       		.uleb128 0x20
 9605 2ed0 01       		.uleb128 0x1
 9606 2ed1 50       		.byte	0x50
 9607 2ed2 02       		.uleb128 0x2
 9608 2ed3 08       		.byte	0x8
 9609 2ed4 92       		.byte	0x92
 9610 2ed5 00       		.byte	0
 9611 2ed6 21       		.uleb128 0x21
 9612 2ed7 3A000000 		.4byte	.LVL314
 9613 2edb A13F0000 		.4byte	0x3fa1
 9614 2edf F82E0000 		.4byte	0x2ef8
 9615 2ee3 20       		.uleb128 0x20
 9616 2ee4 01       		.uleb128 0x1
 9617 2ee5 52       		.byte	0x52
 9618 2ee6 01       		.uleb128 0x1
 9619 2ee7 42       		.byte	0x42
 9620 2ee8 20       		.uleb128 0x20
 9621 2ee9 01       		.uleb128 0x1
 9622 2eea 51       		.byte	0x51
 9623 2eeb 05       		.uleb128 0x5
 9624 2eec 03       		.byte	0x3
 9625 2eed 25000000 		.4byte	.LC2
ARM GAS  C:\Users\AHMED~1.ELE\AppData\Local\Temp\cc594ylT.s 			page 191


 9626 2ef1 20       		.uleb128 0x20
 9627 2ef2 01       		.uleb128 0x1
 9628 2ef3 50       		.byte	0x50
 9629 2ef4 02       		.uleb128 0x2
 9630 2ef5 74       		.byte	0x74
 9631 2ef6 00       		.sleb128 0
 9632 2ef7 00       		.byte	0
 9633 2ef8 21       		.uleb128 0x21
 9634 2ef9 50000000 		.4byte	.LVL315
 9635 2efd BE3F0000 		.4byte	0x3fbe
 9636 2f01 262F0000 		.4byte	0x2f26
 9637 2f05 20       		.uleb128 0x20
 9638 2f06 01       		.uleb128 0x1
 9639 2f07 53       		.byte	0x53
 9640 2f08 03       		.uleb128 0x3
 9641 2f09 0A       		.byte	0xa
 9642 2f0a 0005     		.2byte	0x500
 9643 2f0c 20       		.uleb128 0x20
 9644 2f0d 01       		.uleb128 0x1
 9645 2f0e 52       		.byte	0x52
 9646 2f0f 02       		.uleb128 0x2
 9647 2f10 74       		.byte	0x74
 9648 2f11 00       		.sleb128 0
 9649 2f12 20       		.uleb128 0x20
 9650 2f13 01       		.uleb128 0x1
 9651 2f14 51       		.byte	0x51
 9652 2f15 02       		.uleb128 0x2
 9653 2f16 08       		.byte	0x8
 9654 2f17 25       		.byte	0x25
 9655 2f18 20       		.uleb128 0x20
 9656 2f19 01       		.uleb128 0x1
 9657 2f1a 50       		.byte	0x50
 9658 2f1b 01       		.uleb128 0x1
 9659 2f1c 3F       		.byte	0x3f
 9660 2f1d 20       		.uleb128 0x20
 9661 2f1e 02       		.uleb128 0x2
 9662 2f1f 7D       		.byte	0x7d
 9663 2f20 00       		.sleb128 0
 9664 2f21 03       		.uleb128 0x3
 9665 2f22 0A       		.byte	0xa
 9666 2f23 8210     		.2byte	0x1082
 9667 2f25 00       		.byte	0
 9668 2f26 1F       		.uleb128 0x1f
 9669 2f27 58000000 		.4byte	.LVL316
 9670 2f2b 873F0000 		.4byte	0x3f87
 9671 2f2f 20       		.uleb128 0x20
 9672 2f30 01       		.uleb128 0x1
 9673 2f31 51       		.byte	0x51
 9674 2f32 02       		.uleb128 0x2
 9675 2f33 74       		.byte	0x74
 9676 2f34 00       		.sleb128 0
 9677 2f35 20       		.uleb128 0x20
 9678 2f36 01       		.uleb128 0x1
 9679 2f37 50       		.byte	0x50
 9680 2f38 02       		.uleb128 0x2
 9681 2f39 08       		.byte	0x8
 9682 2f3a 94       		.byte	0x94
ARM GAS  C:\Users\AHMED~1.ELE\AppData\Local\Temp\cc594ylT.s 			page 192


 9683 2f3b 00       		.byte	0
 9684 2f3c 00       		.byte	0
 9685 2f3d 39       		.uleb128 0x39
 9686 2f3e 20000000 		.4byte	.Ldebug_ranges0+0x20
 9687 2f42 E62F0000 		.4byte	0x2fe6
 9688 2f46 33       		.uleb128 0x33
 9689 2f47 6C656E00 		.ascii	"len\000"
 9690 2f4b 01       		.byte	0x1
 9691 2f4c C902     		.2byte	0x2c9
 9692 2f4e B8000000 		.4byte	0xb8
 9693 2f52 F1110000 		.4byte	.LLST111
 9694 2f56 33       		.uleb128 0x33
 9695 2f57 70747200 		.ascii	"ptr\000"
 9696 2f5b 01       		.byte	0x1
 9697 2f5c C902     		.2byte	0x2c9
 9698 2f5e C3000000 		.4byte	0xc3
 9699 2f62 05120000 		.4byte	.LLST112
 9700 2f66 21       		.uleb128 0x21
 9701 2f67 8C000000 		.4byte	.LVL322
 9702 2f6b 873F0000 		.4byte	0x3f87
 9703 2f6f 7F2F0000 		.4byte	0x2f7f
 9704 2f73 20       		.uleb128 0x20
 9705 2f74 01       		.uleb128 0x1
 9706 2f75 51       		.byte	0x51
 9707 2f76 01       		.uleb128 0x1
 9708 2f77 38       		.byte	0x38
 9709 2f78 20       		.uleb128 0x20
 9710 2f79 01       		.uleb128 0x1
 9711 2f7a 50       		.byte	0x50
 9712 2f7b 02       		.uleb128 0x2
 9713 2f7c 08       		.byte	0x8
 9714 2f7d 92       		.byte	0x92
 9715 2f7e 00       		.byte	0
 9716 2f7f 21       		.uleb128 0x21
 9717 2f80 98000000 		.4byte	.LVL323
 9718 2f84 A13F0000 		.4byte	0x3fa1
 9719 2f88 A12F0000 		.4byte	0x2fa1
 9720 2f8c 20       		.uleb128 0x20
 9721 2f8d 01       		.uleb128 0x1
 9722 2f8e 52       		.byte	0x52
 9723 2f8f 01       		.uleb128 0x1
 9724 2f90 37       		.byte	0x37
 9725 2f91 20       		.uleb128 0x20
 9726 2f92 01       		.uleb128 0x1
 9727 2f93 51       		.byte	0x51
 9728 2f94 05       		.uleb128 0x5
 9729 2f95 03       		.byte	0x3
 9730 2f96 38000000 		.4byte	.LC3
 9731 2f9a 20       		.uleb128 0x20
 9732 2f9b 01       		.uleb128 0x1
 9733 2f9c 50       		.byte	0x50
 9734 2f9d 02       		.uleb128 0x2
 9735 2f9e 74       		.byte	0x74
 9736 2f9f 00       		.sleb128 0
 9737 2fa0 00       		.byte	0
 9738 2fa1 21       		.uleb128 0x21
 9739 2fa2 B0000000 		.4byte	.LVL324
ARM GAS  C:\Users\AHMED~1.ELE\AppData\Local\Temp\cc594ylT.s 			page 193


 9740 2fa6 BE3F0000 		.4byte	0x3fbe
 9741 2faa CF2F0000 		.4byte	0x2fcf
 9742 2fae 20       		.uleb128 0x20
 9743 2faf 01       		.uleb128 0x1
 9744 2fb0 53       		.byte	0x53
 9745 2fb1 03       		.uleb128 0x3
 9746 2fb2 0A       		.byte	0xa
 9747 2fb3 0001     		.2byte	0x100
 9748 2fb5 20       		.uleb128 0x20
 9749 2fb6 01       		.uleb128 0x1
 9750 2fb7 52       		.byte	0x52
 9751 2fb8 02       		.uleb128 0x2
 9752 2fb9 74       		.byte	0x74
 9753 2fba 00       		.sleb128 0
 9754 2fbb 20       		.uleb128 0x20
 9755 2fbc 01       		.uleb128 0x1
 9756 2fbd 51       		.byte	0x51
 9757 2fbe 02       		.uleb128 0x2
 9758 2fbf 08       		.byte	0x8
 9759 2fc0 25       		.byte	0x25
 9760 2fc1 20       		.uleb128 0x20
 9761 2fc2 01       		.uleb128 0x1
 9762 2fc3 50       		.byte	0x50
 9763 2fc4 01       		.uleb128 0x1
 9764 2fc5 3F       		.byte	0x3f
 9765 2fc6 20       		.uleb128 0x20
 9766 2fc7 02       		.uleb128 0x2
 9767 2fc8 7D       		.byte	0x7d
 9768 2fc9 00       		.sleb128 0
 9769 2fca 03       		.uleb128 0x3
 9770 2fcb 0A       		.byte	0xa
 9771 2fcc 9220     		.2byte	0x2092
 9772 2fce 00       		.byte	0
 9773 2fcf 1F       		.uleb128 0x1f
 9774 2fd0 B8000000 		.4byte	.LVL325
 9775 2fd4 873F0000 		.4byte	0x3f87
 9776 2fd8 20       		.uleb128 0x20
 9777 2fd9 01       		.uleb128 0x1
 9778 2fda 51       		.byte	0x51
 9779 2fdb 02       		.uleb128 0x2
 9780 2fdc 74       		.byte	0x74
 9781 2fdd 00       		.sleb128 0
 9782 2fde 20       		.uleb128 0x20
 9783 2fdf 01       		.uleb128 0x1
 9784 2fe0 50       		.byte	0x50
 9785 2fe1 02       		.uleb128 0x2
 9786 2fe2 08       		.byte	0x8
 9787 2fe3 94       		.byte	0x94
 9788 2fe4 00       		.byte	0
 9789 2fe5 00       		.byte	0
 9790 2fe6 27       		.uleb128 0x27
 9791 2fe7 B8000000 		.4byte	.LBB68
 9792 2feb 34000000 		.4byte	.LBE68-.LBB68
 9793 2fef 93300000 		.4byte	0x3093
 9794 2ff3 33       		.uleb128 0x33
 9795 2ff4 6C656E00 		.ascii	"len\000"
 9796 2ff8 01       		.byte	0x1
ARM GAS  C:\Users\AHMED~1.ELE\AppData\Local\Temp\cc594ylT.s 			page 194


 9797 2ff9 CA02     		.2byte	0x2ca
 9798 2ffb B8000000 		.4byte	0xb8
 9799 2fff 23120000 		.4byte	.LLST113
 9800 3003 33       		.uleb128 0x33
 9801 3004 70747200 		.ascii	"ptr\000"
 9802 3008 01       		.byte	0x1
 9803 3009 CA02     		.2byte	0x2ca
 9804 300b C3000000 		.4byte	0xc3
 9805 300f 37120000 		.4byte	.LLST114
 9806 3013 21       		.uleb128 0x21
 9807 3014 C0000000 		.4byte	.LVL326
 9808 3018 873F0000 		.4byte	0x3f87
 9809 301c 2C300000 		.4byte	0x302c
 9810 3020 20       		.uleb128 0x20
 9811 3021 01       		.uleb128 0x1
 9812 3022 51       		.byte	0x51
 9813 3023 01       		.uleb128 0x1
 9814 3024 43       		.byte	0x43
 9815 3025 20       		.uleb128 0x20
 9816 3026 01       		.uleb128 0x1
 9817 3027 50       		.byte	0x50
 9818 3028 02       		.uleb128 0x2
 9819 3029 08       		.byte	0x8
 9820 302a 92       		.byte	0x92
 9821 302b 00       		.byte	0
 9822 302c 21       		.uleb128 0x21
 9823 302d CC000000 		.4byte	.LVL328
 9824 3031 A13F0000 		.4byte	0x3fa1
 9825 3035 4E300000 		.4byte	0x304e
 9826 3039 20       		.uleb128 0x20
 9827 303a 01       		.uleb128 0x1
 9828 303b 52       		.byte	0x52
 9829 303c 01       		.uleb128 0x1
 9830 303d 42       		.byte	0x42
 9831 303e 20       		.uleb128 0x20
 9832 303f 01       		.uleb128 0x1
 9833 3040 51       		.byte	0x51
 9834 3041 05       		.uleb128 0x5
 9835 3042 03       		.byte	0x3
 9836 3043 40000000 		.4byte	.LC4
 9837 3047 20       		.uleb128 0x20
 9838 3048 01       		.uleb128 0x1
 9839 3049 50       		.byte	0x50
 9840 304a 02       		.uleb128 0x2
 9841 304b 74       		.byte	0x74
 9842 304c 00       		.sleb128 0
 9843 304d 00       		.byte	0
 9844 304e 21       		.uleb128 0x21
 9845 304f E4000000 		.4byte	.LVL329
 9846 3053 BE3F0000 		.4byte	0x3fbe
 9847 3057 7C300000 		.4byte	0x307c
 9848 305b 20       		.uleb128 0x20
 9849 305c 01       		.uleb128 0x1
 9850 305d 53       		.byte	0x53
 9851 305e 03       		.uleb128 0x3
 9852 305f 0A       		.byte	0xa
 9853 3060 0005     		.2byte	0x500
ARM GAS  C:\Users\AHMED~1.ELE\AppData\Local\Temp\cc594ylT.s 			page 195


 9854 3062 20       		.uleb128 0x20
 9855 3063 01       		.uleb128 0x1
 9856 3064 52       		.byte	0x52
 9857 3065 02       		.uleb128 0x2
 9858 3066 74       		.byte	0x74
 9859 3067 00       		.sleb128 0
 9860 3068 20       		.uleb128 0x20
 9861 3069 01       		.uleb128 0x1
 9862 306a 51       		.byte	0x51
 9863 306b 02       		.uleb128 0x2
 9864 306c 08       		.byte	0x8
 9865 306d 25       		.byte	0x25
 9866 306e 20       		.uleb128 0x20
 9867 306f 01       		.uleb128 0x1
 9868 3070 50       		.byte	0x50
 9869 3071 01       		.uleb128 0x1
 9870 3072 3F       		.byte	0x3f
 9871 3073 20       		.uleb128 0x20
 9872 3074 02       		.uleb128 0x2
 9873 3075 7D       		.byte	0x7d
 9874 3076 00       		.sleb128 0
 9875 3077 03       		.uleb128 0x3
 9876 3078 0A       		.byte	0xa
 9877 3079 0220     		.2byte	0x2002
 9878 307b 00       		.byte	0
 9879 307c 1F       		.uleb128 0x1f
 9880 307d EC000000 		.4byte	.LVL330
 9881 3081 873F0000 		.4byte	0x3f87
 9882 3085 20       		.uleb128 0x20
 9883 3086 01       		.uleb128 0x1
 9884 3087 51       		.byte	0x51
 9885 3088 02       		.uleb128 0x2
 9886 3089 74       		.byte	0x74
 9887 308a 00       		.sleb128 0
 9888 308b 20       		.uleb128 0x20
 9889 308c 01       		.uleb128 0x1
 9890 308d 50       		.byte	0x50
 9891 308e 02       		.uleb128 0x2
 9892 308f 08       		.byte	0x8
 9893 3090 94       		.byte	0x94
 9894 3091 00       		.byte	0
 9895 3092 00       		.byte	0
 9896 3093 3A       		.uleb128 0x3a
 9897 3094 D1120000 		.4byte	0x12d1
 9898 3098 EC000000 		.4byte	.LBB69
 9899 309c 04000000 		.4byte	.LBE69-.LBB69
 9900 30a0 01       		.byte	0x1
 9901 30a1 CC02     		.2byte	0x2cc
 9902 30a3 C2300000 		.4byte	0x30c2
 9903 30a7 2B       		.uleb128 0x2b
 9904 30a8 DE120000 		.4byte	0x12de
 9905 30ac 55120000 		.4byte	.LLST115
 9906 30b0 1F       		.uleb128 0x1f
 9907 30b1 F0000000 		.4byte	.LVL331
 9908 30b5 C9190000 		.4byte	0x19c9
 9909 30b9 3B       		.uleb128 0x3b
 9910 30ba DE120000 		.4byte	0x12de
ARM GAS  C:\Users\AHMED~1.ELE\AppData\Local\Temp\cc594ylT.s 			page 196


 9911 30be 01       		.uleb128 0x1
 9912 30bf 31       		.byte	0x31
 9913 30c0 00       		.byte	0
 9914 30c1 00       		.byte	0
 9915 30c2 27       		.uleb128 0x27
 9916 30c3 86010000 		.4byte	.LBB71
 9917 30c7 34000000 		.4byte	.LBE71-.LBB71
 9918 30cb 6F310000 		.4byte	0x316f
 9919 30cf 33       		.uleb128 0x33
 9920 30d0 6C656E00 		.ascii	"len\000"
 9921 30d4 01       		.byte	0x1
 9922 30d5 EE02     		.2byte	0x2ee
 9923 30d7 B8000000 		.4byte	0xb8
 9924 30db 69120000 		.4byte	.LLST116
 9925 30df 33       		.uleb128 0x33
 9926 30e0 70747200 		.ascii	"ptr\000"
 9927 30e4 01       		.byte	0x1
 9928 30e5 EE02     		.2byte	0x2ee
 9929 30e7 C3000000 		.4byte	0xc3
 9930 30eb 7D120000 		.4byte	.LLST117
 9931 30ef 21       		.uleb128 0x21
 9932 30f0 8E010000 		.4byte	.LVL351
 9933 30f4 873F0000 		.4byte	0x3f87
 9934 30f8 08310000 		.4byte	0x3108
 9935 30fc 20       		.uleb128 0x20
 9936 30fd 01       		.uleb128 0x1
 9937 30fe 51       		.byte	0x51
 9938 30ff 01       		.uleb128 0x1
 9939 3100 3B       		.byte	0x3b
 9940 3101 20       		.uleb128 0x20
 9941 3102 01       		.uleb128 0x1
 9942 3103 50       		.byte	0x50
 9943 3104 02       		.uleb128 0x2
 9944 3105 08       		.byte	0x8
 9945 3106 92       		.byte	0x92
 9946 3107 00       		.byte	0
 9947 3108 21       		.uleb128 0x21
 9948 3109 9A010000 		.4byte	.LVL352
 9949 310d A13F0000 		.4byte	0x3fa1
 9950 3111 2A310000 		.4byte	0x312a
 9951 3115 20       		.uleb128 0x20
 9952 3116 01       		.uleb128 0x1
 9953 3117 52       		.byte	0x52
 9954 3118 01       		.uleb128 0x1
 9955 3119 3A       		.byte	0x3a
 9956 311a 20       		.uleb128 0x20
 9957 311b 01       		.uleb128 0x1
 9958 311c 51       		.byte	0x51
 9959 311d 05       		.uleb128 0x5
 9960 311e 03       		.byte	0x3
 9961 311f 53000000 		.4byte	.LC5
 9962 3123 20       		.uleb128 0x20
 9963 3124 01       		.uleb128 0x1
 9964 3125 50       		.byte	0x50
 9965 3126 02       		.uleb128 0x2
 9966 3127 77       		.byte	0x77
 9967 3128 00       		.sleb128 0
ARM GAS  C:\Users\AHMED~1.ELE\AppData\Local\Temp\cc594ylT.s 			page 197


 9968 3129 00       		.byte	0
 9969 312a 21       		.uleb128 0x21
 9970 312b B2010000 		.4byte	.LVL353
 9971 312f BE3F0000 		.4byte	0x3fbe
 9972 3133 58310000 		.4byte	0x3158
 9973 3137 20       		.uleb128 0x20
 9974 3138 01       		.uleb128 0x1
 9975 3139 53       		.byte	0x53
 9976 313a 03       		.uleb128 0x3
 9977 313b 0A       		.byte	0xa
 9978 313c 0009     		.2byte	0x900
 9979 313e 20       		.uleb128 0x20
 9980 313f 01       		.uleb128 0x1
 9981 3140 52       		.byte	0x52
 9982 3141 02       		.uleb128 0x2
 9983 3142 77       		.byte	0x77
 9984 3143 00       		.sleb128 0
 9985 3144 20       		.uleb128 0x20
 9986 3145 01       		.uleb128 0x1
 9987 3146 51       		.byte	0x51
 9988 3147 02       		.uleb128 0x2
 9989 3148 08       		.byte	0x8
 9990 3149 25       		.byte	0x25
 9991 314a 20       		.uleb128 0x20
 9992 314b 01       		.uleb128 0x1
 9993 314c 50       		.byte	0x50
 9994 314d 01       		.uleb128 0x1
 9995 314e 3F       		.byte	0x3f
 9996 314f 20       		.uleb128 0x20
 9997 3150 02       		.uleb128 0x2
 9998 3151 7D       		.byte	0x7d
 9999 3152 00       		.sleb128 0
 10000 3153 03       		.uleb128 0x3
 10001 3154 0A       		.byte	0xa
 10002 3155 8220     		.2byte	0x2082
 10003 3157 00       		.byte	0
 10004 3158 1F       		.uleb128 0x1f
 10005 3159 BA010000 		.4byte	.LVL354
 10006 315d 873F0000 		.4byte	0x3f87
 10007 3161 20       		.uleb128 0x20
 10008 3162 01       		.uleb128 0x1
 10009 3163 51       		.byte	0x51
 10010 3164 02       		.uleb128 0x2
 10011 3165 77       		.byte	0x77
 10012 3166 00       		.sleb128 0
 10013 3167 20       		.uleb128 0x20
 10014 3168 01       		.uleb128 0x1
 10015 3169 50       		.byte	0x50
 10016 316a 02       		.uleb128 0x2
 10017 316b 08       		.byte	0x8
 10018 316c 94       		.byte	0x94
 10019 316d 00       		.byte	0
 10020 316e 00       		.byte	0
 10021 316f 27       		.uleb128 0x27
 10022 3170 C4010000 		.4byte	.LBB72
 10023 3174 34000000 		.4byte	.LBE72-.LBB72
 10024 3178 1C320000 		.4byte	0x321c
ARM GAS  C:\Users\AHMED~1.ELE\AppData\Local\Temp\cc594ylT.s 			page 198


 10025 317c 33       		.uleb128 0x33
 10026 317d 6C656E00 		.ascii	"len\000"
 10027 3181 01       		.byte	0x1
 10028 3182 F402     		.2byte	0x2f4
 10029 3184 B8000000 		.4byte	0xb8
 10030 3188 9B120000 		.4byte	.LLST118
 10031 318c 33       		.uleb128 0x33
 10032 318d 70747200 		.ascii	"ptr\000"
 10033 3191 01       		.byte	0x1
 10034 3192 F402     		.2byte	0x2f4
 10035 3194 C3000000 		.4byte	0xc3
 10036 3198 AF120000 		.4byte	.LLST119
 10037 319c 21       		.uleb128 0x21
 10038 319d CC010000 		.4byte	.LVL358
 10039 31a1 873F0000 		.4byte	0x3f87
 10040 31a5 B5310000 		.4byte	0x31b5
 10041 31a9 20       		.uleb128 0x20
 10042 31aa 01       		.uleb128 0x1
 10043 31ab 51       		.byte	0x51
 10044 31ac 01       		.uleb128 0x1
 10045 31ad 3B       		.byte	0x3b
 10046 31ae 20       		.uleb128 0x20
 10047 31af 01       		.uleb128 0x1
 10048 31b0 50       		.byte	0x50
 10049 31b1 02       		.uleb128 0x2
 10050 31b2 08       		.byte	0x8
 10051 31b3 92       		.byte	0x92
 10052 31b4 00       		.byte	0
 10053 31b5 21       		.uleb128 0x21
 10054 31b6 D8010000 		.4byte	.LVL359
 10055 31ba A13F0000 		.4byte	0x3fa1
 10056 31be D7310000 		.4byte	0x31d7
 10057 31c2 20       		.uleb128 0x20
 10058 31c3 01       		.uleb128 0x1
 10059 31c4 52       		.byte	0x52
 10060 31c5 01       		.uleb128 0x1
 10061 31c6 3A       		.byte	0x3a
 10062 31c7 20       		.uleb128 0x20
 10063 31c8 01       		.uleb128 0x1
 10064 31c9 51       		.byte	0x51
 10065 31ca 05       		.uleb128 0x5
 10066 31cb 03       		.byte	0x3
 10067 31cc 5E000000 		.4byte	.LC6
 10068 31d0 20       		.uleb128 0x20
 10069 31d1 01       		.uleb128 0x1
 10070 31d2 50       		.byte	0x50
 10071 31d3 02       		.uleb128 0x2
 10072 31d4 77       		.byte	0x77
 10073 31d5 00       		.sleb128 0
 10074 31d6 00       		.byte	0
 10075 31d7 21       		.uleb128 0x21
 10076 31d8 F0010000 		.4byte	.LVL360
 10077 31dc BE3F0000 		.4byte	0x3fbe
 10078 31e0 05320000 		.4byte	0x3205
 10079 31e4 20       		.uleb128 0x20
 10080 31e5 01       		.uleb128 0x1
 10081 31e6 53       		.byte	0x53
ARM GAS  C:\Users\AHMED~1.ELE\AppData\Local\Temp\cc594ylT.s 			page 199


 10082 31e7 03       		.uleb128 0x3
 10083 31e8 0A       		.byte	0xa
 10084 31e9 0009     		.2byte	0x900
 10085 31eb 20       		.uleb128 0x20
 10086 31ec 01       		.uleb128 0x1
 10087 31ed 52       		.byte	0x52
 10088 31ee 02       		.uleb128 0x2
 10089 31ef 77       		.byte	0x77
 10090 31f0 00       		.sleb128 0
 10091 31f1 20       		.uleb128 0x20
 10092 31f2 01       		.uleb128 0x1
 10093 31f3 51       		.byte	0x51
 10094 31f4 02       		.uleb128 0x2
 10095 31f5 08       		.byte	0x8
 10096 31f6 25       		.byte	0x25
 10097 31f7 20       		.uleb128 0x20
 10098 31f8 01       		.uleb128 0x1
 10099 31f9 50       		.byte	0x50
 10100 31fa 01       		.uleb128 0x1
 10101 31fb 3F       		.byte	0x3f
 10102 31fc 20       		.uleb128 0x20
 10103 31fd 02       		.uleb128 0x2
 10104 31fe 7D       		.byte	0x7d
 10105 31ff 00       		.sleb128 0
 10106 3200 03       		.uleb128 0x3
 10107 3201 0A       		.byte	0xa
 10108 3202 8220     		.2byte	0x2082
 10109 3204 00       		.byte	0
 10110 3205 1F       		.uleb128 0x1f
 10111 3206 F8010000 		.4byte	.LVL361
 10112 320a 873F0000 		.4byte	0x3f87
 10113 320e 20       		.uleb128 0x20
 10114 320f 01       		.uleb128 0x1
 10115 3210 51       		.byte	0x51
 10116 3211 02       		.uleb128 0x2
 10117 3212 77       		.byte	0x77
 10118 3213 00       		.sleb128 0
 10119 3214 20       		.uleb128 0x20
 10120 3215 01       		.uleb128 0x1
 10121 3216 50       		.byte	0x50
 10122 3217 02       		.uleb128 0x2
 10123 3218 08       		.byte	0x8
 10124 3219 94       		.byte	0x94
 10125 321a 00       		.byte	0
 10126 321b 00       		.byte	0
 10127 321c 27       		.uleb128 0x27
 10128 321d 02020000 		.4byte	.LBB73
 10129 3221 34000000 		.4byte	.LBE73-.LBB73
 10130 3225 C9320000 		.4byte	0x32c9
 10131 3229 33       		.uleb128 0x33
 10132 322a 6C656E00 		.ascii	"len\000"
 10133 322e 01       		.byte	0x1
 10134 322f FA02     		.2byte	0x2fa
 10135 3231 B8000000 		.4byte	0xb8
 10136 3235 CD120000 		.4byte	.LLST120
 10137 3239 33       		.uleb128 0x33
 10138 323a 70747200 		.ascii	"ptr\000"
ARM GAS  C:\Users\AHMED~1.ELE\AppData\Local\Temp\cc594ylT.s 			page 200


 10139 323e 01       		.byte	0x1
 10140 323f FA02     		.2byte	0x2fa
 10141 3241 C3000000 		.4byte	0xc3
 10142 3245 E1120000 		.4byte	.LLST121
 10143 3249 21       		.uleb128 0x21
 10144 324a 0A020000 		.4byte	.LVL365
 10145 324e 873F0000 		.4byte	0x3f87
 10146 3252 62320000 		.4byte	0x3262
 10147 3256 20       		.uleb128 0x20
 10148 3257 01       		.uleb128 0x1
 10149 3258 51       		.byte	0x51
 10150 3259 01       		.uleb128 0x1
 10151 325a 3B       		.byte	0x3b
 10152 325b 20       		.uleb128 0x20
 10153 325c 01       		.uleb128 0x1
 10154 325d 50       		.byte	0x50
 10155 325e 02       		.uleb128 0x2
 10156 325f 08       		.byte	0x8
 10157 3260 92       		.byte	0x92
 10158 3261 00       		.byte	0
 10159 3262 21       		.uleb128 0x21
 10160 3263 16020000 		.4byte	.LVL366
 10161 3267 A13F0000 		.4byte	0x3fa1
 10162 326b 84320000 		.4byte	0x3284
 10163 326f 20       		.uleb128 0x20
 10164 3270 01       		.uleb128 0x1
 10165 3271 52       		.byte	0x52
 10166 3272 01       		.uleb128 0x1
 10167 3273 3A       		.byte	0x3a
 10168 3274 20       		.uleb128 0x20
 10169 3275 01       		.uleb128 0x1
 10170 3276 51       		.byte	0x51
 10171 3277 05       		.uleb128 0x5
 10172 3278 03       		.byte	0x3
 10173 3279 69000000 		.4byte	.LC7
 10174 327d 20       		.uleb128 0x20
 10175 327e 01       		.uleb128 0x1
 10176 327f 50       		.byte	0x50
 10177 3280 02       		.uleb128 0x2
 10178 3281 77       		.byte	0x77
 10179 3282 00       		.sleb128 0
 10180 3283 00       		.byte	0
 10181 3284 21       		.uleb128 0x21
 10182 3285 2E020000 		.4byte	.LVL367
 10183 3289 BE3F0000 		.4byte	0x3fbe
 10184 328d B2320000 		.4byte	0x32b2
 10185 3291 20       		.uleb128 0x20
 10186 3292 01       		.uleb128 0x1
 10187 3293 53       		.byte	0x53
 10188 3294 03       		.uleb128 0x3
 10189 3295 0A       		.byte	0xa
 10190 3296 0009     		.2byte	0x900
 10191 3298 20       		.uleb128 0x20
 10192 3299 01       		.uleb128 0x1
 10193 329a 52       		.byte	0x52
 10194 329b 02       		.uleb128 0x2
 10195 329c 77       		.byte	0x77
ARM GAS  C:\Users\AHMED~1.ELE\AppData\Local\Temp\cc594ylT.s 			page 201


 10196 329d 00       		.sleb128 0
 10197 329e 20       		.uleb128 0x20
 10198 329f 01       		.uleb128 0x1
 10199 32a0 51       		.byte	0x51
 10200 32a1 02       		.uleb128 0x2
 10201 32a2 08       		.byte	0x8
 10202 32a3 25       		.byte	0x25
 10203 32a4 20       		.uleb128 0x20
 10204 32a5 01       		.uleb128 0x1
 10205 32a6 50       		.byte	0x50
 10206 32a7 01       		.uleb128 0x1
 10207 32a8 3F       		.byte	0x3f
 10208 32a9 20       		.uleb128 0x20
 10209 32aa 02       		.uleb128 0x2
 10210 32ab 7D       		.byte	0x7d
 10211 32ac 00       		.sleb128 0
 10212 32ad 03       		.uleb128 0x3
 10213 32ae 0A       		.byte	0xa
 10214 32af 8220     		.2byte	0x2082
 10215 32b1 00       		.byte	0
 10216 32b2 1F       		.uleb128 0x1f
 10217 32b3 36020000 		.4byte	.LVL368
 10218 32b7 873F0000 		.4byte	0x3f87
 10219 32bb 20       		.uleb128 0x20
 10220 32bc 01       		.uleb128 0x1
 10221 32bd 51       		.byte	0x51
 10222 32be 02       		.uleb128 0x2
 10223 32bf 77       		.byte	0x77
 10224 32c0 00       		.sleb128 0
 10225 32c1 20       		.uleb128 0x20
 10226 32c2 01       		.uleb128 0x1
 10227 32c3 50       		.byte	0x50
 10228 32c4 02       		.uleb128 0x2
 10229 32c5 08       		.byte	0x8
 10230 32c6 94       		.byte	0x94
 10231 32c7 00       		.byte	0
 10232 32c8 00       		.byte	0
 10233 32c9 27       		.uleb128 0x27
 10234 32ca 40020000 		.4byte	.LBB74
 10235 32ce 34000000 		.4byte	.LBE74-.LBB74
 10236 32d2 76330000 		.4byte	0x3376
 10237 32d6 33       		.uleb128 0x33
 10238 32d7 6C656E00 		.ascii	"len\000"
 10239 32db 01       		.byte	0x1
 10240 32dc 0003     		.2byte	0x300
 10241 32de B8000000 		.4byte	0xb8
 10242 32e2 FF120000 		.4byte	.LLST122
 10243 32e6 33       		.uleb128 0x33
 10244 32e7 70747200 		.ascii	"ptr\000"
 10245 32eb 01       		.byte	0x1
 10246 32ec 0003     		.2byte	0x300
 10247 32ee C3000000 		.4byte	0xc3
 10248 32f2 13130000 		.4byte	.LLST123
 10249 32f6 21       		.uleb128 0x21
 10250 32f7 48020000 		.4byte	.LVL372
 10251 32fb 873F0000 		.4byte	0x3f87
 10252 32ff 0F330000 		.4byte	0x330f
ARM GAS  C:\Users\AHMED~1.ELE\AppData\Local\Temp\cc594ylT.s 			page 202


 10253 3303 20       		.uleb128 0x20
 10254 3304 01       		.uleb128 0x1
 10255 3305 51       		.byte	0x51
 10256 3306 01       		.uleb128 0x1
 10257 3307 3B       		.byte	0x3b
 10258 3308 20       		.uleb128 0x20
 10259 3309 01       		.uleb128 0x1
 10260 330a 50       		.byte	0x50
 10261 330b 02       		.uleb128 0x2
 10262 330c 08       		.byte	0x8
 10263 330d 92       		.byte	0x92
 10264 330e 00       		.byte	0
 10265 330f 21       		.uleb128 0x21
 10266 3310 54020000 		.4byte	.LVL373
 10267 3314 A13F0000 		.4byte	0x3fa1
 10268 3318 31330000 		.4byte	0x3331
 10269 331c 20       		.uleb128 0x20
 10270 331d 01       		.uleb128 0x1
 10271 331e 52       		.byte	0x52
 10272 331f 01       		.uleb128 0x1
 10273 3320 3A       		.byte	0x3a
 10274 3321 20       		.uleb128 0x20
 10275 3322 01       		.uleb128 0x1
 10276 3323 51       		.byte	0x51
 10277 3324 05       		.uleb128 0x5
 10278 3325 03       		.byte	0x3
 10279 3326 53000000 		.4byte	.LC5
 10280 332a 20       		.uleb128 0x20
 10281 332b 01       		.uleb128 0x1
 10282 332c 50       		.byte	0x50
 10283 332d 02       		.uleb128 0x2
 10284 332e 77       		.byte	0x77
 10285 332f 00       		.sleb128 0
 10286 3330 00       		.byte	0
 10287 3331 21       		.uleb128 0x21
 10288 3332 6C020000 		.4byte	.LVL374
 10289 3336 BE3F0000 		.4byte	0x3fbe
 10290 333a 5F330000 		.4byte	0x335f
 10291 333e 20       		.uleb128 0x20
 10292 333f 01       		.uleb128 0x1
 10293 3340 53       		.byte	0x53
 10294 3341 03       		.uleb128 0x3
 10295 3342 0A       		.byte	0xa
 10296 3343 0009     		.2byte	0x900
 10297 3345 20       		.uleb128 0x20
 10298 3346 01       		.uleb128 0x1
 10299 3347 52       		.byte	0x52
 10300 3348 02       		.uleb128 0x2
 10301 3349 77       		.byte	0x77
 10302 334a 00       		.sleb128 0
 10303 334b 20       		.uleb128 0x20
 10304 334c 01       		.uleb128 0x1
 10305 334d 51       		.byte	0x51
 10306 334e 02       		.uleb128 0x2
 10307 334f 08       		.byte	0x8
 10308 3350 25       		.byte	0x25
 10309 3351 20       		.uleb128 0x20
ARM GAS  C:\Users\AHMED~1.ELE\AppData\Local\Temp\cc594ylT.s 			page 203


 10310 3352 01       		.uleb128 0x1
 10311 3353 50       		.byte	0x50
 10312 3354 01       		.uleb128 0x1
 10313 3355 3F       		.byte	0x3f
 10314 3356 20       		.uleb128 0x20
 10315 3357 02       		.uleb128 0x2
 10316 3358 7D       		.byte	0x7d
 10317 3359 00       		.sleb128 0
 10318 335a 03       		.uleb128 0x3
 10319 335b 0A       		.byte	0xa
 10320 335c 8220     		.2byte	0x2082
 10321 335e 00       		.byte	0
 10322 335f 1F       		.uleb128 0x1f
 10323 3360 74020000 		.4byte	.LVL375
 10324 3364 873F0000 		.4byte	0x3f87
 10325 3368 20       		.uleb128 0x20
 10326 3369 01       		.uleb128 0x1
 10327 336a 51       		.byte	0x51
 10328 336b 02       		.uleb128 0x2
 10329 336c 77       		.byte	0x77
 10330 336d 00       		.sleb128 0
 10331 336e 20       		.uleb128 0x20
 10332 336f 01       		.uleb128 0x1
 10333 3370 50       		.byte	0x50
 10334 3371 02       		.uleb128 0x2
 10335 3372 08       		.byte	0x8
 10336 3373 94       		.byte	0x94
 10337 3374 00       		.byte	0
 10338 3375 00       		.byte	0
 10339 3376 27       		.uleb128 0x27
 10340 3377 88020000 		.4byte	.LBB75
 10341 337b 34000000 		.4byte	.LBE75-.LBB75
 10342 337f 23340000 		.4byte	0x3423
 10343 3383 33       		.uleb128 0x33
 10344 3384 6C656E00 		.ascii	"len\000"
 10345 3388 01       		.byte	0x1
 10346 3389 0603     		.2byte	0x306
 10347 338b B8000000 		.4byte	0xb8
 10348 338f 31130000 		.4byte	.LLST124
 10349 3393 33       		.uleb128 0x33
 10350 3394 70747200 		.ascii	"ptr\000"
 10351 3398 01       		.byte	0x1
 10352 3399 0603     		.2byte	0x306
 10353 339b C3000000 		.4byte	0xc3
 10354 339f 45130000 		.4byte	.LLST125
 10355 33a3 21       		.uleb128 0x21
 10356 33a4 90020000 		.4byte	.LVL380
 10357 33a8 873F0000 		.4byte	0x3f87
 10358 33ac BC330000 		.4byte	0x33bc
 10359 33b0 20       		.uleb128 0x20
 10360 33b1 01       		.uleb128 0x1
 10361 33b2 51       		.byte	0x51
 10362 33b3 01       		.uleb128 0x1
 10363 33b4 3B       		.byte	0x3b
 10364 33b5 20       		.uleb128 0x20
 10365 33b6 01       		.uleb128 0x1
 10366 33b7 50       		.byte	0x50
ARM GAS  C:\Users\AHMED~1.ELE\AppData\Local\Temp\cc594ylT.s 			page 204


 10367 33b8 02       		.uleb128 0x2
 10368 33b9 08       		.byte	0x8
 10369 33ba 92       		.byte	0x92
 10370 33bb 00       		.byte	0
 10371 33bc 21       		.uleb128 0x21
 10372 33bd 9C020000 		.4byte	.LVL381
 10373 33c1 A13F0000 		.4byte	0x3fa1
 10374 33c5 DE330000 		.4byte	0x33de
 10375 33c9 20       		.uleb128 0x20
 10376 33ca 01       		.uleb128 0x1
 10377 33cb 52       		.byte	0x52
 10378 33cc 01       		.uleb128 0x1
 10379 33cd 3A       		.byte	0x3a
 10380 33ce 20       		.uleb128 0x20
 10381 33cf 01       		.uleb128 0x1
 10382 33d0 51       		.byte	0x51
 10383 33d1 05       		.uleb128 0x5
 10384 33d2 03       		.byte	0x3
 10385 33d3 5E000000 		.4byte	.LC6
 10386 33d7 20       		.uleb128 0x20
 10387 33d8 01       		.uleb128 0x1
 10388 33d9 50       		.byte	0x50
 10389 33da 02       		.uleb128 0x2
 10390 33db 77       		.byte	0x77
 10391 33dc 00       		.sleb128 0
 10392 33dd 00       		.byte	0
 10393 33de 21       		.uleb128 0x21
 10394 33df B4020000 		.4byte	.LVL382
 10395 33e3 BE3F0000 		.4byte	0x3fbe
 10396 33e7 0C340000 		.4byte	0x340c
 10397 33eb 20       		.uleb128 0x20
 10398 33ec 01       		.uleb128 0x1
 10399 33ed 53       		.byte	0x53
 10400 33ee 03       		.uleb128 0x3
 10401 33ef 0A       		.byte	0xa
 10402 33f0 0009     		.2byte	0x900
 10403 33f2 20       		.uleb128 0x20
 10404 33f3 01       		.uleb128 0x1
 10405 33f4 52       		.byte	0x52
 10406 33f5 02       		.uleb128 0x2
 10407 33f6 77       		.byte	0x77
 10408 33f7 00       		.sleb128 0
 10409 33f8 20       		.uleb128 0x20
 10410 33f9 01       		.uleb128 0x1
 10411 33fa 51       		.byte	0x51
 10412 33fb 02       		.uleb128 0x2
 10413 33fc 08       		.byte	0x8
 10414 33fd 25       		.byte	0x25
 10415 33fe 20       		.uleb128 0x20
 10416 33ff 01       		.uleb128 0x1
 10417 3400 50       		.byte	0x50
 10418 3401 01       		.uleb128 0x1
 10419 3402 3F       		.byte	0x3f
 10420 3403 20       		.uleb128 0x20
 10421 3404 02       		.uleb128 0x2
 10422 3405 7D       		.byte	0x7d
 10423 3406 00       		.sleb128 0
ARM GAS  C:\Users\AHMED~1.ELE\AppData\Local\Temp\cc594ylT.s 			page 205


 10424 3407 03       		.uleb128 0x3
 10425 3408 0A       		.byte	0xa
 10426 3409 8220     		.2byte	0x2082
 10427 340b 00       		.byte	0
 10428 340c 1F       		.uleb128 0x1f
 10429 340d BC020000 		.4byte	.LVL383
 10430 3411 873F0000 		.4byte	0x3f87
 10431 3415 20       		.uleb128 0x20
 10432 3416 01       		.uleb128 0x1
 10433 3417 51       		.byte	0x51
 10434 3418 02       		.uleb128 0x2
 10435 3419 77       		.byte	0x77
 10436 341a 00       		.sleb128 0
 10437 341b 20       		.uleb128 0x20
 10438 341c 01       		.uleb128 0x1
 10439 341d 50       		.byte	0x50
 10440 341e 02       		.uleb128 0x2
 10441 341f 08       		.byte	0x8
 10442 3420 94       		.byte	0x94
 10443 3421 00       		.byte	0
 10444 3422 00       		.byte	0
 10445 3423 27       		.uleb128 0x27
 10446 3424 EE020000 		.4byte	.LBB76
 10447 3428 34000000 		.4byte	.LBE76-.LBB76
 10448 342c D0340000 		.4byte	0x34d0
 10449 3430 33       		.uleb128 0x33
 10450 3431 6C656E00 		.ascii	"len\000"
 10451 3435 01       		.byte	0x1
 10452 3436 0C03     		.2byte	0x30c
 10453 3438 B8000000 		.4byte	0xb8
 10454 343c 63130000 		.4byte	.LLST126
 10455 3440 33       		.uleb128 0x33
 10456 3441 70747200 		.ascii	"ptr\000"
 10457 3445 01       		.byte	0x1
 10458 3446 0C03     		.2byte	0x30c
 10459 3448 C3000000 		.4byte	0xc3
 10460 344c 77130000 		.4byte	.LLST127
 10461 3450 21       		.uleb128 0x21
 10462 3451 F6020000 		.4byte	.LVL388
 10463 3455 873F0000 		.4byte	0x3f87
 10464 3459 69340000 		.4byte	0x3469
 10465 345d 20       		.uleb128 0x20
 10466 345e 01       		.uleb128 0x1
 10467 345f 51       		.byte	0x51
 10468 3460 01       		.uleb128 0x1
 10469 3461 3B       		.byte	0x3b
 10470 3462 20       		.uleb128 0x20
 10471 3463 01       		.uleb128 0x1
 10472 3464 50       		.byte	0x50
 10473 3465 02       		.uleb128 0x2
 10474 3466 08       		.byte	0x8
 10475 3467 92       		.byte	0x92
 10476 3468 00       		.byte	0
 10477 3469 21       		.uleb128 0x21
 10478 346a 02030000 		.4byte	.LVL389
 10479 346e A13F0000 		.4byte	0x3fa1
 10480 3472 8B340000 		.4byte	0x348b
ARM GAS  C:\Users\AHMED~1.ELE\AppData\Local\Temp\cc594ylT.s 			page 206


 10481 3476 20       		.uleb128 0x20
 10482 3477 01       		.uleb128 0x1
 10483 3478 52       		.byte	0x52
 10484 3479 01       		.uleb128 0x1
 10485 347a 3A       		.byte	0x3a
 10486 347b 20       		.uleb128 0x20
 10487 347c 01       		.uleb128 0x1
 10488 347d 51       		.byte	0x51
 10489 347e 05       		.uleb128 0x5
 10490 347f 03       		.byte	0x3
 10491 3480 69000000 		.4byte	.LC7
 10492 3484 20       		.uleb128 0x20
 10493 3485 01       		.uleb128 0x1
 10494 3486 50       		.byte	0x50
 10495 3487 02       		.uleb128 0x2
 10496 3488 77       		.byte	0x77
 10497 3489 00       		.sleb128 0
 10498 348a 00       		.byte	0
 10499 348b 21       		.uleb128 0x21
 10500 348c 1A030000 		.4byte	.LVL390
 10501 3490 BE3F0000 		.4byte	0x3fbe
 10502 3494 B9340000 		.4byte	0x34b9
 10503 3498 20       		.uleb128 0x20
 10504 3499 01       		.uleb128 0x1
 10505 349a 53       		.byte	0x53
 10506 349b 03       		.uleb128 0x3
 10507 349c 0A       		.byte	0xa
 10508 349d 0009     		.2byte	0x900
 10509 349f 20       		.uleb128 0x20
 10510 34a0 01       		.uleb128 0x1
 10511 34a1 52       		.byte	0x52
 10512 34a2 02       		.uleb128 0x2
 10513 34a3 77       		.byte	0x77
 10514 34a4 00       		.sleb128 0
 10515 34a5 20       		.uleb128 0x20
 10516 34a6 01       		.uleb128 0x1
 10517 34a7 51       		.byte	0x51
 10518 34a8 02       		.uleb128 0x2
 10519 34a9 08       		.byte	0x8
 10520 34aa 25       		.byte	0x25
 10521 34ab 20       		.uleb128 0x20
 10522 34ac 01       		.uleb128 0x1
 10523 34ad 50       		.byte	0x50
 10524 34ae 01       		.uleb128 0x1
 10525 34af 3F       		.byte	0x3f
 10526 34b0 20       		.uleb128 0x20
 10527 34b1 02       		.uleb128 0x2
 10528 34b2 7D       		.byte	0x7d
 10529 34b3 00       		.sleb128 0
 10530 34b4 03       		.uleb128 0x3
 10531 34b5 0A       		.byte	0xa
 10532 34b6 8220     		.2byte	0x2082
 10533 34b8 00       		.byte	0
 10534 34b9 1F       		.uleb128 0x1f
 10535 34ba 22030000 		.4byte	.LVL391
 10536 34be 873F0000 		.4byte	0x3f87
 10537 34c2 20       		.uleb128 0x20
ARM GAS  C:\Users\AHMED~1.ELE\AppData\Local\Temp\cc594ylT.s 			page 207


 10538 34c3 01       		.uleb128 0x1
 10539 34c4 51       		.byte	0x51
 10540 34c5 02       		.uleb128 0x2
 10541 34c6 77       		.byte	0x77
 10542 34c7 00       		.sleb128 0
 10543 34c8 20       		.uleb128 0x20
 10544 34c9 01       		.uleb128 0x1
 10545 34ca 50       		.byte	0x50
 10546 34cb 02       		.uleb128 0x2
 10547 34cc 08       		.byte	0x8
 10548 34cd 94       		.byte	0x94
 10549 34ce 00       		.byte	0
 10550 34cf 00       		.byte	0
 10551 34d0 27       		.uleb128 0x27
 10552 34d1 48030000 		.4byte	.LBB77
 10553 34d5 34000000 		.4byte	.LBE77-.LBB77
 10554 34d9 7D350000 		.4byte	0x357d
 10555 34dd 33       		.uleb128 0x33
 10556 34de 6C656E00 		.ascii	"len\000"
 10557 34e2 01       		.byte	0x1
 10558 34e3 1303     		.2byte	0x313
 10559 34e5 B8000000 		.4byte	0xb8
 10560 34e9 95130000 		.4byte	.LLST128
 10561 34ed 33       		.uleb128 0x33
 10562 34ee 70747200 		.ascii	"ptr\000"
 10563 34f2 01       		.byte	0x1
 10564 34f3 1303     		.2byte	0x313
 10565 34f5 C3000000 		.4byte	0xc3
 10566 34f9 A9130000 		.4byte	.LLST129
 10567 34fd 21       		.uleb128 0x21
 10568 34fe 50030000 		.4byte	.LVL398
 10569 3502 873F0000 		.4byte	0x3f87
 10570 3506 16350000 		.4byte	0x3516
 10571 350a 20       		.uleb128 0x20
 10572 350b 01       		.uleb128 0x1
 10573 350c 51       		.byte	0x51
 10574 350d 01       		.uleb128 0x1
 10575 350e 3E       		.byte	0x3e
 10576 350f 20       		.uleb128 0x20
 10577 3510 01       		.uleb128 0x1
 10578 3511 50       		.byte	0x50
 10579 3512 02       		.uleb128 0x2
 10580 3513 08       		.byte	0x8
 10581 3514 92       		.byte	0x92
 10582 3515 00       		.byte	0
 10583 3516 21       		.uleb128 0x21
 10584 3517 5C030000 		.4byte	.LVL400
 10585 351b A13F0000 		.4byte	0x3fa1
 10586 351f 38350000 		.4byte	0x3538
 10587 3523 20       		.uleb128 0x20
 10588 3524 01       		.uleb128 0x1
 10589 3525 52       		.byte	0x52
 10590 3526 01       		.uleb128 0x1
 10591 3527 3D       		.byte	0x3d
 10592 3528 20       		.uleb128 0x20
 10593 3529 01       		.uleb128 0x1
 10594 352a 51       		.byte	0x51
ARM GAS  C:\Users\AHMED~1.ELE\AppData\Local\Temp\cc594ylT.s 			page 208


 10595 352b 05       		.uleb128 0x5
 10596 352c 03       		.byte	0x3
 10597 352d 74000000 		.4byte	.LC8
 10598 3531 20       		.uleb128 0x20
 10599 3532 01       		.uleb128 0x1
 10600 3533 50       		.byte	0x50
 10601 3534 02       		.uleb128 0x2
 10602 3535 76       		.byte	0x76
 10603 3536 00       		.sleb128 0
 10604 3537 00       		.byte	0
 10605 3538 21       		.uleb128 0x21
 10606 3539 74030000 		.4byte	.LVL402
 10607 353d BE3F0000 		.4byte	0x3fbe
 10608 3541 66350000 		.4byte	0x3566
 10609 3545 20       		.uleb128 0x20
 10610 3546 01       		.uleb128 0x1
 10611 3547 53       		.byte	0x53
 10612 3548 03       		.uleb128 0x3
 10613 3549 0A       		.byte	0xa
 10614 354a 0009     		.2byte	0x900
 10615 354c 20       		.uleb128 0x20
 10616 354d 01       		.uleb128 0x1
 10617 354e 52       		.byte	0x52
 10618 354f 02       		.uleb128 0x2
 10619 3550 76       		.byte	0x76
 10620 3551 00       		.sleb128 0
 10621 3552 20       		.uleb128 0x20
 10622 3553 01       		.uleb128 0x1
 10623 3554 51       		.byte	0x51
 10624 3555 02       		.uleb128 0x2
 10625 3556 08       		.byte	0x8
 10626 3557 25       		.byte	0x25
 10627 3558 20       		.uleb128 0x20
 10628 3559 01       		.uleb128 0x1
 10629 355a 50       		.byte	0x50
 10630 355b 01       		.uleb128 0x1
 10631 355c 3F       		.byte	0x3f
 10632 355d 20       		.uleb128 0x20
 10633 355e 02       		.uleb128 0x2
 10634 355f 7D       		.byte	0x7d
 10635 3560 00       		.sleb128 0
 10636 3561 03       		.uleb128 0x3
 10637 3562 0A       		.byte	0xa
 10638 3563 2020     		.2byte	0x2020
 10639 3565 00       		.byte	0
 10640 3566 1F       		.uleb128 0x1f
 10641 3567 7C030000 		.4byte	.LVL403
 10642 356b 873F0000 		.4byte	0x3f87
 10643 356f 20       		.uleb128 0x20
 10644 3570 01       		.uleb128 0x1
 10645 3571 51       		.byte	0x51
 10646 3572 02       		.uleb128 0x2
 10647 3573 76       		.byte	0x76
 10648 3574 00       		.sleb128 0
 10649 3575 20       		.uleb128 0x20
 10650 3576 01       		.uleb128 0x1
 10651 3577 50       		.byte	0x50
ARM GAS  C:\Users\AHMED~1.ELE\AppData\Local\Temp\cc594ylT.s 			page 209


 10652 3578 02       		.uleb128 0x2
 10653 3579 08       		.byte	0x8
 10654 357a 94       		.byte	0x94
 10655 357b 00       		.byte	0
 10656 357c 00       		.byte	0
 10657 357d 27       		.uleb128 0x27
 10658 357e A8030000 		.4byte	.LBB78
 10659 3582 1C000000 		.4byte	.LBE78-.LBB78
 10660 3586 E2350000 		.4byte	0x35e2
 10661 358a 33       		.uleb128 0x33
 10662 358b 6C656E00 		.ascii	"len\000"
 10663 358f 01       		.byte	0x1
 10664 3590 1C03     		.2byte	0x31c
 10665 3592 B8000000 		.4byte	0xb8
 10666 3596 C7130000 		.4byte	.LLST130
 10667 359a 33       		.uleb128 0x33
 10668 359b 70747200 		.ascii	"ptr\000"
 10669 359f 01       		.byte	0x1
 10670 35a0 1C03     		.2byte	0x31c
 10671 35a2 C3000000 		.4byte	0xc3
 10672 35a6 DB130000 		.4byte	.LLST131
 10673 35aa 21       		.uleb128 0x21
 10674 35ab B0030000 		.4byte	.LVL412
 10675 35af 873F0000 		.4byte	0x3f87
 10676 35b3 C3350000 		.4byte	0x35c3
 10677 35b7 20       		.uleb128 0x20
 10678 35b8 01       		.uleb128 0x1
 10679 35b9 51       		.byte	0x51
 10680 35ba 01       		.uleb128 0x1
 10681 35bb 40       		.byte	0x40
 10682 35bc 20       		.uleb128 0x20
 10683 35bd 01       		.uleb128 0x1
 10684 35be 50       		.byte	0x50
 10685 35bf 02       		.uleb128 0x2
 10686 35c0 08       		.byte	0x8
 10687 35c1 92       		.byte	0x92
 10688 35c2 00       		.byte	0
 10689 35c3 1F       		.uleb128 0x1f
 10690 35c4 BE030000 		.4byte	.LVL414
 10691 35c8 A13F0000 		.4byte	0x3fa1
 10692 35cc 20       		.uleb128 0x20
 10693 35cd 01       		.uleb128 0x1
 10694 35ce 52       		.byte	0x52
 10695 35cf 01       		.uleb128 0x1
 10696 35d0 3F       		.byte	0x3f
 10697 35d1 20       		.uleb128 0x20
 10698 35d2 01       		.uleb128 0x1
 10699 35d3 51       		.byte	0x51
 10700 35d4 05       		.uleb128 0x5
 10701 35d5 03       		.byte	0x3
 10702 35d6 82000000 		.4byte	.LC9
 10703 35da 20       		.uleb128 0x20
 10704 35db 01       		.uleb128 0x1
 10705 35dc 50       		.byte	0x50
 10706 35dd 02       		.uleb128 0x2
 10707 35de 76       		.byte	0x76
 10708 35df 00       		.sleb128 0
ARM GAS  C:\Users\AHMED~1.ELE\AppData\Local\Temp\cc594ylT.s 			page 210


 10709 35e0 00       		.byte	0
 10710 35e1 00       		.byte	0
 10711 35e2 27       		.uleb128 0x27
 10712 35e3 08040000 		.4byte	.LBB79
 10713 35e7 40000000 		.4byte	.LBE79-.LBB79
 10714 35eb A4360000 		.4byte	0x36a4
 10715 35ef 33       		.uleb128 0x33
 10716 35f0 6C656E00 		.ascii	"len\000"
 10717 35f4 01       		.byte	0x1
 10718 35f5 3803     		.2byte	0x338
 10719 35f7 B8000000 		.4byte	0xb8
 10720 35fb F9130000 		.4byte	.LLST132
 10721 35ff 33       		.uleb128 0x33
 10722 3600 70747200 		.ascii	"ptr\000"
 10723 3604 01       		.byte	0x1
 10724 3605 3803     		.2byte	0x338
 10725 3607 C3000000 		.4byte	0xc3
 10726 360b 17140000 		.4byte	.LLST133
 10727 360f 21       		.uleb128 0x21
 10728 3610 0E040000 		.4byte	.LVL428
 10729 3614 723F0000 		.4byte	0x3f72
 10730 3618 24360000 		.4byte	0x3624
 10731 361c 20       		.uleb128 0x20
 10732 361d 01       		.uleb128 0x1
 10733 361e 50       		.byte	0x50
 10734 361f 03       		.uleb128 0x3
 10735 3620 91       		.byte	0x91
 10736 3621 D87B     		.sleb128 -552
 10737 3623 00       		.byte	0
 10738 3624 21       		.uleb128 0x21
 10739 3625 1A040000 		.4byte	.LVL431
 10740 3629 873F0000 		.4byte	0x3f87
 10741 362d 3E360000 		.4byte	0x363e
 10742 3631 20       		.uleb128 0x20
 10743 3632 01       		.uleb128 0x1
 10744 3633 51       		.byte	0x51
 10745 3634 02       		.uleb128 0x2
 10746 3635 7A       		.byte	0x7a
 10747 3636 01       		.sleb128 1
 10748 3637 20       		.uleb128 0x20
 10749 3638 01       		.uleb128 0x1
 10750 3639 50       		.byte	0x50
 10751 363a 02       		.uleb128 0x2
 10752 363b 08       		.byte	0x8
 10753 363c 92       		.byte	0x92
 10754 363d 00       		.byte	0
 10755 363e 21       		.uleb128 0x21
 10756 363f 26040000 		.4byte	.LVL433
 10757 3643 A13F0000 		.4byte	0x3fa1
 10758 3647 5F360000 		.4byte	0x365f
 10759 364b 20       		.uleb128 0x20
 10760 364c 01       		.uleb128 0x1
 10761 364d 52       		.byte	0x52
 10762 364e 02       		.uleb128 0x2
 10763 364f 7A       		.byte	0x7a
 10764 3650 00       		.sleb128 0
 10765 3651 20       		.uleb128 0x20
ARM GAS  C:\Users\AHMED~1.ELE\AppData\Local\Temp\cc594ylT.s 			page 211


 10766 3652 01       		.uleb128 0x1
 10767 3653 51       		.byte	0x51
 10768 3654 03       		.uleb128 0x3
 10769 3655 91       		.byte	0x91
 10770 3656 D87B     		.sleb128 -552
 10771 3658 20       		.uleb128 0x20
 10772 3659 01       		.uleb128 0x1
 10773 365a 50       		.byte	0x50
 10774 365b 02       		.uleb128 0x2
 10775 365c 76       		.byte	0x76
 10776 365d 00       		.sleb128 0
 10777 365e 00       		.byte	0
 10778 365f 21       		.uleb128 0x21
 10779 3660 40040000 		.4byte	.LVL434
 10780 3664 BE3F0000 		.4byte	0x3fbe
 10781 3668 8D360000 		.4byte	0x368d
 10782 366c 20       		.uleb128 0x20
 10783 366d 01       		.uleb128 0x1
 10784 366e 53       		.byte	0x53
 10785 366f 03       		.uleb128 0x3
 10786 3670 0A       		.byte	0xa
 10787 3671 0009     		.2byte	0x900
 10788 3673 20       		.uleb128 0x20
 10789 3674 01       		.uleb128 0x1
 10790 3675 52       		.byte	0x52
 10791 3676 02       		.uleb128 0x2
 10792 3677 76       		.byte	0x76
 10793 3678 00       		.sleb128 0
 10794 3679 20       		.uleb128 0x20
 10795 367a 01       		.uleb128 0x1
 10796 367b 51       		.byte	0x51
 10797 367c 02       		.uleb128 0x2
 10798 367d 08       		.byte	0x8
 10799 367e 25       		.byte	0x25
 10800 367f 20       		.uleb128 0x20
 10801 3680 01       		.uleb128 0x1
 10802 3681 50       		.byte	0x50
 10803 3682 01       		.uleb128 0x1
 10804 3683 3F       		.byte	0x3f
 10805 3684 20       		.uleb128 0x20
 10806 3685 02       		.uleb128 0x2
 10807 3686 7D       		.byte	0x7d
 10808 3687 00       		.sleb128 0
 10809 3688 03       		.uleb128 0x3
 10810 3689 0A       		.byte	0xa
 10811 368a 2020     		.2byte	0x2020
 10812 368c 00       		.byte	0
 10813 368d 1F       		.uleb128 0x1f
 10814 368e 48040000 		.4byte	.LVL435
 10815 3692 873F0000 		.4byte	0x3f87
 10816 3696 20       		.uleb128 0x20
 10817 3697 01       		.uleb128 0x1
 10818 3698 51       		.byte	0x51
 10819 3699 02       		.uleb128 0x2
 10820 369a 76       		.byte	0x76
 10821 369b 00       		.sleb128 0
 10822 369c 20       		.uleb128 0x20
ARM GAS  C:\Users\AHMED~1.ELE\AppData\Local\Temp\cc594ylT.s 			page 212


 10823 369d 01       		.uleb128 0x1
 10824 369e 50       		.byte	0x50
 10825 369f 02       		.uleb128 0x2
 10826 36a0 08       		.byte	0x8
 10827 36a1 94       		.byte	0x94
 10828 36a2 00       		.byte	0
 10829 36a3 00       		.byte	0
 10830 36a4 27       		.uleb128 0x27
 10831 36a5 30050000 		.4byte	.LBB80
 10832 36a9 42000000 		.4byte	.LBE80-.LBB80
 10833 36ad 6C370000 		.4byte	0x376c
 10834 36b1 33       		.uleb128 0x33
 10835 36b2 6C656E00 		.ascii	"len\000"
 10836 36b6 01       		.byte	0x1
 10837 36b7 6E03     		.2byte	0x36e
 10838 36b9 B8000000 		.4byte	0xb8
 10839 36bd 35140000 		.4byte	.LLST134
 10840 36c1 33       		.uleb128 0x33
 10841 36c2 70747200 		.ascii	"ptr\000"
 10842 36c6 01       		.byte	0x1
 10843 36c7 6E03     		.2byte	0x36e
 10844 36c9 C3000000 		.4byte	0xc3
 10845 36cd 60140000 		.4byte	.LLST135
 10846 36d1 21       		.uleb128 0x21
 10847 36d2 36050000 		.4byte	.LVL456
 10848 36d6 723F0000 		.4byte	0x3f72
 10849 36da E6360000 		.4byte	0x36e6
 10850 36de 20       		.uleb128 0x20
 10851 36df 01       		.uleb128 0x1
 10852 36e0 50       		.byte	0x50
 10853 36e1 03       		.uleb128 0x3
 10854 36e2 91       		.byte	0x91
 10855 36e3 D87B     		.sleb128 -552
 10856 36e5 00       		.byte	0
 10857 36e6 21       		.uleb128 0x21
 10858 36e7 42050000 		.4byte	.LVL460
 10859 36eb 873F0000 		.4byte	0x3f87
 10860 36ef 04370000 		.4byte	0x3704
 10861 36f3 20       		.uleb128 0x20
 10862 36f4 01       		.uleb128 0x1
 10863 36f5 51       		.byte	0x51
 10864 36f6 06       		.uleb128 0x6
 10865 36f7 91       		.byte	0x91
 10866 36f8 B07B     		.sleb128 -592
 10867 36fa 06       		.byte	0x6
 10868 36fb 23       		.byte	0x23
 10869 36fc 01       		.uleb128 0x1
 10870 36fd 20       		.uleb128 0x20
 10871 36fe 01       		.uleb128 0x1
 10872 36ff 50       		.byte	0x50
 10873 3700 02       		.uleb128 0x2
 10874 3701 08       		.byte	0x8
 10875 3702 92       		.byte	0x92
 10876 3703 00       		.byte	0
 10877 3704 21       		.uleb128 0x21
 10878 3705 50050000 		.4byte	.LVL461
 10879 3709 A13F0000 		.4byte	0x3fa1
ARM GAS  C:\Users\AHMED~1.ELE\AppData\Local\Temp\cc594ylT.s 			page 213


 10880 370d 27370000 		.4byte	0x3727
 10881 3711 20       		.uleb128 0x20
 10882 3712 01       		.uleb128 0x1
 10883 3713 52       		.byte	0x52
 10884 3714 04       		.uleb128 0x4
 10885 3715 91       		.byte	0x91
 10886 3716 B07B     		.sleb128 -592
 10887 3718 06       		.byte	0x6
 10888 3719 20       		.uleb128 0x20
 10889 371a 01       		.uleb128 0x1
 10890 371b 51       		.byte	0x51
 10891 371c 03       		.uleb128 0x3
 10892 371d 91       		.byte	0x91
 10893 371e D87B     		.sleb128 -552
 10894 3720 20       		.uleb128 0x20
 10895 3721 01       		.uleb128 0x1
 10896 3722 50       		.byte	0x50
 10897 3723 02       		.uleb128 0x2
 10898 3724 7B       		.byte	0x7b
 10899 3725 00       		.sleb128 0
 10900 3726 00       		.byte	0
 10901 3727 21       		.uleb128 0x21
 10902 3728 6A050000 		.4byte	.LVL462
 10903 372c BE3F0000 		.4byte	0x3fbe
 10904 3730 55370000 		.4byte	0x3755
 10905 3734 20       		.uleb128 0x20
 10906 3735 01       		.uleb128 0x1
 10907 3736 53       		.byte	0x53
 10908 3737 03       		.uleb128 0x3
 10909 3738 0A       		.byte	0xa
 10910 3739 0009     		.2byte	0x900
 10911 373b 20       		.uleb128 0x20
 10912 373c 01       		.uleb128 0x1
 10913 373d 52       		.byte	0x52
 10914 373e 02       		.uleb128 0x2
 10915 373f 7B       		.byte	0x7b
 10916 3740 00       		.sleb128 0
 10917 3741 20       		.uleb128 0x20
 10918 3742 01       		.uleb128 0x1
 10919 3743 51       		.byte	0x51
 10920 3744 02       		.uleb128 0x2
 10921 3745 08       		.byte	0x8
 10922 3746 25       		.byte	0x25
 10923 3747 20       		.uleb128 0x20
 10924 3748 01       		.uleb128 0x1
 10925 3749 50       		.byte	0x50
 10926 374a 01       		.uleb128 0x1
 10927 374b 3F       		.byte	0x3f
 10928 374c 20       		.uleb128 0x20
 10929 374d 02       		.uleb128 0x2
 10930 374e 7D       		.byte	0x7d
 10931 374f 00       		.sleb128 0
 10932 3750 03       		.uleb128 0x3
 10933 3751 0A       		.byte	0xa
 10934 3752 2020     		.2byte	0x2020
 10935 3754 00       		.byte	0
 10936 3755 1F       		.uleb128 0x1f
ARM GAS  C:\Users\AHMED~1.ELE\AppData\Local\Temp\cc594ylT.s 			page 214


 10937 3756 72050000 		.4byte	.LVL463
 10938 375a 873F0000 		.4byte	0x3f87
 10939 375e 20       		.uleb128 0x20
 10940 375f 01       		.uleb128 0x1
 10941 3760 51       		.byte	0x51
 10942 3761 02       		.uleb128 0x2
 10943 3762 7B       		.byte	0x7b
 10944 3763 00       		.sleb128 0
 10945 3764 20       		.uleb128 0x20
 10946 3765 01       		.uleb128 0x1
 10947 3766 50       		.byte	0x50
 10948 3767 02       		.uleb128 0x2
 10949 3768 08       		.byte	0x8
 10950 3769 94       		.byte	0x94
 10951 376a 00       		.byte	0
 10952 376b 00       		.byte	0
 10953 376c 27       		.uleb128 0x27
 10954 376d 98050000 		.4byte	.LBB81
 10955 3771 42000000 		.4byte	.LBE81-.LBB81
 10956 3775 34380000 		.4byte	0x3834
 10957 3779 33       		.uleb128 0x33
 10958 377a 6C656E00 		.ascii	"len\000"
 10959 377e 01       		.byte	0x1
 10960 377f 8303     		.2byte	0x383
 10961 3781 B8000000 		.4byte	0xb8
 10962 3785 7E140000 		.4byte	.LLST136
 10963 3789 33       		.uleb128 0x33
 10964 378a 70747200 		.ascii	"ptr\000"
 10965 378e 01       		.byte	0x1
 10966 378f 8303     		.2byte	0x383
 10967 3791 C3000000 		.4byte	0xc3
 10968 3795 A9140000 		.4byte	.LLST137
 10969 3799 21       		.uleb128 0x21
 10970 379a 9E050000 		.4byte	.LVL467
 10971 379e 723F0000 		.4byte	0x3f72
 10972 37a2 AE370000 		.4byte	0x37ae
 10973 37a6 20       		.uleb128 0x20
 10974 37a7 01       		.uleb128 0x1
 10975 37a8 50       		.byte	0x50
 10976 37a9 03       		.uleb128 0x3
 10977 37aa 91       		.byte	0x91
 10978 37ab D87B     		.sleb128 -552
 10979 37ad 00       		.byte	0
 10980 37ae 21       		.uleb128 0x21
 10981 37af AA050000 		.4byte	.LVL470
 10982 37b3 873F0000 		.4byte	0x3f87
 10983 37b7 CC370000 		.4byte	0x37cc
 10984 37bb 20       		.uleb128 0x20
 10985 37bc 01       		.uleb128 0x1
 10986 37bd 51       		.byte	0x51
 10987 37be 06       		.uleb128 0x6
 10988 37bf 91       		.byte	0x91
 10989 37c0 B47B     		.sleb128 -588
 10990 37c2 06       		.byte	0x6
 10991 37c3 23       		.byte	0x23
 10992 37c4 01       		.uleb128 0x1
 10993 37c5 20       		.uleb128 0x20
ARM GAS  C:\Users\AHMED~1.ELE\AppData\Local\Temp\cc594ylT.s 			page 215


 10994 37c6 01       		.uleb128 0x1
 10995 37c7 50       		.byte	0x50
 10996 37c8 02       		.uleb128 0x2
 10997 37c9 08       		.byte	0x8
 10998 37ca 92       		.byte	0x92
 10999 37cb 00       		.byte	0
 11000 37cc 21       		.uleb128 0x21
 11001 37cd B8050000 		.4byte	.LVL471
 11002 37d1 A13F0000 		.4byte	0x3fa1
 11003 37d5 EF370000 		.4byte	0x37ef
 11004 37d9 20       		.uleb128 0x20
 11005 37da 01       		.uleb128 0x1
 11006 37db 52       		.byte	0x52
 11007 37dc 04       		.uleb128 0x4
 11008 37dd 91       		.byte	0x91
 11009 37de B47B     		.sleb128 -588
 11010 37e0 06       		.byte	0x6
 11011 37e1 20       		.uleb128 0x20
 11012 37e2 01       		.uleb128 0x1
 11013 37e3 51       		.byte	0x51
 11014 37e4 03       		.uleb128 0x3
 11015 37e5 91       		.byte	0x91
 11016 37e6 D87B     		.sleb128 -552
 11017 37e8 20       		.uleb128 0x20
 11018 37e9 01       		.uleb128 0x1
 11019 37ea 50       		.byte	0x50
 11020 37eb 02       		.uleb128 0x2
 11021 37ec 7B       		.byte	0x7b
 11022 37ed 00       		.sleb128 0
 11023 37ee 00       		.byte	0
 11024 37ef 21       		.uleb128 0x21
 11025 37f0 D2050000 		.4byte	.LVL472
 11026 37f4 BE3F0000 		.4byte	0x3fbe
 11027 37f8 1D380000 		.4byte	0x381d
 11028 37fc 20       		.uleb128 0x20
 11029 37fd 01       		.uleb128 0x1
 11030 37fe 53       		.byte	0x53
 11031 37ff 03       		.uleb128 0x3
 11032 3800 0A       		.byte	0xa
 11033 3801 0009     		.2byte	0x900
 11034 3803 20       		.uleb128 0x20
 11035 3804 01       		.uleb128 0x1
 11036 3805 52       		.byte	0x52
 11037 3806 02       		.uleb128 0x2
 11038 3807 7B       		.byte	0x7b
 11039 3808 00       		.sleb128 0
 11040 3809 20       		.uleb128 0x20
 11041 380a 01       		.uleb128 0x1
 11042 380b 51       		.byte	0x51
 11043 380c 02       		.uleb128 0x2
 11044 380d 08       		.byte	0x8
 11045 380e 25       		.byte	0x25
 11046 380f 20       		.uleb128 0x20
 11047 3810 01       		.uleb128 0x1
 11048 3811 50       		.byte	0x50
 11049 3812 01       		.uleb128 0x1
 11050 3813 3F       		.byte	0x3f
ARM GAS  C:\Users\AHMED~1.ELE\AppData\Local\Temp\cc594ylT.s 			page 216


 11051 3814 20       		.uleb128 0x20
 11052 3815 02       		.uleb128 0x2
 11053 3816 7D       		.byte	0x7d
 11054 3817 00       		.sleb128 0
 11055 3818 03       		.uleb128 0x3
 11056 3819 0A       		.byte	0xa
 11057 381a 2020     		.2byte	0x2020
 11058 381c 00       		.byte	0
 11059 381d 1F       		.uleb128 0x1f
 11060 381e DA050000 		.4byte	.LVL473
 11061 3822 873F0000 		.4byte	0x3f87
 11062 3826 20       		.uleb128 0x20
 11063 3827 01       		.uleb128 0x1
 11064 3828 51       		.byte	0x51
 11065 3829 02       		.uleb128 0x2
 11066 382a 7B       		.byte	0x7b
 11067 382b 00       		.sleb128 0
 11068 382c 20       		.uleb128 0x20
 11069 382d 01       		.uleb128 0x1
 11070 382e 50       		.byte	0x50
 11071 382f 02       		.uleb128 0x2
 11072 3830 08       		.byte	0x8
 11073 3831 94       		.byte	0x94
 11074 3832 00       		.byte	0
 11075 3833 00       		.byte	0
 11076 3834 3A       		.uleb128 0x3a
 11077 3835 D1120000 		.4byte	0x12d1
 11078 3839 B2060000 		.4byte	.LBB82
 11079 383d 08000000 		.4byte	.LBE82-.LBB82
 11080 3841 01       		.byte	0x1
 11081 3842 CE03     		.2byte	0x3ce
 11082 3844 66380000 		.4byte	0x3866
 11083 3848 2B       		.uleb128 0x2b
 11084 3849 DE120000 		.4byte	0x12de
 11085 384d C7140000 		.4byte	.LLST138
 11086 3851 1F       		.uleb128 0x1f
 11087 3852 BA060000 		.4byte	.LVL492
 11088 3856 873F0000 		.4byte	0x3f87
 11089 385a 20       		.uleb128 0x20
 11090 385b 01       		.uleb128 0x1
 11091 385c 51       		.byte	0x51
 11092 385d 01       		.uleb128 0x1
 11093 385e 3F       		.byte	0x3f
 11094 385f 20       		.uleb128 0x20
 11095 3860 01       		.uleb128 0x1
 11096 3861 50       		.byte	0x50
 11097 3862 01       		.uleb128 0x1
 11098 3863 46       		.byte	0x46
 11099 3864 00       		.byte	0
 11100 3865 00       		.byte	0
 11101 3866 27       		.uleb128 0x27
 11102 3867 EC060000 		.4byte	.LBB84
 11103 386b 48000000 		.4byte	.LBE84-.LBB84
 11104 386f 2E390000 		.4byte	0x392e
 11105 3873 33       		.uleb128 0x33
 11106 3874 6C656E00 		.ascii	"len\000"
 11107 3878 01       		.byte	0x1
ARM GAS  C:\Users\AHMED~1.ELE\AppData\Local\Temp\cc594ylT.s 			page 217


 11108 3879 9403     		.2byte	0x394
 11109 387b B8000000 		.4byte	0xb8
 11110 387f DB140000 		.4byte	.LLST139
 11111 3883 33       		.uleb128 0x33
 11112 3884 70747200 		.ascii	"ptr\000"
 11113 3888 01       		.byte	0x1
 11114 3889 9403     		.2byte	0x394
 11115 388b C3000000 		.4byte	0xc3
 11116 388f 06150000 		.4byte	.LLST140
 11117 3893 21       		.uleb128 0x21
 11118 3894 F2060000 		.4byte	.LVL498
 11119 3898 723F0000 		.4byte	0x3f72
 11120 389c A8380000 		.4byte	0x38a8
 11121 38a0 20       		.uleb128 0x20
 11122 38a1 01       		.uleb128 0x1
 11123 38a2 50       		.byte	0x50
 11124 38a3 03       		.uleb128 0x3
 11125 38a4 91       		.byte	0x91
 11126 38a5 D87B     		.sleb128 -552
 11127 38a7 00       		.byte	0
 11128 38a8 21       		.uleb128 0x21
 11129 38a9 FE060000 		.4byte	.LVL501
 11130 38ad 873F0000 		.4byte	0x3f87
 11131 38b1 C6380000 		.4byte	0x38c6
 11132 38b5 20       		.uleb128 0x20
 11133 38b6 01       		.uleb128 0x1
 11134 38b7 51       		.byte	0x51
 11135 38b8 06       		.uleb128 0x6
 11136 38b9 91       		.byte	0x91
 11137 38ba B47B     		.sleb128 -588
 11138 38bc 06       		.byte	0x6
 11139 38bd 23       		.byte	0x23
 11140 38be 01       		.uleb128 0x1
 11141 38bf 20       		.uleb128 0x20
 11142 38c0 01       		.uleb128 0x1
 11143 38c1 50       		.byte	0x50
 11144 38c2 02       		.uleb128 0x2
 11145 38c3 08       		.byte	0x8
 11146 38c4 92       		.byte	0x92
 11147 38c5 00       		.byte	0
 11148 38c6 21       		.uleb128 0x21
 11149 38c7 10070000 		.4byte	.LVL502
 11150 38cb A13F0000 		.4byte	0x3fa1
 11151 38cf E9380000 		.4byte	0x38e9
 11152 38d3 20       		.uleb128 0x20
 11153 38d4 01       		.uleb128 0x1
 11154 38d5 52       		.byte	0x52
 11155 38d6 04       		.uleb128 0x4
 11156 38d7 91       		.byte	0x91
 11157 38d8 B47B     		.sleb128 -588
 11158 38da 06       		.byte	0x6
 11159 38db 20       		.uleb128 0x20
 11160 38dc 01       		.uleb128 0x1
 11161 38dd 51       		.byte	0x51
 11162 38de 03       		.uleb128 0x3
 11163 38df 91       		.byte	0x91
 11164 38e0 D87B     		.sleb128 -552
ARM GAS  C:\Users\AHMED~1.ELE\AppData\Local\Temp\cc594ylT.s 			page 218


 11165 38e2 20       		.uleb128 0x20
 11166 38e3 01       		.uleb128 0x1
 11167 38e4 50       		.byte	0x50
 11168 38e5 02       		.uleb128 0x2
 11169 38e6 7B       		.byte	0x7b
 11170 38e7 00       		.sleb128 0
 11171 38e8 00       		.byte	0
 11172 38e9 21       		.uleb128 0x21
 11173 38ea 2A070000 		.4byte	.LVL503
 11174 38ee BE3F0000 		.4byte	0x3fbe
 11175 38f2 17390000 		.4byte	0x3917
 11176 38f6 20       		.uleb128 0x20
 11177 38f7 01       		.uleb128 0x1
 11178 38f8 53       		.byte	0x53
 11179 38f9 03       		.uleb128 0x3
 11180 38fa 0A       		.byte	0xa
 11181 38fb 0009     		.2byte	0x900
 11182 38fd 20       		.uleb128 0x20
 11183 38fe 01       		.uleb128 0x1
 11184 38ff 52       		.byte	0x52
 11185 3900 02       		.uleb128 0x2
 11186 3901 7B       		.byte	0x7b
 11187 3902 00       		.sleb128 0
 11188 3903 20       		.uleb128 0x20
 11189 3904 01       		.uleb128 0x1
 11190 3905 51       		.byte	0x51
 11191 3906 02       		.uleb128 0x2
 11192 3907 08       		.byte	0x8
 11193 3908 25       		.byte	0x25
 11194 3909 20       		.uleb128 0x20
 11195 390a 01       		.uleb128 0x1
 11196 390b 50       		.byte	0x50
 11197 390c 01       		.uleb128 0x1
 11198 390d 3F       		.byte	0x3f
 11199 390e 20       		.uleb128 0x20
 11200 390f 02       		.uleb128 0x2
 11201 3910 7D       		.byte	0x7d
 11202 3911 00       		.sleb128 0
 11203 3912 03       		.uleb128 0x3
 11204 3913 0A       		.byte	0xa
 11205 3914 2020     		.2byte	0x2020
 11206 3916 00       		.byte	0
 11207 3917 1F       		.uleb128 0x1f
 11208 3918 32070000 		.4byte	.LVL504
 11209 391c 873F0000 		.4byte	0x3f87
 11210 3920 20       		.uleb128 0x20
 11211 3921 01       		.uleb128 0x1
 11212 3922 51       		.byte	0x51
 11213 3923 02       		.uleb128 0x2
 11214 3924 7B       		.byte	0x7b
 11215 3925 00       		.sleb128 0
 11216 3926 20       		.uleb128 0x20
 11217 3927 01       		.uleb128 0x1
 11218 3928 50       		.byte	0x50
 11219 3929 02       		.uleb128 0x2
 11220 392a 08       		.byte	0x8
 11221 392b 94       		.byte	0x94
ARM GAS  C:\Users\AHMED~1.ELE\AppData\Local\Temp\cc594ylT.s 			page 219


 11222 392c 00       		.byte	0
 11223 392d 00       		.byte	0
 11224 392e 21       		.uleb128 0x21
 11225 392f 12000000 		.4byte	.LVL310
 11226 3933 873F0000 		.4byte	0x3f87
 11227 3937 48390000 		.4byte	0x3948
 11228 393b 20       		.uleb128 0x20
 11229 393c 01       		.uleb128 0x1
 11230 393d 51       		.byte	0x51
 11231 393e 01       		.uleb128 0x1
 11232 393f 31       		.byte	0x31
 11233 3940 20       		.uleb128 0x20
 11234 3941 01       		.uleb128 0x1
 11235 3942 50       		.byte	0x50
 11236 3943 03       		.uleb128 0x3
 11237 3944 0A       		.byte	0xa
 11238 3945 A001     		.2byte	0x1a0
 11239 3947 00       		.byte	0
 11240 3948 21       		.uleb128 0x21
 11241 3949 22000000 		.4byte	.LVL311
 11242 394d 873F0000 		.4byte	0x3f87
 11243 3951 61390000 		.4byte	0x3961
 11244 3955 20       		.uleb128 0x20
 11245 3956 01       		.uleb128 0x1
 11246 3957 51       		.byte	0x51
 11247 3958 01       		.uleb128 0x1
 11248 3959 3D       		.byte	0x3d
 11249 395a 20       		.uleb128 0x20
 11250 395b 01       		.uleb128 0x1
 11251 395c 50       		.byte	0x50
 11252 395d 02       		.uleb128 0x2
 11253 395e 08       		.byte	0x8
 11254 395f 8D       		.byte	0x8d
 11255 3960 00       		.byte	0
 11256 3961 3C       		.uleb128 0x3c
 11257 3962 5C000000 		.4byte	.LVL317
 11258 3966 30400000 		.4byte	0x4030
 11259 396a 21       		.uleb128 0x21
 11260 396b 6C000000 		.4byte	.LVL318
 11261 396f BE3F0000 		.4byte	0x3fbe
 11262 3973 94390000 		.4byte	0x3994
 11263 3977 20       		.uleb128 0x20
 11264 3978 01       		.uleb128 0x1
 11265 3979 53       		.byte	0x53
 11266 397a 01       		.uleb128 0x1
 11267 397b 30       		.byte	0x30
 11268 397c 20       		.uleb128 0x20
 11269 397d 01       		.uleb128 0x1
 11270 397e 52       		.byte	0x52
 11271 397f 03       		.uleb128 0x3
 11272 3980 0A       		.byte	0xa
 11273 3981 2823     		.2byte	0x2328
 11274 3983 20       		.uleb128 0x20
 11275 3984 01       		.uleb128 0x1
 11276 3985 51       		.byte	0x51
 11277 3986 01       		.uleb128 0x1
 11278 3987 33       		.byte	0x33
ARM GAS  C:\Users\AHMED~1.ELE\AppData\Local\Temp\cc594ylT.s 			page 220


 11279 3988 20       		.uleb128 0x20
 11280 3989 01       		.uleb128 0x1
 11281 398a 50       		.byte	0x50
 11282 398b 01       		.uleb128 0x1
 11283 398c 40       		.byte	0x40
 11284 398d 20       		.uleb128 0x20
 11285 398e 02       		.uleb128 0x2
 11286 398f 7D       		.byte	0x7d
 11287 3990 00       		.sleb128 0
 11288 3991 01       		.uleb128 0x1
 11289 3992 30       		.byte	0x30
 11290 3993 00       		.byte	0
 11291 3994 21       		.uleb128 0x21
 11292 3995 78000000 		.4byte	.LVL320
 11293 3999 13400000 		.4byte	0x4013
 11294 399d B3390000 		.4byte	0x39b3
 11295 39a1 20       		.uleb128 0x20
 11296 39a2 01       		.uleb128 0x1
 11297 39a3 52       		.byte	0x52
 11298 39a4 01       		.uleb128 0x1
 11299 39a5 3C       		.byte	0x3c
 11300 39a6 20       		.uleb128 0x20
 11301 39a7 01       		.uleb128 0x1
 11302 39a8 51       		.byte	0x51
 11303 39a9 01       		.uleb128 0x1
 11304 39aa 30       		.byte	0x30
 11305 39ab 20       		.uleb128 0x20
 11306 39ac 01       		.uleb128 0x1
 11307 39ad 50       		.byte	0x50
 11308 39ae 03       		.uleb128 0x3
 11309 39af 91       		.byte	0x91
 11310 39b0 BC7B     		.sleb128 -580
 11311 39b2 00       		.byte	0
 11312 39b3 21       		.uleb128 0x21
 11313 39b4 F8000000 		.4byte	.LVL332
 11314 39b8 873F0000 		.4byte	0x3f87
 11315 39bc D0390000 		.4byte	0x39d0
 11316 39c0 20       		.uleb128 0x20
 11317 39c1 01       		.uleb128 0x1
 11318 39c2 51       		.byte	0x51
 11319 39c3 05       		.uleb128 0x5
 11320 39c4 0C       		.byte	0xc
 11321 39c5 008C0A00 		.4byte	0xa8c00
 11322 39c9 20       		.uleb128 0x20
 11323 39ca 01       		.uleb128 0x1
 11324 39cb 50       		.byte	0x50
 11325 39cc 02       		.uleb128 0x2
 11326 39cd 08       		.byte	0x8
 11327 39ce 92       		.byte	0x92
 11328 39cf 00       		.byte	0
 11329 39d0 21       		.uleb128 0x21
 11330 39d1 0A010000 		.4byte	.LVL335
 11331 39d5 873F0000 		.4byte	0x3f87
 11332 39d9 E9390000 		.4byte	0x39e9
 11333 39dd 20       		.uleb128 0x20
 11334 39de 01       		.uleb128 0x1
 11335 39df 51       		.byte	0x51
ARM GAS  C:\Users\AHMED~1.ELE\AppData\Local\Temp\cc594ylT.s 			page 221


 11336 39e0 01       		.uleb128 0x1
 11337 39e1 3C       		.byte	0x3c
 11338 39e2 20       		.uleb128 0x20
 11339 39e3 01       		.uleb128 0x1
 11340 39e4 50       		.byte	0x50
 11341 39e5 02       		.uleb128 0x2
 11342 39e6 08       		.byte	0x8
 11343 39e7 92       		.byte	0x92
 11344 39e8 00       		.byte	0
 11345 39e9 21       		.uleb128 0x21
 11346 39ea 16010000 		.4byte	.LVL338
 11347 39ee 873F0000 		.4byte	0x3f87
 11348 39f2 023A0000 		.4byte	0x3a02
 11349 39f6 20       		.uleb128 0x20
 11350 39f7 01       		.uleb128 0x1
 11351 39f8 51       		.byte	0x51
 11352 39f9 01       		.uleb128 0x1
 11353 39fa 40       		.byte	0x40
 11354 39fb 20       		.uleb128 0x20
 11355 39fc 01       		.uleb128 0x1
 11356 39fd 50       		.byte	0x50
 11357 39fe 02       		.uleb128 0x2
 11358 39ff 08       		.byte	0x8
 11359 3a00 92       		.byte	0x92
 11360 3a01 00       		.byte	0
 11361 3a02 21       		.uleb128 0x21
 11362 3a03 22010000 		.4byte	.LVL341
 11363 3a07 873F0000 		.4byte	0x3f87
 11364 3a0b 1D3A0000 		.4byte	0x3a1d
 11365 3a0f 20       		.uleb128 0x20
 11366 3a10 01       		.uleb128 0x1
 11367 3a11 51       		.byte	0x51
 11368 3a12 03       		.uleb128 0x3
 11369 3a13 0A       		.byte	0xa
 11370 3a14 0001     		.2byte	0x100
 11371 3a16 20       		.uleb128 0x20
 11372 3a17 01       		.uleb128 0x1
 11373 3a18 50       		.byte	0x50
 11374 3a19 02       		.uleb128 0x2
 11375 3a1a 08       		.byte	0x8
 11376 3a1b 92       		.byte	0x92
 11377 3a1c 00       		.byte	0
 11378 3a1d 21       		.uleb128 0x21
 11379 3a1e 2C010000 		.4byte	.LVL344
 11380 3a22 873F0000 		.4byte	0x3f87
 11381 3a26 373A0000 		.4byte	0x3a37
 11382 3a2a 20       		.uleb128 0x20
 11383 3a2b 01       		.uleb128 0x1
 11384 3a2c 51       		.byte	0x51
 11385 3a2d 02       		.uleb128 0x2
 11386 3a2e 08       		.byte	0x8
 11387 3a2f 80       		.byte	0x80
 11388 3a30 20       		.uleb128 0x20
 11389 3a31 01       		.uleb128 0x1
 11390 3a32 50       		.byte	0x50
 11391 3a33 02       		.uleb128 0x2
 11392 3a34 08       		.byte	0x8
ARM GAS  C:\Users\AHMED~1.ELE\AppData\Local\Temp\cc594ylT.s 			page 222


 11393 3a35 92       		.byte	0x92
 11394 3a36 00       		.byte	0
 11395 3a37 21       		.uleb128 0x21
 11396 3a38 44010000 		.4byte	.LVL347
 11397 3a3c 873F0000 		.4byte	0x3f87
 11398 3a40 523A0000 		.4byte	0x3a52
 11399 3a44 20       		.uleb128 0x20
 11400 3a45 01       		.uleb128 0x1
 11401 3a46 51       		.byte	0x51
 11402 3a47 03       		.uleb128 0x3
 11403 3a48 0A       		.byte	0xa
 11404 3a49 0001     		.2byte	0x100
 11405 3a4b 20       		.uleb128 0x20
 11406 3a4c 01       		.uleb128 0x1
 11407 3a4d 50       		.byte	0x50
 11408 3a4e 02       		.uleb128 0x2
 11409 3a4f 08       		.byte	0x8
 11410 3a50 22       		.byte	0x22
 11411 3a51 00       		.byte	0
 11412 3a52 21       		.uleb128 0x21
 11413 3a53 60010000 		.4byte	.LVL349
 11414 3a57 873F0000 		.4byte	0x3f87
 11415 3a5b 6F3A0000 		.4byte	0x3a6f
 11416 3a5f 20       		.uleb128 0x20
 11417 3a60 01       		.uleb128 0x1
 11418 3a61 51       		.byte	0x51
 11419 3a62 04       		.uleb128 0x4
 11420 3a63 91       		.byte	0x91
 11421 3a64 AC7B     		.sleb128 -596
 11422 3a66 06       		.byte	0x6
 11423 3a67 20       		.uleb128 0x20
 11424 3a68 01       		.uleb128 0x1
 11425 3a69 50       		.byte	0x50
 11426 3a6a 03       		.uleb128 0x3
 11427 3a6b 0A       		.byte	0xa
 11428 3a6c CF01     		.2byte	0x1cf
 11429 3a6e 00       		.byte	0
 11430 3a6f 21       		.uleb128 0x21
 11431 3a70 C0010000 		.4byte	.LVL355
 11432 3a74 301A0000 		.4byte	0x1a30
 11433 3a78 823A0000 		.4byte	0x3a82
 11434 3a7c 20       		.uleb128 0x20
 11435 3a7d 01       		.uleb128 0x1
 11436 3a7e 50       		.byte	0x50
 11437 3a7f 01       		.uleb128 0x1
 11438 3a80 30       		.byte	0x30
 11439 3a81 00       		.byte	0
 11440 3a82 21       		.uleb128 0x21
 11441 3a83 FE010000 		.4byte	.LVL362
 11442 3a87 301A0000 		.4byte	0x1a30
 11443 3a8b 953A0000 		.4byte	0x3a95
 11444 3a8f 20       		.uleb128 0x20
 11445 3a90 01       		.uleb128 0x1
 11446 3a91 50       		.byte	0x50
 11447 3a92 01       		.uleb128 0x1
 11448 3a93 30       		.byte	0x30
 11449 3a94 00       		.byte	0
ARM GAS  C:\Users\AHMED~1.ELE\AppData\Local\Temp\cc594ylT.s 			page 223


 11450 3a95 21       		.uleb128 0x21
 11451 3a96 3C020000 		.4byte	.LVL369
 11452 3a9a 301A0000 		.4byte	0x1a30
 11453 3a9e A83A0000 		.4byte	0x3aa8
 11454 3aa2 20       		.uleb128 0x20
 11455 3aa3 01       		.uleb128 0x1
 11456 3aa4 50       		.byte	0x50
 11457 3aa5 01       		.uleb128 0x1
 11458 3aa6 30       		.byte	0x30
 11459 3aa7 00       		.byte	0
 11460 3aa8 21       		.uleb128 0x21
 11461 3aa9 7A020000 		.4byte	.LVL376
 11462 3aad 301A0000 		.4byte	0x1a30
 11463 3ab1 BB3A0000 		.4byte	0x3abb
 11464 3ab5 20       		.uleb128 0x20
 11465 3ab6 01       		.uleb128 0x1
 11466 3ab7 50       		.byte	0x50
 11467 3ab8 01       		.uleb128 0x1
 11468 3ab9 31       		.byte	0x31
 11469 3aba 00       		.byte	0
 11470 3abb 21       		.uleb128 0x21
 11471 3abc C2020000 		.4byte	.LVL384
 11472 3ac0 301A0000 		.4byte	0x1a30
 11473 3ac4 CE3A0000 		.4byte	0x3ace
 11474 3ac8 20       		.uleb128 0x20
 11475 3ac9 01       		.uleb128 0x1
 11476 3aca 50       		.byte	0x50
 11477 3acb 01       		.uleb128 0x1
 11478 3acc 31       		.byte	0x31
 11479 3acd 00       		.byte	0
 11480 3ace 21       		.uleb128 0x21
 11481 3acf 28030000 		.4byte	.LVL392
 11482 3ad3 301A0000 		.4byte	0x1a30
 11483 3ad7 E13A0000 		.4byte	0x3ae1
 11484 3adb 20       		.uleb128 0x20
 11485 3adc 01       		.uleb128 0x1
 11486 3add 50       		.byte	0x50
 11487 3ade 01       		.uleb128 0x1
 11488 3adf 31       		.byte	0x31
 11489 3ae0 00       		.byte	0
 11490 3ae1 21       		.uleb128 0x21
 11491 3ae2 42030000 		.4byte	.LVL395
 11492 3ae6 EF130000 		.4byte	0x13ef
 11493 3aea 083B0000 		.4byte	0x3b08
 11494 3aee 20       		.uleb128 0x20
 11495 3aef 01       		.uleb128 0x1
 11496 3af0 53       		.byte	0x53
 11497 3af1 01       		.uleb128 0x1
 11498 3af2 35       		.byte	0x35
 11499 3af3 20       		.uleb128 0x20
 11500 3af4 01       		.uleb128 0x1
 11501 3af5 52       		.byte	0x52
 11502 3af6 03       		.uleb128 0x3
 11503 3af7 91       		.byte	0x91
 11504 3af8 C87B     		.sleb128 -568
 11505 3afa 20       		.uleb128 0x20
 11506 3afb 01       		.uleb128 0x1
ARM GAS  C:\Users\AHMED~1.ELE\AppData\Local\Temp\cc594ylT.s 			page 224


 11507 3afc 51       		.byte	0x51
 11508 3afd 03       		.uleb128 0x3
 11509 3afe 91       		.byte	0x91
 11510 3aff BC7B     		.sleb128 -580
 11511 3b01 20       		.uleb128 0x20
 11512 3b02 01       		.uleb128 0x1
 11513 3b03 50       		.byte	0x50
 11514 3b04 02       		.uleb128 0x2
 11515 3b05 77       		.byte	0x77
 11516 3b06 00       		.sleb128 0
 11517 3b07 00       		.byte	0
 11518 3b08 21       		.uleb128 0x21
 11519 3b09 82030000 		.4byte	.LVL404
 11520 3b0d 301A0000 		.4byte	0x1a30
 11521 3b11 1B3B0000 		.4byte	0x3b1b
 11522 3b15 20       		.uleb128 0x20
 11523 3b16 01       		.uleb128 0x1
 11524 3b17 50       		.byte	0x50
 11525 3b18 01       		.uleb128 0x1
 11526 3b19 31       		.byte	0x31
 11527 3b1a 00       		.byte	0
 11528 3b1b 21       		.uleb128 0x21
 11529 3b1c 92030000 		.4byte	.LVL405
 11530 3b20 BE3F0000 		.4byte	0x3fbe
 11531 3b24 453B0000 		.4byte	0x3b45
 11532 3b28 20       		.uleb128 0x20
 11533 3b29 01       		.uleb128 0x1
 11534 3b2a 53       		.byte	0x53
 11535 3b2b 01       		.uleb128 0x1
 11536 3b2c 30       		.byte	0x30
 11537 3b2d 20       		.uleb128 0x20
 11538 3b2e 01       		.uleb128 0x1
 11539 3b2f 52       		.byte	0x52
 11540 3b30 03       		.uleb128 0x3
 11541 3b31 0A       		.byte	0xa
 11542 3b32 2823     		.2byte	0x2328
 11543 3b34 20       		.uleb128 0x20
 11544 3b35 01       		.uleb128 0x1
 11545 3b36 51       		.byte	0x51
 11546 3b37 01       		.uleb128 0x1
 11547 3b38 33       		.byte	0x33
 11548 3b39 20       		.uleb128 0x20
 11549 3b3a 01       		.uleb128 0x1
 11550 3b3b 50       		.byte	0x50
 11551 3b3c 01       		.uleb128 0x1
 11552 3b3d 40       		.byte	0x40
 11553 3b3e 20       		.uleb128 0x20
 11554 3b3f 02       		.uleb128 0x2
 11555 3b40 7D       		.byte	0x7d
 11556 3b41 00       		.sleb128 0
 11557 3b42 01       		.uleb128 0x1
 11558 3b43 30       		.byte	0x30
 11559 3b44 00       		.byte	0
 11560 3b45 3C       		.uleb128 0x3c
 11561 3b46 98030000 		.4byte	.LVL407
 11562 3b4a A7130000 		.4byte	0x13a7
 11563 3b4e 21       		.uleb128 0x21
ARM GAS  C:\Users\AHMED~1.ELE\AppData\Local\Temp\cc594ylT.s 			page 225


 11564 3b4f A4030000 		.4byte	.LVL409
 11565 3b53 D4160000 		.4byte	0x16d4
 11566 3b57 753B0000 		.4byte	0x3b75
 11567 3b5b 20       		.uleb128 0x20
 11568 3b5c 01       		.uleb128 0x1
 11569 3b5d 53       		.byte	0x53
 11570 3b5e 01       		.uleb128 0x1
 11571 3b5f 35       		.byte	0x35
 11572 3b60 20       		.uleb128 0x20
 11573 3b61 01       		.uleb128 0x1
 11574 3b62 52       		.byte	0x52
 11575 3b63 03       		.uleb128 0x3
 11576 3b64 91       		.byte	0x91
 11577 3b65 C87B     		.sleb128 -568
 11578 3b67 20       		.uleb128 0x20
 11579 3b68 01       		.uleb128 0x1
 11580 3b69 51       		.byte	0x51
 11581 3b6a 03       		.uleb128 0x3
 11582 3b6b 91       		.byte	0x91
 11583 3b6c BC7B     		.sleb128 -580
 11584 3b6e 20       		.uleb128 0x20
 11585 3b6f 01       		.uleb128 0x1
 11586 3b70 50       		.byte	0x50
 11587 3b71 02       		.uleb128 0x2
 11588 3b72 77       		.byte	0x77
 11589 3b73 00       		.sleb128 0
 11590 3b74 00       		.byte	0
 11591 3b75 21       		.uleb128 0x21
 11592 3b76 D0030000 		.4byte	.LVL417
 11593 3b7a 873F0000 		.4byte	0x3f87
 11594 3b7e 923B0000 		.4byte	0x3b92
 11595 3b82 20       		.uleb128 0x20
 11596 3b83 01       		.uleb128 0x1
 11597 3b84 51       		.byte	0x51
 11598 3b85 04       		.uleb128 0x4
 11599 3b86 91       		.byte	0x91
 11600 3b87 A07B     		.sleb128 -608
 11601 3b89 06       		.byte	0x6
 11602 3b8a 20       		.uleb128 0x20
 11603 3b8b 01       		.uleb128 0x1
 11604 3b8c 50       		.byte	0x50
 11605 3b8d 03       		.uleb128 0x3
 11606 3b8e 0A       		.byte	0xa
 11607 3b8f C901     		.2byte	0x1c9
 11608 3b91 00       		.byte	0
 11609 3b92 21       		.uleb128 0x21
 11610 3b93 DE030000 		.4byte	.LVL420
 11611 3b97 02400000 		.4byte	0x4002
 11612 3b9b A53B0000 		.4byte	0x3ba5
 11613 3b9f 20       		.uleb128 0x20
 11614 3ba0 01       		.uleb128 0x1
 11615 3ba1 50       		.byte	0x50
 11616 3ba2 01       		.uleb128 0x1
 11617 3ba3 31       		.byte	0x31
 11618 3ba4 00       		.byte	0
 11619 3ba5 21       		.uleb128 0x21
 11620 3ba6 E8030000 		.4byte	.LVL421
ARM GAS  C:\Users\AHMED~1.ELE\AppData\Local\Temp\cc594ylT.s 			page 226


 11621 3baa 873F0000 		.4byte	0x3f87
 11622 3bae C23B0000 		.4byte	0x3bc2
 11623 3bb2 20       		.uleb128 0x20
 11624 3bb3 01       		.uleb128 0x1
 11625 3bb4 51       		.byte	0x51
 11626 3bb5 04       		.uleb128 0x4
 11627 3bb6 91       		.byte	0x91
 11628 3bb7 A07B     		.sleb128 -608
 11629 3bb9 06       		.byte	0x6
 11630 3bba 20       		.uleb128 0x20
 11631 3bbb 01       		.uleb128 0x1
 11632 3bbc 50       		.byte	0x50
 11633 3bbd 03       		.uleb128 0x3
 11634 3bbe 0A       		.byte	0xa
 11635 3bbf C901     		.2byte	0x1c9
 11636 3bc1 00       		.byte	0
 11637 3bc2 21       		.uleb128 0x21
 11638 3bc3 F6030000 		.4byte	.LVL424
 11639 3bc7 02400000 		.4byte	0x4002
 11640 3bcb D53B0000 		.4byte	0x3bd5
 11641 3bcf 20       		.uleb128 0x20
 11642 3bd0 01       		.uleb128 0x1
 11643 3bd1 50       		.byte	0x50
 11644 3bd2 01       		.uleb128 0x1
 11645 3bd3 31       		.byte	0x31
 11646 3bd4 00       		.byte	0
 11647 3bd5 21       		.uleb128 0x21
 11648 3bd6 08040000 		.4byte	.LVL427
 11649 3bda E73F0000 		.4byte	0x3fe7
 11650 3bde F93B0000 		.4byte	0x3bf9
 11651 3be2 20       		.uleb128 0x20
 11652 3be3 01       		.uleb128 0x1
 11653 3be4 52       		.byte	0x52
 11654 3be5 02       		.uleb128 0x2
 11655 3be6 7A       		.byte	0x7a
 11656 3be7 00       		.sleb128 0
 11657 3be8 20       		.uleb128 0x20
 11658 3be9 01       		.uleb128 0x1
 11659 3bea 51       		.byte	0x51
 11660 3beb 05       		.uleb128 0x5
 11661 3bec 03       		.byte	0x3
 11662 3bed 92000000 		.4byte	.LC10
 11663 3bf1 20       		.uleb128 0x20
 11664 3bf2 01       		.uleb128 0x1
 11665 3bf3 50       		.byte	0x50
 11666 3bf4 03       		.uleb128 0x3
 11667 3bf5 91       		.byte	0x91
 11668 3bf6 D87B     		.sleb128 -552
 11669 3bf8 00       		.byte	0
 11670 3bf9 21       		.uleb128 0x21
 11671 3bfa 52040000 		.4byte	.LVL437
 11672 3bfe 301A0000 		.4byte	0x1a30
 11673 3c02 0C3C0000 		.4byte	0x3c0c
 11674 3c06 20       		.uleb128 0x20
 11675 3c07 01       		.uleb128 0x1
 11676 3c08 50       		.byte	0x50
 11677 3c09 01       		.uleb128 0x1
ARM GAS  C:\Users\AHMED~1.ELE\AppData\Local\Temp\cc594ylT.s 			page 227


 11678 3c0a 31       		.byte	0x31
 11679 3c0b 00       		.byte	0
 11680 3c0c 21       		.uleb128 0x21
 11681 3c0d 64040000 		.4byte	.LVL438
 11682 3c11 BE3F0000 		.4byte	0x3fbe
 11683 3c15 383C0000 		.4byte	0x3c38
 11684 3c19 20       		.uleb128 0x20
 11685 3c1a 01       		.uleb128 0x1
 11686 3c1b 53       		.byte	0x53
 11687 3c1c 02       		.uleb128 0x2
 11688 3c1d 7A       		.byte	0x7a
 11689 3c1e 00       		.sleb128 0
 11690 3c1f 20       		.uleb128 0x20
 11691 3c20 01       		.uleb128 0x1
 11692 3c21 52       		.byte	0x52
 11693 3c22 03       		.uleb128 0x3
 11694 3c23 0A       		.byte	0xa
 11695 3c24 2823     		.2byte	0x2328
 11696 3c26 20       		.uleb128 0x20
 11697 3c27 01       		.uleb128 0x1
 11698 3c28 51       		.byte	0x51
 11699 3c29 01       		.uleb128 0x1
 11700 3c2a 33       		.byte	0x33
 11701 3c2b 20       		.uleb128 0x20
 11702 3c2c 01       		.uleb128 0x1
 11703 3c2d 50       		.byte	0x50
 11704 3c2e 01       		.uleb128 0x1
 11705 3c2f 40       		.byte	0x40
 11706 3c30 20       		.uleb128 0x20
 11707 3c31 02       		.uleb128 0x2
 11708 3c32 7D       		.byte	0x7d
 11709 3c33 00       		.sleb128 0
 11710 3c34 02       		.uleb128 0x2
 11711 3c35 7A       		.byte	0x7a
 11712 3c36 00       		.sleb128 0
 11713 3c37 00       		.byte	0
 11714 3c38 21       		.uleb128 0x21
 11715 3c39 78040000 		.4byte	.LVL441
 11716 3c3d BE3F0000 		.4byte	0x3fbe
 11717 3c41 653C0000 		.4byte	0x3c65
 11718 3c45 20       		.uleb128 0x20
 11719 3c46 01       		.uleb128 0x1
 11720 3c47 53       		.byte	0x53
 11721 3c48 02       		.uleb128 0x2
 11722 3c49 7A       		.byte	0x7a
 11723 3c4a 00       		.sleb128 0
 11724 3c4b 20       		.uleb128 0x20
 11725 3c4c 01       		.uleb128 0x1
 11726 3c4d 52       		.byte	0x52
 11727 3c4e 03       		.uleb128 0x3
 11728 3c4f 0A       		.byte	0xa
 11729 3c50 0007     		.2byte	0x700
 11730 3c52 20       		.uleb128 0x20
 11731 3c53 01       		.uleb128 0x1
 11732 3c54 51       		.byte	0x51
 11733 3c55 02       		.uleb128 0x2
 11734 3c56 08       		.byte	0x8
ARM GAS  C:\Users\AHMED~1.ELE\AppData\Local\Temp\cc594ylT.s 			page 228


 11735 3c57 23       		.byte	0x23
 11736 3c58 20       		.uleb128 0x20
 11737 3c59 01       		.uleb128 0x1
 11738 3c5a 50       		.byte	0x50
 11739 3c5b 01       		.uleb128 0x1
 11740 3c5c 3F       		.byte	0x3f
 11741 3c5d 20       		.uleb128 0x20
 11742 3c5e 02       		.uleb128 0x2
 11743 3c5f 7D       		.byte	0x7d
 11744 3c60 00       		.sleb128 0
 11745 3c61 02       		.uleb128 0x2
 11746 3c62 7A       		.byte	0x7a
 11747 3c63 00       		.sleb128 0
 11748 3c64 00       		.byte	0
 11749 3c65 21       		.uleb128 0x21
 11750 3c66 86040000 		.4byte	.LVL444
 11751 3c6a BE3F0000 		.4byte	0x3fbe
 11752 3c6e 7D3C0000 		.4byte	0x3c7d
 11753 3c72 20       		.uleb128 0x20
 11754 3c73 01       		.uleb128 0x1
 11755 3c74 51       		.byte	0x51
 11756 3c75 01       		.uleb128 0x1
 11757 3c76 46       		.byte	0x46
 11758 3c77 20       		.uleb128 0x20
 11759 3c78 01       		.uleb128 0x1
 11760 3c79 50       		.byte	0x50
 11761 3c7a 01       		.uleb128 0x1
 11762 3c7b 3F       		.byte	0x3f
 11763 3c7c 00       		.byte	0
 11764 3c7d 21       		.uleb128 0x21
 11765 3c7e 92040000 		.4byte	.LVL446
 11766 3c82 5D3F0000 		.4byte	0x3f5d
 11767 3c86 923C0000 		.4byte	0x3c92
 11768 3c8a 20       		.uleb128 0x20
 11769 3c8b 01       		.uleb128 0x1
 11770 3c8c 50       		.byte	0x50
 11771 3c8d 03       		.uleb128 0x3
 11772 3c8e 0A       		.byte	0xa
 11773 3c8f 9C01     		.2byte	0x19c
 11774 3c91 00       		.byte	0
 11775 3c92 21       		.uleb128 0x21
 11776 3c93 9A040000 		.4byte	.LVL447
 11777 3c97 5D3F0000 		.4byte	0x3f5d
 11778 3c9b A73C0000 		.4byte	0x3ca7
 11779 3c9f 20       		.uleb128 0x20
 11780 3ca0 01       		.uleb128 0x1
 11781 3ca1 50       		.byte	0x50
 11782 3ca2 03       		.uleb128 0x3
 11783 3ca3 0A       		.byte	0xa
 11784 3ca4 CA01     		.2byte	0x1ca
 11785 3ca6 00       		.byte	0
 11786 3ca7 21       		.uleb128 0x21
 11787 3ca8 B6040000 		.4byte	.LVL449
 11788 3cac BE3F0000 		.4byte	0x3fbe
 11789 3cb0 D43C0000 		.4byte	0x3cd4
 11790 3cb4 20       		.uleb128 0x20
 11791 3cb5 01       		.uleb128 0x1
ARM GAS  C:\Users\AHMED~1.ELE\AppData\Local\Temp\cc594ylT.s 			page 229


 11792 3cb6 53       		.byte	0x53
 11793 3cb7 02       		.uleb128 0x2
 11794 3cb8 7A       		.byte	0x7a
 11795 3cb9 00       		.sleb128 0
 11796 3cba 20       		.uleb128 0x20
 11797 3cbb 01       		.uleb128 0x1
 11798 3cbc 52       		.byte	0x52
 11799 3cbd 03       		.uleb128 0x3
 11800 3cbe 0A       		.byte	0xa
 11801 3cbf 0008     		.2byte	0x800
 11802 3cc1 20       		.uleb128 0x20
 11803 3cc2 01       		.uleb128 0x1
 11804 3cc3 51       		.byte	0x51
 11805 3cc4 02       		.uleb128 0x2
 11806 3cc5 08       		.byte	0x8
 11807 3cc6 23       		.byte	0x23
 11808 3cc7 20       		.uleb128 0x20
 11809 3cc8 01       		.uleb128 0x1
 11810 3cc9 50       		.byte	0x50
 11811 3cca 01       		.uleb128 0x1
 11812 3ccb 3F       		.byte	0x3f
 11813 3ccc 20       		.uleb128 0x20
 11814 3ccd 02       		.uleb128 0x2
 11815 3cce 7D       		.byte	0x7d
 11816 3ccf 00       		.sleb128 0
 11817 3cd0 02       		.uleb128 0x2
 11818 3cd1 7A       		.byte	0x7a
 11819 3cd2 00       		.sleb128 0
 11820 3cd3 00       		.byte	0
 11821 3cd4 21       		.uleb128 0x21
 11822 3cd5 E6040000 		.4byte	.LVL451
 11823 3cd9 13400000 		.4byte	0x4013
 11824 3cdd F63C0000 		.4byte	0x3cf6
 11825 3ce1 20       		.uleb128 0x20
 11826 3ce2 01       		.uleb128 0x1
 11827 3ce3 52       		.byte	0x52
 11828 3ce4 04       		.uleb128 0x4
 11829 3ce5 91       		.byte	0x91
 11830 3ce6 A87B     		.sleb128 -600
 11831 3ce8 06       		.byte	0x6
 11832 3ce9 20       		.uleb128 0x20
 11833 3cea 01       		.uleb128 0x1
 11834 3ceb 51       		.byte	0x51
 11835 3cec 02       		.uleb128 0x2
 11836 3ced 7A       		.byte	0x7a
 11837 3cee 00       		.sleb128 0
 11838 3cef 20       		.uleb128 0x20
 11839 3cf0 01       		.uleb128 0x1
 11840 3cf1 50       		.byte	0x50
 11841 3cf2 02       		.uleb128 0x2
 11842 3cf3 78       		.byte	0x78
 11843 3cf4 00       		.sleb128 0
 11844 3cf5 00       		.byte	0
 11845 3cf6 21       		.uleb128 0x21
 11846 3cf7 F0040000 		.4byte	.LVL452
 11847 3cfb 13400000 		.4byte	0x4013
 11848 3cff 183D0000 		.4byte	0x3d18
ARM GAS  C:\Users\AHMED~1.ELE\AppData\Local\Temp\cc594ylT.s 			page 230


 11849 3d03 20       		.uleb128 0x20
 11850 3d04 01       		.uleb128 0x1
 11851 3d05 52       		.byte	0x52
 11852 3d06 02       		.uleb128 0x2
 11853 3d07 7B       		.byte	0x7b
 11854 3d08 00       		.sleb128 0
 11855 3d09 20       		.uleb128 0x20
 11856 3d0a 01       		.uleb128 0x1
 11857 3d0b 51       		.byte	0x51
 11858 3d0c 02       		.uleb128 0x2
 11859 3d0d 7A       		.byte	0x7a
 11860 3d0e 00       		.sleb128 0
 11861 3d0f 20       		.uleb128 0x20
 11862 3d10 01       		.uleb128 0x1
 11863 3d11 50       		.byte	0x50
 11864 3d12 04       		.uleb128 0x4
 11865 3d13 91       		.byte	0x91
 11866 3d14 A47B     		.sleb128 -604
 11867 3d16 06       		.byte	0x6
 11868 3d17 00       		.byte	0
 11869 3d18 21       		.uleb128 0x21
 11870 3d19 20050000 		.4byte	.LVL453
 11871 3d1d BE3F0000 		.4byte	0x3fbe
 11872 3d21 443D0000 		.4byte	0x3d44
 11873 3d25 20       		.uleb128 0x20
 11874 3d26 01       		.uleb128 0x1
 11875 3d27 53       		.byte	0x53
 11876 3d28 02       		.uleb128 0x2
 11877 3d29 74       		.byte	0x74
 11878 3d2a 00       		.sleb128 0
 11879 3d2b 20       		.uleb128 0x20
 11880 3d2c 01       		.uleb128 0x1
 11881 3d2d 52       		.byte	0x52
 11882 3d2e 02       		.uleb128 0x2
 11883 3d2f 75       		.byte	0x75
 11884 3d30 00       		.sleb128 0
 11885 3d31 20       		.uleb128 0x20
 11886 3d32 01       		.uleb128 0x1
 11887 3d33 51       		.byte	0x51
 11888 3d34 02       		.uleb128 0x2
 11889 3d35 7A       		.byte	0x7a
 11890 3d36 00       		.sleb128 0
 11891 3d37 20       		.uleb128 0x20
 11892 3d38 01       		.uleb128 0x1
 11893 3d39 50       		.byte	0x50
 11894 3d3a 01       		.uleb128 0x1
 11895 3d3b 3D       		.byte	0x3d
 11896 3d3c 20       		.uleb128 0x20
 11897 3d3d 02       		.uleb128 0x2
 11898 3d3e 7D       		.byte	0x7d
 11899 3d3f 00       		.sleb128 0
 11900 3d40 02       		.uleb128 0x2
 11901 3d41 7A       		.byte	0x7a
 11902 3d42 00       		.sleb128 0
 11903 3d43 00       		.byte	0
 11904 3d44 21       		.uleb128 0x21
 11905 3d45 30050000 		.4byte	.LVL455
ARM GAS  C:\Users\AHMED~1.ELE\AppData\Local\Temp\cc594ylT.s 			page 231


 11906 3d49 E73F0000 		.4byte	0x3fe7
 11907 3d4d 683D0000 		.4byte	0x3d68
 11908 3d51 20       		.uleb128 0x20
 11909 3d52 01       		.uleb128 0x1
 11910 3d53 52       		.byte	0x52
 11911 3d54 02       		.uleb128 0x2
 11912 3d55 78       		.byte	0x78
 11913 3d56 00       		.sleb128 0
 11914 3d57 20       		.uleb128 0x20
 11915 3d58 01       		.uleb128 0x1
 11916 3d59 51       		.byte	0x51
 11917 3d5a 05       		.uleb128 0x5
 11918 3d5b 03       		.byte	0x3
 11919 3d5c 9F000000 		.4byte	.LC11
 11920 3d60 20       		.uleb128 0x20
 11921 3d61 01       		.uleb128 0x1
 11922 3d62 50       		.byte	0x50
 11923 3d63 03       		.uleb128 0x3
 11924 3d64 91       		.byte	0x91
 11925 3d65 D87B     		.sleb128 -552
 11926 3d67 00       		.byte	0
 11927 3d68 21       		.uleb128 0x21
 11928 3d69 86050000 		.4byte	.LVL464
 11929 3d6d BE3F0000 		.4byte	0x3fbe
 11930 3d71 933D0000 		.4byte	0x3d93
 11931 3d75 20       		.uleb128 0x20
 11932 3d76 01       		.uleb128 0x1
 11933 3d77 53       		.byte	0x53
 11934 3d78 02       		.uleb128 0x2
 11935 3d79 74       		.byte	0x74
 11936 3d7a 00       		.sleb128 0
 11937 3d7b 20       		.uleb128 0x20
 11938 3d7c 01       		.uleb128 0x1
 11939 3d7d 52       		.byte	0x52
 11940 3d7e 02       		.uleb128 0x2
 11941 3d7f 75       		.byte	0x75
 11942 3d80 00       		.sleb128 0
 11943 3d81 20       		.uleb128 0x20
 11944 3d82 01       		.uleb128 0x1
 11945 3d83 51       		.byte	0x51
 11946 3d84 01       		.uleb128 0x1
 11947 3d85 33       		.byte	0x33
 11948 3d86 20       		.uleb128 0x20
 11949 3d87 01       		.uleb128 0x1
 11950 3d88 50       		.byte	0x50
 11951 3d89 01       		.uleb128 0x1
 11952 3d8a 3D       		.byte	0x3d
 11953 3d8b 20       		.uleb128 0x20
 11954 3d8c 02       		.uleb128 0x2
 11955 3d8d 7D       		.byte	0x7d
 11956 3d8e 00       		.sleb128 0
 11957 3d8f 02       		.uleb128 0x2
 11958 3d90 7A       		.byte	0x7a
 11959 3d91 00       		.sleb128 0
 11960 3d92 00       		.byte	0
 11961 3d93 21       		.uleb128 0x21
 11962 3d94 98050000 		.4byte	.LVL466
ARM GAS  C:\Users\AHMED~1.ELE\AppData\Local\Temp\cc594ylT.s 			page 232


 11963 3d98 E73F0000 		.4byte	0x3fe7
 11964 3d9c B73D0000 		.4byte	0x3db7
 11965 3da0 20       		.uleb128 0x20
 11966 3da1 01       		.uleb128 0x1
 11967 3da2 52       		.byte	0x52
 11968 3da3 02       		.uleb128 0x2
 11969 3da4 78       		.byte	0x78
 11970 3da5 00       		.sleb128 0
 11971 3da6 20       		.uleb128 0x20
 11972 3da7 01       		.uleb128 0x1
 11973 3da8 51       		.byte	0x51
 11974 3da9 05       		.uleb128 0x5
 11975 3daa 03       		.byte	0x3
 11976 3dab 9F000000 		.4byte	.LC11
 11977 3daf 20       		.uleb128 0x20
 11978 3db0 01       		.uleb128 0x1
 11979 3db1 50       		.byte	0x50
 11980 3db2 03       		.uleb128 0x3
 11981 3db3 91       		.byte	0x91
 11982 3db4 D87B     		.sleb128 -552
 11983 3db6 00       		.byte	0
 11984 3db7 3C       		.uleb128 0x3c
 11985 3db8 F0050000 		.4byte	.LVL474
 11986 3dbc 37400000 		.4byte	0x4037
 11987 3dc0 21       		.uleb128 0x21
 11988 3dc1 F6050000 		.4byte	.LVL475
 11989 3dc5 301A0000 		.4byte	0x1a30
 11990 3dc9 D33D0000 		.4byte	0x3dd3
 11991 3dcd 20       		.uleb128 0x20
 11992 3dce 01       		.uleb128 0x1
 11993 3dcf 50       		.byte	0x50
 11994 3dd0 01       		.uleb128 0x1
 11995 3dd1 31       		.byte	0x31
 11996 3dd2 00       		.byte	0
 11997 3dd3 21       		.uleb128 0x21
 11998 3dd4 38060000 		.4byte	.LVL477
 11999 3dd8 5D3F0000 		.4byte	0x3f5d
 12000 3ddc E83D0000 		.4byte	0x3de8
 12001 3de0 20       		.uleb128 0x20
 12002 3de1 01       		.uleb128 0x1
 12003 3de2 50       		.byte	0x50
 12004 3de3 03       		.uleb128 0x3
 12005 3de4 0A       		.byte	0xa
 12006 3de5 9F01     		.2byte	0x19f
 12007 3de7 00       		.byte	0
 12008 3de8 21       		.uleb128 0x21
 12009 3de9 42060000 		.4byte	.LVL479
 12010 3ded 5D3F0000 		.4byte	0x3f5d
 12011 3df1 FD3D0000 		.4byte	0x3dfd
 12012 3df5 20       		.uleb128 0x20
 12013 3df6 01       		.uleb128 0x1
 12014 3df7 50       		.byte	0x50
 12015 3df8 03       		.uleb128 0x3
 12016 3df9 0A       		.byte	0xa
 12017 3dfa 9F01     		.2byte	0x19f
 12018 3dfc 00       		.byte	0
 12019 3dfd 21       		.uleb128 0x21
ARM GAS  C:\Users\AHMED~1.ELE\AppData\Local\Temp\cc594ylT.s 			page 233


 12020 3dfe 58060000 		.4byte	.LVL480
 12021 3e02 BE3F0000 		.4byte	0x3fbe
 12022 3e06 253E0000 		.4byte	0x3e25
 12023 3e0a 20       		.uleb128 0x20
 12024 3e0b 01       		.uleb128 0x1
 12025 3e0c 53       		.byte	0x53
 12026 3e0d 01       		.uleb128 0x1
 12027 3e0e 30       		.byte	0x30
 12028 3e0f 20       		.uleb128 0x20
 12029 3e10 01       		.uleb128 0x1
 12030 3e11 52       		.byte	0x52
 12031 3e12 01       		.uleb128 0x1
 12032 3e13 30       		.byte	0x30
 12033 3e14 20       		.uleb128 0x20
 12034 3e15 01       		.uleb128 0x1
 12035 3e16 51       		.byte	0x51
 12036 3e17 01       		.uleb128 0x1
 12037 3e18 46       		.byte	0x46
 12038 3e19 20       		.uleb128 0x20
 12039 3e1a 01       		.uleb128 0x1
 12040 3e1b 50       		.byte	0x50
 12041 3e1c 01       		.uleb128 0x1
 12042 3e1d 3F       		.byte	0x3f
 12043 3e1e 20       		.uleb128 0x20
 12044 3e1f 02       		.uleb128 0x2
 12045 3e20 7D       		.byte	0x7d
 12046 3e21 00       		.sleb128 0
 12047 3e22 01       		.uleb128 0x1
 12048 3e23 30       		.byte	0x30
 12049 3e24 00       		.byte	0
 12050 3e25 21       		.uleb128 0x21
 12051 3e26 64060000 		.4byte	.LVL482
 12052 3e2a 5D3F0000 		.4byte	0x3f5d
 12053 3e2e 3A3E0000 		.4byte	0x3e3a
 12054 3e32 20       		.uleb128 0x20
 12055 3e33 01       		.uleb128 0x1
 12056 3e34 50       		.byte	0x50
 12057 3e35 03       		.uleb128 0x3
 12058 3e36 0A       		.byte	0xa
 12059 3e37 9C01     		.2byte	0x19c
 12060 3e39 00       		.byte	0
 12061 3e3a 21       		.uleb128 0x21
 12062 3e3b 78060000 		.4byte	.LVL485
 12063 3e3f 873F0000 		.4byte	0x3f87
 12064 3e43 543E0000 		.4byte	0x3e54
 12065 3e47 20       		.uleb128 0x20
 12066 3e48 01       		.uleb128 0x1
 12067 3e49 51       		.byte	0x51
 12068 3e4a 02       		.uleb128 0x2
 12069 3e4b 74       		.byte	0x74
 12070 3e4c 00       		.sleb128 0
 12071 3e4d 20       		.uleb128 0x20
 12072 3e4e 01       		.uleb128 0x1
 12073 3e4f 50       		.byte	0x50
 12074 3e50 02       		.uleb128 0x2
 12075 3e51 08       		.byte	0x8
 12076 3e52 94       		.byte	0x94
ARM GAS  C:\Users\AHMED~1.ELE\AppData\Local\Temp\cc594ylT.s 			page 234


 12077 3e53 00       		.byte	0
 12078 3e54 21       		.uleb128 0x21
 12079 3e55 82060000 		.4byte	.LVL486
 12080 3e59 873F0000 		.4byte	0x3f87
 12081 3e5d 6E3E0000 		.4byte	0x3e6e
 12082 3e61 20       		.uleb128 0x20
 12083 3e62 01       		.uleb128 0x1
 12084 3e63 51       		.byte	0x51
 12085 3e64 02       		.uleb128 0x2
 12086 3e65 75       		.byte	0x75
 12087 3e66 00       		.sleb128 0
 12088 3e67 20       		.uleb128 0x20
 12089 3e68 01       		.uleb128 0x1
 12090 3e69 50       		.byte	0x50
 12091 3e6a 02       		.uleb128 0x2
 12092 3e6b 08       		.byte	0x8
 12093 3e6c 94       		.byte	0x94
 12094 3e6d 00       		.byte	0
 12095 3e6e 21       		.uleb128 0x21
 12096 3e6f 90060000 		.4byte	.LVL487
 12097 3e73 873F0000 		.4byte	0x3f87
 12098 3e77 883E0000 		.4byte	0x3e88
 12099 3e7b 20       		.uleb128 0x20
 12100 3e7c 01       		.uleb128 0x1
 12101 3e7d 51       		.byte	0x51
 12102 3e7e 02       		.uleb128 0x2
 12103 3e7f 78       		.byte	0x78
 12104 3e80 00       		.sleb128 0
 12105 3e81 20       		.uleb128 0x20
 12106 3e82 01       		.uleb128 0x1
 12107 3e83 50       		.byte	0x50
 12108 3e84 02       		.uleb128 0x2
 12109 3e85 08       		.byte	0x8
 12110 3e86 94       		.byte	0x94
 12111 3e87 00       		.byte	0
 12112 3e88 21       		.uleb128 0x21
 12113 3e89 9C060000 		.4byte	.LVL488
 12114 3e8d 873F0000 		.4byte	0x3f87
 12115 3e91 A43E0000 		.4byte	0x3ea4
 12116 3e95 20       		.uleb128 0x20
 12117 3e96 01       		.uleb128 0x1
 12118 3e97 51       		.byte	0x51
 12119 3e98 04       		.uleb128 0x4
 12120 3e99 91       		.byte	0x91
 12121 3e9a A47B     		.sleb128 -604
 12122 3e9c 06       		.byte	0x6
 12123 3e9d 20       		.uleb128 0x20
 12124 3e9e 01       		.uleb128 0x1
 12125 3e9f 50       		.byte	0x50
 12126 3ea0 02       		.uleb128 0x2
 12127 3ea1 08       		.byte	0x8
 12128 3ea2 94       		.byte	0x94
 12129 3ea3 00       		.byte	0
 12130 3ea4 21       		.uleb128 0x21
 12131 3ea5 A8060000 		.4byte	.LVL489
 12132 3ea9 873F0000 		.4byte	0x3f87
 12133 3ead C03E0000 		.4byte	0x3ec0
ARM GAS  C:\Users\AHMED~1.ELE\AppData\Local\Temp\cc594ylT.s 			page 235


 12134 3eb1 20       		.uleb128 0x20
 12135 3eb2 01       		.uleb128 0x1
 12136 3eb3 51       		.byte	0x51
 12137 3eb4 04       		.uleb128 0x4
 12138 3eb5 91       		.byte	0x91
 12139 3eb6 A07B     		.sleb128 -608
 12140 3eb8 06       		.byte	0x6
 12141 3eb9 20       		.uleb128 0x20
 12142 3eba 01       		.uleb128 0x1
 12143 3ebb 50       		.byte	0x50
 12144 3ebc 02       		.uleb128 0x2
 12145 3ebd 08       		.byte	0x8
 12146 3ebe 94       		.byte	0x94
 12147 3ebf 00       		.byte	0
 12148 3ec0 3C       		.uleb128 0x3c
 12149 3ec1 AC060000 		.4byte	.LVL490
 12150 3ec5 A7130000 		.4byte	0x13a7
 12151 3ec9 21       		.uleb128 0x21
 12152 3eca B2060000 		.4byte	.LVL491
 12153 3ece 301A0000 		.4byte	0x1a30
 12154 3ed2 DC3E0000 		.4byte	0x3edc
 12155 3ed6 20       		.uleb128 0x20
 12156 3ed7 01       		.uleb128 0x1
 12157 3ed8 50       		.byte	0x50
 12158 3ed9 01       		.uleb128 0x1
 12159 3eda 30       		.byte	0x30
 12160 3edb 00       		.byte	0
 12161 3edc 21       		.uleb128 0x21
 12162 3edd DA060000 		.4byte	.LVL495
 12163 3ee1 BE3F0000 		.4byte	0x3fbe
 12164 3ee5 073F0000 		.4byte	0x3f07
 12165 3ee9 20       		.uleb128 0x20
 12166 3eea 01       		.uleb128 0x1
 12167 3eeb 53       		.byte	0x53
 12168 3eec 02       		.uleb128 0x2
 12169 3eed 74       		.byte	0x74
 12170 3eee 00       		.sleb128 0
 12171 3eef 20       		.uleb128 0x20
 12172 3ef0 01       		.uleb128 0x1
 12173 3ef1 52       		.byte	0x52
 12174 3ef2 02       		.uleb128 0x2
 12175 3ef3 75       		.byte	0x75
 12176 3ef4 00       		.sleb128 0
 12177 3ef5 20       		.uleb128 0x20
 12178 3ef6 01       		.uleb128 0x1
 12179 3ef7 51       		.byte	0x51
 12180 3ef8 01       		.uleb128 0x1
 12181 3ef9 31       		.byte	0x31
 12182 3efa 20       		.uleb128 0x20
 12183 3efb 01       		.uleb128 0x1
 12184 3efc 50       		.byte	0x50
 12185 3efd 01       		.uleb128 0x1
 12186 3efe 3D       		.byte	0x3d
 12187 3eff 20       		.uleb128 0x20
 12188 3f00 02       		.uleb128 0x2
 12189 3f01 7D       		.byte	0x7d
 12190 3f02 00       		.sleb128 0
ARM GAS  C:\Users\AHMED~1.ELE\AppData\Local\Temp\cc594ylT.s 			page 236


 12191 3f03 02       		.uleb128 0x2
 12192 3f04 7A       		.byte	0x7a
 12193 3f05 00       		.sleb128 0
 12194 3f06 00       		.byte	0
 12195 3f07 1F       		.uleb128 0x1f
 12196 3f08 EC060000 		.4byte	.LVL497
 12197 3f0c E73F0000 		.4byte	0x3fe7
 12198 3f10 20       		.uleb128 0x20
 12199 3f11 01       		.uleb128 0x1
 12200 3f12 52       		.byte	0x52
 12201 3f13 02       		.uleb128 0x2
 12202 3f14 78       		.byte	0x78
 12203 3f15 00       		.sleb128 0
 12204 3f16 20       		.uleb128 0x20
 12205 3f17 01       		.uleb128 0x1
 12206 3f18 51       		.byte	0x51
 12207 3f19 05       		.uleb128 0x5
 12208 3f1a 03       		.byte	0x3
 12209 3f1b 9F000000 		.4byte	.LC11
 12210 3f1f 20       		.uleb128 0x20
 12211 3f20 01       		.uleb128 0x1
 12212 3f21 50       		.byte	0x50
 12213 3f22 03       		.uleb128 0x3
 12214 3f23 91       		.byte	0x91
 12215 3f24 D87B     		.sleb128 -552
 12216 3f26 00       		.byte	0
 12217 3f27 00       		.byte	0
 12218 3f28 24       		.uleb128 0x24
 12219 3f29 B6060000 		.4byte	.LASF701
 12220 3f2d 01       		.byte	0x1
 12221 3f2e 49       		.byte	0x49
 12222 3f2f 97000000 		.4byte	0x97
 12223 3f33 05       		.uleb128 0x5
 12224 3f34 03       		.byte	0x3
 12225 3f35 00000000 		.4byte	gSensorOpened
 12226 3f39 3E       		.uleb128 0x3e
 12227 3f3a 0F1B0000 		.4byte	.LASF702
 12228 3f3e 04       		.byte	0x4
 12229 3f3f A4       		.byte	0xa4
 12230 3f40 B8000000 		.4byte	0xb8
 12231 3f44 5D3F0000 		.4byte	0x3f5d
 12232 3f48 3F       		.uleb128 0x3f
 12233 3f49 B8000000 		.4byte	0xb8
 12234 3f4d 3F       		.uleb128 0x3f
 12235 3f4e B8000000 		.4byte	0xb8
 12236 3f52 3F       		.uleb128 0x3f
 12237 3f53 B8000000 		.4byte	0xb8
 12238 3f57 3F       		.uleb128 0x3f
 12239 3f58 B8000000 		.4byte	0xb8
 12240 3f5c 00       		.byte	0
 12241 3f5d 3E       		.uleb128 0x3e
 12242 3f5e FB1A0000 		.4byte	.LASF703
 12243 3f62 04       		.byte	0x4
 12244 3f63 A1       		.byte	0xa1
 12245 3f64 B8000000 		.4byte	0xb8
 12246 3f68 723F0000 		.4byte	0x3f72
 12247 3f6c 3F       		.uleb128 0x3f
ARM GAS  C:\Users\AHMED~1.ELE\AppData\Local\Temp\cc594ylT.s 			page 237


 12248 3f6d B8000000 		.4byte	0xb8
 12249 3f71 00       		.byte	0
 12250 3f72 3E       		.uleb128 0x3e
 12251 3f73 74290000 		.4byte	.LASF704
 12252 3f77 08       		.byte	0x8
 12253 3f78 21       		.byte	0x21
 12254 3f79 6B000000 		.4byte	0x6b
 12255 3f7d 873F0000 		.4byte	0x3f87
 12256 3f81 3F       		.uleb128 0x3f
 12257 3f82 8C000000 		.4byte	0x8c
 12258 3f86 00       		.byte	0
 12259 3f87 3E       		.uleb128 0x3e
 12260 3f88 051B0000 		.4byte	.LASF705
 12261 3f8c 04       		.byte	0x4
 12262 3f8d A2       		.byte	0xa2
 12263 3f8e B8000000 		.4byte	0xb8
 12264 3f92 A13F0000 		.4byte	0x3fa1
 12265 3f96 3F       		.uleb128 0x3f
 12266 3f97 B8000000 		.4byte	0xb8
 12267 3f9b 3F       		.uleb128 0x3f
 12268 3f9c B8000000 		.4byte	0xb8
 12269 3fa0 00       		.byte	0
 12270 3fa1 40       		.uleb128 0x40
 12271 3fa2 E3290000 		.4byte	.LASF708
 12272 3fa6 76000000 		.4byte	0x76
 12273 3faa BE3F0000 		.4byte	0x3fbe
 12274 3fae 3F       		.uleb128 0x3f
 12275 3faf 76000000 		.4byte	0x76
 12276 3fb3 3F       		.uleb128 0x3f
 12277 3fb4 190E0000 		.4byte	0xe19
 12278 3fb8 3F       		.uleb128 0x3f
 12279 3fb9 78000000 		.4byte	0x78
 12280 3fbd 00       		.byte	0
 12281 3fbe 3E       		.uleb128 0x3e
 12282 3fbf 460B0000 		.4byte	.LASF706
 12283 3fc3 04       		.byte	0x4
 12284 3fc4 A0       		.byte	0xa0
 12285 3fc5 B8000000 		.4byte	0xb8
 12286 3fc9 E73F0000 		.4byte	0x3fe7
 12287 3fcd 3F       		.uleb128 0x3f
 12288 3fce B8000000 		.4byte	0xb8
 12289 3fd2 3F       		.uleb128 0x3f
 12290 3fd3 B8000000 		.4byte	0xb8
 12291 3fd7 3F       		.uleb128 0x3f
 12292 3fd8 B8000000 		.4byte	0xb8
 12293 3fdc 3F       		.uleb128 0x3f
 12294 3fdd B8000000 		.4byte	0xb8
 12295 3fe1 3F       		.uleb128 0x3f
 12296 3fe2 B8000000 		.4byte	0xb8
 12297 3fe6 00       		.byte	0
 12298 3fe7 3E       		.uleb128 0x3e
 12299 3fe8 5A160000 		.4byte	.LASF707
 12300 3fec 09       		.byte	0x9
 12301 3fed DD       		.byte	0xdd
 12302 3fee 5D000000 		.4byte	0x5d
 12303 3ff2 02400000 		.4byte	0x4002
 12304 3ff6 3F       		.uleb128 0x3f
ARM GAS  C:\Users\AHMED~1.ELE\AppData\Local\Temp\cc594ylT.s 			page 238


 12305 3ff7 7F000000 		.4byte	0x7f
 12306 3ffb 3F       		.uleb128 0x3f
 12307 3ffc 8C000000 		.4byte	0x8c
 12308 4000 41       		.uleb128 0x41
 12309 4001 00       		.byte	0
 12310 4002 42       		.uleb128 0x42
 12311 4003 970B0000 		.4byte	.LASF709
 12312 4007 0A       		.byte	0xa
 12313 4008 35       		.byte	0x35
 12314 4009 13400000 		.4byte	0x4013
 12315 400d 3F       		.uleb128 0x3f
 12316 400e B8000000 		.4byte	0xb8
 12317 4012 00       		.byte	0
 12318 4013 40       		.uleb128 0x40
 12319 4014 C1230000 		.4byte	.LASF710
 12320 4018 76000000 		.4byte	0x76
 12321 401c 30400000 		.4byte	0x4030
 12322 4020 3F       		.uleb128 0x3f
 12323 4021 76000000 		.4byte	0x76
 12324 4025 3F       		.uleb128 0x3f
 12325 4026 5D000000 		.4byte	0x5d
 12326 402a 3F       		.uleb128 0x3f
 12327 402b 78000000 		.4byte	0x78
 12328 402f 00       		.byte	0
 12329 4030 43       		.uleb128 0x43
 12330 4031 311B0000 		.4byte	.LASF711
 12331 4035 0A       		.byte	0xa
 12332 4036 2F       		.byte	0x2f
 12333 4037 43       		.uleb128 0x43
 12334 4038 DD0A0000 		.4byte	.LASF712
 12335 403c 0A       		.byte	0xa
 12336 403d 31       		.byte	0x31
 12337 403e 00       		.byte	0
 12338              		.section	.debug_abbrev,"",%progbits
 12339              	.Ldebug_abbrev0:
 12340 0000 01       		.uleb128 0x1
 12341 0001 11       		.uleb128 0x11
 12342 0002 01       		.byte	0x1
 12343 0003 25       		.uleb128 0x25
 12344 0004 0E       		.uleb128 0xe
 12345 0005 13       		.uleb128 0x13
 12346 0006 0B       		.uleb128 0xb
 12347 0007 03       		.uleb128 0x3
 12348 0008 0E       		.uleb128 0xe
 12349 0009 1B       		.uleb128 0x1b
 12350 000a 0E       		.uleb128 0xe
 12351 000b 55       		.uleb128 0x55
 12352 000c 17       		.uleb128 0x17
 12353 000d 11       		.uleb128 0x11
 12354 000e 01       		.uleb128 0x1
 12355 000f 10       		.uleb128 0x10
 12356 0010 17       		.uleb128 0x17
 12357 0011 00       		.byte	0
 12358 0012 00       		.byte	0
 12359 0013 02       		.uleb128 0x2
 12360 0014 24       		.uleb128 0x24
 12361 0015 00       		.byte	0
ARM GAS  C:\Users\AHMED~1.ELE\AppData\Local\Temp\cc594ylT.s 			page 239


 12362 0016 0B       		.uleb128 0xb
 12363 0017 0B       		.uleb128 0xb
 12364 0018 3E       		.uleb128 0x3e
 12365 0019 0B       		.uleb128 0xb
 12366 001a 03       		.uleb128 0x3
 12367 001b 0E       		.uleb128 0xe
 12368 001c 00       		.byte	0
 12369 001d 00       		.byte	0
 12370 001e 03       		.uleb128 0x3
 12371 001f 24       		.uleb128 0x24
 12372 0020 00       		.byte	0
 12373 0021 0B       		.uleb128 0xb
 12374 0022 0B       		.uleb128 0xb
 12375 0023 3E       		.uleb128 0x3e
 12376 0024 0B       		.uleb128 0xb
 12377 0025 03       		.uleb128 0x3
 12378 0026 08       		.uleb128 0x8
 12379 0027 00       		.byte	0
 12380 0028 00       		.byte	0
 12381 0029 04       		.uleb128 0x4
 12382 002a 16       		.uleb128 0x16
 12383 002b 00       		.byte	0
 12384 002c 03       		.uleb128 0x3
 12385 002d 0E       		.uleb128 0xe
 12386 002e 3A       		.uleb128 0x3a
 12387 002f 0B       		.uleb128 0xb
 12388 0030 3B       		.uleb128 0x3b
 12389 0031 0B       		.uleb128 0xb
 12390 0032 49       		.uleb128 0x49
 12391 0033 13       		.uleb128 0x13
 12392 0034 00       		.byte	0
 12393 0035 00       		.byte	0
 12394 0036 05       		.uleb128 0x5
 12395 0037 0F       		.uleb128 0xf
 12396 0038 00       		.byte	0
 12397 0039 0B       		.uleb128 0xb
 12398 003a 0B       		.uleb128 0xb
 12399 003b 00       		.byte	0
 12400 003c 00       		.byte	0
 12401 003d 06       		.uleb128 0x6
 12402 003e 0F       		.uleb128 0xf
 12403 003f 00       		.byte	0
 12404 0040 0B       		.uleb128 0xb
 12405 0041 0B       		.uleb128 0xb
 12406 0042 49       		.uleb128 0x49
 12407 0043 13       		.uleb128 0x13
 12408 0044 00       		.byte	0
 12409 0045 00       		.byte	0
 12410 0046 07       		.uleb128 0x7
 12411 0047 26       		.uleb128 0x26
 12412 0048 00       		.byte	0
 12413 0049 49       		.uleb128 0x49
 12414 004a 13       		.uleb128 0x13
 12415 004b 00       		.byte	0
 12416 004c 00       		.byte	0
 12417 004d 08       		.uleb128 0x8
 12418 004e 01       		.uleb128 0x1
ARM GAS  C:\Users\AHMED~1.ELE\AppData\Local\Temp\cc594ylT.s 			page 240


 12419 004f 01       		.byte	0x1
 12420 0050 49       		.uleb128 0x49
 12421 0051 13       		.uleb128 0x13
 12422 0052 01       		.uleb128 0x1
 12423 0053 13       		.uleb128 0x13
 12424 0054 00       		.byte	0
 12425 0055 00       		.byte	0
 12426 0056 09       		.uleb128 0x9
 12427 0057 21       		.uleb128 0x21
 12428 0058 00       		.byte	0
 12429 0059 49       		.uleb128 0x49
 12430 005a 13       		.uleb128 0x13
 12431 005b 2F       		.uleb128 0x2f
 12432 005c 0B       		.uleb128 0xb
 12433 005d 00       		.byte	0
 12434 005e 00       		.byte	0
 12435 005f 0A       		.uleb128 0xa
 12436 0060 04       		.uleb128 0x4
 12437 0061 01       		.byte	0x1
 12438 0062 03       		.uleb128 0x3
 12439 0063 0E       		.uleb128 0xe
 12440 0064 0B       		.uleb128 0xb
 12441 0065 0B       		.uleb128 0xb
 12442 0066 3A       		.uleb128 0x3a
 12443 0067 0B       		.uleb128 0xb
 12444 0068 3B       		.uleb128 0x3b
 12445 0069 05       		.uleb128 0x5
 12446 006a 01       		.uleb128 0x1
 12447 006b 13       		.uleb128 0x13
 12448 006c 00       		.byte	0
 12449 006d 00       		.byte	0
 12450 006e 0B       		.uleb128 0xb
 12451 006f 28       		.uleb128 0x28
 12452 0070 00       		.byte	0
 12453 0071 03       		.uleb128 0x3
 12454 0072 0E       		.uleb128 0xe
 12455 0073 1C       		.uleb128 0x1c
 12456 0074 0D       		.uleb128 0xd
 12457 0075 00       		.byte	0
 12458 0076 00       		.byte	0
 12459 0077 0C       		.uleb128 0xc
 12460 0078 13       		.uleb128 0x13
 12461 0079 01       		.byte	0x1
 12462 007a 0B       		.uleb128 0xb
 12463 007b 0B       		.uleb128 0xb
 12464 007c 3A       		.uleb128 0x3a
 12465 007d 0B       		.uleb128 0xb
 12466 007e 3B       		.uleb128 0x3b
 12467 007f 05       		.uleb128 0x5
 12468 0080 01       		.uleb128 0x1
 12469 0081 13       		.uleb128 0x13
 12470 0082 00       		.byte	0
 12471 0083 00       		.byte	0
 12472 0084 0D       		.uleb128 0xd
 12473 0085 0D       		.uleb128 0xd
 12474 0086 00       		.byte	0
 12475 0087 03       		.uleb128 0x3
ARM GAS  C:\Users\AHMED~1.ELE\AppData\Local\Temp\cc594ylT.s 			page 241


 12476 0088 0E       		.uleb128 0xe
 12477 0089 3A       		.uleb128 0x3a
 12478 008a 0B       		.uleb128 0xb
 12479 008b 3B       		.uleb128 0x3b
 12480 008c 05       		.uleb128 0x5
 12481 008d 49       		.uleb128 0x49
 12482 008e 13       		.uleb128 0x13
 12483 008f 38       		.uleb128 0x38
 12484 0090 0B       		.uleb128 0xb
 12485 0091 00       		.byte	0
 12486 0092 00       		.byte	0
 12487 0093 0E       		.uleb128 0xe
 12488 0094 16       		.uleb128 0x16
 12489 0095 00       		.byte	0
 12490 0096 03       		.uleb128 0x3
 12491 0097 0E       		.uleb128 0xe
 12492 0098 3A       		.uleb128 0x3a
 12493 0099 0B       		.uleb128 0xb
 12494 009a 3B       		.uleb128 0x3b
 12495 009b 05       		.uleb128 0x5
 12496 009c 49       		.uleb128 0x49
 12497 009d 13       		.uleb128 0x13
 12498 009e 00       		.byte	0
 12499 009f 00       		.byte	0
 12500 00a0 0F       		.uleb128 0xf
 12501 00a1 04       		.uleb128 0x4
 12502 00a2 01       		.byte	0x1
 12503 00a3 0B       		.uleb128 0xb
 12504 00a4 0B       		.uleb128 0xb
 12505 00a5 3A       		.uleb128 0x3a
 12506 00a6 0B       		.uleb128 0xb
 12507 00a7 3B       		.uleb128 0x3b
 12508 00a8 05       		.uleb128 0x5
 12509 00a9 01       		.uleb128 0x1
 12510 00aa 13       		.uleb128 0x13
 12511 00ab 00       		.byte	0
 12512 00ac 00       		.byte	0
 12513 00ad 10       		.uleb128 0x10
 12514 00ae 26       		.uleb128 0x26
 12515 00af 00       		.byte	0
 12516 00b0 00       		.byte	0
 12517 00b1 00       		.byte	0
 12518 00b2 11       		.uleb128 0x11
 12519 00b3 04       		.uleb128 0x4
 12520 00b4 01       		.byte	0x1
 12521 00b5 0B       		.uleb128 0xb
 12522 00b6 0B       		.uleb128 0xb
 12523 00b7 3A       		.uleb128 0x3a
 12524 00b8 0B       		.uleb128 0xb
 12525 00b9 3B       		.uleb128 0x3b
 12526 00ba 0B       		.uleb128 0xb
 12527 00bb 01       		.uleb128 0x1
 12528 00bc 13       		.uleb128 0x13
 12529 00bd 00       		.byte	0
 12530 00be 00       		.byte	0
 12531 00bf 12       		.uleb128 0x12
 12532 00c0 13       		.uleb128 0x13
ARM GAS  C:\Users\AHMED~1.ELE\AppData\Local\Temp\cc594ylT.s 			page 242


 12533 00c1 01       		.byte	0x1
 12534 00c2 03       		.uleb128 0x3
 12535 00c3 0E       		.uleb128 0xe
 12536 00c4 0B       		.uleb128 0xb
 12537 00c5 0B       		.uleb128 0xb
 12538 00c6 3A       		.uleb128 0x3a
 12539 00c7 0B       		.uleb128 0xb
 12540 00c8 3B       		.uleb128 0x3b
 12541 00c9 0B       		.uleb128 0xb
 12542 00ca 01       		.uleb128 0x1
 12543 00cb 13       		.uleb128 0x13
 12544 00cc 00       		.byte	0
 12545 00cd 00       		.byte	0
 12546 00ce 13       		.uleb128 0x13
 12547 00cf 0D       		.uleb128 0xd
 12548 00d0 00       		.byte	0
 12549 00d1 03       		.uleb128 0x3
 12550 00d2 0E       		.uleb128 0xe
 12551 00d3 3A       		.uleb128 0x3a
 12552 00d4 0B       		.uleb128 0xb
 12553 00d5 3B       		.uleb128 0x3b
 12554 00d6 0B       		.uleb128 0xb
 12555 00d7 49       		.uleb128 0x49
 12556 00d8 13       		.uleb128 0x13
 12557 00d9 38       		.uleb128 0x38
 12558 00da 0B       		.uleb128 0xb
 12559 00db 00       		.byte	0
 12560 00dc 00       		.byte	0
 12561 00dd 14       		.uleb128 0x14
 12562 00de 0D       		.uleb128 0xd
 12563 00df 00       		.byte	0
 12564 00e0 03       		.uleb128 0x3
 12565 00e1 08       		.uleb128 0x8
 12566 00e2 3A       		.uleb128 0x3a
 12567 00e3 0B       		.uleb128 0xb
 12568 00e4 3B       		.uleb128 0x3b
 12569 00e5 0B       		.uleb128 0xb
 12570 00e6 49       		.uleb128 0x49
 12571 00e7 13       		.uleb128 0x13
 12572 00e8 38       		.uleb128 0x38
 12573 00e9 0B       		.uleb128 0xb
 12574 00ea 00       		.byte	0
 12575 00eb 00       		.byte	0
 12576 00ec 15       		.uleb128 0x15
 12577 00ed 13       		.uleb128 0x13
 12578 00ee 01       		.byte	0x1
 12579 00ef 0B       		.uleb128 0xb
 12580 00f0 06       		.uleb128 0x6
 12581 00f1 3A       		.uleb128 0x3a
 12582 00f2 0B       		.uleb128 0xb
 12583 00f3 3B       		.uleb128 0x3b
 12584 00f4 0B       		.uleb128 0xb
 12585 00f5 01       		.uleb128 0x1
 12586 00f6 13       		.uleb128 0x13
 12587 00f7 00       		.byte	0
 12588 00f8 00       		.byte	0
 12589 00f9 16       		.uleb128 0x16
ARM GAS  C:\Users\AHMED~1.ELE\AppData\Local\Temp\cc594ylT.s 			page 243


 12590 00fa 21       		.uleb128 0x21
 12591 00fb 00       		.byte	0
 12592 00fc 49       		.uleb128 0x49
 12593 00fd 13       		.uleb128 0x13
 12594 00fe 2F       		.uleb128 0x2f
 12595 00ff 06       		.uleb128 0x6
 12596 0100 00       		.byte	0
 12597 0101 00       		.byte	0
 12598 0102 17       		.uleb128 0x17
 12599 0103 2E       		.uleb128 0x2e
 12600 0104 01       		.byte	0x1
 12601 0105 03       		.uleb128 0x3
 12602 0106 0E       		.uleb128 0xe
 12603 0107 3A       		.uleb128 0x3a
 12604 0108 0B       		.uleb128 0xb
 12605 0109 3B       		.uleb128 0x3b
 12606 010a 05       		.uleb128 0x5
 12607 010b 27       		.uleb128 0x27
 12608 010c 19       		.uleb128 0x19
 12609 010d 20       		.uleb128 0x20
 12610 010e 0B       		.uleb128 0xb
 12611 010f 01       		.uleb128 0x1
 12612 0110 13       		.uleb128 0x13
 12613 0111 00       		.byte	0
 12614 0112 00       		.byte	0
 12615 0113 18       		.uleb128 0x18
 12616 0114 05       		.uleb128 0x5
 12617 0115 00       		.byte	0
 12618 0116 03       		.uleb128 0x3
 12619 0117 0E       		.uleb128 0xe
 12620 0118 3A       		.uleb128 0x3a
 12621 0119 0B       		.uleb128 0xb
 12622 011a 3B       		.uleb128 0x3b
 12623 011b 05       		.uleb128 0x5
 12624 011c 49       		.uleb128 0x49
 12625 011d 13       		.uleb128 0x13
 12626 011e 00       		.byte	0
 12627 011f 00       		.byte	0
 12628 0120 19       		.uleb128 0x19
 12629 0121 05       		.uleb128 0x5
 12630 0122 00       		.byte	0
 12631 0123 03       		.uleb128 0x3
 12632 0124 08       		.uleb128 0x8
 12633 0125 3A       		.uleb128 0x3a
 12634 0126 0B       		.uleb128 0xb
 12635 0127 3B       		.uleb128 0x3b
 12636 0128 05       		.uleb128 0x5
 12637 0129 49       		.uleb128 0x49
 12638 012a 13       		.uleb128 0x13
 12639 012b 00       		.byte	0
 12640 012c 00       		.byte	0
 12641 012d 1A       		.uleb128 0x1a
 12642 012e 34       		.uleb128 0x34
 12643 012f 00       		.byte	0
 12644 0130 03       		.uleb128 0x3
 12645 0131 0E       		.uleb128 0xe
 12646 0132 3A       		.uleb128 0x3a
ARM GAS  C:\Users\AHMED~1.ELE\AppData\Local\Temp\cc594ylT.s 			page 244


 12647 0133 0B       		.uleb128 0xb
 12648 0134 3B       		.uleb128 0x3b
 12649 0135 05       		.uleb128 0x5
 12650 0136 49       		.uleb128 0x49
 12651 0137 13       		.uleb128 0x13
 12652 0138 00       		.byte	0
 12653 0139 00       		.byte	0
 12654 013a 1B       		.uleb128 0x1b
 12655 013b 34       		.uleb128 0x34
 12656 013c 00       		.byte	0
 12657 013d 03       		.uleb128 0x3
 12658 013e 08       		.uleb128 0x8
 12659 013f 3A       		.uleb128 0x3a
 12660 0140 0B       		.uleb128 0xb
 12661 0141 3B       		.uleb128 0x3b
 12662 0142 05       		.uleb128 0x5
 12663 0143 49       		.uleb128 0x49
 12664 0144 13       		.uleb128 0x13
 12665 0145 00       		.byte	0
 12666 0146 00       		.byte	0
 12667 0147 1C       		.uleb128 0x1c
 12668 0148 2E       		.uleb128 0x2e
 12669 0149 01       		.byte	0x1
 12670 014a 03       		.uleb128 0x3
 12671 014b 0E       		.uleb128 0xe
 12672 014c 3A       		.uleb128 0x3a
 12673 014d 0B       		.uleb128 0xb
 12674 014e 3B       		.uleb128 0x3b
 12675 014f 0B       		.uleb128 0xb
 12676 0150 27       		.uleb128 0x27
 12677 0151 19       		.uleb128 0x19
 12678 0152 49       		.uleb128 0x49
 12679 0153 13       		.uleb128 0x13
 12680 0154 11       		.uleb128 0x11
 12681 0155 01       		.uleb128 0x1
 12682 0156 12       		.uleb128 0x12
 12683 0157 06       		.uleb128 0x6
 12684 0158 40       		.uleb128 0x40
 12685 0159 18       		.uleb128 0x18
 12686 015a 9742     		.uleb128 0x2117
 12687 015c 19       		.uleb128 0x19
 12688 015d 01       		.uleb128 0x1
 12689 015e 13       		.uleb128 0x13
 12690 015f 00       		.byte	0
 12691 0160 00       		.byte	0
 12692 0161 1D       		.uleb128 0x1d
 12693 0162 05       		.uleb128 0x5
 12694 0163 00       		.byte	0
 12695 0164 03       		.uleb128 0x3
 12696 0165 0E       		.uleb128 0xe
 12697 0166 3A       		.uleb128 0x3a
 12698 0167 0B       		.uleb128 0xb
 12699 0168 3B       		.uleb128 0x3b
 12700 0169 0B       		.uleb128 0xb
 12701 016a 49       		.uleb128 0x49
 12702 016b 13       		.uleb128 0x13
 12703 016c 02       		.uleb128 0x2
ARM GAS  C:\Users\AHMED~1.ELE\AppData\Local\Temp\cc594ylT.s 			page 245


 12704 016d 17       		.uleb128 0x17
 12705 016e 00       		.byte	0
 12706 016f 00       		.byte	0
 12707 0170 1E       		.uleb128 0x1e
 12708 0171 34       		.uleb128 0x34
 12709 0172 00       		.byte	0
 12710 0173 03       		.uleb128 0x3
 12711 0174 0E       		.uleb128 0xe
 12712 0175 3A       		.uleb128 0x3a
 12713 0176 0B       		.uleb128 0xb
 12714 0177 3B       		.uleb128 0x3b
 12715 0178 0B       		.uleb128 0xb
 12716 0179 49       		.uleb128 0x49
 12717 017a 13       		.uleb128 0x13
 12718 017b 02       		.uleb128 0x2
 12719 017c 17       		.uleb128 0x17
 12720 017d 00       		.byte	0
 12721 017e 00       		.byte	0
 12722 017f 1F       		.uleb128 0x1f
 12723 0180 898201   		.uleb128 0x4109
 12724 0183 01       		.byte	0x1
 12725 0184 11       		.uleb128 0x11
 12726 0185 01       		.uleb128 0x1
 12727 0186 31       		.uleb128 0x31
 12728 0187 13       		.uleb128 0x13
 12729 0188 00       		.byte	0
 12730 0189 00       		.byte	0
 12731 018a 20       		.uleb128 0x20
 12732 018b 8A8201   		.uleb128 0x410a
 12733 018e 00       		.byte	0
 12734 018f 02       		.uleb128 0x2
 12735 0190 18       		.uleb128 0x18
 12736 0191 9142     		.uleb128 0x2111
 12737 0193 18       		.uleb128 0x18
 12738 0194 00       		.byte	0
 12739 0195 00       		.byte	0
 12740 0196 21       		.uleb128 0x21
 12741 0197 898201   		.uleb128 0x4109
 12742 019a 01       		.byte	0x1
 12743 019b 11       		.uleb128 0x11
 12744 019c 01       		.uleb128 0x1
 12745 019d 31       		.uleb128 0x31
 12746 019e 13       		.uleb128 0x13
 12747 019f 01       		.uleb128 0x1
 12748 01a0 13       		.uleb128 0x13
 12749 01a1 00       		.byte	0
 12750 01a2 00       		.byte	0
 12751 01a3 22       		.uleb128 0x22
 12752 01a4 2E       		.uleb128 0x2e
 12753 01a5 01       		.byte	0x1
 12754 01a6 03       		.uleb128 0x3
 12755 01a7 0E       		.uleb128 0xe
 12756 01a8 3A       		.uleb128 0x3a
 12757 01a9 0B       		.uleb128 0xb
 12758 01aa 3B       		.uleb128 0x3b
 12759 01ab 0B       		.uleb128 0xb
 12760 01ac 27       		.uleb128 0x27
ARM GAS  C:\Users\AHMED~1.ELE\AppData\Local\Temp\cc594ylT.s 			page 246


 12761 01ad 19       		.uleb128 0x19
 12762 01ae 49       		.uleb128 0x49
 12763 01af 13       		.uleb128 0x13
 12764 01b0 11       		.uleb128 0x11
 12765 01b1 01       		.uleb128 0x1
 12766 01b2 12       		.uleb128 0x12
 12767 01b3 06       		.uleb128 0x6
 12768 01b4 40       		.uleb128 0x40
 12769 01b5 18       		.uleb128 0x18
 12770 01b6 9642     		.uleb128 0x2116
 12771 01b8 19       		.uleb128 0x19
 12772 01b9 01       		.uleb128 0x1
 12773 01ba 13       		.uleb128 0x13
 12774 01bb 00       		.byte	0
 12775 01bc 00       		.byte	0
 12776 01bd 23       		.uleb128 0x23
 12777 01be 34       		.uleb128 0x34
 12778 01bf 00       		.byte	0
 12779 01c0 03       		.uleb128 0x3
 12780 01c1 08       		.uleb128 0x8
 12781 01c2 3A       		.uleb128 0x3a
 12782 01c3 0B       		.uleb128 0xb
 12783 01c4 3B       		.uleb128 0x3b
 12784 01c5 0B       		.uleb128 0xb
 12785 01c6 49       		.uleb128 0x49
 12786 01c7 13       		.uleb128 0x13
 12787 01c8 02       		.uleb128 0x2
 12788 01c9 17       		.uleb128 0x17
 12789 01ca 00       		.byte	0
 12790 01cb 00       		.byte	0
 12791 01cc 24       		.uleb128 0x24
 12792 01cd 34       		.uleb128 0x34
 12793 01ce 00       		.byte	0
 12794 01cf 03       		.uleb128 0x3
 12795 01d0 0E       		.uleb128 0xe
 12796 01d1 3A       		.uleb128 0x3a
 12797 01d2 0B       		.uleb128 0xb
 12798 01d3 3B       		.uleb128 0x3b
 12799 01d4 0B       		.uleb128 0xb
 12800 01d5 49       		.uleb128 0x49
 12801 01d6 13       		.uleb128 0x13
 12802 01d7 02       		.uleb128 0x2
 12803 01d8 18       		.uleb128 0x18
 12804 01d9 00       		.byte	0
 12805 01da 00       		.byte	0
 12806 01db 25       		.uleb128 0x25
 12807 01dc 34       		.uleb128 0x34
 12808 01dd 00       		.byte	0
 12809 01de 03       		.uleb128 0x3
 12810 01df 0E       		.uleb128 0xe
 12811 01e0 3A       		.uleb128 0x3a
 12812 01e1 0B       		.uleb128 0xb
 12813 01e2 3B       		.uleb128 0x3b
 12814 01e3 0B       		.uleb128 0xb
 12815 01e4 49       		.uleb128 0x49
 12816 01e5 13       		.uleb128 0x13
 12817 01e6 1C       		.uleb128 0x1c
ARM GAS  C:\Users\AHMED~1.ELE\AppData\Local\Temp\cc594ylT.s 			page 247


 12818 01e7 05       		.uleb128 0x5
 12819 01e8 00       		.byte	0
 12820 01e9 00       		.byte	0
 12821 01ea 26       		.uleb128 0x26
 12822 01eb 34       		.uleb128 0x34
 12823 01ec 00       		.byte	0
 12824 01ed 03       		.uleb128 0x3
 12825 01ee 0E       		.uleb128 0xe
 12826 01ef 3A       		.uleb128 0x3a
 12827 01f0 0B       		.uleb128 0xb
 12828 01f1 3B       		.uleb128 0x3b
 12829 01f2 0B       		.uleb128 0xb
 12830 01f3 49       		.uleb128 0x49
 12831 01f4 13       		.uleb128 0x13
 12832 01f5 1C       		.uleb128 0x1c
 12833 01f6 0B       		.uleb128 0xb
 12834 01f7 00       		.byte	0
 12835 01f8 00       		.byte	0
 12836 01f9 27       		.uleb128 0x27
 12837 01fa 0B       		.uleb128 0xb
 12838 01fb 01       		.byte	0x1
 12839 01fc 11       		.uleb128 0x11
 12840 01fd 01       		.uleb128 0x1
 12841 01fe 12       		.uleb128 0x12
 12842 01ff 06       		.uleb128 0x6
 12843 0200 01       		.uleb128 0x1
 12844 0201 13       		.uleb128 0x13
 12845 0202 00       		.byte	0
 12846 0203 00       		.byte	0
 12847 0204 28       		.uleb128 0x28
 12848 0205 2E       		.uleb128 0x2e
 12849 0206 01       		.byte	0x1
 12850 0207 31       		.uleb128 0x31
 12851 0208 13       		.uleb128 0x13
 12852 0209 11       		.uleb128 0x11
 12853 020a 01       		.uleb128 0x1
 12854 020b 12       		.uleb128 0x12
 12855 020c 06       		.uleb128 0x6
 12856 020d 40       		.uleb128 0x40
 12857 020e 18       		.uleb128 0x18
 12858 020f 9742     		.uleb128 0x2117
 12859 0211 19       		.uleb128 0x19
 12860 0212 01       		.uleb128 0x1
 12861 0213 13       		.uleb128 0x13
 12862 0214 00       		.byte	0
 12863 0215 00       		.byte	0
 12864 0216 29       		.uleb128 0x29
 12865 0217 05       		.uleb128 0x5
 12866 0218 00       		.byte	0
 12867 0219 31       		.uleb128 0x31
 12868 021a 13       		.uleb128 0x13
 12869 021b 02       		.uleb128 0x2
 12870 021c 18       		.uleb128 0x18
 12871 021d 00       		.byte	0
 12872 021e 00       		.byte	0
 12873 021f 2A       		.uleb128 0x2a
 12874 0220 898201   		.uleb128 0x4109
ARM GAS  C:\Users\AHMED~1.ELE\AppData\Local\Temp\cc594ylT.s 			page 248


 12875 0223 01       		.byte	0x1
 12876 0224 11       		.uleb128 0x11
 12877 0225 01       		.uleb128 0x1
 12878 0226 9542     		.uleb128 0x2115
 12879 0228 19       		.uleb128 0x19
 12880 0229 31       		.uleb128 0x31
 12881 022a 13       		.uleb128 0x13
 12882 022b 00       		.byte	0
 12883 022c 00       		.byte	0
 12884 022d 2B       		.uleb128 0x2b
 12885 022e 05       		.uleb128 0x5
 12886 022f 00       		.byte	0
 12887 0230 31       		.uleb128 0x31
 12888 0231 13       		.uleb128 0x13
 12889 0232 02       		.uleb128 0x2
 12890 0233 17       		.uleb128 0x17
 12891 0234 00       		.byte	0
 12892 0235 00       		.byte	0
 12893 0236 2C       		.uleb128 0x2c
 12894 0237 34       		.uleb128 0x34
 12895 0238 00       		.byte	0
 12896 0239 31       		.uleb128 0x31
 12897 023a 13       		.uleb128 0x13
 12898 023b 02       		.uleb128 0x2
 12899 023c 18       		.uleb128 0x18
 12900 023d 00       		.byte	0
 12901 023e 00       		.byte	0
 12902 023f 2D       		.uleb128 0x2d
 12903 0240 34       		.uleb128 0x34
 12904 0241 00       		.byte	0
 12905 0242 31       		.uleb128 0x31
 12906 0243 13       		.uleb128 0x13
 12907 0244 02       		.uleb128 0x2
 12908 0245 17       		.uleb128 0x17
 12909 0246 00       		.byte	0
 12910 0247 00       		.byte	0
 12911 0248 2E       		.uleb128 0x2e
 12912 0249 05       		.uleb128 0x5
 12913 024a 00       		.byte	0
 12914 024b 31       		.uleb128 0x31
 12915 024c 13       		.uleb128 0x13
 12916 024d 1C       		.uleb128 0x1c
 12917 024e 0B       		.uleb128 0xb
 12918 024f 00       		.byte	0
 12919 0250 00       		.byte	0
 12920 0251 2F       		.uleb128 0x2f
 12921 0252 2E       		.uleb128 0x2e
 12922 0253 01       		.byte	0x1
 12923 0254 3F       		.uleb128 0x3f
 12924 0255 19       		.uleb128 0x19
 12925 0256 03       		.uleb128 0x3
 12926 0257 0E       		.uleb128 0xe
 12927 0258 3A       		.uleb128 0x3a
 12928 0259 0B       		.uleb128 0xb
 12929 025a 3B       		.uleb128 0x3b
 12930 025b 05       		.uleb128 0x5
 12931 025c 27       		.uleb128 0x27
ARM GAS  C:\Users\AHMED~1.ELE\AppData\Local\Temp\cc594ylT.s 			page 249


 12932 025d 19       		.uleb128 0x19
 12933 025e 49       		.uleb128 0x49
 12934 025f 13       		.uleb128 0x13
 12935 0260 11       		.uleb128 0x11
 12936 0261 01       		.uleb128 0x1
 12937 0262 12       		.uleb128 0x12
 12938 0263 06       		.uleb128 0x6
 12939 0264 40       		.uleb128 0x40
 12940 0265 18       		.uleb128 0x18
 12941 0266 9742     		.uleb128 0x2117
 12942 0268 19       		.uleb128 0x19
 12943 0269 01       		.uleb128 0x1
 12944 026a 13       		.uleb128 0x13
 12945 026b 00       		.byte	0
 12946 026c 00       		.byte	0
 12947 026d 30       		.uleb128 0x30
 12948 026e 05       		.uleb128 0x5
 12949 026f 00       		.byte	0
 12950 0270 03       		.uleb128 0x3
 12951 0271 0E       		.uleb128 0xe
 12952 0272 3A       		.uleb128 0x3a
 12953 0273 0B       		.uleb128 0xb
 12954 0274 3B       		.uleb128 0x3b
 12955 0275 05       		.uleb128 0x5
 12956 0276 49       		.uleb128 0x49
 12957 0277 13       		.uleb128 0x13
 12958 0278 02       		.uleb128 0x2
 12959 0279 17       		.uleb128 0x17
 12960 027a 00       		.byte	0
 12961 027b 00       		.byte	0
 12962 027c 31       		.uleb128 0x31
 12963 027d 05       		.uleb128 0x5
 12964 027e 00       		.byte	0
 12965 027f 03       		.uleb128 0x3
 12966 0280 0E       		.uleb128 0xe
 12967 0281 3A       		.uleb128 0x3a
 12968 0282 0B       		.uleb128 0xb
 12969 0283 3B       		.uleb128 0x3b
 12970 0284 05       		.uleb128 0x5
 12971 0285 49       		.uleb128 0x49
 12972 0286 13       		.uleb128 0x13
 12973 0287 02       		.uleb128 0x2
 12974 0288 18       		.uleb128 0x18
 12975 0289 00       		.byte	0
 12976 028a 00       		.byte	0
 12977 028b 32       		.uleb128 0x32
 12978 028c 34       		.uleb128 0x34
 12979 028d 00       		.byte	0
 12980 028e 03       		.uleb128 0x3
 12981 028f 08       		.uleb128 0x8
 12982 0290 3A       		.uleb128 0x3a
 12983 0291 0B       		.uleb128 0xb
 12984 0292 3B       		.uleb128 0x3b
 12985 0293 05       		.uleb128 0x5
 12986 0294 49       		.uleb128 0x49
 12987 0295 13       		.uleb128 0x13
 12988 0296 02       		.uleb128 0x2
ARM GAS  C:\Users\AHMED~1.ELE\AppData\Local\Temp\cc594ylT.s 			page 250


 12989 0297 18       		.uleb128 0x18
 12990 0298 00       		.byte	0
 12991 0299 00       		.byte	0
 12992 029a 33       		.uleb128 0x33
 12993 029b 34       		.uleb128 0x34
 12994 029c 00       		.byte	0
 12995 029d 03       		.uleb128 0x3
 12996 029e 08       		.uleb128 0x8
 12997 029f 3A       		.uleb128 0x3a
 12998 02a0 0B       		.uleb128 0xb
 12999 02a1 3B       		.uleb128 0x3b
 13000 02a2 05       		.uleb128 0x5
 13001 02a3 49       		.uleb128 0x49
 13002 02a4 13       		.uleb128 0x13
 13003 02a5 02       		.uleb128 0x2
 13004 02a6 17       		.uleb128 0x17
 13005 02a7 00       		.byte	0
 13006 02a8 00       		.byte	0
 13007 02a9 34       		.uleb128 0x34
 13008 02aa 34       		.uleb128 0x34
 13009 02ab 00       		.byte	0
 13010 02ac 03       		.uleb128 0x3
 13011 02ad 0E       		.uleb128 0xe
 13012 02ae 3A       		.uleb128 0x3a
 13013 02af 0B       		.uleb128 0xb
 13014 02b0 3B       		.uleb128 0x3b
 13015 02b1 05       		.uleb128 0x5
 13016 02b2 49       		.uleb128 0x49
 13017 02b3 13       		.uleb128 0x13
 13018 02b4 02       		.uleb128 0x2
 13019 02b5 18       		.uleb128 0x18
 13020 02b6 00       		.byte	0
 13021 02b7 00       		.byte	0
 13022 02b8 35       		.uleb128 0x35
 13023 02b9 34       		.uleb128 0x34
 13024 02ba 00       		.byte	0
 13025 02bb 03       		.uleb128 0x3
 13026 02bc 0E       		.uleb128 0xe
 13027 02bd 3A       		.uleb128 0x3a
 13028 02be 0B       		.uleb128 0xb
 13029 02bf 3B       		.uleb128 0x3b
 13030 02c0 05       		.uleb128 0x5
 13031 02c1 49       		.uleb128 0x49
 13032 02c2 13       		.uleb128 0x13
 13033 02c3 1C       		.uleb128 0x1c
 13034 02c4 0B       		.uleb128 0xb
 13035 02c5 00       		.byte	0
 13036 02c6 00       		.byte	0
 13037 02c7 36       		.uleb128 0x36
 13038 02c8 0B       		.uleb128 0xb
 13039 02c9 01       		.byte	0x1
 13040 02ca 11       		.uleb128 0x11
 13041 02cb 01       		.uleb128 0x1
 13042 02cc 12       		.uleb128 0x12
 13043 02cd 06       		.uleb128 0x6
 13044 02ce 00       		.byte	0
 13045 02cf 00       		.byte	0
ARM GAS  C:\Users\AHMED~1.ELE\AppData\Local\Temp\cc594ylT.s 			page 251


 13046 02d0 37       		.uleb128 0x37
 13047 02d1 34       		.uleb128 0x34
 13048 02d2 00       		.byte	0
 13049 02d3 03       		.uleb128 0x3
 13050 02d4 0E       		.uleb128 0xe
 13051 02d5 3A       		.uleb128 0x3a
 13052 02d6 0B       		.uleb128 0xb
 13053 02d7 3B       		.uleb128 0x3b
 13054 02d8 05       		.uleb128 0x5
 13055 02d9 49       		.uleb128 0x49
 13056 02da 13       		.uleb128 0x13
 13057 02db 02       		.uleb128 0x2
 13058 02dc 17       		.uleb128 0x17
 13059 02dd 00       		.byte	0
 13060 02de 00       		.byte	0
 13061 02df 38       		.uleb128 0x38
 13062 02e0 2E       		.uleb128 0x2e
 13063 02e1 01       		.byte	0x1
 13064 02e2 3F       		.uleb128 0x3f
 13065 02e3 19       		.uleb128 0x19
 13066 02e4 03       		.uleb128 0x3
 13067 02e5 0E       		.uleb128 0xe
 13068 02e6 3A       		.uleb128 0x3a
 13069 02e7 0B       		.uleb128 0xb
 13070 02e8 3B       		.uleb128 0x3b
 13071 02e9 05       		.uleb128 0x5
 13072 02ea 27       		.uleb128 0x27
 13073 02eb 19       		.uleb128 0x19
 13074 02ec 11       		.uleb128 0x11
 13075 02ed 01       		.uleb128 0x1
 13076 02ee 12       		.uleb128 0x12
 13077 02ef 06       		.uleb128 0x6
 13078 02f0 40       		.uleb128 0x40
 13079 02f1 18       		.uleb128 0x18
 13080 02f2 9742     		.uleb128 0x2117
 13081 02f4 19       		.uleb128 0x19
 13082 02f5 01       		.uleb128 0x1
 13083 02f6 13       		.uleb128 0x13
 13084 02f7 00       		.byte	0
 13085 02f8 00       		.byte	0
 13086 02f9 39       		.uleb128 0x39
 13087 02fa 0B       		.uleb128 0xb
 13088 02fb 01       		.byte	0x1
 13089 02fc 55       		.uleb128 0x55
 13090 02fd 17       		.uleb128 0x17
 13091 02fe 01       		.uleb128 0x1
 13092 02ff 13       		.uleb128 0x13
 13093 0300 00       		.byte	0
 13094 0301 00       		.byte	0
 13095 0302 3A       		.uleb128 0x3a
 13096 0303 1D       		.uleb128 0x1d
 13097 0304 01       		.byte	0x1
 13098 0305 31       		.uleb128 0x31
 13099 0306 13       		.uleb128 0x13
 13100 0307 11       		.uleb128 0x11
 13101 0308 01       		.uleb128 0x1
 13102 0309 12       		.uleb128 0x12
ARM GAS  C:\Users\AHMED~1.ELE\AppData\Local\Temp\cc594ylT.s 			page 252


 13103 030a 06       		.uleb128 0x6
 13104 030b 58       		.uleb128 0x58
 13105 030c 0B       		.uleb128 0xb
 13106 030d 59       		.uleb128 0x59
 13107 030e 05       		.uleb128 0x5
 13108 030f 01       		.uleb128 0x1
 13109 0310 13       		.uleb128 0x13
 13110 0311 00       		.byte	0
 13111 0312 00       		.byte	0
 13112 0313 3B       		.uleb128 0x3b
 13113 0314 8A8201   		.uleb128 0x410a
 13114 0317 00       		.byte	0
 13115 0318 31       		.uleb128 0x31
 13116 0319 13       		.uleb128 0x13
 13117 031a 9142     		.uleb128 0x2111
 13118 031c 18       		.uleb128 0x18
 13119 031d 00       		.byte	0
 13120 031e 00       		.byte	0
 13121 031f 3C       		.uleb128 0x3c
 13122 0320 898201   		.uleb128 0x4109
 13123 0323 00       		.byte	0
 13124 0324 11       		.uleb128 0x11
 13125 0325 01       		.uleb128 0x1
 13126 0326 31       		.uleb128 0x31
 13127 0327 13       		.uleb128 0x13
 13128 0328 00       		.byte	0
 13129 0329 00       		.byte	0
 13130 032a 3D       		.uleb128 0x3d
 13131 032b 21       		.uleb128 0x21
 13132 032c 00       		.byte	0
 13133 032d 49       		.uleb128 0x49
 13134 032e 13       		.uleb128 0x13
 13135 032f 2F       		.uleb128 0x2f
 13136 0330 05       		.uleb128 0x5
 13137 0331 00       		.byte	0
 13138 0332 00       		.byte	0
 13139 0333 3E       		.uleb128 0x3e
 13140 0334 2E       		.uleb128 0x2e
 13141 0335 01       		.byte	0x1
 13142 0336 3F       		.uleb128 0x3f
 13143 0337 19       		.uleb128 0x19
 13144 0338 03       		.uleb128 0x3
 13145 0339 0E       		.uleb128 0xe
 13146 033a 3A       		.uleb128 0x3a
 13147 033b 0B       		.uleb128 0xb
 13148 033c 3B       		.uleb128 0x3b
 13149 033d 0B       		.uleb128 0xb
 13150 033e 27       		.uleb128 0x27
 13151 033f 19       		.uleb128 0x19
 13152 0340 49       		.uleb128 0x49
 13153 0341 13       		.uleb128 0x13
 13154 0342 3C       		.uleb128 0x3c
 13155 0343 19       		.uleb128 0x19
 13156 0344 01       		.uleb128 0x1
 13157 0345 13       		.uleb128 0x13
 13158 0346 00       		.byte	0
 13159 0347 00       		.byte	0
ARM GAS  C:\Users\AHMED~1.ELE\AppData\Local\Temp\cc594ylT.s 			page 253


 13160 0348 3F       		.uleb128 0x3f
 13161 0349 05       		.uleb128 0x5
 13162 034a 00       		.byte	0
 13163 034b 49       		.uleb128 0x49
 13164 034c 13       		.uleb128 0x13
 13165 034d 00       		.byte	0
 13166 034e 00       		.byte	0
 13167 034f 40       		.uleb128 0x40
 13168 0350 2E       		.uleb128 0x2e
 13169 0351 01       		.byte	0x1
 13170 0352 3F       		.uleb128 0x3f
 13171 0353 19       		.uleb128 0x19
 13172 0354 03       		.uleb128 0x3
 13173 0355 0E       		.uleb128 0xe
 13174 0356 27       		.uleb128 0x27
 13175 0357 19       		.uleb128 0x19
 13176 0358 49       		.uleb128 0x49
 13177 0359 13       		.uleb128 0x13
 13178 035a 34       		.uleb128 0x34
 13179 035b 19       		.uleb128 0x19
 13180 035c 3C       		.uleb128 0x3c
 13181 035d 19       		.uleb128 0x19
 13182 035e 01       		.uleb128 0x1
 13183 035f 13       		.uleb128 0x13
 13184 0360 00       		.byte	0
 13185 0361 00       		.byte	0
 13186 0362 41       		.uleb128 0x41
 13187 0363 18       		.uleb128 0x18
 13188 0364 00       		.byte	0
 13189 0365 00       		.byte	0
 13190 0366 00       		.byte	0
 13191 0367 42       		.uleb128 0x42
 13192 0368 2E       		.uleb128 0x2e
 13193 0369 01       		.byte	0x1
 13194 036a 3F       		.uleb128 0x3f
 13195 036b 19       		.uleb128 0x19
 13196 036c 03       		.uleb128 0x3
 13197 036d 0E       		.uleb128 0xe
 13198 036e 3A       		.uleb128 0x3a
 13199 036f 0B       		.uleb128 0xb
 13200 0370 3B       		.uleb128 0x3b
 13201 0371 0B       		.uleb128 0xb
 13202 0372 27       		.uleb128 0x27
 13203 0373 19       		.uleb128 0x19
 13204 0374 3C       		.uleb128 0x3c
 13205 0375 19       		.uleb128 0x19
 13206 0376 01       		.uleb128 0x1
 13207 0377 13       		.uleb128 0x13
 13208 0378 00       		.byte	0
 13209 0379 00       		.byte	0
 13210 037a 43       		.uleb128 0x43
 13211 037b 2E       		.uleb128 0x2e
 13212 037c 00       		.byte	0
 13213 037d 3F       		.uleb128 0x3f
 13214 037e 19       		.uleb128 0x19
 13215 037f 03       		.uleb128 0x3
 13216 0380 0E       		.uleb128 0xe
ARM GAS  C:\Users\AHMED~1.ELE\AppData\Local\Temp\cc594ylT.s 			page 254


 13217 0381 3A       		.uleb128 0x3a
 13218 0382 0B       		.uleb128 0xb
 13219 0383 3B       		.uleb128 0x3b
 13220 0384 0B       		.uleb128 0xb
 13221 0385 27       		.uleb128 0x27
 13222 0386 19       		.uleb128 0x19
 13223 0387 3C       		.uleb128 0x3c
 13224 0388 19       		.uleb128 0x19
 13225 0389 00       		.byte	0
 13226 038a 00       		.byte	0
 13227 038b 00       		.byte	0
 13228              		.section	.debug_loc,"",%progbits
 13229              	.Ldebug_loc0:
 13230              	.LLST0:
 13231 0000 00000000 		.4byte	.LVL0
 13232 0004 20000000 		.4byte	.LVL5
 13233 0008 0100     		.2byte	0x1
 13234 000a 50       		.byte	0x50
 13235 000b 20000000 		.4byte	.LVL5
 13236 000f 28000000 		.4byte	.LFE0
 13237 0013 0100     		.2byte	0x1
 13238 0015 54       		.byte	0x54
 13239 0016 00000000 		.4byte	0
 13240 001a 00000000 		.4byte	0
 13241              	.LLST1:
 13242 001e 00000000 		.4byte	.LVL0
 13243 0022 14000000 		.4byte	.LVL3
 13244 0026 0100     		.2byte	0x1
 13245 0028 51       		.byte	0x51
 13246 0029 14000000 		.4byte	.LVL3
 13247 002d 28000000 		.4byte	.LFE0
 13248 0031 0400     		.2byte	0x4
 13249 0033 F3       		.byte	0xf3
 13250 0034 01       		.uleb128 0x1
 13251 0035 51       		.byte	0x51
 13252 0036 9F       		.byte	0x9f
 13253 0037 00000000 		.4byte	0
 13254 003b 00000000 		.4byte	0
 13255              	.LLST2:
 13256 003f 00000000 		.4byte	.LVL0
 13257 0043 0A000000 		.4byte	.LVL1
 13258 0047 0100     		.2byte	0x1
 13259 0049 52       		.byte	0x52
 13260 004a 0A000000 		.4byte	.LVL1
 13261 004e 23000000 		.4byte	.LVL6-1
 13262 0052 0100     		.2byte	0x1
 13263 0054 53       		.byte	0x53
 13264 0055 23000000 		.4byte	.LVL6-1
 13265 0059 28000000 		.4byte	.LFE0
 13266 005d 0400     		.2byte	0x4
 13267 005f F3       		.byte	0xf3
 13268 0060 01       		.uleb128 0x1
 13269 0061 52       		.byte	0x52
 13270 0062 9F       		.byte	0x9f
 13271 0063 00000000 		.4byte	0
 13272 0067 00000000 		.4byte	0
 13273              	.LLST3:
ARM GAS  C:\Users\AHMED~1.ELE\AppData\Local\Temp\cc594ylT.s 			page 255


 13274 006b 10000000 		.4byte	.LVL2
 13275 006f 23000000 		.4byte	.LVL6-1
 13276 0073 0100     		.2byte	0x1
 13277 0075 52       		.byte	0x52
 13278 0076 00000000 		.4byte	0
 13279 007a 00000000 		.4byte	0
 13280              	.LLST4:
 13281 007e 00000000 		.4byte	.LVL9
 13282 0082 14000000 		.4byte	.LVL12
 13283 0086 0100     		.2byte	0x1
 13284 0088 50       		.byte	0x50
 13285 0089 14000000 		.4byte	.LVL12
 13286 008d 30000000 		.4byte	.LVL19
 13287 0091 0100     		.2byte	0x1
 13288 0093 55       		.byte	0x55
 13289 0094 30000000 		.4byte	.LVL19
 13290 0098 7A000000 		.4byte	.LVL27
 13291 009c 0400     		.2byte	0x4
 13292 009e F3       		.byte	0xf3
 13293 009f 01       		.uleb128 0x1
 13294 00a0 50       		.byte	0x50
 13295 00a1 9F       		.byte	0x9f
 13296 00a2 7A000000 		.4byte	.LVL27
 13297 00a6 BE000000 		.4byte	.LVL36
 13298 00aa 0100     		.2byte	0x1
 13299 00ac 55       		.byte	0x55
 13300 00ad BE000000 		.4byte	.LVL36
 13301 00b1 24010000 		.4byte	.LFE3
 13302 00b5 0400     		.2byte	0x4
 13303 00b7 F3       		.byte	0xf3
 13304 00b8 01       		.uleb128 0x1
 13305 00b9 50       		.byte	0x50
 13306 00ba 9F       		.byte	0x9f
 13307 00bb 00000000 		.4byte	0
 13308 00bf 00000000 		.4byte	0
 13309              	.LLST5:
 13310 00c3 00000000 		.4byte	.LVL9
 13311 00c7 16000000 		.4byte	.LVL13
 13312 00cb 0100     		.2byte	0x1
 13313 00cd 51       		.byte	0x51
 13314 00ce 16000000 		.4byte	.LVL13
 13315 00d2 1B000000 		.4byte	.LVL15-1
 13316 00d6 0100     		.2byte	0x1
 13317 00d8 52       		.byte	0x52
 13318 00d9 1B000000 		.4byte	.LVL15-1
 13319 00dd A4000000 		.4byte	.LVL34
 13320 00e1 0100     		.2byte	0x1
 13321 00e3 56       		.byte	0x56
 13322 00e4 A4000000 		.4byte	.LVL34
 13323 00e8 24010000 		.4byte	.LFE3
 13324 00ec 0400     		.2byte	0x4
 13325 00ee F3       		.byte	0xf3
 13326 00ef 01       		.uleb128 0x1
 13327 00f0 51       		.byte	0x51
 13328 00f1 9F       		.byte	0x9f
 13329 00f2 00000000 		.4byte	0
 13330 00f6 00000000 		.4byte	0
ARM GAS  C:\Users\AHMED~1.ELE\AppData\Local\Temp\cc594ylT.s 			page 256


 13331              	.LLST6:
 13332 00fa 00000000 		.4byte	.LVL9
 13333 00fe 0E000000 		.4byte	.LVL11
 13334 0102 0100     		.2byte	0x1
 13335 0104 52       		.byte	0x52
 13336 0105 0E000000 		.4byte	.LVL11
 13337 0109 1C010000 		.4byte	.LVL51
 13338 010d 0100     		.2byte	0x1
 13339 010f 58       		.byte	0x58
 13340 0110 1C010000 		.4byte	.LVL51
 13341 0114 24010000 		.4byte	.LFE3
 13342 0118 0400     		.2byte	0x4
 13343 011a F3       		.byte	0xf3
 13344 011b 01       		.uleb128 0x1
 13345 011c 52       		.byte	0x52
 13346 011d 9F       		.byte	0x9f
 13347 011e 00000000 		.4byte	0
 13348 0122 00000000 		.4byte	0
 13349              	.LLST7:
 13350 0126 00000000 		.4byte	.LVL9
 13351 012a 18000000 		.4byte	.LVL14
 13352 012e 0100     		.2byte	0x1
 13353 0130 53       		.byte	0x53
 13354 0131 18000000 		.4byte	.LVL14
 13355 0135 D8000000 		.4byte	.LVL40
 13356 0139 0100     		.2byte	0x1
 13357 013b 59       		.byte	0x59
 13358 013c D8000000 		.4byte	.LVL40
 13359 0140 0C010000 		.4byte	.LVL49
 13360 0144 0500     		.2byte	0x5
 13361 0146 79       		.byte	0x79
 13362 0147 00       		.sleb128 0
 13363 0148 31       		.byte	0x31
 13364 0149 25       		.byte	0x25
 13365 014a 9F       		.byte	0x9f
 13366 014b 00000000 		.4byte	0
 13367 014f 00000000 		.4byte	0
 13368              	.LLST8:
 13369 0153 1C000000 		.4byte	.LVL15
 13370 0157 24000000 		.4byte	.LVL16
 13371 015b 0100     		.2byte	0x1
 13372 015d 50       		.byte	0x50
 13373 015e 24000000 		.4byte	.LVL16
 13374 0162 27000000 		.4byte	.LVL17-1
 13375 0166 0100     		.2byte	0x1
 13376 0168 52       		.byte	0x52
 13377 0169 7A000000 		.4byte	.LVL27
 13378 016d 84000000 		.4byte	.LVL28
 13379 0171 0100     		.2byte	0x1
 13380 0173 50       		.byte	0x50
 13381 0174 8A000000 		.4byte	.LVL30
 13382 0178 8C000000 		.4byte	.LVL31
 13383 017c 0100     		.2byte	0x1
 13384 017e 50       		.byte	0x50
 13385 017f 8C000000 		.4byte	.LVL31
 13386 0183 91000000 		.4byte	.LVL32-1
 13387 0187 0100     		.2byte	0x1
ARM GAS  C:\Users\AHMED~1.ELE\AppData\Local\Temp\cc594ylT.s 			page 257


 13388 0189 52       		.byte	0x52
 13389 018a 00000000 		.4byte	0
 13390 018e 00000000 		.4byte	0
 13391              	.LLST9:
 13392 0192 92000000 		.4byte	.LVL32
 13393 0196 9F000000 		.4byte	.LVL33-1
 13394 019a 0100     		.2byte	0x1
 13395 019c 50       		.byte	0x50
 13396 019d 9F000000 		.4byte	.LVL33-1
 13397 01a1 14010000 		.4byte	.LVL50
 13398 01a5 0100     		.2byte	0x1
 13399 01a7 54       		.byte	0x54
 13400 01a8 00000000 		.4byte	0
 13401 01ac 00000000 		.4byte	0
 13402              	.LLST10:
 13403 01b0 0A000000 		.4byte	.LVL10
 13404 01b4 BC000000 		.4byte	.LVL35
 13405 01b8 0200     		.2byte	0x2
 13406 01ba 30       		.byte	0x30
 13407 01bb 9F       		.byte	0x9f
 13408 01bc BC000000 		.4byte	.LVL35
 13409 01c0 0C010000 		.4byte	.LVL49
 13410 01c4 0100     		.2byte	0x1
 13411 01c6 56       		.byte	0x56
 13412 01c7 00000000 		.4byte	0
 13413 01cb 00000000 		.4byte	0
 13414              	.LLST11:
 13415 01cf 30000000 		.4byte	.LVL19
 13416 01d3 34000000 		.4byte	.LVL20
 13417 01d7 0100     		.2byte	0x1
 13418 01d9 50       		.byte	0x50
 13419 01da 34000000 		.4byte	.LVL20
 13420 01de 7A000000 		.4byte	.LVL27
 13421 01e2 0100     		.2byte	0x1
 13422 01e4 55       		.byte	0x55
 13423 01e5 00000000 		.4byte	0
 13424 01e9 00000000 		.4byte	0
 13425              	.LLST12:
 13426 01ed 38000000 		.4byte	.LVL21
 13427 01f1 43000000 		.4byte	.LVL22-1
 13428 01f5 0100     		.2byte	0x1
 13429 01f7 50       		.byte	0x50
 13430 01f8 43000000 		.4byte	.LVL22-1
 13431 01fc 66000000 		.4byte	.LVL25
 13432 0200 0100     		.2byte	0x1
 13433 0202 54       		.byte	0x54
 13434 0203 00000000 		.4byte	0
 13435 0207 00000000 		.4byte	0
 13436              	.LLST13:
 13437 020b CE000000 		.4byte	.LVL38
 13438 020f 0C010000 		.4byte	.LVL49
 13439 0213 0100     		.2byte	0x1
 13440 0215 57       		.byte	0x57
 13441 0216 00000000 		.4byte	0
 13442 021a 00000000 		.4byte	0
 13443              	.LLST14:
 13444 021e CE000000 		.4byte	.LVL38
ARM GAS  C:\Users\AHMED~1.ELE\AppData\Local\Temp\cc594ylT.s 			page 258


 13445 0222 D8000000 		.4byte	.LVL40
 13446 0226 0100     		.2byte	0x1
 13447 0228 50       		.byte	0x50
 13448 0229 00000000 		.4byte	0
 13449 022d 00000000 		.4byte	0
 13450              	.LLST15:
 13451 0231 D4000000 		.4byte	.LVL39
 13452 0235 06010000 		.4byte	.LVL47
 13453 0239 0100     		.2byte	0x1
 13454 023b 51       		.byte	0x51
 13455 023c 00000000 		.4byte	0
 13456 0240 00000000 		.4byte	0
 13457              	.LLST16:
 13458 0244 D8000000 		.4byte	.LVL40
 13459 0248 04010000 		.4byte	.LVL46
 13460 024c 0100     		.2byte	0x1
 13461 024e 50       		.byte	0x50
 13462 024f 00000000 		.4byte	0
 13463 0253 00000000 		.4byte	0
 13464              	.LLST17:
 13465 0257 D8000000 		.4byte	.LVL40
 13466 025b 08010000 		.4byte	.LVL48
 13467 025f 0100     		.2byte	0x1
 13468 0261 52       		.byte	0x52
 13469 0262 00000000 		.4byte	0
 13470 0266 00000000 		.4byte	0
 13471              	.LLST18:
 13472 026a E0000000 		.4byte	.LVL41
 13473 026e FA000000 		.4byte	.LVL42
 13474 0272 0100     		.2byte	0x1
 13475 0274 53       		.byte	0x53
 13476 0275 FA000000 		.4byte	.LVL42
 13477 0279 FC000000 		.4byte	.LVL43
 13478 027d 0300     		.2byte	0x3
 13479 027f 73       		.byte	0x73
 13480 0280 7F       		.sleb128 -1
 13481 0281 9F       		.byte	0x9f
 13482 0282 FC000000 		.4byte	.LVL43
 13483 0286 02010000 		.4byte	.LVL45
 13484 028a 0100     		.2byte	0x1
 13485 028c 53       		.byte	0x53
 13486 028d 00000000 		.4byte	0
 13487 0291 00000000 		.4byte	0
 13488              	.LLST19:
 13489 0295 00000000 		.4byte	.LVL52
 13490 0299 10000000 		.4byte	.LVL54
 13491 029d 0100     		.2byte	0x1
 13492 029f 50       		.byte	0x50
 13493 02a0 10000000 		.4byte	.LVL54
 13494 02a4 4C000000 		.4byte	.LVL67
 13495 02a8 0100     		.2byte	0x1
 13496 02aa 55       		.byte	0x55
 13497 02ab 4C000000 		.4byte	.LVL67
 13498 02af 8A000000 		.4byte	.LVL73
 13499 02b3 0400     		.2byte	0x4
 13500 02b5 F3       		.byte	0xf3
 13501 02b6 01       		.uleb128 0x1
ARM GAS  C:\Users\AHMED~1.ELE\AppData\Local\Temp\cc594ylT.s 			page 259


 13502 02b7 50       		.byte	0x50
 13503 02b8 9F       		.byte	0x9f
 13504 02b9 8A000000 		.4byte	.LVL73
 13505 02bd CE000000 		.4byte	.LVL80
 13506 02c1 0100     		.2byte	0x1
 13507 02c3 55       		.byte	0x55
 13508 02c4 CE000000 		.4byte	.LVL80
 13509 02c8 40010000 		.4byte	.LFE1
 13510 02cc 0400     		.2byte	0x4
 13511 02ce F3       		.byte	0xf3
 13512 02cf 01       		.uleb128 0x1
 13513 02d0 50       		.byte	0x50
 13514 02d1 9F       		.byte	0x9f
 13515 02d2 00000000 		.4byte	0
 13516 02d6 00000000 		.4byte	0
 13517              	.LLST20:
 13518 02da 00000000 		.4byte	.LVL52
 13519 02de 10000000 		.4byte	.LVL54
 13520 02e2 0100     		.2byte	0x1
 13521 02e4 51       		.byte	0x51
 13522 02e5 10000000 		.4byte	.LVL54
 13523 02e9 42000000 		.4byte	.LVL64
 13524 02ed 0100     		.2byte	0x1
 13525 02ef 56       		.byte	0x56
 13526 02f0 42000000 		.4byte	.LVL64
 13527 02f4 8A000000 		.4byte	.LVL73
 13528 02f8 0400     		.2byte	0x4
 13529 02fa F3       		.byte	0xf3
 13530 02fb 01       		.uleb128 0x1
 13531 02fc 51       		.byte	0x51
 13532 02fd 9F       		.byte	0x9f
 13533 02fe 8A000000 		.4byte	.LVL73
 13534 0302 B4000000 		.4byte	.LVL78
 13535 0306 0100     		.2byte	0x1
 13536 0308 56       		.byte	0x56
 13537 0309 B4000000 		.4byte	.LVL78
 13538 030d 40010000 		.4byte	.LFE1
 13539 0311 0400     		.2byte	0x4
 13540 0313 F3       		.byte	0xf3
 13541 0314 01       		.uleb128 0x1
 13542 0315 51       		.byte	0x51
 13543 0316 9F       		.byte	0x9f
 13544 0317 00000000 		.4byte	0
 13545 031b 00000000 		.4byte	0
 13546              	.LLST21:
 13547 031f 00000000 		.4byte	.LVL52
 13548 0323 10000000 		.4byte	.LVL54
 13549 0327 0100     		.2byte	0x1
 13550 0329 52       		.byte	0x52
 13551 032a 10000000 		.4byte	.LVL54
 13552 032e 32010000 		.4byte	.LVL95
 13553 0332 0100     		.2byte	0x1
 13554 0334 57       		.byte	0x57
 13555 0335 32010000 		.4byte	.LVL95
 13556 0339 40010000 		.4byte	.LFE1
 13557 033d 0400     		.2byte	0x4
 13558 033f F3       		.byte	0xf3
ARM GAS  C:\Users\AHMED~1.ELE\AppData\Local\Temp\cc594ylT.s 			page 260


 13559 0340 01       		.uleb128 0x1
 13560 0341 52       		.byte	0x52
 13561 0342 9F       		.byte	0x9f
 13562 0343 00000000 		.4byte	0
 13563 0347 00000000 		.4byte	0
 13564              	.LLST22:
 13565 034b 00000000 		.4byte	.LVL52
 13566 034f 10000000 		.4byte	.LVL54
 13567 0353 0100     		.2byte	0x1
 13568 0355 53       		.byte	0x53
 13569 0356 10000000 		.4byte	.LVL54
 13570 035a E6000000 		.4byte	.LVL84
 13571 035e 0100     		.2byte	0x1
 13572 0360 58       		.byte	0x58
 13573 0361 E6000000 		.4byte	.LVL84
 13574 0365 1E010000 		.4byte	.LVL93
 13575 0369 0500     		.2byte	0x5
 13576 036b 78       		.byte	0x78
 13577 036c 00       		.sleb128 0
 13578 036d 31       		.byte	0x31
 13579 036e 25       		.byte	0x25
 13580 036f 9F       		.byte	0x9f
 13581 0370 00000000 		.4byte	0
 13582 0374 00000000 		.4byte	0
 13583              	.LLST23:
 13584 0378 24000000 		.4byte	.LVL57
 13585 037c 2C000000 		.4byte	.LVL58
 13586 0380 0100     		.2byte	0x1
 13587 0382 50       		.byte	0x50
 13588 0383 2C000000 		.4byte	.LVL58
 13589 0387 2F000000 		.4byte	.LVL59-1
 13590 038b 0100     		.2byte	0x1
 13591 038d 52       		.byte	0x52
 13592 038e 32000000 		.4byte	.LVL60
 13593 0392 36000000 		.4byte	.LVL61
 13594 0396 0100     		.2byte	0x1
 13595 0398 50       		.byte	0x50
 13596 0399 36000000 		.4byte	.LVL61
 13597 039d 39000000 		.4byte	.LVL62-1
 13598 03a1 0100     		.2byte	0x1
 13599 03a3 52       		.byte	0x52
 13600 03a4 00000000 		.4byte	0
 13601 03a8 00000000 		.4byte	0
 13602              	.LLST24:
 13603 03ac A2000000 		.4byte	.LVL75
 13604 03b0 AF000000 		.4byte	.LVL77-1
 13605 03b4 0100     		.2byte	0x1
 13606 03b6 50       		.byte	0x50
 13607 03b7 AF000000 		.4byte	.LVL77-1
 13608 03bb 26010000 		.4byte	.LVL94
 13609 03bf 0100     		.2byte	0x1
 13610 03c1 54       		.byte	0x54
 13611 03c2 00000000 		.4byte	0
 13612 03c6 00000000 		.4byte	0
 13613              	.LLST25:
 13614 03ca 0C000000 		.4byte	.LVL53
 13615 03ce CC000000 		.4byte	.LVL79
ARM GAS  C:\Users\AHMED~1.ELE\AppData\Local\Temp\cc594ylT.s 			page 261


 13616 03d2 0200     		.2byte	0x2
 13617 03d4 30       		.byte	0x30
 13618 03d5 9F       		.byte	0x9f
 13619 03d6 CC000000 		.4byte	.LVL79
 13620 03da 1E010000 		.4byte	.LVL93
 13621 03de 0100     		.2byte	0x1
 13622 03e0 56       		.byte	0x56
 13623 03e1 00000000 		.4byte	0
 13624 03e5 00000000 		.4byte	0
 13625              	.LLST26:
 13626 03e9 0C000000 		.4byte	.LVL53
 13627 03ed 10000000 		.4byte	.LVL54
 13628 03f1 0200     		.2byte	0x2
 13629 03f3 33       		.byte	0x33
 13630 03f4 9F       		.byte	0x9f
 13631 03f5 10000000 		.4byte	.LVL54
 13632 03f9 14000000 		.4byte	.LVL55
 13633 03fd 0100     		.2byte	0x1
 13634 03ff 54       		.byte	0x54
 13635 0400 14000000 		.4byte	.LVL55
 13636 0404 16000000 		.4byte	.LVL56
 13637 0408 0300     		.2byte	0x3
 13638 040a 74       		.byte	0x74
 13639 040b 01       		.sleb128 1
 13640 040c 9F       		.byte	0x9f
 13641 040d 16000000 		.4byte	.LVL56
 13642 0411 76000000 		.4byte	.LVL71
 13643 0415 0100     		.2byte	0x1
 13644 0417 54       		.byte	0x54
 13645 0418 8A000000 		.4byte	.LVL73
 13646 041c A4000000 		.4byte	.LVL76
 13647 0420 0300     		.2byte	0x3
 13648 0422 74       		.byte	0x74
 13649 0423 01       		.sleb128 1
 13650 0424 9F       		.byte	0x9f
 13651 0425 00000000 		.4byte	0
 13652 0429 00000000 		.4byte	0
 13653              	.LLST27:
 13654 042d 42000000 		.4byte	.LVL64
 13655 0431 46000000 		.4byte	.LVL65
 13656 0435 0100     		.2byte	0x1
 13657 0437 50       		.byte	0x50
 13658 0438 46000000 		.4byte	.LVL65
 13659 043c 8A000000 		.4byte	.LVL73
 13660 0440 0100     		.2byte	0x1
 13661 0442 56       		.byte	0x56
 13662 0443 00000000 		.4byte	0
 13663 0447 00000000 		.4byte	0
 13664              	.LLST28:
 13665 044b 4A000000 		.4byte	.LVL66
 13666 044f 55000000 		.4byte	.LVL68-1
 13667 0453 0100     		.2byte	0x1
 13668 0455 50       		.byte	0x50
 13669 0456 55000000 		.4byte	.LVL68-1
 13670 045a 8A000000 		.4byte	.LVL73
 13671 045e 0100     		.2byte	0x1
 13672 0460 55       		.byte	0x55
ARM GAS  C:\Users\AHMED~1.ELE\AppData\Local\Temp\cc594ylT.s 			page 262


 13673 0461 00000000 		.4byte	0
 13674 0465 00000000 		.4byte	0
 13675              	.LLST29:
 13676 0469 DC000000 		.4byte	.LVL82
 13677 046d 1E010000 		.4byte	.LVL93
 13678 0471 0100     		.2byte	0x1
 13679 0473 59       		.byte	0x59
 13680 0474 00000000 		.4byte	0
 13681 0478 00000000 		.4byte	0
 13682              	.LLST30:
 13683 047c DC000000 		.4byte	.LVL82
 13684 0480 E6000000 		.4byte	.LVL84
 13685 0484 0100     		.2byte	0x1
 13686 0486 50       		.byte	0x50
 13687 0487 00000000 		.4byte	0
 13688 048b 00000000 		.4byte	0
 13689              	.LLST31:
 13690 048f E2000000 		.4byte	.LVL83
 13691 0493 18010000 		.4byte	.LVL91
 13692 0497 0100     		.2byte	0x1
 13693 0499 51       		.byte	0x51
 13694 049a 00000000 		.4byte	0
 13695 049e 00000000 		.4byte	0
 13696              	.LLST32:
 13697 04a2 E6000000 		.4byte	.LVL84
 13698 04a6 16010000 		.4byte	.LVL90
 13699 04aa 0100     		.2byte	0x1
 13700 04ac 50       		.byte	0x50
 13701 04ad 00000000 		.4byte	0
 13702 04b1 00000000 		.4byte	0
 13703              	.LLST33:
 13704 04b5 E6000000 		.4byte	.LVL84
 13705 04b9 1A010000 		.4byte	.LVL92
 13706 04bd 0100     		.2byte	0x1
 13707 04bf 52       		.byte	0x52
 13708 04c0 00000000 		.4byte	0
 13709 04c4 00000000 		.4byte	0
 13710              	.LLST34:
 13711 04c8 EE000000 		.4byte	.LVL85
 13712 04cc 0A010000 		.4byte	.LVL86
 13713 04d0 0100     		.2byte	0x1
 13714 04d2 53       		.byte	0x53
 13715 04d3 0A010000 		.4byte	.LVL86
 13716 04d7 0E010000 		.4byte	.LVL87
 13717 04db 0300     		.2byte	0x3
 13718 04dd 73       		.byte	0x73
 13719 04de 7F       		.sleb128 -1
 13720 04df 9F       		.byte	0x9f
 13721 04e0 0E010000 		.4byte	.LVL87
 13722 04e4 14010000 		.4byte	.LVL89
 13723 04e8 0100     		.2byte	0x1
 13724 04ea 53       		.byte	0x53
 13725 04eb 00000000 		.4byte	0
 13726 04ef 00000000 		.4byte	0
 13727              	.LLST35:
 13728 04f3 00000000 		.4byte	.LVL100
 13729 04f7 10000000 		.4byte	.LVL101
ARM GAS  C:\Users\AHMED~1.ELE\AppData\Local\Temp\cc594ylT.s 			page 263


 13730 04fb 0100     		.2byte	0x1
 13731 04fd 50       		.byte	0x50
 13732 04fe 10000000 		.4byte	.LVL101
 13733 0502 54000000 		.4byte	.LFE11
 13734 0506 0400     		.2byte	0x4
 13735 0508 F3       		.byte	0xf3
 13736 0509 01       		.uleb128 0x1
 13737 050a 50       		.byte	0x50
 13738 050b 9F       		.byte	0x9f
 13739 050c 00000000 		.4byte	0
 13740 0510 00000000 		.4byte	0
 13741              	.LLST36:
 13742 0514 00000000 		.4byte	.LVL100
 13743 0518 3C000000 		.4byte	.LVL104
 13744 051c 0200     		.2byte	0x2
 13745 051e 30       		.byte	0x30
 13746 051f 9F       		.byte	0x9f
 13747 0520 3C000000 		.4byte	.LVL104
 13748 0524 45000000 		.4byte	.LVL105-1
 13749 0528 0100     		.2byte	0x1
 13750 052a 50       		.byte	0x50
 13751 052b 00000000 		.4byte	0
 13752 052f 00000000 		.4byte	0
 13753              	.LLST37:
 13754 0533 00000000 		.4byte	.LVL106
 13755 0537 58000000 		.4byte	.LVL119
 13756 053b 0100     		.2byte	0x1
 13757 053d 50       		.byte	0x50
 13758 053e 58000000 		.4byte	.LVL119
 13759 0542 5A000000 		.4byte	.LFE6
 13760 0546 0400     		.2byte	0x4
 13761 0548 F3       		.byte	0xf3
 13762 0549 01       		.uleb128 0x1
 13763 054a 50       		.byte	0x50
 13764 054b 9F       		.byte	0x9f
 13765 054c 00000000 		.4byte	0
 13766 0550 00000000 		.4byte	0
 13767              	.LLST38:
 13768 0554 00000000 		.4byte	.LVL106
 13769 0558 0A000000 		.4byte	.LVL107
 13770 055c 0100     		.2byte	0x1
 13771 055e 51       		.byte	0x51
 13772 055f 0A000000 		.4byte	.LVL107
 13773 0563 5A000000 		.4byte	.LFE6
 13774 0567 0400     		.2byte	0x4
 13775 0569 F3       		.byte	0xf3
 13776 056a 01       		.uleb128 0x1
 13777 056b 51       		.byte	0x51
 13778 056c 9F       		.byte	0x9f
 13779 056d 00000000 		.4byte	0
 13780 0571 00000000 		.4byte	0
 13781              	.LLST39:
 13782 0575 2A000000 		.4byte	.LVL111
 13783 0579 3C000000 		.4byte	.LVL112
 13784 057d 0100     		.2byte	0x1
 13785 057f 57       		.byte	0x57
 13786 0580 3C000000 		.4byte	.LVL112
ARM GAS  C:\Users\AHMED~1.ELE\AppData\Local\Temp\cc594ylT.s 			page 264


 13787 0584 40000000 		.4byte	.LVL113
 13788 0588 0300     		.2byte	0x3
 13789 058a 77       		.byte	0x77
 13790 058b 7F       		.sleb128 -1
 13791 058c 9F       		.byte	0x9f
 13792 058d 40000000 		.4byte	.LVL113
 13793 0591 56000000 		.4byte	.LVL118
 13794 0595 0100     		.2byte	0x1
 13795 0597 57       		.byte	0x57
 13796 0598 00000000 		.4byte	0
 13797 059c 00000000 		.4byte	0
 13798              	.LLST40:
 13799 05a0 1C000000 		.4byte	.LVL108
 13800 05a4 50000000 		.4byte	.LVL115
 13801 05a8 0100     		.2byte	0x1
 13802 05aa 5C       		.byte	0x5c
 13803 05ab 50000000 		.4byte	.LVL115
 13804 05af 52000000 		.4byte	.LVL116
 13805 05b3 0300     		.2byte	0x3
 13806 05b5 7C       		.byte	0x7c
 13807 05b6 7E       		.sleb128 -2
 13808 05b7 9F       		.byte	0x9f
 13809 05b8 52000000 		.4byte	.LVL116
 13810 05bc 5A000000 		.4byte	.LFE6
 13811 05c0 0100     		.2byte	0x1
 13812 05c2 5C       		.byte	0x5c
 13813 05c3 00000000 		.4byte	0
 13814 05c7 00000000 		.4byte	0
 13815              	.LLST41:
 13816 05cb 40000000 		.4byte	.LVL113
 13817 05cf 4A000000 		.4byte	.LVL114
 13818 05d3 0600     		.2byte	0x6
 13819 05d5 74       		.byte	0x74
 13820 05d6 00       		.sleb128 0
 13821 05d7 08       		.byte	0x8
 13822 05d8 FF       		.byte	0xff
 13823 05d9 1A       		.byte	0x1a
 13824 05da 9F       		.byte	0x9f
 13825 05db 4A000000 		.4byte	.LVL114
 13826 05df 50000000 		.4byte	.LVL115
 13827 05e3 1600     		.2byte	0x16
 13828 05e5 71       		.byte	0x71
 13829 05e6 00       		.sleb128 0
 13830 05e7 72       		.byte	0x72
 13831 05e8 00       		.sleb128 0
 13832 05e9 22       		.byte	0x22
 13833 05ea 73       		.byte	0x73
 13834 05eb 00       		.sleb128 0
 13835 05ec 22       		.byte	0x22
 13836 05ed 76       		.byte	0x76
 13837 05ee 00       		.sleb128 0
 13838 05ef 22       		.byte	0x22
 13839 05f0 7E       		.byte	0x7e
 13840 05f1 00       		.sleb128 0
 13841 05f2 1C       		.byte	0x1c
 13842 05f3 94       		.byte	0x94
 13843 05f4 01       		.byte	0x1
ARM GAS  C:\Users\AHMED~1.ELE\AppData\Local\Temp\cc594ylT.s 			page 265


 13844 05f5 33       		.byte	0x33
 13845 05f6 25       		.byte	0x25
 13846 05f7 08       		.byte	0x8
 13847 05f8 FF       		.byte	0xff
 13848 05f9 1A       		.byte	0x1a
 13849 05fa 9F       		.byte	0x9f
 13850 05fb 00000000 		.4byte	0
 13851 05ff 00000000 		.4byte	0
 13852              	.LLST42:
 13853 0603 00000000 		.4byte	.LVL120
 13854 0607 0C000000 		.4byte	.LVL121
 13855 060b 0100     		.2byte	0x1
 13856 060d 50       		.byte	0x50
 13857 060e 0C000000 		.4byte	.LVL121
 13858 0612 90000000 		.4byte	.LVL132
 13859 0616 0100     		.2byte	0x1
 13860 0618 57       		.byte	0x57
 13861 0619 90000000 		.4byte	.LVL132
 13862 061d 98000000 		.4byte	.LFE7
 13863 0621 0400     		.2byte	0x4
 13864 0623 F3       		.byte	0xf3
 13865 0624 01       		.uleb128 0x1
 13866 0625 50       		.byte	0x50
 13867 0626 9F       		.byte	0x9f
 13868 0627 00000000 		.4byte	0
 13869 062b 00000000 		.4byte	0
 13870              	.LLST43:
 13871 062f 00000000 		.4byte	.LVL120
 13872 0633 0E000000 		.4byte	.LVL122
 13873 0637 0100     		.2byte	0x1
 13874 0639 51       		.byte	0x51
 13875 063a 0E000000 		.4byte	.LVL122
 13876 063e 90000000 		.4byte	.LVL132
 13877 0642 0100     		.2byte	0x1
 13878 0644 58       		.byte	0x58
 13879 0645 90000000 		.4byte	.LVL132
 13880 0649 98000000 		.4byte	.LFE7
 13881 064d 0400     		.2byte	0x4
 13882 064f F3       		.byte	0xf3
 13883 0650 01       		.uleb128 0x1
 13884 0651 51       		.byte	0x51
 13885 0652 9F       		.byte	0x9f
 13886 0653 00000000 		.4byte	0
 13887 0657 00000000 		.4byte	0
 13888              	.LLST44:
 13889 065b 1C000000 		.4byte	.LVL124
 13890 065f 1F000000 		.4byte	.LVL125-1
 13891 0663 0100     		.2byte	0x1
 13892 0665 50       		.byte	0x50
 13893 0666 1F000000 		.4byte	.LVL125-1
 13894 066a 90000000 		.4byte	.LVL132
 13895 066e 0100     		.2byte	0x1
 13896 0670 54       		.byte	0x54
 13897 0671 90000000 		.4byte	.LVL132
 13898 0675 93000000 		.4byte	.LVL133-1
 13899 0679 0100     		.2byte	0x1
 13900 067b 51       		.byte	0x51
ARM GAS  C:\Users\AHMED~1.ELE\AppData\Local\Temp\cc594ylT.s 			page 266


 13901 067c 00000000 		.4byte	0
 13902 0680 00000000 		.4byte	0
 13903              	.LLST45:
 13904 0684 00000000 		.4byte	.LVL134
 13905 0688 76000000 		.4byte	.LVL145
 13906 068c 0200     		.2byte	0x2
 13907 068e 30       		.byte	0x30
 13908 068f 9F       		.byte	0x9f
 13909 0690 76000000 		.4byte	.LVL145
 13910 0694 12030000 		.4byte	.LVL221
 13911 0698 0400     		.2byte	0x4
 13912 069a 91       		.byte	0x91
 13913 069b BC7B     		.sleb128 -580
 13914 069d 9F       		.byte	0x9f
 13915 069e 12030000 		.4byte	.LVL221
 13916 06a2 19030000 		.4byte	.LVL222-1
 13917 06a6 0100     		.2byte	0x1
 13918 06a8 51       		.byte	0x51
 13919 06a9 19030000 		.4byte	.LVL222-1
 13920 06ad 6A030000 		.4byte	.LVL228
 13921 06b1 0400     		.2byte	0x4
 13922 06b3 91       		.byte	0x91
 13923 06b4 BC7B     		.sleb128 -580
 13924 06b6 9F       		.byte	0x9f
 13925 06b7 6A030000 		.4byte	.LVL228
 13926 06bb 6F030000 		.4byte	.LVL229-1
 13927 06bf 0100     		.2byte	0x1
 13928 06c1 51       		.byte	0x51
 13929 06c2 6F030000 		.4byte	.LVL229-1
 13930 06c6 1C060000 		.4byte	.LVL308
 13931 06ca 0400     		.2byte	0x4
 13932 06cc 91       		.byte	0x91
 13933 06cd BC7B     		.sleb128 -580
 13934 06cf 9F       		.byte	0x9f
 13935 06d0 00000000 		.4byte	0
 13936 06d4 00000000 		.4byte	0
 13937              	.LLST46:
 13938 06d8 00000000 		.4byte	.LVL134
 13939 06dc F2000000 		.4byte	.LVL157
 13940 06e0 0200     		.2byte	0x2
 13941 06e2 30       		.byte	0x30
 13942 06e3 9F       		.byte	0x9f
 13943 06e4 F2000000 		.4byte	.LVL157
 13944 06e8 F4000000 		.4byte	.LVL158
 13945 06ec 0100     		.2byte	0x1
 13946 06ee 50       		.byte	0x50
 13947 06ef F4000000 		.4byte	.LVL158
 13948 06f3 1C060000 		.4byte	.LVL308
 13949 06f7 0100     		.2byte	0x1
 13950 06f9 5B       		.byte	0x5b
 13951 06fa 00000000 		.4byte	0
 13952 06fe 00000000 		.4byte	0
 13953              	.LLST47:
 13954 0702 00000000 		.4byte	.LVL134
 13955 0706 00010000 		.4byte	.LVL161
 13956 070a 0200     		.2byte	0x2
 13957 070c 30       		.byte	0x30
ARM GAS  C:\Users\AHMED~1.ELE\AppData\Local\Temp\cc594ylT.s 			page 267


 13958 070d 9F       		.byte	0x9f
 13959 070e 00010000 		.4byte	.LVL161
 13960 0712 02010000 		.4byte	.LVL162
 13961 0716 0100     		.2byte	0x1
 13962 0718 50       		.byte	0x50
 13963 0719 02010000 		.4byte	.LVL162
 13964 071d 1C060000 		.4byte	.LVL308
 13965 0721 0100     		.2byte	0x1
 13966 0723 55       		.byte	0x55
 13967 0724 00000000 		.4byte	0
 13968 0728 00000000 		.4byte	0
 13969              	.LLST48:
 13970 072c 00000000 		.4byte	.LVL134
 13971 0730 0C010000 		.4byte	.LVL164
 13972 0734 0200     		.2byte	0x2
 13973 0736 30       		.byte	0x30
 13974 0737 9F       		.byte	0x9f
 13975 0738 0C010000 		.4byte	.LVL164
 13976 073c 0E010000 		.4byte	.LVL165
 13977 0740 0100     		.2byte	0x1
 13978 0742 50       		.byte	0x50
 13979 0743 0E010000 		.4byte	.LVL165
 13980 0747 1C060000 		.4byte	.LVL308
 13981 074b 0100     		.2byte	0x1
 13982 074d 56       		.byte	0x56
 13983 074e 00000000 		.4byte	0
 13984 0752 00000000 		.4byte	0
 13985              	.LLST49:
 13986 0756 00000000 		.4byte	.LVL134
 13987 075a 16010000 		.4byte	.LVL167
 13988 075e 0200     		.2byte	0x2
 13989 0760 30       		.byte	0x30
 13990 0761 9F       		.byte	0x9f
 13991 0762 16010000 		.4byte	.LVL167
 13992 0766 18010000 		.4byte	.LVL168
 13993 076a 0100     		.2byte	0x1
 13994 076c 50       		.byte	0x50
 13995 076d 18010000 		.4byte	.LVL168
 13996 0771 1C060000 		.4byte	.LVL308
 13997 0775 0100     		.2byte	0x1
 13998 0777 58       		.byte	0x58
 13999 0778 00000000 		.4byte	0
 14000 077c 00000000 		.4byte	0
 14001              	.LLST50:
 14002 0780 00000000 		.4byte	.LVL134
 14003 0784 24010000 		.4byte	.LVL170
 14004 0788 0200     		.2byte	0x2
 14005 078a 30       		.byte	0x30
 14006 078b 9F       		.byte	0x9f
 14007 078c 24010000 		.4byte	.LVL170
 14008 0790 1C060000 		.4byte	.LVL308
 14009 0794 0300     		.2byte	0x3
 14010 0796 91       		.byte	0x91
 14011 0797 AC7B     		.sleb128 -596
 14012 0799 00000000 		.4byte	0
 14013 079d 00000000 		.4byte	0
 14014              	.LLST51:
ARM GAS  C:\Users\AHMED~1.ELE\AppData\Local\Temp\cc594ylT.s 			page 268


 14015 07a1 2E010000 		.4byte	.LVL171
 14016 07a5 31010000 		.4byte	.LVL172-1
 14017 07a9 0100     		.2byte	0x1
 14018 07ab 5C       		.byte	0x5c
 14019 07ac 31010000 		.4byte	.LVL172-1
 14020 07b0 10040000 		.4byte	.LVL253
 14021 07b4 0300     		.2byte	0x3
 14022 07b6 91       		.byte	0x91
 14023 07b7 B47B     		.sleb128 -588
 14024 07b9 66040000 		.4byte	.LVL262
 14025 07bd 6A040000 		.4byte	.LVL263
 14026 07c1 0100     		.2byte	0x1
 14027 07c3 50       		.byte	0x50
 14028 07c4 6A040000 		.4byte	.LVL263
 14029 07c8 74040000 		.4byte	.LVL265
 14030 07cc 0300     		.2byte	0x3
 14031 07ce 91       		.byte	0x91
 14032 07cf B47B     		.sleb128 -588
 14033 07d1 80040000 		.4byte	.LVL267
 14034 07d5 86040000 		.4byte	.LVL268
 14035 07d9 0100     		.2byte	0x1
 14036 07db 50       		.byte	0x50
 14037 07dc 72050000 		.4byte	.LVL289
 14038 07e0 7C050000 		.4byte	.LVL290
 14039 07e4 0100     		.2byte	0x1
 14040 07e6 5C       		.byte	0x5c
 14041 07e7 00000000 		.4byte	0
 14042 07eb 00000000 		.4byte	0
 14043              	.LLST52:
 14044 07ef 76000000 		.4byte	.LVL145
 14045 07f3 24010000 		.4byte	.LVL170
 14046 07f7 0200     		.2byte	0x2
 14047 07f9 30       		.byte	0x30
 14048 07fa 9F       		.byte	0x9f
 14049 07fb 2E010000 		.4byte	.LVL171
 14050 07ff 78010000 		.4byte	.LVL175
 14051 0803 0100     		.2byte	0x1
 14052 0805 57       		.byte	0x57
 14053 0806 78010000 		.4byte	.LVL175
 14054 080a B6010000 		.4byte	.LVL182
 14055 080e 0200     		.2byte	0x2
 14056 0810 32       		.byte	0x32
 14057 0811 9F       		.byte	0x9f
 14058 0812 B6010000 		.4byte	.LVL182
 14059 0816 F4010000 		.4byte	.LVL189
 14060 081a 0200     		.2byte	0x2
 14061 081c 31       		.byte	0x31
 14062 081d 9F       		.byte	0x9f
 14063 081e F4010000 		.4byte	.LVL189
 14064 0822 32020000 		.4byte	.LVL196
 14065 0826 0200     		.2byte	0x2
 14066 0828 30       		.byte	0x30
 14067 0829 9F       		.byte	0x9f
 14068 082a 32020000 		.4byte	.LVL196
 14069 082e 72020000 		.4byte	.LVL203
 14070 0832 0400     		.2byte	0x4
 14071 0834 0A       		.byte	0xa
ARM GAS  C:\Users\AHMED~1.ELE\AppData\Local\Temp\cc594ylT.s 			page 269


 14072 0835 0280     		.2byte	0x8002
 14073 0837 9F       		.byte	0x9f
 14074 0838 72020000 		.4byte	.LVL203
 14075 083c 7A020000 		.4byte	.LVL204
 14076 0840 0100     		.2byte	0x1
 14077 0842 57       		.byte	0x57
 14078 0843 7A020000 		.4byte	.LVL204
 14079 0847 BC020000 		.4byte	.LVL211
 14080 084b 0400     		.2byte	0x4
 14081 084d 0A       		.byte	0xa
 14082 084e 0180     		.2byte	0x8001
 14083 0850 9F       		.byte	0x9f
 14084 0851 BC020000 		.4byte	.LVL211
 14085 0855 C2020000 		.4byte	.LVL212
 14086 0859 0100     		.2byte	0x1
 14087 085b 57       		.byte	0x57
 14088 085c C2020000 		.4byte	.LVL212
 14089 0860 02030000 		.4byte	.LVL219
 14090 0864 0400     		.2byte	0x4
 14091 0866 0A       		.byte	0xa
 14092 0867 0080     		.2byte	0x8000
 14093 0869 9F       		.byte	0x9f
 14094 086a 02030000 		.4byte	.LVL219
 14095 086e 2E050000 		.4byte	.LVL282
 14096 0872 0100     		.2byte	0x1
 14097 0874 57       		.byte	0x57
 14098 0875 5C050000 		.4byte	.LVL286
 14099 0879 7E050000 		.4byte	.LVL291
 14100 087d 0100     		.2byte	0x1
 14101 087f 57       		.byte	0x57
 14102 0880 00000000 		.4byte	0
 14103 0884 00000000 		.4byte	0
 14104              	.LLST53:
 14105 0888 76000000 		.4byte	.LVL145
 14106 088c 24010000 		.4byte	.LVL170
 14107 0890 0200     		.2byte	0x2
 14108 0892 36       		.byte	0x36
 14109 0893 9F       		.byte	0x9f
 14110 0894 2E010000 		.4byte	.LVL171
 14111 0898 72020000 		.4byte	.LVL203
 14112 089c 0100     		.2byte	0x1
 14113 089e 54       		.byte	0x54
 14114 089f 72020000 		.4byte	.LVL203
 14115 08a3 7A020000 		.4byte	.LVL204
 14116 08a7 0200     		.2byte	0x2
 14117 08a9 35       		.byte	0x35
 14118 08aa 9F       		.byte	0x9f
 14119 08ab BC020000 		.4byte	.LVL211
 14120 08af C2020000 		.4byte	.LVL212
 14121 08b3 0200     		.2byte	0x2
 14122 08b5 36       		.byte	0x36
 14123 08b6 9F       		.byte	0x9f
 14124 08b7 72050000 		.4byte	.LVL289
 14125 08bb 7C050000 		.4byte	.LVL290
 14126 08bf 0100     		.2byte	0x1
 14127 08c1 59       		.byte	0x59
 14128 08c2 00000000 		.4byte	0
ARM GAS  C:\Users\AHMED~1.ELE\AppData\Local\Temp\cc594ylT.s 			page 270


 14129 08c6 00000000 		.4byte	0
 14130              	.LLST54:
 14131 08ca 76000000 		.4byte	.LVL145
 14132 08ce 24010000 		.4byte	.LVL170
 14133 08d2 0200     		.2byte	0x2
 14134 08d4 37       		.byte	0x37
 14135 08d5 9F       		.byte	0x9f
 14136 08d6 2E010000 		.4byte	.LVL171
 14137 08da 08030000 		.4byte	.LVL220
 14138 08de 0100     		.2byte	0x1
 14139 08e0 59       		.byte	0x59
 14140 08e1 C2030000 		.4byte	.LVL238
 14141 08e5 22050000 		.4byte	.LVL279
 14142 08e9 0100     		.2byte	0x1
 14143 08eb 59       		.byte	0x59
 14144 08ec 5C050000 		.4byte	.LVL286
 14145 08f0 7C050000 		.4byte	.LVL290
 14146 08f4 0100     		.2byte	0x1
 14147 08f6 59       		.byte	0x59
 14148 08f7 00000000 		.4byte	0
 14149 08fb 00000000 		.4byte	0
 14150              	.LLST55:
 14151 08ff C2030000 		.4byte	.LVL238
 14152 0903 DA030000 		.4byte	.LVL242
 14153 0907 0200     		.2byte	0x2
 14154 0909 30       		.byte	0x30
 14155 090a 9F       		.byte	0x9f
 14156 090b DA030000 		.4byte	.LVL242
 14157 090f F2030000 		.4byte	.LVL246
 14158 0913 0200     		.2byte	0x2
 14159 0915 31       		.byte	0x31
 14160 0916 9F       		.byte	0x9f
 14161 0917 F2030000 		.4byte	.LVL246
 14162 091b F4030000 		.4byte	.LVL247
 14163 091f 0200     		.2byte	0x2
 14164 0921 32       		.byte	0x32
 14165 0922 9F       		.byte	0x9f
 14166 0923 00000000 		.4byte	0
 14167 0927 00000000 		.4byte	0
 14168              	.LLST56:
 14169 092b 00000000 		.4byte	.LVL134
 14170 092f 24010000 		.4byte	.LVL170
 14171 0933 0200     		.2byte	0x2
 14172 0935 30       		.byte	0x30
 14173 0936 9F       		.byte	0x9f
 14174 0937 2E010000 		.4byte	.LVL171
 14175 093b 1C060000 		.4byte	.LVL308
 14176 093f 0300     		.2byte	0x3
 14177 0941 91       		.byte	0x91
 14178 0942 B07B     		.sleb128 -592
 14179 0944 00000000 		.4byte	0
 14180 0948 00000000 		.4byte	0
 14181              	.LLST57:
 14182 094c 24010000 		.4byte	.LVL170
 14183 0950 1C060000 		.4byte	.LVL308
 14184 0954 0200     		.2byte	0x2
 14185 0956 30       		.byte	0x30
ARM GAS  C:\Users\AHMED~1.ELE\AppData\Local\Temp\cc594ylT.s 			page 271


 14186 0957 9F       		.byte	0x9f
 14187 0958 00000000 		.4byte	0
 14188 095c 00000000 		.4byte	0
 14189              	.LLST59:
 14190 0960 0A050000 		.4byte	.LVL275
 14191 0964 16050000 		.4byte	.LVL276
 14192 0968 0100     		.2byte	0x1
 14193 096a 50       		.byte	0x50
 14194 096b 16050000 		.4byte	.LVL276
 14195 096f 5C050000 		.4byte	.LVL286
 14196 0973 0100     		.2byte	0x1
 14197 0975 5A       		.byte	0x5a
 14198 0976 7C050000 		.4byte	.LVL290
 14199 097a 1C060000 		.4byte	.LVL308
 14200 097e 0100     		.2byte	0x1
 14201 0980 5A       		.byte	0x5a
 14202 0981 00000000 		.4byte	0
 14203 0985 00000000 		.4byte	0
 14204              	.LLST60:
 14205 0989 D2030000 		.4byte	.LVL240
 14206 098d D6030000 		.4byte	.LVL241
 14207 0991 0100     		.2byte	0x1
 14208 0993 50       		.byte	0x50
 14209 0994 D6030000 		.4byte	.LVL241
 14210 0998 DA030000 		.4byte	.LVL242
 14211 099c 0100     		.2byte	0x1
 14212 099e 54       		.byte	0x54
 14213 099f EA030000 		.4byte	.LVL244
 14214 09a3 EE030000 		.4byte	.LVL245
 14215 09a7 0100     		.2byte	0x1
 14216 09a9 50       		.byte	0x50
 14217 09aa EE030000 		.4byte	.LVL245
 14218 09ae F2030000 		.4byte	.LVL246
 14219 09b2 0100     		.2byte	0x1
 14220 09b4 54       		.byte	0x54
 14221 09b5 F2030000 		.4byte	.LVL246
 14222 09b9 F4030000 		.4byte	.LVL247
 14223 09bd 0300     		.2byte	0x3
 14224 09bf 09       		.byte	0x9
 14225 09c0 C6       		.byte	0xc6
 14226 09c1 9F       		.byte	0x9f
 14227 09c2 F4030000 		.4byte	.LVL247
 14228 09c6 F8030000 		.4byte	.LVL248
 14229 09ca 0100     		.2byte	0x1
 14230 09cc 50       		.byte	0x50
 14231 09cd F8030000 		.4byte	.LVL248
 14232 09d1 16040000 		.4byte	.LVL255
 14233 09d5 0100     		.2byte	0x1
 14234 09d7 54       		.byte	0x54
 14235 09d8 74040000 		.4byte	.LVL265
 14236 09dc 78040000 		.4byte	.LVL266
 14237 09e0 0100     		.2byte	0x1
 14238 09e2 50       		.byte	0x50
 14239 09e3 78040000 		.4byte	.LVL266
 14240 09e7 7F040000 		.4byte	.LVL267-1
 14241 09eb 0100     		.2byte	0x1
 14242 09ed 52       		.byte	0x52
ARM GAS  C:\Users\AHMED~1.ELE\AppData\Local\Temp\cc594ylT.s 			page 272


 14243 09ee 92040000 		.4byte	.LVL270
 14244 09f2 98040000 		.4byte	.LVL271
 14245 09f6 0100     		.2byte	0x1
 14246 09f8 50       		.byte	0x50
 14247 09f9 00000000 		.4byte	0
 14248 09fd 00000000 		.4byte	0
 14249              	.LLST61:
 14250 0a01 14000000 		.4byte	.LVL136
 14251 0a05 5C000000 		.4byte	.LVL143
 14252 0a09 0200     		.2byte	0x2
 14253 0a0b 42       		.byte	0x42
 14254 0a0c 9F       		.byte	0x9f
 14255 0a0d 00000000 		.4byte	0
 14256 0a11 00000000 		.4byte	0
 14257              	.LLST62:
 14258 0a15 1C000000 		.4byte	.LVL137
 14259 0a19 27000000 		.4byte	.LVL138-1
 14260 0a1d 0100     		.2byte	0x1
 14261 0a1f 50       		.byte	0x50
 14262 0a20 27000000 		.4byte	.LVL138-1
 14263 0a24 5C000000 		.4byte	.LVL143
 14264 0a28 0100     		.2byte	0x1
 14265 0a2a 54       		.byte	0x54
 14266 0a2b 00000000 		.4byte	0
 14267 0a2f 00000000 		.4byte	0
 14268              	.LLST63:
 14269 0a33 76000000 		.4byte	.LVL145
 14270 0a37 1C060000 		.4byte	.LVL308
 14271 0a3b 0200     		.2byte	0x2
 14272 0a3d 37       		.byte	0x37
 14273 0a3e 9F       		.byte	0x9f
 14274 0a3f 00000000 		.4byte	0
 14275 0a43 00000000 		.4byte	0
 14276              	.LLST64:
 14277 0a47 7A000000 		.4byte	.LVL146
 14278 0a4b 85000000 		.4byte	.LVL147-1
 14279 0a4f 0100     		.2byte	0x1
 14280 0a51 50       		.byte	0x50
 14281 0a52 85000000 		.4byte	.LVL147-1
 14282 0a56 B0000000 		.4byte	.LVL151
 14283 0a5a 0100     		.2byte	0x1
 14284 0a5c 54       		.byte	0x54
 14285 0a5d 00000000 		.4byte	0
 14286 0a61 00000000 		.4byte	0
 14287              	.LLST65:
 14288 0a65 A6000000 		.4byte	.LVL149
 14289 0a69 1C060000 		.4byte	.LVL308
 14290 0a6d 0200     		.2byte	0x2
 14291 0a6f 42       		.byte	0x42
 14292 0a70 9F       		.byte	0x9f
 14293 0a71 00000000 		.4byte	0
 14294 0a75 00000000 		.4byte	0
 14295              	.LLST66:
 14296 0a79 AE000000 		.4byte	.LVL150
 14297 0a7d B9000000 		.4byte	.LVL152-1
 14298 0a81 0100     		.2byte	0x1
 14299 0a83 50       		.byte	0x50
ARM GAS  C:\Users\AHMED~1.ELE\AppData\Local\Temp\cc594ylT.s 			page 273


 14300 0a84 B9000000 		.4byte	.LVL152-1
 14301 0a88 FC000000 		.4byte	.LVL160
 14302 0a8c 0100     		.2byte	0x1
 14303 0a8e 54       		.byte	0x54
 14304 0a8f 00000000 		.4byte	0
 14305 0a93 00000000 		.4byte	0
 14306              	.LLST67:
 14307 0a97 DA000000 		.4byte	.LVL154
 14308 0a9b 1C060000 		.4byte	.LVL308
 14309 0a9f 0200     		.2byte	0x2
 14310 0aa1 31       		.byte	0x31
 14311 0aa2 9F       		.byte	0x9f
 14312 0aa3 00000000 		.4byte	0
 14313 0aa7 00000000 		.4byte	0
 14314              	.LLST68:
 14315 0aab 78010000 		.4byte	.LVL175
 14316 0aaf B6010000 		.4byte	.LVL182
 14317 0ab3 0200     		.2byte	0x2
 14318 0ab5 3A       		.byte	0x3a
 14319 0ab6 9F       		.byte	0x9f
 14320 0ab7 00000000 		.4byte	0
 14321 0abb 00000000 		.4byte	0
 14322              	.LLST69:
 14323 0abf 80010000 		.4byte	.LVL176
 14324 0ac3 8B010000 		.4byte	.LVL177-1
 14325 0ac7 0100     		.2byte	0x1
 14326 0ac9 50       		.byte	0x50
 14327 0aca 8B010000 		.4byte	.LVL177-1
 14328 0ace B4010000 		.4byte	.LVL181
 14329 0ad2 0100     		.2byte	0x1
 14330 0ad4 57       		.byte	0x57
 14331 0ad5 00000000 		.4byte	0
 14332 0ad9 00000000 		.4byte	0
 14333              	.LLST70:
 14334 0add B6010000 		.4byte	.LVL182
 14335 0ae1 F4010000 		.4byte	.LVL189
 14336 0ae5 0200     		.2byte	0x2
 14337 0ae7 3A       		.byte	0x3a
 14338 0ae8 9F       		.byte	0x9f
 14339 0ae9 00000000 		.4byte	0
 14340 0aed 00000000 		.4byte	0
 14341              	.LLST71:
 14342 0af1 BE010000 		.4byte	.LVL183
 14343 0af5 C9010000 		.4byte	.LVL184-1
 14344 0af9 0100     		.2byte	0x1
 14345 0afb 50       		.byte	0x50
 14346 0afc C9010000 		.4byte	.LVL184-1
 14347 0b00 F2010000 		.4byte	.LVL188
 14348 0b04 0100     		.2byte	0x1
 14349 0b06 57       		.byte	0x57
 14350 0b07 00000000 		.4byte	0
 14351 0b0b 00000000 		.4byte	0
 14352              	.LLST72:
 14353 0b0f F4010000 		.4byte	.LVL189
 14354 0b13 32020000 		.4byte	.LVL196
 14355 0b17 0200     		.2byte	0x2
 14356 0b19 3A       		.byte	0x3a
ARM GAS  C:\Users\AHMED~1.ELE\AppData\Local\Temp\cc594ylT.s 			page 274


 14357 0b1a 9F       		.byte	0x9f
 14358 0b1b 00000000 		.4byte	0
 14359 0b1f 00000000 		.4byte	0
 14360              	.LLST73:
 14361 0b23 FC010000 		.4byte	.LVL190
 14362 0b27 07020000 		.4byte	.LVL191-1
 14363 0b2b 0100     		.2byte	0x1
 14364 0b2d 50       		.byte	0x50
 14365 0b2e 07020000 		.4byte	.LVL191-1
 14366 0b32 30020000 		.4byte	.LVL195
 14367 0b36 0100     		.2byte	0x1
 14368 0b38 57       		.byte	0x57
 14369 0b39 00000000 		.4byte	0
 14370 0b3d 00000000 		.4byte	0
 14371              	.LLST74:
 14372 0b41 32020000 		.4byte	.LVL196
 14373 0b45 72020000 		.4byte	.LVL203
 14374 0b49 0200     		.2byte	0x2
 14375 0b4b 3A       		.byte	0x3a
 14376 0b4c 9F       		.byte	0x9f
 14377 0b4d 00000000 		.4byte	0
 14378 0b51 00000000 		.4byte	0
 14379              	.LLST75:
 14380 0b55 3A020000 		.4byte	.LVL197
 14381 0b59 45020000 		.4byte	.LVL198-1
 14382 0b5d 0100     		.2byte	0x1
 14383 0b5f 50       		.byte	0x50
 14384 0b60 45020000 		.4byte	.LVL198-1
 14385 0b64 70020000 		.4byte	.LVL202
 14386 0b68 0100     		.2byte	0x1
 14387 0b6a 57       		.byte	0x57
 14388 0b6b 00000000 		.4byte	0
 14389 0b6f 00000000 		.4byte	0
 14390              	.LLST76:
 14391 0b73 7A020000 		.4byte	.LVL204
 14392 0b77 BC020000 		.4byte	.LVL211
 14393 0b7b 0200     		.2byte	0x2
 14394 0b7d 3A       		.byte	0x3a
 14395 0b7e 9F       		.byte	0x9f
 14396 0b7f 00000000 		.4byte	0
 14397 0b83 00000000 		.4byte	0
 14398              	.LLST77:
 14399 0b87 82020000 		.4byte	.LVL205
 14400 0b8b 8D020000 		.4byte	.LVL206-1
 14401 0b8f 0100     		.2byte	0x1
 14402 0b91 50       		.byte	0x50
 14403 0b92 8D020000 		.4byte	.LVL206-1
 14404 0b96 B6020000 		.4byte	.LVL210
 14405 0b9a 0100     		.2byte	0x1
 14406 0b9c 54       		.byte	0x54
 14407 0b9d 00000000 		.4byte	0
 14408 0ba1 00000000 		.4byte	0
 14409              	.LLST78:
 14410 0ba5 C2020000 		.4byte	.LVL212
 14411 0ba9 02030000 		.4byte	.LVL219
 14412 0bad 0200     		.2byte	0x2
 14413 0baf 3A       		.byte	0x3a
ARM GAS  C:\Users\AHMED~1.ELE\AppData\Local\Temp\cc594ylT.s 			page 275


 14414 0bb0 9F       		.byte	0x9f
 14415 0bb1 00000000 		.4byte	0
 14416 0bb5 00000000 		.4byte	0
 14417              	.LLST79:
 14418 0bb9 CA020000 		.4byte	.LVL213
 14419 0bbd D5020000 		.4byte	.LVL214-1
 14420 0bc1 0100     		.2byte	0x1
 14421 0bc3 50       		.byte	0x50
 14422 0bc4 D5020000 		.4byte	.LVL214-1
 14423 0bc8 FE020000 		.4byte	.LVL218
 14424 0bcc 0100     		.2byte	0x1
 14425 0bce 54       		.byte	0x54
 14426 0bcf 00000000 		.4byte	0
 14427 0bd3 00000000 		.4byte	0
 14428              	.LLST80:
 14429 0bd7 20030000 		.4byte	.LVL223
 14430 0bdb 60030000 		.4byte	.LVL226
 14431 0bdf 0200     		.2byte	0x2
 14432 0be1 3D       		.byte	0x3d
 14433 0be2 9F       		.byte	0x9f
 14434 0be3 00000000 		.4byte	0
 14435 0be7 00000000 		.4byte	0
 14436              	.LLST81:
 14437 0beb 28030000 		.4byte	.LVL224
 14438 0bef 35030000 		.4byte	.LVL225-1
 14439 0bf3 0100     		.2byte	0x1
 14440 0bf5 50       		.byte	0x50
 14441 0bf6 35030000 		.4byte	.LVL225-1
 14442 0bfa 60030000 		.4byte	.LVL226
 14443 0bfe 0100     		.2byte	0x1
 14444 0c00 54       		.byte	0x54
 14445 0c01 00000000 		.4byte	0
 14446 0c05 00000000 		.4byte	0
 14447              	.LLST82:
 14448 0c09 74030000 		.4byte	.LVL230
 14449 0c0d 8C030000 		.4byte	.LVL233
 14450 0c11 0200     		.2byte	0x2
 14451 0c13 3F       		.byte	0x3f
 14452 0c14 9F       		.byte	0x9f
 14453 0c15 00000000 		.4byte	0
 14454 0c19 00000000 		.4byte	0
 14455              	.LLST83:
 14456 0c1d 7C030000 		.4byte	.LVL231
 14457 0c21 87030000 		.4byte	.LVL232-1
 14458 0c25 0100     		.2byte	0x1
 14459 0c27 50       		.byte	0x50
 14460 0c28 87030000 		.4byte	.LVL232-1
 14461 0c2c 8C030000 		.4byte	.LVL233
 14462 0c30 0100     		.2byte	0x1
 14463 0c32 54       		.byte	0x54
 14464 0c33 00000000 		.4byte	0
 14465 0c37 00000000 		.4byte	0
 14466              	.LLST84:
 14467 0c3b 0A040000 		.4byte	.LVL251
 14468 0c3f 0E040000 		.4byte	.LVL252
 14469 0c43 0100     		.2byte	0x1
 14470 0c45 50       		.byte	0x50
ARM GAS  C:\Users\AHMED~1.ELE\AppData\Local\Temp\cc594ylT.s 			page 276


 14471 0c46 0E040000 		.4byte	.LVL252
 14472 0c4a 13040000 		.4byte	.LVL254-1
 14473 0c4e 0100     		.2byte	0x1
 14474 0c50 53       		.byte	0x53
 14475 0c51 13040000 		.4byte	.LVL254-1
 14476 0c55 66040000 		.4byte	.LVL262
 14477 0c59 0300     		.2byte	0x3
 14478 0c5b 91       		.byte	0x91
 14479 0c5c B47B     		.sleb128 -588
 14480 0c5e 00000000 		.4byte	0
 14481 0c62 00000000 		.4byte	0
 14482              	.LLST85:
 14483 0c66 14040000 		.4byte	.LVL254
 14484 0c6a 21040000 		.4byte	.LVL256-1
 14485 0c6e 0100     		.2byte	0x1
 14486 0c70 50       		.byte	0x50
 14487 0c71 21040000 		.4byte	.LVL256-1
 14488 0c75 46040000 		.4byte	.LVL259
 14489 0c79 0100     		.2byte	0x1
 14490 0c7b 54       		.byte	0x54
 14491 0c7c 00000000 		.4byte	0
 14492 0c80 00000000 		.4byte	0
 14493              	.LLST86:
 14494 0c84 22050000 		.4byte	.LVL279
 14495 0c88 28050000 		.4byte	.LVL280
 14496 0c8c 0100     		.2byte	0x1
 14497 0c8e 50       		.byte	0x50
 14498 0c8f 28050000 		.4byte	.LVL280
 14499 0c93 5C050000 		.4byte	.LVL286
 14500 0c97 0100     		.2byte	0x1
 14501 0c99 59       		.byte	0x59
 14502 0c9a 16060000 		.4byte	.LVL306
 14503 0c9e 1C060000 		.4byte	.LVL308
 14504 0ca2 0100     		.2byte	0x1
 14505 0ca4 59       		.byte	0x59
 14506 0ca5 00000000 		.4byte	0
 14507 0ca9 00000000 		.4byte	0
 14508              	.LLST87:
 14509 0cad 2C050000 		.4byte	.LVL281
 14510 0cb1 39050000 		.4byte	.LVL283-1
 14511 0cb5 0100     		.2byte	0x1
 14512 0cb7 50       		.byte	0x50
 14513 0cb8 39050000 		.4byte	.LVL283-1
 14514 0cbc 5C050000 		.4byte	.LVL286
 14515 0cc0 0100     		.2byte	0x1
 14516 0cc2 57       		.byte	0x57
 14517 0cc3 16060000 		.4byte	.LVL306
 14518 0cc7 1C060000 		.4byte	.LVL308
 14519 0ccb 0100     		.2byte	0x1
 14520 0ccd 57       		.byte	0x57
 14521 0cce 00000000 		.4byte	0
 14522 0cd2 00000000 		.4byte	0
 14523              	.LLST88:
 14524 0cd6 C2050000 		.4byte	.LVL298
 14525 0cda 06060000 		.4byte	.LVL303
 14526 0cde 0200     		.2byte	0x2
 14527 0ce0 3D       		.byte	0x3d
ARM GAS  C:\Users\AHMED~1.ELE\AppData\Local\Temp\cc594ylT.s 			page 277


 14528 0ce1 9F       		.byte	0x9f
 14529 0ce2 00000000 		.4byte	0
 14530 0ce6 00000000 		.4byte	0
 14531              	.LLST89:
 14532 0cea CA050000 		.4byte	.LVL299
 14533 0cee D5050000 		.4byte	.LVL300-1
 14534 0cf2 0100     		.2byte	0x1
 14535 0cf4 50       		.byte	0x50
 14536 0cf5 D5050000 		.4byte	.LVL300-1
 14537 0cf9 06060000 		.4byte	.LVL303
 14538 0cfd 0100     		.2byte	0x1
 14539 0cff 54       		.byte	0x54
 14540 0d00 00000000 		.4byte	0
 14541 0d04 00000000 		.4byte	0
 14542              	.LLST90:
 14543 0d08 0C060000 		.4byte	.LVL304
 14544 0d0c 16060000 		.4byte	.LVL306
 14545 0d10 0200     		.2byte	0x2
 14546 0d12 30       		.byte	0x30
 14547 0d13 9F       		.byte	0x9f
 14548 0d14 00000000 		.4byte	0
 14549 0d18 00000000 		.4byte	0
 14550              	.LLST91:
 14551 0d1c 00000000 		.4byte	.LVL309
 14552 0d20 88000000 		.4byte	.LVL321
 14553 0d24 0200     		.2byte	0x2
 14554 0d26 30       		.byte	0x30
 14555 0d27 9F       		.byte	0x9f
 14556 0d28 88000000 		.4byte	.LVL321
 14557 0d2c 3A030000 		.4byte	.LVL394
 14558 0d30 0400     		.2byte	0x4
 14559 0d32 91       		.byte	0x91
 14560 0d33 BC7B     		.sleb128 -580
 14561 0d35 9F       		.byte	0x9f
 14562 0d36 3A030000 		.4byte	.LVL394
 14563 0d3a 41030000 		.4byte	.LVL395-1
 14564 0d3e 0100     		.2byte	0x1
 14565 0d40 51       		.byte	0x51
 14566 0d41 41030000 		.4byte	.LVL395-1
 14567 0d45 9C030000 		.4byte	.LVL408
 14568 0d49 0400     		.2byte	0x4
 14569 0d4b 91       		.byte	0x91
 14570 0d4c BC7B     		.sleb128 -580
 14571 0d4e 9F       		.byte	0x9f
 14572 0d4f 9C030000 		.4byte	.LVL408
 14573 0d53 A3030000 		.4byte	.LVL409-1
 14574 0d57 0100     		.2byte	0x1
 14575 0d59 51       		.byte	0x51
 14576 0d5a A3030000 		.4byte	.LVL409-1
 14577 0d5e 34070000 		.4byte	.LVL505
 14578 0d62 0400     		.2byte	0x4
 14579 0d64 91       		.byte	0x91
 14580 0d65 BC7B     		.sleb128 -580
 14581 0d67 9F       		.byte	0x9f
 14582 0d68 00000000 		.4byte	0
 14583 0d6c 00000000 		.4byte	0
 14584              	.LLST92:
ARM GAS  C:\Users\AHMED~1.ELE\AppData\Local\Temp\cc594ylT.s 			page 278


 14585 0d70 00000000 		.4byte	.LVL309
 14586 0d74 04010000 		.4byte	.LVL333
 14587 0d78 0200     		.2byte	0x2
 14588 0d7a 30       		.byte	0x30
 14589 0d7b 9F       		.byte	0x9f
 14590 0d7c 04010000 		.4byte	.LVL333
 14591 0d80 06010000 		.4byte	.LVL334
 14592 0d84 0100     		.2byte	0x1
 14593 0d86 50       		.byte	0x50
 14594 0d87 06010000 		.4byte	.LVL334
 14595 0d8b 34070000 		.4byte	.LVL505
 14596 0d8f 0300     		.2byte	0x3
 14597 0d91 91       		.byte	0x91
 14598 0d92 A07B     		.sleb128 -608
 14599 0d94 00000000 		.4byte	0
 14600 0d98 00000000 		.4byte	0
 14601              	.LLST93:
 14602 0d9c 00000000 		.4byte	.LVL309
 14603 0da0 10010000 		.4byte	.LVL336
 14604 0da4 0200     		.2byte	0x2
 14605 0da6 30       		.byte	0x30
 14606 0da7 9F       		.byte	0x9f
 14607 0da8 10010000 		.4byte	.LVL336
 14608 0dac 12010000 		.4byte	.LVL337
 14609 0db0 0100     		.2byte	0x1
 14610 0db2 50       		.byte	0x50
 14611 0db3 12010000 		.4byte	.LVL337
 14612 0db7 34070000 		.4byte	.LVL505
 14613 0dbb 0100     		.2byte	0x1
 14614 0dbd 54       		.byte	0x54
 14615 0dbe 00000000 		.4byte	0
 14616 0dc2 00000000 		.4byte	0
 14617              	.LLST94:
 14618 0dc6 00000000 		.4byte	.LVL309
 14619 0dca 1C010000 		.4byte	.LVL339
 14620 0dce 0200     		.2byte	0x2
 14621 0dd0 30       		.byte	0x30
 14622 0dd1 9F       		.byte	0x9f
 14623 0dd2 1C010000 		.4byte	.LVL339
 14624 0dd6 1E010000 		.4byte	.LVL340
 14625 0dda 0100     		.2byte	0x1
 14626 0ddc 50       		.byte	0x50
 14627 0ddd 1E010000 		.4byte	.LVL340
 14628 0de1 34070000 		.4byte	.LVL505
 14629 0de5 0100     		.2byte	0x1
 14630 0de7 55       		.byte	0x55
 14631 0de8 00000000 		.4byte	0
 14632 0dec 00000000 		.4byte	0
 14633              	.LLST95:
 14634 0df0 00000000 		.4byte	.LVL309
 14635 0df4 26010000 		.4byte	.LVL342
 14636 0df8 0200     		.2byte	0x2
 14637 0dfa 30       		.byte	0x30
 14638 0dfb 9F       		.byte	0x9f
 14639 0dfc 26010000 		.4byte	.LVL342
 14640 0e00 28010000 		.4byte	.LVL343
 14641 0e04 0100     		.2byte	0x1
ARM GAS  C:\Users\AHMED~1.ELE\AppData\Local\Temp\cc594ylT.s 			page 279


 14642 0e06 50       		.byte	0x50
 14643 0e07 28010000 		.4byte	.LVL343
 14644 0e0b 34070000 		.4byte	.LVL505
 14645 0e0f 0100     		.2byte	0x1
 14646 0e11 58       		.byte	0x58
 14647 0e12 00000000 		.4byte	0
 14648 0e16 00000000 		.4byte	0
 14649              	.LLST96:
 14650 0e1a 00000000 		.4byte	.LVL309
 14651 0e1e 34010000 		.4byte	.LVL345
 14652 0e22 0200     		.2byte	0x2
 14653 0e24 30       		.byte	0x30
 14654 0e25 9F       		.byte	0x9f
 14655 0e26 34010000 		.4byte	.LVL345
 14656 0e2a 3A010000 		.4byte	.LVL346
 14657 0e2e 0100     		.2byte	0x1
 14658 0e30 50       		.byte	0x50
 14659 0e31 3A010000 		.4byte	.LVL346
 14660 0e35 34070000 		.4byte	.LVL505
 14661 0e39 0300     		.2byte	0x3
 14662 0e3b 91       		.byte	0x91
 14663 0e3c A47B     		.sleb128 -604
 14664 0e3e 00000000 		.4byte	0
 14665 0e42 00000000 		.4byte	0
 14666              	.LLST97:
 14667 0e46 34010000 		.4byte	.LVL345
 14668 0e4a 3A010000 		.4byte	.LVL346
 14669 0e4e 0200     		.2byte	0x2
 14670 0e50 30       		.byte	0x30
 14671 0e51 9F       		.byte	0x9f
 14672 0e52 3A010000 		.4byte	.LVL346
 14673 0e56 52030000 		.4byte	.LVL399
 14674 0e5a 0100     		.2byte	0x1
 14675 0e5c 56       		.byte	0x56
 14676 0e5d 94030000 		.4byte	.LVL406
 14677 0e61 B2030000 		.4byte	.LVL413
 14678 0e65 0100     		.2byte	0x1
 14679 0e67 56       		.byte	0x56
 14680 0e68 C4030000 		.4byte	.LVL415
 14681 0e6c 1C040000 		.4byte	.LVL432
 14682 0e70 0100     		.2byte	0x1
 14683 0e72 56       		.byte	0x56
 14684 0e73 70040000 		.4byte	.LVL439
 14685 0e77 74040000 		.4byte	.LVL440
 14686 0e7b 0100     		.2byte	0x1
 14687 0e7d 50       		.byte	0x50
 14688 0e7e 74040000 		.4byte	.LVL440
 14689 0e82 7A040000 		.4byte	.LVL442
 14690 0e86 0100     		.2byte	0x1
 14691 0e88 56       		.byte	0x56
 14692 0e89 86040000 		.4byte	.LVL444
 14693 0e8d 8E040000 		.4byte	.LVL445
 14694 0e91 0100     		.2byte	0x1
 14695 0e93 50       		.byte	0x50
 14696 0e94 8E040000 		.4byte	.LVL445
 14697 0e98 92040000 		.4byte	.LVL446
 14698 0e9c 0100     		.2byte	0x1
ARM GAS  C:\Users\AHMED~1.ELE\AppData\Local\Temp\cc594ylT.s 			page 280


 14699 0e9e 56       		.byte	0x56
 14700 0e9f A0040000 		.4byte	.LVL448
 14701 0ea3 3A060000 		.4byte	.LVL478
 14702 0ea7 0100     		.2byte	0x1
 14703 0ea9 56       		.byte	0x56
 14704 0eaa 58060000 		.4byte	.LVL480
 14705 0eae 60060000 		.4byte	.LVL481
 14706 0eb2 0100     		.2byte	0x1
 14707 0eb4 50       		.byte	0x50
 14708 0eb5 60060000 		.4byte	.LVL481
 14709 0eb9 6E060000 		.4byte	.LVL484
 14710 0ebd 0100     		.2byte	0x1
 14711 0ebf 56       		.byte	0x56
 14712 0ec0 BC060000 		.4byte	.LVL493
 14713 0ec4 34070000 		.4byte	.LVL505
 14714 0ec8 0100     		.2byte	0x1
 14715 0eca 56       		.byte	0x56
 14716 0ecb 00000000 		.4byte	0
 14717 0ecf 00000000 		.4byte	0
 14718              	.LLST98:
 14719 0ed3 34010000 		.4byte	.LVL345
 14720 0ed7 3A010000 		.4byte	.LVL346
 14721 0edb 0300     		.2byte	0x3
 14722 0edd 08       		.byte	0x8
 14723 0ede 64       		.byte	0x64
 14724 0edf 9F       		.byte	0x9f
 14725 0ee0 30060000 		.4byte	.LVL476
 14726 0ee4 66060000 		.4byte	.LVL483
 14727 0ee8 0100     		.2byte	0x1
 14728 0eea 5A       		.byte	0x5a
 14729 0eeb 00000000 		.4byte	0
 14730 0eef 00000000 		.4byte	0
 14731              	.LLST99:
 14732 0ef3 88000000 		.4byte	.LVL321
 14733 0ef7 3A010000 		.4byte	.LVL346
 14734 0efb 0200     		.2byte	0x2
 14735 0efd 31       		.byte	0x31
 14736 0efe 9F       		.byte	0x9f
 14737 0eff 3A010000 		.4byte	.LVL346
 14738 0f03 86010000 		.4byte	.LVL350
 14739 0f07 0100     		.2byte	0x1
 14740 0f09 57       		.byte	0x57
 14741 0f0a 86010000 		.4byte	.LVL350
 14742 0f0e C4010000 		.4byte	.LVL357
 14743 0f12 0200     		.2byte	0x2
 14744 0f14 32       		.byte	0x32
 14745 0f15 9F       		.byte	0x9f
 14746 0f16 C4010000 		.4byte	.LVL357
 14747 0f1a 02020000 		.4byte	.LVL364
 14748 0f1e 0200     		.2byte	0x2
 14749 0f20 31       		.byte	0x31
 14750 0f21 9F       		.byte	0x9f
 14751 0f22 02020000 		.4byte	.LVL364
 14752 0f26 40020000 		.4byte	.LVL371
 14753 0f2a 0200     		.2byte	0x2
 14754 0f2c 30       		.byte	0x30
 14755 0f2d 9F       		.byte	0x9f
ARM GAS  C:\Users\AHMED~1.ELE\AppData\Local\Temp\cc594ylT.s 			page 281


 14756 0f2e 40020000 		.4byte	.LVL371
 14757 0f32 80020000 		.4byte	.LVL378
 14758 0f36 0400     		.2byte	0x4
 14759 0f38 0A       		.byte	0xa
 14760 0f39 0280     		.2byte	0x8002
 14761 0f3b 9F       		.byte	0x9f
 14762 0f3c 80020000 		.4byte	.LVL378
 14763 0f40 88020000 		.4byte	.LVL379
 14764 0f44 0100     		.2byte	0x1
 14765 0f46 57       		.byte	0x57
 14766 0f47 88020000 		.4byte	.LVL379
 14767 0f4b E8020000 		.4byte	.LVL386
 14768 0f4f 0400     		.2byte	0x4
 14769 0f51 0A       		.byte	0xa
 14770 0f52 0180     		.2byte	0x8001
 14771 0f54 9F       		.byte	0x9f
 14772 0f55 E8020000 		.4byte	.LVL386
 14773 0f59 EE020000 		.4byte	.LVL387
 14774 0f5d 0100     		.2byte	0x1
 14775 0f5f 57       		.byte	0x57
 14776 0f60 EE020000 		.4byte	.LVL387
 14777 0f64 30030000 		.4byte	.LVL393
 14778 0f68 0400     		.2byte	0x4
 14779 0f6a 0A       		.byte	0xa
 14780 0f6b 0080     		.2byte	0x8000
 14781 0f6d 9F       		.byte	0x9f
 14782 0f6e 30030000 		.4byte	.LVL393
 14783 0f72 34070000 		.4byte	.LVL505
 14784 0f76 0100     		.2byte	0x1
 14785 0f78 57       		.byte	0x57
 14786 0f79 00000000 		.4byte	0
 14787 0f7d 00000000 		.4byte	0
 14788              	.LLST100:
 14789 0f81 88000000 		.4byte	.LVL321
 14790 0f85 3A010000 		.4byte	.LVL346
 14791 0f89 0200     		.2byte	0x2
 14792 0f8b 36       		.byte	0x36
 14793 0f8c 9F       		.byte	0x9f
 14794 0f8d 3A010000 		.4byte	.LVL346
 14795 0f91 80020000 		.4byte	.LVL378
 14796 0f95 0100     		.2byte	0x1
 14797 0f97 5A       		.byte	0x5a
 14798 0f98 80020000 		.4byte	.LVL378
 14799 0f9c 88020000 		.4byte	.LVL379
 14800 0fa0 0200     		.2byte	0x2
 14801 0fa2 35       		.byte	0x35
 14802 0fa3 9F       		.byte	0x9f
 14803 0fa4 E8020000 		.4byte	.LVL386
 14804 0fa8 EE020000 		.4byte	.LVL387
 14805 0fac 0200     		.2byte	0x2
 14806 0fae 36       		.byte	0x36
 14807 0faf 9F       		.byte	0x9f
 14808 0fb0 66060000 		.4byte	.LVL483
 14809 0fb4 6E060000 		.4byte	.LVL484
 14810 0fb8 0100     		.2byte	0x1
 14811 0fba 59       		.byte	0x59
 14812 0fbb 00000000 		.4byte	0
ARM GAS  C:\Users\AHMED~1.ELE\AppData\Local\Temp\cc594ylT.s 			page 282


 14813 0fbf 00000000 		.4byte	0
 14814              	.LLST101:
 14815 0fc3 88000000 		.4byte	.LVL321
 14816 0fc7 3A010000 		.4byte	.LVL346
 14817 0fcb 0200     		.2byte	0x2
 14818 0fcd 37       		.byte	0x37
 14819 0fce 9F       		.byte	0x9f
 14820 0fcf 3A010000 		.4byte	.LVL346
 14821 0fd3 44030000 		.4byte	.LVL396
 14822 0fd7 0100     		.2byte	0x1
 14823 0fd9 59       		.byte	0x59
 14824 0fda 94030000 		.4byte	.LVL406
 14825 0fde A6030000 		.4byte	.LVL410
 14826 0fe2 0100     		.2byte	0x1
 14827 0fe4 59       		.byte	0x59
 14828 0fe5 C6030000 		.4byte	.LVL416
 14829 0fe9 6E060000 		.4byte	.LVL484
 14830 0fed 0100     		.2byte	0x1
 14831 0fef 59       		.byte	0x59
 14832 0ff0 BC060000 		.4byte	.LVL493
 14833 0ff4 34070000 		.4byte	.LVL505
 14834 0ff8 0100     		.2byte	0x1
 14835 0ffa 59       		.byte	0x59
 14836 0ffb 00000000 		.4byte	0
 14837 0fff 00000000 		.4byte	0
 14838              	.LLST102:
 14839 1003 C6030000 		.4byte	.LVL416
 14840 1007 DE030000 		.4byte	.LVL420
 14841 100b 0200     		.2byte	0x2
 14842 100d 30       		.byte	0x30
 14843 100e 9F       		.byte	0x9f
 14844 100f DE030000 		.4byte	.LVL420
 14845 1013 F6030000 		.4byte	.LVL424
 14846 1017 0200     		.2byte	0x2
 14847 1019 31       		.byte	0x31
 14848 101a 9F       		.byte	0x9f
 14849 101b F6030000 		.4byte	.LVL424
 14850 101f F8030000 		.4byte	.LVL425
 14851 1023 0200     		.2byte	0x2
 14852 1025 32       		.byte	0x32
 14853 1026 9F       		.byte	0x9f
 14854 1027 00000000 		.4byte	0
 14855 102b 00000000 		.4byte	0
 14856              	.LLST103:
 14857 102f 00000000 		.4byte	.LVL309
 14858 1033 3A010000 		.4byte	.LVL346
 14859 1037 0200     		.2byte	0x2
 14860 1039 30       		.byte	0x30
 14861 103a 9F       		.byte	0x9f
 14862 103b 3A010000 		.4byte	.LVL346
 14863 103f 34070000 		.4byte	.LVL505
 14864 1043 0300     		.2byte	0x3
 14865 1045 91       		.byte	0x91
 14866 1046 AC7B     		.sleb128 -596
 14867 1048 00000000 		.4byte	0
 14868 104c 00000000 		.4byte	0
 14869              	.LLST104:
ARM GAS  C:\Users\AHMED~1.ELE\AppData\Local\Temp\cc594ylT.s 			page 283


 14870 1050 34010000 		.4byte	.LVL345
 14871 1054 3A010000 		.4byte	.LVL346
 14872 1058 0200     		.2byte	0x2
 14873 105a 30       		.byte	0x30
 14874 105b 9F       		.byte	0x9f
 14875 105c 3A010000 		.4byte	.LVL346
 14876 1060 E2040000 		.4byte	.LVL450
 14877 1064 0300     		.2byte	0x3
 14878 1066 91       		.byte	0x91
 14879 1067 A87B     		.sleb128 -600
 14880 1069 20050000 		.4byte	.LVL453
 14881 106d 2C050000 		.4byte	.LVL454
 14882 1071 0100     		.2byte	0x1
 14883 1073 50       		.byte	0x50
 14884 1074 2C050000 		.4byte	.LVL454
 14885 1078 2F050000 		.4byte	.LVL455-1
 14886 107c 0100     		.2byte	0x1
 14887 107e 53       		.byte	0x53
 14888 107f 2F050000 		.4byte	.LVL455-1
 14889 1083 34070000 		.4byte	.LVL505
 14890 1087 0300     		.2byte	0x3
 14891 1089 91       		.byte	0x91
 14892 108a A87B     		.sleb128 -600
 14893 108c 00000000 		.4byte	0
 14894 1090 00000000 		.4byte	0
 14895              	.LLST105:
 14896 1094 34010000 		.4byte	.LVL345
 14897 1098 3A010000 		.4byte	.LVL346
 14898 109c 0200     		.2byte	0x2
 14899 109e 30       		.byte	0x30
 14900 109f 9F       		.byte	0x9f
 14901 10a0 3A010000 		.4byte	.LVL346
 14902 10a4 3E050000 		.4byte	.LVL459
 14903 10a8 0300     		.2byte	0x3
 14904 10aa 91       		.byte	0x91
 14905 10ab B07B     		.sleb128 -592
 14906 10ad 86050000 		.4byte	.LVL464
 14907 10b1 94050000 		.4byte	.LVL465
 14908 10b5 0100     		.2byte	0x1
 14909 10b7 50       		.byte	0x50
 14910 10b8 94050000 		.4byte	.LVL465
 14911 10bc 97050000 		.4byte	.LVL466-1
 14912 10c0 0100     		.2byte	0x1
 14913 10c2 53       		.byte	0x53
 14914 10c3 97050000 		.4byte	.LVL466-1
 14915 10c7 BC060000 		.4byte	.LVL493
 14916 10cb 0300     		.2byte	0x3
 14917 10cd 91       		.byte	0x91
 14918 10ce B07B     		.sleb128 -592
 14919 10d0 BC060000 		.4byte	.LVL493
 14920 10d4 C6060000 		.4byte	.LVL494
 14921 10d8 0100     		.2byte	0x1
 14922 10da 50       		.byte	0x50
 14923 10db C6060000 		.4byte	.LVL494
 14924 10df 34070000 		.4byte	.LVL505
 14925 10e3 0300     		.2byte	0x3
 14926 10e5 91       		.byte	0x91
ARM GAS  C:\Users\AHMED~1.ELE\AppData\Local\Temp\cc594ylT.s 			page 284


 14927 10e6 B07B     		.sleb128 -592
 14928 10e8 00000000 		.4byte	0
 14929 10ec 00000000 		.4byte	0
 14930              	.LLST106:
 14931 10f0 34010000 		.4byte	.LVL345
 14932 10f4 3A010000 		.4byte	.LVL346
 14933 10f8 0200     		.2byte	0x2
 14934 10fa 30       		.byte	0x30
 14935 10fb 9F       		.byte	0x9f
 14936 10fc 3A010000 		.4byte	.LVL346
 14937 1100 DA060000 		.4byte	.LVL495
 14938 1104 0300     		.2byte	0x3
 14939 1106 91       		.byte	0x91
 14940 1107 9C7B     		.sleb128 -612
 14941 1109 DA060000 		.4byte	.LVL495
 14942 110d E8060000 		.4byte	.LVL496
 14943 1111 0100     		.2byte	0x1
 14944 1113 50       		.byte	0x50
 14945 1114 E8060000 		.4byte	.LVL496
 14946 1118 EB060000 		.4byte	.LVL497-1
 14947 111c 0100     		.2byte	0x1
 14948 111e 53       		.byte	0x53
 14949 111f EB060000 		.4byte	.LVL497-1
 14950 1123 34070000 		.4byte	.LVL505
 14951 1127 0300     		.2byte	0x3
 14952 1129 91       		.byte	0x91
 14953 112a 9C7B     		.sleb128 -612
 14954 112c 00000000 		.4byte	0
 14955 1130 00000000 		.4byte	0
 14956              	.LLST107:
 14957 1134 D6030000 		.4byte	.LVL418
 14958 1138 DA030000 		.4byte	.LVL419
 14959 113c 0100     		.2byte	0x1
 14960 113e 50       		.byte	0x50
 14961 113f DA030000 		.4byte	.LVL419
 14962 1143 DE030000 		.4byte	.LVL420
 14963 1147 0100     		.2byte	0x1
 14964 1149 5A       		.byte	0x5a
 14965 114a EE030000 		.4byte	.LVL422
 14966 114e F2030000 		.4byte	.LVL423
 14967 1152 0100     		.2byte	0x1
 14968 1154 50       		.byte	0x50
 14969 1155 F2030000 		.4byte	.LVL423
 14970 1159 F6030000 		.4byte	.LVL424
 14971 115d 0100     		.2byte	0x1
 14972 115f 5A       		.byte	0x5a
 14973 1160 F6030000 		.4byte	.LVL424
 14974 1164 F8030000 		.4byte	.LVL425
 14975 1168 0300     		.2byte	0x3
 14976 116a 09       		.byte	0x9
 14977 116b C6       		.byte	0xc6
 14978 116c 9F       		.byte	0x9f
 14979 116d F8030000 		.4byte	.LVL425
 14980 1171 FE030000 		.4byte	.LVL426
 14981 1175 0100     		.2byte	0x1
 14982 1177 50       		.byte	0x50
 14983 1178 FE030000 		.4byte	.LVL426
ARM GAS  C:\Users\AHMED~1.ELE\AppData\Local\Temp\cc594ylT.s 			page 285


 14984 117c 10040000 		.4byte	.LVL429
 14985 1180 0100     		.2byte	0x1
 14986 1182 5A       		.byte	0x5a
 14987 1183 7A040000 		.4byte	.LVL442
 14988 1187 7E040000 		.4byte	.LVL443
 14989 118b 0100     		.2byte	0x1
 14990 118d 50       		.byte	0x50
 14991 118e 7E040000 		.4byte	.LVL443
 14992 1192 85040000 		.4byte	.LVL444-1
 14993 1196 0100     		.2byte	0x1
 14994 1198 52       		.byte	0x52
 14995 1199 9A040000 		.4byte	.LVL447
 14996 119d A0040000 		.4byte	.LVL448
 14997 11a1 0100     		.2byte	0x1
 14998 11a3 50       		.byte	0x50
 14999 11a4 00000000 		.4byte	0
 15000 11a8 00000000 		.4byte	0
 15001              	.LLST108:
 15002 11ac 3A060000 		.4byte	.LVL478
 15003 11b0 66060000 		.4byte	.LVL483
 15004 11b4 0100     		.2byte	0x1
 15005 11b6 5B       		.byte	0x5b
 15006 11b7 00000000 		.4byte	0
 15007 11bb 00000000 		.4byte	0
 15008              	.LLST109:
 15009 11bf 26000000 		.4byte	.LVL312
 15010 11c3 6E000000 		.4byte	.LVL319
 15011 11c7 0200     		.2byte	0x2
 15012 11c9 42       		.byte	0x42
 15013 11ca 9F       		.byte	0x9f
 15014 11cb 00000000 		.4byte	0
 15015 11cf 00000000 		.4byte	0
 15016              	.LLST110:
 15017 11d3 2E000000 		.4byte	.LVL313
 15018 11d7 39000000 		.4byte	.LVL314-1
 15019 11db 0100     		.2byte	0x1
 15020 11dd 50       		.byte	0x50
 15021 11de 39000000 		.4byte	.LVL314-1
 15022 11e2 6E000000 		.4byte	.LVL319
 15023 11e6 0100     		.2byte	0x1
 15024 11e8 54       		.byte	0x54
 15025 11e9 00000000 		.4byte	0
 15026 11ed 00000000 		.4byte	0
 15027              	.LLST111:
 15028 11f1 88000000 		.4byte	.LVL321
 15029 11f5 34070000 		.4byte	.LVL505
 15030 11f9 0200     		.2byte	0x2
 15031 11fb 37       		.byte	0x37
 15032 11fc 9F       		.byte	0x9f
 15033 11fd 00000000 		.4byte	0
 15034 1201 00000000 		.4byte	0
 15035              	.LLST112:
 15036 1205 8C000000 		.4byte	.LVL322
 15037 1209 97000000 		.4byte	.LVL323-1
 15038 120d 0100     		.2byte	0x1
 15039 120f 50       		.byte	0x50
 15040 1210 97000000 		.4byte	.LVL323-1
ARM GAS  C:\Users\AHMED~1.ELE\AppData\Local\Temp\cc594ylT.s 			page 286


 15041 1214 C2000000 		.4byte	.LVL327
 15042 1218 0100     		.2byte	0x1
 15043 121a 54       		.byte	0x54
 15044 121b 00000000 		.4byte	0
 15045 121f 00000000 		.4byte	0
 15046              	.LLST113:
 15047 1223 B8000000 		.4byte	.LVL325
 15048 1227 34070000 		.4byte	.LVL505
 15049 122b 0200     		.2byte	0x2
 15050 122d 42       		.byte	0x42
 15051 122e 9F       		.byte	0x9f
 15052 122f 00000000 		.4byte	0
 15053 1233 00000000 		.4byte	0
 15054              	.LLST114:
 15055 1237 C0000000 		.4byte	.LVL326
 15056 123b CB000000 		.4byte	.LVL328-1
 15057 123f 0100     		.2byte	0x1
 15058 1241 50       		.byte	0x50
 15059 1242 CB000000 		.4byte	.LVL328-1
 15060 1246 10010000 		.4byte	.LVL336
 15061 124a 0100     		.2byte	0x1
 15062 124c 54       		.byte	0x54
 15063 124d 00000000 		.4byte	0
 15064 1251 00000000 		.4byte	0
 15065              	.LLST115:
 15066 1255 EC000000 		.4byte	.LVL330
 15067 1259 34070000 		.4byte	.LVL505
 15068 125d 0200     		.2byte	0x2
 15069 125f 31       		.byte	0x31
 15070 1260 9F       		.byte	0x9f
 15071 1261 00000000 		.4byte	0
 15072 1265 00000000 		.4byte	0
 15073              	.LLST116:
 15074 1269 86010000 		.4byte	.LVL350
 15075 126d C4010000 		.4byte	.LVL357
 15076 1271 0200     		.2byte	0x2
 15077 1273 3A       		.byte	0x3a
 15078 1274 9F       		.byte	0x9f
 15079 1275 00000000 		.4byte	0
 15080 1279 00000000 		.4byte	0
 15081              	.LLST117:
 15082 127d 8E010000 		.4byte	.LVL351
 15083 1281 99010000 		.4byte	.LVL352-1
 15084 1285 0100     		.2byte	0x1
 15085 1287 50       		.byte	0x50
 15086 1288 99010000 		.4byte	.LVL352-1
 15087 128c C2010000 		.4byte	.LVL356
 15088 1290 0100     		.2byte	0x1
 15089 1292 57       		.byte	0x57
 15090 1293 00000000 		.4byte	0
 15091 1297 00000000 		.4byte	0
 15092              	.LLST118:
 15093 129b C4010000 		.4byte	.LVL357
 15094 129f 02020000 		.4byte	.LVL364
 15095 12a3 0200     		.2byte	0x2
 15096 12a5 3A       		.byte	0x3a
 15097 12a6 9F       		.byte	0x9f
ARM GAS  C:\Users\AHMED~1.ELE\AppData\Local\Temp\cc594ylT.s 			page 287


 15098 12a7 00000000 		.4byte	0
 15099 12ab 00000000 		.4byte	0
 15100              	.LLST119:
 15101 12af CC010000 		.4byte	.LVL358
 15102 12b3 D7010000 		.4byte	.LVL359-1
 15103 12b7 0100     		.2byte	0x1
 15104 12b9 50       		.byte	0x50
 15105 12ba D7010000 		.4byte	.LVL359-1
 15106 12be 00020000 		.4byte	.LVL363
 15107 12c2 0100     		.2byte	0x1
 15108 12c4 57       		.byte	0x57
 15109 12c5 00000000 		.4byte	0
 15110 12c9 00000000 		.4byte	0
 15111              	.LLST120:
 15112 12cd 02020000 		.4byte	.LVL364
 15113 12d1 40020000 		.4byte	.LVL371
 15114 12d5 0200     		.2byte	0x2
 15115 12d7 3A       		.byte	0x3a
 15116 12d8 9F       		.byte	0x9f
 15117 12d9 00000000 		.4byte	0
 15118 12dd 00000000 		.4byte	0
 15119              	.LLST121:
 15120 12e1 0A020000 		.4byte	.LVL365
 15121 12e5 15020000 		.4byte	.LVL366-1
 15122 12e9 0100     		.2byte	0x1
 15123 12eb 50       		.byte	0x50
 15124 12ec 15020000 		.4byte	.LVL366-1
 15125 12f0 3E020000 		.4byte	.LVL370
 15126 12f4 0100     		.2byte	0x1
 15127 12f6 57       		.byte	0x57
 15128 12f7 00000000 		.4byte	0
 15129 12fb 00000000 		.4byte	0
 15130              	.LLST122:
 15131 12ff 40020000 		.4byte	.LVL371
 15132 1303 80020000 		.4byte	.LVL378
 15133 1307 0200     		.2byte	0x2
 15134 1309 3A       		.byte	0x3a
 15135 130a 9F       		.byte	0x9f
 15136 130b 00000000 		.4byte	0
 15137 130f 00000000 		.4byte	0
 15138              	.LLST123:
 15139 1313 48020000 		.4byte	.LVL372
 15140 1317 53020000 		.4byte	.LVL373-1
 15141 131b 0100     		.2byte	0x1
 15142 131d 50       		.byte	0x50
 15143 131e 53020000 		.4byte	.LVL373-1
 15144 1322 7E020000 		.4byte	.LVL377
 15145 1326 0100     		.2byte	0x1
 15146 1328 57       		.byte	0x57
 15147 1329 00000000 		.4byte	0
 15148 132d 00000000 		.4byte	0
 15149              	.LLST124:
 15150 1331 88020000 		.4byte	.LVL379
 15151 1335 E8020000 		.4byte	.LVL386
 15152 1339 0200     		.2byte	0x2
 15153 133b 3A       		.byte	0x3a
 15154 133c 9F       		.byte	0x9f
ARM GAS  C:\Users\AHMED~1.ELE\AppData\Local\Temp\cc594ylT.s 			page 288


 15155 133d 00000000 		.4byte	0
 15156 1341 00000000 		.4byte	0
 15157              	.LLST125:
 15158 1345 90020000 		.4byte	.LVL380
 15159 1349 9B020000 		.4byte	.LVL381-1
 15160 134d 0100     		.2byte	0x1
 15161 134f 50       		.byte	0x50
 15162 1350 9B020000 		.4byte	.LVL381-1
 15163 1354 CA020000 		.4byte	.LVL385
 15164 1358 0100     		.2byte	0x1
 15165 135a 57       		.byte	0x57
 15166 135b 00000000 		.4byte	0
 15167 135f 00000000 		.4byte	0
 15168              	.LLST126:
 15169 1363 EE020000 		.4byte	.LVL387
 15170 1367 30030000 		.4byte	.LVL393
 15171 136b 0200     		.2byte	0x2
 15172 136d 3A       		.byte	0x3a
 15173 136e 9F       		.byte	0x9f
 15174 136f 00000000 		.4byte	0
 15175 1373 00000000 		.4byte	0
 15176              	.LLST127:
 15177 1377 F6020000 		.4byte	.LVL388
 15178 137b 01030000 		.4byte	.LVL389-1
 15179 137f 0100     		.2byte	0x1
 15180 1381 50       		.byte	0x50
 15181 1382 01030000 		.4byte	.LVL389-1
 15182 1386 30030000 		.4byte	.LVL393
 15183 138a 0100     		.2byte	0x1
 15184 138c 57       		.byte	0x57
 15185 138d 00000000 		.4byte	0
 15186 1391 00000000 		.4byte	0
 15187              	.LLST128:
 15188 1395 48030000 		.4byte	.LVL397
 15189 1399 60030000 		.4byte	.LVL401
 15190 139d 0200     		.2byte	0x2
 15191 139f 3D       		.byte	0x3d
 15192 13a0 9F       		.byte	0x9f
 15193 13a1 00000000 		.4byte	0
 15194 13a5 00000000 		.4byte	0
 15195              	.LLST129:
 15196 13a9 50030000 		.4byte	.LVL398
 15197 13ad 5B030000 		.4byte	.LVL400-1
 15198 13b1 0100     		.2byte	0x1
 15199 13b3 50       		.byte	0x50
 15200 13b4 5B030000 		.4byte	.LVL400-1
 15201 13b8 60030000 		.4byte	.LVL401
 15202 13bc 0100     		.2byte	0x1
 15203 13be 56       		.byte	0x56
 15204 13bf 00000000 		.4byte	0
 15205 13c3 00000000 		.4byte	0
 15206              	.LLST130:
 15207 13c7 A8030000 		.4byte	.LVL411
 15208 13cb C4030000 		.4byte	.LVL415
 15209 13cf 0200     		.2byte	0x2
 15210 13d1 3F       		.byte	0x3f
 15211 13d2 9F       		.byte	0x9f
ARM GAS  C:\Users\AHMED~1.ELE\AppData\Local\Temp\cc594ylT.s 			page 289


 15212 13d3 00000000 		.4byte	0
 15213 13d7 00000000 		.4byte	0
 15214              	.LLST131:
 15215 13db B0030000 		.4byte	.LVL412
 15216 13df BD030000 		.4byte	.LVL414-1
 15217 13e3 0100     		.2byte	0x1
 15218 13e5 50       		.byte	0x50
 15219 13e6 BD030000 		.4byte	.LVL414-1
 15220 13ea C4030000 		.4byte	.LVL415
 15221 13ee 0100     		.2byte	0x1
 15222 13f0 56       		.byte	0x56
 15223 13f1 00000000 		.4byte	0
 15224 13f5 00000000 		.4byte	0
 15225              	.LLST132:
 15226 13f9 10040000 		.4byte	.LVL429
 15227 13fd 16040000 		.4byte	.LVL430
 15228 1401 0100     		.2byte	0x1
 15229 1403 50       		.byte	0x50
 15230 1404 16040000 		.4byte	.LVL430
 15231 1408 4C040000 		.4byte	.LVL436
 15232 140c 0100     		.2byte	0x1
 15233 140e 5A       		.byte	0x5a
 15234 140f 00000000 		.4byte	0
 15235 1413 00000000 		.4byte	0
 15236              	.LLST133:
 15237 1417 1A040000 		.4byte	.LVL431
 15238 141b 25040000 		.4byte	.LVL433-1
 15239 141f 0100     		.2byte	0x1
 15240 1421 50       		.byte	0x50
 15241 1422 25040000 		.4byte	.LVL433-1
 15242 1426 70040000 		.4byte	.LVL439
 15243 142a 0100     		.2byte	0x1
 15244 142c 56       		.byte	0x56
 15245 142d 00000000 		.4byte	0
 15246 1431 00000000 		.4byte	0
 15247              	.LLST134:
 15248 1435 38050000 		.4byte	.LVL457
 15249 1439 3C050000 		.4byte	.LVL458
 15250 143d 0100     		.2byte	0x1
 15251 143f 50       		.byte	0x50
 15252 1440 3C050000 		.4byte	.LVL458
 15253 1444 41050000 		.4byte	.LVL460-1
 15254 1448 0100     		.2byte	0x1
 15255 144a 53       		.byte	0x53
 15256 144b 41050000 		.4byte	.LVL460-1
 15257 144f 72050000 		.4byte	.LVL463
 15258 1453 0300     		.2byte	0x3
 15259 1455 91       		.byte	0x91
 15260 1456 B07B     		.sleb128 -592
 15261 1458 00000000 		.4byte	0
 15262 145c 00000000 		.4byte	0
 15263              	.LLST135:
 15264 1460 42050000 		.4byte	.LVL460
 15265 1464 4F050000 		.4byte	.LVL461-1
 15266 1468 0100     		.2byte	0x1
 15267 146a 50       		.byte	0x50
 15268 146b 4F050000 		.4byte	.LVL461-1
ARM GAS  C:\Users\AHMED~1.ELE\AppData\Local\Temp\cc594ylT.s 			page 290


 15269 146f 72050000 		.4byte	.LVL463
 15270 1473 0100     		.2byte	0x1
 15271 1475 5B       		.byte	0x5b
 15272 1476 00000000 		.4byte	0
 15273 147a 00000000 		.4byte	0
 15274              	.LLST136:
 15275 147e A0050000 		.4byte	.LVL468
 15276 1482 A4050000 		.4byte	.LVL469
 15277 1486 0100     		.2byte	0x1
 15278 1488 50       		.byte	0x50
 15279 1489 A4050000 		.4byte	.LVL469
 15280 148d A9050000 		.4byte	.LVL470-1
 15281 1491 0100     		.2byte	0x1
 15282 1493 53       		.byte	0x53
 15283 1494 A9050000 		.4byte	.LVL470-1
 15284 1498 DA050000 		.4byte	.LVL473
 15285 149c 0300     		.2byte	0x3
 15286 149e 91       		.byte	0x91
 15287 149f B47B     		.sleb128 -588
 15288 14a1 00000000 		.4byte	0
 15289 14a5 00000000 		.4byte	0
 15290              	.LLST137:
 15291 14a9 AA050000 		.4byte	.LVL470
 15292 14ad B7050000 		.4byte	.LVL471-1
 15293 14b1 0100     		.2byte	0x1
 15294 14b3 50       		.byte	0x50
 15295 14b4 B7050000 		.4byte	.LVL471-1
 15296 14b8 DA050000 		.4byte	.LVL473
 15297 14bc 0100     		.2byte	0x1
 15298 14be 5B       		.byte	0x5b
 15299 14bf 00000000 		.4byte	0
 15300 14c3 00000000 		.4byte	0
 15301              	.LLST138:
 15302 14c7 B2060000 		.4byte	.LVL491
 15303 14cb BC060000 		.4byte	.LVL493
 15304 14cf 0200     		.2byte	0x2
 15305 14d1 30       		.byte	0x30
 15306 14d2 9F       		.byte	0x9f
 15307 14d3 00000000 		.4byte	0
 15308 14d7 00000000 		.4byte	0
 15309              	.LLST139:
 15310 14db F4060000 		.4byte	.LVL499
 15311 14df F8060000 		.4byte	.LVL500
 15312 14e3 0100     		.2byte	0x1
 15313 14e5 50       		.byte	0x50
 15314 14e6 F8060000 		.4byte	.LVL500
 15315 14ea FD060000 		.4byte	.LVL501-1
 15316 14ee 0100     		.2byte	0x1
 15317 14f0 53       		.byte	0x53
 15318 14f1 FD060000 		.4byte	.LVL501-1
 15319 14f5 34070000 		.4byte	.LVL505
 15320 14f9 0300     		.2byte	0x3
 15321 14fb 91       		.byte	0x91
 15322 14fc B47B     		.sleb128 -588
 15323 14fe 00000000 		.4byte	0
 15324 1502 00000000 		.4byte	0
 15325              	.LLST140:
ARM GAS  C:\Users\AHMED~1.ELE\AppData\Local\Temp\cc594ylT.s 			page 291


 15326 1506 FE060000 		.4byte	.LVL501
 15327 150a 0F070000 		.4byte	.LVL502-1
 15328 150e 0100     		.2byte	0x1
 15329 1510 50       		.byte	0x50
 15330 1511 0F070000 		.4byte	.LVL502-1
 15331 1515 34070000 		.4byte	.LVL505
 15332 1519 0100     		.2byte	0x1
 15333 151b 5B       		.byte	0x5b
 15334 151c 00000000 		.4byte	0
 15335 1520 00000000 		.4byte	0
 15336              		.section	.debug_aranges,"",%progbits
 15337 0000 64000000 		.4byte	0x64
 15338 0004 0200     		.2byte	0x2
 15339 0006 00000000 		.4byte	.Ldebug_info0
 15340 000a 04       		.byte	0x4
 15341 000b 00       		.byte	0
 15342 000c 0000     		.2byte	0
 15343 000e 0000     		.2byte	0
 15344 0010 00000000 		.4byte	.LFB0
 15345 0014 28000000 		.4byte	.LFE0-.LFB0
 15346 0018 00000000 		.4byte	.LFB2
 15347 001c 24000000 		.4byte	.LFE2-.LFB2
 15348 0020 00000000 		.4byte	.LFB3
 15349 0024 24010000 		.4byte	.LFE3-.LFB3
 15350 0028 00000000 		.4byte	.LFB1
 15351 002c 40010000 		.4byte	.LFE1-.LFB1
 15352 0030 00000000 		.4byte	.LFB10
 15353 0034 20000000 		.4byte	.LFE10-.LFB10
 15354 0038 00000000 		.4byte	.LFB11
 15355 003c 54000000 		.4byte	.LFE11-.LFB11
 15356 0040 00000000 		.4byte	.LFB6
 15357 0044 5A000000 		.4byte	.LFE6-.LFB6
 15358 0048 00000000 		.4byte	.LFB7
 15359 004c 98000000 		.4byte	.LFE7-.LFB7
 15360 0050 00000000 		.4byte	.LFB8
 15361 0054 34060000 		.4byte	.LFE8-.LFB8
 15362 0058 00000000 		.4byte	.LFB9
 15363 005c 40070000 		.4byte	.LFE9-.LFB9
 15364 0060 00000000 		.4byte	0
 15365 0064 00000000 		.4byte	0
 15366              		.section	.debug_ranges,"",%progbits
 15367              	.Ldebug_ranges0:
 15368 0000 68000000 		.4byte	.LBB26
 15369 0004 6A000000 		.4byte	.LBE26
 15370 0008 70000000 		.4byte	.LBB27
 15371 000c 72000000 		.4byte	.LBE27
 15372 0010 76000000 		.4byte	.LBB28
 15373 0014 A6000000 		.4byte	.LBE28
 15374 0018 00000000 		.4byte	0
 15375 001c 00000000 		.4byte	0
 15376 0020 7A000000 		.4byte	.LBB65
 15377 0024 7C000000 		.4byte	.LBE65
 15378 0028 82000000 		.4byte	.LBB66
 15379 002c 84000000 		.4byte	.LBE66
 15380 0030 88000000 		.4byte	.LBB67
 15381 0034 B8000000 		.4byte	.LBE67
 15382 0038 00000000 		.4byte	0
ARM GAS  C:\Users\AHMED~1.ELE\AppData\Local\Temp\cc594ylT.s 			page 292


 15383 003c 00000000 		.4byte	0
 15384 0040 00000000 		.4byte	.LFB0
 15385 0044 28000000 		.4byte	.LFE0
 15386 0048 00000000 		.4byte	.LFB2
 15387 004c 24000000 		.4byte	.LFE2
 15388 0050 00000000 		.4byte	.LFB3
 15389 0054 24010000 		.4byte	.LFE3
 15390 0058 00000000 		.4byte	.LFB1
 15391 005c 40010000 		.4byte	.LFE1
 15392 0060 00000000 		.4byte	.LFB10
 15393 0064 20000000 		.4byte	.LFE10
 15394 0068 00000000 		.4byte	.LFB11
 15395 006c 54000000 		.4byte	.LFE11
 15396 0070 00000000 		.4byte	.LFB6
 15397 0074 5A000000 		.4byte	.LFE6
 15398 0078 00000000 		.4byte	.LFB7
 15399 007c 98000000 		.4byte	.LFE7
 15400 0080 00000000 		.4byte	.LFB8
 15401 0084 34060000 		.4byte	.LFE8
 15402 0088 00000000 		.4byte	.LFB9
 15403 008c 40070000 		.4byte	.LFE9
 15404 0090 00000000 		.4byte	0
 15405 0094 00000000 		.4byte	0
 15406              		.section	.debug_line,"",%progbits
 15407              	.Ldebug_line0:
 15408 0000 E3050000 		.section	.debug_str,"MS",%progbits,1
 15408      02000D01 
 15408      00000201 
 15408      FB0E0D00 
 15408      01010101 
 15409              	.LASF327:
 15410 0000 4F535F46 		.ascii	"OS_FN_CLICC_LED_OPEN\000"
 15410      4E5F434C 
 15410      4943435F 
 15410      4C45445F 
 15410      4F50454E 
 15411              	.LASF679:
 15412 0015 61446174 		.ascii	"aDat\000"
 15412      00
 15413              	.LASF478:
 15414 001a 4F535F46 		.ascii	"OS_FN_GPRS_SET_PIN_STATUS\000"
 15414      4E5F4750 
 15414      52535F53 
 15414      45545F50 
 15414      494E5F53 
 15415              	.LASF10:
 15416 0034 63686172 		.ascii	"char\000"
 15416      00
 15417              	.LASF427:
 15418 0039 4F535F46 		.ascii	"OS_FN_GET_CALLID\000"
 15418      4E5F4745 
 15418      545F4341 
 15418      4C4C4944 
 15418      00
 15419              	.LASF567:
 15420 004a 41504D5F 		.ascii	"APM_CLRKEY\000"
 15420      434C524B 
ARM GAS  C:\Users\AHMED~1.ELE\AppData\Local\Temp\cc594ylT.s 			page 293


 15420      455900
 15421              	.LASF591:
 15422 0055 41504D5F 		.ascii	"APM_GETLOGOTBL\000"
 15422      4745544C 
 15422      4F474F54 
 15422      424C00
 15423              	.LASF193:
 15424 0064 4F535F46 		.ascii	"OS_FN_FILE_INIT_SEARCH\000"
 15424      4E5F4649 
 15424      4C455F49 
 15424      4E49545F 
 15424      53454152 
 15425              	.LASF11:
 15426 007b 73697A65 		.ascii	"size_t\000"
 15426      5F7400
 15427              	.LASF632:
 15428 0082 6D61785F 		.ascii	"max_dat_len\000"
 15428      6461745F 
 15428      6C656E00 
 15429              	.LASF173:
 15430 008e 4F535F46 		.ascii	"OS_FN_FILE_SEEK\000"
 15430      4E5F4649 
 15430      4C455F53 
 15430      45454B00 
 15431              	.LASF9:
 15432 009e 73697A65 		.ascii	"sizetype\000"
 15432      74797065 
 15432      00
 15433              	.LASF414:
 15434 00a7 4F535F46 		.ascii	"OS_FN_NFC_IC_REG_DIRECT_WRITE\000"
 15434      4E5F4E46 
 15434      435F4943 
 15434      5F524547 
 15434      5F444952 
 15435              	.LASF202:
 15436 00c5 4F535F46 		.ascii	"OS_FN_CONFIG_WRITE\000"
 15436      4E5F434F 
 15436      4E464947 
 15436      5F575249 
 15436      544500
 15437              	.LASF700:
 15438 00d8 66726565 		.ascii	"free_run\000"
 15438      5F72756E 
 15438      00
 15439              	.LASF303:
 15440 00e1 4F535F46 		.ascii	"OS_FN_GPRS_SMS_SEND\000"
 15440      4E5F4750 
 15440      52535F53 
 15440      4D535F53 
 15440      454E4400 
 15441              	.LASF595:
 15442 00f5 41504D5F 		.ascii	"APM_SETPENDING\000"
 15442      53455450 
 15442      454E4449 
 15442      4E4700
 15443              	.LASF583:
 15444 0104 41504D5F 		.ascii	"APM_GETCARDTBL\000"
ARM GAS  C:\Users\AHMED~1.ELE\AppData\Local\Temp\cc594ylT.s 			page 294


 15444      47455443 
 15444      41524454 
 15444      424C00
 15445              	.LASF332:
 15446 0113 4F535F46 		.ascii	"OS_FN_CLICC_LED_ON\000"
 15446      4E5F434C 
 15446      4943435F 
 15446      4C45445F 
 15446      4F4E00
 15447              	.LASF630:
 15448 0126 4241525F 		.ascii	"BAR_DAT\000"
 15448      44415400 
 15449              	.LASF339:
 15450 012e 4F535F46 		.ascii	"OS_FN_USBHOST_DEVICEMAP\000"
 15450      4E5F5553 
 15450      42484F53 
 15450      545F4445 
 15450      56494345 
 15451              	.LASF525:
 15452 0146 464F5045 		.ascii	"FOPENMW\000"
 15452      4E4D5700 
 15453              	.LASF507:
 15454 014e 545F494D 		.ascii	"T_IMAGE_FRAME\000"
 15454      4147455F 
 15454      4652414D 
 15454      4500
 15455              	.LASF457:
 15456 015c 4F535F46 		.ascii	"OS_FN_GCM_AES_OPEN\000"
 15456      4E5F4743 
 15456      4D5F4145 
 15456      535F4F50 
 15456      454E00
 15457              	.LASF550:
 15458 016f 44495350 		.ascii	"DISP_SETPMW\000"
 15458      5F534554 
 15458      504D5700 
 15459              	.LASF314:
 15460 017b 4F535F46 		.ascii	"OS_FN_CODEC_OPEN\000"
 15460      4E5F434F 
 15460      4445435F 
 15460      4F50454E 
 15460      00
 15461              	.LASF558:
 15462 018c 534D535F 		.ascii	"SMS_TX_MW\000"
 15462      54585F4D 
 15462      5700
 15463              	.LASF81:
 15464 0196 4F535F46 		.ascii	"OS_FN_COM3_SREAD\000"
 15464      4E5F434F 
 15464      4D335F53 
 15464      52454144 
 15464      00
 15465              	.LASF169:
 15466 01a7 4F535F46 		.ascii	"OS_FN_FILE_EXIST\000"
 15466      4E5F4649 
 15466      4C455F45 
 15466      58495354 
ARM GAS  C:\Users\AHMED~1.ELE\AppData\Local\Temp\cc594ylT.s 			page 295


 15466      00
 15467              	.LASF479:
 15468 01b8 4F535F46 		.ascii	"OS_FN_IMG_SENSOR_LED_OPEN\000"
 15468      4E5F494D 
 15468      475F5345 
 15468      4E534F52 
 15468      5F4C4544 
 15469              	.LASF118:
 15470 01d2 4F535F46 		.ascii	"OS_FN_SM4_DECRYPT\000"
 15470      4E5F534D 
 15470      345F4445 
 15470      43525950 
 15470      5400
 15471              	.LASF602:
 15472 01e4 41504D5F 		.ascii	"APM_STIS_ADDTBL\000"
 15472      53544953 
 15472      5F414444 
 15472      54424C00 
 15473              	.LASF487:
 15474 01f4 4F535F46 		.ascii	"OS_FN_GPS_GET_DETAIL_INFO\000"
 15474      4E5F4750 
 15474      535F4745 
 15474      545F4445 
 15474      5441494C 
 15475              	.LASF299:
 15476 020e 4F535F46 		.ascii	"OS_FN_GPRS_GET_CID\000"
 15476      4E5F4750 
 15476      52535F47 
 15476      45545F43 
 15476      494400
 15477              	.LASF368:
 15478 0221 4F535F46 		.ascii	"OS_FN_TAMPER_RESET_STATUS\000"
 15478      4E5F5441 
 15478      4D504552 
 15478      5F524553 
 15478      45545F53 
 15479              	.LASF693:
 15480 023b 63757272 		.ascii	"curr_mode\000"
 15480      5F6D6F64 
 15480      6500
 15481              	.LASF441:
 15482 0245 4F535F46 		.ascii	"OS_FN_POWER\000"
 15482      4E5F504F 
 15482      57455200 
 15483              	.LASF618:
 15484 0251 41504D5F 		.ascii	"APM_MERCHFUNC\000"
 15484      4D455243 
 15484      4846554E 
 15484      4300
 15485              	.LASF469:
 15486 025f 4F535F46 		.ascii	"OS_FN_WIFI_GET_DEVICE_STATE\000"
 15486      4E5F5749 
 15486      46495F47 
 15486      45545F44 
 15486      45564943 
 15487              	.LASF289:
 15488 027b 4F535F46 		.ascii	"OS_FN_ADC_CH_DISABLE\000"
ARM GAS  C:\Users\AHMED~1.ELE\AppData\Local\Temp\cc594ylT.s 			page 296


 15488      4E5F4144 
 15488      435F4348 
 15488      5F444953 
 15488      41424C45 
 15489              	.LASF215:
 15490 0290 4F535F46 		.ascii	"OS_FN_MMC_SIZE\000"
 15490      4E5F4D4D 
 15490      435F5349 
 15490      5A4500
 15491              	.LASF484:
 15492 029f 4F535F46 		.ascii	"OS_FN_TAMPER_UNLOCK\000"
 15492      4E5F5441 
 15492      4D504552 
 15492      5F554E4C 
 15492      4F434B00 
 15493              	.LASF182:
 15494 02b3 4F535F46 		.ascii	"OS_FN_FILE_DSEARCH_ALL\000"
 15494      4E5F4649 
 15494      4C455F44 
 15494      53454152 
 15494      43485F41 
 15495              	.LASF436:
 15496 02ca 4F535F46 		.ascii	"OS_FN_DMK_KVC_READ\000"
 15496      4E5F444D 
 15496      4B5F4B56 
 15496      435F5245 
 15496      414400
 15497              	.LASF28:
 15498 02dd 4F535F46 		.ascii	"OS_FN_TIMER_SET\000"
 15498      4E5F5449 
 15498      4D45525F 
 15498      53455400 
 15499              	.LASF463:
 15500 02ed 4F535F46 		.ascii	"OS_FN_SYS_THREAD_CREATE\000"
 15500      4E5F5359 
 15500      535F5448 
 15500      52454144 
 15500      5F435245 
 15501              	.LASF146:
 15502 0305 4F535F46 		.ascii	"OS_FN_BUFMAN_FREE\000"
 15502      4E5F4255 
 15502      464D414E 
 15502      5F465245 
 15502      4500
 15503              	.LASF294:
 15504 0317 4F535F46 		.ascii	"OS_FN_GPRS_AT_RESP\000"
 15504      4E5F4750 
 15504      52535F41 
 15504      545F5245 
 15504      535000
 15505              	.LASF563:
 15506 032a 46465452 		.ascii	"FFTRUNCATEMW\000"
 15506      554E4341 
 15506      54454D57 
 15506      00
 15507              	.LASF477:
 15508 0337 4F535F46 		.ascii	"OS_FN_GPRS_IS_HL6RD_OLD_FRM\000"
ARM GAS  C:\Users\AHMED~1.ELE\AppData\Local\Temp\cc594ylT.s 			page 297


 15508      4E5F4750 
 15508      52535F49 
 15508      535F484C 
 15508      3652445F 
 15509              	.LASF278:
 15510 0353 4F535F46 		.ascii	"OS_FN_MCOM_TXRDY\000"
 15510      4E5F4D43 
 15510      4F4D5F54 
 15510      58524459 
 15510      00
 15511              	.LASF222:
 15512 0364 4F535F46 		.ascii	"OS_FN_SLE_OPEN\000"
 15512      4E5F534C 
 15512      455F4F50 
 15512      454E00
 15513              	.LASF49:
 15514 0373 4F535F46 		.ascii	"OS_FN_DISP_BRIGHTNESS\000"
 15514      4E5F4449 
 15514      53505F42 
 15514      52494748 
 15514      544E4553 
 15515              	.LASF305:
 15516 0389 4F535F46 		.ascii	"OS_FN_GPRS_SMS_READ\000"
 15516      4E5F4750 
 15516      52535F53 
 15516      4D535F52 
 15516      45414400 
 15517              	.LASF540:
 15518 039d 49434349 		.ascii	"ICCINSERTEDMW\000"
 15518      4E534552 
 15518      5445444D 
 15518      5700
 15519              	.LASF296:
 15520 03ab 4F535F46 		.ascii	"OS_FN_GPRS_READ\000"
 15520      4E5F4750 
 15520      52535F52 
 15520      45414400 
 15521              	.LASF501:
 15522 03bb 55534246 		.ascii	"USBFPRT_GENERAL_INFO_IMG_BPP\000"
 15522      5052545F 
 15522      47454E45 
 15522      52414C5F 
 15522      494E464F 
 15523              	.LASF623:
 15524 03d8 4241525F 		.ascii	"BAR_ENCODE\000"
 15524      454E434F 
 15524      444500
 15525              	.LASF714:
 15526 03e3 7372632F 		.ascii	"src/camtest.c\000"
 15526      63616D74 
 15526      6573742E 
 15526      6300
 15527              	.LASF189:
 15528 03f1 4F535F46 		.ascii	"OS_FN_FILE_GET_FREE_SPACE\000"
 15528      4E5F4649 
 15528      4C455F47 
 15528      45545F46 
ARM GAS  C:\Users\AHMED~1.ELE\AppData\Local\Temp\cc594ylT.s 			page 298


 15528      5245455F 
 15529              	.LASF586:
 15530 040b 41504D5F 		.ascii	"APM_GETACQCOUNT\000"
 15530      47455441 
 15530      4351434F 
 15530      554E5400 
 15531              	.LASF609:
 15532 041b 41504D5F 		.ascii	"APM_GET_REV_REC\000"
 15532      4745545F 
 15532      5245565F 
 15532      52454300 
 15533              	.LASF468:
 15534 042b 4F535F46 		.ascii	"OS_FN_WIFI_SOCKET_SEND_UDP\000"
 15534      4E5F5749 
 15534      46495F53 
 15534      4F434B45 
 15534      545F5345 
 15535              	.LASF439:
 15536 0446 4F535F46 		.ascii	"OS_FN_RMB_CONTROL\000"
 15536      4E5F524D 
 15536      425F434F 
 15536      4E54524F 
 15536      4C00
 15537              	.LASF109:
 15538 0458 4F535F46 		.ascii	"OS_FN_SM2_GET_SIGNATURE\000"
 15538      4E5F534D 
 15538      325F4745 
 15538      545F5349 
 15538      474E4154 
 15539              	.LASF75:
 15540 0470 4F535F46 		.ascii	"OS_FN_COM3_CLOSE\000"
 15540      4E5F434F 
 15540      4D335F43 
 15540      4C4F5345 
 15540      00
 15541              	.LASF65:
 15542 0481 4F535F46 		.ascii	"OS_FN_COM2_OPEN\000"
 15542      4E5F434F 
 15542      4D325F4F 
 15542      50454E00 
 15543              	.LASF338:
 15544 0491 4F535F46 		.ascii	"OS_FN_USBHOST_DEVINFO\000"
 15544      4E5F5553 
 15544      42484F53 
 15544      545F4445 
 15544      56494E46 
 15545              	.LASF235:
 15546 04a7 4F535F46 		.ascii	"OS_FN_MSR_RXLEN\000"
 15546      4E5F4D53 
 15546      525F5258 
 15546      4C454E00 
 15547              	.LASF489:
 15548 04b7 775F6873 		.ascii	"w_hstart\000"
 15548      74617274 
 15548      00
 15549              	.LASF348:
 15550 04c0 4F535F46 		.ascii	"OS_FN_DEVICE_SEARCH_NEXT\000"
ARM GAS  C:\Users\AHMED~1.ELE\AppData\Local\Temp\cc594ylT.s 			page 299


 15550      4E5F4445 
 15550      56494345 
 15550      5F534541 
 15550      5243485F 
 15551              	.LASF94:
 15552 04d9 4F535F46 		.ascii	"OS_FN_AES_ENCRYPT_BLOCK\000"
 15552      4E5F4145 
 15552      535F454E 
 15552      43525950 
 15552      545F424C 
 15553              	.LASF179:
 15554 04f1 4F535F46 		.ascii	"OS_FN_FILE_END\000"
 15554      4E5F4649 
 15554      4C455F45 
 15554      4E4400
 15555              	.LASF120:
 15556 0500 4F535F46 		.ascii	"OS_FN_KEY_SAVE_TMK\000"
 15556      4E5F4B45 
 15556      595F5341 
 15556      56455F54 
 15556      4D4B00
 15557              	.LASF655:
 15558 0513 53686F77 		.ascii	"ShowLayer\000"
 15558      4C617965 
 15558      7200
 15559              	.LASF206:
 15560 051d 4F535F46 		.ascii	"OS_FN_SAM_SELECT\000"
 15560      4E5F5341 
 15560      4D5F5345 
 15560      4C454354 
 15560      00
 15561              	.LASF423:
 15562 052e 4F535F46 		.ascii	"OS_FN_GPS_ENABLED\000"
 15562      4E5F4750 
 15562      535F454E 
 15562      41424C45 
 15562      4400
 15563              	.LASF399:
 15564 0540 4F535F46 		.ascii	"OS_FN_BARCODE_STATUS\000"
 15564      4E5F4241 
 15564      52434F44 
 15564      455F5354 
 15564      41545553 
 15565              	.LASF70:
 15566 0555 4F535F46 		.ascii	"OS_FN_COM2_SEND\000"
 15566      4E5F434F 
 15566      4D325F53 
 15566      454E4400 
 15567              	.LASF204:
 15568 0565 4F535F46 		.ascii	"OS_FN_SAM_OPEN\000"
 15568      4E5F5341 
 15568      4D5F4F50 
 15568      454E00
 15569              	.LASF687:
 15570 0574 70626172 		.ascii	"pbar_dat\000"
 15570      5F646174 
 15570      00
ARM GAS  C:\Users\AHMED~1.ELE\AppData\Local\Temp\cc594ylT.s 			page 300


 15571              	.LASF538:
 15572 057d 44455332 		.ascii	"DES2MW\000"
 15572      4D5700
 15573              	.LASF102:
 15574 0584 4F535F46 		.ascii	"OS_FN_SHA_FINISH\000"
 15574      4E5F5348 
 15574      415F4649 
 15574      4E495348 
 15574      00
 15575              	.LASF670:
 15576 0595 53656E73 		.ascii	"SensorOpen\000"
 15576      6F724F70 
 15576      656E00
 15577              	.LASF383:
 15578 05a0 4F535F46 		.ascii	"OS_FN_MIF_INC\000"
 15578      4E5F4D49 
 15578      465F494E 
 15578      4300
 15579              	.LASF421:
 15580 05ae 4F535F46 		.ascii	"OS_FN_GPS_RESP\000"
 15580      4E5F4750 
 15580      535F5245 
 15580      535000
 15581              	.LASF229:
 15582 05bd 4F535F46 		.ascii	"OS_FN_LAN_TXRDY\000"
 15582      4E5F4C41 
 15582      4E5F5458 
 15582      52445900 
 15583              	.LASF185:
 15584 05cd 4F535F46 		.ascii	"OS_FN_FILE_GET_NAME\000"
 15584      4E5F4649 
 15584      4C455F47 
 15584      45545F4E 
 15584      414D4500 
 15585              	.LASF715:
 15586 05e1 443A5C47 		.ascii	"D:\\GuadianPro\\Core\\S_MISR\\APP\\MISR\000"
 15586      75616469 
 15586      616E5072 
 15586      6F5C436F 
 15586      72655C53 
 15587              	.LASF110:
 15588 0604 4F535F46 		.ascii	"OS_FN_SM2_VERIFY_SIGNATURE\000"
 15588      4E5F534D 
 15588      325F5645 
 15588      52494659 
 15588      5F534947 
 15589              	.LASF515:
 15590 061f 434C4F53 		.ascii	"CLOSEMW\000"
 15590      454D5700 
 15591              	.LASF95:
 15592 0627 4F535F46 		.ascii	"OS_FN_AES_DECRYPT_BLOCK\000"
 15592      4E5F4145 
 15592      535F4445 
 15592      43525950 
 15592      545F424C 
 15593              	.LASF121:
 15594 063f 4F535F46 		.ascii	"OS_FN_KEY_DES\000"
ARM GAS  C:\Users\AHMED~1.ELE\AppData\Local\Temp\cc594ylT.s 			page 301


 15594      4E5F4B45 
 15594      595F4445 
 15594      5300
 15595              	.LASF13:
 15596 064d 42595445 		.ascii	"BYTE\000"
 15596      00
 15597              	.LASF406:
 15598 0652 4F535F46 		.ascii	"OS_FN_WIFI_PROFILES_WRITE\000"
 15598      4E5F5749 
 15598      46495F50 
 15598      524F4649 
 15598      4C45535F 
 15599              	.LASF649:
 15600 066c 6153686F 		.ascii	"aShow\000"
 15600      7700
 15601              	.LASF119:
 15602 0672 4F535F46 		.ascii	"OS_FN_KEY_SAVE\000"
 15602      4E5F4B45 
 15602      595F5341 
 15602      564500
 15603              	.LASF92:
 15604 0681 4F535F46 		.ascii	"OS_FN_RSA_PRIVATE\000"
 15604      4E5F5253 
 15604      415F5052 
 15604      49564154 
 15604      4500
 15605              	.LASF254:
 15606 0693 4F535F46 		.ascii	"OS_FN_FL_PGM\000"
 15606      4E5F464C 
 15606      5F50474D 
 15606      00
 15607              	.LASF196:
 15608 06a0 4F535F46 		.ascii	"OS_FN_FILE_RMDIR\000"
 15608      4E5F4649 
 15608      4C455F52 
 15608      4D444952 
 15608      00
 15609              	.LASF667:
 15610 06b1 64696666 		.ascii	"diff\000"
 15610      00
 15611              	.LASF701:
 15612 06b6 6753656E 		.ascii	"gSensorOpened\000"
 15612      736F724F 
 15612      70656E65 
 15612      6400
 15613              	.LASF442:
 15614 06c4 4F535F46 		.ascii	"OS_FN_CLICC_DEBUG\000"
 15614      4E5F434C 
 15614      4943435F 
 15614      44454255 
 15614      4700
 15615              	.LASF604:
 15616 06d6 41504D5F 		.ascii	"APM_TERMDATA_UPD\000"
 15616      5445524D 
 15616      44415441 
 15616      5F555044 
 15616      00
ARM GAS  C:\Users\AHMED~1.ELE\AppData\Local\Temp\cc594ylT.s 			page 302


 15617              	.LASF280:
 15618 06e7 4F535F46 		.ascii	"OS_FN_MCOM_SSEND\000"
 15618      4E5F4D43 
 15618      4F4D5F53 
 15618      53454E44 
 15618      00
 15619              	.LASF342:
 15620 06f8 4F535F46 		.ascii	"OS_FN_DEVICE_ALLOC\000"
 15620      4E5F4445 
 15620      56494345 
 15620      5F414C4C 
 15620      4F4300
 15621              	.LASF658:
 15622 070b 614D6F64 		.ascii	"aMode\000"
 15622      6500
 15623              	.LASF453:
 15624 0711 4F535F46 		.ascii	"OS_FN_FPRT_INFO_GET\000"
 15624      4E5F4650 
 15624      52545F49 
 15624      4E464F5F 
 15624      47455400 
 15625              	.LASF198:
 15626 0725 4F535F46 		.ascii	"OS_FN_FILE_SYNC\000"
 15626      4E5F4649 
 15626      4C455F53 
 15626      594E4300 
 15627              	.LASF449:
 15628 0735 4F535F46 		.ascii	"OS_FN_FPRT_OPEN\000"
 15628      4E5F4650 
 15628      52545F4F 
 15628      50454E00 
 15629              	.LASF526:
 15630 0745 46434C4F 		.ascii	"FCLOSEMW\000"
 15630      53454D57 
 15630      00
 15631              	.LASF521:
 15632 074e 4745544C 		.ascii	"GETLASTERRMW\000"
 15632      41535445 
 15632      52524D57 
 15632      00
 15633              	.LASF236:
 15634 075b 4F535F46 		.ascii	"OS_FN_MSR_GETC\000"
 15634      4E5F4D53 
 15634      525F4745 
 15634      544300
 15635              	.LASF514:
 15636 076a 4F50454E 		.ascii	"OPENMW\000"
 15636      4D5700
 15637              	.LASF287:
 15638 0771 4F535F46 		.ascii	"OS_FN_BATT_CHARGE_MODE\000"
 15638      4E5F4241 
 15638      54545F43 
 15638      48415247 
 15638      455F4D4F 
 15639              	.LASF391:
 15640 0788 4F535F46 		.ascii	"OS_FN_MIF_INFO_SET\000"
 15640      4E5F4D49 
ARM GAS  C:\Users\AHMED~1.ELE\AppData\Local\Temp\cc594ylT.s 			page 303


 15640      465F494E 
 15640      464F5F53 
 15640      455400
 15641              	.LASF356:
 15642 079b 4F535F46 		.ascii	"OS_FN_USBOTG_GET_STATE\000"
 15642      4E5F5553 
 15642      424F5447 
 15642      5F474554 
 15642      5F535441 
 15643              	.LASF578:
 15644 07b2 41504D5F 		.ascii	"APM_FLUSHCOMM\000"
 15644      464C5553 
 15644      48434F4D 
 15644      4D00
 15645              	.LASF4:
 15646 07c0 6C6F6E67 		.ascii	"long int\000"
 15646      20696E74 
 15646      00
 15647              	.LASF493:
 15648 07c9 705F6461 		.ascii	"p_data\000"
 15648      746100
 15649              	.LASF653:
 15650 07d0 614C6179 		.ascii	"aLayId\000"
 15650      496400
 15651              	.LASF601:
 15652 07d7 41504D5F 		.ascii	"APM_STIS_CLR\000"
 15652      53544953 
 15652      5F434C52 
 15652      00
 15653              	.LASF145:
 15654 07e4 4F535F46 		.ascii	"OS_FN_BUFMAN_ALLOC\000"
 15654      4E5F4255 
 15654      464D414E 
 15654      5F414C4C 
 15654      4F4300
 15655              	.LASF56:
 15656 07f7 4F535F46 		.ascii	"OS_FN_COM1_OPEN\000"
 15656      4E5F434F 
 15656      4D315F4F 
 15656      50454E00 
 15657              	.LASF300:
 15658 0807 4F535F46 		.ascii	"OS_FN_GPRS_READ_USSD\000"
 15658      4E5F4750 
 15658      52535F52 
 15658      4541445F 
 15658      55535344 
 15659              	.LASF111:
 15660 081c 4F535F46 		.ascii	"OS_FN_SM2_ENCRYPT\000"
 15660      4E5F534D 
 15660      325F454E 
 15660      43525950 
 15660      5400
 15661              	.LASF460:
 15662 082e 4F535F46 		.ascii	"OS_FN_GCM_AES_PROCESS\000"
 15662      4E5F4743 
 15662      4D5F4145 
 15662      535F5052 
ARM GAS  C:\Users\AHMED~1.ELE\AppData\Local\Temp\cc594ylT.s 			page 304


 15662      4F434553 
 15663              	.LASF344:
 15664 0844 4F535F46 		.ascii	"OS_FN_DEVICE_UNREGISTER\000"
 15664      4E5F4445 
 15664      56494345 
 15664      5F554E52 
 15664      45474953 
 15665              	.LASF108:
 15666 085c 4F535F46 		.ascii	"OS_FN_SM2_FREE_CURVE\000"
 15666      4E5F534D 
 15666      325F4652 
 15666      45455F43 
 15666      55525645 
 15667              	.LASF485:
 15668 0871 4F535F46 		.ascii	"OS_FN_BATT_LEVEL2\000"
 15668      4E5F4241 
 15668      54545F4C 
 15668      4556454C 
 15668      3200
 15669              	.LASF288:
 15670 0883 4F535F46 		.ascii	"OS_FN_ADC_CH_ENABLE\000"
 15670      4E5F4144 
 15670      435F4348 
 15670      5F454E41 
 15670      424C4500 
 15671              	.LASF681:
 15672 0897 53686F77 		.ascii	"ShowBarcode\000"
 15672      42617263 
 15672      6F646500 
 15673              	.LASF260:
 15674 08a3 4F535F46 		.ascii	"OS_FN_FL_COPYB_START\000"
 15674      4E5F464C 
 15674      5F434F50 
 15674      59425F53 
 15674      54415254 
 15675              	.LASF47:
 15676 08b8 4F535F46 		.ascii	"OS_FN_DISP_TEXTC\000"
 15676      4E5F4449 
 15676      53505F54 
 15676      45585443 
 15676      00
 15677              	.LASF574:
 15678 08c9 41504D5F 		.ascii	"APM_PACKCOMM\000"
 15678      5041434B 
 15678      434F4D4D 
 15678      00
 15679              	.LASF319:
 15680 08d6 4F535F46 		.ascii	"OS_FN_CODEC_STATUS\000"
 15680      4E5F434F 
 15680      4445435F 
 15680      53544154 
 15680      555300
 15681              	.LASF181:
 15682 08e9 4F535F46 		.ascii	"OS_FN_FILE_DSEARCH\000"
 15682      4E5F4649 
 15682      4C455F44 
 15682      53454152 
ARM GAS  C:\Users\AHMED~1.ELE\AppData\Local\Temp\cc594ylT.s 			page 305


 15682      434800
 15683              	.LASF605:
 15684 08fc 41504D5F 		.ascii	"APM_BATCH_CLEAR\000"
 15684      42415443 
 15684      485F434C 
 15684      45415200 
 15685              	.LASF404:
 15686 090c 4F535F46 		.ascii	"OS_FN_WIFI_STATUS\000"
 15686      4E5F5749 
 15686      46495F53 
 15686      54415455 
 15686      5300
 15687              	.LASF557:
 15688 091e 534D535F 		.ascii	"SMS_RX_MW\000"
 15688      52585F4D 
 15688      5700
 15689              	.LASF502:
 15690 0928 55534246 		.ascii	"USBFPRT_GENERAL_INFO_END\000"
 15690      5052545F 
 15690      47454E45 
 15690      52414C5F 
 15690      494E464F 
 15691              	.LASF36:
 15692 0941 4F535F46 		.ascii	"OS_FN_DISP_OPEN\000"
 15692      4E5F4449 
 15692      53505F4F 
 15692      50454E00 
 15693              	.LASF38:
 15694 0951 4F535F46 		.ascii	"OS_FN_DISP_PUTC\000"
 15694      4E5F4449 
 15694      53505F50 
 15694      55544300 
 15695              	.LASF326:
 15696 0961 4F535F46 		.ascii	"OS_FN_CLICC_EMV_LV1\000"
 15696      4E5F434C 
 15696      4943435F 
 15696      454D565F 
 15696      4C563100 
 15697              	.LASF42:
 15698 0975 4F535F46 		.ascii	"OS_FN_DISP_PUTG\000"
 15698      4E5F4449 
 15698      53505F50 
 15698      55544700 
 15699              	.LASF132:
 15700 0985 4F535F46 		.ascii	"OS_FN_KEY_SAVE_TMK_CBC_NC\000"
 15700      4E5F4B45 
 15700      595F5341 
 15700      56455F54 
 15700      4D4B5F43 
 15701              	.LASF523:
 15702 099f 46435245 		.ascii	"FCREATEMW\000"
 15702      4154454D 
 15702      5700
 15703              	.LASF40:
 15704 09a9 4F535F46 		.ascii	"OS_FN_DISP_PUTN\000"
 15704      4E5F4449 
 15704      53505F50 
ARM GAS  C:\Users\AHMED~1.ELE\AppData\Local\Temp\cc594ylT.s 			page 306


 15704      55544E00 
 15705              	.LASF473:
 15706 09b9 4F535F46 		.ascii	"OS_FN_IMG_SENSOR_GET_FRAME\000"
 15706      4E5F494D 
 15706      475F5345 
 15706      4E534F52 
 15706      5F474554 
 15707              	.LASF43:
 15708 09d4 4F535F46 		.ascii	"OS_FN_DISP_PUTP\000"
 15708      4E5F4449 
 15708      53505F50 
 15708      55545000 
 15709              	.LASF434:
 15710 09e4 4F535F46 		.ascii	"OS_FN_DUMMY\000"
 15710      4E5F4455 
 15710      4D4D5900 
 15711              	.LASF318:
 15712 09f0 4F535F46 		.ascii	"OS_FN_CODEC_STOP\000"
 15712      4E5F434F 
 15712      4445435F 
 15712      53544F50 
 15712      00
 15713              	.LASF39:
 15714 0a01 4F535F46 		.ascii	"OS_FN_DISP_PUTS\000"
 15714      4E5F4449 
 15714      53505F50 
 15714      55545300 
 15715              	.LASF201:
 15716 0a11 4F535F46 		.ascii	"OS_FN_CONFIG_READ\000"
 15716      4E5F434F 
 15716      4E464947 
 15716      5F524541 
 15716      4400
 15717              	.LASF654:
 15718 0a23 61457874 		.ascii	"aExtra\000"
 15718      726100
 15719              	.LASF248:
 15720 0a2a 4F535F46 		.ascii	"OS_FN_USBSER_STATUS\000"
 15720      4E5F5553 
 15720      42534552 
 15720      5F535441 
 15720      54555300 
 15721              	.LASF572:
 15722 0a3e 41504D5F 		.ascii	"APM_SETKBDTO\000"
 15722      5345544B 
 15722      4244544F 
 15722      00
 15723              	.LASF407:
 15724 0a4b 4F535F46 		.ascii	"OS_FN_NFC_OPEN_FELICA\000"
 15724      4E5F4E46 
 15724      435F4F50 
 15724      454E5F46 
 15724      454C4943 
 15725              	.LASF592:
 15726 0a61 41504D5F 		.ascii	"APM_GETEXPARAMCOUNT\000"
 15726      47455445 
 15726      58504152 
ARM GAS  C:\Users\AHMED~1.ELE\AppData\Local\Temp\cc594ylT.s 			page 307


 15726      414D434F 
 15726      554E5400 
 15727              	.LASF154:
 15728 0a75 4F535F46 		.ascii	"OS_FN_LED_ON\000"
 15728      4E5F4C45 
 15728      445F4F4E 
 15728      00
 15729              	.LASF549:
 15730 0a82 44495350 		.ascii	"DISP_LINEMW\000"
 15730      5F4C494E 
 15730      454D5700 
 15731              	.LASF166:
 15732 0a8e 4F535F46 		.ascii	"OS_FN_FILE_OPEN\000"
 15732      4E5F4649 
 15732      4C455F4F 
 15732      50454E00 
 15733              	.LASF176:
 15734 0a9e 4F535F46 		.ascii	"OS_FN_FILE_PUTC\000"
 15734      4E5F4649 
 15734      4C455F50 
 15734      55544300 
 15735              	.LASF684:
 15736 0aae 70726576 		.ascii	"previewlcd\000"
 15736      6965776C 
 15736      636400
 15737              	.LASF142:
 15738 0ab9 4F535F46 		.ascii	"OS_FN_THREAD_PUSH\000"
 15738      4E5F5448 
 15738      52454144 
 15738      5F505553 
 15738      4800
 15739              	.LASF690:
 15740 0acb 7073796D 		.ascii	"psym_type\000"
 15740      5F747970 
 15740      6500
 15741              	.LASF517:
 15742 0ad5 57524954 		.ascii	"WRITEMW\000"
 15742      454D5700 
 15743              	.LASF712:
 15744 0add 53686F72 		.ascii	"Short2Beep\000"
 15744      74324265 
 15744      657000
 15745              	.LASF539:
 15746 0ae8 44495350 		.ascii	"DISPLOGOMW\000"
 15746      4C4F474F 
 15746      4D5700
 15747              	.LASF644:
 15748 0af3 4D4F4445 		.ascii	"MODE_F320_D\000"
 15748      5F463332 
 15748      305F4400 
 15749              	.LASF20:
 15750 0aff 4F535F46 		.ascii	"OS_FN_KBD_CLOSE\000"
 15750      4E5F4B42 
 15750      445F434C 
 15750      4F534500 
 15751              	.LASF593:
 15752 0b0f 41504D5F 		.ascii	"APM_GETEXPARAM\000"
ARM GAS  C:\Users\AHMED~1.ELE\AppData\Local\Temp\cc594ylT.s 			page 308


 15752      47455445 
 15752      58504152 
 15752      414D00
 15753              	.LASF520:
 15754 0b1e 53544154 		.ascii	"STATMW\000"
 15754      4D5700
 15755              	.LASF19:
 15756 0b25 4F535F46 		.ascii	"OS_FN_KBD_OPEN\000"
 15756      4E5F4B42 
 15756      445F4F50 
 15756      454E00
 15757              	.LASF126:
 15758 0b34 4F535F46 		.ascii	"OS_FN_KEY_CUP_MAC\000"
 15758      4E5F4B45 
 15758      595F4355 
 15758      505F4D41 
 15758      4300
 15759              	.LASF706:
 15760 0b46 6C69625F 		.ascii	"lib_app_call\000"
 15760      6170705F 
 15760      63616C6C 
 15760      00
 15761              	.LASF52:
 15762 0b53 4F535F46 		.ascii	"OS_FN_DISP_ICON_PUTC\000"
 15762      4E5F4449 
 15762      53505F49 
 15762      434F4E5F 
 15762      50555443 
 15763              	.LASF200:
 15764 0b68 4F535F46 		.ascii	"OS_FN_CONFIG_LENGTH\000"
 15764      4E5F434F 
 15764      4E464947 
 15764      5F4C454E 
 15764      47544800 
 15765              	.LASF494:
 15766 0b7c 545F4C43 		.ascii	"T_LCDG\000"
 15766      444700
 15767              	.LASF530:
 15768 0b83 46575249 		.ascii	"FWRITEMW\000"
 15768      54454D57 
 15768      00
 15769              	.LASF533:
 15770 0b8c 46445345 		.ascii	"FDSEARCHMW\000"
 15770      41524348 
 15770      4D5700
 15771              	.LASF709:
 15772 0b97 44656C61 		.ascii	"Delay10ms\000"
 15772      7931306D 
 15772      7300
 15773              	.LASF136:
 15774 0ba1 4F535F46 		.ascii	"OS_FN_THREAD_OPEN\000"
 15774      4E5F5448 
 15774      52454144 
 15774      5F4F5045 
 15774      4E00
 15775              	.LASF175:
 15776 0bb3 4F535F46 		.ascii	"OS_FN_FILE_WRITE\000"
ARM GAS  C:\Users\AHMED~1.ELE\AppData\Local\Temp\cc594ylT.s 			page 309


 15776      4E5F4649 
 15776      4C455F57 
 15776      52495445 
 15776      00
 15777              	.LASF409:
 15778 0bc4 4F535F46 		.ascii	"OS_FN_NFC_CANCEL\000"
 15778      4E5F4E46 
 15778      435F4341 
 15778      4E43454C 
 15778      00
 15779              	.LASF542:
 15780 0bd5 5343484E 		.ascii	"SCHNLGETPINMW\000"
 15780      4C474554 
 15780      50494E4D 
 15780      5700
 15781              	.LASF656:
 15782 0be3 53656E73 		.ascii	"SensorClose\000"
 15782      6F72436C 
 15782      6F736500 
 15783              	.LASF450:
 15784 0bef 4F535F46 		.ascii	"OS_FN_FPRT_CLOSE\000"
 15784      4E5F4650 
 15784      52545F43 
 15784      4C4F5345 
 15784      00
 15785              	.LASF61:
 15786 0c00 4F535F46 		.ascii	"OS_FN_COM1_SEND\000"
 15786      4E5F434F 
 15786      4D315F53 
 15786      454E4400 
 15787              	.LASF135:
 15788 0c10 4F535F46 		.ascii	"OS_FN_PCI_DSS\000"
 15788      4E5F5043 
 15788      495F4453 
 15788      5300
 15789              	.LASF555:
 15790 0c1e 42535F43 		.ascii	"BS_CALL_MW\000"
 15790      414C4C5F 
 15790      4D5700
 15791              	.LASF353:
 15792 0c29 4F535F46 		.ascii	"OS_FN_INTERRUPT_UNREGISTER\000"
 15792      4E5F494E 
 15792      54455252 
 15792      5550545F 
 15792      554E5245 
 15793              	.LASF621:
 15794 0c44 4241525F 		.ascii	"BAR_DECODE1D\000"
 15794      4445434F 
 15794      44453144 
 15794      00
 15795              	.LASF151:
 15796 0c51 4F535F46 		.ascii	"OS_FN_LED_STATUS\000"
 15796      4E5F4C45 
 15796      445F5354 
 15796      41545553 
 15796      00
 15797              	.LASF69:
ARM GAS  C:\Users\AHMED~1.ELE\AppData\Local\Temp\cc594ylT.s 			page 310


 15798 0c62 4F535F46 		.ascii	"OS_FN_COM2_READ\000"
 15798      4E5F434F 
 15798      4D325F52 
 15798      45414400 
 15799              	.LASF669:
 15800 0c72 6C6F7765 		.ascii	"lower\000"
 15800      7200
 15801              	.LASF508:
 15802 0c78 53454E53 		.ascii	"SENSOR_MODE_320\000"
 15802      4F525F4D 
 15802      4F44455F 
 15802      33323000 
 15803              	.LASF666:
 15804 0c88 7472616E 		.ascii	"transparent\000"
 15804      73706172 
 15804      656E7400 
 15805              	.LASF328:
 15806 0c94 4F535F46 		.ascii	"OS_FN_CLICC_LED_CLOSE\000"
 15806      4E5F434C 
 15806      4943435F 
 15806      4C45445F 
 15806      434C4F53 
 15807              	.LASF384:
 15808 0caa 4F535F46 		.ascii	"OS_FN_MIF_DEC\000"
 15808      4E5F4D49 
 15808      465F4445 
 15808      4300
 15809              	.LASF226:
 15810 0cb8 4F535F46 		.ascii	"OS_FN_LAN_OPEN\000"
 15810      4E5F4C41 
 15810      4E5F4F50 
 15810      454E00
 15811              	.LASF547:
 15812 0cc7 44495350 		.ascii	"DISP_CLRBELOWMW\000"
 15812      5F434C52 
 15812      42454C4F 
 15812      574D5700 
 15813              	.LASF694:
 15814 0cd7 6C617374 		.ascii	"last_mode\000"
 15814      5F6D6F64 
 15814      6500
 15815              	.LASF448:
 15816 0ce1 4F535F46 		.ascii	"OS_FN_LPT_GET_COUNT\000"
 15816      4E5F4C50 
 15816      545F4745 
 15816      545F434F 
 15816      554E5400 
 15817              	.LASF677:
 15818 0cf5 796F6666 		.ascii	"yoff\000"
 15818      00
 15819              	.LASF284:
 15820 0cfa 4F535F46 		.ascii	"OS_FN_BATT_LEVEL\000"
 15820      4E5F4241 
 15820      54545F4C 
 15820      4556454C 
 15820      00
 15821              	.LASF432:
ARM GAS  C:\Users\AHMED~1.ELE\AppData\Local\Temp\cc594ylT.s 			page 311


 15822 0d0b 4F535F46 		.ascii	"OS_FN_HD_CONFIG\000"
 15822      4E5F4844 
 15822      5F434F4E 
 15822      46494700 
 15823              	.LASF192:
 15824 0d1b 4F535F46 		.ascii	"OS_FN_FILE_FTRUNCATE\000"
 15824      4E5F4649 
 15824      4C455F46 
 15824      5452554E 
 15824      43415445 
 15825              	.LASF668:
 15826 0d30 75707065 		.ascii	"upper\000"
 15826      7200
 15827              	.LASF626:
 15828 0d36 4241525F 		.ascii	"BAR_ZXDECODE1D_ENH\000"
 15828      5A584445 
 15828      434F4445 
 15828      31445F45 
 15828      4E4800
 15829              	.LASF137:
 15830 0d49 4F535F46 		.ascii	"OS_FN_THREAD_CLOSE\000"
 15830      4E5F5448 
 15830      52454144 
 15830      5F434C4F 
 15830      534500
 15831              	.LASF286:
 15832 0d5c 4F535F46 		.ascii	"OS_FN_BATT_CONTROL\000"
 15832      4E5F4241 
 15832      54545F43 
 15832      4F4E5452 
 15832      4F4C00
 15833              	.LASF373:
 15834 0d6f 4F535F46 		.ascii	"OS_FN_MIF_CARD_TYPE\000"
 15834      4E5F4D49 
 15834      465F4341 
 15834      52445F54 
 15834      59504500 
 15835              	.LASF220:
 15836 0d83 4F535F46 		.ascii	"OS_FN_MMC_WRITE\000"
 15836      4E5F4D4D 
 15836      435F5752 
 15836      49544500 
 15837              	.LASF115:
 15838 0d93 4F535F46 		.ascii	"OS_FN_SM3\000"
 15838      4E5F534D 
 15838      3300
 15839              	.LASF622:
 15840 0d9d 4241525F 		.ascii	"BAR_DECODE2D\000"
 15840      4445434F 
 15840      44453244 
 15840      00
 15841              	.LASF454:
 15842 0daa 4F535F46 		.ascii	"OS_FN_ECC_KEYPAIR_GENERATE\000"
 15842      4E5F4543 
 15842      435F4B45 
 15842      59504149 
 15842      525F4745 
ARM GAS  C:\Users\AHMED~1.ELE\AppData\Local\Temp\cc594ylT.s 			page 312


 15843              	.LASF276:
 15844 0dc5 4F535F46 		.ascii	"OS_FN_MCOM_PERMIT\000"
 15844      4E5F4D43 
 15844      4F4D5F50 
 15844      45524D49 
 15844      5400
 15845              	.LASF619:
 15846 0dd7 41504D5F 		.ascii	"APM_PWRSLEEP\000"
 15846      50575253 
 15846      4C454550 
 15846      00
 15847              	.LASF389:
 15848 0de4 4F535F46 		.ascii	"OS_FN_MIF_SENDCMD\000"
 15848      4E5F4D49 
 15848      465F5345 
 15848      4E44434D 
 15848      4400
 15849              	.LASF22:
 15850 0df6 4F535F46 		.ascii	"OS_FN_KBD_SCODE\000"
 15850      4E5F4B42 
 15850      445F5343 
 15850      4F444500 
 15851              	.LASF491:
 15852 0e06 775F6877 		.ascii	"w_hwidth\000"
 15852      69647468 
 15852      00
 15853              	.LASF599:
 15854 0e0f 41504D5F 		.ascii	"APM_SETROC\000"
 15854      53455452 
 15854      4F4300
 15855              	.LASF464:
 15856 0e1a 4F535F46 		.ascii	"OS_FN_WIFI_SOCKET_CONNECT\000"
 15856      4E5F5749 
 15856      46495F53 
 15856      4F434B45 
 15856      545F434F 
 15857              	.LASF456:
 15858 0e34 4F535F46 		.ascii	"OS_FN_ECC_SCALAR_MULTIPLY\000"
 15858      4E5F4543 
 15858      435F5343 
 15858      414C4152 
 15858      5F4D554C 
 15859              	.LASF566:
 15860 0e4e 41504D5F 		.ascii	"APM_GETHWHANDLE\000"
 15860      47455448 
 15860      5748414E 
 15860      444C4500 
 15861              	.LASF683:
 15862 0e5e 6672616D 		.ascii	"framecfg\000"
 15862      65636667 
 15862      00
 15863              	.LASF379:
 15864 0e67 4F535F46 		.ascii	"OS_FN_MIF_AUTH1\000"
 15864      4E5F4D49 
 15864      465F4155 
 15864      54483100 
 15865              	.LASF380:
ARM GAS  C:\Users\AHMED~1.ELE\AppData\Local\Temp\cc594ylT.s 			page 313


 15866 0e77 4F535F46 		.ascii	"OS_FN_MIF_AUTH2\000"
 15866      4E5F4D49 
 15866      465F4155 
 15866      54483200 
 15867              	.LASF12:
 15868 0e87 424F4F4C 		.ascii	"BOOLEAN\000"
 15868      45414E00 
 15869              	.LASF640:
 15870 0e8f 4D4F4445 		.ascii	"MODE_W320_D\000"
 15870      5F573332 
 15870      305F4400 
 15871              	.LASF85:
 15872 0e9b 4F535F46 		.ascii	"OS_FN_DES2\000"
 15872      4E5F4445 
 15872      533200
 15873              	.LASF105:
 15874 0ea6 4F535F46 		.ascii	"OS_FN_MD4_PROCESS\000"
 15874      4E5F4D44 
 15874      345F5052 
 15874      4F434553 
 15874      5300
 15875              	.LASF642:
 15876 0eb8 4D4F4445 		.ascii	"MODE_F960_D\000"
 15876      5F463936 
 15876      305F4400 
 15877              	.LASF387:
 15878 0ec4 4F535F46 		.ascii	"OS_FN_MIF_DEC_TRANS\000"
 15878      4E5F4D49 
 15878      465F4445 
 15878      435F5452 
 15878      414E5300 
 15879              	.LASF343:
 15880 0ed8 4F535F46 		.ascii	"OS_FN_DEVICE_REGISTER\000"
 15880      4E5F4445 
 15880      56494345 
 15880      5F524547 
 15880      49535445 
 15881              	.LASF60:
 15882 0eee 4F535F46 		.ascii	"OS_FN_COM1_READ\000"
 15882      4E5F434F 
 15882      4D315F52 
 15882      45414400 
 15883              	.LASF223:
 15884 0efe 4F535F46 		.ascii	"OS_FN_SLE_CLOSE\000"
 15884      4E5F534C 
 15884      455F434C 
 15884      4F534500 
 15885              	.LASF232:
 15886 0f0e 4F535F46 		.ascii	"OS_FN_LAN_STATUS\000"
 15886      4E5F4C41 
 15886      4E5F5354 
 15886      41545553 
 15886      00
 15887              	.LASF160:
 15888 0f1f 4F535F46 		.ascii	"OS_FN_APP_CLR_VIRGIN\000"
 15888      4E5F4150 
 15888      505F434C 
ARM GAS  C:\Users\AHMED~1.ELE\AppData\Local\Temp\cc594ylT.s 			page 314


 15888      525F5649 
 15888      5247494E 
 15889              	.LASF159:
 15890 0f34 4F535F46 		.ascii	"OS_FN_APP_GET_VIRGIN\000"
 15890      4E5F4150 
 15890      505F4745 
 15890      545F5649 
 15890      5247494E 
 15891              	.LASF535:
 15892 0f49 4B424453 		.ascii	"KBDSCODEMW\000"
 15892      434F4445 
 15892      4D5700
 15893              	.LASF208:
 15894 0f54 4F535F46 		.ascii	"OS_FN_SAM_ON\000"
 15894      4E5F5341 
 15894      4D5F4F4E 
 15894      00
 15895              	.LASF283:
 15896 0f61 4F535F46 		.ascii	"OS_FN_MCOM_SEND\000"
 15896      4E5F4D43 
 15896      4F4D5F53 
 15896      454E4400 
 15897              	.LASF245:
 15898 0f71 4F535F46 		.ascii	"OS_FN_USBSER_CLOSE\000"
 15898      4E5F5553 
 15898      42534552 
 15898      5F434C4F 
 15898      534500
 15899              	.LASF418:
 15900 0f84 4F535F46 		.ascii	"OS_FN_GPS_GET_INFO\000"
 15900      4E5F4750 
 15900      535F4745 
 15900      545F494E 
 15900      464F00
 15901              	.LASF490:
 15902 0f97 775F7673 		.ascii	"w_vstart\000"
 15902      74617274 
 15902      00
 15903              	.LASF269:
 15904 0fa0 4F535F46 		.ascii	"OS_FN_MDM_DIAL\000"
 15904      4E5F4D44 
 15904      4D5F4449 
 15904      414C00
 15905              	.LASF139:
 15906 0faf 4F535F46 		.ascii	"OS_FN_THREAD_DELETE\000"
 15906      4E5F5448 
 15906      52454144 
 15906      5F44454C 
 15906      45544500 
 15907              	.LASF149:
 15908 0fc3 4F535F46 		.ascii	"OS_FN_LED_OPEN\000"
 15908      4E5F4C45 
 15908      445F4F50 
 15908      454E00
 15909              	.LASF34:
 15910 0fd2 4F535F46 		.ascii	"OS_FN_RTC_GET\000"
 15910      4E5F5254 
ARM GAS  C:\Users\AHMED~1.ELE\AppData\Local\Temp\cc594ylT.s 			page 315


 15910      435F4745 
 15910      5400
 15911              	.LASF480:
 15912 0fe0 4F535F46 		.ascii	"OS_FN_DISP_PUTS_ANYWHERE\000"
 15912      4E5F4449 
 15912      53505F50 
 15912      5554535F 
 15912      414E5957 
 15913              	.LASF401:
 15914 0ff9 4F535F46 		.ascii	"OS_FN_WIFI_CONTROL\000"
 15914      4E5F5749 
 15914      46495F43 
 15914      4F4E5452 
 15914      4F4C00
 15915              	.LASF153:
 15916 100c 4F535F46 		.ascii	"OS_FN_LED_CLEAR\000"
 15916      4E5F4C45 
 15916      445F434C 
 15916      45415200 
 15917              	.LASF445:
 15918 101c 4F535F46 		.ascii	"OS_FN_DTIMER_LATCH_STOP\000"
 15918      4E5F4454 
 15918      494D4552 
 15918      5F4C4154 
 15918      43485F53 
 15919              	.LASF354:
 15920 1034 4F535F46 		.ascii	"OS_FN_BUS_START\000"
 15920      4E5F4255 
 15920      535F5354 
 15920      41525400 
 15921              	.LASF596:
 15922 1044 41504D5F 		.ascii	"APM_GETBATCH\000"
 15922      47455442 
 15922      41544348 
 15922      00
 15923              	.LASF99:
 15924 1051 4F535F46 		.ascii	"OS_FN_MD5_FINISH\000"
 15924      4E5F4D44 
 15924      355F4649 
 15924      4E495348 
 15924      00
 15925              	.LASF498:
 15926 1062 55534246 		.ascii	"USBFPRT_GENERAL_INFO_MODEL\000"
 15926      5052545F 
 15926      47454E45 
 15926      52414C5F 
 15926      494E464F 
 15927              	.LASF637:
 15928 107d 545F4C43 		.ascii	"T_LCDBUF\000"
 15928      44425546 
 15928      00
 15929              	.LASF416:
 15930 1086 4F535F46 		.ascii	"OS_FN_GPS_ON\000"
 15930      4E5F4750 
 15930      535F4F4E 
 15930      00
 15931              	.LASF657:
ARM GAS  C:\Users\AHMED~1.ELE\AppData\Local\Temp\cc594ylT.s 			page 316


 15932 1093 53656E73 		.ascii	"SensorSwMode\000"
 15932      6F725377 
 15932      4D6F6465 
 15932      00
 15933              	.LASF317:
 15934 10a0 4F535F46 		.ascii	"OS_FN_CODEC_PLAY_RAM\000"
 15934      4E5F434F 
 15934      4445435F 
 15934      504C4159 
 15934      5F52414D 
 15935              	.LASF281:
 15936 10b5 4F535F46 		.ascii	"OS_FN_MCOM_STATUS\000"
 15936      4E5F4D43 
 15936      4F4D5F53 
 15936      54415455 
 15936      5300
 15937              	.LASF53:
 15938 10c7 4F535F46 		.ascii	"OS_FN_DISP_ICON_TEXTC\000"
 15938      4E5F4449 
 15938      53505F49 
 15938      434F4E5F 
 15938      54455854 
 15939              	.LASF429:
 15940 10dd 4F535F46 		.ascii	"OS_FN_POWER_SLEEP\000"
 15940      4E5F504F 
 15940      5745525F 
 15940      534C4545 
 15940      5000
 15941              	.LASF167:
 15942 10ef 4F535F46 		.ascii	"OS_FN_FILE_CREATE\000"
 15942      4E5F4649 
 15942      4C455F43 
 15942      52454154 
 15942      4500
 15943              	.LASF239:
 15944 1101 4F535F46 		.ascii	"OS_FN_LPT_OPEN\000"
 15944      4E5F4C50 
 15944      545F4F50 
 15944      454E00
 15945              	.LASF241:
 15946 1110 4F535F46 		.ascii	"OS_FN_LPT_PUTC\000"
 15946      4E5F4C50 
 15946      545F5055 
 15946      544300
 15947              	.LASF400:
 15948 111f 4F535F46 		.ascii	"OS_FN_BARCODE_ENABLED\000"
 15948      4E5F4241 
 15948      52434F44 
 15948      455F454E 
 15948      41424C45 
 15949              	.LASF231:
 15950 1135 4F535F46 		.ascii	"OS_FN_LAN_SEND\000"
 15950      4E5F4C41 
 15950      4E5F5345 
 15950      4E4400
 15951              	.LASF374:
 15952 1144 4F535F46 		.ascii	"OS_FN_MIF_TAG\000"
ARM GAS  C:\Users\AHMED~1.ELE\AppData\Local\Temp\cc594ylT.s 			page 317


 15952      4E5F4D49 
 15952      465F5441 
 15952      4700
 15953              	.LASF482:
 15954 1152 4F535F46 		.ascii	"OS_FN_WIFI_GET_REGULATORY_DOMAIN\000"
 15954      4E5F5749 
 15954      46495F47 
 15954      45545F52 
 15954      4547554C 
 15955              	.LASF451:
 15956 1173 4F535F46 		.ascii	"OS_FN_FPRT_SCAN_IMG\000"
 15956      4E5F4650 
 15956      52545F53 
 15956      43414E5F 
 15956      494D4700 
 15957              	.LASF309:
 15958 1187 4F535F46 		.ascii	"OS_FN_TPAD_DEL_OBJ\000"
 15958      4E5F5450 
 15958      41445F44 
 15958      454C5F4F 
 15958      424A00
 15959              	.LASF522:
 15960 119a 46535953 		.ascii	"FSYSINITMW\000"
 15960      494E4954 
 15960      4D5700
 15961              	.LASF519:
 15962 11a5 494F4354 		.ascii	"IOCTLMW\000"
 15962      4C4D5700 
 15963              	.LASF244:
 15964 11ad 4F535F46 		.ascii	"OS_FN_USBSER_OPEN\000"
 15964      4E5F5553 
 15964      42534552 
 15964      5F4F5045 
 15964      4E00
 15965              	.LASF433:
 15966 11bf 4F535F46 		.ascii	"OS_FN_RDLL_APP\000"
 15966      4E5F5244 
 15966      4C4C5F41 
 15966      505000
 15967              	.LASF174:
 15968 11ce 4F535F46 		.ascii	"OS_FN_FILE_READ\000"
 15968      4E5F4649 
 15968      4C455F52 
 15968      45414400 
 15969              	.LASF143:
 15970 11de 4F535F46 		.ascii	"OS_FN_THREAD_POP\000"
 15970      4E5F5448 
 15970      52454144 
 15970      5F504F50 
 15970      00
 15971              	.LASF543:
 15972 11ef 4C4C5345 		.ascii	"LLSEEKMW\000"
 15972      454B4D57 
 15972      00
 15973              	.LASF674:
 15974 11f8 61593830 		.ascii	"aY800\000"
 15974      3000
ARM GAS  C:\Users\AHMED~1.ELE\AppData\Local\Temp\cc594ylT.s 			page 318


 15975              	.LASF323:
 15976 11fe 4F535F46 		.ascii	"OS_FN_CLICC_CLOSE\000"
 15976      4E5F434C 
 15976      4943435F 
 15976      434C4F53 
 15976      4500
 15977              	.LASF336:
 15978 1210 4F535F46 		.ascii	"OS_FN_USBHOST_STATUS\000"
 15978      4E5F5553 
 15978      42484F53 
 15978      545F5354 
 15978      41545553 
 15979              	.LASF603:
 15980 1225 41504D5F 		.ascii	"APM_TERMDATA_CLR\000"
 15980      5445524D 
 15980      44415441 
 15980      5F434C52 
 15980      00
 15981              	.LASF716:
 15982 1236 73797374 		.ascii	"system_call_list\000"
 15982      656D5F63 
 15982      616C6C5F 
 15982      6C697374 
 15982      00
 15983              	.LASF561:
 15984 1247 4652454E 		.ascii	"FRENAMEMW\000"
 15984      414D454D 
 15984      5700
 15985              	.LASF225:
 15986 1251 4F535F46 		.ascii	"OS_FN_SLE_IO\000"
 15986      4E5F534C 
 15986      455F494F 
 15986      00
 15987              	.LASF271:
 15988 125e 4F535F46 		.ascii	"OS_FN_MDM_CID\000"
 15988      4E5F4D44 
 15988      4D5F4349 
 15988      4400
 15989              	.LASF277:
 15990 126c 4F535F46 		.ascii	"OS_FN_MCOM_RXRDY\000"
 15990      4E5F4D43 
 15990      4F4D5F52 
 15990      58524459 
 15990      00
 15991              	.LASF240:
 15992 127d 4F535F46 		.ascii	"OS_FN_LPT_CLOSE\000"
 15992      4E5F4C50 
 15992      545F434C 
 15992      4F534500 
 15993              	.LASF104:
 15994 128d 4F535F46 		.ascii	"OS_FN_RC4_ENCRYPT\000"
 15994      4E5F5243 
 15994      345F454E 
 15994      43525950 
 15994      5400
 15995              	.LASF570:
 15996 129f 41504D5F 		.ascii	"APM_YESNO\000"
ARM GAS  C:\Users\AHMED~1.ELE\AppData\Local\Temp\cc594ylT.s 			page 319


 15996      5945534E 
 15996      4F00
 15997              	.LASF122:
 15998 12a9 4F535F46 		.ascii	"OS_FN_KEY_RSA\000"
 15998      4E5F4B45 
 15998      595F5253 
 15998      4100
 15999              	.LASF205:
 16000 12b7 4F535F46 		.ascii	"OS_FN_SAM_CLOSE\000"
 16000      4E5F5341 
 16000      4D5F434C 
 16000      4F534500 
 16001              	.LASF86:
 16002 12c7 4F535F46 		.ascii	"OS_FN_COM_DESKEY\000"
 16002      4E5F434F 
 16002      4D5F4445 
 16002      534B4559 
 16002      00
 16003              	.LASF628:
 16004 12d8 42415244 		.ascii	"BARDLL_FUNC_COUNT\000"
 16004      4C4C5F46 
 16004      554E435F 
 16004      434F554E 
 16004      5400
 16005              	.LASF638:
 16006 12ea 4D4F4445 		.ascii	"MODE_W960_D\000"
 16006      5F573936 
 16006      305F4400 
 16007              	.LASF293:
 16008 12f6 4F535F46 		.ascii	"OS_FN_GPRS_AT_CMD\000"
 16008      4E5F4750 
 16008      52535F41 
 16008      545F434D 
 16008      4400
 16009              	.LASF481:
 16010 1308 4F535F46 		.ascii	"OS_FN_BATT_CHARGE_NOW\000"
 16010      4E5F4241 
 16010      54545F43 
 16010      48415247 
 16010      455F4E4F 
 16011              	.LASF197:
 16012 131e 4F535F46 		.ascii	"OS_FN_FILE_GET_LONGNAME\000"
 16012      4E5F4649 
 16012      4C455F47 
 16012      45545F4C 
 16012      4F4E474E 
 16013              	.LASF372:
 16014 1336 4F535F46 		.ascii	"OS_FN_MIF_HALT\000"
 16014      4E5F4D49 
 16014      465F4841 
 16014      4C5400
 16015              	.LASF614:
 16016 1345 41504D5F 		.ascii	"APM_TRACE_IN_REV\000"
 16016      54524143 
 16016      455F494E 
 16016      5F524556 
 16016      00
ARM GAS  C:\Users\AHMED~1.ELE\AppData\Local\Temp\cc594ylT.s 			page 320


 16017              	.LASF265:
 16018 1356 4F535F46 		.ascii	"OS_FN_FL_CREAD_END\000"
 16018      4E5F464C 
 16018      5F435245 
 16018      41445F45 
 16018      4E4400
 16019              	.LASF238:
 16020 1369 4F535F46 		.ascii	"OS_FN_MSR_STATUS\000"
 16020      4E5F4D53 
 16020      525F5354 
 16020      41545553 
 16020      00
 16021              	.LASF393:
 16022 137a 4F535F46 		.ascii	"OS_FN_BARCODE_OPEN\000"
 16022      4E5F4241 
 16022      52434F44 
 16022      455F4F50 
 16022      454E00
 16023              	.LASF471:
 16024 138d 4F535F46 		.ascii	"OS_FN_WIFI_SOCKET_LISTEN\000"
 16024      4E5F5749 
 16024      46495F53 
 16024      4F434B45 
 16024      545F4C49 
 16025              	.LASF340:
 16026 13a6 4F535F46 		.ascii	"OS_FN_DRIVER_REGISTER\000"
 16026      4E5F4452 
 16026      49564552 
 16026      5F524547 
 16026      49535445 
 16027              	.LASF247:
 16028 13bc 4F535F46 		.ascii	"OS_FN_USBSER_WRITE\000"
 16028      4E5F5553 
 16028      42534552 
 16028      5F575249 
 16028      544500
 16029              	.LASF371:
 16030 13cf 4F535F46 		.ascii	"OS_FN_MIF_CANCEL\000"
 16030      4E5F4D49 
 16030      465F4341 
 16030      4E43454C 
 16030      00
 16031              	.LASF647:
 16032 13e0 4C63644F 		.ascii	"LcdOnLayerShow\000"
 16032      6E4C6179 
 16032      65725368 
 16032      6F7700
 16033              	.LASF5:
 16034 13ef 6C6F6E67 		.ascii	"long unsigned int\000"
 16034      20756E73 
 16034      69676E65 
 16034      6420696E 
 16034      7400
 16035              	.LASF48:
 16036 1401 4F535F46 		.ascii	"OS_FN_DISP_BACKC\000"
 16036      4E5F4449 
 16036      53505F42 
ARM GAS  C:\Users\AHMED~1.ELE\AppData\Local\Temp\cc594ylT.s 			page 321


 16036      41434B43 
 16036      00
 16037              	.LASF44:
 16038 1412 4F535F46 		.ascii	"OS_FN_DISP_GETP\000"
 16038      4E5F4449 
 16038      53505F47 
 16038      45545000 
 16039              	.LASF424:
 16040 1422 4F535F46 		.ascii	"OS_FN_BREG_READ\000"
 16040      4E5F4252 
 16040      45475F52 
 16040      45414400 
 16041              	.LASF663:
 16042 1432 64697370 		.ascii	"dispbuf\000"
 16042      62756600 
 16043              	.LASF17:
 16044 143a 4F535F46 		.ascii	"OS_FN_RAND\000"
 16044      4E5F5241 
 16044      4E4400
 16045              	.LASF234:
 16046 1445 4F535F46 		.ascii	"OS_FN_MSR_CLOSE\000"
 16046      4E5F4D53 
 16046      525F434C 
 16046      4F534500 
 16047              	.LASF671:
 16048 1455 72657472 		.ascii	"retry\000"
 16048      7900
 16049              	.LASF689:
 16050 145b 70646563 		.ascii	"pdecoded_str\000"
 16050      6F646564 
 16050      5F737472 
 16050      00
 16051              	.LASF537:
 16052 1468 4445534D 		.ascii	"DESMW\000"
 16052      5700
 16053              	.LASF403:
 16054 146e 4F535F46 		.ascii	"OS_FN_WIFI_RECV_RESPONSE\000"
 16054      4E5F5749 
 16054      46495F52 
 16054      4543565F 
 16054      52455350 
 16055              	.LASF230:
 16056 1487 4F535F46 		.ascii	"OS_FN_LAN_READ\000"
 16056      4E5F4C41 
 16056      4E5F5245 
 16056      414400
 16057              	.LASF512:
 16058 1496 53544152 		.ascii	"STARTUPMW\000"
 16058      5455504D 
 16058      5700
 16059              	.LASF713:
 16060 14a0 474E5520 		.ascii	"GNU C 4.9.3 20141119 (release) [ARM/embedded-4_9-br"
 16060      4320342E 
 16060      392E3320 
 16060      32303134 
 16060      31313139 
 16061 14d3 616E6368 		.ascii	"anch revision 218278] -mthumb -mcpu=cortex-a5 -mthu"
ARM GAS  C:\Users\AHMED~1.ELE\AppData\Local\Temp\cc594ylT.s 			page 322


 16061      20726576 
 16061      6973696F 
 16061      6E203231 
 16061      38323738 
 16062 1506 6D622D69 		.ascii	"mb-interwork -mstructure-size-boundary=32 -mno-unal"
 16062      6E746572 
 16062      776F726B 
 16062      202D6D73 
 16062      74727563 
 16063 1539 69676E65 		.ascii	"igned-access -g -Os -ffunction-sections -fsigned-ch"
 16063      642D6163 
 16063      63657373 
 16063      202D6720 
 16063      2D4F7320 
 16064 156c 617200   		.ascii	"ar\000"
 16065              	.LASF462:
 16066 156f 4F535F46 		.ascii	"OS_FN_GCM_AES_CLOSE\000"
 16066      4E5F4743 
 16066      4D5F4145 
 16066      535F434C 
 16066      4F534500 
 16067              	.LASF267:
 16068 1583 4F535F46 		.ascii	"OS_FN_MDM_OPEN\000"
 16068      4E5F4D44 
 16068      4D5F4F50 
 16068      454E00
 16069              	.LASF273:
 16070 1592 4F535F46 		.ascii	"OS_FN_MDM_LAST_CONN_STAT\000"
 16070      4E5F4D44 
 16070      4D5F4C41 
 16070      53545F43 
 16070      4F4E4E5F 
 16071              	.LASF428:
 16072 15ab 4F535F46 		.ascii	"OS_FN_SLEEP\000"
 16072      4E5F534C 
 16072      45455000 
 16073              	.LASF641:
 16074 15b7 4D4F4445 		.ascii	"MODE_W320_SD\000"
 16074      5F573332 
 16074      305F5344 
 16074      00
 16075              	.LASF559:
 16076 15c4 534D535F 		.ascii	"SMS_COUNT_MW\000"
 16076      434F554E 
 16076      545F4D57 
 16076      00
 16077              	.LASF648:
 16078 15d1 61456E61 		.ascii	"aEnable\000"
 16078      626C6500 
 16079              	.LASF607:
 16080 15d9 41504D5F 		.ascii	"APM_GET_REC_COUNT\000"
 16080      4745545F 
 16080      5245435F 
 16080      434F554E 
 16080      5400
 16081              	.LASF242:
 16082 15eb 4F535F46 		.ascii	"OS_FN_LPT_PUTDW\000"
ARM GAS  C:\Users\AHMED~1.ELE\AppData\Local\Temp\cc594ylT.s 			page 323


 16082      4E5F4C50 
 16082      545F5055 
 16082      54445700 
 16083              	.LASF24:
 16084 15fb 4F535F46 		.ascii	"OS_FN_KBD_LOCK\000"
 16084      4E5F4B42 
 16084      445F4C4F 
 16084      434B00
 16085              	.LASF584:
 16086 160a 41504D5F 		.ascii	"APM_GETISSUERCOUNT\000"
 16086      47455449 
 16086      53535545 
 16086      52434F55 
 16086      4E5400
 16087              	.LASF476:
 16088 161d 4F535F46 		.ascii	"OS_FN_GPRS_IS_HL6RD\000"
 16088      4E5F4750 
 16088      52535F49 
 16088      535F484C 
 16088      36524400 
 16089              	.LASF152:
 16090 1631 4F535F46 		.ascii	"OS_FN_LED_SET\000"
 16090      4E5F4C45 
 16090      445F5345 
 16090      5400
 16091              	.LASF527:
 16092 163f 464C454E 		.ascii	"FLENGTHMW\000"
 16092      4754484D 
 16092      5700
 16093              	.LASF320:
 16094 1649 4F535F46 		.ascii	"OS_FN_CLICC_OPEN\000"
 16094      4E5F434C 
 16094      4943435F 
 16094      4F50454E 
 16094      00
 16095              	.LASF707:
 16096 165a 73707269 		.ascii	"sprintf\000"
 16096      6E746600 
 16097              	.LASF455:
 16098 1662 4F535F46 		.ascii	"OS_FN_ECC_PUBKEY_VERIFY\000"
 16098      4E5F4543 
 16098      435F5055 
 16098      424B4559 
 16098      5F564552 
 16099              	.LASF364:
 16100 167a 4F535F46 		.ascii	"OS_FN_USBKBD_INKEY\000"
 16100      4E5F5553 
 16100      424B4244 
 16100      5F494E4B 
 16100      455900
 16101              	.LASF588:
 16102 168d 41504D5F 		.ascii	"APM_GETDESCCOUNT\000"
 16102      47455444 
 16102      45534343 
 16102      4F554E54 
 16102      00
 16103              	.LASF140:
ARM GAS  C:\Users\AHMED~1.ELE\AppData\Local\Temp\cc594ylT.s 			page 324


 16104 169e 4F535F46 		.ascii	"OS_FN_THREAD_LOCK\000"
 16104      4E5F5448 
 16104      52454144 
 16104      5F4C4F43 
 16104      4B00
 16105              	.LASF30:
 16106 16b0 4F535F46 		.ascii	"OS_FN_BUZ_OPEN\000"
 16106      4E5F4255 
 16106      5A5F4F50 
 16106      454E00
 16107              	.LASF355:
 16108 16bf 4F535F46 		.ascii	"OS_FN_BUS_STOP\000"
 16108      4E5F4255 
 16108      535F5354 
 16108      4F5000
 16109              	.LASF301:
 16110 16ce 4F535F46 		.ascii	"OS_FN_GPRS_SMS_DECODE\000"
 16110      4E5F4750 
 16110      52535F53 
 16110      4D535F44 
 16110      45434F44 
 16111              	.LASF279:
 16112 16e4 4F535F46 		.ascii	"OS_FN_MCOM_SREAD\000"
 16112      4E5F4D43 
 16112      4F4D5F53 
 16112      52454144 
 16112      00
 16113              	.LASF128:
 16114 16f5 4F535F46 		.ascii	"OS_FN_KEY_HASH\000"
 16114      4E5F4B45 
 16114      595F4841 
 16114      534800
 16115              	.LASF190:
 16116 1704 4F535F46 		.ascii	"OS_FN_FILE_FREESPACE\000"
 16116      4E5F4649 
 16116      4C455F46 
 16116      52454553 
 16116      50414345 
 16117              	.LASF210:
 16118 1719 4F535F46 		.ascii	"OS_FN_SAM_T1\000"
 16118      4E5F5341 
 16118      4D5F5431 
 16118      00
 16119              	.LASF194:
 16120 1726 4F535F46 		.ascii	"OS_FN_FILE_READDIR\000"
 16120      4E5F4649 
 16120      4C455F52 
 16120      45414444 
 16120      495200
 16121              	.LASF32:
 16122 1739 4F535F46 		.ascii	"OS_FN_BUZ_BEEP\000"
 16122      4E5F4255 
 16122      5A5F4245 
 16122      455000
 16123              	.LASF165:
 16124 1748 4F535F46 		.ascii	"OS_FN_FILE_CREATE_OWNER\000"
 16124      4E5F4649 
ARM GAS  C:\Users\AHMED~1.ELE\AppData\Local\Temp\cc594ylT.s 			page 325


 16124      4C455F43 
 16124      52454154 
 16124      455F4F57 
 16125              	.LASF440:
 16126 1760 4F535F46 		.ascii	"OS_FN_APPCALL_RETURN\000"
 16126      4E5F4150 
 16126      5043414C 
 16126      4C5F5245 
 16126      5455524E 
 16127              	.LASF665:
 16128 1775 7472616E 		.ascii	"trans_grey\000"
 16128      735F6772 
 16128      657900
 16129              	.LASF534:
 16130 1780 47455443 		.ascii	"GETCHARMW\000"
 16130      4841524D 
 16130      5700
 16131              	.LASF18:
 16132 178a 4F535F46 		.ascii	"OS_FN_RAND_UPDATE\000"
 16132      4E5F5241 
 16132      4E445F55 
 16132      50444154 
 16132      4500
 16133              	.LASF629:
 16134 179c 545F4241 		.ascii	"T_BAR_DAT\000"
 16134      525F4441 
 16134      5400
 16135              	.LASF405:
 16136 17a6 4F535F46 		.ascii	"OS_FN_WIFI_PROFILES_READ\000"
 16136      4E5F5749 
 16136      46495F50 
 16136      524F4649 
 16136      4C45535F 
 16137              	.LASF168:
 16138 17bf 4F535F46 		.ascii	"OS_FN_FILE_CLOSE\000"
 16138      4E5F4649 
 16138      4C455F43 
 16138      4C4F5345 
 16138      00
 16139              	.LASF164:
 16140 17d0 4F535F46 		.ascii	"OS_FN_FREE\000"
 16140      4E5F4652 
 16140      454500
 16141              	.LASF546:
 16142 17db 44495350 		.ascii	"DISP_CLRLINEMW\000"
 16142      5F434C52 
 16142      4C494E45 
 16142      4D5700
 16143              	.LASF6:
 16144 17ea 6C6F6E67 		.ascii	"long long int\000"
 16144      206C6F6E 
 16144      6720696E 
 16144      7400
 16145              	.LASF625:
 16146 17f8 4241525F 		.ascii	"BAR_DECODE1D_ENH\000"
 16146      4445434F 
 16146      44453144 
ARM GAS  C:\Users\AHMED~1.ELE\AppData\Local\Temp\cc594ylT.s 			page 326


 16146      5F454E48 
 16146      00
 16147              	.LASF37:
 16148 1809 4F535F46 		.ascii	"OS_FN_DISP_CLOSE\000"
 16148      4E5F4449 
 16148      53505F43 
 16148      4C4F5345 
 16148      00
 16149              	.LASF377:
 16150 181a 4F535F46 		.ascii	"OS_FN_MIF_SELECT\000"
 16150      4E5F4D49 
 16150      465F5345 
 16150      4C454354 
 16150      00
 16151              	.LASF504:
 16152 182b 77696474 		.ascii	"width\000"
 16152      6800
 16153              	.LASF536:
 16154 1831 4445534B 		.ascii	"DESKEYMW\000"
 16154      45594D57 
 16154      00
 16155              	.LASF360:
 16156 183a 4F535F46 		.ascii	"OS_FN_NETDEV_EVENT\000"
 16156      4E5F4E45 
 16156      54444556 
 16156      5F455645 
 16156      4E5400
 16157              	.LASF71:
 16158 184d 4F535F46 		.ascii	"OS_FN_COM2_STATUS\000"
 16158      4E5F434F 
 16158      4D325F53 
 16158      54415455 
 16158      5300
 16159              	.LASF88:
 16160 185f 4F535F46 		.ascii	"OS_FN_COM_DES2\000"
 16160      4E5F434F 
 16160      4D5F4445 
 16160      533200
 16161              	.LASF524:
 16162 186e 4644454C 		.ascii	"FDELETEMW\000"
 16162      4554454D 
 16162      5700
 16163              	.LASF297:
 16164 1878 4F535F46 		.ascii	"OS_FN_GPRS_RESET\000"
 16164      4E5F4750 
 16164      52535F52 
 16164      45534554 
 16164      00
 16165              	.LASF302:
 16166 1889 4F535F46 		.ascii	"OS_FN_GPRS_SMS_ACK\000"
 16166      4E5F4750 
 16166      52535F53 
 16166      4D535F41 
 16166      434B00
 16167              	.LASF652:
 16168 189c 61566965 		.ascii	"aView\000"
 16168      7700
ARM GAS  C:\Users\AHMED~1.ELE\AppData\Local\Temp\cc594ylT.s 			page 327


 16169              	.LASF394:
 16170 18a2 4F535F46 		.ascii	"OS_FN_BARCODE_CLOSE\000"
 16170      4E5F4241 
 16170      52434F44 
 16170      455F434C 
 16170      4F534500 
 16171              	.LASF255:
 16172 18b6 4F535F46 		.ascii	"OS_FN_FL_PGM_START\000"
 16172      4E5F464C 
 16172      5F50474D 
 16172      5F535441 
 16172      525400
 16173              	.LASF259:
 16174 18c9 4F535F46 		.ascii	"OS_FN_FL_ERASE_END\000"
 16174      4E5F464C 
 16174      5F455241 
 16174      53455F45 
 16174      4E4400
 16175              	.LASF295:
 16176 18dc 4F535F46 		.ascii	"OS_FN_GPRS_SEND\000"
 16176      4E5F4750 
 16176      52535F53 
 16176      454E4400 
 16177              	.LASF243:
 16178 18ec 4F535F46 		.ascii	"OS_FN_LPT_STATUS\000"
 16178      4E5F4C50 
 16178      545F5354 
 16178      41545553 
 16178      00
 16179              	.LASF589:
 16180 18fd 41504D5F 		.ascii	"APM_GETDESCTBL\000"
 16180      47455444 
 16180      45534354 
 16180      424C00
 16181              	.LASF51:
 16182 190c 4F535F46 		.ascii	"OS_FN_DISP_ICON_COLOR\000"
 16182      4E5F4449 
 16182      53505F49 
 16182      434F4E5F 
 16182      434F4C4F 
 16183              	.LASF686:
 16184 1922 70593830 		.ascii	"pY800Dat\000"
 16184      30446174 
 16184      00
 16185              	.LASF315:
 16186 192b 4F535F46 		.ascii	"OS_FN_CODEC_CLOSE\000"
 16186      4E5F434F 
 16186      4445435F 
 16186      434C4F53 
 16186      4500
 16187              	.LASF157:
 16188 193d 4F535F46 		.ascii	"OS_FN_APP_SEARCH_ID\000"
 16188      4E5F4150 
 16188      505F5345 
 16188      41524348 
 16188      5F494400 
 16189              	.LASF349:
ARM GAS  C:\Users\AHMED~1.ELE\AppData\Local\Temp\cc594ylT.s 			page 328


 16190 1951 4F535F46 		.ascii	"OS_FN_DEVICE_OPEN\000"
 16190      4E5F4445 
 16190      56494345 
 16190      5F4F5045 
 16190      4E00
 16191              	.LASF55:
 16192 1963 4F535F46 		.ascii	"OS_FN_DISP_OVERLAY\000"
 16192      4E5F4449 
 16192      53505F4F 
 16192      5645524C 
 16192      415900
 16193              	.LASF313:
 16194 1976 4F535F46 		.ascii	"OS_FN_TPAD_RAW_POS\000"
 16194      4E5F5450 
 16194      41445F52 
 16194      41575F50 
 16194      4F5300
 16195              	.LASF213:
 16196 1989 4F535F46 		.ascii	"OS_FN_MMC_CLOSE\000"
 16196      4E5F4D4D 
 16196      435F434C 
 16196      4F534500 
 16197              	.LASF359:
 16198 1999 4F535F46 		.ascii	"OS_FN_NETDEV_GETLINK\000"
 16198      4E5F4E45 
 16198      54444556 
 16198      5F474554 
 16198      4C494E4B 
 16199              	.LASF83:
 16200 19ae 4F535F46 		.ascii	"OS_FN_DESKEY\000"
 16200      4E5F4445 
 16200      534B4559 
 16200      00
 16201              	.LASF58:
 16202 19bb 4F535F46 		.ascii	"OS_FN_COM1_RXRDY\000"
 16202      4E5F434F 
 16202      4D315F52 
 16202      58524459 
 16202      00
 16203              	.LASF246:
 16204 19cc 4F535F46 		.ascii	"OS_FN_USBSER_READ\000"
 16204      4E5F5553 
 16204      42534552 
 16204      5F524541 
 16204      4400
 16205              	.LASF98:
 16206 19de 4F535F46 		.ascii	"OS_FN_MD5_PROCESS\000"
 16206      4E5F4D44 
 16206      355F5052 
 16206      4F434553 
 16206      5300
 16207              	.LASF495:
 16208 19f0 4F564552 		.ascii	"OVERLAY_EXTRA_PARAM_LEN\000"
 16208      4C41595F 
 16208      45585452 
 16208      415F5041 
 16208      52414D5F 
ARM GAS  C:\Users\AHMED~1.ELE\AppData\Local\Temp\cc594ylT.s 			page 329


 16209              	.LASF518:
 16210 1a08 4C534545 		.ascii	"LSEEKMW\000"
 16210      4B4D5700 
 16211              	.LASF662:
 16212 1a10 636F6E74 		.ascii	"control\000"
 16212      726F6C00 
 16213              	.LASF695:
 16214 1a18 696D675F 		.ascii	"img_led\000"
 16214      6C656400 
 16215              	.LASF651:
 16216 1a20 704C6364 		.ascii	"pLcdBuf\000"
 16216      42756600 
 16217              	.LASF699:
 16218 1a28 74696D65 		.ascii	"timeout\000"
 16218      6F757400 
 16219              	.LASF59:
 16220 1a30 4F535F46 		.ascii	"OS_FN_COM1_TXRDY\000"
 16220      4E5F434F 
 16220      4D315F54 
 16220      58524459 
 16220      00
 16221              	.LASF170:
 16222 1a41 4F535F46 		.ascii	"OS_FN_FILE_RENAME\000"
 16222      4E5F4649 
 16222      4C455F52 
 16222      454E414D 
 16222      4500
 16223              	.LASF125:
 16224 1a53 4F535F46 		.ascii	"OS_FN_KEY_DUKPT_MAC_CAL\000"
 16224      4E5F4B45 
 16224      595F4455 
 16224      4B50545F 
 16224      4D41435F 
 16225              	.LASF352:
 16226 1a6b 4F535F46 		.ascii	"OS_FN_INTERRUPT_REGISTER\000"
 16226      4E5F494E 
 16226      54455252 
 16226      5550545F 
 16226      52454749 
 16227              	.LASF587:
 16228 1a84 41504D5F 		.ascii	"APM_GETACQTBL\000"
 16228      47455441 
 16228      43515442 
 16228      4C00
 16229              	.LASF211:
 16230 1a92 4F535F46 		.ascii	"OS_FN_SAM_CHANGE\000"
 16230      4E5F5341 
 16230      4D5F4348 
 16230      414E4745 
 16230      00
 16231              	.LASF184:
 16232 1aa3 4F535F46 		.ascii	"OS_FN_FILE_ACTIVATE\000"
 16232      4E5F4649 
 16232      4C455F41 
 16232      43544956 
 16232      41544500 
 16233              	.LASF45:
ARM GAS  C:\Users\AHMED~1.ELE\AppData\Local\Temp\cc594ylT.s 			page 330


 16234 1ab7 4F535F46 		.ascii	"OS_FN_DISP_LENGTH\000"
 16234      4E5F4449 
 16234      53505F4C 
 16234      454E4754 
 16234      4800
 16235              	.LASF560:
 16236 1ac9 534D535F 		.ascii	"SMS_CLEAR_ALL_MW\000"
 16236      434C4541 
 16236      525F414C 
 16236      4C5F4D57 
 16236      00
 16237              	.LASF452:
 16238 1ada 4F535F46 		.ascii	"OS_FN_FPRT_INFO_SET\000"
 16238      4E5F4650 
 16238      52545F49 
 16238      4E464F5F 
 16238      53455400 
 16239              	.LASF8:
 16240 1aee 756E7369 		.ascii	"unsigned int\000"
 16240      676E6564 
 16240      20696E74 
 16240      00
 16241              	.LASF703:
 16242 1afb 7379735F 		.ascii	"sys_func0\000"
 16242      66756E63 
 16242      3000
 16243              	.LASF705:
 16244 1b05 7379735F 		.ascii	"sys_func1\000"
 16244      66756E63 
 16244      3100
 16245              	.LASF702:
 16246 1b0f 7379735F 		.ascii	"sys_func3\000"
 16246      66756E63 
 16246      3300
 16247              	.LASF446:
 16248 1b19 4F535F46 		.ascii	"OS_FN_DTIMER_LATCH_TIME\000"
 16248      4E5F4454 
 16248      494D4552 
 16248      5F4C4154 
 16248      43485F54 
 16249              	.LASF711:
 16250 1b31 4C6F6E67 		.ascii	"LongBeep\000"
 16250      42656570 
 16250      00
 16251              	.LASF324:
 16252 1b3a 4F535F46 		.ascii	"OS_FN_CLICC_SENDCOMMAND\000"
 16252      4E5F434C 
 16252      4943435F 
 16252      53454E44 
 16252      434F4D4D 
 16253              	.LASF437:
 16254 1b52 4F535F46 		.ascii	"OS_FN_DLL_REQ\000"
 16254      4E5F444C 
 16254      4C5F5245 
 16254      5100
 16255              	.LASF177:
 16256 1b60 4F535F46 		.ascii	"OS_FN_FILE_GETC\000"
ARM GAS  C:\Users\AHMED~1.ELE\AppData\Local\Temp\cc594ylT.s 			page 331


 16256      4E5F4649 
 16256      4C455F47 
 16256      45544300 
 16257              	.LASF650:
 16258 1b70 65787472 		.ascii	"extra\000"
 16258      6100
 16259              	.LASF552:
 16260 1b76 44495350 		.ascii	"DISP_PUTGMW\000"
 16260      5F505554 
 16260      474D5700 
 16261              	.LASF474:
 16262 1b82 4F535F46 		.ascii	"OS_FN_IMG_SENSOR_GET_FRAME_COMPLETE\000"
 16262      4E5F494D 
 16262      475F5345 
 16262      4E534F52 
 16262      5F474554 
 16263              	.LASF298:
 16264 1ba6 4F535F46 		.ascii	"OS_FN_GPRS_CONTROL\000"
 16264      4E5F4750 
 16264      52535F43 
 16264      4F4E5452 
 16264      4F4C00
 16265              	.LASF419:
 16266 1bb9 4F535F46 		.ascii	"OS_FN_GPRS_GET_GPS_INFO\000"
 16266      4E5F4750 
 16266      52535F47 
 16266      45545F47 
 16266      50535F49 
 16267              	.LASF594:
 16268 1bd1 41504D5F 		.ascii	"APM_GETPENDING\000"
 16268      47455450 
 16268      454E4449 
 16268      4E4700
 16269              	.LASF127:
 16270 1be0 4F535F46 		.ascii	"OS_FN_KEY_CBC_MAC\000"
 16270      4E5F4B45 
 16270      595F4342 
 16270      435F4D41 
 16270      4300
 16271              	.LASF93:
 16272 1bf2 4F535F46 		.ascii	"OS_FN_AES_SETUP_KEY\000"
 16272      4E5F4145 
 16272      535F5345 
 16272      5455505F 
 16272      4B455900 
 16273              	.LASF678:
 16274 1c06 67726579 		.ascii	"grey\000"
 16274      00
 16275              	.LASF350:
 16276 1c0b 4F535F46 		.ascii	"OS_FN_DEVICE_MOUNT\000"
 16276      4E5F4445 
 16276      56494345 
 16276      5F4D4F55 
 16276      4E5400
 16277              	.LASF89:
 16278 1c1e 4F535F46 		.ascii	"OS_FN_NEW_DES\000"
 16278      4E5F4E45 
ARM GAS  C:\Users\AHMED~1.ELE\AppData\Local\Temp\cc594ylT.s 			page 332


 16278      575F4445 
 16278      5300
 16279              	.LASF183:
 16280 1c2c 4F535F46 		.ascii	"OS_FN_FILE_DEACTIVATE\000"
 16280      4E5F4649 
 16280      4C455F44 
 16280      45414354 
 16280      49564154 
 16281              	.LASF366:
 16282 1c42 4F535F46 		.ascii	"OS_FN_TAMPER_ON\000"
 16282      4E5F5441 
 16282      4D504552 
 16282      5F4F4E00 
 16283              	.LASF257:
 16284 1c52 4F535F46 		.ascii	"OS_FN_FL_PGM_END\000"
 16284      4E5F464C 
 16284      5F50474D 
 16284      5F454E44 
 16284      00
 16285              	.LASF264:
 16286 1c63 4F535F46 		.ascii	"OS_FN_FL_CREAD\000"
 16286      4E5F464C 
 16286      5F435245 
 16286      414400
 16287              	.LASF554:
 16288 1c72 4F535F43 		.ascii	"OS_CALL_MW\000"
 16288      414C4C5F 
 16288      4D5700
 16289              	.LASF415:
 16290 1c7d 4F535F46 		.ascii	"OS_FN_NFC_IC_REG_DIRECT_READ\000"
 16290      4E5F4E46 
 16290      435F4943 
 16290      5F524547 
 16290      5F444952 
 16291              	.LASF388:
 16292 1c9a 4F535F46 		.ascii	"OS_FN_MIF_SNO\000"
 16292      4E5F4D49 
 16292      465F534E 
 16292      4F00
 16293              	.LASF130:
 16294 1ca8 4F535F46 		.ascii	"OS_FN_KEY_SAVE_TMK_NC\000"
 16294      4E5F4B45 
 16294      595F5341 
 16294      56455F54 
 16294      4D4B5F4E 
 16295              	.LASF251:
 16296 1cbe 4F535F46 		.ascii	"OS_FN_FL_STATUS\000"
 16296      4E5F464C 
 16296      5F535441 
 16296      54555300 
 16297              	.LASF306:
 16298 1cce 4F535F46 		.ascii	"OS_FN_TPAD_OPEN\000"
 16298      4E5F5450 
 16298      41445F4F 
 16298      50454E00 
 16299              	.LASF112:
 16300 1cde 4F535F46 		.ascii	"OS_FN_SM2_DECRYPT\000"
ARM GAS  C:\Users\AHMED~1.ELE\AppData\Local\Temp\cc594ylT.s 			page 333


 16300      4E5F534D 
 16300      325F4445 
 16300      43525950 
 16300      5400
 16301              	.LASF224:
 16302 1cf0 4F535F46 		.ascii	"OS_FN_SLE_HIST\000"
 16302      4E5F534C 
 16302      455F4849 
 16302      535400
 16303              	.LASF425:
 16304 1cff 4F535F46 		.ascii	"OS_FN_BREG_WRITE\000"
 16304      4E5F4252 
 16304      45475F57 
 16304      52495445 
 16304      00
 16305              	.LASF510:
 16306 1d10 53454E53 		.ascii	"SENSOR_MODE_960\000"
 16306      4F525F4D 
 16306      4F44455F 
 16306      39363000 
 16307              	.LASF117:
 16308 1d20 4F535F46 		.ascii	"OS_FN_SM4_ENCRYPT\000"
 16308      4E5F534D 
 16308      345F454E 
 16308      43525950 
 16308      5400
 16309              	.LASF216:
 16310 1d32 4F535F46 		.ascii	"OS_FN_MMC_PSTATUS\000"
 16310      4E5F4D4D 
 16310      435F5053 
 16310      54415455 
 16310      5300
 16311              	.LASF430:
 16312 1d44 4F535F46 		.ascii	"OS_FN_RESET\000"
 16312      4E5F5245 
 16312      53455400 
 16313              	.LASF258:
 16314 1d50 4F535F46 		.ascii	"OS_FN_FL_ERASE_START\000"
 16314      4E5F464C 
 16314      5F455241 
 16314      53455F53 
 16314      54415254 
 16315              	.LASF316:
 16316 1d65 4F535F46 		.ascii	"OS_FN_CODEC_PLAY\000"
 16316      4E5F434F 
 16316      4445435F 
 16316      504C4159 
 16316      00
 16317              	.LASF50:
 16318 1d76 4F535F46 		.ascii	"OS_FN_DISP_BL_CONTROL\000"
 16318      4E5F4449 
 16318      53505F42 
 16318      4C5F434F 
 16318      4E54524F 
 16319              	.LASF14:
 16320 1d8c 574F5244 		.ascii	"WORD\000"
 16320      00
ARM GAS  C:\Users\AHMED~1.ELE\AppData\Local\Temp\cc594ylT.s 			page 334


 16321              	.LASF357:
 16322 1d91 4F535F46 		.ascii	"OS_FN_NETDEV_OPEN\000"
 16322      4E5F4E45 
 16322      54444556 
 16322      5F4F5045 
 16322      4E00
 16323              	.LASF717:
 16324 1da3 59383030 		.ascii	"Y800toLcdLeft\000"
 16324      746F4C63 
 16324      644C6566 
 16324      7400
 16325              	.LASF461:
 16326 1db1 4F535F46 		.ascii	"OS_FN_GCM_AES_FINISH\000"
 16326      4E5F4743 
 16326      4D5F4145 
 16326      535F4649 
 16326      4E495348 
 16327              	.LASF608:
 16328 1dc6 41504D5F 		.ascii	"APM_GET_BATCH_REC\000"
 16328      4745545F 
 16328      42415443 
 16328      485F5245 
 16328      4300
 16329              	.LASF497:
 16330 1dd8 4F564552 		.ascii	"OVERLAY_EXTRA_RGB_CR_KEY_HB\000"
 16330      4C41595F 
 16330      45585452 
 16330      415F5247 
 16330      425F4352 
 16331              	.LASF1:
 16332 1df4 756E7369 		.ascii	"unsigned char\000"
 16332      676E6564 
 16332      20636861 
 16332      7200
 16333              	.LASF611:
 16334 1e02 41504D5F 		.ascii	"APM_SAVE_BAT_REC\000"
 16334      53415645 
 16334      5F424154 
 16334      5F524543 
 16334      00
 16335              	.LASF330:
 16336 1e13 4F535F46 		.ascii	"OS_FN_CLICC_LED_SET\000"
 16336      4E5F434C 
 16336      4943435F 
 16336      4C45445F 
 16336      53455400 
 16337              	.LASF408:
 16338 1e27 4F535F46 		.ascii	"OS_FN_NFC_SEND_FELICA_COMMAND\000"
 16338      4E5F4E46 
 16338      435F5345 
 16338      4E445F46 
 16338      454C4943 
 16339              	.LASF41:
 16340 1e45 4F535F46 		.ascii	"OS_FN_DISP_GETG\000"
 16340      4E5F4449 
 16340      53505F47 
 16340      45544700 
ARM GAS  C:\Users\AHMED~1.ELE\AppData\Local\Temp\cc594ylT.s 			page 335


 16341              	.LASF627:
 16342 1e55 4241525F 		.ascii	"BAR_1D_TRYHARD\000"
 16342      31445F54 
 16342      52594841 
 16342      524400
 16343              	.LASF325:
 16344 1e64 4F535F46 		.ascii	"OS_FN_CLICC_CTRL\000"
 16344      4E5F434C 
 16344      4943435F 
 16344      4354524C 
 16344      00
 16345              	.LASF624:
 16346 1e75 4241525F 		.ascii	"BAR_ZXDECODE1D\000"
 16346      5A584445 
 16346      434F4445 
 16346      314400
 16347              	.LASF503:
 16348 1e84 74797065 		.ascii	"type\000"
 16348      00
 16349              	.LASF218:
 16350 1e89 4F535F46 		.ascii	"OS_FN_MMC_BLK_WRITE\000"
 16350      4E5F4D4D 
 16350      435F424C 
 16350      4B5F5752 
 16350      49544500 
 16351              	.LASF363:
 16352 1e9d 4F535F46 		.ascii	"OS_FN_USBKBD_CLOSE\000"
 16352      4E5F5553 
 16352      424B4244 
 16352      5F434C4F 
 16352      534500
 16353              	.LASF187:
 16354 1eb0 4F535F46 		.ascii	"OS_FN_FILE_AUTH\000"
 16354      4E5F4649 
 16354      4C455F41 
 16354      55544800 
 16355              	.LASF266:
 16356 1ec0 4F535F46 		.ascii	"OS_FN_FL_COPYBACK\000"
 16356      4E5F464C 
 16356      5F434F50 
 16356      59424143 
 16356      4B00
 16357              	.LASF21:
 16358 1ed2 4F535F46 		.ascii	"OS_FN_KBD_INKEY\000"
 16358      4E5F4B42 
 16358      445F494E 
 16358      4B455900 
 16359              	.LASF29:
 16360 1ee2 4F535F46 		.ascii	"OS_FN_TIMER_GET\000"
 16360      4E5F5449 
 16360      4D45525F 
 16360      47455400 
 16361              	.LASF77:
 16362 1ef2 4F535F46 		.ascii	"OS_FN_COM3_TXRDY\000"
 16362      4E5F434F 
 16362      4D335F54 
 16362      58524459 
ARM GAS  C:\Users\AHMED~1.ELE\AppData\Local\Temp\cc594ylT.s 			page 336


 16362      00
 16363              	.LASF178:
 16364 1f03 4F535F46 		.ascii	"OS_FN_FILE_LENGTH\000"
 16364      4E5F4649 
 16364      4C455F4C 
 16364      454E4754 
 16364      4800
 16365              	.LASF488:
 16366 1f15 454E445F 		.ascii	"END_OF_OS_FN_LIST\000"
 16366      4F465F4F 
 16366      535F464E 
 16366      5F4C4953 
 16366      5400
 16367              	.LASF553:
 16368 1f27 4745545F 		.ascii	"GET_LCD_TYPEMW\000"
 16368      4C43445F 
 16368      54595045 
 16368      4D5700
 16369              	.LASF162:
 16370 1f36 4F535F46 		.ascii	"OS_FN_MALLOC\000"
 16370      4E5F4D41 
 16370      4C4C4F43 
 16370      00
 16371              	.LASF365:
 16372 1f43 4F535F46 		.ascii	"OS_FN_USBKBD_GETKEY\000"
 16372      4E5F5553 
 16372      424B4244 
 16372      5F474554 
 16372      4B455900 
 16373              	.LASF598:
 16374 1f57 41504D5F 		.ascii	"APM_SELACQUIRER\000"
 16374      53454C41 
 16374      43515549 
 16374      52455200 
 16375              	.LASF444:
 16376 1f67 4F535F46 		.ascii	"OS_FN_DTIMER_LATCH_START\000"
 16376      4E5F4454 
 16376      494D4552 
 16376      5F4C4154 
 16376      43485F53 
 16377              	.LASF420:
 16378 1f80 4F535F46 		.ascii	"OS_FN_GPS_CMD\000"
 16378      4E5F4750 
 16378      535F434D 
 16378      4400
 16379              	.LASF697:
 16380 1f8e 74776F64 		.ascii	"twod\000"
 16380      00
 16381              	.LASF171:
 16382 1f93 4F535F46 		.ascii	"OS_FN_FILE_DELETE\000"
 16382      4E5F4649 
 16382      4C455F44 
 16382      454C4554 
 16382      4500
 16383              	.LASF147:
 16384 1fa5 4F535F46 		.ascii	"OS_FN_BUFMAN_REALLOC\000"
 16384      4E5F4255 
ARM GAS  C:\Users\AHMED~1.ELE\AppData\Local\Temp\cc594ylT.s 			page 337


 16384      464D414E 
 16384      5F524541 
 16384      4C4C4F43 
 16385              	.LASF312:
 16386 1fba 4F535F46 		.ascii	"OS_FN_TPAD_CALIBRATE\000"
 16386      4E5F5450 
 16386      41445F43 
 16386      414C4942 
 16386      52415445 
 16387              	.LASF612:
 16388 1fcf 41504D5F 		.ascii	"APM_UPD_BAT_REC\000"
 16388      5550445F 
 16388      4241545F 
 16388      52454300 
 16389              	.LASF660:
 16390 1fdf 61467261 		.ascii	"aFrameCfg\000"
 16390      6D654366 
 16390      6700
 16391              	.LASF107:
 16392 1fe9 4F535F46 		.ascii	"OS_FN_SM2_SET_CURVE\000"
 16392      4E5F534D 
 16392      325F5345 
 16392      545F4355 
 16392      52564500 
 16393              	.LASF274:
 16394 1ffd 4F535F46 		.ascii	"OS_FN_MCOM_OPEN\000"
 16394      4E5F4D43 
 16394      4F4D5F4F 
 16394      50454E00 
 16395              	.LASF331:
 16396 200d 4F535F46 		.ascii	"OS_FN_CLICC_LED_CLEAR\000"
 16396      4E5F434C 
 16396      4943435F 
 16396      4C45445F 
 16396      434C4541 
 16397              	.LASF158:
 16398 2023 4F535F46 		.ascii	"OS_FN_APP_SEARCH_NAME\000"
 16398      4E5F4150 
 16398      505F5345 
 16398      41524348 
 16398      5F4E414D 
 16399              	.LASF101:
 16400 2039 4F535F46 		.ascii	"OS_FN_SHA_PROCESS\000"
 16400      4E5F5348 
 16400      415F5052 
 16400      4F434553 
 16400      5300
 16401              	.LASF361:
 16402 204b 4F535F46 		.ascii	"OS_FN_NETDEV_IOCTL\000"
 16402      4E5F4E45 
 16402      54444556 
 16402      5F494F43 
 16402      544C00
 16403              	.LASF84:
 16404 205e 4F535F46 		.ascii	"OS_FN_DES\000"
 16404      4E5F4445 
 16404      5300
ARM GAS  C:\Users\AHMED~1.ELE\AppData\Local\Temp\cc594ylT.s 			page 338


 16405              	.LASF475:
 16406 2068 4F535F46 		.ascii	"OS_FN_IMG_SENSOR_CLOSE\000"
 16406      4E5F494D 
 16406      475F5345 
 16406      4E534F52 
 16406      5F434C4F 
 16407              	.LASF672:
 16408 207f 614C6364 		.ascii	"aLcd\000"
 16408      00
 16409              	.LASF57:
 16410 2084 4F535F46 		.ascii	"OS_FN_COM1_CLOSE\000"
 16410      4E5F434F 
 16410      4D315F43 
 16410      4C4F5345 
 16410      00
 16411              	.LASF263:
 16412 2095 4F535F46 		.ascii	"OS_FN_FL_CREAD_RAND\000"
 16412      4E5F464C 
 16412      5F435245 
 16412      41445F52 
 16412      414E4400 
 16413              	.LASF590:
 16414 20a9 41504D5F 		.ascii	"APM_GETLOGOCOUNT\000"
 16414      4745544C 
 16414      4F474F43 
 16414      4F554E54 
 16414      00
 16415              	.LASF396:
 16416 20ba 4F535F46 		.ascii	"OS_FN_BARCODE_SCAN\000"
 16416      4E5F4241 
 16416      52434F44 
 16416      455F5343 
 16416      414E00
 16417              	.LASF646:
 16418 20cd 4C63644F 		.ascii	"LcdOnLayerEnable\000"
 16418      6E4C6179 
 16418      6572456E 
 16418      61626C65 
 16418      00
 16419              	.LASF335:
 16420 20de 4F535F46 		.ascii	"OS_FN_USBHOST_RESET_DEVICE\000"
 16420      4E5F5553 
 16420      42484F53 
 16420      545F5245 
 16420      5345545F 
 16421              	.LASF575:
 16422 20f9 41504D5F 		.ascii	"APM_PRECONNECT\000"
 16422      50524543 
 16422      4F4E4E45 
 16422      435400
 16423              	.LASF573:
 16424 2108 41504D5F 		.ascii	"APM_GETKBDTO\000"
 16424      4745544B 
 16424      4244544F 
 16424      00
 16425              	.LASF308:
 16426 2115 4F535F46 		.ascii	"OS_FN_TPAD_ADD_OBJ\000"
ARM GAS  C:\Users\AHMED~1.ELE\AppData\Local\Temp\cc594ylT.s 			page 339


 16426      4E5F5450 
 16426      41445F41 
 16426      44445F4F 
 16426      424A00
 16427              	.LASF506:
 16428 2128 73697A65 		.ascii	"size\000"
 16428      00
 16429              	.LASF7:
 16430 212d 6C6F6E67 		.ascii	"long long unsigned int\000"
 16430      206C6F6E 
 16430      6720756E 
 16430      7369676E 
 16430      65642069 
 16431              	.LASF199:
 16432 2144 4F535F46 		.ascii	"OS_FN_FILE_IOCTL\000"
 16432      4E5F4649 
 16432      4C455F49 
 16432      4F43544C 
 16432      00
 16433              	.LASF180:
 16434 2155 4F535F46 		.ascii	"OS_FN_FILE_SEARCH\000"
 16434      4E5F4649 
 16434      4C455F53 
 16434      45415243 
 16434      4800
 16435              	.LASF411:
 16436 2167 4F535F46 		.ascii	"OS_FN_NFC_GET_VALID_RESP\000"
 16436      4E5F4E46 
 16436      435F4745 
 16436      545F5641 
 16436      4C49445F 
 16437              	.LASF155:
 16438 2180 4F535F46 		.ascii	"OS_FN_GET_CHALLENGE\000"
 16438      4E5F4745 
 16438      545F4348 
 16438      414C4C45 
 16438      4E474500 
 16439              	.LASF397:
 16440 2194 4F535F46 		.ascii	"OS_FN_BARCODE_READ\000"
 16440      4E5F4241 
 16440      52434F44 
 16440      455F5245 
 16440      414400
 16441              	.LASF680:
 16442 21a7 706C6364 		.ascii	"plcd\000"
 16442      00
 16443              	.LASF565:
 16444 21ac 4D575F46 		.ascii	"MW_FUNC_COUNT\000"
 16444      554E435F 
 16444      434F554E 
 16444      5400
 16445              	.LASF341:
 16446 21ba 4F535F46 		.ascii	"OS_FN_DRIVER_UNREGISTER\000"
 16446      4E5F4452 
 16446      49564552 
 16446      5F554E52 
 16446      45474953 
ARM GAS  C:\Users\AHMED~1.ELE\AppData\Local\Temp\cc594ylT.s 			page 340


 16447              	.LASF465:
 16448 21d2 4F535F46 		.ascii	"OS_FN_WIFI_SOCKET_DISCONNECT\000"
 16448      4E5F5749 
 16448      46495F53 
 16448      4F434B45 
 16448      545F4449 
 16449              	.LASF25:
 16450 21ef 4F535F46 		.ascii	"OS_FN_KBD_UNLOCK\000"
 16450      4E5F4B42 
 16450      445F554E 
 16450      4C4F434B 
 16450      00
 16451              	.LASF661:
 16452 2200 614F6E65 		.ascii	"aOneDHeight\000"
 16452      44486569 
 16452      67687400 
 16453              	.LASF311:
 16454 220c 4F535F46 		.ascii	"OS_FN_TPAD_ALERT_RETURN\000"
 16454      4E5F5450 
 16454      41445F41 
 16454      4C455254 
 16454      5F524554 
 16455              	.LASF131:
 16456 2224 4F535F46 		.ascii	"OS_FN_KEY_SAVE_TMK_CBC\000"
 16456      4E5F4B45 
 16456      595F5341 
 16456      56455F54 
 16456      4D4B5F43 
 16457              	.LASF87:
 16458 223b 4F535F46 		.ascii	"OS_FN_COM_DES\000"
 16458      4E5F434F 
 16458      4D5F4445 
 16458      5300
 16459              	.LASF106:
 16460 2249 4F535F46 		.ascii	"OS_FN_MD4_FINISH\000"
 16460      4E5F4D44 
 16460      345F4649 
 16460      4E495348 
 16460      00
 16461              	.LASF74:
 16462 225a 4F535F46 		.ascii	"OS_FN_COM3_OPEN\000"
 16462      4E5F434F 
 16462      4D335F4F 
 16462      50454E00 
 16463              	.LASF531:
 16464 226a 46434F4D 		.ascii	"FCOMMITALLMW\000"
 16464      4D495441 
 16464      4C4C4D57 
 16464      00
 16465              	.LASF261:
 16466 2277 4F535F46 		.ascii	"OS_FN_FL_COPYB_PGM\000"
 16466      4E5F464C 
 16466      5F434F50 
 16466      59425F50 
 16466      474D00
 16467              	.LASF486:
 16468 228a 4F535F46 		.ascii	"OS_FN_IMG_SENSOR_SET_MODE\000"
ARM GAS  C:\Users\AHMED~1.ELE\AppData\Local\Temp\cc594ylT.s 			page 341


 16468      4E5F494D 
 16468      475F5345 
 16468      4E534F52 
 16468      5F534554 
 16469              	.LASF362:
 16470 22a4 4F535F46 		.ascii	"OS_FN_USBKBD_OPEN\000"
 16470      4E5F5553 
 16470      424B4244 
 16470      5F4F5045 
 16470      4E00
 16471              	.LASF579:
 16472 22b6 41504D5F 		.ascii	"APM_RESETCOMM\000"
 16472      52455345 
 16472      54434F4D 
 16472      4D00
 16473              	.LASF600:
 16474 22c4 41504D5F 		.ascii	"APM_SETTRACE\000"
 16474      53455454 
 16474      52414345 
 16474      00
 16475              	.LASF262:
 16476 22d1 4F535F46 		.ascii	"OS_FN_FL_COPYB_END\000"
 16476      4E5F464C 
 16476      5F434F50 
 16476      59425F45 
 16476      4E4400
 16477              	.LASF66:
 16478 22e4 4F535F46 		.ascii	"OS_FN_COM2_CLOSE\000"
 16478      4E5F434F 
 16478      4D325F43 
 16478      4C4F5345 
 16478      00
 16479              	.LASF556:
 16480 22f5 534D535F 		.ascii	"SMS_ENB_MW\000"
 16480      454E425F 
 16480      4D5700
 16481              	.LASF221:
 16482 2300 4F535F46 		.ascii	"OS_FN_MMC_INSERTED\000"
 16482      4E5F4D4D 
 16482      435F494E 
 16482      53455254 
 16482      454400
 16483              	.LASF422:
 16484 2313 4F535F46 		.ascii	"OS_FN_GPS_RESET\000"
 16484      4E5F4750 
 16484      535F5245 
 16484      53455400 
 16485              	.LASF369:
 16486 2323 4F535F46 		.ascii	"OS_FN_MIF_OPEN\000"
 16486      4E5F4D49 
 16486      465F4F50 
 16486      454E00
 16487              	.LASF562:
 16488 2332 46545255 		.ascii	"FTRUNCATEMW\000"
 16488      4E434154 
 16488      454D5700 
 16489              	.LASF458:
ARM GAS  C:\Users\AHMED~1.ELE\AppData\Local\Temp\cc594ylT.s 			page 342


 16490 233e 4F535F46 		.ascii	"OS_FN_GCM_AES_INIT\000"
 16490      4E5F4743 
 16490      4D5F4145 
 16490      535F494E 
 16490      495400
 16491              	.LASF483:
 16492 2351 4F535F46 		.ascii	"OS_FN_WIFI_SET_REGULATORY_DOMAIN\000"
 16492      4E5F5749 
 16492      46495F53 
 16492      45545F52 
 16492      4547554C 
 16493              	.LASF285:
 16494 2372 4F535F46 		.ascii	"OS_FN_BATT_TEMP\000"
 16494      4E5F4241 
 16494      54545F54 
 16494      454D5000 
 16495              	.LASF386:
 16496 2382 4F535F46 		.ascii	"OS_FN_MIF_TRANSFER\000"
 16496      4E5F4D49 
 16496      465F5452 
 16496      414E5346 
 16496      455200
 16497              	.LASF569:
 16498 2395 41504D5F 		.ascii	"APM_WAITKEY\000"
 16498      57414954 
 16498      4B455900 
 16499              	.LASF129:
 16500 23a1 4F535F46 		.ascii	"OS_FN_KEY_SAVE_NC\000"
 16500      4E5F4B45 
 16500      595F5341 
 16500      56455F4E 
 16500      4300
 16501              	.LASF585:
 16502 23b3 41504D5F 		.ascii	"APM_GETISSUER\000"
 16502      47455449 
 16502      53535545 
 16502      5200
 16503              	.LASF710:
 16504 23c1 6D656D73 		.ascii	"memset\000"
 16504      657400
 16505              	.LASF27:
 16506 23c8 4F535F46 		.ascii	"OS_FN_TIMER_CLOSE\000"
 16506      4E5F5449 
 16506      4D45525F 
 16506      434C4F53 
 16506      4500
 16507              	.LASF148:
 16508 23da 4F535F46 		.ascii	"OS_FN_BUFMAN_SHRINK\000"
 16508      4E5F4255 
 16508      464D414E 
 16508      5F534852 
 16508      494E4B00 
 16509              	.LASF68:
 16510 23ee 4F535F46 		.ascii	"OS_FN_COM2_TXRDY\000"
 16510      4E5F434F 
 16510      4D325F54 
 16510      58524459 
ARM GAS  C:\Users\AHMED~1.ELE\AppData\Local\Temp\cc594ylT.s 			page 343


 16510      00
 16511              	.LASF275:
 16512 23ff 4F535F46 		.ascii	"OS_FN_MCOM_CLOSE\000"
 16512      4E5F4D43 
 16512      4F4D5F43 
 16512      4C4F5345 
 16512      00
 16513              	.LASF496:
 16514 2410 4F564552 		.ascii	"OVERLAY_EXTRA_RGB_CR_KEY_LB\000"
 16514      4C41595F 
 16514      45585452 
 16514      415F5247 
 16514      425F4352 
 16515              	.LASF398:
 16516 242c 4F535F46 		.ascii	"OS_FN_BARCODE_ABORT\000"
 16516      4E5F4241 
 16516      52434F44 
 16516      455F4142 
 16516      4F525400 
 16517              	.LASF385:
 16518 2440 4F535F46 		.ascii	"OS_FN_MIF_RESTORE\000"
 16518      4E5F4D49 
 16518      465F5245 
 16518      53544F52 
 16518      4500
 16519              	.LASF511:
 16520 2452 53454E53 		.ascii	"SENSOR_MODE_FULL_SCREEN\000"
 16520      4F525F4D 
 16520      4F44455F 
 16520      46554C4C 
 16520      5F534352 
 16521              	.LASF395:
 16522 246a 4F535F46 		.ascii	"OS_FN_BARCODE_CMD\000"
 16522      4E5F4241 
 16522      52434F44 
 16522      455F434D 
 16522      4400
 16523              	.LASF513:
 16524 247c 53485554 		.ascii	"SHUTDOWNMW\000"
 16524      444F574E 
 16524      4D5700
 16525              	.LASF33:
 16526 2487 4F535F46 		.ascii	"OS_FN_BUZ_STATE\000"
 16526      4E5F4255 
 16526      5A5F5354 
 16526      41544500 
 16527              	.LASF304:
 16528 2497 4F535F46 		.ascii	"OS_FN_GPRS_SMS_CONTROL\000"
 16528      4E5F4750 
 16528      52535F53 
 16528      4D535F43 
 16528      4F4E5452 
 16529              	.LASF228:
 16530 24ae 4F535F46 		.ascii	"OS_FN_LAN_RXRDY\000"
 16530      4E5F4C41 
 16530      4E5F5258 
 16530      52445900 
ARM GAS  C:\Users\AHMED~1.ELE\AppData\Local\Temp\cc594ylT.s 			page 344


 16531              	.LASF35:
 16532 24be 4F535F46 		.ascii	"OS_FN_RTC_SET\000"
 16532      4E5F5254 
 16532      435F5345 
 16532      5400
 16533              	.LASF212:
 16534 24cc 4F535F46 		.ascii	"OS_FN_MMC_OPEN\000"
 16534      4E5F4D4D 
 16534      435F4F50 
 16534      454E00
 16535              	.LASF544:
 16536 24db 44495350 		.ascii	"DISP_PUTCMW\000"
 16536      5F505554 
 16536      434D5700 
 16537              	.LASF616:
 16538 24e7 41504D5F 		.ascii	"APM_SELYESNO\000"
 16538      53454C59 
 16538      45534E4F 
 16538      00
 16539              	.LASF676:
 16540 24f4 786F6666 		.ascii	"xoff\000"
 16540      00
 16541              	.LASF346:
 16542 24f9 4F535F46 		.ascii	"OS_FN_DEVICE_IOCTL\000"
 16542      4E5F4445 
 16542      56494345 
 16542      5F494F43 
 16542      544C00
 16543              	.LASF698:
 16544 250c 43616D54 		.ascii	"CamTestAll\000"
 16544      65737441 
 16544      6C6C00
 16545              	.LASF643:
 16546 2517 4D4F4445 		.ascii	"MODE_F640_D\000"
 16546      5F463634 
 16546      305F4400 
 16547              	.LASF217:
 16548 2523 4F535F46 		.ascii	"OS_FN_MMC_BLK_READ\000"
 16548      4E5F4D4D 
 16548      435F424C 
 16548      4B5F5245 
 16548      414400
 16549              	.LASF97:
 16550 2536 4F535F46 		.ascii	"OS_FN_MD5_INIT\000"
 16550      4E5F4D44 
 16550      355F494E 
 16550      495400
 16551              	.LASF645:
 16552 2545 4D4F4445 		.ascii	"MODE_MAX\000"
 16552      5F4D4158 
 16552      00
 16553              	.LASF664:
 16554 254e 704F7665 		.ascii	"pOverLay\000"
 16554      724C6179 
 16554      00
 16555              	.LASF253:
 16556 2557 4F535F46 		.ascii	"OS_FN_FL_PAGE\000"
ARM GAS  C:\Users\AHMED~1.ELE\AppData\Local\Temp\cc594ylT.s 			page 345


 16556      4E5F464C 
 16556      5F504147 
 16556      4500
 16557              	.LASF571:
 16558 2565 41504D5F 		.ascii	"APM_GETKBD\000"
 16558      4745544B 
 16558      424400
 16559              	.LASF144:
 16560 2570 4F535F46 		.ascii	"OS_FN_THREAD_RETURN\000"
 16560      4E5F5448 
 16560      52454144 
 16560      5F524554 
 16560      55524E00 
 16561              	.LASF203:
 16562 2584 4F535F46 		.ascii	"OS_FN_CONFIG_UPDATE\000"
 16562      4E5F434F 
 16562      4E464947 
 16562      5F555044 
 16562      41544500 
 16563              	.LASF696:
 16564 2598 6F6E6564 		.ascii	"oned_height\000"
 16564      5F686569 
 16564      67687400 
 16565              	.LASF412:
 16566 25a4 4F535F46 		.ascii	"OS_FN_NFC_INFO_GET\000"
 16566      4E5F4E46 
 16566      435F494E 
 16566      464F5F47 
 16566      455400
 16567              	.LASF620:
 16568 25b7 41504D5F 		.ascii	"APM_FUNC_COUNT\000"
 16568      46554E43 
 16568      5F434F55 
 16568      4E5400
 16569              	.LASF613:
 16570 25c6 41504D5F 		.ascii	"APM_TRACE_IN_BATCH\000"
 16570      54524143 
 16570      455F494E 
 16570      5F424154 
 16570      434800
 16571              	.LASF634:
 16572 25d9 6D61785F 		.ascii	"max_type_len\000"
 16572      74797065 
 16572      5F6C656E 
 16572      00
 16573              	.LASF191:
 16574 25e6 4F535F46 		.ascii	"OS_FN_FILE_GET_SYSTEMINFO\000"
 16574      4E5F4649 
 16574      4C455F47 
 16574      45545F53 
 16574      59535445 
 16575              	.LASF378:
 16576 2600 4F535F46 		.ascii	"OS_FN_MIF_LOAD_KEY\000"
 16576      4E5F4D49 
 16576      465F4C4F 
 16576      41445F4B 
 16576      455900
ARM GAS  C:\Users\AHMED~1.ELE\AppData\Local\Temp\cc594ylT.s 			page 346


 16577              	.LASF100:
 16578 2613 4F535F46 		.ascii	"OS_FN_SHA_INIT\000"
 16578      4E5F5348 
 16578      415F494E 
 16578      495400
 16579              	.LASF345:
 16580 2622 4F535F46 		.ascii	"OS_FN_DEVICE_ALLOC_MEDIA\000"
 16580      4E5F4445 
 16580      56494345 
 16580      5F414C4C 
 16580      4F435F4D 
 16581              	.LASF459:
 16582 263b 4F535F46 		.ascii	"OS_FN_GCM_AES_PROCESS_AAD\000"
 16582      4E5F4743 
 16582      4D5F4145 
 16582      535F5052 
 16582      4F434553 
 16583              	.LASF367:
 16584 2655 4F535F46 		.ascii	"OS_FN_TAMPER_GET_STATUS\000"
 16584      4E5F5441 
 16584      4D504552 
 16584      5F474554 
 16584      5F535441 
 16585              	.LASF79:
 16586 266d 4F535F46 		.ascii	"OS_FN_COM3_SEND\000"
 16586      4E5F434F 
 16586      4D335F53 
 16586      454E4400 
 16587              	.LASF124:
 16588 267d 4F535F46 		.ascii	"OS_FN_KEY_DUKPT_ENCRYPT\000"
 16588      4E5F4B45 
 16588      595F4455 
 16588      4B50545F 
 16588      454E4352 
 16589              	.LASF141:
 16590 2695 4F535F46 		.ascii	"OS_FN_THREAD_UNLOCK\000"
 16590      4E5F5448 
 16590      52454144 
 16590      5F554E4C 
 16590      4F434B00 
 16591              	.LASF370:
 16592 26a9 4F535F46 		.ascii	"OS_FN_MIF_CLOSE\000"
 16592      4E5F4D49 
 16592      465F434C 
 16592      4F534500 
 16593              	.LASF80:
 16594 26b9 4F535F46 		.ascii	"OS_FN_COM3_STATUS\000"
 16594      4E5F434F 
 16594      4D335F53 
 16594      54415455 
 16594      5300
 16595              	.LASF307:
 16596 26cb 4F535F46 		.ascii	"OS_FN_TPAD_CLOSE\000"
 16596      4E5F5450 
 16596      41445F43 
 16596      4C4F5345 
 16596      00
ARM GAS  C:\Users\AHMED~1.ELE\AppData\Local\Temp\cc594ylT.s 			page 347


 16597              	.LASF2:
 16598 26dc 73686F72 		.ascii	"short int\000"
 16598      7420696E 
 16598      7400
 16599              	.LASF207:
 16600 26e6 4F535F46 		.ascii	"OS_FN_SAM_INSERTED\000"
 16600      4E5F5341 
 16600      4D5F494E 
 16600      53455254 
 16600      454400
 16601              	.LASF499:
 16602 26f9 55534246 		.ascii	"USBFPRT_GENERAL_INFO_IMG_WIDTH\000"
 16602      5052545F 
 16602      47454E45 
 16602      52414C5F 
 16602      494E464F 
 16603              	.LASF329:
 16604 2718 4F535F46 		.ascii	"OS_FN_CLICC_LED_STATUS\000"
 16604      4E5F434C 
 16604      4943435F 
 16604      4C45445F 
 16604      53544154 
 16605              	.LASF692:
 16606 272f 6D6F6465 		.ascii	"mode\000"
 16606      00
 16607              	.LASF64:
 16608 2734 4F535F46 		.ascii	"OS_FN_COM1_SSEND\000"
 16608      4E5F434F 
 16608      4D315F53 
 16608      53454E44 
 16608      00
 16609              	.LASF347:
 16610 2745 4F535F46 		.ascii	"OS_FN_DEVICE_SEARCH_INIT\000"
 16610      4E5F4445 
 16610      56494345 
 16610      5F534541 
 16610      5243485F 
 16611              	.LASF282:
 16612 275e 4F535F46 		.ascii	"OS_FN_MCOM_READ\000"
 16612      4E5F4D43 
 16612      4F4D5F52 
 16612      45414400 
 16613              	.LASF492:
 16614 276e 775F7677 		.ascii	"w_vwidth\000"
 16614      69647468 
 16614      00
 16615              	.LASF431:
 16616 2777 4F535F46 		.ascii	"OS_FN_FREE_RUN\000"
 16616      4E5F4652 
 16616      45455F52 
 16616      554E00
 16617              	.LASF291:
 16618 2786 4F535F46 		.ascii	"OS_FN_GPRS_SIGNAL\000"
 16618      4E5F4750 
 16618      52535F53 
 16618      49474E41 
 16618      4C00
ARM GAS  C:\Users\AHMED~1.ELE\AppData\Local\Temp\cc594ylT.s 			page 348


 16619              	.LASF250:
 16620 2798 4F535F46 		.ascii	"OS_FN_FL_INFO\000"
 16620      4E5F464C 
 16620      5F494E46 
 16620      4F00
 16621              	.LASF675:
 16622 27a6 614F6666 		.ascii	"aOffset\000"
 16622      73657400 
 16623              	.LASF114:
 16624 27ae 4F535F46 		.ascii	"OS_FN_SM3_ASCII\000"
 16624      4E5F534D 
 16624      335F4153 
 16624      43494900 
 16625              	.LASF209:
 16626 27be 4F535F46 		.ascii	"OS_FN_SAM_OFF\000"
 16626      4E5F5341 
 16626      4D5F4F46 
 16626      4600
 16627              	.LASF417:
 16628 27cc 4F535F46 		.ascii	"OS_FN_GPS_OFF\000"
 16628      4E5F4750 
 16628      535F4F46 
 16628      4600
 16629              	.LASF123:
 16630 27da 4F535F46 		.ascii	"OS_FN_KEY_FLUSH\000"
 16630      4E5F4B45 
 16630      595F464C 
 16630      55534800 
 16631              	.LASF435:
 16632 27ea 4F535F46 		.ascii	"OS_FN_OFF\000"
 16632      4E5F4F46 
 16632      4600
 16633              	.LASF606:
 16634 27f4 41504D5F 		.ascii	"APM_BATCH_FULL\000"
 16634      42415443 
 16634      485F4655 
 16634      4C4C00
 16635              	.LASF113:
 16636 2803 4F535F46 		.ascii	"OS_FN_SM2_GET_MESS\000"
 16636      4E5F534D 
 16636      325F4745 
 16636      545F4D45 
 16636      535300
 16637              	.LASF252:
 16638 2816 4F535F46 		.ascii	"OS_FN_FL_PAGE_READ\000"
 16638      4E5F464C 
 16638      5F504147 
 16638      455F5245 
 16638      414400
 16639              	.LASF163:
 16640 2829 4F535F46 		.ascii	"OS_FN_REALLOC\000"
 16640      4E5F5245 
 16640      414C4C4F 
 16640      4300
 16641              	.LASF466:
 16642 2837 4F535F46 		.ascii	"OS_FN_WIFI_SOCKET_GET_STATE\000"
 16642      4E5F5749 
ARM GAS  C:\Users\AHMED~1.ELE\AppData\Local\Temp\cc594ylT.s 			page 349


 16642      46495F53 
 16642      4F434B45 
 16642      545F4745 
 16643              	.LASF376:
 16644 2853 4F535F46 		.ascii	"OS_FN_MIF_ANTICOLL\000"
 16644      4E5F4D49 
 16644      465F414E 
 16644      5449434F 
 16644      4C4C00
 16645              	.LASF639:
 16646 2866 4D4F4445 		.ascii	"MODE_W640_D\000"
 16646      5F573634 
 16646      305F4400 
 16647              	.LASF413:
 16648 2872 4F535F46 		.ascii	"OS_FN_NFC_INFO_SET\000"
 16648      4E5F4E46 
 16648      435F494E 
 16648      464F5F53 
 16648      455400
 16649              	.LASF576:
 16650 2885 41504D5F 		.ascii	"APM_CONNECTOK\000"
 16650      434F4E4E 
 16650      4543544F 
 16650      4B00
 16651              	.LASF467:
 16652 2893 4F535F46 		.ascii	"OS_FN_WIFI_SOCKET_SEND_TCP\000"
 16652      4E5F5749 
 16652      46495F53 
 16652      4F434B45 
 16652      545F5345 
 16653              	.LASF551:
 16654 28ae 44495350 		.ascii	"DISP_GETGMW\000"
 16654      5F474554 
 16654      474D5700 
 16655              	.LASF133:
 16656 28ba 4F535F46 		.ascii	"OS_FN_PCI_DSS_GET_KVC\000"
 16656      4E5F5043 
 16656      495F4453 
 16656      535F4745 
 16656      545F4B56 
 16657              	.LASF470:
 16658 28d0 4F535F46 		.ascii	"OS_FN_WIFI_SOCKET_GET_STATUS\000"
 16658      4E5F5749 
 16658      46495F53 
 16658      4F434B45 
 16658      545F4745 
 16659              	.LASF116:
 16660 28ed 4F535F46 		.ascii	"OS_FN_SM4_SET_KEY\000"
 16660      4E5F534D 
 16660      345F5345 
 16660      545F4B45 
 16660      5900
 16661              	.LASF54:
 16662 28ff 4F535F46 		.ascii	"OS_FN_DISP_ICON_SET_SIGNAL_TYPE\000"
 16662      4E5F4449 
 16662      53505F49 
 16662      434F4E5F 
ARM GAS  C:\Users\AHMED~1.ELE\AppData\Local\Temp\cc594ylT.s 			page 350


 16662      5345545F 
 16663              	.LASF310:
 16664 291f 4F535F46 		.ascii	"OS_FN_TPAD_CPOS\000"
 16664      4E5F5450 
 16664      41445F43 
 16664      504F5300 
 16665              	.LASF0:
 16666 292f 7369676E 		.ascii	"signed char\000"
 16666      65642063 
 16666      68617200 
 16667              	.LASF688:
 16668 293b 70626172 		.ascii	"pbar_out\000"
 16668      5F6F7574 
 16668      00
 16669              	.LASF402:
 16670 2944 4F535F46 		.ascii	"OS_FN_WIFI_SEND_COMMAND\000"
 16670      4E5F5749 
 16670      46495F53 
 16670      454E445F 
 16670      434F4D4D 
 16671              	.LASF610:
 16672 295c 41504D5F 		.ascii	"APM_CLR_REV_REC\000"
 16672      434C525F 
 16672      5245565F 
 16672      52454300 
 16673              	.LASF529:
 16674 296c 46524541 		.ascii	"FREADMW\000"
 16674      444D5700 
 16675              	.LASF704:
 16676 2974 7374726C 		.ascii	"strlen\000"
 16676      656E00
 16677              	.LASF62:
 16678 297b 4F535F46 		.ascii	"OS_FN_COM1_STATUS\000"
 16678      4E5F434F 
 16678      4D315F53 
 16678      54415455 
 16678      5300
 16679              	.LASF617:
 16680 298d 41504D5F 		.ascii	"APM_SELAPP\000"
 16680      53454C41 
 16680      505000
 16681              	.LASF134:
 16682 2998 4F535F46 		.ascii	"OS_FN_PCI_DSS_REGEN_KEY\000"
 16682      4E5F5043 
 16682      495F4453 
 16682      535F5245 
 16682      47454E5F 
 16683              	.LASF78:
 16684 29b0 4F535F46 		.ascii	"OS_FN_COM3_READ\000"
 16684      4E5F434F 
 16684      4D335F52 
 16684      45414400 
 16685              	.LASF659:
 16686 29c0 61507265 		.ascii	"aPreview\000"
 16686      76696577 
 16686      00
 16687              	.LASF615:
ARM GAS  C:\Users\AHMED~1.ELE\AppData\Local\Temp\cc594ylT.s 			page 351


 16688 29c9 41504D5F 		.ascii	"APM_GETACCESSCODE\000"
 16688      47455441 
 16688      43434553 
 16688      53434F44 
 16688      4500
 16689              	.LASF631:
 16690 29db 4241525F 		.ascii	"BAR_OUT\000"
 16690      4F555400 
 16691              	.LASF708:
 16692 29e3 6D656D63 		.ascii	"memcpy\000"
 16692      707900
 16693              	.LASF390:
 16694 29ea 4F535F46 		.ascii	"OS_FN_MIF_GET\000"
 16694      4E5F4D49 
 16694      465F4745 
 16694      5400
 16695              	.LASF188:
 16696 29f8 4F535F46 		.ascii	"OS_FN_FILE_SET_LOCK\000"
 16696      4E5F4649 
 16696      4C455F53 
 16696      45545F4C 
 16696      4F434B00 
 16697              	.LASF161:
 16698 2a0c 4F535F46 		.ascii	"OS_FN_APP_INFO\000"
 16698      4E5F4150 
 16698      505F494E 
 16698      464F00
 16699              	.LASF577:
 16700 2a1b 41504D5F 		.ascii	"APM_SENDRCVD\000"
 16700      53454E44 
 16700      52435644 
 16700      00
 16701              	.LASF237:
 16702 2a28 4F535F46 		.ascii	"OS_FN_MSR_READ\000"
 16702      4E5F4D53 
 16702      525F5245 
 16702      414400
 16703              	.LASF568:
 16704 2a37 41504D5F 		.ascii	"APM_GETKEY\000"
 16704      4745544B 
 16704      455900
 16705              	.LASF382:
 16706 2a42 4F535F46 		.ascii	"OS_FN_MIF_WRITE\000"
 16706      4E5F4D49 
 16706      465F5752 
 16706      49544500 
 16707              	.LASF582:
 16708 2a52 41504D5F 		.ascii	"APM_GETCARDCOUNT\000"
 16708      47455443 
 16708      41524443 
 16708      4F554E54 
 16708      00
 16709              	.LASF564:
 16710 2a63 41505049 		.ascii	"APPINFO_GETMW\000"
 16710      4E464F5F 
 16710      4745544D 
 16710      5700
ARM GAS  C:\Users\AHMED~1.ELE\AppData\Local\Temp\cc594ylT.s 			page 352


 16711              	.LASF381:
 16712 2a71 4F535F46 		.ascii	"OS_FN_MIF_READ\000"
 16712      4E5F4D49 
 16712      465F5245 
 16712      414400
 16713              	.LASF581:
 16714 2a80 41504D5F 		.ascii	"APM_GETTERMCFG\000"
 16714      47455454 
 16714      45524D43 
 16714      464700
 16715              	.LASF426:
 16716 2a8f 4F535F46 		.ascii	"OS_FN_APPDL_WRITE_APP\000"
 16716      4E5F4150 
 16716      50444C5F 
 16716      57524954 
 16716      455F4150 
 16717              	.LASF195:
 16718 2aa5 4F535F46 		.ascii	"OS_FN_FILE_MKDIR\000"
 16718      4E5F4649 
 16718      4C455F4D 
 16718      4B444952 
 16718      00
 16719              	.LASF156:
 16720 2ab6 4F535F46 		.ascii	"OS_FN_AUTH\000"
 16720      4E5F4155 
 16720      544800
 16721              	.LASF227:
 16722 2ac1 4F535F46 		.ascii	"OS_FN_LAN_CLOSE\000"
 16722      4E5F4C41 
 16722      4E5F434C 
 16722      4F534500 
 16723              	.LASF96:
 16724 2ad1 4F535F46 		.ascii	"OS_FN_SHA1\000"
 16724      4E5F5348 
 16724      413100
 16725              	.LASF26:
 16726 2adc 4F535F46 		.ascii	"OS_FN_TIMER_OPEN\000"
 16726      4E5F5449 
 16726      4D45525F 
 16726      4F50454E 
 16726      00
 16727              	.LASF214:
 16728 2aed 4F535F46 		.ascii	"OS_FN_MMC_BLK_SIZE\000"
 16728      4E5F4D4D 
 16728      435F424C 
 16728      4B5F5349 
 16728      5A4500
 16729              	.LASF67:
 16730 2b00 4F535F46 		.ascii	"OS_FN_COM2_RXRDY\000"
 16730      4E5F434F 
 16730      4D325F52 
 16730      58524459 
 16730      00
 16731              	.LASF438:
 16732 2b11 4F535F46 		.ascii	"OS_FN_GET_MCLK\000"
 16732      4E5F4745 
 16732      545F4D43 
ARM GAS  C:\Users\AHMED~1.ELE\AppData\Local\Temp\cc594ylT.s 			page 353


 16732      4C4B00
 16733              	.LASF635:
 16734 2b20 545F4241 		.ascii	"T_BAROUT_DAT\000"
 16734      524F5554 
 16734      5F444154 
 16734      00
 16735              	.LASF541:
 16736 2b2d 5343484E 		.ascii	"SCHNLSETUPMW\000"
 16736      4C534554 
 16736      55504D57 
 16736      00
 16737              	.LASF272:
 16738 2b3a 4F535F46 		.ascii	"OS_FN_MDM_STATUS\000"
 16738      4E5F4D44 
 16738      4D5F5354 
 16738      41545553 
 16738      00
 16739              	.LASF15:
 16740 2b4b 44574F52 		.ascii	"DWORD\000"
 16740      4400
 16741              	.LASF233:
 16742 2b51 4F535F46 		.ascii	"OS_FN_MSR_OPEN\000"
 16742      4E5F4D53 
 16742      525F4F50 
 16742      454E00
 16743              	.LASF322:
 16744 2b60 4F535F46 		.ascii	"OS_FN_CLICC_REMOVE\000"
 16744      4E5F434C 
 16744      4943435F 
 16744      52454D4F 
 16744      564500
 16745              	.LASF580:
 16746 2b73 41504D5F 		.ascii	"APM_GETTERMDATA\000"
 16746      47455454 
 16746      45524D44 
 16746      41544100 
 16747              	.LASF528:
 16748 2b83 46534545 		.ascii	"FSEEKMW\000"
 16748      4B4D5700 
 16749              	.LASF256:
 16750 2b8b 4F535F46 		.ascii	"OS_FN_FL_WRITE\000"
 16750      4E5F464C 
 16750      5F575249 
 16750      544500
 16751              	.LASF73:
 16752 2b9a 4F535F46 		.ascii	"OS_FN_COM2_SSEND\000"
 16752      4E5F434F 
 16752      4D325F53 
 16752      53454E44 
 16752      00
 16753              	.LASF548:
 16754 2bab 44495350 		.ascii	"DISP_GOTOMW\000"
 16754      5F474F54 
 16754      4F4D5700 
 16755              	.LASF219:
 16756 2bb7 4F535F46 		.ascii	"OS_FN_MMC_READ\000"
 16756      4E5F4D4D 
ARM GAS  C:\Users\AHMED~1.ELE\AppData\Local\Temp\cc594ylT.s 			page 354


 16756      435F5245 
 16756      414400
 16757              	.LASF270:
 16758 2bc6 4F535F46 		.ascii	"OS_FN_MDM_DISC\000"
 16758      4E5F4D44 
 16758      4D5F4449 
 16758      534300
 16759              	.LASF90:
 16760 2bd5 4F535F46 		.ascii	"OS_FN_NEW_DES2\000"
 16760      4E5F4E45 
 16760      575F4445 
 16760      533200
 16761              	.LASF186:
 16762 2be4 4F535F46 		.ascii	"OS_FN_FILE_TRUNCATE\000"
 16762      4E5F4649 
 16762      4C455F54 
 16762      52554E43 
 16762      41544500 
 16763              	.LASF3:
 16764 2bf8 73686F72 		.ascii	"short unsigned int\000"
 16764      7420756E 
 16764      7369676E 
 16764      65642069 
 16764      6E7400
 16765              	.LASF509:
 16766 2c0b 53454E53 		.ascii	"SENSOR_MODE_640\000"
 16766      4F525F4D 
 16766      4F44455F 
 16766      36343000 
 16767              	.LASF138:
 16768 2c1b 4F535F46 		.ascii	"OS_FN_THREAD_CREATE\000"
 16768      4E5F5448 
 16768      52454144 
 16768      5F435245 
 16768      41544500 
 16769              	.LASF500:
 16770 2c2f 55534246 		.ascii	"USBFPRT_GENERAL_INFO_IMG_HEIGHT\000"
 16770      5052545F 
 16770      47454E45 
 16770      52414C5F 
 16770      494E464F 
 16771              	.LASF358:
 16772 2c4f 4F535F46 		.ascii	"OS_FN_NETDEV_CLOSE\000"
 16772      4E5F4E45 
 16772      54444556 
 16772      5F434C4F 
 16772      534500
 16773              	.LASF472:
 16774 2c62 4F535F46 		.ascii	"OS_FN_IMG_SENSOR_OPEN\000"
 16774      4E5F494D 
 16774      475F5345 
 16774      4E534F52 
 16774      5F4F5045 
 16775              	.LASF63:
 16776 2c78 4F535F46 		.ascii	"OS_FN_COM1_SREAD\000"
 16776      4E5F434F 
 16776      4D315F53 
ARM GAS  C:\Users\AHMED~1.ELE\AppData\Local\Temp\cc594ylT.s 			page 355


 16776      52454144 
 16776      00
 16777              	.LASF103:
 16778 2c89 4F535F46 		.ascii	"OS_FN_RC4_SETUP\000"
 16778      4E5F5243 
 16778      345F5345 
 16778      54555000 
 16779              	.LASF91:
 16780 2c99 4F535F46 		.ascii	"OS_FN_RSA\000"
 16780      4E5F5253 
 16780      4100
 16781              	.LASF337:
 16782 2ca3 4F535F46 		.ascii	"OS_FN_USBHOST_RHPORT_STATUS\000"
 16782      4E5F5553 
 16782      42484F53 
 16782      545F5248 
 16782      504F5254 
 16783              	.LASF150:
 16784 2cbf 4F535F46 		.ascii	"OS_FN_LED_CLOSE\000"
 16784      4E5F4C45 
 16784      445F434C 
 16784      4F534500 
 16785              	.LASF351:
 16786 2ccf 4F535F46 		.ascii	"OS_FN_DEVICE_UNMOUNT\000"
 16786      4E5F4445 
 16786      56494345 
 16786      5F554E4D 
 16786      4F554E54 
 16787              	.LASF685:
 16788 2ce4 70726576 		.ascii	"preview\000"
 16788      69657700 
 16789              	.LASF76:
 16790 2cec 4F535F46 		.ascii	"OS_FN_COM3_RXRDY\000"
 16790      4E5F434F 
 16790      4D335F52 
 16790      58524459 
 16790      00
 16791              	.LASF392:
 16792 2cfd 4F535F46 		.ascii	"OS_FN_MIF_INFO_GET\000"
 16792      4E5F4D49 
 16792      465F494E 
 16792      464F5F47 
 16792      455400
 16793              	.LASF673:
 16794 2d10 61436667 		.ascii	"aCfg\000"
 16794      00
 16795              	.LASF249:
 16796 2d15 4F535F46 		.ascii	"OS_FN_USBSER_ENABLE\000"
 16796      4E5F5553 
 16796      42534552 
 16796      5F454E41 
 16796      424C4500 
 16797              	.LASF447:
 16798 2d29 4F535F46 		.ascii	"OS_FN_LPT_RESET_COUNT\000"
 16798      4E5F4C50 
 16798      545F5245 
 16798      5345545F 
ARM GAS  C:\Users\AHMED~1.ELE\AppData\Local\Temp\cc594ylT.s 			page 356


 16798      434F554E 
 16799              	.LASF633:
 16800 2d3f 74797065 		.ascii	"type_str\000"
 16800      5F737472 
 16800      00
 16801              	.LASF23:
 16802 2d48 4F535F46 		.ascii	"OS_FN_KBD_GETKEY\000"
 16802      4E5F4B42 
 16802      445F4745 
 16802      544B4559 
 16802      00
 16803              	.LASF532:
 16804 2d59 46464C55 		.ascii	"FFLUSHMW\000"
 16804      53484D57 
 16804      00
 16805              	.LASF292:
 16806 2d62 4F535F46 		.ascii	"OS_FN_GPRS_STATUS\000"
 16806      4E5F4750 
 16806      52535F53 
 16806      54415455 
 16806      5300
 16807              	.LASF597:
 16808 2d74 41504D5F 		.ascii	"APM_SETBATCH\000"
 16808      53455442 
 16808      41544348 
 16808      00
 16809              	.LASF82:
 16810 2d81 4F535F46 		.ascii	"OS_FN_COM3_SSEND\000"
 16810      4E5F434F 
 16810      4D335F53 
 16810      53454E44 
 16810      00
 16811              	.LASF410:
 16812 2d92 4F535F46 		.ascii	"OS_FN_NFC_CLOSE\000"
 16812      4E5F4E46 
 16812      435F434C 
 16812      4F534500 
 16813              	.LASF16:
 16814 2da2 4F535F46 		.ascii	"OS_FN_GET_VERSION\000"
 16814      4E5F4745 
 16814      545F5645 
 16814      5253494F 
 16814      4E00
 16815              	.LASF636:
 16816 2db4 64617461 		.ascii	"data\000"
 16816      00
 16817              	.LASF290:
 16818 2db9 4F535F46 		.ascii	"OS_FN_ADC_CH_READ\000"
 16818      4E5F4144 
 16818      435F4348 
 16818      5F524541 
 16818      4400
 16819              	.LASF268:
 16820 2dcb 4F535F46 		.ascii	"OS_FN_MDM_CLOSE\000"
 16820      4E5F4D44 
 16820      4D5F434C 
 16820      4F534500 
ARM GAS  C:\Users\AHMED~1.ELE\AppData\Local\Temp\cc594ylT.s 			page 357


 16821              	.LASF545:
 16822 2ddb 44495350 		.ascii	"DISP_PUTNMW\000"
 16822      5F505554 
 16822      4E4D5700 
 16823              	.LASF443:
 16824 2de7 4F535F46 		.ascii	"OS_FN_DMK_INJECT\000"
 16824      4E5F444D 
 16824      4B5F494E 
 16824      4A454354 
 16824      00
 16825              	.LASF516:
 16826 2df8 52454144 		.ascii	"READMW\000"
 16826      4D5700
 16827              	.LASF31:
 16828 2dff 4F535F46 		.ascii	"OS_FN_BUZ_CLOSE\000"
 16828      4E5F4255 
 16828      5A5F434C 
 16828      4F534500 
 16829              	.LASF172:
 16830 2e0f 4F535F46 		.ascii	"OS_FN_FILE_FLUSHED\000"
 16830      4E5F4649 
 16830      4C455F46 
 16830      4C555348 
 16830      454400
 16831              	.LASF46:
 16832 2e22 4F535F46 		.ascii	"OS_FN_DISP_GET_LCD_BUFFER\000"
 16832      4E5F4449 
 16832      53505F47 
 16832      45545F4C 
 16832      43445F42 
 16833              	.LASF682:
 16834 2e3c 43616D54 		.ascii	"CamTest2D\000"
 16834      65737432 
 16834      4400
 16835              	.LASF321:
 16836 2e46 4F535F46 		.ascii	"OS_FN_CLICC_POLL\000"
 16836      4E5F434C 
 16836      4943435F 
 16836      504F4C4C 
 16836      00
 16837              	.LASF72:
 16838 2e57 4F535F46 		.ascii	"OS_FN_COM2_SREAD\000"
 16838      4E5F434F 
 16838      4D325F53 
 16838      52454144 
 16838      00
 16839              	.LASF375:
 16840 2e68 4F535F46 		.ascii	"OS_FN_MIF_STATUS\000"
 16840      4E5F4D49 
 16840      465F5354 
 16840      41545553 
 16840      00
 16841              	.LASF333:
 16842 2e79 4F535F46 		.ascii	"OS_FN_USBHOST_SUBMIT_BUFFER\000"
 16842      4E5F5553 
 16842      42484F53 
 16842      545F5355 
ARM GAS  C:\Users\AHMED~1.ELE\AppData\Local\Temp\cc594ylT.s 			page 358


 16842      424D4954 
 16843              	.LASF505:
 16844 2e95 68656967 		.ascii	"height\000"
 16844      687400
 16845              	.LASF691:
 16846 2e9c 6B657969 		.ascii	"keyin\000"
 16846      6E00
 16847              	.LASF334:
 16848 2ea2 4F535F46 		.ascii	"OS_FN_USBHOST_UNLINK_BUFFER\000"
 16848      4E5F5553 
 16848      42484F53 
 16848      545F554E 
 16848      4C494E4B 
 16849              		.ident	"GCC: (GNU Tools for ARM Embedded Processors) 4.9.3 20141119 (release) [ARM/embedded-4_9-br
ARM GAS  C:\Users\AHMED~1.ELE\AppData\Local\Temp\cc594ylT.s 			page 359


DEFINED SYMBOLS
                            *ABS*:00000000 camtest.c
C:\Users\AHMED~1.ELE\AppData\Local\Temp\cc594ylT.s:19     .text.ShowLayer:00000000 $t
C:\Users\AHMED~1.ELE\AppData\Local\Temp\cc594ylT.s:23     .text.ShowLayer:00000000 ShowLayer
C:\Users\AHMED~1.ELE\AppData\Local\Temp\cc594ylT.s:70     .text.SensorClose:00000000 $t
C:\Users\AHMED~1.ELE\AppData\Local\Temp\cc594ylT.s:74     .text.SensorClose:00000000 SensorClose
C:\Users\AHMED~1.ELE\AppData\Local\Temp\cc594ylT.s:108    .text.SensorClose:00000020 $d
C:\Users\AHMED~1.ELE\AppData\Local\Temp\cc594ylT.s:114    .text.SensorSwMode:00000000 $t
C:\Users\AHMED~1.ELE\AppData\Local\Temp\cc594ylT.s:118    .text.SensorSwMode:00000000 SensorSwMode
C:\Users\AHMED~1.ELE\AppData\Local\Temp\cc594ylT.s:348    .text.SensorSwMode:0000011c $d
C:\Users\AHMED~1.ELE\AppData\Local\Temp\cc594ylT.s:354    .text.SensorOpen:00000000 $t
C:\Users\AHMED~1.ELE\AppData\Local\Temp\cc594ylT.s:358    .text.SensorOpen:00000000 SensorOpen
C:\Users\AHMED~1.ELE\AppData\Local\Temp\cc594ylT.s:603    .text.SensorOpen:00000134 $d
C:\Users\AHMED~1.ELE\AppData\Local\Temp\cc594ylT.s:610    .text.LcdOnLayerEnable.part.0:00000000 $t
C:\Users\AHMED~1.ELE\AppData\Local\Temp\cc594ylT.s:614    .text.LcdOnLayerEnable.part.0:00000000 LcdOnLayerEnable.part.0
C:\Users\AHMED~1.ELE\AppData\Local\Temp\cc594ylT.s:650    .text.LcdOnLayerShow.constprop.1:00000000 $t
C:\Users\AHMED~1.ELE\AppData\Local\Temp\cc594ylT.s:654    .text.LcdOnLayerShow.constprop.1:00000000 LcdOnLayerShow.constprop.1
C:\Users\AHMED~1.ELE\AppData\Local\Temp\cc594ylT.s:719    .text.LcdOnLayerShow.constprop.1:00000050 $d
C:\Users\AHMED~1.ELE\AppData\Local\Temp\cc594ylT.s:724    .text.Y800toLcdLeft:00000000 $t
C:\Users\AHMED~1.ELE\AppData\Local\Temp\cc594ylT.s:729    .text.Y800toLcdLeft:00000000 Y800toLcdLeft
C:\Users\AHMED~1.ELE\AppData\Local\Temp\cc594ylT.s:819    .text.ShowBarcode:00000000 $t
C:\Users\AHMED~1.ELE\AppData\Local\Temp\cc594ylT.s:824    .text.ShowBarcode:00000000 ShowBarcode
C:\Users\AHMED~1.ELE\AppData\Local\Temp\cc594ylT.s:961    .text.ShowBarcode:00000094 $d
C:\Users\AHMED~1.ELE\AppData\Local\Temp\cc594ylT.s:966    .text.CamTest2D:00000000 $t
C:\Users\AHMED~1.ELE\AppData\Local\Temp\cc594ylT.s:971    .text.CamTest2D:00000000 CamTest2D
C:\Users\AHMED~1.ELE\AppData\Local\Temp\cc594ylT.s:1236   .text.CamTest2D:00000170 $d
C:\Users\AHMED~1.ELE\AppData\Local\Temp\cc594ylT.s:1535   .text.CamTest2D:0000033c $d
C:\Users\AHMED~1.ELE\AppData\Local\Temp\cc594ylT.s:1548   .text.CamTest2D:00000360 $t
C:\Users\AHMED~1.ELE\AppData\Local\Temp\cc594ylT.s:2018   .text.CamTest2D:00000624 $d
C:\Users\AHMED~1.ELE\AppData\Local\Temp\cc594ylT.s:2026   .text.CamTestAll:00000000 $t
C:\Users\AHMED~1.ELE\AppData\Local\Temp\cc594ylT.s:2031   .text.CamTestAll:00000000 CamTestAll
C:\Users\AHMED~1.ELE\AppData\Local\Temp\cc594ylT.s:2304   .text.CamTestAll:0000017e $d
C:\Users\AHMED~1.ELE\AppData\Local\Temp\cc594ylT.s:2522   .text.CamTestAll:000002cc $d
C:\Users\AHMED~1.ELE\AppData\Local\Temp\cc594ylT.s:2532   .text.CamTestAll:000002e8 $t
C:\Users\AHMED~1.ELE\AppData\Local\Temp\cc594ylT.s:3041   .text.CamTestAll:00000614 $d
C:\Users\AHMED~1.ELE\AppData\Local\Temp\cc594ylT.s:3049   .text.CamTestAll:0000062c $t
C:\Users\AHMED~1.ELE\AppData\Local\Temp\cc594ylT.s:3235   .text.CamTestAll:0000073c $d
C:\Users\AHMED~1.ELE\AppData\Local\Temp\cc594ylT.s:3270   .bss:00000000 gSensorOpened
C:\Users\AHMED~1.ELE\AppData\Local\Temp\cc594ylT.s:3271   .bss:00000000 $d
                     .debug_frame:00000010 $d
C:\Users\AHMED~1.ELE\AppData\Local\Temp\cc594ylT.s:1243   .text.CamTest2D:00000177 $d
C:\Users\AHMED~1.ELE\AppData\Local\Temp\cc594ylT.s:1243   .text.CamTest2D:00000178 $t
C:\Users\AHMED~1.ELE\AppData\Local\Temp\cc594ylT.s:2311   .text.CamTestAll:00000185 $d
C:\Users\AHMED~1.ELE\AppData\Local\Temp\cc594ylT.s:2311   .text.CamTestAll:00000186 $t

UNDEFINED SYMBOLS
sys_func3
sys_func0
__aeabi_uidiv
sprintf
strlen
sys_func1
memcpy
lib_app_call
Delay10ms
memset
LongBeep
ARM GAS  C:\Users\AHMED~1.ELE\AppData\Local\Temp\cc594ylT.s 			page 360


Short2Beep
