ARM GAS  C:\Users\AHMED~1.ELE\AppData\Local\Temp\ccckKCu0.s 			page 1


   1              		.syntax unified
   2              		.cpu cortex-a5
   3              		.fpu softvfp
   4              		.eabi_attribute 20, 1
   5              		.eabi_attribute 21, 1
   6              		.eabi_attribute 23, 3
   7              		.eabi_attribute 24, 1
   8              		.eabi_attribute 25, 1
   9              		.eabi_attribute 26, 1
  10              		.eabi_attribute 30, 4
  11              		.eabi_attribute 34, 0
  12              		.eabi_attribute 18, 4
  13              		.thumb
  14              		.file	"Chkoptn.c"
  15              		.text
  16              	.Ltext0:
  17              		.cfi_sections	.debug_frame
  18              		.section	.text.AdjustPSWReqd,"ax",%progbits
  19              		.align	1
  20              		.global	AdjustPSWReqd
  21              		.thumb
  22              		.thumb_func
  23              		.type	AdjustPSWReqd, %function
  24              	AdjustPSWReqd:
  25              	.LFB0:
  26              		.file 1 "src/Chkoptn.c"
   1:src/Chkoptn.c **** //-----------------------------------------------------------------------------
   2:src/Chkoptn.c **** //  File          : chkoptn.c
   3:src/Chkoptn.c **** //  Module        :
   4:src/Chkoptn.c **** //  Description   : Include routines to check Applicaiton Config OPTION.
   5:src/Chkoptn.c **** //  Author        : Lewis
   6:src/Chkoptn.c **** //  Notes         :
   7:src/Chkoptn.c **** //
   8:src/Chkoptn.c **** // ============================================================================
   9:src/Chkoptn.c **** // | Naming conventions                                                       |
  10:src/Chkoptn.c **** // | ~~~~~~~~~~~~~~~~~~                                                       |
  11:src/Chkoptn.c **** // |        Struct define : Leading T                                         |
  12:src/Chkoptn.c **** // |         Struct/Array : Leading s                                         |
  13:src/Chkoptn.c **** // |             Constant : Leading K                                         |
  14:src/Chkoptn.c **** // |      Global Variable : Leading g  (variable use outside one C file)      |
  15:src/Chkoptn.c **** // |                                                                          |
  16:src/Chkoptn.c **** // |   BYTE( 8 Bits) size : Leading b                                         |
  17:src/Chkoptn.c **** // |   CHAR( 8 Bits) size : Leading c                                         |
  18:src/Chkoptn.c **** // |   WORD(16 Bits) size : Leading w                                         |
  19:src/Chkoptn.c **** // |  DWORD(32 Bits) size : Leading d                                         |
  20:src/Chkoptn.c **** // |    int(32 Bits) size : Leading i                                         |
  21:src/Chkoptn.c **** // | DDWORD(64 Bits) size : Leading dd                                        |
  22:src/Chkoptn.c **** // |              Pointer : Leading p                                         |
  23:src/Chkoptn.c **** // |                                                                          |
  24:src/Chkoptn.c **** // |    Function argument : Leading a                                         |
  25:src/Chkoptn.c **** // |       Local Variable : All lower case                                    |
  26:src/Chkoptn.c **** // |                                                                          |
  27:src/Chkoptn.c **** // | Examples:                                                                |
  28:src/Chkoptn.c **** // |                Array : Leading s, (sb = arrary of byte, etc)             |
  29:src/Chkoptn.c **** // |              Pointer : Leading p, (pb = pointer of byte, etc)            |
  30:src/Chkoptn.c **** // ============================================================================
  31:src/Chkoptn.c **** //
ARM GAS  C:\Users\AHMED~1.ELE\AppData\Local\Temp\ccckKCu0.s 			page 2


  32:src/Chkoptn.c **** //  Date          Who         Action
  33:src/Chkoptn.c **** //  ------------  ----------- -------------------------------------------------
  34:src/Chkoptn.c **** //  29 Sept 2008  Lewis       Initial Version.
  35:src/Chkoptn.c **** //-----------------------------------------------------------------------------
  36:src/Chkoptn.c **** #include <stdio.h>
  37:src/Chkoptn.c **** #include <string.h>
  38:src/Chkoptn.c **** #include "util.h"
  39:src/Chkoptn.c **** #include "corevar.h"
  40:src/Chkoptn.c **** #include "chkoptn.h"
  41:src/Chkoptn.c **** 
  42:src/Chkoptn.c **** //*****************************************************************************
  43:src/Chkoptn.c **** //  Function        : AdjustPSWReqd
  44:src/Chkoptn.c **** //  Description     : Check whether password requiered for adjust transaction.
  45:src/Chkoptn.c **** //  Input           : N/A
  46:src/Chkoptn.c **** //  Return          : TRUE/FALSE;
  47:src/Chkoptn.c **** //  Note            : N/A
  48:src/Chkoptn.c **** //  Globals Changed : N/A
  49:src/Chkoptn.c **** //*****************************************************************************
  50:src/Chkoptn.c **** BOOLEAN AdjustPSWReqd(void)
  51:src/Chkoptn.c **** {
  27              		.loc 1 51 0
  28              		.cfi_startproc
  29              		@ args = 0, pretend = 0, frame = 0
  30              		@ frame_needed = 0, uses_anonymous_args = 0
  31              		@ link register save eliminated.
  52:src/Chkoptn.c ****   return (STIS_TERM_CFG.b_local_option & 0x08);
  32              		.loc 1 52 0
  33 0000 034B     		ldr	r3, .L2
  34 0002 1B68     		ldr	r3, [r3]
  35 0004 93F86A00 		ldrb	r0, [r3, #106]	@ zero_extendqisi2
  53:src/Chkoptn.c **** }
  36              		.loc 1 53 0
  37 0008 00F00800 		and	r0, r0, #8
  38 000c 7047     		bx	lr
  39              	.L3:
  40 000e 00BF     		.align	2
  41              	.L2:
  42 0010 00000000 		.word	gGDS
  43              		.cfi_endproc
  44              	.LFE0:
  45              		.size	AdjustPSWReqd, .-AdjustPSWReqd
  46              		.section	.text.SettlePSWReqd,"ax",%progbits
  47              		.align	1
  48              		.global	SettlePSWReqd
  49              		.thumb
  50              		.thumb_func
  51              		.type	SettlePSWReqd, %function
  52              	SettlePSWReqd:
  53              	.LFB1:
  54:src/Chkoptn.c **** //*****************************************************************************
  55:src/Chkoptn.c **** //  Function        : SettlePSWReqd
  56:src/Chkoptn.c **** //  Description     : Check whether password requiered for settlement.
  57:src/Chkoptn.c **** //  Input           : N/A
  58:src/Chkoptn.c **** //  Return          : TRUE/FALSE;
  59:src/Chkoptn.c **** //  Note            : N/A
  60:src/Chkoptn.c **** //  Globals Changed : N/A
  61:src/Chkoptn.c **** //*****************************************************************************
ARM GAS  C:\Users\AHMED~1.ELE\AppData\Local\Temp\ccckKCu0.s 			page 3


  62:src/Chkoptn.c **** BOOLEAN SettlePSWReqd(void)
  63:src/Chkoptn.c **** {
  54              		.loc 1 63 0
  55              		.cfi_startproc
  56              		@ args = 0, pretend = 0, frame = 0
  57              		@ frame_needed = 0, uses_anonymous_args = 0
  58              		@ link register save eliminated.
  64:src/Chkoptn.c ****   return (STIS_TERM_CFG.b_local_option & 0x10);
  59              		.loc 1 64 0
  60 0000 034B     		ldr	r3, .L5
  61 0002 1B68     		ldr	r3, [r3]
  62 0004 93F86A00 		ldrb	r0, [r3, #106]	@ zero_extendqisi2
  65:src/Chkoptn.c **** }
  63              		.loc 1 65 0
  64 0008 00F01000 		and	r0, r0, #16
  65 000c 7047     		bx	lr
  66              	.L6:
  67 000e 00BF     		.align	2
  68              	.L5:
  69 0010 00000000 		.word	gGDS
  70              		.cfi_endproc
  71              	.LFE1:
  72              		.size	SettlePSWReqd, .-SettlePSWReqd
  73              		.section	.text.ManualPSWReqd,"ax",%progbits
  74              		.align	1
  75              		.global	ManualPSWReqd
  76              		.thumb
  77              		.thumb_func
  78              		.type	ManualPSWReqd, %function
  79              	ManualPSWReqd:
  80              	.LFB2:
  66:src/Chkoptn.c **** //*****************************************************************************
  67:src/Chkoptn.c **** //  Function        : ManualPSWReqd
  68:src/Chkoptn.c **** //  Description     : Check whether password requiered for manual entry.
  69:src/Chkoptn.c **** //  Input           : N/A
  70:src/Chkoptn.c **** //  Return          : TRUE/FALSE;
  71:src/Chkoptn.c **** //  Note            : N/A
  72:src/Chkoptn.c **** //  Globals Changed : N/A
  73:src/Chkoptn.c **** //*****************************************************************************
  74:src/Chkoptn.c **** BOOLEAN ManualPSWReqd(void)
  75:src/Chkoptn.c **** {
  81              		.loc 1 75 0
  82              		.cfi_startproc
  83              		@ args = 0, pretend = 0, frame = 0
  84              		@ frame_needed = 0, uses_anonymous_args = 0
  85              		@ link register save eliminated.
  76:src/Chkoptn.c ****   return (STIS_TERM_CFG.b_local_option & 0x20);
  86              		.loc 1 76 0
  87 0000 034B     		ldr	r3, .L8
  88 0002 1B68     		ldr	r3, [r3]
  89 0004 93F86A00 		ldrb	r0, [r3, #106]	@ zero_extendqisi2
  77:src/Chkoptn.c **** }
  90              		.loc 1 77 0
  91 0008 00F02000 		and	r0, r0, #32
  92 000c 7047     		bx	lr
  93              	.L9:
  94 000e 00BF     		.align	2
ARM GAS  C:\Users\AHMED~1.ELE\AppData\Local\Temp\ccckKCu0.s 			page 4


  95              	.L8:
  96 0010 00000000 		.word	gGDS
  97              		.cfi_endproc
  98              	.LFE2:
  99              		.size	ManualPSWReqd, .-ManualPSWReqd
 100              		.section	.text.DispMSRReqd,"ax",%progbits
 101              		.align	1
 102              		.global	DispMSRReqd
 103              		.thumb
 104              		.thumb_func
 105              		.type	DispMSRReqd, %function
 106              	DispMSRReqd:
 107              	.LFB3:
  78:src/Chkoptn.c **** //*****************************************************************************
  79:src/Chkoptn.c **** //  Function        : DispMSRReqd
  80:src/Chkoptn.c **** //  Description     : Check whether config show MSR data.
  81:src/Chkoptn.c **** //  Input           : N/A
  82:src/Chkoptn.c **** //  Return          : TRUE/FALSE;
  83:src/Chkoptn.c **** //  Note            : N/A
  84:src/Chkoptn.c **** //  Globals Changed : N/A
  85:src/Chkoptn.c **** //****************************************************************************
  86:src/Chkoptn.c **** BOOLEAN DispMSRReqd(void)
  87:src/Chkoptn.c **** {
 108              		.loc 1 87 0
 109              		.cfi_startproc
 110              		@ args = 0, pretend = 0, frame = 0
 111              		@ frame_needed = 0, uses_anonymous_args = 0
 112              		@ link register save eliminated.
  88:src/Chkoptn.c ****   return (STIS_TERM_CFG.sb_options[0] & 0x02);
 113              		.loc 1 88 0
 114 0000 024B     		ldr	r3, .L11
 115 0002 1B68     		ldr	r3, [r3]
 116 0004 587E     		ldrb	r0, [r3, #25]	@ zero_extendqisi2
  89:src/Chkoptn.c **** }
 117              		.loc 1 89 0
 118 0006 00F00200 		and	r0, r0, #2
 119 000a 7047     		bx	lr
 120              	.L12:
 121              		.align	2
 122              	.L11:
 123 000c 00000000 		.word	gGDS
 124              		.cfi_endproc
 125              	.LFE3:
 126              		.size	DispMSRReqd, .-DispMSRReqd
 127              		.section	.text.TIPsReqd,"ax",%progbits
 128              		.align	1
 129              		.global	TIPsReqd
 130              		.thumb
 131              		.thumb_func
 132              		.type	TIPsReqd, %function
 133              	TIPsReqd:
 134              	.LFB4:
  90:src/Chkoptn.c **** //*****************************************************************************
  91:src/Chkoptn.c **** //  Function        : TIPsReqd
  92:src/Chkoptn.c **** //  Description     : Check whether config for TIPS processing.
  93:src/Chkoptn.c **** //  Input           : N/A
  94:src/Chkoptn.c **** //  Return          : TRUE/FALSE;
ARM GAS  C:\Users\AHMED~1.ELE\AppData\Local\Temp\ccckKCu0.s 			page 5


  95:src/Chkoptn.c **** //  Note            : N/A
  96:src/Chkoptn.c **** //  Globals Changed : N/A
  97:src/Chkoptn.c **** //****************************************************************************
  98:src/Chkoptn.c **** BOOLEAN TIPsReqd(void)
  99:src/Chkoptn.c **** {
 135              		.loc 1 99 0
 136              		.cfi_startproc
 137              		@ args = 0, pretend = 0, frame = 0
 138              		@ frame_needed = 0, uses_anonymous_args = 0
 139              		@ link register save eliminated.
 100:src/Chkoptn.c ****   return (STIS_TERM_CFG.sb_options[0] & 0x04);
 140              		.loc 1 100 0
 141 0000 024B     		ldr	r3, .L14
 142 0002 1B68     		ldr	r3, [r3]
 143 0004 587E     		ldrb	r0, [r3, #25]	@ zero_extendqisi2
 101:src/Chkoptn.c **** }
 144              		.loc 1 101 0
 145 0006 00F00400 		and	r0, r0, #4
 146 000a 7047     		bx	lr
 147              	.L15:
 148              		.align	2
 149              	.L14:
 150 000c 00000000 		.word	gGDS
 151              		.cfi_endproc
 152              	.LFE4:
 153              		.size	TIPsReqd, .-TIPsReqd
 154              		.section	.text.PrintTimeReqd,"ax",%progbits
 155              		.align	1
 156              		.global	PrintTimeReqd
 157              		.thumb
 158              		.thumb_func
 159              		.type	PrintTimeReqd, %function
 160              	PrintTimeReqd:
 161              	.LFB5:
 102:src/Chkoptn.c **** //*****************************************************************************
 103:src/Chkoptn.c **** //  Function        : PrintTimeReqd
 104:src/Chkoptn.c **** //  Description     : Check whether config for print date/time on receipt.
 105:src/Chkoptn.c **** //  Input           : N/A
 106:src/Chkoptn.c **** //  Return          : TRUE/FALSE;
 107:src/Chkoptn.c **** //  Note            : N/A
 108:src/Chkoptn.c **** //  Globals Changed : N/A
 109:src/Chkoptn.c **** //*****************************************************************************
 110:src/Chkoptn.c **** BOOLEAN PrintTimeReqd(void)
 111:src/Chkoptn.c **** {
 162              		.loc 1 111 0
 163              		.cfi_startproc
 164              		@ args = 0, pretend = 0, frame = 0
 165              		@ frame_needed = 0, uses_anonymous_args = 0
 166              		@ link register save eliminated.
 112:src/Chkoptn.c ****   return (STIS_TERM_CFG.sb_options[0] & 0x20);
 167              		.loc 1 112 0
 168 0000 024B     		ldr	r3, .L17
 169 0002 1B68     		ldr	r3, [r3]
 170 0004 587E     		ldrb	r0, [r3, #25]	@ zero_extendqisi2
 113:src/Chkoptn.c **** }
 171              		.loc 1 113 0
 172 0006 00F02000 		and	r0, r0, #32
ARM GAS  C:\Users\AHMED~1.ELE\AppData\Local\Temp\ccckKCu0.s 			page 6


 173 000a 7047     		bx	lr
 174              	.L18:
 175              		.align	2
 176              	.L17:
 177 000c 00000000 		.word	gGDS
 178              		.cfi_endproc
 179              	.LFE5:
 180              		.size	PrintTimeReqd, .-PrintTimeReqd
 181              		.section	.text.DDMMBusinessDate,"ax",%progbits
 182              		.align	1
 183              		.global	DDMMBusinessDate
 184              		.thumb
 185              		.thumb_func
 186              		.type	DDMMBusinessDate, %function
 187              	DDMMBusinessDate:
 188              	.LFB6:
 114:src/Chkoptn.c **** //*****************************************************************************
 115:src/Chkoptn.c **** //  Function        : DDMMBusinessDate
 116:src/Chkoptn.c **** //  Description     : Check whether config to use DDMM business date format.
 117:src/Chkoptn.c **** //  Input           : N/A
 118:src/Chkoptn.c **** //  Return          : TRUE/FALSE;
 119:src/Chkoptn.c **** //  Note            : N/A
 120:src/Chkoptn.c **** //  Globals Changed : N/A
 121:src/Chkoptn.c **** //****************************************************************************
 122:src/Chkoptn.c **** BOOLEAN DDMMBusinessDate(void)
 123:src/Chkoptn.c **** {
 189              		.loc 1 123 0
 190              		.cfi_startproc
 191              		@ args = 0, pretend = 0, frame = 0
 192              		@ frame_needed = 0, uses_anonymous_args = 0
 193              		@ link register save eliminated.
 124:src/Chkoptn.c ****   return (STIS_TERM_CFG.sb_options[0] & 0x40);
 194              		.loc 1 124 0
 195 0000 024B     		ldr	r3, .L20
 196 0002 1B68     		ldr	r3, [r3]
 197 0004 587E     		ldrb	r0, [r3, #25]	@ zero_extendqisi2
 125:src/Chkoptn.c **** }
 198              		.loc 1 125 0
 199 0006 00F04000 		and	r0, r0, #64
 200 000a 7047     		bx	lr
 201              	.L21:
 202              		.align	2
 203              	.L20:
 204 000c 00000000 		.word	gGDS
 205              		.cfi_endproc
 206              	.LFE6:
 207              		.size	DDMMBusinessDate, .-DDMMBusinessDate
 208              		.section	.text.ComfirmTotal,"ax",%progbits
 209              		.align	1
 210              		.global	ComfirmTotal
 211              		.thumb
 212              		.thumb_func
 213              		.type	ComfirmTotal, %function
 214              	ComfirmTotal:
 215              	.LFB7:
 126:src/Chkoptn.c **** //*****************************************************************************
 127:src/Chkoptn.c **** //  Function        : ComfirmTotal
ARM GAS  C:\Users\AHMED~1.ELE\AppData\Local\Temp\ccckKCu0.s 			page 7


 128:src/Chkoptn.c **** //  Description     : Check whether config require user confirm totals.
 129:src/Chkoptn.c **** //  Input           : N/A
 130:src/Chkoptn.c **** //  Return          : TRUE/FALSE;
 131:src/Chkoptn.c **** //  Note            : N/A
 132:src/Chkoptn.c **** //  Globals Changed : N/A
 133:src/Chkoptn.c **** //****************************************************************************
 134:src/Chkoptn.c **** BOOLEAN ComfirmTotal(void)
 135:src/Chkoptn.c **** {
 216              		.loc 1 135 0
 217              		.cfi_startproc
 218              		@ args = 0, pretend = 0, frame = 0
 219              		@ frame_needed = 0, uses_anonymous_args = 0
 220              		@ link register save eliminated.
 136:src/Chkoptn.c ****   return (STIS_TERM_CFG.sb_options[0] & 0x80);
 221              		.loc 1 136 0
 222 0000 024B     		ldr	r3, .L23
 223 0002 1B68     		ldr	r3, [r3]
 224 0004 587E     		ldrb	r0, [r3, #25]	@ zero_extendqisi2
 137:src/Chkoptn.c **** }
 225              		.loc 1 137 0
 226 0006 00F08000 		and	r0, r0, #128
 227 000a 7047     		bx	lr
 228              	.L24:
 229              		.align	2
 230              	.L23:
 231 000c 00000000 		.word	gGDS
 232              		.cfi_endproc
 233              	.LFE7:
 234              		.size	ComfirmTotal, .-ComfirmTotal
 235              		.section	.text.EcrRefReqd,"ax",%progbits
 236              		.align	1
 237              		.global	EcrRefReqd
 238              		.thumb
 239              		.thumb_func
 240              		.type	EcrRefReqd, %function
 241              	EcrRefReqd:
 242              	.LFB8:
 138:src/Chkoptn.c **** //*****************************************************************************
 139:src/Chkoptn.c **** //  Function        : PromptTips
 140:src/Chkoptn.c **** //  Description     : Check whether config for Prompt tips entry.
 141:src/Chkoptn.c **** //  Input           : N/A
 142:src/Chkoptn.c **** //  Return          : TRUE/FALSE;
 143:src/Chkoptn.c **** //  Note            : N/A
 144:src/Chkoptn.c **** //  Globals Changed : N/A
 145:src/Chkoptn.c **** //****************************************************************************
 146:src/Chkoptn.c **** BOOLEAN EcrRefReqd(void)
 147:src/Chkoptn.c **** {
 243              		.loc 1 147 0
 244              		.cfi_startproc
 245              		@ args = 0, pretend = 0, frame = 0
 246              		@ frame_needed = 0, uses_anonymous_args = 0
 247              		@ link register save eliminated.
 148:src/Chkoptn.c ****   return (STIS_TERM_CFG.sb_options[1] & 0x04);
 248              		.loc 1 148 0
 249 0000 024B     		ldr	r3, .L26
 250 0002 1B68     		ldr	r3, [r3]
 251 0004 987E     		ldrb	r0, [r3, #26]	@ zero_extendqisi2
ARM GAS  C:\Users\AHMED~1.ELE\AppData\Local\Temp\ccckKCu0.s 			page 8


 149:src/Chkoptn.c **** }
 252              		.loc 1 149 0
 253 0006 00F00400 		and	r0, r0, #4
 254 000a 7047     		bx	lr
 255              	.L27:
 256              		.align	2
 257              	.L26:
 258 000c 00000000 		.word	gGDS
 259              		.cfi_endproc
 260              	.LFE8:
 261              		.size	EcrRefReqd, .-EcrRefReqd
 262              		.section	.text.PromptTips,"ax",%progbits
 263              		.align	1
 264              		.global	PromptTips
 265              		.thumb
 266              		.thumb_func
 267              		.type	PromptTips, %function
 268              	PromptTips:
 269              	.LFB9:
 150:src/Chkoptn.c **** //*****************************************************************************
 151:src/Chkoptn.c **** //  Function        : PromptTips
 152:src/Chkoptn.c **** //  Description     : Check whether config for Prompt tips entry.
 153:src/Chkoptn.c **** //  Input           : N/A
 154:src/Chkoptn.c **** //  Return          : TRUE/FALSE;
 155:src/Chkoptn.c **** //  Note            : N/A
 156:src/Chkoptn.c **** //  Globals Changed : N/A
 157:src/Chkoptn.c **** //****************************************************************************
 158:src/Chkoptn.c **** BOOLEAN PromptTips(void)
 159:src/Chkoptn.c **** {
 270              		.loc 1 159 0
 271              		.cfi_startproc
 272              		@ args = 0, pretend = 0, frame = 0
 273              		@ frame_needed = 0, uses_anonymous_args = 0
 274              		@ link register save eliminated.
 160:src/Chkoptn.c ****   return (STIS_TERM_CFG.sb_reserved[1] & 0x02);
 275              		.loc 1 160 0
 276 0000 034B     		ldr	r3, .L29
 277 0002 1B68     		ldr	r3, [r3]
 278 0004 93F88000 		ldrb	r0, [r3, #128]	@ zero_extendqisi2
 161:src/Chkoptn.c **** }
 279              		.loc 1 161 0
 280 0008 00F00200 		and	r0, r0, #2
 281 000c 7047     		bx	lr
 282              	.L30:
 283 000e 00BF     		.align	2
 284              	.L29:
 285 0010 00000000 		.word	gGDS
 286              		.cfi_endproc
 287              	.LFE9:
 288              		.size	PromptTips, .-PromptTips
 289              		.section	.text.BlockLocalTrans,"ax",%progbits
 290              		.align	1
 291              		.global	BlockLocalTrans
 292              		.thumb
 293              		.thumb_func
 294              		.type	BlockLocalTrans, %function
 295              	BlockLocalTrans:
ARM GAS  C:\Users\AHMED~1.ELE\AppData\Local\Temp\ccckKCu0.s 			page 9


 296              	.LFB10:
 162:src/Chkoptn.c **** //*****************************************************************************
 163:src/Chkoptn.c **** //  Function        : BlockLocalTrans
 164:src/Chkoptn.c **** //  Description     : Check for disable local initialize transaction.
 165:src/Chkoptn.c **** //  Input           : N/A
 166:src/Chkoptn.c **** //  Return          : TRUE/FALSE;
 167:src/Chkoptn.c **** //  Note            : Not allow message is display when TRUE.
 168:src/Chkoptn.c **** //  Globals Changed : N/A
 169:src/Chkoptn.c **** //*****************************************************************************
 170:src/Chkoptn.c **** BOOLEAN BlockLocalTrans(void)
 171:src/Chkoptn.c **** {
 297              		.loc 1 171 0
 298              		.cfi_startproc
 299              		@ args = 0, pretend = 0, frame = 0
 300              		@ frame_needed = 0, uses_anonymous_args = 0
 301              		@ link register save eliminated.
 172:src/Chkoptn.c ****   return(STIS_TERM_CFG.sb_reserved[1] & 0x04);
 302              		.loc 1 172 0
 303 0000 034B     		ldr	r3, .L32
 304 0002 1B68     		ldr	r3, [r3]
 305 0004 93F88000 		ldrb	r0, [r3, #128]	@ zero_extendqisi2
 173:src/Chkoptn.c **** }
 306              		.loc 1 173 0
 307 0008 00F00400 		and	r0, r0, #4
 308 000c 7047     		bx	lr
 309              	.L33:
 310 000e 00BF     		.align	2
 311              	.L32:
 312 0010 00000000 		.word	gGDS
 313              		.cfi_endproc
 314              	.LFE10:
 315              		.size	BlockLocalTrans, .-BlockLocalTrans
 316              		.section	.text.NumOfRcptCopy,"ax",%progbits
 317              		.align	1
 318              		.global	NumOfRcptCopy
 319              		.thumb
 320              		.thumb_func
 321              		.type	NumOfRcptCopy, %function
 322              	NumOfRcptCopy:
 323              	.LFB11:
 174:src/Chkoptn.c **** //*****************************************************************************
 175:src/Chkoptn.c **** //  Function        : NumOfRcptCopy
 176:src/Chkoptn.c **** //  Description     : Retrieve the number of receipt copy config.
 177:src/Chkoptn.c **** //  Input           : N/A
 178:src/Chkoptn.c **** //  Return          : num of copy.
 179:src/Chkoptn.c **** //  Note            : N/A
 180:src/Chkoptn.c **** //  Globals Changed : N/A
 181:src/Chkoptn.c **** //*****************************************************************************
 182:src/Chkoptn.c **** BYTE NumOfRcptCopy(void)
 183:src/Chkoptn.c **** {
 324              		.loc 1 183 0
 325              		.cfi_startproc
 326              		@ args = 0, pretend = 0, frame = 0
 327              		@ frame_needed = 0, uses_anonymous_args = 0
 328              		@ link register save eliminated.
 184:src/Chkoptn.c ****   return (STIS_TERM_CFG.sb_reserved[4] >> 4);
 329              		.loc 1 184 0
ARM GAS  C:\Users\AHMED~1.ELE\AppData\Local\Temp\ccckKCu0.s 			page 10


 330 0000 024B     		ldr	r3, .L35
 331 0002 1B68     		ldr	r3, [r3]
 332 0004 93F88300 		ldrb	r0, [r3, #131]	@ zero_extendqisi2
 185:src/Chkoptn.c **** }
 333              		.loc 1 185 0
 334 0008 0009     		lsrs	r0, r0, #4
 335 000a 7047     		bx	lr
 336              	.L36:
 337              		.align	2
 338              	.L35:
 339 000c 00000000 		.word	gGDS
 340              		.cfi_endproc
 341              	.LFE11:
 342              		.size	NumOfRcptCopy, .-NumOfRcptCopy
 343              		.section	.text.ReferralDial,"ax",%progbits
 344              		.align	1
 345              		.global	ReferralDial
 346              		.thumb
 347              		.thumb_func
 348              		.type	ReferralDial, %function
 349              	ReferralDial:
 350              	.LFB12:
 186:src/Chkoptn.c **** //*****************************************************************************
 187:src/Chkoptn.c **** //  Function        : ReferralDial
 188:src/Chkoptn.c **** //  Description     : Check if auto dial for referral.
 189:src/Chkoptn.c **** //  Input           : N/A
 190:src/Chkoptn.c **** //  Return          : TRUE/FALSE;
 191:src/Chkoptn.c **** //  Note            : N/A
 192:src/Chkoptn.c **** //  Globals Changed : N/A
 193:src/Chkoptn.c **** //*****************************************************************************
 194:src/Chkoptn.c **** BOOLEAN ReferralDial(void)
 195:src/Chkoptn.c **** {
 351              		.loc 1 195 0
 352              		.cfi_startproc
 353              		@ args = 0, pretend = 0, frame = 0
 354              		@ frame_needed = 0, uses_anonymous_args = 0
 355              		@ link register save eliminated.
 196:src/Chkoptn.c ****     return(STIS_TERM_CFG.b_dial_option & 0x10);
 356              		.loc 1 196 0
 357 0000 024B     		ldr	r3, .L38
 358 0002 1B68     		ldr	r3, [r3]
 359 0004 987A     		ldrb	r0, [r3, #10]	@ zero_extendqisi2
 197:src/Chkoptn.c **** }
 360              		.loc 1 197 0
 361 0006 00F01000 		and	r0, r0, #16
 362 000a 7047     		bx	lr
 363              	.L39:
 364              		.align	2
 365              	.L38:
 366 000c 00000000 		.word	gGDS
 367              		.cfi_endproc
 368              	.LFE12:
 369              		.size	ReferralDial, .-ReferralDial
 370              		.section	.text.HostSettlePending,"ax",%progbits
 371              		.align	1
 372              		.global	HostSettlePending
 373              		.thumb
ARM GAS  C:\Users\AHMED~1.ELE\AppData\Local\Temp\ccckKCu0.s 			page 11


 374              		.thumb_func
 375              		.type	HostSettlePending, %function
 376              	HostSettlePending:
 377              	.LFB13:
 198:src/Chkoptn.c **** //*****************************************************************************
 199:src/Chkoptn.c **** //  Function        : HostSettlePending
 200:src/Chkoptn.c **** //  Description     : Check whether settle settlement is require for
 201:src/Chkoptn.c **** //                    current acquirer;
 202:src/Chkoptn.c **** //  Input           : N/A
 203:src/Chkoptn.c **** //  Return          : TRUE/FALSE;
 204:src/Chkoptn.c **** //  Note            : Error message is display when TRUE.
 205:src/Chkoptn.c **** //  Globals Changed : N/A
 206:src/Chkoptn.c **** //*****************************************************************************
 207:src/Chkoptn.c **** BOOLEAN HostSettlePending(void)
 208:src/Chkoptn.c **** {
 378              		.loc 1 208 0
 379              		.cfi_startproc
 380              		@ args = 0, pretend = 0, frame = 0
 381              		@ frame_needed = 0, uses_anonymous_args = 0
 382              		@ link register save eliminated.
 209:src/Chkoptn.c ****   return (STIS_ACQ_TBL(0).b_pending & SETTLE_PENDING);
 383              		.loc 1 209 0
 384 0000 034B     		ldr	r3, .L41
 385 0002 1B68     		ldr	r3, [r3]
 386 0004 93F8F103 		ldrb	r0, [r3, #1009]	@ zero_extendqisi2
 210:src/Chkoptn.c **** }
 387              		.loc 1 210 0
 388 0008 00F00200 		and	r0, r0, #2
 389 000c 7047     		bx	lr
 390              	.L42:
 391 000e 00BF     		.align	2
 392              	.L41:
 393 0010 00000000 		.word	gGDS
 394              		.cfi_endproc
 395              	.LFE13:
 396              		.size	HostSettlePending, .-HostSettlePending
 397              		.section	.text.RefundOffline,"ax",%progbits
 398              		.align	1
 399              		.global	RefundOffline
 400              		.thumb
 401              		.thumb_func
 402              		.type	RefundOffline, %function
 403              	RefundOffline:
 404              	.LFB14:
 211:src/Chkoptn.c **** //*****************************************************************************
 212:src/Chkoptn.c **** //  Function        : RefundOffline
 213:src/Chkoptn.c **** //  Description     : Check whether config REFUND process offline.
 214:src/Chkoptn.c **** //  Input           : N/A
 215:src/Chkoptn.c **** //  Return          : TRUE/FALSE;
 216:src/Chkoptn.c **** //  Note            : N/A
 217:src/Chkoptn.c **** //  Globals Changed : N/A
 218:src/Chkoptn.c **** //*****************************************************************************
 219:src/Chkoptn.c **** BOOLEAN RefundOffline(void)
 220:src/Chkoptn.c **** {
 405              		.loc 1 220 0
 406              		.cfi_startproc
 407              		@ args = 0, pretend = 0, frame = 0
ARM GAS  C:\Users\AHMED~1.ELE\AppData\Local\Temp\ccckKCu0.s 			page 12


 408              		@ frame_needed = 0, uses_anonymous_args = 0
 409              		@ link register save eliminated.
 221:src/Chkoptn.c ****   return (STIS_ACQ_TBL(0).sb_options[0] & 0x10);
 410              		.loc 1 221 0
 411 0000 034B     		ldr	r3, .L44
 412 0002 1B68     		ldr	r3, [r3]
 413 0004 93F89603 		ldrb	r0, [r3, #918]	@ zero_extendqisi2
 222:src/Chkoptn.c **** }
 414              		.loc 1 222 0
 415 0008 00F01000 		and	r0, r0, #16
 416 000c 7047     		bx	lr
 417              	.L45:
 418 000e 00BF     		.align	2
 419              	.L44:
 420 0010 00000000 		.word	gGDS
 421              		.cfi_endproc
 422              	.LFE14:
 423              		.size	RefundOffline, .-RefundOffline
 424              		.section	.text.VoidOffline,"ax",%progbits
 425              		.align	1
 426              		.global	VoidOffline
 427              		.thumb
 428              		.thumb_func
 429              		.type	VoidOffline, %function
 430              	VoidOffline:
 431              	.LFB15:
 223:src/Chkoptn.c **** //*****************************************************************************
 224:src/Chkoptn.c **** //  Function        : VoidOffline
 225:src/Chkoptn.c **** //  Description     : Check whether config VOID process offline.
 226:src/Chkoptn.c **** //  Input           : N/A
 227:src/Chkoptn.c **** //  Return          : TRUE/FALSE;
 228:src/Chkoptn.c **** //  Note            : N/A
 229:src/Chkoptn.c **** //  Globals Changed : N/A
 230:src/Chkoptn.c **** //*****************************************************************************
 231:src/Chkoptn.c **** BOOLEAN VoidOffline(void)
 232:src/Chkoptn.c **** {
 432              		.loc 1 232 0
 433              		.cfi_startproc
 434              		@ args = 0, pretend = 0, frame = 0
 435              		@ frame_needed = 0, uses_anonymous_args = 0
 436              		@ link register save eliminated.
 233:src/Chkoptn.c ****   return (STIS_ACQ_TBL(0).sb_options[0] & 0x20);
 437              		.loc 1 233 0
 438 0000 034B     		ldr	r3, .L47
 439 0002 1B68     		ldr	r3, [r3]
 440 0004 93F89603 		ldrb	r0, [r3, #918]	@ zero_extendqisi2
 234:src/Chkoptn.c **** }
 441              		.loc 1 234 0
 442 0008 00F02000 		and	r0, r0, #32
 443 000c 7047     		bx	lr
 444              	.L48:
 445 000e 00BF     		.align	2
 446              	.L47:
 447 0010 00000000 		.word	gGDS
 448              		.cfi_endproc
 449              	.LFE15:
 450              		.size	VoidOffline, .-VoidOffline
ARM GAS  C:\Users\AHMED~1.ELE\AppData\Local\Temp\ccckKCu0.s 			page 13


 451              		.section	.text.PiggybackOffline,"ax",%progbits
 452              		.align	1
 453              		.global	PiggybackOffline
 454              		.thumb
 455              		.thumb_func
 456              		.type	PiggybackOffline, %function
 457              	PiggybackOffline:
 458              	.LFB16:
 235:src/Chkoptn.c **** //*****************************************************************************
 236:src/Chkoptn.c **** //  Function        : PiggybackOffline
 237:src/Chkoptn.c **** //  Description     : Check whether config for piggyback offline transaction.
 238:src/Chkoptn.c **** //  Input           : N/A
 239:src/Chkoptn.c **** //  Return          : TRUE/FALSE;
 240:src/Chkoptn.c **** //  Note            : N/A
 241:src/Chkoptn.c **** //  Globals Changed : N/A
 242:src/Chkoptn.c **** //*****************************************************************************
 243:src/Chkoptn.c **** BOOLEAN PiggybackOffline(void)
 244:src/Chkoptn.c **** {
 459              		.loc 1 244 0
 460              		.cfi_startproc
 461              		@ args = 0, pretend = 0, frame = 0
 462              		@ frame_needed = 0, uses_anonymous_args = 0
 463              		@ link register save eliminated.
 245:src/Chkoptn.c ****   return (STIS_ACQ_TBL(0).sb_options[0] & 0x80);
 464              		.loc 1 245 0
 465 0000 034B     		ldr	r3, .L50
 466 0002 1B68     		ldr	r3, [r3]
 467 0004 93F89603 		ldrb	r0, [r3, #918]	@ zero_extendqisi2
 246:src/Chkoptn.c **** }
 468              		.loc 1 246 0
 469 0008 00F08000 		and	r0, r0, #128
 470 000c 7047     		bx	lr
 471              	.L51:
 472 000e 00BF     		.align	2
 473              	.L50:
 474 0010 00000000 		.word	gGDS
 475              		.cfi_endproc
 476              	.LFE16:
 477              		.size	PiggybackOffline, .-PiggybackOffline
 478              		.section	.text.Prompt4DBC,"ax",%progbits
 479              		.align	1
 480              		.global	Prompt4DBC
 481              		.thumb
 482              		.thumb_func
 483              		.type	Prompt4DBC, %function
 484              	Prompt4DBC:
 485              	.LFB17:
 247:src/Chkoptn.c **** //*****************************************************************************
 248:src/Chkoptn.c **** //  Function        : Prompt4DBC
 249:src/Chkoptn.c **** //  Description     : Check whether config for 4DBC entry.
 250:src/Chkoptn.c **** //  Input           : N/A
 251:src/Chkoptn.c **** //  Return          : TRUE/FALSE;
 252:src/Chkoptn.c **** //  Note            : N/A
 253:src/Chkoptn.c **** //  Globals Changed : N/A
 254:src/Chkoptn.c **** //*****************************************************************************
 255:src/Chkoptn.c **** BOOLEAN Prompt4DBC(void)
 256:src/Chkoptn.c **** {
ARM GAS  C:\Users\AHMED~1.ELE\AppData\Local\Temp\ccckKCu0.s 			page 14


 486              		.loc 1 256 0
 487              		.cfi_startproc
 488              		@ args = 0, pretend = 0, frame = 0
 489              		@ frame_needed = 0, uses_anonymous_args = 0
 490              		@ link register save eliminated.
 257:src/Chkoptn.c ****   return (STIS_ACQ_TBL(0).sb_reserved[0]&0x10);
 491              		.loc 1 257 0
 492 0000 034B     		ldr	r3, .L53
 493 0002 1B68     		ldr	r3, [r3]
 494 0004 93F8D203 		ldrb	r0, [r3, #978]	@ zero_extendqisi2
 258:src/Chkoptn.c **** }
 495              		.loc 1 258 0
 496 0008 00F01000 		and	r0, r0, #16
 497 000c 7047     		bx	lr
 498              	.L54:
 499 000e 00BF     		.align	2
 500              	.L53:
 501 0010 00000000 		.word	gGDS
 502              		.cfi_endproc
 503              	.LFE17:
 504              		.size	Prompt4DBC, .-Prompt4DBC
 505              		.section	.text.MultiAdjustAllowed,"ax",%progbits
 506              		.align	1
 507              		.global	MultiAdjustAllowed
 508              		.thumb
 509              		.thumb_func
 510              		.type	MultiAdjustAllowed, %function
 511              	MultiAdjustAllowed:
 512              	.LFB18:
 259:src/Chkoptn.c **** //*****************************************************************************
 260:src/Chkoptn.c **** //  Function        : MultiAdjustAllowed
 261:src/Chkoptn.c **** //  Description     : Check Multiple adjustment allowed.
 262:src/Chkoptn.c **** //  Input           : N/A
 263:src/Chkoptn.c **** //  Return          : TRUE/FALSE;
 264:src/Chkoptn.c **** //  Note            : N/A
 265:src/Chkoptn.c **** //  Globals Changed : N/A
 266:src/Chkoptn.c **** //*****************************************************************************
 267:src/Chkoptn.c **** BOOLEAN MultiAdjustAllowed(void)
 268:src/Chkoptn.c **** {
 513              		.loc 1 268 0
 514              		.cfi_startproc
 515              		@ args = 0, pretend = 0, frame = 0
 516              		@ frame_needed = 0, uses_anonymous_args = 0
 517              		@ link register save eliminated.
 269:src/Chkoptn.c ****   return (STIS_ACQ_TBL(0).sb_reserved[3] & 0x80);
 518              		.loc 1 269 0
 519 0000 034B     		ldr	r3, .L56
 520 0002 1B68     		ldr	r3, [r3]
 521 0004 93F8D503 		ldrb	r0, [r3, #981]	@ zero_extendqisi2
 270:src/Chkoptn.c **** }
 522              		.loc 1 270 0
 523 0008 00F08000 		and	r0, r0, #128
 524 000c 7047     		bx	lr
 525              	.L57:
 526 000e 00BF     		.align	2
 527              	.L56:
 528 0010 00000000 		.word	gGDS
ARM GAS  C:\Users\AHMED~1.ELE\AppData\Local\Temp\ccckKCu0.s 			page 15


 529              		.cfi_endproc
 530              	.LFE18:
 531              		.size	MultiAdjustAllowed, .-MultiAdjustAllowed
 532              		.section	.text.ExtraMsgLen,"ax",%progbits
 533              		.align	1
 534              		.global	ExtraMsgLen
 535              		.thumb
 536              		.thumb_func
 537              		.type	ExtraMsgLen, %function
 538              	ExtraMsgLen:
 539              	.LFB19:
 271:src/Chkoptn.c **** //*****************************************************************************
 272:src/Chkoptn.c **** //  Function        : ExtraMsgLen
 273:src/Chkoptn.c **** //  Description     : Check config for extra message len byte in host msg.
 274:src/Chkoptn.c **** //  Input           : N/A
 275:src/Chkoptn.c **** //  Return          : TRUE/FALSE;
 276:src/Chkoptn.c **** //  Note            : N/A
 277:src/Chkoptn.c **** //  Globals Changed : N/A
 278:src/Chkoptn.c **** //*****************************************************************************
 279:src/Chkoptn.c **** BOOLEAN ExtraMsgLen(void)
 280:src/Chkoptn.c **** {
 540              		.loc 1 280 0
 541              		.cfi_startproc
 542              		@ args = 0, pretend = 0, frame = 0
 543              		@ frame_needed = 0, uses_anonymous_args = 0
 544              		@ link register save eliminated.
 281:src/Chkoptn.c ****   return (STIS_ACQ_TBL(0).b_reserved1? TRUE: FALSE);
 545              		.loc 1 281 0
 546 0000 034B     		ldr	r3, .L59
 547 0002 1B68     		ldr	r3, [r3]
 548 0004 93F8E803 		ldrb	r0, [r3, #1000]	@ zero_extendqisi2
 282:src/Chkoptn.c **** }
 549              		.loc 1 282 0
 550 0008 0030     		adds	r0, r0, #0
 551 000a 18BF     		it	ne
 552 000c 0120     		movne	r0, #1
 553 000e 7047     		bx	lr
 554              	.L60:
 555              		.align	2
 556              	.L59:
 557 0010 00000000 		.word	gGDS
 558              		.cfi_endproc
 559              	.LFE19:
 560              		.size	ExtraMsgLen, .-ExtraMsgLen
 561              		.section	.text.CheckDuplicate,"ax",%progbits
 562              		.align	1
 563              		.global	CheckDuplicate
 564              		.thumb
 565              		.thumb_func
 566              		.type	CheckDuplicate, %function
 567              	CheckDuplicate:
 568              	.LFB20:
 283:src/Chkoptn.c **** //*****************************************************************************
 284:src/Chkoptn.c **** //  Function        : CheckDuplicate
 285:src/Chkoptn.c **** //  Description     : Check Duplicate transaction.
 286:src/Chkoptn.c **** //  Input           : N/A
 287:src/Chkoptn.c **** //  Return          : TRUE/FALSE;
ARM GAS  C:\Users\AHMED~1.ELE\AppData\Local\Temp\ccckKCu0.s 			page 16


 288:src/Chkoptn.c **** //  Note            : N/A
 289:src/Chkoptn.c **** //  Globals Changed : N/A
 290:src/Chkoptn.c **** //*****************************************************************************
 291:src/Chkoptn.c **** BOOLEAN CheckDuplicate(void)
 292:src/Chkoptn.c **** {
 569              		.loc 1 292 0
 570              		.cfi_startproc
 571              		@ args = 0, pretend = 0, frame = 0
 572              		@ frame_needed = 0, uses_anonymous_args = 0
 573              		@ link register save eliminated.
 293:src/Chkoptn.c ****   return (STIS_ACQ_TBL(0).sb_reserved[11]&0x20);
 574              		.loc 1 293 0
 575 0000 034B     		ldr	r3, .L62
 576 0002 1B68     		ldr	r3, [r3]
 577 0004 93F8DD03 		ldrb	r0, [r3, #989]	@ zero_extendqisi2
 294:src/Chkoptn.c **** }
 578              		.loc 1 294 0
 579 0008 00F02000 		and	r0, r0, #32
 580 000c 7047     		bx	lr
 581              	.L63:
 582 000e 00BF     		.align	2
 583              	.L62:
 584 0010 00000000 		.word	gGDS
 585              		.cfi_endproc
 586              	.LFE20:
 587              		.size	CheckDuplicate, .-CheckDuplicate
 588              		.section	.text.FallbackDialup,"ax",%progbits
 589              		.align	1
 590              		.global	FallbackDialup
 591              		.thumb
 592              		.thumb_func
 593              		.type	FallbackDialup, %function
 594              	FallbackDialup:
 595              	.LFB21:
 295:src/Chkoptn.c **** //*****************************************************************************
 296:src/Chkoptn.c **** //  Function        : FallbackDialup
 297:src/Chkoptn.c **** //  Description     : Config. for TCP connection fallback dialup.
 298:src/Chkoptn.c **** //  Input           : N/A
 299:src/Chkoptn.c **** //  Return          : TRUE/FALSE;
 300:src/Chkoptn.c **** //  Note            : N/A
 301:src/Chkoptn.c **** //  Globals Changed : N/A
 302:src/Chkoptn.c **** //*****************************************************************************
 303:src/Chkoptn.c **** BOOLEAN FallbackDialup(void)
 304:src/Chkoptn.c **** {
 596              		.loc 1 304 0
 597              		.cfi_startproc
 598              		@ args = 0, pretend = 0, frame = 0
 599              		@ frame_needed = 0, uses_anonymous_args = 0
 600              		@ link register save eliminated.
 305:src/Chkoptn.c ****   return (STIS_ACQ_TBL(0).sb_reserved[11]&0x40);
 601              		.loc 1 305 0
 602 0000 034B     		ldr	r3, .L65
 603 0002 1B68     		ldr	r3, [r3]
 604 0004 93F8DD03 		ldrb	r0, [r3, #989]	@ zero_extendqisi2
 306:src/Chkoptn.c **** }
 605              		.loc 1 306 0
 606 0008 00F04000 		and	r0, r0, #64
ARM GAS  C:\Users\AHMED~1.ELE\AppData\Local\Temp\ccckKCu0.s 			page 17


 607 000c 7047     		bx	lr
 608              	.L66:
 609 000e 00BF     		.align	2
 610              	.L65:
 611 0010 00000000 		.word	gGDS
 612              		.cfi_endproc
 613              	.LFE21:
 614              		.size	FallbackDialup, .-FallbackDialup
 615              		.section	.text.GetHostType,"ax",%progbits
 616              		.align	1
 617              		.global	GetHostType
 618              		.thumb
 619              		.thumb_func
 620              		.type	GetHostType, %function
 621              	GetHostType:
 622              	.LFB22:
 307:src/Chkoptn.c **** //*****************************************************************************
 308:src/Chkoptn.c **** //  Function        : GetHostType
 309:src/Chkoptn.c **** //  Description     : Return Current Host Type.
 310:src/Chkoptn.c **** //  Input           : aIdx;     // Acquirer Idx
 311:src/Chkoptn.c **** //  Return          : host type.
 312:src/Chkoptn.c **** //  Note            : N/A
 313:src/Chkoptn.c **** //  Globals Changed : N/A
 314:src/Chkoptn.c **** //*****************************************************************************
 315:src/Chkoptn.c **** BYTE GetHostType(BYTE aIdx)
 316:src/Chkoptn.c **** {
 623              		.loc 1 316 0
 624              		.cfi_startproc
 625              		@ args = 0, pretend = 0, frame = 0
 626              		@ frame_needed = 0, uses_anonymous_args = 0
 627              		@ link register save eliminated.
 628              	.LVL0:
 317:src/Chkoptn.c ****   return (STIS_ACQ_TBL(aIdx).b_host_type);
 629              		.loc 1 317 0
 630 0000 034B     		ldr	r3, .L68
 631 0002 1A68     		ldr	r2, [r3]
 632 0004 AC23     		movs	r3, #172
 633 0006 03FB0020 		mla	r0, r3, r0, r2
 634              	.LVL1:
 318:src/Chkoptn.c **** }
 635              		.loc 1 318 0
 636 000a 90F8E703 		ldrb	r0, [r0, #999]	@ zero_extendqisi2
 637 000e 7047     		bx	lr
 638              	.L69:
 639              		.align	2
 640              	.L68:
 641 0010 00000000 		.word	gGDS
 642              		.cfi_endproc
 643              	.LFE22:
 644              		.size	GetHostType, .-GetHostType
 645              		.section	.text.UnderFloorLimit,"ax",%progbits
 646              		.align	1
 647              		.global	UnderFloorLimit
 648              		.thumb
 649              		.thumb_func
 650              		.type	UnderFloorLimit, %function
 651              	UnderFloorLimit:
ARM GAS  C:\Users\AHMED~1.ELE\AppData\Local\Temp\ccckKCu0.s 			page 18


 652              	.LFB23:
 319:src/Chkoptn.c **** //*****************************************************************************
 320:src/Chkoptn.c **** //  Function        : UnderFloorLimit
 321:src/Chkoptn.c **** //  Description     : Check input aAmount is under issuer's floor limit.
 322:src/Chkoptn.c **** //  Input           : 64 bit amount.
 323:src/Chkoptn.c **** //  Return          : TRUE/FALSE;
 324:src/Chkoptn.c **** //                    FALSE;
 325:src/Chkoptn.c **** //  Note            : N/A
 326:src/Chkoptn.c **** //  Globals Changed : N/A
 327:src/Chkoptn.c **** //*****************************************************************************
 328:src/Chkoptn.c **** BOOLEAN UnderFloorLimit(DDWORD aAmount)
 329:src/Chkoptn.c **** {
 653              		.loc 1 329 0
 654              		.cfi_startproc
 655              		@ args = 0, pretend = 0, frame = 0
 656              		@ frame_needed = 0, uses_anonymous_args = 0
 657              	.LVL2:
 658 0000 F8B5     		push	{r3, r4, r5, r6, r7, lr}
 659              		.cfi_def_cfa_offset 24
 660              		.cfi_offset 3, -24
 661              		.cfi_offset 4, -20
 662              		.cfi_offset 5, -16
 663              		.cfi_offset 6, -12
 664              		.cfi_offset 7, -8
 665              		.cfi_offset 14, -4
 330:src/Chkoptn.c ****   DDWORD limit;
 331:src/Chkoptn.c **** 
 332:src/Chkoptn.c ****   limit = (bcd2val(STIS_ISS_TBL(0).sb_floor_limit[0])*100 + bcd2val(STIS_ISS_TBL(0).sb_floor_limit[
 666              		.loc 1 332 0
 667 0002 0D4D     		ldr	r5, .L71
 329:src/Chkoptn.c ****   DDWORD limit;
 668              		.loc 1 329 0
 669 0004 0646     		mov	r6, r0
 670              		.loc 1 332 0
 671 0006 2B68     		ldr	r3, [r5]
 329:src/Chkoptn.c ****   DDWORD limit;
 672              		.loc 1 329 0
 673 0008 0F46     		mov	r7, r1
 674              		.loc 1 332 0
 675 000a 93F8BE04 		ldrb	r0, [r3, #1214]	@ zero_extendqisi2
 676              	.LVL3:
 677 000e FFF7FEFF 		bl	bcd2val
 678              	.LVL4:
 679 0012 2B68     		ldr	r3, [r5]
 680 0014 0446     		mov	r4, r0
 681 0016 93F8BF04 		ldrb	r0, [r3, #1215]	@ zero_extendqisi2
 682 001a FFF7FEFF 		bl	bcd2val
 683              	.LVL5:
 684 001e 6423     		movs	r3, #100
 685 0020 03FB0400 		mla	r0, r3, r4, r0
 686              	.LVL6:
 333:src/Chkoptn.c ****   limit *= 100;
 687              		.loc 1 333 0
 688 0024 A0FB0301 		umull	r0, r1, r0, r3
 689              	.LVL7:
 334:src/Chkoptn.c ****   return (aAmount < limit);
 690              		.loc 1 334 0
ARM GAS  C:\Users\AHMED~1.ELE\AppData\Local\Temp\ccckKCu0.s 			page 19


 691 0028 8F42     		cmp	r7, r1
 692 002a 08BF     		it	eq
 693 002c 8642     		cmpeq	r6, r0
 335:src/Chkoptn.c **** }
 694              		.loc 1 335 0
 695 002e 34BF     		ite	cc
 696 0030 0120     		movcc	r0, #1
 697 0032 0020     		movcs	r0, #0
 698 0034 F8BD     		pop	{r3, r4, r5, r6, r7, pc}
 699              	.L72:
 700 0036 00BF     		.align	2
 701              	.L71:
 702 0038 00000000 		.word	gGDS
 703              		.cfi_endproc
 704              	.LFE23:
 705              		.size	UnderFloorLimit, .-UnderFloorLimit
 706              		.section	.text.ManualEntryAllow,"ax",%progbits
 707              		.align	1
 708              		.global	ManualEntryAllow
 709              		.thumb
 710              		.thumb_func
 711              		.type	ManualEntryAllow, %function
 712              	ManualEntryAllow:
 713              	.LFB24:
 336:src/Chkoptn.c **** //*****************************************************************************
 337:src/Chkoptn.c **** //  Function        : ManualEntryAllow
 338:src/Chkoptn.c **** //  Description     : Check whether config for manual entry.
 339:src/Chkoptn.c **** //  Input           : N/A
 340:src/Chkoptn.c **** //  Return          : TRUE/FALSE;
 341:src/Chkoptn.c **** //  Note            : N/A
 342:src/Chkoptn.c **** //  Globals Changed : N/A
 343:src/Chkoptn.c **** //*****************************************************************************
 344:src/Chkoptn.c **** BOOLEAN ManualEntryAllow(void)
 345:src/Chkoptn.c **** {
 714              		.loc 1 345 0
 715              		.cfi_startproc
 716              		@ args = 0, pretend = 0, frame = 0
 717              		@ frame_needed = 0, uses_anonymous_args = 0
 718              		@ link register save eliminated.
 346:src/Chkoptn.c ****   return (STIS_ISS_TBL(0).sb_options[0] & 0x04);
 719              		.loc 1 346 0
 720 0000 034B     		ldr	r3, .L74
 721 0002 1B68     		ldr	r3, [r3]
 722 0004 93F8B704 		ldrb	r0, [r3, #1207]	@ zero_extendqisi2
 347:src/Chkoptn.c **** }
 723              		.loc 1 347 0
 724 0008 00F00400 		and	r0, r0, #4
 725 000c 7047     		bx	lr
 726              	.L75:
 727 000e 00BF     		.align	2
 728              	.L74:
 729 0010 00000000 		.word	gGDS
 730              		.cfi_endproc
 731              	.LFE24:
 732              		.size	ManualEntryAllow, .-ManualEntryAllow
 733              		.section	.text.OfflineAllowed,"ax",%progbits
 734              		.align	1
ARM GAS  C:\Users\AHMED~1.ELE\AppData\Local\Temp\ccckKCu0.s 			page 20


 735              		.global	OfflineAllowed
 736              		.thumb
 737              		.thumb_func
 738              		.type	OfflineAllowed, %function
 739              	OfflineAllowed:
 740              	.LFB25:
 348:src/Chkoptn.c **** //*****************************************************************************
 349:src/Chkoptn.c **** //  Function        : OfflineAllowed
 350:src/Chkoptn.c **** //  Description     : Check whether config for OFFLINE entry.
 351:src/Chkoptn.c **** //  Input           : N/A
 352:src/Chkoptn.c **** //  Return          : TRUE/FALSE;
 353:src/Chkoptn.c **** //  Note            : N/A
 354:src/Chkoptn.c **** //  Globals Changed : N/A
 355:src/Chkoptn.c **** //*****************************************************************************
 356:src/Chkoptn.c **** BOOLEAN OfflineAllowed(void)
 357:src/Chkoptn.c **** {
 741              		.loc 1 357 0
 742              		.cfi_startproc
 743              		@ args = 0, pretend = 0, frame = 0
 744              		@ frame_needed = 0, uses_anonymous_args = 0
 745              		@ link register save eliminated.
 358:src/Chkoptn.c ****   return (STIS_ISS_TBL(0).sb_options[0] & 0x10);
 746              		.loc 1 358 0
 747 0000 034B     		ldr	r3, .L77
 748 0002 1B68     		ldr	r3, [r3]
 749 0004 93F8B704 		ldrb	r0, [r3, #1207]	@ zero_extendqisi2
 359:src/Chkoptn.c **** }
 750              		.loc 1 359 0
 751 0008 00F01000 		and	r0, r0, #16
 752 000c 7047     		bx	lr
 753              	.L78:
 754 000e 00BF     		.align	2
 755              	.L77:
 756 0010 00000000 		.word	gGDS
 757              		.cfi_endproc
 758              	.LFE25:
 759              		.size	OfflineAllowed, .-OfflineAllowed
 760              		.section	.text.ExpDateReqd,"ax",%progbits
 761              		.align	1
 762              		.global	ExpDateReqd
 763              		.thumb
 764              		.thumb_func
 765              		.type	ExpDateReqd, %function
 766              	ExpDateReqd:
 767              	.LFB26:
 360:src/Chkoptn.c **** //*****************************************************************************
 361:src/Chkoptn.c **** //  Function        : ExpDateReqd
 362:src/Chkoptn.c **** //  Description     : Check whether config require expiry date.
 363:src/Chkoptn.c **** //  Input           : N/A
 364:src/Chkoptn.c **** //  Return          : TRUE/FALSE;
 365:src/Chkoptn.c **** //  Note            : N/A
 366:src/Chkoptn.c **** //  Globals Changed : N/A
 367:src/Chkoptn.c **** //*****************************************************************************
 368:src/Chkoptn.c **** BOOLEAN ExpDateReqd(void)
 369:src/Chkoptn.c **** {
 768              		.loc 1 369 0
 769              		.cfi_startproc
ARM GAS  C:\Users\AHMED~1.ELE\AppData\Local\Temp\ccckKCu0.s 			page 21


 770              		@ args = 0, pretend = 0, frame = 0
 771              		@ frame_needed = 0, uses_anonymous_args = 0
 772              		@ link register save eliminated.
 370:src/Chkoptn.c ****   return (STIS_ISS_TBL(0).sb_options[0] & 0x08);
 773              		.loc 1 370 0
 774 0000 034B     		ldr	r3, .L80
 775 0002 1B68     		ldr	r3, [r3]
 776 0004 93F8B704 		ldrb	r0, [r3, #1207]	@ zero_extendqisi2
 371:src/Chkoptn.c **** }
 777              		.loc 1 371 0
 778 0008 00F00800 		and	r0, r0, #8
 779 000c 7047     		bx	lr
 780              	.L81:
 781 000e 00BF     		.align	2
 782              	.L80:
 783 0010 00000000 		.word	gGDS
 784              		.cfi_endproc
 785              	.LFE26:
 786              		.size	ExpDateReqd, .-ExpDateReqd
 787              		.section	.text.VoiceReferral,"ax",%progbits
 788              		.align	1
 789              		.global	VoiceReferral
 790              		.thumb
 791              		.thumb_func
 792              		.type	VoiceReferral, %function
 793              	VoiceReferral:
 794              	.LFB27:
 372:src/Chkoptn.c **** //*****************************************************************************
 373:src/Chkoptn.c **** //  Function        : VoiceReferral
 374:src/Chkoptn.c **** //  Description     : Check whether Voice referral required.
 375:src/Chkoptn.c **** //  Input           : host response code
 376:src/Chkoptn.c **** //  Return          : TRUE/FALSE;
 377:src/Chkoptn.c **** //  Note            : N/A
 378:src/Chkoptn.c **** //  Globals Changed : N/A
 379:src/Chkoptn.c **** //*****************************************************************************
 380:src/Chkoptn.c **** BOOLEAN VoiceReferral(WORD aRspCode)
 381:src/Chkoptn.c **** {
 795              		.loc 1 381 0
 796              		.cfi_startproc
 797              		@ args = 0, pretend = 0, frame = 0
 798              		@ frame_needed = 0, uses_anonymous_args = 0
 799              		@ link register save eliminated.
 800              	.LVL8:
 382:src/Chkoptn.c ****   return ((aRspCode <= '0'*256+'2') && (STIS_ISS_TBL(0).sb_options[0] & 0x20));
 801              		.loc 1 382 0
 802 0000 43F23203 		movw	r3, #12338
 803 0004 9842     		cmp	r0, r3
 804 0006 9FBF     		itttt	ls
 805 0008 044B     		ldrls	r3, .L85
 806 000a 1B68     		ldrls	r3, [r3]
 807 000c 93F8B704 		ldrbls	r0, [r3, #1207]	@ zero_extendqisi2
 808              	.LVL9:
 809 0010 C0F34010 		ubfxls	r0, r0, #5, #1
 810 0014 88BF     		it	hi
 811 0016 0020     		movhi	r0, #0
 383:src/Chkoptn.c **** }
 812              		.loc 1 383 0
ARM GAS  C:\Users\AHMED~1.ELE\AppData\Local\Temp\ccckKCu0.s 			page 22


 813 0018 7047     		bx	lr
 814              	.L86:
 815 001a 00BF     		.align	2
 816              	.L85:
 817 001c 00000000 		.word	gGDS
 818              		.cfi_endproc
 819              	.LFE27:
 820              		.size	VoiceReferral, .-VoiceReferral
 821              		.section	.text.DescriptorReqd,"ax",%progbits
 822              		.align	1
 823              		.global	DescriptorReqd
 824              		.thumb
 825              		.thumb_func
 826              		.type	DescriptorReqd, %function
 827              	DescriptorReqd:
 828              	.LFB28:
 384:src/Chkoptn.c **** //*****************************************************************************
 385:src/Chkoptn.c **** //  Function        : DescriptorReqd
 386:src/Chkoptn.c **** //  Description     : Check whether config require product code.
 387:src/Chkoptn.c **** //  Input           : N/A
 388:src/Chkoptn.c **** //  Return          : TRUE/FALSE;
 389:src/Chkoptn.c **** //  Note            : N/A
 390:src/Chkoptn.c **** //  Globals Changed : N/A
 391:src/Chkoptn.c **** //*****************************************************************************
 392:src/Chkoptn.c **** BOOLEAN DescriptorReqd(void)
 393:src/Chkoptn.c **** {
 829              		.loc 1 393 0
 830              		.cfi_startproc
 831              		@ args = 0, pretend = 0, frame = 0
 832              		@ frame_needed = 0, uses_anonymous_args = 0
 833              		@ link register save eliminated.
 394:src/Chkoptn.c ****   return (STIS_ISS_TBL(0).sb_options[0] & 0x40);
 834              		.loc 1 394 0
 835 0000 034B     		ldr	r3, .L88
 836 0002 1B68     		ldr	r3, [r3]
 837 0004 93F8B704 		ldrb	r0, [r3, #1207]	@ zero_extendqisi2
 395:src/Chkoptn.c **** }
 838              		.loc 1 395 0
 839 0008 00F04000 		and	r0, r0, #64
 840 000c 7047     		bx	lr
 841              	.L89:
 842 000e 00BF     		.align	2
 843              	.L88:
 844 0010 00000000 		.word	gGDS
 845              		.cfi_endproc
 846              	.LFE28:
 847              		.size	DescriptorReqd, .-DescriptorReqd
 848              		.section	.text.AdjustAllowed,"ax",%progbits
 849              		.align	1
 850              		.global	AdjustAllowed
 851              		.thumb
 852              		.thumb_func
 853              		.type	AdjustAllowed, %function
 854              	AdjustAllowed:
 855              	.LFB29:
 396:src/Chkoptn.c **** //*****************************************************************************
 397:src/Chkoptn.c **** //  Function        : AdjustAllowed
ARM GAS  C:\Users\AHMED~1.ELE\AppData\Local\Temp\ccckKCu0.s 			page 23


 398:src/Chkoptn.c **** //  Description     : Check whether config allow adjustment.
 399:src/Chkoptn.c **** //  Input           : N/A
 400:src/Chkoptn.c **** //  Return          : TRUE/FALSE;
 401:src/Chkoptn.c **** //  Note            : N/A
 402:src/Chkoptn.c **** //  Globals Changed : N/A
 403:src/Chkoptn.c **** //*****************************************************************************
 404:src/Chkoptn.c **** BOOLEAN AdjustAllowed(void)
 405:src/Chkoptn.c **** {
 856              		.loc 1 405 0
 857              		.cfi_startproc
 858              		@ args = 0, pretend = 0, frame = 0
 859              		@ frame_needed = 0, uses_anonymous_args = 0
 860              		@ link register save eliminated.
 406:src/Chkoptn.c ****   return (STIS_ISS_TBL(0).sb_options[0] & 0x80);
 861              		.loc 1 406 0
 862 0000 034B     		ldr	r3, .L91
 863 0002 1B68     		ldr	r3, [r3]
 864 0004 93F8B704 		ldrb	r0, [r3, #1207]	@ zero_extendqisi2
 407:src/Chkoptn.c **** }
 865              		.loc 1 407 0
 866 0008 00F08000 		and	r0, r0, #128
 867 000c 7047     		bx	lr
 868              	.L92:
 869 000e 00BF     		.align	2
 870              	.L91:
 871 0010 00000000 		.word	gGDS
 872              		.cfi_endproc
 873              	.LFE29:
 874              		.size	AdjustAllowed, .-AdjustAllowed
 875              		.section	.text.CheckPAN,"ax",%progbits
 876              		.align	1
 877              		.global	CheckPAN
 878              		.thumb
 879              		.thumb_func
 880              		.type	CheckPAN, %function
 881              	CheckPAN:
 882              	.LFB30:
 408:src/Chkoptn.c **** //*****************************************************************************
 409:src/Chkoptn.c **** //  Function        : CheckPAN
 410:src/Chkoptn.c **** //  Description     : Check whether config require check PAN.
 411:src/Chkoptn.c **** //  Input           : N/A
 412:src/Chkoptn.c **** //  Return          : TRUE/FALSE;
 413:src/Chkoptn.c **** //  Note            : N/A
 414:src/Chkoptn.c **** //  Globals Changed : N/A
 415:src/Chkoptn.c **** //*****************************************************************************
 416:src/Chkoptn.c **** BOOLEAN CheckPAN(void)
 417:src/Chkoptn.c **** {
 883              		.loc 1 417 0
 884              		.cfi_startproc
 885              		@ args = 0, pretend = 0, frame = 0
 886              		@ frame_needed = 0, uses_anonymous_args = 0
 887              		@ link register save eliminated.
 418:src/Chkoptn.c ****   return (STIS_ISS_TBL(0).sb_options[1] & 0x01);
 888              		.loc 1 418 0
 889 0000 034B     		ldr	r3, .L94
 890 0002 1B68     		ldr	r3, [r3]
 891 0004 93F8B804 		ldrb	r0, [r3, #1208]	@ zero_extendqisi2
ARM GAS  C:\Users\AHMED~1.ELE\AppData\Local\Temp\ccckKCu0.s 			page 24


 419:src/Chkoptn.c **** }
 892              		.loc 1 419 0
 893 0008 00F00100 		and	r0, r0, #1
 894 000c 7047     		bx	lr
 895              	.L95:
 896 000e 00BF     		.align	2
 897              	.L94:
 898 0010 00000000 		.word	gGDS
 899              		.cfi_endproc
 900              	.LFE30:
 901              		.size	CheckPAN, .-CheckPAN
 902              		.section	.text.PrintReqd,"ax",%progbits
 903              		.align	1
 904              		.global	PrintReqd
 905              		.thumb
 906              		.thumb_func
 907              		.type	PrintReqd, %function
 908              	PrintReqd:
 909              	.LFB31:
 420:src/Chkoptn.c **** //*****************************************************************************
 421:src/Chkoptn.c **** //  Function        : PrintReqd
 422:src/Chkoptn.c **** //  Description     : Check whether config require print receipt.
 423:src/Chkoptn.c **** //  Input           : N/A
 424:src/Chkoptn.c **** //  Return          : TRUE/FALSE;
 425:src/Chkoptn.c **** //  Note            : N/A
 426:src/Chkoptn.c **** //  Globals Changed : N/A
 427:src/Chkoptn.c **** //*****************************************************************************
 428:src/Chkoptn.c **** BOOLEAN PrintReqd(void)
 429:src/Chkoptn.c **** {
 910              		.loc 1 429 0
 911              		.cfi_startproc
 912              		@ args = 0, pretend = 0, frame = 0
 913              		@ frame_needed = 0, uses_anonymous_args = 0
 914              		@ link register save eliminated.
 430:src/Chkoptn.c ****   return (STIS_ISS_TBL(0).sb_options[1] & 0x04);
 915              		.loc 1 430 0
 916 0000 034B     		ldr	r3, .L97
 917 0002 1B68     		ldr	r3, [r3]
 918 0004 93F8B804 		ldrb	r0, [r3, #1208]	@ zero_extendqisi2
 431:src/Chkoptn.c **** }
 919              		.loc 1 431 0
 920 0008 00F00400 		and	r0, r0, #4
 921 000c 7047     		bx	lr
 922              	.L98:
 923 000e 00BF     		.align	2
 924              	.L97:
 925 0010 00000000 		.word	gGDS
 926              		.cfi_endproc
 927              	.LFE31:
 928              		.size	PrintReqd, .-PrintReqd
 929              		.section	.text.DefaultCapture,"ax",%progbits
 930              		.align	1
 931              		.global	DefaultCapture
 932              		.thumb
 933              		.thumb_func
 934              		.type	DefaultCapture, %function
 935              	DefaultCapture:
ARM GAS  C:\Users\AHMED~1.ELE\AppData\Local\Temp\ccckKCu0.s 			page 25


 936              	.LFB32:
 432:src/Chkoptn.c **** //*****************************************************************************
 433:src/Chkoptn.c **** //  Function        : DefaultCapture
 434:src/Chkoptn.c **** //  Description     : Check whether config default as capture transaction(sale)
 435:src/Chkoptn.c **** //  Input           : N/A
 436:src/Chkoptn.c **** //  Return          : TRUE/FALSE;
 437:src/Chkoptn.c **** //  Note            : N/A
 438:src/Chkoptn.c **** //  Globals Changed : N/A
 439:src/Chkoptn.c **** //*****************************************************************************
 440:src/Chkoptn.c **** BOOLEAN DefaultCapture(void)
 441:src/Chkoptn.c **** {
 937              		.loc 1 441 0
 938              		.cfi_startproc
 939              		@ args = 0, pretend = 0, frame = 0
 940              		@ frame_needed = 0, uses_anonymous_args = 0
 941              		@ link register save eliminated.
 442:src/Chkoptn.c ****   return (STIS_ISS_TBL(0).sb_options[1] & 0x08);
 942              		.loc 1 442 0
 943 0000 034B     		ldr	r3, .L100
 944 0002 1B68     		ldr	r3, [r3]
 945 0004 93F8B804 		ldrb	r0, [r3, #1208]	@ zero_extendqisi2
 443:src/Chkoptn.c **** }
 946              		.loc 1 443 0
 947 0008 00F00800 		and	r0, r0, #8
 948 000c 7047     		bx	lr
 949              	.L101:
 950 000e 00BF     		.align	2
 951              	.L100:
 952 0010 00000000 		.word	gGDS
 953              		.cfi_endproc
 954              	.LFE32:
 955              		.size	DefaultCapture, .-DefaultCapture
 956              		.section	.text.CheckExpDate,"ax",%progbits
 957              		.align	1
 958              		.global	CheckExpDate
 959              		.thumb
 960              		.thumb_func
 961              		.type	CheckExpDate, %function
 962              	CheckExpDate:
 963              	.LFB33:
 444:src/Chkoptn.c **** //*****************************************************************************
 445:src/Chkoptn.c **** //  Function        : CheckExpDate
 446:src/Chkoptn.c **** //  Description     : Check whether config require check expiry date.
 447:src/Chkoptn.c **** //  Input           : N/A
 448:src/Chkoptn.c **** //  Return          : TRUE/FALSE;
 449:src/Chkoptn.c **** //  Note            : N/A
 450:src/Chkoptn.c **** //  Globals Changed : N/A
 451:src/Chkoptn.c **** //*****************************************************************************
 452:src/Chkoptn.c **** BOOLEAN CheckExpDate(void)
 453:src/Chkoptn.c **** {
 964              		.loc 1 453 0
 965              		.cfi_startproc
 966              		@ args = 0, pretend = 0, frame = 0
 967              		@ frame_needed = 0, uses_anonymous_args = 0
 968              		@ link register save eliminated.
 454:src/Chkoptn.c ****   return (STIS_ISS_TBL(0).sb_options[1] & 0x10);
 969              		.loc 1 454 0
ARM GAS  C:\Users\AHMED~1.ELE\AppData\Local\Temp\ccckKCu0.s 			page 26


 970 0000 034B     		ldr	r3, .L103
 971 0002 1B68     		ldr	r3, [r3]
 972 0004 93F8B804 		ldrb	r0, [r3, #1208]	@ zero_extendqisi2
 455:src/Chkoptn.c **** }
 973              		.loc 1 455 0
 974 0008 00F01000 		and	r0, r0, #16
 975 000c 7047     		bx	lr
 976              	.L104:
 977 000e 00BF     		.align	2
 978              	.L103:
 979 0010 00000000 		.word	gGDS
 980              		.cfi_endproc
 981              	.LFE33:
 982              		.size	CheckExpDate, .-CheckExpDate
 983              		.section	.text.RefundBlocked,"ax",%progbits
 984              		.align	1
 985              		.global	RefundBlocked
 986              		.thumb
 987              		.thumb_func
 988              		.type	RefundBlocked, %function
 989              	RefundBlocked:
 990              	.LFB34:
 456:src/Chkoptn.c **** //*****************************************************************************
 457:src/Chkoptn.c **** //  Function        : RefundBlocked
 458:src/Chkoptn.c **** //  Description     : Check whether config BLOCK refund transaction.
 459:src/Chkoptn.c **** //  Input           : N/A
 460:src/Chkoptn.c **** //  Return          : TRUE/FALSE;
 461:src/Chkoptn.c **** //  Note            : N/A
 462:src/Chkoptn.c **** //  Globals Changed : N/A
 463:src/Chkoptn.c **** //*****************************************************************************
 464:src/Chkoptn.c **** BOOLEAN RefundBlocked(void)
 465:src/Chkoptn.c **** {
 991              		.loc 1 465 0
 992              		.cfi_startproc
 993              		@ args = 0, pretend = 0, frame = 0
 994              		@ frame_needed = 0, uses_anonymous_args = 0
 995              		@ link register save eliminated.
 466:src/Chkoptn.c ****   return (STIS_ISS_TBL(0).sb_options[1] & 0x40);
 996              		.loc 1 466 0
 997 0000 034B     		ldr	r3, .L106
 998 0002 1B68     		ldr	r3, [r3]
 999 0004 93F8B804 		ldrb	r0, [r3, #1208]	@ zero_extendqisi2
 467:src/Chkoptn.c **** }
 1000              		.loc 1 467 0
 1001 0008 00F04000 		and	r0, r0, #64
 1002 000c 7047     		bx	lr
 1003              	.L107:
 1004 000e 00BF     		.align	2
 1005              	.L106:
 1006 0010 00000000 		.word	gGDS
 1007              		.cfi_endproc
 1008              	.LFE34:
 1009              		.size	RefundBlocked, .-RefundBlocked
 1010              		.section	.text.AuthBlocked,"ax",%progbits
 1011              		.align	1
 1012              		.global	AuthBlocked
 1013              		.thumb
ARM GAS  C:\Users\AHMED~1.ELE\AppData\Local\Temp\ccckKCu0.s 			page 27


 1014              		.thumb_func
 1015              		.type	AuthBlocked, %function
 1016              	AuthBlocked:
 1017              	.LFB35:
 468:src/Chkoptn.c **** //*****************************************************************************
 469:src/Chkoptn.c **** //  Function        : AuthBlocked
 470:src/Chkoptn.c **** //  Description     : Check whether config BLOCK non default AUTH transaction.
 471:src/Chkoptn.c **** //  Input           : N/A
 472:src/Chkoptn.c **** //  Return          : TRUE/FALSE;
 473:src/Chkoptn.c **** //  Note            : N/A
 474:src/Chkoptn.c **** //  Globals Changed : N/A
 475:src/Chkoptn.c **** //*****************************************************************************
 476:src/Chkoptn.c **** BOOLEAN AuthBlocked(void)
 477:src/Chkoptn.c **** {
 1018              		.loc 1 477 0
 1019              		.cfi_startproc
 1020              		@ args = 0, pretend = 0, frame = 0
 1021              		@ frame_needed = 0, uses_anonymous_args = 0
 1022              		@ link register save eliminated.
 478:src/Chkoptn.c ****   return (STIS_ISS_TBL(0).sb_options[1] & 0x80);
 1023              		.loc 1 478 0
 1024 0000 034B     		ldr	r3, .L109
 1025 0002 1B68     		ldr	r3, [r3]
 1026 0004 93F8B804 		ldrb	r0, [r3, #1208]	@ zero_extendqisi2
 479:src/Chkoptn.c **** }
 1027              		.loc 1 479 0
 1028 0008 00F08000 		and	r0, r0, #128
 1029 000c 7047     		bx	lr
 1030              	.L110:
 1031 000e 00BF     		.align	2
 1032              	.L109:
 1033 0010 00000000 		.word	gGDS
 1034              		.cfi_endproc
 1035              	.LFE35:
 1036              		.size	AuthBlocked, .-AuthBlocked
 1037              		.section	.text.VoidBlocked,"ax",%progbits
 1038              		.align	1
 1039              		.global	VoidBlocked
 1040              		.thumb
 1041              		.thumb_func
 1042              		.type	VoidBlocked, %function
 1043              	VoidBlocked:
 1044              	.LFB36:
 480:src/Chkoptn.c **** //*****************************************************************************
 481:src/Chkoptn.c **** //  Function        : VoidBlocked
 482:src/Chkoptn.c **** //  Description     : Check whether config BLOCK VOID transaction.
 483:src/Chkoptn.c **** //  Input           : N/A
 484:src/Chkoptn.c **** //  Return          : TRUE/FALSE;
 485:src/Chkoptn.c **** //  Note            : N/A
 486:src/Chkoptn.c **** //  Globals Changed : N/A
 487:src/Chkoptn.c **** //*****************************************************************************
 488:src/Chkoptn.c **** BOOLEAN VoidBlocked(void)
 489:src/Chkoptn.c **** {
 1045              		.loc 1 489 0
 1046              		.cfi_startproc
 1047              		@ args = 0, pretend = 0, frame = 0
 1048              		@ frame_needed = 0, uses_anonymous_args = 0
ARM GAS  C:\Users\AHMED~1.ELE\AppData\Local\Temp\ccckKCu0.s 			page 28


 1049              		@ link register save eliminated.
 490:src/Chkoptn.c ****   return (STIS_ISS_TBL(0).sb_options[2] & 0x01);
 1050              		.loc 1 490 0
 1051 0000 034B     		ldr	r3, .L112
 1052 0002 1B68     		ldr	r3, [r3]
 1053 0004 93F8B904 		ldrb	r0, [r3, #1209]	@ zero_extendqisi2
 491:src/Chkoptn.c **** }
 1054              		.loc 1 491 0
 1055 0008 00F00100 		and	r0, r0, #1
 1056 000c 7047     		bx	lr
 1057              	.L113:
 1058 000e 00BF     		.align	2
 1059              	.L112:
 1060 0010 00000000 		.word	gGDS
 1061              		.cfi_endproc
 1062              	.LFE36:
 1063              		.size	VoidBlocked, .-VoidBlocked
 1064              		.section	.text.BlockAuthCode,"ax",%progbits
 1065              		.align	1
 1066              		.global	BlockAuthCode
 1067              		.thumb
 1068              		.thumb_func
 1069              		.type	BlockAuthCode, %function
 1070              	BlockAuthCode:
 1071              	.LFB37:
 492:src/Chkoptn.c **** //*****************************************************************************
 493:src/Chkoptn.c **** //  Function        : BlockAuthCode
 494:src/Chkoptn.c **** //  Description     : Check whether config BLOCK authorization code.
 495:src/Chkoptn.c **** //  Input           : N/A
 496:src/Chkoptn.c **** //  Return          : TRUE/FALSE;
 497:src/Chkoptn.c **** //  Note            : N/A
 498:src/Chkoptn.c **** //  Globals Changed : N/A
 499:src/Chkoptn.c **** //*****************************************************************************
 500:src/Chkoptn.c **** BOOLEAN BlockAuthCode(void)
 501:src/Chkoptn.c **** {
 1072              		.loc 1 501 0
 1073              		.cfi_startproc
 1074              		@ args = 0, pretend = 0, frame = 0
 1075              		@ frame_needed = 0, uses_anonymous_args = 0
 1076              		@ link register save eliminated.
 502:src/Chkoptn.c ****   return (STIS_ISS_TBL(0).sb_options[2] & 0x08);
 1077              		.loc 1 502 0
 1078 0000 034B     		ldr	r3, .L115
 1079 0002 1B68     		ldr	r3, [r3]
 1080 0004 93F8B904 		ldrb	r0, [r3, #1209]	@ zero_extendqisi2
 503:src/Chkoptn.c **** }
 1081              		.loc 1 503 0
 1082 0008 00F00800 		and	r0, r0, #8
 1083 000c 7047     		bx	lr
 1084              	.L116:
 1085 000e 00BF     		.align	2
 1086              	.L115:
 1087 0010 00000000 		.word	gGDS
 1088              		.cfi_endproc
 1089              	.LFE37:
 1090              		.size	BlockAuthCode, .-BlockAuthCode
 1091              		.section	.text.MaskCardNo,"ax",%progbits
ARM GAS  C:\Users\AHMED~1.ELE\AppData\Local\Temp\ccckKCu0.s 			page 29


 1092              		.align	1
 1093              		.global	MaskCardNo
 1094              		.thumb
 1095              		.thumb_func
 1096              		.type	MaskCardNo, %function
 1097              	MaskCardNo:
 1098              	.LFB38:
 504:src/Chkoptn.c **** //*****************************************************************************
 505:src/Chkoptn.c **** //  Function        : MaskCardNo
 506:src/Chkoptn.c **** //  Description     : Check whether config for mask PAN.
 507:src/Chkoptn.c **** //  Input           : N/A
 508:src/Chkoptn.c **** //  Return          : TRUE/FALSE;
 509:src/Chkoptn.c **** //  Note            : N/A
 510:src/Chkoptn.c **** //  Globals Changed : N/A
 511:src/Chkoptn.c **** //*****************************************************************************
 512:src/Chkoptn.c **** BOOLEAN MaskCardNo(void)
 513:src/Chkoptn.c **** {
 1099              		.loc 1 513 0
 1100              		.cfi_startproc
 1101              		@ args = 0, pretend = 0, frame = 0
 1102              		@ frame_needed = 0, uses_anonymous_args = 0
 1103              		@ link register save eliminated.
 514:src/Chkoptn.c ****   return (STIS_ISS_TBL(0).sb_reserved[0] & 0x01);
 1104              		.loc 1 514 0
 1105 0000 034B     		ldr	r3, .L118
 1106 0002 1B68     		ldr	r3, [r3]
 1107 0004 93F8C004 		ldrb	r0, [r3, #1216]	@ zero_extendqisi2
 515:src/Chkoptn.c **** }
 1108              		.loc 1 515 0
 1109 0008 00F00100 		and	r0, r0, #1
 1110 000c 7047     		bx	lr
 1111              	.L119:
 1112 000e 00BF     		.align	2
 1113              	.L118:
 1114 0010 00000000 		.word	gGDS
 1115              		.cfi_endproc
 1116              	.LFE38:
 1117              		.size	MaskCardNo, .-MaskCardNo
 1118              		.section	.text.ExpiryReject,"ax",%progbits
 1119              		.align	1
 1120              		.global	ExpiryReject
 1121              		.thumb
 1122              		.thumb_func
 1123              		.type	ExpiryReject, %function
 1124              	ExpiryReject:
 1125              	.LFB39:
 516:src/Chkoptn.c **** //*****************************************************************************
 517:src/Chkoptn.c **** //  Function        : ExpiryReject
 518:src/Chkoptn.c **** //  Description     : Check for reject trans for expired card.
 519:src/Chkoptn.c **** //  Input           : N/A
 520:src/Chkoptn.c **** //  Return          : TRUE/FALSE;
 521:src/Chkoptn.c **** //  Note            : N/A
 522:src/Chkoptn.c **** //  Globals Changed : N/A
 523:src/Chkoptn.c **** //****************************************************************************
 524:src/Chkoptn.c **** BOOLEAN ExpiryReject(void)
 525:src/Chkoptn.c **** {
 1126              		.loc 1 525 0
ARM GAS  C:\Users\AHMED~1.ELE\AppData\Local\Temp\ccckKCu0.s 			page 30


 1127              		.cfi_startproc
 1128              		@ args = 0, pretend = 0, frame = 0
 1129              		@ frame_needed = 0, uses_anonymous_args = 0
 1130              		@ link register save eliminated.
 526:src/Chkoptn.c ****   return(STIS_ISS_TBL(0).sb_reserved[1] & 0x10);
 1131              		.loc 1 526 0
 1132 0000 034B     		ldr	r3, .L121
 1133 0002 1B68     		ldr	r3, [r3]
 1134 0004 93F8C104 		ldrb	r0, [r3, #1217]	@ zero_extendqisi2
 527:src/Chkoptn.c **** }
 1135              		.loc 1 527 0
 1136 0008 00F01000 		and	r0, r0, #16
 1137 000c 7047     		bx	lr
 1138              	.L122:
 1139 000e 00BF     		.align	2
 1140              	.L121:
 1141 0010 00000000 		.word	gGDS
 1142              		.cfi_endproc
 1143              	.LFE39:
 1144              		.size	ExpiryReject, .-ExpiryReject
 1145              		.section	.text.BlockLocalManual,"ax",%progbits
 1146              		.align	1
 1147              		.global	BlockLocalManual
 1148              		.thumb
 1149              		.thumb_func
 1150              		.type	BlockLocalManual, %function
 1151              	BlockLocalManual:
 1152              	.LFB40:
 528:src/Chkoptn.c **** //*****************************************************************************
 529:src/Chkoptn.c **** //  Function        : BlockLocalManual
 530:src/Chkoptn.c **** //  Description     : Block Local Manual Keyin transaction.
 531:src/Chkoptn.c **** //  Input           : N/A
 532:src/Chkoptn.c **** //  Return          : TRUE/FALSE;
 533:src/Chkoptn.c **** //  Note            : N/A
 534:src/Chkoptn.c **** //  Globals Changed : N/A
 535:src/Chkoptn.c **** //*****************************************************************************
 536:src/Chkoptn.c **** BOOLEAN BlockLocalManual(void)
 537:src/Chkoptn.c **** {
 1153              		.loc 1 537 0
 1154              		.cfi_startproc
 1155              		@ args = 0, pretend = 0, frame = 0
 1156              		@ frame_needed = 0, uses_anonymous_args = 0
 1157              		@ link register save eliminated.
 538:src/Chkoptn.c ****   return (STIS_ISS_TBL(0).sb_reserved[0]&0x40);
 1158              		.loc 1 538 0
 1159 0000 034B     		ldr	r3, .L124
 1160 0002 1B68     		ldr	r3, [r3]
 1161 0004 93F8C004 		ldrb	r0, [r3, #1216]	@ zero_extendqisi2
 539:src/Chkoptn.c **** }
 1162              		.loc 1 539 0
 1163 0008 00F04000 		and	r0, r0, #64
 1164 000c 7047     		bx	lr
 1165              	.L125:
 1166 000e 00BF     		.align	2
 1167              	.L124:
 1168 0010 00000000 		.word	gGDS
 1169              		.cfi_endproc
ARM GAS  C:\Users\AHMED~1.ELE\AppData\Local\Temp\ccckKCu0.s 			page 31


 1170              	.LFE40:
 1171              		.size	BlockLocalManual, .-BlockLocalManual
 1172              		.section	.text.BlockLocalSwipe,"ax",%progbits
 1173              		.align	1
 1174              		.global	BlockLocalSwipe
 1175              		.thumb
 1176              		.thumb_func
 1177              		.type	BlockLocalSwipe, %function
 1178              	BlockLocalSwipe:
 1179              	.LFB41:
 540:src/Chkoptn.c **** //*****************************************************************************
 541:src/Chkoptn.c **** //  Function        : BlockLocalSwipe
 542:src/Chkoptn.c **** //  Description     : Block Local SWIPE transaction.
 543:src/Chkoptn.c **** //  Input           : N/A
 544:src/Chkoptn.c **** //  Return          : TRUE/FALSE;
 545:src/Chkoptn.c **** //  Note            : N/A
 546:src/Chkoptn.c **** //  Globals Changed : N/A
 547:src/Chkoptn.c **** //*****************************************************************************
 548:src/Chkoptn.c **** BOOLEAN BlockLocalSwipe(void)
 549:src/Chkoptn.c **** {
 1180              		.loc 1 549 0
 1181              		.cfi_startproc
 1182              		@ args = 0, pretend = 0, frame = 0
 1183              		@ frame_needed = 0, uses_anonymous_args = 0
 1184              		@ link register save eliminated.
 550:src/Chkoptn.c ****   return (STIS_ISS_TBL(0).sb_reserved[0]&0x20);
 1185              		.loc 1 550 0
 1186 0000 034B     		ldr	r3, .L127
 1187 0002 1B68     		ldr	r3, [r3]
 1188 0004 93F8C004 		ldrb	r0, [r3, #1216]	@ zero_extendqisi2
 551:src/Chkoptn.c **** }
 1189              		.loc 1 551 0
 1190 0008 00F02000 		and	r0, r0, #32
 1191 000c 7047     		bx	lr
 1192              	.L128:
 1193 000e 00BF     		.align	2
 1194              	.L127:
 1195 0010 00000000 		.word	gGDS
 1196              		.cfi_endproc
 1197              	.LFE41:
 1198              		.size	BlockLocalSwipe, .-BlockLocalSwipe
 1199              		.section	.text.Track1Enable,"ax",%progbits
 1200              		.align	1
 1201              		.global	Track1Enable
 1202              		.thumb
 1203              		.thumb_func
 1204              		.type	Track1Enable, %function
 1205              	Track1Enable:
 1206              	.LFB42:
 552:src/Chkoptn.c **** //*****************************************************************************
 553:src/Chkoptn.c **** //  Function        : Track1Enable
 554:src/Chkoptn.c **** //  Description     : Check for Track 1 enable parameter.
 555:src/Chkoptn.c **** //  Input           : N/A
 556:src/Chkoptn.c **** //  Return          : TRUE/FALSE;
 557:src/Chkoptn.c **** //  Note            : N/A
 558:src/Chkoptn.c **** //  Globals Changed : N/A
 559:src/Chkoptn.c **** //*****************************************************************************
ARM GAS  C:\Users\AHMED~1.ELE\AppData\Local\Temp\ccckKCu0.s 			page 32


 560:src/Chkoptn.c **** BOOLEAN Track1Enable(void)
 561:src/Chkoptn.c **** {
 1207              		.loc 1 561 0
 1208              		.cfi_startproc
 1209              		@ args = 0, pretend = 0, frame = 0
 1210              		@ frame_needed = 0, uses_anonymous_args = 0
 1211              		@ link register save eliminated.
 562:src/Chkoptn.c ****   return (STIS_ISS_TBL(0).sb_reserved[1] & 0x20);
 1212              		.loc 1 562 0
 1213 0000 034B     		ldr	r3, .L130
 1214 0002 1B68     		ldr	r3, [r3]
 1215 0004 93F8C104 		ldrb	r0, [r3, #1217]	@ zero_extendqisi2
 563:src/Chkoptn.c **** }
 1216              		.loc 1 563 0
 1217 0008 00F02000 		and	r0, r0, #32
 1218 000c 7047     		bx	lr
 1219              	.L131:
 1220 000e 00BF     		.align	2
 1221              	.L130:
 1222 0010 00000000 		.word	gGDS
 1223              		.cfi_endproc
 1224              	.LFE42:
 1225              		.size	Track1Enable, .-Track1Enable
 1226              		.section	.text.EMVProcDisable,"ax",%progbits
 1227              		.align	1
 1228              		.global	EMVProcDisable
 1229              		.thumb
 1230              		.thumb_func
 1231              		.type	EMVProcDisable, %function
 1232              	EMVProcDisable:
 1233              	.LFB43:
 564:src/Chkoptn.c **** //*****************************************************************************
 565:src/Chkoptn.c **** //  Function        : EMVProcDisable
 566:src/Chkoptn.c **** //  Description     : Check whether EMV process is disable.
 567:src/Chkoptn.c **** //  Input           : N/A
 568:src/Chkoptn.c **** //  Return          : TRUE/FALSE;
 569:src/Chkoptn.c **** //  Note            : N/A
 570:src/Chkoptn.c **** //  Globals Changed : N/A
 571:src/Chkoptn.c **** //*****************************************************************************
 572:src/Chkoptn.c **** BOOLEAN EMVProcDisable(void)
 573:src/Chkoptn.c **** {
 1234              		.loc 1 573 0
 1235              		.cfi_startproc
 1236              		@ args = 0, pretend = 0, frame = 0
 1237              		@ frame_needed = 0, uses_anonymous_args = 0
 1238              		@ link register save eliminated.
 574:src/Chkoptn.c ****   return (STIS_ISS_TBL(0).sb_reserved[3]&0x02);
 1239              		.loc 1 574 0
 1240 0000 034B     		ldr	r3, .L133
 1241 0002 1B68     		ldr	r3, [r3]
 1242 0004 93F8C304 		ldrb	r0, [r3, #1219]	@ zero_extendqisi2
 575:src/Chkoptn.c **** }
 1243              		.loc 1 575 0
 1244 0008 00F00200 		and	r0, r0, #2
 1245 000c 7047     		bx	lr
 1246              	.L134:
 1247 000e 00BF     		.align	2
ARM GAS  C:\Users\AHMED~1.ELE\AppData\Local\Temp\ccckKCu0.s 			page 33


 1248              	.L133:
 1249 0010 00000000 		.word	gGDS
 1250              		.cfi_endproc
 1251              	.LFE43:
 1252              		.size	EMVProcDisable, .-EMVProcDisable
 1253              		.text
 1254              	.Letext0:
 1255              		.file 2 "../LibA5T1000/common.h"
 1256              		.file 3 "../LibA5T1000/emv2dll.h"
 1257              		.file 4 "../LibA5T1000/emvcl2dll.h"
 1258              		.file 5 "../LibA5T1000/ecrdll.h"
 1259              		.file 6 "../LibA5T1000/apm.h"
 1260              		.file 7 "src/sysutil.h"
 1261              		.file 8 "src/corevar.h"
 1262              		.file 9 "../LibA5T1000/util.h"