ARM GAS  C:\Users\AHMED~1.ELE\AppData\Local\Temp\ccx841Kd.s 			page 1


   1              		.syntax unified
   2              		.cpu cortex-a5
   3              		.fpu softvfp
   4              		.eabi_attribute 20, 1
   5              		.eabi_attribute 21, 1
   6              		.eabi_attribute 23, 3
   7              		.eabi_attribute 24, 1
   8              		.eabi_attribute 25, 1
   9              		.eabi_attribute 26, 1
  10              		.eabi_attribute 30, 4
  11              		.eabi_attribute 34, 0
  12              		.eabi_attribute 18, 4
  13              		.thumb
  14              		.file	"corevar.c"
  15              		.text
  16              	.Ltext0:
  17              		.cfi_sections	.debug_frame
  18              		.section	.text.DataFileInit,"ax",%progbits
  19              		.align	1
  20              		.global	DataFileInit
  21              		.thumb
  22              		.thumb_func
  23              		.type	DataFileInit, %function
  24              	DataFileInit:
  25              	.LFB0:
  26              		.file 1 "src/corevar.c"
   1:src/corevar.c **** //-----------------------------------------------------------------------------
   2:src/corevar.c **** //  File          : corevar.c
   3:src/corevar.c **** //  Module        :
   4:src/corevar.c **** //  Description   : Include Globals variables for EDC.
   5:src/corevar.c **** //  Author        : Lewis
   6:src/corevar.c **** //  Notes         :
   7:src/corevar.c **** //
   8:src/corevar.c **** // ============================================================================
   9:src/corevar.c **** // | Naming conventions                                                       |
  10:src/corevar.c **** // | ~~~~~~~~~~~~~~~~~~                                                       |
  11:src/corevar.c **** // |        Struct define : Leading T                                         |
  12:src/corevar.c **** // |         Struct/Array : Leading s                                         |
  13:src/corevar.c **** // |             Constant : Leading K                                         |
  14:src/corevar.c **** // |      Global Variable : Leading g  (variable use outside one C file)      |
  15:src/corevar.c **** // |                                                                          |
  16:src/corevar.c **** // |   BYTE( 8 Bits) size : Leading b                                         |
  17:src/corevar.c **** // |   CHAR( 8 Bits) size : Leading c                                         |
  18:src/corevar.c **** // |   WORD(16 Bits) size : Leading w                                         |
  19:src/corevar.c **** // |  DWORD(32 Bits) size : Leading d                                         |
  20:src/corevar.c **** // |    int(32 Bits) size : Leading i                                         |
  21:src/corevar.c **** // | DDWORD(64 Bits) size : Leading dd                                        |
  22:src/corevar.c **** // |              Pointer : Leading p                                         |
  23:src/corevar.c **** // |                                                                          |
  24:src/corevar.c **** // |    Function argument : Leading a                                         |
  25:src/corevar.c **** // |       Local Variable : All lower case                                    |
  26:src/corevar.c **** // |                                                                          |
  27:src/corevar.c **** // | Examples:                                                                |
  28:src/corevar.c **** // |                Array : Leading s, (sb = arrary of byte, etc)             |
  29:src/corevar.c **** // |              Pointer : Leading p, (pb = pointer of byte, etc)            |
  30:src/corevar.c **** // ============================================================================
  31:src/corevar.c **** //
ARM GAS  C:\Users\AHMED~1.ELE\AppData\Local\Temp\ccx841Kd.s 			page 2


  32:src/corevar.c **** //  Date          Who         Action
  33:src/corevar.c **** //  ------------  ----------- -------------------------------------------------
  34:src/corevar.c **** //  29 Sept 2008  Lewis       Initial Version.
  35:src/corevar.c **** //-----------------------------------------------------------------------------
  36:src/corevar.c **** #include <string.h>
  37:src/corevar.c **** #include "midware.h"
  38:src/corevar.c **** #include "hardware.h"
  39:src/corevar.c **** #include "constant.h"
  40:src/corevar.c **** #include "util.h"
  41:src/corevar.c **** #include "corevar.h"
  42:src/corevar.c **** #include "record.h"
  43:src/corevar.c **** 
  44:src/corevar.c **** //-----------------------------------------------------------------------------
  45:src/corevar.c **** //      Global Data Structure
  46:src/corevar.c **** //-----------------------------------------------------------------------------
  47:src/corevar.c **** struct GDS *gGDS;
  48:src/corevar.c **** struct APPDATA gAppDat;
  49:src/corevar.c **** 
  50:src/corevar.c **** //----------------------------------------------------------------------
  51:src/corevar.c **** //  Application data file
  52:src/corevar.c **** //----------------------------------------------------------------------
  53:src/corevar.c **** int gAppDatHdl = -1;
  54:src/corevar.c **** static const char KAppDatFile[] = {"EDCFILE"};
  55:src/corevar.c **** 
  56:src/corevar.c **** //*****************************************************************************
  57:src/corevar.c **** //  Function        : DataFileInit
  58:src/corevar.c **** //  Description     : Init. Data file.
  59:src/corevar.c **** //  Input           : N/A
  60:src/corevar.c **** //  Return          : N/A
  61:src/corevar.c **** //  Note            : N/A
  62:src/corevar.c **** //  Globals Changed : N/A
  63:src/corevar.c **** //*****************************************************************************
  64:src/corevar.c **** void DataFileInit(void)
  65:src/corevar.c **** {
  27              		.loc 1 65 0
  28              		.cfi_startproc
  29              		@ args = 0, pretend = 0, frame = 464
  30              		@ frame_needed = 0, uses_anonymous_args = 0
  31 0000 F0B5     		push	{r4, r5, r6, r7, lr}
  32              		.cfi_def_cfa_offset 20
  33              		.cfi_offset 4, -20
  34              		.cfi_offset 5, -16
  35              		.cfi_offset 6, -12
  36              		.cfi_offset 7, -8
  37              		.cfi_offset 14, -4
  66:src/corevar.c ****   BYTE filename[32];
  67:src/corevar.c ****   struct APPDATA app_data;
  68:src/corevar.c **** 
  69:src/corevar.c ****   strcpy(filename, KAppDatFile);
  70:src/corevar.c ****   gAppDatHdl = fOpenMW(filename);
  38              		.loc 1 70 0
  39 0002 0026     		movs	r6, #0
  65:src/corevar.c ****   BYTE filename[32];
  40              		.loc 1 65 0
  41 0004 F7B0     		sub	sp, sp, #476
  42              		.cfi_def_cfa_offset 496
  69:src/corevar.c ****   gAppDatHdl = fOpenMW(filename);
ARM GAS  C:\Users\AHMED~1.ELE\AppData\Local\Temp\ccx841Kd.s 			page 3


  43              		.loc 1 69 0
  44 0006 2F49     		ldr	r1, .L10
  45 0008 02A8     		add	r0, sp, #8
  46 000a FFF7FEFF 		bl	strcpy
  47              	.LVL0:
  48              		.loc 1 70 0
  49 000e 02AA     		add	r2, sp, #8
  50 0010 0096     		str	r6, [sp]
  51 0012 0F20     		movs	r0, #15
  52 0014 0D21     		movs	r1, #13
  53 0016 3346     		mov	r3, r6
  54 0018 FFF7FEFF 		bl	lib_app_call
  55              	.LVL1:
  56 001c 2A4C     		ldr	r4, .L10+4
  71:src/corevar.c ****   if (gAppDatHdl < 0) {
  57              		.loc 1 71 0
  58 001e B042     		cmp	r0, r6
  70:src/corevar.c ****   if (gAppDatHdl < 0) {
  59              		.loc 1 70 0
  60 0020 0246     		mov	r2, r0
  61 0022 2060     		str	r0, [r4]
  62              		.loc 1 71 0
  63 0024 36DA     		bge	.L2
  64              	.LVL2:
  65              	.LBB2:
  72:src/corevar.c ****     DispLineMW("Create: EDCFile", MW_MAX_LINE, MW_CLREOL|MW_SPFONT);
  66              		.loc 1 72 0
  67 0026 9220     		movs	r0, #146
  68 0028 1021     		movs	r1, #16
  69 002a FFF7FEFF 		bl	sys_func1
  70              	.LVL3:
  71 002e 0546     		mov	r5, r0
  72 0030 90B1     		cbz	r0, .L3
  73              		.loc 1 72 0 is_stmt 0 discriminator 1
  74 0032 2649     		ldr	r1, .L10+8
  75 0034 0F22     		movs	r2, #15
  76 0036 FFF7FEFF 		bl	memcpy
  77              	.LVL4:
  78 003a 42F22003 		movw	r3, #8224
  79 003e EE73     		strb	r6, [r5, #15]
  80 0040 2521     		movs	r1, #37
  81 0042 0093     		str	r3, [sp]
  82 0044 0F20     		movs	r0, #15
  83 0046 2A46     		mov	r2, r5
  84 0048 4FF41063 		mov	r3, #2304
  85 004c FFF7FEFF 		bl	lib_app_call
  86              	.LVL5:
  87 0050 9420     		movs	r0, #148
  88 0052 2946     		mov	r1, r5
  89 0054 FFF7FEFF 		bl	sys_func1
  90              	.LVL6:
  91              	.L3:
  92              	.LBE2:
  73:src/corevar.c ****     gAppDatHdl = fCreateMW(filename, FALSE);
  93              		.loc 1 73 0 is_stmt 1
  94 0058 0025     		movs	r5, #0
  95              	.LVL7:
ARM GAS  C:\Users\AHMED~1.ELE\AppData\Local\Temp\ccx841Kd.s 			page 4


  96 005a 2B46     		mov	r3, r5
  97 005c 0B21     		movs	r1, #11
  98 005e 02AA     		add	r2, sp, #8
  99 0060 0095     		str	r5, [sp]
 100 0062 0F20     		movs	r0, #15
 101 0064 FFF7FEFF 		bl	lib_app_call
 102              	.LVL8:
  74:src/corevar.c ****     memset(&app_data, 0, sizeof(struct APPDATA));
 103              		.loc 1 74 0
 104 0068 4FF4D877 		mov	r7, #432
 105 006c 2946     		mov	r1, r5
 106 006e 3A46     		mov	r2, r7
  73:src/corevar.c ****     gAppDatHdl = fCreateMW(filename, FALSE);
 107              		.loc 1 73 0
 108 0070 0646     		mov	r6, r0
 109 0072 2060     		str	r0, [r4]
 110              		.loc 1 74 0
 111 0074 0AA8     		add	r0, sp, #40
 112 0076 FFF7FEFF 		bl	memset
 113              	.LVL9:
  75:src/corevar.c ****     fWriteMW(gAppDatHdl, &app_data, sizeof(struct APPDATA));
 114              		.loc 1 75 0
 115 007a 1221     		movs	r1, #18
 116 007c 3246     		mov	r2, r6
 117 007e 0AAB     		add	r3, sp, #40
 118 0080 0097     		str	r7, [sp]
 119 0082 0F20     		movs	r0, #15
 120 0084 FFF7FEFF 		bl	lib_app_call
 121              	.LVL10:
  76:src/corevar.c ****     fCommitAllMW();
 122              		.loc 1 76 0
 123 0088 0095     		str	r5, [sp]
 124 008a 0F20     		movs	r0, #15
 125 008c 1321     		movs	r1, #19
 126 008e 2A46     		mov	r2, r5
 127 0090 2B46     		mov	r3, r5
 128 0092 05E0     		b	.L8
 129              	.LVL11:
 130              	.L2:
  77:src/corevar.c ****   }
  78:src/corevar.c ****   else
  79:src/corevar.c ****     fReadMW(gAppDatHdl, &app_data, sizeof(struct APPDATA));
 131              		.loc 1 79 0
 132 0094 4FF4D873 		mov	r3, #432
 133 0098 0F20     		movs	r0, #15
 134 009a 0093     		str	r3, [sp]
 135 009c 1121     		movs	r1, #17
 136 009e 0AAB     		add	r3, sp, #40
 137              	.L8:
 138 00a0 FFF7FEFF 		bl	lib_app_call
 139              	.LVL12:
  80:src/corevar.c **** 
  81:src/corevar.c ****   fCloseMW(gAppDatHdl);
 140              		.loc 1 81 0
 141 00a4 0023     		movs	r3, #0
 142 00a6 2268     		ldr	r2, [r4]
 143 00a8 0093     		str	r3, [sp]
ARM GAS  C:\Users\AHMED~1.ELE\AppData\Local\Temp\ccx841Kd.s 			page 5


 144 00aa 0E21     		movs	r1, #14
 145 00ac 0F20     		movs	r0, #15
 146 00ae FFF7FEFF 		bl	lib_app_call
 147              	.LVL13:
  82:src/corevar.c **** 
  83:src/corevar.c ****   memcpy(&gAppDat, &app_data, sizeof(struct APPDATA));
 148              		.loc 1 83 0
 149 00b2 0AA9     		add	r1, sp, #40
 150 00b4 4FF4D872 		mov	r2, #432
 151 00b8 0548     		ldr	r0, .L10+12
 152 00ba FFF7FEFF 		bl	memcpy
 153              	.LVL14:
  84:src/corevar.c **** }
 154              		.loc 1 84 0
 155 00be 77B0     		add	sp, sp, #476
 156              		.cfi_def_cfa_offset 20
 157              		@ sp needed
 158 00c0 F0BD     		pop	{r4, r5, r6, r7, pc}
 159              	.L11:
 160 00c2 00BF     		.align	2
 161              	.L10:
 162 00c4 00000000 		.word	.LANCHOR0
 163 00c8 00000000 		.word	.LANCHOR1
 164 00cc 00000000 		.word	.LC0
 165 00d0 00000000 		.word	gAppDat
 166              		.cfi_endproc
 167              	.LFE0:
 168              		.size	DataFileInit, .-DataFileInit
 169              		.section	.text.DataFileUpdate,"ax",%progbits
 170              		.align	1
 171              		.global	DataFileUpdate
 172              		.thumb
 173              		.thumb_func
 174              		.type	DataFileUpdate, %function
 175              	DataFileUpdate:
 176              	.LFB1:
  85:src/corevar.c **** //*****************************************************************************
  86:src/corevar.c **** //  Function        : DataFileUpdate
  87:src/corevar.c **** //  Description     : Update Data File from memory.
  88:src/corevar.c **** //  Input           : N/A
  89:src/corevar.c **** //  Return          : N/A
  90:src/corevar.c **** //  Note            : N/A
  91:src/corevar.c **** //  Globals Changed : N/A
  92:src/corevar.c **** //*****************************************************************************
  93:src/corevar.c **** void DataFileUpdate(void)
  94:src/corevar.c **** {
 177              		.loc 1 94 0
 178              		.cfi_startproc
 179              		@ args = 0, pretend = 0, frame = 464
 180              		@ frame_needed = 0, uses_anonymous_args = 0
 181 0000 70B5     		push	{r4, r5, r6, lr}
 182              		.cfi_def_cfa_offset 16
 183              		.cfi_offset 4, -16
 184              		.cfi_offset 5, -12
 185              		.cfi_offset 6, -8
 186              		.cfi_offset 14, -4
  95:src/corevar.c ****   struct APPDATA app_dat;
ARM GAS  C:\Users\AHMED~1.ELE\AppData\Local\Temp\ccx841Kd.s 			page 6


  96:src/corevar.c ****   BYTE filename[32];
  97:src/corevar.c **** 
  98:src/corevar.c ****   memcpy(&app_dat, &gAppDat, sizeof(struct APPDATA));
 187              		.loc 1 98 0
 188 0002 4FF4D876 		mov	r6, #432
  94:src/corevar.c ****   struct APPDATA app_dat;
 189              		.loc 1 94 0
 190 0006 F6B0     		sub	sp, sp, #472
 191              		.cfi_def_cfa_offset 488
  99:src/corevar.c **** 
 100:src/corevar.c ****   strcpy(filename, KAppDatFile);
 101:src/corevar.c ****   gAppDatHdl = fOpenMW(filename);
 192              		.loc 1 101 0
 193 0008 0024     		movs	r4, #0
  98:src/corevar.c **** 
 194              		.loc 1 98 0
 195 000a 3246     		mov	r2, r6
 196 000c 0AA8     		add	r0, sp, #40
 197 000e 1349     		ldr	r1, .L13
 198 0010 FFF7FEFF 		bl	memcpy
 199              	.LVL15:
 100:src/corevar.c ****   gAppDatHdl = fOpenMW(filename);
 200              		.loc 1 100 0
 201 0014 02A8     		add	r0, sp, #8
 202 0016 1249     		ldr	r1, .L13+4
 203 0018 FFF7FEFF 		bl	strcpy
 204              	.LVL16:
 205              		.loc 1 101 0
 206 001c 02AA     		add	r2, sp, #8
 207 001e 2346     		mov	r3, r4
 208 0020 0094     		str	r4, [sp]
 209 0022 0D21     		movs	r1, #13
 210 0024 0F20     		movs	r0, #15
 211 0026 FFF7FEFF 		bl	lib_app_call
 212              	.LVL17:
 213 002a 0E4D     		ldr	r5, .L13+8
 102:src/corevar.c ****   fWriteMW(gAppDatHdl, &app_dat, sizeof(struct APPDATA));
 214              		.loc 1 102 0
 215 002c 0AAB     		add	r3, sp, #40
 216 002e 0096     		str	r6, [sp]
 101:src/corevar.c ****   fWriteMW(gAppDatHdl, &app_dat, sizeof(struct APPDATA));
 217              		.loc 1 101 0
 218 0030 0246     		mov	r2, r0
 219 0032 2860     		str	r0, [r5]
 220              		.loc 1 102 0
 221 0034 1221     		movs	r1, #18
 222 0036 0F20     		movs	r0, #15
 223 0038 FFF7FEFF 		bl	lib_app_call
 224              	.LVL18:
 103:src/corevar.c ****   fCommitAllMW();
 225              		.loc 1 103 0
 226 003c 2246     		mov	r2, r4
 227 003e 2346     		mov	r3, r4
 228 0040 0094     		str	r4, [sp]
 229 0042 1321     		movs	r1, #19
 230 0044 0F20     		movs	r0, #15
 231 0046 FFF7FEFF 		bl	lib_app_call
ARM GAS  C:\Users\AHMED~1.ELE\AppData\Local\Temp\ccx841Kd.s 			page 7


 232              	.LVL19:
 104:src/corevar.c ****   fCloseMW(gAppDatHdl);
 233              		.loc 1 104 0
 234 004a 0094     		str	r4, [sp]
 235 004c 0E21     		movs	r1, #14
 236 004e 2A68     		ldr	r2, [r5]
 237 0050 2346     		mov	r3, r4
 238 0052 0F20     		movs	r0, #15
 239 0054 FFF7FEFF 		bl	lib_app_call
 240              	.LVL20:
 105:src/corevar.c **** 
 106:src/corevar.c **** }
 241              		.loc 1 106 0
 242 0058 76B0     		add	sp, sp, #472
 243              		.cfi_def_cfa_offset 16
 244              		@ sp needed
 245 005a 70BD     		pop	{r4, r5, r6, pc}
 246              	.L14:
 247              		.align	2
 248              	.L13:
 249 005c 00000000 		.word	gAppDat
 250 0060 00000000 		.word	.LANCHOR0
 251 0064 00000000 		.word	.LANCHOR1
 252              		.cfi_endproc
 253              	.LFE1:
 254              		.size	DataFileUpdate, .-DataFileUpdate
 255              		.section	.text.DataFileClose,"ax",%progbits
 256              		.align	1
 257              		.global	DataFileClose
 258              		.thumb
 259              		.thumb_func
 260              		.type	DataFileClose, %function
 261              	DataFileClose:
 262              	.LFB2:
 107:src/corevar.c **** //*****************************************************************************
 108:src/corevar.c **** //  Function        : DataFileClose
 109:src/corevar.c **** //  Description     : Close local data file.
 110:src/corevar.c **** //  Input           : N/A
 111:src/corevar.c **** //  Return          : N/A
 112:src/corevar.c **** //  Note            : N/A
 113:src/corevar.c **** //  Globals Changed : N/A
 114:src/corevar.c **** //*****************************************************************************
 115:src/corevar.c **** void DataFileClose(void)
 116:src/corevar.c **** {
 263              		.loc 1 116 0
 264              		.cfi_startproc
 265              		@ args = 0, pretend = 0, frame = 464
 266              		@ frame_needed = 0, uses_anonymous_args = 0
 267 0000 F0B5     		push	{r4, r5, r6, r7, lr}
 268              		.cfi_def_cfa_offset 20
 269              		.cfi_offset 4, -20
 270              		.cfi_offset 5, -16
 271              		.cfi_offset 6, -12
 272              		.cfi_offset 7, -8
 273              		.cfi_offset 14, -4
 117:src/corevar.c ****   struct APPDATA app_dat;
 118:src/corevar.c ****   BYTE filename[32];
ARM GAS  C:\Users\AHMED~1.ELE\AppData\Local\Temp\ccx841Kd.s 			page 8


 119:src/corevar.c **** 
 120:src/corevar.c ****   strcpy(filename, KAppDatFile);
 121:src/corevar.c ****   gAppDatHdl = fOpenMW(filename);
 274              		.loc 1 121 0
 275 0002 0024     		movs	r4, #0
 116:src/corevar.c ****   struct APPDATA app_dat;
 276              		.loc 1 116 0
 277 0004 F7B0     		sub	sp, sp, #476
 278              		.cfi_def_cfa_offset 496
 120:src/corevar.c ****   gAppDatHdl = fOpenMW(filename);
 279              		.loc 1 120 0
 280 0006 02A8     		add	r0, sp, #8
 281 0008 1649     		ldr	r1, .L16
 282 000a FFF7FEFF 		bl	strcpy
 283              	.LVL21:
 284              		.loc 1 121 0
 285 000e 2346     		mov	r3, r4
 286 0010 02AA     		add	r2, sp, #8
 287 0012 0094     		str	r4, [sp]
 288 0014 0D21     		movs	r1, #13
 289 0016 0F20     		movs	r0, #15
 290 0018 FFF7FEFF 		bl	lib_app_call
 291              	.LVL22:
 292 001c 124D     		ldr	r5, .L16+4
 122:src/corevar.c **** 
 123:src/corevar.c ****   memcpy(&app_dat, &gAppDat, sizeof(struct APPDATA));
 293              		.loc 1 123 0
 294 001e 4FF4D877 		mov	r7, #432
 295 0022 3A46     		mov	r2, r7
 121:src/corevar.c **** 
 296              		.loc 1 121 0
 297 0024 0646     		mov	r6, r0
 298 0026 2860     		str	r0, [r5]
 299              		.loc 1 123 0
 300 0028 1049     		ldr	r1, .L16+8
 301 002a 0AA8     		add	r0, sp, #40
 302 002c FFF7FEFF 		bl	memcpy
 303              	.LVL23:
 124:src/corevar.c ****   fWriteMW(gAppDatHdl, &app_dat, sizeof(struct APPDATA));
 304              		.loc 1 124 0
 305 0030 3246     		mov	r2, r6
 306 0032 0AAB     		add	r3, sp, #40
 307 0034 0097     		str	r7, [sp]
 308 0036 1221     		movs	r1, #18
 309 0038 0F20     		movs	r0, #15
 310 003a FFF7FEFF 		bl	lib_app_call
 311              	.LVL24:
 125:src/corevar.c ****   fCloseMW(gAppDatHdl);
 312              		.loc 1 125 0
 313 003e 2A68     		ldr	r2, [r5]
 314 0040 2346     		mov	r3, r4
 315 0042 0094     		str	r4, [sp]
 316 0044 0E21     		movs	r1, #14
 317 0046 0F20     		movs	r0, #15
 318 0048 FFF7FEFF 		bl	lib_app_call
 319              	.LVL25:
 126:src/corevar.c ****   fCommitAllMW();
ARM GAS  C:\Users\AHMED~1.ELE\AppData\Local\Temp\ccx841Kd.s 			page 9


 320              		.loc 1 126 0
 321 004c 2346     		mov	r3, r4
 322 004e 0094     		str	r4, [sp]
 323 0050 1321     		movs	r1, #19
 324 0052 2246     		mov	r2, r4
 325 0054 0F20     		movs	r0, #15
 326 0056 FFF7FEFF 		bl	lib_app_call
 327              	.LVL26:
 127:src/corevar.c ****   gAppDatHdl = -1;
 328              		.loc 1 127 0
 329 005a 4FF0FF33 		mov	r3, #-1
 330 005e 2B60     		str	r3, [r5]
 128:src/corevar.c **** }
 331              		.loc 1 128 0
 332 0060 77B0     		add	sp, sp, #476
 333              		.cfi_def_cfa_offset 20
 334              		@ sp needed
 335 0062 F0BD     		pop	{r4, r5, r6, r7, pc}
 336              	.L17:
 337              		.align	2
 338              	.L16:
 339 0064 00000000 		.word	.LANCHOR0
 340 0068 00000000 		.word	.LANCHOR1
 341 006c 00000000 		.word	gAppDat
 342              		.cfi_endproc
 343              	.LFE2:
 344              		.size	DataFileClose, .-DataFileClose
 345              		.section	.text.CorrectHost,"ax",%progbits
 346              		.align	1
 347              		.global	CorrectHost
 348              		.thumb
 349              		.thumb_func
 350              		.type	CorrectHost, %function
 351              	CorrectHost:
 352              	.LFB3:
 129:src/corevar.c **** //*****************************************************************************
 130:src/corevar.c **** //  Function        : CorrectHost
 131:src/corevar.c **** //  Description     : Check Whether Support This host.
 132:src/corevar.c **** //  Input           : aHostType;        // Host Type
 133:src/corevar.c **** //  Return          : N/A
 134:src/corevar.c **** //  Note            : N/A
 135:src/corevar.c **** //  Globals Changed : N/A
 136:src/corevar.c **** //*****************************************************************************
 137:src/corevar.c **** BOOLEAN CorrectHost(BYTE aHostType)
 138:src/corevar.c **** {
 353              		.loc 1 138 0
 354              		.cfi_startproc
 355              		@ args = 0, pretend = 0, frame = 0
 356              		@ frame_needed = 0, uses_anonymous_args = 0
 357              		@ link register save eliminated.
 358              	.LVL27:
 139:src/corevar.c ****   //return (aHostType == HANDLE_HOST_TYPE);
 140:src/corevar.c ****   return TRUE;
 141:src/corevar.c **** }
 359              		.loc 1 141 0
 360 0000 0120     		movs	r0, #1
 361              	.LVL28:
ARM GAS  C:\Users\AHMED~1.ELE\AppData\Local\Temp\ccx841Kd.s 			page 10


 362 0002 7047     		bx	lr
 363              		.cfi_endproc
 364              	.LFE3:
 365              		.size	CorrectHost, .-CorrectHost
 366              		.section	.text.GenAuthCode,"ax",%progbits
 367              		.align	1
 368              		.global	GenAuthCode
 369              		.thumb
 370              		.thumb_func
 371              		.type	GenAuthCode, %function
 372              	GenAuthCode:
 373              	.LFB4:
 142:src/corevar.c **** //*****************************************************************************
 143:src/corevar.c **** //  Function        : GenAuthCode
 144:src/corevar.c **** //  Description     : Auto generate Authorization code.
 145:src/corevar.c **** //  Input           : aAuthCode;        // pointer to 6 byte buffer
 146:src/corevar.c **** //  Return          : N/A
 147:src/corevar.c **** //  Note            : N/A
 148:src/corevar.c **** //  Globals Changed : N/A
 149:src/corevar.c **** //*****************************************************************************
 150:src/corevar.c **** void GenAuthCode(BYTE *aAuthCode)
 151:src/corevar.c **** {
 374              		.loc 1 151 0
 375              		.cfi_startproc
 376              		@ args = 0, pretend = 0, frame = 0
 377              		@ frame_needed = 0, uses_anonymous_args = 0
 378              	.LVL29:
 379 0000 38B5     		push	{r3, r4, r5, lr}
 380              		.cfi_def_cfa_offset 16
 381              		.cfi_offset 3, -16
 382              		.cfi_offset 4, -12
 383              		.cfi_offset 5, -8
 384              		.cfi_offset 14, -4
 152:src/corevar.c ****   bcdinc(gAppDat.auto_auth_code, 3);
 385              		.loc 1 152 0
 386 0002 064C     		ldr	r4, .L20
 151:src/corevar.c ****   bcdinc(gAppDat.auto_auth_code, 3);
 387              		.loc 1 151 0
 388 0004 0546     		mov	r5, r0
 389              		.loc 1 152 0
 390 0006 0321     		movs	r1, #3
 391 0008 2046     		mov	r0, r4
 392              	.LVL30:
 393 000a FFF7FEFF 		bl	bcdinc
 394              	.LVL31:
 153:src/corevar.c ****   split(aAuthCode, gAppDat.auto_auth_code, 3);
 395              		.loc 1 153 0
 396 000e 2846     		mov	r0, r5
 397 0010 2146     		mov	r1, r4
 154:src/corevar.c **** }
 398              		.loc 1 154 0
 399 0012 BDE83840 		pop	{r3, r4, r5, lr}
 400              		.cfi_restore 14
 401              		.cfi_restore 5
 402              		.cfi_restore 4
 403              		.cfi_restore 3
 404              		.cfi_def_cfa_offset 0
ARM GAS  C:\Users\AHMED~1.ELE\AppData\Local\Temp\ccx841Kd.s 			page 11


 405              	.LVL32:
 153:src/corevar.c ****   split(aAuthCode, gAppDat.auto_auth_code, 3);
 406              		.loc 1 153 0
 407 0016 0322     		movs	r2, #3
 408 0018 FFF7FEBF 		b	split
 409              	.LVL33:
 410              	.L21:
 411              		.align	2
 412              	.L20:
 413 001c 00000000 		.word	gAppDat
 414              		.cfi_endproc
 415              	.LFE4:
 416              		.size	GenAuthCode, .-GenAuthCode
 417              		.section	.text.SetDefault,"ax",%progbits
 418              		.align	1
 419              		.global	SetDefault
 420              		.thumb
 421              		.thumb_func
 422              		.type	SetDefault, %function
 423              	SetDefault:
 424              	.LFB5:
 155:src/corevar.c **** //*****************************************************************************
 156:src/corevar.c **** //  Function        : SetDefault
 157:src/corevar.c **** //  Description     : Restore to Default Setup.
 158:src/corevar.c **** //  Input           : N/A
 159:src/corevar.c **** //  Return          : N/A
 160:src/corevar.c **** //  Note            : N/A
 161:src/corevar.c **** //  Globals Changed : N/A
 162:src/corevar.c **** //*****************************************************************************
 163:src/corevar.c **** void SetDefault(void)
 164:src/corevar.c **** {
 425              		.loc 1 164 0
 426              		.cfi_startproc
 427              		@ args = 0, pretend = 0, frame = 0
 428              		@ frame_needed = 0, uses_anonymous_args = 0
 429              		@ link register save eliminated.
 165:src/corevar.c ****   memset(&gAppDat, 0, sizeof(struct APPDATA));
 430              		.loc 1 165 0
 431 0000 0248     		ldr	r0, .L23
 432 0002 0021     		movs	r1, #0
 433 0004 4FF4D872 		mov	r2, #432
 434 0008 FFF7FEBF 		b	memset
 435              	.LVL34:
 436              	.L24:
 437              		.align	2
 438              	.L23:
 439 000c 00000000 		.word	gAppDat
 440              		.cfi_endproc
 441              	.LFE5:
 442              		.size	SetDefault, .-SetDefault
 443              		.section	.text.MsgBufSetup,"ax",%progbits
 444              		.align	1
 445              		.global	MsgBufSetup
 446              		.thumb
 447              		.thumb_func
 448              		.type	MsgBufSetup, %function
 449              	MsgBufSetup:
ARM GAS  C:\Users\AHMED~1.ELE\AppData\Local\Temp\ccx841Kd.s 			page 12


 450              	.LFB6:
 166:src/corevar.c **** }
 167:src/corevar.c **** //*****************************************************************************
 168:src/corevar.c **** //  Function        : MsgBufSetup
 169:src/corevar.c **** //  Description     : Initialize pack utils for msgbuf.
 170:src/corevar.c **** //  Input           : N/A
 171:src/corevar.c **** //  Return          : N/A
 172:src/corevar.c **** //  Note            : N/A
 173:src/corevar.c **** //  Globals Changed : N/A
 174:src/corevar.c **** //*****************************************************************************
 175:src/corevar.c **** void MsgBufSetup(void)
 176:src/corevar.c **** {
 451              		.loc 1 176 0
 452              		.cfi_startproc
 453              		@ args = 0, pretend = 0, frame = 0
 454              		@ frame_needed = 0, uses_anonymous_args = 0
 455              		@ link register save eliminated.
 177:src/corevar.c ****   set_pptr(MSG_BUF.sb_content,MSG_BUF_LEN);
 456              		.loc 1 177 0
 457 0000 034B     		ldr	r3, .L26
 458 0002 4FF44061 		mov	r1, #3072
 459 0006 1868     		ldr	r0, [r3]
 460 0008 00F69C50 		addw	r0, r0, #3484
 461 000c FFF7FEBF 		b	set_pptr
 462              	.LVL35:
 463              	.L27:
 464              		.align	2
 465              	.L26:
 466 0010 00000000 		.word	gGDS
 467              		.cfi_endproc
 468              	.LFE6:
 469              		.size	MsgBufSetup, .-MsgBufSetup
 470              		.section	.text.PackMsgBufLen,"ax",%progbits
 471              		.align	1
 472              		.global	PackMsgBufLen
 473              		.thumb
 474              		.thumb_func
 475              		.type	PackMsgBufLen, %function
 476              	PackMsgBufLen:
 477              	.LFB7:
 178:src/corevar.c **** }
 179:src/corevar.c **** //*****************************************************************************
 180:src/corevar.c **** //  Function        : PackMsgBufLen
 181:src/corevar.c **** //  Description     : Update the msgbuf's len;
 182:src/corevar.c **** //  Input           : N/A
 183:src/corevar.c **** //  Return          : N/A
 184:src/corevar.c **** //  Note            : N/A
 185:src/corevar.c **** //  Globals Changed : N/A
 186:src/corevar.c **** //*****************************************************************************
 187:src/corevar.c **** void PackMsgBufLen(void)
 188:src/corevar.c **** {
 478              		.loc 1 188 0
 479              		.cfi_startproc
 480              		@ args = 0, pretend = 0, frame = 0
 481              		@ frame_needed = 0, uses_anonymous_args = 0
 189:src/corevar.c ****   MSG_BUF.d_len = get_distance();
 482              		.loc 1 189 0
ARM GAS  C:\Users\AHMED~1.ELE\AppData\Local\Temp\ccx841Kd.s 			page 13


 483 0000 034B     		ldr	r3, .L29
 188:src/corevar.c ****   MSG_BUF.d_len = get_distance();
 484              		.loc 1 188 0
 485 0002 10B5     		push	{r4, lr}
 486              		.cfi_def_cfa_offset 8
 487              		.cfi_offset 4, -8
 488              		.cfi_offset 14, -4
 489              		.loc 1 189 0
 490 0004 1C68     		ldr	r4, [r3]
 491 0006 FFF7FEFF 		bl	get_distance
 492              	.LVL36:
 493 000a C4F8980D 		str	r0, [r4, #3480]
 494 000e 10BD     		pop	{r4, pc}
 495              	.L30:
 496              		.align	2
 497              	.L29:
 498 0010 00000000 		.word	gGDS
 499              		.cfi_endproc
 500              	.LFE7:
 501              		.size	PackMsgBufLen, .-PackMsgBufLen
 502              		.section	.text.TxBufSetup,"ax",%progbits
 503              		.align	1
 504              		.global	TxBufSetup
 505              		.thumb
 506              		.thumb_func
 507              		.type	TxBufSetup, %function
 508              	TxBufSetup:
 509              	.LFB8:
 190:src/corevar.c **** }
 191:src/corevar.c **** //*****************************************************************************
 192:src/corevar.c **** //  Function        : TxBufSetup
 193:src/corevar.c **** //  Description     : Initialize pack utils for txbuf.
 194:src/corevar.c **** //  Input           : N/A
 195:src/corevar.c **** //  Return          : N/A
 196:src/corevar.c **** //  Note            : N/A
 197:src/corevar.c **** //  Globals Changed : N/A
 198:src/corevar.c **** //*****************************************************************************
 199:src/corevar.c **** void TxBufSetup(BOOLEAN aAdd2ByteLen)
 200:src/corevar.c **** {
 510              		.loc 1 200 0
 511              		.cfi_startproc
 512              		@ args = 0, pretend = 0, frame = 0
 513              		@ frame_needed = 0, uses_anonymous_args = 0
 514              	.LVL37:
 201:src/corevar.c ****   set_pptr(TX_BUF.sbContent,MSG_BUF_LEN);
 515              		.loc 1 201 0
 516 0000 084B     		ldr	r3, .L33
 200:src/corevar.c ****   set_pptr(TX_BUF.sbContent,MSG_BUF_LEN);
 517              		.loc 1 200 0
 518 0002 10B5     		push	{r4, lr}
 519              		.cfi_def_cfa_offset 8
 520              		.cfi_offset 4, -8
 521              		.cfi_offset 14, -4
 200:src/corevar.c ****   set_pptr(TX_BUF.sbContent,MSG_BUF_LEN);
 522              		.loc 1 200 0
 523 0004 0446     		mov	r4, r0
 524              		.loc 1 201 0
ARM GAS  C:\Users\AHMED~1.ELE\AppData\Local\Temp\ccx841Kd.s 			page 14


 525 0006 1868     		ldr	r0, [r3]
 526              	.LVL38:
 527 0008 4FF44061 		mov	r1, #3072
 528 000c 00F5CC50 		add	r0, r0, #6528
 529 0010 1E30     		adds	r0, r0, #30
 530 0012 FFF7FEFF 		bl	set_pptr
 531              	.LVL39:
 202:src/corevar.c ****   // pack additonal 2 byte msg len for TCP/IP connection
 203:src/corevar.c ****   if (aAdd2ByteLen)
 532              		.loc 1 203 0
 533 0016 24B1     		cbz	r4, .L31
 204:src/corevar.c ****     inc_pptr(2);
 534              		.loc 1 204 0
 535 0018 0220     		movs	r0, #2
 205:src/corevar.c **** }
 536              		.loc 1 205 0
 537 001a BDE81040 		pop	{r4, lr}
 538              		.cfi_remember_state
 539              		.cfi_restore 14
 540              		.cfi_restore 4
 541              		.cfi_def_cfa_offset 0
 204:src/corevar.c ****     inc_pptr(2);
 542              		.loc 1 204 0
 543 001e FFF7FEBF 		b	inc_pptr
 544              	.LVL40:
 545              	.L31:
 546              		.cfi_restore_state
 547 0022 10BD     		pop	{r4, pc}
 548              	.L34:
 549              		.align	2
 550              	.L33:
 551 0024 00000000 		.word	gGDS
 552              		.cfi_endproc
 553              	.LFE8:
 554              		.size	TxBufSetup, .-TxBufSetup
 555              		.section	.text.PackTxBufLen,"ax",%progbits
 556              		.align	1
 557              		.global	PackTxBufLen
 558              		.thumb
 559              		.thumb_func
 560              		.type	PackTxBufLen, %function
 561              	PackTxBufLen:
 562              	.LFB9:
 206:src/corevar.c **** //*****************************************************************************
 207:src/corevar.c **** //  Function        : PackTxBufLen
 208:src/corevar.c **** //  Description     : Update the TxBuf's len;
 209:src/corevar.c **** //  Input           : N/A
 210:src/corevar.c **** //  Return          : N/A
 211:src/corevar.c **** //  Note            : N/A
 212:src/corevar.c **** //  Globals Changed : N/A
 213:src/corevar.c **** //*****************************************************************************
 214:src/corevar.c **** void PackTxBufLen(BOOLEAN aAdd2ByteLen)
 215:src/corevar.c **** {
 563              		.loc 1 215 0
 564              		.cfi_startproc
 565              		@ args = 0, pretend = 0, frame = 0
 566              		@ frame_needed = 0, uses_anonymous_args = 0
ARM GAS  C:\Users\AHMED~1.ELE\AppData\Local\Temp\ccx841Kd.s 			page 15


 567              	.LVL41:
 568 0000 70B5     		push	{r4, r5, r6, lr}
 569              		.cfi_def_cfa_offset 16
 570              		.cfi_offset 4, -16
 571              		.cfi_offset 5, -12
 572              		.cfi_offset 6, -8
 573              		.cfi_offset 14, -4
 216:src/corevar.c ****   DWORD len;
 217:src/corevar.c **** 
 218:src/corevar.c ****   TX_BUF.wLen = get_distance();
 574              		.loc 1 218 0
 575 0002 094D     		ldr	r5, .L40
 215:src/corevar.c ****   DWORD len;
 576              		.loc 1 215 0
 577 0004 0646     		mov	r6, r0
 578              		.loc 1 218 0
 579 0006 2C68     		ldr	r4, [r5]
 580 0008 FFF7FEFF 		bl	get_distance
 581              	.LVL42:
 582 000c 04F5CC54 		add	r4, r4, #6528
 583 0010 A083     		strh	r0, [r4, #28]	@ movhi
 219:src/corevar.c ****   if (aAdd2ByteLen) {
 584              		.loc 1 219 0
 585 0012 3EB1     		cbz	r6, .L35
 220:src/corevar.c ****     len = TX_BUF.wLen - 2;
 586              		.loc 1 220 0
 587 0014 2B68     		ldr	r3, [r5]
 588 0016 03F5CC53 		add	r3, r3, #6528
 589 001a 9A8B     		ldrh	r2, [r3, #28]
 590 001c 023A     		subs	r2, r2, #2
 591              	.LVL43:
 221:src/corevar.c ****     TX_BUF.sbContent[0] = (BYTE)((len >> 8) & 0xFF);
 592              		.loc 1 221 0
 593 001e 110A     		lsrs	r1, r2, #8
 222:src/corevar.c ****     TX_BUF.sbContent[1] = (BYTE)(len & 0xFF);
 594              		.loc 1 222 0
 595 0020 DA77     		strb	r2, [r3, #31]
 221:src/corevar.c ****     TX_BUF.sbContent[0] = (BYTE)((len >> 8) & 0xFF);
 596              		.loc 1 221 0
 597 0022 9977     		strb	r1, [r3, #30]
 598              	.LVL44:
 599              	.L35:
 600 0024 70BD     		pop	{r4, r5, r6, pc}
 601              	.L41:
 602 0026 00BF     		.align	2
 603              	.L40:
 604 0028 00000000 		.word	gGDS
 605              		.cfi_endproc
 606              	.LFE9:
 607              		.size	PackTxBufLen, .-PackTxBufLen
 608              		.section	.text.RxBufSetup,"ax",%progbits
 609              		.align	1
 610              		.global	RxBufSetup
 611              		.thumb
 612              		.thumb_func
 613              		.type	RxBufSetup, %function
 614              	RxBufSetup:
ARM GAS  C:\Users\AHMED~1.ELE\AppData\Local\Temp\ccx841Kd.s 			page 16


 615              	.LFB10:
 223:src/corevar.c ****   }
 224:src/corevar.c **** }
 225:src/corevar.c **** //*****************************************************************************
 226:src/corevar.c **** //  Function        : RxBufSetup
 227:src/corevar.c **** //  Description     : Initialize pack utils for txbuf.
 228:src/corevar.c **** //  Input           : N/A
 229:src/corevar.c **** //  Return          : N/A
 230:src/corevar.c **** //  Note            : N/A
 231:src/corevar.c **** //  Globals Changed : N/A
 232:src/corevar.c **** //*****************************************************************************
 233:src/corevar.c **** void RxBufSetup(BOOLEAN aAdd2ByteLen)
 234:src/corevar.c **** {
 616              		.loc 1 234 0
 617              		.cfi_startproc
 618              		@ args = 0, pretend = 0, frame = 0
 619              		@ frame_needed = 0, uses_anonymous_args = 0
 620              	.LVL45:
 235:src/corevar.c ****   set_pptr(RX_BUF.sbContent,MSG_BUF_LEN);
 621              		.loc 1 235 0
 622 0000 084B     		ldr	r3, .L44
 234:src/corevar.c ****   set_pptr(RX_BUF.sbContent,MSG_BUF_LEN);
 623              		.loc 1 234 0
 624 0002 10B5     		push	{r4, lr}
 625              		.cfi_def_cfa_offset 8
 626              		.cfi_offset 4, -8
 627              		.cfi_offset 14, -4
 234:src/corevar.c ****   set_pptr(RX_BUF.sbContent,MSG_BUF_LEN);
 628              		.loc 1 234 0
 629 0004 0446     		mov	r4, r0
 630              		.loc 1 235 0
 631 0006 1868     		ldr	r0, [r3]
 632              	.LVL46:
 633 0008 4FF44061 		mov	r1, #3072
 634 000c 00F51650 		add	r0, r0, #9600
 635 0010 2230     		adds	r0, r0, #34
 636 0012 FFF7FEFF 		bl	set_pptr
 637              	.LVL47:
 236:src/corevar.c ****   // pack additonal 2 byte msg len for TCP/IP connection
 237:src/corevar.c ****   if (aAdd2ByteLen)
 638              		.loc 1 237 0
 639 0016 24B1     		cbz	r4, .L42
 238:src/corevar.c ****     inc_pptr(2);
 640              		.loc 1 238 0
 641 0018 0220     		movs	r0, #2
 239:src/corevar.c **** }
 642              		.loc 1 239 0
 643 001a BDE81040 		pop	{r4, lr}
 644              		.cfi_remember_state
 645              		.cfi_restore 14
 646              		.cfi_restore 4
 647              		.cfi_def_cfa_offset 0
 238:src/corevar.c ****     inc_pptr(2);
 648              		.loc 1 238 0
 649 001e FFF7FEBF 		b	inc_pptr
 650              	.LVL48:
 651              	.L42:
ARM GAS  C:\Users\AHMED~1.ELE\AppData\Local\Temp\ccx841Kd.s 			page 17


 652              		.cfi_restore_state
 653 0022 10BD     		pop	{r4, pc}
 654              	.L45:
 655              		.align	2
 656              	.L44:
 657 0024 00000000 		.word	gGDS
 658              		.cfi_endproc
 659              	.LFE10:
 660              		.size	RxBufSetup, .-RxBufSetup
 661              		.section	.text.PackRxBufLen,"ax",%progbits
 662              		.align	1
 663              		.global	PackRxBufLen
 664              		.thumb
 665              		.thumb_func
 666              		.type	PackRxBufLen, %function
 667              	PackRxBufLen:
 668              	.LFB11:
 240:src/corevar.c **** //*****************************************************************************
 241:src/corevar.c **** //  Function        : PackRxBufLen
 242:src/corevar.c **** //  Description     : Update the TxBuf's len;
 243:src/corevar.c **** //  Input           : N/A
 244:src/corevar.c **** //  Return          : N/A
 245:src/corevar.c **** //  Note            : N/A
 246:src/corevar.c **** //  Globals Changed : N/A
 247:src/corevar.c **** //*****************************************************************************
 248:src/corevar.c **** void PackRxBufLen(BOOLEAN aAdd2ByteLen)
 249:src/corevar.c **** {
 669              		.loc 1 249 0
 670              		.cfi_startproc
 671              		@ args = 0, pretend = 0, frame = 0
 672              		@ frame_needed = 0, uses_anonymous_args = 0
 673              	.LVL49:
 674 0000 70B5     		push	{r4, r5, r6, lr}
 675              		.cfi_def_cfa_offset 16
 676              		.cfi_offset 4, -16
 677              		.cfi_offset 5, -12
 678              		.cfi_offset 6, -8
 679              		.cfi_offset 14, -4
 250:src/corevar.c ****   DWORD len;
 251:src/corevar.c **** 
 252:src/corevar.c ****   RX_BUF.wLen = get_distance();
 680              		.loc 1 252 0
 681 0002 0A4D     		ldr	r5, .L51
 249:src/corevar.c ****   DWORD len;
 682              		.loc 1 249 0
 683 0004 0646     		mov	r6, r0
 684              		.loc 1 252 0
 685 0006 2C68     		ldr	r4, [r5]
 686 0008 FFF7FEFF 		bl	get_distance
 687              	.LVL50:
 688 000c 04F51654 		add	r4, r4, #9600
 689 0010 2084     		strh	r0, [r4, #32]	@ movhi
 253:src/corevar.c ****   if (aAdd2ByteLen) {
 690              		.loc 1 253 0
 691 0012 4EB1     		cbz	r6, .L46
 254:src/corevar.c ****     len = RX_BUF.wLen - 2;
 692              		.loc 1 254 0
ARM GAS  C:\Users\AHMED~1.ELE\AppData\Local\Temp\ccx841Kd.s 			page 18


 693 0014 2B68     		ldr	r3, [r5]
 694 0016 03F51653 		add	r3, r3, #9600
 695 001a 1A8C     		ldrh	r2, [r3, #32]
 696 001c 023A     		subs	r2, r2, #2
 697              	.LVL51:
 255:src/corevar.c ****     RX_BUF.sbContent[0] = (BYTE)((len >> 8) & 0xFF);
 698              		.loc 1 255 0
 699 001e 110A     		lsrs	r1, r2, #8
 256:src/corevar.c ****     RX_BUF.sbContent[1] = (BYTE)(len & 0xFF);
 700              		.loc 1 256 0
 701 0020 83F82320 		strb	r2, [r3, #35]
 255:src/corevar.c ****     RX_BUF.sbContent[0] = (BYTE)((len >> 8) & 0xFF);
 702              		.loc 1 255 0
 703 0024 83F82210 		strb	r1, [r3, #34]
 704              	.LVL52:
 705              	.L46:
 706 0028 70BD     		pop	{r4, r5, r6, pc}
 707              	.L52:
 708 002a 00BF     		.align	2
 709              	.L51:
 710 002c 00000000 		.word	gGDS
 711              		.cfi_endproc
 712              	.LFE11:
 713              		.size	PackRxBufLen, .-PackRxBufLen
 714              		.section	.text.ValidRecordCRC,"ax",%progbits
 715              		.align	1
 716              		.global	ValidRecordCRC
 717              		.thumb
 718              		.thumb_func
 719              		.type	ValidRecordCRC, %function
 720              	ValidRecordCRC:
 721              	.LFB12:
 257:src/corevar.c ****   }
 258:src/corevar.c **** }
 259:src/corevar.c **** //*****************************************************************************
 260:src/corevar.c **** //  Function        : ValidRecordCRC
 261:src/corevar.c **** //  Description     : Valid the record's crc.
 262:src/corevar.c **** //  Input           : aIdx;      // record index
 263:src/corevar.c **** //  Return          : TRUE/FALSE;
 264:src/corevar.c **** //  Note            : N/A
 265:src/corevar.c **** //  Globals Changed : N/A
 266:src/corevar.c **** //*****************************************************************************
 267:src/corevar.c **** BOOLEAN ValidRecordCRC(WORD aIdx)
 268:src/corevar.c **** {
 722              		.loc 1 268 0
 723              		.cfi_startproc
 724              		@ args = 0, pretend = 0, frame = 0
 725              		@ frame_needed = 0, uses_anonymous_args = 0
 726              	.LVL53:
 269:src/corevar.c ****   return (RECORD_BUF.w_crc == cal_crc((BYTE *)&RECORD_BUF,
 727              		.loc 1 269 0
 728 0000 074B     		ldr	r3, .L54
 268:src/corevar.c ****   return (RECORD_BUF.w_crc == cal_crc((BYTE *)&RECORD_BUF,
 729              		.loc 1 268 0
 730 0002 10B5     		push	{r4, lr}
 731              		.cfi_def_cfa_offset 8
 732              		.cfi_offset 4, -8
ARM GAS  C:\Users\AHMED~1.ELE\AppData\Local\Temp\ccx841Kd.s 			page 19


 733              		.cfi_offset 14, -4
 734              		.loc 1 269 0
 735 0004 4FF4FC71 		mov	r1, #504
 736 0008 1868     		ldr	r0, [r3]
 737              	.LVL54:
 738 000a B0F8C048 		ldrh	r4, [r0, #2240]
 739 000e 00F5D960 		add	r0, r0, #1736
 740 0012 FFF7FEFF 		bl	cal_crc
 741              	.LVL55:
 270:src/corevar.c ****                                       (BYTE *)&RECORD_BUF.w_crc-(BYTE *)&RECORD_BUF.b_trans));
 271:src/corevar.c **** }
 742              		.loc 1 271 0
 743 0016 231A     		subs	r3, r4, r0
 744 0018 5842     		rsbs	r0, r3, #0
 745 001a 5841     		adcs	r0, r0, r3
 746 001c 10BD     		pop	{r4, pc}
 747              	.L55:
 748 001e 00BF     		.align	2
 749              	.L54:
 750 0020 00000000 		.word	gGDS
 751              		.cfi_endproc
 752              	.LFE12:
 753              		.size	ValidRecordCRC, .-ValidRecordCRC
 754              		.section	.text.RefreshDispAfter,"ax",%progbits
 755              		.align	1
 756              		.global	RefreshDispAfter
 757              		.thumb
 758              		.thumb_func
 759              		.type	RefreshDispAfter, %function
 760              	RefreshDispAfter:
 761              	.LFB13:
 272:src/corevar.c **** //*****************************************************************************
 273:src/corevar.c **** //  Function        : RefreshDispAfter
 274:src/corevar.c **** //  Description     : Set Display Timer & display changed flag.
 275:src/corevar.c **** //  Input           : aSec;     // timer in sec.
 276:src/corevar.c **** //  Return          : N/A
 277:src/corevar.c **** //  Note            : N/A
 278:src/corevar.c **** //  Globals Changed : N/A
 279:src/corevar.c **** //*****************************************************************************
 280:src/corevar.c **** void RefreshDispAfter(DWORD aSec)
 281:src/corevar.c **** {
 762              		.loc 1 281 0
 763              		.cfi_startproc
 764              		@ args = 0, pretend = 0, frame = 0
 765              		@ frame_needed = 0, uses_anonymous_args = 0
 766              		@ link register save eliminated.
 767              	.LVL56:
 282:src/corevar.c ****   gGDS->b_disp_chgd = TRUE;
 768              		.loc 1 282 0
 769 0000 064B     		ldr	r3, .L57
 770 0002 0122     		movs	r2, #1
 771 0004 1B68     		ldr	r3, [r3]
 772 0006 03F57153 		add	r3, r3, #15424
 773 000a 1A74     		strb	r2, [r3, #16]
 774              	.LVL57:
 283:src/corevar.c ****   aSec *= 200;  // convert unit of 10ms
 775              		.loc 1 283 0
ARM GAS  C:\Users\AHMED~1.ELE\AppData\Local\Temp\ccx841Kd.s 			page 20


 776 000c C822     		movs	r2, #200
 284:src/corevar.c ****   TimerSetMW(gTimerHdl[TIMER_DISP], aSec);
 777              		.loc 1 284 0
 778 000e 044B     		ldr	r3, .L57+4
 283:src/corevar.c ****   aSec *= 200;  // convert unit of 10ms
 779              		.loc 1 283 0
 780 0010 4243     		muls	r2, r0, r2
 781              	.LVL58:
 782              		.loc 1 284 0
 783 0012 1968     		ldr	r1, [r3]
 784 0014 0C20     		movs	r0, #12
 785 0016 FFF7FEBF 		b	sys_func2
 786              	.LVL59:
 787              	.L58:
 788 001a 00BF     		.align	2
 789              	.L57:
 790 001c 00000000 		.word	gGDS
 791 0020 00000000 		.word	gTimerHdl
 792              		.cfi_endproc
 793              	.LFE13:
 794              		.size	RefreshDispAfter, .-RefreshDispAfter
 795              		.section	.text.FreeGDS,"ax",%progbits
 796              		.align	1
 797              		.global	FreeGDS
 798              		.thumb
 799              		.thumb_func
 800              		.type	FreeGDS, %function
 801              	FreeGDS:
 802              	.LFB14:
 285:src/corevar.c **** }
 286:src/corevar.c **** //*****************************************************************************
 287:src/corevar.c **** //  Function        : FreeGDS
 288:src/corevar.c **** //  Description     : Free GDS buffer.
 289:src/corevar.c **** //  Input           : N/A
 290:src/corevar.c **** //  Return          : N/A
 291:src/corevar.c **** //  Note            : N/A
 292:src/corevar.c **** //  Globals Changed : N/A
 293:src/corevar.c **** //*****************************************************************************
 294:src/corevar.c **** void FreeGDS(void)
 295:src/corevar.c **** {
 803              		.loc 1 295 0
 804              		.cfi_startproc
 805              		@ args = 0, pretend = 0, frame = 0
 806              		@ frame_needed = 0, uses_anonymous_args = 0
 807              		@ link register save eliminated.
 296:src/corevar.c ****   if (gGDS != NULL)
 808              		.loc 1 296 0
 809 0000 034B     		ldr	r3, .L61
 810 0002 1968     		ldr	r1, [r3]
 811 0004 11B1     		cbz	r1, .L59
 297:src/corevar.c ****     FreeMW(gGDS);
 812              		.loc 1 297 0
 813 0006 9420     		movs	r0, #148
 814 0008 FFF7FEBF 		b	sys_func1
 815              	.LVL60:
 816              	.L59:
 817 000c 7047     		bx	lr
ARM GAS  C:\Users\AHMED~1.ELE\AppData\Local\Temp\ccx841Kd.s 			page 21


 818              	.L62:
 819 000e 00BF     		.align	2
 820              	.L61:
 821 0010 00000000 		.word	gGDS
 822              		.cfi_endproc
 823              	.LFE14:
 824              		.size	FreeGDS, .-FreeGDS
 825              		.section	.text.MallocGDS,"ax",%progbits
 826              		.align	1
 827              		.global	MallocGDS
 828              		.thumb
 829              		.thumb_func
 830              		.type	MallocGDS, %function
 831              	MallocGDS:
 832              	.LFB15:
 298:src/corevar.c **** }
 299:src/corevar.c **** //*****************************************************************************
 300:src/corevar.c **** //  Function        : MallocGDS
 301:src/corevar.c **** //  Description     : Malloc all buffer required.
 302:src/corevar.c **** //  Input           : N/A
 303:src/corevar.c **** //  Return          : TRUE/FALSE;
 304:src/corevar.c **** //  Note            : N/A
 305:src/corevar.c **** //  Globals Changed : N/A
 306:src/corevar.c **** //*****************************************************************************
 307:src/corevar.c **** BOOLEAN MallocGDS(void)
 308:src/corevar.c **** {
 833              		.loc 1 308 0
 834              		.cfi_startproc
 835              		@ args = 0, pretend = 0, frame = 0
 836              		@ frame_needed = 0, uses_anonymous_args = 0
 837 0000 38B5     		push	{r3, r4, r5, lr}
 838              		.cfi_def_cfa_offset 16
 839              		.cfi_offset 3, -16
 840              		.cfi_offset 4, -12
 841              		.cfi_offset 5, -8
 842              		.cfi_offset 14, -4
 309:src/corevar.c ****   gGDS = (struct GDS *) MallocMW(sizeof(struct GDS));
 843              		.loc 1 309 0
 844 0002 44F26025 		movw	r5, #16992
 845 0006 2946     		mov	r1, r5
 846 0008 9220     		movs	r0, #146
 847 000a FFF7FEFF 		bl	sys_func1
 848              	.LVL61:
 849 000e 0A4C     		ldr	r4, .L64
 850 0010 2060     		str	r0, [r4]
 310:src/corevar.c ****   MemFatalErr(gGDS);  // Check Memory
 851              		.loc 1 310 0
 852 0012 FFF7FEFF 		bl	MemFatalErr
 853              	.LVL62:
 311:src/corevar.c ****   memset(gGDS, 0x00, sizeof(struct GDS));
 854              		.loc 1 311 0
 855 0016 2A46     		mov	r2, r5
 856 0018 2068     		ldr	r0, [r4]
 857 001a 0021     		movs	r1, #0
 858 001c FFF7FEFF 		bl	memset
 859              	.LVL63:
 312:src/corevar.c ****   gGDS->s_EMVIn.bMsg = gGDS->sb_IOBuf;
ARM GAS  C:\Users\AHMED~1.ELE\AppData\Local\Temp\ccx841Kd.s 			page 22


 860              		.loc 1 312 0
 861 0020 2368     		ldr	r3, [r4]
 313:src/corevar.c ****   gGDS->s_EMVOut.bMsg = gGDS->sb_IOBuf;
 314:src/corevar.c ****   gGDS->s_CTLIn.pbMsg = gGDS->sb_IOBuf;
 315:src/corevar.c ****   gGDS->s_CTLOut.pbMsg = gGDS->sb_IOBuf;
 316:src/corevar.c ****   return TRUE;
 317:src/corevar.c **** }
 862              		.loc 1 317 0
 863 0022 0120     		movs	r0, #1
 312:src/corevar.c ****   gGDS->s_EMVIn.bMsg = gGDS->sb_IOBuf;
 864              		.loc 1 312 0
 865 0024 03F54652 		add	r2, r3, #12672
 866 0028 2432     		adds	r2, r2, #36
 867 002a 03F55E53 		add	r3, r3, #14208
 868 002e 5A60     		str	r2, [r3, #4]
 313:src/corevar.c ****   gGDS->s_EMVOut.bMsg = gGDS->sb_IOBuf;
 869              		.loc 1 313 0
 870 0030 DA60     		str	r2, [r3, #12]
 314:src/corevar.c ****   gGDS->s_CTLOut.pbMsg = gGDS->sb_IOBuf;
 871              		.loc 1 314 0
 872 0032 5A61     		str	r2, [r3, #20]
 315:src/corevar.c ****   return TRUE;
 873              		.loc 1 315 0
 874 0034 DA61     		str	r2, [r3, #28]
 875              		.loc 1 317 0
 876 0036 38BD     		pop	{r3, r4, r5, pc}
 877              	.L65:
 878              		.align	2
 879              	.L64:
 880 0038 00000000 		.word	gGDS
 881              		.cfi_endproc
 882              	.LFE15:
 883              		.size	MallocGDS, .-MallocGDS
 884              		.section	.text.TrainingModeON,"ax",%progbits
 885              		.align	1
 886              		.global	TrainingModeON
 887              		.thumb
 888              		.thumb_func
 889              		.type	TrainingModeON, %function
 890              	TrainingModeON:
 891              	.LFB16:
 318:src/corevar.c **** //*****************************************************************************
 319:src/corevar.c **** //  Function        : TrainingModeON
 320:src/corevar.c **** //  Description     : Check training mode status;
 321:src/corevar.c **** //  Input           : N/A
 322:src/corevar.c **** //  Return          : TRUE/FALSE;     // TRUE => On.
 323:src/corevar.c **** //  Note            : N/A
 324:src/corevar.c **** //  Globals Changed : N/A
 325:src/corevar.c **** //*****************************************************************************
 326:src/corevar.c **** BOOLEAN TrainingModeON(void)
 327:src/corevar.c **** {
 892              		.loc 1 327 0
 893              		.cfi_startproc
 894              		@ args = 0, pretend = 0, frame = 0
 895              		@ frame_needed = 0, uses_anonymous_args = 0
 896              		@ link register save eliminated.
 328:src/corevar.c ****   return (STIS_TERM_DATA.w_training_status == MAGIC);
ARM GAS  C:\Users\AHMED~1.ELE\AppData\Local\Temp\ccx841Kd.s 			page 23


 897              		.loc 1 328 0
 898 0000 044B     		ldr	r3, .L67
 899 0002 1B68     		ldr	r3, [r3]
 900 0004 B3F89805 		ldrh	r0, [r3, #1432]
 329:src/corevar.c **** }
 901              		.loc 1 329 0
 902 0008 45F65A23 		movw	r3, #23130
 903 000c C31A     		subs	r3, r0, r3
 904 000e 5842     		rsbs	r0, r3, #0
 905 0010 5841     		adcs	r0, r0, r3
 906 0012 7047     		bx	lr
 907              	.L68:
 908              		.align	2
 909              	.L67:
 910 0014 00000000 		.word	gGDS
 911              		.cfi_endproc
 912              	.LFE16:
 913              		.size	TrainingModeON, .-TrainingModeON
 914              		.section	.text.IncAPMTraceNoEnd,"ax",%progbits
 915              		.align	1
 916              		.global	IncAPMTraceNoEnd
 917              		.thumb
 918              		.thumb_func
 919              		.type	IncAPMTraceNoEnd, %function
 920              	IncAPMTraceNoEnd:
 921              	.LFB17:
 330:src/corevar.c **** //*****************************************************************************
 331:src/corevar.c **** //  Function        : IncAPMTraceNoEnd
 332:src/corevar.c **** //  Description     : set fiunal Increment the system trace no & save to input & tx_data.
 333:src/corevar.c **** //  Input           : N/A
 334:src/corevar.c **** //  Return          : N/A
 335:src/corevar.c **** //  Note            : N/A
 336:src/corevar.c **** //  Globals Changed : N/A
 337:src/corevar.c **** //*****************************************************************************
 338:src/corevar.c **** void IncAPMTraceNoEnd(void)
 339:src/corevar.c **** {
 922              		.loc 1 339 0
 923              		.cfi_startproc
 924              		@ args = 0, pretend = 0, frame = 0
 925              		@ frame_needed = 0, uses_anonymous_args = 0
 926 0000 37B5     		push	{r0, r1, r2, r4, r5, lr}
 927              		.cfi_def_cfa_offset 24
 928              		.cfi_offset 4, -12
 929              		.cfi_offset 5, -8
 930              		.cfi_offset 14, -4
 340:src/corevar.c ****   bcdinc(STIS_TERM_DATA.sb_trace_no, 3);
 931              		.loc 1 340 0
 932 0002 0F4C     		ldr	r4, .L71
 933 0004 0321     		movs	r1, #3
 934 0006 2068     		ldr	r0, [r4]
 935 0008 00F28650 		addw	r0, r0, #1414
 936 000c FFF7FEFF 		bl	bcdinc
 937              	.LVL64:
 341:src/corevar.c ****   if (memcmp(STIS_TERM_DATA.sb_trace_no, "\x00\x00\x00", 3)==0)
 938              		.loc 1 341 0
 939 0010 2568     		ldr	r5, [r4]
 940 0012 0C49     		ldr	r1, .L71+4
ARM GAS  C:\Users\AHMED~1.ELE\AppData\Local\Temp\ccx841Kd.s 			page 24


 941 0014 05F28655 		addw	r5, r5, #1414
 942 0018 2846     		mov	r0, r5
 943 001a 0322     		movs	r2, #3
 944 001c FFF7FEFF 		bl	memcmp
 945              	.LVL65:
 946 0020 18B9     		cbnz	r0, .L70
 342:src/corevar.c ****     bcdinc(STIS_TERM_DATA.sb_trace_no, 3);
 947              		.loc 1 342 0
 948 0022 2846     		mov	r0, r5
 949 0024 0321     		movs	r1, #3
 950 0026 FFF7FEFF 		bl	bcdinc
 951              	.LVL66:
 952              	.L70:
 343:src/corevar.c ****   APM_SetTrace(STIS_TERM_DATA.sb_trace_no);
 953              		.loc 1 343 0
 954 002a 2268     		ldr	r2, [r4]
 955 002c 0023     		movs	r3, #0
 956 002e 2221     		movs	r1, #34
 957 0030 0093     		str	r3, [sp]
 958 0032 02F28652 		addw	r2, r2, #1414
 959 0036 1020     		movs	r0, #16
 960 0038 FFF7FEFF 		bl	lib_app_call
 961              	.LVL67:
 344:src/corevar.c **** }
 962              		.loc 1 344 0
 963 003c 03B0     		add	sp, sp, #12
 964              		.cfi_def_cfa_offset 12
 965              		@ sp needed
 966 003e 30BD     		pop	{r4, r5, pc}
 967              	.L72:
 968              		.align	2
 969              	.L71:
 970 0040 00000000 		.word	gGDS
 971 0044 08000000 		.word	.LANCHOR0+8
 972              		.cfi_endproc
 973              	.LFE17:
 974              		.size	IncAPMTraceNoEnd, .-IncAPMTraceNoEnd
 975              		.section	.text.IncAPMTraceNo,"ax",%progbits
 976              		.align	1
 977              		.global	IncAPMTraceNo
 978              		.thumb
 979              		.thumb_func
 980              		.type	IncAPMTraceNo, %function
 981              	IncAPMTraceNo:
 982              	.LFB18:
 345:src/corevar.c **** //*****************************************************************************
 346:src/corevar.c **** //  Function        : IncTraceNo
 347:src/corevar.c **** //  Description     : Increment the system trace no & save to input & tx_data.
 348:src/corevar.c **** //  Input           : N/A
 349:src/corevar.c **** //  Return          : N/A
 350:src/corevar.c **** //  Note            : N/A
 351:src/corevar.c **** //  Globals Changed : N/A
 352:src/corevar.c **** //*****************************************************************************
 353:src/corevar.c **** void IncAPMTraceNo(void)
 354:src/corevar.c **** {
 983              		.loc 1 354 0
 984              		.cfi_startproc
ARM GAS  C:\Users\AHMED~1.ELE\AppData\Local\Temp\ccx841Kd.s 			page 25


 985              		@ args = 0, pretend = 0, frame = 0
 986              		@ frame_needed = 0, uses_anonymous_args = 0
 987 0000 37B5     		push	{r0, r1, r2, r4, r5, lr}
 988              		.cfi_def_cfa_offset 24
 989              		.cfi_offset 4, -12
 990              		.cfi_offset 5, -8
 991              		.cfi_offset 14, -4
 355:src/corevar.c ****   bcdinc(STIS_TERM_DATA.sb_trace_no, 3);
 992              		.loc 1 355 0
 993 0002 0F4C     		ldr	r4, .L75
 994 0004 0321     		movs	r1, #3
 995 0006 2068     		ldr	r0, [r4]
 996 0008 00F28650 		addw	r0, r0, #1414
 997 000c FFF7FEFF 		bl	bcdinc
 998              	.LVL68:
 356:src/corevar.c ****   if (memcmp(STIS_TERM_DATA.sb_trace_no, "\x00\x00\x00", 3)==0)
 999              		.loc 1 356 0
 1000 0010 2568     		ldr	r5, [r4]
 1001 0012 0C49     		ldr	r1, .L75+4
 1002 0014 05F28655 		addw	r5, r5, #1414
 1003 0018 2846     		mov	r0, r5
 1004 001a 0322     		movs	r2, #3
 1005 001c FFF7FEFF 		bl	memcmp
 1006              	.LVL69:
 1007 0020 18B9     		cbnz	r0, .L74
 357:src/corevar.c ****     bcdinc(STIS_TERM_DATA.sb_trace_no, 3);
 1008              		.loc 1 357 0
 1009 0022 2846     		mov	r0, r5
 1010 0024 0321     		movs	r1, #3
 1011 0026 FFF7FEFF 		bl	bcdinc
 1012              	.LVL70:
 1013              	.L74:
 358:src/corevar.c ****   APM_SetTrace(STIS_TERM_DATA.sb_trace_no);
 1014              		.loc 1 358 0
 1015 002a 2268     		ldr	r2, [r4]
 1016 002c 0023     		movs	r3, #0
 1017 002e 2221     		movs	r1, #34
 1018 0030 0093     		str	r3, [sp]
 1019 0032 02F28652 		addw	r2, r2, #1414
 1020 0036 1020     		movs	r0, #16
 1021 0038 FFF7FEFF 		bl	lib_app_call
 1022              	.LVL71:
 359:src/corevar.c **** }
 1023              		.loc 1 359 0
 1024 003c 03B0     		add	sp, sp, #12
 1025              		.cfi_def_cfa_offset 12
 1026              		@ sp needed
 1027 003e 30BD     		pop	{r4, r5, pc}
 1028              	.L76:
 1029              		.align	2
 1030              	.L75:
 1031 0040 00000000 		.word	gGDS
 1032 0044 08000000 		.word	.LANCHOR0+8
 1033              		.cfi_endproc
 1034              	.LFE18:
 1035              		.size	IncAPMTraceNo, .-IncAPMTraceNo
 1036              		.section	.text.CTLEnable,"ax",%progbits
ARM GAS  C:\Users\AHMED~1.ELE\AppData\Local\Temp\ccx841Kd.s 			page 26


 1037              		.align	1
 1038              		.global	CTLEnable
 1039              		.thumb
 1040              		.thumb_func
 1041              		.type	CTLEnable, %function
 1042              	CTLEnable:
 1043              	.LFB19:
 360:src/corevar.c **** //*****************************************************************************
 361:src/corevar.c **** //  Function        : CTLEnable
 362:src/corevar.c **** //  Description     : Enable/Disable CTL trans.
 363:src/corevar.c **** //  Input           : N/A
 364:src/corevar.c **** //  Return          : N/A
 365:src/corevar.c **** //  Note            : N/A
 366:src/corevar.c **** //  Globals Changed : N/A
 367:src/corevar.c **** //******************************************************************************
 368:src/corevar.c **** void CTLEnable(BOOLEAN aEnable)
 369:src/corevar.c **** {
 1044              		.loc 1 369 0
 1045              		.cfi_startproc
 1046              		@ args = 0, pretend = 0, frame = 0
 1047              		@ frame_needed = 0, uses_anonymous_args = 0
 1048              		@ link register save eliminated.
 1049              	.LVL72:
 370:src/corevar.c ****   gAppDat.s_ctl_data.b_enable = aEnable;
 1050              		.loc 1 370 0
 1051 0000 014B     		ldr	r3, .L78
 1052 0002 1872     		strb	r0, [r3, #8]
 371:src/corevar.c ****   DataFileUpdate();
 1053              		.loc 1 371 0
 1054 0004 FFF7FEBF 		b	DataFileUpdate
 1055              	.LVL73:
 1056              	.L79:
 1057              		.align	2
 1058              	.L78:
 1059 0008 00000000 		.word	gAppDat
 1060              		.cfi_endproc
 1061              	.LFE19:
 1062              		.size	CTLEnable, .-CTLEnable
 1063              		.section	.text.CTLEnabled,"ax",%progbits
 1064              		.align	1
 1065              		.global	CTLEnabled
 1066              		.thumb
 1067              		.thumb_func
 1068              		.type	CTLEnabled, %function
 1069              	CTLEnabled:
 1070              	.LFB20:
 372:src/corevar.c **** }
 373:src/corevar.c **** //*****************************************************************************
 374:src/corevar.c **** //  Function        : CTLEnabled
 375:src/corevar.c **** //  Description     : CTL trans enabled checking.
 376:src/corevar.c **** //  Input           : N/A
 377:src/corevar.c **** //  Return          : N/A
 378:src/corevar.c **** //  Note            : N/A
 379:src/corevar.c **** //  Globals Changed : N/A
 380:src/corevar.c **** //******************************************************************************
 381:src/corevar.c **** BOOLEAN CTLEnabled(void)
 382:src/corevar.c **** {
ARM GAS  C:\Users\AHMED~1.ELE\AppData\Local\Temp\ccx841Kd.s 			page 27


 1071              		.loc 1 382 0
 1072              		.cfi_startproc
 1073              		@ args = 0, pretend = 0, frame = 0
 1074              		@ frame_needed = 0, uses_anonymous_args = 0
 1075              		@ link register save eliminated.
 383:src/corevar.c ****   return (BOOLEAN)gAppDat.s_ctl_data.b_enable;
 384:src/corevar.c **** }
 1076              		.loc 1 384 0
 1077 0000 014B     		ldr	r3, .L81
 1078 0002 187A     		ldrb	r0, [r3, #8]	@ zero_extendqisi2
 1079 0004 7047     		bx	lr
 1080              	.L82:
 1081 0006 00BF     		.align	2
 1082              	.L81:
 1083 0008 00000000 		.word	gAppDat
 1084              		.cfi_endproc
 1085              	.LFE20:
 1086              		.size	CTLEnabled, .-CTLEnabled
 1087              		.section	.text.PPPCfgUpdate,"ax",%progbits
 1088              		.align	1
 1089              		.global	PPPCfgUpdate
 1090              		.thumb
 1091              		.thumb_func
 1092              		.type	PPPCfgUpdate, %function
 1093              	PPPCfgUpdate:
 1094              	.LFB21:
 385:src/corevar.c **** //*****************************************************************************
 386:src/corevar.c **** //  Function        : PPPCfgUpdate
 387:src/corevar.c **** //  Description     : Update PPP Config for GPRS connection.
 388:src/corevar.c **** //  Input           : N/A
 389:src/corevar.c **** //  Return          : N/A
 390:src/corevar.c **** //  Note            : N/A
 391:src/corevar.c **** //  Globals Changed : N/A
 392:src/corevar.c **** //******************************************************************************
 393:src/corevar.c **** void PPPCfgUpdate(struct PPPSREG *aPppCfg)
 394:src/corevar.c **** {
 1095              		.loc 1 394 0
 1096              		.cfi_startproc
 1097              		@ args = 0, pretend = 0, frame = 0
 1098              		@ frame_needed = 0, uses_anonymous_args = 0
 1099              	.LVL74:
 1100 0000 08B5     		push	{r3, lr}
 1101              		.cfi_def_cfa_offset 8
 1102              		.cfi_offset 3, -8
 1103              		.cfi_offset 14, -4
 1104              		.loc 1 394 0
 1105 0002 0146     		mov	r1, r0
 395:src/corevar.c ****   memcpy(&gAppDat.s_ppp_cfg, aPppCfg, sizeof(struct PPPSREG));
 1106              		.loc 1 395 0
 1107 0004 4FF4D272 		mov	r2, #420
 1108 0008 0348     		ldr	r0, .L84
 1109              	.LVL75:
 1110 000a FFF7FEFF 		bl	memcpy
 1111              	.LVL76:
 396:src/corevar.c ****   DataFileUpdate();
 397:src/corevar.c **** }
 1112              		.loc 1 397 0
ARM GAS  C:\Users\AHMED~1.ELE\AppData\Local\Temp\ccx841Kd.s 			page 28


 1113 000e BDE80840 		pop	{r3, lr}
 1114              		.cfi_restore 14
 1115              		.cfi_restore 3
 1116              		.cfi_def_cfa_offset 0
 396:src/corevar.c ****   DataFileUpdate();
 1117              		.loc 1 396 0
 1118 0012 FFF7FEBF 		b	DataFileUpdate
 1119              	.LVL77:
 1120              	.L85:
 1121 0016 00BF     		.align	2
 1122              	.L84:
 1123 0018 0C000000 		.word	gAppDat+12
 1124              		.cfi_endproc
 1125              	.LFE21:
 1126              		.size	PPPCfgUpdate, .-PPPCfgUpdate
 1127              		.global	gAppDatHdl
 1128              		.comm	gAppDat,432,4
 1129              		.comm	gGDS,4,4
 1130              		.section	.rodata
 1131              		.set	.LANCHOR0,. + 0
 1132              		.type	KAppDatFile, %object
 1133              		.size	KAppDatFile, 8
 1134              	KAppDatFile:
 1135 0000 45444346 		.ascii	"EDCFILE\000"
 1135      494C4500 
 1136              	.LC1:
 1137 0008 00000000 		.ascii	"\000\000\000\000"
 1138              		.section	.rodata.str1.1,"aMS",%progbits,1
 1139              	.LC0:
 1140 0000 43726561 		.ascii	"Create: EDCFile\000"
 1140      74653A20 
 1140      45444346 
 1140      696C6500 
 1141              		.data
 1142              		.align	2
 1143              		.set	.LANCHOR1,. + 0
 1144              		.type	gAppDatHdl, %object
 1145              		.size	gAppDatHdl, 4
 1146              	gAppDatHdl:
 1147 0000 FFFFFFFF 		.word	-1
 1148              		.text
 1149              	.Letext0:
 1150              		.file 2 "c:\\devtools\\gcc_v49_2014q4\\lib\\gcc\\arm-none-eabi\\4.9.3\\include\\stddef.h"
 1151              		.file 3 "../LibA5T1000/common.h"
 1152              		.file 4 "../LibA5T1000/midware.h"
 1153              		.file 5 "../LibA5T1000/system.h"
 1154              		.file 6 "../LibA5T1000/apm.h"
 1155              		.file 7 "src/constant.h"
 1156              		.file 8 "../LibA5T1000/emv2dll.h"
 1157              		.file 9 "../LibA5T1000/emvcl2dll.h"
 1158              		.file 10 "../LibA5T1000/ecrdll.h"
 1159              		.file 11 "src/sysutil.h"
 1160              		.file 12 "src/corevar.h"
 1161              		.file 13 "src/hardware.h"
 1162              		.file 14 "c:\\devtools\\gcc_v49_2014q4\\arm-none-eabi\\include\\string.h"
 1163              		.file 15 "../LibA5T1000/util.h"