ARM GAS  C:\Users\ahmedhamed\AppData\Local\Temp\ccemesBD.s 			page 1


   1              		.syntax unified
   2              		.cpu cortex-a5
   3              		.fpu softvfp
   4              		.eabi_attribute 20, 1
   5              		.eabi_attribute 21, 1
   6              		.eabi_attribute 23, 3
   7              		.eabi_attribute 24, 1
   8              		.eabi_attribute 25, 1
   9              		.eabi_attribute 26, 1
  10              		.eabi_attribute 30, 4
  11              		.eabi_attribute 34, 0
  12              		.eabi_attribute 18, 4
  13              		.thumb
  14              		.file	"cstartup.c"
  15              		.text
  16              	.Ltext0:
  17              		.cfi_sections	.debug_frame
  18              		.section	.text.SegmentInit,"ax",%progbits
  19              		.align	1
  20              		.global	SegmentInit
  21              		.thumb
  22              		.thumb_func
  23              		.type	SegmentInit, %function
  24              	SegmentInit:
  25              	.LFB0:
  26              		.file 1 "../LibA5T1000/gcc/cstartup.c"
   1:../LibA5T1000/gcc/cstartup.c **** //-----------------------------------------------------------------------------
   2:../LibA5T1000/gcc/cstartup.c **** //  File          : cstartup.c                                                     
   3:../LibA5T1000/gcc/cstartup.c **** //  Module        :                                                            
   4:../LibA5T1000/gcc/cstartup.c **** //  Description   : Main Entry.                                                
   5:../LibA5T1000/gcc/cstartup.c **** //  Author        : 
   6:../LibA5T1000/gcc/cstartup.c **** //  Notes         :                                                            
   7:../LibA5T1000/gcc/cstartup.c **** //                                                                             
   8:../LibA5T1000/gcc/cstartup.c **** // ============================================================================
   9:../LibA5T1000/gcc/cstartup.c **** // | Naming conventions                                                       |
  10:../LibA5T1000/gcc/cstartup.c **** // | ~~~~~~~~~~~~~~~~~~                                                       |
  11:../LibA5T1000/gcc/cstartup.c **** // |         Struct/Array : Leading s                                         |
  12:../LibA5T1000/gcc/cstartup.c **** // |             Constant : Leading K                                         |
  13:../LibA5T1000/gcc/cstartup.c **** // |      Global Variable : Leading g  (variable use outside one C file)      |
  14:../LibA5T1000/gcc/cstartup.c **** // |                                                                          |
  15:../LibA5T1000/gcc/cstartup.c **** // |   BYTE( 8 Bits) size : Leading b                                         |
  16:../LibA5T1000/gcc/cstartup.c **** // |   CHAR( 8 Bits) size : Leading c                                         |
  17:../LibA5T1000/gcc/cstartup.c **** // |   WORD(16 Bits) size : Leading w                                         |
  18:../LibA5T1000/gcc/cstartup.c **** // |  DWORD(32 Bits) size : Leading d                                         |
  19:../LibA5T1000/gcc/cstartup.c **** // |    int(32 Bits) size : Leading i                                         |
  20:../LibA5T1000/gcc/cstartup.c **** // | DDWORD(64 Bits) size : Leading dd                                        |
  21:../LibA5T1000/gcc/cstartup.c **** // |              Pointer : Leading p                                         |
  22:../LibA5T1000/gcc/cstartup.c **** // |                                                                          |
  23:../LibA5T1000/gcc/cstartup.c **** // |    Function argument : Leading a                                         |
  24:../LibA5T1000/gcc/cstartup.c **** // |       Local Variable : All lower case                                    |
  25:../LibA5T1000/gcc/cstartup.c **** // |                                                                          |
  26:../LibA5T1000/gcc/cstartup.c **** // | Examples:                                                                |
  27:../LibA5T1000/gcc/cstartup.c **** // |                Array : Leading s, (sb = arrary of byte, etc)             |
  28:../LibA5T1000/gcc/cstartup.c **** // |              Pointer : Leading p, (pb = pointer of byte, etc)            |
  29:../LibA5T1000/gcc/cstartup.c **** // ============================================================================
  30:../LibA5T1000/gcc/cstartup.c **** //                                                                             
  31:../LibA5T1000/gcc/cstartup.c **** //  Date          Who         Action                                           
ARM GAS  C:\Users\ahmedhamed\AppData\Local\Temp\ccemesBD.s 			page 2


  32:../LibA5T1000/gcc/cstartup.c **** //  ------------  ----------- -------------------------------------------------
  33:../LibA5T1000/gcc/cstartup.c **** //  DD MMM  YYYY  main_c      Initial Version.                                 
  34:../LibA5T1000/gcc/cstartup.c **** //-----------------------------------------------------------------------------
  35:../LibA5T1000/gcc/cstartup.c **** //#include <stdio.h>
  36:../LibA5T1000/gcc/cstartup.c **** #include "system.h"
  37:../LibA5T1000/gcc/cstartup.c **** #include "coremain.h"
  38:../LibA5T1000/gcc/cstartup.c **** 
  39:../LibA5T1000/gcc/cstartup.c **** //-----------------------------------------------------------------------------
  40:../LibA5T1000/gcc/cstartup.c **** //      Prototypes                                                             
  41:../LibA5T1000/gcc/cstartup.c **** //-----------------------------------------------------------------------------
  42:../LibA5T1000/gcc/cstartup.c **** //From Link Scripts
  43:../LibA5T1000/gcc/cstartup.c **** extern unsigned long _start_of_app;
  44:../LibA5T1000/gcc/cstartup.c **** extern unsigned long _end_of_app;
  45:../LibA5T1000/gcc/cstartup.c **** extern unsigned long _start_of_data;
  46:../LibA5T1000/gcc/cstartup.c **** extern unsigned long _end_of_data;
  47:../LibA5T1000/gcc/cstartup.c **** extern unsigned long _start_of_bss;
  48:../LibA5T1000/gcc/cstartup.c **** extern unsigned long _end_of_bss;
  49:../LibA5T1000/gcc/cstartup.c **** extern unsigned long _end_of_sram;
  50:../LibA5T1000/gcc/cstartup.c **** extern unsigned long _end_of_flash;
  51:../LibA5T1000/gcc/cstartup.c **** 
  52:../LibA5T1000/gcc/cstartup.c **** //From main.c
  53:../LibA5T1000/gcc/cstartup.c **** extern const T_APP_HDR KAppHdr;
  54:../LibA5T1000/gcc/cstartup.c **** extern int main(unsigned long aFuncNo, unsigned long aParam2, unsigned long aParam3);
  55:../LibA5T1000/gcc/cstartup.c **** 
  56:../LibA5T1000/gcc/cstartup.c **** //-----------------------------------------------------------------------------
  57:../LibA5T1000/gcc/cstartup.c **** //      Constants
  58:../LibA5T1000/gcc/cstartup.c **** //-----------------------------------------------------------------------------
  59:../LibA5T1000/gcc/cstartup.c **** const unsigned long KAppHeader[12] __attribute__ ((section ("sect_apphdr"))) =
  60:../LibA5T1000/gcc/cstartup.c **** {
  61:../LibA5T1000/gcc/cstartup.c ****   (unsigned long)&KAppHdr,          // app table ptr
  62:../LibA5T1000/gcc/cstartup.c ****   (unsigned long)&_start_of_app,    // crc check start at 0x50
  63:../LibA5T1000/gcc/cstartup.c ****   (unsigned long)&_end_of_flash,    // crc check end address
  64:../LibA5T1000/gcc/cstartup.c ****   (unsigned long)0,                 // crc will be overrided
  65:../LibA5T1000/gcc/cstartup.c ****   (unsigned long)&_start_of_data,   // SFB(DATA_I)
  66:../LibA5T1000/gcc/cstartup.c ****   (unsigned long)&_end_of_bss,      // SFE(DATA_N), Maybe 
  67:../LibA5T1000/gcc/cstartup.c ****   (unsigned long)(((unsigned long)MY_APPL_ID) | ((unsigned long)SOFT_VERSION<<8) | ((unsigned long)
  68:../LibA5T1000/gcc/cstartup.c ****   (unsigned long)0,                 // will be filled with YYYYMMDD                
  69:../LibA5T1000/gcc/cstartup.c ****   (unsigned long)0,                 // will be filled with HHMMSSNN
  70:../LibA5T1000/gcc/cstartup.c ****   (unsigned long)0,                 // fill with TMS checksum
  71:../LibA5T1000/gcc/cstartup.c ****   (unsigned long)0,                 // fill display checksum
  72:../LibA5T1000/gcc/cstartup.c ****   (unsigned long)0x80000000,        // crc of YYYYMMDDHHMMSSNN, TMS checksum & display checksum, si
  73:../LibA5T1000/gcc/cstartup.c **** };
  74:../LibA5T1000/gcc/cstartup.c **** 
  75:../LibA5T1000/gcc/cstartup.c **** const unsigned char KKek[8] __attribute__ ((section ("sect_kek"))) = "Spectra\x00";
  76:../LibA5T1000/gcc/cstartup.c **** 
  77:../LibA5T1000/gcc/cstartup.c **** //*****************************************************************************
  78:../LibA5T1000/gcc/cstartup.c **** //  Function        : SegmentInit
  79:../LibA5T1000/gcc/cstartup.c **** //  Description     : Initial Clean Up.
  80:../LibA5T1000/gcc/cstartup.c **** //  Input           : N/A                                                      
  81:../LibA5T1000/gcc/cstartup.c **** //  Return          : N/A                                                      
  82:../LibA5T1000/gcc/cstartup.c **** //  Note            : N/A                                                      
  83:../LibA5T1000/gcc/cstartup.c **** //  Globals Changed : N/A                                                      
  84:../LibA5T1000/gcc/cstartup.c **** //*****************************************************************************
  85:../LibA5T1000/gcc/cstartup.c **** void SegmentInit(void)
  86:../LibA5T1000/gcc/cstartup.c **** {
  27              		.loc 1 86 0
  28              		.cfi_startproc
ARM GAS  C:\Users\ahmedhamed\AppData\Local\Temp\ccemesBD.s 			page 3


  29              		@ args = 0, pretend = 0, frame = 0
  30              		@ frame_needed = 0, uses_anonymous_args = 0
  87:../LibA5T1000/gcc/cstartup.c ****   unsigned long *src;
  88:../LibA5T1000/gcc/cstartup.c ****   unsigned long *dest;
  89:../LibA5T1000/gcc/cstartup.c ****   unsigned long *end_addr;
  90:../LibA5T1000/gcc/cstartup.c **** 
  91:../LibA5T1000/gcc/cstartup.c ****   //Debug
  92:../LibA5T1000/gcc/cstartup.c ****   //printf("\f%X\n%X\n%X\n%X\n%X\n%X\n%X\n%X"
  93:../LibA5T1000/gcc/cstartup.c ****   //        , &_start_of_app
  94:../LibA5T1000/gcc/cstartup.c ****   //        , &_end_of_app
  95:../LibA5T1000/gcc/cstartup.c ****   //        , &_start_of_data
  96:../LibA5T1000/gcc/cstartup.c ****   //        , &_end_of_data
  97:../LibA5T1000/gcc/cstartup.c ****   //        , &_start_of_bss
  98:../LibA5T1000/gcc/cstartup.c ****   //        , &_end_of_bss
  99:../LibA5T1000/gcc/cstartup.c ****   //        , &_end_of_sram
 100:../LibA5T1000/gcc/cstartup.c ****   //        , &_end_of_flash
 101:../LibA5T1000/gcc/cstartup.c ****   //      );
 102:../LibA5T1000/gcc/cstartup.c ****   //while (os_kbd_getkey () == 0) os_sleep();
 103:../LibA5T1000/gcc/cstartup.c ****  
 104:../LibA5T1000/gcc/cstartup.c ****   //------------------------------
 105:../LibA5T1000/gcc/cstartup.c ****   // Check data area size         
 106:../LibA5T1000/gcc/cstartup.c ****   //------------------------------
 107:../LibA5T1000/gcc/cstartup.c ****   if ((unsigned long)&_end_of_bss > (unsigned long)&_end_of_sram) {
  31              		.loc 1 107 0
  32 0000 154B     		ldr	r3, .L13
  86:../LibA5T1000/gcc/cstartup.c ****   unsigned long *src;
  33              		.loc 1 86 0
  34 0002 10B5     		push	{r4, lr}
  35              		.cfi_def_cfa_offset 8
  36              		.cfi_offset 4, -8
  37              		.cfi_offset 14, -4
  38              		.loc 1 107 0
  39 0004 154A     		ldr	r2, .L13+4
  40 0006 1C46     		mov	r4, r3
  41 0008 9A42     		cmp	r2, r3
  42 000a 02D3     		bcc	.L2
  43              	.L6:
  44 000c 144A     		ldr	r2, .L13+8
  86:../LibA5T1000/gcc/cstartup.c ****   unsigned long *src;
  45              		.loc 1 86 0
  46 000e 154B     		ldr	r3, .L13+12
  47 0010 11E0     		b	.L3
  48              	.L2:
 108:../LibA5T1000/gcc/cstartup.c ****     os_disp_puts("\f""Data oversized.");
  49              		.loc 1 108 0
  50 0012 1549     		ldr	r1, .L13+16
  51 0014 1720     		movs	r0, #23
  52 0016 FFF7FEFF 		bl	sys_func1
  53              	.LVL0:
 109:../LibA5T1000/gcc/cstartup.c ****     os_disp_puts("\nPls Power Off");
  54              		.loc 1 109 0
  55 001a 1720     		movs	r0, #23
  56 001c 1349     		ldr	r1, .L13+20
  57 001e FFF7FEFF 		bl	sys_func1
  58              	.LVL1:
  59              	.L4:
 110:../LibA5T1000/gcc/cstartup.c ****     while (os_kbd_getkey () == 0) os_sleep();
ARM GAS  C:\Users\ahmedhamed\AppData\Local\Temp\ccemesBD.s 			page 4


  60              		.loc 1 110 0 discriminator 1
  61 0022 0720     		movs	r0, #7
  62 0024 FFF7FEFF 		bl	sys_func0
  63              	.LVL2:
  64 0028 0028     		cmp	r0, #0
  65 002a EFD1     		bne	.L6
  66              		.loc 1 110 0 is_stmt 0 discriminator 2
  67 002c 4FF4CE70 		mov	r0, #412
  68 0030 FFF7FEFF 		bl	sys_func0
  69              	.LVL3:
  70 0034 F5E7     		b	.L4
  71              	.L3:
  72              	.LVL4:
 111:../LibA5T1000/gcc/cstartup.c ****   }
 112:../LibA5T1000/gcc/cstartup.c **** 
 113:../LibA5T1000/gcc/cstartup.c ****   //------------------------------
 114:../LibA5T1000/gcc/cstartup.c ****   // Copy preset data             
 115:../LibA5T1000/gcc/cstartup.c ****   //------------------------------
 116:../LibA5T1000/gcc/cstartup.c ****   src      = &_end_of_app;
 117:../LibA5T1000/gcc/cstartup.c ****   dest     = &_start_of_data;
 118:../LibA5T1000/gcc/cstartup.c ****   end_addr = &_end_of_data;
 119:../LibA5T1000/gcc/cstartup.c ****   while (dest < end_addr) {
  73              		.loc 1 119 0 is_stmt 1
  74 0036 0E49     		ldr	r1, .L13+24
  75 0038 8B42     		cmp	r3, r1
  76 003a 04D2     		bcs	.L11
 120:../LibA5T1000/gcc/cstartup.c ****     *dest = *src;
  77              		.loc 1 120 0
  78 003c 52F8041B 		ldr	r1, [r2], #4
  79 0040 43F8041B 		str	r1, [r3], #4
  80              	.LVL5:
  81 0044 F7E7     		b	.L3
  82              	.LVL6:
  83              	.L11:
  84 0046 0B4B     		ldr	r3, .L13+28
  85              	.LVL7:
  86              	.L8:
 121:../LibA5T1000/gcc/cstartup.c ****     src++;
 122:../LibA5T1000/gcc/cstartup.c ****     dest++;
 123:../LibA5T1000/gcc/cstartup.c ****   }
 124:../LibA5T1000/gcc/cstartup.c **** 
 125:../LibA5T1000/gcc/cstartup.c ****   //------------------------------
 126:../LibA5T1000/gcc/cstartup.c ****   // Clear uninitialized data     
 127:../LibA5T1000/gcc/cstartup.c ****   //------------------------------
 128:../LibA5T1000/gcc/cstartup.c ****   dest = &_start_of_bss;
 129:../LibA5T1000/gcc/cstartup.c ****   end_addr = &_end_of_bss;
 130:../LibA5T1000/gcc/cstartup.c ****   while (dest < end_addr) {
  87              		.loc 1 130 0
  88 0048 A342     		cmp	r3, r4
  89 004a 03D2     		bcs	.L12
 131:../LibA5T1000/gcc/cstartup.c ****     *dest = 0;
  90              		.loc 1 131 0
  91 004c 0022     		movs	r2, #0
  92 004e 43F8042B 		str	r2, [r3], #4
  93              	.LVL8:
  94 0052 F9E7     		b	.L8
  95              	.L12:
ARM GAS  C:\Users\ahmedhamed\AppData\Local\Temp\ccemesBD.s 			page 5


 132:../LibA5T1000/gcc/cstartup.c ****     dest++;
 133:../LibA5T1000/gcc/cstartup.c ****   }
 134:../LibA5T1000/gcc/cstartup.c **** }
  96              		.loc 1 134 0
  97 0054 10BD     		pop	{r4, pc}
  98              	.L14:
  99 0056 00BF     		.align	2
 100              	.L13:
 101 0058 00000000 		.word	_end_of_bss
 102 005c 00000000 		.word	_end_of_sram
 103 0060 00000000 		.word	_end_of_app
 104 0064 00000000 		.word	_start_of_data
 105 0068 00000000 		.word	.LC0
 106 006c 11000000 		.word	.LC1
 107 0070 00000000 		.word	_end_of_data
 108 0074 00000000 		.word	_start_of_bss
 109              		.cfi_endproc
 110              	.LFE0:
 111              		.size	SegmentInit, .-SegmentInit
 112              		.section	sect_startup,"ax",%progbits
 113              		.align	1
 114              		.global	cstartup
 115              		.thumb
 116              		.thumb_func
 117              		.type	cstartup, %function
 118              	cstartup:
 119              	.LFB1:
 135:../LibA5T1000/gcc/cstartup.c **** 
 136:../LibA5T1000/gcc/cstartup.c **** //*****************************************************************************
 137:../LibA5T1000/gcc/cstartup.c **** //  Function        : cstartup
 138:../LibA5T1000/gcc/cstartup.c **** //  Description     : Entry point for application.                             
 139:../LibA5T1000/gcc/cstartup.c **** //  Input           : N/A                                                      
 140:../LibA5T1000/gcc/cstartup.c **** //  Return          : N/A                                                      
 141:../LibA5T1000/gcc/cstartup.c **** //  Note            : N/A                                                      
 142:../LibA5T1000/gcc/cstartup.c **** //  Globals Changed : N/A                                                      
 143:../LibA5T1000/gcc/cstartup.c **** //*****************************************************************************
 144:../LibA5T1000/gcc/cstartup.c **** int cstartup (unsigned long aFuncNo, unsigned long aParam2, unsigned long aParam3) __attribute__ ((
 145:../LibA5T1000/gcc/cstartup.c **** int cstartup (unsigned long aFuncNo, unsigned long aParam2, unsigned long aParam3)
 146:../LibA5T1000/gcc/cstartup.c **** {
 120              		.loc 1 146 0
 121              		.cfi_startproc
 122              		@ args = 0, pretend = 0, frame = 0
 123              		@ frame_needed = 0, uses_anonymous_args = 0
 124              	.LVL9:
 125 0000 70B5     		push	{r4, r5, r6, lr}
 126              		.cfi_def_cfa_offset 16
 127              		.cfi_offset 4, -16
 128              		.cfi_offset 5, -12
 129              		.cfi_offset 6, -8
 130              		.cfi_offset 14, -4
 131              		.loc 1 146 0
 132 0002 0646     		mov	r6, r0
 133 0004 0D46     		mov	r5, r1
 134 0006 1446     		mov	r4, r2
 147:../LibA5T1000/gcc/cstartup.c ****   SegmentInit();
 135              		.loc 1 147 0
 136 0008 FFF7FEFF 		bl	SegmentInit
ARM GAS  C:\Users\ahmedhamed\AppData\Local\Temp\ccemesBD.s 			page 6


 137              	.LVL10:
 148:../LibA5T1000/gcc/cstartup.c ****   return main(aFuncNo, aParam2, aParam3);
 138              		.loc 1 148 0
 139 000c 3046     		mov	r0, r6
 140 000e 2946     		mov	r1, r5
 141 0010 2246     		mov	r2, r4
 149:../LibA5T1000/gcc/cstartup.c **** }
 142              		.loc 1 149 0
 143 0012 BDE87040 		pop	{r4, r5, r6, lr}
 144              		.cfi_restore 14
 145              		.cfi_restore 6
 146              		.cfi_restore 5
 147              		.cfi_restore 4
 148              		.cfi_def_cfa_offset 0
 149              	.LVL11:
 148:../LibA5T1000/gcc/cstartup.c ****   return main(aFuncNo, aParam2, aParam3);
 150              		.loc 1 148 0
 151 0016 FFF7FEBF 		b	main
 152              	.LVL12:
 153              		.cfi_endproc
 154              	.LFE1:
 155              		.size	cstartup, .-cstartup
 156              		.global	KKek
 157              		.global	KAppHeader
 158              		.section	sect_apphdr,"a",%progbits
 159              		.align	2
 160              		.type	KAppHeader, %object
 161              		.size	KAppHeader, 48
 162              	KAppHeader:
 163 0000 00000000 		.word	KAppHdr
 164 0004 00000000 		.word	_start_of_app
 165 0008 00000000 		.word	_end_of_flash
 166 000c 00000000 		.word	0
 167 0010 00000000 		.word	_start_of_data
 168 0014 00000000 		.word	_end_of_bss
 169 0018 11030100 		.word	66321
 170 001c 00000000 		.word	0
 171 0020 00000000 		.word	0
 172 0024 00000000 		.word	0
 173 0028 00000000 		.word	0
 174 002c 00000080 		.word	-2147483648
 175              		.section	.rodata.str1.1,"aMS",%progbits,1
 176              	.LC0:
 177 0000 0C446174 		.ascii	"\014Data oversized.\000"
 177      61206F76 
 177      65727369 
 177      7A65642E 
 177      00
 178              	.LC1:
 179 0011 0A506C73 		.ascii	"\012Pls Power Off\000"
 179      20506F77 
 179      6572204F 
 179      666600
 180              		.section	sect_kek,"a",%progbits
 181              		.type	KKek, %object
 182              		.size	KKek, 8
 183              	KKek:
ARM GAS  C:\Users\ahmedhamed\AppData\Local\Temp\ccemesBD.s 			page 7


 184 0000 53706563 		.ascii	"Spectra\000"
 184      74726100 
 185              		.text
 186              	.Letext0:
 187              		.file 2 "../LibA5T1000/common.h"
 188              		.file 3 "../LibA5T1000/system.h"