ARM GAS  C:\Users\AHMED~1.ELE\AppData\Local\Temp\ccu9CE5U.s 			page 1


   1              		.syntax unified
   2              		.cpu cortex-a5
   3              		.fpu softvfp
   4              		.eabi_attribute 20, 1
   5              		.eabi_attribute 21, 1
   6              		.eabi_attribute 23, 3
   7              		.eabi_attribute 24, 1
   8              		.eabi_attribute 25, 1
   9              		.eabi_attribute 26, 1
  10              		.eabi_attribute 30, 4
  11              		.eabi_attribute 34, 0
  12              		.eabi_attribute 18, 4
  13              		.thumb
  14              		.file	"ctltrans.c"
  15              		.text
  16              	.Ltext0:
  17              		.cfi_sections	.debug_frame
  18              		.section	.text.CTLTagSeek.part.1,"ax",%progbits
  19              		.align	1
  20              		.thumb
  21              		.thumb_func
  22              		.type	CTLTagSeek.part.1, %function
  23              	CTLTagSeek.part.1:
  24              	.LFB32:
  25              		.file 1 "src/ctltrans.c"
   1:src/ctltrans.c **** //-----------------------------------------------------------------------------
   2:src/ctltrans.c **** //  File          : ctltrans.c
   3:src/ctltrans.c **** //  Module        :
   4:src/ctltrans.c **** //  Description   : Include routines for Contactless transactions.
   5:src/ctltrans.c **** //  Author        : John
   6:src/ctltrans.c **** //  Notes         :
   7:src/ctltrans.c **** //
   8:src/ctltrans.c **** // ============================================================================
   9:src/ctltrans.c **** // | Naming conventions                                                       |
  10:src/ctltrans.c **** // | ~~~~~~~~~~~~~~~~~~                                                       |
  11:src/ctltrans.c **** // |        Struct define : Leading T                                         |
  12:src/ctltrans.c **** // |         Struct/Array : Leading s                                         |
  13:src/ctltrans.c **** // |             Constant : Leading K                                         |
  14:src/ctltrans.c **** // |      Global Variable : Leading g  (variable use outside one C file)      |
  15:src/ctltrans.c **** // |                                                                          |
  16:src/ctltrans.c **** // |   BYTE( 8 Bits) size : Leading b                                         |
  17:src/ctltrans.c **** // |   CHAR( 8 Bits) size : Leading c                                         |
  18:src/ctltrans.c **** // |   WORD(16 Bits) size : Leading w                                         |
  19:src/ctltrans.c **** // |  DWORD(32 Bits) size : Leading d                                         |
  20:src/ctltrans.c **** // |    int(32 Bits) size : Leading i                                         |
  21:src/ctltrans.c **** // | DDWORD(64 Bits) size : Leading dd                                        |
  22:src/ctltrans.c **** // |              Pointer : Leading p                                         |
  23:src/ctltrans.c **** // |                                                                          |
  24:src/ctltrans.c **** // |    Function argument : Leading a                                         |
  25:src/ctltrans.c **** // |       Local Variable : All lower case                                    |
  26:src/ctltrans.c **** // |                                                                          |
  27:src/ctltrans.c **** // | Examples:                                                                |
  28:src/ctltrans.c **** // |                Array : Leading s, (sb = arrary of byte, etc)             |
  29:src/ctltrans.c **** // |              Pointer : Leading p, (pb = pointer of byte, etc)            |
  30:src/ctltrans.c **** // ============================================================================
  31:src/ctltrans.c **** //
  32:src/ctltrans.c **** //  Date          Who         Action
ARM GAS  C:\Users\AHMED~1.ELE\AppData\Local\Temp\ccu9CE5U.s 			page 2


  33:src/ctltrans.c **** //  ------------  ----------- -------------------------------------------------
  34:src/ctltrans.c **** //  21 Oct 2010   John        Initial Version.
  35:src/ctltrans.c **** //-----------------------------------------------------------------------------
  36:src/ctltrans.c **** #include <stdio.h>
  37:src/ctltrans.c **** #include <string.h>
  38:src/ctltrans.c **** #include "apm.h"
  39:src/ctltrans.c **** #include "util.h"
  40:src/ctltrans.c **** #include "sysutil.h"
  41:src/ctltrans.c **** #include "message.h"
  42:src/ctltrans.c **** #include "corevar.h"
  43:src/ctltrans.c **** #include "constant.h"
  44:src/ctltrans.c **** #include "chkoptn.h"
  45:src/ctltrans.c **** #include "input.h"
  46:src/ctltrans.c **** #include "print.h"
  47:src/ctltrans.c **** #include "hostmsg.h"
  48:src/ctltrans.c **** #include "record.h"
  49:src/ctltrans.c **** #include "reversal.h"
  50:src/ctltrans.c **** #include "offline.h"
  51:src/ctltrans.c **** #include "sale.h"
  52:src/ctltrans.c **** #include "tranutil.h"
  53:src/ctltrans.c **** #include "tlvutil.h"
  54:src/ctltrans.c **** #include "lptutil.h"
  55:src/ctltrans.c **** #include "emvtrans.h"
  56:src/ctltrans.c **** #include "ctltrans.h"
  57:src/ctltrans.c **** #include "auxcom.h"
  58:src/ctltrans.c **** #include "keytrans.h"
  59:src/ctltrans.c **** #include "system.h"
  60:src/ctltrans.c **** 
  61:src/ctltrans.c **** //-----------------------------------------------------------------------------
  62:src/ctltrans.c **** //    Globals Variables
  63:src/ctltrans.c **** //-----------------------------------------------------------------------------
  64:src/ctltrans.c **** static BYTE gTagBuf[256];
  65:src/ctltrans.c **** static TLIST gTagList;
  66:src/ctltrans.c **** static DWORD gCtlStartCnt=0;              //25-07-17 JC ++
  67:src/ctltrans.c **** static DWORD gCtlOffNow=0;                //25-07-17 JC ++
  68:src/ctltrans.c **** 
  69:src/ctltrans.c **** //-----------------------------------------------------------------------------
  70:src/ctltrans.c **** //    Defines
  71:src/ctltrans.c **** //-----------------------------------------------------------------------------
  72:src/ctltrans.c **** #define bAction         gGDS->s_CTLOut.pbMsg[1]
  73:src/ctltrans.c **** 
  74:src/ctltrans.c **** // contactless function return
  75:src/ctltrans.c **** #define CL_OK             (int)0
  76:src/ctltrans.c **** #define CL_ERR            (int)-1
  77:src/ctltrans.c **** #define CL_TIMEOUT        (int)-2
  78:src/ctltrans.c **** #define CL_MORE_CARDS     (int)-3
  79:src/ctltrans.c **** #define CL_WTX_TIMEOUT    (int)-4
  80:src/ctltrans.c **** 
  81:src/ctltrans.c **** #define CTL_COMPLETE      0
  82:src/ctltrans.c **** 
  83:src/ctltrans.c **** // contactless transaction amount limit
  84:src/ctltrans.c **** #define CTL_TRANS_LIMIT   50000           // $500.00
  85:src/ctltrans.c **** 
  86:src/ctltrans.c **** #define CTL_ON_ONCE_INTERVAL   300        // 300 msec
  87:src/ctltrans.c **** 
  88:src/ctltrans.c **** //-----------------------------------------------------------------------------
  89:src/ctltrans.c **** //    Constant
ARM GAS  C:\Users\AHMED~1.ELE\AppData\Local\Temp\ccu9CE5U.s 			page 3


  90:src/ctltrans.c **** //-----------------------------------------------------------------------------
  91:src/ctltrans.c **** const WORD wCTLOnlineTags[] = { 
  92:src/ctltrans.c ****   0x5F2A,                                 /* Transaction Currency Code */
  93:src/ctltrans.c ****   0x5F34,                                 /* PAN Sequence Number */
  94:src/ctltrans.c ****   0x82,                                   /* AIP */
  95:src/ctltrans.c ****   0x84,                                   /* Dedicated File Name */
  96:src/ctltrans.c ****   0x95,                                   /* TVR */
  97:src/ctltrans.c ****   0x9A,                                   /* Transaction Date */
  98:src/ctltrans.c ****   0x9C,                                   /* Transaction Type */
  99:src/ctltrans.c ****   0x9F02,                                 /* Amount Authorised */
 100:src/ctltrans.c ****   0x9F03,                                 /* Amount, Other */
 101:src/ctltrans.c ****   0x9F08,                                 /* Application Version # (ICC) */
 102:src/ctltrans.c ****   0x9F10,                                 /* Issuer Application Data */
 103:src/ctltrans.c ****   0x9F1A,                                 /* Terminal Country Code */
 104:src/ctltrans.c ****   0x9F21,                                 /* Trans Time */
 105:src/ctltrans.c ****   0x9F26,                                 /* Application Cryptogram */
 106:src/ctltrans.c ****   0x9F27,                                 /* CID */
 107:src/ctltrans.c ****   0x9F34,                                 /* CVM Result */
 108:src/ctltrans.c ****   0x9F35,                                 /* Terminal Type */
 109:src/ctltrans.c ****   0x9F36,                                 /* Application Transaction Counter */
 110:src/ctltrans.c ****   0x9F37,                                 /* Unpredicatable Number */
 111:src/ctltrans.c ****   0
 112:src/ctltrans.c **** };
 113:src/ctltrans.c **** 
 114:src/ctltrans.c **** // pack zero data for compliance if not returned by EMVCLDLL
 115:src/ctltrans.c **** const WORD wCTLDummyTags[][2] = {
 116:src/ctltrans.c ****   {0x9F08, 2},                              /* Application Version # (ICC) */
 117:src/ctltrans.c ****   {0x9F34, 3},                              /* CVM Result */
 118:src/ctltrans.c ****   {0,      0},
 119:src/ctltrans.c **** };
 120:src/ctltrans.c **** 
 121:src/ctltrans.c **** static void CTLComplete(void);
 122:src/ctltrans.c **** TLIST *CTLTagSeek(WORD aTag);
 123:src/ctltrans.c **** extern TLIST *TagSeek(TLIST *aSrc, WORD aTag);
 124:src/ctltrans.c **** extern BYTE DeAss(TLIST *aList, BYTE *pbMsg, WORD wLen);
 125:src/ctltrans.c **** 
 126:src/ctltrans.c **** 
 127:src/ctltrans.c **** //=============================================================================
 128:src/ctltrans.c **** //  Function        : CL_Led
 129:src/ctltrans.c **** //  Description     :
 130:src/ctltrans.c **** //  Input           : aIdOnOffCycle - Id | On | Off | Cycle
 131:src/ctltrans.c **** //  Return          :
 132:src/ctltrans.c **** //  Note            : N/A
 133:src/ctltrans.c **** //  Globals Changed : N/A
 134:src/ctltrans.c **** //=============================================================================
 135:src/ctltrans.c **** void CL_Led(BYTE *aIdOnOffCycle)
 136:src/ctltrans.c **** {
 137:src/ctltrans.c **** #ifndef WIN32 // simulator not supported yet
 138:src/ctltrans.c ****  
 139:src/ctltrans.c ****   BYTE bLedId;
 140:src/ctltrans.c ****   DWORD dOnOff, dCycle;
 141:src/ctltrans.c ****   switch (aIdOnOffCycle[0]) { //map to led id
 142:src/ctltrans.c ****     case 0: //blue
 143:src/ctltrans.c ****       bLedId = 1;
 144:src/ctltrans.c ****       break;
 145:src/ctltrans.c ****     case 1: //yellow
 146:src/ctltrans.c ****       bLedId = 2;
ARM GAS  C:\Users\AHMED~1.ELE\AppData\Local\Temp\ccu9CE5U.s 			page 4


 147:src/ctltrans.c ****       break;
 148:src/ctltrans.c ****     case 2: //green
 149:src/ctltrans.c ****       bLedId = 0;
 150:src/ctltrans.c ****       break;
 151:src/ctltrans.c ****     case 3: //red
 152:src/ctltrans.c ****       bLedId = 3;
 153:src/ctltrans.c ****       break;
 154:src/ctltrans.c ****     default: //unknown, use red as default
 155:src/ctltrans.c ****       bLedId = 3;
 156:src/ctltrans.c ****       break;
 157:src/ctltrans.c ****   }  
 158:src/ctltrans.c ****   if (aIdOnOffCycle[1] == 0xFF) { //on
 159:src/ctltrans.c ****     os_clicc_led_set(bLedId);
 160:src/ctltrans.c ****   }
 161:src/ctltrans.c ****   else if (aIdOnOffCycle[2] == 0xFF) { //off
 162:src/ctltrans.c ****     os_clicc_led_clear(bLedId);
 163:src/ctltrans.c ****   }
 164:src/ctltrans.c ****   else { //flash
 165:src/ctltrans.c ****     dOnOff = ((DWORD)(aIdOnOffCycle[1]*10)<<16) | (DWORD)(aIdOnOffCycle[2]*10); //change to 100ms u
 166:src/ctltrans.c ****     dCycle = (aIdOnOffCycle[3] == 0xFF)? 0xFFFFFF: aIdOnOffCycle[3];
 167:src/ctltrans.c ****     os_clicc_led_on(bLedId, dOnOff, dCycle);
 168:src/ctltrans.c ****   }
 169:src/ctltrans.c **** 
 170:src/ctltrans.c **** #endif // #ifndef WIN32 
 171:src/ctltrans.c **** }
 172:src/ctltrans.c **** //=============================================================================
 173:src/ctltrans.c **** //  Function        : CL_Led
 174:src/ctltrans.c **** //  Description     :
 175:src/ctltrans.c **** //  Input           : aSet
 176:src/ctltrans.c **** //                    
 177:src/ctltrans.c **** //  Return          :
 178:src/ctltrans.c **** //  Note            : N/A
 179:src/ctltrans.c **** //  Globals Changed : N/A
 180:src/ctltrans.c **** //=============================================================================
 181:src/ctltrans.c **** void CL_LedSet(DWORD aSet)
 182:src/ctltrans.c **** {
 183:src/ctltrans.c ****   switch(aSet) {
 184:src/ctltrans.c ****     case CTL_LED_IDLE:
 185:src/ctltrans.c ****       // all led off
 186:src/ctltrans.c ****       CL_Led("\x00\x00\xFF\x00");
 187:src/ctltrans.c ****       CL_Led("\x01\x00\xFF\x00");
 188:src/ctltrans.c ****       CL_Led("\x02\x00\xFF\x00");
 189:src/ctltrans.c ****       CL_Led("\x03\x00\xFF\x00");
 190:src/ctltrans.c ****       break;
 191:src/ctltrans.c ****     case CTL_LED_TAP_CARD:
 192:src/ctltrans.c ****       // blue led on
 193:src/ctltrans.c ****       CL_Led("\x00\xFF\x00\x00");
 194:src/ctltrans.c ****       CL_Led("\x01\x00\xFF\x00");
 195:src/ctltrans.c ****       CL_Led("\x02\x00\xFF\x00");
 196:src/ctltrans.c ****       CL_Led("\x03\x00\xFF\x00");
 197:src/ctltrans.c ****       break;
 198:src/ctltrans.c ****     case CTL_LED_PROC:
 199:src/ctltrans.c ****       // blue & yellow leds on
 200:src/ctltrans.c ****       CL_Led("\x00\xFF\x00\x00");
 201:src/ctltrans.c ****       CL_Led("\x01\xFF\x00\x00");
 202:src/ctltrans.c ****       CL_Led("\x02\x00\xFF\x00");
 203:src/ctltrans.c ****       CL_Led("\x03\x00\xFF\x00");
ARM GAS  C:\Users\AHMED~1.ELE\AppData\Local\Temp\ccu9CE5U.s 			page 5


 204:src/ctltrans.c ****       break;
 205:src/ctltrans.c ****     case CTL_LED_TC:
 206:src/ctltrans.c ****       // blue & green leds on
 207:src/ctltrans.c ****       CL_Led("\x00\xFF\x00\x00");
 208:src/ctltrans.c ****       CL_Led("\x01\x00\xFF\x00");
 209:src/ctltrans.c ****       CL_Led("\x02\xFF\x00\x00");
 210:src/ctltrans.c ****       CL_Led("\x03\x00\xFF\x00");
 211:src/ctltrans.c ****       break;
 212:src/ctltrans.c ****     case CTL_LED_ARQC:
 213:src/ctltrans.c ****       // blue & green leds on
 214:src/ctltrans.c ****       CL_Led("\x00\xFF\x00\x00");
 215:src/ctltrans.c ****       CL_Led("\x01\x00\xFF\x00");
 216:src/ctltrans.c ****       CL_Led("\x02\xFF\x00\x00");
 217:src/ctltrans.c ****       CL_Led("\x03\x00\xFF\x00");
 218:src/ctltrans.c ****       break;
 219:src/ctltrans.c ****     case CTL_LED_AAC:
 220:src/ctltrans.c ****       // blue & red leds on
 221:src/ctltrans.c ****       CL_Led("\x00\xFF\x00\x00");
 222:src/ctltrans.c ****       CL_Led("\x01\x00\xFF\x00");
 223:src/ctltrans.c ****       CL_Led("\x02\x00\xFF\x00");
 224:src/ctltrans.c ****       CL_Led("\x03\xFF\x00\x00");
 225:src/ctltrans.c ****       break;
 226:src/ctltrans.c ****     case CTL_LED_RM_CARD:
 227:src/ctltrans.c ****       // blue & green leds on
 228:src/ctltrans.c ****       CL_Led("\x00\xFF\x00\x00");
 229:src/ctltrans.c ****       CL_Led("\x01\x00\xFF\x00");
 230:src/ctltrans.c ****       CL_Led("\x02\xFF\x00\x00");
 231:src/ctltrans.c ****       CL_Led("\x03\x00\xFF\x00");
 232:src/ctltrans.c ****       break;
 233:src/ctltrans.c ****     case CTL_LED_TRANS_IDLE:
 234:src/ctltrans.c ****       // all led off except blue led blinks
 235:src/ctltrans.c ****       CL_Led("\x00\x02\x32\xFF");
 236:src/ctltrans.c ****       CL_Led("\x01\x00\xFF\x00");
 237:src/ctltrans.c ****       CL_Led("\x02\x00\xFF\x00");
 238:src/ctltrans.c ****       CL_Led("\x03\x00\xFF\x00");
 239:src/ctltrans.c ****       break;
 240:src/ctltrans.c ****     default:
 241:src/ctltrans.c ****       break;
 242:src/ctltrans.c ****   }
 243:src/ctltrans.c **** }
 244:src/ctltrans.c **** //*****************************************************************************
 245:src/ctltrans.c **** //  Function        : GetCTLAppCfg
 246:src/ctltrans.c **** //  Description     : Retrieve Configuration from CTL KERNEL.
 247:src/ctltrans.c **** //  Input           : aCfg;     // pointer to buffer
 248:src/ctltrans.c **** //                    aIdx;     // config index.
 249:src/ctltrans.c **** //  Return          : N/A
 250:src/ctltrans.c **** //  Note            : N/A
 251:src/ctltrans.c **** //  Globals Changed : N/A
 252:src/ctltrans.c **** //*****************************************************************************
 253:src/ctltrans.c **** static BOOLEAN GetCTLAppCfg(CL_CFGP *aCfg, DWORD aIdx)
 254:src/ctltrans.c **** {
 255:src/ctltrans.c ****   gGDS->s_CTLIn.pbMsg[0] = (BYTE) aIdx;
 256:src/ctltrans.c ****   gGDS->s_CTLIn.wLen = 1;
 257:src/ctltrans.c ****   if (emvclSetup(CLCMD_READ_AIDIDX, &gGDS->s_CTLIn, &gGDS->s_CTLOut) == FALSE)     // load APP para
 258:src/ctltrans.c ****     return FALSE;
 259:src/ctltrans.c ****   memcpy(aCfg, gGDS->s_CTLOut.pbMsg, sizeof(CL_CFGP));
 260:src/ctltrans.c ****   return TRUE;
ARM GAS  C:\Users\AHMED~1.ELE\AppData\Local\Temp\ccu9CE5U.s 			page 6


 261:src/ctltrans.c **** }
 262:src/ctltrans.c **** //*****************************************************************************
 263:src/ctltrans.c **** //  Function        : GetCTLKeyInfo
 264:src/ctltrans.c **** //  Description     : Retrieve Key info. from CTL KERNEL.
 265:src/ctltrans.c **** //  Input           : aKeyInfo;     // pointer to buffer
 266:src/ctltrans.c **** //                    aIdx;         // config index.
 267:src/ctltrans.c **** //  Return          : N/A
 268:src/ctltrans.c **** //  Note            : N/A
 269:src/ctltrans.c **** //  Globals Changed : N/A
 270:src/ctltrans.c **** //*****************************************************************************
 271:src/ctltrans.c **** BOOLEAN GetCTLKeyInfo(CL_KEY_INFO *aKeyInfo, DWORD aIdx)
 272:src/ctltrans.c **** {
 273:src/ctltrans.c ****   gGDS->s_CTLIn.pbMsg[0] = (BYTE) aIdx|0x80;
 274:src/ctltrans.c ****   gGDS->s_CTLIn.wLen = 1;
 275:src/ctltrans.c **** 
 276:src/ctltrans.c ****   if ((emvclSetup(CLCMD_READ_KEY, &gGDS->s_CTLIn, &gGDS->s_CTLOut) == FALSE) || (gGDS->s_CTLOut.wLe
 277:src/ctltrans.c ****     return FALSE;
 278:src/ctltrans.c **** 
 279:src/ctltrans.c ****   memcpy(aKeyInfo, gGDS->s_CTLOut.pbMsg, sizeof(CL_KEY_INFO));
 280:src/ctltrans.c ****   return TRUE;
 281:src/ctltrans.c **** }
 282:src/ctltrans.c **** //=============================================================================
 283:src/ctltrans.c **** //  Function        : CL_Init
 284:src/ctltrans.c **** //  Description     :
 285:src/ctltrans.c **** //  Input           : 
 286:src/ctltrans.c **** //  Return          : >=0 - OK
 287:src/ctltrans.c **** //                    <0  - Err
 288:src/ctltrans.c **** //  Note            : N/A
 289:src/ctltrans.c **** //  Globals Changed : N/A
 290:src/ctltrans.c **** //=============================================================================
 291:src/ctltrans.c **** BOOLEAN CL_Init(void)
 292:src/ctltrans.c **** {
 293:src/ctltrans.c **** #ifndef WIN32 // simulator not supported yet
 294:src/ctltrans.c ****   CL_CFGP ctl_cfg;
 295:src/ctltrans.c ****   CL_KEY_INFO key_info;
 296:src/ctltrans.c **** 
 297:src/ctltrans.c ****   // clear all LEDs
 298:src/ctltrans.c ****   CL_LedSet(CTL_LED_IDLE);
 299:src/ctltrans.c **** 
 300:src/ctltrans.c ****   // check if 1 set of config & key exists in kernel
 301:src/ctltrans.c ****   if (!GetCTLAppCfg(&ctl_cfg, 0) || !GetCTLKeyInfo(&key_info, 0)) {
 302:src/ctltrans.c ****     CTLEnable(FALSE);
 303:src/ctltrans.c ****     return FALSE;
 304:src/ctltrans.c ****   }
 305:src/ctltrans.c ****   
 306:src/ctltrans.c ****   // open contactless interface
 307:src/ctltrans.c ****   if (os_clicc_open() == K_ERR_CLICC_OK) {
 308:src/ctltrans.c ****     os_clicc_led_open();
 309:src/ctltrans.c ****     CTLEnable(TRUE);
 310:src/ctltrans.c ****     return TRUE;
 311:src/ctltrans.c ****   }
 312:src/ctltrans.c ****   CTLEnable(FALSE);
 313:src/ctltrans.c ****   return FALSE;
 314:src/ctltrans.c **** #endif // #ifndef WIN32 
 315:src/ctltrans.c **** }
 316:src/ctltrans.c **** //=============================================================================
 317:src/ctltrans.c **** //  Function        : CL_WaitCard
ARM GAS  C:\Users\AHMED~1.ELE\AppData\Local\Temp\ccu9CE5U.s 			page 7


 318:src/ctltrans.c **** //  Description     :
 319:src/ctltrans.c **** //  Input           : aTout10ms - timeout in 10ms
 320:src/ctltrans.c **** //                    aLvParam - LV param for open
 321:src/ctltrans.c **** //  Return          : >=0 - OK
 322:src/ctltrans.c **** //                    <0  - Err
 323:src/ctltrans.c **** //  Note            : N/A
 324:src/ctltrans.c **** //  Globals Changed : N/A
 325:src/ctltrans.c **** //=============================================================================
 326:src/ctltrans.c **** int CL_WaitCard(DWORD aTout10ms, BYTE *aLvParam)
 327:src/ctltrans.c **** {
 328:src/ctltrans.c **** #ifndef WIN32 // simulator not supported yet
 329:src/ctltrans.c **** 
 330:src/ctltrans.c ****   int iRet=CL_TIMEOUT;
 331:src/ctltrans.c ****   BYTE bLen, abIStr[20];
 332:src/ctltrans.c **** 
 333:src/ctltrans.c ****   // turn on blue LED
 334:src/ctltrans.c ****   CL_LedSet(CTL_LED_TAP_CARD);
 335:src/ctltrans.c **** 
 336:src/ctltrans.c ****   //Param = [Len(1)] | [PollTime(2)] | [Timeout(2)] | [WtxTimeout(2) |..
 337:src/ctltrans.c ****   bLen = 0;
 338:src/ctltrans.c ****   abIStr[bLen++] = 0;   // num of bytes - set to 0 first
 339:src/ctltrans.c ****   WPut(abIStr+bLen, aTout10ms); //poll time in 10ms
 340:src/ctltrans.c ****   bLen += 2;
 341:src/ctltrans.c ****   // set parameter if need
 342:src/ctltrans.c ****   if ((aLvParam != NULL) && (aLvParam[0] > 0x02)) {
 343:src/ctltrans.c ****     memcpy(abIStr+bLen, aLvParam+3, aLvParam[0]-2); //ignore Poll time
 344:src/ctltrans.c ****     bLen += (aLvParam[0]-2);
 345:src/ctltrans.c ****   }
 346:src/ctltrans.c ****   abIStr[0] = bLen - 1;   // update final len
 347:src/ctltrans.c ****   //25-07-17 JC ++
 348:src/ctltrans.c ****   if (gCtlOffNow == 0) {
 349:src/ctltrans.c ****     gCtlStartCnt = FreeRunMark();
 350:src/ctltrans.c ****     gCtlOffNow = 1;
 351:src/ctltrans.c ****     iRet = os_clicc_poll(abIStr);
 352:src/ctltrans.c ****     switch (iRet) {
 353:src/ctltrans.c ****       case K_ERR_CLICC_OK:        
 354:src/ctltrans.c ****         iRet = CL_OK;
 355:src/ctltrans.c ****         break;
 356:src/ctltrans.c ****       case K_ERR_CLICC_NO_CARD:   
 357:src/ctltrans.c ****         iRet = CL_TIMEOUT;
 358:src/ctltrans.c ****         break;
 359:src/ctltrans.c ****       case K_ERR_CLICC_COLLISION: 
 360:src/ctltrans.c ****         iRet = CL_MORE_CARDS;
 361:src/ctltrans.c ****         break;
 362:src/ctltrans.c ****       case K_ERR_CLICC_TRANS:     
 363:src/ctltrans.c ****       case K_ERR_CLICC_PROTOCOL:  
 364:src/ctltrans.c ****       case K_ERR_CLICC_TIMEOUT:   
 365:src/ctltrans.c ****       case K_ERR_CLICC_INTERNAL:  
 366:src/ctltrans.c ****       case K_ERR_CLICC_NOT_READY: 
 367:src/ctltrans.c ****       case K_ERR_CLICC_INPUT:     
 368:src/ctltrans.c ****       default:    
 369:src/ctltrans.c ****         iRet = CL_ERR;
 370:src/ctltrans.c ****         break;
 371:src/ctltrans.c ****     }
 372:src/ctltrans.c ****   }
 373:src/ctltrans.c ****   else {
 374:src/ctltrans.c ****     if (FreeRunElapsed(gCtlStartCnt) > CTL_ON_ONCE_INTERVAL)
ARM GAS  C:\Users\AHMED~1.ELE\AppData\Local\Temp\ccu9CE5U.s 			page 8


 375:src/ctltrans.c ****       gCtlOffNow = 0;
 376:src/ctltrans.c ****   }
 377:src/ctltrans.c ****   //25-07-17 JC --
 378:src/ctltrans.c ****   return iRet;
 379:src/ctltrans.c **** 
 380:src/ctltrans.c **** #endif // #ifndef WIN32 
 381:src/ctltrans.c **** }
 382:src/ctltrans.c **** //=============================================================================
 383:src/ctltrans.c **** //  Function        : CL_Close
 384:src/ctltrans.c **** //  Description     :
 385:src/ctltrans.c **** //  Input           : aWaitRemove10ms - If zero, no waiting and return ok.
 386:src/ctltrans.c **** //                      Other wait time, return ok if removed or err not yet remove
 387:src/ctltrans.c **** //  Return          : >=0 - OK
 388:src/ctltrans.c **** //                    <0  - Err
 389:src/ctltrans.c **** //  Note            : N/A
 390:src/ctltrans.c **** //  Globals Changed : N/A
 391:src/ctltrans.c **** //=============================================================================
 392:src/ctltrans.c **** int CL_Close(DWORD aWaitRemove10ms)
 393:src/ctltrans.c **** {
 394:src/ctltrans.c **** #ifndef WIN32 // simulator not supported yet
 395:src/ctltrans.c **** 
 396:src/ctltrans.c ****   int iRet;
 397:src/ctltrans.c ****   gCtlOffNow = 0;                           //25-07-17 JC ++
 398:src/ctltrans.c ****   if (aWaitRemove10ms == 0) { //PC1004 for reset command
 399:src/ctltrans.c ****     os_clicc_remove(1);    
 400:src/ctltrans.c ****   }
 401:src/ctltrans.c ****   iRet = os_clicc_remove(aWaitRemove10ms);
 402:src/ctltrans.c ****   switch (iRet) {
 403:src/ctltrans.c ****     case K_ERR_CLICC_OK:        
 404:src/ctltrans.c ****       iRet = CL_OK;
 405:src/ctltrans.c ****       break;
 406:src/ctltrans.c ****     case K_ERR_CLICC_NO_CARD:   
 407:src/ctltrans.c ****     case K_ERR_CLICC_COLLISION: 
 408:src/ctltrans.c ****     case K_ERR_CLICC_TRANS:     
 409:src/ctltrans.c ****     case K_ERR_CLICC_PROTOCOL:  
 410:src/ctltrans.c ****     case K_ERR_CLICC_TIMEOUT:   
 411:src/ctltrans.c ****     case K_ERR_CLICC_INTERNAL:  
 412:src/ctltrans.c ****     case K_ERR_CLICC_NOT_READY: 
 413:src/ctltrans.c ****     case K_ERR_CLICC_INPUT:     
 414:src/ctltrans.c ****     default:    
 415:src/ctltrans.c ****       iRet = CL_ERR;
 416:src/ctltrans.c ****       break;
 417:src/ctltrans.c ****   }
 418:src/ctltrans.c ****   os_disp_backc(RGB_BACKGR);  //25-10-12 JC ++  // set backgd colour when close
 419:src/ctltrans.c ****   return iRet;
 420:src/ctltrans.c **** 
 421:src/ctltrans.c **** #endif // #ifndef WIN32 
 422:src/ctltrans.c **** }
 423:src/ctltrans.c **** //=============================================================================
 424:src/ctltrans.c **** //  Function        : CL_Off
 425:src/ctltrans.c **** //  Description     :
 426:src/ctltrans.c **** //  Input           : N/A
 427:src/ctltrans.c **** //  Return          : N/A
 428:src/ctltrans.c **** //  Note            : //25-07-17 JC ++
 429:src/ctltrans.c **** //  Globals Changed : N/A
 430:src/ctltrans.c **** //=============================================================================
 431:src/ctltrans.c **** void CL_Off(void)
ARM GAS  C:\Users\AHMED~1.ELE\AppData\Local\Temp\ccu9CE5U.s 			page 9


 432:src/ctltrans.c **** {
 433:src/ctltrans.c ****   os_clicc_led_close();
 434:src/ctltrans.c ****   os_clicc_close();
 435:src/ctltrans.c **** }
 436:src/ctltrans.c **** /******************************************************************************
 437:src/ctltrans.c ****  *  Function        : debugCTL
 438:src/ctltrans.c ****  *  Description     : EMV debug printing routines.
 439:src/ctltrans.c ****  *  Input           : N/A
 440:src/ctltrans.c ****  *  Return          : N/A
 441:src/ctltrans.c ****  *  Note            : N/A
 442:src/ctltrans.c ****  *  Globals Changed : N/A
 443:src/ctltrans.c ****  ******************************************************************************
 444:src/ctltrans.c ****  */
 445:src/ctltrans.c **** void debugCTL(BYTE aState, BYTE aIn, CL_IO *pCTL)
 446:src/ctltrans.c **** {
 447:src/ctltrans.c ****   WORD i, len, max=70;
 448:src/ctltrans.c ****   BYTE buf[64];
 449:src/ctltrans.c ****   
 450:src/ctltrans.c ****   SprintfMW(buf, "emvclMsg(%d)-%s\n", aState, aIn? "In": "Out");
 451:src/ctltrans.c ****   DispLineMW(buf, MW_LINE1, MW_CLRDISP|MW_SPFONT);
 452:src/ctltrans.c ****   len = pCTL->wLen;
 453:src/ctltrans.c ****   for (i=1; i<=len; i++) {
 454:src/ctltrans.c ****     PrintfMW("%02X", (BYTE)pCTL->pbMsg[i-1]);
 455:src/ctltrans.c ****     if ((i%max) == 0) {
 456:src/ctltrans.c ****       PrintfMW("..");
 457:src/ctltrans.c ****       APM_WaitKey(9000,0);
 458:src/ctltrans.c ****       ClearDispMW();
 459:src/ctltrans.c ****       DispGotoMW(MW_LINE2, MW_SPFONT);
 460:src/ctltrans.c ****     }
 461:src/ctltrans.c ****   }
 462:src/ctltrans.c ****   APM_WaitKey(9000,0);
 463:src/ctltrans.c **** }
 464:src/ctltrans.c **** /******************************************************************************
 465:src/ctltrans.c ****  *  Function        : debugAuxCTL
 466:src/ctltrans.c ****  *  Description     : EMV Processing state machine.
 467:src/ctltrans.c ****  *  Input           : N/A
 468:src/ctltrans.c ****  *  Return          : next action
 469:src/ctltrans.c ****  *  Note            : N/A
 470:src/ctltrans.c ****  *  Globals Changed : gds.emvdll, input;
 471:src/ctltrans.c ****  ******************************************************************************
 472:src/ctltrans.c ****  */
 473:src/ctltrans.c **** void debugAuxCTL(BYTE *pData, DWORD aLen)
 474:src/ctltrans.c **** {
 475:src/ctltrans.c ****   BYTE buf[20];
 476:src/ctltrans.c ****   BYTE *txbuf;
 477:src/ctltrans.c ****   DWORD free_run;
 478:src/ctltrans.c ****   
 479:src/ctltrans.c ****   txbuf = MallocMW(aLen*2+20);
 480:src/ctltrans.c ****   if (txbuf == NULL)
 481:src/ctltrans.c ****     return;
 482:src/ctltrans.c ****   
 483:src/ctltrans.c ****   set_pptr(txbuf, aLen*2+20);
 484:src/ctltrans.c ****   memset(buf, 0, sizeof(buf));
 485:src/ctltrans.c ****   sprintf(buf, "CTL Msg Out(%d):", aLen);
 486:src/ctltrans.c ****   pack_mem(buf, strlen(buf));
 487:src/ctltrans.c ****   split_data(pData, aLen);
 488:src/ctltrans.c ****   pack_mem("\r\n", 2);
ARM GAS  C:\Users\AHMED~1.ELE\AppData\Local\Temp\ccu9CE5U.s 			page 10


 489:src/ctltrans.c **** 
 490:src/ctltrans.c ****   if (!AuxOpen()) {
 491:src/ctltrans.c ****     printf("\fAuxOpen Err\n");
 492:src/ctltrans.c ****     while (GetCharMW()!=MWKEY_CANCL) SleepMW();
 493:src/ctltrans.c ****     return;
 494:src/ctltrans.c ****   }
 495:src/ctltrans.c **** 
 496:src/ctltrans.c ****   free_run = FreeRunMW();
 497:src/ctltrans.c ****   while (FreeRunMW() < free_run + 200*2) {   // 2 sec timeout for send
 498:src/ctltrans.c ****     if (AuxTxRdy()) {
 499:src/ctltrans.c ****       AuxWrite(txbuf, get_distance());
 500:src/ctltrans.c ****       break;
 501:src/ctltrans.c ****     }
 502:src/ctltrans.c ****     SleepMW();
 503:src/ctltrans.c ****   }
 504:src/ctltrans.c ****   AuxClose();
 505:src/ctltrans.c ****   FreeMW(txbuf);
 506:src/ctltrans.c **** }
 507:src/ctltrans.c **** //*****************************************************************************
 508:src/ctltrans.c **** //  Function        : CTLTagSeek
 509:src/ctltrans.c **** //  Description     : Search CTL tags from EMVCLDLL.
 510:src/ctltrans.c **** //  Input           : N/A
 511:src/ctltrans.c **** //  Return          : N/A
 512:src/ctltrans.c **** //  Note            : N/A
 513:src/ctltrans.c **** //  Globals Changed : N/A;
 514:src/ctltrans.c **** //*****************************************************************************
 515:src/ctltrans.c **** TLIST *CTLTagSeek(WORD aTag)
  26              		.loc 1 515 0
  27              		.cfi_startproc
  28              		@ args = 0, pretend = 0, frame = 272
  29              		@ frame_needed = 0, uses_anonymous_args = 0
  30              	.LVL0:
  31 0000 70B5     		push	{r4, r5, r6, lr}
  32              		.cfi_def_cfa_offset 16
  33              		.cfi_offset 4, -16
  34              		.cfi_offset 5, -12
  35              		.cfi_offset 6, -8
  36              		.cfi_offset 14, -4
  37 0002 C6B0     		sub	sp, sp, #280
  38              		.cfi_def_cfa_offset 296
 516:src/ctltrans.c **** {
 517:src/ctltrans.c ****   TLIST *psLp;
 518:src/ctltrans.c ****   BYTE *pMsg, sCtlBuf[256];
 519:src/ctltrans.c ****   CL_IO s_CTLIn, s_CTLOut;
 520:src/ctltrans.c **** 
 521:src/ctltrans.c ****   if ((psLp = TagSeek(gGDS->s_TagList, aTag)) != NULL)
 522:src/ctltrans.c ****     return psLp;
 523:src/ctltrans.c ****   
 524:src/ctltrans.c ****   s_CTLIn.pbMsg = s_CTLOut.pbMsg = sCtlBuf;
  39              		.loc 1 524 0
  40 0004 06AC     		add	r4, sp, #24
 525:src/ctltrans.c ****   memset(s_CTLIn.pbMsg, 0, sizeof(sCtlBuf));
  41              		.loc 1 525 0
  42 0006 4FF48072 		mov	r2, #256
 515:src/ctltrans.c **** {
  43              		.loc 1 515 0
  44 000a 0646     		mov	r6, r0
ARM GAS  C:\Users\AHMED~1.ELE\AppData\Local\Temp\ccu9CE5U.s 			page 11


  45              		.loc 1 525 0
  46 000c 0021     		movs	r1, #0
  47 000e 2046     		mov	r0, r4
  48              	.LVL1:
 524:src/ctltrans.c ****   memset(s_CTLIn.pbMsg, 0, sizeof(sCtlBuf));
  49              		.loc 1 524 0
  50 0010 0594     		str	r4, [sp, #20]
  51 0012 0394     		str	r4, [sp, #12]
  52              		.loc 1 525 0
  53 0014 FFF7FEFF 		bl	memset
  54              	.LVL2:
 526:src/ctltrans.c ****   pMsg = s_CTLIn.pbMsg;
 527:src/ctltrans.c ****   pMsg = TagPut(pMsg, aTag);
  55              		.loc 1 527 0
  56 0018 3146     		mov	r1, r6
  57 001a 2046     		mov	r0, r4
  58 001c FFF7FEFF 		bl	TagPut
  59              	.LVL3:
 528:src/ctltrans.c ****   s_CTLIn.wLen = pMsg - s_CTLIn.pbMsg;
  60              		.loc 1 528 0
  61 0020 039B     		ldr	r3, [sp, #12]
 524:src/ctltrans.c ****   memset(s_CTLIn.pbMsg, 0, sizeof(sCtlBuf));
  62              		.loc 1 524 0
  63 0022 04AD     		add	r5, sp, #16
 529:src/ctltrans.c ****   if (emvclSetup(CLCMD_GET_TAGS, &s_CTLIn, &s_CTLOut)) {
  64              		.loc 1 529 0
  65 0024 0021     		movs	r1, #0
 528:src/ctltrans.c ****   s_CTLIn.wLen = pMsg - s_CTLIn.pbMsg;
  66              		.loc 1 528 0
  67 0026 C01A     		subs	r0, r0, r3
  68              	.LVL4:
  69              		.loc 1 529 0
  70 0028 0095     		str	r5, [sp]
 528:src/ctltrans.c ****   s_CTLIn.wLen = pMsg - s_CTLIn.pbMsg;
  71              		.loc 1 528 0
  72 002a ADF80800 		strh	r0, [sp, #8]	@ movhi
  73              		.loc 1 529 0
  74 002e 8022     		movs	r2, #128
  75 0030 6420     		movs	r0, #100
  76 0032 02AB     		add	r3, sp, #8
  77 0034 FFF7FEFF 		bl	lib_app_call
  78              	.LVL5:
  79 0038 C0B2     		uxtb	r0, r0
  80 003a B0B1     		cbz	r0, .L2
 530:src/ctltrans.c ****     // get valid 'V' if return len longer than 'T+L'
 531:src/ctltrans.c ****     if (s_CTLOut.wLen > (s_CTLIn.wLen + 1)) {
  81              		.loc 1 531 0
  82 003c BDF80820 		ldrh	r2, [sp, #8]
  83 0040 2B88     		ldrh	r3, [r5]
  84 0042 511C     		adds	r1, r2, #1
  85 0044 8B42     		cmp	r3, r1
  86 0046 0FDD     		ble	.L4
 532:src/ctltrans.c ****       gTagList.wTag = aTag;
  87              		.loc 1 532 0
  88 0048 094C     		ldr	r4, .L6
  89 004a 2680     		strh	r6, [r4]	@ movhi
 533:src/ctltrans.c ****       gTagList.sLen = s_CTLOut.pbMsg[s_CTLIn.wLen];
ARM GAS  C:\Users\AHMED~1.ELE\AppData\Local\Temp\ccu9CE5U.s 			page 12


  90              		.loc 1 533 0
  91 004c 6E68     		ldr	r6, [r5, #4]
 534:src/ctltrans.c ****       memcpy(gTagBuf, &s_CTLOut.pbMsg[s_CTLIn.wLen+1], s_CTLOut.wLen-s_CTLIn.wLen-1);
  92              		.loc 1 534 0
  93 004e 04F10805 		add	r5, r4, #8
 533:src/ctltrans.c ****       gTagList.sLen = s_CTLOut.pbMsg[s_CTLIn.wLen];
  94              		.loc 1 533 0
  95 0052 B05C     		ldrb	r0, [r6, r2]	@ zero_extendqisi2
  96              		.loc 1 534 0
  97 0054 9A1A     		subs	r2, r3, r2
 533:src/ctltrans.c ****       gTagList.sLen = s_CTLOut.pbMsg[s_CTLIn.wLen];
  98              		.loc 1 533 0
  99 0056 A070     		strb	r0, [r4, #2]
 100              		.loc 1 534 0
 101 0058 3144     		add	r1, r1, r6
 102 005a 2846     		mov	r0, r5
 103 005c 013A     		subs	r2, r2, #1
 104 005e FFF7FEFF 		bl	memcpy
 105              	.LVL6:
 535:src/ctltrans.c ****       gTagList.pbLoc = gTagBuf;
 106              		.loc 1 535 0
 107 0062 6560     		str	r5, [r4, #4]
 536:src/ctltrans.c ****       return &gTagList;
 108              		.loc 1 536 0
 109 0064 2046     		mov	r0, r4
 110 0066 00E0     		b	.L2
 111              	.L4:
 537:src/ctltrans.c ****     }
 538:src/ctltrans.c ****   }
 539:src/ctltrans.c ****   
 540:src/ctltrans.c ****   return NULL;
 112              		.loc 1 540 0
 113 0068 0020     		movs	r0, #0
 114              	.L2:
 541:src/ctltrans.c **** }
 115              		.loc 1 541 0
 116 006a 46B0     		add	sp, sp, #280
 117              		.cfi_def_cfa_offset 16
 118              		@ sp needed
 119 006c 70BD     		pop	{r4, r5, r6, pc}
 120              	.L7:
 121 006e 00BF     		.align	2
 122              	.L6:
 123 0070 00000000 		.word	.LANCHOR0
 124              		.cfi_endproc
 125              	.LFE32:
 126              		.size	CTLTagSeek.part.1, .-CTLTagSeek.part.1
 127              		.section	.text.CL_Led,"ax",%progbits
 128              		.align	1
 129              		.global	CL_Led
 130              		.thumb
 131              		.thumb_func
 132              		.type	CL_Led, %function
 133              	CL_Led:
 134              	.LFB0:
 136:src/ctltrans.c **** #ifndef WIN32 // simulator not supported yet
 135              		.loc 1 136 0
ARM GAS  C:\Users\AHMED~1.ELE\AppData\Local\Temp\ccu9CE5U.s 			page 13


 136              		.cfi_startproc
 137              		@ args = 0, pretend = 0, frame = 0
 138              		@ frame_needed = 0, uses_anonymous_args = 0
 139              	.LVL7:
 140 0000 10B5     		push	{r4, lr}
 141              		.cfi_def_cfa_offset 8
 142              		.cfi_offset 4, -8
 143              		.cfi_offset 14, -4
 141:src/ctltrans.c ****     case 0: //blue
 144              		.loc 1 141 0
 145 0002 0378     		ldrb	r3, [r0]	@ zero_extendqisi2
 146 0004 032B     		cmp	r3, #3
 147 0006 8EBF     		itee	hi
 148 0008 0321     		movhi	r1, #3
 149 000a 144A     		ldrls	r2, .L16
 150 000c D15C     		ldrbls	r1, [r2, r3]	@ zero_extendqisi2
 151              	.LVL8:
 158:src/ctltrans.c ****     os_clicc_led_set(bLedId);
 152              		.loc 1 158 0
 153 000e 4278     		ldrb	r2, [r0, #1]	@ zero_extendqisi2
 154 0010 FF2A     		cmp	r2, #255
 155 0012 02D1     		bne	.L10
 159:src/ctltrans.c ****   }
 156              		.loc 1 159 0
 157 0014 4FF49D70 		mov	r0, #314
 158              	.LVL9:
 159 0018 04E0     		b	.L15
 160              	.LVL10:
 161              	.L10:
 161:src/ctltrans.c ****     os_clicc_led_clear(bLedId);
 162              		.loc 1 161 0
 163 001a 8378     		ldrb	r3, [r0, #2]	@ zero_extendqisi2
 164 001c FF2B     		cmp	r3, #255
 165 001e 05D1     		bne	.L11
 162:src/ctltrans.c ****   }
 166              		.loc 1 162 0
 167 0020 40F23B10 		movw	r0, #315
 168              	.LVL11:
 169              	.L15:
 171:src/ctltrans.c **** //=============================================================================
 170              		.loc 1 171 0
 171 0024 BDE81040 		pop	{r4, lr}
 172              		.cfi_remember_state
 173              		.cfi_restore 14
 174              		.cfi_restore 4
 175              		.cfi_def_cfa_offset 0
 162:src/ctltrans.c ****   }
 176              		.loc 1 162 0
 177 0028 FFF7FEBF 		b	sys_func1
 178              	.LVL12:
 179              	.L11:
 180              		.cfi_restore_state
 165:src/ctltrans.c ****     dCycle = (aIdOnOffCycle[3] == 0xFF)? 0xFFFFFF: aIdOnOffCycle[3];
 181              		.loc 1 165 0
 182 002c 12B2     		sxth	r2, r2
 183 002e 1BB2     		sxth	r3, r3
 184 0030 D400     		lsls	r4, r2, #3
ARM GAS  C:\Users\AHMED~1.ELE\AppData\Local\Temp\ccu9CE5U.s 			page 14


 185 0032 04EB4202 		add	r2, r4, r2, lsl #1
 186 0036 DC00     		lsls	r4, r3, #3
 187 0038 04EB4303 		add	r3, r4, r3, lsl #1
 188              	.LVL13:
 166:src/ctltrans.c ****     os_clicc_led_on(bLedId, dOnOff, dCycle);
 189              		.loc 1 166 0
 190 003c C478     		ldrb	r4, [r0, #3]	@ zero_extendqisi2
 167:src/ctltrans.c ****   }
 191              		.loc 1 167 0
 192 003e 43EA0242 		orr	r2, r3, r2, lsl #16
 193              	.LVL14:
 166:src/ctltrans.c ****     os_clicc_led_on(bLedId, dOnOff, dCycle);
 194              		.loc 1 166 0
 195 0042 FF2C     		cmp	r4, #255
 196              	.LVL15:
 167:src/ctltrans.c ****   }
 197              		.loc 1 167 0
 198 0044 18BF     		it	ne
 199 0046 2346     		movne	r3, r4
 171:src/ctltrans.c **** //=============================================================================
 200              		.loc 1 171 0
 201 0048 BDE81040 		pop	{r4, lr}
 202              		.cfi_restore 14
 203              		.cfi_restore 4
 204              		.cfi_def_cfa_offset 0
 205              	.LVL16:
 167:src/ctltrans.c ****   }
 206              		.loc 1 167 0
 207 004c 4FF49E70 		mov	r0, #316
 208              	.LVL17:
 209 0050 08BF     		it	eq
 210 0052 6FF07F43 		mvneq	r3, #-16777216
 211 0056 FFF7FEBF 		b	sys_func3
 212              	.LVL18:
 213              	.L17:
 214 005a 00BF     		.align	2
 215              	.L16:
 216 005c 00000000 		.word	.LANCHOR1
 217              		.cfi_endproc
 218              	.LFE0:
 219              		.size	CL_Led, .-CL_Led
 220              		.section	.text.CL_LedSet,"ax",%progbits
 221              		.align	1
 222              		.global	CL_LedSet
 223              		.thumb
 224              		.thumb_func
 225              		.type	CL_LedSet, %function
 226              	CL_LedSet:
 227              	.LFB1:
 182:src/ctltrans.c ****   switch(aSet) {
 228              		.loc 1 182 0
 229              		.cfi_startproc
 230              		@ args = 0, pretend = 0, frame = 0
 231              		@ frame_needed = 0, uses_anonymous_args = 0
 232              	.LVL19:
 233 0000 08B5     		push	{r3, lr}
 234              		.cfi_def_cfa_offset 8
ARM GAS  C:\Users\AHMED~1.ELE\AppData\Local\Temp\ccu9CE5U.s 			page 15


 235              		.cfi_offset 3, -8
 236              		.cfi_offset 14, -4
 183:src/ctltrans.c ****     case CTL_LED_IDLE:
 237              		.loc 1 183 0
 238 0002 0728     		cmp	r0, #7
 239 0004 2FD8     		bhi	.L18
 240 0006 DFE800F0 		tbb	[pc, r0]
 241              	.L21:
 242 000a 04       		.byte	(.L20-.L21)/2
 243 000b 06       		.byte	(.L22-.L21)/2
 244 000c 08       		.byte	(.L23-.L21)/2
 245 000d 18       		.byte	(.L27-.L21)/2
 246 000e 18       		.byte	(.L27-.L21)/2
 247 000f 0D       		.byte	(.L26-.L21)/2
 248 0010 18       		.byte	(.L27-.L21)/2
 249 0011 20       		.byte	(.L28-.L21)/2
 250              		.p2align 1
 251              	.L20:
 186:src/ctltrans.c ****       CL_Led("\x01\x00\xFF\x00");
 252              		.loc 1 186 0
 253 0012 1548     		ldr	r0, .L33
 254              	.LVL20:
 255 0014 1AE0     		b	.L29
 256              	.LVL21:
 257              	.L22:
 193:src/ctltrans.c ****       CL_Led("\x01\x00\xFF\x00");
 258              		.loc 1 193 0
 259 0016 1548     		ldr	r0, .L33+4
 260              	.LVL22:
 261 0018 18E0     		b	.L29
 262              	.LVL23:
 263              	.L23:
 200:src/ctltrans.c ****       CL_Led("\x01\xFF\x00\x00");
 264              		.loc 1 200 0
 265 001a 1448     		ldr	r0, .L33+4
 266              	.LVL24:
 267 001c FFF7FEFF 		bl	CL_Led
 268              	.LVL25:
 201:src/ctltrans.c ****       CL_Led("\x02\x00\xFF\x00");
 269              		.loc 1 201 0
 270 0020 1348     		ldr	r0, .L33+8
 271 0022 16E0     		b	.L32
 272              	.LVL26:
 273              	.L26:
 221:src/ctltrans.c ****       CL_Led("\x01\x00\xFF\x00");
 274              		.loc 1 221 0
 275 0024 1148     		ldr	r0, .L33+4
 276              	.LVL27:
 277 0026 FFF7FEFF 		bl	CL_Led
 278              	.LVL28:
 222:src/ctltrans.c ****       CL_Led("\x02\x00\xFF\x00");
 279              		.loc 1 222 0
 280 002a 1248     		ldr	r0, .L33+12
 281 002c FFF7FEFF 		bl	CL_Led
 282              	.LVL29:
 223:src/ctltrans.c ****       CL_Led("\x03\xFF\x00\x00");
 283              		.loc 1 223 0
ARM GAS  C:\Users\AHMED~1.ELE\AppData\Local\Temp\ccu9CE5U.s 			page 16


 284 0030 1148     		ldr	r0, .L33+16
 285 0032 FFF7FEFF 		bl	CL_Led
 286              	.LVL30:
 224:src/ctltrans.c ****       break;
 287              		.loc 1 224 0
 288 0036 1148     		ldr	r0, .L33+20
 289 0038 11E0     		b	.L31
 290              	.LVL31:
 291              	.L27:
 228:src/ctltrans.c ****       CL_Led("\x01\x00\xFF\x00");
 292              		.loc 1 228 0
 293 003a 0C48     		ldr	r0, .L33+4
 294              	.LVL32:
 295 003c FFF7FEFF 		bl	CL_Led
 296              	.LVL33:
 229:src/ctltrans.c ****       CL_Led("\x02\xFF\x00\x00");
 297              		.loc 1 229 0
 298 0040 0C48     		ldr	r0, .L33+12
 299 0042 FFF7FEFF 		bl	CL_Led
 300              	.LVL34:
 230:src/ctltrans.c ****       CL_Led("\x03\x00\xFF\x00");
 301              		.loc 1 230 0
 302 0046 0E48     		ldr	r0, .L33+24
 303 0048 06E0     		b	.L30
 304              	.LVL35:
 305              	.L28:
 235:src/ctltrans.c ****       CL_Led("\x01\x00\xFF\x00");
 306              		.loc 1 235 0
 307 004a 0E48     		ldr	r0, .L33+28
 308              	.LVL36:
 309              	.L29:
 310 004c FFF7FEFF 		bl	CL_Led
 311              	.LVL37:
 236:src/ctltrans.c ****       CL_Led("\x02\x00\xFF\x00");
 312              		.loc 1 236 0
 313 0050 0848     		ldr	r0, .L33+12
 314              	.L32:
 315 0052 FFF7FEFF 		bl	CL_Led
 316              	.LVL38:
 237:src/ctltrans.c ****       CL_Led("\x03\x00\xFF\x00");
 317              		.loc 1 237 0
 318 0056 0848     		ldr	r0, .L33+16
 319              	.L30:
 320 0058 FFF7FEFF 		bl	CL_Led
 321              	.LVL39:
 238:src/ctltrans.c ****       break;
 322              		.loc 1 238 0
 323 005c 0A48     		ldr	r0, .L33+32
 324              	.L31:
 243:src/ctltrans.c **** //*****************************************************************************
 325              		.loc 1 243 0
 326 005e BDE80840 		pop	{r3, lr}
 327              		.cfi_restore 14
 328              		.cfi_restore 3
 329              		.cfi_def_cfa_offset 0
 238:src/ctltrans.c ****       break;
 330              		.loc 1 238 0
ARM GAS  C:\Users\AHMED~1.ELE\AppData\Local\Temp\ccu9CE5U.s 			page 17


 331 0062 FFF7FEBF 		b	CL_Led
 332              	.LVL40:
 333              	.L18:
 334 0066 08BD     		pop	{r3, pc}
 335              	.L34:
 336              		.align	2
 337              	.L33:
 338 0068 04000000 		.word	.LANCHOR1+4
 339 006c 18000000 		.word	.LANCHOR1+24
 340 0070 1D000000 		.word	.LANCHOR1+29
 341 0074 09000000 		.word	.LANCHOR1+9
 342 0078 0E000000 		.word	.LANCHOR1+14
 343 007c 27000000 		.word	.LANCHOR1+39
 344 0080 22000000 		.word	.LANCHOR1+34
 345 0084 2C000000 		.word	.LANCHOR1+44
 346 0088 13000000 		.word	.LANCHOR1+19
 347              		.cfi_endproc
 348              	.LFE1:
 349              		.size	CL_LedSet, .-CL_LedSet
 350              		.section	.text.GetCTLKeyInfo,"ax",%progbits
 351              		.align	1
 352              		.global	GetCTLKeyInfo
 353              		.thumb
 354              		.thumb_func
 355              		.type	GetCTLKeyInfo, %function
 356              	GetCTLKeyInfo:
 357              	.LFB3:
 272:src/ctltrans.c ****   gGDS->s_CTLIn.pbMsg[0] = (BYTE) aIdx|0x80;
 358              		.loc 1 272 0
 359              		.cfi_startproc
 360              		@ args = 0, pretend = 0, frame = 0
 361              		@ frame_needed = 0, uses_anonymous_args = 0
 362              	.LVL41:
 363 0000 73B5     		push	{r0, r1, r4, r5, r6, lr}
 364              		.cfi_def_cfa_offset 24
 365              		.cfi_offset 4, -16
 366              		.cfi_offset 5, -12
 367              		.cfi_offset 6, -8
 368              		.cfi_offset 14, -4
 273:src/ctltrans.c ****   gGDS->s_CTLIn.wLen = 1;
 369              		.loc 1 273 0
 370 0002 134C     		ldr	r4, .L41
 371 0004 61F07F01 		orn	r1, r1, #127
 372              	.LVL42:
 373 0008 2368     		ldr	r3, [r4]
 274:src/ctltrans.c **** 
 374              		.loc 1 274 0
 375 000a 0126     		movs	r6, #1
 273:src/ctltrans.c ****   gGDS->s_CTLIn.wLen = 1;
 376              		.loc 1 273 0
 377 000c 03F55E53 		add	r3, r3, #14208
 272:src/ctltrans.c ****   gGDS->s_CTLIn.pbMsg[0] = (BYTE) aIdx|0x80;
 378              		.loc 1 272 0
 379 0010 0546     		mov	r5, r0
 273:src/ctltrans.c ****   gGDS->s_CTLIn.wLen = 1;
 380              		.loc 1 273 0
 381 0012 5B69     		ldr	r3, [r3, #20]
ARM GAS  C:\Users\AHMED~1.ELE\AppData\Local\Temp\ccu9CE5U.s 			page 18


 276:src/ctltrans.c ****     return FALSE;
 382              		.loc 1 276 0
 383 0014 6420     		movs	r0, #100
 384              	.LVL43:
 273:src/ctltrans.c ****   gGDS->s_CTLIn.wLen = 1;
 385              		.loc 1 273 0
 386 0016 1970     		strb	r1, [r3]
 274:src/ctltrans.c **** 
 387              		.loc 1 274 0
 388 0018 2368     		ldr	r3, [r4]
 276:src/ctltrans.c ****     return FALSE;
 389              		.loc 1 276 0
 390 001a 0021     		movs	r1, #0
 274:src/ctltrans.c **** 
 391              		.loc 1 274 0
 392 001c 03F55E53 		add	r3, r3, #14208
 276:src/ctltrans.c ****     return FALSE;
 393              		.loc 1 276 0
 394 0020 03F11802 		add	r2, r3, #24
 274:src/ctltrans.c **** 
 395              		.loc 1 274 0
 396 0024 1E82     		strh	r6, [r3, #16]	@ movhi
 276:src/ctltrans.c ****     return FALSE;
 397              		.loc 1 276 0
 398 0026 0092     		str	r2, [sp]
 399 0028 1033     		adds	r3, r3, #16
 400 002a 0A22     		movs	r2, #10
 401 002c FFF7FEFF 		bl	lib_app_call
 402              	.LVL44:
 403 0030 C0B2     		uxtb	r0, r0
 404 0032 50B1     		cbz	r0, .L36
 405              	.LVL45:
 406              	.LBB15:
 407              	.LBB16:
 408 0034 2368     		ldr	r3, [r4]
 409 0036 03F55E53 		add	r3, r3, #14208
 410 003a 188B     		ldrh	r0, [r3, #24]
 411 003c 28B1     		cbz	r0, .L36
 279:src/ctltrans.c ****   return TRUE;
 412              		.loc 1 279 0
 413 003e 2846     		mov	r0, r5
 414 0040 D969     		ldr	r1, [r3, #28]
 415 0042 0C22     		movs	r2, #12
 416 0044 FFF7FEFF 		bl	memcpy
 417              	.LVL46:
 280:src/ctltrans.c **** }
 418              		.loc 1 280 0
 419 0048 3046     		mov	r0, r6
 420              	.LVL47:
 421              	.L36:
 422              	.LBE16:
 423              	.LBE15:
 281:src/ctltrans.c **** //=============================================================================
 424              		.loc 1 281 0
 425 004a 02B0     		add	sp, sp, #8
 426              		.cfi_def_cfa_offset 16
 427              		@ sp needed
ARM GAS  C:\Users\AHMED~1.ELE\AppData\Local\Temp\ccu9CE5U.s 			page 19


 428 004c 70BD     		pop	{r4, r5, r6, pc}
 429              	.LVL48:
 430              	.L42:
 431 004e 00BF     		.align	2
 432              	.L41:
 433 0050 00000000 		.word	gGDS
 434              		.cfi_endproc
 435              	.LFE3:
 436              		.size	GetCTLKeyInfo, .-GetCTLKeyInfo
 437              		.section	.text.CL_Init,"ax",%progbits
 438              		.align	1
 439              		.global	CL_Init
 440              		.thumb
 441              		.thumb_func
 442              		.type	CL_Init, %function
 443              	CL_Init:
 444              	.LFB4:
 292:src/ctltrans.c **** #ifndef WIN32 // simulator not supported yet
 445              		.loc 1 292 0
 446              		.cfi_startproc
 447              		@ args = 0, pretend = 0, frame = 16
 448              		@ frame_needed = 0, uses_anonymous_args = 0
 449 0000 30B5     		push	{r4, r5, lr}
 450              		.cfi_def_cfa_offset 12
 451              		.cfi_offset 4, -12
 452              		.cfi_offset 5, -8
 453              		.cfi_offset 14, -4
 298:src/ctltrans.c **** 
 454              		.loc 1 298 0
 455 0002 0020     		movs	r0, #0
 292:src/ctltrans.c **** #ifndef WIN32 // simulator not supported yet
 456              		.loc 1 292 0
 457 0004 87B0     		sub	sp, sp, #28
 458              		.cfi_def_cfa_offset 40
 298:src/ctltrans.c **** 
 459              		.loc 1 298 0
 460 0006 FFF7FEFF 		bl	CL_LedSet
 461              	.LVL49:
 462              	.LBB19:
 463              	.LBB20:
 255:src/ctltrans.c ****   gGDS->s_CTLIn.wLen = 1;
 464              		.loc 1 255 0
 465 000a 194A     		ldr	r2, .L54
 466 000c 0025     		movs	r5, #0
 467 000e 1368     		ldr	r3, [r2]
 256:src/ctltrans.c ****   if (emvclSetup(CLCMD_READ_AIDIDX, &gGDS->s_CTLIn, &gGDS->s_CTLOut) == FALSE)     // load APP para
 468              		.loc 1 256 0
 469 0010 0124     		movs	r4, #1
 255:src/ctltrans.c ****   gGDS->s_CTLIn.wLen = 1;
 470              		.loc 1 255 0
 471 0012 03F55E53 		add	r3, r3, #14208
 257:src/ctltrans.c ****     return FALSE;
 472              		.loc 1 257 0
 473 0016 6420     		movs	r0, #100
 255:src/ctltrans.c ****   gGDS->s_CTLIn.wLen = 1;
 474              		.loc 1 255 0
 475 0018 5B69     		ldr	r3, [r3, #20]
ARM GAS  C:\Users\AHMED~1.ELE\AppData\Local\Temp\ccu9CE5U.s 			page 20


 257:src/ctltrans.c ****     return FALSE;
 476              		.loc 1 257 0
 477 001a 2946     		mov	r1, r5
 255:src/ctltrans.c ****   gGDS->s_CTLIn.wLen = 1;
 478              		.loc 1 255 0
 479 001c 1D70     		strb	r5, [r3]
 256:src/ctltrans.c ****   if (emvclSetup(CLCMD_READ_AIDIDX, &gGDS->s_CTLIn, &gGDS->s_CTLOut) == FALSE)     // load APP para
 480              		.loc 1 256 0
 481 001e 1368     		ldr	r3, [r2]
 482 0020 03F55E53 		add	r3, r3, #14208
 257:src/ctltrans.c ****     return FALSE;
 483              		.loc 1 257 0
 484 0024 03F11802 		add	r2, r3, #24
 256:src/ctltrans.c ****   if (emvclSetup(CLCMD_READ_AIDIDX, &gGDS->s_CTLIn, &gGDS->s_CTLOut) == FALSE)     // load APP para
 485              		.loc 1 256 0
 486 0028 1C82     		strh	r4, [r3, #16]	@ movhi
 257:src/ctltrans.c ****     return FALSE;
 487              		.loc 1 257 0
 488 002a 0092     		str	r2, [sp]
 489 002c 1033     		adds	r3, r3, #16
 490 002e 0922     		movs	r2, #9
 491 0030 FFF7FEFF 		bl	lib_app_call
 492              	.LVL50:
 493 0034 10F0FF0F 		tst	r0, #255
 494 0038 04D1     		bne	.L44
 495              	.L46:
 496              	.LBE20:
 497              	.LBE19:
 302:src/ctltrans.c ****     return FALSE;
 498              		.loc 1 302 0
 499 003a 0020     		movs	r0, #0
 500 003c FFF7FEFF 		bl	CTLEnable
 501              	.LVL51:
 303:src/ctltrans.c ****   }
 502              		.loc 1 303 0
 503 0040 0020     		movs	r0, #0
 504 0042 13E0     		b	.L52
 505              	.L44:
 301:src/ctltrans.c ****     CTLEnable(FALSE);
 506              		.loc 1 301 0
 507 0044 03A8     		add	r0, sp, #12
 508 0046 2946     		mov	r1, r5
 509 0048 FFF7FEFF 		bl	GetCTLKeyInfo
 510              	.LVL52:
 511 004c 0028     		cmp	r0, #0
 512 004e F4D0     		beq	.L46
 307:src/ctltrans.c ****     os_clicc_led_open();
 513              		.loc 1 307 0
 514 0050 4FF49870 		mov	r0, #304
 515 0054 FFF7FEFF 		bl	sys_func0
 516              	.LVL53:
 517 0058 0028     		cmp	r0, #0
 518 005a EED1     		bne	.L46
 308:src/ctltrans.c ****     CTLEnable(TRUE);
 519              		.loc 1 308 0
 520 005c 40F23710 		movw	r0, #311
 521 0060 FFF7FEFF 		bl	sys_func0
ARM GAS  C:\Users\AHMED~1.ELE\AppData\Local\Temp\ccu9CE5U.s 			page 21


 522              	.LVL54:
 309:src/ctltrans.c ****     return TRUE;
 523              		.loc 1 309 0
 524 0064 2046     		mov	r0, r4
 525 0066 FFF7FEFF 		bl	CTLEnable
 526              	.LVL55:
 310:src/ctltrans.c ****   }
 527              		.loc 1 310 0
 528 006a 2046     		mov	r0, r4
 529              	.L52:
 315:src/ctltrans.c **** //=============================================================================
 530              		.loc 1 315 0
 531 006c 07B0     		add	sp, sp, #28
 532              		.cfi_def_cfa_offset 12
 533              		@ sp needed
 534 006e 30BD     		pop	{r4, r5, pc}
 535              	.L55:
 536              		.align	2
 537              	.L54:
 538 0070 00000000 		.word	gGDS
 539              		.cfi_endproc
 540              	.LFE4:
 541              		.size	CL_Init, .-CL_Init
 542              		.section	.text.CL_WaitCard,"ax",%progbits
 543              		.align	1
 544              		.global	CL_WaitCard
 545              		.thumb
 546              		.thumb_func
 547              		.type	CL_WaitCard, %function
 548              	CL_WaitCard:
 549              	.LFB5:
 327:src/ctltrans.c **** #ifndef WIN32 // simulator not supported yet
 550              		.loc 1 327 0
 551              		.cfi_startproc
 552              		@ args = 0, pretend = 0, frame = 24
 553              		@ frame_needed = 0, uses_anonymous_args = 0
 554              	.LVL56:
 555 0000 70B5     		push	{r4, r5, r6, lr}
 556              		.cfi_def_cfa_offset 16
 557              		.cfi_offset 4, -16
 558              		.cfi_offset 5, -12
 559              		.cfi_offset 6, -8
 560              		.cfi_offset 14, -4
 561 0002 0446     		mov	r4, r0
 562 0004 86B0     		sub	sp, sp, #24
 563              		.cfi_def_cfa_offset 40
 334:src/ctltrans.c **** 
 564              		.loc 1 334 0
 565 0006 0120     		movs	r0, #1
 566              	.LVL57:
 327:src/ctltrans.c **** #ifndef WIN32 // simulator not supported yet
 567              		.loc 1 327 0
 568 0008 0E46     		mov	r6, r1
 334:src/ctltrans.c **** 
 569              		.loc 1 334 0
 570 000a FFF7FEFF 		bl	CL_LedSet
 571              	.LVL58:
ARM GAS  C:\Users\AHMED~1.ELE\AppData\Local\Temp\ccu9CE5U.s 			page 22


 338:src/ctltrans.c ****   WPut(abIStr+bLen, aTout10ms); //poll time in 10ms
 572              		.loc 1 338 0
 573 000e 06AD     		add	r5, sp, #24
 574 0010 0023     		movs	r3, #0
 339:src/ctltrans.c ****   bLen += 2;
 575              		.loc 1 339 0
 576 0012 A1B2     		uxth	r1, r4
 338:src/ctltrans.c ****   WPut(abIStr+bLen, aTout10ms); //poll time in 10ms
 577              		.loc 1 338 0
 578 0014 05F8143D 		strb	r3, [r5, #-20]!
 339:src/ctltrans.c ****   bLen += 2;
 579              		.loc 1 339 0
 580 0018 681C     		adds	r0, r5, #1
 581 001a FFF7FEFF 		bl	WPut
 582              	.LVL59:
 342:src/ctltrans.c ****     memcpy(abIStr+bLen, aLvParam+3, aLvParam[0]-2); //ignore Poll time
 583              		.loc 1 342 0
 584 001e 56B1     		cbz	r6, .L64
 342:src/ctltrans.c ****     memcpy(abIStr+bLen, aLvParam+3, aLvParam[0]-2); //ignore Poll time
 585              		.loc 1 342 0 is_stmt 0 discriminator 1
 586 0020 3478     		ldrb	r4, [r6]	@ zero_extendqisi2
 587              	.LVL60:
 588 0022 022C     		cmp	r4, #2
 589 0024 07D9     		bls	.L64
 343:src/ctltrans.c ****     bLen += (aLvParam[0]-2);
 590              		.loc 1 343 0 is_stmt 1
 591 0026 A21E     		subs	r2, r4, #2
 344:src/ctltrans.c ****   }
 592              		.loc 1 344 0
 593 0028 0134     		adds	r4, r4, #1
 343:src/ctltrans.c ****     bLen += (aLvParam[0]-2);
 594              		.loc 1 343 0
 595 002a E81C     		adds	r0, r5, #3
 596 002c F11C     		adds	r1, r6, #3
 597 002e FFF7FEFF 		bl	memcpy
 598              	.LVL61:
 344:src/ctltrans.c ****   }
 599              		.loc 1 344 0
 600 0032 E4B2     		uxtb	r4, r4
 601              	.LVL62:
 602 0034 00E0     		b	.L57
 603              	.LVL63:
 604              	.L64:
 340:src/ctltrans.c ****   // set parameter if need
 605              		.loc 1 340 0
 606 0036 0324     		movs	r4, #3
 607              	.LVL64:
 608              	.L57:
 346:src/ctltrans.c ****   //25-07-17 JC ++
 609              		.loc 1 346 0
 610 0038 013C     		subs	r4, r4, #1
 611              	.LVL65:
 612 003a 8DF80440 		strb	r4, [sp, #4]
 348:src/ctltrans.c ****     gCtlStartCnt = FreeRunMark();
 613              		.loc 1 348 0
 614 003e 144C     		ldr	r4, .L69
 615 0040 D4F80831 		ldr	r3, [r4, #264]
ARM GAS  C:\Users\AHMED~1.ELE\AppData\Local\Temp\ccu9CE5U.s 			page 23


 616 0044 ABB9     		cbnz	r3, .L58
 349:src/ctltrans.c ****     gCtlOffNow = 1;
 617              		.loc 1 349 0
 618 0046 FFF7FEFF 		bl	FreeRunMark
 619              	.LVL66:
 350:src/ctltrans.c ****     iRet = os_clicc_poll(abIStr);
 620              		.loc 1 350 0
 621 004a 0123     		movs	r3, #1
 351:src/ctltrans.c ****     switch (iRet) {
 622              		.loc 1 351 0
 623 004c 2946     		mov	r1, r5
 350:src/ctltrans.c ****     iRet = os_clicc_poll(abIStr);
 624              		.loc 1 350 0
 625 004e C4F80831 		str	r3, [r4, #264]
 349:src/ctltrans.c ****     gCtlOffNow = 1;
 626              		.loc 1 349 0
 627 0052 C4F80C01 		str	r0, [r4, #268]
 351:src/ctltrans.c ****     switch (iRet) {
 628              		.loc 1 351 0
 629 0056 40F23110 		movw	r0, #305
 630 005a FFF7FEFF 		bl	sys_func1
 631              	.LVL67:
 352:src/ctltrans.c ****       case K_ERR_CLICC_OK:        
 632              		.loc 1 352 0
 633 005e 421C     		adds	r2, r0, #1
 634 0060 11D0     		beq	.L65
 635 0062 90B1     		cbz	r0, .L61
 369:src/ctltrans.c ****         break;
 636              		.loc 1 369 0
 637 0064 831C     		adds	r3, r0, #2
 638 0066 0CBF     		ite	eq
 639 0068 6FF00200 		mvneq	r0, #2
 640              	.LVL68:
 641 006c 4FF0FF30 		movne	r0, #-1
 642 0070 0BE0     		b	.L61
 643              	.LVL69:
 644              	.L58:
 374:src/ctltrans.c ****       gCtlOffNow = 0;
 645              		.loc 1 374 0
 646 0072 D4F80C01 		ldr	r0, [r4, #268]
 647 0076 FFF7FEFF 		bl	FreeRunElapsed
 648              	.LVL70:
 649 007a B0F5967F 		cmp	r0, #300
 375:src/ctltrans.c ****   }
 650              		.loc 1 375 0
 651 007e 84BF     		itt	hi
 652 0080 0023     		movhi	r3, #0
 653 0082 C4F80831 		strhi	r3, [r4, #264]
 654              	.LVL71:
 655              	.L65:
 330:src/ctltrans.c ****   BYTE bLen, abIStr[20];
 656              		.loc 1 330 0
 657 0086 6FF00100 		mvn	r0, #1
 658              	.L61:
 659              	.LVL72:
 381:src/ctltrans.c **** //=============================================================================
 660              		.loc 1 381 0
ARM GAS  C:\Users\AHMED~1.ELE\AppData\Local\Temp\ccu9CE5U.s 			page 24


 661 008a 06B0     		add	sp, sp, #24
 662              		.cfi_def_cfa_offset 16
 663              		@ sp needed
 664 008c 70BD     		pop	{r4, r5, r6, pc}
 665              	.LVL73:
 666              	.L70:
 667 008e 00BF     		.align	2
 668              	.L69:
 669 0090 00000000 		.word	.LANCHOR0
 670              		.cfi_endproc
 671              	.LFE5:
 672              		.size	CL_WaitCard, .-CL_WaitCard
 673              		.section	.text.CL_Close,"ax",%progbits
 674              		.align	1
 675              		.global	CL_Close
 676              		.thumb
 677              		.thumb_func
 678              		.type	CL_Close, %function
 679              	CL_Close:
 680              	.LFB6:
 393:src/ctltrans.c **** #ifndef WIN32 // simulator not supported yet
 681              		.loc 1 393 0
 682              		.cfi_startproc
 683              		@ args = 0, pretend = 0, frame = 0
 684              		@ frame_needed = 0, uses_anonymous_args = 0
 685              	.LVL74:
 397:src/ctltrans.c ****   if (aWaitRemove10ms == 0) { //PC1004 for reset command
 686              		.loc 1 397 0
 687 0000 0022     		movs	r2, #0
 393:src/ctltrans.c **** #ifndef WIN32 // simulator not supported yet
 688              		.loc 1 393 0
 689 0002 10B5     		push	{r4, lr}
 690              		.cfi_def_cfa_offset 8
 691              		.cfi_offset 4, -8
 692              		.cfi_offset 14, -4
 397:src/ctltrans.c ****   if (aWaitRemove10ms == 0) { //PC1004 for reset command
 693              		.loc 1 397 0
 694 0004 0D4B     		ldr	r3, .L77
 398:src/ctltrans.c ****     os_clicc_remove(1);    
 695              		.loc 1 398 0
 696 0006 0446     		mov	r4, r0
 397:src/ctltrans.c ****   if (aWaitRemove10ms == 0) { //PC1004 for reset command
 697              		.loc 1 397 0
 698 0008 C3F80821 		str	r2, [r3, #264]
 398:src/ctltrans.c ****     os_clicc_remove(1);    
 699              		.loc 1 398 0
 700 000c 20B9     		cbnz	r0, .L72
 399:src/ctltrans.c ****   }
 701              		.loc 1 399 0
 702 000e 4FF49970 		mov	r0, #306
 703              	.LVL75:
 704 0012 0121     		movs	r1, #1
 705 0014 FFF7FEFF 		bl	sys_func1
 706              	.LVL76:
 707              	.L72:
 401:src/ctltrans.c ****   switch (iRet) {
 708              		.loc 1 401 0
ARM GAS  C:\Users\AHMED~1.ELE\AppData\Local\Temp\ccu9CE5U.s 			page 25


 709 0018 2146     		mov	r1, r4
 710 001a 4FF49970 		mov	r0, #306
 711 001e FFF7FEFF 		bl	sys_func1
 712              	.LVL77:
 418:src/ctltrans.c ****   return iRet;
 713              		.loc 1 418 0
 714 0022 4BF21E61 		movw	r1, #46622
 415:src/ctltrans.c ****       break;
 715              		.loc 1 415 0
 716 0026 0028     		cmp	r0, #0
 717 0028 14BF     		ite	ne
 718 002a 4FF0FF34 		movne	r4, #-1
 719 002e 0024     		moveq	r4, #0
 720              	.LVL78:
 418:src/ctltrans.c ****   return iRet;
 721              		.loc 1 418 0
 722 0030 2020     		movs	r0, #32
 723 0032 FFF7FEFF 		bl	sys_func1
 724              	.LVL79:
 422:src/ctltrans.c **** //=============================================================================
 725              		.loc 1 422 0
 726 0036 2046     		mov	r0, r4
 727 0038 10BD     		pop	{r4, pc}
 728              	.LVL80:
 729              	.L78:
 730 003a 00BF     		.align	2
 731              	.L77:
 732 003c 00000000 		.word	.LANCHOR0
 733              		.cfi_endproc
 734              	.LFE6:
 735              		.size	CL_Close, .-CL_Close
 736              		.section	.text.CL_Off,"ax",%progbits
 737              		.align	1
 738              		.global	CL_Off
 739              		.thumb
 740              		.thumb_func
 741              		.type	CL_Off, %function
 742              	CL_Off:
 743              	.LFB7:
 432:src/ctltrans.c ****   os_clicc_led_close();
 744              		.loc 1 432 0
 745              		.cfi_startproc
 746              		@ args = 0, pretend = 0, frame = 0
 747              		@ frame_needed = 0, uses_anonymous_args = 0
 748 0000 08B5     		push	{r3, lr}
 749              		.cfi_def_cfa_offset 8
 750              		.cfi_offset 3, -8
 751              		.cfi_offset 14, -4
 433:src/ctltrans.c ****   os_clicc_close();
 752              		.loc 1 433 0
 753 0002 4FF49C70 		mov	r0, #312
 754 0006 FFF7FEFF 		bl	sys_func0
 755              	.LVL81:
 434:src/ctltrans.c **** }
 756              		.loc 1 434 0
 757 000a 40F23310 		movw	r0, #307
 435:src/ctltrans.c **** /******************************************************************************
ARM GAS  C:\Users\AHMED~1.ELE\AppData\Local\Temp\ccu9CE5U.s 			page 26


 758              		.loc 1 435 0
 759 000e BDE80840 		pop	{r3, lr}
 760              		.cfi_restore 14
 761              		.cfi_restore 3
 762              		.cfi_def_cfa_offset 0
 434:src/ctltrans.c **** }
 763              		.loc 1 434 0
 764 0012 FFF7FEBF 		b	sys_func0
 765              	.LVL82:
 766              		.cfi_endproc
 767              	.LFE7:
 768              		.size	CL_Off, .-CL_Off
 769              		.global	__aeabi_uidivmod
 770              		.section	.text.debugCTL,"ax",%progbits
 771              		.align	1
 772              		.global	debugCTL
 773              		.thumb
 774              		.thumb_func
 775              		.type	debugCTL, %function
 776              	debugCTL:
 777              	.LFB8:
 446:src/ctltrans.c ****   WORD i, len, max=70;
 778              		.loc 1 446 0
 779              		.cfi_startproc
 780              		@ args = 0, pretend = 0, frame = 64
 781              		@ frame_needed = 0, uses_anonymous_args = 0
 782              	.LVL83:
 783 0000 F0B5     		push	{r4, r5, r6, r7, lr}
 784              		.cfi_def_cfa_offset 20
 785              		.cfi_offset 4, -20
 786              		.cfi_offset 5, -16
 787              		.cfi_offset 6, -12
 788              		.cfi_offset 7, -8
 789              		.cfi_offset 14, -4
 450:src/ctltrans.c ****   DispLineMW(buf, MW_LINE1, MW_CLRDISP|MW_SPFONT);
 790              		.loc 1 450 0
 791 0002 304B     		ldr	r3, .L91
 446:src/ctltrans.c ****   WORD i, len, max=70;
 792              		.loc 1 446 0
 793 0004 1646     		mov	r6, r2
 450:src/ctltrans.c ****   DispLineMW(buf, MW_LINE1, MW_CLRDISP|MW_SPFONT);
 794              		.loc 1 450 0
 795 0006 304A     		ldr	r2, .L91+4
 796              	.LVL84:
 446:src/ctltrans.c ****   WORD i, len, max=70;
 797              		.loc 1 446 0
 798 0008 93B0     		sub	sp, sp, #76
 799              		.cfi_def_cfa_offset 96
 446:src/ctltrans.c ****   WORD i, len, max=70;
 800              		.loc 1 446 0
 801 000a 0446     		mov	r4, r0
 450:src/ctltrans.c ****   DispLineMW(buf, MW_LINE1, MW_CLRDISP|MW_SPFONT);
 802              		.loc 1 450 0
 803 000c 0029     		cmp	r1, #0
 804 000e 08BF     		it	eq
 805 0010 1346     		moveq	r3, r2
 806 0012 02A8     		add	r0, sp, #8
ARM GAS  C:\Users\AHMED~1.ELE\AppData\Local\Temp\ccu9CE5U.s 			page 27


 807              	.LVL85:
 808 0014 2246     		mov	r2, r4
 809 0016 2D49     		ldr	r1, .L91+8
 810              	.LVL86:
 811 0018 FFF7FEFF 		bl	sprintf
 812              	.LVL87:
 813              	.LBB21:
 451:src/ctltrans.c ****   len = pCTL->wLen;
 814              		.loc 1 451 0
 815 001c 02A8     		add	r0, sp, #8
 816 001e FFF7FEFF 		bl	strlen
 817              	.LVL88:
 818 0022 0546     		mov	r5, r0
 819              	.LVL89:
 820 0024 691C     		adds	r1, r5, #1
 821 0026 9220     		movs	r0, #146
 822              	.LVL90:
 823 0028 FFF7FEFF 		bl	sys_func1
 824              	.LVL91:
 825 002c 0446     		mov	r4, r0
 826 002e 98B1     		cbz	r0, .L82
 451:src/ctltrans.c ****   len = pCTL->wLen;
 827              		.loc 1 451 0 is_stmt 0 discriminator 1
 828 0030 02A9     		add	r1, sp, #8
 829 0032 2A46     		mov	r2, r5
 830 0034 FFF7FEFF 		bl	memcpy
 831              	.LVL92:
 832 0038 0023     		movs	r3, #0
 833 003a 2521     		movs	r1, #37
 834 003c 6355     		strb	r3, [r4, r5]
 835 003e 4FF40253 		mov	r3, #8320
 836 0042 0F20     		movs	r0, #15
 837 0044 0093     		str	r3, [sp]
 838 0046 2246     		mov	r2, r4
 839 0048 4FF48073 		mov	r3, #256
 840 004c FFF7FEFF 		bl	lib_app_call
 841              	.LVL93:
 842 0050 9420     		movs	r0, #148
 843 0052 2146     		mov	r1, r4
 844 0054 FFF7FEFF 		bl	sys_func1
 845              	.LVL94:
 846              	.L82:
 847              	.LBE21:
 452:src/ctltrans.c ****   for (i=1; i<=len; i++) {
 848              		.loc 1 452 0 is_stmt 1
 849 0058 3788     		ldrh	r7, [r6]
 850              	.LVL95:
 453:src/ctltrans.c ****     PrintfMW("%02X", (BYTE)pCTL->pbMsg[i-1]);
 851              		.loc 1 453 0
 852 005a 0124     		movs	r4, #1
 853              	.LVL96:
 854              	.L83:
 453:src/ctltrans.c ****     PrintfMW("%02X", (BYTE)pCTL->pbMsg[i-1]);
 855              		.loc 1 453 0 is_stmt 0 discriminator 1
 856 005c BC42     		cmp	r4, r7
 857 005e 27D8     		bhi	.L90
 454:src/ctltrans.c ****     if ((i%max) == 0) {
ARM GAS  C:\Users\AHMED~1.ELE\AppData\Local\Temp\ccu9CE5U.s 			page 28


 858              		.loc 1 454 0 is_stmt 1
 859 0060 7368     		ldr	r3, [r6, #4]
 860 0062 1B48     		ldr	r0, .L91+12
 861 0064 2344     		add	r3, r3, r4
 862 0066 13F8011C 		ldrb	r1, [r3, #-1]	@ zero_extendqisi2
 863 006a FFF7FEFF 		bl	printf
 864              	.LVL97:
 455:src/ctltrans.c ****       PrintfMW("..");
 865              		.loc 1 455 0
 866 006e 2046     		mov	r0, r4
 867 0070 4621     		movs	r1, #70
 868 0072 FFF7FEFF 		bl	__aeabi_uidivmod
 869              	.LVL98:
 870 0076 8DB2     		uxth	r5, r1
 871 0078 BDB9     		cbnz	r5, .L84
 456:src/ctltrans.c ****       APM_WaitKey(9000,0);
 872              		.loc 1 456 0
 873 007a 1648     		ldr	r0, .L91+16
 874 007c FFF7FEFF 		bl	printf
 875              	.LVL99:
 457:src/ctltrans.c ****       ClearDispMW();
 876              		.loc 1 457 0
 877 0080 42F22832 		movw	r2, #9000
 878 0084 2B46     		mov	r3, r5
 879 0086 0321     		movs	r1, #3
 880 0088 0095     		str	r5, [sp]
 881 008a 1020     		movs	r0, #16
 882 008c FFF7FEFF 		bl	lib_app_call
 883              	.LVL100:
 458:src/ctltrans.c ****       DispGotoMW(MW_LINE2, MW_SPFONT);
 884              		.loc 1 458 0
 885 0090 0C21     		movs	r1, #12
 886 0092 1620     		movs	r0, #22
 887 0094 FFF7FEFF 		bl	sys_func1
 888              	.LVL101:
 459:src/ctltrans.c ****     }
 889              		.loc 1 459 0
 890 0098 0095     		str	r5, [sp]
 891 009a 0F20     		movs	r0, #15
 892 009c 2421     		movs	r1, #36
 893 009e 4FF40072 		mov	r2, #512
 894 00a2 4FF40053 		mov	r3, #8192
 895 00a6 FFF7FEFF 		bl	lib_app_call
 896              	.LVL102:
 897              	.L84:
 453:src/ctltrans.c ****     PrintfMW("%02X", (BYTE)pCTL->pbMsg[i-1]);
 898              		.loc 1 453 0 discriminator 2
 899 00aa 0134     		adds	r4, r4, #1
 900              	.LVL103:
 901 00ac A4B2     		uxth	r4, r4
 902              	.LVL104:
 903 00ae D5E7     		b	.L83
 904              	.L90:
 462:src/ctltrans.c **** }
 905              		.loc 1 462 0
 906 00b0 0023     		movs	r3, #0
 907 00b2 0321     		movs	r1, #3
ARM GAS  C:\Users\AHMED~1.ELE\AppData\Local\Temp\ccu9CE5U.s 			page 29


 908 00b4 0093     		str	r3, [sp]
 909 00b6 42F22832 		movw	r2, #9000
 910 00ba 1020     		movs	r0, #16
 911 00bc FFF7FEFF 		bl	lib_app_call
 912              	.LVL105:
 463:src/ctltrans.c **** /******************************************************************************
 913              		.loc 1 463 0
 914 00c0 13B0     		add	sp, sp, #76
 915              		.cfi_def_cfa_offset 20
 916              		@ sp needed
 917 00c2 F0BD     		pop	{r4, r5, r6, r7, pc}
 918              	.LVL106:
 919              	.L92:
 920              		.align	2
 921              	.L91:
 922 00c4 00000000 		.word	.LC9
 923 00c8 03000000 		.word	.LC10
 924 00cc 07000000 		.word	.LC11
 925 00d0 18000000 		.word	.LC12
 926 00d4 1D000000 		.word	.LC13
 927              		.cfi_endproc
 928              	.LFE8:
 929              		.size	debugCTL, .-debugCTL
 930              		.section	.text.debugAuxCTL,"ax",%progbits
 931              		.align	1
 932              		.global	debugAuxCTL
 933              		.thumb
 934              		.thumb_func
 935              		.type	debugAuxCTL, %function
 936              	debugAuxCTL:
 937              	.LFB9:
 474:src/ctltrans.c ****   BYTE buf[20];
 938              		.loc 1 474 0
 939              		.cfi_startproc
 940              		@ args = 0, pretend = 0, frame = 24
 941              		@ frame_needed = 0, uses_anonymous_args = 0
 942              	.LVL107:
 943 0000 F0B5     		push	{r4, r5, r6, r7, lr}
 944              		.cfi_def_cfa_offset 20
 945              		.cfi_offset 4, -20
 946              		.cfi_offset 5, -16
 947              		.cfi_offset 6, -12
 948              		.cfi_offset 7, -8
 949              		.cfi_offset 14, -4
 479:src/ctltrans.c ****   if (txbuf == NULL)
 950              		.loc 1 479 0
 951 0002 01F10A04 		add	r4, r1, #10
 474:src/ctltrans.c ****   BYTE buf[20];
 952              		.loc 1 474 0
 953 0006 89B0     		sub	sp, sp, #36
 954              		.cfi_def_cfa_offset 56
 479:src/ctltrans.c ****   if (txbuf == NULL)
 955              		.loc 1 479 0
 956 0008 6400     		lsls	r4, r4, #1
 474:src/ctltrans.c ****   BYTE buf[20];
 957              		.loc 1 474 0
 958 000a 0746     		mov	r7, r0
ARM GAS  C:\Users\AHMED~1.ELE\AppData\Local\Temp\ccu9CE5U.s 			page 30


 959 000c 0D46     		mov	r5, r1
 479:src/ctltrans.c ****   if (txbuf == NULL)
 960              		.loc 1 479 0
 961 000e 9220     		movs	r0, #146
 962              	.LVL108:
 963 0010 2146     		mov	r1, r4
 964              	.LVL109:
 965 0012 FFF7FEFF 		bl	sys_func1
 966              	.LVL110:
 480:src/ctltrans.c ****     return;
 967              		.loc 1 480 0
 968 0016 0646     		mov	r6, r0
 969 0018 0028     		cmp	r0, #0
 970 001a 51D0     		beq	.L93
 483:src/ctltrans.c ****   memset(buf, 0, sizeof(buf));
 971              		.loc 1 483 0
 972 001c 2146     		mov	r1, r4
 973 001e FFF7FEFF 		bl	set_pptr
 974              	.LVL111:
 484:src/ctltrans.c ****   sprintf(buf, "CTL Msg Out(%d):", aLen);
 975              		.loc 1 484 0
 976 0022 0021     		movs	r1, #0
 977 0024 1422     		movs	r2, #20
 978 0026 03A8     		add	r0, sp, #12
 979 0028 FFF7FEFF 		bl	memset
 980              	.LVL112:
 485:src/ctltrans.c ****   pack_mem(buf, strlen(buf));
 981              		.loc 1 485 0
 982 002c 2A46     		mov	r2, r5
 983 002e 2549     		ldr	r1, .L106
 984 0030 03A8     		add	r0, sp, #12
 985 0032 FFF7FEFF 		bl	sprintf
 986              	.LVL113:
 486:src/ctltrans.c ****   split_data(pData, aLen);
 987              		.loc 1 486 0
 988 0036 03A8     		add	r0, sp, #12
 989 0038 FFF7FEFF 		bl	strlen
 990              	.LVL114:
 991 003c 0146     		mov	r1, r0
 992 003e 03A8     		add	r0, sp, #12
 993 0040 FFF7FEFF 		bl	pack_mem
 994              	.LVL115:
 487:src/ctltrans.c ****   pack_mem("\r\n", 2);
 995              		.loc 1 487 0
 996 0044 3846     		mov	r0, r7
 997 0046 2946     		mov	r1, r5
 998 0048 FFF7FEFF 		bl	split_data
 999              	.LVL116:
 488:src/ctltrans.c **** 
 1000              		.loc 1 488 0
 1001 004c 1E48     		ldr	r0, .L106+4
 1002 004e 0221     		movs	r1, #2
 1003 0050 FFF7FEFF 		bl	pack_mem
 1004              	.LVL117:
 490:src/ctltrans.c ****     printf("\fAuxOpen Err\n");
 1005              		.loc 1 490 0
 1006 0054 FFF7FEFF 		bl	AuxOpen
ARM GAS  C:\Users\AHMED~1.ELE\AppData\Local\Temp\ccu9CE5U.s 			page 31


 1007              	.LVL118:
 1008 0058 80B9     		cbnz	r0, .L95
 491:src/ctltrans.c ****     while (GetCharMW()!=MWKEY_CANCL) SleepMW();
 1009              		.loc 1 491 0
 1010 005a 1C48     		ldr	r0, .L106+8
 1011 005c FFF7FEFF 		bl	puts
 1012              	.LVL119:
 1013              	.L96:
 492:src/ctltrans.c ****     return;
 1014              		.loc 1 492 0 discriminator 1
 1015 0060 0022     		movs	r2, #0
 1016 0062 0F20     		movs	r0, #15
 1017 0064 0092     		str	r2, [sp]
 1018 0066 1621     		movs	r1, #22
 1019 0068 1346     		mov	r3, r2
 1020 006a FFF7FEFF 		bl	lib_app_call
 1021              	.LVL120:
 1022 006e 1128     		cmp	r0, #17
 1023 0070 26D0     		beq	.L93
 492:src/ctltrans.c ****     return;
 1024              		.loc 1 492 0 is_stmt 0 discriminator 2
 1025 0072 4FF4CE70 		mov	r0, #412
 1026 0076 FFF7FEFF 		bl	sys_func0
 1027              	.LVL121:
 1028 007a F1E7     		b	.L96
 1029              	.L95:
 496:src/ctltrans.c ****   while (FreeRunMW() < free_run + 200*2) {   // 2 sec timeout for send
 1030              		.loc 1 496 0 is_stmt 1
 1031 007c 40F29F10 		movw	r0, #415
 1032 0080 FFF7FEFF 		bl	sys_func0
 1033              	.LVL122:
 1034 0084 0446     		mov	r4, r0
 1035              	.LVL123:
 1036              	.L98:
 497:src/ctltrans.c ****     if (AuxTxRdy()) {
 1037              		.loc 1 497 0
 1038 0086 40F29F10 		movw	r0, #415
 1039 008a FFF7FEFF 		bl	sys_func0
 1040              	.LVL124:
 1041 008e 04F5C873 		add	r3, r4, #400
 1042 0092 9842     		cmp	r0, r3
 1043 0094 0ED2     		bcs	.L100
 498:src/ctltrans.c ****       AuxWrite(txbuf, get_distance());
 1044              		.loc 1 498 0
 1045 0096 FFF7FEFF 		bl	AuxTxRdy
 1046              	.LVL125:
 1047 009a 30B1     		cbz	r0, .L99
 499:src/ctltrans.c ****       break;
 1048              		.loc 1 499 0
 1049 009c FFF7FEFF 		bl	get_distance
 1050              	.LVL126:
 1051 00a0 0146     		mov	r1, r0
 1052 00a2 3046     		mov	r0, r6
 1053 00a4 FFF7FEFF 		bl	AuxWrite
 1054              	.LVL127:
 500:src/ctltrans.c ****     }
 1055              		.loc 1 500 0
ARM GAS  C:\Users\AHMED~1.ELE\AppData\Local\Temp\ccu9CE5U.s 			page 32


 1056 00a8 04E0     		b	.L100
 1057              	.L99:
 502:src/ctltrans.c ****   }
 1058              		.loc 1 502 0
 1059 00aa 4FF4CE70 		mov	r0, #412
 1060 00ae FFF7FEFF 		bl	sys_func0
 1061              	.LVL128:
 1062 00b2 E8E7     		b	.L98
 1063              	.L100:
 504:src/ctltrans.c ****   FreeMW(txbuf);
 1064              		.loc 1 504 0
 1065 00b4 FFF7FEFF 		bl	AuxClose
 1066              	.LVL129:
 505:src/ctltrans.c **** }
 1067              		.loc 1 505 0
 1068 00b8 9420     		movs	r0, #148
 1069 00ba 3146     		mov	r1, r6
 1070 00bc FFF7FEFF 		bl	sys_func1
 1071              	.LVL130:
 1072              	.L93:
 506:src/ctltrans.c **** //*****************************************************************************
 1073              		.loc 1 506 0
 1074 00c0 09B0     		add	sp, sp, #36
 1075              		.cfi_def_cfa_offset 20
 1076              		@ sp needed
 1077 00c2 F0BD     		pop	{r4, r5, r6, r7, pc}
 1078              	.LVL131:
 1079              	.L107:
 1080              		.align	2
 1081              	.L106:
 1082 00c4 20000000 		.word	.LC14
 1083 00c8 31000000 		.word	.LC15
 1084 00cc 34000000 		.word	.LC16
 1085              		.cfi_endproc
 1086              	.LFE9:
 1087              		.size	debugAuxCTL, .-debugAuxCTL
 1088              		.section	.text.CTLTagSeek,"ax",%progbits
 1089              		.align	1
 1090              		.global	CTLTagSeek
 1091              		.thumb
 1092              		.thumb_func
 1093              		.type	CTLTagSeek, %function
 1094              	CTLTagSeek:
 1095              	.LFB10:
 516:src/ctltrans.c ****   TLIST *psLp;
 1096              		.loc 1 516 0
 1097              		.cfi_startproc
 1098              		@ args = 0, pretend = 0, frame = 0
 1099              		@ frame_needed = 0, uses_anonymous_args = 0
 1100              	.LVL132:
 521:src/ctltrans.c ****     return psLp;
 1101              		.loc 1 521 0
 1102 0000 084B     		ldr	r3, .L110
 516:src/ctltrans.c ****   TLIST *psLp;
 1103              		.loc 1 516 0
 1104 0002 10B5     		push	{r4, lr}
 1105              		.cfi_def_cfa_offset 8
ARM GAS  C:\Users\AHMED~1.ELE\AppData\Local\Temp\ccu9CE5U.s 			page 33


 1106              		.cfi_offset 4, -8
 1107              		.cfi_offset 14, -4
 516:src/ctltrans.c ****   TLIST *psLp;
 1108              		.loc 1 516 0
 1109 0004 0446     		mov	r4, r0
 521:src/ctltrans.c ****     return psLp;
 1110              		.loc 1 521 0
 1111 0006 1868     		ldr	r0, [r3]
 1112              	.LVL133:
 1113 0008 2146     		mov	r1, r4
 1114 000a 00F55E50 		add	r0, r0, #14208
 1115 000e 2030     		adds	r0, r0, #32
 1116 0010 FFF7FEFF 		bl	TagSeek
 1117              	.LVL134:
 1118 0014 20B9     		cbnz	r0, .L109
 1119 0016 2046     		mov	r0, r4
 1120              	.LVL135:
 1121              		.loc 1 541 0
 1122 0018 BDE81040 		pop	{r4, lr}
 1123              		.cfi_remember_state
 1124              		.cfi_restore 14
 1125              		.cfi_restore 4
 1126              		.cfi_def_cfa_offset 0
 1127 001c FFF7FEBF 		b	CTLTagSeek.part.1
 1128              	.LVL136:
 1129              	.L109:
 1130              		.cfi_restore_state
 1131 0020 10BD     		pop	{r4, pc}
 1132              	.L111:
 1133 0022 00BF     		.align	2
 1134              	.L110:
 1135 0024 00000000 		.word	gGDS
 1136              		.cfi_endproc
 1137              	.LFE10:
 1138              		.size	CTLTagSeek, .-CTLTagSeek
 1139              		.section	.text.CTLFatal,"ax",%progbits
 1140              		.align	1
 1141              		.global	CTLFatal
 1142              		.thumb
 1143              		.thumb_func
 1144              		.type	CTLFatal, %function
 1145              	CTLFatal:
 1146              	.LFB11:
 542:src/ctltrans.c **** //*****************************************************************************
 543:src/ctltrans.c **** //  Function        : CTLFatal
 544:src/ctltrans.c **** //  Description     : CTL error handler.
 545:src/ctltrans.c **** //  Input           : N/A
 546:src/ctltrans.c **** //  Return          : N/A
 547:src/ctltrans.c **** //  Note            : N/A
 548:src/ctltrans.c **** //  Globals Changed : N/A;
 549:src/ctltrans.c **** //*****************************************************************************
 550:src/ctltrans.c **** void CTLFatal(void)
 551:src/ctltrans.c **** {
 1147              		.loc 1 551 0
 1148              		.cfi_startproc
 1149              		@ args = 0, pretend = 0, frame = 0
 1150              		@ frame_needed = 0, uses_anonymous_args = 0
ARM GAS  C:\Users\AHMED~1.ELE\AppData\Local\Temp\ccu9CE5U.s 			page 34


 1151 0000 07B5     		push	{r0, r1, r2, lr}
 1152              		.cfi_def_cfa_offset 16
 1153              		.cfi_offset 14, -4
 552:src/ctltrans.c ****   Disp2x16Msg(GetConstMsg(EDC_CTL_FATAL), MW_LINE3, MW_BIGFONT);
 1154              		.loc 1 552 0
 1155 0002 8C20     		movs	r0, #140
 1156 0004 FFF7FEFF 		bl	GetConstMsg
 1157              	.LVL137:
 1158 0008 4FF44071 		mov	r1, #768
 1159 000c 4FF48052 		mov	r2, #4096
 1160 0010 FFF7FEFF 		bl	Disp2x16Msg
 1161              	.LVL138:
 1162              	.L113:
 553:src/ctltrans.c ****   while (APM_WaitKey((DWORD)-1,0) != MWKEY_CANCL) SleepMW();
 1163              		.loc 1 553 0 discriminator 1
 1164 0014 0023     		movs	r3, #0
 1165 0016 1020     		movs	r0, #16
 1166 0018 0093     		str	r3, [sp]
 1167 001a 0321     		movs	r1, #3
 1168 001c 4FF0FF32 		mov	r2, #-1
 1169 0020 FFF7FEFF 		bl	lib_app_call
 1170              	.LVL139:
 1171 0024 1128     		cmp	r0, #17
 1172 0026 04D0     		beq	.L115
 1173              		.loc 1 553 0 is_stmt 0 discriminator 2
 1174 0028 4FF4CE70 		mov	r0, #412
 1175 002c FFF7FEFF 		bl	sys_func0
 1176              	.LVL140:
 1177 0030 F0E7     		b	.L113
 1178              	.L115:
 554:src/ctltrans.c ****   ResetMW();
 1179              		.loc 1 554 0 is_stmt 1
 1180 0032 4FF4CF70 		mov	r0, #414
 555:src/ctltrans.c **** }
 1181              		.loc 1 555 0
 1182 0036 03B0     		add	sp, sp, #12
 1183              		.cfi_def_cfa_offset 4
 1184              		@ sp needed
 1185 0038 5DF804EB 		ldr	lr, [sp], #4
 1186              		.cfi_restore 14
 1187              		.cfi_def_cfa_offset 0
 554:src/ctltrans.c ****   ResetMW();
 1188              		.loc 1 554 0
 1189 003c FFF7FEBF 		b	sys_func0
 1190              	.LVL141:
 1191              		.cfi_endproc
 1192              	.LFE11:
 1193              		.size	CTLFatal, .-CTLFatal
 1194              		.section	.text.ValidCTLData,"ax",%progbits
 1195              		.align	1
 1196              		.global	ValidCTLData
 1197              		.thumb
 1198              		.thumb_func
 1199              		.type	ValidCTLData, %function
 1200              	ValidCTLData:
 1201              	.LFB13:
 556:src/ctltrans.c **** //*****************************************************************************
ARM GAS  C:\Users\AHMED~1.ELE\AppData\Local\Temp\ccu9CE5U.s 			page 35


 557:src/ctltrans.c **** //  Function        : ePANExtract
 558:src/ctltrans.c **** //  Description     : Extract PAN data from CTL data.
 559:src/ctltrans.c **** //  Input           : N/A
 560:src/ctltrans.c **** //  Return          : FALSE => Error;
 561:src/ctltrans.c **** //  Note            : N/A
 562:src/ctltrans.c **** //  Globals Changed : gInput;
 563:src/ctltrans.c **** //*****************************************************************************
 564:src/ctltrans.c **** static BOOLEAN ePANExtract(BOOLEAN aCheckCard)
 565:src/ctltrans.c **** {
 566:src/ctltrans.c ****   #define TRK2_SEPARATOR  'D'
 567:src/ctltrans.c ****   TLIST *psLp;
 568:src/ctltrans.c ****   BYTE bLen, bSepLen;
 569:src/ctltrans.c **** 
 570:src/ctltrans.c ****   if (DeAss(gGDS->s_TagList, gGDS->s_CTLOut.pbMsg+2, gGDS->s_CTLOut.wLen - 2) == 0) {
 571:src/ctltrans.c ****     if (INPUT.b_trans != REFUND_CTL)
 572:src/ctltrans.c ****       return FALSE;
 573:src/ctltrans.c ****     memset(&gGDS->s_TagList, 0, sizeof(gGDS->s_TagList));
 574:src/ctltrans.c ****   }
 575:src/ctltrans.c ****   if ((psLp = CTLTagSeek(0x57)) != NULL) {
 576:src/ctltrans.c ****     if ((bLen = psLp->sLen)*2 <= sizeof(INPUT.s_trk2buf.sb_content)) {
 577:src/ctltrans.c ****       memset(INPUT.s_trk2buf.sb_content, 'F', sizeof(INPUT.s_trk2buf.sb_content));
 578:src/ctltrans.c ****       split(INPUT.s_trk2buf.sb_content, psLp->pbLoc, bLen);
 579:src/ctltrans.c ****       INPUT.s_trk2buf.b_len = bLen*2;
 580:src/ctltrans.c ****       INPUT.s_trk2buf.b_len = fndb(INPUT.s_trk2buf.sb_content, 'F', INPUT.s_trk2buf.b_len); // fix 
 581:src/ctltrans.c ****       bSepLen = fndb(INPUT.s_trk2buf.sb_content, TRK2_SEPARATOR, INPUT.s_trk2buf.b_len);
 582:src/ctltrans.c ****       if (bSepLen <= 19) {
 583:src/ctltrans.c ****         // Get PAN and expiry date from Track 2
 584:src/ctltrans.c ****         INPUT.s_trk2buf.sb_content[bSepLen] = 'F';            /* cater for odd len */
 585:src/ctltrans.c ****         memset(INPUT.sb_pan, 0xFF, 10);
 586:src/ctltrans.c ****         compress(INPUT.sb_pan, INPUT.s_trk2buf.sb_content, (BYTE)((bSepLen+1)/2));
 587:src/ctltrans.c ****         INPUT.s_trk2buf.sb_content[bSepLen] = TRK2_SEPARATOR; /* cater for odd len */
 588:src/ctltrans.c ****         compress(INPUT.sb_exp_date, &INPUT.s_trk2buf.sb_content[1+bSepLen], 2);
 589:src/ctltrans.c ****       }
 590:src/ctltrans.c ****       if ((INPUT.sb_pan[9] & 0x0F) == 0x0F) {
 591:src/ctltrans.c ****         if (!aCheckCard || (aCheckCard && InCardTable()))
 592:src/ctltrans.c ****           return TRUE;
 593:src/ctltrans.c ****       }
 594:src/ctltrans.c ****       RSP_DATA.w_rspcode = 'U'*256+'C';
 595:src/ctltrans.c ****       return FALSE;
 596:src/ctltrans.c ****     }
 597:src/ctltrans.c ****   }
 598:src/ctltrans.c ****   
 599:src/ctltrans.c ****   return FALSE;
 600:src/ctltrans.c **** }
 601:src/ctltrans.c **** //*****************************************************************************
 602:src/ctltrans.c **** //  Function        : ValidCTLData
 603:src/ctltrans.c **** //  Description     : Validate & Extract CTL Data
 604:src/ctltrans.c **** //  Input           : N/A
 605:src/ctltrans.c **** //  Return          : TRUE/FALSE;
 606:src/ctltrans.c **** //  Note            : N/A
 607:src/ctltrans.c **** //  Globals Changed : gGTS;
 608:src/ctltrans.c **** //*****************************************************************************
 609:src/ctltrans.c **** BOOLEAN ValidCTLData(BOOLEAN aCheckCard)
 610:src/ctltrans.c **** {
 1202              		.loc 1 610 0
 1203              		.cfi_startproc
 1204              		@ args = 0, pretend = 0, frame = 0
ARM GAS  C:\Users\AHMED~1.ELE\AppData\Local\Temp\ccu9CE5U.s 			page 36


 1205              		@ frame_needed = 0, uses_anonymous_args = 0
 1206              	.LVL142:
 1207 0000 F8B5     		push	{r3, r4, r5, r6, r7, lr}
 1208              		.cfi_def_cfa_offset 24
 1209              		.cfi_offset 3, -24
 1210              		.cfi_offset 4, -20
 1211              		.cfi_offset 5, -16
 1212              		.cfi_offset 6, -12
 1213              		.cfi_offset 7, -8
 1214              		.cfi_offset 14, -4
 1215              	.LBB26:
 1216              	.LBB27:
 570:src/ctltrans.c ****     if (INPUT.b_trans != REFUND_CTL)
 1217              		.loc 1 570 0
 1218 0002 524C     		ldr	r4, .L139
 1219              	.LBE27:
 1220              	.LBE26:
 611:src/ctltrans.c ****   TLIST * psLp;
 612:src/ctltrans.c ****   BYTE bLen;
 613:src/ctltrans.c ****   
 614:src/ctltrans.c ****   memset(INPUT.sb_holder_name, ' ', sizeof(INPUT.sb_holder_name));		// KC++ 29-05-2012
 1221              		.loc 1 614 0
 1222 0004 2021     		movs	r1, #32
 1223 0006 1A22     		movs	r2, #26
 610:src/ctltrans.c ****   TLIST * psLp;
 1224              		.loc 1 610 0
 1225 0008 0646     		mov	r6, r0
 1226              		.loc 1 614 0
 1227 000a 5148     		ldr	r0, .L139+4
 1228              	.LVL143:
 1229 000c FFF7FEFF 		bl	memset
 1230              	.LVL144:
 1231              	.LBB29:
 1232              	.LBB28:
 570:src/ctltrans.c ****     if (INPUT.b_trans != REFUND_CTL)
 1233              		.loc 1 570 0
 1234 0010 2068     		ldr	r0, [r4]
 1235 0012 00F55E50 		add	r0, r0, #14208
 1236 0016 2030     		adds	r0, r0, #32
 1237 0018 30F8082C 		ldrh	r2, [r0, #-8]
 1238 001c 50F8041C 		ldr	r1, [r0, #-4]
 1239 0020 023A     		subs	r2, r2, #2
 1240 0022 0231     		adds	r1, r1, #2
 1241 0024 92B2     		uxth	r2, r2
 1242 0026 FFF7FEFF 		bl	DeAss
 1243              	.LVL145:
 1244 002a 0146     		mov	r1, r0
 1245 002c 60B9     		cbnz	r0, .L117
 571:src/ctltrans.c ****       return FALSE;
 1246              		.loc 1 571 0
 1247 002e 494B     		ldr	r3, .L139+8
 1248 0030 1B78     		ldrb	r3, [r3]	@ zero_extendqisi2
 1249 0032 162B     		cmp	r3, #22
 1250 0034 40F08880 		bne	.L121
 573:src/ctltrans.c ****   }
 1251              		.loc 1 573 0
 1252 0038 2068     		ldr	r0, [r4]
ARM GAS  C:\Users\AHMED~1.ELE\AppData\Local\Temp\ccu9CE5U.s 			page 37


 1253 003a 4FF49662 		mov	r2, #1200
 1254 003e 00F55E50 		add	r0, r0, #14208
 1255 0042 2030     		adds	r0, r0, #32
 1256 0044 FFF7FEFF 		bl	memset
 1257              	.LVL146:
 1258              	.L117:
 575:src/ctltrans.c ****     if ((bLen = psLp->sLen)*2 <= sizeof(INPUT.s_trk2buf.sb_content)) {
 1259              		.loc 1 575 0
 1260 0048 5720     		movs	r0, #87
 1261 004a FFF7FEFF 		bl	CTLTagSeek
 1262              	.LVL147:
 1263 004e 0546     		mov	r5, r0
 1264 0050 0028     		cmp	r0, #0
 1265 0052 79D0     		beq	.L121
 576:src/ctltrans.c ****       memset(INPUT.s_trk2buf.sb_content, 'F', sizeof(INPUT.s_trk2buf.sb_content));
 1266              		.loc 1 576 0
 1267 0054 8478     		ldrb	r4, [r0, #2]	@ zero_extendqisi2
 1268              	.LVL148:
 1269 0056 282C     		cmp	r4, #40
 1270 0058 76DC     		bgt	.L121
 577:src/ctltrans.c ****       split(INPUT.s_trk2buf.sb_content, psLp->pbLoc, bLen);
 1271              		.loc 1 577 0
 1272 005a 4621     		movs	r1, #70
 1273 005c 5022     		movs	r2, #80
 1274 005e 3E48     		ldr	r0, .L139+12
 1275              	.LVL149:
 1276 0060 FFF7FEFF 		bl	memset
 1277              	.LVL150:
 578:src/ctltrans.c ****       INPUT.s_trk2buf.b_len = bLen*2;
 1278              		.loc 1 578 0
 1279 0064 6968     		ldr	r1, [r5, #4]
 1280 0066 2246     		mov	r2, r4
 1281 0068 3B48     		ldr	r0, .L139+12
 1282 006a FFF7FEFF 		bl	split
 1283              	.LVL151:
 579:src/ctltrans.c ****       INPUT.s_trk2buf.b_len = fndb(INPUT.s_trk2buf.sb_content, 'F', INPUT.s_trk2buf.b_len); // fix 
 1284              		.loc 1 579 0
 1285 006e 6200     		lsls	r2, r4, #1
 1286 0070 384C     		ldr	r4, .L139+8
 1287              	.LVL152:
 1288 0072 D2B2     		uxtb	r2, r2
 580:src/ctltrans.c ****       bSepLen = fndb(INPUT.s_trk2buf.sb_content, TRK2_SEPARATOR, INPUT.s_trk2buf.b_len);
 1289              		.loc 1 580 0
 1290 0074 4621     		movs	r1, #70
 1291 0076 3848     		ldr	r0, .L139+12
 579:src/ctltrans.c ****       INPUT.s_trk2buf.b_len = fndb(INPUT.s_trk2buf.sb_content, 'F', INPUT.s_trk2buf.b_len); // fix 
 1292              		.loc 1 579 0
 1293 0078 84F8A022 		strb	r2, [r4, #672]
 580:src/ctltrans.c ****       bSepLen = fndb(INPUT.s_trk2buf.sb_content, TRK2_SEPARATOR, INPUT.s_trk2buf.b_len);
 1294              		.loc 1 580 0
 1295 007c FFF7FEFF 		bl	fndb
 1296              	.LVL153:
 581:src/ctltrans.c ****       if (bSepLen <= 19) {
 1297              		.loc 1 581 0
 1298 0080 4421     		movs	r1, #68
 580:src/ctltrans.c ****       bSepLen = fndb(INPUT.s_trk2buf.sb_content, TRK2_SEPARATOR, INPUT.s_trk2buf.b_len);
 1299              		.loc 1 580 0
ARM GAS  C:\Users\AHMED~1.ELE\AppData\Local\Temp\ccu9CE5U.s 			page 38


 1300 0082 0246     		mov	r2, r0
 1301 0084 84F8A002 		strb	r0, [r4, #672]
 581:src/ctltrans.c ****       if (bSepLen <= 19) {
 1302              		.loc 1 581 0
 1303 0088 D2B2     		uxtb	r2, r2
 1304 008a 3348     		ldr	r0, .L139+12
 1305 008c FFF7FEFF 		bl	fndb
 1306              	.LVL154:
 582:src/ctltrans.c ****         // Get PAN and expiry date from Track 2
 1307              		.loc 1 582 0
 1308 0090 C5B2     		uxtb	r5, r0
 1309              	.LVL155:
 1310 0092 132D     		cmp	r5, #19
 1311 0094 1CD8     		bhi	.L119
 584:src/ctltrans.c ****         memset(INPUT.sb_pan, 0xFF, 10);
 1312              		.loc 1 584 0
 1313 0096 4623     		movs	r3, #70
 1314 0098 6719     		adds	r7, r4, r5
 586:src/ctltrans.c ****         INPUT.s_trk2buf.sb_content[bSepLen] = TRK2_SEPARATOR; /* cater for odd len */
 1315              		.loc 1 586 0
 1316 009a 0135     		adds	r5, r5, #1
 585:src/ctltrans.c ****         compress(INPUT.sb_pan, INPUT.s_trk2buf.sb_content, (BYTE)((bSepLen+1)/2));
 1317              		.loc 1 585 0
 1318 009c FF21     		movs	r1, #255
 1319 009e 0A22     		movs	r2, #10
 1320 00a0 04F10A00 		add	r0, r4, #10
 1321              	.LVL156:
 584:src/ctltrans.c ****         memset(INPUT.sb_pan, 0xFF, 10);
 1322              		.loc 1 584 0
 1323 00a4 87F8A132 		strb	r3, [r7, #673]
 585:src/ctltrans.c ****         compress(INPUT.sb_pan, INPUT.s_trk2buf.sb_content, (BYTE)((bSepLen+1)/2));
 1324              		.loc 1 585 0
 1325 00a8 FFF7FEFF 		bl	memset
 1326              	.LVL157:
 586:src/ctltrans.c ****         INPUT.s_trk2buf.sb_content[bSepLen] = TRK2_SEPARATOR; /* cater for odd len */
 1327              		.loc 1 586 0
 1328 00ac 6A10     		asrs	r2, r5, #1
 1329 00ae 04F10A00 		add	r0, r4, #10
 1330 00b2 2949     		ldr	r1, .L139+12
 588:src/ctltrans.c ****       }
 1331              		.loc 1 588 0
 1332 00b4 05F52875 		add	r5, r5, #672
 1333              	.LVL158:
 586:src/ctltrans.c ****         INPUT.s_trk2buf.sb_content[bSepLen] = TRK2_SEPARATOR; /* cater for odd len */
 1334              		.loc 1 586 0
 1335 00b8 FFF7FEFF 		bl	compress
 1336              	.LVL159:
 587:src/ctltrans.c ****         compress(INPUT.sb_exp_date, &INPUT.s_trk2buf.sb_content[1+bSepLen], 2);
 1337              		.loc 1 587 0
 1338 00bc 4423     		movs	r3, #68
 588:src/ctltrans.c ****       }
 1339              		.loc 1 588 0
 1340 00be 2919     		adds	r1, r5, r4
 1341 00c0 04F11400 		add	r0, r4, #20
 1342 00c4 0131     		adds	r1, r1, #1
 1343 00c6 0222     		movs	r2, #2
 587:src/ctltrans.c ****         compress(INPUT.sb_exp_date, &INPUT.s_trk2buf.sb_content[1+bSepLen], 2);
ARM GAS  C:\Users\AHMED~1.ELE\AppData\Local\Temp\ccu9CE5U.s 			page 39


 1344              		.loc 1 587 0
 1345 00c8 87F8A132 		strb	r3, [r7, #673]
 588:src/ctltrans.c ****       }
 1346              		.loc 1 588 0
 1347 00cc FFF7FEFF 		bl	compress
 1348              	.LVL160:
 1349              	.L119:
 590:src/ctltrans.c ****         if (!aCheckCard || (aCheckCard && InCardTable()))
 1350              		.loc 1 590 0
 1351 00d0 E37C     		ldrb	r3, [r4, #19]	@ zero_extendqisi2
 1352 00d2 03F00F03 		and	r3, r3, #15
 1353 00d6 0F2B     		cmp	r3, #15
 1354 00d8 04D0     		beq	.L120
 1355              	.L123:
 594:src/ctltrans.c ****       return FALSE;
 1356              		.loc 1 594 0
 1357 00da 45F24353 		movw	r3, #21827
 1358 00de A4F86E35 		strh	r3, [r4, #1390]	@ movhi
 1359 00e2 31E0     		b	.L121
 1360              	.L120:
 591:src/ctltrans.c ****           return TRUE;
 1361              		.loc 1 591 0
 1362 00e4 1EB1     		cbz	r6, .L122
 1363 00e6 FFF7FEFF 		bl	InCardTable
 1364              	.LVL161:
 1365 00ea 0028     		cmp	r0, #0
 1366 00ec F5D0     		beq	.L123
 1367              	.L122:
 1368              	.LVL162:
 1369              	.LBE28:
 1370              	.LBE29:
 1371              	.LBB30:
 1372              	.LBB31:
 615:src/ctltrans.c **** 
 616:src/ctltrans.c ****   if (ePANExtract(aCheckCard) == FALSE) {
 617:src/ctltrans.c ****     return FALSE;
 618:src/ctltrans.c ****   }
 619:src/ctltrans.c **** 
 620:src/ctltrans.c ****   if ((psLp = CTLTagSeek(0x5F24)) != NULL) {    //App. Exp. Date
 1373              		.loc 1 620 0
 1374 00ee 45F62470 		movw	r0, #24356
 1375 00f2 FFF7FEFF 		bl	CTLTagSeek
 1376              	.LVL163:
 1377 00f6 0346     		mov	r3, r0
 1378 00f8 20B1     		cbz	r0, .L127
 621:src/ctltrans.c ****     memcpy(&INPUT.sb_exp_date, psLp->pbLoc, 2); 
 1379              		.loc 1 621 0
 1380 00fa 1848     		ldr	r0, .L139+16
 1381              	.LVL164:
 1382 00fc 5968     		ldr	r1, [r3, #4]
 1383 00fe 0222     		movs	r2, #2
 1384 0100 FFF7FEFF 		bl	memcpy
 1385              	.LVL165:
 1386              	.L127:
 622:src/ctltrans.c ****   }
 623:src/ctltrans.c ****   if ((psLp = CTLTagSeek(0x5F20)) != NULL) {    //card holder name
 1387              		.loc 1 623 0
ARM GAS  C:\Users\AHMED~1.ELE\AppData\Local\Temp\ccu9CE5U.s 			page 40


 1388 0104 45F62070 		movw	r0, #24352
 1389 0108 FFF7FEFF 		bl	CTLTagSeek
 1390              	.LVL166:
 1391 010c 0346     		mov	r3, r0
 1392 010e 38B1     		cbz	r0, .L124
 624:src/ctltrans.c ****     if ((bLen = psLp->sLen) > sizeof(INPUT.sb_holder_name))
 1393              		.loc 1 624 0
 1394 0110 8278     		ldrb	r2, [r0, #2]	@ zero_extendqisi2
 1395              	.LVL167:
 625:src/ctltrans.c ****       bLen = sizeof(INPUT.sb_holder_name);	
 626:src/ctltrans.c ****     memcpy(INPUT.sb_holder_name, psLp->pbLoc, bLen);
 1396              		.loc 1 626 0
 1397 0112 5968     		ldr	r1, [r3, #4]
 1398 0114 1A2A     		cmp	r2, #26
 1399 0116 0E48     		ldr	r0, .L139+4
 1400              	.LVL168:
 1401 0118 28BF     		it	cs
 1402 011a 1A22     		movcs	r2, #26
 1403              	.LVL169:
 1404 011c FFF7FEFF 		bl	memcpy
 1405              	.LVL170:
 1406              	.L124:
 627:src/ctltrans.c ****   }
 628:src/ctltrans.c **** 
 629:src/ctltrans.c ****   memset(INPUT.s_icc_data.sb_label, ' ',sizeof(INPUT.s_icc_data.sb_label));
 1407              		.loc 1 629 0
 1408 0120 2021     		movs	r1, #32
 1409 0122 1022     		movs	r2, #16
 1410 0124 0E48     		ldr	r0, .L139+20
 1411 0126 FFF7FEFF 		bl	memset
 1412              	.LVL171:
 630:src/ctltrans.c ****   psLp = CTLTagSeek(0x50);      // app label
 1413              		.loc 1 630 0
 1414 012a 5020     		movs	r0, #80
 1415 012c FFF7FEFF 		bl	CTLTagSeek
 1416              	.LVL172:
 631:src/ctltrans.c ****   if (psLp != NULL) {
 1417              		.loc 1 631 0
 1418 0130 0346     		mov	r3, r0
 1419 0132 38B1     		cbz	r0, .L128
 632:src/ctltrans.c ****     if ((bLen = psLp->sLen) > 16)
 1420              		.loc 1 632 0
 1421 0134 8278     		ldrb	r2, [r0, #2]	@ zero_extendqisi2
 1422              	.LVL173:
 633:src/ctltrans.c ****       bLen = 16;
 634:src/ctltrans.c ****     memcpy(INPUT.s_icc_data.sb_label, psLp->pbLoc, bLen);
 1423              		.loc 1 634 0
 1424 0136 5968     		ldr	r1, [r3, #4]
 1425 0138 102A     		cmp	r2, #16
 1426 013a 0948     		ldr	r0, .L139+20
 1427              	.LVL174:
 1428 013c 28BF     		it	cs
 1429 013e 1022     		movcs	r2, #16
 1430              	.LVL175:
 1431 0140 FFF7FEFF 		bl	memcpy
 1432              	.LVL176:
 1433              	.L128:
ARM GAS  C:\Users\AHMED~1.ELE\AppData\Local\Temp\ccu9CE5U.s 			page 41


 631:src/ctltrans.c ****     if ((bLen = psLp->sLen) > 16)
 1434              		.loc 1 631 0
 1435 0144 0120     		movs	r0, #1
 1436 0146 F8BD     		pop	{r3, r4, r5, r6, r7, pc}
 1437              	.LVL177:
 1438              	.L121:
 1439              	.LBE31:
 1440              	.LBE30:
 617:src/ctltrans.c ****   }
 1441              		.loc 1 617 0
 1442 0148 0020     		movs	r0, #0
 635:src/ctltrans.c ****   }
 636:src/ctltrans.c ****   
 637:src/ctltrans.c ****   return TRUE;
 638:src/ctltrans.c **** }
 1443              		.loc 1 638 0
 1444 014a F8BD     		pop	{r3, r4, r5, r6, r7, pc}
 1445              	.LVL178:
 1446              	.L140:
 1447              		.align	2
 1448              	.L139:
 1449 014c 00000000 		.word	gGDS
 1450 0150 35000000 		.word	gGTS+53
 1451 0154 00000000 		.word	gGTS
 1452 0158 A1020000 		.word	gGTS+673
 1453 015c 14000000 		.word	gGTS+20
 1454 0160 84000000 		.word	gGTS+132
 1455              		.cfi_endproc
 1456              	.LFE13:
 1457              		.size	ValidCTLData, .-ValidCTLData
 1458              		.section	.text.PackCTLDummyData,"ax",%progbits
 1459              		.align	1
 1460              		.global	PackCTLDummyData
 1461              		.thumb
 1462              		.thumb_func
 1463              		.type	PackCTLDummyData, %function
 1464              	PackCTLDummyData:
 1465              	.LFB15:
 639:src/ctltrans.c **** //*****************************************************************************
 640:src/ctltrans.c **** //  Function        : ctlPIN
 641:src/ctltrans.c **** //  Description     : Get CTL Online PIN.
 642:src/ctltrans.c **** //  Input           : N/A
 643:src/ctltrans.c **** //  Return          : FALSE => fail
 644:src/ctltrans.c **** //  Note            : KC++ Added for Contactless online PIN
 645:src/ctltrans.c **** //  Globals Changed : N/A
 646:src/ctltrans.c **** //*****************************************************************************
 647:src/ctltrans.c **** static BOOLEAN ctlPIN(void)
 648:src/ctltrans.c **** {
 649:src/ctltrans.c ****   if (GetPIN())
 650:src/ctltrans.c ****     return TRUE;
 651:src/ctltrans.c ****   
 652:src/ctltrans.c ****   RSP_DATA.w_rspcode = 'C'*256+'N';
 653:src/ctltrans.c ****   return FALSE;
 654:src/ctltrans.c **** }
 655:src/ctltrans.c **** //*****************************************************************************
 656:src/ctltrans.c **** //  Function        : PackCTLDummyData
 657:src/ctltrans.c **** //  Description     : Prepare CTL dummy data (filled with '0')
ARM GAS  C:\Users\AHMED~1.ELE\AppData\Local\Temp\ccu9CE5U.s 			page 42


 658:src/ctltrans.c **** //  Input           : aBuf;         // pointer to dest buffer.
 659:src/ctltrans.c **** //                    aTags;        // list of tags
 660:src/ctltrans.c **** //  Return          : End of buffer pointer;
 661:src/ctltrans.c **** //  Note            : N/A
 662:src/ctltrans.c **** //  Globals Changed : N/a
 663:src/ctltrans.c **** //*****************************************************************************
 664:src/ctltrans.c **** BYTE *PackCTLDummyData(BYTE *aBuf, WORD aTag)
 665:src/ctltrans.c **** {
 1466              		.loc 1 665 0
 1467              		.cfi_startproc
 1468              		@ args = 0, pretend = 0, frame = 0
 1469              		@ frame_needed = 0, uses_anonymous_args = 0
 1470              	.LVL179:
 666:src/ctltrans.c ****   WORD i;
 667:src/ctltrans.c ****   
 668:src/ctltrans.c ****   i = 0;
 1471              		.loc 1 668 0
 1472 0000 0023     		movs	r3, #0
 665:src/ctltrans.c ****   WORD i;
 1473              		.loc 1 665 0
 1474 0002 70B5     		push	{r4, r5, r6, lr}
 1475              		.cfi_def_cfa_offset 16
 1476              		.cfi_offset 4, -16
 1477              		.cfi_offset 5, -12
 1478              		.cfi_offset 6, -8
 1479              		.cfi_offset 14, -4
 1480              	.LVL180:
 1481              	.L142:
 669:src/ctltrans.c ****   while (wCTLDummyTags[i][0] != 0) {
 1482              		.loc 1 669 0
 1483 0004 0B4D     		ldr	r5, .L147
 1484 0006 05EB8305 		add	r5, r5, r3, lsl #2
 1485 000a 6A8E     		ldrh	r2, [r5, #50]
 1486 000c 82B1     		cbz	r2, .L146
 670:src/ctltrans.c ****     if (wCTLDummyTags[i][0] == aTag) {
 1487              		.loc 1 670 0
 1488 000e 8A42     		cmp	r2, r1
 1489 0010 0BD1     		bne	.L143
 671:src/ctltrans.c ****       aBuf = TagPut(aBuf, aTag);
 1490              		.loc 1 671 0
 1491 0012 FFF7FEFF 		bl	TagPut
 1492              	.LVL181:
 672:src/ctltrans.c ****       *aBuf++ = wCTLDummyTags[i][1];
 1493              		.loc 1 672 0
 1494 0016 AC8E     		ldrh	r4, [r5, #52]
 673:src/ctltrans.c ****       memset(aBuf, 0, wCTLDummyTags[i][1]);
 1495              		.loc 1 673 0
 1496 0018 0021     		movs	r1, #0
 1497 001a 2246     		mov	r2, r4
 672:src/ctltrans.c ****       *aBuf++ = wCTLDummyTags[i][1];
 1498              		.loc 1 672 0
 1499 001c 461C     		adds	r6, r0, #1
 1500              	.LVL182:
 1501 001e 0470     		strb	r4, [r0]
 1502              		.loc 1 673 0
 1503 0020 3046     		mov	r0, r6
 1504 0022 FFF7FEFF 		bl	memset
ARM GAS  C:\Users\AHMED~1.ELE\AppData\Local\Temp\ccu9CE5U.s 			page 43


 1505              	.LVL183:
 674:src/ctltrans.c ****       aBuf += wCTLDummyTags[i][1];
 1506              		.loc 1 674 0
 1507 0026 3019     		adds	r0, r6, r4
 1508              	.LVL184:
 675:src/ctltrans.c ****       break;
 1509              		.loc 1 675 0
 1510 0028 70BD     		pop	{r4, r5, r6, pc}
 1511              	.LVL185:
 1512              	.L143:
 676:src/ctltrans.c ****     }
 677:src/ctltrans.c ****     i++;
 1513              		.loc 1 677 0
 1514 002a 0133     		adds	r3, r3, #1
 1515              	.LVL186:
 1516 002c 9BB2     		uxth	r3, r3
 1517              	.LVL187:
 1518 002e E9E7     		b	.L142
 1519              	.L146:
 678:src/ctltrans.c ****   }
 679:src/ctltrans.c ****   return aBuf;
 680:src/ctltrans.c **** }
 1520              		.loc 1 680 0
 1521 0030 70BD     		pop	{r4, r5, r6, pc}
 1522              	.L148:
 1523 0032 00BF     		.align	2
 1524              	.L147:
 1525 0034 00000000 		.word	.LANCHOR1
 1526              		.cfi_endproc
 1527              	.LFE15:
 1528              		.size	PackCTLDummyData, .-PackCTLDummyData
 1529              		.section	.text.PackCTLTagsData,"ax",%progbits
 1530              		.align	1
 1531              		.global	PackCTLTagsData
 1532              		.thumb
 1533              		.thumb_func
 1534              		.type	PackCTLTagsData, %function
 1535              	PackCTLTagsData:
 1536              	.LFB16:
 681:src/ctltrans.c **** //*****************************************************************************
 682:src/ctltrans.c **** //  Function        : PackCTLTagsData
 683:src/ctltrans.c **** //  Description     : Prepare CTL tag data
 684:src/ctltrans.c **** //  Input           : aBuf;         // pointer to dest buffer.
 685:src/ctltrans.c **** //                    aTags;        // list of tags
 686:src/ctltrans.c **** //  Return          : End of buffer pointer;
 687:src/ctltrans.c **** //  Note            : N/A
 688:src/ctltrans.c **** //  Globals Changed : N/a
 689:src/ctltrans.c **** //*****************************************************************************
 690:src/ctltrans.c **** BYTE *PackCTLTagsData(BYTE *aBuf, WORD *aTags)
 691:src/ctltrans.c **** {
 1537              		.loc 1 691 0
 1538              		.cfi_startproc
 1539              		@ args = 0, pretend = 0, frame = 0
 1540              		@ frame_needed = 0, uses_anonymous_args = 0
 1541              	.LVL188:
 1542 0000 F8B5     		push	{r3, r4, r5, r6, r7, lr}
 1543              		.cfi_def_cfa_offset 24
ARM GAS  C:\Users\AHMED~1.ELE\AppData\Local\Temp\ccu9CE5U.s 			page 44


 1544              		.cfi_offset 3, -24
 1545              		.cfi_offset 4, -20
 1546              		.cfi_offset 5, -16
 1547              		.cfi_offset 6, -12
 1548              		.cfi_offset 7, -8
 1549              		.cfi_offset 14, -4
 1550              		.loc 1 691 0
 1551 0002 0446     		mov	r4, r0
 1552 0004 8F1E     		subs	r7, r1, #2
 1553              	.LVL189:
 1554              	.L150:
 692:src/ctltrans.c ****   WORD tag;
 693:src/ctltrans.c ****   TLIST *psLp;
 694:src/ctltrans.c **** 
 695:src/ctltrans.c ****   while ((tag = *aTags) != 0) {
 1555              		.loc 1 695 0
 1556 0006 37F8026F 		ldrh	r6, [r7, #2]!
 1557              	.LVL190:
 1558 000a BEB1     		cbz	r6, .L154
 696:src/ctltrans.c ****     if ((psLp = CTLTagSeek(tag)) != NULL) {
 1559              		.loc 1 696 0
 1560 000c 3046     		mov	r0, r6
 1561 000e FFF7FEFF 		bl	CTLTagSeek
 1562              	.LVL191:
 697:src/ctltrans.c ****       aBuf = TagPut(aBuf, tag);
 1563              		.loc 1 697 0
 1564 0012 3146     		mov	r1, r6
 696:src/ctltrans.c ****     if ((psLp = CTLTagSeek(tag)) != NULL) {
 1565              		.loc 1 696 0
 1566 0014 0546     		mov	r5, r0
 1567              		.loc 1 697 0
 1568 0016 2046     		mov	r0, r4
 1569              	.LVL192:
 696:src/ctltrans.c ****     if ((psLp = CTLTagSeek(tag)) != NULL) {
 1570              		.loc 1 696 0
 1571 0018 65B1     		cbz	r5, .L151
 1572              		.loc 1 697 0
 1573 001a FFF7FEFF 		bl	TagPut
 1574              	.LVL193:
 698:src/ctltrans.c ****       *aBuf++ = psLp->sLen; // assume byte len
 1575              		.loc 1 698 0
 1576 001e AB78     		ldrb	r3, [r5, #2]	@ zero_extendqisi2
 1577 0020 441C     		adds	r4, r0, #1
 1578              	.LVL194:
 1579 0022 0370     		strb	r3, [r0]
 699:src/ctltrans.c ****       memcpy(aBuf, psLp->pbLoc, psLp->sLen);
 1580              		.loc 1 699 0
 1581 0024 2046     		mov	r0, r4
 1582 0026 6968     		ldr	r1, [r5, #4]
 1583 0028 AA78     		ldrb	r2, [r5, #2]	@ zero_extendqisi2
 1584 002a FFF7FEFF 		bl	memcpy
 1585              	.LVL195:
 700:src/ctltrans.c ****       aBuf += psLp->sLen;
 1586              		.loc 1 700 0
 1587 002e AB78     		ldrb	r3, [r5, #2]	@ zero_extendqisi2
 1588 0030 1C44     		add	r4, r4, r3
 1589              	.LVL196:
ARM GAS  C:\Users\AHMED~1.ELE\AppData\Local\Temp\ccu9CE5U.s 			page 45


 1590 0032 E8E7     		b	.L150
 1591              	.LVL197:
 1592              	.L151:
 701:src/ctltrans.c ****     }
 702:src/ctltrans.c ****     else {
 703:src/ctltrans.c ****       aBuf = PackCTLDummyData(aBuf, tag);   // pack zero data if need
 1593              		.loc 1 703 0
 1594 0034 FFF7FEFF 		bl	PackCTLDummyData
 1595              	.LVL198:
 1596 0038 0446     		mov	r4, r0
 1597              	.LVL199:
 1598 003a E4E7     		b	.L150
 1599              	.LVL200:
 1600              	.L154:
 704:src/ctltrans.c ****     }
 705:src/ctltrans.c ****     aTags++;  // next tag word
 706:src/ctltrans.c ****   }
 707:src/ctltrans.c ****   return aBuf;
 708:src/ctltrans.c **** }
 1601              		.loc 1 708 0
 1602 003c 2046     		mov	r0, r4
 1603 003e F8BD     		pop	{r3, r4, r5, r6, r7, pc}
 1604              		.cfi_endproc
 1605              	.LFE16:
 1606              		.size	PackCTLTagsData, .-PackCTLTagsData
 1607              		.section	.text.PackCTLData,"ax",%progbits
 1608              		.align	1
 1609              		.global	PackCTLData
 1610              		.thumb
 1611              		.thumb_func
 1612              		.type	PackCTLData, %function
 1613              	PackCTLData:
 1614              	.LFB17:
 709:src/ctltrans.c **** //*****************************************************************************
 710:src/ctltrans.c **** //  Function        : PackCTLData
 711:src/ctltrans.c **** //  Description     : Put CTL related data to  ICC DATA buffer
 712:src/ctltrans.c **** //  Input           : aDat;     // pointer to ICC DATA struct
 713:src/ctltrans.c **** //  Return          : N/A
 714:src/ctltrans.c **** //  Note            : N/A
 715:src/ctltrans.c **** //  Globals Changed : N/A
 716:src/ctltrans.c **** //******************************************************************************
 717:src/ctltrans.c **** void PackCTLData(struct ICC_DATA  *aDat)
 718:src/ctltrans.c **** {
 1615              		.loc 1 718 0
 1616              		.cfi_startproc
 1617              		@ args = 0, pretend = 0, frame = 0
 1618              		@ frame_needed = 0, uses_anonymous_args = 0
 1619              	.LVL201:
 1620 0000 38B5     		push	{r3, r4, r5, lr}
 1621              		.cfi_def_cfa_offset 16
 1622              		.cfi_offset 3, -16
 1623              		.cfi_offset 4, -12
 1624              		.cfi_offset 5, -8
 1625              		.cfi_offset 14, -4
 719:src/ctltrans.c ****   BYTE *ptr;
 720:src/ctltrans.c **** 
 721:src/ctltrans.c ****   aDat->w_misc_len = 0;
ARM GAS  C:\Users\AHMED~1.ELE\AppData\Local\Temp\ccu9CE5U.s 			page 46


 1626              		.loc 1 721 0
 1627 0002 0023     		movs	r3, #0
 722:src/ctltrans.c ****   ptr = PackCTLTagsData(aDat->sb_misc_content, (WORD *)wCTLOnlineTags);
 1628              		.loc 1 722 0
 1629 0004 00F12A04 		add	r4, r0, #42
 718:src/ctltrans.c ****   BYTE *ptr;
 1630              		.loc 1 718 0
 1631 0008 0546     		mov	r5, r0
 721:src/ctltrans.c ****   ptr = PackCTLTagsData(aDat->sb_misc_content, (WORD *)wCTLOnlineTags);
 1632              		.loc 1 721 0
 1633 000a 0385     		strh	r3, [r0, #40]	@ movhi
 1634              		.loc 1 722 0
 1635 000c 0349     		ldr	r1, .L156
 1636 000e 2046     		mov	r0, r4
 1637              	.LVL202:
 1638 0010 FFF7FEFF 		bl	PackCTLTagsData
 1639              	.LVL203:
 723:src/ctltrans.c ****   aDat->w_misc_len = (DWORD)ptr - (DWORD)aDat->sb_misc_content;
 1640              		.loc 1 723 0
 1641 0014 001B     		subs	r0, r0, r4
 1642              	.LVL204:
 1643 0016 2885     		strh	r0, [r5, #40]	@ movhi
 1644 0018 38BD     		pop	{r3, r4, r5, pc}
 1645              	.LVL205:
 1646              	.L157:
 1647 001a 00BF     		.align	2
 1648              	.L156:
 1649 001c 3E000000 		.word	.LANCHOR1+62
 1650              		.cfi_endproc
 1651              	.LFE17:
 1652              		.size	PackCTLData, .-PackCTLData
 1653              		.section	.text.CTLComplete,"ax",%progbits
 1654              		.align	1
 1655              		.thumb
 1656              		.thumb_func
 1657              		.type	CTLComplete, %function
 1658              	CTLComplete:
 1659              	.LFB22:
 724:src/ctltrans.c **** }
 725:src/ctltrans.c **** //*****************************************************************************
 726:src/ctltrans.c **** //  Function        : CTLOnline
 727:src/ctltrans.c **** //  Description     : Online Auth
 728:src/ctltrans.c **** //  Input           : N/A
 729:src/ctltrans.c **** //  Return          : FALSE: fail to go online, else TRUE
 730:src/ctltrans.c **** //  Note            : Zero length response => online failure
 731:src/ctltrans.c **** //  Globals Changed : N/A;
 732:src/ctltrans.c **** //*****************************************************************************
 733:src/ctltrans.c **** static BOOLEAN CTLOnline(void)
 734:src/ctltrans.c **** {
 735:src/ctltrans.c ****   if (DeAss(gGDS->s_TagList, gGDS->s_CTLOut.pbMsg+2, gGDS->s_CTLOut.wLen - 2) == 0) {
 736:src/ctltrans.c ****     if (INPUT.b_trans != REFUND_CTL)
 737:src/ctltrans.c ****       CTLFatal();
 738:src/ctltrans.c ****     memset(&gGDS->s_TagList, 0, sizeof(gGDS->s_TagList));
 739:src/ctltrans.c ****   }
 740:src/ctltrans.c ****   DispHeader(NULL);
 741:src/ctltrans.c ****   PackComm(INPUT.w_host_idx, FALSE);
 742:src/ctltrans.c ****   if ((RSP_DATA.w_rspcode = APM_ConnectOK(FALSE)) == COMM_OK) {
ARM GAS  C:\Users\AHMED~1.ELE\AppData\Local\Temp\ccu9CE5U.s 			page 47


 743:src/ctltrans.c ****     if (ReversalOK()) {
 744:src/ctltrans.c ****       OfflineSent(FALSE);
 745:src/ctltrans.c ****       memcpy(TX_DATA.sb_trace_no, INPUT.sb_trace_no, sizeof(TX_DATA.sb_trace_no));
 746:src/ctltrans.c ****       memcpy(INPUT.sb_roc_no, INPUT.sb_trace_no, sizeof(TX_DATA.sb_trace_no));
 747:src/ctltrans.c ****       IncAPMTraceNo();
 748:src/ctltrans.c ****       MoveInput2Tx();
 749:src/ctltrans.c ****       memcpy(TX_DATA.sb_pin, INPUT.sb_pin, sizeof(INPUT.sb_pin)); // online pin
 750:src/ctltrans.c ****       PackCTLData(&TX_DATA.s_icc_data);  // field 55 ICC data  
 751:src/ctltrans.c ****       PackProcCode(TX_DATA.b_trans, TX_DATA.b_acc_ind);
 752:src/ctltrans.c ****       PackHostMsg();
 753:src/ctltrans.c ****       UpdateHostStatus(REV_PENDING);
 754:src/ctltrans.c **** 
 755:src/ctltrans.c ****       if ((RSP_DATA.w_rspcode=APM_SendRcvd(&TX_BUF, &RX_BUF))==COMM_OK) {
 756:src/ctltrans.c ****         RSP_DATA.b_response = CheckHostRsp();
 757:src/ctltrans.c ****         if (RSP_DATA.b_response <= TRANS_REJ)
 758:src/ctltrans.c ****           UpdateHostStatus(NO_PENDING);
 759:src/ctltrans.c ****       }
 760:src/ctltrans.c ****       if (RSP_DATA.b_response <= TRANS_REJ)
 761:src/ctltrans.c ****         UpdateHostStatus(NO_PENDING);
 762:src/ctltrans.c ****     }
 763:src/ctltrans.c ****     APM_ResetComm();
 764:src/ctltrans.c ****     return TRUE;
 765:src/ctltrans.c ****   }
 766:src/ctltrans.c ****   return FALSE; // unable to go online
 767:src/ctltrans.c **** }
 768:src/ctltrans.c **** //*****************************************************************************
 769:src/ctltrans.c **** //  Function        : CTLReferral
 770:src/ctltrans.c **** //  Description     : Voice Referral
 771:src/ctltrans.c **** //  Input           : N/A
 772:src/ctltrans.c **** //  Return          : FALSE => ERROR
 773:src/ctltrans.c **** //  Note            : Zero length response => decline
 774:src/ctltrans.c **** //  Globals Changed : N/A
 775:src/ctltrans.c **** //******************************************************************************
 776:src/ctltrans.c **** static BOOLEAN CTLReferral(void)
 777:src/ctltrans.c **** {
 778:src/ctltrans.c ****   PackRspText();
 779:src/ctltrans.c ****   DispLineMW(&RSP_DATA.text[1], MW_LINE1, MW_CENTER|MW_BIGFONT);
 780:src/ctltrans.c **** 
 781:src/ctltrans.c ****   APM_ResetComm();
 782:src/ctltrans.c ****   RSP_DATA.w_rspcode = 'C'*256+'N';
 783:src/ctltrans.c ****   RSP_DATA.text[0] = 0;
 784:src/ctltrans.c **** 
 785:src/ctltrans.c ****   if (GetAuthCode()) {
 786:src/ctltrans.c ****     INPUT.b_trans_status = OFFLINE;
 787:src/ctltrans.c ****     DispHeader(STIS_ISS_TBL(0).sb_card_name);
 788:src/ctltrans.c ****     RSP_DATA.b_response = TRANS_ACP;
 789:src/ctltrans.c ****   }
 790:src/ctltrans.c ****   else
 791:src/ctltrans.c ****     DispHeader(STIS_ISS_TBL(0).sb_card_name);
 792:src/ctltrans.c **** 
 793:src/ctltrans.c ****   if (RSP_DATA.b_response != TRANS_ACP){
 794:src/ctltrans.c ****     LongBeep();
 795:src/ctltrans.c ****     return FALSE;
 796:src/ctltrans.c ****   }
 797:src/ctltrans.c ****   PackDTGAA();
 798:src/ctltrans.c ****   return TRUE;
 799:src/ctltrans.c **** }
ARM GAS  C:\Users\AHMED~1.ELE\AppData\Local\Temp\ccu9CE5U.s 			page 48


 800:src/ctltrans.c **** //*****************************************************************************
 801:src/ctltrans.c **** //  Function        : CTLAccepted
 802:src/ctltrans.c **** //  Description     : Store CTL Data into Batch.
 803:src/ctltrans.c **** //  Input           : N/A
 804:src/ctltrans.c **** //  Return          : N/A
 805:src/ctltrans.c **** //  Note            : N/A
 806:src/ctltrans.c **** //  Globals Changed : gds.CTLdll, input;
 807:src/ctltrans.c **** //*****************************************************************************
 808:src/ctltrans.c **** static void CTLAccepted(void)
 809:src/ctltrans.c **** {
 810:src/ctltrans.c ****   TLIST *psLp;
 811:src/ctltrans.c **** 
 812:src/ctltrans.c ****   RSP_DATA.b_response = TRANS_ACP;
 813:src/ctltrans.c ****   if ((bAction & CLACT_ONLINE) == 0) {
 814:src/ctltrans.c ****     memset(RSP_DATA.sb_auth_code, ' ', 6);
 815:src/ctltrans.c ****     memcpy(RSP_DATA.sb_auth_code, "Y1", 2);
 816:src/ctltrans.c ****     IncAPMTraceNo();
 817:src/ctltrans.c ****     memcpy(TX_DATA.sb_trace_no, INPUT.sb_trace_no, sizeof(TX_DATA.sb_trace_no));
 818:src/ctltrans.c ****   }
 819:src/ctltrans.c **** 
 820:src/ctltrans.c ****   if ((psLp = CTLTagSeek(0x9f26)) != NULL)                  // app Cryptogram
 821:src/ctltrans.c ****     memcpy(INPUT.s_icc_data.sb_tag_9f26, psLp->pbLoc, psLp->sLen);
 822:src/ctltrans.c ****   if ((psLp = CTLTagSeek(0x4F)) != NULL) {                  //AID for printing
 823:src/ctltrans.c ****     memcpy(INPUT.s_icc_data.sb_aid, psLp->pbLoc, psLp->sLen);
 824:src/ctltrans.c ****     INPUT.s_icc_data.b_aid_len = psLp->sLen;
 825:src/ctltrans.c ****   }
 826:src/ctltrans.c **** 
 827:src/ctltrans.c ****   SetRspCode('0'*256+'0');
 828:src/ctltrans.c ****   PackCTLData(&INPUT.s_icc_data);  // field 55 ICC data
 829:src/ctltrans.c ****   if (bAction & ACT_SIGNATURE)
 830:src/ctltrans.c ****     RSP_DATA.w_rspcode = 'V'*256+'S';
 831:src/ctltrans.c ****   else
 832:src/ctltrans.c ****     RSP_DATA.w_rspcode = 'T'*256+'A';
 833:src/ctltrans.c **** 
 834:src/ctltrans.c ****   PackInputP();
 835:src/ctltrans.c ****   MoveInput2Tx();
 836:src/ctltrans.c ****   if (INPUT.b_trans != AUTH_CTL)
 837:src/ctltrans.c ****     SaveRecord();
 838:src/ctltrans.c **** }
 839:src/ctltrans.c **** //*****************************************************************************
 840:src/ctltrans.c **** //  Function        : CTLError
 841:src/ctltrans.c **** //  Description     : Handle CTL error response
 842:src/ctltrans.c **** //  Input           : CTL process next state.
 843:src/ctltrans.c **** //  Return          : CTL process next state.
 844:src/ctltrans.c **** //  Note            : N/A
 845:src/ctltrans.c **** //  Globals Changed : N/A;
 846:src/ctltrans.c **** //*****************************************************************************
 847:src/ctltrans.c **** static DWORD CTLError(DWORD aNextState)
 848:src/ctltrans.c **** {
 849:src/ctltrans.c ****   BYTE buf[64];
 850:src/ctltrans.c ****   
 851:src/ctltrans.c ****   DispHeader(NULL);
 852:src/ctltrans.c ****   switch (gGDS->s_CTLOut.pbMsg[0]) {  //error message response
 853:src/ctltrans.c ****     case CLERR_SMCIO:
 854:src/ctltrans.c ****     case CLERR_CARDL1:
 855:src/ctltrans.c ****     case CLERR_DATA:
 856:src/ctltrans.c ****       RSP_DATA.w_rspcode = 'R'*256+'E';
ARM GAS  C:\Users\AHMED~1.ELE\AppData\Local\Temp\ccu9CE5U.s 			page 49


 857:src/ctltrans.c ****       break;
 858:src/ctltrans.c ****     case CLERR_CANCEL:
 859:src/ctltrans.c ****       DispClrBelowMW(MW_LINE3);
 860:src/ctltrans.c ****       RSP_DATA.w_rspcode = 'C'*256+'N';
 861:src/ctltrans.c ****       break;
 862:src/ctltrans.c ****     case CLERR_SEQ:
 863:src/ctltrans.c ****       RSP_DATA.w_rspcode = 'S'*256+'C';
 864:src/ctltrans.c ****       break;
 865:src/ctltrans.c ****     case CLERR_NOMORE:
 866:src/ctltrans.c ****       RSP_DATA.w_rspcode = 'U'*256+'C';
 867:src/ctltrans.c ****       break;
 868:src/ctltrans.c ****     case CLERR_NOAPPL:  // not supported if no matching app
 869:src/ctltrans.c ****       RSP_DATA.w_rspcode = 'M'*256+'A'; // fallback
 870:src/ctltrans.c ****       break;
 871:src/ctltrans.c ****     case CLERR_BLOCKED:
 872:src/ctltrans.c ****       RSP_DATA.w_rspcode = 'S'*256+'B';
 873:src/ctltrans.c ****       break;
 874:src/ctltrans.c ****     case CLERR_TOI:
 875:src/ctltrans.c ****       RSP_DATA.w_rspcode = 'C'*256+'0';
 876:src/ctltrans.c ****       break;
 877:src/ctltrans.c ****     case CLERR_DDA:
 878:src/ctltrans.c ****       RSP_DATA.w_rspcode = 'C'*256+'1';
 879:src/ctltrans.c ****       break;
 880:src/ctltrans.c ****     case CLERR_OCARD:
 881:src/ctltrans.c ****       RSP_DATA.w_rspcode = 'C'*256+'2';
 882:src/ctltrans.c ****       break;
 883:src/ctltrans.c ****     case CLERR_PDCL:
 884:src/ctltrans.c ****       RSP_DATA.w_rspcode = 'C'*256+'3';     // CDET Test Case 12
 885:src/ctltrans.c ****       break;
 886:src/ctltrans.c ****     case CLERR_CONFIG:
 887:src/ctltrans.c ****     case CLERR_MEMORY:
 888:src/ctltrans.c ****     default:
 889:src/ctltrans.c ****       RSP_DATA.w_rspcode = 'S'*256+'E';
 890:src/ctltrans.c ****       break;
 891:src/ctltrans.c ****   }
 892:src/ctltrans.c ****   // MTIP TC025 (Paypass Refund handling)
 893:src/ctltrans.c ****   if ((gGDS->s_CTLOut.pbMsg[0] == CLERR_DATA) && (INPUT.b_trans == REFUND_CTL)) {
 894:src/ctltrans.c ****     RSP_DATA.w_rspcode = '0'*256+'0';
 895:src/ctltrans.c ****     aNextState = CTL_COMPLETE;
 896:src/ctltrans.c ****     RSP_DATA.b_response = TRANS_ACP;
 897:src/ctltrans.c ****     bAction |= CLACT_ONLINE;
 898:src/ctltrans.c ****     CTLComplete();
 899:src/ctltrans.c ****     return aNextState;
 900:src/ctltrans.c ****   }
 901:src/ctltrans.c ****   if (RSP_DATA.w_rspcode == 'C'*256+'3')
 902:src/ctltrans.c ****     Disp2x16Msg(GetConstMsg(EDC_RSP_CTL_REFER_MOBILE), MW_LINE3, MW_BIGFONT);
 903:src/ctltrans.c ****   else {
 904:src/ctltrans.c ****     SprintfMW(buf, "CLERR = %02x", gGDS->s_CTLOut.pbMsg[0]);
 905:src/ctltrans.c ****     DispLineMW(buf, MW_LINE5, MW_CLREOL|MW_CENTER|MW_BIGFONT);
 906:src/ctltrans.c ****   }
 907:src/ctltrans.c ****   LongBeep();
 908:src/ctltrans.c ****   APM_WaitKey(200,0);
 909:src/ctltrans.c **** 
 910:src/ctltrans.c ****   aNextState = CTL_COMPLETE;  // no fallback
 911:src/ctltrans.c ****   RSP_DATA.b_response = TRANS_REJ; // for print msg disable
 912:src/ctltrans.c ****   return aNextState;
 913:src/ctltrans.c **** }
ARM GAS  C:\Users\AHMED~1.ELE\AppData\Local\Temp\ccu9CE5U.s 			page 50


 914:src/ctltrans.c **** //*****************************************************************************
 915:src/ctltrans.c **** //  Function        : CTLComplete
 916:src/ctltrans.c **** //  Description     : Handle CTL COMPLETE response
 917:src/ctltrans.c **** //  Input           : N/A
 918:src/ctltrans.c **** //  Return          : N/A
 919:src/ctltrans.c **** //  Note            : N/A
 920:src/ctltrans.c **** //  Globals Changed : N/A
 921:src/ctltrans.c **** //*****************************************************************************
 922:src/ctltrans.c **** static void CTLComplete(void)
 923:src/ctltrans.c **** {
 1660              		.loc 1 923 0
 1661              		.cfi_startproc
 1662              		@ args = 0, pretend = 0, frame = 0
 1663              		@ frame_needed = 0, uses_anonymous_args = 0
 1664 0000 2DE9F341 		push	{r0, r1, r4, r5, r6, r7, r8, lr}
 1665              		.cfi_def_cfa_offset 32
 1666              		.cfi_offset 4, -24
 1667              		.cfi_offset 5, -20
 1668              		.cfi_offset 6, -16
 1669              		.cfi_offset 7, -12
 1670              		.cfi_offset 8, -8
 1671              		.cfi_offset 14, -4
 924:src/ctltrans.c ****   TLIST *psLp;
 925:src/ctltrans.c ****   
 926:src/ctltrans.c ****   if (DeAss(gGDS->s_TagList, gGDS->s_CTLOut.pbMsg+2, gGDS->s_CTLOut.wLen - 2) == 0) {
 1672              		.loc 1 926 0
 1673 0004 6B4D     		ldr	r5, .L225
 1674 0006 6C4C     		ldr	r4, .L225+4
 1675 0008 2868     		ldr	r0, [r5]
 1676 000a 00F55E50 		add	r0, r0, #14208
 1677 000e 2030     		adds	r0, r0, #32
 1678 0010 30F8082C 		ldrh	r2, [r0, #-8]
 1679 0014 50F8041C 		ldr	r1, [r0, #-4]
 1680 0018 023A     		subs	r2, r2, #2
 1681 001a 0231     		adds	r1, r1, #2
 1682 001c 92B2     		uxth	r2, r2
 1683 001e FFF7FEFF 		bl	DeAss
 1684              	.LVL206:
 1685 0022 68B9     		cbnz	r0, .L159
 927:src/ctltrans.c ****     if (INPUT.b_trans != REFUND_CTL)
 1686              		.loc 1 927 0
 1687 0024 2378     		ldrb	r3, [r4]	@ zero_extendqisi2
 1688 0026 162B     		cmp	r3, #22
 1689 0028 01D0     		beq	.L160
 928:src/ctltrans.c ****       CTLFatal();
 1690              		.loc 1 928 0
 1691 002a FFF7FEFF 		bl	CTLFatal
 1692              	.LVL207:
 1693              	.L160:
 929:src/ctltrans.c ****     memset(&gGDS->s_TagList, 0, sizeof(gGDS->s_TagList));
 1694              		.loc 1 929 0
 1695 002e 2868     		ldr	r0, [r5]
 1696 0030 0021     		movs	r1, #0
 1697 0032 00F55E50 		add	r0, r0, #14208
 1698 0036 2030     		adds	r0, r0, #32
 1699 0038 4FF49662 		mov	r2, #1200
 1700 003c FFF7FEFF 		bl	memset
ARM GAS  C:\Users\AHMED~1.ELE\AppData\Local\Temp\ccu9CE5U.s 			page 51


 1701              	.LVL208:
 1702              	.L159:
 930:src/ctltrans.c ****   }
 931:src/ctltrans.c ****   
 932:src/ctltrans.c ****   ClearResponse();
 1703              		.loc 1 932 0
 1704 0040 FFF7FEFF 		bl	ClearResponse
 1705              	.LVL209:
 933:src/ctltrans.c ****   if ((psLp = CTLTagSeek(0x9A)) != NULL)
 1706              		.loc 1 933 0
 1707 0044 9A20     		movs	r0, #154
 1708 0046 FFF7FEFF 		bl	CTLTagSeek
 1709              	.LVL210:
 1710 004a 0346     		mov	r3, r0
 1711 004c 20B1     		cbz	r0, .L161
 934:src/ctltrans.c ****     memcpy(&RSP_DATA.s_dtg.b_year, psLp->pbLoc, psLp->sLen);
 1712              		.loc 1 934 0
 1713 004e 5B48     		ldr	r0, .L225+8
 1714              	.LVL211:
 1715 0050 5968     		ldr	r1, [r3, #4]
 1716 0052 9A78     		ldrb	r2, [r3, #2]	@ zero_extendqisi2
 1717 0054 FFF7FEFF 		bl	memcpy
 1718              	.LVL212:
 1719              	.L161:
 935:src/ctltrans.c ****   if ((psLp = CTLTagSeek(0x9F21)) != NULL)
 1720              		.loc 1 935 0
 1721 0058 49F62170 		movw	r0, #40737
 1722 005c FFF7FEFF 		bl	CTLTagSeek
 1723              	.LVL213:
 1724 0060 0346     		mov	r3, r0
 1725 0062 20B1     		cbz	r0, .L162
 936:src/ctltrans.c ****     memcpy(&RSP_DATA.s_dtg.b_hour, psLp->pbLoc, psLp->sLen);
 1726              		.loc 1 936 0
 1727 0064 5648     		ldr	r0, .L225+12
 1728              	.LVL214:
 1729 0066 5968     		ldr	r1, [r3, #4]
 1730 0068 9A78     		ldrb	r2, [r3, #2]	@ zero_extendqisi2
 1731 006a FFF7FEFF 		bl	memcpy
 1732              	.LVL215:
 1733              	.L162:
 937:src/ctltrans.c ****   memset(RSP_DATA.sb_auth_code, ' ', sizeof(RSP_DATA.sb_auth_code));
 1734              		.loc 1 937 0
 1735 006e 2021     		movs	r1, #32
 1736 0070 0622     		movs	r2, #6
 1737 0072 5448     		ldr	r0, .L225+16
 1738 0074 FFF7FEFF 		bl	memset
 1739              	.LVL216:
 938:src/ctltrans.c ****   RSP_DATA.w_rspcode = '5'*256+'1';
 1740              		.loc 1 938 0
 1741 0078 43F23153 		movw	r3, #13617
 939:src/ctltrans.c ****   RSP_DATA.b_response = TRANS_FAIL;
 940:src/ctltrans.c ****   
 941:src/ctltrans.c ****   DispHeader(NULL);
 1742              		.loc 1 941 0
 1743 007c 0020     		movs	r0, #0
 938:src/ctltrans.c ****   RSP_DATA.w_rspcode = '5'*256+'1';
 1744              		.loc 1 938 0
ARM GAS  C:\Users\AHMED~1.ELE\AppData\Local\Temp\ccu9CE5U.s 			page 52


 1745 007e A4F86E35 		strh	r3, [r4, #1390]	@ movhi
 939:src/ctltrans.c ****   RSP_DATA.b_response = TRANS_FAIL;
 1746              		.loc 1 939 0
 1747 0082 0223     		movs	r3, #2
 1748 0084 84F80037 		strb	r3, [r4, #1792]
 1749              		.loc 1 941 0
 1750 0088 FFF7FEFF 		bl	DispHeader
 1751              	.LVL217:
 942:src/ctltrans.c ****   Disp2x16Msg(GetConstMsg(EDC_CTL_CARD_READ_OK), MW_LINE3, MW_BIGFONT);
 1752              		.loc 1 942 0
 1753 008c 9120     		movs	r0, #145
 1754 008e FFF7FEFF 		bl	GetConstMsg
 1755              	.LVL218:
 1756 0092 4FF44071 		mov	r1, #768
 1757 0096 4FF48052 		mov	r2, #4096
 1758 009a FFF7FEFF 		bl	Disp2x16Msg
 1759              	.LVL219:
 943:src/ctltrans.c **** 
 944:src/ctltrans.c ****   ValidCTLData(TRUE);
 1760              		.loc 1 944 0
 1761 009e 0120     		movs	r0, #1
 1762 00a0 FFF7FEFF 		bl	ValidCTLData
 1763              	.LVL220:
 945:src/ctltrans.c ****   
 946:src/ctltrans.c ****   // check transaction CVM
 947:src/ctltrans.c ****   if ((psLp = CTLTagSeek(CLT_TRAN_CVM)) != NULL) {
 1764              		.loc 1 947 0
 1765 00a4 4DF6B570 		movw	r0, #57269
 1766 00a8 FFF7FEFF 		bl	CTLTagSeek
 1767              	.LVL221:
 1768 00ac 0646     		mov	r6, r0
 1769 00ae 88B3     		cbz	r0, .L164
 948:src/ctltrans.c ****     if (psLp->pbLoc[0] & (0x01 << (8 - TRAN_CVM_ONL_PIN))) {  
 1770              		.loc 1 948 0
 1771 00b0 4368     		ldr	r3, [r0, #4]
 1772 00b2 1B78     		ldrb	r3, [r3]	@ zero_extendqisi2
 1773 00b4 5F06     		lsls	r7, r3, #25
 1774 00b6 08D5     		bpl	.L165
 1775              	.LBB42:
 1776              	.LBB43:
 649:src/ctltrans.c ****     return TRUE;
 1777              		.loc 1 649 0
 1778 00b8 FFF7FEFF 		bl	GetPIN
 1779              	.LVL222:
 1780 00bc 28B9     		cbnz	r0, .L165
 652:src/ctltrans.c ****   return FALSE;
 1781              		.loc 1 652 0
 1782 00be 44F24E32 		movw	r2, #17230
 1783 00c2 3D4B     		ldr	r3, .L225+4
 1784 00c4 A3F86E25 		strh	r2, [r3, #1390]	@ movhi
 1785 00c8 6FE0     		b	.L184
 1786              	.L165:
 1787              	.LBE43:
 1788              	.LBE42:
 949:src/ctltrans.c ****       // online PIN
 950:src/ctltrans.c ****       if (ctlPIN() == FALSE) {
 951:src/ctltrans.c ****         RSP_DATA.w_rspcode = 'C'*256+'N';
ARM GAS  C:\Users\AHMED~1.ELE\AppData\Local\Temp\ccu9CE5U.s 			page 53


 952:src/ctltrans.c ****         LongBeep();
 953:src/ctltrans.c ****         return;
 954:src/ctltrans.c ****       }
 955:src/ctltrans.c ****     }
 956:src/ctltrans.c ****     if (psLp->pbLoc[0] & (0x01 << (8 - TRAN_CVM_MOBILE))) {  
 1789              		.loc 1 956 0
 1790 00ca 7368     		ldr	r3, [r6, #4]
 1791 00cc 1B78     		ldrb	r3, [r3]	@ zero_extendqisi2
 1792 00ce 9E06     		lsls	r6, r3, #26
 1793              	.LVL223:
 1794 00d0 20D5     		bpl	.L164
 1795              	.LVL224:
 1796              	.LBB44:
 957:src/ctltrans.c ****       // mobile CVM
 958:src/ctltrans.c ****       DispLineMW("Mobile CVM Done", MW_LINE5, MW_CLREOL|MW_CENTER|MW_BIGFONT);
 1797              		.loc 1 958 0
 1798 00d2 9220     		movs	r0, #146
 1799 00d4 1021     		movs	r1, #16
 1800 00d6 FFF7FEFF 		bl	sys_func1
 1801              	.LVL225:
 1802 00da 0646     		mov	r6, r0
 1803 00dc 98B1     		cbz	r0, .L167
 1804              		.loc 1 958 0 is_stmt 0 discriminator 1
 1805 00de 3A49     		ldr	r1, .L225+20
 1806 00e0 0F22     		movs	r2, #15
 1807 00e2 FFF7FEFF 		bl	memcpy
 1808              	.LVL226:
 1809 00e6 0023     		movs	r3, #0
 1810 00e8 2521     		movs	r1, #37
 1811 00ea F373     		strb	r3, [r6, #15]
 1812 00ec 41F22203 		movw	r3, #4130
 1813 00f0 0F20     		movs	r0, #15
 1814 00f2 0093     		str	r3, [sp]
 1815 00f4 3246     		mov	r2, r6
 1816 00f6 4FF4A063 		mov	r3, #1280
 1817 00fa FFF7FEFF 		bl	lib_app_call
 1818              	.LVL227:
 1819 00fe 9420     		movs	r0, #148
 1820 0100 3146     		mov	r1, r6
 1821 0102 FFF7FEFF 		bl	sys_func1
 1822              	.LVL228:
 1823              	.L167:
 1824              	.LBE44:
 959:src/ctltrans.c ****       APM_WaitKey(100,0);
 1825              		.loc 1 959 0 is_stmt 1
 1826 0106 0023     		movs	r3, #0
 1827 0108 1020     		movs	r0, #16
 1828 010a 0093     		str	r3, [sp]
 1829 010c 0321     		movs	r1, #3
 1830 010e 6422     		movs	r2, #100
 1831 0110 FFF7FEFF 		bl	lib_app_call
 1832              	.LVL229:
 1833              	.L164:
 960:src/ctltrans.c ****     }
 961:src/ctltrans.c ****   }
 962:src/ctltrans.c ****   
 963:src/ctltrans.c ****   if (bAction & CLACT_REFERRAL) { // referral requested
ARM GAS  C:\Users\AHMED~1.ELE\AppData\Local\Temp\ccu9CE5U.s 			page 54


 1834              		.loc 1 963 0
 1835 0114 2B68     		ldr	r3, [r5]
 1836 0116 03F55E53 		add	r3, r3, #14208
 1837 011a DB69     		ldr	r3, [r3, #28]
 1838 011c 5B78     		ldrb	r3, [r3, #1]	@ zero_extendqisi2
 1839 011e 9806     		lsls	r0, r3, #26
 1840 0120 60D5     		bpl	.L168
 1841              	.LBB45:
 1842              	.LBB46:
 778:src/ctltrans.c ****   DispLineMW(&RSP_DATA.text[1], MW_LINE1, MW_CENTER|MW_BIGFONT);
 1843              		.loc 1 778 0
 1844 0122 FFF7FEFF 		bl	PackRspText
 1845              	.LVL230:
 1846              	.LBB47:
 779:src/ctltrans.c **** 
 1847              		.loc 1 779 0
 1848 0126 2948     		ldr	r0, .L225+24
 1849 0128 FFF7FEFF 		bl	strlen
 1850              	.LVL231:
 1851 012c 0746     		mov	r7, r0
 1852              	.LVL232:
 1853 012e 791C     		adds	r1, r7, #1
 1854 0130 9220     		movs	r0, #146
 1855              	.LVL233:
 1856 0132 FFF7FEFF 		bl	sys_func1
 1857              	.LVL234:
 1858 0136 0646     		mov	r6, r0
 1859 0138 98B1     		cbz	r0, .L169
 1860 013a 2449     		ldr	r1, .L225+24
 1861 013c 3A46     		mov	r2, r7
 1862 013e FFF7FEFF 		bl	memcpy
 1863              	.LVL235:
 1864 0142 0023     		movs	r3, #0
 1865 0144 2521     		movs	r1, #37
 1866 0146 F355     		strb	r3, [r6, r7]
 1867 0148 41F20203 		movw	r3, #4098
 1868 014c 0F20     		movs	r0, #15
 1869 014e 0093     		str	r3, [sp]
 1870 0150 3246     		mov	r2, r6
 1871 0152 4FF48073 		mov	r3, #256
 1872 0156 FFF7FEFF 		bl	lib_app_call
 1873              	.LVL236:
 1874 015a 9420     		movs	r0, #148
 1875 015c 3146     		mov	r1, r6
 1876 015e FFF7FEFF 		bl	sys_func1
 1877              	.LVL237:
 1878              	.L169:
 1879              	.LBE47:
 781:src/ctltrans.c ****   RSP_DATA.w_rspcode = 'C'*256+'N';
 1880              		.loc 1 781 0
 1881 0162 0026     		movs	r6, #0
 1882              	.LVL238:
 1883 0164 3346     		mov	r3, r6
 1884 0166 0096     		str	r6, [sp]
 1885 0168 1020     		movs	r0, #16
 1886 016a 0D21     		movs	r1, #13
 1887 016c 3246     		mov	r2, r6
ARM GAS  C:\Users\AHMED~1.ELE\AppData\Local\Temp\ccu9CE5U.s 			page 55


 1888 016e FFF7FEFF 		bl	lib_app_call
 1889              	.LVL239:
 782:src/ctltrans.c ****   RSP_DATA.text[0] = 0;
 1890              		.loc 1 782 0
 1891 0172 44F24E33 		movw	r3, #17230
 1892 0176 104F     		ldr	r7, .L225+4
 1893              	.LVL240:
 1894 0178 A4F86E35 		strh	r3, [r4, #1390]	@ movhi
 783:src/ctltrans.c **** 
 1895              		.loc 1 783 0
 1896 017c 84F80167 		strb	r6, [r4, #1793]
 785:src/ctltrans.c ****     INPUT.b_trans_status = OFFLINE;
 1897              		.loc 1 785 0
 1898 0180 FFF7FEFF 		bl	GetAuthCode
 1899              	.LVL241:
 1900 0184 48B1     		cbz	r0, .L170
 787:src/ctltrans.c ****     RSP_DATA.b_response = TRANS_ACP;
 1901              		.loc 1 787 0
 1902 0186 2868     		ldr	r0, [r5]
 786:src/ctltrans.c ****     DispHeader(STIS_ISS_TBL(0).sb_card_name);
 1903              		.loc 1 786 0
 1904 0188 8023     		movs	r3, #128
 787:src/ctltrans.c ****     RSP_DATA.b_response = TRANS_ACP;
 1905              		.loc 1 787 0
 1906 018a 00F2A140 		addw	r0, r0, #1185
 786:src/ctltrans.c ****     DispHeader(STIS_ISS_TBL(0).sb_card_name);
 1907              		.loc 1 786 0
 1908 018e BB70     		strb	r3, [r7, #2]
 787:src/ctltrans.c ****     RSP_DATA.b_response = TRANS_ACP;
 1909              		.loc 1 787 0
 1910 0190 FFF7FEFF 		bl	DispHeader
 1911              	.LVL242:
 788:src/ctltrans.c ****   }
 1912              		.loc 1 788 0
 1913 0194 87F80067 		strb	r6, [r7, #1792]
 1914 0198 04E0     		b	.L171
 1915              	.L170:
 791:src/ctltrans.c **** 
 1916              		.loc 1 791 0
 1917 019a 2868     		ldr	r0, [r5]
 1918 019c 00F2A140 		addw	r0, r0, #1185
 1919 01a0 FFF7FEFF 		bl	DispHeader
 1920              	.LVL243:
 1921              	.L171:
 793:src/ctltrans.c ****     LongBeep();
 1922              		.loc 1 793 0
 1923 01a4 94F80037 		ldrb	r3, [r4, #1792]	@ zero_extendqisi2
 1924 01a8 93B1     		cbz	r3, .L172
 1925              	.L184:
 1926              	.LBE46:
 1927              	.LBE45:
 964:src/ctltrans.c ****     if (!CTLReferral())
 965:src/ctltrans.c ****       return;
 966:src/ctltrans.c ****     bAction |= CLACT_APPROVED;  // so it will print & update batch
 967:src/ctltrans.c ****   }
 968:src/ctltrans.c ****   if (bAction & CLACT_ONLINE) {
 969:src/ctltrans.c ****     // online
ARM GAS  C:\Users\AHMED~1.ELE\AppData\Local\Temp\ccu9CE5U.s 			page 56


 970:src/ctltrans.c ****     CL_LedSet(CTL_LED_ARQC);
 971:src/ctltrans.c ****     if (CTLOnline()) {
 972:src/ctltrans.c ****       if (RSP_DATA.b_response == TRANS_ACP)
 973:src/ctltrans.c ****         bAction |= CLACT_APPROVED;
 974:src/ctltrans.c ****     }
 975:src/ctltrans.c ****   }
 976:src/ctltrans.c ****   
 977:src/ctltrans.c ****   if (bAction & CLACT_APPROVED) {
 978:src/ctltrans.c ****     CTLAccepted();
 979:src/ctltrans.c ****   }
 980:src/ctltrans.c ****   else {
 981:src/ctltrans.c ****     // declined
 982:src/ctltrans.c ****     LongBeep();
 983:src/ctltrans.c ****   }
 984:src/ctltrans.c **** }
 1928              		.loc 1 984 0
 1929 01aa 02B0     		add	sp, sp, #8
 1930              		.cfi_remember_state
 1931              		.cfi_def_cfa_offset 24
 1932              		@ sp needed
 1933 01ac BDE8F041 		pop	{r4, r5, r6, r7, r8, lr}
 1934              		.cfi_restore 14
 1935              		.cfi_restore 8
 1936              		.cfi_restore 7
 1937              		.cfi_restore 6
 1938              		.cfi_restore 5
 1939              		.cfi_restore 4
 1940              		.cfi_def_cfa_offset 0
 1941              	.LBB49:
 1942              	.LBB48:
 794:src/ctltrans.c ****     return FALSE;
 1943              		.loc 1 794 0
 1944 01b0 FFF7FEBF 		b	LongBeep
 1945              	.LVL244:
 1946              	.L226:
 1947              		.align	2
 1948              	.L225:
 1949 01b4 00000000 		.word	gGDS
 1950 01b8 00000000 		.word	gGTS
 1951 01bc 85050000 		.word	gGTS+1413
 1952 01c0 88050000 		.word	gGTS+1416
 1953 01c4 67050000 		.word	gGTS+1383
 1954 01c8 41000000 		.word	.LC17
 1955 01cc 02070000 		.word	gGTS+1794
 1956              	.L172:
 1957              		.cfi_restore_state
 797:src/ctltrans.c ****   return TRUE;
 1958              		.loc 1 797 0
 1959 01d0 FFF7FEFF 		bl	PackDTGAA
 1960              	.LVL245:
 1961              	.LBE48:
 1962              	.LBE49:
 966:src/ctltrans.c ****   }
 1963              		.loc 1 966 0
 1964 01d4 2B68     		ldr	r3, [r5]
 1965 01d6 03F55E53 		add	r3, r3, #14208
 1966 01da DA69     		ldr	r2, [r3, #28]
ARM GAS  C:\Users\AHMED~1.ELE\AppData\Local\Temp\ccu9CE5U.s 			page 57


 1967 01dc 5378     		ldrb	r3, [r2, #1]	@ zero_extendqisi2
 1968 01de 63F07F03 		orn	r3, r3, #127
 1969 01e2 5370     		strb	r3, [r2, #1]
 1970              	.L168:
 968:src/ctltrans.c ****     // online
 1971              		.loc 1 968 0
 1972 01e4 2B68     		ldr	r3, [r5]
 1973 01e6 03F55E53 		add	r3, r3, #14208
 1974 01ea DB69     		ldr	r3, [r3, #28]
 1975 01ec 5B78     		ldrb	r3, [r3, #1]	@ zero_extendqisi2
 1976 01ee D906     		lsls	r1, r3, #27
 1977 01f0 40F19880 		bpl	.L174
 970:src/ctltrans.c ****     if (CTLOnline()) {
 1978              		.loc 1 970 0
 1979 01f4 0420     		movs	r0, #4
 1980 01f6 FFF7FEFF 		bl	CL_LedSet
 1981              	.LVL246:
 1982              	.LBB50:
 1983              	.LBB51:
 735:src/ctltrans.c ****     if (INPUT.b_trans != REFUND_CTL)
 1984              		.loc 1 735 0
 1985 01fa 784B     		ldr	r3, .L227
 1986 01fc 1868     		ldr	r0, [r3]
 1987 01fe 00F55E50 		add	r0, r0, #14208
 1988 0202 2030     		adds	r0, r0, #32
 1989 0204 30F8082C 		ldrh	r2, [r0, #-8]
 1990 0208 50F8041C 		ldr	r1, [r0, #-4]
 1991 020c 023A     		subs	r2, r2, #2
 1992 020e 0231     		adds	r1, r1, #2
 1993 0210 92B2     		uxth	r2, r2
 1994 0212 FFF7FEFF 		bl	DeAss
 1995              	.LVL247:
 1996 0216 68B9     		cbnz	r0, .L175
 736:src/ctltrans.c ****       CTLFatal();
 1997              		.loc 1 736 0
 1998 0218 2378     		ldrb	r3, [r4]	@ zero_extendqisi2
 1999 021a 162B     		cmp	r3, #22
 2000 021c 01D0     		beq	.L176
 737:src/ctltrans.c ****     memset(&gGDS->s_TagList, 0, sizeof(gGDS->s_TagList));
 2001              		.loc 1 737 0
 2002 021e FFF7FEFF 		bl	CTLFatal
 2003              	.LVL248:
 2004              	.L176:
 738:src/ctltrans.c ****   }
 2005              		.loc 1 738 0
 2006 0222 2868     		ldr	r0, [r5]
 2007 0224 0021     		movs	r1, #0
 2008 0226 00F55E50 		add	r0, r0, #14208
 2009 022a 2030     		adds	r0, r0, #32
 2010 022c 4FF49662 		mov	r2, #1200
 2011 0230 FFF7FEFF 		bl	memset
 2012              	.LVL249:
 2013              	.L175:
 742:src/ctltrans.c ****     if (ReversalOK()) {
 2014              		.loc 1 742 0
 2015 0234 0027     		movs	r7, #0
 740:src/ctltrans.c ****   PackComm(INPUT.w_host_idx, FALSE);
ARM GAS  C:\Users\AHMED~1.ELE\AppData\Local\Temp\ccu9CE5U.s 			page 58


 2016              		.loc 1 740 0
 2017 0236 0020     		movs	r0, #0
 2018 0238 FFF7FEFF 		bl	DispHeader
 2019              	.LVL250:
 741:src/ctltrans.c ****   if ((RSP_DATA.w_rspcode = APM_ConnectOK(FALSE)) == COMM_OK) {
 2020              		.loc 1 741 0
 2021 023c B4F87600 		ldrh	r0, [r4, #118]
 2022 0240 0021     		movs	r1, #0
 2023 0242 FFF7FEFF 		bl	PackComm
 2024              	.LVL251:
 742:src/ctltrans.c ****     if (ReversalOK()) {
 2025              		.loc 1 742 0
 2026 0246 3B46     		mov	r3, r7
 2027 0248 0097     		str	r7, [sp]
 2028 024a 1020     		movs	r0, #16
 2029 024c 0A21     		movs	r1, #10
 2030 024e 3A46     		mov	r2, r7
 2031 0250 FFF7FEFF 		bl	lib_app_call
 2032              	.LVL252:
 2033 0254 43F23003 		movw	r3, #12336
 741:src/ctltrans.c ****   if ((RSP_DATA.w_rspcode = APM_ConnectOK(FALSE)) == COMM_OK) {
 2034              		.loc 1 741 0
 2035 0258 614E     		ldr	r6, .L227+4
 742:src/ctltrans.c ****     if (ReversalOK()) {
 2036              		.loc 1 742 0
 2037 025a 1FFA80F8 		uxth	r8, r0
 2038 025e 9845     		cmp	r8, r3
 2039 0260 A4F86E85 		strh	r8, [r4, #1390]	@ movhi
 2040 0264 5ED1     		bne	.L174
 743:src/ctltrans.c ****       OfflineSent(FALSE);
 2041              		.loc 1 743 0
 2042 0266 FFF7FEFF 		bl	ReversalOK
 2043              	.LVL253:
 2044 026a 0028     		cmp	r0, #0
 2045 026c 48D0     		beq	.L179
 744:src/ctltrans.c ****       memcpy(TX_DATA.sb_trace_no, INPUT.sb_trace_no, sizeof(TX_DATA.sb_trace_no));
 2046              		.loc 1 744 0
 2047 026e 3846     		mov	r0, r7
 2048 0270 FFF7FEFF 		bl	OfflineSent
 2049              	.LVL254:
 745:src/ctltrans.c ****       memcpy(INPUT.sb_roc_no, INPUT.sb_trace_no, sizeof(TX_DATA.sb_trace_no));
 2050              		.loc 1 745 0
 2051 0274 F11C     		adds	r1, r6, #3
 2052 0276 0322     		movs	r2, #3
 2053 0278 5A48     		ldr	r0, .L227+8
 2054 027a FFF7FEFF 		bl	memcpy
 2055              	.LVL255:
 746:src/ctltrans.c ****       IncAPMTraceNo();
 2056              		.loc 1 746 0
 2057 027e F11C     		adds	r1, r6, #3
 2058 0280 0322     		movs	r2, #3
 2059 0282 F01D     		adds	r0, r6, #7
 2060 0284 FFF7FEFF 		bl	memcpy
 2061              	.LVL256:
 747:src/ctltrans.c ****       MoveInput2Tx();
 2062              		.loc 1 747 0
 2063 0288 FFF7FEFF 		bl	IncAPMTraceNo
ARM GAS  C:\Users\AHMED~1.ELE\AppData\Local\Temp\ccu9CE5U.s 			page 59


 2064              	.LVL257:
 748:src/ctltrans.c ****       memcpy(TX_DATA.sb_pin, INPUT.sb_pin, sizeof(INPUT.sb_pin)); // online pin
 2065              		.loc 1 748 0
 2066 028c FFF7FEFF 		bl	MoveInput2Tx
 2067              	.LVL258:
 749:src/ctltrans.c ****       PackCTLData(&TX_DATA.s_icc_data);  // field 55 ICC data  
 2068              		.loc 1 749 0
 2069 0290 06F5FC72 		add	r2, r6, #504
 2070 0294 06F59F63 		add	r3, r6, #1272
 2071 0298 92E80300 		ldmia	r2, {r0, r1}
 2072 029c 83E80300 		stmia	r3, {r0, r1}
 750:src/ctltrans.c ****       PackProcCode(TX_DATA.b_trans, TX_DATA.b_acc_ind);
 2073              		.loc 1 750 0
 2074 02a0 06F56170 		add	r0, r6, #900
 2075 02a4 FFF7FEFF 		bl	PackCTLData
 2076              	.LVL259:
 751:src/ctltrans.c ****       PackHostMsg();
 2077              		.loc 1 751 0
 2078 02a8 96F80613 		ldrb	r1, [r6, #774]	@ zero_extendqisi2
 2079 02ac 96F80003 		ldrb	r0, [r6, #768]	@ zero_extendqisi2
 2080 02b0 FFF7FEFF 		bl	PackProcCode
 2081              	.LVL260:
 752:src/ctltrans.c ****       UpdateHostStatus(REV_PENDING);
 2082              		.loc 1 752 0
 2083 02b4 FFF7FEFF 		bl	PackHostMsg
 2084              	.LVL261:
 753:src/ctltrans.c **** 
 2085              		.loc 1 753 0
 2086 02b8 0120     		movs	r0, #1
 2087 02ba FFF7FEFF 		bl	UpdateHostStatus
 2088              	.LVL262:
 755:src/ctltrans.c ****         RSP_DATA.b_response = CheckHostRsp();
 2089              		.loc 1 755 0
 2090 02be 2B68     		ldr	r3, [r5]
 2091 02c0 0097     		str	r7, [sp]
 2092 02c2 03F5CC52 		add	r2, r3, #6528
 2093 02c6 03F51653 		add	r3, r3, #9600
 2094 02ca 1020     		movs	r0, #16
 2095 02cc 0B21     		movs	r1, #11
 2096 02ce 1C32     		adds	r2, r2, #28
 2097 02d0 2033     		adds	r3, r3, #32
 2098 02d2 FFF7FEFF 		bl	lib_app_call
 2099              	.LVL263:
 2100 02d6 80B2     		uxth	r0, r0
 2101 02d8 4045     		cmp	r0, r8
 2102 02da A6F86E05 		strh	r0, [r6, #1390]	@ movhi
 2103 02de 08D1     		bne	.L181
 756:src/ctltrans.c ****         if (RSP_DATA.b_response <= TRANS_REJ)
 2104              		.loc 1 756 0
 2105 02e0 FFF7FEFF 		bl	CheckHostRsp
 2106              	.LVL264:
 757:src/ctltrans.c ****           UpdateHostStatus(NO_PENDING);
 2107              		.loc 1 757 0
 2108 02e4 0128     		cmp	r0, #1
 756:src/ctltrans.c ****         if (RSP_DATA.b_response <= TRANS_REJ)
 2109              		.loc 1 756 0
 2110 02e6 86F80007 		strb	r0, [r6, #1792]
ARM GAS  C:\Users\AHMED~1.ELE\AppData\Local\Temp\ccu9CE5U.s 			page 60


 757:src/ctltrans.c ****           UpdateHostStatus(NO_PENDING);
 2111              		.loc 1 757 0
 2112 02ea 02D8     		bhi	.L181
 758:src/ctltrans.c ****       }
 2113              		.loc 1 758 0
 2114 02ec 3846     		mov	r0, r7
 2115 02ee FFF7FEFF 		bl	UpdateHostStatus
 2116              	.LVL265:
 2117              	.L181:
 760:src/ctltrans.c ****         UpdateHostStatus(NO_PENDING);
 2118              		.loc 1 760 0
 2119 02f2 94F80037 		ldrb	r3, [r4, #1792]	@ zero_extendqisi2
 2120 02f6 012B     		cmp	r3, #1
 2121 02f8 02D8     		bhi	.L179
 761:src/ctltrans.c ****     }
 2122              		.loc 1 761 0
 2123 02fa 0020     		movs	r0, #0
 2124 02fc FFF7FEFF 		bl	UpdateHostStatus
 2125              	.LVL266:
 2126              	.L179:
 763:src/ctltrans.c ****     return TRUE;
 2127              		.loc 1 763 0
 2128 0300 0022     		movs	r2, #0
 2129 0302 1346     		mov	r3, r2
 2130 0304 0092     		str	r2, [sp]
 2131 0306 1020     		movs	r0, #16
 2132 0308 0D21     		movs	r1, #13
 2133 030a FFF7FEFF 		bl	lib_app_call
 2134              	.LVL267:
 2135              	.LBE51:
 2136              	.LBE50:
 972:src/ctltrans.c ****         bAction |= CLACT_APPROVED;
 2137              		.loc 1 972 0
 2138 030e 94F80037 		ldrb	r3, [r4, #1792]	@ zero_extendqisi2
 2139 0312 3BB9     		cbnz	r3, .L174
 973:src/ctltrans.c ****     }
 2140              		.loc 1 973 0
 2141 0314 2B68     		ldr	r3, [r5]
 2142 0316 03F55E53 		add	r3, r3, #14208
 2143 031a DA69     		ldr	r2, [r3, #28]
 2144 031c 5378     		ldrb	r3, [r2, #1]	@ zero_extendqisi2
 2145 031e 63F07F03 		orn	r3, r3, #127
 2146 0322 5370     		strb	r3, [r2, #1]
 2147              	.L174:
 977:src/ctltrans.c ****     CTLAccepted();
 2148              		.loc 1 977 0
 2149 0324 2B68     		ldr	r3, [r5]
 2150 0326 03F55E53 		add	r3, r3, #14208
 2151 032a DB69     		ldr	r3, [r3, #28]
 2152 032c 93F90120 		ldrsb	r2, [r3, #1]
 2153 0330 002A     		cmp	r2, #0
 2154 0332 BFF63AAF 		bge	.L184
 2155              	.LBB52:
 2156              	.LBB53:
 812:src/ctltrans.c ****   if ((bAction & CLACT_ONLINE) == 0) {
 2157              		.loc 1 812 0
 2158 0336 0022     		movs	r2, #0
ARM GAS  C:\Users\AHMED~1.ELE\AppData\Local\Temp\ccu9CE5U.s 			page 61


 2159 0338 84F80027 		strb	r2, [r4, #1792]
 813:src/ctltrans.c ****     memset(RSP_DATA.sb_auth_code, ' ', 6);
 2160              		.loc 1 813 0
 2161 033c 5B78     		ldrb	r3, [r3, #1]	@ zero_extendqisi2
 2162 033e DA06     		lsls	r2, r3, #27
 2163 0340 11D4     		bmi	.L185
 814:src/ctltrans.c ****     memcpy(RSP_DATA.sb_auth_code, "Y1", 2);
 2164              		.loc 1 814 0
 2165 0342 2021     		movs	r1, #32
 2166 0344 0622     		movs	r2, #6
 2167 0346 2848     		ldr	r0, .L227+12
 2168 0348 FFF7FEFF 		bl	memset
 2169              	.LVL268:
 815:src/ctltrans.c ****     IncAPMTraceNo();
 2170              		.loc 1 815 0
 2171 034c 2749     		ldr	r1, .L227+16
 2172 034e 0222     		movs	r2, #2
 2173 0350 2548     		ldr	r0, .L227+12
 2174 0352 FFF7FEFF 		bl	memcpy
 2175              	.LVL269:
 816:src/ctltrans.c ****     memcpy(TX_DATA.sb_trace_no, INPUT.sb_trace_no, sizeof(TX_DATA.sb_trace_no));
 2176              		.loc 1 816 0
 2177 0356 FFF7FEFF 		bl	IncAPMTraceNo
 2178              	.LVL270:
 817:src/ctltrans.c ****   }
 2179              		.loc 1 817 0
 2180 035a 2248     		ldr	r0, .L227+8
 2181 035c 0322     		movs	r2, #3
 2182 035e A0F54071 		sub	r1, r0, #768
 2183 0362 FFF7FEFF 		bl	memcpy
 2184              	.LVL271:
 2185              	.L185:
 820:src/ctltrans.c ****     memcpy(INPUT.s_icc_data.sb_tag_9f26, psLp->pbLoc, psLp->sLen);
 2186              		.loc 1 820 0
 2187 0366 49F62670 		movw	r0, #40742
 2188 036a FFF7FEFF 		bl	CTLTagSeek
 2189              	.LVL272:
 2190 036e 0346     		mov	r3, r0
 2191 0370 20B1     		cbz	r0, .L186
 821:src/ctltrans.c ****   if ((psLp = CTLTagSeek(0x4F)) != NULL) {                  //AID for printing
 2192              		.loc 1 821 0
 2193 0372 1F48     		ldr	r0, .L227+20
 2194              	.LVL273:
 2195 0374 5968     		ldr	r1, [r3, #4]
 2196 0376 9A78     		ldrb	r2, [r3, #2]	@ zero_extendqisi2
 2197 0378 FFF7FEFF 		bl	memcpy
 2198              	.LVL274:
 2199              	.L186:
 822:src/ctltrans.c ****     memcpy(INPUT.s_icc_data.sb_aid, psLp->pbLoc, psLp->sLen);
 2200              		.loc 1 822 0
 2201 037c 4F20     		movs	r0, #79
 2202 037e FFF7FEFF 		bl	CTLTagSeek
 2203              	.LVL275:
 2204 0382 0646     		mov	r6, r0
 2205 0384 38B1     		cbz	r0, .L187
 823:src/ctltrans.c ****     INPUT.s_icc_data.b_aid_len = psLp->sLen;
 2206              		.loc 1 823 0
ARM GAS  C:\Users\AHMED~1.ELE\AppData\Local\Temp\ccu9CE5U.s 			page 62


 2207 0386 1B48     		ldr	r0, .L227+24
 2208              	.LVL276:
 2209 0388 7168     		ldr	r1, [r6, #4]
 2210 038a B278     		ldrb	r2, [r6, #2]	@ zero_extendqisi2
 2211 038c FFF7FEFF 		bl	memcpy
 2212              	.LVL277:
 824:src/ctltrans.c ****   }
 2213              		.loc 1 824 0
 2214 0390 B378     		ldrb	r3, [r6, #2]	@ zero_extendqisi2
 2215 0392 84F89430 		strb	r3, [r4, #148]
 2216              	.L187:
 827:src/ctltrans.c ****   PackCTLData(&INPUT.s_icc_data);  // field 55 ICC data
 2217              		.loc 1 827 0
 2218 0396 43F23000 		movw	r0, #12336
 2219 039a FFF7FEFF 		bl	SetRspCode
 2220              	.LVL278:
 828:src/ctltrans.c ****   if (bAction & ACT_SIGNATURE)
 2221              		.loc 1 828 0
 2222 039e 1648     		ldr	r0, .L227+28
 2223 03a0 FFF7FEFF 		bl	PackCTLData
 2224              	.LVL279:
 829:src/ctltrans.c ****     RSP_DATA.w_rspcode = 'V'*256+'S';
 2225              		.loc 1 829 0
 2226 03a4 2B68     		ldr	r3, [r5]
 2227 03a6 03F55E53 		add	r3, r3, #14208
 2228 03aa DB69     		ldr	r3, [r3, #28]
 2229 03ac 5B78     		ldrb	r3, [r3, #1]	@ zero_extendqisi2
 2230 03ae DB07     		lsls	r3, r3, #31
 830:src/ctltrans.c ****   else
 2231              		.loc 1 830 0
 2232 03b0 4CBF     		ite	mi
 2233 03b2 45F25363 		movwmi	r3, #22099
 832:src/ctltrans.c **** 
 2234              		.loc 1 832 0
 2235 03b6 45F24143 		movwpl	r3, #21569
 2236 03ba A4F86E35 		strh	r3, [r4, #1390]	@ movhi
 834:src/ctltrans.c ****   MoveInput2Tx();
 2237              		.loc 1 834 0
 2238 03be FFF7FEFF 		bl	PackInputP
 2239              	.LVL280:
 835:src/ctltrans.c ****   if (INPUT.b_trans != AUTH_CTL)
 2240              		.loc 1 835 0
 2241 03c2 FFF7FEFF 		bl	MoveInput2Tx
 2242              	.LVL281:
 836:src/ctltrans.c ****     SaveRecord();
 2243              		.loc 1 836 0
 2244 03c6 2378     		ldrb	r3, [r4]	@ zero_extendqisi2
 2245 03c8 152B     		cmp	r3, #21
 2246 03ca 04D0     		beq	.L158
 2247              	.LBE53:
 2248              	.LBE52:
 2249              		.loc 1 984 0
 2250 03cc 02B0     		add	sp, sp, #8
 2251              		.cfi_remember_state
 2252              		.cfi_def_cfa_offset 24
 2253              		@ sp needed
 2254 03ce BDE8F041 		pop	{r4, r5, r6, r7, r8, lr}
ARM GAS  C:\Users\AHMED~1.ELE\AppData\Local\Temp\ccu9CE5U.s 			page 63


 2255              		.cfi_restore 14
 2256              		.cfi_restore 8
 2257              		.cfi_restore 7
 2258              		.cfi_restore 6
 2259              		.cfi_restore 5
 2260              		.cfi_restore 4
 2261              		.cfi_def_cfa_offset 0
 2262              	.LVL282:
 2263              	.LBB55:
 2264              	.LBB54:
 837:src/ctltrans.c **** }
 2265              		.loc 1 837 0
 2266 03d2 FFF7FEBF 		b	SaveRecord
 2267              	.LVL283:
 2268              	.L158:
 2269              		.cfi_restore_state
 2270              	.LBE54:
 2271              	.LBE55:
 2272              		.loc 1 984 0
 2273 03d6 02B0     		add	sp, sp, #8
 2274              		.cfi_def_cfa_offset 24
 2275              		@ sp needed
 2276 03d8 BDE8F081 		pop	{r4, r5, r6, r7, r8, pc}
 2277              	.LVL284:
 2278              	.L228:
 2279              		.align	2
 2280              	.L227:
 2281 03dc 00000000 		.word	gGDS
 2282 03e0 00000000 		.word	gGTS
 2283 03e4 03030000 		.word	gGTS+771
 2284 03e8 67050000 		.word	gGTS+1383
 2285 03ec 51000000 		.word	.LC18
 2286 03f0 A3000000 		.word	gGTS+163
 2287 03f4 95000000 		.word	gGTS+149
 2288 03f8 84000000 		.word	gGTS+132
 2289              		.cfi_endproc
 2290              	.LFE22:
 2291              		.size	CTLComplete, .-CTLComplete
 2292              		.section	.text.CTLError.isra.3,"ax",%progbits
 2293              		.align	1
 2294              		.thumb
 2295              		.thumb_func
 2296              		.type	CTLError.isra.3, %function
 2297              	CTLError.isra.3:
 2298              	.LFB34:
 847:src/ctltrans.c **** {
 2299              		.loc 1 847 0
 2300              		.cfi_startproc
 2301              		@ args = 0, pretend = 0, frame = 64
 2302              		@ frame_needed = 0, uses_anonymous_args = 0
 2303              	.LVL285:
 2304 0000 70B5     		push	{r4, r5, r6, lr}
 2305              		.cfi_def_cfa_offset 16
 2306              		.cfi_offset 4, -16
 2307              		.cfi_offset 5, -12
 2308              		.cfi_offset 6, -8
 2309              		.cfi_offset 14, -4
ARM GAS  C:\Users\AHMED~1.ELE\AppData\Local\Temp\ccu9CE5U.s 			page 64


 851:src/ctltrans.c ****   switch (gGDS->s_CTLOut.pbMsg[0]) {  //error message response
 2310              		.loc 1 851 0
 2311 0002 0020     		movs	r0, #0
 847:src/ctltrans.c **** {
 2312              		.loc 1 847 0
 2313 0004 92B0     		sub	sp, sp, #72
 2314              		.cfi_def_cfa_offset 88
 851:src/ctltrans.c ****   switch (gGDS->s_CTLOut.pbMsg[0]) {  //error message response
 2315              		.loc 1 851 0
 2316 0006 FFF7FEFF 		bl	DispHeader
 2317              	.LVL286:
 852:src/ctltrans.c ****     case CLERR_SMCIO:
 2318              		.loc 1 852 0
 2319 000a 524A     		ldr	r2, .L256
 2320 000c 524C     		ldr	r4, .L256+4
 2321 000e 1368     		ldr	r3, [r2]
 2322 0010 1546     		mov	r5, r2
 2323 0012 03F55E53 		add	r3, r3, #14208
 2324 0016 DB69     		ldr	r3, [r3, #28]
 2325 0018 1B78     		ldrb	r3, [r3]	@ zero_extendqisi2
 2326 001a 072B     		cmp	r3, #7
 2327 001c 30D0     		beq	.L231
 2328 001e 0CD8     		bhi	.L232
 2329 0020 042B     		cmp	r3, #4
 2330 0022 1FD0     		beq	.L233
 2331 0024 02D8     		bhi	.L234
 2332 0026 022B     		cmp	r3, #2
 2333 0028 19D2     		bcs	.L235
 2334 002a 35E0     		b	.L230
 2335              	.L234:
 2336 002c 052B     		cmp	r3, #5
 2337 002e 24D0     		beq	.L236
 2338 0030 062B     		cmp	r3, #6
 2339 0032 31D1     		bne	.L230
 866:src/ctltrans.c ****       break;
 2340              		.loc 1 866 0
 2341 0034 45F24353 		movw	r3, #21827
 2342 0038 30E0     		b	.L255
 2343              	.L232:
 852:src/ctltrans.c ****     case CLERR_SMCIO:
 2344              		.loc 1 852 0
 2345 003a 402B     		cmp	r3, #64
 2346 003c 23D0     		beq	.L238
 2347 003e 06D8     		bhi	.L239
 2348 0040 082B     		cmp	r3, #8
 2349 0042 0CD0     		beq	.L235
 2350 0044 102B     		cmp	r3, #16
 2351 0046 27D1     		bne	.L230
 863:src/ctltrans.c ****       break;
 2352              		.loc 1 863 0
 2353 0048 45F24333 		movw	r3, #21315
 2354 004c 26E0     		b	.L255
 2355              	.L239:
 852:src/ctltrans.c ****     case CLERR_SMCIO:
 2356              		.loc 1 852 0
 2357 004e 422B     		cmp	r3, #66
 2358 0050 1FD0     		beq	.L241
ARM GAS  C:\Users\AHMED~1.ELE\AppData\Local\Temp\ccu9CE5U.s 			page 65


 2359 0052 1BD3     		bcc	.L242
 2360 0054 432B     		cmp	r3, #67
 2361 0056 1FD1     		bne	.L230
 881:src/ctltrans.c ****       break;
 2362              		.loc 1 881 0
 2363 0058 44F23233 		movw	r3, #17202
 2364 005c 1EE0     		b	.L255
 2365              	.L235:
 856:src/ctltrans.c ****       break;
 2366              		.loc 1 856 0
 2367 005e 45F24523 		movw	r3, #21061
 2368 0062 1BE0     		b	.L255
 2369              	.L233:
 859:src/ctltrans.c ****       RSP_DATA.w_rspcode = 'C'*256+'N';
 2370              		.loc 1 859 0
 2371 0064 0023     		movs	r3, #0
 2372 0066 0F20     		movs	r0, #15
 2373 0068 0093     		str	r3, [sp]
 2374 006a 2321     		movs	r1, #35
 2375 006c 4FF44072 		mov	r2, #768
 2376 0070 FFF7FEFF 		bl	lib_app_call
 2377              	.LVL287:
 860:src/ctltrans.c ****       break;
 2378              		.loc 1 860 0
 2379 0074 44F24E33 		movw	r3, #17230
 2380 0078 10E0     		b	.L255
 2381              	.L236:
 869:src/ctltrans.c ****       break;
 2382              		.loc 1 869 0
 2383 007a 44F64153 		movw	r3, #19777
 2384 007e 0DE0     		b	.L255
 2385              	.L231:
 872:src/ctltrans.c ****       break;
 2386              		.loc 1 872 0
 2387 0080 45F24233 		movw	r3, #21314
 2388 0084 0AE0     		b	.L255
 2389              	.L238:
 875:src/ctltrans.c ****       break;
 2390              		.loc 1 875 0
 2391 0086 44F23033 		movw	r3, #17200
 2392 008a 07E0     		b	.L255
 2393              	.L242:
 878:src/ctltrans.c ****       break;
 2394              		.loc 1 878 0
 2395 008c 44F23133 		movw	r3, #17201
 2396 0090 04E0     		b	.L255
 2397              	.L241:
 884:src/ctltrans.c ****       break;
 2398              		.loc 1 884 0
 2399 0092 44F23333 		movw	r3, #17203
 2400 0096 01E0     		b	.L255
 2401              	.L230:
 889:src/ctltrans.c ****       break;
 2402              		.loc 1 889 0
 2403 0098 45F24533 		movw	r3, #21317
 2404              	.L255:
 2405 009c A4F86E35 		strh	r3, [r4, #1390]	@ movhi
ARM GAS  C:\Users\AHMED~1.ELE\AppData\Local\Temp\ccu9CE5U.s 			page 66


 893:src/ctltrans.c ****     RSP_DATA.w_rspcode = '0'*256+'0';
 2406              		.loc 1 893 0
 2407 00a0 2B68     		ldr	r3, [r5]
 2408 00a2 03F55E53 		add	r3, r3, #14208
 2409 00a6 DB69     		ldr	r3, [r3, #28]
 2410 00a8 1A78     		ldrb	r2, [r3]	@ zero_extendqisi2
 2411 00aa 032A     		cmp	r2, #3
 2412 00ac 11D1     		bne	.L245
 2413 00ae 2078     		ldrb	r0, [r4]	@ zero_extendqisi2
 2414 00b0 2949     		ldr	r1, .L256+4
 2415 00b2 1628     		cmp	r0, #22
 2416 00b4 0DD1     		bne	.L245
 894:src/ctltrans.c ****     aNextState = CTL_COMPLETE;
 2417              		.loc 1 894 0
 2418 00b6 43F23002 		movw	r2, #12336
 2419 00ba A1F86E25 		strh	r2, [r1, #1390]	@ movhi
 2420              	.LVL288:
 896:src/ctltrans.c ****     bAction |= CLACT_ONLINE;
 2421              		.loc 1 896 0
 2422 00be 0022     		movs	r2, #0
 2423 00c0 81F80027 		strb	r2, [r1, #1792]
 897:src/ctltrans.c ****     CTLComplete();
 2424              		.loc 1 897 0
 2425 00c4 5A78     		ldrb	r2, [r3, #1]	@ zero_extendqisi2
 2426 00c6 42F01002 		orr	r2, r2, #16
 2427 00ca 5A70     		strb	r2, [r3, #1]
 898:src/ctltrans.c ****     return aNextState;
 2428              		.loc 1 898 0
 2429 00cc FFF7FEFF 		bl	CTLComplete
 2430              	.LVL289:
 2431 00d0 3DE0     		b	.L246
 2432              	.LVL290:
 2433              	.L245:
 901:src/ctltrans.c ****     Disp2x16Msg(GetConstMsg(EDC_RSP_CTL_REFER_MOBILE), MW_LINE3, MW_BIGFONT);
 2434              		.loc 1 901 0
 2435 00d2 B4F86E15 		ldrh	r1, [r4, #1390]
 2436 00d6 44F23333 		movw	r3, #17203
 2437 00da 9942     		cmp	r1, r3
 2438 00dc 09D1     		bne	.L247
 902:src/ctltrans.c ****   else {
 2439              		.loc 1 902 0
 2440 00de 6A20     		movs	r0, #106
 2441 00e0 FFF7FEFF 		bl	GetConstMsg
 2442              	.LVL291:
 2443 00e4 4FF44071 		mov	r1, #768
 2444 00e8 4FF48052 		mov	r2, #4096
 2445 00ec FFF7FEFF 		bl	Disp2x16Msg
 2446              	.LVL292:
 2447 00f0 21E0     		b	.L248
 2448              	.L247:
 904:src/ctltrans.c ****     DispLineMW(buf, MW_LINE5, MW_CLREOL|MW_CENTER|MW_BIGFONT);
 2449              		.loc 1 904 0
 2450 00f2 1A49     		ldr	r1, .L256+8
 2451 00f4 02A8     		add	r0, sp, #8
 2452 00f6 FFF7FEFF 		bl	sprintf
 2453              	.LVL293:
 2454              	.LBB56:
ARM GAS  C:\Users\AHMED~1.ELE\AppData\Local\Temp\ccu9CE5U.s 			page 67


 905:src/ctltrans.c ****   }
 2455              		.loc 1 905 0
 2456 00fa 02A8     		add	r0, sp, #8
 2457 00fc FFF7FEFF 		bl	strlen
 2458              	.LVL294:
 2459 0100 0646     		mov	r6, r0
 2460              	.LVL295:
 2461 0102 711C     		adds	r1, r6, #1
 2462 0104 9220     		movs	r0, #146
 2463              	.LVL296:
 2464 0106 FFF7FEFF 		bl	sys_func1
 2465              	.LVL297:
 2466 010a 0546     		mov	r5, r0
 2467 010c 98B1     		cbz	r0, .L248
 2468 010e 02A9     		add	r1, sp, #8
 2469 0110 3246     		mov	r2, r6
 2470 0112 FFF7FEFF 		bl	memcpy
 2471              	.LVL298:
 2472 0116 0023     		movs	r3, #0
 2473 0118 2521     		movs	r1, #37
 2474 011a AB55     		strb	r3, [r5, r6]
 2475 011c 41F22203 		movw	r3, #4130
 2476 0120 0F20     		movs	r0, #15
 2477 0122 0093     		str	r3, [sp]
 2478 0124 2A46     		mov	r2, r5
 2479 0126 4FF4A063 		mov	r3, #1280
 2480 012a FFF7FEFF 		bl	lib_app_call
 2481              	.LVL299:
 2482 012e 9420     		movs	r0, #148
 2483 0130 2946     		mov	r1, r5
 2484 0132 FFF7FEFF 		bl	sys_func1
 2485              	.LVL300:
 2486              	.L248:
 2487              	.LBE56:
 907:src/ctltrans.c ****   APM_WaitKey(200,0);
 2488              		.loc 1 907 0
 2489 0136 FFF7FEFF 		bl	LongBeep
 2490              	.LVL301:
 908:src/ctltrans.c **** 
 2491              		.loc 1 908 0
 2492 013a 0023     		movs	r3, #0
 2493 013c 1020     		movs	r0, #16
 2494 013e 0093     		str	r3, [sp]
 2495 0140 0321     		movs	r1, #3
 2496 0142 C822     		movs	r2, #200
 2497 0144 FFF7FEFF 		bl	lib_app_call
 2498              	.LVL302:
 911:src/ctltrans.c ****   return aNextState;
 2499              		.loc 1 911 0
 2500 0148 0123     		movs	r3, #1
 2501 014a 84F80037 		strb	r3, [r4, #1792]
 2502              	.L246:
 913:src/ctltrans.c **** //*****************************************************************************
 2503              		.loc 1 913 0
 2504 014e 0020     		movs	r0, #0
 2505 0150 12B0     		add	sp, sp, #72
 2506              		.cfi_def_cfa_offset 16
ARM GAS  C:\Users\AHMED~1.ELE\AppData\Local\Temp\ccu9CE5U.s 			page 68


 2507              		@ sp needed
 2508 0152 70BD     		pop	{r4, r5, r6, pc}
 2509              	.L257:
 2510              		.align	2
 2511              	.L256:
 2512 0154 00000000 		.word	gGDS
 2513 0158 00000000 		.word	gGTS
 2514 015c 54000000 		.word	.LC19
 2515              		.cfi_endproc
 2516              	.LFE34:
 2517              		.size	CTLError.isra.3, .-CTLError.isra.3
 2518              		.section	.text.CTLPreProcess,"ax",%progbits
 2519              		.align	1
 2520              		.global	CTLPreProcess
 2521              		.thumb
 2522              		.thumb_func
 2523              		.type	CTLPreProcess, %function
 2524              	CTLPreProcess:
 2525              	.LFB23:
 985:src/ctltrans.c **** //*****************************************************************************
 986:src/ctltrans.c **** //  Function        : CTLPreProcess
 987:src/ctltrans.c **** //  Description     : Pre-Processing for Contactless Txn.
 988:src/ctltrans.c **** //  Input           : trans;    // trans type
 989:src/ctltrans.c **** //  Return          : next action
 990:src/ctltrans.c **** //  Note            : N/A
 991:src/ctltrans.c **** //  Globals Changed :
 992:src/ctltrans.c **** //*****************************************************************************
 993:src/ctltrans.c **** BOOLEAN CTLPreProcess(DWORD aTrans)
 994:src/ctltrans.c **** {
 2526              		.loc 1 994 0
 2527              		.cfi_startproc
 2528              		@ args = 0, pretend = 0, frame = 16
 2529              		@ frame_needed = 0, uses_anonymous_args = 0
 2530              	.LVL303:
 2531 0000 70B5     		push	{r4, r5, r6, lr}
 2532              		.cfi_def_cfa_offset 16
 2533              		.cfi_offset 4, -16
 2534              		.cfi_offset 5, -12
 2535              		.cfi_offset 6, -8
 2536              		.cfi_offset 14, -4
 995:src/ctltrans.c ****   DWORD state;
 996:src/ctltrans.c ****   BYTE tmp[10];
 997:src/ctltrans.c **** 
 998:src/ctltrans.c ****   // init vars
 999:src/ctltrans.c ****   state = CLMSG_PROC_INIT;
1000:src/ctltrans.c ****   memset(gGDS->sb_IOBuf, 0, sizeof(gGDS->sb_IOBuf));
 2537              		.loc 1 1000 0
 2538 0002 354C     		ldr	r4, .L262
 994:src/ctltrans.c ****   DWORD state;
 2539              		.loc 1 994 0
 2540 0004 0646     		mov	r6, r0
 2541              		.loc 1 1000 0
 2542 0006 2568     		ldr	r5, [r4]
 994:src/ctltrans.c ****   DWORD state;
 2543              		.loc 1 994 0
 2544 0008 86B0     		sub	sp, sp, #24
 2545              		.cfi_def_cfa_offset 40
ARM GAS  C:\Users\AHMED~1.ELE\AppData\Local\Temp\ccu9CE5U.s 			page 69


 2546              		.loc 1 1000 0
 2547 000a 05F54650 		add	r0, r5, #12672
 2548              	.LVL304:
1001:src/ctltrans.c ****   gGDS->s_CTLOut.wLen = 0;
 2549              		.loc 1 1001 0
 2550 000e 05F55E55 		add	r5, r5, #14208
1000:src/ctltrans.c ****   gGDS->s_CTLOut.wLen = 0;
 2551              		.loc 1 1000 0
 2552 0012 0021     		movs	r1, #0
 2553 0014 40F2DC52 		movw	r2, #1500
 2554 0018 2430     		adds	r0, r0, #36
 2555 001a FFF7FEFF 		bl	memset
 2556              	.LVL305:
 2557              		.loc 1 1001 0
 2558 001e 0023     		movs	r3, #0
1002:src/ctltrans.c ****   memcpy(gGDS->s_CTLIn.pbMsg+1, "\x9F\x02\x06", 3);
 2559              		.loc 1 1002 0
 2560 0020 6869     		ldr	r0, [r5, #20]
1001:src/ctltrans.c ****   gGDS->s_CTLOut.wLen = 0;
 2561              		.loc 1 1001 0
 2562 0022 2B83     		strh	r3, [r5, #24]	@ movhi
 2563              		.loc 1 1002 0
 2564 0024 2D49     		ldr	r1, .L262+4
 2565 0026 0322     		movs	r2, #3
 2566 0028 0130     		adds	r0, r0, #1
 2567 002a FFF7FEFF 		bl	memcpy
 2568              	.LVL306:
1003:src/ctltrans.c ****   dbin2bcd(tmp, INPUT.dd_amount);
 2569              		.loc 1 1003 0
 2570 002e 2C4B     		ldr	r3, .L262+8
 2571 0030 03A8     		add	r0, sp, #12
 2572 0032 D3E90623 		ldrd	r2, [r3, #24]
 2573 0036 FFF7FEFF 		bl	dbin2bcd
 2574              	.LVL307:
1004:src/ctltrans.c ****   memcpy(gGDS->s_CTLIn.pbMsg+4, &tmp[4], 6);
 2575              		.loc 1 1004 0
 2576 003a 2568     		ldr	r5, [r4]
 2577 003c 04A9     		add	r1, sp, #16
 2578 003e 05F55E55 		add	r5, r5, #14208
 2579 0042 0622     		movs	r2, #6
 2580 0044 6869     		ldr	r0, [r5, #20]
 2581 0046 0430     		adds	r0, r0, #4
 2582 0048 FFF7FEFF 		bl	memcpy
 2583              	.LVL308:
1005:src/ctltrans.c ****   gGDS->s_CTLIn.wLen = 10;
 2584              		.loc 1 1005 0
 2585 004c 0A23     		movs	r3, #10
1006:src/ctltrans.c **** #ifdef ENABLE_LOG2COM1  // card log from COM1
1007:src/ctltrans.c ****   memcpy(&gGDS->s_CTLIn.pbMsg[gGDS->s_CTLIn.wLen], "\xDF\xF2\x01\x01\xDF\xF3\x01\x01", 8);
1008:src/ctltrans.c ****   gGDS->s_CTLIn.wLen += 8;
1009:src/ctltrans.c **** #endif //ENABLE_LOG2COM1
1010:src/ctltrans.c ****   if (aTrans == REFUND_CTL) {
 2586              		.loc 1 1010 0
 2587 004e 162E     		cmp	r6, #22
1005:src/ctltrans.c ****   gGDS->s_CTLIn.wLen = 10;
 2588              		.loc 1 1005 0
 2589 0050 2B82     		strh	r3, [r5, #16]	@ movhi
ARM GAS  C:\Users\AHMED~1.ELE\AppData\Local\Temp\ccu9CE5U.s 			page 70


 2590              		.loc 1 1010 0
 2591 0052 22D1     		bne	.L259
1011:src/ctltrans.c ****     // setting refund txn type
1012:src/ctltrans.c ****     memcpy(&gGDS->s_CTLIn.pbMsg[gGDS->s_CTLIn.wLen], "\x9C\x01\x20", 3);
 2592              		.loc 1 1012 0
 2593 0054 6869     		ldr	r0, [r5, #20]
 2594 0056 2349     		ldr	r1, .L262+12
 2595 0058 1844     		add	r0, r0, r3
 2596 005a 0322     		movs	r2, #3
 2597 005c FFF7FEFF 		bl	memcpy
 2598              	.LVL309:
1013:src/ctltrans.c ****     gGDS->s_CTLIn.wLen += 3;
 2599              		.loc 1 1013 0
 2600 0060 2B8A     		ldrh	r3, [r5, #16]
1014:src/ctltrans.c ****     // MTIP TC025 (Paypass Refund)
1015:src/ctltrans.c ****     // setting reader contactless floor limit for Mastercard
1016:src/ctltrans.c ****     memcpy(&gGDS->s_CTLIn.pbMsg[gGDS->s_CTLIn.wLen], "\x1F\xA3\x06\x00\x00\x00\x00\x00\x00", 9);
 2601              		.loc 1 1016 0
 2602 0062 6869     		ldr	r0, [r5, #20]
1013:src/ctltrans.c ****     gGDS->s_CTLIn.wLen += 3;
 2603              		.loc 1 1013 0
 2604 0064 0333     		adds	r3, r3, #3
 2605              		.loc 1 1016 0
 2606 0066 2049     		ldr	r1, .L262+16
1013:src/ctltrans.c ****     gGDS->s_CTLIn.wLen += 3;
 2607              		.loc 1 1013 0
 2608 0068 9BB2     		uxth	r3, r3
 2609              		.loc 1 1016 0
 2610 006a 1844     		add	r0, r0, r3
1013:src/ctltrans.c ****     gGDS->s_CTLIn.wLen += 3;
 2611              		.loc 1 1013 0
 2612 006c 2B82     		strh	r3, [r5, #16]	@ movhi
 2613              		.loc 1 1016 0
 2614 006e 0922     		movs	r2, #9
 2615 0070 FFF7FEFF 		bl	memcpy
 2616              	.LVL310:
1017:src/ctltrans.c ****     gGDS->s_CTLIn.wLen += 9;
 2617              		.loc 1 1017 0
 2618 0074 2268     		ldr	r2, [r4]
1018:src/ctltrans.c ****     // setting TAC - Denial for Mastercard
1019:src/ctltrans.c ****     memcpy(&gGDS->s_CTLIn.pbMsg[gGDS->s_CTLIn.wLen], "\x1F\xA1\x05\xFF\xFF\xFF\xFF\xFF", 8);
 2619              		.loc 1 1019 0
 2620 0076 1D49     		ldr	r1, .L262+20
1017:src/ctltrans.c ****     gGDS->s_CTLIn.wLen += 9;
 2621              		.loc 1 1017 0
 2622 0078 02F55E52 		add	r2, r2, #14208
 2623 007c 138A     		ldrh	r3, [r2, #16]
 2624              		.loc 1 1019 0
 2625 007e 5069     		ldr	r0, [r2, #20]
1017:src/ctltrans.c ****     gGDS->s_CTLIn.wLen += 9;
 2626              		.loc 1 1017 0
 2627 0080 0933     		adds	r3, r3, #9
 2628 0082 9BB2     		uxth	r3, r3
 2629              		.loc 1 1019 0
 2630 0084 1844     		add	r0, r0, r3
1017:src/ctltrans.c ****     gGDS->s_CTLIn.wLen += 9;
 2631              		.loc 1 1017 0
ARM GAS  C:\Users\AHMED~1.ELE\AppData\Local\Temp\ccu9CE5U.s 			page 71


 2632 0086 1382     		strh	r3, [r2, #16]	@ movhi
 2633              		.loc 1 1019 0
 2634 0088 0822     		movs	r2, #8
 2635 008a FFF7FEFF 		bl	memcpy
 2636              	.LVL311:
1020:src/ctltrans.c ****     gGDS->s_CTLIn.wLen += 8;
 2637              		.loc 1 1020 0
 2638 008e 2368     		ldr	r3, [r4]
 2639 0090 03F55E53 		add	r3, r3, #14208
 2640 0094 1A8A     		ldrh	r2, [r3, #16]
 2641 0096 0832     		adds	r2, r2, #8
 2642 0098 1A82     		strh	r2, [r3, #16]	@ movhi
 2643              	.L259:
1021:src/ctltrans.c ****   }
1022:src/ctltrans.c ****   gGDS->s_CTLIn.pbMsg[0] = 0;
 2644              		.loc 1 1022 0
 2645 009a 2368     		ldr	r3, [r4]
 2646 009c 0022     		movs	r2, #0
 2647 009e 03F55E53 		add	r3, r3, #14208
1023:src/ctltrans.c ****   if (emvclMsg(state, &gGDS->s_CTLIn, &gGDS->s_CTLOut) == FALSE) {
 2648              		.loc 1 1023 0
 2649 00a2 6420     		movs	r0, #100
1022:src/ctltrans.c ****   if (emvclMsg(state, &gGDS->s_CTLIn, &gGDS->s_CTLOut) == FALSE) {
 2650              		.loc 1 1022 0
 2651 00a4 5B69     		ldr	r3, [r3, #20]
 2652 00a6 1A70     		strb	r2, [r3]
 2653              		.loc 1 1023 0
 2654 00a8 2368     		ldr	r3, [r4]
 2655 00aa 03F55E53 		add	r3, r3, #14208
 2656 00ae 03F11801 		add	r1, r3, #24
 2657 00b2 1033     		adds	r3, r3, #16
 2658 00b4 0091     		str	r1, [sp]
 2659 00b6 0121     		movs	r1, #1
 2660 00b8 FFF7FEFF 		bl	lib_app_call
 2661              	.LVL312:
 2662 00bc C4B2     		uxtb	r4, r0
 2663 00be 14B9     		cbnz	r4, .L260
1024:src/ctltrans.c ****     CTLError(state);
 2664              		.loc 1 1024 0
 2665 00c0 FFF7FEFF 		bl	CTLError.isra.3
 2666              	.LVL313:
1025:src/ctltrans.c ****     return FALSE;
 2667              		.loc 1 1025 0
 2668 00c4 05E0     		b	.L261
 2669              	.L260:
1026:src/ctltrans.c ****   }
1027:src/ctltrans.c ****   os_disp_backc(RGB_WHITE); //25-10-12 JC ++  // set white colour when reader active
 2670              		.loc 1 1027 0
 2671 00c6 2020     		movs	r0, #32
 2672 00c8 4FF6FF71 		movw	r1, #65535
 2673 00cc FFF7FEFF 		bl	sys_func1
 2674              	.LVL314:
1028:src/ctltrans.c ****   return TRUE;
 2675              		.loc 1 1028 0
 2676 00d0 0124     		movs	r4, #1
 2677              	.L261:
1029:src/ctltrans.c **** }
ARM GAS  C:\Users\AHMED~1.ELE\AppData\Local\Temp\ccu9CE5U.s 			page 72


 2678              		.loc 1 1029 0
 2679 00d2 2046     		mov	r0, r4
 2680 00d4 06B0     		add	sp, sp, #24
 2681              		.cfi_def_cfa_offset 16
 2682              		@ sp needed
 2683 00d6 70BD     		pop	{r4, r5, r6, pc}
 2684              	.LVL315:
 2685              	.L263:
 2686              		.align	2
 2687              	.L262:
 2688 00d8 00000000 		.word	gGDS
 2689 00dc 61000000 		.word	.LC20
 2690 00e0 00000000 		.word	gGTS
 2691 00e4 65000000 		.word	.LC21
 2692 00e8 66000000 		.word	.LANCHOR1+102
 2693 00ec 69000000 		.word	.LC23
 2694              		.cfi_endproc
 2695              	.LFE23:
 2696              		.size	CTLPreProcess, .-CTLPreProcess
 2697              		.section	.text.CTLWaitCard,"ax",%progbits
 2698              		.align	1
 2699              		.global	CTLWaitCard
 2700              		.thumb
 2701              		.thumb_func
 2702              		.type	CTLWaitCard, %function
 2703              	CTLWaitCard:
 2704              	.LFB24:
1030:src/ctltrans.c **** //*****************************************************************************
1031:src/ctltrans.c **** //  Function        : CTLWaitCard
1032:src/ctltrans.c **** //  Description     : Activate reader and wait for card.
1033:src/ctltrans.c **** //  Input           : N/A
1034:src/ctltrans.c **** //  Return          : next action
1035:src/ctltrans.c **** //  Note            : N/A
1036:src/ctltrans.c **** //  Globals Changed :
1037:src/ctltrans.c **** //*****************************************************************************
1038:src/ctltrans.c **** BOOLEAN CTLWaitCard(void)
1039:src/ctltrans.c **** {
 2705              		.loc 1 1039 0
 2706              		.cfi_startproc
 2707              		@ args = 0, pretend = 0, frame = 16
 2708              		@ frame_needed = 0, uses_anonymous_args = 0
 2709 0000 1FB5     		push	{r0, r1, r2, r3, r4, lr}
 2710              		.cfi_def_cfa_offset 24
 2711              		.cfi_offset 14, -4
1040:src/ctltrans.c ****   #define TX_TIMEOUT    500         // 5 secs
1041:src/ctltrans.c ****   int iClRet;
1042:src/ctltrans.c ****   BYTE bRetry, abLvClParam[16];
1043:src/ctltrans.c **** 
1044:src/ctltrans.c ****   // init
1045:src/ctltrans.c ****   //Param = [Len(1)] | [PollTime(2)] | [Timeout(2)] | [WtxTimeout(2)] | ..
1046:src/ctltrans.c ****   memset(abLvClParam, 0x00, sizeof(abLvClParam));
 2712              		.loc 1 1046 0
 2713 0002 1022     		movs	r2, #16
 2714 0004 6846     		mov	r0, sp
 2715 0006 0021     		movs	r1, #0
 2716 0008 FFF7FEFF 		bl	memset
 2717              	.LVL316:
ARM GAS  C:\Users\AHMED~1.ELE\AppData\Local\Temp\ccu9CE5U.s 			page 73


1047:src/ctltrans.c ****   abLvClParam[0] = 6;
 2718              		.loc 1 1047 0
 2719 000c 0623     		movs	r3, #6
1048:src/ctltrans.c ****   //PollTime will be set by CL_WaitCard()!
1049:src/ctltrans.c ****   WPut(abLvClParam+3, TX_TIMEOUT);  //Timeout(2)
 2720              		.loc 1 1049 0
 2721 000e 0DF10300 		add	r0, sp, #3
 2722 0012 4FF4FA71 		mov	r1, #500
1047:src/ctltrans.c ****   abLvClParam[0] = 6;
 2723              		.loc 1 1047 0
 2724 0016 8DF80030 		strb	r3, [sp]
 2725              		.loc 1 1049 0
 2726 001a FFF7FEFF 		bl	WPut
 2727              	.LVL317:
1050:src/ctltrans.c ****   WPut(abLvClParam+5, TX_TIMEOUT);  //WtxTimeout is min 5 sec
 2728              		.loc 1 1050 0
 2729 001e 0DF10500 		add	r0, sp, #5
 2730 0022 4FF4FA71 		mov	r1, #500
 2731 0026 FFF7FEFF 		bl	WPut
 2732              	.LVL318:
1051:src/ctltrans.c ****   //memcpy(abLvClParam, "\x06\x00\x00\x05\xDC\x01\xF4", 7);   // Pody
1052:src/ctltrans.c ****   
1053:src/ctltrans.c ****   // wait card tag
1054:src/ctltrans.c ****   bRetry = 0;
1055:src/ctltrans.c ****   // tag card
1056:src/ctltrans.c ****   iClRet = CL_WaitCard(0, abLvClParam);
 2733              		.loc 1 1056 0
 2734 002a 6946     		mov	r1, sp
 2735 002c 0020     		movs	r0, #0
 2736 002e FFF7FEFF 		bl	CL_WaitCard
 2737              	.LVL319:
1057:src/ctltrans.c ****   //iClRet = CL_WaitCard(0, NULL);
1058:src/ctltrans.c ****   if (iClRet == CL_OK) { // card tagged
1059:src/ctltrans.c ****     return TRUE;
1060:src/ctltrans.c ****   }
1061:src/ctltrans.c ****   else if (iClRet == CL_MORE_CARDS) {
1062:src/ctltrans.c ****     if (bRetry++ >= 10) {
1063:src/ctltrans.c ****       DispLineMW("Too Many Cards!", MW_LINE5, MW_CLREOL|MW_CENTER|MW_BIGFONT);
1064:src/ctltrans.c ****       APM_WaitKey(9000,0);
1065:src/ctltrans.c ****       return FALSE;
1066:src/ctltrans.c ****     }
1067:src/ctltrans.c ****   } 
1068:src/ctltrans.c ****   else if (iClRet != CL_TIMEOUT) {
1069:src/ctltrans.c ****     if (bRetry++ >= 10) {
1070:src/ctltrans.c ****       return FALSE;
1071:src/ctltrans.c ****     }
1072:src/ctltrans.c ****   } 
1073:src/ctltrans.c ****     
1074:src/ctltrans.c ****   return FALSE;
1075:src/ctltrans.c **** }
 2738              		.loc 1 1075 0
 2739 0032 B0FA80F0 		clz	r0, r0
 2740              	.LVL320:
 2741 0036 4009     		lsrs	r0, r0, #5
 2742 0038 05B0     		add	sp, sp, #20
 2743              		.cfi_def_cfa_offset 4
 2744              		@ sp needed
ARM GAS  C:\Users\AHMED~1.ELE\AppData\Local\Temp\ccu9CE5U.s 			page 74


 2745 003a 5DF804FB 		ldr	pc, [sp], #4
 2746              		.cfi_endproc
 2747              	.LFE24:
 2748              		.size	CTLWaitCard, .-CTLWaitCard
 2749              		.section	.text.debugEMV,"ax",%progbits
 2750              		.align	1
 2751              		.global	debugEMV
 2752              		.thumb
 2753              		.thumb_func
 2754              		.type	debugEMV, %function
 2755              	debugEMV:
 2756              	.LFB25:
1076:src/ctltrans.c **** /******************************************************************************
1077:src/ctltrans.c ****  *  Function        : debugEMV
1078:src/ctltrans.c ****  *  Description     : EMV Processing state machine.
1079:src/ctltrans.c ****  *  Input           : N/A
1080:src/ctltrans.c ****  *  Return          : next action
1081:src/ctltrans.c ****  *  Note            : N/A
1082:src/ctltrans.c ****  *  Globals Changed : gds.emvdll, input;
1083:src/ctltrans.c ****  ******************************************************************************
1084:src/ctltrans.c ****  */
1085:src/ctltrans.c **** void debugEMV(BYTE aState, BYTE aIn, CL_IO *pEMV)
1086:src/ctltrans.c **** {
 2757              		.loc 1 1086 0
 2758              		.cfi_startproc
 2759              		@ args = 0, pretend = 0, frame = 32
 2760              		@ frame_needed = 0, uses_anonymous_args = 0
 2761              	.LVL321:
 2762 0000 F0B5     		push	{r4, r5, r6, r7, lr}
 2763              		.cfi_def_cfa_offset 20
 2764              		.cfi_offset 4, -20
 2765              		.cfi_offset 5, -16
 2766              		.cfi_offset 6, -12
 2767              		.cfi_offset 7, -8
 2768              		.cfi_offset 14, -4
 2769 0002 1746     		mov	r7, r2
 2770 0004 8BB0     		sub	sp, sp, #44
 2771              		.cfi_def_cfa_offset 64
1087:src/ctltrans.c ****   BYTE buf[30];
1088:src/ctltrans.c ****   WORD i;
1089:src/ctltrans.c ****   
1090:src/ctltrans.c **** #if 0
1091:src/ctltrans.c ****   // Print out TLV
1092:src/ctltrans.c ****   LptOpen(NULL);
1093:src/ctltrans.c ****   LptPutS("\x1B""F1\n");
1094:src/ctltrans.c ****   sprintf(buf, "dllMsg(%d)-%s\n", aState, aIn? "In": "Out");
1095:src/ctltrans.c ****   LptPutS(buf);
1096:src/ctltrans.c ****   for (i=1; i<=pEMV->wLen; i++) {
1097:src/ctltrans.c ****     sprintf(buf, "%02X ", (BYTE)pEMV->pbMsg[i-1]);
1098:src/ctltrans.c ****     LptPutN(buf, 3);
1099:src/ctltrans.c ****   }
1100:src/ctltrans.c ****   LptPutS("\n");
1101:src/ctltrans.c **** #else
1102:src/ctltrans.c ****   // Display TLV
1103:src/ctltrans.c ****   for (i=1; i<=pEMV->wLen; i++) {
 2772              		.loc 1 1103 0
 2773 0006 0124     		movs	r4, #1
ARM GAS  C:\Users\AHMED~1.ELE\AppData\Local\Temp\ccu9CE5U.s 			page 75


 2774              	.LVL322:
 2775              	.L266:
 2776              		.loc 1 1103 0 is_stmt 0 discriminator 1
 2777 0008 3B88     		ldrh	r3, [r7]
 2778 000a A342     		cmp	r3, r4
 2779 000c 3BD3     		bcc	.L276
1104:src/ctltrans.c ****     if ((i%64) == 1)
 2780              		.loc 1 1104 0 is_stmt 1
 2781 000e 04F03F05 		and	r5, r4, #63
 2782 0012 012D     		cmp	r5, #1
 2783 0014 19D1     		bne	.L268
 2784              	.LVL323:
 2785              	.LBB57:
1105:src/ctltrans.c ****       DispLineMW("TLV-Out:\n", MW_LINE1, MW_CLRDISP|MW_SPFONT);
 2786              		.loc 1 1105 0
 2787 0016 9220     		movs	r0, #146
 2788 0018 0A21     		movs	r1, #10
 2789 001a FFF7FEFF 		bl	sys_func1
 2790              	.LVL324:
 2791 001e 0646     		mov	r6, r0
 2792 0020 98B1     		cbz	r0, .L268
 2793              		.loc 1 1105 0 is_stmt 0 discriminator 1
 2794 0022 1F49     		ldr	r1, .L277
 2795 0024 0922     		movs	r2, #9
 2796 0026 FFF7FEFF 		bl	memcpy
 2797              	.LVL325:
 2798 002a 0023     		movs	r3, #0
 2799 002c 2521     		movs	r1, #37
 2800 002e 7372     		strb	r3, [r6, #9]
 2801 0030 4FF40253 		mov	r3, #8320
 2802 0034 0F20     		movs	r0, #15
 2803 0036 0093     		str	r3, [sp]
 2804 0038 3246     		mov	r2, r6
 2805 003a 4FF48073 		mov	r3, #256
 2806 003e FFF7FEFF 		bl	lib_app_call
 2807              	.LVL326:
 2808 0042 9420     		movs	r0, #148
 2809 0044 3146     		mov	r1, r6
 2810 0046 FFF7FEFF 		bl	sys_func1
 2811              	.LVL327:
 2812              	.L268:
 2813              	.LBE57:
1106:src/ctltrans.c ****     SprintfMW(buf, "%02X ", (BYTE)pEMV->pbMsg[i-1]);
 2814              		.loc 1 1106 0 is_stmt 1
 2815 004a 7B68     		ldr	r3, [r7, #4]
 2816 004c 1549     		ldr	r1, .L277+4
 2817 004e 2344     		add	r3, r3, r4
 2818 0050 02A8     		add	r0, sp, #8
 2819 0052 13F8012C 		ldrb	r2, [r3, #-1]	@ zero_extendqisi2
 2820 0056 FFF7FEFF 		bl	sprintf
 2821              	.LVL328:
1107:src/ctltrans.c ****     DispPutNCMW(buf, 3);
 2822              		.loc 1 1107 0
 2823 005a 1820     		movs	r0, #24
 2824 005c 02A9     		add	r1, sp, #8
 2825 005e 0322     		movs	r2, #3
 2826 0060 FFF7FEFF 		bl	sys_func2
ARM GAS  C:\Users\AHMED~1.ELE\AppData\Local\Temp\ccu9CE5U.s 			page 76


 2827              	.LVL329:
1108:src/ctltrans.c ****     if ((i%8) == 0) PrintfMW("\n");
 2828              		.loc 1 1108 0
 2829 0064 6307     		lsls	r3, r4, #29
 2830 0066 02D1     		bne	.L270
 2831              		.loc 1 1108 0 is_stmt 0 discriminator 1
 2832 0068 0A20     		movs	r0, #10
 2833 006a FFF7FEFF 		bl	putchar
 2834              	.LVL330:
 2835              	.L270:
1109:src/ctltrans.c ****     if ((i%64) == 0)
 2836              		.loc 1 1109 0 is_stmt 1
 2837 006e 3DB9     		cbnz	r5, .L271
1110:src/ctltrans.c ****       APM_WaitKey((DWORD)-1,0);
 2838              		.loc 1 1110 0
 2839 0070 0095     		str	r5, [sp]
 2840 0072 1020     		movs	r0, #16
 2841 0074 0321     		movs	r1, #3
 2842 0076 4FF0FF32 		mov	r2, #-1
 2843 007a 2B46     		mov	r3, r5
 2844 007c FFF7FEFF 		bl	lib_app_call
 2845              	.LVL331:
 2846              	.L271:
1103:src/ctltrans.c ****     if ((i%64) == 1)
 2847              		.loc 1 1103 0 discriminator 2
 2848 0080 0134     		adds	r4, r4, #1
 2849              	.LVL332:
 2850 0082 A4B2     		uxth	r4, r4
 2851              	.LVL333:
 2852 0084 C0E7     		b	.L266
 2853              	.L276:
1111:src/ctltrans.c ****   }
1112:src/ctltrans.c ****   PrintfMW("\n[End]\x05");
 2854              		.loc 1 1112 0
 2855 0086 0848     		ldr	r0, .L277+8
 2856 0088 FFF7FEFF 		bl	printf
 2857              	.LVL334:
1113:src/ctltrans.c ****   APM_WaitKey((DWORD)-1,0);
 2858              		.loc 1 1113 0
 2859 008c 0023     		movs	r3, #0
 2860 008e 0321     		movs	r1, #3
 2861 0090 0093     		str	r3, [sp]
 2862 0092 4FF0FF32 		mov	r2, #-1
 2863 0096 1020     		movs	r0, #16
 2864 0098 FFF7FEFF 		bl	lib_app_call
 2865              	.LVL335:
1114:src/ctltrans.c **** #endif
1115:src/ctltrans.c **** }
 2866              		.loc 1 1115 0
 2867 009c 0BB0     		add	sp, sp, #44
 2868              		.cfi_def_cfa_offset 20
 2869              		@ sp needed
 2870 009e F0BD     		pop	{r4, r5, r6, r7, pc}
 2871              	.LVL336:
 2872              	.L278:
 2873              		.align	2
 2874              	.L277:
ARM GAS  C:\Users\AHMED~1.ELE\AppData\Local\Temp\ccu9CE5U.s 			page 77


 2875 00a0 72000000 		.word	.LC24
 2876 00a4 7C000000 		.word	.LC25
 2877 00a8 82000000 		.word	.LC26
 2878              		.cfi_endproc
 2879              	.LFE25:
 2880              		.size	debugEMV, .-debugEMV
 2881              		.section	.text.CTLDebug,"ax",%progbits
 2882              		.align	1
 2883              		.global	CTLDebug
 2884              		.thumb
 2885              		.thumb_func
 2886              		.type	CTLDebug, %function
 2887              	CTLDebug:
 2888              	.LFB26:
1116:src/ctltrans.c **** //*****************************************************************************
1117:src/ctltrans.c **** //  Function        : CTLDebug
1118:src/ctltrans.c **** //  Description     : Debug contactless txn data
1119:src/ctltrans.c **** //  Input           : N/A
1120:src/ctltrans.c **** //  Return          : N/A
1121:src/ctltrans.c **** //  Note            : N/A
1122:src/ctltrans.c **** //  Globals Changed :
1123:src/ctltrans.c **** //*****************************************************************************
1124:src/ctltrans.c **** void CTLDebug(void)
1125:src/ctltrans.c **** {
 2889              		.loc 1 1125 0
 2890              		.cfi_startproc
 2891              		@ args = 0, pretend = 0, frame = 128
 2892              		@ frame_needed = 0, uses_anonymous_args = 0
1126:src/ctltrans.c ****   #define PWAVE_DEBUG   1
1127:src/ctltrans.c ****   
1128:src/ctltrans.c ****   BYTE buf[128];
1129:src/ctltrans.c ****   TLIST *psLp;
1130:src/ctltrans.c ****   
1131:src/ctltrans.c ****   if (INPUT.dd_amount != 123)   // only debug when amount is $1.23
 2893              		.loc 1 1131 0
 2894 0000 BE4B     		ldr	r3, .L361
1125:src/ctltrans.c ****   #define PWAVE_DEBUG   1
 2895              		.loc 1 1125 0
 2896 0002 30B5     		push	{r4, r5, lr}
 2897              		.cfi_def_cfa_offset 12
 2898              		.cfi_offset 4, -12
 2899              		.cfi_offset 5, -8
 2900              		.cfi_offset 14, -4
 2901 0004 A3B0     		sub	sp, sp, #140
 2902              		.cfi_def_cfa_offset 152
 2903              		.loc 1 1131 0
 2904 0006 D3E90623 		ldrd	r2, [r3, #24]
 2905 000a 002B     		cmp	r3, #0
 2906 000c 08BF     		it	eq
 2907 000e 7B2A     		cmpeq	r2, #123
 2908 0010 40F00F82 		bne	.L279
 2909              	.LBB70:
 2910              	.LBB71:
1132:src/ctltrans.c ****     return;
1133:src/ctltrans.c ****   
1134:src/ctltrans.c ****   SprintfMW(buf, "bAction=%02x", bAction);
 2911              		.loc 1 1134 0
ARM GAS  C:\Users\AHMED~1.ELE\AppData\Local\Temp\ccu9CE5U.s 			page 78


 2912 0014 BA4B     		ldr	r3, .L361+4
 2913 0016 BB49     		ldr	r1, .L361+8
 2914 0018 1B68     		ldr	r3, [r3]
 2915 001a 02A8     		add	r0, sp, #8
 2916 001c 03F55E53 		add	r3, r3, #14208
 2917 0020 DB69     		ldr	r3, [r3, #28]
 2918 0022 5A78     		ldrb	r2, [r3, #1]	@ zero_extendqisi2
 2919 0024 FFF7FEFF 		bl	sprintf
 2920              	.LVL337:
 2921              	.LBB72:
1135:src/ctltrans.c ****   DispLineMW(buf, MW_LINE1, MW_CLRDISP|MW_SPFONT);
 2922              		.loc 1 1135 0
 2923 0028 02A8     		add	r0, sp, #8
 2924 002a FFF7FEFF 		bl	strlen
 2925              	.LVL338:
 2926 002e 0546     		mov	r5, r0
 2927              	.LVL339:
 2928 0030 691C     		adds	r1, r5, #1
 2929 0032 9220     		movs	r0, #146
 2930              	.LVL340:
 2931 0034 FFF7FEFF 		bl	sys_func1
 2932              	.LVL341:
 2933 0038 0446     		mov	r4, r0
 2934 003a 98B1     		cbz	r0, .L281
 2935 003c 02A9     		add	r1, sp, #8
 2936 003e 2A46     		mov	r2, r5
 2937 0040 FFF7FEFF 		bl	memcpy
 2938              	.LVL342:
 2939 0044 0023     		movs	r3, #0
 2940 0046 2521     		movs	r1, #37
 2941 0048 6355     		strb	r3, [r4, r5]
 2942 004a 4FF40253 		mov	r3, #8320
 2943 004e 0F20     		movs	r0, #15
 2944 0050 0093     		str	r3, [sp]
 2945 0052 2246     		mov	r2, r4
 2946 0054 4FF48073 		mov	r3, #256
 2947 0058 FFF7FEFF 		bl	lib_app_call
 2948              	.LVL343:
 2949 005c 9420     		movs	r0, #148
 2950 005e 2146     		mov	r1, r4
 2951 0060 FFF7FEFF 		bl	sys_func1
 2952              	.LVL344:
 2953              	.L281:
 2954              	.LBE72:
1136:src/ctltrans.c ****   memset(buf, 0, sizeof(buf));
 2955              		.loc 1 1136 0
 2956 0064 0021     		movs	r1, #0
 2957 0066 8022     		movs	r2, #128
 2958 0068 02A8     		add	r0, sp, #8
 2959 006a FFF7FEFF 		bl	memset
 2960              	.LVL345:
1137:src/ctltrans.c ****   memcpy(buf, "TVR=", 4);
 2961              		.loc 1 1137 0
 2962 006e A64B     		ldr	r3, .L361+12
1138:src/ctltrans.c ****   if ((psLp = CTLTagSeek(0x95)) != NULL)
 2963              		.loc 1 1138 0
 2964 0070 9520     		movs	r0, #149
ARM GAS  C:\Users\AHMED~1.ELE\AppData\Local\Temp\ccu9CE5U.s 			page 79


1137:src/ctltrans.c ****   memcpy(buf, "TVR=", 4);
 2965              		.loc 1 1137 0
 2966 0072 0293     		str	r3, [sp, #8]
 2967              		.loc 1 1138 0
 2968 0074 FFF7FEFF 		bl	CTLTagSeek
 2969              	.LVL346:
 2970 0078 0346     		mov	r3, r0
 2971 007a 20B1     		cbz	r0, .L282
1139:src/ctltrans.c ****     split(buf+4, psLp->pbLoc, psLp->sLen); 
 2972              		.loc 1 1139 0
 2973 007c 03A8     		add	r0, sp, #12
 2974              	.LVL347:
 2975 007e 5968     		ldr	r1, [r3, #4]
 2976 0080 9A78     		ldrb	r2, [r3, #2]	@ zero_extendqisi2
 2977 0082 FFF7FEFF 		bl	split
 2978              	.LVL348:
 2979              	.L282:
1140:src/ctltrans.c ****   // Tag CLT_VT95 only appear when DDA failed
1141:src/ctltrans.c ****   if ((psLp = CTLTagSeek(0xDFC3)) != NULL) {     // TVR for Paywave
 2980              		.loc 1 1141 0
 2981 0086 4DF6C370 		movw	r0, #57283
 2982 008a FFF7FEFF 		bl	CTLTagSeek
 2983              	.LVL349:
 2984 008e 0346     		mov	r3, r0
 2985 0090 40B1     		cbz	r0, .L283
1142:src/ctltrans.c ****     buf[14] = '/';
 2986              		.loc 1 1142 0
 2987 0092 2F22     		movs	r2, #47
1143:src/ctltrans.c ****     split(buf+15, psLp->pbLoc, psLp->sLen); 
 2988              		.loc 1 1143 0
 2989 0094 0DF11700 		add	r0, sp, #23
 2990              	.LVL350:
1142:src/ctltrans.c ****     buf[14] = '/';
 2991              		.loc 1 1142 0
 2992 0098 8DF81620 		strb	r2, [sp, #22]
 2993              		.loc 1 1143 0
 2994 009c 5968     		ldr	r1, [r3, #4]
 2995 009e 9A78     		ldrb	r2, [r3, #2]	@ zero_extendqisi2
 2996 00a0 FFF7FEFF 		bl	split
 2997              	.LVL351:
 2998              	.L283:
 2999              	.LBB73:
1144:src/ctltrans.c ****   }
1145:src/ctltrans.c ****   DispLineMW(buf, MW_LINE2, MW_SPFONT);
 3000              		.loc 1 1145 0
 3001 00a4 02A8     		add	r0, sp, #8
 3002 00a6 FFF7FEFF 		bl	strlen
 3003              	.LVL352:
 3004 00aa 0546     		mov	r5, r0
 3005              	.LVL353:
 3006 00ac 691C     		adds	r1, r5, #1
 3007 00ae 9220     		movs	r0, #146
 3008              	.LVL354:
 3009 00b0 FFF7FEFF 		bl	sys_func1
 3010              	.LVL355:
 3011 00b4 0446     		mov	r4, r0
 3012              	.LVL356:
ARM GAS  C:\Users\AHMED~1.ELE\AppData\Local\Temp\ccu9CE5U.s 			page 80


 3013 00b6 98B1     		cbz	r0, .L284
 3014 00b8 02A9     		add	r1, sp, #8
 3015 00ba 2A46     		mov	r2, r5
 3016 00bc FFF7FEFF 		bl	memcpy
 3017              	.LVL357:
 3018 00c0 0023     		movs	r3, #0
 3019 00c2 2521     		movs	r1, #37
 3020 00c4 6355     		strb	r3, [r4, r5]
 3021 00c6 4FF40053 		mov	r3, #8192
 3022 00ca 0F20     		movs	r0, #15
 3023 00cc 0093     		str	r3, [sp]
 3024 00ce 2246     		mov	r2, r4
 3025 00d0 4FF40073 		mov	r3, #512
 3026 00d4 FFF7FEFF 		bl	lib_app_call
 3027              	.LVL358:
 3028 00d8 9420     		movs	r0, #148
 3029 00da 2146     		mov	r1, r4
 3030 00dc FFF7FEFF 		bl	sys_func1
 3031              	.LVL359:
 3032              	.L284:
 3033              	.LBE73:
1146:src/ctltrans.c ****   memset(buf, 0, sizeof(buf));
 3034              		.loc 1 1146 0
 3035 00e0 0021     		movs	r1, #0
 3036 00e2 8022     		movs	r2, #128
 3037 00e4 02A8     		add	r0, sp, #8
 3038 00e6 FFF7FEFF 		bl	memset
 3039              	.LVL360:
1147:src/ctltrans.c ****   memcpy(buf, "CID=", 4);
 3040              		.loc 1 1147 0
 3041 00ea 884B     		ldr	r3, .L361+16
1148:src/ctltrans.c ****   if ((psLp = CTLTagSeek(0x9F27)) != NULL)
 3042              		.loc 1 1148 0
 3043 00ec 49F62770 		movw	r0, #40743
1147:src/ctltrans.c ****   memcpy(buf, "CID=", 4);
 3044              		.loc 1 1147 0
 3045 00f0 0293     		str	r3, [sp, #8]
 3046              		.loc 1 1148 0
 3047 00f2 FFF7FEFF 		bl	CTLTagSeek
 3048              	.LVL361:
 3049 00f6 0346     		mov	r3, r0
 3050 00f8 20B1     		cbz	r0, .L285
1149:src/ctltrans.c ****     split(buf+4, psLp->pbLoc, psLp->sLen); 
 3051              		.loc 1 1149 0
 3052 00fa 03A8     		add	r0, sp, #12
 3053              	.LVL362:
 3054 00fc 5968     		ldr	r1, [r3, #4]
 3055 00fe 9A78     		ldrb	r2, [r3, #2]	@ zero_extendqisi2
 3056 0100 FFF7FEFF 		bl	split
 3057              	.LVL363:
 3058              	.L285:
 3059              	.LBB74:
1150:src/ctltrans.c ****   DispLineMW(buf, MW_LINE3, MW_SPFONT);
 3060              		.loc 1 1150 0
 3061 0104 02A8     		add	r0, sp, #8
 3062 0106 FFF7FEFF 		bl	strlen
 3063              	.LVL364:
ARM GAS  C:\Users\AHMED~1.ELE\AppData\Local\Temp\ccu9CE5U.s 			page 81


 3064 010a 0546     		mov	r5, r0
 3065              	.LVL365:
 3066 010c 691C     		adds	r1, r5, #1
 3067 010e 9220     		movs	r0, #146
 3068              	.LVL366:
 3069 0110 FFF7FEFF 		bl	sys_func1
 3070              	.LVL367:
 3071 0114 0446     		mov	r4, r0
 3072              	.LVL368:
 3073 0116 98B1     		cbz	r0, .L286
 3074 0118 02A9     		add	r1, sp, #8
 3075 011a 2A46     		mov	r2, r5
 3076 011c FFF7FEFF 		bl	memcpy
 3077              	.LVL369:
 3078 0120 0023     		movs	r3, #0
 3079 0122 2521     		movs	r1, #37
 3080 0124 6355     		strb	r3, [r4, r5]
 3081 0126 4FF40053 		mov	r3, #8192
 3082 012a 0F20     		movs	r0, #15
 3083 012c 0093     		str	r3, [sp]
 3084 012e 2246     		mov	r2, r4
 3085 0130 4FF44073 		mov	r3, #768
 3086 0134 FFF7FEFF 		bl	lib_app_call
 3087              	.LVL370:
 3088 0138 9420     		movs	r0, #148
 3089 013a 2146     		mov	r1, r4
 3090 013c FFF7FEFF 		bl	sys_func1
 3091              	.LVL371:
 3092              	.L286:
 3093              	.LBE74:
1151:src/ctltrans.c ****   memset(buf, 0, sizeof(buf));
 3094              		.loc 1 1151 0
 3095 0140 0021     		movs	r1, #0
 3096 0142 8022     		movs	r2, #128
 3097 0144 02A8     		add	r0, sp, #8
 3098 0146 FFF7FEFF 		bl	memset
 3099              	.LVL372:
1152:src/ctltrans.c ****   memcpy(buf, "P.Sch=", 6);
 3100              		.loc 1 1152 0
 3101 014a 7149     		ldr	r1, .L361+20
 3102 014c 0622     		movs	r2, #6
 3103 014e 02A8     		add	r0, sp, #8
 3104 0150 FFF7FEFF 		bl	memcpy
 3105              	.LVL373:
1153:src/ctltrans.c ****   if ((psLp = CTLTagSeek(0xDFAE)) != NULL)
 3106              		.loc 1 1153 0
 3107 0154 4DF6AE70 		movw	r0, #57262
 3108 0158 FFF7FEFF 		bl	CTLTagSeek
 3109              	.LVL374:
 3110 015c 0346     		mov	r3, r0
 3111 015e 28B1     		cbz	r0, .L287
1154:src/ctltrans.c ****     split(buf+6, psLp->pbLoc, psLp->sLen); 
 3112              		.loc 1 1154 0
 3113 0160 0DF10E00 		add	r0, sp, #14
 3114              	.LVL375:
 3115 0164 5968     		ldr	r1, [r3, #4]
 3116 0166 9A78     		ldrb	r2, [r3, #2]	@ zero_extendqisi2
ARM GAS  C:\Users\AHMED~1.ELE\AppData\Local\Temp\ccu9CE5U.s 			page 82


 3117 0168 FFF7FEFF 		bl	split
 3118              	.LVL376:
 3119              	.L287:
 3120              	.LBB75:
1155:src/ctltrans.c ****   DispLineMW(buf, MW_LINE4, MW_SPFONT);
 3121              		.loc 1 1155 0
 3122 016c 02A8     		add	r0, sp, #8
 3123 016e FFF7FEFF 		bl	strlen
 3124              	.LVL377:
 3125 0172 0546     		mov	r5, r0
 3126              	.LVL378:
 3127 0174 691C     		adds	r1, r5, #1
 3128 0176 9220     		movs	r0, #146
 3129              	.LVL379:
 3130 0178 FFF7FEFF 		bl	sys_func1
 3131              	.LVL380:
 3132 017c 0446     		mov	r4, r0
 3133              	.LVL381:
 3134 017e 98B1     		cbz	r0, .L288
 3135 0180 02A9     		add	r1, sp, #8
 3136 0182 2A46     		mov	r2, r5
 3137 0184 FFF7FEFF 		bl	memcpy
 3138              	.LVL382:
 3139 0188 0023     		movs	r3, #0
 3140 018a 2521     		movs	r1, #37
 3141 018c 6355     		strb	r3, [r4, r5]
 3142 018e 4FF40053 		mov	r3, #8192
 3143 0192 0F20     		movs	r0, #15
 3144 0194 0093     		str	r3, [sp]
 3145 0196 2246     		mov	r2, r4
 3146 0198 4FF48063 		mov	r3, #1024
 3147 019c FFF7FEFF 		bl	lib_app_call
 3148              	.LVL383:
 3149 01a0 9420     		movs	r0, #148
 3150 01a2 2146     		mov	r1, r4
 3151 01a4 FFF7FEFF 		bl	sys_func1
 3152              	.LVL384:
 3153              	.L288:
 3154              	.LBE75:
1156:src/ctltrans.c ****   memset(buf, 0, sizeof(buf));
 3155              		.loc 1 1156 0
 3156 01a8 0021     		movs	r1, #0
 3157 01aa 8022     		movs	r2, #128
 3158 01ac 02A8     		add	r0, sp, #8
 3159 01ae FFF7FEFF 		bl	memset
 3160              	.LVL385:
1157:src/ctltrans.c ****   memcpy(buf, "Trk2=", 5);
 3161              		.loc 1 1157 0
 3162 01b2 5849     		ldr	r1, .L361+24
 3163 01b4 0522     		movs	r2, #5
 3164 01b6 02A8     		add	r0, sp, #8
 3165 01b8 FFF7FEFF 		bl	memcpy
 3166              	.LVL386:
1158:src/ctltrans.c ****   if ((psLp = CTLTagSeek(0x57)) != NULL) {
 3167              		.loc 1 1158 0
 3168 01bc 5720     		movs	r0, #87
 3169 01be FFF7FEFF 		bl	CTLTagSeek
ARM GAS  C:\Users\AHMED~1.ELE\AppData\Local\Temp\ccu9CE5U.s 			page 83


 3170              	.LVL387:
 3171 01c2 0346     		mov	r3, r0
 3172 01c4 28B1     		cbz	r0, .L289
1159:src/ctltrans.c ****     split(buf+5, psLp->pbLoc, psLp->sLen);
 3173              		.loc 1 1159 0
 3174 01c6 0DF10D00 		add	r0, sp, #13
 3175              	.LVL388:
 3176 01ca 5968     		ldr	r1, [r3, #4]
 3177 01cc 9A78     		ldrb	r2, [r3, #2]	@ zero_extendqisi2
 3178 01ce FFF7FEFF 		bl	split
 3179              	.LVL389:
 3180              	.L289:
 3181              	.LBB76:
1160:src/ctltrans.c ****   }
1161:src/ctltrans.c ****   DispLineMW(buf, MW_LINE5, MW_SPFONT);
 3182              		.loc 1 1161 0
 3183 01d2 02A8     		add	r0, sp, #8
 3184 01d4 FFF7FEFF 		bl	strlen
 3185              	.LVL390:
 3186 01d8 0546     		mov	r5, r0
 3187              	.LVL391:
 3188 01da 691C     		adds	r1, r5, #1
 3189 01dc 9220     		movs	r0, #146
 3190              	.LVL392:
 3191 01de FFF7FEFF 		bl	sys_func1
 3192              	.LVL393:
 3193 01e2 0446     		mov	r4, r0
 3194              	.LVL394:
 3195 01e4 98B1     		cbz	r0, .L290
 3196 01e6 02A9     		add	r1, sp, #8
 3197 01e8 2A46     		mov	r2, r5
 3198 01ea FFF7FEFF 		bl	memcpy
 3199              	.LVL395:
 3200 01ee 0023     		movs	r3, #0
 3201 01f0 2521     		movs	r1, #37
 3202 01f2 6355     		strb	r3, [r4, r5]
 3203 01f4 4FF40053 		mov	r3, #8192
 3204 01f8 0F20     		movs	r0, #15
 3205 01fa 0093     		str	r3, [sp]
 3206 01fc 2246     		mov	r2, r4
 3207 01fe 4FF4A063 		mov	r3, #1280
 3208 0202 FFF7FEFF 		bl	lib_app_call
 3209              	.LVL396:
 3210 0206 9420     		movs	r0, #148
 3211 0208 2146     		mov	r1, r4
 3212 020a FFF7FEFF 		bl	sys_func1
 3213              	.LVL397:
 3214              	.L290:
 3215              	.LBE76:
1162:src/ctltrans.c ****   memset(buf, 0, sizeof(buf));
 3216              		.loc 1 1162 0
 3217 020e 0021     		movs	r1, #0
 3218 0210 8022     		movs	r2, #128
 3219 0212 02A8     		add	r0, sp, #8
 3220 0214 FFF7FEFF 		bl	memset
 3221              	.LVL398:
1163:src/ctltrans.c ****   memcpy(buf, "IAD=", 4);
ARM GAS  C:\Users\AHMED~1.ELE\AppData\Local\Temp\ccu9CE5U.s 			page 84


 3222              		.loc 1 1163 0
 3223 0218 3F4B     		ldr	r3, .L361+28
1164:src/ctltrans.c ****   if ((psLp = CTLTagSeek(0x9F10)) != NULL)
 3224              		.loc 1 1164 0
 3225 021a 49F61070 		movw	r0, #40720
1163:src/ctltrans.c ****   memcpy(buf, "IAD=", 4);
 3226              		.loc 1 1163 0
 3227 021e 0293     		str	r3, [sp, #8]
 3228              		.loc 1 1164 0
 3229 0220 FFF7FEFF 		bl	CTLTagSeek
 3230              	.LVL399:
 3231 0224 0346     		mov	r3, r0
 3232 0226 20B1     		cbz	r0, .L291
1165:src/ctltrans.c ****     split(buf+4, psLp->pbLoc, psLp->sLen); 
 3233              		.loc 1 1165 0
 3234 0228 03A8     		add	r0, sp, #12
 3235              	.LVL400:
 3236 022a 5968     		ldr	r1, [r3, #4]
 3237 022c 9A78     		ldrb	r2, [r3, #2]	@ zero_extendqisi2
 3238 022e FFF7FEFF 		bl	split
 3239              	.LVL401:
 3240              	.L291:
 3241              	.LBB77:
1166:src/ctltrans.c ****   DispLineMW(buf, MW_LINE6, MW_SPFONT);
 3242              		.loc 1 1166 0
 3243 0232 02A8     		add	r0, sp, #8
 3244 0234 FFF7FEFF 		bl	strlen
 3245              	.LVL402:
 3246 0238 0546     		mov	r5, r0
 3247              	.LVL403:
 3248 023a 691C     		adds	r1, r5, #1
 3249 023c 9220     		movs	r0, #146
 3250              	.LVL404:
 3251 023e FFF7FEFF 		bl	sys_func1
 3252              	.LVL405:
 3253 0242 0446     		mov	r4, r0
 3254              	.LVL406:
 3255 0244 98B1     		cbz	r0, .L292
 3256 0246 02A9     		add	r1, sp, #8
 3257 0248 2A46     		mov	r2, r5
 3258 024a FFF7FEFF 		bl	memcpy
 3259              	.LVL407:
 3260 024e 0023     		movs	r3, #0
 3261 0250 2521     		movs	r1, #37
 3262 0252 6355     		strb	r3, [r4, r5]
 3263 0254 4FF40053 		mov	r3, #8192
 3264 0258 0F20     		movs	r0, #15
 3265 025a 0093     		str	r3, [sp]
 3266 025c 2246     		mov	r2, r4
 3267 025e 4FF4C063 		mov	r3, #1536
 3268 0262 FFF7FEFF 		bl	lib_app_call
 3269              	.LVL408:
 3270 0266 9420     		movs	r0, #148
 3271 0268 2146     		mov	r1, r4
 3272 026a FFF7FEFF 		bl	sys_func1
 3273              	.LVL409:
 3274              	.L292:
ARM GAS  C:\Users\AHMED~1.ELE\AppData\Local\Temp\ccu9CE5U.s 			page 85


 3275              	.LBE77:
1167:src/ctltrans.c ****   memset(buf, 0, sizeof(buf));
 3276              		.loc 1 1167 0
 3277 026e 0021     		movs	r1, #0
 3278 0270 8022     		movs	r2, #128
 3279 0272 02A8     		add	r0, sp, #8
 3280 0274 FFF7FEFF 		bl	memset
 3281              	.LVL410:
1168:src/ctltrans.c ****   memcpy(buf, "Txn.CVM=", 8);
 3282              		.loc 1 1168 0
 3283 0278 2849     		ldr	r1, .L361+32
 3284 027a 0822     		movs	r2, #8
 3285 027c 02A8     		add	r0, sp, #8
 3286 027e FFF7FEFF 		bl	memcpy
 3287              	.LVL411:
1169:src/ctltrans.c ****   if ((psLp = CTLTagSeek(0xDFB5)) != NULL)
 3288              		.loc 1 1169 0
 3289 0282 4DF6B570 		movw	r0, #57269
 3290 0286 FFF7FEFF 		bl	CTLTagSeek
 3291              	.LVL412:
 3292 028a 0346     		mov	r3, r0
 3293 028c 20B1     		cbz	r0, .L293
1170:src/ctltrans.c ****     split(buf+8, psLp->pbLoc, psLp->sLen);
 3294              		.loc 1 1170 0
 3295 028e 04A8     		add	r0, sp, #16
 3296              	.LVL413:
 3297 0290 5968     		ldr	r1, [r3, #4]
 3298 0292 9A78     		ldrb	r2, [r3, #2]	@ zero_extendqisi2
 3299 0294 FFF7FEFF 		bl	split
 3300              	.LVL414:
 3301              	.L293:
 3302              	.LBB78:
1171:src/ctltrans.c ****   DispLineMW(buf, MW_LINE7, MW_SPFONT);
 3303              		.loc 1 1171 0
 3304 0298 02A8     		add	r0, sp, #8
 3305 029a FFF7FEFF 		bl	strlen
 3306              	.LVL415:
 3307 029e 0546     		mov	r5, r0
 3308              	.LVL416:
 3309 02a0 691C     		adds	r1, r5, #1
 3310 02a2 9220     		movs	r0, #146
 3311              	.LVL417:
 3312 02a4 FFF7FEFF 		bl	sys_func1
 3313              	.LVL418:
 3314 02a8 0446     		mov	r4, r0
 3315              	.LVL419:
 3316 02aa 98B1     		cbz	r0, .L294
 3317 02ac 02A9     		add	r1, sp, #8
 3318 02ae 2A46     		mov	r2, r5
 3319 02b0 FFF7FEFF 		bl	memcpy
 3320              	.LVL420:
 3321 02b4 0023     		movs	r3, #0
 3322 02b6 2521     		movs	r1, #37
 3323 02b8 6355     		strb	r3, [r4, r5]
 3324 02ba 4FF40053 		mov	r3, #8192
 3325 02be 0F20     		movs	r0, #15
 3326 02c0 0093     		str	r3, [sp]
ARM GAS  C:\Users\AHMED~1.ELE\AppData\Local\Temp\ccu9CE5U.s 			page 86


 3327 02c2 2246     		mov	r2, r4
 3328 02c4 4FF4E063 		mov	r3, #1792
 3329 02c8 FFF7FEFF 		bl	lib_app_call
 3330              	.LVL421:
 3331 02cc 9420     		movs	r0, #148
 3332 02ce 2146     		mov	r1, r4
 3333 02d0 FFF7FEFF 		bl	sys_func1
 3334              	.LVL422:
 3335              	.L294:
 3336              	.LBE78:
1172:src/ctltrans.c ****   
1173:src/ctltrans.c **** #ifdef PWAVE_DEBUG
1174:src/ctltrans.c ****   // for Paywave only
1175:src/ctltrans.c ****   memset(buf, 0, sizeof(buf));
 3337              		.loc 1 1175 0
 3338 02d4 0021     		movs	r1, #0
 3339 02d6 8022     		movs	r2, #128
 3340 02d8 02A8     		add	r0, sp, #8
 3341 02da FFF7FEFF 		bl	memset
 3342              	.LVL423:
1176:src/ctltrans.c ****   memcpy(buf, "TTQ=", 4);
 3343              		.loc 1 1176 0
 3344 02de 104B     		ldr	r3, .L361+36
1177:src/ctltrans.c ****   if ((psLp = CTLTagSeek(0x9F66)) != NULL)
 3345              		.loc 1 1177 0
 3346 02e0 49F66670 		movw	r0, #40806
1176:src/ctltrans.c ****   memcpy(buf, "TTQ=", 4);
 3347              		.loc 1 1176 0
 3348 02e4 0293     		str	r3, [sp, #8]
 3349              		.loc 1 1177 0
 3350 02e6 FFF7FEFF 		bl	CTLTagSeek
 3351              	.LVL424:
 3352 02ea 0346     		mov	r3, r0
 3353 02ec D0B1     		cbz	r0, .L295
1178:src/ctltrans.c ****     split(buf+4, psLp->pbLoc, psLp->sLen);
 3354              		.loc 1 1178 0
 3355 02ee 03A8     		add	r0, sp, #12
 3356              	.LVL425:
 3357 02f0 5968     		ldr	r1, [r3, #4]
 3358 02f2 9A78     		ldrb	r2, [r3, #2]	@ zero_extendqisi2
 3359 02f4 FFF7FEFF 		bl	split
 3360              	.LVL426:
 3361 02f8 14E0     		b	.L362
 3362              	.L363:
 3363 02fa 00BF     		.align	2
 3364              	.L361:
 3365 02fc 00000000 		.word	gGTS
 3366 0300 00000000 		.word	gGDS
 3367 0304 8A000000 		.word	.LC27
 3368 0308 5456523D 		.word	1028806228
 3369 030c 4349443D 		.word	1027885379
 3370 0310 97000000 		.word	.LC28
 3371 0314 9E000000 		.word	.LC29
 3372 0318 4941443D 		.word	1027883337
 3373 031c A4000000 		.word	.LC30
 3374 0320 5454513D 		.word	1028740180
 3375              	.L362:
ARM GAS  C:\Users\AHMED~1.ELE\AppData\Local\Temp\ccu9CE5U.s 			page 87


 3376              	.LVL427:
 3377              	.L295:
 3378              	.LBB79:
1179:src/ctltrans.c ****   DispLineMW(buf, MW_LINE8, MW_SPFONT);
 3379              		.loc 1 1179 0
 3380 0324 02A8     		add	r0, sp, #8
 3381 0326 FFF7FEFF 		bl	strlen
 3382              	.LVL428:
 3383 032a 0546     		mov	r5, r0
 3384              	.LVL429:
 3385 032c 691C     		adds	r1, r5, #1
 3386 032e 9220     		movs	r0, #146
 3387              	.LVL430:
 3388 0330 FFF7FEFF 		bl	sys_func1
 3389              	.LVL431:
 3390 0334 0446     		mov	r4, r0
 3391              	.LVL432:
 3392 0336 98B1     		cbz	r0, .L296
 3393 0338 02A9     		add	r1, sp, #8
 3394 033a 2A46     		mov	r2, r5
 3395 033c FFF7FEFF 		bl	memcpy
 3396              	.LVL433:
 3397 0340 0023     		movs	r3, #0
 3398 0342 2521     		movs	r1, #37
 3399 0344 6355     		strb	r3, [r4, r5]
 3400 0346 4FF40053 		mov	r3, #8192
 3401 034a 0F20     		movs	r0, #15
 3402 034c 0093     		str	r3, [sp]
 3403 034e 2246     		mov	r2, r4
 3404 0350 4FF40063 		mov	r3, #2048
 3405 0354 FFF7FEFF 		bl	lib_app_call
 3406              	.LVL434:
 3407 0358 9420     		movs	r0, #148
 3408 035a 2146     		mov	r1, r4
 3409 035c FFF7FEFF 		bl	sys_func1
 3410              	.LVL435:
 3411              	.L296:
 3412              	.LBE79:
1180:src/ctltrans.c ****   memset(buf, 0, sizeof(buf));
 3413              		.loc 1 1180 0
 3414 0360 0021     		movs	r1, #0
 3415 0362 8022     		movs	r2, #128
 3416 0364 02A8     		add	r0, sp, #8
 3417 0366 FFF7FEFF 		bl	memset
 3418              	.LVL436:
1181:src/ctltrans.c ****   memcpy(buf, ", CTQ=", 6);
 3419              		.loc 1 1181 0
 3420 036a 3349     		ldr	r1, .L364
 3421 036c 0622     		movs	r2, #6
 3422 036e 02A8     		add	r0, sp, #8
 3423 0370 FFF7FEFF 		bl	memcpy
 3424              	.LVL437:
1182:src/ctltrans.c ****   if ((psLp = CTLTagSeek(0x9F6C)) != NULL)
 3425              		.loc 1 1182 0
 3426 0374 49F66C70 		movw	r0, #40812
 3427 0378 FFF7FEFF 		bl	CTLTagSeek
 3428              	.LVL438:
ARM GAS  C:\Users\AHMED~1.ELE\AppData\Local\Temp\ccu9CE5U.s 			page 88


 3429 037c 0346     		mov	r3, r0
 3430 037e 28B1     		cbz	r0, .L297
1183:src/ctltrans.c ****     split(buf+6, psLp->pbLoc, psLp->sLen);
 3431              		.loc 1 1183 0
 3432 0380 0DF10E00 		add	r0, sp, #14
 3433              	.LVL439:
 3434 0384 5968     		ldr	r1, [r3, #4]
 3435 0386 9A78     		ldrb	r2, [r3, #2]	@ zero_extendqisi2
 3436 0388 FFF7FEFF 		bl	split
 3437              	.LVL440:
 3438              	.L297:
 3439              	.LBB80:
1184:src/ctltrans.c ****   DispLineMW(buf, MW_LINE8+12, MW_SPFONT);
 3440              		.loc 1 1184 0
 3441 038c 02A8     		add	r0, sp, #8
 3442 038e FFF7FEFF 		bl	strlen
 3443              	.LVL441:
 3444 0392 0546     		mov	r5, r0
 3445              	.LVL442:
 3446 0394 691C     		adds	r1, r5, #1
 3447 0396 9220     		movs	r0, #146
 3448              	.LVL443:
 3449 0398 FFF7FEFF 		bl	sys_func1
 3450              	.LVL444:
 3451 039c 0446     		mov	r4, r0
 3452              	.LVL445:
 3453 039e 98B1     		cbz	r0, .L298
 3454 03a0 02A9     		add	r1, sp, #8
 3455 03a2 2A46     		mov	r2, r5
 3456 03a4 FFF7FEFF 		bl	memcpy
 3457              	.LVL446:
 3458 03a8 0023     		movs	r3, #0
 3459 03aa 2521     		movs	r1, #37
 3460 03ac 6355     		strb	r3, [r4, r5]
 3461 03ae 4FF40053 		mov	r3, #8192
 3462 03b2 0F20     		movs	r0, #15
 3463 03b4 0093     		str	r3, [sp]
 3464 03b6 2246     		mov	r2, r4
 3465 03b8 40F60C03 		movw	r3, #2060
 3466 03bc FFF7FEFF 		bl	lib_app_call
 3467              	.LVL447:
 3468 03c0 9420     		movs	r0, #148
 3469 03c2 2146     		mov	r1, r4
 3470 03c4 FFF7FEFF 		bl	sys_func1
 3471              	.LVL448:
 3472              	.L298:
 3473              	.LBE80:
1185:src/ctltrans.c ****   memset(buf, 0, sizeof(buf));
 3474              		.loc 1 1185 0
 3475 03c8 0021     		movs	r1, #0
 3476 03ca 8022     		movs	r2, #128
 3477 03cc 02A8     		add	r0, sp, #8
 3478 03ce FFF7FEFF 		bl	memset
 3479              	.LVL449:
1186:src/ctltrans.c ****   memcpy(buf, "CAP=", 4);
 3480              		.loc 1 1186 0
 3481 03d2 1A4B     		ldr	r3, .L364+4
ARM GAS  C:\Users\AHMED~1.ELE\AppData\Local\Temp\ccu9CE5U.s 			page 89


1187:src/ctltrans.c ****   if ((psLp = CTLTagSeek(0x9F68)) != NULL)
 3482              		.loc 1 1187 0
 3483 03d4 49F66870 		movw	r0, #40808
1186:src/ctltrans.c ****   memcpy(buf, "CAP=", 4);
 3484              		.loc 1 1186 0
 3485 03d8 0293     		str	r3, [sp, #8]
 3486              		.loc 1 1187 0
 3487 03da FFF7FEFF 		bl	CTLTagSeek
 3488              	.LVL450:
 3489 03de 0346     		mov	r3, r0
 3490 03e0 20B1     		cbz	r0, .L299
1188:src/ctltrans.c ****     split(buf+4, psLp->pbLoc, psLp->sLen);
 3491              		.loc 1 1188 0
 3492 03e2 03A8     		add	r0, sp, #12
 3493              	.LVL451:
 3494 03e4 5968     		ldr	r1, [r3, #4]
 3495 03e6 9A78     		ldrb	r2, [r3, #2]	@ zero_extendqisi2
 3496 03e8 FFF7FEFF 		bl	split
 3497              	.LVL452:
 3498              	.L299:
 3499              	.LBB81:
1189:src/ctltrans.c ****   DispLineMW(buf, MW_LINE9, MW_SPFONT);
 3500              		.loc 1 1189 0
 3501 03ec 02A8     		add	r0, sp, #8
 3502 03ee FFF7FEFF 		bl	strlen
 3503              	.LVL453:
 3504 03f2 0546     		mov	r5, r0
 3505              	.LVL454:
 3506 03f4 691C     		adds	r1, r5, #1
 3507 03f6 9220     		movs	r0, #146
 3508              	.LVL455:
 3509 03f8 FFF7FEFF 		bl	sys_func1
 3510              	.LVL456:
 3511 03fc 0446     		mov	r4, r0
 3512              	.LVL457:
 3513 03fe 98B1     		cbz	r0, .L300
 3514 0400 02A9     		add	r1, sp, #8
 3515 0402 2A46     		mov	r2, r5
 3516 0404 FFF7FEFF 		bl	memcpy
 3517              	.LVL458:
 3518 0408 0023     		movs	r3, #0
 3519 040a 2521     		movs	r1, #37
 3520 040c 6355     		strb	r3, [r4, r5]
 3521 040e 4FF40053 		mov	r3, #8192
 3522 0412 0F20     		movs	r0, #15
 3523 0414 0093     		str	r3, [sp]
 3524 0416 2246     		mov	r2, r4
 3525 0418 4FF41063 		mov	r3, #2304
 3526 041c FFF7FEFF 		bl	lib_app_call
 3527              	.LVL459:
 3528 0420 9420     		movs	r0, #148
 3529 0422 2146     		mov	r1, r4
 3530 0424 FFF7FEFF 		bl	sys_func1
 3531              	.LVL460:
 3532              	.L300:
 3533              	.LBE81:
1190:src/ctltrans.c **** #endif
ARM GAS  C:\Users\AHMED~1.ELE\AppData\Local\Temp\ccu9CE5U.s 			page 90


1191:src/ctltrans.c ****   WaitKey(9000,0);
 3534              		.loc 1 1191 0
 3535 0428 42F22830 		movw	r0, #9000
 3536 042c 0021     		movs	r1, #0
 3537 042e FFF7FEFF 		bl	WaitKey
 3538              	.LVL461:
 3539              	.L279:
 3540              	.LBE71:
 3541              	.LBE70:
1192:src/ctltrans.c **** }
 3542              		.loc 1 1192 0
 3543 0432 23B0     		add	sp, sp, #140
 3544              		.cfi_def_cfa_offset 12
 3545              		@ sp needed
 3546 0434 30BD     		pop	{r4, r5, pc}
 3547              	.L365:
 3548 0436 00BF     		.align	2
 3549              	.L364:
 3550 0438 AD000000 		.word	.LC31
 3551 043c 4341503D 		.word	1028669763
 3552              		.cfi_endproc
 3553              	.LFE26:
 3554              		.size	CTLDebug, .-CTLDebug
 3555              		.section	.text.CTLProcess,"ax",%progbits
 3556              		.align	1
 3557              		.global	CTLProcess
 3558              		.thumb
 3559              		.thumb_func
 3560              		.type	CTLProcess, %function
 3561              	CTLProcess:
 3562              	.LFB27:
1193:src/ctltrans.c **** //*****************************************************************************
1194:src/ctltrans.c **** //  Function        : CTLProcess
1195:src/ctltrans.c **** //  Description     : Contactless Processing state machine.
1196:src/ctltrans.c **** //  Input           : N/A
1197:src/ctltrans.c **** //  Return          : next action
1198:src/ctltrans.c **** //  Note            : N/A
1199:src/ctltrans.c **** //  Globals Changed :
1200:src/ctltrans.c **** //*****************************************************************************
1201:src/ctltrans.c **** DWORD CTLProcess(void)
1202:src/ctltrans.c **** {
 3563              		.loc 1 1202 0
 3564              		.cfi_startproc
 3565              		@ args = 0, pretend = 0, frame = 0
 3566              		@ frame_needed = 0, uses_anonymous_args = 0
 3567 0000 F7B5     		push	{r0, r1, r2, r4, r5, r6, r7, lr}
 3568              		.cfi_def_cfa_offset 32
 3569              		.cfi_offset 4, -20
 3570              		.cfi_offset 5, -16
 3571              		.cfi_offset 6, -12
 3572              		.cfi_offset 7, -8
 3573              		.cfi_offset 14, -4
1203:src/ctltrans.c ****   DWORD next_state;
1204:src/ctltrans.c **** 
1205:src/ctltrans.c ****   // turn on blue & yellow LEDs
1206:src/ctltrans.c ****   CL_LedSet(CTL_LED_PROC);
1207:src/ctltrans.c ****   
ARM GAS  C:\Users\AHMED~1.ELE\AppData\Local\Temp\ccu9CE5U.s 			page 91


1208:src/ctltrans.c ****   // init vars
1209:src/ctltrans.c ****   memset(INPUT.sb_pin, 0, sizeof(INPUT.sb_pin));
1210:src/ctltrans.c ****   memcpy(INPUT.sb_trace_no, STIS_TERM_DATA.sb_trace_no, 3);
 3574              		.loc 1 1210 0
 3575 0002 2C4E     		ldr	r6, .L378
1206:src/ctltrans.c ****   
 3576              		.loc 1 1206 0
 3577 0004 0220     		movs	r0, #2
 3578 0006 FFF7FEFF 		bl	CL_LedSet
 3579              	.LVL462:
 3580              		.loc 1 1210 0
 3581 000a 3468     		ldr	r4, [r6]
1209:src/ctltrans.c ****   memcpy(INPUT.sb_trace_no, STIS_TERM_DATA.sb_trace_no, 3);
 3582              		.loc 1 1209 0
 3583 000c 2A4B     		ldr	r3, .L378+4
 3584 000e 0025     		movs	r5, #0
 3585              		.loc 1 1210 0
 3586 0010 6FF4FA72 		mvn	r2, #500
 3587 0014 04F28651 		addw	r1, r4, #1414
1211:src/ctltrans.c ****   next_state = CLMSG_PROC_START | CLMSGX_AUTO_TO_FINISH;
1212:src/ctltrans.c ****   //next_state = CLMSG_PROC_START;
1213:src/ctltrans.c ****   gGDS->s_CTLIn.pbMsg[0] = 0;
 3588              		.loc 1 1213 0
 3589 0018 04F55E54 		add	r4, r4, #14208
1210:src/ctltrans.c ****   next_state = CLMSG_PROC_START | CLMSGX_AUTO_TO_FINISH;
 3590              		.loc 1 1210 0
 3591 001c 9818     		adds	r0, r3, r2
1209:src/ctltrans.c ****   memcpy(INPUT.sb_trace_no, STIS_TERM_DATA.sb_trace_no, 3);
 3592              		.loc 1 1209 0
 3593 001e 1D60     		str	r5, [r3]
 3594 0020 5D60     		str	r5, [r3, #4]
1210:src/ctltrans.c ****   next_state = CLMSG_PROC_START | CLMSGX_AUTO_TO_FINISH;
 3595              		.loc 1 1210 0
 3596 0022 0322     		movs	r2, #3
 3597 0024 FFF7FEFF 		bl	memcpy
 3598              	.LVL463:
 3599              		.loc 1 1213 0
 3600 0028 6369     		ldr	r3, [r4, #20]
1214:src/ctltrans.c ****   gGDS->s_CTLIn.wLen    = 1;
 3601              		.loc 1 1214 0
 3602 002a 0122     		movs	r2, #1
1213:src/ctltrans.c ****   gGDS->s_CTLIn.wLen    = 1;
 3603              		.loc 1 1213 0
 3604 002c 1D70     		strb	r5, [r3]
 3605              		.loc 1 1214 0
 3606 002e 3368     		ldr	r3, [r6]
 3607 0030 03F55E53 		add	r3, r3, #14208
 3608 0034 1A82     		strh	r2, [r3, #16]	@ movhi
1211:src/ctltrans.c ****   //next_state = CLMSG_PROC_START;
 3609              		.loc 1 1211 0
 3610 0036 02F10042 		add	r2, r2, #-2147483648
 3611              	.LVL464:
 3612              	.L367:
1215:src/ctltrans.c **** 
1216:src/ctltrans.c ****   do {
1217:src/ctltrans.c ****     //debugCTL(next_state, 1, &gGDS->s_CTLIn);
1218:src/ctltrans.c ****     if (emvclMsg(next_state, &gGDS->s_CTLIn, &gGDS->s_CTLOut) == FALSE) {
ARM GAS  C:\Users\AHMED~1.ELE\AppData\Local\Temp\ccu9CE5U.s 			page 92


 3613              		.loc 1 1218 0
 3614 003a 3368     		ldr	r3, [r6]
 3615 003c 6420     		movs	r0, #100
 3616 003e 03F55E53 		add	r3, r3, #14208
 3617 0042 03F11801 		add	r1, r3, #24
 3618 0046 1033     		adds	r3, r3, #16
 3619 0048 0091     		str	r1, [sp]
 3620 004a 0121     		movs	r1, #1
 3621 004c FFF7FEFF 		bl	lib_app_call
 3622              	.LVL465:
 3623 0050 184F     		ldr	r7, .L378
 3624 0052 C0B2     		uxtb	r0, r0
 3625 0054 28B9     		cbnz	r0, .L368
1219:src/ctltrans.c ****       CL_Close(0);
 3626              		.loc 1 1219 0
 3627 0056 FFF7FEFF 		bl	CL_Close
 3628              	.LVL466:
1220:src/ctltrans.c ****       next_state=CTLError(next_state);
 3629              		.loc 1 1220 0
 3630 005a FFF7FEFF 		bl	CTLError.isra.3
 3631              	.LVL467:
 3632 005e 0446     		mov	r4, r0
 3633              	.LVL468:
 3634 0060 10E0     		b	.L377
 3635              	.LVL469:
 3636              	.L368:
1221:src/ctltrans.c ****       CTLDebug();
1222:src/ctltrans.c ****       return next_state;
1223:src/ctltrans.c ****     }
1224:src/ctltrans.c ****     //debugCTL(next_state, 0, &gGDS->s_CTLOut);
1225:src/ctltrans.c ****     next_state = gGDS->s_CTLOut.pbMsg[0];
 3637              		.loc 1 1225 0
 3638 0062 3B68     		ldr	r3, [r7]
 3639 0064 03F55E53 		add	r3, r3, #14208
 3640 0068 DA69     		ldr	r2, [r3, #28]
 3641 006a 1578     		ldrb	r5, [r2]	@ zero_extendqisi2
 3642              	.LVL470:
1226:src/ctltrans.c ****     switch (gGDS->s_CTLOut.pbMsg[0]&0x7F) {
 3643              		.loc 1 1226 0
 3644 006c 05F07F04 		and	r4, r5, #127
 3645 0070 022C     		cmp	r4, #2
 3646 0072 12D0     		beq	.L376
 3647 0074 072C     		cmp	r4, #7
 3648 0076 0AD0     		beq	.L372
 3649 0078 CCB9     		cbnz	r4, .L375
1227:src/ctltrans.c ****       case CTL_COMPLETE:   /* completed */
1228:src/ctltrans.c ****         CL_Close(0);
 3650              		.loc 1 1228 0
 3651 007a 2046     		mov	r0, r4
 3652 007c FFF7FEFF 		bl	CL_Close
 3653              	.LVL471:
1229:src/ctltrans.c ****         CTLComplete();
 3654              		.loc 1 1229 0
 3655 0080 FFF7FEFF 		bl	CTLComplete
 3656              	.LVL472:
 3657              	.L377:
1230:src/ctltrans.c ****         CTLDebug();
ARM GAS  C:\Users\AHMED~1.ELE\AppData\Local\Temp\ccu9CE5U.s 			page 93


 3658              		.loc 1 1230 0
 3659 0084 FFF7FEFF 		bl	CTLDebug
 3660              	.LVL473:
1231:src/ctltrans.c ****         //debugEMV(next_state, 1, &gGDS->s_CTLOut);
1232:src/ctltrans.c ****         return CTL_COMPLETE;
 3661              		.loc 1 1232 0
 3662 0088 2046     		mov	r0, r4
1233:src/ctltrans.c ****       case CLMSG_ENTER_SEL: // select application
1234:src/ctltrans.c ****         gGDS->s_CTLIn.pbMsg[0] = 0;
1235:src/ctltrans.c ****         gGDS->s_CTLIn.wLen = 1;
1236:src/ctltrans.c ****         break;
1237:src/ctltrans.c ****       case CLMSG_VALID_CARD: /* validate application */
1238:src/ctltrans.c ****         if (ValidCTLData(TRUE)) {
1239:src/ctltrans.c ****          // if (!ConfirmCard()) {  // leave exp date chk to kernel
1240:src/ctltrans.c ****         //    CL_Close(0);
1241:src/ctltrans.c ****         //    RSP_DATA.w_rspcode = 'C'*256+'N';
1242:src/ctltrans.c ****         //    return CTL_COMPLETE; // 25-04-05++ txn end
1243:src/ctltrans.c ****         //  }
1244:src/ctltrans.c ****         }
1245:src/ctltrans.c ****         gGDS->s_CTLIn.pbMsg[0] = 0;
1246:src/ctltrans.c ****         gGDS->s_CTLIn.wLen = 1;
1247:src/ctltrans.c ****         break;
1248:src/ctltrans.c ****       default:
1249:src/ctltrans.c ****         CTLFatal();
1250:src/ctltrans.c ****     }
1251:src/ctltrans.c ****   } while (TRUE);
1252:src/ctltrans.c **** }
 3663              		.loc 1 1252 0
 3664 008a 03B0     		add	sp, sp, #12
 3665              		.cfi_remember_state
 3666              		.cfi_def_cfa_offset 20
 3667              		@ sp needed
 3668 008c F0BD     		pop	{r4, r5, r6, r7, pc}
 3669              	.LVL474:
 3670              	.L372:
 3671              		.cfi_restore_state
1238:src/ctltrans.c ****          // if (!ConfirmCard()) {  // leave exp date chk to kernel
 3672              		.loc 1 1238 0
 3673 008e 0120     		movs	r0, #1
 3674 0090 FFF7FEFF 		bl	ValidCTLData
 3675              	.LVL475:
1245:src/ctltrans.c ****         gGDS->s_CTLIn.wLen = 1;
 3676              		.loc 1 1245 0
 3677 0094 3B68     		ldr	r3, [r7]
 3678 0096 03F55E53 		add	r3, r3, #14208
 3679              	.L376:
 3680 009a 5B69     		ldr	r3, [r3, #20]
 3681 009c 0022     		movs	r2, #0
 3682 009e 1A70     		strb	r2, [r3]
1246:src/ctltrans.c ****         break;
 3683              		.loc 1 1246 0
 3684 00a0 3B68     		ldr	r3, [r7]
 3685 00a2 0122     		movs	r2, #1
 3686 00a4 03F55E53 		add	r3, r3, #14208
 3687 00a8 1A82     		strh	r2, [r3, #16]	@ movhi
 3688              	.L374:
1225:src/ctltrans.c ****     switch (gGDS->s_CTLOut.pbMsg[0]&0x7F) {
ARM GAS  C:\Users\AHMED~1.ELE\AppData\Local\Temp\ccu9CE5U.s 			page 94


 3689              		.loc 1 1225 0
 3690 00aa 2A46     		mov	r2, r5
 3691 00ac C5E7     		b	.L367
 3692              	.L375:
1249:src/ctltrans.c ****     }
 3693              		.loc 1 1249 0
 3694 00ae FFF7FEFF 		bl	CTLFatal
 3695              	.LVL476:
 3696 00b2 FAE7     		b	.L374
 3697              	.L379:
 3698              		.align	2
 3699              	.L378:
 3700 00b4 00000000 		.word	gGDS
 3701 00b8 F8010000 		.word	gGTS+504
 3702              		.cfi_endproc
 3703              	.LFE27:
 3704              		.size	CTLProcess, .-CTLProcess
 3705              		.section	.text.CTLTrans,"ax",%progbits
 3706              		.align	1
 3707              		.global	CTLTrans
 3708              		.thumb
 3709              		.thumb_func
 3710              		.type	CTLTrans, %function
 3711              	CTLTrans:
 3712              	.LFB28:
1253:src/ctltrans.c **** //*****************************************************************************
1254:src/ctltrans.c **** //  Function        : CTLTrans
1255:src/ctltrans.c **** //  Description     : CTL trans handler.
1256:src/ctltrans.c **** //  Input           : trans;    // trans type
1257:src/ctltrans.c **** //  Return          : N/A
1258:src/ctltrans.c **** //  Note            : N/A
1259:src/ctltrans.c **** //  Globals Changed : N/A
1260:src/ctltrans.c **** //******************************************************************************
1261:src/ctltrans.c **** DWORD CTLTrans(DWORD aTrans)
1262:src/ctltrans.c **** {
 3713              		.loc 1 1262 0
 3714              		.cfi_startproc
 3715              		@ args = 0, pretend = 0, frame = 0
 3716              		@ frame_needed = 0, uses_anonymous_args = 0
 3717              	.LVL477:
 3718 0000 73B5     		push	{r0, r1, r4, r5, r6, lr}
 3719              		.cfi_def_cfa_offset 24
 3720              		.cfi_offset 4, -16
 3721              		.cfi_offset 5, -12
 3722              		.cfi_offset 6, -8
 3723              		.cfi_offset 14, -4
1263:src/ctltrans.c ****   INPUT.b_trans = (BYTE) aTrans;
1264:src/ctltrans.c ****   if (STIS_TERM_DATA.b_stis_mode < TRANS_MODE) {
 3724              		.loc 1 1264 0
 3725 0002 324E     		ldr	r6, .L393
1263:src/ctltrans.c ****   INPUT.b_trans = (BYTE) aTrans;
 3726              		.loc 1 1263 0
 3727 0004 324C     		ldr	r4, .L393+4
 3728              		.loc 1 1264 0
 3729 0006 3368     		ldr	r3, [r6]
1263:src/ctltrans.c ****   INPUT.b_trans = (BYTE) aTrans;
 3730              		.loc 1 1263 0
ARM GAS  C:\Users\AHMED~1.ELE\AppData\Local\Temp\ccu9CE5U.s 			page 95


 3731 0008 2070     		strb	r0, [r4]
 3732              		.loc 1 1264 0
 3733 000a 93F85835 		ldrb	r3, [r3, #1368]	@ zero_extendqisi2
 3734 000e 012B     		cmp	r3, #1
 3735 0010 02D9     		bls	.L391
1265:src/ctltrans.c ****     DispErrorMsg(GetConstMsg(EDC_TU_NOT_ALLOW));
1266:src/ctltrans.c ****     return FALSE;
1267:src/ctltrans.c ****   }
1268:src/ctltrans.c **** 
1269:src/ctltrans.c ****   if (BlockLocalTrans()) {
 3736              		.loc 1 1269 0
 3737 0012 FFF7FEFF 		bl	BlockLocalTrans
 3738              	.LVL478:
 3739 0016 08B1     		cbz	r0, .L383
 3740              	.L391:
1270:src/ctltrans.c ****     DispErrorMsg(GetConstMsg(EDC_TU_NOT_ALLOW));
 3741              		.loc 1 1270 0
 3742 0018 2420     		movs	r0, #36
 3743 001a 04E0     		b	.L392
 3744              	.L383:
1271:src/ctltrans.c ****     return FALSE;
1272:src/ctltrans.c ****   }
1273:src/ctltrans.c **** 
1274:src/ctltrans.c ****   if (HostSettlePending() || APM_BatchFull(INPUT.w_host_idx)) {
 3745              		.loc 1 1274 0
 3746 001c FFF7FEFF 		bl	HostSettlePending
 3747              	.LVL479:
 3748 0020 0346     		mov	r3, r0
 3749 0022 30B1     		cbz	r0, .L384
 3750              	.L385:
1275:src/ctltrans.c ****     DispErrorMsg(GetConstMsg(EDC_TU_CLOSE_BATCH));
 3751              		.loc 1 1275 0
 3752 0024 2520     		movs	r0, #37
 3753              	.L392:
 3754 0026 FFF7FEFF 		bl	GetConstMsg
 3755              	.LVL480:
 3756 002a FFF7FEFF 		bl	DispErrorMsg
 3757              	.LVL481:
1276:src/ctltrans.c ****     return FALSE;
 3758              		.loc 1 1276 0
 3759 002e 0020     		movs	r0, #0
 3760 0030 4AE0     		b	.L382
 3761              	.L384:
1274:src/ctltrans.c ****     DispErrorMsg(GetConstMsg(EDC_TU_CLOSE_BATCH));
 3762              		.loc 1 1274 0 discriminator 1
 3763 0032 0090     		str	r0, [sp]
 3764 0034 B4F87620 		ldrh	r2, [r4, #118]
 3765 0038 1020     		movs	r0, #16
 3766 003a 2821     		movs	r1, #40
 3767 003c FFF7FEFF 		bl	lib_app_call
 3768              	.LVL482:
 3769 0040 0546     		mov	r5, r0
 3770 0042 0028     		cmp	r0, #0
 3771 0044 EED1     		bne	.L385
1277:src/ctltrans.c ****   }
1278:src/ctltrans.c ****   
1279:src/ctltrans.c ****   INPUT.b_entry_mode = CONTACTLESS;
ARM GAS  C:\Users\AHMED~1.ELE\AppData\Local\Temp\ccu9CE5U.s 			page 96


 3772              		.loc 1 1279 0
 3773 0046 5423     		movs	r3, #84
 3774 0048 84F83430 		strb	r3, [r4, #52]
1280:src/ctltrans.c ****   RSP_DATA.b_response = TRANS_FAIL;
 3775              		.loc 1 1280 0
 3776 004c 0223     		movs	r3, #2
 3777 004e 84F80037 		strb	r3, [r4, #1792]
1281:src/ctltrans.c ****   RSP_DATA.w_rspcode = '5'*256+'1';
 3778              		.loc 1 1281 0
 3779 0052 43F23153 		movw	r3, #13617
 3780 0056 A4F86E35 		strh	r3, [r4, #1390]	@ movhi
1282:src/ctltrans.c ****   GetEcrRef(FALSE);
 3781              		.loc 1 1282 0
 3782 005a FFF7FEFF 		bl	GetEcrRef
 3783              	.LVL483:
1283:src/ctltrans.c **** 
1284:src/ctltrans.c ****   DispHeader(NULL); // show correct header
 3784              		.loc 1 1284 0
 3785 005e 2846     		mov	r0, r5
 3786 0060 FFF7FEFF 		bl	DispHeader
 3787              	.LVL484:
1285:src/ctltrans.c **** 
1286:src/ctltrans.c ****   DispClrBelowMW(MW_LINE3);
 3788              		.loc 1 1286 0
 3789 0064 2B46     		mov	r3, r5
 3790 0066 2321     		movs	r1, #35
 3791 0068 4FF44072 		mov	r2, #768
 3792 006c 0095     		str	r5, [sp]
 3793 006e 0F20     		movs	r0, #15
 3794 0070 FFF7FEFF 		bl	lib_app_call
 3795              	.LVL485:
1287:src/ctltrans.c ****   Disp2x16Msg(GetConstMsg(EDC_CTL_PROCESSING), MW_LINE3, MW_BIGFONT);
 3796              		.loc 1 1287 0
 3797 0074 8D20     		movs	r0, #141
 3798 0076 FFF7FEFF 		bl	GetConstMsg
 3799              	.LVL486:
 3800 007a 4FF48052 		mov	r2, #4096
 3801 007e 4FF44071 		mov	r1, #768
 3802 0082 FFF7FEFF 		bl	Disp2x16Msg
 3803              	.LVL487:
1288:src/ctltrans.c ****   CTLProcess();
 3804              		.loc 1 1288 0
 3805 0086 FFF7FEFF 		bl	CTLProcess
 3806              	.LVL488:
1289:src/ctltrans.c ****     
1290:src/ctltrans.c ****   if (bAction & CLACT_APPROVED)
 3807              		.loc 1 1290 0
 3808 008a 3368     		ldr	r3, [r6]
 3809 008c 03F55E53 		add	r3, r3, #14208
 3810 0090 DB69     		ldr	r3, [r3, #28]
 3811 0092 93F90130 		ldrsb	r3, [r3, #1]
 3812 0096 002B     		cmp	r3, #0
1291:src/ctltrans.c ****     CL_LedSet(CTL_LED_TC);    // accept
 3813              		.loc 1 1291 0
 3814 0098 B4BF     		ite	lt
 3815 009a 0320     		movlt	r0, #3
1292:src/ctltrans.c ****   else
ARM GAS  C:\Users\AHMED~1.ELE\AppData\Local\Temp\ccu9CE5U.s 			page 97


1293:src/ctltrans.c ****     CL_LedSet(CTL_LED_AAC);   // decline
 3816              		.loc 1 1293 0
 3817 009c 0520     		movge	r0, #5
 3818 009e FFF7FEFF 		bl	CL_LedSet
 3819              	.LVL489:
1294:src/ctltrans.c **** 
1295:src/ctltrans.c ****   if ((RSP_DATA.w_rspcode != '0'*256+'0') && (RSP_DATA.w_rspcode != 'C'*256+'3'))
 3820              		.loc 1 1295 0
 3821 00a2 B4F86E35 		ldrh	r3, [r4, #1390]
 3822 00a6 43F23002 		movw	r2, #12336
 3823 00aa 9342     		cmp	r3, r2
 3824 00ac 0BD0     		beq	.L389
 3825              		.loc 1 1295 0 is_stmt 0 discriminator 1
 3826 00ae 44F23332 		movw	r2, #17203
 3827 00b2 9342     		cmp	r3, r2
 3828 00b4 07D0     		beq	.L389
1296:src/ctltrans.c ****     TransEnd((BOOLEAN)(RSP_DATA.b_response == TRANS_ACP));
 3829              		.loc 1 1296 0 is_stmt 1
 3830 00b6 064B     		ldr	r3, .L393+4
 3831 00b8 93F80007 		ldrb	r0, [r3, #1792]	@ zero_extendqisi2
 3832 00bc B0FA80F0 		clz	r0, r0
 3833 00c0 4009     		lsrs	r0, r0, #5
 3834 00c2 FFF7FEFF 		bl	TransEnd
 3835              	.LVL490:
 3836              	.L389:
1297:src/ctltrans.c ****   
1298:src/ctltrans.c ****   return TRUE;
 3837              		.loc 1 1298 0
 3838 00c6 0120     		movs	r0, #1
 3839              	.L382:
1299:src/ctltrans.c **** }
 3840              		.loc 1 1299 0
 3841 00c8 02B0     		add	sp, sp, #8
 3842              		.cfi_def_cfa_offset 16
 3843              		@ sp needed
 3844 00ca 70BD     		pop	{r4, r5, r6, pc}
 3845              	.L394:
 3846              		.align	2
 3847              	.L393:
 3848 00cc 00000000 		.word	gGDS
 3849 00d0 00000000 		.word	gGTS
 3850              		.cfi_endproc
 3851              	.LFE28:
 3852              		.size	CTLTrans, .-CTLTrans
 3853              		.section	.text.CtlUnderTransLimit,"ax",%progbits
 3854              		.align	1
 3855              		.global	CtlUnderTransLimit
 3856              		.thumb
 3857              		.thumb_func
 3858              		.type	CtlUnderTransLimit, %function
 3859              	CtlUnderTransLimit:
 3860              	.LFB29:
1300:src/ctltrans.c **** //*****************************************************************************
1301:src/ctltrans.c **** //  Function        : CtlUnderTransLimit
1302:src/ctltrans.c **** //  Description     : CTL trans limit checking.
1303:src/ctltrans.c **** //  Input           : N/A
1304:src/ctltrans.c **** //  Return          : N/A
ARM GAS  C:\Users\AHMED~1.ELE\AppData\Local\Temp\ccu9CE5U.s 			page 98


1305:src/ctltrans.c **** //  Note            : N/A
1306:src/ctltrans.c **** //  Globals Changed : N/A
1307:src/ctltrans.c **** //******************************************************************************
1308:src/ctltrans.c **** BOOLEAN CtlUnderTransLimit(DWORD aAmount)
1309:src/ctltrans.c **** {
 3861              		.loc 1 1309 0
 3862              		.cfi_startproc
 3863              		@ args = 0, pretend = 0, frame = 0
 3864              		@ frame_needed = 0, uses_anonymous_args = 0
 3865              		@ link register save eliminated.
 3866              	.LVL491:
1310:src/ctltrans.c ****   if (INPUT.dd_amount > CTL_TRANS_LIMIT){
 3867              		.loc 1 1310 0
 3868 0000 064B     		ldr	r3, .L396
 3869 0002 0021     		movs	r1, #0
 3870 0004 D3E90623 		ldrd	r2, [r3, #24]
 3871 0008 4CF25030 		movw	r0, #50000
 3872              	.LVL492:
 3873 000c 9942     		cmp	r1, r3
 3874 000e 08BF     		it	eq
 3875 0010 9042     		cmpeq	r0, r2
1311:src/ctltrans.c ****     //DispErrorMsg(GetConstMsg(EDC_CTL_AMT_EXCEED), MWLINE5);
1312:src/ctltrans.c ****     return FALSE;
1313:src/ctltrans.c ****   }
1314:src/ctltrans.c **** 
1315:src/ctltrans.c ****   return TRUE;
1316:src/ctltrans.c **** }
 3876              		.loc 1 1316 0
 3877 0012 2CBF     		ite	cs
 3878 0014 0120     		movcs	r0, #1
 3879 0016 0020     		movcc	r0, #0
 3880 0018 7047     		bx	lr
 3881              	.L397:
 3882 001a 00BF     		.align	2
 3883              	.L396:
 3884 001c 00000000 		.word	gGTS
 3885              		.cfi_endproc
 3886              	.LFE29:
 3887              		.size	CtlUnderTransLimit, .-CtlUnderTransLimit
 3888              		.section	.text.DispDefinedLogo,"ax",%progbits
 3889              		.align	1
 3890              		.global	DispDefinedLogo
 3891              		.thumb
 3892              		.thumb_func
 3893              		.type	DispDefinedLogo, %function
 3894              	DispDefinedLogo:
 3895              	.LFB30:
1317:src/ctltrans.c **** //=============================================================================
1318:src/ctltrans.c **** //  Function        : DispDefinedLogo
1319:src/ctltrans.c **** //  Description     : display and/or check pre-defined logo
1320:src/ctltrans.c **** //  Input           : 
1321:src/ctltrans.c **** //  Return          : -ve not support or err, 0 ok
1322:src/ctltrans.c **** //  Note            : N/A
1323:src/ctltrans.c **** //  Globals Changed : PC1205 new created
1324:src/ctltrans.c **** //=============================================================================
1325:src/ctltrans.c **** int DispDefinedLogo(DWORD aIdx, BOOLEAN aIsCheckAvailOnly)
1326:src/ctltrans.c **** {
ARM GAS  C:\Users\AHMED~1.ELE\AppData\Local\Temp\ccu9CE5U.s 			page 99


 3896              		.loc 1 1326 0
 3897              		.cfi_startproc
 3898              		@ args = 0, pretend = 0, frame = 0
 3899              		@ frame_needed = 0, uses_anonymous_args = 0
 3900              	.LVL493:
 3901 0000 10B5     		push	{r4, lr}
 3902              		.cfi_def_cfa_offset 8
 3903              		.cfi_offset 4, -8
 3904              		.cfi_offset 14, -4
1327:src/ctltrans.c ****   BYTE *pmLogo = NULL;
1328:src/ctltrans.c **** 
1329:src/ctltrans.c ****   switch (aIdx) {
 3905              		.loc 1 1329 0
 3906 0002 E0B9     		cbnz	r0, .L404
1330:src/ctltrans.c ****     case DP_LOGO_LANDINGZONE:
1331:src/ctltrans.c ****       #ifdef K_LandZoneSize
1332:src/ctltrans.c ****         if (aIsCheckAvailOnly) {
 3907              		.loc 1 1332 0
 3908 0004 E9B9     		cbnz	r1, .L399
1333:src/ctltrans.c ****           return 0;
1334:src/ctltrans.c ****         }
1335:src/ctltrans.c ****         pmLogo = os_malloc(K_LandZoneSize+4);
 3909              		.loc 1 1335 0
 3910 0006 9220     		movs	r0, #146
 3911              	.LVL494:
 3912 0008 4BF68C31 		movw	r1, #48012
 3913              	.LVL495:
 3914 000c FFF7FEFF 		bl	sys_func1
 3915              	.LVL496:
1336:src/ctltrans.c ****         if (pmLogo == NULL) {
 3916              		.loc 1 1336 0
 3917 0010 0446     		mov	r4, r0
 3918 0012 A0B1     		cbz	r0, .L404
1337:src/ctltrans.c ****           return -1;
1338:src/ctltrans.c ****         }
1339:src/ctltrans.c ****         if (os_config_read(K_CF_LandingZone, pmLogo) == TRUE) {
 3919              		.loc 1 1339 0
 3920 0014 B920     		movs	r0, #185
 3921              	.LVL497:
 3922 0016 3521     		movs	r1, #53
 3923 0018 2246     		mov	r2, r4
 3924 001a FFF7FEFF 		bl	sys_func2
 3925              	.LVL498:
 3926 001e 0128     		cmp	r0, #1
 3927 0020 07D1     		bne	.L401
1340:src/ctltrans.c ****           os_disp_putc(K_ClrHome);
 3928              		.loc 1 1340 0
 3929 0022 0C21     		movs	r1, #12
 3930 0024 1620     		movs	r0, #22
 3931 0026 FFF7FEFF 		bl	sys_func1
 3932              	.LVL499:
1341:src/ctltrans.c ****           os_disp_putg(pmLogo);
 3933              		.loc 1 1341 0
 3934 002a 1A20     		movs	r0, #26
 3935 002c 2146     		mov	r1, r4
 3936 002e FFF7FEFF 		bl	sys_func1
 3937              	.LVL500:
ARM GAS  C:\Users\AHMED~1.ELE\AppData\Local\Temp\ccu9CE5U.s 			page 100


 3938              	.L401:
1342:src/ctltrans.c ****         }
1343:src/ctltrans.c ****         os_free(pmLogo);
 3939              		.loc 1 1343 0
 3940 0032 2146     		mov	r1, r4
 3941 0034 9420     		movs	r0, #148
 3942 0036 FFF7FEFF 		bl	sys_func1
 3943              	.LVL501:
1344:src/ctltrans.c ****         return 0;
 3944              		.loc 1 1344 0
 3945 003a 0020     		movs	r0, #0
 3946 003c 10BD     		pop	{r4, pc}
 3947              	.LVL502:
 3948              	.L404:
1337:src/ctltrans.c ****         }
 3949              		.loc 1 1337 0
 3950 003e 4FF0FF30 		mov	r0, #-1
 3951              	.L399:
1345:src/ctltrans.c ****       #else
1346:src/ctltrans.c ****         break;
1347:src/ctltrans.c ****       #endif
1348:src/ctltrans.c ****     default:
1349:src/ctltrans.c ****       break;
1350:src/ctltrans.c ****   }
1351:src/ctltrans.c **** 
1352:src/ctltrans.c ****   if (pmLogo != NULL) {
1353:src/ctltrans.c ****     os_free(pmLogo);
1354:src/ctltrans.c ****   }
1355:src/ctltrans.c ****   return -1;
1356:src/ctltrans.c **** }
 3952              		.loc 1 1356 0
 3953 0042 10BD     		pop	{r4, pc}
 3954              		.cfi_endproc
 3955              	.LFE30:
 3956              		.size	DispDefinedLogo, .-DispDefinedLogo
 3957              		.global	wCTLDummyTags
 3958              		.global	wCTLOnlineTags
 3959              		.section	.rodata
 3960              		.align	1
 3961              		.set	.LANCHOR1,. + 0
 3962              		.type	CSWTCH.54, %object
 3963              		.size	CSWTCH.54, 4
 3964              	CSWTCH.54:
 3965 0000 01       		.byte	1
 3966 0001 02       		.byte	2
 3967 0002 00       		.byte	0
 3968 0003 03       		.byte	3
 3969              	.LC0:
 3970 0004 0000FF00 		.ascii	"\000\000\377\000\000"
 3970      00
 3971              	.LC1:
 3972 0009 0100FF00 		.ascii	"\001\000\377\000\000"
 3972      00
 3973              	.LC2:
 3974 000e 0200FF00 		.ascii	"\002\000\377\000\000"
 3974      00
 3975              	.LC3:
ARM GAS  C:\Users\AHMED~1.ELE\AppData\Local\Temp\ccu9CE5U.s 			page 101


 3976 0013 0300FF00 		.ascii	"\003\000\377\000\000"
 3976      00
 3977              	.LC4:
 3978 0018 00FF0000 		.ascii	"\000\377\000\000\000"
 3978      00
 3979              	.LC5:
 3980 001d 01FF0000 		.ascii	"\001\377\000\000\000"
 3980      00
 3981              	.LC6:
 3982 0022 02FF0000 		.ascii	"\002\377\000\000\000"
 3982      00
 3983              	.LC7:
 3984 0027 03FF0000 		.ascii	"\003\377\000\000\000"
 3984      00
 3985              	.LC8:
 3986 002c 000232FF 		.ascii	"\000\0022\377\000"
 3986      00
 3987 0031 00       		.space	1
 3988              		.type	wCTLDummyTags, %object
 3989              		.size	wCTLDummyTags, 12
 3990              	wCTLDummyTags:
 3991 0032 089F     		.short	-24824
 3992 0034 0200     		.short	2
 3993 0036 349F     		.short	-24780
 3994 0038 0300     		.short	3
 3995 003a 0000     		.short	0
 3996 003c 0000     		.short	0
 3997              		.type	wCTLOnlineTags, %object
 3998              		.size	wCTLOnlineTags, 40
 3999              	wCTLOnlineTags:
 4000 003e 2A5F     		.short	24362
 4001 0040 345F     		.short	24372
 4002 0042 8200     		.short	130
 4003 0044 8400     		.short	132
 4004 0046 9500     		.short	149
 4005 0048 9A00     		.short	154
 4006 004a 9C00     		.short	156
 4007 004c 029F     		.short	-24830
 4008 004e 039F     		.short	-24829
 4009 0050 089F     		.short	-24824
 4010 0052 109F     		.short	-24816
 4011 0054 1A9F     		.short	-24806
 4012 0056 219F     		.short	-24799
 4013 0058 269F     		.short	-24794
 4014 005a 279F     		.short	-24793
 4015 005c 349F     		.short	-24780
 4016 005e 359F     		.short	-24779
 4017 0060 369F     		.short	-24778
 4018 0062 379F     		.short	-24777
 4019 0064 0000     		.short	0
 4020              	.LC22:
 4021 0066 1FA30600 		.ascii	"\037\243\006\000\000\000\000\000\000\000"
 4021      00000000 
 4021      0000
 4022              		.section	.rodata.str1.1,"aMS",%progbits,1
 4023              	.LC9:
 4024 0000 496E00   		.ascii	"In\000"
ARM GAS  C:\Users\AHMED~1.ELE\AppData\Local\Temp\ccu9CE5U.s 			page 102


 4025              	.LC10:
 4026 0003 4F757400 		.ascii	"Out\000"
 4027              	.LC11:
 4028 0007 656D7663 		.ascii	"emvclMsg(%d)-%s\012\000"
 4028      6C4D7367 
 4028      28256429 
 4028      2D25730A 
 4028      00
 4029              	.LC12:
 4030 0018 25303258 		.ascii	"%02X\000"
 4030      00
 4031              	.LC13:
 4032 001d 2E2E00   		.ascii	"..\000"
 4033              	.LC14:
 4034 0020 43544C20 		.ascii	"CTL Msg Out(%d):\000"
 4034      4D736720 
 4034      4F757428 
 4034      2564293A 
 4034      00
 4035              	.LC15:
 4036 0031 0D0A00   		.ascii	"\015\012\000"
 4037              	.LC16:
 4038 0034 0C417578 		.ascii	"\014AuxOpen Err\000"
 4038      4F70656E 
 4038      20457272 
 4038      00
 4039              	.LC17:
 4040 0041 4D6F6269 		.ascii	"Mobile CVM Done\000"
 4040      6C652043 
 4040      564D2044 
 4040      6F6E6500 
 4041              	.LC18:
 4042 0051 593100   		.ascii	"Y1\000"
 4043              	.LC19:
 4044 0054 434C4552 		.ascii	"CLERR = %02x\000"
 4044      52203D20 
 4044      25303278 
 4044      00
 4045              	.LC20:
 4046 0061 9F020600 		.ascii	"\237\002\006\000"
 4047              	.LC21:
 4048 0065 9C012000 		.ascii	"\234\001 \000"
 4049              	.LC23:
 4050 0069 1FA105FF 		.ascii	"\037\241\005\377\377\377\377\377\000"
 4050      FFFFFFFF 
 4050      00
 4051              	.LC24:
 4052 0072 544C562D 		.ascii	"TLV-Out:\012\000"
 4052      4F75743A 
 4052      0A00
 4053              	.LC25:
 4054 007c 25303258 		.ascii	"%02X \000"
 4054      2000
 4055              	.LC26:
 4056 0082 0A5B456E 		.ascii	"\012[End]\005\000"
 4056      645D0500 
 4057              	.LC27:
ARM GAS  C:\Users\AHMED~1.ELE\AppData\Local\Temp\ccu9CE5U.s 			page 103


 4058 008a 62416374 		.ascii	"bAction=%02x\000"
 4058      696F6E3D 
 4058      25303278 
 4058      00
 4059              	.LC28:
 4060 0097 502E5363 		.ascii	"P.Sch=\000"
 4060      683D00
 4061              	.LC29:
 4062 009e 54726B32 		.ascii	"Trk2=\000"
 4062      3D00
 4063              	.LC30:
 4064 00a4 54786E2E 		.ascii	"Txn.CVM=\000"
 4064      43564D3D 
 4064      00
 4065              	.LC31:
 4066 00ad 2C204354 		.ascii	", CTQ=\000"
 4066      513D00
 4067              		.bss
 4068              		.align	2
 4069              		.set	.LANCHOR0,. + 0
