ARM GAS  C:\Users\AHMED~1.ELE\AppData\Local\Temp\ccQGHINQ.s 			page 1


   1              		.syntax unified
   2              		.cpu cortex-a5
   3              		.fpu softvfp
   4              		.eabi_attribute 20, 1
   5              		.eabi_attribute 21, 1
   6              		.eabi_attribute 23, 3
   7              		.eabi_attribute 24, 1
   8              		.eabi_attribute 25, 1
   9              		.eabi_attribute 26, 1
  10              		.eabi_attribute 30, 4
  11              		.eabi_attribute 34, 0
  12              		.eabi_attribute 18, 4
  13              		.thumb
  14              		.file	"Ecr.c"
  15              		.text
  16              	.Ltext0:
  17              		.cfi_sections	.debug_frame
  18              		.section	.text.EcrGetAmount,"ax",%progbits
  19              		.align	1
  20              		.global	EcrGetAmount
  21              		.thumb
  22              		.thumb_func
  23              		.type	EcrGetAmount, %function
  24              	EcrGetAmount:
  25              	.LFB0:
  26              		.file 1 "src/Ecr.c"
   1:src/Ecr.c     **** //-----------------------------------------------------------------------------
   2:src/Ecr.c     **** //  File          : ecr.c
   3:src/Ecr.c     **** //  Module        :
   4:src/Ecr.c     **** //  Description   : Include routines for ecr handling.
   5:src/Ecr.c     **** //  Author        : Lewis
   6:src/Ecr.c     **** //  Notes         :
   7:src/Ecr.c     **** //
   8:src/Ecr.c     **** // ============================================================================
   9:src/Ecr.c     **** // | Naming conventions                                                       |
  10:src/Ecr.c     **** // | ~~~~~~~~~~~~~~~~~~                                                       |
  11:src/Ecr.c     **** // |        Struct define : Leading T                                         |
  12:src/Ecr.c     **** // |         Struct/Array : Leading s                                         |
  13:src/Ecr.c     **** // |             Constant : Leading K                                         |
  14:src/Ecr.c     **** // |      Global Variable : Leading g  (variable use outside one C file)      |
  15:src/Ecr.c     **** // |                                                                          |
  16:src/Ecr.c     **** // |   BYTE( 8 Bits) size : Leading b                                         |
  17:src/Ecr.c     **** // |   CHAR( 8 Bits) size : Leading c                                         |
  18:src/Ecr.c     **** // |   WORD(16 Bits) size : Leading w                                         |
  19:src/Ecr.c     **** // |  DWORD(32 Bits) size : Leading d                                         |
  20:src/Ecr.c     **** // |    int(32 Bits) size : Leading i                                         |
  21:src/Ecr.c     **** // | DDWORD(64 Bits) size : Leading dd                                        |
  22:src/Ecr.c     **** // |              Pointer : Leading p                                         |
  23:src/Ecr.c     **** // |                                                                          |
  24:src/Ecr.c     **** // |    Function argument : Leading a                                         |
  25:src/Ecr.c     **** // |       Local Variable : All lower case                                    |
  26:src/Ecr.c     **** // |                                                                          |
  27:src/Ecr.c     **** // | Examples:                                                                |
  28:src/Ecr.c     **** // |                Array : Leading s, (sb = arrary of byte, etc)             |
  29:src/Ecr.c     **** // |              Pointer : Leading p, (pb = pointer of byte, etc)            |
  30:src/Ecr.c     **** // ============================================================================
  31:src/Ecr.c     **** //
ARM GAS  C:\Users\AHMED~1.ELE\AppData\Local\Temp\ccQGHINQ.s 			page 2


  32:src/Ecr.c     **** //  Date          Who         Action
  33:src/Ecr.c     **** //  ------------  ----------- -------------------------------------------------
  34:src/Ecr.c     **** //  24 Sept 2008  Lewis       Initial Version.
  35:src/Ecr.c     **** //-----------------------------------------------------------------------------
  36:src/Ecr.c     **** #include <string.h>
  37:src/Ecr.c     **** #include "apm.h"
  38:src/Ecr.c     **** #include "util.h"
  39:src/Ecr.c     **** #include "ecrdll.h"
  40:src/Ecr.c     **** #include "tlvutil.h"
  41:src/Ecr.c     **** #include "corevar.h"
  42:src/Ecr.c     **** #include "constant.h"
  43:src/Ecr.c     **** #include "tranutil.h"
  44:src/Ecr.c     **** #include "input.h"
  45:src/Ecr.c     **** #include "sale.h"
  46:src/Ecr.c     **** #include "saleoffl.h"
  47:src/Ecr.c     **** #include "emvtrans.h"
  48:src/Ecr.c     **** #include "settle.h"
  49:src/Ecr.c     **** #include "ctltrans.h"
  50:src/Ecr.c     **** #include "ecr.h"
  51:src/Ecr.c     **** #include "hardware.h"
  52:src/Ecr.c     **** //#include "welcome.h"
  53:src/Ecr.c     **** //#include "transacp.h"
  54:src/Ecr.c     **** //#include "transrej.h"
  55:src/Ecr.c     **** 
  56:src/Ecr.c     **** //-----------------------------------------------------------------------------
  57:src/Ecr.c     **** //  Defines
  58:src/Ecr.c     **** //-----------------------------------------------------------------------------
  59:src/Ecr.c     **** struct ECRRESPTBL {
  60:src/Ecr.c     ****   WORD *pw_tag_list;
  61:src/Ecr.c     **** };
  62:src/Ecr.c     **** //-----------------------------------------------------------------------------
  63:src/Ecr.c     **** //  Constants
  64:src/Ecr.c     **** //-----------------------------------------------------------------------------
  65:src/Ecr.c     **** const WORD KSaleResp[] = {
  66:src/Ecr.c     ****   ECRTAG_PAN,       ECRTAG_TXNAMT,   ECRTAG_TRACE,     ECRTAG_TXNTIME,
  67:src/Ecr.c     ****   ECRTAG_TXNDATE,   ECRTAG_EXPDATE,  ECRTAG_RRN,       ECRTAG_AUTH_RESP,
  68:src/Ecr.c     ****   ECRTAG_RESP_CODE, ECRTAG_TERMID,   ECRTAG_MERCHID,   ECRTAG_CARDHOLDERNAME,
  69:src/Ecr.c     ****   ECRTAG_ADDAMT,    ECRTAG_BATCHNO,  ECRTAG_ECRREF,    0x00
  70:src/Ecr.c     **** };
  71:src/Ecr.c     **** 
  72:src/Ecr.c     **** const WORD KOfflSaleResp[] = {
  73:src/Ecr.c     ****   ECRTAG_PAN,       ECRTAG_TXNAMT,   ECRTAG_TRACE,     ECRTAG_TXNTIME,
  74:src/Ecr.c     ****   ECRTAG_TXNDATE,   ECRTAG_EXPDATE,                    ECRTAG_AUTH_RESP,
  75:src/Ecr.c     ****   ECRTAG_RESP_CODE, ECRTAG_TERMID,   ECRTAG_MERCHID,   ECRTAG_CARDHOLDERNAME,
  76:src/Ecr.c     ****   ECRTAG_ADDAMT,    ECRTAG_BATCHNO,  ECRTAG_ECRREF,    0x00
  77:src/Ecr.c     **** };
  78:src/Ecr.c     **** 
  79:src/Ecr.c     **** const WORD KLastTrace[] = {
  80:src/Ecr.c     ****   ECRTAG_TRACE, ECRTAG_ECRREF, ECRTAG_RESP_CODE, 0x00
  81:src/Ecr.c     **** };
  82:src/Ecr.c     **** 
  83:src/Ecr.c     **** const WORD KHostNameResp[] = {
  84:src/Ecr.c     ****   ECRTAG_RESP_CODE, ECRTAG_HOSTNAME, 0x00
  85:src/Ecr.c     **** };
  86:src/Ecr.c     **** 
  87:src/Ecr.c     **** const WORD KHostTotResp[] = {
  88:src/Ecr.c     ****   ECRTAG_RESP_CODE, ECRTAG_HOSTTOT, 0x00
ARM GAS  C:\Users\AHMED~1.ELE\AppData\Local\Temp\ccQGHINQ.s 			page 3


  89:src/Ecr.c     **** };
  90:src/Ecr.c     **** const WORD KSettleResp[] = {
  91:src/Ecr.c     ****   ECRTAG_RESP_CODE, 0x00
  92:src/Ecr.c     **** };
  93:src/Ecr.c     **** const WORD *KEcrRespTbl[MAX_ECREDC_CMD] = {
  94:src/Ecr.c     ****   KSaleResp,      // ECR_EDC_SALE
  95:src/Ecr.c     ****   KOfflSaleResp,  // ECR_EDC_OFFLSALE
  96:src/Ecr.c     ****   KSaleResp,      // ECR_EDC_REFUND
  97:src/Ecr.c     ****   KSaleResp,      // ECR_EDC_VOID
  98:src/Ecr.c     ****   KSaleResp,      // ECR_EDC_GETTXN
  99:src/Ecr.c     ****   KLastTrace,     // ECR_EDC_LASTTRACE
 100:src/Ecr.c     ****   KHostNameResp,  // ECR_EDC_HOSTNAME
 101:src/Ecr.c     ****   KHostTotResp,   // ECR_EDC_HOSTTOTAL
 102:src/Ecr.c     ****   KSaleResp,      // ECR_EDC_AUTH
 103:src/Ecr.c     ****   KSettleResp,    // ECR_EDC_SETTLE
 104:src/Ecr.c     **** };
 105:src/Ecr.c     **** //*****************************************************************************
 106:src/Ecr.c     **** //  Function        : EcrGetAmount
 107:src/Ecr.c     **** //  Description     : Retrieve Transaction Amount from ECR data.
 108:src/Ecr.c     **** //  Input           : N/A
 109:src/Ecr.c     **** //  Return          : amount
 110:src/Ecr.c     **** //  Note            : N/A
 111:src/Ecr.c     **** //  Globals Changed : N/A
 112:src/Ecr.c     **** //*****************************************************************************
 113:src/Ecr.c     **** DDWORD EcrGetAmount(void)
 114:src/Ecr.c     **** {
  27              		.loc 1 114 0
  28              		.cfi_startproc
  29              		@ args = 0, pretend = 0, frame = 0
  30              		@ frame_needed = 0, uses_anonymous_args = 0
  31 0000 38B5     		push	{r3, r4, r5, lr}
  32              		.cfi_def_cfa_offset 16
  33              		.cfi_offset 3, -16
  34              		.cfi_offset 4, -12
  35              		.cfi_offset 5, -8
  36              		.cfi_offset 14, -4
 115:src/Ecr.c     ****   BYTE *pbTlv;
 116:src/Ecr.c     ****   DWORD ecrdata_len;
 117:src/Ecr.c     **** 
 118:src/Ecr.c     ****   if (gGDS->i_ecr_len <= 2)
  37              		.loc 1 118 0
  38 0002 124B     		ldr	r3, .L9
  39 0004 1868     		ldr	r0, [r3]
  40 0006 00F58443 		add	r3, r0, #16896
  41 000a D96D     		ldr	r1, [r3, #92]
  42 000c 0229     		cmp	r1, #2
  43 000e 19DD     		ble	.L3
  44              	.LVL0:
 119:src/Ecr.c     ****     return 0;
 120:src/Ecr.c     **** 
 121:src/Ecr.c     ****   ecrdata_len = gGDS->i_ecr_len - 2;
  45              		.loc 1 121 0
  46 0010 0239     		subs	r1, r1, #2
  47              	.LVL1:
 122:src/Ecr.c     ****   if (ecrdata_len) {
 123:src/Ecr.c     ****     pbTlv = TlvSeek(gGDS->s_ecr_data.sb_content, ecrdata_len, ECRTAG_TXNAMT);
  48              		.loc 1 123 0
ARM GAS  C:\Users\AHMED~1.ELE\AppData\Local\Temp\ccQGHINQ.s 			page 4


  49 0012 00F57150 		add	r0, r0, #15424
  50 0016 1A30     		adds	r0, r0, #26
  51 0018 89B2     		uxth	r1, r1
  52              	.LVL2:
  53 001a 4DF60472 		movw	r2, #57092
  54 001e FFF7FEFF 		bl	TlvSeek
  55              	.LVL3:
 124:src/Ecr.c     ****     if (pbTlv != NULL) {
  56              		.loc 1 124 0
  57 0022 0446     		mov	r4, r0
  58 0024 70B1     		cbz	r0, .L3
 125:src/Ecr.c     ****       TlvVPtr(pbTlv);
  59              		.loc 1 125 0
  60 0026 FFF7FEFF 		bl	TlvVPtr
  61              	.LVL4:
 126:src/Ecr.c     ****       return bcd2DDWORD(TlvVPtr(pbTlv), TlvLen(pbTlv));
  62              		.loc 1 126 0
  63 002a 2046     		mov	r0, r4
  64 002c FFF7FEFF 		bl	TlvVPtr
  65              	.LVL5:
  66 0030 0546     		mov	r5, r0
  67 0032 2046     		mov	r0, r4
  68 0034 FFF7FEFF 		bl	TlvLen
  69              	.LVL6:
  70 0038 0146     		mov	r1, r0
  71 003a 2846     		mov	r0, r5
 127:src/Ecr.c     ****     }
 128:src/Ecr.c     ****   }
 129:src/Ecr.c     ****   return 0;
 130:src/Ecr.c     **** }
  72              		.loc 1 130 0
  73 003c BDE83840 		pop	{r3, r4, r5, lr}
  74              		.cfi_remember_state
  75              		.cfi_restore 14
  76              		.cfi_restore 5
  77              		.cfi_restore 4
  78              		.cfi_restore 3
  79              		.cfi_def_cfa_offset 0
  80              	.LVL7:
 126:src/Ecr.c     ****       return bcd2DDWORD(TlvVPtr(pbTlv), TlvLen(pbTlv));
  81              		.loc 1 126 0
  82 0040 FFF7FEBF 		b	bcd2DDWORD
  83              	.LVL8:
  84              	.L3:
  85              		.cfi_restore_state
  86              		.loc 1 130 0
  87 0044 0020     		movs	r0, #0
  88 0046 0021     		movs	r1, #0
  89 0048 38BD     		pop	{r3, r4, r5, pc}
  90              	.L10:
  91 004a 00BF     		.align	2
  92              	.L9:
  93 004c 00000000 		.word	gGDS
  94              		.cfi_endproc
  95              	.LFE0:
  96              		.size	EcrGetAmount, .-EcrGetAmount
  97              		.section	.text.EcrGetRef,"ax",%progbits
ARM GAS  C:\Users\AHMED~1.ELE\AppData\Local\Temp\ccQGHINQ.s 			page 5


  98              		.align	1
  99              		.global	EcrGetRef
 100              		.thumb
 101              		.thumb_func
 102              		.type	EcrGetRef, %function
 103              	EcrGetRef:
 104              	.LFB1:
 131:src/Ecr.c     **** //*****************************************************************************
 132:src/Ecr.c     **** //  Function        : EcrGetRef
 133:src/Ecr.c     **** //  Description     : Retrieve Ecr Reference number from ECR data.
 134:src/Ecr.c     **** //  Input           : N/A
 135:src/Ecr.c     **** //  Return          : amount
 136:src/Ecr.c     **** //  Note            : N/A
 137:src/Ecr.c     **** //  Globals Changed : N/A
 138:src/Ecr.c     **** //*****************************************************************************
 139:src/Ecr.c     **** DWORD EcrGetRef(BYTE *aEcrRef)
 140:src/Ecr.c     **** {
 105              		.loc 1 140 0
 106              		.cfi_startproc
 107              		@ args = 0, pretend = 0, frame = 0
 108              		@ frame_needed = 0, uses_anonymous_args = 0
 109              	.LVL9:
 110 0000 10B5     		push	{r4, lr}
 111              		.cfi_def_cfa_offset 8
 112              		.cfi_offset 4, -8
 113              		.cfi_offset 14, -4
 141:src/Ecr.c     ****   BYTE *pb, *pbTlv;
 142:src/Ecr.c     ****   DWORD ecrdata_len;
 143:src/Ecr.c     **** 
 144:src/Ecr.c     ****   memset(aEcrRef, ' ', 16);
 114              		.loc 1 144 0
 115 0002 2021     		movs	r1, #32
 116 0004 1022     		movs	r2, #16
 140:src/Ecr.c     ****   BYTE *pb, *pbTlv;
 117              		.loc 1 140 0
 118 0006 0446     		mov	r4, r0
 119              		.loc 1 144 0
 120 0008 FFF7FEFF 		bl	memset
 121              	.LVL10:
 145:src/Ecr.c     ****   if (gGDS->i_ecr_len <= 2)
 122              		.loc 1 145 0
 123 000c 0E4B     		ldr	r3, .L18
 124 000e 1868     		ldr	r0, [r3]
 125 0010 00F58443 		add	r3, r0, #16896
 126 0014 D96D     		ldr	r1, [r3, #92]
 127 0016 0229     		cmp	r1, #2
 128 0018 01DC     		bgt	.L12
 129              	.L14:
 146:src/Ecr.c     ****     return 0;
 130              		.loc 1 146 0
 131 001a 0020     		movs	r0, #0
 132 001c 10BD     		pop	{r4, pc}
 133              	.LVL11:
 134              	.L12:
 147:src/Ecr.c     ****   ecrdata_len = gGDS->i_ecr_len - 2;
 135              		.loc 1 147 0
 136 001e 0239     		subs	r1, r1, #2
ARM GAS  C:\Users\AHMED~1.ELE\AppData\Local\Temp\ccQGHINQ.s 			page 6


 137              	.LVL12:
 148:src/Ecr.c     ****   if (ecrdata_len) {
 149:src/Ecr.c     ****     pbTlv = TlvSeek(gGDS->s_ecr_data.sb_content, ecrdata_len, ECRTAG_ECRREF);
 138              		.loc 1 149 0
 139 0020 00F57150 		add	r0, r0, #15424
 140 0024 1A30     		adds	r0, r0, #26
 141 0026 89B2     		uxth	r1, r1
 142              	.LVL13:
 143 0028 4DF68172 		movw	r2, #57217
 144 002c FFF7FEFF 		bl	TlvSeek
 145              	.LVL14:
 150:src/Ecr.c     ****     if (pbTlv != NULL) {
 146              		.loc 1 150 0
 147 0030 0028     		cmp	r0, #0
 148 0032 F2D0     		beq	.L14
 151:src/Ecr.c     ****       pb = TlvVPtr(pbTlv);
 149              		.loc 1 151 0
 150 0034 FFF7FEFF 		bl	TlvVPtr
 151              	.LVL15:
 152:src/Ecr.c     ****       memcpy(aEcrRef, pb, 16);
 152              		.loc 1 152 0
 153 0038 1022     		movs	r2, #16
 151:src/Ecr.c     ****       pb = TlvVPtr(pbTlv);
 154              		.loc 1 151 0
 155 003a 0146     		mov	r1, r0
 156              	.LVL16:
 157              		.loc 1 152 0
 158 003c 2046     		mov	r0, r4
 159              	.LVL17:
 160 003e FFF7FEFF 		bl	memcpy
 161              	.LVL18:
 153:src/Ecr.c     ****       return 16;
 162              		.loc 1 153 0
 163 0042 1020     		movs	r0, #16
 154:src/Ecr.c     ****     }
 155:src/Ecr.c     ****   }
 156:src/Ecr.c     ****   return 0;
 157:src/Ecr.c     **** }
 164              		.loc 1 157 0
 165 0044 10BD     		pop	{r4, pc}
 166              	.LVL19:
 167              	.L19:
 168 0046 00BF     		.align	2
 169              	.L18:
 170 0048 00000000 		.word	gGDS
 171              		.cfi_endproc
 172              	.LFE1:
 173              		.size	EcrGetRef, .-EcrGetRef
 174              		.section	.text.EcrResp,"ax",%progbits
 175              		.align	1
 176              		.global	EcrResp
 177              		.thumb
 178              		.thumb_func
 179              		.type	EcrResp, %function
 180              	EcrResp:
 181              	.LFB2:
 158:src/Ecr.c     **** //*****************************************************************************
ARM GAS  C:\Users\AHMED~1.ELE\AppData\Local\Temp\ccQGHINQ.s 			page 7


 159:src/Ecr.c     **** //  Function        : EcrResp
 160:src/Ecr.c     **** //  Description     : Pack and send ECR resp.
 161:src/Ecr.c     **** //  Input           : N/A
 162:src/Ecr.c     **** //  Return          : N/A
 163:src/Ecr.c     **** //  Note            : N/A
 164:src/Ecr.c     **** //  Globals Changed : N/A
 165:src/Ecr.c     **** //*****************************************************************************
 166:src/Ecr.c     **** void EcrResp(void)
 167:src/Ecr.c     **** {
 182              		.loc 1 167 0
 183              		.cfi_startproc
 184              		@ args = 0, pretend = 0, frame = 64
 185              		@ frame_needed = 0, uses_anonymous_args = 0
 186 0000 F0B5     		push	{r4, r5, r6, r7, lr}
 187              		.cfi_def_cfa_offset 20
 188              		.cfi_offset 4, -20
 189              		.cfi_offset 5, -16
 190              		.cfi_offset 6, -12
 191              		.cfi_offset 7, -8
 192              		.cfi_offset 14, -4
 168:src/Ecr.c     ****   const WORD *pw;
 169:src/Ecr.c     ****   BYTE *pb, ab_tmp[32], ab_totresp[32], *pb_tmp;
 170:src/Ecr.c     ****   WORD w_rspcode, w_tmp;
 171:src/Ecr.c     **** #if 0
 172:src/Ecr.c     ****   BYTE *wav_dat;
 173:src/Ecr.c     ****   const BYTE *wav_ptr;
 174:src/Ecr.c     ****   DWORD wav_size;
 175:src/Ecr.c     **** #endif
 176:src/Ecr.c     **** 
 177:src/Ecr.c     ****   if ((gGDS->i_ecr_len == 0) || (gGDS->s_ecr_data.b_cmd >= MAX_ECREDC_CMD))
 193              		.loc 1 177 0
 194 0002 944F     		ldr	r7, .L57
 167:src/Ecr.c     ****   const WORD *pw;
 195              		.loc 1 167 0
 196 0004 93B0     		sub	sp, sp, #76
 197              		.cfi_def_cfa_offset 96
 198              		.loc 1 177 0
 199 0006 3C68     		ldr	r4, [r7]
 200 0008 04F58443 		add	r3, r4, #16896
 201 000c DB6D     		ldr	r3, [r3, #92]
 202 000e 002B     		cmp	r3, #0
 203 0010 00F01E81 		beq	.L20
 204              		.loc 1 177 0 is_stmt 0 discriminator 1
 205 0014 04F57154 		add	r4, r4, #15424
 206 0018 637E     		ldrb	r3, [r4, #25]	@ zero_extendqisi2
 207 001a 092B     		cmp	r3, #9
 208 001c 00F21881 		bhi	.L20
 209              	.LVL20:
 178:src/Ecr.c     ****     return;
 179:src/Ecr.c     **** 
 180:src/Ecr.c     ****   w_rspcode = 'L'*256+'C';
 181:src/Ecr.c     ****   pb = gGDS->s_ecr_data.sb_content;
 182:src/Ecr.c     ****   pw = KEcrRespTbl[gGDS->s_ecr_data.b_cmd];
 210              		.loc 1 182 0 is_stmt 1
 211 0020 8D4A     		ldr	r2, .L57+4
 181:src/Ecr.c     ****   pw = KEcrRespTbl[gGDS->s_ecr_data.b_cmd];
 212              		.loc 1 181 0
ARM GAS  C:\Users\AHMED~1.ELE\AppData\Local\Temp\ccQGHINQ.s 			page 8


 213 0022 1A34     		adds	r4, r4, #26
 214              	.LVL21:
 215 0024 52F82350 		ldr	r5, [r2, r3, lsl #2]
 216 0028 023D     		subs	r5, r5, #2
 217              	.LVL22:
 218              	.L22:
 183:src/Ecr.c     ****   while (*pw != 0x00) {
 219              		.loc 1 183 0
 220 002a 35F8026F 		ldrh	r6, [r5, #2]!
 221              	.LVL23:
 222 002e 002E     		cmp	r6, #0
 223 0030 00F0FA80 		beq	.L56
 184:src/Ecr.c     ****     switch (*pw) {
 224              		.loc 1 184 0
 225 0034 4DF62773 		movw	r3, #57127
 226 0038 9E42     		cmp	r6, r3
 227 003a 00F0B780 		beq	.L24
 228 003e 36D8     		bhi	.L25
 229 0040 4DF60C73 		movw	r3, #57100
 230 0044 9E42     		cmp	r6, r3
 231 0046 00F0A080 		beq	.L26
 232 004a 1FD8     		bhi	.L27
 233 004c 4DF60473 		movw	r3, #57092
 234 0050 9E42     		cmp	r6, r3
 235 0052 00F09180 		beq	.L28
 236 0056 0733     		adds	r3, r3, #7
 237 0058 9E42     		cmp	r6, r3
 238 005a 00F09280 		beq	.L29
 239 005e 4DF60273 		movw	r3, #57090
 240 0062 9E42     		cmp	r6, r3
 241 0064 E1D1     		bne	.L22
 185:src/Ecr.c     ****       case ECRTAG_PAN:
 186:src/Ecr.c     ****         split(ab_tmp, INPUT.sb_pan, 10);
 242              		.loc 1 186 0
 243 0066 02A8     		add	r0, sp, #8
 244 0068 7C49     		ldr	r1, .L57+8
 245 006a 0A22     		movs	r2, #10
 246 006c FFF7FEFF 		bl	split
 247              	.LVL24:
 187:src/Ecr.c     ****         w_tmp = fndb(&ab_tmp[1], 'F', 19);
 248              		.loc 1 187 0
 249 0070 4621     		movs	r1, #70
 250 0072 1322     		movs	r2, #19
 251 0074 0DF10900 		add	r0, sp, #9
 252 0078 FFF7FEFF 		bl	fndb
 253              	.LVL25:
 188:src/Ecr.c     ****         w_tmp = (w_tmp/2) + (w_tmp%2);
 189:src/Ecr.c     ****         pb += TlvPack(*pw, w_tmp, INPUT.sb_pan, pb);
 254              		.loc 1 189 0
 255 007c 774A     		ldr	r2, .L57+8
 187:src/Ecr.c     ****         w_tmp = fndb(&ab_tmp[1], 'F', 19);
 256              		.loc 1 187 0
 257 007e 83B2     		uxth	r3, r0
 258              	.LVL26:
 188:src/Ecr.c     ****         w_tmp = (w_tmp/2) + (w_tmp%2);
 259              		.loc 1 188 0
 260 0080 03F00101 		and	r1, r3, #1
ARM GAS  C:\Users\AHMED~1.ELE\AppData\Local\Temp\ccQGHINQ.s 			page 9


 261              	.LVL27:
 262              		.loc 1 189 0
 263 0084 2888     		ldrh	r0, [r5]
 264 0086 01EB5301 		add	r1, r1, r3, lsr #1
 265              	.LVL28:
 266 008a C8E0     		b	.L54
 267              	.LVL29:
 268              	.L27:
 184:src/Ecr.c     ****       case ECRTAG_PAN:
 269              		.loc 1 184 0
 270 008c 4DF60E73 		movw	r3, #57102
 271 0090 9E42     		cmp	r6, r3
 272 0092 00F08380 		beq	.L31
 273 0096 7CD3     		bcc	.L32
 274 0098 1733     		adds	r3, r3, #23
 275 009a 9E42     		cmp	r6, r3
 276 009c 00F08280 		beq	.L33
 277 00a0 0133     		adds	r3, r3, #1
 278 00a2 9E42     		cmp	r6, r3
 279 00a4 C1D1     		bne	.L22
 190:src/Ecr.c     ****         break;
 191:src/Ecr.c     ****       case ECRTAG_TXNAMT:
 192:src/Ecr.c     ****         DDWORD2bcd(ab_tmp, INPUT.dd_amount);
 193:src/Ecr.c     ****         pb += TlvPack(*pw, 6, &ab_tmp[4], pb);
 194:src/Ecr.c     ****         break;
 195:src/Ecr.c     ****       case ECRTAG_TRACE:
 196:src/Ecr.c     ****         pb += TlvPack(*pw, 3, INPUT.sb_trace_no, pb);
 197:src/Ecr.c     ****         break;
 198:src/Ecr.c     ****       case ECRTAG_TXNTIME:
 199:src/Ecr.c     ****         pb += TlvPack(*pw, 3, &RSP_DATA.s_dtg.b_hour, pb);
 200:src/Ecr.c     ****         break;
 201:src/Ecr.c     ****       case ECRTAG_TXNDATE:
 202:src/Ecr.c     ****         pb += TlvPack(*pw, 2, &RSP_DATA.s_dtg.b_month, pb);
 203:src/Ecr.c     ****         break;
 204:src/Ecr.c     ****       case ECRTAG_EXPDATE:
 205:src/Ecr.c     ****         pb += TlvPack(*pw, 2, INPUT.sb_exp_date, pb);
 206:src/Ecr.c     ****         break;
 207:src/Ecr.c     ****       case ECRTAG_RRN:
 208:src/Ecr.c     ****         pb += TlvPack(*pw, 12, RSP_DATA.sb_rrn, pb);
 209:src/Ecr.c     ****         break;
 210:src/Ecr.c     ****       case ECRTAG_AUTH_RESP:
 211:src/Ecr.c     ****         pb += TlvPack(*pw, 6, RSP_DATA.sb_auth_code, pb);
 280              		.loc 1 211 0
 281 00a6 3046     		mov	r0, r6
 282 00a8 0621     		movs	r1, #6
 283 00aa 6D4A     		ldr	r2, .L57+12
 284 00ac B7E0     		b	.L54
 285              	.L25:
 184:src/Ecr.c     ****       case ECRTAG_PAN:
 286              		.loc 1 184 0
 287 00ae 4DF63C73 		movw	r3, #57148
 288 00b2 9E42     		cmp	r6, r3
 289 00b4 00F0A880 		beq	.L35
 290 00b8 12D8     		bhi	.L36
 291 00ba 4DF62A73 		movw	r3, #57130
 292 00be 9E42     		cmp	r6, r3
 293 00c0 00F08E80 		beq	.L37
ARM GAS  C:\Users\AHMED~1.ELE\AppData\Local\Temp\ccQGHINQ.s 			page 10


 294 00c4 0C33     		adds	r3, r3, #12
 295 00c6 9E42     		cmp	r6, r3
 296 00c8 00F09480 		beq	.L38
 297 00cc 4DF62973 		movw	r3, #57129
 298 00d0 9E42     		cmp	r6, r3
 299 00d2 AAD1     		bne	.L22
 212:src/Ecr.c     ****         break;
 213:src/Ecr.c     ****       case ECRTAG_RESP_CODE:
 214:src/Ecr.c     ****         if ((RSP_DATA.w_rspcode == 'A'*256+'P') || (RSP_DATA.w_rspcode == 'T'*256+'A'))
 215:src/Ecr.c     ****           w_rspcode = '0'*256+'0';
 216:src/Ecr.c     ****         else
 217:src/Ecr.c     ****           w_rspcode = RSP_DATA.w_rspcode;
 218:src/Ecr.c     ****         ab_tmp[0] = (BYTE)((w_rspcode>>8)&0xFF);
 219:src/Ecr.c     ****         ab_tmp[1] = (BYTE)(w_rspcode&0xFF);
 220:src/Ecr.c     ****         pb += TlvPack(*pw, 2, ab_tmp, pb);
 221:src/Ecr.c     ****         break;
 222:src/Ecr.c     ****       case ECRTAG_TERMID :
 223:src/Ecr.c     ****         pb += TlvPack(*pw, 8, STIS_ACQ_TBL(0).sb_term_id, pb);
 300              		.loc 1 223 0
 301 00d4 3A68     		ldr	r2, [r7]
 302 00d6 3046     		mov	r0, r6
 303 00d8 0821     		movs	r1, #8
 304 00da 02F56772 		add	r2, r2, #924
 305 00de 9EE0     		b	.L54
 306              	.L36:
 184:src/Ecr.c     ****       case ECRTAG_PAN:
 307              		.loc 1 184 0
 308 00e0 4DF68273 		movw	r3, #57218
 309 00e4 9E42     		cmp	r6, r3
 310 00e6 00F08180 		beq	.L40
 311 00ea 06D8     		bhi	.L41
 312 00ec 013B     		subs	r3, r3, #1
 313 00ee 9E42     		cmp	r6, r3
 314 00f0 9BD1     		bne	.L22
 224:src/Ecr.c     ****         break;
 225:src/Ecr.c     ****       case ECRTAG_MERCHID:
 226:src/Ecr.c     ****         pb += TlvPack(*pw, 15, STIS_ACQ_TBL(0).sb_acceptor_id, pb);
 227:src/Ecr.c     ****         break;
 228:src/Ecr.c     ****       case ECRTAG_CARDHOLDERNAME :
 229:src/Ecr.c     ****         pb += TlvPack(*pw, 26, INPUT.sb_holder_name, pb);
 230:src/Ecr.c     ****         break;
 231:src/Ecr.c     ****       case ECRTAG_ADDAMT :
 232:src/Ecr.c     ****         DDWORD2bcd(ab_tmp, INPUT.dd_tip);
 233:src/Ecr.c     ****         pb += TlvPack(*pw, 6, &ab_tmp[4], pb);
 234:src/Ecr.c     ****         break;
 235:src/Ecr.c     ****       case ECRTAG_BATCHNO:
 236:src/Ecr.c     ****         pb += TlvPack(*pw, 3, STIS_ACQ_TBL(0).sb_curr_batch_no, pb);
 237:src/Ecr.c     ****         break;
 238:src/Ecr.c     ****       case ECRTAG_ECRREF:
 239:src/Ecr.c     ****         pb += TlvPack(*pw, 16, INPUT.sb_ecr_ref, pb);
 315              		.loc 1 239 0
 316 00f2 3046     		mov	r0, r6
 317 00f4 1021     		movs	r1, #16
 318 00f6 5B4A     		ldr	r2, .L57+16
 319 00f8 91E0     		b	.L54
 320              	.L41:
 184:src/Ecr.c     ****       case ECRTAG_PAN:
ARM GAS  C:\Users\AHMED~1.ELE\AppData\Local\Temp\ccQGHINQ.s 			page 11


 321              		.loc 1 184 0
 322 00fa 4DF68473 		movw	r3, #57220
 323 00fe 9E42     		cmp	r6, r3
 324 0100 00F08880 		beq	.L43
 325 0104 0133     		adds	r3, r3, #1
 326 0106 9E42     		cmp	r6, r3
 327 0108 8FD1     		bne	.L22
 328              	.LVL30:
 240:src/Ecr.c     ****         break;
 241:src/Ecr.c     ****       case ECRTAG_HOSTNAME:
 242:src/Ecr.c     ****         pb += TlvPack(*pw, 10, STIS_ACQ_TBL(0).sb_name, pb);
 243:src/Ecr.c     ****         break;
 244:src/Ecr.c     ****       case ECRTAG_HOSTTOT:
 245:src/Ecr.c     ****         pb_tmp = ab_totresp;
 246:src/Ecr.c     ****         DDWORD2bcd(ab_tmp, TERM_TOT.s_sale_tot.w_count);
 329              		.loc 1 246 0
 330 010a 3B68     		ldr	r3, [r7]
 331 010c 02A8     		add	r0, sp, #8
 332 010e B3F8D02C 		ldrh	r2, [r3, #3280]
 333 0112 0023     		movs	r3, #0
 334 0114 FFF7FEFF 		bl	DDWORD2bcd
 335              	.LVL31:
 247:src/Ecr.c     ****         memcpy(pb_tmp, &ab_tmp[8], 2);
 336              		.loc 1 247 0
 337 0118 BDF81030 		ldrh	r3, [sp, #16]
 248:src/Ecr.c     ****         pb_tmp += 2;
 249:src/Ecr.c     ****         DDWORD2bcd(ab_tmp, TERM_TOT.s_sale_tot.dd_amount);
 338              		.loc 1 249 0
 339 011c 02A8     		add	r0, sp, #8
 247:src/Ecr.c     ****         memcpy(pb_tmp, &ab_tmp[8], 2);
 340              		.loc 1 247 0
 341 011e ADF82830 		strh	r3, [sp, #40]	@ movhi
 342              	.LVL32:
 343              		.loc 1 249 0
 344 0122 3B68     		ldr	r3, [r7]
 250:src/Ecr.c     ****         memcpy(pb_tmp, &ab_tmp[4], 6);
 345              		.loc 1 250 0
 346 0124 03AE     		add	r6, sp, #12
 249:src/Ecr.c     ****         memcpy(pb_tmp, &ab_tmp[4], 6);
 347              		.loc 1 249 0
 348 0126 03F6D843 		addw	r3, r3, #3288
 349 012a D3E90023 		ldrd	r2, [r3]
 350 012e FFF7FEFF 		bl	DDWORD2bcd
 351              	.LVL33:
 352              		.loc 1 250 0
 353 0132 3146     		mov	r1, r6
 354 0134 0622     		movs	r2, #6
 355 0136 0DF12A00 		add	r0, sp, #42
 356              	.LVL34:
 357 013a FFF7FEFF 		bl	memcpy
 358              	.LVL35:
 251:src/Ecr.c     ****         pb_tmp += 6;
 252:src/Ecr.c     ****         DDWORD2bcd(ab_tmp, TERM_TOT.s_refund_tot.w_count);
 359              		.loc 1 252 0
 360 013e 3B68     		ldr	r3, [r7]
 361 0140 02A8     		add	r0, sp, #8
 362 0142 B3F8F02C 		ldrh	r2, [r3, #3312]
ARM GAS  C:\Users\AHMED~1.ELE\AppData\Local\Temp\ccQGHINQ.s 			page 12


 363 0146 0023     		movs	r3, #0
 364 0148 FFF7FEFF 		bl	DDWORD2bcd
 365              	.LVL36:
 253:src/Ecr.c     ****         memcpy(pb_tmp, &ab_tmp[8], 2);
 366              		.loc 1 253 0
 367 014c BDF81030 		ldrh	r3, [sp, #16]
 254:src/Ecr.c     ****         pb_tmp += 2;
 255:src/Ecr.c     ****         DDWORD2bcd(ab_tmp, TERM_TOT.s_refund_tot.dd_amount);
 368              		.loc 1 255 0
 369 0150 02A8     		add	r0, sp, #8
 253:src/Ecr.c     ****         memcpy(pb_tmp, &ab_tmp[8], 2);
 370              		.loc 1 253 0
 371 0152 ADF83030 		strh	r3, [sp, #48]	@ movhi
 372              	.LVL37:
 373              		.loc 1 255 0
 374 0156 3B68     		ldr	r3, [r7]
 375 0158 03F6F843 		addw	r3, r3, #3320
 376 015c D3E90023 		ldrd	r2, [r3]
 377 0160 FFF7FEFF 		bl	DDWORD2bcd
 378              	.LVL38:
 256:src/Ecr.c     ****         memcpy(pb_tmp, &ab_tmp[4], 6);
 379              		.loc 1 256 0
 380 0164 3146     		mov	r1, r6
 381 0166 0622     		movs	r2, #6
 382 0168 0DF13200 		add	r0, sp, #50
 383              	.LVL39:
 384 016c FFF7FEFF 		bl	memcpy
 385              	.LVL40:
 257:src/Ecr.c     ****         pb_tmp += 6;
 258:src/Ecr.c     ****         pb += TlvPack(*pw, 16, ab_totresp, pb);
 386              		.loc 1 258 0
 387 0170 2888     		ldrh	r0, [r5]
 388 0172 1021     		movs	r1, #16
 389 0174 0AAA     		add	r2, sp, #40
 390 0176 52E0     		b	.L54
 391              	.LVL41:
 392              	.L28:
 192:src/Ecr.c     ****         pb += TlvPack(*pw, 6, &ab_tmp[4], pb);
 393              		.loc 1 192 0
 394 0178 3B4B     		ldr	r3, .L57+20
 395 017a 02A8     		add	r0, sp, #8
 396 017c D3E90623 		ldrd	r2, [r3, #24]
 397 0180 3CE0     		b	.L55
 398              	.L29:
 196:src/Ecr.c     ****         break;
 399              		.loc 1 196 0
 400 0182 3046     		mov	r0, r6
 401 0184 0321     		movs	r1, #3
 402 0186 394A     		ldr	r2, .L57+24
 403 0188 49E0     		b	.L54
 404              	.L26:
 199:src/Ecr.c     ****         break;
 405              		.loc 1 199 0
 406 018a 3046     		mov	r0, r6
 407 018c 0321     		movs	r1, #3
 408 018e 384A     		ldr	r2, .L57+28
 409 0190 45E0     		b	.L54
ARM GAS  C:\Users\AHMED~1.ELE\AppData\Local\Temp\ccQGHINQ.s 			page 13


 410              	.L32:
 202:src/Ecr.c     ****         break;
 411              		.loc 1 202 0
 412 0192 4DF60D70 		movw	r0, #57101
 413 0196 0221     		movs	r1, #2
 414 0198 364A     		ldr	r2, .L57+32
 415 019a 40E0     		b	.L54
 416              	.L31:
 205:src/Ecr.c     ****         break;
 417              		.loc 1 205 0
 418 019c 3046     		mov	r0, r6
 419 019e 0221     		movs	r1, #2
 420 01a0 354A     		ldr	r2, .L57+36
 421 01a2 3CE0     		b	.L54
 422              	.L33:
 208:src/Ecr.c     ****         break;
 423              		.loc 1 208 0
 424 01a4 3046     		mov	r0, r6
 425 01a6 0C21     		movs	r1, #12
 426 01a8 344A     		ldr	r2, .L57+40
 427 01aa 38E0     		b	.L54
 428              	.L24:
 214:src/Ecr.c     ****           w_rspcode = '0'*256+'0';
 429              		.loc 1 214 0
 430 01ac 2E4B     		ldr	r3, .L57+20
 431 01ae 44F25012 		movw	r2, #16720
 432 01b2 B3F81637 		ldrh	r3, [r3, #1814]
 433 01b6 9342     		cmp	r3, r2
 434 01b8 07D0     		beq	.L49
 215:src/Ecr.c     ****         else
 435              		.loc 1 215 0 discriminator 1
 436 01ba A2F58952 		sub	r2, r2, #4384
 437 01be 45F24141 		movw	r1, #21569
 438 01c2 8B42     		cmp	r3, r1
 439 01c4 08BF     		it	eq
 440 01c6 1346     		moveq	r3, r2
 441 01c8 01E0     		b	.L45
 442              	.L49:
 215:src/Ecr.c     ****         else
 443              		.loc 1 215 0 is_stmt 0
 444 01ca 43F23003 		movw	r3, #12336
 445              	.L45:
 446              	.LVL42:
 218:src/Ecr.c     ****         ab_tmp[1] = (BYTE)(w_rspcode&0xFF);
 447              		.loc 1 218 0 is_stmt 1
 448 01ce 1A0A     		lsrs	r2, r3, #8
 219:src/Ecr.c     ****         pb += TlvPack(*pw, 2, ab_tmp, pb);
 449              		.loc 1 219 0
 450 01d0 8DF80930 		strb	r3, [sp, #9]
 218:src/Ecr.c     ****         ab_tmp[1] = (BYTE)(w_rspcode&0xFF);
 451              		.loc 1 218 0
 452 01d4 8DF80820 		strb	r2, [sp, #8]
 220:src/Ecr.c     ****         break;
 453              		.loc 1 220 0
 454 01d8 0221     		movs	r1, #2
 455 01da 2888     		ldrh	r0, [r5]
 456 01dc 02AA     		add	r2, sp, #8
ARM GAS  C:\Users\AHMED~1.ELE\AppData\Local\Temp\ccQGHINQ.s 			page 14


 457 01de 1EE0     		b	.L54
 458              	.LVL43:
 459              	.L37:
 226:src/Ecr.c     ****         break;
 460              		.loc 1 226 0
 461 01e0 3A68     		ldr	r2, [r7]
 462 01e2 3046     		mov	r0, r6
 463 01e4 0F21     		movs	r1, #15
 464 01e6 02F56972 		add	r2, r2, #932
 465 01ea 18E0     		b	.L54
 466              	.L40:
 229:src/Ecr.c     ****         break;
 467              		.loc 1 229 0
 468 01ec 3046     		mov	r0, r6
 469 01ee 1A21     		movs	r1, #26
 470 01f0 234A     		ldr	r2, .L57+44
 471 01f2 14E0     		b	.L54
 472              	.L38:
 232:src/Ecr.c     ****         pb += TlvPack(*pw, 6, &ab_tmp[4], pb);
 473              		.loc 1 232 0
 474 01f4 1C4B     		ldr	r3, .L57+20
 475 01f6 02A8     		add	r0, sp, #8
 476 01f8 D3E90823 		ldrd	r2, [r3, #32]
 477              	.L55:
 478 01fc FFF7FEFF 		bl	DDWORD2bcd
 479              	.LVL44:
 233:src/Ecr.c     ****         break;
 480              		.loc 1 233 0
 481 0200 2888     		ldrh	r0, [r5]
 482 0202 0621     		movs	r1, #6
 483 0204 03AA     		add	r2, sp, #12
 484 0206 0AE0     		b	.L54
 485              	.L35:
 236:src/Ecr.c     ****         break;
 486              		.loc 1 236 0
 487 0208 3A68     		ldr	r2, [r7]
 488 020a 3046     		mov	r0, r6
 489 020c 0321     		movs	r1, #3
 490 020e 02F56D72 		add	r2, r2, #948
 491 0212 04E0     		b	.L54
 492              	.L43:
 242:src/Ecr.c     ****         break;
 493              		.loc 1 242 0
 494 0214 3A68     		ldr	r2, [r7]
 495 0216 3046     		mov	r0, r6
 496 0218 0A21     		movs	r1, #10
 497 021a 02F25332 		addw	r2, r2, #851
 498              	.L54:
 499              		.loc 1 258 0
 500 021e 2346     		mov	r3, r4
 501 0220 FFF7FEFF 		bl	TlvPack
 502              	.LVL45:
 503 0224 0444     		add	r4, r4, r0
 504              	.LVL46:
 259:src/Ecr.c     ****         break;
 505              		.loc 1 259 0
 506 0226 00E7     		b	.L22
ARM GAS  C:\Users\AHMED~1.ELE\AppData\Local\Temp\ccQGHINQ.s 			page 15


 507              	.LVL47:
 508              	.L56:
 260:src/Ecr.c     ****     }
 261:src/Ecr.c     ****     pw++;
 262:src/Ecr.c     ****   }
 263:src/Ecr.c     ****   gGDS->i_ecr_len = (DWORD)pb - (DWORD)&gGDS->s_ecr_data;
 509              		.loc 1 263 0
 510 0228 3968     		ldr	r1, [r7]
 511 022a 01F57152 		add	r2, r1, #15424
 512 022e 1832     		adds	r2, r2, #24
 513 0230 A31A     		subs	r3, r4, r2
 514 0232 01F58441 		add	r1, r1, #16896
 264:src/Ecr.c     ****   if (gGDS->i_ecr_len > 0) {
 515              		.loc 1 264 0
 516 0236 002B     		cmp	r3, #0
 263:src/Ecr.c     ****   if (gGDS->i_ecr_len > 0) {
 517              		.loc 1 263 0
 518 0238 CB65     		str	r3, [r1, #92]
 519              		.loc 1 264 0
 520 023a 09DD     		ble	.L20
 265:src/Ecr.c     **** #if 0
 266:src/Ecr.c     ****     if (gCdc1Handle != -1) {
 267:src/Ecr.c     ****       if (w_rspcode == '0'*256+'0') {
 268:src/Ecr.c     ****         wav_size = sizeof(KTransAcpWav);
 269:src/Ecr.c     ****         wav_ptr  = KTransAcpWav;
 270:src/Ecr.c     ****       }
 271:src/Ecr.c     ****       else {
 272:src/Ecr.c     ****         wav_size = sizeof(KTransRejWav);
 273:src/Ecr.c     ****         wav_ptr  = KTransRejWav;
 274:src/Ecr.c     ****       }
 275:src/Ecr.c     ****       wav_dat = (BYTE *)MallocMW(wav_size);
 276:src/Ecr.c     ****       if (wav_dat != NULL) {
 277:src/Ecr.c     ****         memcpy(wav_dat, wav_ptr, wav_size);
 278:src/Ecr.c     ****         while (StatMW(gCdc1Handle, MW_CODEC_STATUS, NULL) & MW_CODEC_PLAYING) SleepMW();
 279:src/Ecr.c     ****         //printf("\x0E\x12\x1B\xE0T2:%X\x05\x0F", StatMW(gCdc1Handle, MW_CODEC_STATUS, NULL));
 280:src/Ecr.c     ****         WriteMW(gCdc1Handle, wav_dat, wav_size);
 281:src/Ecr.c     ****         FreeMW(wav_dat);
 282:src/Ecr.c     ****       }
 283:src/Ecr.c     ****     }
 284:src/Ecr.c     **** #endif
 285:src/Ecr.c     ****     ECR_Send(&gGDS->s_ecr_data, gGDS->i_ecr_len);
 521              		.loc 1 285 0
 522 023c 0096     		str	r6, [sp]
 523 023e 7D20     		movs	r0, #125
 524 0240 0221     		movs	r1, #2
 525 0242 FFF7FEFF 		bl	lib_app_call
 526              	.LVL48:
 286:src/Ecr.c     ****     gGDS->i_ecr_len = 0;
 527              		.loc 1 286 0
 528 0246 034B     		ldr	r3, .L57
 529 0248 1B68     		ldr	r3, [r3]
 530 024a 03F58443 		add	r3, r3, #16896
 531 024e DE65     		str	r6, [r3, #92]
 532              	.LVL49:
 533              	.L20:
 287:src/Ecr.c     ****   }
 288:src/Ecr.c     **** }
ARM GAS  C:\Users\AHMED~1.ELE\AppData\Local\Temp\ccQGHINQ.s 			page 16


 534              		.loc 1 288 0
 535 0250 13B0     		add	sp, sp, #76
 536              		.cfi_def_cfa_offset 20
 537              		@ sp needed
 538 0252 F0BD     		pop	{r4, r5, r6, r7, pc}
 539              	.L58:
 540              		.align	2
 541              	.L57:
 542 0254 00000000 		.word	gGDS
 543 0258 00000000 		.word	.LANCHOR0
 544 025c 0A000000 		.word	gGTS+10
 545 0260 0F070000 		.word	gGTS+1807
 546 0264 4F000000 		.word	gGTS+79
 547 0268 00000000 		.word	gGTS
 548 026c 03000000 		.word	gGTS+3
 549 0270 30070000 		.word	gGTS+1840
 550 0274 2E070000 		.word	gGTS+1838
 551 0278 14000000 		.word	gGTS+20
 552 027c 19070000 		.word	gGTS+1817
 553 0280 35000000 		.word	gGTS+53
 554              		.cfi_endproc
 555              	.LFE2:
 556              		.size	EcrResp, .-EcrResp
 557              		.section	.text.GetLastTrace,"ax",%progbits
 558              		.align	1
 559              		.global	GetLastTrace
 560              		.thumb
 561              		.thumb_func
 562              		.type	GetLastTrace, %function
 563              	GetLastTrace:
 564              	.LFB3:
 289:src/Ecr.c     **** //*****************************************************************************
 290:src/Ecr.c     **** //  Function        : GetLastTrace
 291:src/Ecr.c     **** //  Description     : Get Last Trace Number.
 292:src/Ecr.c     **** //  Input           : N/A
 293:src/Ecr.c     **** //  Return          : N/A
 294:src/Ecr.c     **** //  Note            : N/A
 295:src/Ecr.c     **** //  Globals Changed : N/A
 296:src/Ecr.c     **** //*****************************************************************************
 297:src/Ecr.c     **** void GetLastTrace(void)
 298:src/Ecr.c     **** {
 565              		.loc 1 298 0
 566              		.cfi_startproc
 567              		@ args = 0, pretend = 0, frame = 0
 568              		@ frame_needed = 0, uses_anonymous_args = 0
 569 0000 37B5     		push	{r0, r1, r2, r4, r5, lr}
 570              		.cfi_def_cfa_offset 24
 571              		.cfi_offset 4, -12
 572              		.cfi_offset 5, -8
 573              		.cfi_offset 14, -4
 299:src/Ecr.c     ****   int rec_cnt, rec_idx;
 300:src/Ecr.c     **** 
 301:src/Ecr.c     ****   memset(RSP_DATA.sb_trace_no, 0x00, sizeof(RSP_DATA.sb_trace_no));
 574              		.loc 1 301 0
 575 0002 0021     		movs	r1, #0
 576 0004 0322     		movs	r2, #3
 577 0006 1948     		ldr	r0, .L63
ARM GAS  C:\Users\AHMED~1.ELE\AppData\Local\Temp\ccQGHINQ.s 			page 17


 578 0008 FFF7FEFF 		bl	memset
 579              	.LVL50:
 302:src/Ecr.c     ****   rec_cnt = APM_GetRecCount();
 580              		.loc 1 302 0
 581 000c 0022     		movs	r2, #0
 582 000e 1346     		mov	r3, r2
 583 0010 0092     		str	r2, [sp]
 584 0012 1020     		movs	r0, #16
 585 0014 2921     		movs	r1, #41
 586 0016 FFF7FEFF 		bl	lib_app_call
 587              	.LVL51:
 588 001a 154C     		ldr	r4, .L63+4
 303:src/Ecr.c     ****   if (rec_cnt > 0) {
 589              		.loc 1 303 0
 590 001c 021E     		subs	r2, r0, #0
 591 001e 1CDD     		ble	.L60
 592              	.LVL52:
 304:src/Ecr.c     ****     rec_idx = rec_cnt - 1;
 305:src/Ecr.c     ****     APM_GetBatchRec(rec_idx, (BYTE *)&RECORD_BUF, sizeof(RECORD_BUF));
 593              		.loc 1 305 0
 594 0020 144D     		ldr	r5, .L63+8
 595 0022 4FF40071 		mov	r1, #512
 596 0026 2B68     		ldr	r3, [r5]
 597 0028 013A     		subs	r2, r2, #1
 598              	.LVL53:
 599 002a 03F5D963 		add	r3, r3, #1736
 600 002e 0091     		str	r1, [sp]
 601 0030 1020     		movs	r0, #16
 602              	.LVL54:
 603 0032 2A21     		movs	r1, #42
 604 0034 FFF7FEFF 		bl	lib_app_call
 605              	.LVL55:
 306:src/Ecr.c     ****     memcpy(INPUT.sb_trace_no, RECORD_BUF.sb_trace_no, sizeof(INPUT.sb_trace_no));
 606              		.loc 1 306 0
 607 0038 2D68     		ldr	r5, [r5]
 608 003a 0322     		movs	r2, #3
 609 003c 05F2CB61 		addw	r1, r5, #1739
 610 0040 E01C     		adds	r0, r4, #3
 611 0042 FFF7FEFF 		bl	memcpy
 612              	.LVL56:
 307:src/Ecr.c     ****     memcpy(INPUT.sb_ecr_ref, RECORD_BUF.sb_ecr_ref, sizeof(INPUT.sb_trace_no));
 613              		.loc 1 307 0
 614 0046 04F14F00 		add	r0, r4, #79
 615 004a 05F21771 		addw	r1, r5, #1815
 616 004e 0322     		movs	r2, #3
 617 0050 FFF7FEFF 		bl	memcpy
 618              	.LVL57:
 308:src/Ecr.c     ****     RSP_DATA.w_rspcode = '0'*256+'0';
 619              		.loc 1 308 0
 620 0054 43F23003 		movw	r3, #12336
 621 0058 01E0     		b	.L62
 622              	.LVL58:
 623              	.L60:
 309:src/Ecr.c     ****   }
 310:src/Ecr.c     ****   else
 311:src/Ecr.c     ****     RSP_DATA.w_rspcode = 'N'*256+'T';
 624              		.loc 1 311 0
ARM GAS  C:\Users\AHMED~1.ELE\AppData\Local\Temp\ccQGHINQ.s 			page 18


 625 005a 44F65463 		movw	r3, #20052
 626              	.LVL59:
 627              	.L62:
 628 005e A4F81637 		strh	r3, [r4, #1814]	@ movhi
 312:src/Ecr.c     ****   EcrResp();
 313:src/Ecr.c     **** }
 629              		.loc 1 313 0
 630 0062 03B0     		add	sp, sp, #12
 631              		.cfi_def_cfa_offset 12
 632              		@ sp needed
 633 0064 BDE83040 		pop	{r4, r5, lr}
 634              		.cfi_restore 14
 635              		.cfi_restore 5
 636              		.cfi_restore 4
 637              		.cfi_def_cfa_offset 0
 312:src/Ecr.c     ****   EcrResp();
 638              		.loc 1 312 0
 639 0068 FFF7FEBF 		b	EcrResp
 640              	.LVL60:
 641              	.L64:
 642              		.align	2
 643              	.L63:
 644 006c B3060000 		.word	gGTS+1715
 645 0070 00000000 		.word	gGTS
 646 0074 00000000 		.word	gGDS
 647              		.cfi_endproc
 648              	.LFE3:
 649              		.size	GetLastTrace, .-GetLastTrace
 650              		.section	.text.GetHostIdx,"ax",%progbits
 651              		.align	1
 652              		.global	GetHostIdx
 653              		.thumb
 654              		.thumb_func
 655              		.type	GetHostIdx, %function
 656              	GetHostIdx:
 657              	.LFB4:
 314:src/Ecr.c     **** //*****************************************************************************
 315:src/Ecr.c     **** //  Function        : GetHostIdx
 316:src/Ecr.c     **** //  Description     : Get Host Index.
 317:src/Ecr.c     **** //  Input           : N/A
 318:src/Ecr.c     **** //  Return          : N/A
 319:src/Ecr.c     **** //  Note            : N/A
 320:src/Ecr.c     **** //  Globals Changed : N/A
 321:src/Ecr.c     **** //*****************************************************************************
 322:src/Ecr.c     **** int GetHostIdx(void)
 323:src/Ecr.c     **** {
 658              		.loc 1 323 0
 659              		.cfi_startproc
 660              		@ args = 0, pretend = 0, frame = 0
 661              		@ frame_needed = 0, uses_anonymous_args = 0
 662 0000 08B5     		push	{r3, lr}
 663              		.cfi_def_cfa_offset 8
 664              		.cfi_offset 3, -8
 665              		.cfi_offset 14, -4
 324:src/Ecr.c     ****   BYTE *pb, *pbTlv;
 325:src/Ecr.c     ****   DWORD d_ecrdata_len;
 326:src/Ecr.c     **** 
ARM GAS  C:\Users\AHMED~1.ELE\AppData\Local\Temp\ccQGHINQ.s 			page 19


 327:src/Ecr.c     ****   if (gGDS->i_ecr_len <= 2)
 666              		.loc 1 327 0
 667 0002 0C4B     		ldr	r3, .L72
 668 0004 1868     		ldr	r0, [r3]
 669 0006 00F58443 		add	r3, r0, #16896
 670 000a D96D     		ldr	r1, [r3, #92]
 671 000c 0229     		cmp	r1, #2
 672 000e 02DC     		bgt	.L66
 673              	.L68:
 328:src/Ecr.c     ****     return -1;
 674              		.loc 1 328 0
 675 0010 4FF0FF30 		mov	r0, #-1
 676 0014 08BD     		pop	{r3, pc}
 677              	.L66:
 678              	.LVL61:
 329:src/Ecr.c     **** 
 330:src/Ecr.c     ****   d_ecrdata_len = gGDS->i_ecr_len - 2;
 679              		.loc 1 330 0
 680 0016 0239     		subs	r1, r1, #2
 681              	.LVL62:
 331:src/Ecr.c     ****   if (d_ecrdata_len) {
 332:src/Ecr.c     ****     pbTlv = TlvSeek(gGDS->s_ecr_data.sb_content, d_ecrdata_len, ECRTAG_HOSTIDX);
 682              		.loc 1 332 0
 683 0018 00F57150 		add	r0, r0, #15424
 684 001c 1A30     		adds	r0, r0, #26
 685 001e 89B2     		uxth	r1, r1
 686              	.LVL63:
 687 0020 4DF68372 		movw	r2, #57219
 688 0024 FFF7FEFF 		bl	TlvSeek
 689              	.LVL64:
 333:src/Ecr.c     ****     if (pbTlv != NULL) {
 690              		.loc 1 333 0
 691 0028 0028     		cmp	r0, #0
 692 002a F1D0     		beq	.L68
 334:src/Ecr.c     ****       pb = TlvVPtr(pbTlv);
 693              		.loc 1 334 0
 694 002c FFF7FEFF 		bl	TlvVPtr
 695              	.LVL65:
 335:src/Ecr.c     ****       return *pb;
 696              		.loc 1 335 0
 697 0030 0078     		ldrb	r0, [r0]	@ zero_extendqisi2
 698              	.LVL66:
 336:src/Ecr.c     ****     }
 337:src/Ecr.c     ****   }
 338:src/Ecr.c     ****   return (DWORD) -1;
 339:src/Ecr.c     **** }
 699              		.loc 1 339 0
 700 0032 08BD     		pop	{r3, pc}
 701              	.L73:
 702              		.align	2
 703              	.L72:
 704 0034 00000000 		.word	gGDS
 705              		.cfi_endproc
 706              	.LFE4:
 707              		.size	GetHostIdx, .-GetHostIdx
 708              		.section	.text.GetHostName,"ax",%progbits
 709              		.align	1
ARM GAS  C:\Users\AHMED~1.ELE\AppData\Local\Temp\ccQGHINQ.s 			page 20


 710              		.global	GetHostName
 711              		.thumb
 712              		.thumb_func
 713              		.type	GetHostName, %function
 714              	GetHostName:
 715              	.LFB5:
 340:src/Ecr.c     **** //*****************************************************************************
 341:src/Ecr.c     **** //  Function        : GetHostName
 342:src/Ecr.c     **** //  Description     : Get Host Name
 343:src/Ecr.c     **** //  Input           : N/A
 344:src/Ecr.c     **** //  Return          : N/A
 345:src/Ecr.c     **** //  Note            : N/A
 346:src/Ecr.c     **** //  Globals Changed : N/A
 347:src/Ecr.c     **** //*****************************************************************************
 348:src/Ecr.c     **** void GetHostName(void)
 349:src/Ecr.c     **** {
 716              		.loc 1 349 0
 717              		.cfi_startproc
 718              		@ args = 0, pretend = 0, frame = 0
 719              		@ frame_needed = 0, uses_anonymous_args = 0
 350:src/Ecr.c     ****   int host_idx;
 351:src/Ecr.c     **** 
 352:src/Ecr.c     ****   RSP_DATA.w_rspcode = 'D'*256 + 'E';
 720              		.loc 1 352 0
 721 0000 44F24543 		movw	r3, #17477
 349:src/Ecr.c     ****   int host_idx;
 722              		.loc 1 349 0
 723 0004 13B5     		push	{r0, r1, r4, lr}
 724              		.cfi_def_cfa_offset 16
 725              		.cfi_offset 4, -8
 726              		.cfi_offset 14, -4
 727              		.loc 1 352 0
 728 0006 0F4C     		ldr	r4, .L81
 729 0008 A4F81637 		strh	r3, [r4, #1814]	@ movhi
 353:src/Ecr.c     ****   host_idx = GetHostIdx();
 730              		.loc 1 353 0
 731 000c FFF7FEFF 		bl	GetHostIdx
 732              	.LVL67:
 354:src/Ecr.c     ****   if (host_idx != -1) {
 733              		.loc 1 354 0
 734 0010 431C     		adds	r3, r0, #1
 353:src/Ecr.c     ****   host_idx = GetHostIdx();
 735              		.loc 1 353 0
 736 0012 0246     		mov	r2, r0
 737              	.LVL68:
 738              		.loc 1 354 0
 739 0014 10D0     		beq	.L76
 355:src/Ecr.c     ****     if (APM_GetAcqTbl(host_idx, &STIS_ACQ_TBL(0)))
 740              		.loc 1 355 0
 741 0016 0C4B     		ldr	r3, .L81+4
 742 0018 0021     		movs	r1, #0
 743 001a 1B68     		ldr	r3, [r3]
 744 001c 1020     		movs	r0, #16
 745              	.LVL69:
 746 001e 03F55273 		add	r3, r3, #840
 747 0022 0091     		str	r1, [sp]
 748 0024 1521     		movs	r1, #21
ARM GAS  C:\Users\AHMED~1.ELE\AppData\Local\Temp\ccQGHINQ.s 			page 21


 749 0026 FFF7FEFF 		bl	lib_app_call
 750              	.LVL70:
 751 002a 10F0FF0F 		tst	r0, #255
 356:src/Ecr.c     ****       RSP_DATA.w_rspcode = '0'*256 + '0';
 752              		.loc 1 356 0
 753 002e 1CBF     		itt	ne
 754 0030 43F23003 		movwne	r3, #12336
 755 0034 A4F81637 		strhne	r3, [r4, #1814]	@ movhi
 756              	.L76:
 357:src/Ecr.c     ****   }
 358:src/Ecr.c     ****   EcrResp();
 359:src/Ecr.c     **** }
 757              		.loc 1 359 0
 758 0038 02B0     		add	sp, sp, #8
 759              		.cfi_def_cfa_offset 8
 760              		@ sp needed
 761 003a BDE81040 		pop	{r4, lr}
 762              		.cfi_restore 14
 763              		.cfi_restore 4
 764              		.cfi_def_cfa_offset 0
 358:src/Ecr.c     **** }
 765              		.loc 1 358 0
 766 003e FFF7FEBF 		b	EcrResp
 767              	.LVL71:
 768              	.L82:
 769 0042 00BF     		.align	2
 770              	.L81:
 771 0044 00000000 		.word	gGTS
 772 0048 00000000 		.word	gGDS
 773              		.cfi_endproc
 774              	.LFE5:
 775              		.size	GetHostName, .-GetHostName
 776              		.section	.text.GetHostTot,"ax",%progbits
 777              		.align	1
 778              		.global	GetHostTot
 779              		.thumb
 780              		.thumb_func
 781              		.type	GetHostTot, %function
 782              	GetHostTot:
 783              	.LFB6:
 360:src/Ecr.c     **** //*****************************************************************************
 361:src/Ecr.c     **** //  Function        : GetHostTot
 362:src/Ecr.c     **** //  Description     : Get Host Total.
 363:src/Ecr.c     **** //  Input           : N/A
 364:src/Ecr.c     **** //  Return          : N/A
 365:src/Ecr.c     **** //  Note            : N/A
 366:src/Ecr.c     **** //  Globals Changed : N/A
 367:src/Ecr.c     **** //*****************************************************************************
 368:src/Ecr.c     **** void GetHostTot(void)
 369:src/Ecr.c     **** {
 784              		.loc 1 369 0
 785              		.cfi_startproc
 786              		@ args = 0, pretend = 0, frame = 0
 787              		@ frame_needed = 0, uses_anonymous_args = 0
 788 0000 37B5     		push	{r0, r1, r2, r4, r5, lr}
 789              		.cfi_def_cfa_offset 24
 790              		.cfi_offset 4, -12
ARM GAS  C:\Users\AHMED~1.ELE\AppData\Local\Temp\ccQGHINQ.s 			page 22


 791              		.cfi_offset 5, -8
 792              		.cfi_offset 14, -4
 370:src/Ecr.c     ****   int host_idx;
 371:src/Ecr.c     **** 
 372:src/Ecr.c     ****   RSP_DATA.w_rspcode = 'D'*256 + 'E';
 793              		.loc 1 372 0
 794 0002 44F24543 		movw	r3, #17477
 795 0006 104D     		ldr	r5, .L90
 796 0008 A5F81637 		strh	r3, [r5, #1814]	@ movhi
 373:src/Ecr.c     ****   host_idx = GetHostIdx();
 797              		.loc 1 373 0
 798 000c FFF7FEFF 		bl	GetHostIdx
 799              	.LVL72:
 374:src/Ecr.c     ****   if (host_idx != -1) {
 800              		.loc 1 374 0
 801 0010 431C     		adds	r3, r0, #1
 373:src/Ecr.c     ****   host_idx = GetHostIdx();
 802              		.loc 1 373 0
 803 0012 0246     		mov	r2, r0
 804              	.LVL73:
 805              		.loc 1 374 0
 806 0014 13D0     		beq	.L85
 375:src/Ecr.c     ****     if (APM_GetAcqTbl(host_idx, &STIS_ACQ_TBL(0))) {
 807              		.loc 1 375 0
 808 0016 0D4B     		ldr	r3, .L90+4
 809 0018 0024     		movs	r4, #0
 810 001a 1B68     		ldr	r3, [r3]
 811 001c 1020     		movs	r0, #16
 812              	.LVL74:
 813 001e 0094     		str	r4, [sp]
 814 0020 1521     		movs	r1, #21
 815 0022 03F55273 		add	r3, r3, #840
 816 0026 FFF7FEFF 		bl	lib_app_call
 817              	.LVL75:
 818 002a 10F0FF0F 		tst	r0, #255
 819 002e 06D0     		beq	.L85
 376:src/Ecr.c     ****       RSP_DATA.w_rspcode = '0'*256 + '0';
 820              		.loc 1 376 0
 821 0030 43F23003 		movw	r3, #12336
 377:src/Ecr.c     ****       CalTotals(FALSE);
 822              		.loc 1 377 0
 823 0034 2046     		mov	r0, r4
 376:src/Ecr.c     ****       RSP_DATA.w_rspcode = '0'*256 + '0';
 824              		.loc 1 376 0
 825 0036 A5F81637 		strh	r3, [r5, #1814]	@ movhi
 826              		.loc 1 377 0
 827 003a FFF7FEFF 		bl	CalTotals
 828              	.LVL76:
 829              	.L85:
 378:src/Ecr.c     ****     }
 379:src/Ecr.c     ****   }
 380:src/Ecr.c     ****   EcrResp();
 381:src/Ecr.c     **** }
 830              		.loc 1 381 0
 831 003e 03B0     		add	sp, sp, #12
 832              		.cfi_def_cfa_offset 12
 833              		@ sp needed
ARM GAS  C:\Users\AHMED~1.ELE\AppData\Local\Temp\ccQGHINQ.s 			page 23


 834 0040 BDE83040 		pop	{r4, r5, lr}
 835              		.cfi_restore 14
 836              		.cfi_restore 5
 837              		.cfi_restore 4
 838              		.cfi_def_cfa_offset 0
 380:src/Ecr.c     **** }
 839              		.loc 1 380 0
 840 0044 FFF7FEBF 		b	EcrResp
 841              	.LVL77:
 842              	.L91:
 843              		.align	2
 844              	.L90:
 845 0048 00000000 		.word	gGTS
 846 004c 00000000 		.word	gGDS
 847              		.cfi_endproc
 848              	.LFE6:
 849              		.size	GetHostTot, .-GetHostTot
 850              		.section	.text.EcrSettle,"ax",%progbits
 851              		.align	1
 852              		.global	EcrSettle
 853              		.thumb
 854              		.thumb_func
 855              		.type	EcrSettle, %function
 856              	EcrSettle:
 857              	.LFB7:
 382:src/Ecr.c     **** //*****************************************************************************
 383:src/Ecr.c     **** //  Function        : EcrSettle
 384:src/Ecr.c     **** //  Description     : Process Settlement request from ECR.
 385:src/Ecr.c     **** //  Input           : N/A
 386:src/Ecr.c     **** //  Return          : N/A
 387:src/Ecr.c     **** //  Note            : N/A
 388:src/Ecr.c     **** //  Globals Changed : N/A
 389:src/Ecr.c     **** //*****************************************************************************
 390:src/Ecr.c     **** void EcrSettle(void)
 391:src/Ecr.c     **** {
 858              		.loc 1 391 0
 859              		.cfi_startproc
 860              		@ args = 0, pretend = 0, frame = 0
 861              		@ frame_needed = 0, uses_anonymous_args = 0
 392:src/Ecr.c     ****   int host_idx;
 393:src/Ecr.c     **** 
 394:src/Ecr.c     ****   RSP_DATA.w_rspcode = 'D'*256 + 'E';
 862              		.loc 1 394 0
 863 0000 44F24543 		movw	r3, #17477
 391:src/Ecr.c     ****   int host_idx;
 864              		.loc 1 391 0
 865 0004 10B5     		push	{r4, lr}
 866              		.cfi_def_cfa_offset 8
 867              		.cfi_offset 4, -8
 868              		.cfi_offset 14, -4
 869              		.loc 1 394 0
 870 0006 074C     		ldr	r4, .L97
 871 0008 A4F81637 		strh	r3, [r4, #1814]	@ movhi
 395:src/Ecr.c     ****   host_idx = GetHostIdx();
 872              		.loc 1 395 0
 873 000c FFF7FEFF 		bl	GetHostIdx
 874              	.LVL78:
ARM GAS  C:\Users\AHMED~1.ELE\AppData\Local\Temp\ccQGHINQ.s 			page 24


 396:src/Ecr.c     ****   if (host_idx != -1) {
 875              		.loc 1 396 0
 876 0010 431C     		adds	r3, r0, #1
 877 0012 03D0     		beq	.L93
 397:src/Ecr.c     ****     INPUT.w_host_idx = host_idx;
 878              		.loc 1 397 0
 879 0014 A4F87600 		strh	r0, [r4, #118]	@ movhi
 398:src/Ecr.c     ****     SettleTrans();
 880              		.loc 1 398 0
 881 0018 FFF7FEFF 		bl	SettleTrans
 882              	.LVL79:
 883              	.L93:
 399:src/Ecr.c     ****   }
 400:src/Ecr.c     ****   EcrResp();
 401:src/Ecr.c     **** }
 884              		.loc 1 401 0
 885 001c BDE81040 		pop	{r4, lr}
 886              		.cfi_restore 14
 887              		.cfi_restore 4
 888              		.cfi_def_cfa_offset 0
 400:src/Ecr.c     **** }
 889              		.loc 1 400 0
 890 0020 FFF7FEBF 		b	EcrResp
 891              	.LVL80:
 892              	.L98:
 893              		.align	2
 894              	.L97:
 895 0024 00000000 		.word	gGTS
 896              		.cfi_endproc
 897              	.LFE7:
 898              		.size	EcrSettle, .-EcrSettle
 899              		.section	.text.EcrCmdProcess,"ax",%progbits
 900              		.align	1
 901              		.global	EcrCmdProcess
 902              		.thumb
 903              		.thumb_func
 904              		.type	EcrCmdProcess, %function
 905              	EcrCmdProcess:
 906              	.LFB8:
 402:src/Ecr.c     **** //*****************************************************************************
 403:src/Ecr.c     **** //  Function        : EcrCmdProcess
 404:src/Ecr.c     **** //  Description     : Process ECR Command.
 405:src/Ecr.c     **** //  Input           : N/A
 406:src/Ecr.c     **** //  Return          : N/A
 407:src/Ecr.c     **** //  Note            : N/A
 408:src/Ecr.c     **** //  Globals Changed : N/A
 409:src/Ecr.c     **** //*****************************************************************************
 410:src/Ecr.c     **** void EcrCmdProcess(void)
 411:src/Ecr.c     **** {
 907              		.loc 1 411 0
 908              		.cfi_startproc
 909              		@ args = 0, pretend = 0, frame = 0
 910              		@ frame_needed = 0, uses_anonymous_args = 0
 412:src/Ecr.c     ****   //BYTE *wav_dat;
 413:src/Ecr.c     **** 
 414:src/Ecr.c     ****   ECR_Clear();
 911              		.loc 1 414 0
ARM GAS  C:\Users\AHMED~1.ELE\AppData\Local\Temp\ccQGHINQ.s 			page 25


 912 0000 0022     		movs	r2, #0
 411:src/Ecr.c     ****   //BYTE *wav_dat;
 913              		.loc 1 411 0
 914 0002 13B5     		push	{r0, r1, r4, lr}
 915              		.cfi_def_cfa_offset 16
 916              		.cfi_offset 4, -8
 917              		.cfi_offset 14, -4
 415:src/Ecr.c     ****   if (STIS_TERM_DATA.b_stis_mode!=TRANS_MODE) {
 918              		.loc 1 415 0
 919 0004 214C     		ldr	r4, .L111
 414:src/Ecr.c     ****   if (STIS_TERM_DATA.b_stis_mode!=TRANS_MODE) {
 920              		.loc 1 414 0
 921 0006 1346     		mov	r3, r2
 922 0008 0092     		str	r2, [sp]
 923 000a 7D20     		movs	r0, #125
 924 000c 0421     		movs	r1, #4
 925 000e FFF7FEFF 		bl	lib_app_call
 926              	.LVL81:
 927              		.loc 1 415 0
 928 0012 2368     		ldr	r3, [r4]
 929 0014 93F85835 		ldrb	r3, [r3, #1368]	@ zero_extendqisi2
 930 0018 022B     		cmp	r3, #2
 931 001a 32D1     		bne	.L101
 416:src/Ecr.c     ****     ResetTerm();
 417:src/Ecr.c     ****     return;
 418:src/Ecr.c     ****   }
 419:src/Ecr.c     **** 
 420:src/Ecr.c     **** #if 0
 421:src/Ecr.c     ****   if (gCdc1Handle != -1) {
 422:src/Ecr.c     ****     wav_dat = (BYTE *)MallocMW(sizeof(KWelcomeWav));
 423:src/Ecr.c     ****     if (wav_dat != NULL) {
 424:src/Ecr.c     ****       memcpy(wav_dat, KWelcomeWav, sizeof(KWelcomeWav));
 425:src/Ecr.c     ****       while (StatMW(gCdc1Handle, MW_CODEC_STATUS, NULL) & MW_CODEC_PLAYING) SleepMW();
 426:src/Ecr.c     ****       WriteMW(gCdc1Handle, wav_dat, sizeof(KWelcomeWav));
 427:src/Ecr.c     ****       FreeMW(wav_dat);
 428:src/Ecr.c     ****     }
 429:src/Ecr.c     ****   }
 430:src/Ecr.c     **** #endif
 431:src/Ecr.c     **** 
 432:src/Ecr.c     ****   ClearResponse();
 932              		.loc 1 432 0
 933 001c FFF7FEFF 		bl	ClearResponse
 934              	.LVL82:
 433:src/Ecr.c     ****   switch (gGDS->s_ecr_data.b_cmd) {
 935              		.loc 1 433 0
 936 0020 2368     		ldr	r3, [r4]
 937 0022 03F57153 		add	r3, r3, #15424
 938 0026 5B7E     		ldrb	r3, [r3, #25]	@ zero_extendqisi2
 939 0028 092B     		cmp	r3, #9
 940 002a 2AD8     		bhi	.L101
 941 002c DFE803F0 		tbb	[pc, r3]
 942              	.L103:
 943 0030 05       		.byte	(.L102-.L103)/2
 944 0031 09       		.byte	(.L104-.L103)/2
 945 0032 29       		.byte	(.L101-.L103)/2
 946 0033 29       		.byte	(.L101-.L103)/2
 947 0034 29       		.byte	(.L101-.L103)/2
ARM GAS  C:\Users\AHMED~1.ELE\AppData\Local\Temp\ccQGHINQ.s 			page 26


 948 0035 13       		.byte	(.L105-.L103)/2
 949 0036 18       		.byte	(.L106-.L103)/2
 950 0037 1D       		.byte	(.L107-.L103)/2
 951 0038 29       		.byte	(.L101-.L103)/2
 952 0039 22       		.byte	(.L108-.L103)/2
 953              		.p2align 1
 954              	.L102:
 434:src/Ecr.c     ****     case ECR_EDC_SALE:
 435:src/Ecr.c     ****       LongBeep();
 955              		.loc 1 435 0
 956 003a FFF7FEFF 		bl	LongBeep
 957              	.LVL83:
 436:src/Ecr.c     ****       WaitCardTrans(SALE_SWIPE);
 958              		.loc 1 436 0
 959 003e 0220     		movs	r0, #2
 960 0040 02E0     		b	.L109
 961              	.L104:
 437:src/Ecr.c     ****       EcrResp();
 438:src/Ecr.c     ****       ResetTerm();
 439:src/Ecr.c     ****       break;
 440:src/Ecr.c     ****     case ECR_EDC_OFFLSALE:
 441:src/Ecr.c     ****       LongBeep();
 962              		.loc 1 441 0
 963 0042 FFF7FEFF 		bl	LongBeep
 964              	.LVL84:
 442:src/Ecr.c     ****       WaitCardTrans(SALE_OFFLINE);
 965              		.loc 1 442 0
 966 0046 0720     		movs	r0, #7
 967              	.L109:
 968 0048 FFF7FEFF 		bl	WaitCardTrans
 969              	.LVL85:
 443:src/Ecr.c     ****       EcrResp();
 970              		.loc 1 443 0
 971 004c FFF7FEFF 		bl	EcrResp
 972              	.LVL86:
 444:src/Ecr.c     ****       ResetTerm();
 973              		.loc 1 444 0
 974 0050 FFF7FEFF 		bl	ResetTerm
 975              	.LVL87:
 445:src/Ecr.c     ****       break;
 976              		.loc 1 445 0
 977 0054 15E0     		b	.L101
 978              	.L105:
 446:src/Ecr.c     ****     case ECR_EDC_LASTTRACE:
 447:src/Ecr.c     ****       LongBeep();
 979              		.loc 1 447 0
 980 0056 FFF7FEFF 		bl	LongBeep
 981              	.LVL88:
 448:src/Ecr.c     ****       GetLastTrace();
 982              		.loc 1 448 0
 983 005a FFF7FEFF 		bl	GetLastTrace
 984              	.LVL89:
 985 005e 0DE0     		b	.L110
 986              	.L106:
 449:src/Ecr.c     ****       RefreshDispAfter(0);
 450:src/Ecr.c     ****       break;
 451:src/Ecr.c     ****     case ECR_EDC_HOSTNAME:
ARM GAS  C:\Users\AHMED~1.ELE\AppData\Local\Temp\ccQGHINQ.s 			page 27


 452:src/Ecr.c     ****       LongBeep();
 987              		.loc 1 452 0
 988 0060 FFF7FEFF 		bl	LongBeep
 989              	.LVL90:
 453:src/Ecr.c     ****       GetHostName();
 990              		.loc 1 453 0
 991 0064 FFF7FEFF 		bl	GetHostName
 992              	.LVL91:
 993 0068 08E0     		b	.L110
 994              	.L107:
 454:src/Ecr.c     ****       RefreshDispAfter(0);
 455:src/Ecr.c     ****       break;
 456:src/Ecr.c     ****     case ECR_EDC_HOSTTOTAL:
 457:src/Ecr.c     ****       LongBeep();
 995              		.loc 1 457 0
 996 006a FFF7FEFF 		bl	LongBeep
 997              	.LVL92:
 458:src/Ecr.c     ****       GetHostTot();
 998              		.loc 1 458 0
 999 006e FFF7FEFF 		bl	GetHostTot
 1000              	.LVL93:
 1001 0072 03E0     		b	.L110
 1002              	.L108:
 459:src/Ecr.c     ****       RefreshDispAfter(0);
 460:src/Ecr.c     ****       break;
 461:src/Ecr.c     ****     case ECR_EDC_SETTLE:
 462:src/Ecr.c     ****       LongBeep();
 1003              		.loc 1 462 0
 1004 0074 FFF7FEFF 		bl	LongBeep
 1005              	.LVL94:
 463:src/Ecr.c     ****       EcrSettle();
 1006              		.loc 1 463 0
 1007 0078 FFF7FEFF 		bl	EcrSettle
 1008              	.LVL95:
 1009              	.L110:
 464:src/Ecr.c     ****       RefreshDispAfter(0);
 1010              		.loc 1 464 0
 1011 007c 0020     		movs	r0, #0
 1012 007e FFF7FEFF 		bl	RefreshDispAfter
 1013              	.LVL96:
 1014              	.L101:
 465:src/Ecr.c     ****       break;
 466:src/Ecr.c     ****   }
 467:src/Ecr.c     ****   ResetTerm();
 468:src/Ecr.c     **** }
 1015              		.loc 1 468 0
 1016 0082 02B0     		add	sp, sp, #8
 1017              		.cfi_def_cfa_offset 8
 1018              		@ sp needed
 1019 0084 BDE81040 		pop	{r4, lr}
 1020              		.cfi_restore 14
 1021              		.cfi_restore 4
 1022              		.cfi_def_cfa_offset 0
 467:src/Ecr.c     **** }
 1023              		.loc 1 467 0
 1024 0088 FFF7FEBF 		b	ResetTerm
 1025              	.LVL97:
ARM GAS  C:\Users\AHMED~1.ELE\AppData\Local\Temp\ccQGHINQ.s 			page 28


 1026              	.L112:
 1027              		.align	2
 1028              	.L111:
 1029 008c 00000000 		.word	gGDS
 1030              		.cfi_endproc
 1031              	.LFE8:
 1032              		.size	EcrCmdProcess, .-EcrCmdProcess
 1033              		.global	KEcrRespTbl
 1034              		.global	KSettleResp
 1035              		.global	KHostTotResp
 1036              		.global	KHostNameResp
 1037              		.global	KLastTrace
 1038              		.global	KOfflSaleResp
 1039              		.global	KSaleResp
 1040              		.section	.rodata
 1041              		.align	1
 1042              		.type	KSettleResp, %object
 1043              		.size	KSettleResp, 4
 1044              	KSettleResp:
 1045 0000 27DF     		.short	-8409
 1046 0002 0000     		.short	0
 1047              		.type	KHostTotResp, %object
 1048              		.size	KHostTotResp, 6
 1049              	KHostTotResp:
 1050 0004 27DF     		.short	-8409
 1051 0006 85DF     		.short	-8315
 1052 0008 0000     		.short	0
 1053              		.type	KHostNameResp, %object
 1054              		.size	KHostNameResp, 6
 1055              	KHostNameResp:
 1056 000a 27DF     		.short	-8409
 1057 000c 84DF     		.short	-8316
 1058 000e 0000     		.short	0
 1059              		.type	KLastTrace, %object
 1060              		.size	KLastTrace, 8
 1061              	KLastTrace:
 1062 0010 0BDF     		.short	-8437
 1063 0012 81DF     		.short	-8319
 1064 0014 27DF     		.short	-8409
 1065 0016 0000     		.short	0
 1066              		.type	KOfflSaleResp, %object
 1067              		.size	KOfflSaleResp, 30
 1068              	KOfflSaleResp:
 1069 0018 02DF     		.short	-8446
 1070 001a 04DF     		.short	-8444
 1071 001c 0BDF     		.short	-8437
 1072 001e 0CDF     		.short	-8436
 1073 0020 0DDF     		.short	-8435
 1074 0022 0EDF     		.short	-8434
 1075 0024 26DF     		.short	-8410
 1076 0026 27DF     		.short	-8409
 1077 0028 29DF     		.short	-8407
 1078 002a 2ADF     		.short	-8406
 1079 002c 82DF     		.short	-8318
 1080 002e 36DF     		.short	-8394
 1081 0030 3CDF     		.short	-8388
 1082 0032 81DF     		.short	-8319
ARM GAS  C:\Users\AHMED~1.ELE\AppData\Local\Temp\ccQGHINQ.s 			page 29


 1083 0034 0000     		.short	0
 1084              		.type	KSaleResp, %object
 1085              		.size	KSaleResp, 32
 1086              	KSaleResp:
 1087 0036 02DF     		.short	-8446
 1088 0038 04DF     		.short	-8444
 1089 003a 0BDF     		.short	-8437
 1090 003c 0CDF     		.short	-8436
 1091 003e 0DDF     		.short	-8435
 1092 0040 0EDF     		.short	-8434
 1093 0042 25DF     		.short	-8411
 1094 0044 26DF     		.short	-8410
 1095 0046 27DF     		.short	-8409
 1096 0048 29DF     		.short	-8407
 1097 004a 2ADF     		.short	-8406
 1098 004c 82DF     		.short	-8318
 1099 004e 36DF     		.short	-8394
 1100 0050 3CDF     		.short	-8388
 1101 0052 81DF     		.short	-8319
 1102 0054 0000     		.short	0
 1103              		.data
 1104              		.align	2
 1105              		.set	.LANCHOR0,. + 0
 1106              		.type	KEcrRespTbl, %object
 1107              		.size	KEcrRespTbl, 40
 1108              	KEcrRespTbl:
 1109 0000 00000000 		.word	KSaleResp
 1110 0004 00000000 		.word	KOfflSaleResp
 1111 0008 00000000 		.word	KSaleResp
 1112 000c 00000000 		.word	KSaleResp
 1113 0010 00000000 		.word	KSaleResp
 1114 0014 00000000 		.word	KLastTrace
 1115 0018 00000000 		.word	KHostNameResp
 1116 001c 00000000 		.word	KHostTotResp
 1117 0020 00000000 		.word	KSaleResp
 1118 0024 00000000 		.word	KSettleResp
 1119              		.text
 1120              	.Letext0:
 1121              		.file 2 "c:\\devtools\\gcc_v49_2014q4\\lib\\gcc\\arm-none-eabi\\4.9.3\\include\\stddef.h"
 1122              		.file 3 "../LibA5T1000/common.h"
 1123              		.file 4 "../LibA5T1000/midware.h"
 1124              		.file 5 "../LibA5T1000/system.h"
 1125              		.file 6 "../LibA5T1000/apm.h"
 1126              		.file 7 "../LibA5T1000/ecrdll.h"
 1127              		.file 8 "../LibA5T1000/emv2dll.h"
 1128              		.file 9 "../LibA5T1000/emvcl2dll.h"
 1129              		.file 10 "src/sysutil.h"
 1130              		.file 11 "src/corevar.h"
 1131              		.file 12 "src/constant.h"
 1132              		.file 13 "src/tranutil.h"
 1133              		.file 14 "src/tlvutil.h"
 1134              		.file 15 "c:\\devtools\\gcc_v49_2014q4\\arm-none-eabi\\include\\string.h"
 1135              		.file 16 "../LibA5T1000/util.h"
 1136              		.file 17 "src/input.h"
 1137              		.file 18 "src/settle.h"