ARM GAS  C:\Users\AHMED~1.ELE\AppData\Local\Temp\ccALCmni.s 			page 1


   1              		.syntax unified
   2              		.cpu cortex-a5
   3              		.fpu softvfp
   4              		.eabi_attribute 20, 1
   5              		.eabi_attribute 21, 1
   6              		.eabi_attribute 23, 3
   7              		.eabi_attribute 24, 1
   8              		.eabi_attribute 25, 1
   9              		.eabi_attribute 26, 1
  10              		.eabi_attribute 30, 4
  11              		.eabi_attribute 34, 0
  12              		.eabi_attribute 18, 4
  13              		.thumb
  14              		.file	"emvtrans.c"
  15              		.text
  16              	.Ltext0:
  17              		.cfi_sections	.debug_frame
  18              		.section	.text.EMVCancel,"ax",%progbits
  19              		.align	1
  20              		.thumb
  21              		.thumb_func
  22              		.type	EMVCancel, %function
  23              	EMVCancel:
  24              	.LFB17:
  25              		.file 1 "src/emvtrans.c"
   1:src/emvtrans.c **** //-----------------------------------------------------------------------------
   2:src/emvtrans.c **** //  File          : emvtrans.c
   3:src/emvtrans.c **** //  Module        :
   4:src/emvtrans.c **** //  Description   : Include routines for EMV transactions.
   5:src/emvtrans.c **** //  Author        : Lewis
   6:src/emvtrans.c **** //  Notes         :
   7:src/emvtrans.c **** //
   8:src/emvtrans.c **** // ============================================================================
   9:src/emvtrans.c **** // | Naming conventions                                                       |
  10:src/emvtrans.c **** // | ~~~~~~~~~~~~~~~~~~                                                       |
  11:src/emvtrans.c **** // |        Struct define : Leading T                                         |
  12:src/emvtrans.c **** // |         Struct/Array : Leading s                                         |
  13:src/emvtrans.c **** // |             Constant : Leading K                                         |
  14:src/emvtrans.c **** // |      Global Variable : Leading g  (variable use outside one C file)      |
  15:src/emvtrans.c **** // |                                                                          |
  16:src/emvtrans.c **** // |   BYTE( 8 Bits) size : Leading b                                         |
  17:src/emvtrans.c **** // |   CHAR( 8 Bits) size : Leading c                                         |
  18:src/emvtrans.c **** // |   WORD(16 Bits) size : Leading w                                         |
  19:src/emvtrans.c **** // |  DWORD(32 Bits) size : Leading d                                         |
  20:src/emvtrans.c **** // |    int(32 Bits) size : Leading i                                         |
  21:src/emvtrans.c **** // | DDWORD(64 Bits) size : Leading dd                                        |
  22:src/emvtrans.c **** // |              Pointer : Leading p                                         |
  23:src/emvtrans.c **** // |                                                                          |
  24:src/emvtrans.c **** // |    Function argument : Leading a                                         |
  25:src/emvtrans.c **** // |       Local Variable : All lower case                                    |
  26:src/emvtrans.c **** // |                                                                          |
  27:src/emvtrans.c **** // | Examples:                                                                |
  28:src/emvtrans.c **** // |                Array : Leading s, (sb = arrary of byte, etc)             |
  29:src/emvtrans.c **** // |              Pointer : Leading p, (pb = pointer of byte, etc)            |
  30:src/emvtrans.c **** // ============================================================================
  31:src/emvtrans.c **** //
  32:src/emvtrans.c **** //  Date          Who         Action
ARM GAS  C:\Users\AHMED~1.ELE\AppData\Local\Temp\ccALCmni.s 			page 2


  33:src/emvtrans.c **** //  ------------  ----------- -------------------------------------------------
  34:src/emvtrans.c **** //  29 Sept 2008  Lewis       Initial Version.
  35:src/emvtrans.c **** //-----------------------------------------------------------------------------
  36:src/emvtrans.c **** #include <stdio.h>
  37:src/emvtrans.c **** #include <string.h>
  38:src/emvtrans.c **** #include "apm.h"
  39:src/emvtrans.c **** #include "util.h"
  40:src/emvtrans.c **** #include "sysutil.h"
  41:src/emvtrans.c **** #include "lptutil.h"
  42:src/emvtrans.c **** #include "message.h"
  43:src/emvtrans.c **** #include "corevar.h"
  44:src/emvtrans.c **** #include "keytrans.h"
  45:src/emvtrans.c **** #include "constant.h"
  46:src/emvtrans.c **** #include "chkoptn.h"
  47:src/emvtrans.c **** #include "input.h"
  48:src/emvtrans.c **** #include "print.h"
  49:src/emvtrans.c **** #include "hostmsg.h"
  50:src/emvtrans.c **** #include "record.h"
  51:src/emvtrans.c **** #include "reversal.h"
  52:src/emvtrans.c **** #include "offline.h"
  53:src/emvtrans.c **** #include "sale.h"
  54:src/emvtrans.c **** #include "tranutil.h"
  55:src/emvtrans.c **** //#include "emvutil.h"
  56:src/emvtrans.c **** #include "tlvutil.h"
  57:src/emvtrans.c **** #include "auxcom.h"
  58:src/emvtrans.c **** #include "emvtrans.h"
  59:src/emvtrans.c **** 
  60:src/emvtrans.c **** //-----------------------------------------------------------------------------
  61:src/emvtrans.c **** //    Globals Variables
  62:src/emvtrans.c **** //-----------------------------------------------------------------------------
  63:src/emvtrans.c **** static BOOLEAN   bAcceptReferral;
  64:src/emvtrans.c **** BOOLEAN gIsMaestro;
  65:src/emvtrans.c **** 
  66:src/emvtrans.c **** //-----------------------------------------------------------------------------
  67:src/emvtrans.c **** //    Defines
  68:src/emvtrans.c **** //-----------------------------------------------------------------------------
  69:src/emvtrans.c **** #define bAction         gGDS->s_EMVOut.bMsg[1]
  70:src/emvtrans.c **** 
  71:src/emvtrans.c **** // state machine def (order may not be as follow)
  72:src/emvtrans.c **** #define EMV_COMPLETE      0x00
  73:src/emvtrans.c **** #define EMV_START         0x01
  74:src/emvtrans.c **** #define EMV_SELECT_APP    0x02
  75:src/emvtrans.c **** #define EMV_ONLINE_PIN    0x03
  76:src/emvtrans.c **** #define EMV_ONLINE        0x04
  77:src/emvtrans.c **** #define EMV_REFERRAL      0x05
  78:src/emvtrans.c **** #define EMV_AMOUNT_AIP    0x06
  79:src/emvtrans.c **** #define EMV_CONFIRM_CARD  0x07
  80:src/emvtrans.c **** #define EMV_AMOUNT        0x08
  81:src/emvtrans.c **** #define EMV_RESTART       0x09
  82:src/emvtrans.c **** 
  83:src/emvtrans.c **** //-----------------------------------------------------------------------------
  84:src/emvtrans.c **** //    Constant
  85:src/emvtrans.c **** //-----------------------------------------------------------------------------
  86:src/emvtrans.c **** const WORD wVMOnlineTags[] = { 
  87:src/emvtrans.c ****   0x5F2A,                                 /* Transaction Currency Code */
  88:src/emvtrans.c ****   0x5F34,                                 /* PAN Sequence Number */
  89:src/emvtrans.c ****   0x82,                                   /* AIP */
ARM GAS  C:\Users\AHMED~1.ELE\AppData\Local\Temp\ccALCmni.s 			page 3


  90:src/emvtrans.c ****   0x84,                                   /* Dedicated File Name */
  91:src/emvtrans.c ****   0x95,                                   /* TVR */
  92:src/emvtrans.c ****   0x9A,                                   /* Transaction Date */
  93:src/emvtrans.c ****   0x9C,                                   /* Transaction Type */
  94:src/emvtrans.c ****   0x9F02,                                 /* Amount Authorised */
  95:src/emvtrans.c ****   0x9F03,                                 /* Cashback Amount */
  96:src/emvtrans.c ****   0x9F09,                                 /* Application Version # */
  97:src/emvtrans.c ****   0x9F10,                                 /* Issuer Application Data */
  98:src/emvtrans.c ****   0x9F1A,                                 /* Terminal Country Code */
  99:src/emvtrans.c ****   0x9F1E,                                 /* IFD Serial Number */
 100:src/emvtrans.c ****   0x9F26,                                 /* Application Cryptogram */
 101:src/emvtrans.c ****   0x9F27,                                 /* CID */
 102:src/emvtrans.c ****   0x9F33,                                 /* Terminal Capabilities */
 103:src/emvtrans.c ****   0x9F34,                                 /* CVM Result */
 104:src/emvtrans.c ****   0x9F35,                                 /* Terminal Type */
 105:src/emvtrans.c ****   0x9F36,                                 /* Application Transaction Counter */
 106:src/emvtrans.c ****   0x9F37,                                 /* Unpredicatable Number */
 107:src/emvtrans.c ****   0x9F41,                                 /* Transaction Sequence Counter */
 108:src/emvtrans.c ****   0x9F53,                                 /* Transaction Category code */
 109:src/emvtrans.c ****   0
 110:src/emvtrans.c **** };
 111:src/emvtrans.c **** 
 112:src/emvtrans.c **** const BYTE KPinMsg[] = {     /* PIN related message (max 48 bytes x 4) */
 113:src/emvtrans.c ****   "**** Enter PIN ****\x0"                /*   1. Enter PIN      */
 114:src/emvtrans.c ****   "---- PIN  OK ----\x0"                  /*   2. PIN OK         */
 115:src/emvtrans.c ****   " Incorrect  PIN \x0"                   /*   3. Incorrect PIN  */
 116:src/emvtrans.c ****   "  Last PIN Try  \x0"                   /*   4. Last PIN Try   */
 117:src/emvtrans.c **** };
 118:src/emvtrans.c **** 
 119:src/emvtrans.c **** //*****************************************************************************
 120:src/emvtrans.c **** //  Function        : DeAss
 121:src/emvtrans.c **** //  Description     : decode and count TLV object from the message buffer
 122:src/emvtrans.c **** //  Input           : *pbMsg;   // pointer to message
 123:src/emvtrans.c **** //                    wLen;     // len of message
 124:src/emvtrans.c **** //  Return          : number of Tag in message
 125:src/emvtrans.c **** //  Note            : N/A
 126:src/emvtrans.c **** //  Globals Changed : decode TLV objects store to asTagC structure
 127:src/emvtrans.c **** //*****************************************************************************
 128:src/emvtrans.c **** BYTE DeAss(TLIST *aList, BYTE *pbMsg, WORD wLen)
 129:src/emvtrans.c **** {
 130:src/emvtrans.c ****   BYTE bIdx;
 131:src/emvtrans.c ****   BYTE * pbMark;
 132:src/emvtrans.c ****   WORD wInc;
 133:src/emvtrans.c **** 
 134:src/emvtrans.c ****   if (wLen) {
 135:src/emvtrans.c ****     bIdx = 0;
 136:src/emvtrans.c ****     do {
 137:src/emvtrans.c ****       if (*pbMsg == 0 || *pbMsg == 0xFF) {
 138:src/emvtrans.c ****         ++pbMsg;
 139:src/emvtrans.c ****         --wLen;
 140:src/emvtrans.c ****       } else {
 141:src/emvtrans.c ****         if (bIdx == MAX_TAG_LIST - 1)
 142:src/emvtrans.c ****           break;
 143:src/emvtrans.c ****         //get Tag
 144:src/emvtrans.c ****         aList[bIdx].wTag = TlvTag(pbMark = pbMsg);
 145:src/emvtrans.c ****         //get Length
 146:src/emvtrans.c ****         wInc = TlvLen(pbMsg);
ARM GAS  C:\Users\AHMED~1.ELE\AppData\Local\Temp\ccALCmni.s 			page 4


 147:src/emvtrans.c ****         aList[bIdx].sLen = (BYTE) wInc;
 148:src/emvtrans.c ****         //get buffer pointer
 149:src/emvtrans.c ****         aList[bIdx].pbLoc = TlvVPtr(pbMsg);
 150:src/emvtrans.c ****         pbMsg += TlvSizeOf(pbMsg);
 151:src/emvtrans.c ****         if (pbMsg - pbMark <= wLen)
 152:src/emvtrans.c ****           wLen -= pbMsg - pbMark;
 153:src/emvtrans.c ****         else
 154:src/emvtrans.c ****           break;
 155:src/emvtrans.c ****         if (wInc > TLMax)               /* length out of range */
 156:src/emvtrans.c ****           break;
 157:src/emvtrans.c ****         ++bIdx;
 158:src/emvtrans.c ****       }
 159:src/emvtrans.c ****       if (wLen == 0) {
 160:src/emvtrans.c ****         aList[bIdx].wTag = 0;
 161:src/emvtrans.c ****         return bIdx;
 162:src/emvtrans.c ****       }
 163:src/emvtrans.c ****     } while (TRUE);
 164:src/emvtrans.c ****   }
 165:src/emvtrans.c ****   aList[0].wTag = 0;
 166:src/emvtrans.c ****   return 0;
 167:src/emvtrans.c **** }
 168:src/emvtrans.c **** //*****************************************************************************
 169:src/emvtrans.c **** //  Function        : DispLabel
 170:src/emvtrans.c **** //  Description     : Display Application Label.
 171:src/emvtrans.c **** //  Input           : TLIST pointer
 172:src/emvtrans.c **** //  Return          : N/A
 173:src/emvtrans.c **** //  Note            : N/A
 174:src/emvtrans.c **** //  Globals Changed : N/A;
 175:src/emvtrans.c **** //*****************************************************************************
 176:src/emvtrans.c **** static void DispLabel(TLIST *psLp)
 177:src/emvtrans.c **** {
 178:src/emvtrans.c ****   BYTE i;
 179:src/emvtrans.c ****   BYTE len;
 180:src/emvtrans.c ****   BYTE buffer[MW_MAX_LINESIZE+1];
 181:src/emvtrans.c **** 
 182:src/emvtrans.c ****   memcpy(buffer,psLp->pbLoc,len = ((psLp->sLen < MW_MAX_LINESIZE) ? psLp->sLen : MW_MAX_LINESIZE));
 183:src/emvtrans.c ****   for (i=0;i<len;i++)
 184:src/emvtrans.c ****     if ((buffer[i] & 0x7f) < 0x20)
 185:src/emvtrans.c ****       buffer[i] = ' ';
 186:src/emvtrans.c ****   buffer[len] = 0;
 187:src/emvtrans.c ****   DispClrBelowMW(MW_LINE7);
 188:src/emvtrans.c ****   DispLineMW(buffer, MW_LINE7, MW_BIGFONT);
 189:src/emvtrans.c **** }
 190:src/emvtrans.c **** //*****************************************************************************
 191:src/emvtrans.c **** //  Function        : EMVChoice
 192:src/emvtrans.c **** //  Description     : Selection Application
 193:src/emvtrans.c **** //  Input           : N/A
 194:src/emvtrans.c **** //  Return          : FALSE => CANCEL
 195:src/emvtrans.c **** //  Note            : N/A
 196:src/emvtrans.c **** //  Globals Changed : N/A
 197:src/emvtrans.c **** //*****************************************************************************
 198:src/emvtrans.c **** static BOOLEAN EMVChoice(void)
 199:src/emvtrans.c **** {
 200:src/emvtrans.c ****   BYTE bChoice;
 201:src/emvtrans.c ****   BYTE bIdx;
 202:src/emvtrans.c ****   DWORD keyin;
 203:src/emvtrans.c **** 
ARM GAS  C:\Users\AHMED~1.ELE\AppData\Local\Temp\ccALCmni.s 			page 5


 204:src/emvtrans.c ****   //no of tag in response buffer not in group of 2 (AID and display label)
 205:src/emvtrans.c ****   if ((bChoice = DeAss(gGDS->s_TagList, &gGDS->s_EMVOut.bMsg[2],
 206:src/emvtrans.c ****                        (WORD)(gGDS->s_EMVOut.wLen - 2)) / 2) == 0) {
 207:src/emvtrans.c ****     EMVFatal();
 208:src/emvtrans.c ****   }
 209:src/emvtrans.c ****   DispClrBelowMW(MW_LINE3);
 210:src/emvtrans.c ****   Disp2x16Msg(GetConstMsg(EDC_EMV_SEL_APP), MW_LINE3, MW_BIGFONT);
 211:src/emvtrans.c ****   bIdx = 0;
 212:src/emvtrans.c ****   do {
 213:src/emvtrans.c ****     //pointer to the 2nd tag (display label), each step increment by 2
 214:src/emvtrans.c ****     DispLabel(&gGDS->s_TagList[bIdx * 2 + 1]);
 215:src/emvtrans.c ****     do {
 216:src/emvtrans.c ****       keyin = APM_WaitKey(KBD_TIMEOUT,0);
 217:src/emvtrans.c ****       if (keyin == MWKEY_CANCL)
 218:src/emvtrans.c ****         return FALSE;
 219:src/emvtrans.c ****       if (keyin == MWKEY_ENTER) {
 220:src/emvtrans.c ****         gGDS->s_EMVIn.bMsg[0] = bIdx;
 221:src/emvtrans.c ****         return TRUE;
 222:src/emvtrans.c ****       }
 223:src/emvtrans.c ****       if (keyin == MWKEY_CLR)
 224:src/emvtrans.c ****         break;
 225:src/emvtrans.c ****     } while (TRUE);
 226:src/emvtrans.c ****     if (++bIdx == bChoice) {
 227:src/emvtrans.c ****       if (bChoice == 1)
 228:src/emvtrans.c ****         return FALSE;
 229:src/emvtrans.c ****       bIdx = 0;
 230:src/emvtrans.c ****     }
 231:src/emvtrans.c ****   } while (TRUE);
 232:src/emvtrans.c **** }
 233:src/emvtrans.c **** //*****************************************************************************
 234:src/emvtrans.c **** //  Function        : EMVInput
 235:src/emvtrans.c **** //  Description     : Get user input for EMV transaction.
 236:src/emvtrans.c **** //  Input           : N/A
 237:src/emvtrans.c **** //  Return          : FALSE => CANCEL
 238:src/emvtrans.c **** //  Note            : N/A
 239:src/emvtrans.c **** //  Globals Changed : N/A
 240:src/emvtrans.c **** //*****************************************************************************
 241:src/emvtrans.c **** BOOLEAN EMVInput(BOOLEAN aSelAgain)
 242:src/emvtrans.c **** {
 243:src/emvtrans.c ****   if (aSelAgain) {
 244:src/emvtrans.c ****     DispErrorMsg(GetConstMsg(EDC_EMV_CANNOT_SEL));
 245:src/emvtrans.c ****   }
 246:src/emvtrans.c ****   //one application and confirmation required or more application for selection
 247:src/emvtrans.c ****   if ((gGDS->s_EMVIn.bMsg[0]=gGDS->s_EMVOut.bMsg[1])) {
 248:src/emvtrans.c ****     if (EMVChoice() == FALSE)
 249:src/emvtrans.c ****       return FALSE;
 250:src/emvtrans.c ****   }
 251:src/emvtrans.c ****   memcpy(&gGDS->s_EMVIn.bMsg[1], "\x9F\x41\x03", 3);
 252:src/emvtrans.c ****   memcpy(&gGDS->s_EMVIn.bMsg[4], STIS_TERM_DATA.sb_trace_no, 3);
 253:src/emvtrans.c ****   gGDS->s_EMVIn.wLen = 7;
 254:src/emvtrans.c ****   Disp2x16Msg(GetConstMsg(EDC_EMV_PROCESSING),MW_LINE5, MW_BIGFONT);
 255:src/emvtrans.c ****   return TRUE;
 256:src/emvtrans.c **** }
 257:src/emvtrans.c **** /******************************************************************************
 258:src/emvtrans.c ****  *  Function        : TagPut
 259:src/emvtrans.c ****  *  Description     : Save Tag to input buffer.
 260:src/emvtrans.c ****  *  Input           : aBuf;     // Data buffer
ARM GAS  C:\Users\AHMED~1.ELE\AppData\Local\Temp\ccALCmni.s 			page 6


 261:src/emvtrans.c ****  *                    aTag;     // Tag
 262:src/emvtrans.c ****  *  Return          : new buffer pointer
 263:src/emvtrans.c ****  *  Note            : N/A
 264:src/emvtrans.c ****  *  Globals Changed : N/A
 265:src/emvtrans.c ****  ******************************************************************************
 266:src/emvtrans.c ****  */
 267:src/emvtrans.c **** BYTE *TagPut(BYTE *aBuf, WORD aTag)
 268:src/emvtrans.c **** {
 269:src/emvtrans.c ****   if (aTag / 256)
 270:src/emvtrans.c ****     *aBuf++ = aTag / 256;
 271:src/emvtrans.c ****   *aBuf = (BYTE)aTag;
 272:src/emvtrans.c ****   return aBuf + 1;
 273:src/emvtrans.c **** }
 274:src/emvtrans.c **** /******************************************************************************
 275:src/emvtrans.c ****  *  Function        : TagSeek
 276:src/emvtrans.c ****  *  Description     : Tag List Seek
 277:src/emvtrans.c ****  *  Input           : Tag;
 278:src/emvtrans.c ****  *  Return          : TLIST pointer
 279:src/emvtrans.c ****  *  Note            : N/A
 280:src/emvtrans.c ****  *  Globals Changed : N/A
 281:src/emvtrans.c ****  ******************************************************************************
 282:src/emvtrans.c ****  */
 283:src/emvtrans.c **** TLIST *TagSeek(TLIST *aSrc, WORD aTag)
 284:src/emvtrans.c **** {
 285:src/emvtrans.c ****   while (aSrc->wTag) {
 286:src/emvtrans.c ****     if (aSrc->wTag == aTag)
 287:src/emvtrans.c ****       return aSrc;
 288:src/emvtrans.c ****     ++aSrc;
 289:src/emvtrans.c ****   }
 290:src/emvtrans.c ****   return NULL;
 291:src/emvtrans.c **** }
 292:src/emvtrans.c **** /******************************************************************************
 293:src/emvtrans.c ****  *  Function        : TagData
 294:src/emvtrans.c ****  *  Description     : Seek for Tag Data
 295:src/emvtrans.c ****  *  Input           : aTag;   // Tag
 296:src/emvtrans.c ****  *  Return          : Pointer to Tag data
 297:src/emvtrans.c ****  *  Note            : N/A
 298:src/emvtrans.c ****  *  Globals Changed : N/A
 299:src/emvtrans.c ****  ******************************************************************************
 300:src/emvtrans.c ****  */
 301:src/emvtrans.c **** BYTE *TagData(TLIST *aSrc, WORD aTag)
 302:src/emvtrans.c **** {
 303:src/emvtrans.c ****   while (aSrc->wTag) {
 304:src/emvtrans.c ****     if (aSrc->wTag == aTag)
 305:src/emvtrans.c ****       return aSrc->pbLoc;
 306:src/emvtrans.c ****     ++aSrc;
 307:src/emvtrans.c ****   }
 308:src/emvtrans.c ****   return NULL;
 309:src/emvtrans.c **** }
 310:src/emvtrans.c **** //*****************************************************************************
 311:src/emvtrans.c **** //  Function        : PackTagsData
 312:src/emvtrans.c **** //  Description     : Prepare tag data
 313:src/emvtrans.c **** //  Input           : aBuf;         // pointer to dest buffer.
 314:src/emvtrans.c **** //                    aTags;        // list of tags
 315:src/emvtrans.c **** //  Return          : End of buffer pointer;
 316:src/emvtrans.c **** //  Note            : N/A
 317:src/emvtrans.c **** //  Globals Changed : N/a
ARM GAS  C:\Users\AHMED~1.ELE\AppData\Local\Temp\ccALCmni.s 			page 7


 318:src/emvtrans.c **** //*****************************************************************************
 319:src/emvtrans.c **** BYTE *PackTagsData(BYTE *aBuf, WORD *aTags)
 320:src/emvtrans.c **** {
 321:src/emvtrans.c ****   WORD tag;
 322:src/emvtrans.c ****   TLIST *psLp;
 323:src/emvtrans.c **** 
 324:src/emvtrans.c ****   while ((tag = *aTags) != 0) {
 325:src/emvtrans.c ****     if ((psLp = TagSeek(gGDS->s_TagList, tag)) != NULL) {
 326:src/emvtrans.c ****       aBuf = TagPut(aBuf, tag);
 327:src/emvtrans.c ****       *aBuf++ = psLp->sLen; // assume byte len
 328:src/emvtrans.c ****       memcpy(aBuf, psLp->pbLoc, psLp->sLen);
 329:src/emvtrans.c ****       aBuf += psLp->sLen;
 330:src/emvtrans.c ****     }
 331:src/emvtrans.c ****     aTags++;  // next tag word
 332:src/emvtrans.c ****   }
 333:src/emvtrans.c ****   return aBuf;
 334:src/emvtrans.c **** }
 335:src/emvtrans.c **** //*****************************************************************************
 336:src/emvtrans.c **** //  Function        : EMVFatal
 337:src/emvtrans.c **** //  Description     : EMV error handler.
 338:src/emvtrans.c **** //  Input           : N/A
 339:src/emvtrans.c **** //  Return          : N/A
 340:src/emvtrans.c **** //  Note            : N/A
 341:src/emvtrans.c **** //  Globals Changed : N/A;
 342:src/emvtrans.c **** //*****************************************************************************
 343:src/emvtrans.c **** void EMVFatal(void)
 344:src/emvtrans.c **** {
 345:src/emvtrans.c ****   Disp2x16Msg(GetConstMsg(EDC_EMV_FATAL), MW_LINE3, MW_CLRDISP|MW_BIGFONT);
 346:src/emvtrans.c ****   while (APM_WaitKey((DWORD)-1,0) != MWKEY_CANCL) SleepMW();
 347:src/emvtrans.c ****   ResetMW();
 348:src/emvtrans.c **** }
 349:src/emvtrans.c **** //*****************************************************************************
 350:src/emvtrans.c **** //  Function        : GetApplNameTag
 351:src/emvtrans.c **** //  Description     : Prepare app name tag if issuer code table is supported.
 352:src/emvtrans.c **** //  Input           : N/A.
 353:src/emvtrans.c **** //  Return          : tag.
 354:src/emvtrans.c **** //  Note            : Pack buffer must be setup before calling this func.
 355:src/emvtrans.c **** //  Globals Changed : N/A
 356:src/emvtrans.c **** //*****************************************************************************
 357:src/emvtrans.c **** WORD GetApplNameTag(void)
 358:src/emvtrans.c **** {
 359:src/emvtrans.c ****   TLIST * ptag;   // temp tag data ptr
 360:src/emvtrans.c **** 
 361:src/emvtrans.c ****   ptag = TagSeek(gGDS->s_TagList, 0x9F11);  // issuer code table
 362:src/emvtrans.c ****   if ( ptag != NULL )                // tag value is found
 363:src/emvtrans.c ****     if (*ptag->pbLoc==1)             // only supported these 1 issuer code tbl
 364:src/emvtrans.c ****       if (TagSeek(gGDS->s_TagList, 0x9F12)) // app preferred name exists
 365:src/emvtrans.c ****         return 0x9F12;               // app preferred name
 366:src/emvtrans.c ****   return 0x50;                       // app label
 367:src/emvtrans.c **** }
 368:src/emvtrans.c **** //*****************************************************************************
 369:src/emvtrans.c **** //  Function        : ePANExtract
 370:src/emvtrans.c **** //  Description     : Extract PAN data from EMV data.
 371:src/emvtrans.c **** //  Input           : N/A
 372:src/emvtrans.c **** //  Return          : FALSE => Error;
 373:src/emvtrans.c **** //  Note            : N/A
 374:src/emvtrans.c **** //  Globals Changed : gInput;
ARM GAS  C:\Users\AHMED~1.ELE\AppData\Local\Temp\ccALCmni.s 			page 8


 375:src/emvtrans.c **** //*****************************************************************************
 376:src/emvtrans.c **** static BOOLEAN ePANExtract(void)
 377:src/emvtrans.c **** {
 378:src/emvtrans.c ****   TLIST *psLp;
 379:src/emvtrans.c ****   BYTE bLen;
 380:src/emvtrans.c **** 
 381:src/emvtrans.c ****   if (DeAss(gGDS->s_TagList, gGDS->s_EMVOut.bMsg+2, gGDS->s_EMVOut.wLen - 2)) {
 382:src/emvtrans.c ****     if ((psLp = TagSeek(gGDS->s_TagList, 0x5A)) != NULL) {
 383:src/emvtrans.c ****       if ((bLen = psLp->sLen) <= 10) {
 384:src/emvtrans.c ****         memset(INPUT.sb_pan, 0xFF, 10);
 385:src/emvtrans.c ****         memcpy(INPUT.sb_pan, psLp->pbLoc, bLen);
 386:src/emvtrans.c ****         //INPUT.sb_pan_len = bLen;
 387:src/emvtrans.c ****         if ((INPUT.sb_pan[9] & 0x0F) == 0x0F) {
 388:src/emvtrans.c ****           if (InCardTable()) {
 389:src/emvtrans.c ****             //if ((psLp = TagSeek(gGDS->s_TagList, 0x5F34)) != NULL)
 390:src/emvtrans.c ****             //  INPUT.sb_pan_seqno = psLp->pbLoc[0];
 391:src/emvtrans.c ****             //else
 392:src/emvtrans.c ****             //  INPUT.sb_pan_seqno = 0;
 393:src/emvtrans.c ****             return TRUE;
 394:src/emvtrans.c ****           }
 395:src/emvtrans.c ****         }
 396:src/emvtrans.c ****         RSP_DATA.w_rspcode = 'U'*256+'C';
 397:src/emvtrans.c ****         return FALSE;
 398:src/emvtrans.c ****       }
 399:src/emvtrans.c ****     }
 400:src/emvtrans.c ****   }
 401:src/emvtrans.c ****   EMVFatal();
 402:src/emvtrans.c ****   return FALSE;
 403:src/emvtrans.c **** }
 404:src/emvtrans.c **** //*****************************************************************************
 405:src/emvtrans.c **** //  Function        : ValidEMVData
 406:src/emvtrans.c **** //  Description     : Validate & Extract EMV Data
 407:src/emvtrans.c **** //  Input           : N/A
 408:src/emvtrans.c **** //  Return          : TRUE/FALSE;
 409:src/emvtrans.c **** //  Note            : N/A
 410:src/emvtrans.c **** //  Globals Changed : gGTS;
 411:src/emvtrans.c **** //*****************************************************************************
 412:src/emvtrans.c **** BOOLEAN ValidEMVData(void)
 413:src/emvtrans.c **** {
 414:src/emvtrans.c ****   TLIST * psLp;
 415:src/emvtrans.c ****   BYTE bLen;
 416:src/emvtrans.c **** 
 417:src/emvtrans.c ****   if (ePANExtract() == FALSE) {
 418:src/emvtrans.c ****     return FALSE;
 419:src/emvtrans.c ****   }
 420:src/emvtrans.c **** 
 421:src/emvtrans.c ****   memcpy(&INPUT.sb_exp_date, TagData(gGDS->s_TagList, 0x5F24), 2); //App. Exp. Date
 422:src/emvtrans.c **** 
 423:src/emvtrans.c **** 
 424:src/emvtrans.c **** //field71[128];
 425:src/emvtrans.c **** if ((psLp = TagSeek(gGDS->s_TagList, 0x71)) != NULL) {      //Issuer Script Template 1 (Tag 71)
 426:src/emvtrans.c **** 	if ((bLen = psLp->sLen) > sizeof(INPUT.field71))
 427:src/emvtrans.c **** 		bLen = sizeof(INPUT.field71);
 428:src/emvtrans.c **** 
 429:src/emvtrans.c **** 	memcpy(INPUT.field71, psLp->pbLoc, bLen);
 430:src/emvtrans.c **** }
 431:src/emvtrans.c **** //field72[128];
ARM GAS  C:\Users\AHMED~1.ELE\AppData\Local\Temp\ccALCmni.s 			page 9


 432:src/emvtrans.c **** if ((psLp = TagSeek(gGDS->s_TagList, 0x72)) != NULL) {      //Issuer Script Template 2 (Tag 72)
 433:src/emvtrans.c **** 	if ((bLen = psLp->sLen) > sizeof(INPUT.field72))
 434:src/emvtrans.c **** 		bLen = sizeof(INPUT.field72);
 435:src/emvtrans.c **** 
 436:src/emvtrans.c **** 	memcpy(INPUT.field72, psLp->pbLoc, bLen);
 437:src/emvtrans.c **** }
 438:src/emvtrans.c **** //field82[2];
 439:src/emvtrans.c **** if ((psLp = TagSeek(gGDS->s_TagList, 0x82)) != NULL) {      //Application Interchange Profile (Tag 
 440:src/emvtrans.c **** 	if ((bLen = psLp->sLen) > sizeof(INPUT.field82))
 441:src/emvtrans.c **** 		bLen = sizeof(INPUT.field82);
 442:src/emvtrans.c **** 
 443:src/emvtrans.c **** 	memcpy(INPUT.field82, psLp->pbLoc, bLen);
 444:src/emvtrans.c **** }
 445:src/emvtrans.c **** //field84[16];
 446:src/emvtrans.c **** if ((psLp = TagSeek(gGDS->s_TagList, 0x84)) != NULL) {      //Dedicates File Name (Tag 84)
 447:src/emvtrans.c **** 	if ((bLen = psLp->sLen) > sizeof(INPUT.field84))
 448:src/emvtrans.c **** 		bLen = sizeof(INPUT.field84);
 449:src/emvtrans.c **** 
 450:src/emvtrans.c **** 	memcpy(INPUT.field84, psLp->pbLoc, bLen);
 451:src/emvtrans.c **** }
 452:src/emvtrans.c **** //field86[21];
 453:src/emvtrans.c **** if ((psLp = TagSeek(gGDS->s_TagList, 0x86)) != NULL) {      //Issuer script command (Tag 86)
 454:src/emvtrans.c **** 	if ((bLen = psLp->sLen) > sizeof(INPUT.field86))
 455:src/emvtrans.c **** 		bLen = sizeof(INPUT.field86);
 456:src/emvtrans.c **** 
 457:src/emvtrans.c **** 	memcpy(INPUT.field86, psLp->pbLoc, bLen);
 458:src/emvtrans.c **** }
 459:src/emvtrans.c **** //field8A[2];
 460:src/emvtrans.c **** if ((psLp = TagSeek(gGDS->s_TagList, 0x8A)) != NULL) {      //Authorization response code (Tag 8A)
 461:src/emvtrans.c **** 	if ((bLen = psLp->sLen) > sizeof(INPUT.field8A))
 462:src/emvtrans.c **** 		bLen = sizeof(INPUT.field8A);
 463:src/emvtrans.c **** 
 464:src/emvtrans.c **** 	memcpy(INPUT.field8A, psLp->pbLoc, bLen);
 465:src/emvtrans.c **** }
 466:src/emvtrans.c **** //field91[16];
 467:src/emvtrans.c **** if ((psLp = TagSeek(gGDS->s_TagList, 0x91)) != NULL) {      //Issuer Authentication Data (Tag 91)
 468:src/emvtrans.c **** 	if ((bLen = psLp->sLen) > sizeof(INPUT.field91))
 469:src/emvtrans.c **** 		bLen = sizeof(INPUT.field91);
 470:src/emvtrans.c **** 
 471:src/emvtrans.c **** 	memcpy(INPUT.field91, psLp->pbLoc, bLen);
 472:src/emvtrans.c **** }
 473:src/emvtrans.c **** //field95[5];
 474:src/emvtrans.c **** if ((psLp = TagSeek(gGDS->s_TagList, 0x95)) != NULL) {      //Terminal Verification Results (Tag 95
 475:src/emvtrans.c **** 	if ((bLen = psLp->sLen) > sizeof(INPUT.field95))
 476:src/emvtrans.c **** 		bLen = sizeof(INPUT.field95);
 477:src/emvtrans.c **** 
 478:src/emvtrans.c **** 	memcpy(INPUT.field95, psLp->pbLoc, bLen);
 479:src/emvtrans.c **** }
 480:src/emvtrans.c **** //field9A[3];
 481:src/emvtrans.c **** if ((psLp = TagSeek(gGDS->s_TagList, 0x9A)) != NULL) {      //Transaction Date (Tag 9A)
 482:src/emvtrans.c **** 	if ((bLen = psLp->sLen) > sizeof(INPUT.field9A))
 483:src/emvtrans.c **** 		bLen = sizeof(INPUT.field9A);
 484:src/emvtrans.c **** 
 485:src/emvtrans.c **** 	memcpy(INPUT.field9A, psLp->pbLoc, bLen);
 486:src/emvtrans.c **** }
 487:src/emvtrans.c **** //field9C;
 488:src/emvtrans.c **** if ((psLp = TagSeek(gGDS->s_TagList, 0x9C)) != NULL) {      //Transaction Type (Tag 9C)
ARM GAS  C:\Users\AHMED~1.ELE\AppData\Local\Temp\ccALCmni.s 			page 10


 489:src/emvtrans.c **** 	if ((bLen = psLp->sLen) > sizeof(INPUT.field9C))
 490:src/emvtrans.c **** 		bLen = sizeof(INPUT.field9C);
 491:src/emvtrans.c **** 
 492:src/emvtrans.c **** 	memcpy(INPUT.field9C, psLp->pbLoc, bLen);
 493:src/emvtrans.c **** }
 494:src/emvtrans.c **** //field5F2A[2];
 495:src/emvtrans.c **** if ((psLp = TagSeek(gGDS->s_TagList, 0x5F2A)) != NULL) {      //Transaction Currency Code (Tag 5F2A
 496:src/emvtrans.c **** 	if ((bLen = psLp->sLen) > sizeof(INPUT.field5F2A))
 497:src/emvtrans.c **** 		bLen = sizeof(INPUT.field5F2A);
 498:src/emvtrans.c **** 
 499:src/emvtrans.c **** 	memcpy(INPUT.field5F2A, psLp->pbLoc, bLen);
 500:src/emvtrans.c **** }
 501:src/emvtrans.c **** //field9F02[6];
 502:src/emvtrans.c **** if ((psLp = TagSeek(gGDS->s_TagList, 0x9F02)) != NULL) {      //Transaction Amount (Tag 9F02)
 503:src/emvtrans.c **** 	if ((bLen = psLp->sLen) > sizeof(INPUT.field9F02))
 504:src/emvtrans.c **** 		bLen = sizeof(INPUT.field9F02);
 505:src/emvtrans.c **** 
 506:src/emvtrans.c **** 	memcpy(INPUT.field9F02, psLp->pbLoc, bLen);
 507:src/emvtrans.c **** }
 508:src/emvtrans.c **** //field9F03[6];
 509:src/emvtrans.c **** if ((psLp = TagSeek(gGDS->s_TagList, 0x9F03)) != NULL) {      //Other Amount (Tag 9F03)
 510:src/emvtrans.c **** 	if ((bLen = psLp->sLen) > sizeof(INPUT.field9F03))
 511:src/emvtrans.c **** 		bLen = sizeof(INPUT.field9F03);
 512:src/emvtrans.c **** 
 513:src/emvtrans.c **** 	memcpy(INPUT.field9F03, psLp->pbLoc, bLen);
 514:src/emvtrans.c **** }
 515:src/emvtrans.c **** //field9F09[2];
 516:src/emvtrans.c **** if ((psLp = TagSeek(gGDS->s_TagList, 0x9F09)) != NULL) {      //Terminal Application Version Number
 517:src/emvtrans.c **** 	if ((bLen = psLp->sLen) > sizeof(INPUT.field9F09))
 518:src/emvtrans.c **** 		bLen = sizeof(INPUT.field9F09);
 519:src/emvtrans.c **** 
 520:src/emvtrans.c **** 	memcpy(INPUT.field9F09, psLp->pbLoc, bLen);
 521:src/emvtrans.c **** }
 522:src/emvtrans.c **** //field9F10[32];
 523:src/emvtrans.c **** if ((psLp = TagSeek(gGDS->s_TagList, 0x9F10)) != NULL) {      //Issuer Application Data (Tag 9F10)
 524:src/emvtrans.c **** 	if ((bLen = psLp->sLen) > sizeof(INPUT.field9F10))
 525:src/emvtrans.c **** 		bLen = sizeof(INPUT.field9F10);
 526:src/emvtrans.c **** 
 527:src/emvtrans.c **** 	memcpy(INPUT.field9F10, psLp->pbLoc, bLen);
 528:src/emvtrans.c **** }
 529:src/emvtrans.c **** //field9F1A[2];
 530:src/emvtrans.c **** if ((psLp = TagSeek(gGDS->s_TagList, 0x9F1A)) != NULL) {      //Terminal Country Code (Tag 9F1A)
 531:src/emvtrans.c **** 	if ((bLen = psLp->sLen) > sizeof(INPUT.field9F1A))
 532:src/emvtrans.c **** 		bLen = sizeof(INPUT.field9F1A);
 533:src/emvtrans.c **** 
 534:src/emvtrans.c **** 	memcpy(INPUT.field9F1A, psLp->pbLoc, bLen);
 535:src/emvtrans.c **** }
 536:src/emvtrans.c **** //field9F1E[8];
 537:src/emvtrans.c **** if ((psLp = TagSeek(gGDS->s_TagList, 0x9F1E)) != NULL) {      //Interface Device (IFD) Serial numbe
 538:src/emvtrans.c **** 	if ((bLen = psLp->sLen) > sizeof(INPUT.field9F1E))
 539:src/emvtrans.c **** 		bLen = sizeof(INPUT.field9F1E);
 540:src/emvtrans.c **** 
 541:src/emvtrans.c **** 	memcpy(INPUT.field9F1E, psLp->pbLoc, bLen);
 542:src/emvtrans.c **** }
 543:src/emvtrans.c **** //field57[19];
 544:src/emvtrans.c **** if ((psLp = TagSeek(gGDS->s_TagList, 0x57)) != NULL) {      //Track II Equivalent Data (Tag 57)
 545:src/emvtrans.c **** 	if ((bLen = psLp->sLen) > sizeof(INPUT.field57))
ARM GAS  C:\Users\AHMED~1.ELE\AppData\Local\Temp\ccALCmni.s 			page 11


 546:src/emvtrans.c **** 		bLen = sizeof(INPUT.field57);
 547:src/emvtrans.c **** 
 548:src/emvtrans.c **** 	memcpy(INPUT.field57, psLp->pbLoc, bLen);
 549:src/emvtrans.c **** }
 550:src/emvtrans.c **** //field9F26[8];
 551:src/emvtrans.c **** if ((psLp = TagSeek(gGDS->s_TagList, 0x9F26)) != NULL) {      //Application cryptogram (Tag 9F26)
 552:src/emvtrans.c **** 	if ((bLen = psLp->sLen) > sizeof(INPUT.field9F26))
 553:src/emvtrans.c **** 		bLen = sizeof(INPUT.field9F26);
 554:src/emvtrans.c **** 
 555:src/emvtrans.c **** 	memcpy(INPUT.field9F26, psLp->pbLoc, bLen);
 556:src/emvtrans.c **** }
 557:src/emvtrans.c **** //field9F27;
 558:src/emvtrans.c **** if ((psLp = TagSeek(gGDS->s_TagList, 0x9F27)) != NULL) {      //Cryptogram Information Data (Tag 9F
 559:src/emvtrans.c **** 	if ((bLen = psLp->sLen) > sizeof(INPUT.field9F27))
 560:src/emvtrans.c **** 		bLen = sizeof(INPUT.field9F27);
 561:src/emvtrans.c **** 
 562:src/emvtrans.c **** 	memcpy(INPUT.field9F27, psLp->pbLoc, bLen);
 563:src/emvtrans.c **** }
 564:src/emvtrans.c **** //field9F33[3];
 565:src/emvtrans.c **** if ((psLp = TagSeek(gGDS->s_TagList, 0x9F33)) != NULL) {      //Terminal Capabilities  (Tag 9F33)
 566:src/emvtrans.c **** 	if ((bLen = psLp->sLen) > sizeof(INPUT.field9F33))
 567:src/emvtrans.c **** 		bLen = sizeof(INPUT.field9F33);
 568:src/emvtrans.c **** 
 569:src/emvtrans.c **** 	memcpy(INPUT.field9F33, psLp->pbLoc, bLen);
 570:src/emvtrans.c **** }
 571:src/emvtrans.c **** //field9F34[4];
 572:src/emvtrans.c **** if ((psLp = TagSeek(gGDS->s_TagList, 0x9F34)) != NULL) {      //Cardholder Verification Method Resu
 573:src/emvtrans.c **** 	if ((bLen = psLp->sLen) > sizeof(INPUT.field9F34))
 574:src/emvtrans.c **** 		bLen = sizeof(INPUT.field9F34);
 575:src/emvtrans.c **** 
 576:src/emvtrans.c **** 	memcpy(INPUT.field9F34, psLp->pbLoc, bLen);
 577:src/emvtrans.c **** }
 578:src/emvtrans.c **** //field9F35;
 579:src/emvtrans.c **** if ((psLp = TagSeek(gGDS->s_TagList, 0x9F35)) != NULL) {      //Terminal Type (Tag 9F35)
 580:src/emvtrans.c **** 	if ((bLen = psLp->sLen) > sizeof(INPUT.field9F35))
 581:src/emvtrans.c **** 		bLen = sizeof(INPUT.field9F35);
 582:src/emvtrans.c **** 
 583:src/emvtrans.c **** 	memcpy(INPUT.field9F35, psLp->pbLoc, bLen);
 584:src/emvtrans.c **** }
 585:src/emvtrans.c **** //field9F36[2];
 586:src/emvtrans.c **** if ((psLp = TagSeek(gGDS->s_TagList, 0x9F36)) != NULL) {      //Application Transaction Counter (AT
 587:src/emvtrans.c **** 	if ((bLen = psLp->sLen) > sizeof(INPUT.field9F36))
 588:src/emvtrans.c **** 		bLen = sizeof(INPUT.field9F36);
 589:src/emvtrans.c **** 
 590:src/emvtrans.c **** 	memcpy(INPUT.field9F36, psLp->pbLoc, bLen);
 591:src/emvtrans.c **** }
 592:src/emvtrans.c **** //field9F37[4];
 593:src/emvtrans.c **** if ((psLp = TagSeek(gGDS->s_TagList, 0x9F37)) != NULL) {      //Unpredictable Number (Tag 9F37)
 594:src/emvtrans.c **** 	if ((bLen = psLp->sLen) > sizeof(INPUT.field9F37))
 595:src/emvtrans.c **** 		bLen = sizeof(INPUT.field9F37);
 596:src/emvtrans.c **** 
 597:src/emvtrans.c **** 	memcpy(INPUT.field9F37, psLp->pbLoc, bLen);
 598:src/emvtrans.c **** }
 599:src/emvtrans.c **** //field9F41[4];
 600:src/emvtrans.c **** if ((psLp = TagSeek(gGDS->s_TagList, 0x9F41)) != NULL) {      //Transaction Sequence Number (Tag 9F
 601:src/emvtrans.c **** 	if ((bLen = psLp->sLen) > sizeof(INPUT.field9F41))
 602:src/emvtrans.c **** 		bLen = sizeof(INPUT.field9F41);
ARM GAS  C:\Users\AHMED~1.ELE\AppData\Local\Temp\ccALCmni.s 			page 12


 603:src/emvtrans.c **** 
 604:src/emvtrans.c **** 	memcpy(INPUT.field9F41, psLp->pbLoc, bLen);
 605:src/emvtrans.c **** }
 606:src/emvtrans.c **** //field9F53;
 607:src/emvtrans.c **** if ((psLp = TagSeek(gGDS->s_TagList, 0x9F53)) != NULL) {      //Transaction Category Code (Tag 9F53
 608:src/emvtrans.c **** 	if ((bLen = psLp->sLen) > sizeof(INPUT.field9F53))
 609:src/emvtrans.c **** 		bLen = sizeof(INPUT.field9F53);
 610:src/emvtrans.c **** 
 611:src/emvtrans.c **** 	memcpy(INPUT.field9F53, psLp->pbLoc, bLen);
 612:src/emvtrans.c **** }
 613:src/emvtrans.c **** 
 614:src/emvtrans.c **** 
 615:src/emvtrans.c **** 
 616:src/emvtrans.c **** 
 617:src/emvtrans.c ****   if ((psLp = TagSeek(gGDS->s_TagList, 0x5F20)) != NULL) {      //card holder name
 618:src/emvtrans.c ****     if ((bLen = psLp->sLen) > sizeof(INPUT.sb_holder_name))
 619:src/emvtrans.c ****       bLen = sizeof(INPUT.sb_holder_name);
 620:src/emvtrans.c ****     //FormatHolderName(INPUT.sb_holder_name, psLp->pbLoc, bLen);
 621:src/emvtrans.c ****     memcpy(INPUT.sb_holder_name, psLp->pbLoc, bLen);
 622:src/emvtrans.c ****   }
 623:src/emvtrans.c **** 
 624:src/emvtrans.c ****   INPUT.s_trk2buf.b_len = 0;
 625:src/emvtrans.c ****   if ((psLp = TagSeek(gGDS->s_TagList, 0x57)) != NULL) { /* make it compatable with swipe */
 626:src/emvtrans.c ****     split(INPUT.s_trk2buf.sb_content, psLp->pbLoc, bLen = psLp->sLen);
 627:src/emvtrans.c ****     INPUT.s_trk2buf.b_len = (BYTE) fndb(INPUT.s_trk2buf.sb_content, 'F', (BYTE)(bLen * 2));
 628:src/emvtrans.c ****     if (INPUT.s_trk2buf.b_len < (bLen*2) -1) {
 629:src/emvtrans.c ****       RSP_DATA.w_rspcode='U'*256+'C';
 630:src/emvtrans.c ****       RSP_DATA.b_response = TRANS_FAIL;
 631:src/emvtrans.c ****       return FALSE;
 632:src/emvtrans.c ****     }
 633:src/emvtrans.c ****   }
 634:src/emvtrans.c **** 
 635:src/emvtrans.c ****   memset(INPUT.s_icc_data.sb_label, ' ',sizeof(INPUT.s_icc_data.sb_label));
 636:src/emvtrans.c ****   psLp = TagSeek(gGDS->s_TagList, GetApplNameTag());
 637:src/emvtrans.c ****   if (psLp != NULL) {
 638:src/emvtrans.c ****     if ((bLen = psLp->sLen) > 16)
 639:src/emvtrans.c ****       bLen = 16;
 640:src/emvtrans.c ****     memcpy(INPUT.s_icc_data.sb_label, psLp->pbLoc, bLen);
 641:src/emvtrans.c ****   }
 642:src/emvtrans.c **** 
 643:src/emvtrans.c ****   // KC++ for Maestro
 644:src/emvtrans.c ****   if ((psLp = TagSeek(gGDS->s_TagList, 0x9F06)) != NULL) {    // search AID
 645:src/emvtrans.c ****     if ((memcmp(psLp->pbLoc, "\xA0\x00\x00\00\x04\x22\x03", 7) == 0) ||
 646:src/emvtrans.c ****         (memcmp(psLp->pbLoc, "\xA0\x00\x00\00\x04\x30\x60", 7) == 0)) {
 647:src/emvtrans.c ****         gIsMaestro = TRUE;
 648:src/emvtrans.c ****     }
 649:src/emvtrans.c ****   }
 650:src/emvtrans.c ****   // KC--
 651:src/emvtrans.c **** 
 652:src/emvtrans.c ****   ClearResponse();
 653:src/emvtrans.c ****   memcpy(&RSP_DATA.s_dtg.b_year, TagData(gGDS->s_TagList, 0x9A), 3);
 654:src/emvtrans.c ****   memcpy(&RSP_DATA.s_dtg.b_hour, TagData(gGDS->s_TagList, 0x9F21), 3);
 655:src/emvtrans.c ****   memset(RSP_DATA.sb_auth_code, ' ', sizeof(RSP_DATA.sb_auth_code));
 656:src/emvtrans.c ****   RSP_DATA.w_rspcode = '5'*256+'1';
 657:src/emvtrans.c ****   RSP_DATA.b_response = TRANS_FAIL;
 658:src/emvtrans.c ****   return TRUE;
 659:src/emvtrans.c **** }
ARM GAS  C:\Users\AHMED~1.ELE\AppData\Local\Temp\ccALCmni.s 			page 13


 660:src/emvtrans.c **** //*****************************************************************************
 661:src/emvtrans.c **** //  Function        : emvPIN
 662:src/emvtrans.c **** //  Description     : Get EMV Online PIN.
 663:src/emvtrans.c **** //  Input           : N/A
 664:src/emvtrans.c **** //  Return          : FALSE => fail
 665:src/emvtrans.c **** //  Note            : N/A
 666:src/emvtrans.c **** //  Globals Changed : N/A
 667:src/emvtrans.c **** //*****************************************************************************
 668:src/emvtrans.c **** static BOOLEAN emvPIN(void)
 669:src/emvtrans.c **** {
 670:src/emvtrans.c ****   if (GetPIN()) {
 671:src/emvtrans.c ****     gGDS->s_EMVIn.bMsg[0] = 0;
 672:src/emvtrans.c ****     gGDS->s_EMVIn.wLen = 1;
 673:src/emvtrans.c ****     DispHeader(NULL);
 674:src/emvtrans.c ****     Disp2x16Msg(GetConstMsg(EDC_EMV_PROCESSING), MW_LINE5, MW_BIGFONT);
 675:src/emvtrans.c ****     return TRUE;
 676:src/emvtrans.c ****   }
 677:src/emvtrans.c ****   DispHeader(NULL);
 678:src/emvtrans.c ****   RSP_DATA.w_rspcode = 'C'*256+'N';
 679:src/emvtrans.c ****   return FALSE;
 680:src/emvtrans.c **** }
 681:src/emvtrans.c **** //*****************************************************************************
 682:src/emvtrans.c **** //  Function        : PackEMVData
 683:src/emvtrans.c **** //  Description     : Put EMV related data to  ICC DATA buffer
 684:src/emvtrans.c **** //  Input           : aDat;     // pointer to ICC DATA struct
 685:src/emvtrans.c **** //  Return          : N/A
 686:src/emvtrans.c **** //  Note            : N/A
 687:src/emvtrans.c **** //  Globals Changed : N/A
 688:src/emvtrans.c **** //******************************************************************************
 689:src/emvtrans.c **** void PackEMVData(struct ICC_DATA  *aDat)
 690:src/emvtrans.c **** {
 691:src/emvtrans.c ****   BYTE *ptr;
 692:src/emvtrans.c **** 
 693:src/emvtrans.c ****   aDat->w_misc_len = 0;
 694:src/emvtrans.c ****   ptr = PackTagsData(aDat->sb_misc_content, (WORD *)wVMOnlineTags);
 695:src/emvtrans.c ****   aDat->w_misc_len = (BYTE)((DWORD)ptr - (DWORD)aDat->sb_misc_content);
 696:src/emvtrans.c **** }
 697:src/emvtrans.c **** //*****************************************************************************
 698:src/emvtrans.c **** //  Function        : EMVOnline
 699:src/emvtrans.c **** //  Description     : Online Auth
 700:src/emvtrans.c **** //  Input           : N/A
 701:src/emvtrans.c **** //  Return          : FALSE: fail to go online, else TRUE
 702:src/emvtrans.c **** //  Note            : Zero length response => online failure
 703:src/emvtrans.c **** //  Globals Changed : N/A;
 704:src/emvtrans.c **** //*****************************************************************************
 705:src/emvtrans.c **** static BOOLEAN EMVOnline(void)
 706:src/emvtrans.c **** {
 707:src/emvtrans.c ****   static BYTE abResp[4]; //benny
 708:src/emvtrans.c **** 
 709:src/emvtrans.c ****   if (DeAss(gGDS->s_TagList, gGDS->s_EMVOut.bMsg+2, (WORD)(gGDS->s_EMVOut.wLen - 2)) == 0)
 710:src/emvtrans.c ****     EMVFatal();
 711:src/emvtrans.c ****   gGDS->s_EMVOut.wLen = 1;
 712:src/emvtrans.c ****   DispHeader(NULL);
 713:src/emvtrans.c ****   PackComm(INPUT.w_host_idx, FALSE);
 714:src/emvtrans.c ****   if ((RSP_DATA.w_rspcode = APM_ConnectOK(FALSE)) == COMM_OK) {
 715:src/emvtrans.c ****     if (ReversalOK()) {
 716:src/emvtrans.c ****       OfflineSent(FALSE);
ARM GAS  C:\Users\AHMED~1.ELE\AppData\Local\Temp\ccALCmni.s 			page 14


 717:src/emvtrans.c ****       memcpy(INPUT.sb_trace_no, TagData(gGDS->s_TagList, 0x9F41), 3); /* restore TSN */
 718:src/emvtrans.c ****       memcpy(TX_DATA.sb_trace_no, INPUT.sb_trace_no, sizeof(TX_DATA.sb_trace_no));
 719:src/emvtrans.c ****       memcpy(INPUT.sb_roc_no, INPUT.sb_trace_no, sizeof(TX_DATA.sb_trace_no));  // restore ROC
 720:src/emvtrans.c ****       PackEMVData(&INPUT.s_icc_data);  // field 55 ICC data
 721:src/emvtrans.c ****       IncAPMTraceNo();
 722:src/emvtrans.c ****       MoveInput2Tx();
 723:src/emvtrans.c ****       memcpy(TX_DATA.sb_pin, INPUT.sb_pin, sizeof(INPUT.sb_pin)); // online pin
 724:src/emvtrans.c ****       //PackEMVData(&TX_DATA.s_icc_data);  // field 55 ICC data
 725:src/emvtrans.c ****       PackProcCode(TX_DATA.b_trans, TX_DATA.b_acc_ind);
 726:src/emvtrans.c ****       PackHostMsg();
 727:src/emvtrans.c ****       UpdateHostStatus(REV_PENDING);
 728:src/emvtrans.c **** 
 729:src/emvtrans.c ****       if ((RSP_DATA.w_rspcode=APM_SendRcvd(&TX_BUF, &RX_BUF))==COMM_OK) {
 730:src/emvtrans.c ****         RSP_DATA.b_response = CheckHostRsp();
 731:src/emvtrans.c ****       }
 732:src/emvtrans.c ****       if (RSP_DATA.b_response <= TRANS_REJ) {
 733:src/emvtrans.c ****         memcpy(abResp, "\x8A\x02", 2);  //Authorisation Response Code, 2 bytes
 734:src/emvtrans.c ****         abResp[2] = (BYTE)(RSP_DATA.w_rspcode>>8);
 735:src/emvtrans.c ****         abResp[3] = (BYTE)(RSP_DATA.w_rspcode&0xFF);
 736:src/emvtrans.c ****         memcpy(gGDS->s_EMVIn.bMsg+1, abResp, sizeof(abResp));
 737:src/emvtrans.c ****         gGDS->s_EMVIn.wLen = sizeof(abResp) + 1;
 738:src/emvtrans.c ****         if (RSP_DATA.b_response == TRANS_ACP) {
 739:src/emvtrans.c ****           memcpy(gGDS->s_EMVIn.bMsg+gGDS->s_EMVIn.wLen, "\x89\x06", 2); //Auth. Code, 6 bytes
 740:src/emvtrans.c ****           memcpy(gGDS->s_EMVIn.bMsg+gGDS->s_EMVIn.wLen+2, RSP_DATA.sb_auth_code, 6);
 741:src/emvtrans.c ****           gGDS->s_EMVIn.wLen += 8;
 742:src/emvtrans.c ****         }
 743:src/emvtrans.c ****         //send issuer script and authentication data to EMV module
 744:src/emvtrans.c ****         if (RSP_DATA.s_icc_data.w_misc_len) {
 745:src/emvtrans.c ****           memcpy(gGDS->s_EMVIn.bMsg+gGDS->s_EMVIn.wLen, RSP_DATA.s_icc_data.sb_misc_content, RSP_DA
 746:src/emvtrans.c ****           gGDS->s_EMVIn.wLen += RSP_DATA.s_icc_data.w_misc_len;
 747:src/emvtrans.c ****         }
 748:src/emvtrans.c ****       }
 749:src/emvtrans.c ****     }
 750:src/emvtrans.c ****     APM_ResetComm();
 751:src/emvtrans.c ****     return TRUE;
 752:src/emvtrans.c ****   }
 753:src/emvtrans.c ****   return FALSE; // unable to go online
 754:src/emvtrans.c **** }
 755:src/emvtrans.c **** //*****************************************************************************
 756:src/emvtrans.c **** //  Function        : EMVReferral
 757:src/emvtrans.c **** //  Description     : Voice Referral
 758:src/emvtrans.c **** //  Input           : N/A
 759:src/emvtrans.c **** //  Return          : FALSE => ERROR
 760:src/emvtrans.c **** //  Note            : Zero length response => decline
 761:src/emvtrans.c **** //  Globals Changed : N/A
 762:src/emvtrans.c **** //******************************************************************************
 763:src/emvtrans.c **** static BOOLEAN EMVReferral(void)
 764:src/emvtrans.c **** {
 765:src/emvtrans.c ****   BYTE tmpbuf[MW_MAX_LINESIZE+1];
 766:src/emvtrans.c **** 
 767:src/emvtrans.c ****   PackRspText();
 768:src/emvtrans.c ****   memcpy(tmpbuf, &RSP_DATA.text[1], 16);
 769:src/emvtrans.c ****   tmpbuf[16]=0;
 770:src/emvtrans.c ****   DispLineMW(tmpbuf, MW_LINE1, MW_CENTER|MW_BIGFONT);
 771:src/emvtrans.c **** 
 772:src/emvtrans.c ****   APM_ResetComm();
 773:src/emvtrans.c ****   RSP_DATA.w_rspcode = 'C'*256+'N';
ARM GAS  C:\Users\AHMED~1.ELE\AppData\Local\Temp\ccALCmni.s 			page 15


 774:src/emvtrans.c ****   RSP_DATA.text[0] = 0;
 775:src/emvtrans.c **** 
 776:src/emvtrans.c ****   if (GetAuthCode()) {
 777:src/emvtrans.c ****     if (INPUT.b_trans >= SALE_SWIPE) {
 778:src/emvtrans.c ****       INPUT.b_trans = ESALE_COMPLETE;
 779:src/emvtrans.c ****       INPUT.b_trans_status = OFFLINE;
 780:src/emvtrans.c ****     }
 781:src/emvtrans.c ****     DispHeader(STIS_ISS_TBL(0).sb_card_name);
 782:src/emvtrans.c ****     RSP_DATA.b_response = TRANS_ACP;
 783:src/emvtrans.c ****   }
 784:src/emvtrans.c ****   else
 785:src/emvtrans.c ****     DispHeader(STIS_ISS_TBL(0).sb_card_name);
 786:src/emvtrans.c **** 
 787:src/emvtrans.c ****   if (RSP_DATA.b_response != TRANS_ACP){
 788:src/emvtrans.c ****     LongBeep();
 789:src/emvtrans.c ****     return FALSE;
 790:src/emvtrans.c ****   }
 791:src/emvtrans.c ****   PackDTGAA();
 792:src/emvtrans.c ****   return TRUE;
 793:src/emvtrans.c **** }
 794:src/emvtrans.c **** //*****************************************************************************
 795:src/emvtrans.c **** //  Function        : EMVAccepted
 796:src/emvtrans.c **** //  Description     : Store EMV Data into Batch.
 797:src/emvtrans.c **** //  Input           : N/A
 798:src/emvtrans.c **** //  Return          : N/A
 799:src/emvtrans.c **** //  Note            : N/A
 800:src/emvtrans.c **** //  Globals Changed : gds.emvdll, input;
 801:src/emvtrans.c **** //*****************************************************************************
 802:src/emvtrans.c **** static void EMVAccepted(BOOLEAN aOnlTxn)
 803:src/emvtrans.c **** {
 804:src/emvtrans.c ****   BYTE *tag_ptr;
 805:src/emvtrans.c ****   TLIST * psLp;
 806:src/emvtrans.c ****   BYTE  *ptr;
 807:src/emvtrans.c **** 
 808:src/emvtrans.c ****   Disp2x16Msg(GetConstMsg(EDC_EMV_PROCESSING), MW_LINE5, MW_BIGFONT);
 809:src/emvtrans.c ****   memcpy(INPUT.sb_trace_no, TagData(gGDS->s_TagList, 0x9F41), 3);  // restore TSN
 810:src/emvtrans.c ****   // mark as offline for offline approved
 811:src/emvtrans.c ****   if (!(bAction & ACT_HOSTAPP)){  // offline approved
 812:src/emvtrans.c ****     if (INPUT.b_trans==SALE_ICC)
 813:src/emvtrans.c ****       INPUT.b_trans = ESALE_UNDER_LMT;
 814:src/emvtrans.c ****   }
 815:src/emvtrans.c **** 
 816:src/emvtrans.c ****   RSP_DATA.b_response = TRANS_ACP;
 817:src/emvtrans.c ****   tag_ptr = TagData(gGDS->s_TagList, 0x89); // locate auth code
 818:src/emvtrans.c ****   if (bAcceptReferral == TRUE) {
 819:src/emvtrans.c ****     if (tag_ptr!=NULL)
 820:src/emvtrans.c ****       memcpy(tag_ptr, RSP_DATA.sb_auth_code, 6); // update auth code
 821:src/emvtrans.c ****   }
 822:src/emvtrans.c ****   else {
 823:src/emvtrans.c ****     if (tag_ptr!=NULL)
 824:src/emvtrans.c ****       memcpy(RSP_DATA.sb_auth_code, tag_ptr, 6); // store Auth Code
 825:src/emvtrans.c ****     else
 826:src/emvtrans.c ****       GenAuthCode(RSP_DATA.sb_auth_code);
 827:src/emvtrans.c ****     if (!aOnlTxn) {
 828:src/emvtrans.c ****       memset(RSP_DATA.sb_auth_code, ' ', 6);
 829:src/emvtrans.c ****       memcpy(RSP_DATA.sb_auth_code, "Y1", 2);
 830:src/emvtrans.c ****       IncAPMTraceNo();
ARM GAS  C:\Users\AHMED~1.ELE\AppData\Local\Temp\ccALCmni.s 			page 16


 831:src/emvtrans.c ****       memcpy(TX_DATA.sb_trace_no, INPUT.sb_trace_no, sizeof(TX_DATA.sb_trace_no));
 832:src/emvtrans.c ****     }
 833:src/emvtrans.c ****   }
 834:src/emvtrans.c **** 
 835:src/emvtrans.c **** 
 836:src/emvtrans.c ****   if ((psLp = TagSeek(gGDS->s_TagList, 0x9f26)) != NULL) // app Cryptogram
 837:src/emvtrans.c ****     memcpy(INPUT.s_icc_data.sb_tag_9f26, psLp->pbLoc, psLp->sLen);
 838:src/emvtrans.c ****   if ((psLp = TagSeek(gGDS->s_TagList, 0x9F06)) != NULL) { //AID for printing
 839:src/emvtrans.c ****     memcpy(INPUT.s_icc_data.sb_aid, psLp->pbLoc, psLp->sLen);
 840:src/emvtrans.c ****     INPUT.s_icc_data.b_aid_len = psLp->sLen;
 841:src/emvtrans.c ****   }
 842:src/emvtrans.c **** 
 843:src/emvtrans.c ****   SetRspCode('0'*256+'0');
 844:src/emvtrans.c ****   PackEMVData(&INPUT.s_icc_data);  // field 55 ICC data
 845:src/emvtrans.c ****   if (bAction & ACT_SIGNATURE)
 846:src/emvtrans.c ****     RSP_DATA.w_rspcode = 'V'*256+'S';
 847:src/emvtrans.c ****   else {
 848:src/emvtrans.c ****     RSP_DATA.w_rspcode = 'T'*256+'A';
 849:src/emvtrans.c ****     // !2007-05-23++
 850:src/emvtrans.c ****     // Check for PIN Verified
 851:src/emvtrans.c ****     if ((ptr = TagData(gGDS->s_TagList, 0x9F10)) != NULL) {
 852:src/emvtrans.c ****       if (ptr[4]&0x04)
 853:src/emvtrans.c ****         RSP_DATA.b_PinVerified = 1;
 854:src/emvtrans.c ****     }
 855:src/emvtrans.c ****     // !2007-05-23--
 856:src/emvtrans.c ****   }
 857:src/emvtrans.c **** 
 858:src/emvtrans.c ****   PackInputP();
 859:src/emvtrans.c ****   MoveInput2Tx();
 860:src/emvtrans.c ****   if (INPUT.b_trans != AUTH_ICC){
 861:src/emvtrans.c ****     if (bAcceptReferral == TRUE) {
 862:src/emvtrans.c ****       IncTraceNo();
 863:src/emvtrans.c ****     }
 864:src/emvtrans.c ****     SaveRecord();
 865:src/emvtrans.c ****     if ((INPUT.b_trans==ESALE_UNDER_LMT)||((INPUT.b_trans==ESALE_COMPLETE)&&(bAcceptReferral!=TRUE)
 866:src/emvtrans.c ****       if (BlockAuthCode())
 867:src/emvtrans.c ****         memset(RSP_DATA.sb_auth_code, ' ', sizeof(RSP_DATA.sb_auth_code));
 868:src/emvtrans.c ****     }
 869:src/emvtrans.c ****   }
 870:src/emvtrans.c ****   else {  // fill record buf even if not storing for ECR resp
 871:src/emvtrans.c ****     Input2RecordBuf();
 872:src/emvtrans.c ****   }
 873:src/emvtrans.c **** 
 874:src/emvtrans.c ****   /*
 875:src/emvtrans.c ****   if (bAcceptReferral==TRUE){
 876:src/emvtrans.c ****     AcceptBeep();
 877:src/emvtrans.c ****     #if (LPT_SUPPORT|TMLPT_SUPPORT)  // Conditional Compile for Printer support
 878:src/emvtrans.c ****     PrintBuf(MSG_BUF.sb_content, MSG_BUF.d_len, FALSE);
 879:src/emvtrans.c ****     #endif                    // PRINTER_SUPPORT
 880:src/emvtrans.c ****     MsgBufSetup();
 881:src/emvtrans.c ****     PackMsgBufLen();
 882:src/emvtrans.c ****   }
 883:src/emvtrans.c ****   */
 884:src/emvtrans.c **** }
 885:src/emvtrans.c **** //*****************************************************************************
 886:src/emvtrans.c **** //  Function        : EMVCancel
 887:src/emvtrans.c **** //  Description     : Handle EMV Cancel response
ARM GAS  C:\Users\AHMED~1.ELE\AppData\Local\Temp\ccALCmni.s 			page 17


 888:src/emvtrans.c **** //  Input           : EMV process next state.
 889:src/emvtrans.c **** //  Return          : EMV process next state.
 890:src/emvtrans.c **** //  Note            : N/A
 891:src/emvtrans.c **** //  Globals Changed : N/A
 892:src/emvtrans.c **** //*****************************************************************************
 893:src/emvtrans.c **** static BYTE EMVCancel(BYTE aNextState)
 894:src/emvtrans.c **** {
  26              		.loc 1 894 0
  27              		.cfi_startproc
  28              		@ args = 0, pretend = 0, frame = 0
  29              		@ frame_needed = 0, uses_anonymous_args = 0
  30              	.LVL0:
 895:src/emvtrans.c ****   DispClrBelowMW(MW_LINE3);  // clr Pls Select display
  31              		.loc 1 895 0
  32 0000 0023     		movs	r3, #0
 894:src/emvtrans.c ****   DispClrBelowMW(MW_LINE3);  // clr Pls Select display
  33              		.loc 1 894 0
  34 0002 37B5     		push	{r0, r1, r2, r4, r5, lr}
  35              		.cfi_def_cfa_offset 24
  36              		.cfi_offset 4, -12
  37              		.cfi_offset 5, -8
  38              		.cfi_offset 14, -4
  39              		.loc 1 895 0
  40 0004 4FF44072 		mov	r2, #768
  41 0008 0093     		str	r3, [sp]
  42 000a 2321     		movs	r1, #35
 894:src/emvtrans.c ****   DispClrBelowMW(MW_LINE3);  // clr Pls Select display
  43              		.loc 1 894 0
  44 000c 0546     		mov	r5, r0
  45              		.loc 1 895 0
  46 000e 0F20     		movs	r0, #15
  47              	.LVL1:
  48 0010 FFF7FEFF 		bl	lib_app_call
  49              	.LVL2:
 896:src/emvtrans.c ****   RSP_DATA.w_rspcode = 'C'*256+'N';
  50              		.loc 1 896 0
  51 0014 134C     		ldr	r4, .L10
  52 0016 44F24E33 		movw	r3, #17230
  53 001a A4F81637 		strh	r3, [r4, #1814]	@ movhi
 897:src/emvtrans.c ****   LongBeep();
  54              		.loc 1 897 0
  55 001e FFF7FEFF 		bl	LongBeep
  56              	.LVL3:
 898:src/emvtrans.c ****   if (gGDS->s_EMVOut.wLen > 2)
  57              		.loc 1 898 0
  58 0022 114B     		ldr	r3, .L10+4
  59 0024 1B68     		ldr	r3, [r3]
  60 0026 03F55E53 		add	r3, r3, #14208
  61 002a 1A89     		ldrh	r2, [r3, #8]
  62 002c 022A     		cmp	r2, #2
  63 002e 06D9     		bls	.L2
 899:src/emvtrans.c ****     if (bAction & ACT_HOSTAPP)
  64              		.loc 1 899 0
  65 0030 DB68     		ldr	r3, [r3, #12]
  66 0032 5B78     		ldrb	r3, [r3, #1]	@ zero_extendqisi2
  67 0034 5B06     		lsls	r3, r3, #25
  68 0036 02D5     		bpl	.L2
ARM GAS  C:\Users\AHMED~1.ELE\AppData\Local\Temp\ccALCmni.s 			page 18


 900:src/emvtrans.c ****       UpdateHostStatus(REV_PENDING);
  69              		.loc 1 900 0
  70 0038 0120     		movs	r0, #1
  71 003a FFF7FEFF 		bl	UpdateHostStatus
  72              	.LVL4:
  73              	.L2:
 901:src/emvtrans.c ****   if (IOCtlMW(gIccHandle, IO_ICC_CHANGE, NULL))
  74              		.loc 1 901 0
  75 003e 0023     		movs	r3, #0
  76 0040 0721     		movs	r1, #7
  77 0042 0093     		str	r3, [sp]
  78 0044 094B     		ldr	r3, .L10+8
  79 0046 0F20     		movs	r0, #15
  80 0048 1A68     		ldr	r2, [r3]
  81 004a 0523     		movs	r3, #5
  82 004c FFF7FEFF 		bl	lib_app_call
  83              	.LVL5:
 902:src/emvtrans.c ****     aNextState = EMV_COMPLETE;  // no fallback
 903:src/emvtrans.c **** 
 904:src/emvtrans.c ****   RSP_DATA.b_response = TRANS_REJ; // for print msg disable
  84              		.loc 1 904 0
  85 0050 0123     		movs	r3, #1
  86 0052 84F8A838 		strb	r3, [r4, #2216]
 905:src/emvtrans.c ****   return aNextState;
 906:src/emvtrans.c **** }
  87              		.loc 1 906 0
  88 0056 0028     		cmp	r0, #0
  89 0058 0CBF     		ite	eq
  90 005a 2846     		moveq	r0, r5
  91 005c 0020     		movne	r0, #0
  92              	.LVL6:
  93 005e 03B0     		add	sp, sp, #12
  94              		.cfi_def_cfa_offset 12
  95              		@ sp needed
  96 0060 30BD     		pop	{r4, r5, pc}
  97              	.L11:
  98 0062 00BF     		.align	2
  99              	.L10:
 100 0064 00000000 		.word	gGTS
 101 0068 00000000 		.word	gGDS
 102 006c 00000000 		.word	gIccHandle
 103              		.cfi_endproc
 104              	.LFE17:
 105              		.size	EMVCancel, .-EMVCancel
 106              		.section	.text.DeAss,"ax",%progbits
 107              		.align	1
 108              		.global	DeAss
 109              		.thumb
 110              		.thumb_func
 111              		.type	DeAss, %function
 112              	DeAss:
 113              	.LFB0:
 129:src/emvtrans.c ****   BYTE bIdx;
 114              		.loc 1 129 0
 115              		.cfi_startproc
 116              		@ args = 0, pretend = 0, frame = 0
 117              		@ frame_needed = 0, uses_anonymous_args = 0
ARM GAS  C:\Users\AHMED~1.ELE\AppData\Local\Temp\ccALCmni.s 			page 19


 118              	.LVL7:
 119 0000 2DE9F843 		push	{r3, r4, r5, r6, r7, r8, r9, lr}
 120              		.cfi_def_cfa_offset 32
 121              		.cfi_offset 3, -32
 122              		.cfi_offset 4, -28
 123              		.cfi_offset 5, -24
 124              		.cfi_offset 6, -20
 125              		.cfi_offset 7, -16
 126              		.cfi_offset 8, -12
 127              		.cfi_offset 9, -8
 128              		.cfi_offset 14, -4
 129:src/emvtrans.c ****   BYTE bIdx;
 129              		.loc 1 129 0
 130 0004 0746     		mov	r7, r0
 131 0006 0D46     		mov	r5, r1
 134:src/emvtrans.c ****     bIdx = 0;
 132              		.loc 1 134 0
 133 0008 1646     		mov	r6, r2
 134 000a B2B3     		cbz	r2, .L13
 135 000c 0024     		movs	r4, #0
 136              	.LVL8:
 137              	.L16:
 137:src/emvtrans.c ****         ++pbMsg;
 138              		.loc 1 137 0
 139 000e 2B78     		ldrb	r3, [r5]	@ zero_extendqisi2
 140 0010 013B     		subs	r3, r3, #1
 141 0012 DBB2     		uxtb	r3, r3
 142 0014 FD2B     		cmp	r3, #253
 143 0016 03D9     		bls	.L14
 139:src/emvtrans.c ****       } else {
 144              		.loc 1 139 0
 145 0018 013E     		subs	r6, r6, #1
 146              	.LVL9:
 138:src/emvtrans.c ****         --wLen;
 147              		.loc 1 138 0
 148 001a 0135     		adds	r5, r5, #1
 149              	.LVL10:
 139:src/emvtrans.c ****       } else {
 150              		.loc 1 139 0
 151 001c B6B2     		uxth	r6, r6
 152              	.LVL11:
 153 001e 25E0     		b	.L15
 154              	.L14:
 141:src/emvtrans.c ****           break;
 155              		.loc 1 141 0
 156 0020 952C     		cmp	r4, #149
 157 0022 2AD0     		beq	.L13
 144:src/emvtrans.c ****         //get Length
 158              		.loc 1 144 0
 159 0024 2846     		mov	r0, r5
 160 0026 FFF7FEFF 		bl	TlvTag
 161              	.LVL12:
 162 002a 0FFA84F8 		sxth	r8, r4
 163 002e 07EBC809 		add	r9, r7, r8, lsl #3
 164              	.LVL13:
 165 0032 27F83800 		strh	r0, [r7, r8, lsl #3]	@ movhi
 146:src/emvtrans.c ****         aList[bIdx].sLen = (BYTE) wInc;
ARM GAS  C:\Users\AHMED~1.ELE\AppData\Local\Temp\ccALCmni.s 			page 20


 166              		.loc 1 146 0
 167 0036 2846     		mov	r0, r5
 168 0038 FFF7FEFF 		bl	TlvLen
 169              	.LVL14:
 147:src/emvtrans.c ****         //get buffer pointer
 170              		.loc 1 147 0
 171 003c 89F80200 		strb	r0, [r9, #2]
 146:src/emvtrans.c ****         aList[bIdx].sLen = (BYTE) wInc;
 172              		.loc 1 146 0
 173 0040 8046     		mov	r8, r0
 174              	.LVL15:
 149:src/emvtrans.c ****         pbMsg += TlvSizeOf(pbMsg);
 175              		.loc 1 149 0
 176 0042 2846     		mov	r0, r5
 177              	.LVL16:
 178 0044 FFF7FEFF 		bl	TlvVPtr
 179              	.LVL17:
 180 0048 C9F80400 		str	r0, [r9, #4]
 150:src/emvtrans.c ****         if (pbMsg - pbMark <= wLen)
 181              		.loc 1 150 0
 182 004c 2846     		mov	r0, r5
 183 004e FFF7FEFF 		bl	TlvSizeOf
 184              	.LVL18:
 151:src/emvtrans.c ****           wLen -= pbMsg - pbMark;
 185              		.loc 1 151 0
 186 0052 B042     		cmp	r0, r6
 150:src/emvtrans.c ****         if (pbMsg - pbMark <= wLen)
 187              		.loc 1 150 0
 188 0054 05EB0003 		add	r3, r5, r0
 189              	.LVL19:
 151:src/emvtrans.c ****           wLen -= pbMsg - pbMark;
 190              		.loc 1 151 0
 191 0058 0FDC     		bgt	.L13
 152:src/emvtrans.c ****         else
 192              		.loc 1 152 0
 193 005a ED1A     		subs	r5, r5, r3
 194              	.LVL20:
 195 005c 2E44     		add	r6, r6, r5
 196              	.LVL21:
 155:src/emvtrans.c ****           break;
 197              		.loc 1 155 0
 198 005e B8F1FF0F 		cmp	r8, #255
 152:src/emvtrans.c ****         else
 199              		.loc 1 152 0
 200 0062 B6B2     		uxth	r6, r6
 201              	.LVL22:
 155:src/emvtrans.c ****           break;
 202              		.loc 1 155 0
 203 0064 09D8     		bhi	.L13
 157:src/emvtrans.c ****       }
 204              		.loc 1 157 0
 205 0066 0134     		adds	r4, r4, #1
 206              	.LVL23:
 150:src/emvtrans.c ****         if (pbMsg - pbMark <= wLen)
 207              		.loc 1 150 0
 208 0068 1D46     		mov	r5, r3
 157:src/emvtrans.c ****       }
ARM GAS  C:\Users\AHMED~1.ELE\AppData\Local\Temp\ccALCmni.s 			page 21


 209              		.loc 1 157 0
 210 006a E4B2     		uxtb	r4, r4
 211              	.LVL24:
 212              	.L15:
 159:src/emvtrans.c ****         aList[bIdx].wTag = 0;
 213              		.loc 1 159 0
 214 006c 002E     		cmp	r6, #0
 215 006e CED1     		bne	.L16
 160:src/emvtrans.c ****         return bIdx;
 216              		.loc 1 160 0
 217 0070 27F83460 		strh	r6, [r7, r4, lsl #3]	@ movhi
 161:src/emvtrans.c ****       }
 218              		.loc 1 161 0
 219 0074 2046     		mov	r0, r4
 220 0076 BDE8F883 		pop	{r3, r4, r5, r6, r7, r8, r9, pc}
 221              	.LVL25:
 222              	.L13:
 165:src/emvtrans.c ****   return 0;
 223              		.loc 1 165 0
 224 007a 0020     		movs	r0, #0
 225 007c 3880     		strh	r0, [r7]	@ movhi
 167:src/emvtrans.c **** //*****************************************************************************
 226              		.loc 1 167 0
 227 007e BDE8F883 		pop	{r3, r4, r5, r6, r7, r8, r9, pc}
 228              		.cfi_endproc
 229              	.LFE0:
 230              		.size	DeAss, .-DeAss
 231              		.section	.text.TagPut,"ax",%progbits
 232              		.align	1
 233              		.global	TagPut
 234              		.thumb
 235              		.thumb_func
 236              		.type	TagPut, %function
 237              	TagPut:
 238              	.LFB4:
 268:src/emvtrans.c ****   if (aTag / 256)
 239              		.loc 1 268 0
 240              		.cfi_startproc
 241              		@ args = 0, pretend = 0, frame = 0
 242              		@ frame_needed = 0, uses_anonymous_args = 0
 243              		@ link register save eliminated.
 244              	.LVL26:
 269:src/emvtrans.c ****     *aBuf++ = aTag / 256;
 245              		.loc 1 269 0
 246 0000 FF29     		cmp	r1, #255
 270:src/emvtrans.c ****   *aBuf = (BYTE)aTag;
 247              		.loc 1 270 0
 248 0002 82BF     		ittt	hi
 249 0004 0B0A     		lsrhi	r3, r1, #8
 250 0006 0370     		strbhi	r3, [r0]
 251 0008 0130     		addhi	r0, r0, #1
 252              	.LVL27:
 271:src/emvtrans.c ****   return aBuf + 1;
 253              		.loc 1 271 0
 254 000a 00F8011B 		strb	r1, [r0], #1
 255              	.LVL28:
 273:src/emvtrans.c **** /******************************************************************************
ARM GAS  C:\Users\AHMED~1.ELE\AppData\Local\Temp\ccALCmni.s 			page 22


 256              		.loc 1 273 0
 257 000e 7047     		bx	lr
 258              		.cfi_endproc
 259              	.LFE4:
 260              		.size	TagPut, .-TagPut
 261              		.section	.text.TagSeek,"ax",%progbits
 262              		.align	1
 263              		.global	TagSeek
 264              		.thumb
 265              		.thumb_func
 266              		.type	TagSeek, %function
 267              	TagSeek:
 268              	.LFB5:
 284:src/emvtrans.c ****   while (aSrc->wTag) {
 269              		.loc 1 284 0
 270              		.cfi_startproc
 271              		@ args = 0, pretend = 0, frame = 0
 272              		@ frame_needed = 0, uses_anonymous_args = 0
 273              		@ link register save eliminated.
 274              	.LVL29:
 275              	.L28:
 285:src/emvtrans.c ****     if (aSrc->wTag == aTag)
 276              		.loc 1 285 0
 277 0000 0388     		ldrh	r3, [r0]
 278 0002 1BB1     		cbz	r3, .L32
 286:src/emvtrans.c ****       return aSrc;
 279              		.loc 1 286 0
 280 0004 8B42     		cmp	r3, r1
 281 0006 02D0     		beq	.L29
 288:src/emvtrans.c ****   }
 282              		.loc 1 288 0
 283 0008 0830     		adds	r0, r0, #8
 284              	.LVL30:
 285 000a F9E7     		b	.L28
 286              	.L32:
 290:src/emvtrans.c **** }
 287              		.loc 1 290 0
 288 000c 1846     		mov	r0, r3
 289              	.LVL31:
 290              	.L29:
 291:src/emvtrans.c **** /******************************************************************************
 291              		.loc 1 291 0
 292 000e 7047     		bx	lr
 293              		.cfi_endproc
 294              	.LFE5:
 295              		.size	TagSeek, .-TagSeek
 296              		.section	.text.TagData,"ax",%progbits
 297              		.align	1
 298              		.global	TagData
 299              		.thumb
 300              		.thumb_func
 301              		.type	TagData, %function
 302              	TagData:
 303              	.LFB6:
 302:src/emvtrans.c ****   while (aSrc->wTag) {
 304              		.loc 1 302 0
 305              		.cfi_startproc
ARM GAS  C:\Users\AHMED~1.ELE\AppData\Local\Temp\ccALCmni.s 			page 23


 306              		@ args = 0, pretend = 0, frame = 0
 307              		@ frame_needed = 0, uses_anonymous_args = 0
 308              		@ link register save eliminated.
 309              	.LVL32:
 310              	.L34:
 303:src/emvtrans.c ****     if (aSrc->wTag == aTag)
 311              		.loc 1 303 0
 312 0000 0388     		ldrh	r3, [r0]
 313 0002 2BB1     		cbz	r3, .L38
 304:src/emvtrans.c ****       return aSrc->pbLoc;
 314              		.loc 1 304 0
 315 0004 8B42     		cmp	r3, r1
 316 0006 01D1     		bne	.L35
 305:src/emvtrans.c ****     ++aSrc;
 317              		.loc 1 305 0
 318 0008 4068     		ldr	r0, [r0, #4]
 319              	.LVL33:
 320 000a 7047     		bx	lr
 321              	.LVL34:
 322              	.L35:
 306:src/emvtrans.c ****   }
 323              		.loc 1 306 0
 324 000c 0830     		adds	r0, r0, #8
 325              	.LVL35:
 326 000e F7E7     		b	.L34
 327              	.L38:
 308:src/emvtrans.c **** }
 328              		.loc 1 308 0
 329 0010 1846     		mov	r0, r3
 330              	.LVL36:
 309:src/emvtrans.c **** //*****************************************************************************
 331              		.loc 1 309 0
 332 0012 7047     		bx	lr
 333              		.cfi_endproc
 334              	.LFE6:
 335              		.size	TagData, .-TagData
 336              		.section	.text.PackTagsData,"ax",%progbits
 337              		.align	1
 338              		.global	PackTagsData
 339              		.thumb
 340              		.thumb_func
 341              		.type	PackTagsData, %function
 342              	PackTagsData:
 343              	.LFB7:
 320:src/emvtrans.c ****   WORD tag;
 344              		.loc 1 320 0
 345              		.cfi_startproc
 346              		@ args = 0, pretend = 0, frame = 0
 347              		@ frame_needed = 0, uses_anonymous_args = 0
 348              	.LVL37:
 349 0000 F8B5     		push	{r3, r4, r5, r6, r7, lr}
 350              		.cfi_def_cfa_offset 24
 351              		.cfi_offset 3, -24
 352              		.cfi_offset 4, -20
 353              		.cfi_offset 5, -16
 354              		.cfi_offset 6, -12
 355              		.cfi_offset 7, -8
ARM GAS  C:\Users\AHMED~1.ELE\AppData\Local\Temp\ccALCmni.s 			page 24


 356              		.cfi_offset 14, -4
 320:src/emvtrans.c ****   WORD tag;
 357              		.loc 1 320 0
 358 0002 0446     		mov	r4, r0
 359 0004 8F1E     		subs	r7, r1, #2
 360              	.LVL38:
 361              	.L40:
 324:src/emvtrans.c ****     if ((psLp = TagSeek(gGDS->s_TagList, tag)) != NULL) {
 362              		.loc 1 324 0
 363 0006 37F8026F 		ldrh	r6, [r7, #2]!
 364              	.LVL39:
 365 000a CEB1     		cbz	r6, .L46
 325:src/emvtrans.c ****       aBuf = TagPut(aBuf, tag);
 366              		.loc 1 325 0
 367 000c 0D4B     		ldr	r3, .L47
 368 000e 3146     		mov	r1, r6
 369 0010 1868     		ldr	r0, [r3]
 370 0012 00F55E50 		add	r0, r0, #14208
 371 0016 2030     		adds	r0, r0, #32
 372 0018 FFF7FEFF 		bl	TagSeek
 373              	.LVL40:
 374 001c 0546     		mov	r5, r0
 375 001e 0028     		cmp	r0, #0
 376 0020 F1D0     		beq	.L40
 326:src/emvtrans.c ****       *aBuf++ = psLp->sLen; // assume byte len
 377              		.loc 1 326 0
 378 0022 2046     		mov	r0, r4
 379              	.LVL41:
 380 0024 3146     		mov	r1, r6
 381 0026 FFF7FEFF 		bl	TagPut
 382              	.LVL42:
 327:src/emvtrans.c ****       memcpy(aBuf, psLp->pbLoc, psLp->sLen);
 383              		.loc 1 327 0
 384 002a AB78     		ldrb	r3, [r5, #2]	@ zero_extendqisi2
 385 002c 441C     		adds	r4, r0, #1
 386              	.LVL43:
 387 002e 0370     		strb	r3, [r0]
 328:src/emvtrans.c ****       aBuf += psLp->sLen;
 388              		.loc 1 328 0
 389 0030 2046     		mov	r0, r4
 390 0032 6968     		ldr	r1, [r5, #4]
 391 0034 AA78     		ldrb	r2, [r5, #2]	@ zero_extendqisi2
 392 0036 FFF7FEFF 		bl	memcpy
 393              	.LVL44:
 329:src/emvtrans.c ****     }
 394              		.loc 1 329 0
 395 003a AB78     		ldrb	r3, [r5, #2]	@ zero_extendqisi2
 396 003c 1C44     		add	r4, r4, r3
 397              	.LVL45:
 398 003e E2E7     		b	.L40
 399              	.LVL46:
 400              	.L46:
 334:src/emvtrans.c **** //*****************************************************************************
 401              		.loc 1 334 0
 402 0040 2046     		mov	r0, r4
 403 0042 F8BD     		pop	{r3, r4, r5, r6, r7, pc}
 404              	.LVL47:
ARM GAS  C:\Users\AHMED~1.ELE\AppData\Local\Temp\ccALCmni.s 			page 25


 405              	.L48:
 406              		.align	2
 407              	.L47:
 408 0044 00000000 		.word	gGDS
 409              		.cfi_endproc
 410              	.LFE7:
 411              		.size	PackTagsData, .-PackTagsData
 412              		.section	.text.EMVFatal,"ax",%progbits
 413              		.align	1
 414              		.global	EMVFatal
 415              		.thumb
 416              		.thumb_func
 417              		.type	EMVFatal, %function
 418              	EMVFatal:
 419              	.LFB8:
 344:src/emvtrans.c ****   Disp2x16Msg(GetConstMsg(EDC_EMV_FATAL), MW_LINE3, MW_CLRDISP|MW_BIGFONT);
 420              		.loc 1 344 0
 421              		.cfi_startproc
 422              		@ args = 0, pretend = 0, frame = 0
 423              		@ frame_needed = 0, uses_anonymous_args = 0
 424 0000 07B5     		push	{r0, r1, r2, lr}
 425              		.cfi_def_cfa_offset 16
 426              		.cfi_offset 14, -4
 345:src/emvtrans.c ****   while (APM_WaitKey((DWORD)-1,0) != MWKEY_CANCL) SleepMW();
 427              		.loc 1 345 0
 428 0002 8820     		movs	r0, #136
 429 0004 FFF7FEFF 		bl	GetConstMsg
 430              	.LVL48:
 431 0008 4FF44071 		mov	r1, #768
 432 000c 4FF48452 		mov	r2, #4224
 433 0010 FFF7FEFF 		bl	Disp2x16Msg
 434              	.LVL49:
 435              	.L50:
 346:src/emvtrans.c ****   ResetMW();
 436              		.loc 1 346 0 discriminator 1
 437 0014 0023     		movs	r3, #0
 438 0016 1020     		movs	r0, #16
 439 0018 0093     		str	r3, [sp]
 440 001a 0321     		movs	r1, #3
 441 001c 4FF0FF32 		mov	r2, #-1
 442 0020 FFF7FEFF 		bl	lib_app_call
 443              	.LVL50:
 444 0024 1128     		cmp	r0, #17
 445 0026 04D0     		beq	.L52
 346:src/emvtrans.c ****   ResetMW();
 446              		.loc 1 346 0 is_stmt 0 discriminator 2
 447 0028 4FF4CE70 		mov	r0, #412
 448 002c FFF7FEFF 		bl	sys_func0
 449              	.LVL51:
 450 0030 F0E7     		b	.L50
 451              	.L52:
 347:src/emvtrans.c **** }
 452              		.loc 1 347 0 is_stmt 1
 453 0032 4FF4CF70 		mov	r0, #414
 348:src/emvtrans.c **** //*****************************************************************************
 454              		.loc 1 348 0
 455 0036 03B0     		add	sp, sp, #12
ARM GAS  C:\Users\AHMED~1.ELE\AppData\Local\Temp\ccALCmni.s 			page 26


 456              		.cfi_def_cfa_offset 4
 457              		@ sp needed
 458 0038 5DF804EB 		ldr	lr, [sp], #4
 459              		.cfi_restore 14
 460              		.cfi_def_cfa_offset 0
 347:src/emvtrans.c **** }
 461              		.loc 1 347 0
 462 003c FFF7FEBF 		b	sys_func0
 463              	.LVL52:
 464              		.cfi_endproc
 465              	.LFE8:
 466              		.size	EMVFatal, .-EMVFatal
 467              		.section	.text.EMVInput,"ax",%progbits
 468              		.align	1
 469              		.global	EMVInput
 470              		.thumb
 471              		.thumb_func
 472              		.type	EMVInput, %function
 473              	EMVInput:
 474              	.LFB3:
 242:src/emvtrans.c ****   if (aSelAgain) {
 475              		.loc 1 242 0
 476              		.cfi_startproc
 477              		@ args = 0, pretend = 0, frame = 32
 478              		@ frame_needed = 0, uses_anonymous_args = 0
 479              	.LVL53:
 480 0000 2DE9F047 		push	{r4, r5, r6, r7, r8, r9, r10, lr}
 481              		.cfi_def_cfa_offset 32
 482              		.cfi_offset 4, -32
 483              		.cfi_offset 5, -28
 484              		.cfi_offset 6, -24
 485              		.cfi_offset 7, -20
 486              		.cfi_offset 8, -16
 487              		.cfi_offset 9, -12
 488              		.cfi_offset 10, -8
 489              		.cfi_offset 14, -4
 490 0004 8AB0     		sub	sp, sp, #40
 491              		.cfi_def_cfa_offset 72
 243:src/emvtrans.c ****     DispErrorMsg(GetConstMsg(EDC_EMV_CANNOT_SEL));
 492              		.loc 1 243 0
 493 0006 20B1     		cbz	r0, .L54
 244:src/emvtrans.c ****   }
 494              		.loc 1 244 0
 495 0008 8B20     		movs	r0, #139
 496              	.LVL54:
 497 000a FFF7FEFF 		bl	GetConstMsg
 498              	.LVL55:
 499 000e FFF7FEFF 		bl	DispErrorMsg
 500              	.LVL56:
 501              	.L54:
 247:src/emvtrans.c ****     if (EMVChoice() == FALSE)
 502              		.loc 1 247 0
 503 0012 5F4E     		ldr	r6, .L79
 504 0014 3368     		ldr	r3, [r6]
 505 0016 03F55E53 		add	r3, r3, #14208
 506 001a 5A68     		ldr	r2, [r3, #4]
 507 001c DB68     		ldr	r3, [r3, #12]
ARM GAS  C:\Users\AHMED~1.ELE\AppData\Local\Temp\ccALCmni.s 			page 27


 508 001e 5B78     		ldrb	r3, [r3, #1]	@ zero_extendqisi2
 509 0020 1370     		strb	r3, [r2]
 510 0022 002B     		cmp	r3, #0
 511 0024 00F09080 		beq	.L55
 512              	.LBB7:
 513              	.LBB8:
 205:src/emvtrans.c ****                        (WORD)(gGDS->s_EMVOut.wLen - 2)) / 2) == 0) {
 514              		.loc 1 205 0
 515 0028 3068     		ldr	r0, [r6]
 516 002a 00F55E50 		add	r0, r0, #14208
 517 002e 2030     		adds	r0, r0, #32
 518 0030 30F8182C 		ldrh	r2, [r0, #-24]
 519 0034 50F8141C 		ldr	r1, [r0, #-20]
 520 0038 023A     		subs	r2, r2, #2
 521 003a 0231     		adds	r1, r1, #2
 522 003c 92B2     		uxth	r2, r2
 523 003e FFF7FEFF 		bl	DeAss
 524              	.LVL57:
 525 0042 C0F34707 		ubfx	r7, r0, #1, #8
 526              	.LVL58:
 527 0046 0FB9     		cbnz	r7, .L56
 207:src/emvtrans.c ****   }
 528              		.loc 1 207 0
 529 0048 FFF7FEFF 		bl	EMVFatal
 530              	.LVL59:
 531              	.L56:
 209:src/emvtrans.c ****   Disp2x16Msg(GetConstMsg(EDC_EMV_SEL_APP), MW_LINE3, MW_BIGFONT);
 532              		.loc 1 209 0
 533 004c 0024     		movs	r4, #0
 534 004e 2321     		movs	r1, #35
 535 0050 4FF44072 		mov	r2, #768
 536 0054 2346     		mov	r3, r4
 537 0056 0094     		str	r4, [sp]
 538 0058 0F20     		movs	r0, #15
 539 005a FFF7FEFF 		bl	lib_app_call
 540              	.LVL60:
 210:src/emvtrans.c ****   bIdx = 0;
 541              		.loc 1 210 0
 542 005e 8A20     		movs	r0, #138
 543 0060 FFF7FEFF 		bl	GetConstMsg
 544              	.LVL61:
 545 0064 4FF44071 		mov	r1, #768
 546 0068 4FF48052 		mov	r2, #4096
 547 006c FFF7FEFF 		bl	Disp2x16Msg
 548              	.LVL62:
 549              	.L57:
 550 0070 3368     		ldr	r3, [r6]
 551              	.LBB9:
 552              	.LBB10:
 182:src/emvtrans.c ****   for (i=0;i<len;i++)
 553              		.loc 1 182 0
 554 0072 0DF10C08 		add	r8, sp, #12
 555 0076 03EB0413 		add	r3, r3, r4, lsl #4
 556 007a 03F55E53 		add	r3, r3, #14208
 557 007e 4046     		mov	r0, r8
 558 0080 93F82A50 		ldrb	r5, [r3, #42]	@ zero_extendqisi2
 559 0084 D96A     		ldr	r1, [r3, #44]
ARM GAS  C:\Users\AHMED~1.ELE\AppData\Local\Temp\ccALCmni.s 			page 28


 560 0086 1A2D     		cmp	r5, #26
 561 0088 28BF     		it	cs
 562 008a 1A25     		movcs	r5, #26
 563              	.LVL63:
 564 008c 2A46     		mov	r2, r5
 565 008e FFF7FEFF 		bl	memcpy
 566              	.LVL64:
 567 0092 4346     		mov	r3, r8
 568              	.LVL65:
 569              	.L58:
 570 0094 C8EB0302 		rsb	r2, r8, r3
 183:src/emvtrans.c ****     if ((buffer[i] & 0x7f) < 0x20)
 571              		.loc 1 183 0
 572 0098 D2B2     		uxtb	r2, r2
 573 009a AA42     		cmp	r2, r5
 574 009c 09D2     		bcs	.L78
 184:src/emvtrans.c ****       buffer[i] = ' ';
 575              		.loc 1 184 0
 576 009e 13F8012B 		ldrb	r2, [r3], #1	@ zero_extendqisi2
 577              	.LVL66:
 578 00a2 02F07F02 		and	r2, r2, #127
 579 00a6 1F2A     		cmp	r2, #31
 185:src/emvtrans.c ****   buffer[len] = 0;
 580              		.loc 1 185 0
 581 00a8 9CBF     		itt	ls
 582 00aa 2022     		movls	r2, #32
 583 00ac 03F8012C 		strbls	r2, [r3, #-1]
 584              	.LVL67:
 585 00b0 F0E7     		b	.L58
 586              	.L78:
 186:src/emvtrans.c ****   DispClrBelowMW(MW_LINE7);
 587              		.loc 1 186 0
 588 00b2 0AAB     		add	r3, sp, #40
 589              	.LVL68:
 590 00b4 1D44     		add	r5, r5, r3
 591              	.LVL69:
 592 00b6 4FF00009 		mov	r9, #0
 187:src/emvtrans.c ****   DispLineMW(buffer, MW_LINE7, MW_BIGFONT);
 593              		.loc 1 187 0
 594 00ba 2321     		movs	r1, #35
 186:src/emvtrans.c ****   DispClrBelowMW(MW_LINE7);
 595              		.loc 1 186 0
 596 00bc 05F81C9C 		strb	r9, [r5, #-28]
 187:src/emvtrans.c ****   DispLineMW(buffer, MW_LINE7, MW_BIGFONT);
 597              		.loc 1 187 0
 598 00c0 4FF4E062 		mov	r2, #1792
 599 00c4 4B46     		mov	r3, r9
 600 00c6 CDF80090 		str	r9, [sp]
 601 00ca 0F20     		movs	r0, #15
 602 00cc FFF7FEFF 		bl	lib_app_call
 603              	.LVL70:
 604              	.LBB11:
 188:src/emvtrans.c **** }
 605              		.loc 1 188 0
 606 00d0 4046     		mov	r0, r8
 607 00d2 FFF7FEFF 		bl	strlen
 608              	.LVL71:
ARM GAS  C:\Users\AHMED~1.ELE\AppData\Local\Temp\ccALCmni.s 			page 29


 609 00d6 8246     		mov	r10, r0
 610              	.LVL72:
 611 00d8 0AF10101 		add	r1, r10, #1
 612 00dc 9220     		movs	r0, #146
 613              	.LVL73:
 614 00de FFF7FEFF 		bl	sys_func1
 615              	.LVL74:
 616 00e2 0546     		mov	r5, r0
 617 00e4 98B1     		cbz	r0, .L64
 618 00e6 4146     		mov	r1, r8
 619 00e8 5246     		mov	r2, r10
 620 00ea FFF7FEFF 		bl	memcpy
 621              	.LVL75:
 622 00ee 4FF48053 		mov	r3, #4096
 623 00f2 05F80A90 		strb	r9, [r5, r10]
 624 00f6 2521     		movs	r1, #37
 625 00f8 0093     		str	r3, [sp]
 626 00fa 0F20     		movs	r0, #15
 627 00fc 2A46     		mov	r2, r5
 628 00fe 4FF4E063 		mov	r3, #1792
 629 0102 FFF7FEFF 		bl	lib_app_call
 630              	.LVL76:
 631 0106 9420     		movs	r0, #148
 632 0108 2946     		mov	r1, r5
 633 010a FFF7FEFF 		bl	sys_func1
 634              	.LVL77:
 635              	.L64:
 636              	.LBE11:
 637              	.LBE10:
 638              	.LBE9:
 216:src/emvtrans.c ****       if (keyin == MWKEY_CANCL)
 639              		.loc 1 216 0
 640 010e 0025     		movs	r5, #0
 641 0110 1020     		movs	r0, #16
 642 0112 0095     		str	r5, [sp]
 643 0114 0321     		movs	r1, #3
 644 0116 42F22832 		movw	r2, #9000
 645 011a 2B46     		mov	r3, r5
 646 011c FFF7FEFF 		bl	lib_app_call
 647              	.LVL78:
 217:src/emvtrans.c ****         return FALSE;
 648              		.loc 1 217 0
 649 0120 1128     		cmp	r0, #17
 650 0122 31D0     		beq	.L67
 219:src/emvtrans.c ****         gGDS->s_EMVIn.bMsg[0] = bIdx;
 651              		.loc 1 219 0
 652 0124 1028     		cmp	r0, #16
 653 0126 05D1     		bne	.L63
 220:src/emvtrans.c ****         return TRUE;
 654              		.loc 1 220 0
 655 0128 3368     		ldr	r3, [r6]
 656 012a 03F55E53 		add	r3, r3, #14208
 657 012e 5B68     		ldr	r3, [r3, #4]
 658 0130 1C70     		strb	r4, [r3]
 659 0132 09E0     		b	.L55
 660              	.L63:
 223:src/emvtrans.c ****         break;
ARM GAS  C:\Users\AHMED~1.ELE\AppData\Local\Temp\ccALCmni.s 			page 30


 661              		.loc 1 223 0
 662 0134 1228     		cmp	r0, #18
 663 0136 EAD1     		bne	.L64
 226:src/emvtrans.c ****       if (bChoice == 1)
 664              		.loc 1 226 0
 665 0138 0134     		adds	r4, r4, #1
 666              	.LVL79:
 667 013a E4B2     		uxtb	r4, r4
 668              	.LVL80:
 669 013c BC42     		cmp	r4, r7
 670 013e 97D1     		bne	.L57
 227:src/emvtrans.c ****         return FALSE;
 671              		.loc 1 227 0
 672 0140 012C     		cmp	r4, #1
 673 0142 21D0     		beq	.L67
 229:src/emvtrans.c ****     }
 674              		.loc 1 229 0
 675 0144 2C46     		mov	r4, r5
 676              	.LVL81:
 677 0146 93E7     		b	.L57
 678              	.LVL82:
 679              	.L55:
 680              	.LBE8:
 681              	.LBE7:
 251:src/emvtrans.c ****   memcpy(&gGDS->s_EMVIn.bMsg[4], STIS_TERM_DATA.sb_trace_no, 3);
 682              		.loc 1 251 0
 683 0148 3368     		ldr	r3, [r6]
 684 014a 1249     		ldr	r1, .L79+4
 685 014c 03F55E53 		add	r3, r3, #14208
 686 0150 0322     		movs	r2, #3
 687 0152 5868     		ldr	r0, [r3, #4]
 688 0154 0130     		adds	r0, r0, #1
 689 0156 FFF7FEFF 		bl	memcpy
 690              	.LVL83:
 252:src/emvtrans.c ****   gGDS->s_EMVIn.wLen = 7;
 691              		.loc 1 252 0
 692 015a 3168     		ldr	r1, [r6]
 693 015c 0322     		movs	r2, #3
 694 015e 01F55E54 		add	r4, r1, #14208
 695 0162 01F28651 		addw	r1, r1, #1414
 696 0166 6068     		ldr	r0, [r4, #4]
 697 0168 0430     		adds	r0, r0, #4
 698 016a FFF7FEFF 		bl	memcpy
 699              	.LVL84:
 253:src/emvtrans.c ****   Disp2x16Msg(GetConstMsg(EDC_EMV_PROCESSING),MW_LINE5, MW_BIGFONT);
 700              		.loc 1 253 0
 701 016e 0723     		movs	r3, #7
 254:src/emvtrans.c ****   return TRUE;
 702              		.loc 1 254 0
 703 0170 8920     		movs	r0, #137
 253:src/emvtrans.c ****   Disp2x16Msg(GetConstMsg(EDC_EMV_PROCESSING),MW_LINE5, MW_BIGFONT);
 704              		.loc 1 253 0
 705 0172 2380     		strh	r3, [r4]	@ movhi
 254:src/emvtrans.c ****   return TRUE;
 706              		.loc 1 254 0
 707 0174 FFF7FEFF 		bl	GetConstMsg
 708              	.LVL85:
ARM GAS  C:\Users\AHMED~1.ELE\AppData\Local\Temp\ccALCmni.s 			page 31


 709 0178 4FF4A061 		mov	r1, #1280
 710 017c 4FF48052 		mov	r2, #4096
 711 0180 FFF7FEFF 		bl	Disp2x16Msg
 712              	.LVL86:
 255:src/emvtrans.c **** }
 713              		.loc 1 255 0
 714 0184 0120     		movs	r0, #1
 715 0186 00E0     		b	.L62
 716              	.LVL87:
 717              	.L67:
 249:src/emvtrans.c ****   }
 718              		.loc 1 249 0
 719 0188 2846     		mov	r0, r5
 720              	.LVL88:
 721              	.L62:
 256:src/emvtrans.c **** /******************************************************************************
 722              		.loc 1 256 0
 723 018a 0AB0     		add	sp, sp, #40
 724              		.cfi_def_cfa_offset 32
 725              		@ sp needed
 726 018c BDE8F087 		pop	{r4, r5, r6, r7, r8, r9, r10, pc}
 727              	.L80:
 728              		.align	2
 729              	.L79:
 730 0190 00000000 		.word	gGDS
 731 0194 00000000 		.word	.LC0
 732              		.cfi_endproc
 733              	.LFE3:
 734              		.size	EMVInput, .-EMVInput
 735              		.section	.text.GetApplNameTag,"ax",%progbits
 736              		.align	1
 737              		.global	GetApplNameTag
 738              		.thumb
 739              		.thumb_func
 740              		.type	GetApplNameTag, %function
 741              	GetApplNameTag:
 742              	.LFB9:
 358:src/emvtrans.c ****   TLIST * ptag;   // temp tag data ptr
 743              		.loc 1 358 0
 744              		.cfi_startproc
 745              		@ args = 0, pretend = 0, frame = 0
 746              		@ frame_needed = 0, uses_anonymous_args = 0
 361:src/emvtrans.c ****   if ( ptag != NULL )                // tag value is found
 747              		.loc 1 361 0
 748 0000 0E4B     		ldr	r3, .L86
 358:src/emvtrans.c ****   TLIST * ptag;   // temp tag data ptr
 749              		.loc 1 358 0
 750 0002 10B5     		push	{r4, lr}
 751              		.cfi_def_cfa_offset 8
 752              		.cfi_offset 4, -8
 753              		.cfi_offset 14, -4
 361:src/emvtrans.c ****   if ( ptag != NULL )                // tag value is found
 754              		.loc 1 361 0
 755 0004 49F61171 		movw	r1, #40721
 756 0008 1C68     		ldr	r4, [r3]
 757 000a 04F55E54 		add	r4, r4, #14208
 758 000e 2034     		adds	r4, r4, #32
ARM GAS  C:\Users\AHMED~1.ELE\AppData\Local\Temp\ccALCmni.s 			page 32


 759 0010 2046     		mov	r0, r4
 760 0012 FFF7FEFF 		bl	TagSeek
 761              	.LVL89:
 362:src/emvtrans.c ****     if (*ptag->pbLoc==1)             // only supported these 1 issuer code tbl
 762              		.loc 1 362 0
 763 0016 78B1     		cbz	r0, .L84
 363:src/emvtrans.c ****       if (TagSeek(gGDS->s_TagList, 0x9F12)) // app preferred name exists
 764              		.loc 1 363 0
 765 0018 4368     		ldr	r3, [r0, #4]
 766 001a 1B78     		ldrb	r3, [r3]	@ zero_extendqisi2
 767 001c 012B     		cmp	r3, #1
 768 001e 0BD1     		bne	.L84
 364:src/emvtrans.c ****         return 0x9F12;               // app preferred name
 769              		.loc 1 364 0
 770 0020 2046     		mov	r0, r4
 771              	.LVL90:
 772 0022 49F61271 		movw	r1, #40722
 773 0026 FFF7FEFF 		bl	TagSeek
 774              	.LVL91:
 365:src/emvtrans.c ****   return 0x50;                       // app label
 775              		.loc 1 365 0
 776 002a 49F61273 		movw	r3, #40722
 777 002e 0028     		cmp	r0, #0
 778 0030 14BF     		ite	ne
 779 0032 1846     		movne	r0, r3
 780 0034 5020     		moveq	r0, #80
 781 0036 10BD     		pop	{r4, pc}
 782              	.LVL92:
 783              	.L84:
 366:src/emvtrans.c **** }
 784              		.loc 1 366 0
 785 0038 5020     		movs	r0, #80
 786              	.LVL93:
 367:src/emvtrans.c **** //*****************************************************************************
 787              		.loc 1 367 0
 788 003a 10BD     		pop	{r4, pc}
 789              	.L87:
 790              		.align	2
 791              	.L86:
 792 003c 00000000 		.word	gGDS
 793              		.cfi_endproc
 794              	.LFE9:
 795              		.size	GetApplNameTag, .-GetApplNameTag
 796              		.section	.text.ValidEMVData,"ax",%progbits
 797              		.align	1
 798              		.global	ValidEMVData
 799              		.thumb
 800              		.thumb_func
 801              		.type	ValidEMVData, %function
 802              	ValidEMVData:
 803              	.LFB11:
 413:src/emvtrans.c ****   TLIST * psLp;
 804              		.loc 1 413 0
 805              		.cfi_startproc
 806              		@ args = 0, pretend = 0, frame = 0
 807              		@ frame_needed = 0, uses_anonymous_args = 0
 808 0000 2DE9F041 		push	{r4, r5, r6, r7, r8, lr}
ARM GAS  C:\Users\AHMED~1.ELE\AppData\Local\Temp\ccALCmni.s 			page 33


 809              		.cfi_def_cfa_offset 24
 810              		.cfi_offset 4, -24
 811              		.cfi_offset 5, -20
 812              		.cfi_offset 6, -16
 813              		.cfi_offset 7, -12
 814              		.cfi_offset 8, -8
 815              		.cfi_offset 14, -4
 816              	.LBB16:
 817              	.LBB17:
 381:src/emvtrans.c ****     if ((psLp = TagSeek(gGDS->s_TagList, 0x5A)) != NULL) {
 818              		.loc 1 381 0
 819 0004 1B4E     		ldr	r6, .L228
 820 0006 3068     		ldr	r0, [r6]
 821 0008 00F55E50 		add	r0, r0, #14208
 822 000c 2030     		adds	r0, r0, #32
 823 000e 30F8182C 		ldrh	r2, [r0, #-24]
 824 0012 50F8141C 		ldr	r1, [r0, #-20]
 825 0016 023A     		subs	r2, r2, #2
 826 0018 0231     		adds	r1, r1, #2
 827 001a 92B2     		uxth	r2, r2
 828 001c FFF7FEFF 		bl	DeAss
 829              	.LVL94:
 830 0020 20B3     		cbz	r0, .L89
 382:src/emvtrans.c ****       if ((bLen = psLp->sLen) <= 10) {
 831              		.loc 1 382 0
 832 0022 3068     		ldr	r0, [r6]
 833 0024 5A21     		movs	r1, #90
 834 0026 00F55E50 		add	r0, r0, #14208
 835 002a 2030     		adds	r0, r0, #32
 836 002c FFF7FEFF 		bl	TagSeek
 837              	.LVL95:
 838 0030 0446     		mov	r4, r0
 839 0032 D8B1     		cbz	r0, .L89
 383:src/emvtrans.c ****         memset(INPUT.sb_pan, 0xFF, 10);
 840              		.loc 1 383 0
 841 0034 8578     		ldrb	r5, [r0, #2]	@ zero_extendqisi2
 842              	.LVL96:
 843 0036 0A2D     		cmp	r5, #10
 844 0038 18D8     		bhi	.L89
 384:src/emvtrans.c ****         memcpy(INPUT.sb_pan, psLp->pbLoc, bLen);
 845              		.loc 1 384 0
 846 003a FF21     		movs	r1, #255
 847 003c 0A22     		movs	r2, #10
 848 003e 0E48     		ldr	r0, .L228+4
 849              	.LVL97:
 850 0040 FFF7FEFF 		bl	memset
 851              	.LVL98:
 385:src/emvtrans.c ****         //INPUT.sb_pan_len = bLen;
 852              		.loc 1 385 0
 853 0044 2A46     		mov	r2, r5
 387:src/emvtrans.c ****           if (InCardTable()) {
 854              		.loc 1 387 0
 855 0046 0D4D     		ldr	r5, .L228+8
 856              	.LVL99:
 385:src/emvtrans.c ****         //INPUT.sb_pan_len = bLen;
 857              		.loc 1 385 0
 858 0048 0B48     		ldr	r0, .L228+4
ARM GAS  C:\Users\AHMED~1.ELE\AppData\Local\Temp\ccALCmni.s 			page 34


 859 004a 6168     		ldr	r1, [r4, #4]
 860 004c FFF7FEFF 		bl	memcpy
 861              	.LVL100:
 387:src/emvtrans.c ****           if (InCardTable()) {
 862              		.loc 1 387 0
 863 0050 EB7C     		ldrb	r3, [r5, #19]	@ zero_extendqisi2
 864 0052 03F00F03 		and	r3, r3, #15
 865 0056 0F2B     		cmp	r3, #15
 866 0058 04D0     		beq	.L90
 867              	.L93:
 396:src/emvtrans.c ****         return FALSE;
 868              		.loc 1 396 0
 869 005a 45F24353 		movw	r3, #21827
 870 005e A5F81637 		strh	r3, [r5, #1814]	@ movhi
 871 0062 1CE2     		b	.L91
 872              	.L90:
 388:src/emvtrans.c ****             //if ((psLp = TagSeek(gGDS->s_TagList, 0x5F34)) != NULL)
 873              		.loc 1 388 0
 874 0064 FFF7FEFF 		bl	InCardTable
 875              	.LVL101:
 876 0068 50B9     		cbnz	r0, .L92
 877 006a F6E7     		b	.L93
 878              	.LVL102:
 879              	.L89:
 401:src/emvtrans.c ****   return FALSE;
 880              		.loc 1 401 0
 881 006c FFF7FEFF 		bl	EMVFatal
 882              	.LVL103:
 883 0070 15E2     		b	.L91
 884              	.L229:
 885 0072 00BF     		.align	2
 886              	.L228:
 887 0074 00000000 		.word	gGDS
 888 0078 0A000000 		.word	gGTS+10
 889 007c 00000000 		.word	gGTS
 890              	.LVL104:
 891              	.L92:
 892              	.LBE17:
 893              	.LBE16:
 894              	.LBB18:
 895              	.LBB19:
 421:src/emvtrans.c **** 
 896              		.loc 1 421 0
 897 0080 3468     		ldr	r4, [r6]
 898              	.LVL105:
 899 0082 45F62471 		movw	r1, #24356
 900 0086 04F55E54 		add	r4, r4, #14208
 901 008a 2034     		adds	r4, r4, #32
 902 008c 2046     		mov	r0, r4
 903 008e FFF7FEFF 		bl	TagData
 904              	.LVL106:
 905 0092 0222     		movs	r2, #2
 906 0094 0146     		mov	r1, r0
 907 0096 05F11400 		add	r0, r5, #20
 908 009a FFF7FEFF 		bl	memcpy
 909              	.LVL107:
 425:src/emvtrans.c **** 	if ((bLen = psLp->sLen) > sizeof(INPUT.field71))
ARM GAS  C:\Users\AHMED~1.ELE\AppData\Local\Temp\ccALCmni.s 			page 35


 910              		.loc 1 425 0
 911 009e 2046     		mov	r0, r4
 912 00a0 7121     		movs	r1, #113
 913 00a2 FFF7FEFF 		bl	TagSeek
 914              	.LVL108:
 915 00a6 0346     		mov	r3, r0
 916 00a8 38B1     		cbz	r0, .L127
 426:src/emvtrans.c **** 		bLen = sizeof(INPUT.field71);
 917              		.loc 1 426 0
 918 00aa 9A78     		ldrb	r2, [r3, #2]	@ zero_extendqisi2
 919              	.LVL109:
 429:src/emvtrans.c **** }
 920              		.loc 1 429 0
 921 00ac A948     		ldr	r0, .L230
 922              	.LVL110:
 923 00ae 802A     		cmp	r2, #128
 924 00b0 5968     		ldr	r1, [r3, #4]
 925 00b2 28BF     		it	cs
 926 00b4 8022     		movcs	r2, #128
 927              	.LVL111:
 928 00b6 FFF7FEFF 		bl	memcpy
 929              	.LVL112:
 930              	.L127:
 432:src/emvtrans.c **** 	if ((bLen = psLp->sLen) > sizeof(INPUT.field72))
 931              		.loc 1 432 0
 932 00ba 2046     		mov	r0, r4
 933 00bc 7221     		movs	r1, #114
 934 00be FFF7FEFF 		bl	TagSeek
 935              	.LVL113:
 936 00c2 0346     		mov	r3, r0
 937 00c4 38B1     		cbz	r0, .L94
 433:src/emvtrans.c **** 		bLen = sizeof(INPUT.field72);
 938              		.loc 1 433 0
 939 00c6 8278     		ldrb	r2, [r0, #2]	@ zero_extendqisi2
 940              	.LVL114:
 436:src/emvtrans.c **** }
 941              		.loc 1 436 0
 942 00c8 5968     		ldr	r1, [r3, #4]
 943 00ca 802A     		cmp	r2, #128
 944 00cc A248     		ldr	r0, .L230+4
 945              	.LVL115:
 946 00ce 28BF     		it	cs
 947 00d0 8022     		movcs	r2, #128
 948              	.LVL116:
 949 00d2 FFF7FEFF 		bl	memcpy
 950              	.LVL117:
 951              	.L94:
 439:src/emvtrans.c **** 	if ((bLen = psLp->sLen) > sizeof(INPUT.field82))
 952              		.loc 1 439 0
 953 00d6 2046     		mov	r0, r4
 954 00d8 8221     		movs	r1, #130
 955 00da FFF7FEFF 		bl	TagSeek
 956              	.LVL118:
 957 00de 0346     		mov	r3, r0
 958 00e0 38B1     		cbz	r0, .L95
 440:src/emvtrans.c **** 		bLen = sizeof(INPUT.field82);
 959              		.loc 1 440 0
ARM GAS  C:\Users\AHMED~1.ELE\AppData\Local\Temp\ccALCmni.s 			page 36


 960 00e2 8278     		ldrb	r2, [r0, #2]	@ zero_extendqisi2
 961              	.LVL119:
 443:src/emvtrans.c **** }
 962              		.loc 1 443 0
 963 00e4 5968     		ldr	r1, [r3, #4]
 964 00e6 022A     		cmp	r2, #2
 965 00e8 9C48     		ldr	r0, .L230+8
 966              	.LVL120:
 967 00ea 28BF     		it	cs
 968 00ec 0222     		movcs	r2, #2
 969              	.LVL121:
 970 00ee FFF7FEFF 		bl	memcpy
 971              	.LVL122:
 972              	.L95:
 446:src/emvtrans.c **** 	if ((bLen = psLp->sLen) > sizeof(INPUT.field84))
 973              		.loc 1 446 0
 974 00f2 2046     		mov	r0, r4
 975 00f4 8421     		movs	r1, #132
 976 00f6 FFF7FEFF 		bl	TagSeek
 977              	.LVL123:
 978 00fa 0346     		mov	r3, r0
 979 00fc 38B1     		cbz	r0, .L96
 447:src/emvtrans.c **** 		bLen = sizeof(INPUT.field84);
 980              		.loc 1 447 0
 981 00fe 8278     		ldrb	r2, [r0, #2]	@ zero_extendqisi2
 982              	.LVL124:
 450:src/emvtrans.c **** }
 983              		.loc 1 450 0
 984 0100 5968     		ldr	r1, [r3, #4]
 985 0102 102A     		cmp	r2, #16
 986 0104 9648     		ldr	r0, .L230+12
 987              	.LVL125:
 988 0106 28BF     		it	cs
 989 0108 1022     		movcs	r2, #16
 990              	.LVL126:
 991 010a FFF7FEFF 		bl	memcpy
 992              	.LVL127:
 993              	.L96:
 453:src/emvtrans.c **** 	if ((bLen = psLp->sLen) > sizeof(INPUT.field86))
 994              		.loc 1 453 0
 995 010e 2046     		mov	r0, r4
 996 0110 8621     		movs	r1, #134
 997 0112 FFF7FEFF 		bl	TagSeek
 998              	.LVL128:
 999 0116 0346     		mov	r3, r0
 1000 0118 38B1     		cbz	r0, .L97
 454:src/emvtrans.c **** 		bLen = sizeof(INPUT.field86);
 1001              		.loc 1 454 0
 1002 011a 8278     		ldrb	r2, [r0, #2]	@ zero_extendqisi2
 1003              	.LVL129:
 457:src/emvtrans.c **** }
 1004              		.loc 1 457 0
 1005 011c 5968     		ldr	r1, [r3, #4]
 1006 011e 152A     		cmp	r2, #21
 1007 0120 9048     		ldr	r0, .L230+16
 1008              	.LVL130:
 1009 0122 28BF     		it	cs
ARM GAS  C:\Users\AHMED~1.ELE\AppData\Local\Temp\ccALCmni.s 			page 37


 1010 0124 1522     		movcs	r2, #21
 1011              	.LVL131:
 1012 0126 FFF7FEFF 		bl	memcpy
 1013              	.LVL132:
 1014              	.L97:
 460:src/emvtrans.c **** 	if ((bLen = psLp->sLen) > sizeof(INPUT.field8A))
 1015              		.loc 1 460 0
 1016 012a 2046     		mov	r0, r4
 1017 012c 8A21     		movs	r1, #138
 1018 012e FFF7FEFF 		bl	TagSeek
 1019              	.LVL133:
 1020 0132 0346     		mov	r3, r0
 1021 0134 38B1     		cbz	r0, .L98
 461:src/emvtrans.c **** 		bLen = sizeof(INPUT.field8A);
 1022              		.loc 1 461 0
 1023 0136 8278     		ldrb	r2, [r0, #2]	@ zero_extendqisi2
 1024              	.LVL134:
 464:src/emvtrans.c **** }
 1025              		.loc 1 464 0
 1026 0138 5968     		ldr	r1, [r3, #4]
 1027 013a 022A     		cmp	r2, #2
 1028 013c 8A48     		ldr	r0, .L230+20
 1029              	.LVL135:
 1030 013e 28BF     		it	cs
 1031 0140 0222     		movcs	r2, #2
 1032              	.LVL136:
 1033 0142 FFF7FEFF 		bl	memcpy
 1034              	.LVL137:
 1035              	.L98:
 467:src/emvtrans.c **** 	if ((bLen = psLp->sLen) > sizeof(INPUT.field91))
 1036              		.loc 1 467 0
 1037 0146 2046     		mov	r0, r4
 1038 0148 9121     		movs	r1, #145
 1039 014a FFF7FEFF 		bl	TagSeek
 1040              	.LVL138:
 1041 014e 0346     		mov	r3, r0
 1042 0150 38B1     		cbz	r0, .L99
 468:src/emvtrans.c **** 		bLen = sizeof(INPUT.field91);
 1043              		.loc 1 468 0
 1044 0152 8278     		ldrb	r2, [r0, #2]	@ zero_extendqisi2
 1045              	.LVL139:
 471:src/emvtrans.c **** }
 1046              		.loc 1 471 0
 1047 0154 5968     		ldr	r1, [r3, #4]
 1048 0156 102A     		cmp	r2, #16
 1049 0158 8448     		ldr	r0, .L230+24
 1050              	.LVL140:
 1051 015a 28BF     		it	cs
 1052 015c 1022     		movcs	r2, #16
 1053              	.LVL141:
 1054 015e FFF7FEFF 		bl	memcpy
 1055              	.LVL142:
 1056              	.L99:
 474:src/emvtrans.c **** 	if ((bLen = psLp->sLen) > sizeof(INPUT.field95))
 1057              		.loc 1 474 0
 1058 0162 2046     		mov	r0, r4
 1059 0164 9521     		movs	r1, #149
ARM GAS  C:\Users\AHMED~1.ELE\AppData\Local\Temp\ccALCmni.s 			page 38


 1060 0166 FFF7FEFF 		bl	TagSeek
 1061              	.LVL143:
 1062 016a 0346     		mov	r3, r0
 1063 016c 38B1     		cbz	r0, .L100
 475:src/emvtrans.c **** 		bLen = sizeof(INPUT.field95);
 1064              		.loc 1 475 0
 1065 016e 8278     		ldrb	r2, [r0, #2]	@ zero_extendqisi2
 1066              	.LVL144:
 478:src/emvtrans.c **** }
 1067              		.loc 1 478 0
 1068 0170 5968     		ldr	r1, [r3, #4]
 1069 0172 052A     		cmp	r2, #5
 1070 0174 7E48     		ldr	r0, .L230+28
 1071              	.LVL145:
 1072 0176 28BF     		it	cs
 1073 0178 0522     		movcs	r2, #5
 1074              	.LVL146:
 1075 017a FFF7FEFF 		bl	memcpy
 1076              	.LVL147:
 1077              	.L100:
 481:src/emvtrans.c **** 	if ((bLen = psLp->sLen) > sizeof(INPUT.field9A))
 1078              		.loc 1 481 0
 1079 017e 2046     		mov	r0, r4
 1080 0180 9A21     		movs	r1, #154
 1081 0182 FFF7FEFF 		bl	TagSeek
 1082              	.LVL148:
 1083 0186 0346     		mov	r3, r0
 1084 0188 38B1     		cbz	r0, .L101
 482:src/emvtrans.c **** 		bLen = sizeof(INPUT.field9A);
 1085              		.loc 1 482 0
 1086 018a 8278     		ldrb	r2, [r0, #2]	@ zero_extendqisi2
 1087              	.LVL149:
 485:src/emvtrans.c **** }
 1088              		.loc 1 485 0
 1089 018c 5968     		ldr	r1, [r3, #4]
 1090 018e 032A     		cmp	r2, #3
 1091 0190 7848     		ldr	r0, .L230+32
 1092              	.LVL150:
 1093 0192 28BF     		it	cs
 1094 0194 0322     		movcs	r2, #3
 1095              	.LVL151:
 1096 0196 FFF7FEFF 		bl	memcpy
 1097              	.LVL152:
 1098              	.L101:
 488:src/emvtrans.c **** 	if ((bLen = psLp->sLen) > sizeof(INPUT.field9C))
 1099              		.loc 1 488 0
 1100 019a 2046     		mov	r0, r4
 1101 019c 9C21     		movs	r1, #156
 1102 019e FFF7FEFF 		bl	TagSeek
 1103              	.LVL153:
 1104 01a2 0346     		mov	r3, r0
 1105 01a4 40B1     		cbz	r0, .L102
 489:src/emvtrans.c **** 		bLen = sizeof(INPUT.field9C);
 1106              		.loc 1 489 0
 1107 01a6 8278     		ldrb	r2, [r0, #2]	@ zero_extendqisi2
 1108              	.LVL154:
 492:src/emvtrans.c **** }
ARM GAS  C:\Users\AHMED~1.ELE\AppData\Local\Temp\ccALCmni.s 			page 39


 1109              		.loc 1 492 0
 1110 01a8 5968     		ldr	r1, [r3, #4]
 1111 01aa 012A     		cmp	r2, #1
 1112 01ac 95F83C04 		ldrb	r0, [r5, #1084]	@ zero_extendqisi2
 1113              	.LVL155:
 1114 01b0 28BF     		it	cs
 1115 01b2 0122     		movcs	r2, #1
 1116              	.LVL156:
 1117 01b4 FFF7FEFF 		bl	memcpy
 1118              	.LVL157:
 1119              	.L102:
 495:src/emvtrans.c **** 	if ((bLen = psLp->sLen) > sizeof(INPUT.field5F2A))
 1120              		.loc 1 495 0
 1121 01b8 3468     		ldr	r4, [r6]
 1122 01ba 45F62A71 		movw	r1, #24362
 1123 01be 04F55E54 		add	r4, r4, #14208
 1124 01c2 2034     		adds	r4, r4, #32
 1125 01c4 2046     		mov	r0, r4
 1126 01c6 FFF7FEFF 		bl	TagSeek
 1127              	.LVL158:
 1128 01ca 0346     		mov	r3, r0
 1129 01cc 38B1     		cbz	r0, .L103
 496:src/emvtrans.c **** 		bLen = sizeof(INPUT.field5F2A);
 1130              		.loc 1 496 0
 1131 01ce 8278     		ldrb	r2, [r0, #2]	@ zero_extendqisi2
 1132              	.LVL159:
 499:src/emvtrans.c **** }
 1133              		.loc 1 499 0
 1134 01d0 5968     		ldr	r1, [r3, #4]
 1135 01d2 022A     		cmp	r2, #2
 1136 01d4 6848     		ldr	r0, .L230+36
 1137              	.LVL160:
 1138 01d6 28BF     		it	cs
 1139 01d8 0222     		movcs	r2, #2
 1140              	.LVL161:
 1141 01da FFF7FEFF 		bl	memcpy
 1142              	.LVL162:
 1143              	.L103:
 502:src/emvtrans.c **** 	if ((bLen = psLp->sLen) > sizeof(INPUT.field9F02))
 1144              		.loc 1 502 0
 1145 01de 2046     		mov	r0, r4
 1146 01e0 49F60271 		movw	r1, #40706
 1147 01e4 FFF7FEFF 		bl	TagSeek
 1148              	.LVL163:
 1149 01e8 0346     		mov	r3, r0
 1150 01ea 38B1     		cbz	r0, .L104
 503:src/emvtrans.c **** 		bLen = sizeof(INPUT.field9F02);
 1151              		.loc 1 503 0
 1152 01ec 8278     		ldrb	r2, [r0, #2]	@ zero_extendqisi2
 1153              	.LVL164:
 506:src/emvtrans.c **** }
 1154              		.loc 1 506 0
 1155 01ee 5968     		ldr	r1, [r3, #4]
 1156 01f0 062A     		cmp	r2, #6
 1157 01f2 6248     		ldr	r0, .L230+40
 1158              	.LVL165:
 1159 01f4 28BF     		it	cs
ARM GAS  C:\Users\AHMED~1.ELE\AppData\Local\Temp\ccALCmni.s 			page 40


 1160 01f6 0622     		movcs	r2, #6
 1161              	.LVL166:
 1162 01f8 FFF7FEFF 		bl	memcpy
 1163              	.LVL167:
 1164              	.L104:
 509:src/emvtrans.c **** 	if ((bLen = psLp->sLen) > sizeof(INPUT.field9F03))
 1165              		.loc 1 509 0
 1166 01fc 2046     		mov	r0, r4
 1167 01fe 49F60371 		movw	r1, #40707
 1168 0202 FFF7FEFF 		bl	TagSeek
 1169              	.LVL168:
 1170 0206 0346     		mov	r3, r0
 1171 0208 38B1     		cbz	r0, .L105
 510:src/emvtrans.c **** 		bLen = sizeof(INPUT.field9F03);
 1172              		.loc 1 510 0
 1173 020a 8278     		ldrb	r2, [r0, #2]	@ zero_extendqisi2
 1174              	.LVL169:
 513:src/emvtrans.c **** }
 1175              		.loc 1 513 0
 1176 020c 5968     		ldr	r1, [r3, #4]
 1177 020e 062A     		cmp	r2, #6
 1178 0210 5B48     		ldr	r0, .L230+44
 1179              	.LVL170:
 1180 0212 28BF     		it	cs
 1181 0214 0622     		movcs	r2, #6
 1182              	.LVL171:
 1183 0216 FFF7FEFF 		bl	memcpy
 1184              	.LVL172:
 1185              	.L105:
 516:src/emvtrans.c **** 	if ((bLen = psLp->sLen) > sizeof(INPUT.field9F09))
 1186              		.loc 1 516 0
 1187 021a 2046     		mov	r0, r4
 1188 021c 49F60971 		movw	r1, #40713
 1189 0220 FFF7FEFF 		bl	TagSeek
 1190              	.LVL173:
 1191 0224 0346     		mov	r3, r0
 1192 0226 38B1     		cbz	r0, .L106
 517:src/emvtrans.c **** 		bLen = sizeof(INPUT.field9F09);
 1193              		.loc 1 517 0
 1194 0228 8278     		ldrb	r2, [r0, #2]	@ zero_extendqisi2
 1195              	.LVL174:
 520:src/emvtrans.c **** }
 1196              		.loc 1 520 0
 1197 022a 5968     		ldr	r1, [r3, #4]
 1198 022c 022A     		cmp	r2, #2
 1199 022e 5548     		ldr	r0, .L230+48
 1200              	.LVL175:
 1201 0230 28BF     		it	cs
 1202 0232 0222     		movcs	r2, #2
 1203              	.LVL176:
 1204 0234 FFF7FEFF 		bl	memcpy
 1205              	.LVL177:
 1206              	.L106:
 523:src/emvtrans.c **** 	if ((bLen = psLp->sLen) > sizeof(INPUT.field9F10))
 1207              		.loc 1 523 0
 1208 0238 2046     		mov	r0, r4
 1209 023a 49F61071 		movw	r1, #40720
ARM GAS  C:\Users\AHMED~1.ELE\AppData\Local\Temp\ccALCmni.s 			page 41


 1210 023e FFF7FEFF 		bl	TagSeek
 1211              	.LVL178:
 1212 0242 0346     		mov	r3, r0
 1213 0244 38B1     		cbz	r0, .L107
 524:src/emvtrans.c **** 		bLen = sizeof(INPUT.field9F10);
 1214              		.loc 1 524 0
 1215 0246 8278     		ldrb	r2, [r0, #2]	@ zero_extendqisi2
 1216              	.LVL179:
 527:src/emvtrans.c **** }
 1217              		.loc 1 527 0
 1218 0248 5968     		ldr	r1, [r3, #4]
 1219 024a 202A     		cmp	r2, #32
 1220 024c 4E48     		ldr	r0, .L230+52
 1221              	.LVL180:
 1222 024e 28BF     		it	cs
 1223 0250 2022     		movcs	r2, #32
 1224              	.LVL181:
 1225 0252 FFF7FEFF 		bl	memcpy
 1226              	.LVL182:
 1227              	.L107:
 530:src/emvtrans.c **** 	if ((bLen = psLp->sLen) > sizeof(INPUT.field9F1A))
 1228              		.loc 1 530 0
 1229 0256 2046     		mov	r0, r4
 1230 0258 49F61A71 		movw	r1, #40730
 1231 025c FFF7FEFF 		bl	TagSeek
 1232              	.LVL183:
 1233 0260 0346     		mov	r3, r0
 1234 0262 38B1     		cbz	r0, .L108
 531:src/emvtrans.c **** 		bLen = sizeof(INPUT.field9F1A);
 1235              		.loc 1 531 0
 1236 0264 8278     		ldrb	r2, [r0, #2]	@ zero_extendqisi2
 1237              	.LVL184:
 534:src/emvtrans.c **** }
 1238              		.loc 1 534 0
 1239 0266 5968     		ldr	r1, [r3, #4]
 1240 0268 022A     		cmp	r2, #2
 1241 026a 4848     		ldr	r0, .L230+56
 1242              	.LVL185:
 1243 026c 28BF     		it	cs
 1244 026e 0222     		movcs	r2, #2
 1245              	.LVL186:
 1246 0270 FFF7FEFF 		bl	memcpy
 1247              	.LVL187:
 1248              	.L108:
 537:src/emvtrans.c **** 	if ((bLen = psLp->sLen) > sizeof(INPUT.field9F1E))
 1249              		.loc 1 537 0
 1250 0274 2046     		mov	r0, r4
 1251 0276 49F61E71 		movw	r1, #40734
 1252 027a FFF7FEFF 		bl	TagSeek
 1253              	.LVL188:
 1254 027e 0346     		mov	r3, r0
 1255 0280 38B1     		cbz	r0, .L109
 538:src/emvtrans.c **** 		bLen = sizeof(INPUT.field9F1E);
 1256              		.loc 1 538 0
 1257 0282 8278     		ldrb	r2, [r0, #2]	@ zero_extendqisi2
 1258              	.LVL189:
 541:src/emvtrans.c **** }
ARM GAS  C:\Users\AHMED~1.ELE\AppData\Local\Temp\ccALCmni.s 			page 42


 1259              		.loc 1 541 0
 1260 0284 5968     		ldr	r1, [r3, #4]
 1261 0286 082A     		cmp	r2, #8
 1262 0288 4148     		ldr	r0, .L230+60
 1263              	.LVL190:
 1264 028a 28BF     		it	cs
 1265 028c 0822     		movcs	r2, #8
 1266              	.LVL191:
 1267 028e FFF7FEFF 		bl	memcpy
 1268              	.LVL192:
 1269              	.L109:
 544:src/emvtrans.c **** 	if ((bLen = psLp->sLen) > sizeof(INPUT.field57))
 1270              		.loc 1 544 0
 1271 0292 2046     		mov	r0, r4
 1272 0294 5721     		movs	r1, #87
 1273 0296 FFF7FEFF 		bl	TagSeek
 1274              	.LVL193:
 1275 029a 0346     		mov	r3, r0
 1276 029c 38B1     		cbz	r0, .L110
 545:src/emvtrans.c **** 		bLen = sizeof(INPUT.field57);
 1277              		.loc 1 545 0
 1278 029e 8278     		ldrb	r2, [r0, #2]	@ zero_extendqisi2
 1279              	.LVL194:
 548:src/emvtrans.c **** }
 1280              		.loc 1 548 0
 1281 02a0 5968     		ldr	r1, [r3, #4]
 1282 02a2 132A     		cmp	r2, #19
 1283 02a4 3B48     		ldr	r0, .L230+64
 1284              	.LVL195:
 1285 02a6 28BF     		it	cs
 1286 02a8 1322     		movcs	r2, #19
 1287              	.LVL196:
 1288 02aa FFF7FEFF 		bl	memcpy
 1289              	.LVL197:
 1290              	.L110:
 551:src/emvtrans.c **** 	if ((bLen = psLp->sLen) > sizeof(INPUT.field9F26))
 1291              		.loc 1 551 0
 1292 02ae 2046     		mov	r0, r4
 1293 02b0 49F62671 		movw	r1, #40742
 1294 02b4 FFF7FEFF 		bl	TagSeek
 1295              	.LVL198:
 1296 02b8 0346     		mov	r3, r0
 1297 02ba 38B1     		cbz	r0, .L111
 552:src/emvtrans.c **** 		bLen = sizeof(INPUT.field9F26);
 1298              		.loc 1 552 0
 1299 02bc 8278     		ldrb	r2, [r0, #2]	@ zero_extendqisi2
 1300              	.LVL199:
 555:src/emvtrans.c **** }
 1301              		.loc 1 555 0
 1302 02be 5968     		ldr	r1, [r3, #4]
 1303 02c0 082A     		cmp	r2, #8
 1304 02c2 3548     		ldr	r0, .L230+68
 1305              	.LVL200:
 1306 02c4 28BF     		it	cs
 1307 02c6 0822     		movcs	r2, #8
 1308              	.LVL201:
 1309 02c8 FFF7FEFF 		bl	memcpy
ARM GAS  C:\Users\AHMED~1.ELE\AppData\Local\Temp\ccALCmni.s 			page 43


 1310              	.LVL202:
 1311              	.L111:
 558:src/emvtrans.c **** 	if ((bLen = psLp->sLen) > sizeof(INPUT.field9F27))
 1312              		.loc 1 558 0
 1313 02cc 2046     		mov	r0, r4
 1314 02ce 49F62771 		movw	r1, #40743
 1315 02d2 FFF7FEFF 		bl	TagSeek
 1316              	.LVL203:
 1317 02d6 0346     		mov	r3, r0
 1318 02d8 40B1     		cbz	r0, .L112
 559:src/emvtrans.c **** 		bLen = sizeof(INPUT.field9F27);
 1319              		.loc 1 559 0
 1320 02da 8278     		ldrb	r2, [r0, #2]	@ zero_extendqisi2
 1321              	.LVL204:
 562:src/emvtrans.c **** }
 1322              		.loc 1 562 0
 1323 02dc 5968     		ldr	r1, [r3, #4]
 1324 02de 012A     		cmp	r2, #1
 1325 02e0 95F89204 		ldrb	r0, [r5, #1170]	@ zero_extendqisi2
 1326              	.LVL205:
 1327 02e4 28BF     		it	cs
 1328 02e6 0122     		movcs	r2, #1
 1329              	.LVL206:
 1330 02e8 FFF7FEFF 		bl	memcpy
 1331              	.LVL207:
 1332              	.L112:
 565:src/emvtrans.c **** 	if ((bLen = psLp->sLen) > sizeof(INPUT.field9F33))
 1333              		.loc 1 565 0
 1334 02ec 3468     		ldr	r4, [r6]
 1335 02ee 49F63371 		movw	r1, #40755
 1336 02f2 04F55E54 		add	r4, r4, #14208
 1337 02f6 2034     		adds	r4, r4, #32
 1338 02f8 2046     		mov	r0, r4
 1339 02fa FFF7FEFF 		bl	TagSeek
 1340              	.LVL208:
 1341 02fe 0346     		mov	r3, r0
 1342 0300 38B1     		cbz	r0, .L113
 566:src/emvtrans.c **** 		bLen = sizeof(INPUT.field9F33);
 1343              		.loc 1 566 0
 1344 0302 8278     		ldrb	r2, [r0, #2]	@ zero_extendqisi2
 1345              	.LVL209:
 569:src/emvtrans.c **** }
 1346              		.loc 1 569 0
 1347 0304 5968     		ldr	r1, [r3, #4]
 1348 0306 032A     		cmp	r2, #3
 1349 0308 2448     		ldr	r0, .L230+72
 1350              	.LVL210:
 1351 030a 28BF     		it	cs
 1352 030c 0322     		movcs	r2, #3
 1353              	.LVL211:
 1354 030e FFF7FEFF 		bl	memcpy
 1355              	.LVL212:
 1356              	.L113:
 572:src/emvtrans.c **** 	if ((bLen = psLp->sLen) > sizeof(INPUT.field9F34))
 1357              		.loc 1 572 0
 1358 0312 2046     		mov	r0, r4
 1359 0314 49F63471 		movw	r1, #40756
ARM GAS  C:\Users\AHMED~1.ELE\AppData\Local\Temp\ccALCmni.s 			page 44


 1360 0318 FFF7FEFF 		bl	TagSeek
 1361              	.LVL213:
 1362 031c 0346     		mov	r3, r0
 1363 031e 38B1     		cbz	r0, .L114
 573:src/emvtrans.c **** 		bLen = sizeof(INPUT.field9F34);
 1364              		.loc 1 573 0
 1365 0320 8278     		ldrb	r2, [r0, #2]	@ zero_extendqisi2
 1366              	.LVL214:
 576:src/emvtrans.c **** }
 1367              		.loc 1 576 0
 1368 0322 5968     		ldr	r1, [r3, #4]
 1369 0324 042A     		cmp	r2, #4
 1370 0326 1E48     		ldr	r0, .L230+76
 1371              	.LVL215:
 1372 0328 28BF     		it	cs
 1373 032a 0422     		movcs	r2, #4
 1374              	.LVL216:
 1375 032c FFF7FEFF 		bl	memcpy
 1376              	.LVL217:
 1377              	.L114:
 579:src/emvtrans.c **** 	if ((bLen = psLp->sLen) > sizeof(INPUT.field9F35))
 1378              		.loc 1 579 0
 1379 0330 2046     		mov	r0, r4
 1380 0332 49F63571 		movw	r1, #40757
 1381 0336 FFF7FEFF 		bl	TagSeek
 1382              	.LVL218:
 1383 033a 0346     		mov	r3, r0
 1384 033c 90B3     		cbz	r0, .L115
 580:src/emvtrans.c **** 		bLen = sizeof(INPUT.field9F35);
 1385              		.loc 1 580 0
 1386 033e 8278     		ldrb	r2, [r0, #2]	@ zero_extendqisi2
 1387              	.LVL219:
 583:src/emvtrans.c **** }
 1388              		.loc 1 583 0
 1389 0340 5968     		ldr	r1, [r3, #4]
 1390 0342 012A     		cmp	r2, #1
 1391 0344 95F89A04 		ldrb	r0, [r5, #1178]	@ zero_extendqisi2
 1392              	.LVL220:
 1393 0348 28BF     		it	cs
 1394 034a 0122     		movcs	r2, #1
 1395              	.LVL221:
 1396 034c FFF7FEFF 		bl	memcpy
 1397              	.LVL222:
 1398 0350 28E0     		b	.L231
 1399              	.L232:
 1400 0352 00BF     		.align	2
 1401              	.L230:
 1402 0354 FB020000 		.word	gGTS+763
 1403 0358 7B030000 		.word	gGTS+891
 1404 035c FB030000 		.word	gGTS+1019
 1405 0360 FD030000 		.word	gGTS+1021
 1406 0364 0D040000 		.word	gGTS+1037
 1407 0368 22040000 		.word	gGTS+1058
 1408 036c 24040000 		.word	gGTS+1060
 1409 0370 34040000 		.word	gGTS+1076
 1410 0374 39040000 		.word	gGTS+1081
 1411 0378 3D040000 		.word	gGTS+1085
ARM GAS  C:\Users\AHMED~1.ELE\AppData\Local\Temp\ccALCmni.s 			page 45


 1412 037c 3F040000 		.word	gGTS+1087
 1413 0380 45040000 		.word	gGTS+1093
 1414 0384 4B040000 		.word	gGTS+1099
 1415 0388 4D040000 		.word	gGTS+1101
 1416 038c 6D040000 		.word	gGTS+1133
 1417 0390 6F040000 		.word	gGTS+1135
 1418 0394 77040000 		.word	gGTS+1143
 1419 0398 8A040000 		.word	gGTS+1162
 1420 039c 93040000 		.word	gGTS+1171
 1421 03a0 96040000 		.word	gGTS+1174
 1422              	.L231:
 1423              	.LVL223:
 1424              	.L115:
 586:src/emvtrans.c **** 	if ((bLen = psLp->sLen) > sizeof(INPUT.field9F36))
 1425              		.loc 1 586 0
 1426 03a4 3468     		ldr	r4, [r6]
 1427 03a6 49F63671 		movw	r1, #40758
 1428 03aa 04F55E54 		add	r4, r4, #14208
 1429 03ae 2034     		adds	r4, r4, #32
 1430 03b0 2046     		mov	r0, r4
 1431 03b2 FFF7FEFF 		bl	TagSeek
 1432              	.LVL224:
 1433 03b6 0346     		mov	r3, r0
 1434 03b8 38B1     		cbz	r0, .L116
 587:src/emvtrans.c **** 		bLen = sizeof(INPUT.field9F36);
 1435              		.loc 1 587 0
 1436 03ba 8278     		ldrb	r2, [r0, #2]	@ zero_extendqisi2
 1437              	.LVL225:
 590:src/emvtrans.c **** }
 1438              		.loc 1 590 0
 1439 03bc 5968     		ldr	r1, [r3, #4]
 1440 03be 022A     		cmp	r2, #2
 1441 03c0 6448     		ldr	r0, .L233
 1442              	.LVL226:
 1443 03c2 28BF     		it	cs
 1444 03c4 0222     		movcs	r2, #2
 1445              	.LVL227:
 1446 03c6 FFF7FEFF 		bl	memcpy
 1447              	.LVL228:
 1448              	.L116:
 593:src/emvtrans.c **** 	if ((bLen = psLp->sLen) > sizeof(INPUT.field9F37))
 1449              		.loc 1 593 0
 1450 03ca 2046     		mov	r0, r4
 1451 03cc 49F63771 		movw	r1, #40759
 1452 03d0 FFF7FEFF 		bl	TagSeek
 1453              	.LVL229:
 1454 03d4 0346     		mov	r3, r0
 1455 03d6 38B1     		cbz	r0, .L117
 594:src/emvtrans.c **** 		bLen = sizeof(INPUT.field9F37);
 1456              		.loc 1 594 0
 1457 03d8 8278     		ldrb	r2, [r0, #2]	@ zero_extendqisi2
 1458              	.LVL230:
 597:src/emvtrans.c **** }
 1459              		.loc 1 597 0
 1460 03da 5968     		ldr	r1, [r3, #4]
 1461 03dc 042A     		cmp	r2, #4
 1462 03de 5E48     		ldr	r0, .L233+4
ARM GAS  C:\Users\AHMED~1.ELE\AppData\Local\Temp\ccALCmni.s 			page 46


 1463              	.LVL231:
 1464 03e0 28BF     		it	cs
 1465 03e2 0422     		movcs	r2, #4
 1466              	.LVL232:
 1467 03e4 FFF7FEFF 		bl	memcpy
 1468              	.LVL233:
 1469              	.L117:
 600:src/emvtrans.c **** 	if ((bLen = psLp->sLen) > sizeof(INPUT.field9F41))
 1470              		.loc 1 600 0
 1471 03e8 2046     		mov	r0, r4
 1472 03ea 49F64171 		movw	r1, #40769
 1473 03ee FFF7FEFF 		bl	TagSeek
 1474              	.LVL234:
 1475 03f2 0346     		mov	r3, r0
 1476 03f4 38B1     		cbz	r0, .L118
 601:src/emvtrans.c **** 		bLen = sizeof(INPUT.field9F41);
 1477              		.loc 1 601 0
 1478 03f6 8278     		ldrb	r2, [r0, #2]	@ zero_extendqisi2
 1479              	.LVL235:
 604:src/emvtrans.c **** }
 1480              		.loc 1 604 0
 1481 03f8 5968     		ldr	r1, [r3, #4]
 1482 03fa 042A     		cmp	r2, #4
 1483 03fc 5748     		ldr	r0, .L233+8
 1484              	.LVL236:
 1485 03fe 28BF     		it	cs
 1486 0400 0422     		movcs	r2, #4
 1487              	.LVL237:
 1488 0402 FFF7FEFF 		bl	memcpy
 1489              	.LVL238:
 1490              	.L118:
 607:src/emvtrans.c **** 	if ((bLen = psLp->sLen) > sizeof(INPUT.field9F53))
 1491              		.loc 1 607 0
 1492 0406 2046     		mov	r0, r4
 1493 0408 49F65371 		movw	r1, #40787
 1494 040c FFF7FEFF 		bl	TagSeek
 1495              	.LVL239:
 1496 0410 0346     		mov	r3, r0
 1497 0412 40B1     		cbz	r0, .L119
 608:src/emvtrans.c **** 		bLen = sizeof(INPUT.field9F53);
 1498              		.loc 1 608 0
 1499 0414 8278     		ldrb	r2, [r0, #2]	@ zero_extendqisi2
 1500              	.LVL240:
 611:src/emvtrans.c **** }
 1501              		.loc 1 611 0
 1502 0416 5968     		ldr	r1, [r3, #4]
 1503 0418 012A     		cmp	r2, #1
 1504 041a 95F8A504 		ldrb	r0, [r5, #1189]	@ zero_extendqisi2
 1505              	.LVL241:
 1506 041e 28BF     		it	cs
 1507 0420 0122     		movcs	r2, #1
 1508              	.LVL242:
 1509 0422 FFF7FEFF 		bl	memcpy
 1510              	.LVL243:
 1511              	.L119:
 617:src/emvtrans.c ****     if ((bLen = psLp->sLen) > sizeof(INPUT.sb_holder_name))
 1512              		.loc 1 617 0
ARM GAS  C:\Users\AHMED~1.ELE\AppData\Local\Temp\ccALCmni.s 			page 47


 1513 0426 4E4E     		ldr	r6, .L233+12
 1514 0428 45F62071 		movw	r1, #24352
 1515 042c 3468     		ldr	r4, [r6]
 1516 042e 04F55E54 		add	r4, r4, #14208
 1517 0432 2034     		adds	r4, r4, #32
 1518 0434 2046     		mov	r0, r4
 1519 0436 FFF7FEFF 		bl	TagSeek
 1520              	.LVL244:
 1521 043a 0346     		mov	r3, r0
 1522 043c 38B1     		cbz	r0, .L120
 618:src/emvtrans.c ****       bLen = sizeof(INPUT.sb_holder_name);
 1523              		.loc 1 618 0
 1524 043e 8278     		ldrb	r2, [r0, #2]	@ zero_extendqisi2
 1525              	.LVL245:
 621:src/emvtrans.c ****   }
 1526              		.loc 1 621 0
 1527 0440 5968     		ldr	r1, [r3, #4]
 1528 0442 1A2A     		cmp	r2, #26
 1529 0444 4748     		ldr	r0, .L233+16
 1530              	.LVL246:
 1531 0446 28BF     		it	cs
 1532 0448 1A22     		movcs	r2, #26
 1533              	.LVL247:
 1534 044a FFF7FEFF 		bl	memcpy
 1535              	.LVL248:
 1536              	.L120:
 624:src/emvtrans.c ****   if ((psLp = TagSeek(gGDS->s_TagList, 0x57)) != NULL) { /* make it compatable with swipe */
 1537              		.loc 1 624 0
 1538 044e 0027     		movs	r7, #0
 625:src/emvtrans.c ****     split(INPUT.s_trk2buf.sb_content, psLp->pbLoc, bLen = psLp->sLen);
 1539              		.loc 1 625 0
 1540 0450 2046     		mov	r0, r4
 1541 0452 5721     		movs	r1, #87
 624:src/emvtrans.c ****   if ((psLp = TagSeek(gGDS->s_TagList, 0x57)) != NULL) { /* make it compatable with swipe */
 1542              		.loc 1 624 0
 1543 0454 85F8A072 		strb	r7, [r5, #672]
 625:src/emvtrans.c ****     split(INPUT.s_trk2buf.sb_content, psLp->pbLoc, bLen = psLp->sLen);
 1544              		.loc 1 625 0
 1545 0458 FFF7FEFF 		bl	TagSeek
 1546              	.LVL249:
 624:src/emvtrans.c ****   if ((psLp = TagSeek(gGDS->s_TagList, 0x57)) != NULL) { /* make it compatable with swipe */
 1547              		.loc 1 624 0
 1548 045c DFF82881 		ldr	r8, .L233+52
 625:src/emvtrans.c ****     split(INPUT.s_trk2buf.sb_content, psLp->pbLoc, bLen = psLp->sLen);
 1549              		.loc 1 625 0
 1550 0460 0346     		mov	r3, r0
 1551 0462 F8B1     		cbz	r0, .L121
 626:src/emvtrans.c ****     INPUT.s_trk2buf.b_len = (BYTE) fndb(INPUT.s_trk2buf.sb_content, 'F', (BYTE)(bLen * 2));
 1552              		.loc 1 626 0
 1553 0464 8478     		ldrb	r4, [r0, #2]	@ zero_extendqisi2
 1554              	.LVL250:
 1555 0466 5968     		ldr	r1, [r3, #4]
 1556 0468 2246     		mov	r2, r4
 1557 046a 3F48     		ldr	r0, .L233+20
 1558              	.LVL251:
 1559 046c FFF7FEFF 		bl	split
 1560              	.LVL252:
ARM GAS  C:\Users\AHMED~1.ELE\AppData\Local\Temp\ccALCmni.s 			page 48


 627:src/emvtrans.c ****     if (INPUT.s_trk2buf.b_len < (bLen*2) -1) {
 1561              		.loc 1 627 0
 1562 0470 6200     		lsls	r2, r4, #1
 1563 0472 02F0FE02 		and	r2, r2, #254
 1564 0476 3C48     		ldr	r0, .L233+20
 1565 0478 4621     		movs	r1, #70
 1566 047a FFF7FEFF 		bl	fndb
 1567              	.LVL253:
 628:src/emvtrans.c ****       RSP_DATA.w_rspcode='U'*256+'C';
 1568              		.loc 1 628 0
 1569 047e 0223     		movs	r3, #2
 1570 0480 4FF0FF32 		mov	r2, #-1
 1571 0484 13FB0424 		smlabb	r4, r3, r4, r2
 1572              	.LVL254:
 627:src/emvtrans.c ****     if (INPUT.s_trk2buf.b_len < (bLen*2) -1) {
 1573              		.loc 1 627 0
 1574 0488 88F8A002 		strb	r0, [r8, #672]
 1575 048c C0B2     		uxtb	r0, r0
 628:src/emvtrans.c ****       RSP_DATA.w_rspcode='U'*256+'C';
 1576              		.loc 1 628 0
 1577 048e A042     		cmp	r0, r4
 1578 0490 08DA     		bge	.L121
 629:src/emvtrans.c ****       RSP_DATA.b_response = TRANS_FAIL;
 1579              		.loc 1 629 0
 1580 0492 45F24352 		movw	r2, #21827
 630:src/emvtrans.c ****       return FALSE;
 1581              		.loc 1 630 0
 1582 0496 88F8A838 		strb	r3, [r8, #2216]
 629:src/emvtrans.c ****       RSP_DATA.b_response = TRANS_FAIL;
 1583              		.loc 1 629 0
 1584 049a A8F81627 		strh	r2, [r8, #1814]	@ movhi
 1585              	.L91:
 1586              	.LBE19:
 1587              	.LBE18:
 418:src/emvtrans.c ****   }
 1588              		.loc 1 418 0
 1589 049e 0020     		movs	r0, #0
 1590 04a0 BDE8F081 		pop	{r4, r5, r6, r7, r8, pc}
 1591              	.L121:
 1592              	.LBB21:
 1593              	.LBB20:
 635:src/emvtrans.c ****   psLp = TagSeek(gGDS->s_TagList, GetApplNameTag());
 1594              		.loc 1 635 0
 1595 04a4 2021     		movs	r1, #32
 1596 04a6 1022     		movs	r2, #16
 1597 04a8 3048     		ldr	r0, .L233+24
 1598 04aa FFF7FEFF 		bl	memset
 1599              	.LVL255:
 636:src/emvtrans.c ****   if (psLp != NULL) {
 1600              		.loc 1 636 0
 1601 04ae 3468     		ldr	r4, [r6]
 1602 04b0 FFF7FEFF 		bl	GetApplNameTag
 1603              	.LVL256:
 1604 04b4 04F55E54 		add	r4, r4, #14208
 1605 04b8 2034     		adds	r4, r4, #32
 1606 04ba 0146     		mov	r1, r0
 1607 04bc 2046     		mov	r0, r4
ARM GAS  C:\Users\AHMED~1.ELE\AppData\Local\Temp\ccALCmni.s 			page 49


 1608 04be FFF7FEFF 		bl	TagSeek
 1609              	.LVL257:
 637:src/emvtrans.c ****     if ((bLen = psLp->sLen) > 16)
 1610              		.loc 1 637 0
 1611 04c2 0346     		mov	r3, r0
 1612 04c4 38B1     		cbz	r0, .L123
 638:src/emvtrans.c ****       bLen = 16;
 1613              		.loc 1 638 0
 1614 04c6 8278     		ldrb	r2, [r0, #2]	@ zero_extendqisi2
 1615              	.LVL258:
 640:src/emvtrans.c ****   }
 1616              		.loc 1 640 0
 1617 04c8 5968     		ldr	r1, [r3, #4]
 1618 04ca 102A     		cmp	r2, #16
 1619 04cc 2748     		ldr	r0, .L233+24
 1620              	.LVL259:
 1621 04ce 28BF     		it	cs
 1622 04d0 1022     		movcs	r2, #16
 1623              	.LVL260:
 1624 04d2 FFF7FEFF 		bl	memcpy
 1625              	.LVL261:
 1626              	.L123:
 644:src/emvtrans.c ****     if ((memcmp(psLp->pbLoc, "\xA0\x00\x00\00\x04\x22\x03", 7) == 0) ||
 1627              		.loc 1 644 0
 1628 04d6 2046     		mov	r0, r4
 1629 04d8 49F60671 		movw	r1, #40710
 1630 04dc FFF7FEFF 		bl	TagSeek
 1631              	.LVL262:
 1632 04e0 78B1     		cbz	r0, .L124
 645:src/emvtrans.c ****         (memcmp(psLp->pbLoc, "\xA0\x00\x00\00\x04\x30\x60", 7) == 0)) {
 1633              		.loc 1 645 0
 1634 04e2 4468     		ldr	r4, [r0, #4]
 1635 04e4 2249     		ldr	r1, .L233+28
 1636 04e6 2046     		mov	r0, r4
 1637              	.LVL263:
 1638 04e8 0722     		movs	r2, #7
 1639 04ea FFF7FEFF 		bl	memcmp
 1640              	.LVL264:
 1641 04ee 28B1     		cbz	r0, .L125
 646:src/emvtrans.c ****         gIsMaestro = TRUE;
 1642              		.loc 1 646 0
 1643 04f0 2046     		mov	r0, r4
 1644 04f2 2049     		ldr	r1, .L233+32
 1645 04f4 0722     		movs	r2, #7
 1646 04f6 FFF7FEFF 		bl	memcmp
 1647              	.LVL265:
 645:src/emvtrans.c ****         (memcmp(psLp->pbLoc, "\xA0\x00\x00\00\x04\x30\x60", 7) == 0)) {
 1648              		.loc 1 645 0
 1649 04fa 10B9     		cbnz	r0, .L124
 1650              	.L125:
 647:src/emvtrans.c ****     }
 1651              		.loc 1 647 0
 1652 04fc 0122     		movs	r2, #1
 1653 04fe 1E4B     		ldr	r3, .L233+36
 1654 0500 1A70     		strb	r2, [r3]
 1655              	.L124:
 652:src/emvtrans.c ****   memcpy(&RSP_DATA.s_dtg.b_year, TagData(gGDS->s_TagList, 0x9A), 3);
ARM GAS  C:\Users\AHMED~1.ELE\AppData\Local\Temp\ccALCmni.s 			page 50


 1656              		.loc 1 652 0
 1657 0502 FFF7FEFF 		bl	ClearResponse
 1658              	.LVL266:
 653:src/emvtrans.c ****   memcpy(&RSP_DATA.s_dtg.b_hour, TagData(gGDS->s_TagList, 0x9F21), 3);
 1659              		.loc 1 653 0
 1660 0506 3468     		ldr	r4, [r6]
 1661 0508 9A21     		movs	r1, #154
 1662 050a 04F55E54 		add	r4, r4, #14208
 1663 050e 2034     		adds	r4, r4, #32
 1664 0510 2046     		mov	r0, r4
 1665 0512 FFF7FEFF 		bl	TagData
 1666              	.LVL267:
 1667 0516 0322     		movs	r2, #3
 1668 0518 0146     		mov	r1, r0
 1669 051a 1848     		ldr	r0, .L233+40
 1670 051c FFF7FEFF 		bl	memcpy
 1671              	.LVL268:
 654:src/emvtrans.c ****   memset(RSP_DATA.sb_auth_code, ' ', sizeof(RSP_DATA.sb_auth_code));
 1672              		.loc 1 654 0
 1673 0520 2046     		mov	r0, r4
 1674 0522 49F62171 		movw	r1, #40737
 1675 0526 FFF7FEFF 		bl	TagData
 1676              	.LVL269:
 1677 052a 0322     		movs	r2, #3
 1678 052c 0146     		mov	r1, r0
 1679 052e 1448     		ldr	r0, .L233+44
 1680 0530 FFF7FEFF 		bl	memcpy
 1681              	.LVL270:
 655:src/emvtrans.c ****   RSP_DATA.w_rspcode = '5'*256+'1';
 1682              		.loc 1 655 0
 1683 0534 2021     		movs	r1, #32
 1684 0536 0622     		movs	r2, #6
 1685 0538 1248     		ldr	r0, .L233+48
 1686 053a FFF7FEFF 		bl	memset
 1687              	.LVL271:
 656:src/emvtrans.c ****   RSP_DATA.b_response = TRANS_FAIL;
 1688              		.loc 1 656 0
 1689 053e 124B     		ldr	r3, .L233+52
 1690 0540 43F23152 		movw	r2, #13617
 658:src/emvtrans.c **** }
 1691              		.loc 1 658 0
 1692 0544 0120     		movs	r0, #1
 656:src/emvtrans.c ****   RSP_DATA.b_response = TRANS_FAIL;
 1693              		.loc 1 656 0
 1694 0546 A3F81627 		strh	r2, [r3, #1814]	@ movhi
 657:src/emvtrans.c ****   return TRUE;
 1695              		.loc 1 657 0
 1696 054a 0222     		movs	r2, #2
 1697 054c 83F8A828 		strb	r2, [r3, #2216]
 1698 0550 BDE8F081 		pop	{r4, r5, r6, r7, r8, pc}
 1699              	.L234:
 1700              		.align	2
 1701              	.L233:
 1702 0554 9B040000 		.word	gGTS+1179
 1703 0558 9D040000 		.word	gGTS+1181
 1704 055c A1040000 		.word	gGTS+1185
 1705 0560 00000000 		.word	gGDS
ARM GAS  C:\Users\AHMED~1.ELE\AppData\Local\Temp\ccALCmni.s 			page 51


 1706 0564 35000000 		.word	gGTS+53
 1707 0568 A1020000 		.word	gGTS+673
 1708 056c 84000000 		.word	gGTS+132
 1709 0570 00000000 		.word	.LANCHOR0
 1710 0574 08000000 		.word	.LANCHOR0+8
 1711 0578 00000000 		.word	gIsMaestro
 1712 057c 2D070000 		.word	gGTS+1837
 1713 0580 30070000 		.word	gGTS+1840
 1714 0584 0F070000 		.word	gGTS+1807
 1715 0588 00000000 		.word	gGTS
 1716              	.LBE20:
 1717              	.LBE21:
 1718              		.cfi_endproc
 1719              	.LFE11:
 1720              		.size	ValidEMVData, .-ValidEMVData
 1721              		.section	.text.PackEMVData,"ax",%progbits
 1722              		.align	1
 1723              		.global	PackEMVData
 1724              		.thumb
 1725              		.thumb_func
 1726              		.type	PackEMVData, %function
 1727              	PackEMVData:
 1728              	.LFB13:
 690:src/emvtrans.c ****   BYTE *ptr;
 1729              		.loc 1 690 0
 1730              		.cfi_startproc
 1731              		@ args = 0, pretend = 0, frame = 0
 1732              		@ frame_needed = 0, uses_anonymous_args = 0
 1733              	.LVL272:
 1734 0000 38B5     		push	{r3, r4, r5, lr}
 1735              		.cfi_def_cfa_offset 16
 1736              		.cfi_offset 3, -16
 1737              		.cfi_offset 4, -12
 1738              		.cfi_offset 5, -8
 1739              		.cfi_offset 14, -4
 693:src/emvtrans.c ****   ptr = PackTagsData(aDat->sb_misc_content, (WORD *)wVMOnlineTags);
 1740              		.loc 1 693 0
 1741 0002 0023     		movs	r3, #0
 694:src/emvtrans.c ****   aDat->w_misc_len = (BYTE)((DWORD)ptr - (DWORD)aDat->sb_misc_content);
 1742              		.loc 1 694 0
 1743 0004 00F12A04 		add	r4, r0, #42
 690:src/emvtrans.c ****   BYTE *ptr;
 1744              		.loc 1 690 0
 1745 0008 0546     		mov	r5, r0
 693:src/emvtrans.c ****   ptr = PackTagsData(aDat->sb_misc_content, (WORD *)wVMOnlineTags);
 1746              		.loc 1 693 0
 1747 000a 0385     		strh	r3, [r0, #40]	@ movhi
 694:src/emvtrans.c ****   aDat->w_misc_len = (BYTE)((DWORD)ptr - (DWORD)aDat->sb_misc_content);
 1748              		.loc 1 694 0
 1749 000c 0349     		ldr	r1, .L236
 1750 000e 2046     		mov	r0, r4
 1751              	.LVL273:
 1752 0010 FFF7FEFF 		bl	PackTagsData
 1753              	.LVL274:
 695:src/emvtrans.c **** }
 1754              		.loc 1 695 0
 1755 0014 001B     		subs	r0, r0, r4
ARM GAS  C:\Users\AHMED~1.ELE\AppData\Local\Temp\ccALCmni.s 			page 52


 1756              	.LVL275:
 1757 0016 C0B2     		uxtb	r0, r0
 1758 0018 2885     		strh	r0, [r5, #40]	@ movhi
 1759 001a 38BD     		pop	{r3, r4, r5, pc}
 1760              	.LVL276:
 1761              	.L237:
 1762              		.align	2
 1763              	.L236:
 1764 001c 10000000 		.word	.LANCHOR0+16
 1765              		.cfi_endproc
 1766              	.LFE13:
 1767              		.size	PackEMVData, .-PackEMVData
 1768              		.section	.text.debugEMV2,"ax",%progbits
 1769              		.align	1
 1770              		.global	debugEMV2
 1771              		.thumb
 1772              		.thumb_func
 1773              		.type	debugEMV2, %function
 1774              	debugEMV2:
 1775              	.LFB20:
 907:src/emvtrans.c **** //*****************************************************************************
 908:src/emvtrans.c **** //  Function        : EMVError
 909:src/emvtrans.c **** //  Description     : Handle EMV error response
 910:src/emvtrans.c **** //  Input           : EMV process next state.
 911:src/emvtrans.c **** //  Return          : EMV process next state.
 912:src/emvtrans.c **** //  Note            : N/A
 913:src/emvtrans.c **** //  Globals Changed : N/A;
 914:src/emvtrans.c **** //*****************************************************************************
 915:src/emvtrans.c **** static BYTE EMVError(BYTE aNextState)
 916:src/emvtrans.c **** {
 917:src/emvtrans.c ****   DispHeader(NULL);
 918:src/emvtrans.c ****   switch (gGDS->s_EMVOut.bMsg[0] & 0x7F) {  //short error message response
 919:src/emvtrans.c ****     case ERR_SMCIO:
 920:src/emvtrans.c ****     case ERR_CARDL1:
 921:src/emvtrans.c ****     case ERR_DATA:
 922:src/emvtrans.c ****       RSP_DATA.w_rspcode = 'R'*256+'E';
 923:src/emvtrans.c ****       break;
 924:src/emvtrans.c ****     case ERR_CANCEL:
 925:src/emvtrans.c ****       DispClrBelowMW(MW_LINE3);
 926:src/emvtrans.c ****       RSP_DATA.w_rspcode = 'C'*256+'N';
 927:src/emvtrans.c ****       break;
 928:src/emvtrans.c ****     case ERR_SEQ:
 929:src/emvtrans.c ****       RSP_DATA.w_rspcode = 'S'*256+'C';
 930:src/emvtrans.c ****       break;
 931:src/emvtrans.c ****     case ERR_NOMORE:
 932:src/emvtrans.c ****       RSP_DATA.w_rspcode = 'N'*256+'A'; // for ADVT #08
 933:src/emvtrans.c ****       break;
 934:src/emvtrans.c ****     case ERR_NOAPPL:  // not supported if no matching app
 935:src/emvtrans.c ****       RSP_DATA.w_rspcode = 'M'*256+'A'; // fallback
 936:src/emvtrans.c ****       break;
 937:src/emvtrans.c ****     case ERR_BLOCKED:
 938:src/emvtrans.c ****       RSP_DATA.w_rspcode = 'S'*256+'B';
 939:src/emvtrans.c ****       break;
 940:src/emvtrans.c ****     case ERR_CONFIG:
 941:src/emvtrans.c ****     case ERR_MEMORY:
 942:src/emvtrans.c ****     default:
 943:src/emvtrans.c ****       RSP_DATA.w_rspcode = 'S'*256+'E';
ARM GAS  C:\Users\AHMED~1.ELE\AppData\Local\Temp\ccALCmni.s 			page 53


 944:src/emvtrans.c ****       IOCtlMW(gIccHandle, IO_ICC_OFF, NULL);
 945:src/emvtrans.c ****       break;
 946:src/emvtrans.c ****   }
 947:src/emvtrans.c ****   LongBeep();
 948:src/emvtrans.c ****   if (gGDS->s_EMVOut.wLen > 2)
 949:src/emvtrans.c ****     if (bAction & ACT_HOSTAPP)
 950:src/emvtrans.c ****       UpdateHostStatus(REV_PENDING);
 951:src/emvtrans.c ****   if (IOCtlMW(gIccHandle, IO_ICC_CHANGE, NULL))
 952:src/emvtrans.c ****     aNextState = EMV_COMPLETE;  // no fallback
 953:src/emvtrans.c **** 
 954:src/emvtrans.c ****   RSP_DATA.b_response = TRANS_REJ; // for print msg disable
 955:src/emvtrans.c ****   return aNextState;
 956:src/emvtrans.c **** }
 957:src/emvtrans.c **** //*****************************************************************************
 958:src/emvtrans.c **** //  Function        : EMVComplete
 959:src/emvtrans.c **** //  Description     : Handle EMV COMPLETE response
 960:src/emvtrans.c **** //  Input           : N/A
 961:src/emvtrans.c **** //  Return          : N/A
 962:src/emvtrans.c **** //  Note            : N/A
 963:src/emvtrans.c **** //  Globals Changed : N/A
 964:src/emvtrans.c **** //*****************************************************************************
 965:src/emvtrans.c **** static void EMVComplete(void)
 966:src/emvtrans.c **** {
 967:src/emvtrans.c ****   IOCtlMW(gIccHandle, IO_ICC_OFF, NULL);
 968:src/emvtrans.c ****   if (DeAss(gGDS->s_TagList, gGDS->s_EMVOut.bMsg+2, (WORD)(gGDS->s_EMVOut.wLen - 2)) == 0)
 969:src/emvtrans.c ****     EMVFatal();
 970:src/emvtrans.c ****   DispHeader(NULL);
 971:src/emvtrans.c **** 
 972:src/emvtrans.c ****   if (bAcceptReferral==TRUE){ // referral requested
 973:src/emvtrans.c ****     if (!EMVReferral())
 974:src/emvtrans.c ****       return;
 975:src/emvtrans.c ****     bAction |= ACT_APPROVED;  // so it will print & update batch
 976:src/emvtrans.c ****   }
 977:src/emvtrans.c **** 
 978:src/emvtrans.c ****   if (bAction & ACT_APPROVED) {
 979:src/emvtrans.c ****     EMVAccepted((BOOLEAN)(bAction & ACT_ONLINE)); // 07-06-05++ BW (1) for offline approved txn
 980:src/emvtrans.c ****     //RSP_DATA.w_rspcode = 'T'*256+'A';
 981:src/emvtrans.c ****     if (bAction & ACT_HOSTAPP)
 982:src/emvtrans.c ****       UpdateHostStatus(NO_PENDING); // clear reversal gen after host appr txn
 983:src/emvtrans.c ****     AcceptBeep();
 984:src/emvtrans.c ****   }
 985:src/emvtrans.c ****   else {
 986:src/emvtrans.c ****     if ((bAction&ACT_HOSTAPP) || (RSP_DATA.w_rspcode=='0'*256+'0'))
 987:src/emvtrans.c ****       RSP_DATA.w_rspcode = '5'*256+'1'; //rejected by ICC -> set rsp. ocde to declined
 988:src/emvtrans.c ****     LongBeep();
 989:src/emvtrans.c ****   }
 990:src/emvtrans.c **** }
 991:src/emvtrans.c **** /******************************************************************************
 992:src/emvtrans.c ****  *  Function        : debugEMV
 993:src/emvtrans.c ****  *  Description     : EMV Processing state machine.
 994:src/emvtrans.c ****  *  Input           : N/A
 995:src/emvtrans.c ****  *  Return          : next action
 996:src/emvtrans.c ****  *  Note            : N/A
 997:src/emvtrans.c ****  *  Globals Changed : gds.emvdll, input;
 998:src/emvtrans.c ****  ******************************************************************************
 999:src/emvtrans.c ****  */
1000:src/emvtrans.c **** void debugEMV2(BYTE aState, BYTE aIn, sIO_t *pEMV)
ARM GAS  C:\Users\AHMED~1.ELE\AppData\Local\Temp\ccALCmni.s 			page 54


1001:src/emvtrans.c **** {
 1776              		.loc 1 1001 0
 1777              		.cfi_startproc
 1778              		@ args = 0, pretend = 0, frame = 32
 1779              		@ frame_needed = 0, uses_anonymous_args = 0
 1780              	.LVL277:
 1781 0000 70B5     		push	{r4, r5, r6, lr}
 1782              		.cfi_def_cfa_offset 16
 1783              		.cfi_offset 4, -16
 1784              		.cfi_offset 5, -12
 1785              		.cfi_offset 6, -8
 1786              		.cfi_offset 14, -4
 1787 0002 0446     		mov	r4, r0
 1788 0004 88B0     		sub	sp, sp, #32
 1789              		.cfi_def_cfa_offset 48
1002:src/emvtrans.c ****   BYTE buf[30];
1003:src/emvtrans.c ****   WORD i;
1004:src/emvtrans.c ****   
1005:src/emvtrans.c ****   LptOpen(NULL);
 1790              		.loc 1 1005 0
 1791 0006 0020     		movs	r0, #0
 1792              	.LVL278:
1001:src/emvtrans.c ****   BYTE buf[30];
 1793              		.loc 1 1001 0
 1794 0008 0E46     		mov	r6, r1
 1795 000a 1546     		mov	r5, r2
 1796              		.loc 1 1005 0
 1797 000c FFF7FEFF 		bl	LptOpen
 1798              	.LVL279:
1006:src/emvtrans.c ****   LptPutS("\x1B""F1\n");
 1799              		.loc 1 1006 0
 1800 0010 1348     		ldr	r0, .L244
 1801 0012 FFF7FEFF 		bl	LptPutS
 1802              	.LVL280:
1007:src/emvtrans.c ****   sprintf(buf, "dllMsg(%d)-%s\n", aState, aIn? "In": "Out");
 1803              		.loc 1 1007 0
 1804 0016 2246     		mov	r2, r4
 1805 0018 124B     		ldr	r3, .L244+4
 1806 001a 134C     		ldr	r4, .L244+8
 1807 001c 1349     		ldr	r1, .L244+12
 1808 001e 002E     		cmp	r6, #0
 1809 0020 08BF     		it	eq
 1810 0022 2346     		moveq	r3, r4
 1811 0024 6846     		mov	r0, sp
 1812 0026 FFF7FEFF 		bl	sprintf
 1813              	.LVL281:
1008:src/emvtrans.c ****   LptPutS(buf);
 1814              		.loc 1 1008 0
 1815 002a 6846     		mov	r0, sp
 1816 002c FFF7FEFF 		bl	LptPutS
 1817              	.LVL282:
1009:src/emvtrans.c ****   for (i=1; i<=pEMV->wLen; i++) {
 1818              		.loc 1 1009 0
 1819 0030 0124     		movs	r4, #1
 1820              	.LVL283:
 1821              	.L240:
 1822              		.loc 1 1009 0 is_stmt 0 discriminator 1
ARM GAS  C:\Users\AHMED~1.ELE\AppData\Local\Temp\ccALCmni.s 			page 55


 1823 0032 2B88     		ldrh	r3, [r5]
 1824 0034 A342     		cmp	r3, r4
 1825 0036 0ED3     		bcc	.L243
1010:src/emvtrans.c ****     sprintf(buf, "%02X ", (BYTE)pEMV->bMsg[i-1]);
 1826              		.loc 1 1010 0 is_stmt 1 discriminator 3
 1827 0038 6B68     		ldr	r3, [r5, #4]
 1828 003a 0D49     		ldr	r1, .L244+16
 1829 003c 2344     		add	r3, r3, r4
 1830 003e 6846     		mov	r0, sp
 1831 0040 13F8012C 		ldrb	r2, [r3, #-1]	@ zero_extendqisi2
1009:src/emvtrans.c ****   for (i=1; i<=pEMV->wLen; i++) {
 1832              		.loc 1 1009 0 discriminator 3
 1833 0044 0134     		adds	r4, r4, #1
 1834              	.LVL284:
 1835              		.loc 1 1010 0 discriminator 3
 1836 0046 FFF7FEFF 		bl	sprintf
 1837              	.LVL285:
1011:src/emvtrans.c ****     LptPutN(buf, 3);
 1838              		.loc 1 1011 0 discriminator 3
 1839 004a 6846     		mov	r0, sp
 1840 004c 0321     		movs	r1, #3
 1841 004e FFF7FEFF 		bl	LptPutN
 1842              	.LVL286:
1009:src/emvtrans.c ****   for (i=1; i<=pEMV->wLen; i++) {
 1843              		.loc 1 1009 0 discriminator 3
 1844 0052 A4B2     		uxth	r4, r4
 1845              	.LVL287:
 1846 0054 EDE7     		b	.L240
 1847              	.L243:
1012:src/emvtrans.c ****   }
1013:src/emvtrans.c ****   LptPutS("\n");
 1848              		.loc 1 1013 0
 1849 0056 0748     		ldr	r0, .L244+20
 1850 0058 FFF7FEFF 		bl	LptPutS
 1851              	.LVL288:
1014:src/emvtrans.c **** }
 1852              		.loc 1 1014 0
 1853 005c 08B0     		add	sp, sp, #32
 1854              		.cfi_def_cfa_offset 16
 1855              		@ sp needed
 1856 005e 70BD     		pop	{r4, r5, r6, pc}
 1857              	.LVL289:
 1858              	.L245:
 1859              		.align	2
 1860              	.L244:
 1861 0060 0B000000 		.word	.LC5
 1862 0064 04000000 		.word	.LC3
 1863 0068 07000000 		.word	.LC4
 1864 006c 10000000 		.word	.LC6
 1865 0070 1F000000 		.word	.LC7
 1866 0074 25000000 		.word	.LC8
 1867              		.cfi_endproc
 1868              	.LFE20:
 1869              		.size	debugEMV2, .-debugEMV2
 1870              		.section	.text.GetTxnCode,"ax",%progbits
 1871              		.align	1
 1872              		.global	GetTxnCode
ARM GAS  C:\Users\AHMED~1.ELE\AppData\Local\Temp\ccALCmni.s 			page 56


 1873              		.thumb
 1874              		.thumb_func
 1875              		.type	GetTxnCode, %function
 1876              	GetTxnCode:
 1877              	.LFB21:
1015:src/emvtrans.c **** /******************************************************************************
1016:src/emvtrans.c ****  *  Function        : GetTxnCode
1017:src/emvtrans.c ****  *  Description     : Get the code of the Transaction Type.
1018:src/emvtrans.c ****  *  Input           : N/A
1019:src/emvtrans.c ****  *  Return          : Txn Code
1020:src/emvtrans.c ****  *  Note            : N/A
1021:src/emvtrans.c ****  *  Globals Changed : gds.emvdll, input;
1022:src/emvtrans.c ****  ******************************************************************************
1023:src/emvtrans.c ****  */
1024:src/emvtrans.c **** BYTE GetTxnCode(void)
1025:src/emvtrans.c **** {
 1878              		.loc 1 1025 0
 1879              		.cfi_startproc
 1880              		@ args = 0, pretend = 0, frame = 0
 1881              		@ frame_needed = 0, uses_anonymous_args = 0
 1882              		@ link register save eliminated.
1026:src/emvtrans.c ****   BYTE code;
1027:src/emvtrans.c ****   
1028:src/emvtrans.c ****   if (INPUT.b_trans == REFUND_ICC)
 1883              		.loc 1 1028 0
 1884 0000 054B     		ldr	r3, .L250
 1885 0002 1878     		ldrb	r0, [r3]	@ zero_extendqisi2
 1886 0004 1128     		cmp	r0, #17
 1887 0006 04D0     		beq	.L248
1029:src/emvtrans.c ****     code = 0x20;
1030:src/emvtrans.c ****   else if (INPUT.b_trans == VOID)
1031:src/emvtrans.c ****     code = 0x02;
1032:src/emvtrans.c ****   else
1033:src/emvtrans.c ****     code = 0x00;      // SALE / AUTH
 1888              		.loc 1 1033 0
 1889 0008 0A28     		cmp	r0, #10
 1890 000a 0CBF     		ite	eq
 1891 000c 0220     		moveq	r0, #2
 1892 000e 0020     		movne	r0, #0
 1893 0010 7047     		bx	lr
 1894              	.L248:
1029:src/emvtrans.c ****     code = 0x20;
 1895              		.loc 1 1029 0
 1896 0012 2020     		movs	r0, #32
 1897              	.LVL290:
1034:src/emvtrans.c ****     
1035:src/emvtrans.c ****   return code;
1036:src/emvtrans.c **** }
 1898              		.loc 1 1036 0
 1899 0014 7047     		bx	lr
 1900              	.L251:
 1901 0016 00BF     		.align	2
 1902              	.L250:
 1903 0018 00000000 		.word	gGTS
 1904              		.cfi_endproc
 1905              	.LFE21:
 1906              		.size	GetTxnCode, .-GetTxnCode
ARM GAS  C:\Users\AHMED~1.ELE\AppData\Local\Temp\ccALCmni.s 			page 57


 1907              		.section	.text.EMVProcess,"ax",%progbits
 1908              		.align	1
 1909              		.global	EMVProcess
 1910              		.thumb
 1911              		.thumb_func
 1912              		.type	EMVProcess, %function
 1913              	EMVProcess:
 1914              	.LFB22:
1037:src/emvtrans.c **** //*****************************************************************************
1038:src/emvtrans.c **** //  Function        : EMVProcess
1039:src/emvtrans.c **** //  Description     : EMV Processing state machine.
1040:src/emvtrans.c **** //  Input           : N/A
1041:src/emvtrans.c **** //  Return          : next action
1042:src/emvtrans.c **** //  Note            : N/A
1043:src/emvtrans.c **** //  Globals Changed :
1044:src/emvtrans.c **** //*****************************************************************************
1045:src/emvtrans.c **** BYTE EMVProcess(void)
1046:src/emvtrans.c **** {
 1915              		.loc 1 1046 0
 1916              		.cfi_startproc
 1917              		@ args = 0, pretend = 0, frame = 64
 1918              		@ frame_needed = 0, uses_anonymous_args = 0
 1919              	.LVL291:
 1920 0000 2DE9F04F 		push	{r4, r5, r6, r7, r8, r9, r10, fp, lr}
 1921              		.cfi_def_cfa_offset 36
 1922              		.cfi_offset 4, -36
 1923              		.cfi_offset 5, -32
 1924              		.cfi_offset 6, -28
 1925              		.cfi_offset 7, -24
 1926              		.cfi_offset 8, -20
 1927              		.cfi_offset 9, -16
 1928              		.cfi_offset 10, -12
 1929              		.cfi_offset 11, -8
 1930              		.cfi_offset 14, -4
1047:src/emvtrans.c ****   BYTE next_state;
1048:src/emvtrans.c ****   BYTE tmp[10];
1049:src/emvtrans.c ****   BOOLEAN again = FALSE;
1050:src/emvtrans.c ****   DDWORD cashback_amt=0;
 1931              		.loc 1 1050 0
 1932 0004 0022     		movs	r2, #0
1046:src/emvtrans.c ****   BYTE next_state;
 1933              		.loc 1 1046 0
 1934 0006 93B0     		sub	sp, sp, #76
 1935              		.cfi_def_cfa_offset 112
 1936              		.loc 1 1050 0
 1937 0008 0023     		movs	r3, #0
1051:src/emvtrans.c ****   
1052:src/emvtrans.c ****   gIsMaestro = FALSE;                   // KC++ for Maestro
 1938              		.loc 1 1052 0
 1939 000a 9749     		ldr	r1, .L376
1050:src/emvtrans.c ****   
 1940              		.loc 1 1050 0
 1941 000c CDE90623 		strd	r2, [sp, #24]
1053:src/emvtrans.c **** 
1054:src/emvtrans.c ****   // init vars
1055:src/emvtrans.c ****   memset(INPUT.sb_pin, 0, sizeof(INPUT.sb_pin));
 1942              		.loc 1 1055 0
ARM GAS  C:\Users\AHMED~1.ELE\AppData\Local\Temp\ccALCmni.s 			page 58


 1943 0010 964B     		ldr	r3, .L376+4
1056:src/emvtrans.c ****   bAcceptReferral = FALSE;
 1944              		.loc 1 1056 0
 1945 0012 974F     		ldr	r7, .L376+8
1057:src/emvtrans.c ****   next_state = EMV_START;
1058:src/emvtrans.c ****   if (INPUT.b_trans == SALE_ICC)
 1946              		.loc 1 1058 0
 1947 0014 A3F5FC74 		sub	r4, r3, #504
1055:src/emvtrans.c ****   bAcceptReferral = FALSE;
 1948              		.loc 1 1055 0
 1949 0018 1A60     		str	r2, [r3]
 1950 001a 5A60     		str	r2, [r3, #4]
1052:src/emvtrans.c **** 
 1951              		.loc 1 1052 0
 1952 001c 0A70     		strb	r2, [r1]
1056:src/emvtrans.c ****   next_state = EMV_START;
 1953              		.loc 1 1056 0
 1954 001e 3A70     		strb	r2, [r7]
 1955              	.LVL292:
 1956              		.loc 1 1058 0
 1957 0020 2278     		ldrb	r2, [r4]	@ zero_extendqisi2
 1958 0022 0593     		str	r3, [sp, #20]
 1959 0024 0F2A     		cmp	r2, #15
 1960 0026 0491     		str	r1, [sp, #16]
 1961 0028 924B     		ldr	r3, .L376+12
 1962 002a 05D1     		bne	.L253
1059:src/emvtrans.c ****     //gGDS->s_EMVIn.bMsg[0] = EGOOD_SALE;                                      // KC-- MTIP05 T08 S
1060:src/emvtrans.c ****     gGDS->s_EMVIn.bMsg[0] = EGS_WCASHBACK;      // goods sale with cashback    // KC++ MTIP05 T08 S
 1963              		.loc 1 1060 0
 1964 002c 1A68     		ldr	r2, [r3]
 1965 002e 0621     		movs	r1, #6
 1966 0030 02F55E52 		add	r2, r2, #14208
 1967 0034 5268     		ldr	r2, [r2, #4]
 1968 0036 08E0     		b	.L367
 1969              	.L253:
1061:src/emvtrans.c ****   else if (INPUT.b_trans == REFUND_ICC)
 1970              		.loc 1 1061 0
 1971 0038 112A     		cmp	r2, #17
1062:src/emvtrans.c ****     gGDS->s_EMVIn.bMsg[0] = EREFUND;
 1972              		.loc 1 1062 0
 1973 003a 1A68     		ldr	r2, [r3]
 1974 003c 08BF     		it	eq
 1975 003e 0221     		moveq	r1, #2
 1976 0040 02F55E52 		add	r2, r2, #14208
1063:src/emvtrans.c ****   else
1064:src/emvtrans.c ****     gGDS->s_EMVIn.bMsg[0] = EAUTH;
 1977              		.loc 1 1064 0
 1978 0044 18BF     		it	ne
 1979 0046 0821     		movne	r1, #8
1062:src/emvtrans.c ****     gGDS->s_EMVIn.bMsg[0] = EREFUND;
 1980              		.loc 1 1062 0
 1981 0048 5268     		ldr	r2, [r2, #4]
 1982              	.L367:
 1983              		.loc 1 1064 0
 1984 004a 1170     		strb	r1, [r2]
1065:src/emvtrans.c ****   gGDS->s_EMVIn.wLen    = 1;
 1985              		.loc 1 1065 0
ARM GAS  C:\Users\AHMED~1.ELE\AppData\Local\Temp\ccALCmni.s 			page 59


 1986 004c 1B68     		ldr	r3, [r3]
 1987 004e 0126     		movs	r6, #1
 1988 0050 03F55E53 		add	r3, r3, #14208
 1989 0054 1E80     		strh	r6, [r3]	@ movhi
1049:src/emvtrans.c ****   DDWORD cashback_amt=0;
 1990              		.loc 1 1049 0
 1991 0056 0023     		movs	r3, #0
 1992              	.LVL293:
 1993              	.L368:
1066:src/emvtrans.c **** 
1067:src/emvtrans.c ****   do {
1068:src/emvtrans.c ****     //if (next_state != EMV_START) {
1069:src/emvtrans.c ****     //debugEMV2(next_state, 1, &gGDS->s_EMVIn);
1070:src/emvtrans.c ****     if (EMV_DllMsg(next_state, &gGDS->s_EMVIn, &gGDS->s_EMVOut) == FALSE) {
1071:src/emvtrans.c ****       next_state=EMVError(next_state);
1072:src/emvtrans.c ****       return next_state;
1073:src/emvtrans.c ****     }
1074:src/emvtrans.c ****     next_state = gGDS->s_EMVOut.bMsg[0];
1075:src/emvtrans.c ****     //}
1076:src/emvtrans.c **** //    else {
1077:src/emvtrans.c **** //      next_state = gGDS->s_EMVOut.bMsg[0];
1078:src/emvtrans.c **** //    }
1079:src/emvtrans.c ****     //debugEMV2(next_state, 0, &gGDS->s_EMVOut);
1080:src/emvtrans.c ****     switch (gGDS->s_EMVOut.bMsg[0]&0x7F) {
1081:src/emvtrans.c ****       case EMV_COMPLETE: /* completed */
1082:src/emvtrans.c ****         EMVComplete();
1083:src/emvtrans.c ****         return EMV_COMPLETE;
1084:src/emvtrans.c ****       case EMV_SELECT_APP: // select application
1085:src/emvtrans.c ****         if (EMVInput(again) == FALSE)
1086:src/emvtrans.c ****           return EMVCancel(next_state);
1087:src/emvtrans.c ****         again = TRUE;
 1994              		.loc 1 1087 0
 1995 0058 0393     		str	r3, [sp, #12]
 1996              	.L256:
 1997              	.LVL294:
1070:src/emvtrans.c ****       next_state=EMVError(next_state);
 1998              		.loc 1 1070 0
 1999 005a DFF81892 		ldr	r9, .L376+12
 2000 005e 0E20     		movs	r0, #14
 2001 0060 D9F80030 		ldr	r3, [r9]
 2002 0064 0121     		movs	r1, #1
 2003 0066 03F55E53 		add	r3, r3, #14208
 2004 006a 03F10802 		add	r2, r3, #8
 2005 006e C846     		mov	r8, r9
 2006 0070 0092     		str	r2, [sp]
 2007 0072 3246     		mov	r2, r6
 2008 0074 FFF7FEFF 		bl	lib_app_call
 2009              	.LVL295:
 2010 0078 C0B2     		uxtb	r0, r0
 2011 007a 0028     		cmp	r0, #0
 2012 007c 5FD1     		bne	.L257
 2013              	.LVL296:
 2014              	.LBB35:
 2015              	.LBB36:
 917:src/emvtrans.c ****   switch (gGDS->s_EMVOut.bMsg[0] & 0x7F) {  //short error message response
 2016              		.loc 1 917 0
 2017 007e FFF7FEFF 		bl	DispHeader
ARM GAS  C:\Users\AHMED~1.ELE\AppData\Local\Temp\ccALCmni.s 			page 60


 2018              	.LVL297:
 918:src/emvtrans.c ****     case ERR_SMCIO:
 2019              		.loc 1 918 0
 2020 0082 D9F80030 		ldr	r3, [r9]
 2021 0086 7C4D     		ldr	r5, .L376+16
 2022 0088 03F55E53 		add	r3, r3, #14208
 2023 008c DB68     		ldr	r3, [r3, #12]
 2024 008e 1B78     		ldrb	r3, [r3]	@ zero_extendqisi2
 2025 0090 03F07F03 		and	r3, r3, #127
 2026 0094 023B     		subs	r3, r3, #2
 2027 0096 0E2B     		cmp	r3, #14
 2028 0098 25D8     		bhi	.L258
 2029 009a DFE803F0 		tbb	[pc, r3]
 2030              	.L260:
 2031 009e 08       		.byte	(.L259-.L260)/2
 2032 009f 08       		.byte	(.L259-.L260)/2
 2033 00a0 0B       		.byte	(.L261-.L260)/2
 2034 00a1 1E       		.byte	(.L262-.L260)/2
 2035 00a2 1B       		.byte	(.L263-.L260)/2
 2036 00a3 21       		.byte	(.L264-.L260)/2
 2037 00a4 08       		.byte	(.L259-.L260)/2
 2038 00a5 24       		.byte	(.L258-.L260)/2
 2039 00a6 24       		.byte	(.L258-.L260)/2
 2040 00a7 24       		.byte	(.L258-.L260)/2
 2041 00a8 24       		.byte	(.L258-.L260)/2
 2042 00a9 24       		.byte	(.L258-.L260)/2
 2043 00aa 24       		.byte	(.L258-.L260)/2
 2044 00ab 24       		.byte	(.L258-.L260)/2
 2045 00ac 18       		.byte	(.L265-.L260)/2
 2046 00ad 00       		.p2align 1
 2047              	.L259:
 922:src/emvtrans.c ****       break;
 2048              		.loc 1 922 0
 2049 00ae 45F24523 		movw	r3, #21061
 2050 00b2 09E0     		b	.L370
 2051              	.L261:
 925:src/emvtrans.c ****       RSP_DATA.w_rspcode = 'C'*256+'N';
 2052              		.loc 1 925 0
 2053 00b4 0023     		movs	r3, #0
 2054 00b6 0F20     		movs	r0, #15
 2055 00b8 0093     		str	r3, [sp]
 2056 00ba 2321     		movs	r1, #35
 2057 00bc 4FF44072 		mov	r2, #768
 2058 00c0 FFF7FEFF 		bl	lib_app_call
 2059              	.LVL298:
 926:src/emvtrans.c ****       break;
 2060              		.loc 1 926 0
 2061 00c4 44F24E33 		movw	r3, #17230
 2062              	.L370:
 2063 00c8 A4F81637 		strh	r3, [r4, #1814]	@ movhi
 2064 00cc 17E0     		b	.L266
 2065              	.L265:
 929:src/emvtrans.c ****       break;
 2066              		.loc 1 929 0
 2067 00ce 45F24333 		movw	r3, #21315
 2068 00d2 F9E7     		b	.L370
 2069              	.L263:
ARM GAS  C:\Users\AHMED~1.ELE\AppData\Local\Temp\ccALCmni.s 			page 61


 932:src/emvtrans.c ****       break;
 2070              		.loc 1 932 0
 2071 00d4 44F64163 		movw	r3, #20033
 2072 00d8 F6E7     		b	.L370
 2073              	.L262:
 935:src/emvtrans.c ****       break;
 2074              		.loc 1 935 0
 2075 00da 44F64153 		movw	r3, #19777
 2076 00de F3E7     		b	.L370
 2077              	.L264:
 938:src/emvtrans.c ****       break;
 2078              		.loc 1 938 0
 2079 00e0 45F24233 		movw	r3, #21314
 2080 00e4 F0E7     		b	.L370
 2081              	.L258:
 943:src/emvtrans.c ****       IOCtlMW(gIccHandle, IO_ICC_OFF, NULL);
 2082              		.loc 1 943 0
 2083 00e6 45F24533 		movw	r3, #21317
 944:src/emvtrans.c ****       break;
 2084              		.loc 1 944 0
 2085 00ea 0F20     		movs	r0, #15
 943:src/emvtrans.c ****       IOCtlMW(gIccHandle, IO_ICC_OFF, NULL);
 2086              		.loc 1 943 0
 2087 00ec A4F81637 		strh	r3, [r4, #1814]	@ movhi
 944:src/emvtrans.c ****       break;
 2088              		.loc 1 944 0
 2089 00f0 0023     		movs	r3, #0
 2090 00f2 0721     		movs	r1, #7
 2091 00f4 0093     		str	r3, [sp]
 2092 00f6 0423     		movs	r3, #4
 2093 00f8 2A68     		ldr	r2, [r5]
 2094 00fa FFF7FEFF 		bl	lib_app_call
 2095              	.LVL299:
 2096              	.L266:
 947:src/emvtrans.c ****   if (gGDS->s_EMVOut.wLen > 2)
 2097              		.loc 1 947 0
 2098 00fe FFF7FEFF 		bl	LongBeep
 2099              	.LVL300:
 948:src/emvtrans.c ****     if (bAction & ACT_HOSTAPP)
 2100              		.loc 1 948 0
 2101 0102 D8F80030 		ldr	r3, [r8]
 2102 0106 03F55E53 		add	r3, r3, #14208
 2103 010a 1A89     		ldrh	r2, [r3, #8]
 2104 010c 022A     		cmp	r2, #2
 2105 010e 06D9     		bls	.L267
 949:src/emvtrans.c ****       UpdateHostStatus(REV_PENDING);
 2106              		.loc 1 949 0
 2107 0110 DB68     		ldr	r3, [r3, #12]
 2108 0112 5B78     		ldrb	r3, [r3, #1]	@ zero_extendqisi2
 2109 0114 5F06     		lsls	r7, r3, #25
 2110 0116 02D5     		bpl	.L267
 950:src/emvtrans.c ****   if (IOCtlMW(gIccHandle, IO_ICC_CHANGE, NULL))
 2111              		.loc 1 950 0
 2112 0118 0120     		movs	r0, #1
 2113 011a FFF7FEFF 		bl	UpdateHostStatus
 2114              	.LVL301:
 2115              	.L267:
ARM GAS  C:\Users\AHMED~1.ELE\AppData\Local\Temp\ccALCmni.s 			page 62


 951:src/emvtrans.c ****     aNextState = EMV_COMPLETE;  // no fallback
 2116              		.loc 1 951 0
 2117 011e 0023     		movs	r3, #0
 2118 0120 0F20     		movs	r0, #15
 2119 0122 0093     		str	r3, [sp]
 2120 0124 0721     		movs	r1, #7
 2121 0126 2A68     		ldr	r2, [r5]
 2122 0128 0523     		movs	r3, #5
 2123 012a FFF7FEFF 		bl	lib_app_call
 2124              	.LVL302:
 954:src/emvtrans.c ****   return aNextState;
 2125              		.loc 1 954 0
 2126 012e 0123     		movs	r3, #1
 2127 0130 84F8A838 		strb	r3, [r4, #2216]
 2128              	.LVL303:
 2129              	.LBE36:
 2130              	.LBE35:
1072:src/emvtrans.c ****     }
 2131              		.loc 1 1072 0
 2132 0134 0028     		cmp	r0, #0
 2133 0136 0CBF     		ite	eq
 2134 0138 3546     		moveq	r5, r6
 2135 013a 0025     		movne	r5, #0
 2136 013c C6E3     		b	.L365
 2137              	.LVL304:
 2138              	.L257:
1074:src/emvtrans.c ****     //}
 2139              		.loc 1 1074 0
 2140 013e D9F80030 		ldr	r3, [r9]
 2141 0142 03F55E53 		add	r3, r3, #14208
 2142 0146 DA68     		ldr	r2, [r3, #12]
 2143 0148 1678     		ldrb	r6, [r2]	@ zero_extendqisi2
 2144              	.LVL305:
1080:src/emvtrans.c ****       case EMV_COMPLETE: /* completed */
 2145              		.loc 1 1080 0
 2146 014a 06F07F05 		and	r5, r6, #127
 2147 014e 082D     		cmp	r5, #8
 2148 0150 00F2AB83 		bhi	.L270
 2149 0154 DFE815F0 		tbh	[pc, r5, lsl #1]
 2150              	.L272:
 2151 0158 0900     		.2byte	(.L271-.L272)/2
 2152 015a A903     		.2byte	(.L270-.L272)/2
 2153 015c 8301     		.2byte	(.L273-.L272)/2
 2154 015e 9502     		.2byte	(.L274-.L272)/2
 2155 0160 B602     		.2byte	(.L275-.L272)/2
 2156 0162 9D03     		.2byte	(.L276-.L272)/2
 2157 0164 8B01     		.2byte	(.L277-.L272)/2
 2158 0166 6002     		.2byte	(.L278-.L272)/2
 2159 0168 8B01     		.2byte	(.L277-.L272)/2
 2160              		.p2align 1
 2161              	.L271:
 2162              	.LBB37:
 2163              	.LBB38:
 967:src/emvtrans.c ****   if (DeAss(gGDS->s_TagList, gGDS->s_EMVOut.bMsg+2, (WORD)(gGDS->s_EMVOut.wLen - 2)) == 0)
 2164              		.loc 1 967 0
 2165 016a 0023     		movs	r3, #0
 2166 016c 0721     		movs	r1, #7
ARM GAS  C:\Users\AHMED~1.ELE\AppData\Local\Temp\ccALCmni.s 			page 63


 2167 016e 0093     		str	r3, [sp]
 2168 0170 414B     		ldr	r3, .L376+16
 2169 0172 0F20     		movs	r0, #15
 2170 0174 1A68     		ldr	r2, [r3]
 2171 0176 0423     		movs	r3, #4
 2172 0178 FFF7FEFF 		bl	lib_app_call
 2173              	.LVL306:
 968:src/emvtrans.c ****     EMVFatal();
 2174              		.loc 1 968 0
 2175 017c D9F80000 		ldr	r0, [r9]
 2176 0180 00F55E50 		add	r0, r0, #14208
 2177 0184 2030     		adds	r0, r0, #32
 2178 0186 30F8182C 		ldrh	r2, [r0, #-24]
 2179 018a 50F8141C 		ldr	r1, [r0, #-20]
 2180 018e 023A     		subs	r2, r2, #2
 2181 0190 0231     		adds	r1, r1, #2
 2182 0192 92B2     		uxth	r2, r2
 2183 0194 FFF7FEFF 		bl	DeAss
 2184              	.LVL307:
 2185 0198 08B9     		cbnz	r0, .L279
 969:src/emvtrans.c ****   DispHeader(NULL);
 2186              		.loc 1 969 0
 2187 019a FFF7FEFF 		bl	EMVFatal
 2188              	.LVL308:
 2189              	.L279:
 970:src/emvtrans.c **** 
 2190              		.loc 1 970 0
 2191 019e 0020     		movs	r0, #0
 2192 01a0 FFF7FEFF 		bl	DispHeader
 2193              	.LVL309:
 972:src/emvtrans.c ****     if (!EMVReferral())
 2194              		.loc 1 972 0
 2195 01a4 3B78     		ldrb	r3, [r7]	@ zero_extendqisi2
 2196 01a6 012B     		cmp	r3, #1
 2197 01a8 77D1     		bne	.L280
 2198              	.LBB39:
 2199              	.LBB40:
 767:src/emvtrans.c ****   memcpy(tmpbuf, &RSP_DATA.text[1], 16);
 2200              		.loc 1 767 0
 2201 01aa FFF7FEFF 		bl	PackRspText
 2202              	.LVL310:
 769:src/emvtrans.c ****   DispLineMW(tmpbuf, MW_LINE1, MW_CENTER|MW_BIGFONT);
 2203              		.loc 1 769 0
 2204 01ae 4FF0000A 		mov	r10, #0
 768:src/emvtrans.c ****   tmpbuf[16]=0;
 2205              		.loc 1 768 0
 2206 01b2 3249     		ldr	r1, .L376+20
 2207 01b4 1022     		movs	r2, #16
 2208 01b6 0BA8     		add	r0, sp, #44
 2209 01b8 FFF7FEFF 		bl	memcpy
 2210              	.LVL311:
 2211              	.LBB41:
 770:src/emvtrans.c **** 
 2212              		.loc 1 770 0
 2213 01bc 0BA8     		add	r0, sp, #44
 2214              	.LBE41:
 769:src/emvtrans.c ****   DispLineMW(tmpbuf, MW_LINE1, MW_CENTER|MW_BIGFONT);
ARM GAS  C:\Users\AHMED~1.ELE\AppData\Local\Temp\ccALCmni.s 			page 64


 2215              		.loc 1 769 0
 2216 01be 8DF83CA0 		strb	r10, [sp, #60]
 2217              	.LBB42:
 770:src/emvtrans.c **** 
 2218              		.loc 1 770 0
 2219 01c2 FFF7FEFF 		bl	strlen
 2220              	.LVL312:
 2221 01c6 8146     		mov	r9, r0
 2222              	.LVL313:
 2223 01c8 09F10101 		add	r1, r9, #1
 2224 01cc 9220     		movs	r0, #146
 2225              	.LVL314:
 2226 01ce FFF7FEFF 		bl	sys_func1
 2227              	.LVL315:
 2228 01d2 0646     		mov	r6, r0
 2229              	.LVL316:
 2230 01d4 98B1     		cbz	r0, .L281
 2231 01d6 0BA9     		add	r1, sp, #44
 2232 01d8 4A46     		mov	r2, r9
 2233 01da FFF7FEFF 		bl	memcpy
 2234              	.LVL317:
 2235 01de 41F20203 		movw	r3, #4098
 2236 01e2 06F809A0 		strb	r10, [r6, r9]
 2237 01e6 2521     		movs	r1, #37
 2238 01e8 0093     		str	r3, [sp]
 2239 01ea 0F20     		movs	r0, #15
 2240 01ec 3246     		mov	r2, r6
 2241 01ee 4FF48073 		mov	r3, #256
 2242 01f2 FFF7FEFF 		bl	lib_app_call
 2243              	.LVL318:
 2244 01f6 9420     		movs	r0, #148
 2245 01f8 3146     		mov	r1, r6
 2246 01fa FFF7FEFF 		bl	sys_func1
 2247              	.LVL319:
 2248              	.L281:
 2249              	.LBE42:
 772:src/emvtrans.c ****   RSP_DATA.w_rspcode = 'C'*256+'N';
 2250              		.loc 1 772 0
 2251 01fe 0026     		movs	r6, #0
 2252              	.LVL320:
 2253 0200 3346     		mov	r3, r6
 2254 0202 0096     		str	r6, [sp]
 2255 0204 1020     		movs	r0, #16
 2256 0206 0D21     		movs	r1, #13
 2257 0208 3246     		mov	r2, r6
 2258 020a FFF7FEFF 		bl	lib_app_call
 2259              	.LVL321:
 773:src/emvtrans.c ****   RSP_DATA.text[0] = 0;
 2260              		.loc 1 773 0
 2261 020e 44F24E33 		movw	r3, #17230
 2262 0212 DFF86C90 		ldr	r9, .L376+24
 2263              	.LVL322:
 2264 0216 A4F81637 		strh	r3, [r4, #1814]	@ movhi
 774:src/emvtrans.c **** 
 2265              		.loc 1 774 0
 2266 021a 84F8A968 		strb	r6, [r4, #2217]
 776:src/emvtrans.c ****     if (INPUT.b_trans >= SALE_SWIPE) {
ARM GAS  C:\Users\AHMED~1.ELE\AppData\Local\Temp\ccALCmni.s 			page 65


 2267              		.loc 1 776 0
 2268 021e FFF7FEFF 		bl	GetAuthCode
 2269              	.LVL323:
 2270 0222 A0B1     		cbz	r0, .L282
 777:src/emvtrans.c ****       INPUT.b_trans = ESALE_COMPLETE;
 2271              		.loc 1 777 0
 2272 0224 99F80030 		ldrb	r3, [r9]	@ zero_extendqisi2
 781:src/emvtrans.c ****     RSP_DATA.b_response = TRANS_ACP;
 2273              		.loc 1 781 0
 2274 0228 D8F80000 		ldr	r0, [r8]
 777:src/emvtrans.c ****       INPUT.b_trans = ESALE_COMPLETE;
 2275              		.loc 1 777 0
 2276 022c 012B     		cmp	r3, #1
 778:src/emvtrans.c ****       INPUT.b_trans_status = OFFLINE;
 2277              		.loc 1 778 0
 2278 022e 88BF     		it	hi
 2279 0230 1323     		movhi	r3, #19
 781:src/emvtrans.c ****     RSP_DATA.b_response = TRANS_ACP;
 2280              		.loc 1 781 0
 2281 0232 00F2A140 		addw	r0, r0, #1185
 778:src/emvtrans.c ****       INPUT.b_trans_status = OFFLINE;
 2282              		.loc 1 778 0
 2283 0236 82BF     		ittt	hi
 2284 0238 89F80030 		strbhi	r3, [r9]
 779:src/emvtrans.c ****     }
 2285              		.loc 1 779 0
 2286 023c 8023     		movhi	r3, #128
 2287 023e 89F80230 		strbhi	r3, [r9, #2]
 781:src/emvtrans.c ****     RSP_DATA.b_response = TRANS_ACP;
 2288              		.loc 1 781 0
 2289 0242 FFF7FEFF 		bl	DispHeader
 2290              	.LVL324:
 782:src/emvtrans.c ****   }
 2291              		.loc 1 782 0
 2292 0246 0023     		movs	r3, #0
 2293 0248 84F8A838 		strb	r3, [r4, #2216]
 2294 024c 05E0     		b	.L284
 2295              	.L282:
 785:src/emvtrans.c **** 
 2296              		.loc 1 785 0
 2297 024e D8F80000 		ldr	r0, [r8]
 2298 0252 00F2A140 		addw	r0, r0, #1185
 2299 0256 FFF7FEFF 		bl	DispHeader
 2300              	.LVL325:
 2301              	.L284:
 787:src/emvtrans.c ****     LongBeep();
 2302              		.loc 1 787 0
 2303 025a 94F8A838 		ldrb	r3, [r4, #2216]	@ zero_extendqisi2
 2304 025e 8BB1     		cbz	r3, .L285
 788:src/emvtrans.c ****     return FALSE;
 2305              		.loc 1 788 0
 2306 0260 FFF7FEFF 		bl	LongBeep
 2307              	.LVL326:
 2308              	.LBE40:
 2309              	.LBE39:
 973:src/emvtrans.c ****       return;
 2310              		.loc 1 973 0
ARM GAS  C:\Users\AHMED~1.ELE\AppData\Local\Temp\ccALCmni.s 			page 66


 2311 0264 85B9     		cbnz	r5, .L366
 2312 0266 31E3     		b	.L365
 2313              	.L377:
 2314              		.align	2
 2315              	.L376:
 2316 0268 00000000 		.word	gIsMaestro
 2317 026c F8010000 		.word	gGTS+504
 2318 0270 00000000 		.word	.LANCHOR1
 2319 0274 00000000 		.word	gGDS
 2320 0278 00000000 		.word	gIccHandle
 2321 027c AA080000 		.word	gGTS+2218
 2322 0280 00000000 		.word	gGTS
 2323              	.L285:
 2324              	.LBB44:
 2325              	.LBB43:
 791:src/emvtrans.c ****   return TRUE;
 2326              		.loc 1 791 0
 2327 0284 FFF7FEFF 		bl	PackDTGAA
 2328              	.LVL327:
 2329              	.L366:
 2330              	.LBE43:
 2331              	.LBE44:
 975:src/emvtrans.c ****   }
 2332              		.loc 1 975 0
 2333 0288 D8F80030 		ldr	r3, [r8]
 2334 028c 03F55E53 		add	r3, r3, #14208
 2335 0290 DA68     		ldr	r2, [r3, #12]
 2336 0292 5378     		ldrb	r3, [r2, #1]	@ zero_extendqisi2
 2337 0294 63F07F03 		orn	r3, r3, #127
 2338 0298 5370     		strb	r3, [r2, #1]
 2339              	.L280:
 978:src/emvtrans.c ****     EMVAccepted((BOOLEAN)(bAction & ACT_ONLINE)); // 07-06-05++ BW (1) for offline approved txn
 2340              		.loc 1 978 0
 2341 029a D8F80030 		ldr	r3, [r8]
 2342 029e 03F55E53 		add	r3, r3, #14208
 2343 02a2 DB68     		ldr	r3, [r3, #12]
 2344 02a4 93F80190 		ldrb	r9, [r3, #1]	@ zero_extendqisi2
 2345 02a8 19F0800F 		tst	r9, #128
 2346 02ac 00F0C780 		beq	.L287
 2347              	.LVL328:
 2348              	.LBB45:
 2349              	.LBB46:
 808:src/emvtrans.c ****   memcpy(INPUT.sb_trace_no, TagData(gGDS->s_TagList, 0x9F41), 3);  // restore TSN
 2350              		.loc 1 808 0
 2351 02b0 8920     		movs	r0, #137
 2352 02b2 FFF7FEFF 		bl	GetConstMsg
 2353              	.LVL329:
 2354 02b6 4FF48052 		mov	r2, #4096
 2355 02ba 4FF4A061 		mov	r1, #1280
 2356 02be FFF7FEFF 		bl	Disp2x16Msg
 2357              	.LVL330:
 809:src/emvtrans.c ****   // mark as offline for offline approved
 2358              		.loc 1 809 0
 2359 02c2 B04B     		ldr	r3, .L378
 2360 02c4 49F64171 		movw	r1, #40769
 2361 02c8 1E68     		ldr	r6, [r3]
 2362 02ca DFF8D4A2 		ldr	r10, .L378+28
ARM GAS  C:\Users\AHMED~1.ELE\AppData\Local\Temp\ccALCmni.s 			page 67


 2363 02ce 06F55E56 		add	r6, r6, #14208
 2364 02d2 06F1200B 		add	fp, r6, #32
 2365 02d6 5846     		mov	r0, fp
 2366 02d8 FFF7FEFF 		bl	TagData
 2367              	.LVL331:
 2368 02dc 0322     		movs	r2, #3
 2369 02de 0146     		mov	r1, r0
 2370 02e0 0AF10300 		add	r0, r10, #3
 2371 02e4 FFF7FEFF 		bl	memcpy
 2372              	.LVL332:
 811:src/emvtrans.c ****     if (INPUT.b_trans==SALE_ICC)
 2373              		.loc 1 811 0
 2374 02e8 F368     		ldr	r3, [r6, #12]
 2375 02ea 5B78     		ldrb	r3, [r3, #1]	@ zero_extendqisi2
 2376 02ec 5806     		lsls	r0, r3, #25
 2377 02ee 06D4     		bmi	.L288
 812:src/emvtrans.c ****       INPUT.b_trans = ESALE_UNDER_LMT;
 2378              		.loc 1 812 0
 2379 02f0 9AF80030 		ldrb	r3, [r10]	@ zero_extendqisi2
 2380 02f4 0F2B     		cmp	r3, #15
 813:src/emvtrans.c ****   }
 2381              		.loc 1 813 0
 2382 02f6 04BF     		itt	eq
 2383 02f8 1223     		moveq	r3, #18
 2384 02fa 8AF80030 		strbeq	r3, [r10]
 2385              	.L288:
 816:src/emvtrans.c ****   tag_ptr = TagData(gGDS->s_TagList, 0x89); // locate auth code
 2386              		.loc 1 816 0
 2387 02fe 0023     		movs	r3, #0
 817:src/emvtrans.c ****   if (bAcceptReferral == TRUE) {
 2388              		.loc 1 817 0
 2389 0300 8921     		movs	r1, #137
 2390 0302 5846     		mov	r0, fp
 816:src/emvtrans.c ****   tag_ptr = TagData(gGDS->s_TagList, 0x89); // locate auth code
 2391              		.loc 1 816 0
 2392 0304 84F8A838 		strb	r3, [r4, #2216]
 817:src/emvtrans.c ****   if (bAcceptReferral == TRUE) {
 2393              		.loc 1 817 0
 2394 0308 FFF7FEFF 		bl	TagData
 2395              	.LVL333:
 818:src/emvtrans.c ****     if (tag_ptr!=NULL)
 2396              		.loc 1 818 0
 2397 030c 3B78     		ldrb	r3, [r7]	@ zero_extendqisi2
 2398 030e 012B     		cmp	r3, #1
 817:src/emvtrans.c ****   if (bAcceptReferral == TRUE) {
 2399              		.loc 1 817 0
 2400 0310 0146     		mov	r1, r0
 2401              	.LVL334:
 818:src/emvtrans.c ****     if (tag_ptr!=NULL)
 2402              		.loc 1 818 0
 2403 0312 03D1     		bne	.L289
 819:src/emvtrans.c ****       memcpy(tag_ptr, RSP_DATA.sb_auth_code, 6); // update auth code
 2404              		.loc 1 819 0
 2405 0314 F8B1     		cbz	r0, .L291
 820:src/emvtrans.c ****   }
 2406              		.loc 1 820 0
 2407 0316 9C49     		ldr	r1, .L378+4
ARM GAS  C:\Users\AHMED~1.ELE\AppData\Local\Temp\ccALCmni.s 			page 68


 2408 0318 0622     		movs	r2, #6
 2409 031a 1AE0     		b	.L371
 2410              	.L289:
 824:src/emvtrans.c ****     else
 2411              		.loc 1 824 0
 2412 031c 9A48     		ldr	r0, .L378+4
 2413              	.LVL335:
 823:src/emvtrans.c ****       memcpy(RSP_DATA.sb_auth_code, tag_ptr, 6); // store Auth Code
 2414              		.loc 1 823 0
 2415 031e 19B1     		cbz	r1, .L292
 824:src/emvtrans.c ****     else
 2416              		.loc 1 824 0
 2417 0320 0622     		movs	r2, #6
 2418 0322 FFF7FEFF 		bl	memcpy
 2419              	.LVL336:
 2420 0326 01E0     		b	.L293
 2421              	.LVL337:
 2422              	.L292:
 826:src/emvtrans.c ****     if (!aOnlTxn) {
 2423              		.loc 1 826 0
 2424 0328 FFF7FEFF 		bl	GenAuthCode
 2425              	.LVL338:
 2426              	.L293:
 827:src/emvtrans.c ****       memset(RSP_DATA.sb_auth_code, ' ', 6);
 2427              		.loc 1 827 0
 2428 032c 19F0100F 		tst	r9, #16
 2429 0330 11D1     		bne	.L291
 828:src/emvtrans.c ****       memcpy(RSP_DATA.sb_auth_code, "Y1", 2);
 2430              		.loc 1 828 0
 2431 0332 2021     		movs	r1, #32
 2432 0334 0622     		movs	r2, #6
 2433 0336 9448     		ldr	r0, .L378+4
 2434 0338 FFF7FEFF 		bl	memset
 2435              	.LVL339:
 829:src/emvtrans.c ****       IncAPMTraceNo();
 2436              		.loc 1 829 0
 2437 033c 9349     		ldr	r1, .L378+8
 2438 033e 0222     		movs	r2, #2
 2439 0340 9148     		ldr	r0, .L378+4
 2440 0342 FFF7FEFF 		bl	memcpy
 2441              	.LVL340:
 830:src/emvtrans.c ****       memcpy(TX_DATA.sb_trace_no, INPUT.sb_trace_no, sizeof(TX_DATA.sb_trace_no));
 2442              		.loc 1 830 0
 2443 0346 FFF7FEFF 		bl	IncAPMTraceNo
 2444              	.LVL341:
 831:src/emvtrans.c ****     }
 2445              		.loc 1 831 0
 2446 034a 9148     		ldr	r0, .L378+12
 2447 034c 0322     		movs	r2, #3
 2448 034e A0F59561 		sub	r1, r0, #1192
 2449              	.L371:
 2450 0352 FFF7FEFF 		bl	memcpy
 2451              	.LVL342:
 2452              	.L291:
 836:src/emvtrans.c ****     memcpy(INPUT.s_icc_data.sb_tag_9f26, psLp->pbLoc, psLp->sLen);
 2453              		.loc 1 836 0
 2454 0356 D8F80060 		ldr	r6, [r8]
ARM GAS  C:\Users\AHMED~1.ELE\AppData\Local\Temp\ccALCmni.s 			page 69


 2455 035a 49F62671 		movw	r1, #40742
 2456 035e 06F55E56 		add	r6, r6, #14208
 2457 0362 2036     		adds	r6, r6, #32
 2458 0364 3046     		mov	r0, r6
 2459 0366 FFF7FEFF 		bl	TagSeek
 2460              	.LVL343:
 2461 036a 0346     		mov	r3, r0
 2462 036c 20B1     		cbz	r0, .L295
 837:src/emvtrans.c ****   if ((psLp = TagSeek(gGDS->s_TagList, 0x9F06)) != NULL) { //AID for printing
 2463              		.loc 1 837 0
 2464 036e 8948     		ldr	r0, .L378+16
 2465              	.LVL344:
 2466 0370 5968     		ldr	r1, [r3, #4]
 2467 0372 9A78     		ldrb	r2, [r3, #2]	@ zero_extendqisi2
 2468 0374 FFF7FEFF 		bl	memcpy
 2469              	.LVL345:
 2470              	.L295:
 838:src/emvtrans.c ****     memcpy(INPUT.s_icc_data.sb_aid, psLp->pbLoc, psLp->sLen);
 2471              		.loc 1 838 0
 2472 0378 3046     		mov	r0, r6
 2473 037a 49F60671 		movw	r1, #40710
 2474 037e FFF7FEFF 		bl	TagSeek
 2475              	.LVL346:
 2476 0382 0646     		mov	r6, r0
 2477 0384 38B1     		cbz	r0, .L296
 839:src/emvtrans.c ****     INPUT.s_icc_data.b_aid_len = psLp->sLen;
 2478              		.loc 1 839 0
 2479 0386 8448     		ldr	r0, .L378+20
 2480              	.LVL347:
 2481 0388 7168     		ldr	r1, [r6, #4]
 2482 038a B278     		ldrb	r2, [r6, #2]	@ zero_extendqisi2
 2483 038c FFF7FEFF 		bl	memcpy
 2484              	.LVL348:
 840:src/emvtrans.c ****   }
 2485              		.loc 1 840 0
 2486 0390 B378     		ldrb	r3, [r6, #2]	@ zero_extendqisi2
 2487 0392 84F89430 		strb	r3, [r4, #148]
 2488              	.L296:
 843:src/emvtrans.c ****   PackEMVData(&INPUT.s_icc_data);  // field 55 ICC data
 2489              		.loc 1 843 0
 2490 0396 43F23000 		movw	r0, #12336
 2491 039a FFF7FEFF 		bl	SetRspCode
 2492              	.LVL349:
 844:src/emvtrans.c ****   if (bAction & ACT_SIGNATURE)
 2493              		.loc 1 844 0
 2494 039e 7F48     		ldr	r0, .L378+24
 2495 03a0 FFF7FEFF 		bl	PackEMVData
 2496              	.LVL350:
 845:src/emvtrans.c ****     RSP_DATA.w_rspcode = 'V'*256+'S';
 2497              		.loc 1 845 0
 2498 03a4 D8F80000 		ldr	r0, [r8]
 2499 03a8 00F55E50 		add	r0, r0, #14208
 2500 03ac C368     		ldr	r3, [r0, #12]
 2501 03ae 5B78     		ldrb	r3, [r3, #1]	@ zero_extendqisi2
 2502 03b0 D907     		lsls	r1, r3, #31
 2503 03b2 04D5     		bpl	.L297
 846:src/emvtrans.c ****   else {
ARM GAS  C:\Users\AHMED~1.ELE\AppData\Local\Temp\ccALCmni.s 			page 70


 2504              		.loc 1 846 0
 2505 03b4 45F25363 		movw	r3, #22099
 2506 03b8 A4F81637 		strh	r3, [r4, #1814]	@ movhi
 2507 03bc 10E0     		b	.L298
 2508              	.L297:
 848:src/emvtrans.c ****     // !2007-05-23++
 2509              		.loc 1 848 0
 2510 03be 45F24143 		movw	r3, #21569
 851:src/emvtrans.c ****       if (ptr[4]&0x04)
 2511              		.loc 1 851 0
 2512 03c2 2030     		adds	r0, r0, #32
 2513 03c4 49F61071 		movw	r1, #40720
 848:src/emvtrans.c ****     // !2007-05-23++
 2514              		.loc 1 848 0
 2515 03c8 A4F81637 		strh	r3, [r4, #1814]	@ movhi
 851:src/emvtrans.c ****       if (ptr[4]&0x04)
 2516              		.loc 1 851 0
 2517 03cc FFF7FEFF 		bl	TagData
 2518              	.LVL351:
 2519 03d0 30B1     		cbz	r0, .L298
 852:src/emvtrans.c ****         RSP_DATA.b_PinVerified = 1;
 2520              		.loc 1 852 0
 2521 03d2 0379     		ldrb	r3, [r0, #4]	@ zero_extendqisi2
 2522 03d4 5A07     		lsls	r2, r3, #29
 853:src/emvtrans.c ****     }
 2523              		.loc 1 853 0
 2524 03d6 42BF     		ittt	mi
 2525 03d8 0122     		movmi	r2, #1
 2526 03da 714B     		ldrmi	r3, .L378+28
 2527 03dc 83F81827 		strbmi	r2, [r3, #1816]
 2528              	.LVL352:
 2529              	.L298:
 858:src/emvtrans.c ****   MoveInput2Tx();
 2530              		.loc 1 858 0
 2531 03e0 FFF7FEFF 		bl	PackInputP
 2532              	.LVL353:
 859:src/emvtrans.c ****   if (INPUT.b_trans != AUTH_ICC){
 2533              		.loc 1 859 0
 2534 03e4 FFF7FEFF 		bl	MoveInput2Tx
 2535              	.LVL354:
 860:src/emvtrans.c ****     if (bAcceptReferral == TRUE) {
 2536              		.loc 1 860 0
 2537 03e8 2378     		ldrb	r3, [r4]	@ zero_extendqisi2
 2538 03ea 102B     		cmp	r3, #16
 2539 03ec 17D0     		beq	.L299
 861:src/emvtrans.c ****       IncTraceNo();
 2540              		.loc 1 861 0
 2541 03ee 3B78     		ldrb	r3, [r7]	@ zero_extendqisi2
 2542 03f0 012B     		cmp	r3, #1
 2543 03f2 01D1     		bne	.L300
 862:src/emvtrans.c ****     }
 2544              		.loc 1 862 0
 2545 03f4 FFF7FEFF 		bl	IncTraceNo
 2546              	.LVL355:
 2547              	.L300:
 864:src/emvtrans.c ****     if ((INPUT.b_trans==ESALE_UNDER_LMT)||((INPUT.b_trans==ESALE_COMPLETE)&&(bAcceptReferral!=TRUE)
 2548              		.loc 1 864 0
ARM GAS  C:\Users\AHMED~1.ELE\AppData\Local\Temp\ccALCmni.s 			page 71


 2549 03f8 FFF7FEFF 		bl	SaveRecord
 2550              	.LVL356:
 865:src/emvtrans.c ****       if (BlockAuthCode())
 2551              		.loc 1 865 0
 2552 03fc 2378     		ldrb	r3, [r4]	@ zero_extendqisi2
 2553 03fe 122B     		cmp	r3, #18
 2554 0400 04D0     		beq	.L301
 2555 0402 132B     		cmp	r3, #19
 2556 0404 0DD1     		bne	.L303
 2557 0406 3B78     		ldrb	r3, [r7]	@ zero_extendqisi2
 2558 0408 012B     		cmp	r3, #1
 2559 040a 0AD0     		beq	.L303
 2560              	.L301:
 866:src/emvtrans.c ****         memset(RSP_DATA.sb_auth_code, ' ', sizeof(RSP_DATA.sb_auth_code));
 2561              		.loc 1 866 0
 2562 040c FFF7FEFF 		bl	BlockAuthCode
 2563              	.LVL357:
 2564 0410 38B1     		cbz	r0, .L303
 867:src/emvtrans.c ****     }
 2565              		.loc 1 867 0
 2566 0412 2021     		movs	r1, #32
 2567 0414 0622     		movs	r2, #6
 2568 0416 5C48     		ldr	r0, .L378+4
 2569 0418 FFF7FEFF 		bl	memset
 2570              	.LVL358:
 2571 041c 01E0     		b	.L303
 2572              	.L299:
 871:src/emvtrans.c ****   }
 2573              		.loc 1 871 0
 2574 041e FFF7FEFF 		bl	Input2RecordBuf
 2575              	.LVL359:
 2576              	.L303:
 2577              	.LBE46:
 2578              	.LBE45:
 981:src/emvtrans.c ****       UpdateHostStatus(NO_PENDING); // clear reversal gen after host appr txn
 2579              		.loc 1 981 0
 2580 0422 D8F80030 		ldr	r3, [r8]
 2581 0426 03F55E53 		add	r3, r3, #14208
 2582 042a DB68     		ldr	r3, [r3, #12]
 2583 042c 5B78     		ldrb	r3, [r3, #1]	@ zero_extendqisi2
 2584 042e 5B06     		lsls	r3, r3, #25
 2585 0430 02D5     		bpl	.L305
 982:src/emvtrans.c ****     AcceptBeep();
 2586              		.loc 1 982 0
 2587 0432 0020     		movs	r0, #0
 2588 0434 FFF7FEFF 		bl	UpdateHostStatus
 2589              	.LVL360:
 2590              	.L305:
 983:src/emvtrans.c ****   }
 2591              		.loc 1 983 0
 2592 0438 FFF7FEFF 		bl	AcceptBeep
 2593              	.LVL361:
 2594 043c 46E2     		b	.L365
 2595              	.LVL362:
 2596              	.L287:
 986:src/emvtrans.c ****       RSP_DATA.w_rspcode = '5'*256+'1'; //rejected by ICC -> set rsp. ocde to declined
 2597              		.loc 1 986 0
ARM GAS  C:\Users\AHMED~1.ELE\AppData\Local\Temp\ccALCmni.s 			page 72


 2598 043e 19F0400F 		tst	r9, #64
 2599 0442 05D1     		bne	.L306
 2600 0444 B4F81627 		ldrh	r2, [r4, #1814]
 2601 0448 43F23003 		movw	r3, #12336
 2602 044c 9A42     		cmp	r2, r3
 2603 044e 03D1     		bne	.L307
 2604              	.L306:
 987:src/emvtrans.c ****     LongBeep();
 2605              		.loc 1 987 0
 2606 0450 43F23153 		movw	r3, #13617
 2607              	.L373:
 2608 0454 A4F81637 		strh	r3, [r4, #1814]	@ movhi
 2609              	.L307:
 988:src/emvtrans.c ****   }
 2610              		.loc 1 988 0
 2611 0458 FFF7FEFF 		bl	LongBeep
 2612              	.LVL363:
 2613 045c 36E2     		b	.L365
 2614              	.LVL364:
 2615              	.L273:
 2616              	.LBE38:
 2617              	.LBE37:
1085:src/emvtrans.c ****           return EMVCancel(next_state);
 2618              		.loc 1 1085 0
 2619 045e 0398     		ldr	r0, [sp, #12]
 2620 0460 FFF7FEFF 		bl	EMVInput
 2621              	.LVL365:
 2622 0464 0028     		cmp	r0, #0
 2623 0466 00F0D080 		beq	.L375
 2624              		.loc 1 1087 0
 2625 046a 0123     		movs	r3, #1
 2626 046c F4E5     		b	.L368
 2627              	.L277:
1088:src/emvtrans.c ****         break;
1089:src/emvtrans.c ****       case EMV_AMOUNT_AIP: // IAP need amount
1090:src/emvtrans.c ****       case EMV_AMOUNT: // must have amount by now
1091:src/emvtrans.c ****         if (INPUT.dd_amount == 0) {
 2628              		.loc 1 1091 0
 2629 046e D4E90623 		ldrd	r2, [r4, #24]
 2630 0472 1343     		orrs	r3, r2, r3
 2631 0474 0BD1     		bne	.L309
1092:src/emvtrans.c ****           if ((GetAmount(TIPsReqd(), 0) == FALSE) && (INPUT.dd_amount==0))
 2632              		.loc 1 1092 0
 2633 0476 FFF7FEFF 		bl	TIPsReqd
 2634              	.LVL366:
 2635 047a 0021     		movs	r1, #0
 2636 047c FFF7FEFF 		bl	GetAmount
 2637              	.LVL367:
 2638 0480 28B9     		cbnz	r0, .L309
 2639              		.loc 1 1092 0 is_stmt 0 discriminator 1
 2640 0482 474B     		ldr	r3, .L378+28
 2641 0484 D3E90623 		ldrd	r2, [r3, #24]
 2642 0488 1343     		orrs	r3, r2, r3
 2643 048a 00F0BE80 		beq	.L375
 2644              	.L309:
1093:src/emvtrans.c ****             return EMVCancel(next_state);
1094:src/emvtrans.c ****         }
ARM GAS  C:\Users\AHMED~1.ELE\AppData\Local\Temp\ccALCmni.s 			page 73


1095:src/emvtrans.c ****         DispHeader(NULL);
 2645              		.loc 1 1095 0 is_stmt 1
 2646 048e 0020     		movs	r0, #0
 2647 0490 FFF7FEFF 		bl	DispHeader
 2648              	.LVL368:
1096:src/emvtrans.c ****         // KC++ MTIP05 T08 S01
1097:src/emvtrans.c ****         //gGDS->s_EMVIn.bMsg[0] = 0;
1098:src/emvtrans.c ****         if (gIsMaestro && (INPUT.b_trans == SALE_ICC)) {
 2649              		.loc 1 1098 0
 2650 0494 049B     		ldr	r3, [sp, #16]
 2651 0496 1B78     		ldrb	r3, [r3]	@ zero_extendqisi2
 2652 0498 002B     		cmp	r3, #0
 2653 049a 00F08980 		beq	.L310
 2654              		.loc 1 1098 0 is_stmt 0 discriminator 1
 2655 049e 2378     		ldrb	r3, [r4]	@ zero_extendqisi2
 2656 04a0 3F4D     		ldr	r5, .L378+28
 2657 04a2 0F2B     		cmp	r3, #15
 2658 04a4 40F08480 		bne	.L310
1099:src/emvtrans.c ****           if (GetCashBackAmount(&cashback_amt)) {
 2659              		.loc 1 1099 0 is_stmt 1
 2660 04a8 06A8     		add	r0, sp, #24
 2661 04aa FFF7FEFF 		bl	GetCashBackAmount
 2662              	.LVL369:
1100:src/emvtrans.c ****             // confirm cashback
1101:src/emvtrans.c ****             memcpy(gGDS->s_EMVIn.bMsg+1, "\x9F\x02\x06", 3);
 2663              		.loc 1 1101 0
 2664 04ae D9F80030 		ldr	r3, [r9]
 2665 04b2 03F55E53 		add	r3, r3, #14208
1099:src/emvtrans.c ****           if (GetCashBackAmount(&cashback_amt)) {
 2666              		.loc 1 1099 0
 2667 04b6 0028     		cmp	r0, #0
 2668 04b8 46D0     		beq	.L311
 2669              		.loc 1 1101 0
 2670 04ba 5868     		ldr	r0, [r3, #4]
 2671 04bc 3949     		ldr	r1, .L378+32
 2672 04be 0322     		movs	r2, #3
 2673 04c0 0130     		adds	r0, r0, #1
 2674 04c2 FFF7FEFF 		bl	memcpy
 2675              	.LVL370:
1102:src/emvtrans.c ****             dbin2bcd(tmp, INPUT.dd_amount);
 2676              		.loc 1 1102 0
 2677 04c6 08A8     		add	r0, sp, #32
 2678 04c8 D5E90623 		ldrd	r2, [r5, #24]
 2679 04cc FFF7FEFF 		bl	dbin2bcd
 2680              	.LVL371:
1103:src/emvtrans.c ****             memcpy(gGDS->s_EMVIn.bMsg+4, &tmp[4], 6);
 2681              		.loc 1 1103 0
 2682 04d0 D9F80030 		ldr	r3, [r9]
 2683 04d4 09AD     		add	r5, sp, #36
 2684 04d6 03F55E5A 		add	r10, r3, #14208
 2685 04da 2946     		mov	r1, r5
 2686 04dc DAF80400 		ldr	r0, [r10, #4]
 2687 04e0 0622     		movs	r2, #6
 2688 04e2 0430     		adds	r0, r0, #4
 2689 04e4 FFF7FEFF 		bl	memcpy
 2690              	.LVL372:
1104:src/emvtrans.c ****             gGDS->s_EMVIn.wLen = 10;
ARM GAS  C:\Users\AHMED~1.ELE\AppData\Local\Temp\ccALCmni.s 			page 74


 2691              		.loc 1 1104 0
 2692 04e8 0A23     		movs	r3, #10
1105:src/emvtrans.c ****             if (cashback_amt != 0) {                // cash back amount is non-zero
 2693              		.loc 1 1105 0
 2694 04ea DDE90689 		ldrd	r8, [sp, #24]
1104:src/emvtrans.c ****             gGDS->s_EMVIn.wLen = 10;
 2695              		.loc 1 1104 0
 2696 04ee AAF80030 		strh	r3, [r10]	@ movhi
 2697 04f2 DAF80400 		ldr	r0, [r10, #4]
 2698              		.loc 1 1105 0
 2699 04f6 58EA0903 		orrs	r3, r8, r9
1106:src/emvtrans.c ****               memcpy(&gGDS->s_EMVIn.bMsg[10], "\x9F\x03\x06", 3);
 2700              		.loc 1 1106 0
 2701 04fa 00F10A00 		add	r0, r0, #10
1105:src/emvtrans.c ****             if (cashback_amt != 0) {                // cash back amount is non-zero
 2702              		.loc 1 1105 0
 2703 04fe 19D0     		beq	.L312
 2704              		.loc 1 1106 0
 2705 0500 2949     		ldr	r1, .L378+36
 2706 0502 0322     		movs	r2, #3
 2707 0504 FFF7FEFF 		bl	memcpy
 2708              	.LVL373:
1107:src/emvtrans.c ****               dbin2bcd(tmp, cashback_amt);
 2709              		.loc 1 1107 0
 2710 0508 4246     		mov	r2, r8
 2711 050a 08A8     		add	r0, sp, #32
 2712 050c 4B46     		mov	r3, r9
 2713 050e FFF7FEFF 		bl	dbin2bcd
 2714              	.LVL374:
1108:src/emvtrans.c ****               memcpy(&gGDS->s_EMVIn.bMsg[13], &tmp[4], 6);
 2715              		.loc 1 1108 0
 2716 0512 1C4B     		ldr	r3, .L378
 2717 0514 2946     		mov	r1, r5
 2718 0516 1B68     		ldr	r3, [r3]
 2719 0518 0622     		movs	r2, #6
 2720 051a 03F55E58 		add	r8, r3, #14208
 2721 051e D8F80400 		ldr	r0, [r8, #4]
 2722 0522 0D30     		adds	r0, r0, #13
 2723 0524 FFF7FEFF 		bl	memcpy
 2724              	.LVL375:
1109:src/emvtrans.c ****               gGDS->s_EMVIn.wLen += 9;
 2725              		.loc 1 1109 0
 2726 0528 B8F80030 		ldrh	r3, [r8]
 2727 052c 0933     		adds	r3, r3, #9
 2728 052e A8F80030 		strh	r3, [r8]	@ movhi
 2729 0532 67E0     		b	.L313
 2730              	.L312:
1110:src/emvtrans.c ****             }
1111:src/emvtrans.c ****             else {                                                  // cash back amount is zero
1112:src/emvtrans.c ****               memcpy(&gGDS->s_EMVIn.bMsg[10], "\x9C\x01\x00", 3);   // change back to purchase only
 2731              		.loc 1 1112 0
 2732 0534 1D49     		ldr	r1, .L378+40
 2733 0536 0322     		movs	r2, #3
 2734 0538 FFF7FEFF 		bl	memcpy
 2735              	.LVL376:
1113:src/emvtrans.c ****               gGDS->s_EMVIn.wLen += 3;
 2736              		.loc 1 1113 0
ARM GAS  C:\Users\AHMED~1.ELE\AppData\Local\Temp\ccALCmni.s 			page 75


 2737 053c BAF80030 		ldrh	r3, [r10]
 2738 0540 0333     		adds	r3, r3, #3
 2739 0542 AAF80030 		strh	r3, [r10]	@ movhi
 2740 0546 5DE0     		b	.L313
 2741              	.L311:
1114:src/emvtrans.c ****             }
1115:src/emvtrans.c ****           }
1116:src/emvtrans.c ****           else {
1117:src/emvtrans.c ****             // reset trans type to SALE
1118:src/emvtrans.c ****             memcpy(gGDS->s_EMVIn.bMsg+1, "\x9F\x02\x06", 3);
 2742              		.loc 1 1118 0
 2743 0548 5868     		ldr	r0, [r3, #4]
 2744 054a 1649     		ldr	r1, .L378+32
 2745 054c 0322     		movs	r2, #3
 2746 054e 0130     		adds	r0, r0, #1
 2747 0550 FFF7FEFF 		bl	memcpy
 2748              	.LVL377:
1119:src/emvtrans.c ****             dbin2bcd(tmp, INPUT.dd_amount);
 2749              		.loc 1 1119 0
 2750 0554 08A8     		add	r0, sp, #32
 2751 0556 D5E90623 		ldrd	r2, [r5, #24]
 2752 055a FFF7FEFF 		bl	dbin2bcd
 2753              	.LVL378:
1120:src/emvtrans.c ****             memcpy(gGDS->s_EMVIn.bMsg+4, &tmp[4], 6);
 2754              		.loc 1 1120 0
 2755 055e D9F80050 		ldr	r5, [r9]
 2756 0562 09A9     		add	r1, sp, #36
 2757 0564 05F55E55 		add	r5, r5, #14208
 2758 0568 0622     		movs	r2, #6
 2759 056a 6868     		ldr	r0, [r5, #4]
 2760 056c 0430     		adds	r0, r0, #4
 2761 056e FFF7FEFF 		bl	memcpy
 2762              	.LVL379:
1121:src/emvtrans.c ****             gGDS->s_EMVIn.wLen = 10;
 2763              		.loc 1 1121 0
 2764 0572 0A23     		movs	r3, #10
1122:src/emvtrans.c ****             memcpy(&gGDS->s_EMVIn.bMsg[10], "\x9C\x01\x00", 3);     // change back to purchase only
 2765              		.loc 1 1122 0
 2766 0574 6868     		ldr	r0, [r5, #4]
1121:src/emvtrans.c ****             gGDS->s_EMVIn.wLen = 10;
 2767              		.loc 1 1121 0
 2768 0576 2B80     		strh	r3, [r5]	@ movhi
 2769              		.loc 1 1122 0
 2770 0578 1844     		add	r0, r0, r3
 2771 057a 0C49     		ldr	r1, .L378+40
 2772 057c 0322     		movs	r2, #3
 2773 057e FFF7FEFF 		bl	memcpy
 2774              	.LVL380:
 2775 0582 3CE0     		b	.L372
 2776              	.L379:
 2777              		.align	2
 2778              	.L378:
 2779 0584 00000000 		.word	gGDS
 2780 0588 0F070000 		.word	gGTS+1807
 2781 058c 27000000 		.word	.LC9
 2782 0590 AB040000 		.word	gGTS+1195
 2783 0594 A3000000 		.word	gGTS+163
ARM GAS  C:\Users\AHMED~1.ELE\AppData\Local\Temp\ccALCmni.s 			page 76


 2784 0598 95000000 		.word	gGTS+149
 2785 059c 84000000 		.word	gGTS+132
 2786 05a0 00000000 		.word	gGTS
 2787 05a4 2A000000 		.word	.LC10
 2788 05a8 2E000000 		.word	.LC11
 2789 05ac 3E000000 		.word	.LANCHOR0+62
 2790              	.L310:
1123:src/emvtrans.c ****             gGDS->s_EMVIn.wLen += 3;
1124:src/emvtrans.c ****           }
1125:src/emvtrans.c ****         }
1126:src/emvtrans.c ****         else {      // not Maestro
1127:src/emvtrans.c ****           memcpy(gGDS->s_EMVIn.bMsg+1, "\x9F\x02\x06", 3);
 2791              		.loc 1 1127 0
 2792 05b0 D9F80030 		ldr	r3, [r9]
 2793 05b4 C749     		ldr	r1, .L380
 2794 05b6 03F55E53 		add	r3, r3, #14208
 2795 05ba 0322     		movs	r2, #3
 2796 05bc 5868     		ldr	r0, [r3, #4]
 2797 05be 0130     		adds	r0, r0, #1
 2798 05c0 FFF7FEFF 		bl	memcpy
 2799              	.LVL381:
1128:src/emvtrans.c ****           dbin2bcd(tmp, INPUT.dd_amount);
 2800              		.loc 1 1128 0
 2801 05c4 08A8     		add	r0, sp, #32
 2802 05c6 D4E90623 		ldrd	r2, [r4, #24]
 2803 05ca FFF7FEFF 		bl	dbin2bcd
 2804              	.LVL382:
1129:src/emvtrans.c ****           memcpy(gGDS->s_EMVIn.bMsg+4, &tmp[4], 6);
 2805              		.loc 1 1129 0
 2806 05ce D9F80050 		ldr	r5, [r9]
 2807 05d2 09A9     		add	r1, sp, #36
 2808 05d4 05F55E55 		add	r5, r5, #14208
 2809 05d8 0622     		movs	r2, #6
 2810 05da 6868     		ldr	r0, [r5, #4]
 2811 05dc 0430     		adds	r0, r0, #4
 2812 05de FFF7FEFF 		bl	memcpy
 2813              	.LVL383:
1130:src/emvtrans.c ****           gGDS->s_EMVIn.wLen = 10;
 2814              		.loc 1 1130 0
 2815 05e2 0A23     		movs	r3, #10
1131:src/emvtrans.c ****           memcpy(&gGDS->s_EMVIn.bMsg[10], "\x9C\x01", 2);           // change back txn type
 2816              		.loc 1 1131 0
 2817 05e4 6868     		ldr	r0, [r5, #4]
1130:src/emvtrans.c ****           gGDS->s_EMVIn.wLen = 10;
 2818              		.loc 1 1130 0
 2819 05e6 2B80     		strh	r3, [r5]	@ movhi
 2820              		.loc 1 1131 0
 2821 05e8 1844     		add	r0, r0, r3
 2822 05ea BB49     		ldr	r1, .L380+4
 2823 05ec 0222     		movs	r2, #2
 2824 05ee FFF7FEFF 		bl	memcpy
 2825              	.LVL384:
1132:src/emvtrans.c ****           gGDS->s_EMVIn.bMsg[12] = GetTxnCode();
 2826              		.loc 1 1132 0
 2827 05f2 D5F80480 		ldr	r8, [r5, #4]
 2828 05f6 FFF7FEFF 		bl	GetTxnCode
 2829              	.LVL385:
ARM GAS  C:\Users\AHMED~1.ELE\AppData\Local\Temp\ccALCmni.s 			page 77


 2830 05fa 88F80C00 		strb	r0, [r8, #12]
 2831              	.L372:
1133:src/emvtrans.c ****           gGDS->s_EMVIn.wLen += 3;
 2832              		.loc 1 1133 0
 2833 05fe 2B88     		ldrh	r3, [r5]
 2834 0600 0333     		adds	r3, r3, #3
 2835 0602 2B80     		strh	r3, [r5]	@ movhi
 2836              	.L313:
1134:src/emvtrans.c ****         }
1135:src/emvtrans.c ****         // KC--
1136:src/emvtrans.c ****         if (!GetProductCode())
 2837              		.loc 1 1136 0
 2838 0604 FFF7FEFF 		bl	GetProductCode
 2839              	.LVL386:
 2840 0608 20B9     		cbnz	r0, .L314
 2841              	.L375:
1137:src/emvtrans.c ****           return EMVCancel(next_state);
 2842              		.loc 1 1137 0
 2843 060a 3046     		mov	r0, r6
 2844 060c FFF7FEFF 		bl	EMVCancel
 2845              	.LVL387:
 2846 0610 0546     		mov	r5, r0
 2847 0612 5BE1     		b	.L365
 2848              	.L314:
1138:src/emvtrans.c ****         DispHeader(NULL);
 2849              		.loc 1 1138 0
 2850 0614 0020     		movs	r0, #0
 2851 0616 44E0     		b	.L369
 2852              	.L278:
1139:src/emvtrans.c ****         Disp2x16Msg(GetConstMsg(EDC_EMV_PROCESSING), MW_LINE5, MW_BIGFONT);
1140:src/emvtrans.c ****         break;
1141:src/emvtrans.c ****       case EMV_CONFIRM_CARD: /* validate application */
1142:src/emvtrans.c ****         if (!ValidEMVData()) {
 2853              		.loc 1 1142 0
 2854 0618 FFF7FEFF 		bl	ValidEMVData
 2855              	.LVL388:
 2856 061c 0546     		mov	r5, r0
 2857 061e 48B9     		cbnz	r0, .L315
1143:src/emvtrans.c ****           Disp2x16Msg(GetConstMsg(EDC_RSP_READ_ERROR), MW_LINE5, MW_BIGFONT);
 2858              		.loc 1 1143 0
 2859 0620 7620     		movs	r0, #118
 2860 0622 FFF7FEFF 		bl	GetConstMsg
 2861              	.LVL389:
 2862 0626 4FF4A061 		mov	r1, #1280
 2863 062a 4FF48052 		mov	r2, #4096
 2864 062e FFF7FEFF 		bl	Disp2x16Msg
 2865              	.LVL390:
1144:src/emvtrans.c ****           return FALSE;
 2866              		.loc 1 1144 0
 2867 0632 4BE1     		b	.L365
 2868              	.L315:
1145:src/emvtrans.c ****         }
1146:src/emvtrans.c **** 
1147:src/emvtrans.c ****         PackComm(INPUT.w_host_idx, FALSE);
1148:src/emvtrans.c ****         APM_PreConnect();
 2869              		.loc 1 1148 0
 2870 0634 0025     		movs	r5, #0
ARM GAS  C:\Users\AHMED~1.ELE\AppData\Local\Temp\ccALCmni.s 			page 78


1147:src/emvtrans.c ****         APM_PreConnect();
 2871              		.loc 1 1147 0
 2872 0636 B4F87600 		ldrh	r0, [r4, #118]
 2873 063a 0021     		movs	r1, #0
 2874 063c FFF7FEFF 		bl	PackComm
 2875              	.LVL391:
 2876              		.loc 1 1148 0
 2877 0640 2A46     		mov	r2, r5
 2878 0642 2B46     		mov	r3, r5
 2879 0644 0095     		str	r5, [sp]
 2880 0646 1020     		movs	r0, #16
 2881 0648 0921     		movs	r1, #9
 2882 064a FFF7FEFF 		bl	lib_app_call
 2883              	.LVL392:
1149:src/emvtrans.c **** 
1150:src/emvtrans.c ****       //  if (!ConfirmCard()) {  // leave exp date chk to kernel
1151:src/emvtrans.c ****       //    RSP_DATA.w_rspcode = 'C'*256+'N';
1152:src/emvtrans.c ****       //    return EMV_COMPLETE; // 25-04-05++ txn end
1153:src/emvtrans.c ****       //  }
1154:src/emvtrans.c **** 
1155:src/emvtrans.c ****         if (INPUT.b_trans == AUTH_ICC) {// AUTH always online
 2884              		.loc 1 1155 0
 2885 064e 2378     		ldrb	r3, [r4]	@ zero_extendqisi2
 2886 0650 102B     		cmp	r3, #16
1156:src/emvtrans.c ****           gGDS->s_EMVIn.bMsg[0] = 0x88;     // Override transaction type & force online
 2887              		.loc 1 1156 0
 2888 0652 D9F80030 		ldr	r3, [r9]
 2889 0656 08BF     		it	eq
 2890 0658 8822     		moveq	r2, #136
 2891 065a 03F55E53 		add	r3, r3, #14208
 2892 065e 5B68     		ldr	r3, [r3, #4]
 2893 0660 0BBF     		itete	eq
 2894 0662 1A70     		strbeq	r2, [r3]
1157:src/emvtrans.c ****           gGDS->s_EMVIn.wLen = 1;
1158:src/emvtrans.c ****         }
1159:src/emvtrans.c ****         else {
1160:src/emvtrans.c ****           gGDS->s_EMVIn.bMsg[0] = 0;
 2895              		.loc 1 1160 0
 2896 0664 1D70     		strbne	r5, [r3]
1157:src/emvtrans.c ****           gGDS->s_EMVIn.wLen = 1;
 2897              		.loc 1 1157 0
 2898 0666 D9F80030 		ldreq	r3, [r9]
1161:src/emvtrans.c ****           gGDS->s_EMVIn.wLen = 0;
 2899              		.loc 1 1161 0
 2900 066a D9F80030 		ldrne	r3, [r9]
1157:src/emvtrans.c ****           gGDS->s_EMVIn.wLen = 1;
 2901              		.loc 1 1157 0
 2902 066e 05BF     		ittet	eq
 2903 0670 03F55E53 		addeq	r3, r3, #14208
 2904 0674 0122     		moveq	r2, #1
 2905              		.loc 1 1161 0
 2906 0676 03F55E53 		addne	r3, r3, #14208
1157:src/emvtrans.c ****           gGDS->s_EMVIn.wLen = 1;
 2907              		.loc 1 1157 0
 2908 067a 1A80     		strheq	r2, [r3]	@ movhi
 2909              		.loc 1 1161 0
 2910 067c 18BF     		it	ne
ARM GAS  C:\Users\AHMED~1.ELE\AppData\Local\Temp\ccALCmni.s 			page 79


 2911 067e 1D80     		strhne	r5, [r3]	@ movhi
 2912 0680 EBE4     		b	.L256
 2913              	.L274:
 2914              	.LBB47:
 2915              	.LBB48:
 670:src/emvtrans.c ****     gGDS->s_EMVIn.bMsg[0] = 0;
 2916              		.loc 1 670 0
 2917 0682 FFF7FEFF 		bl	GetPIN
 2918              	.LVL393:
 2919 0686 C0B1     		cbz	r0, .L317
 671:src/emvtrans.c ****     gGDS->s_EMVIn.wLen = 1;
 2920              		.loc 1 671 0
 2921 0688 D9F80030 		ldr	r3, [r9]
 2922 068c 0020     		movs	r0, #0
 2923 068e 03F55E53 		add	r3, r3, #14208
 672:src/emvtrans.c ****     DispHeader(NULL);
 2924              		.loc 1 672 0
 2925 0692 0122     		movs	r2, #1
 671:src/emvtrans.c ****     gGDS->s_EMVIn.wLen = 1;
 2926              		.loc 1 671 0
 2927 0694 5B68     		ldr	r3, [r3, #4]
 2928 0696 1870     		strb	r0, [r3]
 672:src/emvtrans.c ****     DispHeader(NULL);
 2929              		.loc 1 672 0
 2930 0698 D9F80030 		ldr	r3, [r9]
 2931 069c 03F55E53 		add	r3, r3, #14208
 2932 06a0 1A80     		strh	r2, [r3]	@ movhi
 2933              	.L369:
 673:src/emvtrans.c ****     Disp2x16Msg(GetConstMsg(EDC_EMV_PROCESSING), MW_LINE5, MW_BIGFONT);
 2934              		.loc 1 673 0
 2935 06a2 FFF7FEFF 		bl	DispHeader
 2936              	.LVL394:
 674:src/emvtrans.c ****     return TRUE;
 2937              		.loc 1 674 0
 2938 06a6 8920     		movs	r0, #137
 2939 06a8 FFF7FEFF 		bl	GetConstMsg
 2940              	.LVL395:
 2941 06ac 4FF4A061 		mov	r1, #1280
 2942 06b0 4FF48052 		mov	r2, #4096
 2943 06b4 FFF7FEFF 		bl	Disp2x16Msg
 2944              	.LVL396:
 2945 06b8 CFE4     		b	.L256
 2946              	.L317:
 677:src/emvtrans.c ****   RSP_DATA.w_rspcode = 'C'*256+'N';
 2947              		.loc 1 677 0
 2948 06ba FFF7FEFF 		bl	DispHeader
 2949              	.LVL397:
 678:src/emvtrans.c ****   return FALSE;
 2950              		.loc 1 678 0
 2951 06be 44F24E33 		movw	r3, #17230
 2952 06c2 C7E6     		b	.L373
 2953              	.L275:
 2954              	.LBE48:
 2955              	.LBE47:
1162:src/emvtrans.c ****         }
1163:src/emvtrans.c ****         break;
1164:src/emvtrans.c ****       case EMV_ONLINE_PIN: // online PIN
ARM GAS  C:\Users\AHMED~1.ELE\AppData\Local\Temp\ccALCmni.s 			page 80


1165:src/emvtrans.c ****         if (emvPIN() == FALSE) {
1166:src/emvtrans.c ****           LongBeep();
1167:src/emvtrans.c ****           return EMV_ONLINE_PIN; // 25-04-05++ return next action code
1168:src/emvtrans.c ****         }
1169:src/emvtrans.c ****         break;
1170:src/emvtrans.c ****       case EMV_ONLINE: // online process
1171:src/emvtrans.c ****         // only proceed if unable to go online or txn approved
1172:src/emvtrans.c **** 			PackHeader();
 2956              		.loc 1 1172 0
 2957 06c4 FFF7FEFF 		bl	PackHeader
 2958              	.LVL398:
 2959              	.LBB49:
 2960              	.LBB50:
 709:src/emvtrans.c ****     EMVFatal();
 2961              		.loc 1 709 0
 2962 06c8 D9F80000 		ldr	r0, [r9]
 2963 06cc 00F55E50 		add	r0, r0, #14208
 2964 06d0 2030     		adds	r0, r0, #32
 2965 06d2 30F8182C 		ldrh	r2, [r0, #-24]
 2966 06d6 50F8141C 		ldr	r1, [r0, #-20]
 2967 06da 023A     		subs	r2, r2, #2
 2968 06dc 0231     		adds	r1, r1, #2
 2969 06de 92B2     		uxth	r2, r2
 2970 06e0 FFF7FEFF 		bl	DeAss
 2971              	.LVL399:
 2972 06e4 08B9     		cbnz	r0, .L318
 710:src/emvtrans.c ****   gGDS->s_EMVOut.wLen = 1;
 2973              		.loc 1 710 0
 2974 06e6 FFF7FEFF 		bl	EMVFatal
 2975              	.LVL400:
 2976              	.L318:
 711:src/emvtrans.c ****   DispHeader(NULL);
 2977              		.loc 1 711 0
 2978 06ea D9F80030 		ldr	r3, [r9]
 2979 06ee 0122     		movs	r2, #1
 2980 06f0 03F55E53 		add	r3, r3, #14208
 714:src/emvtrans.c ****     if (ReversalOK()) {
 2981              		.loc 1 714 0
 2982 06f4 4FF00009 		mov	r9, #0
 711:src/emvtrans.c ****   DispHeader(NULL);
 2983              		.loc 1 711 0
 2984 06f8 1A81     		strh	r2, [r3, #8]	@ movhi
 712:src/emvtrans.c ****   PackComm(INPUT.w_host_idx, FALSE);
 2985              		.loc 1 712 0
 2986 06fa 0020     		movs	r0, #0
 2987 06fc FFF7FEFF 		bl	DispHeader
 2988              	.LVL401:
 713:src/emvtrans.c ****   if ((RSP_DATA.w_rspcode = APM_ConnectOK(FALSE)) == COMM_OK) {
 2989              		.loc 1 713 0
 2990 0700 B4F87600 		ldrh	r0, [r4, #118]
 2991 0704 0021     		movs	r1, #0
 2992 0706 FFF7FEFF 		bl	PackComm
 2993              	.LVL402:
 714:src/emvtrans.c ****     if (ReversalOK()) {
 2994              		.loc 1 714 0
 2995 070a 4B46     		mov	r3, r9
 2996 070c CDF80090 		str	r9, [sp]
ARM GAS  C:\Users\AHMED~1.ELE\AppData\Local\Temp\ccALCmni.s 			page 81


 2997 0710 1020     		movs	r0, #16
 2998 0712 0A21     		movs	r1, #10
 2999 0714 4A46     		mov	r2, r9
 3000 0716 FFF7FEFF 		bl	lib_app_call
 3001              	.LVL403:
 3002 071a 43F23003 		movw	r3, #12336
 711:src/emvtrans.c ****   DispHeader(NULL);
 3003              		.loc 1 711 0
 3004 071e DFF8D8A1 		ldr	r10, .L380+36
 713:src/emvtrans.c ****   if ((RSP_DATA.w_rspcode = APM_ConnectOK(FALSE)) == COMM_OK) {
 3005              		.loc 1 713 0
 3006 0722 DFF8D081 		ldr	r8, .L380+32
 714:src/emvtrans.c ****     if (ReversalOK()) {
 3007              		.loc 1 714 0
 3008 0726 1FFA80FB 		uxth	fp, r0
 3009 072a 9B45     		cmp	fp, r3
 3010 072c A4F816B7 		strh	fp, [r4, #1814]	@ movhi
 3011 0730 40F0BF80 		bne	.L319
 715:src/emvtrans.c ****       OfflineSent(FALSE);
 3012              		.loc 1 715 0
 3013 0734 FFF7FEFF 		bl	ReversalOK
 3014              	.LVL404:
 3015 0738 0028     		cmp	r0, #0
 3016 073a 00F0A180 		beq	.L321
 716:src/emvtrans.c ****       memcpy(INPUT.sb_trace_no, TagData(gGDS->s_TagList, 0x9F41), 3); /* restore TSN */
 3017              		.loc 1 716 0
 3018 073e 4846     		mov	r0, r9
 3019 0740 FFF7FEFF 		bl	OfflineSent
 3020              	.LVL405:
 717:src/emvtrans.c ****       memcpy(TX_DATA.sb_trace_no, INPUT.sb_trace_no, sizeof(TX_DATA.sb_trace_no));
 3021              		.loc 1 717 0
 3022 0744 DAF80000 		ldr	r0, [r10]
 3023 0748 49F64171 		movw	r1, #40769
 3024 074c 00F55E50 		add	r0, r0, #14208
 3025 0750 2030     		adds	r0, r0, #32
 3026 0752 FFF7FEFF 		bl	TagData
 3027              	.LVL406:
 3028 0756 0322     		movs	r2, #3
 3029 0758 0146     		mov	r1, r0
 3030 075a 08F10300 		add	r0, r8, #3
 3031 075e FFF7FEFF 		bl	memcpy
 3032              	.LVL407:
 718:src/emvtrans.c ****       memcpy(INPUT.sb_roc_no, INPUT.sb_trace_no, sizeof(TX_DATA.sb_trace_no));  // restore ROC
 3033              		.loc 1 718 0
 3034 0762 08F10301 		add	r1, r8, #3
 3035 0766 0322     		movs	r2, #3
 3036 0768 5C48     		ldr	r0, .L380+8
 3037 076a FFF7FEFF 		bl	memcpy
 3038              	.LVL408:
 719:src/emvtrans.c ****       PackEMVData(&INPUT.s_icc_data);  // field 55 ICC data
 3039              		.loc 1 719 0
 3040 076e 08F10301 		add	r1, r8, #3
 3041 0772 0322     		movs	r2, #3
 3042 0774 08F10700 		add	r0, r8, #7
 3043 0778 FFF7FEFF 		bl	memcpy
 3044              	.LVL409:
 720:src/emvtrans.c ****       IncAPMTraceNo();
ARM GAS  C:\Users\AHMED~1.ELE\AppData\Local\Temp\ccALCmni.s 			page 82


 3045              		.loc 1 720 0
 3046 077c 08F18400 		add	r0, r8, #132
 3047 0780 FFF7FEFF 		bl	PackEMVData
 3048              	.LVL410:
 721:src/emvtrans.c ****       MoveInput2Tx();
 3049              		.loc 1 721 0
 3050 0784 FFF7FEFF 		bl	IncAPMTraceNo
 3051              	.LVL411:
 722:src/emvtrans.c ****       memcpy(TX_DATA.sb_pin, INPUT.sb_pin, sizeof(INPUT.sb_pin)); // online pin
 3052              		.loc 1 722 0
 3053 0788 FFF7FEFF 		bl	MoveInput2Tx
 3054              	.LVL412:
 723:src/emvtrans.c ****       //PackEMVData(&TX_DATA.s_icc_data);  // field 55 ICC data
 3055              		.loc 1 723 0
 3056 078c 059A     		ldr	r2, [sp, #20]
 3057 078e 08F5D463 		add	r3, r8, #1696
 3058 0792 92E80300 		ldmia	r2, {r0, r1}
 3059 0796 83E80300 		stmia	r3, {r0, r1}
 725:src/emvtrans.c ****       PackHostMsg();
 3060              		.loc 1 725 0
 3061 079a 98F8AE14 		ldrb	r1, [r8, #1198]	@ zero_extendqisi2
 3062 079e 98F8A804 		ldrb	r0, [r8, #1192]	@ zero_extendqisi2
 3063 07a2 FFF7FEFF 		bl	PackProcCode
 3064              	.LVL413:
 726:src/emvtrans.c ****       UpdateHostStatus(REV_PENDING);
 3065              		.loc 1 726 0
 3066 07a6 FFF7FEFF 		bl	PackHostMsg
 3067              	.LVL414:
 727:src/emvtrans.c **** 
 3068              		.loc 1 727 0
 3069 07aa 0120     		movs	r0, #1
 3070 07ac FFF7FEFF 		bl	UpdateHostStatus
 3071              	.LVL415:
 729:src/emvtrans.c ****         RSP_DATA.b_response = CheckHostRsp();
 3072              		.loc 1 729 0
 3073 07b0 DAF80030 		ldr	r3, [r10]
 3074 07b4 1020     		movs	r0, #16
 3075 07b6 03F5CC52 		add	r2, r3, #6528
 3076 07ba 03F51653 		add	r3, r3, #9600
 3077 07be CDF80090 		str	r9, [sp]
 3078 07c2 0B21     		movs	r1, #11
 3079 07c4 1C32     		adds	r2, r2, #28
 3080 07c6 2033     		adds	r3, r3, #32
 3081 07c8 FFF7FEFF 		bl	lib_app_call
 3082              	.LVL416:
 3083 07cc 80B2     		uxth	r0, r0
 3084 07ce 5845     		cmp	r0, fp
 3085 07d0 A8F81607 		strh	r0, [r8, #1814]	@ movhi
 3086 07d4 03D1     		bne	.L322
 730:src/emvtrans.c ****       }
 3087              		.loc 1 730 0
 3088 07d6 FFF7FEFF 		bl	CheckHostRsp
 3089              	.LVL417:
 3090 07da 88F8A808 		strb	r0, [r8, #2216]
 3091              	.L322:
 732:src/emvtrans.c ****         memcpy(abResp, "\x8A\x02", 2);  //Authorisation Response Code, 2 bytes
 3092              		.loc 1 732 0
ARM GAS  C:\Users\AHMED~1.ELE\AppData\Local\Temp\ccALCmni.s 			page 83


 3093 07de 94F8A838 		ldrb	r3, [r4, #2216]	@ zero_extendqisi2
 3094 07e2 DFF81081 		ldr	r8, .L380+32
 3095 07e6 012B     		cmp	r3, #1
 3096 07e8 4AD8     		bhi	.L321
 733:src/emvtrans.c ****         abResp[2] = (BYTE)(RSP_DATA.w_rspcode>>8);
 3097              		.loc 1 733 0
 3098 07ea 3D49     		ldr	r1, .L380+12
 3099 07ec 0222     		movs	r2, #2
 3100 07ee 3D48     		ldr	r0, .L380+16
 3101 07f0 FFF7FEFF 		bl	memcpy
 3102              	.LVL418:
 736:src/emvtrans.c ****         gGDS->s_EMVIn.wLen = sizeof(abResp) + 1;
 3103              		.loc 1 736 0
 3104 07f4 DFF80091 		ldr	r9, .L380+36
 734:src/emvtrans.c ****         abResp[3] = (BYTE)(RSP_DATA.w_rspcode&0xFF);
 3105              		.loc 1 734 0
 3106 07f8 B8F81637 		ldrh	r3, [r8, #1814]
 736:src/emvtrans.c ****         gGDS->s_EMVIn.wLen = sizeof(abResp) + 1;
 3107              		.loc 1 736 0
 3108 07fc 3949     		ldr	r1, .L380+16
 734:src/emvtrans.c ****         abResp[3] = (BYTE)(RSP_DATA.w_rspcode&0xFF);
 3109              		.loc 1 734 0
 3110 07fe 1A0A     		lsrs	r2, r3, #8
 735:src/emvtrans.c ****         memcpy(gGDS->s_EMVIn.bMsg+1, abResp, sizeof(abResp));
 3111              		.loc 1 735 0
 3112 0800 3B71     		strb	r3, [r7, #4]
 736:src/emvtrans.c ****         gGDS->s_EMVIn.wLen = sizeof(abResp) + 1;
 3113              		.loc 1 736 0
 3114 0802 D9F80030 		ldr	r3, [r9]
 734:src/emvtrans.c ****         abResp[3] = (BYTE)(RSP_DATA.w_rspcode&0xFF);
 3115              		.loc 1 734 0
 3116 0806 FA70     		strb	r2, [r7, #3]
 736:src/emvtrans.c ****         gGDS->s_EMVIn.wLen = sizeof(abResp) + 1;
 3117              		.loc 1 736 0
 3118 0808 03F55E53 		add	r3, r3, #14208
 3119 080c 0422     		movs	r2, #4
 3120 080e 5868     		ldr	r0, [r3, #4]
 3121 0810 0130     		adds	r0, r0, #1
 3122 0812 FFF7FEFF 		bl	memcpy
 3123              	.LVL419:
 737:src/emvtrans.c ****         if (RSP_DATA.b_response == TRANS_ACP) {
 3124              		.loc 1 737 0
 3125 0816 D9F80050 		ldr	r5, [r9]
 3126 081a 0523     		movs	r3, #5
 3127 081c 05F55E55 		add	r5, r5, #14208
 3128 0820 2B80     		strh	r3, [r5]	@ movhi
 738:src/emvtrans.c ****           memcpy(gGDS->s_EMVIn.bMsg+gGDS->s_EMVIn.wLen, "\x89\x06", 2); //Auth. Code, 6 bytes
 3129              		.loc 1 738 0
 3130 0822 98F8A838 		ldrb	r3, [r8, #2216]	@ zero_extendqisi2
 3131 0826 A3B9     		cbnz	r3, .L324
 739:src/emvtrans.c ****           memcpy(gGDS->s_EMVIn.bMsg+gGDS->s_EMVIn.wLen+2, RSP_DATA.sb_auth_code, 6);
 3132              		.loc 1 739 0
 3133 0828 6868     		ldr	r0, [r5, #4]
 3134 082a 2F49     		ldr	r1, .L380+20
 3135 082c 0222     		movs	r2, #2
 3136 082e 0530     		adds	r0, r0, #5
 3137 0830 FFF7FEFF 		bl	memcpy
ARM GAS  C:\Users\AHMED~1.ELE\AppData\Local\Temp\ccALCmni.s 			page 84


 3138              	.LVL420:
 740:src/emvtrans.c ****           gGDS->s_EMVIn.wLen += 8;
 3139              		.loc 1 740 0
 3140 0834 2B88     		ldrh	r3, [r5]
 3141 0836 6868     		ldr	r0, [r5, #4]
 3142 0838 0622     		movs	r2, #6
 3143 083a 1844     		add	r0, r0, r3
 3144 083c 0230     		adds	r0, r0, #2
 3145 083e 2B49     		ldr	r1, .L380+24
 3146 0840 FFF7FEFF 		bl	memcpy
 3147              	.LVL421:
 741:src/emvtrans.c ****         }
 3148              		.loc 1 741 0
 3149 0844 D9F80030 		ldr	r3, [r9]
 3150 0848 03F55E53 		add	r3, r3, #14208
 3151 084c 1A88     		ldrh	r2, [r3]
 3152 084e 0832     		adds	r2, r2, #8
 3153 0850 1A80     		strh	r2, [r3]	@ movhi
 3154              	.L324:
 744:src/emvtrans.c ****           memcpy(gGDS->s_EMVIn.bMsg+gGDS->s_EMVIn.wLen, RSP_DATA.s_icc_data.sb_misc_content, RSP_DA
 3155              		.loc 1 744 0
 3156 0852 B4F85C27 		ldrh	r2, [r4, #1884]
 3157 0856 9AB1     		cbz	r2, .L321
 745:src/emvtrans.c ****           gGDS->s_EMVIn.wLen += RSP_DATA.s_icc_data.w_misc_len;
 3158              		.loc 1 745 0
 3159 0858 D9F80030 		ldr	r3, [r9]
 3160 085c 03F55E53 		add	r3, r3, #14208
 3161 0860 1988     		ldrh	r1, [r3]
 3162 0862 5868     		ldr	r0, [r3, #4]
 3163 0864 0844     		add	r0, r0, r1
 3164 0866 2249     		ldr	r1, .L380+28
 3165 0868 FFF7FEFF 		bl	memcpy
 3166              	.LVL422:
 746:src/emvtrans.c ****         }
 3167              		.loc 1 746 0
 3168 086c D9F80030 		ldr	r3, [r9]
 3169 0870 204A     		ldr	r2, .L380+32
 3170 0872 03F55E53 		add	r3, r3, #14208
 3171 0876 B2F85C17 		ldrh	r1, [r2, #1884]
 3172 087a 1A88     		ldrh	r2, [r3]
 3173 087c 0A44     		add	r2, r2, r1
 3174 087e 1A80     		strh	r2, [r3]	@ movhi
 3175              	.L321:
 750:src/emvtrans.c ****     return TRUE;
 3176              		.loc 1 750 0
 3177 0880 0022     		movs	r2, #0
 3178 0882 0D21     		movs	r1, #13
 3179 0884 0092     		str	r2, [sp]
 3180 0886 1346     		mov	r3, r2
 3181 0888 1020     		movs	r0, #16
 3182 088a FFF7FEFF 		bl	lib_app_call
 3183              	.LVL423:
 3184 088e FFF7E4BB 		b	.L256
 3185              	.L276:
 3186              	.LBE50:
 3187              	.LBE49:
1173:src/emvtrans.c **** 
ARM GAS  C:\Users\AHMED~1.ELE\AppData\Local\Temp\ccALCmni.s 			page 85


1174:src/emvtrans.c ****         if ( (EMVOnline() == FALSE)) {
1175:src/emvtrans.c ****           gGDS->s_EMVIn.bMsg[0] = 0;
1176:src/emvtrans.c ****           gGDS->s_EMVIn.wLen = 0;
1177:src/emvtrans.c ****           return EMV_ONLINE;
1178:src/emvtrans.c ****         }
1179:src/emvtrans.c ****         break;
1180:src/emvtrans.c ****       case EMV_REFERRAL: // referral
1181:src/emvtrans.c ****         gGDS->s_EMVIn.bMsg[0] = 0;
 3188              		.loc 1 1181 0
 3189 0892 5B68     		ldr	r3, [r3, #4]
 3190 0894 0022     		movs	r2, #0
 3191 0896 1A70     		strb	r2, [r3]
1182:src/emvtrans.c ****         gGDS->s_EMVIn.wLen = 1;   // request AAC
 3192              		.loc 1 1182 0
 3193 0898 D9F80030 		ldr	r3, [r9]
 3194 089c 0122     		movs	r2, #1
 3195 089e 03F55E53 		add	r3, r3, #14208
1183:src/emvtrans.c ****         bAcceptReferral = TRUE; //referral requested indicator
 3196              		.loc 1 1183 0
 3197 08a2 3A70     		strb	r2, [r7]
1182:src/emvtrans.c ****         gGDS->s_EMVIn.wLen = 1;   // request AAC
 3198              		.loc 1 1182 0
 3199 08a4 1A80     		strh	r2, [r3]	@ movhi
1184:src/emvtrans.c ****         break;
 3200              		.loc 1 1184 0
 3201 08a6 FFF7D8BB 		b	.L256
 3202              	.L270:
1185:src/emvtrans.c ****       default:
1186:src/emvtrans.c ****         EMVFatal();
 3203              		.loc 1 1186 0
 3204 08aa FFF7FEFF 		bl	EMVFatal
 3205              	.LVL424:
 3206 08ae FFF7D4BB 		b	.L256
 3207              	.L319:
1175:src/emvtrans.c ****           gGDS->s_EMVIn.wLen = 0;
 3208              		.loc 1 1175 0
 3209 08b2 DAF80030 		ldr	r3, [r10]
 3210 08b6 03F55E53 		add	r3, r3, #14208
 3211 08ba 5B68     		ldr	r3, [r3, #4]
 3212 08bc 83F80090 		strb	r9, [r3]
1176:src/emvtrans.c ****           return EMV_ONLINE;
 3213              		.loc 1 1176 0
 3214 08c0 DAF80030 		ldr	r3, [r10]
 3215 08c4 03F55E53 		add	r3, r3, #14208
 3216 08c8 A3F80090 		strh	r9, [r3]	@ movhi
 3217              	.LVL425:
 3218              	.L365:
1187:src/emvtrans.c ****     }
1188:src/emvtrans.c ****   } while (TRUE);
1189:src/emvtrans.c **** }
 3219              		.loc 1 1189 0
 3220 08cc 2846     		mov	r0, r5
 3221 08ce 13B0     		add	sp, sp, #76
 3222              		.cfi_def_cfa_offset 36
 3223              		@ sp needed
 3224 08d0 BDE8F08F 		pop	{r4, r5, r6, r7, r8, r9, r10, fp, pc}
 3225              	.LVL426:
ARM GAS  C:\Users\AHMED~1.ELE\AppData\Local\Temp\ccALCmni.s 			page 86


 3226              	.L381:
 3227              		.align	2
 3228              	.L380:
 3229 08d4 2A000000 		.word	.LC10
 3230 08d8 32000000 		.word	.LC13
 3231 08dc AB040000 		.word	gGTS+1195
 3232 08e0 35000000 		.word	.LC14
 3233 08e4 01000000 		.word	.LANCHOR1+1
 3234 08e8 38000000 		.word	.LC15
 3235 08ec 0F070000 		.word	gGTS+1807
 3236 08f0 5E070000 		.word	gGTS+1886
 3237 08f4 00000000 		.word	gGTS
 3238 08f8 00000000 		.word	gGDS
 3239              		.cfi_endproc
 3240              	.LFE22:
 3241              		.size	EMVProcess, .-EMVProcess
 3242              		.section	.text.EMVTrans,"ax",%progbits
 3243              		.align	1
 3244              		.global	EMVTrans
 3245              		.thumb
 3246              		.thumb_func
 3247              		.type	EMVTrans, %function
 3248              	EMVTrans:
 3249              	.LFB23:
1190:src/emvtrans.c **** //*****************************************************************************
1191:src/emvtrans.c **** //  Function        : EMVTrans
1192:src/emvtrans.c **** //  Description     : EMV trans handler.
1193:src/emvtrans.c **** //  Input           : trans;    // trans type
1194:src/emvtrans.c **** //  Return          : N/A
1195:src/emvtrans.c **** //  Note            : N/A
1196:src/emvtrans.c **** //  Globals Changed : N/A
1197:src/emvtrans.c **** //******************************************************************************
1198:src/emvtrans.c **** DWORD EMVTrans(DWORD aTrans)
1199:src/emvtrans.c **** {
 3250              		.loc 1 1199 0
 3251              		.cfi_startproc
 3252              		@ args = 0, pretend = 0, frame = 0
 3253              		@ frame_needed = 0, uses_anonymous_args = 0
 3254              	.LVL427:
1200:src/emvtrans.c ****   BYTE next_action;
1201:src/emvtrans.c ****   
1202:src/emvtrans.c ****   INPUT.b_trans = (BYTE) aTrans;
1203:src/emvtrans.c ****   if (STIS_TERM_DATA.b_stis_mode < TRANS_MODE) {
 3255              		.loc 1 1203 0
 3256 0000 4F4B     		ldr	r3, .L407
1199:src/emvtrans.c ****   BYTE next_action;
 3257              		.loc 1 1199 0
 3258 0002 73B5     		push	{r0, r1, r4, r5, r6, lr}
 3259              		.cfi_def_cfa_offset 24
 3260              		.cfi_offset 4, -16
 3261              		.cfi_offset 5, -12
 3262              		.cfi_offset 6, -8
 3263              		.cfi_offset 14, -4
1202:src/emvtrans.c ****   if (STIS_TERM_DATA.b_stis_mode < TRANS_MODE) {
 3264              		.loc 1 1202 0
 3265 0004 4F4E     		ldr	r6, .L407+4
 3266              		.loc 1 1203 0
ARM GAS  C:\Users\AHMED~1.ELE\AppData\Local\Temp\ccALCmni.s 			page 87


 3267 0006 1B68     		ldr	r3, [r3]
1202:src/emvtrans.c ****   if (STIS_TERM_DATA.b_stis_mode < TRANS_MODE) {
 3268              		.loc 1 1202 0
 3269 0008 3070     		strb	r0, [r6]
 3270              		.loc 1 1203 0
 3271 000a 93F85835 		ldrb	r3, [r3, #1368]	@ zero_extendqisi2
 3272 000e 3546     		mov	r5, r6
 3273 0010 012B     		cmp	r3, #1
 3274 0012 03D9     		bls	.L405
1204:src/emvtrans.c ****     DispErrorMsg(GetConstMsg(EDC_TU_NOT_ALLOW));
1205:src/emvtrans.c ****     return FALSE;
1206:src/emvtrans.c ****   }
1207:src/emvtrans.c **** 
1208:src/emvtrans.c ****   if (BlockLocalTrans()) {
 3275              		.loc 1 1208 0
 3276 0014 FFF7FEFF 		bl	BlockLocalTrans
 3277              	.LVL428:
 3278 0018 0446     		mov	r4, r0
 3279 001a 08B1     		cbz	r0, .L385
 3280              	.L405:
1209:src/emvtrans.c ****     DispErrorMsg(GetConstMsg(EDC_TU_NOT_ALLOW));
 3281              		.loc 1 1209 0
 3282 001c 2420     		movs	r0, #36
 3283 001e 10E0     		b	.L406
 3284              	.L385:
1210:src/emvtrans.c ****     return FALSE;
1211:src/emvtrans.c ****   }
1212:src/emvtrans.c **** 
1213:src/emvtrans.c ****   if (INPUT.b_trans==AUTH_ICC) {
 3285              		.loc 1 1213 0
 3286 0020 3378     		ldrb	r3, [r6]	@ zero_extendqisi2
 3287 0022 102B     		cmp	r3, #16
 3288 0024 08D1     		bne	.L386
1214:src/emvtrans.c ****     if (AuthBlocked()) {
 3289              		.loc 1 1214 0
 3290 0026 FFF7FEFF 		bl	AuthBlocked
 3291              	.LVL429:
 3292 002a 28B1     		cbz	r0, .L386
1215:src/emvtrans.c ****       DispErrorMsg(GetConstMsg(EDC_TU_NOT_ALLOW));
 3293              		.loc 1 1215 0
 3294 002c 2420     		movs	r0, #36
 3295 002e FFF7FEFF 		bl	GetConstMsg
 3296              	.LVL430:
 3297 0032 FFF7FEFF 		bl	DispErrorMsg
 3298              	.LVL431:
1216:src/emvtrans.c ****       return FALSE;
 3299              		.loc 1 1216 0
 3300 0036 7FE0     		b	.L384
 3301              	.L386:
1217:src/emvtrans.c ****     }
1218:src/emvtrans.c ****   }
1219:src/emvtrans.c **** 
1220:src/emvtrans.c ****   if (HostSettlePending() || APM_BatchFull(INPUT.w_host_idx)) {
 3302              		.loc 1 1220 0
 3303 0038 FFF7FEFF 		bl	HostSettlePending
 3304              	.LVL432:
 3305 003c 0346     		mov	r3, r0
ARM GAS  C:\Users\AHMED~1.ELE\AppData\Local\Temp\ccALCmni.s 			page 88


 3306 003e 30B1     		cbz	r0, .L387
 3307              	.L388:
1221:src/emvtrans.c ****     DispErrorMsg(GetConstMsg(EDC_TU_CLOSE_BATCH));
 3308              		.loc 1 1221 0
 3309 0040 2520     		movs	r0, #37
 3310              	.L406:
 3311 0042 FFF7FEFF 		bl	GetConstMsg
 3312              	.LVL433:
1222:src/emvtrans.c ****     return FALSE;
 3313              		.loc 1 1222 0
 3314 0046 0024     		movs	r4, #0
1221:src/emvtrans.c ****     DispErrorMsg(GetConstMsg(EDC_TU_CLOSE_BATCH));
 3315              		.loc 1 1221 0
 3316 0048 FFF7FEFF 		bl	DispErrorMsg
 3317              	.LVL434:
 3318              		.loc 1 1222 0
 3319 004c 74E0     		b	.L384
 3320              	.L387:
1220:src/emvtrans.c ****     DispErrorMsg(GetConstMsg(EDC_TU_CLOSE_BATCH));
 3321              		.loc 1 1220 0 discriminator 1
 3322 004e B5F87620 		ldrh	r2, [r5, #118]
 3323 0052 2821     		movs	r1, #40
 3324 0054 0090     		str	r0, [sp]
 3325 0056 1020     		movs	r0, #16
 3326 0058 FFF7FEFF 		bl	lib_app_call
 3327              	.LVL435:
 3328 005c 394E     		ldr	r6, .L407+4
 3329 005e 0446     		mov	r4, r0
 3330 0060 0028     		cmp	r0, #0
 3331 0062 EDD1     		bne	.L388
1223:src/emvtrans.c ****   }
1224:src/emvtrans.c ****   if (!Expire_diff())
 3332              		.loc 1 1224 0
 3333 0064 FFF7FEFF 		bl	Expire_diff
 3334              	.LVL436:
 3335 0068 0028     		cmp	r0, #0
 3336 006a 65D0     		beq	.L384
1225:src/emvtrans.c ****     return FALSE;
1226:src/emvtrans.c **** 
1227:src/emvtrans.c ****   INPUT.b_entry_mode = ICC;
 3337              		.loc 1 1227 0
 3338 006c 4923     		movs	r3, #73
1228:src/emvtrans.c ****   RSP_DATA.b_response = TRANS_FAIL;
1229:src/emvtrans.c ****   RSP_DATA.w_rspcode = '5'*256+'1';
1230:src/emvtrans.c ****   GetEcrRef(FALSE);
 3339              		.loc 1 1230 0
 3340 006e 2046     		mov	r0, r4
1227:src/emvtrans.c ****   RSP_DATA.b_response = TRANS_FAIL;
 3341              		.loc 1 1227 0
 3342 0070 86F83430 		strb	r3, [r6, #52]
1228:src/emvtrans.c ****   RSP_DATA.b_response = TRANS_FAIL;
 3343              		.loc 1 1228 0
 3344 0074 0223     		movs	r3, #2
 3345 0076 86F8A838 		strb	r3, [r6, #2216]
1229:src/emvtrans.c ****   GetEcrRef(FALSE);
 3346              		.loc 1 1229 0
 3347 007a 43F23153 		movw	r3, #13617
ARM GAS  C:\Users\AHMED~1.ELE\AppData\Local\Temp\ccALCmni.s 			page 89


 3348 007e A6F81637 		strh	r3, [r6, #1814]	@ movhi
 3349              		.loc 1 1230 0
 3350 0082 FFF7FEFF 		bl	GetEcrRef
 3351              	.LVL437:
1231:src/emvtrans.c **** 
1232:src/emvtrans.c ****   DispHeader(NULL); // show correct header
 3352              		.loc 1 1232 0
 3353 0086 2046     		mov	r0, r4
 3354 0088 FFF7FEFF 		bl	DispHeader
 3355              	.LVL438:
1233:src/emvtrans.c **** 
1234:src/emvtrans.c ****   DispClrBelowMW(MW_LINE3);
 3356              		.loc 1 1234 0
 3357 008c 2346     		mov	r3, r4
 3358 008e 2321     		movs	r1, #35
 3359 0090 4FF44072 		mov	r2, #768
 3360 0094 0094     		str	r4, [sp]
 3361 0096 0F20     		movs	r0, #15
 3362 0098 FFF7FEFF 		bl	lib_app_call
 3363              	.LVL439:
1235:src/emvtrans.c ****   Disp2x16Msg(GetConstMsg(EDC_EMV_PROCESSING),MW_LINE5, MW_BIGFONT);
 3364              		.loc 1 1235 0
 3365 009c 8920     		movs	r0, #137
 3366 009e FFF7FEFF 		bl	GetConstMsg
 3367              	.LVL440:
 3368 00a2 4FF4A061 		mov	r1, #1280
 3369 00a6 4FF48052 		mov	r2, #4096
 3370 00aa FFF7FEFF 		bl	Disp2x16Msg
 3371              	.LVL441:
1236:src/emvtrans.c ****   Short1Beep();
 3372              		.loc 1 1236 0
 3373 00ae FFF7FEFF 		bl	Short1Beep
 3374              	.LVL442:
1237:src/emvtrans.c ****   // no fallback if get processing option step performed
1238:src/emvtrans.c ****   //21-08-12 JC ++
1239:src/emvtrans.c ****   next_action = EMVProcess();
 3375              		.loc 1 1239 0
 3376 00b2 FFF7FEFF 		bl	EMVProcess
 3377              	.LVL443:
1240:src/emvtrans.c ****   if ((next_action != EMV_COMPLETE) &&
 3378              		.loc 1 1240 0
 3379 00b6 80B3     		cbz	r0, .L389
 3380              		.loc 1 1240 0 is_stmt 0 discriminator 1
 3381 00b8 0438     		subs	r0, r0, #4
 3382              	.LVL444:
 3383 00ba C0B2     		uxtb	r0, r0
 3384 00bc 0128     		cmp	r0, #1
 3385 00be 2CD9     		bls	.L389
1241:src/emvtrans.c ****       (next_action != EMV_ONLINE  ) &&
1242:src/emvtrans.c ****       (next_action != EMV_REFERRAL)) {
1243:src/emvtrans.c ****     if ((RSP_DATA.w_rspcode == 'S'*256+'C') ||
 3386              		.loc 1 1243 0 is_stmt 1
 3387 00c0 B6F81637 		ldrh	r3, [r6, #1814]
 3388 00c4 45F24332 		movw	r2, #21315
 3389 00c8 9342     		cmp	r3, r2
 3390 00ca 0DD0     		beq	.L390
 3391              		.loc 1 1243 0 is_stmt 0 discriminator 1
ARM GAS  C:\Users\AHMED~1.ELE\AppData\Local\Temp\ccALCmni.s 			page 90


 3392 00cc 44F64152 		movw	r2, #19777
 3393 00d0 9342     		cmp	r3, r2
 3394 00d2 09D0     		beq	.L390
1244:src/emvtrans.c ****         (RSP_DATA.w_rspcode == 'M'*256+'A') ||  // no matching application
1245:src/emvtrans.c ****         (RSP_DATA.w_rspcode == 'N'*256+'E') ||
 3395              		.loc 1 1245 0 is_stmt 1
 3396 00d4 45F24522 		movw	r2, #21061
 3397 00d8 9342     		cmp	r3, r2
 3398 00da 05D0     		beq	.L390
1246:src/emvtrans.c ****         (RSP_DATA.w_rspcode == 'R'*256+'E') ||
 3399              		.loc 1 1246 0
 3400 00dc 23F00403 		bic	r3, r3, #4
 3401 00e0 44F64162 		movw	r2, #20033
 3402 00e4 9342     		cmp	r3, r2
 3403 00e6 18D1     		bne	.L389
 3404              	.L390:
1247:src/emvtrans.c ****         (RSP_DATA.w_rspcode == 'N'*256+'A')) {
1248:src/emvtrans.c ****       os_sam_off();
 3405              		.loc 1 1248 0
 3406 00e8 C120     		movs	r0, #193
 3407 00ea FFF7FEFF 		bl	sys_func0
 3408              	.LVL445:
1249:src/emvtrans.c ****       if (GetCard(0, TRUE)) {
 3409              		.loc 1 1249 0
 3410 00ee 0020     		movs	r0, #0
 3411 00f0 0121     		movs	r1, #1
 3412 00f2 FFF7FEFF 		bl	GetCard
 3413              	.LVL446:
 3414 00f6 F0B1     		cbz	r0, .L395
1250:src/emvtrans.c ****         switch (INPUT.b_trans) {
 3415              		.loc 1 1250 0
 3416 00f8 2A78     		ldrb	r2, [r5]	@ zero_extendqisi2
 3417 00fa 124B     		ldr	r3, .L407+4
 3418 00fc 0F2A     		cmp	r2, #15
 3419 00fe 07D0     		beq	.L392
 3420 0100 19D3     		bcc	.L395
 3421 0102 112A     		cmp	r2, #17
 3422 0104 17D8     		bhi	.L395
1251:src/emvtrans.c ****           case AUTH_ICC:
1252:src/emvtrans.c ****           case REFUND_ICC:
1253:src/emvtrans.c ****             RSP_DATA.w_rspcode = '0'*256+'0';
 3423              		.loc 1 1253 0
 3424 0106 43F23002 		movw	r2, #12336
 3425 010a A3F81627 		strh	r2, [r3, #1814]	@ movhi
 3426 010e 12E0     		b	.L395
 3427              	.L392:
1254:src/emvtrans.c ****             return TRUE;
1255:src/emvtrans.c ****           case SALE_ICC:
1256:src/emvtrans.c ****             SaleTrans(INPUT.b_entry_mode);
 3428              		.loc 1 1256 0
 3429 0110 93F83400 		ldrb	r0, [r3, #52]	@ zero_extendqisi2
 3430 0114 FFF7FEFF 		bl	SaleTrans
 3431              	.LVL447:
 3432 0118 0DE0     		b	.L395
 3433              	.L389:
1257:src/emvtrans.c ****             break;
1258:src/emvtrans.c ****           default:
ARM GAS  C:\Users\AHMED~1.ELE\AppData\Local\Temp\ccALCmni.s 			page 91


1259:src/emvtrans.c ****             break;
1260:src/emvtrans.c ****         }
1261:src/emvtrans.c ****       }
1262:src/emvtrans.c ****       return TRUE;
1263:src/emvtrans.c ****     }
1264:src/emvtrans.c ****   }
1265:src/emvtrans.c ****   //21-08-12 JC --
1266:src/emvtrans.c **** 
1267:src/emvtrans.c ****   if (RSP_DATA.w_rspcode != '0'*256+'0')
 3434              		.loc 1 1267 0
 3435 011a B5F81627 		ldrh	r2, [r5, #1814]
 3436 011e 43F23003 		movw	r3, #12336
 3437 0122 9A42     		cmp	r2, r3
 3438 0124 07D0     		beq	.L395
1268:src/emvtrans.c ****     TransEnd((BOOLEAN)(RSP_DATA.b_response == TRANS_ACP));
 3439              		.loc 1 1268 0
 3440 0126 074B     		ldr	r3, .L407+4
 3441 0128 93F8A808 		ldrb	r0, [r3, #2216]	@ zero_extendqisi2
 3442 012c B0FA80F0 		clz	r0, r0
 3443 0130 4009     		lsrs	r0, r0, #5
 3444 0132 FFF7FEFF 		bl	TransEnd
 3445              	.LVL448:
 3446              	.L395:
1262:src/emvtrans.c ****     }
 3447              		.loc 1 1262 0
 3448 0136 0124     		movs	r4, #1
 3449              	.L384:
1269:src/emvtrans.c ****   return TRUE;
1270:src/emvtrans.c **** }
 3450              		.loc 1 1270 0
 3451 0138 2046     		mov	r0, r4
 3452 013a 02B0     		add	sp, sp, #8
 3453              		.cfi_def_cfa_offset 16
 3454              		@ sp needed
 3455 013c 70BD     		pop	{r4, r5, r6, pc}
 3456              	.L408:
 3457 013e 00BF     		.align	2
 3458              	.L407:
 3459 0140 00000000 		.word	gGDS
 3460 0144 00000000 		.word	gGTS
 3461              		.cfi_endproc
 3462              	.LFE23:
 3463              		.size	EMVTrans, .-EMVTrans
 3464              		.section	.text.EMVInit,"ax",%progbits
 3465              		.align	1
 3466              		.global	EMVInit
 3467              		.thumb
 3468              		.thumb_func
 3469              		.type	EMVInit, %function
 3470              	EMVInit:
 3471              	.LFB24:
1271:src/emvtrans.c **** //*****************************************************************************
1272:src/emvtrans.c **** //  Function        : EMVInit
1273:src/emvtrans.c **** //  Description     : Kernel initialization.
1274:src/emvtrans.c **** //  Input           : N/A
1275:src/emvtrans.c **** //  Return          : N/A
1276:src/emvtrans.c **** //  Note            : N/A
ARM GAS  C:\Users\AHMED~1.ELE\AppData\Local\Temp\ccALCmni.s 			page 92


1277:src/emvtrans.c **** //  Globals Changed : N/A
1278:src/emvtrans.c **** //*****************************************************************************
1279:src/emvtrans.c **** void EMVInit(void)
1280:src/emvtrans.c **** {
 3472              		.loc 1 1280 0
 3473              		.cfi_startproc
 3474              		@ args = 0, pretend = 0, frame = 0
 3475              		@ frame_needed = 0, uses_anonymous_args = 0
 3476              	.LVL449:
 3477 0000 13B5     		push	{r0, r1, r4, lr}
 3478              		.cfi_def_cfa_offset 16
 3479              		.cfi_offset 4, -8
 3480              		.cfi_offset 14, -4
1281:src/emvtrans.c ****   BYTE init_mode=0;
1282:src/emvtrans.c **** 
1283:src/emvtrans.c ****   gGDS->s_EMVIn.bMsg[0] = 0xFF;     // customized message
 3481              		.loc 1 1283 0
 3482 0002 0F4C     		ldr	r4, .L410
 3483 0004 FF22     		movs	r2, #255
 3484 0006 2368     		ldr	r3, [r4]
1284:src/emvtrans.c ****   memcpy(&gGDS->s_EMVIn.bMsg[1], KPinMsg, sizeof(KPinMsg));
 3485              		.loc 1 1284 0
 3486 0008 0E49     		ldr	r1, .L410+4
1283:src/emvtrans.c ****   memcpy(&gGDS->s_EMVIn.bMsg[1], KPinMsg, sizeof(KPinMsg));
 3487              		.loc 1 1283 0
 3488 000a 03F55E53 		add	r3, r3, #14208
 3489 000e 5B68     		ldr	r3, [r3, #4]
 3490 0010 1A70     		strb	r2, [r3]
 3491              		.loc 1 1284 0
 3492 0012 2368     		ldr	r3, [r4]
 3493 0014 4922     		movs	r2, #73
 3494 0016 03F55E53 		add	r3, r3, #14208
 3495 001a 5868     		ldr	r0, [r3, #4]
 3496 001c 0130     		adds	r0, r0, #1
 3497 001e FFF7FEFF 		bl	memcpy
 3498              	.LVL450:
1285:src/emvtrans.c ****   gGDS->s_EMVIn.wLen = 1 + sizeof(KPinMsg);
 3499              		.loc 1 1285 0
 3500 0022 2368     		ldr	r3, [r4]
 3501 0024 4A21     		movs	r1, #74
 3502 0026 03F55E53 		add	r3, r3, #14208
 3503 002a 1A46     		mov	r2, r3
1286:src/emvtrans.c ****   init_mode |= BIT_PSE_SUPPORT;
1287:src/emvtrans.c ****   EMV_DllMsg(init_mode, &gGDS->s_EMVIn, &gGDS->s_EMVOut);
 3504              		.loc 1 1287 0
 3505 002c 0E20     		movs	r0, #14
1285:src/emvtrans.c ****   gGDS->s_EMVIn.wLen = 1 + sizeof(KPinMsg);
 3506              		.loc 1 1285 0
 3507 002e 22F8081B 		strh	r1, [r2], #8	@ movhi
 3508              	.LVL451:
 3509              		.loc 1 1287 0
 3510 0032 0121     		movs	r1, #1
 3511 0034 0092     		str	r2, [sp]
 3512 0036 8022     		movs	r2, #128
 3513 0038 FFF7FEFF 		bl	lib_app_call
 3514              	.LVL452:
1288:src/emvtrans.c **** }
ARM GAS  C:\Users\AHMED~1.ELE\AppData\Local\Temp\ccALCmni.s 			page 93


 3515              		.loc 1 1288 0
 3516 003c 02B0     		add	sp, sp, #8
 3517              		.cfi_def_cfa_offset 8
 3518              		@ sp needed
 3519 003e 10BD     		pop	{r4, pc}
 3520              	.L411:
 3521              		.align	2
 3522              	.L410:
 3523 0040 00000000 		.word	gGDS
 3524 0044 42000000 		.word	.LANCHOR0+66
 3525              		.cfi_endproc
 3526              	.LFE24:
 3527              		.size	EMVInit, .-EMVInit
 3528              		.global	KPinMsg
 3529              		.global	wVMOnlineTags
 3530              		.comm	gIsMaestro,1,1
 3531              		.section	.rodata
 3532              		.align	1
 3533              		.set	.LANCHOR0,. + 0
 3534              	.LC1:
 3535 0000 A0000000 		.ascii	"\240\000\000\000\004\"\003\000"
 3535      04220300 
 3536              	.LC2:
 3537 0008 A0000000 		.ascii	"\240\000\000\000\0040`\000"
 3537      04306000 
 3538              		.type	wVMOnlineTags, %object
 3539              		.size	wVMOnlineTags, 46
 3540              	wVMOnlineTags:
 3541 0010 2A5F     		.short	24362
 3542 0012 345F     		.short	24372
 3543 0014 8200     		.short	130
 3544 0016 8400     		.short	132
 3545 0018 9500     		.short	149
 3546 001a 9A00     		.short	154
 3547 001c 9C00     		.short	156
 3548 001e 029F     		.short	-24830
 3549 0020 039F     		.short	-24829
 3550 0022 099F     		.short	-24823
 3551 0024 109F     		.short	-24816
 3552 0026 1A9F     		.short	-24806
 3553 0028 1E9F     		.short	-24802
 3554 002a 269F     		.short	-24794
 3555 002c 279F     		.short	-24793
 3556 002e 339F     		.short	-24781
 3557 0030 349F     		.short	-24780
 3558 0032 359F     		.short	-24779
 3559 0034 369F     		.short	-24778
 3560 0036 379F     		.short	-24777
 3561 0038 419F     		.short	-24767
 3562 003a 539F     		.short	-24749
 3563 003c 0000     		.short	0
 3564              	.LC12:
 3565 003e 9C010000 		.ascii	"\234\001\000\000"
 3566              	.LC16:
 3567 0042 2A2A2A2A 		.ascii	"**** Enter PIN ****\000---- PIN  OK ----\000 Incorr"
 3567      20456E74 
 3567      65722050 
ARM GAS  C:\Users\AHMED~1.ELE\AppData\Local\Temp\ccALCmni.s 			page 94


 3567      494E202A 
 3567      2A2A2A00 
 3568 006f 65637420 		.ascii	"ect  PIN \000  Last PIN Try  \000\000"
 3568      2050494E 
 3568      20002020 
 3568      4C617374 
 3568      2050494E 
 3569              		.type	KPinMsg, %object
 3570              		.size	KPinMsg, 73
 3571              	KPinMsg:
 3572 008b 2A2A2A2A 		.ascii	"**** Enter PIN ****\000---- PIN  OK ----\000 Incorr"
 3572      20456E74 
 3572      65722050 
 3572      494E202A 
 3572      2A2A2A00 
 3573 00b8 65637420 		.ascii	"ect  PIN \000  Last PIN Try  \000\000"
 3573      2050494E 
 3573      20002020 
 3573      4C617374 
 3573      2050494E 
 3574              		.section	.rodata.str1.1,"aMS",%progbits,1
 3575              	.LC0:
 3576 0000 9F410300 		.ascii	"\237A\003\000"
 3577              	.LC3:
 3578 0004 496E00   		.ascii	"In\000"
 3579              	.LC4:
 3580 0007 4F757400 		.ascii	"Out\000"
 3581              	.LC5:
 3582 000b 1B46310A 		.ascii	"\033F1\012\000"
 3582      00
 3583              	.LC6:
 3584 0010 646C6C4D 		.ascii	"dllMsg(%d)-%s\012\000"
 3584      73672825 
 3584      64292D25 
 3584      730A00
 3585              	.LC7:
 3586 001f 25303258 		.ascii	"%02X \000"
 3586      2000
 3587              	.LC8:
 3588 0025 0A00     		.ascii	"\012\000"
 3589              	.LC9:
 3590 0027 593100   		.ascii	"Y1\000"
 3591              	.LC10:
 3592 002a 9F020600 		.ascii	"\237\002\006\000"
 3593              	.LC11:
 3594 002e 9F030600 		.ascii	"\237\003\006\000"
 3595              	.LC13:
 3596 0032 9C0100   		.ascii	"\234\001\000"
 3597              	.LC14:
 3598 0035 8A0200   		.ascii	"\212\002\000"
 3599              	.LC15:
 3600 0038 890600   		.ascii	"\211\006\000"
 3601              		.bss
 3602              		.set	.LANCHOR1,. + 0
 3603              		.type	bAcceptReferral, %object
 3604              		.size	bAcceptReferral, 1
 3605              	bAcceptReferral:
ARM GAS  C:\Users\AHMED~1.ELE\AppData\Local\Temp\ccALCmni.s 			page 95


 3606 0000 00       		.space	1
 3607              		.type	abResp.12823, %object
 3608              		.size	abResp.12823, 4
 3609              	abResp.12823:
 3610 0001 00000000 		.space	4
 3611              		.text
 3612              	.Letext0:
 3613              		.file 2 "c:\\devtools\\gcc_v49_2014q4\\lib\\gcc\\arm-none-eabi\\4.9.3\\include\\stddef.h"
 3614              		.file 3 "../LibA5T1000/common.h"
 3615              		.file 4 "../LibA5T1000/midware.h"
 3616              		.file 5 "../LibA5T1000/system.h"
 3617              		.file 6 "../LibA5T1000/apm.h"
 3618              		.file 7 "src/sysutil.h"
 3619              		.file 8 "src/message.h"
 3620              		.file 9 "../LibA5T1000/emv2dll.h"
 3621              		.file 10 "../LibA5T1000/emvcl2dll.h"
 3622              		.file 11 "../LibA5T1000/ecrdll.h"
 3623              		.file 12 "src/corevar.h"
 3624              		.file 13 "src/constant.h"
 3625              		.file 14 "src/tranutil.h"
 3626              		.file 15 "src/hardware.h"
 3627              		.file 16 "src/tlvutil.h"
 3628              		.file 17 "src/record.h"
 3629              		.file 18 "c:\\devtools\\gcc_v49_2014q4\\arm-none-eabi\\include\\string.h"
 3630              		.file 19 "../LibA5T1000/util.h"
 3631              		.file 20 "src/lptutil.h"
 3632              		.file 21 "c:\\devtools\\gcc_v49_2014q4\\arm-none-eabi\\include\\stdio.h"
 3633              		.file 22 "src/input.h"
 3634              		.file 23 "src/chkoptn.h"
 3635              		.file 24 "src/keytrans.h"
 3636              		.file 25 "src/reversal.h"
 3637              		.file 26 "src/offline.h"
 3638              		.file 27 "src/hostmsg.h"
 3639              		.file 28 "src/sale.h"